ARM GAS  C:\Users\Moi\AppData\Local\Temp\cchHuUuj.s 			page 1


   1              		.cpu cortex-m4
   2              		.eabi_attribute 27, 1
   3              		.eabi_attribute 28, 1
   4              		.eabi_attribute 20, 1
   5              		.eabi_attribute 21, 1
   6              		.eabi_attribute 23, 3
   7              		.eabi_attribute 24, 1
   8              		.eabi_attribute 25, 1
   9              		.eabi_attribute 26, 1
  10              		.eabi_attribute 30, 2
  11              		.eabi_attribute 34, 1
  12              		.eabi_attribute 18, 4
  13              		.file	"main.c"
  14              		.text
  15              	.Ltext0:
  16              		.cfi_sections	.debug_frame
  17              		.section	.text.chprintf.constprop.0,"ax",%progbits
  18              		.align	1
  19              		.p2align 4,,15
  20              		.syntax unified
  21              		.thumb
  22              		.thumb_func
  23              		.fpu fpv4-sp-d16
  24              		.type	chprintf.constprop.0, %function
  25              	chprintf.constprop.0:
  26              	.LFB264:
  27              		.file 1 "../lib/ChibiOS/os/hal/lib/streams/chprintf.h"
  28              		.loc 1 69 0
  29              		.cfi_startproc
  30              		@ args = 4, pretend = 12, frame = 8
  31              		@ frame_needed = 0, uses_anonymous_args = 1
  32              	.LVL0:
  33 0000 0EB4     		push	{r1, r2, r3}
  34              		.cfi_def_cfa_offset 12
  35              		.cfi_offset 1, -12
  36              		.cfi_offset 2, -8
  37              		.cfi_offset 3, -4
  38 0002 00B5     		push	{lr}
  39              		.cfi_def_cfa_offset 16
  40              		.cfi_offset 14, -16
  41 0004 82B0     		sub	sp, sp, #8
  42              		.cfi_def_cfa_offset 24
  43              		.loc 1 73 0
  44 0006 04AB     		add	r3, sp, #16
  45              		.loc 1 74 0
  46 0008 1A46     		mov	r2, r3
  47 000a 0549     		ldr	r1, .L4
  48 000c 0548     		ldr	r0, .L4+4
  49              	.LVL1:
  50              		.loc 1 73 0
  51 000e 0193     		str	r3, [sp, #4]
  52              		.loc 1 74 0
  53 0010 FFF7FEFF 		bl	chvprintf
  54              	.LVL2:
  55              		.loc 1 78 0
  56 0014 02B0     		add	sp, sp, #8
  57              		.cfi_def_cfa_offset 16
ARM GAS  C:\Users\Moi\AppData\Local\Temp\cchHuUuj.s 			page 2


  58              		@ sp needed
  59 0016 5DF804EB 		ldr	lr, [sp], #4
  60              		.cfi_restore 14
  61              		.cfi_def_cfa_offset 12
  62 001a 03B0     		add	sp, sp, #12
  63              		.cfi_restore 3
  64              		.cfi_restore 2
  65              		.cfi_restore 1
  66              		.cfi_def_cfa_offset 0
  67 001c 7047     		bx	lr
  68              	.L5:
  69 001e 00BF     		.align	2
  70              	.L4:
  71 0020 00000000 		.word	.LC0
  72 0024 00000000 		.word	SD3
  73              		.cfi_endproc
  74              	.LFE264:
  75              		.size	chprintf.constprop.0, .-chprintf.constprop.0
  76              		.section	.text.panic_handler,"ax",%progbits
  77              		.align	1
  78              		.p2align 4,,15
  79              		.global	panic_handler
  80              		.syntax unified
  81              		.thumb
  82              		.thumb_func
  83              		.fpu fpv4-sp-d16
  84              		.type	panic_handler, %function
  85              	panic_handler:
  86              	.LFB257:
  87              		.file 2 "main.c"
  88              		.loc 2 16 0
  89              		.cfi_startproc
  90              		@ Volatile: function does not return.
  91              		@ args = 0, pretend = 0, frame = 0
  92              		@ frame_needed = 0, uses_anonymous_args = 0
  93              		@ link register save eliminated.
  94              	.LVL3:
  95              		.loc 2 19 0
  96 0000 084B     		ldr	r3, .L8
  97              		.loc 2 24 0
  98 0002 094A     		ldr	r2, .L8+4
  99              		.loc 2 19 0
 100 0004 2020     		movs	r0, #32
 101              	.LVL4:
 102              		.loc 2 20 0
 103 0006 4021     		movs	r1, #64
 104              		.loc 2 19 0
 105 0008 5883     		strh	r0, [r3, #26]	@ movhi
 106              		.loc 2 21 0
 107 000a 4FF48065 		mov	r5, #1024
 108              		.loc 2 20 0
 109 000e 5983     		strh	r1, [r3, #26]	@ movhi
 110              		.loc 2 22 0
 111 0010 4FF40064 		mov	r4, #2048
 112              		.loc 2 23 0
 113 0014 4FF48040 		mov	r0, #16384
 114              		.loc 2 24 0
ARM GAS  C:\Users\Moi\AppData\Local\Temp\cchHuUuj.s 			page 3


 115 0018 0421     		movs	r1, #4
 116              		.loc 2 21 0
 117 001a 5D83     		strh	r5, [r3, #26]	@ movhi
 118              		.loc 2 22 0
 119 001c 5C83     		strh	r4, [r3, #26]	@ movhi
 120              		.loc 2 23 0
 121 001e 5883     		strh	r0, [r3, #26]	@ movhi
 122              		.loc 2 24 0
 123 0020 5183     		strh	r1, [r2, #26]	@ movhi
 124              	.L7:
 125 0022 FEE7     		b	.L7
 126              	.L9:
 127              		.align	2
 128              	.L8:
 129 0024 000C0240 		.word	1073875968
 130 0028 00040240 		.word	1073873920
 131              		.cfi_endproc
 132              	.LFE257:
 133              		.size	panic_handler, .-panic_handler
 134              		.global	__aeabi_f2d
 135              		.global	__aeabi_d2f
 136              		.section	.text.show_gravity,"ax",%progbits
 137              		.align	1
 138              		.p2align 4,,15
 139              		.global	show_gravity
 140              		.syntax unified
 141              		.thumb
 142              		.thumb_func
 143              		.fpu fpv4-sp-d16
 144              		.type	show_gravity, %function
 145              	show_gravity:
 146              	.LFB262:
 147              		.loc 2 86 0
 148              		.cfi_startproc
 149              		@ args = 0, pretend = 0, frame = 16
 150              		@ frame_needed = 0, uses_anonymous_args = 0
 151              	.LVL5:
 152 0000 30B5     		push	{r4, r5, lr}
 153              		.cfi_def_cfa_offset 12
 154              		.cfi_offset 4, -12
 155              		.cfi_offset 5, -8
 156              		.cfi_offset 14, -4
 157              		.loc 2 114 0
 158 0002 D0ED007A 		vldr.32	s15, [r0]
 159 0006 9FED737A 		vldr.32	s14, .L46
 160              		.loc 2 86 0
 161 000a 2DED028B 		vpush.64	{d8}
 162              		.cfi_def_cfa_offset 20
 163              		.cfi_offset 80, -20
 164              		.cfi_offset 81, -16
 165              		.loc 2 114 0
 166 000e F0EEE77A 		vabs.f32	s15, s15
 167              		.loc 2 86 0
 168 0012 85B0     		sub	sp, sp, #20
 169              		.cfi_def_cfa_offset 40
 170              		.loc 2 114 0
 171 0014 F4EEC77A 		vcmpe.f32	s15, s14
ARM GAS  C:\Users\Moi\AppData\Local\Temp\cchHuUuj.s 			page 4


 172              		.loc 2 97 0
 173 0018 0023     		movs	r3, #0
 174              		.loc 2 114 0
 175 001a F1EE10FA 		vmrs	APSR_nzcv, FPSCR
 176              		.loc 2 86 0
 177 001e 0446     		mov	r4, r0
 178              	.LVL6:
 179              		.loc 2 97 0
 180 0020 ADF80E30 		strh	r3, [sp, #14]	@ movhi
 181              		.loc 2 114 0
 182 0024 09DC     		bgt	.L11
 183              		.loc 2 114 0 is_stmt 0 discriminator 1
 184 0026 D0ED017A 		vldr.32	s15, [r0, #4]
 185 002a F0EEE77A 		vabs.f32	s15, s15
 186 002e F4EEC77A 		vcmpe.f32	s15, s14
 187 0032 F1EE10FA 		vmrs	APSR_nzcv, FPSCR
 188 0036 40F38D80 		ble	.L12
 189              	.L11:
 190              	.LVL7:
 191              	.LBB33:
 192              	.LBB34:
 193              	.LBB35:
 194              	.LBB36:
 195              	.LBB37:
 196              	.LBB38:
 197              		.file 3 "../lib/ChibiOS/os/ext/CMSIS/include/core_cmFunc.h"
 198              		.loc 3 546 0 is_stmt 1
 199 003a 2023     		movs	r3, #32
 200              		.syntax unified
 201              	@ 546 "../lib/ChibiOS/os/ext/CMSIS/include/core_cmFunc.h" 1
 202 003c 83F31188 		MSR basepri, r3
 203              	@ 0 "" 2
 204              	.LVL8:
 205              		.thumb
 206              		.syntax unified
 207              	.LBE38:
 208              	.LBE37:
 209              	.LBE36:
 210              	.LBE35:
 211              	.LBE34:
 212              		.loc 2 118 0
 213 0040 654D     		ldr	r5, .L46+4
 214              	.LBB40:
 215              	.LBB39:
 216              		.file 4 "../lib/ChibiOS/os/rt/include/chsys.h"
 217              		.loc 4 349 0
 218 0042 FFF7FEFF 		bl	_stats_start_measure_crit_thd
 219              	.LVL9:
 220              		.loc 4 350 0
 221 0046 FFF7FEFF 		bl	_dbg_check_lock
 222              	.LVL10:
 223              	.LBE39:
 224              	.LBE40:
 225              		.loc 2 118 0
 226 004a EB68     		ldr	r3, [r5, #12]
 227              		.loc 2 120 0
 228 004c 6068     		ldr	r0, [r4, #4]	@ float
ARM GAS  C:\Users\Moi\AppData\Local\Temp\cchHuUuj.s 			page 5


 229              		.loc 2 118 0
 230 004e 0022     		movs	r2, #0
 231 0050 5A62     		str	r2, [r3, #36]
 232              		.loc 2 120 0
 233 0052 FFF7FEFF 		bl	__aeabi_f2d
 234              	.LVL11:
 235 0056 CDE90001 		strd	r0, [sp]
 236 005a 2068     		ldr	r0, [r4]	@ float
 237 005c FFF7FEFF 		bl	__aeabi_f2d
 238              	.LVL12:
 239 0060 9DED001B 		vldr.64	d1, [sp]
 240 0064 41EC100B 		vmov	d0, r0, r1
 241 0068 FFF7FEFF 		bl	atan2
 242              	.LVL13:
 243 006c 51EC100B 		vmov	r0, r1, d0
 244 0070 FFF7FEFF 		bl	__aeabi_d2f
 245              	.LVL14:
 246              		.loc 2 122 0
 247 0074 EB68     		ldr	r3, [r5, #12]
 248 0076 5B6A     		ldr	r3, [r3, #36]
 249 0078 9BB2     		uxth	r3, r3
 250 007a ADF80E30 		strh	r3, [sp, #14]	@ movhi
 251              		.loc 2 120 0
 252 007e 08EE100A 		vmov	s16, r0
 253              	.LVL15:
 254              	.LBB41:
 255              	.LBB42:
 256              		.loc 4 360 0
 257 0082 FFF7FEFF 		bl	_dbg_check_unlock
 258              	.LVL16:
 259              		.loc 4 361 0
 260 0086 FFF7FEFF 		bl	_stats_stop_measure_crit_thd
 261              	.LVL17:
 262              		.loc 4 367 0
 263 008a 544B     		ldr	r3, .L46+8
 264 008c 1A68     		ldr	r2, [r3]
 265 008e 9A42     		cmp	r2, r3
 266 0090 04D0     		beq	.L14
 267 0092 9969     		ldr	r1, [r3, #24]
 268 0094 9368     		ldr	r3, [r2, #8]
 269 0096 8A68     		ldr	r2, [r1, #8]
 270 0098 9A42     		cmp	r2, r3
 271 009a 5ED3     		bcc	.L42
 272              	.L14:
 273              	.LVL18:
 274              	.LBB43:
 275              	.LBB44:
 276              	.LBB45:
 277              		.loc 3 546 0
 278 009c 0023     		movs	r3, #0
 279              		.syntax unified
 280              	@ 546 "../lib/ChibiOS/os/ext/CMSIS/include/core_cmFunc.h" 1
 281 009e 83F31188 		MSR basepri, r3
 282              	@ 0 "" 2
 283              	.LVL19:
 284              		.thumb
 285              		.syntax unified
ARM GAS  C:\Users\Moi\AppData\Local\Temp\cchHuUuj.s 			page 6


 286              	.LBE45:
 287              	.LBE44:
 288              	.LBE43:
 289              	.LBE42:
 290              	.LBE41:
 291              		.loc 2 126 0
 292 00a2 9FED4F7A 		vldr.32	s14, .L46+12
 293              		.loc 2 130 0
 294 00a6 DFED4F7A 		vldr.32	s15, .L46+16
 295              		.loc 2 126 0
 296 00aa 38EE078A 		vadd.f32	s16, s16, s14
 297              	.LVL20:
 298              		.loc 2 130 0
 299 00ae B4EEE78A 		vcmpe.f32	s16, s15
 300 00b2 F1EE10FA 		vmrs	APSR_nzcv, FPSCR
 301              		.loc 2 131 0
 302 00b6 C4BF     		itt	gt
 303 00b8 DFED4B7A 		vldrgt.32	s15, .L46+20
 304 00bc 38EE678A 		vsubgt.f32	s16, s16, s15
 305              	.LVL21:
 306              		.loc 2 134 0
 307 00c0 B5EEC08A 		vcmpe.f32	s16, #0
 308 00c4 F1EE10FA 		vmrs	APSR_nzcv, FPSCR
 309 00c8 28DB     		blt	.L17
 310              		.loc 2 134 0 is_stmt 0 discriminator 1
 311 00ca DFED487A 		vldr.32	s15, .L46+24
 312 00ce B4EEE78A 		vcmpe.f32	s16, s15
 313 00d2 F1EE10FA 		vmrs	APSR_nzcv, FPSCR
 314 00d6 21D5     		bpl	.L17
 315              	.LBE33:
 316              		.loc 2 90 0 is_stmt 1
 317 00d8 0024     		movs	r4, #0
 318              	.LVL22:
 319              	.LBB48:
 320              		.loc 2 135 0
 321 00da 0125     		movs	r5, #1
 322              	.LVL23:
 323              	.L19:
 324              	.LBE48:
 325              		.loc 2 146 0
 326 00dc BDF80E20 		ldrh	r2, [sp, #14]
 327 00e0 4349     		ldr	r1, .L46+28
 328 00e2 4448     		ldr	r0, .L46+32
 329 00e4 FFF7FEFF 		bl	chprintf.constprop.0
 330              	.LVL24:
 331              		.loc 2 148 0
 332 00e8 434B     		ldr	r3, .L46+36
 333 00ea 2021     		movs	r1, #32
 334              		.loc 2 150 0
 335 00ec 002D     		cmp	r5, #0
 336              		.loc 2 149 0
 337 00ee 4FF04002 		mov	r2, #64
 338              		.loc 2 148 0
 339 00f2 9961     		str	r1, [r3, #24]
 340              		.loc 2 150 0
 341 00f4 0CBF     		ite	eq
 342 00f6 4FF48061 		moveq	r1, #1024
ARM GAS  C:\Users\Moi\AppData\Local\Temp\cchHuUuj.s 			page 7


 343 00fa 4FF08061 		movne	r1, #67108864
 344              		.loc 2 149 0
 345 00fe 9A61     		str	r2, [r3, #24]
 346              	.LVL25:
 347              	.L29:
 348              		.loc 2 150 0 discriminator 8
 349 0100 3D4A     		ldr	r2, .L46+36
 350              		.loc 2 151 0 discriminator 8
 351 0102 002C     		cmp	r4, #0
 352 0104 14BF     		ite	ne
 353 0106 4FF00063 		movne	r3, #134217728
 354 010a 4FF40063 		moveq	r3, #2048
 355              		.loc 2 150 0 discriminator 8
 356 010e 9161     		str	r1, [r2, #24]
 357              	.LVL26:
 358              	.L28:
 359              		.loc 2 151 0 discriminator 8
 360 0110 394A     		ldr	r2, .L46+36
 361 0112 9361     		str	r3, [r2, #24]
 362              		.loc 2 153 0 discriminator 8
 363 0114 05B0     		add	sp, sp, #20
 364              		.cfi_remember_state
 365              		.cfi_def_cfa_offset 20
 366              		@ sp needed
 367 0116 BDEC028B 		vldm	sp!, {d8}
 368              		.cfi_restore 80
 369              		.cfi_restore 81
 370              		.cfi_def_cfa_offset 12
 371 011a 30BD     		pop	{r4, r5, pc}
 372              	.LVL27:
 373              	.L17:
 374              		.cfi_restore_state
 375              	.LBB49:
 376              		.loc 2 136 0
 377 011c DFED337A 		vldr.32	s15, .L46+24
 378 0120 B4EEE78A 		vcmpe.f32	s16, s15
 379 0124 F1EE10FA 		vmrs	APSR_nzcv, FPSCR
 380 0128 06DB     		blt	.L20
 381              		.loc 2 136 0 is_stmt 0 discriminator 1
 382 012a DFED2E7A 		vldr.32	s15, .L46+16
 383 012e B4EEE78A 		vcmpe.f32	s16, s15
 384 0132 F1EE10FA 		vmrs	APSR_nzcv, FPSCR
 385 0136 41D4     		bmi	.L31
 386              	.L20:
 387              		.loc 2 138 0 is_stmt 1
 388 0138 DFED307A 		vldr.32	s15, .L46+40
 389 013c B4EEE78A 		vcmpe.f32	s16, s15
 390 0140 F1EE10FA 		vmrs	APSR_nzcv, FPSCR
 391 0144 0DDA     		bge	.L43
 392              	.L22:
 393              		.loc 2 140 0
 394 0146 DFED2E7A 		vldr.32	s15, .L46+44
 395 014a B4EEE78A 		vcmpe.f32	s16, s15
 396 014e F1EE10FA 		vmrs	APSR_nzcv, FPSCR
 397 0152 1FDA     		bge	.L44
 398              	.LVL28:
 399              	.L12:
ARM GAS  C:\Users\Moi\AppData\Local\Temp\cchHuUuj.s 			page 8


 400              	.LBE49:
 401              		.loc 2 90 0
 402 0154 0024     		movs	r4, #0
 403              	.LVL29:
 404 0156 2546     		mov	r5, r4
 405 0158 C0E7     		b	.L19
 406              	.LVL30:
 407              	.L42:
 408              	.LBB50:
 409              	.LBB47:
 410              	.LBB46:
 411              		.loc 4 367 0
 412 015a 2A48     		ldr	r0, .L46+48
 413 015c FFF7FEFF 		bl	chSysHalt
 414              	.LVL31:
 415 0160 9CE7     		b	.L14
 416              	.L43:
 417              	.LBE46:
 418              	.LBE47:
 419              		.loc 2 138 0 discriminator 1
 420 0162 DFED277A 		vldr.32	s15, .L46+44
 421 0166 B4EEE78A 		vcmpe.f32	s16, s15
 422 016a F1EE10FA 		vmrs	APSR_nzcv, FPSCR
 423 016e EAD5     		bpl	.L22
 424              	.LVL32:
 425              	.LBE50:
 426              		.loc 2 146 0
 427 0170 BDF80E20 		ldrh	r2, [sp, #14]
 428 0174 1E49     		ldr	r1, .L46+28
 429 0176 1F48     		ldr	r0, .L46+32
 430 0178 FFF7FEFF 		bl	chprintf.constprop.0
 431              	.LVL33:
 432              		.loc 2 148 0
 433 017c 1E4A     		ldr	r2, .L46+36
 434 017e 4FF40013 		mov	r3, #2097152
 435              		.loc 2 149 0
 436 0182 4020     		movs	r0, #64
 437              		.loc 2 150 0
 438 0184 4FF48061 		mov	r1, #1024
 439              		.loc 2 148 0
 440 0188 9361     		str	r3, [r2, #24]
 441              		.loc 2 149 0
 442 018a 9061     		str	r0, [r2, #24]
 443              		.loc 2 150 0
 444 018c 4FF40063 		mov	r3, #2048
 445 0190 9161     		str	r1, [r2, #24]
 446 0192 BDE7     		b	.L28
 447              	.LVL34:
 448              	.L44:
 449              		.loc 2 146 0 discriminator 1
 450 0194 BDF80E20 		ldrh	r2, [sp, #14]
 451 0198 1549     		ldr	r1, .L46+28
 452 019a 1648     		ldr	r0, .L46+32
 453 019c FFF7FEFF 		bl	chprintf.constprop.0
 454              	.LVL35:
 455              		.loc 2 148 0 discriminator 1
 456 01a0 154A     		ldr	r2, .L46+36
ARM GAS  C:\Users\Moi\AppData\Local\Temp\cchHuUuj.s 			page 9


 457              		.loc 2 149 0 discriminator 1
 458 01a2 B5EEC08A 		vcmpe.f32	s16, #0
 459              		.loc 2 148 0 discriminator 1
 460 01a6 2023     		movs	r3, #32
 461              		.loc 2 149 0 discriminator 1
 462 01a8 F1EE10FA 		vmrs	APSR_nzcv, FPSCR
 463              		.loc 2 148 0 discriminator 1
 464 01ac 9361     		str	r3, [r2, #24]
 465              		.loc 2 149 0 discriminator 1
 466 01ae 08D4     		bmi	.L45
 467              		.loc 2 149 0 is_stmt 0
 468 01b0 4023     		movs	r3, #64
 469 01b2 9361     		str	r3, [r2, #24]
 470              		.loc 2 90 0 is_stmt 1
 471 01b4 0024     		movs	r4, #0
 472              	.LVL36:
 473              		.loc 2 149 0
 474 01b6 4FF48061 		mov	r1, #1024
 475 01ba A1E7     		b	.L29
 476              	.LVL37:
 477              	.L31:
 478              	.LBB51:
 479              		.loc 2 137 0
 480 01bc 0124     		movs	r4, #1
 481              	.LVL38:
 482              	.LBE51:
 483              		.loc 2 90 0
 484 01be 0025     		movs	r5, #0
 485 01c0 8CE7     		b	.L19
 486              	.LVL39:
 487              	.L45:
 488              		.loc 2 149 0
 489 01c2 4FF48003 		mov	r3, #4194304
 490              		.loc 2 150 0
 491 01c6 4FF48061 		mov	r1, #1024
 492              		.loc 2 149 0
 493 01ca 9361     		str	r3, [r2, #24]
 494              		.loc 2 150 0
 495 01cc 4FF40063 		mov	r3, #2048
 496 01d0 9161     		str	r1, [r2, #24]
 497 01d2 9DE7     		b	.L28
 498              	.L47:
 499              		.align	2
 500              	.L46:
 501 01d4 CDCC4C3E 		.word	1045220557
 502 01d8 00000000 		.word	GPTD11
 503 01dc 00000000 		.word	ch
 504 01e0 DB0F493F 		.word	1061752795
 505 01e4 DB0F4940 		.word	1078530011
 506 01e8 DB0FC940 		.word	1086918619
 507 01ec DB0FC93F 		.word	1070141403
 508 01f0 00000000 		.word	.LC0
 509 01f4 00000000 		.word	SD3
 510 01f8 000C0240 		.word	1073875968
 511 01fc DB0F49C0 		.word	-1068953637
 512 0200 DB0FC9BF 		.word	-1077342245
 513 0204 00000000 		.word	.LANCHOR0
ARM GAS  C:\Users\Moi\AppData\Local\Temp\cchHuUuj.s 			page 10


 514              		.cfi_endproc
 515              	.LFE262:
 516              		.size	show_gravity, .-show_gravity
 517              		.section	.text.startup.main,"ax",%progbits
 518              		.align	1
 519              		.p2align 4,,15
 520              		.global	main
 521              		.syntax unified
 522              		.thumb
 523              		.thumb_func
 524              		.fpu fpv4-sp-d16
 525              		.type	main, %function
 526              	main:
 527              	.LFB263:
 528              		.loc 2 156 0
 529              		.cfi_startproc
 530              		@ args = 0, pretend = 0, frame = 80
 531              		@ frame_needed = 0, uses_anonymous_args = 0
 532 0000 10B5     		push	{r4, lr}
 533              		.cfi_def_cfa_offset 8
 534              		.cfi_offset 4, -8
 535              		.cfi_offset 14, -4
 536 0002 94B0     		sub	sp, sp, #80
 537              		.cfi_def_cfa_offset 88
 538              		.loc 2 158 0
 539 0004 FFF7FEFF 		bl	halInit
 540              	.LVL40:
 541              		.loc 2 159 0
 542 0008 FFF7FEFF 		bl	chSysInit
 543              	.LVL41:
 544              	.LBB52:
 545              	.LBB53:
 546              		.loc 2 40 0
 547 000c 1149     		ldr	r1, .L51
 548 000e 1248     		ldr	r0, .L51+4
 549 0010 FFF7FEFF 		bl	sdStart
 550              	.LVL42:
 551              	.LBE53:
 552              	.LBE52:
 553              		.loc 2 163 0
 554 0014 FFF7FEFF 		bl	imu_start
 555              	.LVL43:
 556              		.loc 2 166 0
 557 0018 104A     		ldr	r2, .L51+8
 558 001a 1149     		ldr	r1, .L51+12
 559 001c 1148     		ldr	r0, .L51+16
 560 001e FFF7FEFF 		bl	messagebus_init
 561              	.LVL44:
 562              		.loc 2 168 0
 563 0022 1149     		ldr	r1, .L51+20
 564 0024 0F48     		ldr	r0, .L51+16
 565 0026 FFF7FEFF 		bl	messagebus_find_topic_blocking
 566              	.LVL45:
 567 002a 0446     		mov	r4, r0
 568              	.LVL46:
 569              		.loc 2 172 0
 570 002c 4FF4FA60 		mov	r0, #2000
ARM GAS  C:\Users\Moi\AppData\Local\Temp\cchHuUuj.s 			page 11


 571              	.LVL47:
 572 0030 FFF7FEFF 		bl	chThdSleep
 573              	.LVL48:
 574              		.loc 2 173 0
 575 0034 2046     		mov	r0, r4
 576 0036 C821     		movs	r1, #200
 577 0038 FFF7FEFF 		bl	imu_compute_offset
 578              	.LVL49:
 579              	.L49:
 580              		.loc 2 177 0 discriminator 1
 581 003c 5022     		movs	r2, #80
 582 003e 6946     		mov	r1, sp
 583 0040 2046     		mov	r0, r4
 584 0042 FFF7FEFF 		bl	messagebus_topic_wait
 585              	.LVL50:
 586              		.loc 2 179 0 discriminator 1
 587 0046 6846     		mov	r0, sp
 588 0048 FFF7FEFF 		bl	show_gravity
 589              	.LVL51:
 590              		.loc 2 180 0 discriminator 1
 591 004c 0A20     		movs	r0, #10
 592 004e FFF7FEFF 		bl	chThdSleep
 593              	.LVL52:
 594 0052 F3E7     		b	.L49
 595              	.L52:
 596              		.align	2
 597              	.L51:
 598 0054 00000000 		.word	.LANCHOR1
 599 0058 00000000 		.word	SD3
 600 005c 00000000 		.word	.LANCHOR2
 601 0060 00000000 		.word	.LANCHOR3
 602 0064 00000000 		.word	.LANCHOR4
 603 0068 00000000 		.word	.LC1
 604              		.cfi_endproc
 605              	.LFE263:
 606              		.size	main, .-main
 607              		.global	bus_condvar
 608              		.global	bus_lock
 609              		.global	bus
 610              		.section	.bss.bus,"aw",%nobits
 611              		.align	2
 612              		.set	.LANCHOR4,. + 0
 613              		.type	bus, %object
 614              		.size	bus, 12
 615              	bus:
 616 0000 00000000 		.space	12
 616      00000000 
 616      00000000 
 617              		.section	.data.bus_condvar,"aw",%progbits
 618              		.align	2
 619              		.set	.LANCHOR2,. + 0
 620              		.type	bus_condvar, %object
 621              		.size	bus_condvar, 8
 622              	bus_condvar:
 623 0000 00000000 		.word	bus_condvar
 624 0004 00000000 		.word	bus_condvar
 625              		.section	.data.bus_lock,"aw",%progbits
ARM GAS  C:\Users\Moi\AppData\Local\Temp\cchHuUuj.s 			page 12


 626              		.align	2
 627              		.set	.LANCHOR3,. + 0
 628              		.type	bus_lock, %object
 629              		.size	bus_lock, 20
 630              	bus_lock:
 631 0000 00000000 		.word	bus_lock
 632 0004 00000000 		.word	bus_lock
 633 0008 00000000 		.word	0
 634 000c 00000000 		.word	0
 635 0010 00000000 		.word	0
 636              		.section	.data.ser_cfg.10164,"aw",%progbits
 637              		.align	2
 638              		.set	.LANCHOR1,. + 0
 639              		.type	ser_cfg.10164, %object
 640              		.size	ser_cfg.10164, 12
 641              	ser_cfg.10164:
 642 0000 00C20100 		.word	115200
 643 0004 0000     		.short	0
 644 0006 0000     		.short	0
 645 0008 0000     		.short	0
 646 000a 0000     		.space	2
 647              		.section	.rodata.__func__.7153,"a",%progbits
 648              		.align	2
 649              		.set	.LANCHOR0,. + 0
 650              		.type	__func__.7153, %object
 651              		.size	__func__.7153, 12
 652              	__func__.7153:
 653 0000 63685379 		.ascii	"chSysUnlock\000"
 653      73556E6C 
 653      6F636B00 
 654              		.section	.rodata.chprintf.constprop.0.str1.4,"aMS",%progbits,1
 655              		.align	2
 656              	.LC0:
 657 0000 74696D65 		.ascii	"time = %dus\012\000"
 657      203D2025 
 657      6475730A 
 657      00
 658              		.section	.rodata.main.str1.4,"aMS",%progbits,1
 659              		.align	2
 660              	.LC1:
 661 0000 2F696D75 		.ascii	"/imu\000"
 661      00
 662              		.text
 663              	.Letext0:
 664              		.file 5 "c:\\users\\moi\\documents\\_microinfo\\epuck-eclipse\\tools\\gcc-arm-none-eabi-7-2017-q4-
 665              		.file 6 "c:\\users\\moi\\documents\\_microinfo\\epuck-eclipse\\tools\\gcc-arm-none-eabi-7-2017-q4-
 666              		.file 7 "c:\\users\\moi\\documents\\_microinfo\\epuck-eclipse\\tools\\gcc-arm-none-eabi-7-2017-q4-
 667              		.file 8 "../lib/ChibiOS/os/rt/ports/ARMCMx/compilers/GCC/chtypes.h"
 668              		.file 9 "../lib/ChibiOS/os/rt/include/chsystypes.h"
 669              		.file 10 "../lib/ChibiOS/os/rt/include/chschd.h"
 670              		.file 11 "../lib/ChibiOS/os/ext/CMSIS/include/core_cm4.h"
 671              		.file 12 "../lib/ChibiOS/os/ext/CMSIS/ST/system_stm32f4xx.h"
 672              		.file 13 "../lib/ChibiOS/os/ext/CMSIS/ST/stm32f407xx.h"
 673              		.file 14 "../lib/ChibiOS/os/rt/ports/ARMCMx/chcore.h"
 674              		.file 15 "../lib/ChibiOS/os/rt/ports/ARMCMx/chcore_v7m.h"
 675              		.file 16 "../lib/ChibiOS/os/rt/include/chdebug.h"
 676              		.file 17 "../lib/ChibiOS/os/rt/include/chtm.h"
ARM GAS  C:\Users\Moi\AppData\Local\Temp\cchHuUuj.s 			page 13


 677              		.file 18 "../lib/ChibiOS/os/rt/include/chstats.h"
 678              		.file 19 "../lib/ChibiOS/os/rt/include/chsem.h"
 679              		.file 20 "../lib/ChibiOS/os/rt/include/chmtx.h"
 680              		.file 21 "../lib/ChibiOS/os/rt/include/chregistry.h"
 681              		.file 22 "../lib/ChibiOS/os/rt/include/chcond.h"
 682              		.file 23 "../lib/ChibiOS/os/rt/include/chevents.h"
 683              		.file 24 "../lib/ChibiOS/os/rt/include/chqueues.h"
 684              		.file 25 "../lib/ChibiOS/os/rt/include/chstreams.h"
 685              		.file 26 "../lib/ChibiOS/os/hal/ports/STM32/STM32F4xx/stm32_dma.h"
 686              		.file 27 "../lib/ChibiOS/os/hal/ports/STM32/LLD/GPIOv2/pal_lld.h"
 687              		.file 28 "../lib/ChibiOS/os/hal/include/gpt.h"
 688              		.file 29 "../lib/ChibiOS/os/hal/ports/STM32/LLD/TIMv1/gpt_lld.h"
 689              		.file 30 "../lib/ChibiOS/os/hal/ports/STM32/LLD/TIMv1/stm32_tim.h"
 690              		.file 31 "../lib/ChibiOS/os/hal/include/i2c.h"
 691              		.file 32 "../lib/ChibiOS/os/hal/ports/STM32/LLD/I2Cv1/i2c_lld.h"
 692              		.file 33 "../lib/ChibiOS/os/hal/include/serial.h"
 693              		.file 34 "../lib/ChibiOS/os/hal/ports/STM32/LLD/USARTv1/serial_lld.h"
 694              		.file 35 "../lib/ChibiOS/os/hal/include/usb.h"
 695              		.file 36 "../lib/ChibiOS/os/hal/ports/STM32/LLD/OTGv1/usb_lld.h"
 696              		.file 37 "../lib/ChibiOS/os/hal/ports/STM32/LLD/OTGv1/stm32_otg.h"
 697              		.file 38 "c:\\users\\moi\\documents\\_microinfo\\epuck-eclipse\\tools\\gcc-arm-none-eabi-7-2017-q4
 698              		.file 39 "c:\\users\\moi\\documents\\_microinfo\\epuck-eclipse\\tools\\gcc-arm-none-eabi-7-2017-q4
 699              		.file 40 "c:\\users\\moi\\documents\\_microinfo\\epuck-eclipse\\tools\\gcc-arm-none-eabi-7-2017-q4
 700              		.file 41 "c:\\users\\moi\\documents\\_microinfo\\epuck-eclipse\\tools\\gcc-arm-none-eabi-7-2017-q4
 701              		.file 42 "c:\\users\\moi\\documents\\_microinfo\\epuck-eclipse\\tools\\gcc-arm-none-eabi-7-2017-q4
 702              		.file 43 "<built-in>"
 703              		.file 44 "c:\\users\\moi\\documents\\_microinfo\\epuck-eclipse\\tools\\gcc-arm-none-eabi-7-2017-q4
 704              		.file 45 "../lib/msgbus/messagebus.h"
 705              		.file 46 "./mpu9250.h"
 706              		.file 47 "./imu.h"
 707              		.file 48 "../lib/ChibiOS/os/hal/include/hal.h"
 708              		.file 49 "../lib/ChibiOS/os/rt/include/chthreads.h"