ARM GAS  C:\Users\Moi\AppData\Local\Temp\ccP2HW8a.s 			page 1


   1              		.cpu cortex-m4
   2              		.eabi_attribute 27, 1
   3              		.eabi_attribute 28, 1
   4              		.eabi_attribute 20, 1
   5              		.eabi_attribute 21, 1
   6              		.eabi_attribute 23, 3
   7              		.eabi_attribute 24, 1
   8              		.eabi_attribute 25, 1
   9              		.eabi_attribute 26, 1
  10              		.eabi_attribute 30, 2
  11              		.eabi_attribute 34, 1
  12              		.eabi_attribute 18, 4
  13              		.file	"main.c"
  14              		.text
  15              	.Ltext0:
  16              		.cfi_sections	.debug_frame
  17              		.section	.text.chprintf,"ax",%progbits
  18              		.align	1
  19              		.p2align 4,,15
  20              		.syntax unified
  21              		.thumb
  22              		.thumb_func
  23              		.fpu fpv4-sp-d16
  24              		.type	chprintf, %function
  25              	chprintf:
  26              	.LFB222:
  27              		.file 1 ".//ChibiOS//os/hal/lib/streams/chprintf.h"
  28              		.loc 1 69 0
  29              		.cfi_startproc
  30              		@ args = 4, pretend = 12, frame = 8
  31              		@ frame_needed = 0, uses_anonymous_args = 1
  32              	.LVL0:
  33 0000 0EB4     		push	{r1, r2, r3}
  34              		.cfi_def_cfa_offset 12
  35              		.cfi_offset 1, -12
  36              		.cfi_offset 2, -8
  37              		.cfi_offset 3, -4
  38 0002 10B5     		push	{r4, lr}
  39              		.cfi_def_cfa_offset 20
  40              		.cfi_offset 4, -20
  41              		.cfi_offset 14, -16
  42 0004 83B0     		sub	sp, sp, #12
  43              		.cfi_def_cfa_offset 32
  44              		.loc 1 69 0
  45 0006 05AA     		add	r2, sp, #20
  46 0008 094C     		ldr	r4, .L6
  47 000a 52F8041B 		ldr	r1, [r2], #4
  48 000e 2368     		ldr	r3, [r4]
  49              		.loc 1 73 0
  50 0010 0092     		str	r2, [sp]
  51              		.loc 1 69 0
  52 0012 0193     		str	r3, [sp, #4]
  53              		.loc 1 74 0
  54 0014 FFF7FEFF 		bl	chvprintf
  55              	.LVL1:
  56              		.loc 1 78 0
  57 0018 019A     		ldr	r2, [sp, #4]
ARM GAS  C:\Users\Moi\AppData\Local\Temp\ccP2HW8a.s 			page 2


  58 001a 2368     		ldr	r3, [r4]
  59 001c 9A42     		cmp	r2, r3
  60 001e 04D1     		bne	.L5
  61 0020 03B0     		add	sp, sp, #12
  62              		.cfi_remember_state
  63              		.cfi_def_cfa_offset 20
  64              		@ sp needed
  65 0022 BDE81040 		pop	{r4, lr}
  66              		.cfi_restore 14
  67              		.cfi_restore 4
  68              		.cfi_def_cfa_offset 12
  69 0026 03B0     		add	sp, sp, #12
  70              		.cfi_restore 3
  71              		.cfi_restore 2
  72              		.cfi_restore 1
  73              		.cfi_def_cfa_offset 0
  74 0028 7047     		bx	lr
  75              	.L5:
  76              		.cfi_restore_state
  77 002a FFF7FEFF 		bl	__stack_chk_fail
  78              	.LVL2:
  79              	.L7:
  80 002e 00BF     		.align	2
  81              	.L6:
  82 0030 00000000 		.word	__stack_chk_guard
  83              		.cfi_endproc
  84              	.LFE222:
  85              		.size	chprintf, .-chprintf
  86              		.global	__aeabi_i2d
  87              		.global	__aeabi_dmul
  88              		.global	__aeabi_ddiv
  89              		.global	__aeabi_f2d
  90              		.section	.text.selector_thd,"ax",%progbits
  91              		.align	1
  92              		.p2align 4,,15
  93              		.syntax unified
  94              		.thumb
  95              		.thumb_func
  96              		.fpu fpv4-sp-d16
  97              		.type	selector_thd, %function
  98              	selector_thd:
  99              	.LFB263:
 100              		.file 2 ".//src/main.c"
 101              		.loc 2 74 0
 102              		.cfi_startproc
 103              		@ args = 0, pretend = 0, frame = 256
 104              		@ frame_needed = 0, uses_anonymous_args = 0
 105              	.LVL3:
 106 0000 2DE9F04F 		push	{r4, r5, r6, r7, r8, r9, r10, fp, lr}
 107              		.cfi_def_cfa_offset 36
 108              		.cfi_offset 4, -36
 109              		.cfi_offset 5, -32
 110              		.cfi_offset 6, -28
 111              		.cfi_offset 7, -24
 112              		.cfi_offset 8, -20
 113              		.cfi_offset 9, -16
 114              		.cfi_offset 10, -12
ARM GAS  C:\Users\Moi\AppData\Local\Temp\ccP2HW8a.s 			page 3


 115              		.cfi_offset 11, -8
 116              		.cfi_offset 14, -4
 117              	.LBB62:
 118              	.LBB63:
 119              		.file 3 ".//ChibiOS//os/rt/include/chregistry.h"
 120              		.loc 3 135 0
 121 0004 6B4C     		ldr	r4, .L176
 122 0006 6C4A     		ldr	r2, .L176+4
 123 0008 A369     		ldr	r3, [r4, #24]
 124              	.LBE63:
 125              	.LBE62:
 126              		.loc 2 81 0
 127 000a 6C49     		ldr	r1, .L176+8
 128              	.LBB65:
 129              	.LBB64:
 130              		.loc 3 135 0
 131 000c 9A61     		str	r2, [r3, #24]
 132              	.LBE64:
 133              	.LBE65:
 134              		.loc 2 74 0
 135 000e 6C4B     		ldr	r3, .L176+12
 136              		.loc 2 81 0
 137 0010 6C48     		ldr	r0, .L176+16
 138              	.LVL4:
 139              		.loc 2 74 0
 140 0012 1B68     		ldr	r3, [r3]
 141 0014 C7B0     		sub	sp, sp, #284
 142              		.cfi_def_cfa_offset 320
 143              		.loc 2 88 0
 144 0016 0025     		movs	r5, #0
 145              		.loc 2 74 0
 146 0018 4593     		str	r3, [sp, #276]
 147              	.LVL5:
 148              		.loc 2 81 0
 149 001a FFF7FEFF 		bl	messagebus_find_topic_blocking
 150              	.LVL6:
 151              		.loc 2 85 0
 152 001e 6A49     		ldr	r1, .L176+20
 153              		.loc 2 81 0
 154 0020 0890     		str	r0, [sp, #32]
 155              	.LVL7:
 156              		.loc 2 85 0
 157 0022 6848     		ldr	r0, .L176+16
 158              	.LVL8:
 159 0024 FFF7FEFF 		bl	messagebus_find_topic_blocking
 160              	.LVL9:
 161              		.loc 2 91 0
 162 0028 AB46     		mov	fp, r5
 163              		.loc 2 85 0
 164 002a 0A90     		str	r0, [sp, #40]
 165              	.LVL10:
 166              		.loc 2 88 0
 167 002c 8DF83F50 		strb	r5, [sp, #63]
 168              	.LVL11:
 169              		.loc 2 102 0
 170 0030 ADF81051 		strh	r5, [sp, #272]	@ movhi
 171              	.LVL12:
ARM GAS  C:\Users\Moi\AppData\Local\Temp\ccP2HW8a.s 			page 4


 172              		.loc 2 97 0
 173 0034 0C95     		str	r5, [sp, #48]
 174 0036 2E46     		mov	r6, r5
 175              		.loc 2 108 0
 176 0038 FFF7FEFF 		bl	calibrate_acc
 177              	.LVL13:
 178 003c 2F46     		mov	r7, r5
 179              		.loc 2 95 0
 180 003e 0995     		str	r5, [sp, #36]
 181              		.loc 2 109 0
 182 0040 FFF7FEFF 		bl	calibrate_gyro
 183              	.LVL14:
 184              		.loc 2 95 0
 185 0044 0B95     		str	r5, [sp, #44]
 186              		.loc 2 94 0
 187 0046 0795     		str	r5, [sp, #28]
 188              	.LVL15:
 189              	.L9:
 190              	.LBB66:
 191              	.LBB67:
 192              	.LBB68:
 193              	.LBB69:
 194              	.LBB70:
 195              	.LBB71:
 196              	.LBB72:
 197              		.file 4 ".//ChibiOS//os/ext/CMSIS/include/core_cmFunc.h"
 198              		.loc 4 546 0
 199 0048 2023     		movs	r3, #32
 200              		.syntax unified
 201              	@ 546 ".//ChibiOS//os/ext/CMSIS/include/core_cmFunc.h" 1
 202 004a 83F31188 		MSR basepri, r3
 203              	@ 0 "" 2
 204              	.LVL16:
 205              		.thumb
 206              		.syntax unified
 207              	.LBE72:
 208              	.LBE71:
 209              	.LBE70:
 210              		.file 5 ".//ChibiOS//os/rt/include/chsys.h"
 211              		.loc 5 349 0
 212 004e FFF7FEFF 		bl	_stats_start_measure_crit_thd
 213              	.LVL17:
 214              		.loc 5 350 0
 215 0052 FFF7FEFF 		bl	_dbg_check_lock
 216              	.LVL18:
 217              	.LBE69:
 218              	.LBE68:
 219              	.LBB85:
 220              	.LBB86:
 221              		.file 6 ".//ChibiOS//os/rt/include/chvt.h"
 222              		.loc 6 231 0
 223 0056 A56A     		ldr	r5, [r4, #40]
 224              	.LBE86:
 225              	.LBE85:
 226              	.LBB90:
 227              	.LBB91:
 228              		.loc 5 360 0
ARM GAS  C:\Users\Moi\AppData\Local\Temp\ccP2HW8a.s 			page 5


 229 0058 FFF7FEFF 		bl	_dbg_check_unlock
 230              	.LVL19:
 231              		.loc 5 361 0
 232 005c FFF7FEFF 		bl	_stats_stop_measure_crit_thd
 233              	.LVL20:
 234              		.loc 5 367 0
 235 0060 2368     		ldr	r3, [r4]
 236 0062 A342     		cmp	r3, r4
 237 0064 07D0     		beq	.L33
 238 0066 A269     		ldr	r2, [r4, #24]
 239 0068 9B68     		ldr	r3, [r3, #8]
 240 006a 9268     		ldr	r2, [r2, #8]
 241 006c 9A42     		cmp	r2, r3
 242 006e 02D2     		bcs	.L33
 243 0070 5648     		ldr	r0, .L176+24
 244 0072 FFF7FEFF 		bl	chSysHalt
 245              	.LVL21:
 246              	.L33:
 247              	.LBB92:
 248              	.LBB93:
 249              	.LBB94:
 250              		.loc 4 546 0
 251 0076 0023     		movs	r3, #0
 252              		.syntax unified
 253              	@ 546 ".//ChibiOS//os/ext/CMSIS/include/core_cmFunc.h" 1
 254 0078 83F31188 		MSR basepri, r3
 255              	@ 0 "" 2
 256              	.LVL22:
 257              		.thumb
 258              		.syntax unified
 259              	.LBE94:
 260              	.LBE93:
 261              	.LBE92:
 262              	.LBE91:
 263              	.LBE90:
 264              	.LBE67:
 265              	.LBE66:
 266              		.loc 2 114 0
 267 007c FFF7FEFF 		bl	get_selector
 268              	.LVL23:
 269 0080 0F28     		cmp	r0, #15
 270 0082 E1D8     		bhi	.L9
 271 0084 DFE810F0 		tbh	[pc, r0, lsl #1]
 272              	.L34:
 273 0088 5A00     		.2byte	(.L13-.L34)/2
 274 008a 5100     		.2byte	(.L15-.L34)/2
 275 008c 1B00     		.2byte	(.L16-.L34)/2
 276 008e 1000     		.2byte	(.L17-.L34)/2
 277 0090 C202     		.2byte	(.L35-.L34)/2
 278 0092 4802     		.2byte	(.L32-.L34)/2
 279 0094 3002     		.2byte	(.L20-.L34)/2
 280 0096 2702     		.2byte	(.L21-.L34)/2
 281 0098 1000     		.2byte	(.L17-.L34)/2
 282 009a 0D02     		.2byte	(.L22-.L34)/2
 283 009c 0602     		.2byte	(.L23-.L34)/2
 284 009e B201     		.2byte	(.L24-.L34)/2
 285 00a0 AF00     		.2byte	(.L25-.L34)/2
ARM GAS  C:\Users\Moi\AppData\Local\Temp\ccP2HW8a.s 			page 6


 286 00a2 8F00     		.2byte	(.L26-.L34)/2
 287 00a4 5E00     		.2byte	(.L27-.L34)/2
 288 00a6 1102     		.2byte	(.L28-.L34)/2
 289              		.p2align 1
 290              	.L17:
 291              		.loc 2 146 0
 292 00a8 FFF7FEFF 		bl	run_asercom2
 293              	.LVL24:
 294              	.L8:
 295              		.loc 2 435 0
 296 00ac 444B     		ldr	r3, .L176+12
 297 00ae 459A     		ldr	r2, [sp, #276]
 298 00b0 1B68     		ldr	r3, [r3]
 299 00b2 9A42     		cmp	r2, r3
 300 00b4 40D1     		bne	.L163
 301              	.L75:
 302 00b6 47B0     		add	sp, sp, #284
 303              		.cfi_remember_state
 304              		.cfi_def_cfa_offset 36
 305              		@ sp needed
 306 00b8 BDE8F08F 		pop	{r4, r5, r6, r7, r8, r9, r10, fp, pc}
 307              	.LVL25:
 308              	.L130:
 309              		.cfi_restore_state
 310              		.loc 2 114 0
 311 00bc 0127     		movs	r7, #1
 312              	.LVL26:
 313              	.L16:
 314              		.loc 2 126 0
 315 00be 8022     		movs	r2, #128
 316 00c0 24A9     		add	r1, sp, #144
 317 00c2 0898     		ldr	r0, [sp, #32]
 318 00c4 FFF7FEFF 		bl	messagebus_topic_wait
 319              	.LVL27:
 320              		.loc 2 128 0
 321 00c8 414B     		ldr	r3, .L176+28
 322 00ca D3F85422 		ldr	r2, [r3, #596]
 323 00ce 1268     		ldr	r2, [r2]
 324 00d0 1278     		ldrb	r2, [r2]	@ zero_extendqisi2
 325 00d2 042A     		cmp	r2, #4
 326 00d4 B8D1     		bne	.L9
 327              	.LBB131:
 328              		.loc 2 135 0
 329 00d6 DFF808A1 		ldr	r10, .L176+44
 330 00da 9846     		mov	r8, r3
 331 00dc 0DF18C09 		add	r9, sp, #140
 332 00e0 2BAB     		add	r3, sp, #172
 333              	.L42:
 334              		.loc 2 135 0 is_stmt 0 discriminator 3
 335 00e2 59F8042F 		ldr	r2, [r9, #4]!
 336 00e6 0D93     		str	r3, [sp, #52]
 337 00e8 5146     		mov	r1, r10
 338 00ea 4046     		mov	r0, r8
 339 00ec FFF7FEFF 		bl	chprintf
 340              	.LVL28:
 341              		.loc 2 136 0 is_stmt 1 discriminator 3
 342 00f0 D9F82020 		ldr	r2, [r9, #32]
ARM GAS  C:\Users\Moi\AppData\Local\Temp\ccP2HW8a.s 			page 7


 343 00f4 5146     		mov	r1, r10
 344 00f6 4046     		mov	r0, r8
 345 00f8 FFF7FEFF 		bl	chprintf
 346              	.LVL29:
 347              		.loc 2 137 0 discriminator 3
 348 00fc D9F84020 		ldr	r2, [r9, #64]
 349 0100 3449     		ldr	r1, .L176+32
 350 0102 4046     		mov	r0, r8
 351 0104 FFF7FEFF 		bl	chprintf
 352              	.LVL30:
 353              		.loc 2 138 0 discriminator 3
 354 0108 3349     		ldr	r1, .L176+36
 355 010a 4046     		mov	r0, r8
 356 010c FFF7FEFF 		bl	chprintf
 357              	.LVL31:
 358              		.loc 2 133 0 discriminator 3
 359 0110 0D9B     		ldr	r3, [sp, #52]
 360 0112 4B45     		cmp	r3, r9
 361 0114 E5D1     		bne	.L42
 362              	.LBE131:
 363              		.loc 2 140 0
 364 0116 3049     		ldr	r1, .L176+36
 365 0118 2D48     		ldr	r0, .L176+28
 366 011a FFF7FEFF 		bl	chprintf
 367              	.LVL32:
 368              		.loc 2 142 0
 369 011e 05F16401 		add	r1, r5, #100
 370 0122 2846     		mov	r0, r5
 371 0124 FFF7FEFF 		bl	chThdSleepUntilWindowed
 372              	.LVL33:
 373 0128 8EE7     		b	.L9
 374              	.LVL34:
 375              	.L15:
 376              		.loc 2 121 0
 377 012a FFF7FEFF 		bl	shell_start
 378              	.LVL35:
 379              		.loc 2 435 0
 380 012e 244B     		ldr	r3, .L176+12
 381 0130 459A     		ldr	r2, [sp, #276]
 382 0132 1B68     		ldr	r3, [r3]
 383 0134 9A42     		cmp	r2, r3
 384 0136 BED0     		beq	.L75
 385              	.L163:
 386 0138 FFF7FEFF 		bl	__stack_chk_fail
 387              	.LVL36:
 388              	.L13:
 389              		.loc 2 116 0
 390 013c FFF7FEFF 		bl	aseba_vm_start
 391              	.LVL37:
 392 0140 B4E7     		b	.L8
 393              	.LVL38:
 394              	.L136:
 395              		.loc 2 114 0
 396 0142 0127     		movs	r7, #1
 397              	.LVL39:
 398              	.L27:
 399              		.loc 2 412 0
ARM GAS  C:\Users\Moi\AppData\Local\Temp\ccP2HW8a.s 			page 8


 400 0144 0C9B     		ldr	r3, [sp, #48]
 401 0146 002B     		cmp	r3, #0
 402 0148 00F0EA84 		beq	.L73
 403 014c 002B     		cmp	r3, #0
 404 014e 3FF47BAF 		beq	.L9
 405              		.loc 2 420 0
 406 0152 DFF87C80 		ldr	r8, .L176+28
 407              		.loc 2 419 0
 408 0156 0A98     		ldr	r0, [sp, #40]
 409 0158 5022     		movs	r2, #80
 410 015a 10A9     		add	r1, sp, #64
 411 015c FFF7FEFF 		bl	messagebus_topic_wait
 412              	.LVL40:
 413              		.loc 2 420 0
 414 0160 D8F85432 		ldr	r3, [r8, #596]
 415 0164 1B68     		ldr	r3, [r3]
 416 0166 1B78     		ldrb	r3, [r3]	@ zero_extendqisi2
 417 0168 042B     		cmp	r3, #4
 418 016a 7FF46DAF 		bne	.L9
 419              		.loc 2 423 0
 420 016e 1798     		ldr	r0, [sp, #92]	@ float
 421 0170 FFF7FEFF 		bl	__aeabi_f2d
 422              	.LVL41:
 423 0174 8146     		mov	r9, r0
 424 0176 1998     		ldr	r0, [sp, #100]	@ float
 425 0178 8A46     		mov	r10, r1
 426 017a FFF7FEFF 		bl	__aeabi_f2d
 427              	.LVL42:
 428 017e CDE90201 		strd	r0, [sp, #8]
 429 0182 1898     		ldr	r0, [sp, #96]	@ float
 430 0184 FFF7FEFF 		bl	__aeabi_f2d
 431              	.LVL43:
 432 0188 4A46     		mov	r2, r9
 433 018a CDE90001 		strd	r0, [sp]
 434 018e 5346     		mov	r3, r10
 435 0190 4046     		mov	r0, r8
 436 0192 1249     		ldr	r1, .L176+40
 437 0194 FFF7FEFF 		bl	chprintf
 438              	.LVL44:
 439              		.loc 2 424 0
 440 0198 05F16401 		add	r1, r5, #100
 441 019c 2846     		mov	r0, r5
 442 019e FFF7FEFF 		bl	chThdSleepUntilWindowed
 443              	.LVL45:
 444 01a2 51E7     		b	.L9
 445              	.LVL46:
 446              	.L135:
 447              		.loc 2 114 0
 448 01a4 0127     		movs	r7, #1
 449              	.LVL47:
 450              	.L26:
 451              		.loc 2 407 0
 452 01a6 FFF7FEFF 		bl	e_display_angle
 453              	.LVL48:
 454              		.loc 2 408 0
 455 01aa 3220     		movs	r0, #50
 456 01ac FFF7FEFF 		bl	chThdSleep
ARM GAS  C:\Users\Moi\AppData\Local\Temp\ccP2HW8a.s 			page 9


 457              	.LVL49:
 458 01b0 4AE7     		b	.L9
 459              	.L177:
 460 01b2 00BF     		.align	2
 461              	.L176:
 462 01b4 00000000 		.word	ch
 463 01b8 00000000 		.word	.LANCHOR0
 464 01bc 00000000 		.word	.LC0
 465 01c0 00000000 		.word	__stack_chk_guard
 466 01c4 00000000 		.word	.LANCHOR1
 467 01c8 0C000000 		.word	.LC1
 468 01cc 00000000 		.word	.LANCHOR2
 469 01d0 00000000 		.word	SDU1
 470 01d4 1C000000 		.word	.LC3
 471 01d8 20000000 		.word	.LC4
 472 01dc A0010000 		.word	.LC23
 473 01e0 14000000 		.word	.LC2
 474              	.LVL50:
 475              	.L134:
 476              		.loc 2 114 0
 477 01e4 0127     		movs	r7, #1
 478              	.LVL51:
 479              	.L25:
 480              		.loc 2 293 0
 481 01e6 002E     		cmp	r6, #0
 482 01e8 00F0B183 		beq	.L65
 483              	.L175:
 484 01ec 002E     		cmp	r6, #0
 485 01ee 3FF42BAF 		beq	.L9
 486              		.loc 2 328 0
 487 01f2 05F13201 		add	r1, r5, #50
 488 01f6 2846     		mov	r0, r5
 489 01f8 FFF7FEFF 		bl	chThdSleepUntilWindowed
 490              	.LVL52:
 491              		.loc 2 330 0
 492 01fc BBF1010F 		cmp	fp, #1
 493 0200 00F07484 		beq	.L68
 494 0204 C0F04284 		bcc	.L69
 495 0208 BBF1020F 		cmp	fp, #2
 496 020c 17D1     		bne	.L67
 497              		.loc 2 344 0
 498 020e 0022     		movs	r2, #0
 499 0210 1146     		mov	r1, r2
 500 0212 1046     		mov	r0, r2
 501 0214 0A23     		movs	r3, #10
 502 0216 FFF7FEFF 		bl	set_rgb_led
 503              	.LVL53:
 504              		.loc 2 345 0
 505 021a 0022     		movs	r2, #0
 506 021c 1146     		mov	r1, r2
 507 021e 0A23     		movs	r3, #10
 508 0220 3046     		mov	r0, r6
 509 0222 FFF7FEFF 		bl	set_rgb_led
 510              	.LVL54:
 511              		.loc 2 346 0
 512 0226 0022     		movs	r2, #0
 513 0228 1146     		mov	r1, r2
ARM GAS  C:\Users\Moi\AppData\Local\Temp\ccP2HW8a.s 			page 10


 514 022a 0A23     		movs	r3, #10
 515 022c 5846     		mov	r0, fp
 516 022e FFF7FEFF 		bl	set_rgb_led
 517              	.LVL55:
 518              		.loc 2 347 0
 519 0232 0022     		movs	r2, #0
 520 0234 1146     		mov	r1, r2
 521 0236 0A23     		movs	r3, #10
 522 0238 0320     		movs	r0, #3
 523 023a FFF7FEFF 		bl	set_rgb_led
 524              	.LVL56:
 525              	.L67:
 526              		.loc 2 350 0
 527 023e 079B     		ldr	r3, [sp, #28]
 528 0240 0133     		adds	r3, r3, #1
 529 0242 DBB2     		uxtb	r3, r3
 530              		.loc 2 351 0
 531 0244 142B     		cmp	r3, #20
 532              		.loc 2 350 0
 533 0246 0793     		str	r3, [sp, #28]
 534              	.LVL57:
 535              		.loc 2 351 0
 536 0248 0BD1     		bne	.L71
 537              	.LVL58:
 538              		.loc 2 353 0
 539 024a 0BF10102 		add	r2, fp, #1
 540 024e 0323     		movs	r3, #3
 541 0250 92FBF3F3 		sdiv	r3, r2, r3
 542 0254 03EB4303 		add	r3, r3, r3, lsl #1
 543 0258 D31A     		subs	r3, r2, r3
 544 025a 5FFA83FB 		uxtb	fp, r3
 545              	.LVL59:
 546              		.loc 2 352 0
 547 025e 0023     		movs	r3, #0
 548 0260 0793     		str	r3, [sp, #28]
 549              	.LVL60:
 550              	.L71:
 551              		.loc 2 356 0
 552 0262 D64D     		ldr	r5, .L178
 553 0264 D5F85432 		ldr	r3, [r5, #596]
 554 0268 1B68     		ldr	r3, [r3]
 555 026a 1B78     		ldrb	r3, [r3]	@ zero_extendqisi2
 556 026c 042B     		cmp	r3, #4
 557 026e 7FF4EBAE 		bne	.L9
 558              		.loc 2 360 0
 559 0272 24A9     		add	r1, sp, #144
 560 0274 0898     		ldr	r0, [sp, #32]
 561 0276 8022     		movs	r2, #128
 562 0278 FFF7FEFF 		bl	messagebus_topic_wait
 563              	.LVL61:
 564              		.loc 2 361 0
 565 027c 5022     		movs	r2, #80
 566 027e 10A9     		add	r1, sp, #64
 567 0280 0A98     		ldr	r0, [sp, #40]
 568 0282 FFF7FEFF 		bl	messagebus_topic_wait
 569              	.LVL62:
 570              		.loc 2 364 0
ARM GAS  C:\Users\Moi\AppData\Local\Temp\ccP2HW8a.s 			page 11


 571 0286 CE49     		ldr	r1, .L178+4
 572 0288 2846     		mov	r0, r5
 573 028a FFF7FEFF 		bl	chprintf
 574              	.LVL63:
 575              		.loc 2 365 0
 576 028e BDF972E0 		ldrsh	lr, [sp, #114]
 577 0292 BDF970C0 		ldrsh	ip, [sp, #112]
 578 0296 BDF96E00 		ldrsh	r0, [sp, #110]
 579 029a BDF96C10 		ldrsh	r1, [sp, #108]
 580 029e BDF96A30 		ldrsh	r3, [sp, #106]
 581 02a2 BDF96820 		ldrsh	r2, [sp, #104]
 582 02a6 CDE902CE 		strd	ip, lr, [sp, #8]
 583 02aa CDE90010 		strd	r1, r0, [sp]
 584 02ae C549     		ldr	r1, .L178+8
 585 02b0 2846     		mov	r0, r5
 586 02b2 FFF7FEFF 		bl	chprintf
 587              	.LVL64:
 588              		.loc 2 368 0
 589 02b6 C449     		ldr	r1, .L178+12
 590 02b8 2846     		mov	r0, r5
 591 02ba FFF7FEFF 		bl	chprintf
 592              	.LVL65:
 593              		.loc 2 369 0
 594 02be FFF7FEFF 		bl	get_selector
 595              	.LVL66:
 596 02c2 C249     		ldr	r1, .L178+16
 597 02c4 0246     		mov	r2, r0
 598 02c6 2846     		mov	r0, r5
 599 02c8 FFF7FEFF 		bl	chprintf
 600              	.LVL67:
 601              		.loc 2 372 0
 602 02cc C049     		ldr	r1, .L178+20
 603 02ce 2846     		mov	r0, r5
 604 02d0 FFF7FEFF 		bl	chprintf
 605              	.LVL68:
 606              		.loc 2 373 0
 607 02d4 FFF7FEFF 		bl	ir_remote_get_toggle
 608              	.LVL69:
 609 02d8 8046     		mov	r8, r0
 610 02da FFF7FEFF 		bl	ir_remote_get_address
 611              	.LVL70:
 612 02de 8146     		mov	r9, r0
 613 02e0 FFF7FEFF 		bl	ir_remote_get_data
 614              	.LVL71:
 615 02e4 4B46     		mov	r3, r9
 616 02e6 4246     		mov	r2, r8
 617 02e8 0090     		str	r0, [sp]
 618 02ea BA49     		ldr	r1, .L178+24
 619 02ec 2846     		mov	r0, r5
 620 02ee FFF7FEFF 		bl	chprintf
 621              	.LVL72:
 622              		.loc 2 376 0
 623 02f2 B949     		ldr	r1, .L178+28
 624 02f4 2846     		mov	r0, r5
 625 02f6 FFF7FEFF 		bl	chprintf
 626              	.LVL73:
 627              		.loc 2 377 0
ARM GAS  C:\Users\Moi\AppData\Local\Temp\ccP2HW8a.s 			page 12


 628 02fa DDE93832 		ldrd	r3, r2, [sp, #224]
 629 02fe DDE93A10 		ldrd	r1, r0, [sp, #232]
 630 0302 CDE90232 		strd	r3, r2, [sp, #8]
 631 0306 379B     		ldr	r3, [sp, #220]
 632 0308 0193     		str	r3, [sp, #4]
 633 030a 369B     		ldr	r3, [sp, #216]
 634 030c 0093     		str	r3, [sp]
 635 030e CDE90410 		strd	r1, r0, [sp, #16]
 636 0312 DDE93423 		ldrd	r2, r3, [sp, #208]
 637 0316 B149     		ldr	r1, .L178+32
 638 0318 2846     		mov	r0, r5
 639 031a FFF7FEFF 		bl	chprintf
 640              	.LVL74:
 641              		.loc 2 378 0
 642 031e B049     		ldr	r1, .L178+36
 643 0320 2846     		mov	r0, r5
 644 0322 FFF7FEFF 		bl	chprintf
 645              	.LVL75:
 646              		.loc 2 379 0
 647 0326 DDE92832 		ldrd	r3, r2, [sp, #160]
 648 032a DDE92A10 		ldrd	r1, r0, [sp, #168]
 649 032e CDE90232 		strd	r3, r2, [sp, #8]
 650 0332 279B     		ldr	r3, [sp, #156]
 651 0334 0193     		str	r3, [sp, #4]
 652 0336 269B     		ldr	r3, [sp, #152]
 653 0338 0093     		str	r3, [sp]
 654 033a CDE90410 		strd	r1, r0, [sp, #16]
 655 033e DDE92423 		ldrd	r2, r3, [sp, #144]
 656 0342 A649     		ldr	r1, .L178+32
 657 0344 2846     		mov	r0, r5
 658 0346 FFF7FEFF 		bl	chprintf
 659              	.LVL76:
 660              		.loc 2 382 0
 661 034a A649     		ldr	r1, .L178+40
 662 034c 2846     		mov	r0, r5
 663 034e FFF7FEFF 		bl	chprintf
 664              	.LVL77:
 665              		.loc 2 383 0
 666 0352 0020     		movs	r0, #0
 667 0354 FFF7FEFF 		bl	mic_get_volume
 668              	.LVL78:
 669 0358 8046     		mov	r8, r0
 670 035a 0120     		movs	r0, #1
 671 035c FFF7FEFF 		bl	mic_get_volume
 672              	.LVL79:
 673 0360 8146     		mov	r9, r0
 674 0362 0220     		movs	r0, #2
 675 0364 FFF7FEFF 		bl	mic_get_volume
 676              	.LVL80:
 677 0368 8246     		mov	r10, r0
 678 036a 0320     		movs	r0, #3
 679 036c FFF7FEFF 		bl	mic_get_volume
 680              	.LVL81:
 681 0370 4B46     		mov	r3, r9
 682 0372 4246     		mov	r2, r8
 683 0374 CDE900A0 		strd	r10, r0, [sp]
 684 0378 9B49     		ldr	r1, .L178+44
ARM GAS  C:\Users\Moi\AppData\Local\Temp\ccP2HW8a.s 			page 13


 685 037a 2846     		mov	r0, r5
 686 037c FFF7FEFF 		bl	chprintf
 687              	.LVL82:
 688              		.loc 2 386 0
 689 0380 9A49     		ldr	r1, .L178+48
 690 0382 2846     		mov	r0, r5
 691 0384 FFF7FEFF 		bl	chprintf
 692              	.LVL83:
 693              		.loc 2 387 0
 694 0388 FFF7FEFF 		bl	VL53L0X_get_dist_mm
 695              	.LVL84:
 696 038c 8F49     		ldr	r1, .L178+16
 697 038e 0246     		mov	r2, r0
 698 0390 2846     		mov	r0, r5
 699 0392 FFF7FEFF 		bl	chprintf
 700              	.LVL85:
 701              		.loc 2 390 0
 702 0396 FFF7FEFF 		bl	dcmi_capture_start
 703              	.LVL86:
 704              		.loc 2 391 0
 705 039a FFF7FEFF 		bl	wait_image_ready
 706              	.LVL87:
 707              		.loc 2 392 0
 708 039e FFF7FEFF 		bl	dcmi_get_last_image_ptr
 709              	.LVL88:
 710              		.loc 2 393 0
 711 03a2 90F80090 		ldrb	r9, [r0]	@ zero_extendqisi2
 712              	.LVL89:
 713              		.loc 2 394 0
 714 03a6 90F80180 		ldrb	r8, [r0, #1]	@ zero_extendqisi2
 715              		.loc 2 396 0
 716 03aa 9149     		ldr	r1, .L178+52
 717              		.loc 2 394 0
 718 03ac 4FEA4912 		lsl	r2, r9, #5
 719 03b0 4FEAE803 		asr	r3, r8, #3
 720 03b4 D2B2     		uxtb	r2, r2
 721 03b6 03F01C03 		and	r3, r3, #28
 722              		.loc 2 396 0
 723 03ba 2846     		mov	r0, r5
 724              	.LVL90:
 725              		.loc 2 394 0
 726 03bc 42EA030A 		orr	r10, r2, r3
 727              	.LVL91:
 728              		.loc 2 396 0
 729 03c0 FFF7FEFF 		bl	chprintf
 730              	.LVL92:
 731              		.loc 2 395 0
 732 03c4 4FEAC802 		lsl	r2, r8, #3
 733              		.loc 2 397 0
 734 03c8 02F0F802 		and	r2, r2, #248
 735 03cc 5346     		mov	r3, r10
 736 03ce 0092     		str	r2, [sp]
 737 03d0 8849     		ldr	r1, .L178+56
 738 03d2 09F0F802 		and	r2, r9, #248
 739 03d6 2846     		mov	r0, r5
 740 03d8 FFF7FEFF 		bl	chprintf
 741              	.LVL93:
ARM GAS  C:\Users\Moi\AppData\Local\Temp\ccP2HW8a.s 			page 14


 742              		.loc 2 399 0
 743 03dc 2846     		mov	r0, r5
 744 03de FFF7FEFF 		bl	printUcUsage
 745              	.LVL94:
 746              		.loc 2 401 0
 747 03e2 6420     		movs	r0, #100
 748 03e4 FFF7FEFF 		bl	chThdSleep
 749              	.LVL95:
 750 03e8 2EE6     		b	.L9
 751              	.LVL96:
 752              	.L133:
 753              		.loc 2 114 0
 754 03ea 0127     		movs	r7, #1
 755              	.LVL97:
 756              	.L24:
 757              		.loc 2 248 0
 758 03ec 24A9     		add	r1, sp, #144
 759 03ee 8022     		movs	r2, #128
 760 03f0 0898     		ldr	r0, [sp, #32]
 761 03f2 FFF7FEFF 		bl	messagebus_topic_wait
 762              	.LVL98:
 763              		.loc 2 249 0
 764 03f6 DDF8D080 		ldr	r8, [sp, #208]
 765              		.loc 2 250 0
 766 03fa 3B98     		ldr	r0, [sp, #236]
 767              		.loc 2 249 0
 768 03fc 359B     		ldr	r3, [sp, #212]
 769              		.loc 2 250 0
 770 03fe 3A9A     		ldr	r2, [sp, #232]
 771 0400 C0EBC030 		rsb	r0, r0, r0, lsl #15
 772              		.loc 2 249 0
 773 0404 C8EBC838 		rsb	r8, r8, r8, lsl #15
 774 0408 C3EB4808 		rsb	r8, r3, r8, lsl #1
 775              		.loc 2 250 0
 776 040c C2EB4002 		rsb	r2, r2, r0, lsl #1
 777 0410 02F24C40 		addw	r0, r2, #1100
 778              		.loc 2 249 0
 779 0414 08F24C48 		addw	r8, r8, #1100
 780              		.loc 2 251 0
 781 0418 00B2     		sxth	r0, r0
 782              		.loc 2 249 0
 783 041a 0FFA88F8 		sxth	r8, r8
 784              	.LVL99:
 785              		.loc 2 251 0
 786 041e FFF7FEFF 		bl	right_motor_set_speed
 787              	.LVL100:
 788              		.loc 2 252 0
 789 0422 4046     		mov	r0, r8
 790 0424 FFF7FEFF 		bl	left_motor_set_speed
 791              	.LVL101:
 792              		.loc 2 254 0
 793 0428 BBF1010F 		cmp	fp, #1
 794 042c 00F01583 		beq	.L60
 795 0430 C0F0FA82 		bcc	.L61
 796 0434 BBF1020F 		cmp	fp, #2
 797 0438 17D1     		bne	.L59
 798              		.loc 2 268 0
ARM GAS  C:\Users\Moi\AppData\Local\Temp\ccP2HW8a.s 			page 15


 799 043a 0022     		movs	r2, #0
 800 043c 1146     		mov	r1, r2
 801 043e 1046     		mov	r0, r2
 802 0440 0A23     		movs	r3, #10
 803 0442 FFF7FEFF 		bl	set_rgb_led
 804              	.LVL102:
 805              		.loc 2 269 0
 806 0446 0022     		movs	r2, #0
 807 0448 1146     		mov	r1, r2
 808 044a 0A23     		movs	r3, #10
 809 044c 0120     		movs	r0, #1
 810 044e FFF7FEFF 		bl	set_rgb_led
 811              	.LVL103:
 812              		.loc 2 270 0
 813 0452 0022     		movs	r2, #0
 814 0454 1146     		mov	r1, r2
 815 0456 0A23     		movs	r3, #10
 816 0458 5846     		mov	r0, fp
 817 045a FFF7FEFF 		bl	set_rgb_led
 818              	.LVL104:
 819              		.loc 2 271 0
 820 045e 0022     		movs	r2, #0
 821 0460 1146     		mov	r1, r2
 822 0462 0A23     		movs	r3, #10
 823 0464 0320     		movs	r0, #3
 824 0466 FFF7FEFF 		bl	set_rgb_led
 825              	.LVL105:
 826              	.L59:
 827              		.loc 2 274 0
 828 046a 079B     		ldr	r3, [sp, #28]
 829 046c 0133     		adds	r3, r3, #1
 830 046e DBB2     		uxtb	r3, r3
 831              		.loc 2 275 0
 832 0470 642B     		cmp	r3, #100
 833              		.loc 2 274 0
 834 0472 0793     		str	r3, [sp, #28]
 835              	.LVL106:
 836              		.loc 2 275 0
 837 0474 00F0C582 		beq	.L164
 838              	.LVL107:
 839              	.L63:
 840              		.loc 2 282 0
 841 0478 099B     		ldr	r3, [sp, #36]
 842 047a 0133     		adds	r3, r3, #1
 843 047c 9BB2     		uxth	r3, r3
 844              		.loc 2 283 0
 845 047e B3F5FA6F 		cmp	r3, #2000
 846              		.loc 2 282 0
 847 0482 0993     		str	r3, [sp, #36]
 848              	.LVL108:
 849              		.loc 2 283 0
 850 0484 00F04382 		beq	.L165
 851              	.LVL109:
 852              	.L64:
 853              		.loc 2 289 0
 854 0488 05F10A01 		add	r1, r5, #10
 855 048c 2846     		mov	r0, r5
ARM GAS  C:\Users\Moi\AppData\Local\Temp\ccP2HW8a.s 			page 16


 856 048e FFF7FEFF 		bl	chThdSleepUntilWindowed
 857              	.LVL110:
 858 0492 D9E5     		b	.L9
 859              	.LVL111:
 860              	.L23:
 861              		.loc 2 241 0
 862 0494 FFF7FEFF 		bl	imu_stop
 863              	.LVL112:
 864              		.loc 2 242 0
 865 0498 FFF7FEFF 		bl	VL53L0X_stop
 866              	.LVL113:
 867              		.loc 2 243 0
 868 049c FFF7FEFF 		bl	i2c_stop
 869              	.LVL114:
 870 04a0 04E6     		b	.L8
 871              	.LVL115:
 872              	.L22:
 873              		.loc 2 236 0
 874 04a2 FFF7FEFF 		bl	run_asercom
 875              	.LVL116:
 876 04a6 01E6     		b	.L8
 877              	.LVL117:
 878              	.L132:
 879              		.loc 2 114 0
 880 04a8 0127     		movs	r7, #1
 881              	.LVL118:
 882              	.L28:
 883              		.loc 2 430 0
 884 04aa FFF7FEFF 		bl	get_battery_raw
 885              	.LVL119:
 886 04ae 8046     		mov	r8, r0
 887 04b0 FFF7FEFF 		bl	get_battery_voltage
 888              	.LVL120:
 889 04b4 10EE100A 		vmov	r0, s0
 890 04b8 FFF7FEFF 		bl	__aeabi_f2d
 891              	.LVL121:
 892 04bc 4246     		mov	r2, r8
 893 04be CDE90001 		strd	r0, [sp]
 894 04c2 4D49     		ldr	r1, .L178+60
 895 04c4 4D48     		ldr	r0, .L178+64
 896 04c6 FFF7FEFF 		bl	chprintf
 897              	.LVL122:
 898              		.loc 2 431 0
 899 04ca 05F5FA71 		add	r1, r5, #500
 900 04ce 2846     		mov	r0, r5
 901 04d0 FFF7FEFF 		bl	chThdSleepUntilWindowed
 902              	.LVL123:
 903 04d4 B8E5     		b	.L9
 904              	.LVL124:
 905              	.L21:
 906              		.loc 2 224 0
 907 04d6 3948     		ldr	r0, .L178
 908 04d8 FFF7FEFF 		bl	communication_start
 909              	.LVL125:
 910              	.L58:
 911              		.loc 2 226 0 discriminator 1
 912 04dc 4FF47A70 		mov	r0, #1000
ARM GAS  C:\Users\Moi\AppData\Local\Temp\ccP2HW8a.s 			page 17


 913 04e0 FFF7FEFF 		bl	chThdSleep
 914              	.LVL126:
 915 04e4 FAE7     		b	.L58
 916              	.LVL127:
 917              	.L131:
 918              		.loc 2 114 0
 919 04e6 0127     		movs	r7, #1
 920              	.LVL128:
 921              	.L20:
 922              	.LBB132:
 923              	.LBB133:
 924              		.file 7 ".//ChibiOS//os/rt/include/chqueues.h"
 925              		.loc 7 426 0
 926 04e8 4FF0FF32 		mov	r2, #-1
 927 04ec 6321     		movs	r1, #99
 928 04ee 4448     		ldr	r0, .L178+68
 929              	.LVL129:
 930 04f0 FFF7FEFF 		bl	chOQPutTimeout
 931              	.LVL130:
 932              	.LBE133:
 933              	.LBE132:
 934              		.loc 2 216 0
 935 04f4 3223     		movs	r3, #50
 936 04f6 0122     		movs	r2, #1
 937 04f8 0DF13F01 		add	r1, sp, #63
 938 04fc 4148     		ldr	r0, .L178+72
 939 04fe FFF7FEFF 		bl	chIQReadTimeout
 940              	.LVL131:
 941              		.loc 2 217 0
 942 0502 00B2     		sxth	r0, r0
 943 0504 0028     		cmp	r0, #0
 944 0506 BFDD     		ble	.L64
 945              	.LVL132:
 946              	.LBB134:
 947              	.LBB135:
 948              		.loc 7 426 0
 949 0508 4FF0FF32 		mov	r2, #-1
 950 050c 9DF83F10 		ldrb	r1, [sp, #63]	@ zero_extendqisi2
 951 0510 3D48     		ldr	r0, .L178+76
 952              	.LVL133:
 953 0512 FFF7FEFF 		bl	chOQPutTimeout
 954              	.LVL134:
 955 0516 B7E7     		b	.L64
 956              	.LVL135:
 957              	.L32:
 958              	.LBE135:
 959              	.LBE134:
 960              		.loc 2 192 0
 961 0518 002F     		cmp	r7, #0
 962 051a 00F0A580 		beq	.L166
 963              	.L19:
 964              		.loc 2 207 0
 965 051e AA22     		movs	r2, #170
 966 0520 0D21     		movs	r1, #13
 967 0522 2020     		movs	r0, #32
 968 0524 FFF7FEFF 		bl	write_reg
 969              	.LVL136:
ARM GAS  C:\Users\Moi\AppData\Local\Temp\ccP2HW8a.s 			page 18


 970              		.loc 2 208 0
 971 0528 FF22     		movs	r2, #255
 972 052a 0E21     		movs	r1, #14
 973 052c 2020     		movs	r0, #32
 974 052e FFF7FEFF 		bl	write_reg
 975              	.LVL137:
 976              	.L55:
 977              		.loc 2 211 0
 978 0532 05F11401 		add	r1, r5, #20
 979 0536 2846     		mov	r0, r5
 980 0538 FFF7FEFF 		bl	chThdSleepUntilWindowed
 981              	.LVL138:
 982              	.L161:
 983              	.LBB136:
 984              	.LBB125:
 985              	.LBB113:
 986              	.LBB82:
 987              	.LBB79:
 988              	.LBB76:
 989              	.LBB73:
 990              		.loc 4 546 0
 991 053c 2023     		movs	r3, #32
 992              		.syntax unified
 993              	@ 546 ".//ChibiOS//os/ext/CMSIS/include/core_cmFunc.h" 1
 994 053e 83F31188 		MSR basepri, r3
 995              	@ 0 "" 2
 996              	.LVL139:
 997              		.thumb
 998              		.syntax unified
 999              	.LBE73:
 1000              	.LBE76:
 1001              	.LBE79:
 1002              		.loc 5 349 0
 1003 0542 FFF7FEFF 		bl	_stats_start_measure_crit_thd
 1004              	.LVL140:
 1005              		.loc 5 350 0
 1006 0546 FFF7FEFF 		bl	_dbg_check_lock
 1007              	.LVL141:
 1008              	.LBE82:
 1009              	.LBE113:
 1010              	.LBB114:
 1011              	.LBB87:
 1012              		.loc 6 231 0
 1013 054a A56A     		ldr	r5, [r4, #40]
 1014              	.LBE87:
 1015              	.LBE114:
 1016              	.LBB115:
 1017              	.LBB107:
 1018              		.loc 5 360 0
 1019 054c FFF7FEFF 		bl	_dbg_check_unlock
 1020              	.LVL142:
 1021              		.loc 5 361 0
 1022 0550 FFF7FEFF 		bl	_stats_stop_measure_crit_thd
 1023              	.LVL143:
 1024              		.loc 5 367 0
 1025 0554 2368     		ldr	r3, [r4]
 1026 0556 A342     		cmp	r3, r4
ARM GAS  C:\Users\Moi\AppData\Local\Temp\ccP2HW8a.s 			page 19


 1027 0558 05D0     		beq	.L160
 1028 055a A169     		ldr	r1, [r4, #24]
 1029 055c 9A68     		ldr	r2, [r3, #8]
 1030 055e 8B68     		ldr	r3, [r1, #8]
 1031 0560 9A42     		cmp	r2, r3
 1032 0562 00F2E581 		bhi	.L167
 1033              	.LVL144:
 1034              	.L160:
 1035              	.LBB103:
 1036              	.LBB99:
 1037              	.LBB95:
 1038              		.loc 4 546 0
 1039 0566 0023     		movs	r3, #0
 1040              		.syntax unified
 1041              	@ 546 ".//ChibiOS//os/ext/CMSIS/include/core_cmFunc.h" 1
 1042 0568 83F31188 		MSR basepri, r3
 1043              	@ 0 "" 2
 1044              	.LVL145:
 1045              		.thumb
 1046              		.syntax unified
 1047              	.LBE95:
 1048              	.LBE99:
 1049              	.LBE103:
 1050              	.LBE107:
 1051              	.LBE115:
 1052              	.LBE125:
 1053              	.LBE136:
 1054              		.loc 2 114 0
 1055 056c FFF7FEFF 		bl	get_selector
 1056              	.LVL146:
 1057 0570 0F28     		cmp	r0, #15
 1058 0572 00F2C981 		bhi	.L129
 1059 0576 01A3     		adr	r3, .L72
 1060 0578 53F820F0 		ldr	pc, [r3, r0, lsl #2]
 1061              		.p2align 2
 1062              	.L72:
 1063 057c 3D010000 		.word	.L13+1
 1064 0580 2B010000 		.word	.L15+1
 1065 0584 BD000000 		.word	.L130+1
 1066 0588 A9000000 		.word	.L17+1
 1067 058c 11060000 		.word	.L18+1
 1068 0590 1F050000 		.word	.L19+1
 1069 0594 E7040000 		.word	.L131+1
 1070 0598 D7040000 		.word	.L21+1
 1071 059c A9000000 		.word	.L17+1
 1072 05a0 A3040000 		.word	.L22+1
 1073 05a4 95040000 		.word	.L23+1
 1074 05a8 EB030000 		.word	.L133+1
 1075 05ac E5010000 		.word	.L134+1
 1076 05b0 A5010000 		.word	.L135+1
 1077 05b4 43010000 		.word	.L136+1
 1078 05b8 A9040000 		.word	.L132+1
 1079              		.p2align 1
 1080              	.L179:
 1081              		.align	2
 1082              	.L178:
 1083 05bc 00000000 		.word	SDU1
ARM GAS  C:\Users\Moi\AppData\Local\Temp\ccP2HW8a.s 			page 20


 1084 05c0 78000000 		.word	.LC9
 1085 05c4 80000000 		.word	.LC10
 1086 05c8 B4000000 		.word	.LC11
 1087 05cc C0000000 		.word	.LC12
 1088 05d0 C8000000 		.word	.LC13
 1089 05d4 D8000000 		.word	.LC14
 1090 05d8 08010000 		.word	.LC15
 1091 05dc 14010000 		.word	.LC16
 1092 05e0 38010000 		.word	.LC17
 1093 05e4 44010000 		.word	.LC18
 1094 05e8 54010000 		.word	.LC19
 1095 05ec 68010000 		.word	.LC20
 1096 05f0 7C010000 		.word	.LC21
 1097 05f4 88010000 		.word	.LC22
 1098 05f8 B8010000 		.word	.LC24
 1099 05fc 00000000 		.word	SD3
 1100 0600 30000000 		.word	SD3+48
 1101 0604 0C000000 		.word	SD3+12
 1102 0608 30000000 		.word	SDU1+48
 1103              	.LVL147:
 1104              	.L35:
 1105              		.loc 2 151 0
 1106 060c 002F     		cmp	r7, #0
 1107 060e 4DD0     		beq	.L168
 1108              	.L18:
 1109 0610 0DF58878 		add	r8, sp, #272
 1110 0614 D946     		mov	r9, fp
 1111              	.L31:
 1112              		.loc 2 160 0
 1113 0616 4246     		mov	r2, r8
 1114 0618 0021     		movs	r1, #0
 1115 061a 2020     		movs	r0, #32
 1116 061c FFF7FEFF 		bl	read_reg
 1117              	.LVL148:
 1118 0620 0028     		cmp	r0, #0
 1119 0622 40F03D81 		bne	.L169
 1120              		.loc 2 164 0
 1121 0626 9DF81031 		ldrb	r3, [sp, #272]	@ zero_extendqisi2
 1122 062a 002B     		cmp	r3, #0
 1123 062c 40F0D480 		bne	.L170
 1124              	.LVL149:
 1125              	.L48:
 1126              		.loc 2 188 0
 1127 0630 05F11401 		add	r1, r5, #20
 1128 0634 2846     		mov	r0, r5
 1129 0636 FFF7FEFF 		bl	chThdSleepUntilWindowed
 1130              	.LVL150:
 1131              	.LBB137:
 1132              	.LBB126:
 1133              	.LBB116:
 1134              	.LBB83:
 1135              	.LBB80:
 1136              	.LBB77:
 1137              	.LBB74:
 1138              		.loc 4 546 0
 1139 063a 2023     		movs	r3, #32
 1140              		.syntax unified
ARM GAS  C:\Users\Moi\AppData\Local\Temp\ccP2HW8a.s 			page 21


 1141              	@ 546 ".//ChibiOS//os/ext/CMSIS/include/core_cmFunc.h" 1
 1142 063c 83F31188 		MSR basepri, r3
 1143              	@ 0 "" 2
 1144              	.LVL151:
 1145              		.thumb
 1146              		.syntax unified
 1147              	.LBE74:
 1148              	.LBE77:
 1149              	.LBE80:
 1150              		.loc 5 349 0
 1151 0640 FFF7FEFF 		bl	_stats_start_measure_crit_thd
 1152              	.LVL152:
 1153              		.loc 5 350 0
 1154 0644 FFF7FEFF 		bl	_dbg_check_lock
 1155              	.LVL153:
 1156              	.LBE83:
 1157              	.LBE116:
 1158              	.LBB117:
 1159              	.LBB88:
 1160              		.loc 6 231 0
 1161 0648 A56A     		ldr	r5, [r4, #40]
 1162              	.LBE88:
 1163              	.LBE117:
 1164              	.LBB118:
 1165              	.LBB108:
 1166              		.loc 5 360 0
 1167 064a FFF7FEFF 		bl	_dbg_check_unlock
 1168              	.LVL154:
 1169              		.loc 5 361 0
 1170 064e FFF7FEFF 		bl	_stats_stop_measure_crit_thd
 1171              	.LVL155:
 1172              		.loc 5 367 0
 1173 0652 2368     		ldr	r3, [r4]
 1174 0654 A342     		cmp	r3, r4
 1175 0656 05D0     		beq	.L154
 1176 0658 A269     		ldr	r2, [r4, #24]
 1177 065a 9B68     		ldr	r3, [r3, #8]
 1178 065c 9268     		ldr	r2, [r2, #8]
 1179 065e 9A42     		cmp	r2, r3
 1180 0660 C0F02381 		bcc	.L171
 1181              	.L154:
 1182 0664 CB46     		mov	fp, r9
 1183 0666 7EE7     		b	.L160
 1184              	.LVL156:
 1185              	.L166:
 1186              	.LBE108:
 1187              	.LBE118:
 1188              	.LBE126:
 1189              	.LBE137:
 1190              		.loc 2 194 0
 1191 0668 9622     		movs	r2, #150
 1192 066a 0C21     		movs	r1, #12
 1193 066c 2020     		movs	r0, #32
 1194              		.loc 2 195 0
 1195 066e 0DF58878 		add	r8, sp, #272
 1196              		.loc 2 194 0
 1197 0672 FFF7FEFF 		bl	write_reg
ARM GAS  C:\Users\Moi\AppData\Local\Temp\ccP2HW8a.s 			page 22


 1198              	.LVL157:
 1199              		.loc 2 195 0
 1200 0676 4246     		mov	r2, r8
 1201 0678 0C21     		movs	r1, #12
 1202 067a 2020     		movs	r0, #32
 1203 067c FFF7FEFF 		bl	read_reg
 1204              	.LVL158:
 1205 0680 0028     		cmp	r0, #0
 1206 0682 00F0A280 		beq	.L172
 1207              	.LVL159:
 1208              	.L53:
 1209              		.loc 2 198 0
 1210 0686 0022     		movs	r2, #0
 1211 0688 1121     		movs	r1, #17
 1212 068a 2020     		movs	r0, #32
 1213 068c FFF7FEFF 		bl	write_reg
 1214              	.LVL160:
 1215              		.loc 2 199 0
 1216 0690 4246     		mov	r2, r8
 1217 0692 0C21     		movs	r1, #12
 1218 0694 2020     		movs	r0, #32
 1219 0696 FFF7FEFF 		bl	read_reg
 1220              	.LVL161:
 1221 069a 0028     		cmp	r0, #0
 1222 069c 00F08E80 		beq	.L173
 1223              	.LVL162:
 1224              	.L54:
 1225              		.loc 2 202 0
 1226 06a0 0022     		movs	r2, #0
 1227 06a2 1021     		movs	r1, #16
 1228 06a4 2020     		movs	r0, #32
 1229 06a6 FFF7FEFF 		bl	write_reg
 1230              	.LVL163:
 1231              		.loc 2 204 0
 1232 06aa 42E7     		b	.L55
 1233              	.LVL164:
 1234              	.L168:
 1235              		.loc 2 153 0
 1236 06ac 9622     		movs	r2, #150
 1237 06ae 0C21     		movs	r1, #12
 1238 06b0 2020     		movs	r0, #32
 1239 06b2 FFF7FEFF 		bl	write_reg
 1240              	.LVL165:
 1241              		.loc 2 154 0
 1242 06b6 0022     		movs	r2, #0
 1243 06b8 1121     		movs	r1, #17
 1244 06ba 2020     		movs	r0, #32
 1245 06bc FFF7FEFF 		bl	write_reg
 1246              	.LVL166:
 1247              		.loc 2 155 0
 1248 06c0 0022     		movs	r2, #0
 1249 06c2 1021     		movs	r1, #16
 1250 06c4 2020     		movs	r0, #32
 1251 06c6 FFF7FEFF 		bl	write_reg
 1252              	.LVL167:
 1253              		.loc 2 188 0
 1254 06ca 05F11401 		add	r1, r5, #20
ARM GAS  C:\Users\Moi\AppData\Local\Temp\ccP2HW8a.s 			page 23


 1255 06ce 2846     		mov	r0, r5
 1256 06d0 FFF7FEFF 		bl	chThdSleepUntilWindowed
 1257              	.LVL168:
 1258              	.LBB138:
 1259              	.LBB127:
 1260              	.LBB119:
 1261              	.LBB84:
 1262              	.LBB81:
 1263              	.LBB78:
 1264              	.LBB75:
 1265              		.loc 4 546 0
 1266 06d4 2023     		movs	r3, #32
 1267              		.syntax unified
 1268              	@ 546 ".//ChibiOS//os/ext/CMSIS/include/core_cmFunc.h" 1
 1269 06d6 83F31188 		MSR basepri, r3
 1270              	@ 0 "" 2
 1271              	.LVL169:
 1272              		.thumb
 1273              		.syntax unified
 1274              	.LBE75:
 1275              	.LBE78:
 1276              	.LBE81:
 1277              		.loc 5 349 0
 1278 06da FFF7FEFF 		bl	_stats_start_measure_crit_thd
 1279              	.LVL170:
 1280              		.loc 5 350 0
 1281 06de FFF7FEFF 		bl	_dbg_check_lock
 1282              	.LVL171:
 1283              	.LBE84:
 1284              	.LBE119:
 1285              	.LBB120:
 1286              	.LBB89:
 1287              		.loc 6 231 0
 1288 06e2 A56A     		ldr	r5, [r4, #40]
 1289              	.LBE89:
 1290              	.LBE120:
 1291              	.LBB121:
 1292              	.LBB109:
 1293              		.loc 5 360 0
 1294 06e4 FFF7FEFF 		bl	_dbg_check_unlock
 1295              	.LVL172:
 1296              		.loc 5 361 0
 1297 06e8 FFF7FEFF 		bl	_stats_stop_measure_crit_thd
 1298              	.LVL173:
 1299              		.loc 5 367 0
 1300 06ec 2368     		ldr	r3, [r4]
 1301 06ee A342     		cmp	r3, r4
 1302 06f0 04D0     		beq	.L44
 1303 06f2 A269     		ldr	r2, [r4, #24]
 1304 06f4 9B68     		ldr	r3, [r3, #8]
 1305 06f6 9268     		ldr	r2, [r2, #8]
 1306 06f8 9A42     		cmp	r2, r3
 1307 06fa 2BD3     		bcc	.L174
 1308              	.L44:
 1309              	.LVL174:
 1310              	.LBB104:
 1311              	.LBB100:
ARM GAS  C:\Users\Moi\AppData\Local\Temp\ccP2HW8a.s 			page 24


 1312              	.LBB96:
 1313              		.loc 4 546 0
 1314 06fc 0023     		movs	r3, #0
 1315              		.syntax unified
 1316              	@ 546 ".//ChibiOS//os/ext/CMSIS/include/core_cmFunc.h" 1
 1317 06fe 83F31188 		MSR basepri, r3
 1318              	@ 0 "" 2
 1319              	.LVL175:
 1320              		.thumb
 1321              		.syntax unified
 1322              	.LBE96:
 1323              	.LBE100:
 1324              	.LBE104:
 1325              	.LBE109:
 1326              	.LBE121:
 1327              	.LBE127:
 1328              	.LBE138:
 1329              		.loc 2 114 0
 1330 0702 FFF7FEFF 		bl	get_selector
 1331              	.LVL176:
 1332 0706 0F28     		cmp	r0, #15
 1333 0708 00F2FE80 		bhi	.L129
 1334 070c 01A3     		adr	r3, .L41
 1335 070e 53F820F0 		ldr	pc, [r3, r0, lsl #2]
 1336 0712 00BF     		.p2align 2
 1337              	.L41:
 1338 0714 3D010000 		.word	.L13+1
 1339 0718 2B010000 		.word	.L15+1
 1340 071c BD000000 		.word	.L130+1
 1341 0720 A9000000 		.word	.L17+1
 1342 0724 11060000 		.word	.L18+1
 1343 0728 1F050000 		.word	.L19+1
 1344 072c E7040000 		.word	.L131+1
 1345 0730 D7040000 		.word	.L21+1
 1346 0734 A9000000 		.word	.L17+1
 1347 0738 A3040000 		.word	.L22+1
 1348 073c 95040000 		.word	.L23+1
 1349 0740 EB030000 		.word	.L133+1
 1350 0744 E5010000 		.word	.L134+1
 1351 0748 B1070000 		.word	.L39+1
 1352 074c 43010000 		.word	.L136+1
 1353 0750 A9040000 		.word	.L132+1
 1354              		.p2align 1
 1355              	.L174:
 1356              	.LBB139:
 1357              	.LBB128:
 1358              	.LBB122:
 1359              	.LBB110:
 1360              		.loc 5 367 0
 1361 0754 DE48     		ldr	r0, .L180+16
 1362 0756 FFF7FEFF 		bl	chSysHalt
 1363              	.LVL177:
 1364              	.LBB105:
 1365              	.LBB101:
 1366              	.LBB97:
 1367              		.loc 4 546 0
 1368 075a 0023     		movs	r3, #0
ARM GAS  C:\Users\Moi\AppData\Local\Temp\ccP2HW8a.s 			page 25


 1369              		.syntax unified
 1370              	@ 546 ".//ChibiOS//os/ext/CMSIS/include/core_cmFunc.h" 1
 1371 075c 83F31188 		MSR basepri, r3
 1372              	@ 0 "" 2
 1373              	.LVL178:
 1374              		.thumb
 1375              		.syntax unified
 1376              	.LBE97:
 1377              	.LBE101:
 1378              	.LBE105:
 1379              	.LBE110:
 1380              	.LBE122:
 1381              	.LBE128:
 1382              	.LBE139:
 1383              		.loc 2 114 0
 1384 0760 FFF7FEFF 		bl	get_selector
 1385              	.LVL179:
 1386 0764 0F28     		cmp	r0, #15
 1387 0766 3FF6E9AE 		bhi	.L161
 1388 076a 01A3     		adr	r3, .L46
 1389 076c 53F820F0 		ldr	pc, [r3, r0, lsl #2]
 1390              		.p2align 2
 1391              	.L46:
 1392 0770 3D010000 		.word	.L13+1
 1393 0774 2B010000 		.word	.L15+1
 1394 0778 BD000000 		.word	.L130+1
 1395 077c A9000000 		.word	.L17+1
 1396 0780 11060000 		.word	.L18+1
 1397 0784 1F050000 		.word	.L19+1
 1398 0788 E7040000 		.word	.L131+1
 1399 078c D7040000 		.word	.L21+1
 1400 0790 A9000000 		.word	.L17+1
 1401 0794 A3040000 		.word	.L22+1
 1402 0798 95040000 		.word	.L23+1
 1403 079c EB030000 		.word	.L133+1
 1404 07a0 E5010000 		.word	.L134+1
 1405 07a4 B1070000 		.word	.L39+1
 1406 07a8 43010000 		.word	.L136+1
 1407 07ac A9040000 		.word	.L132+1
 1408              		.p2align 1
 1409              	.L39:
 1410              		.loc 2 407 0
 1411 07b0 FFF7FEFF 		bl	e_display_angle
 1412              	.LVL180:
 1413              		.loc 2 408 0
 1414 07b4 3220     		movs	r0, #50
 1415 07b6 FFF7FEFF 		bl	chThdSleep
 1416              	.LVL181:
 1417 07ba BFE6     		b	.L161
 1418              	.LVL182:
 1419              	.L173:
 1420              		.loc 2 200 0
 1421 07bc 9DF81021 		ldrb	r2, [sp, #272]	@ zero_extendqisi2
 1422 07c0 C449     		ldr	r1, .L180+20
 1423 07c2 C548     		ldr	r0, .L180+24
 1424              	.LVL183:
 1425 07c4 FFF7FEFF 		bl	chprintf
ARM GAS  C:\Users\Moi\AppData\Local\Temp\ccP2HW8a.s 			page 26


 1426              	.LVL184:
 1427 07c8 6AE7     		b	.L54
 1428              	.LVL185:
 1429              	.L172:
 1430              		.loc 2 196 0
 1431 07ca 9DF81021 		ldrb	r2, [sp, #272]	@ zero_extendqisi2
 1432 07ce C349     		ldr	r1, .L180+28
 1433 07d0 C148     		ldr	r0, .L180+24
 1434              	.LVL186:
 1435 07d2 FFF7FEFF 		bl	chprintf
 1436              	.LVL187:
 1437 07d6 56E7     		b	.L53
 1438              	.LVL188:
 1439              	.L170:
 1440              		.loc 2 165 0
 1441 07d8 4246     		mov	r2, r8
 1442 07da 0121     		movs	r1, #1
 1443 07dc 2020     		movs	r0, #32
 1444              	.LVL189:
 1445 07de FFF7FEFF 		bl	read_reg
 1446              	.LVL190:
 1447              		.loc 2 166 0
 1448 07e2 0DF21112 		addw	r2, sp, #273
 1449 07e6 0221     		movs	r1, #2
 1450 07e8 2020     		movs	r0, #32
 1451 07ea FFF7FEFF 		bl	read_reg
 1452              	.LVL191:
 1453              		.loc 2 167 0
 1454 07ee 9DF81021 		ldrb	r2, [sp, #272]	@ zero_extendqisi2
 1455 07f2 9DF81131 		ldrb	r3, [sp, #273]	@ zero_extendqisi2
 1456 07f6 03EB0223 		add	r3, r3, r2, lsl #8
 1457 07fa 9BB2     		uxth	r3, r3
 1458              		.loc 2 169 0
 1459 07fc 4246     		mov	r2, r8
 1460 07fe 0321     		movs	r1, #3
 1461 0800 2020     		movs	r0, #32
 1462              		.loc 2 167 0
 1463 0802 0D93     		str	r3, [sp, #52]
 1464              	.LVL192:
 1465              		.loc 2 169 0
 1466 0804 FFF7FEFF 		bl	read_reg
 1467              	.LVL193:
 1468              		.loc 2 170 0
 1469 0808 0DF21112 		addw	r2, sp, #273
 1470 080c 0421     		movs	r1, #4
 1471 080e 2020     		movs	r0, #32
 1472 0810 FFF7FEFF 		bl	read_reg
 1473              	.LVL194:
 1474              		.loc 2 171 0
 1475 0814 9DF81131 		ldrb	r3, [sp, #273]	@ zero_extendqisi2
 1476 0818 9DF81001 		ldrb	r0, [sp, #272]	@ zero_extendqisi2
 1477 081c 03EB0020 		add	r0, r3, r0, lsl #8
 1478 0820 FFF7FEFF 		bl	__aeabi_i2d
 1479              	.LVL195:
 1480 0824 A6A3     		adr	r3, .L180
 1481 0826 D3E90023 		ldrd	r2, [r3]
 1482 082a FFF7FEFF 		bl	__aeabi_dmul
ARM GAS  C:\Users\Moi\AppData\Local\Temp\ccP2HW8a.s 			page 27


 1483              	.LVL196:
 1484              		.loc 2 173 0
 1485 082e 4246     		mov	r2, r8
 1486              		.loc 2 171 0
 1487 0830 8246     		mov	r10, r0
 1488 0832 8B46     		mov	fp, r1
 1489              	.LVL197:
 1490              		.loc 2 173 0
 1491 0834 2020     		movs	r0, #32
 1492 0836 0521     		movs	r1, #5
 1493 0838 FFF7FEFF 		bl	read_reg
 1494              	.LVL198:
 1495              		.loc 2 174 0
 1496 083c 0DF21112 		addw	r2, sp, #273
 1497 0840 0621     		movs	r1, #6
 1498 0842 2020     		movs	r0, #32
 1499 0844 FFF7FEFF 		bl	read_reg
 1500              	.LVL199:
 1501              		.loc 2 175 0
 1502 0848 9DF81011 		ldrb	r1, [sp, #272]	@ zero_extendqisi2
 1503 084c 9DF81131 		ldrb	r3, [sp, #273]	@ zero_extendqisi2
 1504 0850 03EB0123 		add	r3, r3, r1, lsl #8
 1505 0854 9BB2     		uxth	r3, r3
 1506              		.loc 2 177 0
 1507 0856 4246     		mov	r2, r8
 1508 0858 0921     		movs	r1, #9
 1509 085a 2020     		movs	r0, #32
 1510              		.loc 2 175 0
 1511 085c 1F46     		mov	r7, r3
 1512              	.LVL200:
 1513              		.loc 2 177 0
 1514 085e FFF7FEFF 		bl	read_reg
 1515              	.LVL201:
 1516              		.loc 2 180 0
 1517 0862 9D4B     		ldr	r3, .L180+24
 1518 0864 D3F85422 		ldr	r2, [r3, #596]
 1519              		.loc 2 178 0
 1520 0868 9DF81031 		ldrb	r3, [sp, #272]	@ zero_extendqisi2
 1521              	.LVL202:
 1522              		.loc 2 180 0
 1523 086c 1268     		ldr	r2, [r2]
 1524 086e 1278     		ldrb	r2, [r2]	@ zero_extendqisi2
 1525 0870 042A     		cmp	r2, #4
 1526 0872 7FF4DDAE 		bne	.L48
 1527              		.loc 2 184 0
 1528 0876 0393     		str	r3, [sp, #12]
 1529 0878 5046     		mov	r0, r10
 1530 087a 5946     		mov	r1, fp
 1531 087c 0022     		movs	r2, #0
 1532 087e 984B     		ldr	r3, .L180+32
 1533              	.LVL203:
 1534 0880 0297     		str	r7, [sp, #8]
 1535 0882 FFF7FEFF 		bl	__aeabi_dmul
 1536              	.LVL204:
 1537 0886 90A3     		adr	r3, .L180+8
 1538 0888 D3E90023 		ldrd	r2, [r3]
 1539 088c FFF7FEFF 		bl	__aeabi_ddiv
ARM GAS  C:\Users\Moi\AppData\Local\Temp\ccP2HW8a.s 			page 28


 1540              	.LVL205:
 1541 0890 0D9A     		ldr	r2, [sp, #52]
 1542 0892 CDE90001 		strd	r0, [sp]
 1543 0896 9349     		ldr	r1, .L180+36
 1544 0898 8F48     		ldr	r0, .L180+24
 1545 089a FFF7FEFF 		bl	chprintf
 1546              	.LVL206:
 1547 089e C7E6     		b	.L48
 1548              	.LVL207:
 1549              	.L169:
 1550              		.loc 2 161 0
 1551 08a0 9149     		ldr	r1, .L180+40
 1552 08a2 8D48     		ldr	r0, .L180+24
 1553              	.LVL208:
 1554 08a4 FFF7FEFF 		bl	chprintf
 1555              	.LVL209:
 1556              		.loc 2 162 0
 1557 08a8 C2E6     		b	.L48
 1558              	.LVL210:
 1559              	.L171:
 1560              	.LBB140:
 1561              	.LBB129:
 1562              	.LBB123:
 1563              	.LBB111:
 1564              		.loc 5 367 0
 1565 08aa 8948     		ldr	r0, .L180+16
 1566 08ac FFF7FEFF 		bl	chSysHalt
 1567              	.LVL211:
 1568              	.LBB106:
 1569              	.LBB102:
 1570              	.LBB98:
 1571              		.loc 4 546 0
 1572 08b0 0023     		movs	r3, #0
 1573              		.syntax unified
 1574              	@ 546 ".//ChibiOS//os/ext/CMSIS/include/core_cmFunc.h" 1
 1575 08b2 83F31188 		MSR basepri, r3
 1576              	@ 0 "" 2
 1577              	.LVL212:
 1578              		.thumb
 1579              		.syntax unified
 1580              	.LBE98:
 1581              	.LBE102:
 1582              	.LBE106:
 1583              	.LBE111:
 1584              	.LBE123:
 1585              	.LBE129:
 1586              	.LBE140:
 1587              		.loc 2 114 0
 1588 08b6 FFF7FEFF 		bl	get_selector
 1589              	.LVL213:
 1590 08ba 0F28     		cmp	r0, #15
 1591 08bc 00F29D80 		bhi	.L92
 1592 08c0 01A3     		adr	r3, .L30
 1593 08c2 53F820F0 		ldr	pc, [r3, r0, lsl #2]
 1594 08c6 00BF     		.p2align 2
 1595              	.L30:
 1596 08c8 3D010000 		.word	.L13+1
ARM GAS  C:\Users\Moi\AppData\Local\Temp\ccP2HW8a.s 			page 29


 1597 08cc 2B010000 		.word	.L15+1
 1598 08d0 F3090000 		.word	.L93+1
 1599 08d4 A9000000 		.word	.L17+1
 1600 08d8 17060000 		.word	.L31+1
 1601 08dc EF090000 		.word	.L155+1
 1602 08e0 E9090000 		.word	.L95+1
 1603 08e4 D7040000 		.word	.L21+1
 1604 08e8 A9000000 		.word	.L17+1
 1605 08ec A3040000 		.word	.L22+1
 1606 08f0 95040000 		.word	.L23+1
 1607 08f4 DD090000 		.word	.L97+1
 1608 08f8 45090000 		.word	.L98+1
 1609 08fc 3F090000 		.word	.L99+1
 1610 0900 39090000 		.word	.L100+1
 1611 0904 E3090000 		.word	.L96+1
 1612              		.p2align 1
 1613              	.L129:
 1614 0908 0127     		movs	r7, #1
 1615 090a FFF79DBB 		b	.L9
 1616              	.LVL214:
 1617              	.L165:
 1618              		.loc 2 285 0
 1619 090e 0B98     		ldr	r0, [sp, #44]
 1620 0910 0E21     		movs	r1, #14
 1621 0912 0130     		adds	r0, r0, #1
 1622              		.loc 2 286 0
 1623 0914 0022     		movs	r2, #0
 1624              		.loc 2 285 0
 1625 0916 90FBF1F3 		sdiv	r3, r0, r1
 1626 091a 01FB1303 		mls	r3, r1, r3, r0
 1627              		.loc 2 286 0
 1628 091e D8B2     		uxtb	r0, r3
 1629 0920 1146     		mov	r1, r2
 1630              		.loc 2 285 0
 1631 0922 9BB2     		uxth	r3, r3
 1632 0924 0B93     		str	r3, [sp, #44]
 1633              	.LVL215:
 1634              		.loc 2 286 0
 1635 0926 FFF7FEFF 		bl	playMelody
 1636              	.LVL216:
 1637              		.loc 2 284 0
 1638 092a 0023     		movs	r3, #0
 1639 092c 0993     		str	r3, [sp, #36]
 1640 092e ABE5     		b	.L64
 1641              	.LVL217:
 1642              	.L167:
 1643              	.LBB141:
 1644              	.LBB130:
 1645              	.LBB124:
 1646              	.LBB112:
 1647              		.loc 5 367 0
 1648 0930 6748     		ldr	r0, .L180+16
 1649 0932 FFF7FEFF 		bl	chSysHalt
 1650              	.LVL218:
 1651 0936 16E6     		b	.L160
 1652              	.LVL219:
 1653              	.L100:
ARM GAS  C:\Users\Moi\AppData\Local\Temp\ccP2HW8a.s 			page 30


 1654 0938 CB46     		mov	fp, r9
 1655              	.LBE112:
 1656              	.LBE124:
 1657              	.LBE130:
 1658              	.LBE141:
 1659              		.loc 2 114 0
 1660 093a 0127     		movs	r7, #1
 1661 093c 02E4     		b	.L27
 1662              	.L99:
 1663 093e CB46     		mov	fp, r9
 1664 0940 0127     		movs	r7, #1
 1665 0942 30E4     		b	.L26
 1666              	.L98:
 1667 0944 CB46     		mov	fp, r9
 1668 0946 0127     		movs	r7, #1
 1669              		.loc 2 293 0
 1670 0948 002E     		cmp	r6, #0
 1671 094a 7FF44FAC 		bne	.L175
 1672              	.LVL220:
 1673              	.L65:
 1674              		.loc 2 296 0
 1675 094e FFF7FEFF 		bl	calibrate_ir
 1676              	.LVL221:
 1677              		.loc 2 299 0
 1678 0952 3246     		mov	r2, r6
 1679 0954 3146     		mov	r1, r6
 1680 0956 0320     		movs	r0, #3
 1681 0958 FFF7FEFF 		bl	playMelody
 1682              	.LVL222:
 1683              		.loc 2 302 0
 1684 095c 9620     		movs	r0, #150
 1685 095e FFF7FEFF 		bl	left_motor_set_speed
 1686              	.LVL223:
 1687              		.loc 2 303 0
 1688 0962 9620     		movs	r0, #150
 1689 0964 FFF7FEFF 		bl	right_motor_set_speed
 1690              	.LVL224:
 1691              		.loc 2 306 0
 1692 0968 A023     		movs	r3, #160
 1693 096a 8022     		movs	r2, #128
 1694 096c 0093     		str	r3, [sp]
 1695 096e F021     		movs	r1, #240
 1696 0970 CDE90122 		strd	r2, r2, [sp, #4]
 1697 0974 3020     		movs	r0, #48
 1698 0976 1A46     		mov	r2, r3
 1699 0978 FFF7FEFF 		bl	po8030_advanced_config
 1700              	.LVL225:
 1701              		.loc 2 307 0
 1702 097c FFF7FEFF 		bl	dcmi_disable_double_buffering
 1703              	.LVL226:
 1704              		.loc 2 308 0
 1705 0980 3046     		mov	r0, r6
 1706 0982 FFF7FEFF 		bl	dcmi_set_capture_mode
 1707              	.LVL227:
 1708              		.loc 2 309 0
 1709 0986 FFF7FEFF 		bl	dcmi_prepare
 1710              	.LVL228:
ARM GAS  C:\Users\Moi\AppData\Local\Temp\ccP2HW8a.s 			page 31


 1711              		.loc 2 312 0
 1712 098a FFF7FEFF 		bl	calibrate_acc
 1713              	.LVL229:
 1714              		.loc 2 313 0
 1715 098e FFF7FEFF 		bl	calibrate_gyro
 1716              	.LVL230:
 1717              		.loc 2 316 0
 1718 0992 0120     		movs	r0, #1
 1719 0994 FFF7FEFF 		bl	set_body_led
 1720              	.LVL231:
 1721              		.loc 2 317 0
 1722 0998 0120     		movs	r0, #1
 1723 099a FFF7FEFF 		bl	set_front_led
 1724              	.LVL232:
 1725              		.loc 2 318 0
 1726 099e 0121     		movs	r1, #1
 1727 09a0 0420     		movs	r0, #4
 1728 09a2 FFF7FEFF 		bl	set_led
 1729              	.LVL233:
 1730              		.loc 2 319 0
 1731 09a6 3346     		mov	r3, r6
 1732 09a8 3246     		mov	r2, r6
 1733 09aa 3046     		mov	r0, r6
 1734 09ac 0A21     		movs	r1, #10
 1735 09ae FFF7FEFF 		bl	set_rgb_led
 1736              	.LVL234:
 1737              		.loc 2 320 0
 1738 09b2 3346     		mov	r3, r6
 1739 09b4 3246     		mov	r2, r6
 1740 09b6 0A21     		movs	r1, #10
 1741 09b8 0120     		movs	r0, #1
 1742 09ba FFF7FEFF 		bl	set_rgb_led
 1743              	.LVL235:
 1744              		.loc 2 321 0
 1745 09be 3346     		mov	r3, r6
 1746 09c0 3246     		mov	r2, r6
 1747 09c2 0A21     		movs	r1, #10
 1748 09c4 0220     		movs	r0, #2
 1749 09c6 FFF7FEFF 		bl	set_rgb_led
 1750              	.LVL236:
 1751              		.loc 2 322 0
 1752 09ca 3346     		mov	r3, r6
 1753 09cc 3246     		mov	r2, r6
 1754 09ce 0A21     		movs	r1, #10
 1755 09d0 0320     		movs	r0, #3
 1756 09d2 FFF7FEFF 		bl	set_rgb_led
 1757              	.LVL237:
 1758              		.loc 2 324 0
 1759 09d6 0126     		movs	r6, #1
 1760 09d8 FFF736BB 		b	.L9
 1761              	.LVL238:
 1762              	.L97:
 1763 09dc CB46     		mov	fp, r9
 1764              		.loc 2 114 0
 1765 09de 0127     		movs	r7, #1
 1766 09e0 04E5     		b	.L24
 1767              	.L96:
ARM GAS  C:\Users\Moi\AppData\Local\Temp\ccP2HW8a.s 			page 32


 1768 09e2 CB46     		mov	fp, r9
 1769 09e4 0127     		movs	r7, #1
 1770 09e6 60E5     		b	.L28
 1771              	.L95:
 1772 09e8 CB46     		mov	fp, r9
 1773 09ea 0127     		movs	r7, #1
 1774 09ec 7CE5     		b	.L20
 1775              	.L155:
 1776 09ee CB46     		mov	fp, r9
 1777 09f0 95E5     		b	.L19
 1778              	.L93:
 1779 09f2 CB46     		mov	fp, r9
 1780 09f4 0127     		movs	r7, #1
 1781 09f6 FFF762BB 		b	.L16
 1782              	.L92:
 1783 09fa CB46     		mov	fp, r9
 1784 09fc 0127     		movs	r7, #1
 1785 09fe FFF723BB 		b	.L9
 1786              	.LVL239:
 1787              	.L164:
 1788              		.loc 2 277 0
 1789 0a02 0BF10102 		add	r2, fp, #1
 1790 0a06 0323     		movs	r3, #3
 1791 0a08 92FBF3F3 		sdiv	r3, r2, r3
 1792 0a0c 03EB4303 		add	r3, r3, r3, lsl #1
 1793 0a10 D31A     		subs	r3, r2, r3
 1794              		.loc 2 278 0
 1795 0a12 0220     		movs	r0, #2
 1796              		.loc 2 277 0
 1797 0a14 5FFA83FB 		uxtb	fp, r3
 1798              	.LVL240:
 1799              		.loc 2 278 0
 1800 0a18 FFF7FEFF 		bl	set_body_led
 1801              	.LVL241:
 1802              		.loc 2 279 0
 1803 0a1c 0220     		movs	r0, #2
 1804 0a1e FFF7FEFF 		bl	set_front_led
 1805              	.LVL242:
 1806              		.loc 2 276 0
 1807 0a22 0023     		movs	r3, #0
 1808 0a24 0793     		str	r3, [sp, #28]
 1809 0a26 27E5     		b	.L63
 1810              	.LVL243:
 1811              	.L61:
 1812              		.loc 2 256 0
 1813 0a28 0023     		movs	r3, #0
 1814 0a2a 1A46     		mov	r2, r3
 1815 0a2c 1846     		mov	r0, r3
 1816 0a2e 0A21     		movs	r1, #10
 1817 0a30 FFF7FEFF 		bl	set_rgb_led
 1818              	.LVL244:
 1819              		.loc 2 257 0
 1820 0a34 0023     		movs	r3, #0
 1821 0a36 1A46     		mov	r2, r3
 1822 0a38 0A21     		movs	r1, #10
 1823 0a3a 0120     		movs	r0, #1
 1824 0a3c FFF7FEFF 		bl	set_rgb_led
ARM GAS  C:\Users\Moi\AppData\Local\Temp\ccP2HW8a.s 			page 33


 1825              	.LVL245:
 1826              		.loc 2 258 0
 1827 0a40 0023     		movs	r3, #0
 1828 0a42 1A46     		mov	r2, r3
 1829 0a44 0A21     		movs	r1, #10
 1830 0a46 0220     		movs	r0, #2
 1831 0a48 FFF7FEFF 		bl	set_rgb_led
 1832              	.LVL246:
 1833              		.loc 2 259 0
 1834 0a4c 0023     		movs	r3, #0
 1835 0a4e 1A46     		mov	r2, r3
 1836 0a50 0A21     		movs	r1, #10
 1837 0a52 0320     		movs	r0, #3
 1838 0a54 FFF7FEFF 		bl	set_rgb_led
 1839              	.LVL247:
 1840              		.loc 2 260 0
 1841 0a58 07E5     		b	.L59
 1842              	.L60:
 1843              		.loc 2 262 0
 1844 0a5a 0023     		movs	r3, #0
 1845 0a5c 1946     		mov	r1, r3
 1846 0a5e 1846     		mov	r0, r3
 1847 0a60 0A22     		movs	r2, #10
 1848 0a62 FFF7FEFF 		bl	set_rgb_led
 1849              	.LVL248:
 1850              		.loc 2 263 0
 1851 0a66 0023     		movs	r3, #0
 1852 0a68 1946     		mov	r1, r3
 1853 0a6a 5846     		mov	r0, fp
 1854 0a6c 0A22     		movs	r2, #10
 1855 0a6e FFF7FEFF 		bl	set_rgb_led
 1856              	.LVL249:
 1857              		.loc 2 264 0
 1858 0a72 0023     		movs	r3, #0
 1859 0a74 1946     		mov	r1, r3
 1860 0a76 0A22     		movs	r2, #10
 1861 0a78 0220     		movs	r0, #2
 1862 0a7a FFF7FEFF 		bl	set_rgb_led
 1863              	.LVL250:
 1864              		.loc 2 265 0
 1865 0a7e 0023     		movs	r3, #0
 1866 0a80 1946     		mov	r1, r3
 1867 0a82 0A22     		movs	r2, #10
 1868 0a84 0320     		movs	r0, #3
 1869 0a86 FFF7FEFF 		bl	set_rgb_led
 1870              	.LVL251:
 1871              		.loc 2 266 0
 1872 0a8a EEE4     		b	.L59
 1873              	.LVL252:
 1874              	.L69:
 1875              		.loc 2 332 0
 1876 0a8c 0023     		movs	r3, #0
 1877 0a8e 1A46     		mov	r2, r3
 1878 0a90 1846     		mov	r0, r3
 1879 0a92 0A21     		movs	r1, #10
 1880 0a94 FFF7FEFF 		bl	set_rgb_led
 1881              	.LVL253:
ARM GAS  C:\Users\Moi\AppData\Local\Temp\ccP2HW8a.s 			page 34


 1882              		.loc 2 333 0
 1883 0a98 0023     		movs	r3, #0
 1884 0a9a 1A46     		mov	r2, r3
 1885 0a9c 3046     		mov	r0, r6
 1886 0a9e 0A21     		movs	r1, #10
 1887 0aa0 FFF7FEFF 		bl	set_rgb_led
 1888              	.LVL254:
 1889              		.loc 2 334 0
 1890 0aa4 0023     		movs	r3, #0
 1891 0aa6 1A46     		mov	r2, r3
 1892 0aa8 0A21     		movs	r1, #10
 1893 0aaa 0220     		movs	r0, #2
 1894 0aac FFF7FEFF 		bl	set_rgb_led
 1895              	.LVL255:
 1896              		.loc 2 335 0
 1897 0ab0 0023     		movs	r3, #0
 1898 0ab2 1A46     		mov	r2, r3
 1899 0ab4 0A21     		movs	r1, #10
 1900 0ab6 0320     		movs	r0, #3
 1901 0ab8 FFF7FEFF 		bl	set_rgb_led
 1902              	.LVL256:
 1903              		.loc 2 336 0
 1904 0abc FFF7BFBB 		b	.L67
 1905              	.L181:
 1906              		.align	3
 1907              	.L180:
 1908 0ac0 000000E0 		.word	-536870912
 1909 0ac4 E2361A3F 		.word	1058682594
 1910 0ac8 00000060 		.word	1610612736
 1911 0acc FB210940 		.word	1074340347
 1912 0ad0 00000000 		.word	.LANCHOR2
 1913 0ad4 54000000 		.word	.LC8
 1914 0ad8 00000000 		.word	SDU1
 1915 0adc 40000000 		.word	.LC7
 1916 0ae0 00806640 		.word	1080459264
 1917 0ae4 2C000000 		.word	.LC6
 1918 0ae8 24000000 		.word	.LC5
 1919              	.L68:
 1920              		.loc 2 338 0
 1921 0aec 0023     		movs	r3, #0
 1922 0aee 1946     		mov	r1, r3
 1923 0af0 1846     		mov	r0, r3
 1924 0af2 0A22     		movs	r2, #10
 1925 0af4 FFF7FEFF 		bl	set_rgb_led
 1926              	.LVL257:
 1927              		.loc 2 339 0
 1928 0af8 0023     		movs	r3, #0
 1929 0afa 1946     		mov	r1, r3
 1930 0afc 5846     		mov	r0, fp
 1931 0afe 0A22     		movs	r2, #10
 1932 0b00 FFF7FEFF 		bl	set_rgb_led
 1933              	.LVL258:
 1934              		.loc 2 340 0
 1935 0b04 0023     		movs	r3, #0
 1936 0b06 1946     		mov	r1, r3
 1937 0b08 0A22     		movs	r2, #10
 1938 0b0a 0220     		movs	r0, #2
ARM GAS  C:\Users\Moi\AppData\Local\Temp\ccP2HW8a.s 			page 35


 1939 0b0c FFF7FEFF 		bl	set_rgb_led
 1940              	.LVL259:
 1941              		.loc 2 341 0
 1942 0b10 0023     		movs	r3, #0
 1943 0b12 1946     		mov	r1, r3
 1944 0b14 0A22     		movs	r2, #10
 1945 0b16 0320     		movs	r0, #3
 1946 0b18 FFF7FEFF 		bl	set_rgb_led
 1947              	.LVL260:
 1948              		.loc 2 342 0
 1949 0b1c FFF78FBB 		b	.L67
 1950              	.L73:
 1951              		.loc 2 414 0
 1952 0b20 FFF7FEFF 		bl	mpu9250_magnetometer_setup
 1953              	.LVL261:
 1954              		.loc 2 415 0
 1955 0b24 0123     		movs	r3, #1
 1956 0b26 0C93     		str	r3, [sp, #48]
 1957 0b28 FFF78EBA 		b	.L9
 1958              		.cfi_endproc
 1959              	.LFE263:
 1960              		.size	selector_thd, .-selector_thd
 1961              		.section	.text.startup.main,"ax",%progbits
 1962              		.align	1
 1963              		.p2align 4,,15
 1964              		.global	main
 1965              		.syntax unified
 1966              		.thumb
 1967              		.thumb_func
 1968              		.fpu fpv4-sp-d16
 1969              		.type	main, %function
 1970              	main:
 1971              	.LFB264:
 1972              		.loc 2 438 0
 1973              		.cfi_startproc
 1974              		@ Volatile: function does not return.
 1975              		@ args = 0, pretend = 0, frame = 8
 1976              		@ frame_needed = 0, uses_anonymous_args = 0
 1977 0000 00B5     		push	{lr}
 1978              		.cfi_def_cfa_offset 4
 1979              		.cfi_offset 14, -4
 1980 0002 304B     		ldr	r3, .L186
 1981 0004 85B0     		sub	sp, sp, #20
 1982              		.cfi_def_cfa_offset 24
 1983              		.loc 2 438 0
 1984 0006 1B68     		ldr	r3, [r3]
 1985 0008 0393     		str	r3, [sp, #12]
 1986              		.loc 2 440 0
 1987 000a FFF7FEFF 		bl	halInit
 1988              	.LVL262:
 1989              		.loc 2 441 0
 1990 000e FFF7FEFF 		bl	chSysInit
 1991              	.LVL263:
 1992              		.loc 2 442 0
 1993 0012 FFF7FEFF 		bl	mpu_init
 1994              	.LVL264:
 1995              		.loc 2 445 0
ARM GAS  C:\Users\Moi\AppData\Local\Temp\ccP2HW8a.s 			page 36


 1996 0016 2C4A     		ldr	r2, .L186+4
 1997 0018 2C49     		ldr	r1, .L186+8
 1998 001a 2D48     		ldr	r0, .L186+12
 1999 001c FFF7FEFF 		bl	messagebus_init
 2000              	.LVL265:
 2001              		.loc 2 447 0
 2002 0020 0022     		movs	r2, #0
 2003 0022 1146     		mov	r1, r2
 2004 0024 2B48     		ldr	r0, .L186+16
 2005 0026 FFF7FEFF 		bl	parameter_namespace_declare
 2006              	.LVL266:
 2007              		.loc 2 450 0
 2008 002a FFF7FEFF 		bl	clear_leds
 2009              	.LVL267:
 2010              		.loc 2 451 0
 2011 002e 0020     		movs	r0, #0
 2012 0030 FFF7FEFF 		bl	set_body_led
 2013              	.LVL268:
 2014              		.loc 2 452 0
 2015 0034 0020     		movs	r0, #0
 2016 0036 FFF7FEFF 		bl	set_front_led
 2017              	.LVL269:
 2018              		.loc 2 453 0
 2019 003a FFF7FEFF 		bl	usb_start
 2020              	.LVL270:
 2021              		.loc 2 454 0
 2022 003e FFF7FEFF 		bl	dcmi_start
 2023              	.LVL271:
 2024              		.loc 2 455 0
 2025 0042 FFF7FEFF 		bl	po8030_start
 2026              	.LVL272:
 2027              		.loc 2 456 0
 2028 0046 FFF7FEFF 		bl	motors_init
 2029              	.LVL273:
 2030              		.loc 2 457 0
 2031 004a FFF7FEFF 		bl	proximity_start
 2032              	.LVL274:
 2033              		.loc 2 458 0
 2034 004e FFF7FEFF 		bl	battery_level_start
 2035              	.LVL275:
 2036              		.loc 2 459 0
 2037 0052 FFF7FEFF 		bl	dac_start
 2038              	.LVL276:
 2039              		.loc 2 460 0
 2040 0056 FFF7FEFF 		bl	exti_start
 2041              	.LVL277:
 2042              		.loc 2 461 0
 2043 005a FFF7FEFF 		bl	imu_start
 2044              	.LVL278:
 2045              		.loc 2 462 0
 2046 005e FFF7FEFF 		bl	ir_remote_start
 2047              	.LVL279:
 2048              		.loc 2 463 0
 2049 0062 FFF7FEFF 		bl	spi_comm_start
 2050              	.LVL280:
 2051              		.loc 2 464 0
 2052 0066 FFF7FEFF 		bl	VL53L0X_start
ARM GAS  C:\Users\Moi\AppData\Local\Temp\ccP2HW8a.s 			page 37


 2053              	.LVL281:
 2054              	.LBB142:
 2055              	.LBB143:
 2056              		.loc 2 70 0
 2057 006a 1B49     		ldr	r1, .L186+20
 2058 006c 1B48     		ldr	r0, .L186+24
 2059 006e FFF7FEFF 		bl	sdStart
 2060              	.LVL282:
 2061              	.LBE143:
 2062              	.LBE142:
 2063              		.loc 2 466 0
 2064 0072 0020     		movs	r0, #0
 2065 0074 FFF7FEFF 		bl	mic_start
 2066              	.LVL283:
 2067              		.loc 2 467 0
 2068 0078 FFF7FEFF 		bl	sdio_start
 2069              	.LVL284:
 2070              		.loc 2 468 0
 2071 007c FFF7FEFF 		bl	playMelodyStart
 2072              	.LVL285:
 2073              		.loc 2 469 0
 2074 0080 FFF7FEFF 		bl	playSoundFileStart
 2075              	.LVL286:
 2076              		.loc 2 472 0
 2077 0084 164A     		ldr	r2, .L186+28
 2078 0086 1349     		ldr	r1, .L186+16
 2079 0088 1648     		ldr	r0, .L186+32
 2080 008a FFF7FEFF 		bl	parameter_namespace_declare
 2081              	.LVL287:
 2082              		.loc 2 473 0
 2083 008e 1548     		ldr	r0, .L186+32
 2084 0090 FFF7FEFF 		bl	aseba_declare_parameters
 2085              	.LVL288:
 2086              	.LBB144:
 2087              	.LBB145:
 2088              		.loc 2 58 0
 2089 0094 1449     		ldr	r1, .L186+36
 2090 0096 0F48     		ldr	r0, .L186+16
 2091 0098 FFF7FEFF 		bl	config_load
 2092              	.LVL289:
 2093              	.LBE145:
 2094              	.LBE144:
 2095              		.loc 2 480 0
 2096 009c FFF7FEFF 		bl	aseba_vm_init
 2097              	.LVL290:
 2098              		.loc 2 481 0
 2099 00a0 1248     		ldr	r0, .L186+40
 2100 00a2 FFF7FEFF 		bl	aseba_can_start
 2101              	.LVL291:
 2102              		.loc 2 483 0
 2103 00a6 0023     		movs	r3, #0
 2104 00a8 0093     		str	r3, [sp]
 2105 00aa 1148     		ldr	r0, .L186+44
 2106 00ac 114B     		ldr	r3, .L186+48
 2107 00ae 4022     		movs	r2, #64
 2108 00b0 40F67811 		movw	r1, #2424
 2109 00b4 FFF7FEFF 		bl	chThdCreateStatic
ARM GAS  C:\Users\Moi\AppData\Local\Temp\ccP2HW8a.s 			page 38


 2110              	.LVL292:
 2111              	.L183:
 2112              		.loc 2 487 0 discriminator 1
 2113 00b8 4FF47A70 		mov	r0, #1000
 2114 00bc FFF7FEFF 		bl	chThdSleep
 2115              	.LVL293:
 2116 00c0 FAE7     		b	.L183
 2117              	.L187:
 2118 00c2 00BF     		.align	2
 2119              	.L186:
 2120 00c4 00000000 		.word	__stack_chk_guard
 2121 00c8 00000000 		.word	.LANCHOR3
 2122 00cc 00000000 		.word	.LANCHOR4
 2123 00d0 00000000 		.word	.LANCHOR1
 2124 00d4 00000000 		.word	.LANCHOR5
 2125 00d8 00000000 		.word	.LANCHOR6
 2126 00dc 00000000 		.word	SD3
 2127 00e0 00000000 		.word	.LC25
 2128 00e4 00000000 		.word	.LANCHOR7
 2129 00e8 00000000 		.word	_config_start
 2130 00ec 00000000 		.word	vmState
 2131 00f0 00000000 		.word	.LANCHOR8
 2132 00f4 00000000 		.word	selector_thd
 2133              		.cfi_endproc
 2134              	.LFE264:
 2135              		.size	main, .-main
 2136              		.section	.text.__stack_chk_fail,"ax",%progbits
 2137              		.align	1
 2138              		.p2align 4,,15
 2139              		.global	__stack_chk_fail
 2140              		.syntax unified
 2141              		.thumb
 2142              		.thumb_func
 2143              		.fpu fpv4-sp-d16
 2144              		.type	__stack_chk_fail, %function
 2145              	__stack_chk_fail:
 2146              	.LFB265:
 2147              		.loc 2 495 0
 2148              		.cfi_startproc
 2149              		@ args = 0, pretend = 0, frame = 8
 2150              		@ frame_needed = 0, uses_anonymous_args = 0
 2151 0000 00B5     		push	{lr}
 2152              		.cfi_def_cfa_offset 4
 2153              		.cfi_offset 14, -4
 2154 0002 084B     		ldr	r3, .L193
 2155 0004 83B0     		sub	sp, sp, #12
 2156              		.cfi_def_cfa_offset 16
 2157              		.loc 2 495 0
 2158 0006 1A68     		ldr	r2, [r3]
 2159 0008 0192     		str	r2, [sp, #4]
 2160              		.loc 2 496 0
 2161 000a 019A     		ldr	r2, [sp, #4]
 2162 000c 1B68     		ldr	r3, [r3]
 2163 000e 9A42     		cmp	r2, r3
 2164 0010 05D1     		bne	.L192
 2165 0012 0548     		ldr	r0, .L193+4
 2166              		.loc 2 497 0
ARM GAS  C:\Users\Moi\AppData\Local\Temp\ccP2HW8a.s 			page 39


 2167 0014 03B0     		add	sp, sp, #12
 2168              		.cfi_remember_state
 2169              		.cfi_def_cfa_offset 4
 2170              		@ sp needed
 2171 0016 5DF804EB 		ldr	lr, [sp], #4
 2172              		.cfi_restore 14
 2173              		.cfi_def_cfa_offset 0
 2174              		.loc 2 496 0
 2175 001a FFF7FEBF 		b	chSysHalt
 2176              	.LVL294:
 2177              	.L192:
 2178              		.cfi_restore_state
 2179 001e FFF7FEFF 		bl	__stack_chk_fail
 2180              	.LVL295:
 2181              	.L194:
 2182 0022 00BF     		.align	2
 2183              	.L193:
 2184 0024 00000000 		.word	__stack_chk_guard
 2185 0028 00000000 		.word	.LC26
 2186              		.cfi_endproc
 2187              	.LFE265:
 2188              		.size	__stack_chk_fail, .-__stack_chk_fail
 2189              		.global	__stack_chk_guard
 2190              		.global	aseba_ns
 2191              		.global	parameter_root
 2192              		.global	bus_condvar
 2193              		.global	bus_lock
 2194              		.global	bus
 2195              		.section	.bss.aseba_ns,"aw",%nobits
 2196              		.align	2
 2197              		.set	.LANCHOR7,. + 0
 2198              		.type	aseba_ns, %object
 2199              		.size	aseba_ns, 24
 2200              	aseba_ns:
 2201 0000 00000000 		.space	24
 2201      00000000 
 2201      00000000 
 2201      00000000 
 2201      00000000 
 2202              		.section	.bss.bus,"aw",%nobits
 2203              		.align	2
 2204              		.set	.LANCHOR1,. + 0
 2205              		.type	bus, %object
 2206              		.size	bus, 12
 2207              	bus:
 2208 0000 00000000 		.space	12
 2208      00000000 
 2208      00000000 
 2209              		.section	.bss.parameter_root,"aw",%nobits
 2210              		.align	2
 2211              		.set	.LANCHOR5,. + 0
 2212              		.type	parameter_root, %object
 2213              		.size	parameter_root, 24
 2214              	parameter_root:
 2215 0000 00000000 		.space	24
 2215      00000000 
 2215      00000000 
ARM GAS  C:\Users\Moi\AppData\Local\Temp\ccP2HW8a.s 			page 40


 2215      00000000 
 2215      00000000 
 2216              		.section	.bss.selector_thd_wa,"aw",%nobits
 2217              		.align	3
 2218              		.set	.LANCHOR8,. + 0
 2219              		.type	selector_thd_wa, %object
 2220              		.size	selector_thd_wa, 2424
 2221              	selector_thd_wa:
 2222 0000 00000000 		.space	2424
 2222      00000000 
 2222      00000000 
 2222      00000000 
 2222      00000000 
 2223              		.section	.data.__stack_chk_guard,"aw",%progbits
 2224              		.align	2
 2225              		.type	__stack_chk_guard, %object
 2226              		.size	__stack_chk_guard, 4
 2227              	__stack_chk_guard:
 2228 0000 96E3DEE2 		.word	-488709226
 2229              		.section	.data.bus_condvar,"aw",%progbits
 2230              		.align	2
 2231              		.set	.LANCHOR3,. + 0
 2232              		.type	bus_condvar, %object
 2233              		.size	bus_condvar, 8
 2234              	bus_condvar:
 2235 0000 00000000 		.word	bus_condvar
 2236 0004 00000000 		.word	bus_condvar
 2237              		.section	.data.bus_lock,"aw",%progbits
 2238              		.align	2
 2239              		.set	.LANCHOR4,. + 0
 2240              		.type	bus_lock, %object
 2241              		.size	bus_lock, 20
 2242              	bus_lock:
 2243 0000 00000000 		.word	bus_lock
 2244 0004 00000000 		.word	bus_lock
 2245 0008 00000000 		.word	0
 2246 000c 00000000 		.word	0
 2247 0010 00000000 		.word	0
 2248              		.section	.data.ser_cfg.14599,"aw",%progbits
 2249              		.align	2
 2250              		.set	.LANCHOR6,. + 0
 2251              		.type	ser_cfg.14599, %object
 2252              		.size	ser_cfg.14599, 12
 2253              	ser_cfg.14599:
 2254 0000 00C20100 		.word	115200
 2255 0004 0000     		.short	0
 2256 0006 0000     		.short	0
 2257 0008 0000     		.short	0
 2258 000a 0000     		.space	2
 2259              		.section	.rodata.__FUNCTION__.14603,"a",%progbits
 2260              		.align	2
 2261              		.set	.LANCHOR0,. + 0
 2262              		.type	__FUNCTION__.14603, %object
 2263              		.size	__FUNCTION__.14603, 13
 2264              	__FUNCTION__.14603:
 2265 0000 73656C65 		.ascii	"selector_thd\000"
 2265      63746F72 
ARM GAS  C:\Users\Moi\AppData\Local\Temp\ccP2HW8a.s 			page 41


 2265      5F746864 
 2265      00
 2266              		.section	.rodata.__func__.9289,"a",%progbits
 2267              		.align	2
 2268              		.set	.LANCHOR2,. + 0
 2269              		.type	__func__.9289, %object
 2270              		.size	__func__.9289, 12
 2271              	__func__.9289:
 2272 0000 63685379 		.ascii	"chSysUnlock\000"
 2272      73556E6C 
 2272      6F636B00 
 2273              		.section	.rodata.__stack_chk_fail.str1.4,"aMS",%progbits,1
 2274              		.align	2
 2275              	.LC26:
 2276 0000 53746163 		.ascii	"Stack smashing detected\000"
 2276      6B20736D 
 2276      61736869 
 2276      6E672064 
 2276      65746563 
 2277              		.section	.rodata.main.str1.4,"aMS",%progbits,1
 2278              		.align	2
 2279              	.LC25:
 2280 0000 61736562 		.ascii	"aseba\000"
 2280      6100
 2281              		.section	.rodata.selector_thd.str1.4,"aMS",%progbits,1
 2282              		.align	2
 2283              	.LC0:
 2284 0000 2F70726F 		.ascii	"/proximity\000"
 2284      78696D69 
 2284      747900
 2285 000b 00       		.space	1
 2286              	.LC1:
 2287 000c 2F696D75 		.ascii	"/imu\000"
 2287      00
 2288 0011 000000   		.space	3
 2289              	.LC2:
 2290 0014 2534642C 		.ascii	"%4d,\000"
 2290      00
 2291 0019 000000   		.space	3
 2292              	.LC3:
 2293 001c 25346400 		.ascii	"%4d\000"
 2294              	.LC4:
 2295 0020 0D0A00   		.ascii	"\015\012\000"
 2296 0023 00       		.space	1
 2297              	.LC5:
 2298 0024 6572720D 		.ascii	"err\015\012\000"
 2298      0A00
 2299 002a 0000     		.space	2
 2300              	.LC6:
 2301 002c 25642025 		.ascii	"%d %3.2f %d %d\015\012\000"
 2301      332E3266 
 2301      20256420 
 2301      25640D0A 
 2301      00
 2302 003d 000000   		.space	3
 2303              	.LC7:
 2304 0040 73657420 		.ascii	"set range to %d\015\012\000"
ARM GAS  C:\Users\Moi\AppData\Local\Temp\ccP2HW8a.s 			page 42


 2304      72616E67 
 2304      6520746F 
 2304      2025640D 
 2304      0A00
 2305 0052 0000     		.space	2
 2306              	.LC8:
 2307 0054 6F6E626F 		.ascii	"onboard calculation enabled = %d\015\012\000"
 2307      61726420 
 2307      63616C63 
 2307      756C6174 
 2307      696F6E20 
 2308 0077 00       		.space	1
 2309              	.LC9:
 2310 0078 494D550D 		.ascii	"IMU\015\012\000"
 2310      0A00
 2311 007e 0000     		.space	2
 2312              	.LC10:
 2313 0080 2541783D 		.ascii	"%Ax=%-7d Ay=%-7d Az=%-7d Gx=%-7d Gy=%-7d Gz=%-7d\015"
 2313      252D3764 
 2313      2041793D 
 2313      252D3764 
 2313      20417A3D 
 2314 00b1 0A0A00   		.ascii	"\012\012\000"
 2315              	.LC11:
 2316 00b4 53454C45 		.ascii	"SELECTOR\015\012\000"
 2316      43544F52 
 2316      0D0A00
 2317 00bf 00       		.space	1
 2318              	.LC12:
 2319 00c0 25640D0A 		.ascii	"%d\015\012\012\000"
 2319      0A00
 2320 00c6 0000     		.space	2
 2321              	.LC13:
 2322 00c8 49522052 		.ascii	"IR RECEIVER\015\012\000"
 2322      45434549 
 2322      5645520D 
 2322      0A00
 2323 00d6 0000     		.space	2
 2324              	.LC14:
 2325 00d8 63686563 		.ascii	"check : 0x%x, address : 0x%x, data : 0x%x\015\012\012"
 2325      6B203A20 
 2325      30782578 
 2325      2C206164 
 2325      64726573 
 2326 0104 00       		.ascii	"\000"
 2327 0105 000000   		.space	3
 2328              	.LC15:
 2329 0108 50524F58 		.ascii	"PROXIMITY\015\012\000"
 2329      494D4954 
 2329      590D0A00 
 2330              	.LC16:
 2331 0114 2534642C 		.ascii	"%4d,%4d,%4d,%4d,%4d,%4d,%4d,%4d\015\012\012\000"
 2331      2534642C 
 2331      2534642C 
 2331      2534642C 
 2331      2534642C 
 2332 0137 00       		.space	1
ARM GAS  C:\Users\Moi\AppData\Local\Temp\ccP2HW8a.s 			page 43


 2333              	.LC17:
 2334 0138 414D4249 		.ascii	"AMBIENT\015\012\000"
 2334      454E540D 
 2334      0A00
 2335 0142 0000     		.space	2
 2336              	.LC18:
 2337 0144 4D494352 		.ascii	"MICROPHONES\015\012\000"
 2337      4F50484F 
 2337      4E45530D 
 2337      0A00
 2338 0152 0000     		.space	2
 2339              	.LC19:
 2340 0154 2534642C 		.ascii	"%4d,%4d,%4d,%4d\015\012\012\000"
 2340      2534642C 
 2340      2534642C 
 2340      2534640D 
 2340      0A0A00
 2341 0167 00       		.space	1
 2342              	.LC20:
 2343 0168 44495354 		.ascii	"DISTANCE SENSOR\015\012\000"
 2343      414E4345 
 2343      2053454E 
 2343      534F520D 
 2343      0A00
 2344 017a 0000     		.space	2
 2345              	.LC21:
 2346 017c 43414D45 		.ascii	"CAMERA\015\012\000"
 2346      52410D0A 
 2346      00
 2347 0185 000000   		.space	3
 2348              	.LC22:
 2349 0188 523D2533 		.ascii	"R=%3d, G=%3d, B=%3d\015\012\012\000"
 2349      642C2047 
 2349      3D253364 
 2349      2C20423D 
 2349      2533640D 
 2350 019f 00       		.space	1
 2351              	.LC23:
 2352 01a0 254D783D 		.ascii	"%Mx=%f My=%f Mz=%f\015\012\000"
 2352      2566204D 
 2352      793D2566 
 2352      204D7A3D 
 2352      25660D0A 
 2353 01b5 000000   		.space	3
 2354              	.LC24:
 2355 01b8 62617474 		.ascii	"battery=%d, %f V \015\012\000"
 2355      6572793D 
 2355      25642C20 
 2355      25662056 
 2355      200D0A00 
 2356              		.text
 2357              	.Letext0:
 2358              		.file 8 "c:\\users\\moi\\documents\\_microinfo\\epuck-eclipse\\tools\\gcc-arm-none-eabi-7-2017-q4-
 2359              		.file 9 "c:\\users\\moi\\documents\\_microinfo\\epuck-eclipse\\tools\\gcc-arm-none-eabi-7-2017-q4-
 2360              		.file 10 "c:\\users\\moi\\documents\\_microinfo\\epuck-eclipse\\tools\\gcc-arm-none-eabi-7-2017-q4
 2361              		.file 11 "c:\\users\\moi\\documents\\_microinfo\\epuck-eclipse\\tools\\gcc-arm-none-eabi-7-2017-q4
 2362              		.file 12 "c:\\users\\moi\\documents\\_microinfo\\epuck-eclipse\\tools\\gcc-arm-none-eabi-7-2017-q4
ARM GAS  C:\Users\Moi\AppData\Local\Temp\ccP2HW8a.s 			page 44


 2363              		.file 13 "c:\\users\\moi\\documents\\_microinfo\\epuck-eclipse\\tools\\gcc-arm-none-eabi-7-2017-q4
 2364              		.file 14 "c:\\users\\moi\\documents\\_microinfo\\epuck-eclipse\\tools\\gcc-arm-none-eabi-7-2017-q4
 2365              		.file 15 "<built-in>"
 2366              		.file 16 "c:\\users\\moi\\documents\\_microinfo\\epuck-eclipse\\tools\\gcc-arm-none-eabi-7-2017-q4
 2367              		.file 17 "c:\\users\\moi\\documents\\_microinfo\\epuck-eclipse\\tools\\gcc-arm-none-eabi-7-2017-q4
 2368              		.file 18 "c:\\users\\moi\\documents\\_microinfo\\epuck-eclipse\\tools\\gcc-arm-none-eabi-7-2017-q4
 2369              		.file 19 ".//ChibiOS//os/rt/ports/ARMCMx/compilers/GCC/chtypes.h"
 2370              		.file 20 ".//ChibiOS//os/rt/include/chsystypes.h"
 2371              		.file 21 ".//ChibiOS//os/rt/include/chschd.h"
 2372              		.file 22 ".//ChibiOS//os/ext/CMSIS/include/core_cm4.h"
 2373              		.file 23 ".//ChibiOS//os/ext/CMSIS/ST/system_stm32f4xx.h"
 2374              		.file 24 ".//ChibiOS//os/ext/CMSIS/ST/stm32f407xx.h"
 2375              		.file 25 ".//ChibiOS//os/rt/ports/ARMCMx/chcore.h"
 2376              		.file 26 ".//ChibiOS//os/rt/ports/ARMCMx/chcore_v7m.h"
 2377              		.file 27 ".//ChibiOS//os/rt/include/chdebug.h"
 2378              		.file 28 ".//ChibiOS//os/rt/include/chtm.h"
 2379              		.file 29 ".//ChibiOS//os/rt/include/chstats.h"
 2380              		.file 30 ".//ChibiOS//os/rt/include/chsem.h"
 2381              		.file 31 ".//ChibiOS//os/rt/include/chmtx.h"
 2382              		.file 32 ".//ChibiOS//os/rt/include/chcond.h"
 2383              		.file 33 ".//ChibiOS//os/rt/include/chevents.h"
 2384              		.file 34 ".//ChibiOS//os/rt/include/chstreams.h"
 2385              		.file 35 ".//ChibiOS//os/hal/ports/STM32/STM32F4xx/stm32_dma.h"
 2386              		.file 36 ".//ChibiOS//os/hal/include/hal_ioblock.h"
 2387              		.file 37 ".//ChibiOS//os/hal/ports/STM32/LLD/GPIOv2/pal_lld.h"
 2388              		.file 38 ".//ChibiOS//os/hal/include/adc.h"
 2389              		.file 39 ".//ChibiOS//os/hal/ports/STM32/STM32F4xx/adc_lld.h"
 2390              		.file 40 ".//ChibiOS//os/hal/include/can.h"
 2391              		.file 41 ".//ChibiOS//os/hal/ports/STM32/LLD/can_lld.h"
 2392              		.file 42 ".//ChibiOS//os/hal/include/dac.h"
 2393              		.file 43 ".//ChibiOS//os/hal/ports/STM32/LLD/DACv1/dac_lld.h"
 2394              		.file 44 ".//ChibiOS//os/hal/include/ext.h"
 2395              		.file 45 ".//ChibiOS//os/hal/ports/STM32/LLD/ext_lld.h"
 2396              		.file 46 ".//ChibiOS//os/hal/include/gpt.h"
 2397              		.file 47 ".//ChibiOS//os/hal/ports/STM32/LLD/TIMv1/gpt_lld.h"
 2398              		.file 48 ".//ChibiOS//os/hal/ports/STM32/LLD/TIMv1/stm32_tim.h"
 2399              		.file 49 ".//ChibiOS//os/hal/include/i2c.h"
 2400              		.file 50 ".//ChibiOS//os/hal/ports/STM32/LLD/I2Cv1/i2c_lld.h"
 2401              		.file 51 ".//ChibiOS//os/hal/include/i2s.h"
 2402              		.file 52 ".//ChibiOS//os/hal/ports/STM32/LLD/SPIv1/i2s_lld.h"
 2403              		.file 53 ".//ChibiOS//os/hal/include/pwm.h"
 2404              		.file 54 ".//ChibiOS//os/hal/ports/STM32/LLD/TIMv1/pwm_lld.h"
 2405              		.file 55 ".//ChibiOS//os/hal/include/serial.h"
 2406              		.file 56 ".//ChibiOS//os/hal/ports/STM32/LLD/USARTv1/serial_lld.h"
 2407              		.file 57 ".//ChibiOS//os/hal/include/sdc.h"
 2408              		.file 58 ".//ChibiOS//os/hal/ports/STM32/LLD/sdc_lld.h"
 2409              		.file 59 ".//ChibiOS//os/hal/include/spi.h"
 2410              		.file 60 ".//ChibiOS//os/hal/ports/STM32/LLD/SPIv1/spi_lld.h"
 2411              		.file 61 ".//ChibiOS//os/hal/include/usb.h"
 2412              		.file 62 ".//ChibiOS//os/hal/ports/STM32/LLD/OTGv1/usb_lld.h"
 2413              		.file 63 ".//ChibiOS//os/hal/ports/STM32/LLD/OTGv1/stm32_otg.h"
 2414              		.file 64 ".//ChibiOS//os/hal/include/serial_usb.h"
 2415              		.file 65 ".//ChibiOS//os/various/shell.h"
 2416              		.file 66 ".//aseba/common/types.h"
 2417              		.file 67 ".//aseba/vm/vm.h"
 2418              		.file 68 ".//src/parameter/parameter.h"
 2419              		.file 69 ".//src/aseba_vm/aseba_node.h"
ARM GAS  C:\Users\Moi\AppData\Local\Temp\ccP2HW8a.s 			page 45


 2420              		.file 70 ".//aseba/vm/natives.h"
 2421              		.file 71 ".//src/sensors/mpu9250.h"
 2422              		.file 72 ".//src/sensors/imu.h"
 2423              		.file 73 ".//src/leds.h"
 2424              		.file 74 ".//src/aseba_vm/skel_user.h"
 2425              		.file 75 ".//src/audio/play_melody.h"
 2426              		.file 76 ".//src/camera/po8030.h"
 2427              		.file 77 ".//src/sensors/proximity.h"
 2428              		.file 78 ".//src/exti.h"
 2429              		.file 79 ".//ChibiOS_ext/os/hal/include/../ports/STM32/STM32F4xx/dcmi_lld.h"
 2430              		.file 80 ".//src/camera/dcmi_camera.h"
 2431              		.file 81 "c:\\users\\moi\\documents\\_microinfo\\epuck-eclipse\\tools\\gcc-arm-none-eabi-7-2017-q4
 2432              		.file 82 ".//src/msgbus/messagebus.h"
 2433              		.file 83 ".//src/main.h"
 2434              		.file 84 ".//src/usbcfg.h"
 2435              		.file 85 ".//src/config_flash_storage.h"
 2436              		.file 86 ".//ChibiOS//os/hal/include/hal.h"
 2437              		.file 87 ".//src/memory_protection.h"
 2438              		.file 88 ".//src/motors.h"
 2439              		.file 89 ".//src/sensors/battery_level.h"
 2440              		.file 90 ".//src/audio/audio_thread.h"
 2441              		.file 91 ".//src/ir_remote.h"
 2442              		.file 92 ".//src/spi_comm.h"
 2443              		.file 93 ".//src/sensors/VL53L0X/VL53L0X.h"
 2444              		.file 94 ".//src/audio/microphone.h"
 2445              		.file 95 ".//src/sdio.h"
 2446              		.file 96 ".//src/audio/play_sound_file.h"
 2447              		.file 97 ".//src/aseba_vm/aseba_can_interface.h"
 2448              		.file 98 ".//ChibiOS//os/rt/include/chthreads.h"
 2449              		.file 99 ".//src/selector.h"
 2450              		.file 100 ".//src/epuck1x/Asercom2.h"
 2451              		.file 101 ".//src/cmd.h"
 2452              		.file 102 ".//src/epuck1x/a_d/advance_ad_scan/e_acc.h"
 2453              		.file 103 ".//src/uc_usage.h"
 2454              		.file 104 ".//src/i2c_bus.h"
 2455              		.file 105 ".//src/epuck1x/Asercom.h"
 2456              		.file 106 ".//src/communication.h"