ARM GAS  C:\Users\Moi\AppData\Local\Temp\ccTP9Bb7.s 			page 1


   1              		.cpu cortex-m4
   2              		.eabi_attribute 27, 1
   3              		.eabi_attribute 28, 1
   4              		.eabi_attribute 20, 1
   5              		.eabi_attribute 21, 1
   6              		.eabi_attribute 23, 3
   7              		.eabi_attribute 24, 1
   8              		.eabi_attribute 25, 1
   9              		.eabi_attribute 26, 1
  10              		.eabi_attribute 30, 2
  11              		.eabi_attribute 34, 1
  12              		.eabi_attribute 18, 4
  13              		.file	"adc.c"
  14              		.text
  15              	.Ltext0:
  16              		.cfi_sections	.debug_frame
  17              		.section	.text.adcInit,"ax",%progbits
  18              		.align	1
  19              		.p2align 4,,15
  20              		.global	adcInit
  21              		.syntax unified
  22              		.thumb
  23              		.thumb_func
  24              		.fpu fpv4-sp-d16
  25              		.type	adcInit, %function
  26              	adcInit:
  27              	.LFB256:
  28              		.file 1 "..//ChibiOS//os/hal/src/adc.c"
  29              		.loc 1 56 0
  30              		.cfi_startproc
  31              		@ args = 0, pretend = 0, frame = 8
  32              		@ frame_needed = 0, uses_anonymous_args = 0
  33 0000 00B5     		push	{lr}
  34              		.cfi_def_cfa_offset 4
  35              		.cfi_offset 14, -4
  36 0002 074B     		ldr	r3, .L7
  37 0004 83B0     		sub	sp, sp, #12
  38              		.cfi_def_cfa_offset 16
  39              		.loc 1 56 0
  40 0006 1A68     		ldr	r2, [r3]
  41 0008 0192     		str	r2, [sp, #4]
  42              		.loc 1 58 0
  43 000a 019A     		ldr	r2, [sp, #4]
  44 000c 1B68     		ldr	r3, [r3]
  45 000e 9A42     		cmp	r2, r3
  46 0010 04D1     		bne	.L6
  47              		.loc 1 59 0
  48 0012 03B0     		add	sp, sp, #12
  49              		.cfi_remember_state
  50              		.cfi_def_cfa_offset 4
  51              		@ sp needed
  52 0014 5DF804EB 		ldr	lr, [sp], #4
  53              		.cfi_restore 14
  54              		.cfi_def_cfa_offset 0
  55              		.loc 1 58 0
  56 0018 FFF7FEBF 		b	adc_lld_init
  57              	.LVL0:
ARM GAS  C:\Users\Moi\AppData\Local\Temp\ccTP9Bb7.s 			page 2


  58              	.L6:
  59              		.cfi_restore_state
  60 001c FFF7FEFF 		bl	__stack_chk_fail
  61              	.LVL1:
  62              	.L8:
  63              		.align	2
  64              	.L7:
  65 0020 00000000 		.word	__stack_chk_guard
  66              		.cfi_endproc
  67              	.LFE256:
  68              		.size	adcInit, .-adcInit
  69              		.section	.text.adcObjectInit,"ax",%progbits
  70              		.align	1
  71              		.p2align 4,,15
  72              		.global	adcObjectInit
  73              		.syntax unified
  74              		.thumb
  75              		.thumb_func
  76              		.fpu fpv4-sp-d16
  77              		.type	adcObjectInit, %function
  78              	adcObjectInit:
  79              	.LFB257:
  80              		.loc 1 68 0
  81              		.cfi_startproc
  82              		@ args = 0, pretend = 0, frame = 8
  83              		@ frame_needed = 0, uses_anonymous_args = 0
  84              	.LVL2:
  85 0000 10B5     		push	{r4, lr}
  86              		.cfi_def_cfa_offset 8
  87              		.cfi_offset 4, -8
  88              		.cfi_offset 14, -4
  89 0002 0C4B     		ldr	r3, .L14
  90 0004 82B0     		sub	sp, sp, #8
  91              		.cfi_def_cfa_offset 16
  92              		.loc 1 68 0
  93 0006 1A68     		ldr	r2, [r3]
  94 0008 0192     		str	r2, [sp, #4]
  95              	.LBB76:
  96              	.LBB77:
  97              		.file 2 "..//ChibiOS//os/hal/osal/rt/osal.h"
  98              		.loc 2 841 0
  99 000a 0199     		ldr	r1, [sp, #4]
 100 000c 1A68     		ldr	r2, [r3]
 101              	.LBE77:
 102              	.LBE76:
 103              		.loc 1 70 0
 104 000e 0124     		movs	r4, #1
 105              		.loc 1 71 0
 106 0010 0023     		movs	r3, #0
 107              	.LBB81:
 108              	.LBB78:
 109              		.loc 2 841 0
 110 0012 9142     		cmp	r1, r2
 111              	.LBE78:
 112              	.LBE81:
 113              		.loc 1 70 0
 114 0014 0470     		strb	r4, [r0]
ARM GAS  C:\Users\Moi\AppData\Local\Temp\ccTP9Bb7.s 			page 3


 115              		.loc 1 72 0
 116 0016 C0E90133 		strd	r3, r3, [r0, #4]
 117              		.loc 1 74 0
 118 001a C0E90333 		strd	r3, r3, [r0, #12]
 119              		.loc 1 76 0
 120 001e 4361     		str	r3, [r0, #20]
 121              	.LVL3:
 122              	.LBB82:
 123              	.LBB79:
 124              		.loc 2 841 0
 125 0020 05D1     		bne	.L13
 126 0022 1830     		adds	r0, r0, #24
 127              	.LVL4:
 128              	.LBE79:
 129              	.LBE82:
 130              		.loc 1 84 0
 131 0024 02B0     		add	sp, sp, #8
 132              		.cfi_remember_state
 133              		.cfi_def_cfa_offset 8
 134              		@ sp needed
 135 0026 BDE81040 		pop	{r4, lr}
 136              		.cfi_restore 14
 137              		.cfi_restore 4
 138              		.cfi_def_cfa_offset 0
 139              	.LBB83:
 140              	.LBB80:
 141              		.loc 2 841 0
 142 002a FFF7FEBF 		b	chMtxObjectInit
 143              	.LVL5:
 144              	.L13:
 145              		.cfi_restore_state
 146 002e FFF7FEFF 		bl	__stack_chk_fail
 147              	.LVL6:
 148              	.L15:
 149 0032 00BF     		.align	2
 150              	.L14:
 151 0034 00000000 		.word	__stack_chk_guard
 152              	.LBE80:
 153              	.LBE83:
 154              		.cfi_endproc
 155              	.LFE257:
 156              		.size	adcObjectInit, .-adcObjectInit
 157              		.section	.text.adcStart,"ax",%progbits
 158              		.align	1
 159              		.p2align 4,,15
 160              		.global	adcStart
 161              		.syntax unified
 162              		.thumb
 163              		.thumb_func
 164              		.fpu fpv4-sp-d16
 165              		.type	adcStart, %function
 166              	adcStart:
 167              	.LFB258:
 168              		.loc 1 95 0
 169              		.cfi_startproc
 170              		@ args = 0, pretend = 0, frame = 8
 171              		@ frame_needed = 0, uses_anonymous_args = 0
ARM GAS  C:\Users\Moi\AppData\Local\Temp\ccTP9Bb7.s 			page 4


 172              	.LVL7:
 173 0000 70B5     		push	{r4, r5, r6, lr}
 174              		.cfi_def_cfa_offset 16
 175              		.cfi_offset 4, -16
 176              		.cfi_offset 5, -12
 177              		.cfi_offset 6, -8
 178              		.cfi_offset 14, -4
 179 0002 1D4D     		ldr	r5, .L25
 180 0004 82B0     		sub	sp, sp, #8
 181              		.cfi_def_cfa_offset 24
 182              		.loc 1 95 0
 183 0006 2B68     		ldr	r3, [r5]
 184 0008 0193     		str	r3, [sp, #4]
 185 000a 0E46     		mov	r6, r1
 186              		.loc 1 97 0
 187 000c 0446     		mov	r4, r0
 188 000e 68B3     		cbz	r0, .L22
 189              	.LVL8:
 190              	.L17:
 191              	.LBB97:
 192              	.LBB98:
 193              	.LBB99:
 194              	.LBB100:
 195              	.LBB101:
 196              	.LBB102:
 197              		.file 3 "..//ChibiOS//os/ext/CMSIS/include/core_cmFunc.h"
 198              		.loc 3 546 0
 199 0010 2023     		movs	r3, #32
 200              		.syntax unified
 201              	@ 546 "..//ChibiOS//os/ext/CMSIS/include/core_cmFunc.h" 1
 202 0012 83F31188 		MSR basepri, r3
 203              	@ 0 "" 2
 204              	.LVL9:
 205              		.thumb
 206              		.syntax unified
 207              	.LBE102:
 208              	.LBE101:
 209              	.LBE100:
 210              		.file 4 "..//ChibiOS//os/rt/include/chsys.h"
 211              		.loc 4 349 0
 212 0016 FFF7FEFF 		bl	_stats_start_measure_crit_thd
 213              	.LVL10:
 214              		.loc 4 350 0
 215 001a FFF7FEFF 		bl	_dbg_check_lock
 216              	.LVL11:
 217              	.LBE99:
 218              	.LBE98:
 219              	.LBE97:
 220              		.loc 1 100 0
 221 001e 2378     		ldrb	r3, [r4]	@ zero_extendqisi2
 222 0020 013B     		subs	r3, r3, #1
 223 0022 012B     		cmp	r3, #1
 224 0024 02D9     		bls	.L18
 225              		.loc 1 100 0 is_stmt 0 discriminator 2
 226 0026 1548     		ldr	r0, .L25+4
 227 0028 FFF7FEFF 		bl	chSysHalt
 228              	.LVL12:
ARM GAS  C:\Users\Moi\AppData\Local\Temp\ccTP9Bb7.s 			page 5


 229              	.L18:
 230              		.loc 1 103 0 is_stmt 1
 231 002c 2046     		mov	r0, r4
 232              		.loc 1 102 0
 233 002e 6660     		str	r6, [r4, #4]
 234              		.loc 1 103 0
 235 0030 FFF7FEFF 		bl	adc_lld_start
 236              	.LVL13:
 237              		.loc 1 104 0
 238 0034 0223     		movs	r3, #2
 239 0036 2370     		strb	r3, [r4]
 240              	.LBB103:
 241              	.LBB104:
 242              	.LBB105:
 243              		.loc 4 360 0
 244 0038 FFF7FEFF 		bl	_dbg_check_unlock
 245              	.LVL14:
 246              		.loc 4 361 0
 247 003c FFF7FEFF 		bl	_stats_stop_measure_crit_thd
 248              	.LVL15:
 249              		.loc 4 367 0
 250 0040 0F4B     		ldr	r3, .L25+8
 251 0042 1A68     		ldr	r2, [r3]
 252 0044 9A42     		cmp	r2, r3
 253 0046 04D0     		beq	.L19
 254 0048 9969     		ldr	r1, [r3, #24]
 255 004a 9368     		ldr	r3, [r2, #8]
 256 004c 8A68     		ldr	r2, [r1, #8]
 257 004e 9A42     		cmp	r2, r3
 258 0050 08D3     		bcc	.L23
 259              	.L19:
 260              	.LVL16:
 261              	.LBB106:
 262              	.LBB107:
 263              	.LBB108:
 264              		.loc 3 546 0
 265 0052 0023     		movs	r3, #0
 266              		.syntax unified
 267              	@ 546 "..//ChibiOS//os/ext/CMSIS/include/core_cmFunc.h" 1
 268 0054 83F31188 		MSR basepri, r3
 269              	@ 0 "" 2
 270              	.LVL17:
 271              		.thumb
 272              		.syntax unified
 273              	.LBE108:
 274              	.LBE107:
 275              	.LBE106:
 276              	.LBE105:
 277              	.LBE104:
 278              	.LBE103:
 279              		.loc 1 106 0
 280 0058 019A     		ldr	r2, [sp, #4]
 281 005a 2B68     		ldr	r3, [r5]
 282 005c 9A42     		cmp	r2, r3
 283 005e 09D1     		bne	.L24
 284 0060 02B0     		add	sp, sp, #8
 285              		.cfi_remember_state
ARM GAS  C:\Users\Moi\AppData\Local\Temp\ccTP9Bb7.s 			page 6


 286              		.cfi_def_cfa_offset 16
 287              		@ sp needed
 288 0062 70BD     		pop	{r4, r5, r6, pc}
 289              	.LVL18:
 290              	.L23:
 291              		.cfi_restore_state
 292              	.LBB111:
 293              	.LBB110:
 294              	.LBB109:
 295              		.loc 4 367 0
 296 0064 0748     		ldr	r0, .L25+12
 297 0066 FFF7FEFF 		bl	chSysHalt
 298              	.LVL19:
 299 006a F2E7     		b	.L19
 300              	.LVL20:
 301              	.L22:
 302              	.LBE109:
 303              	.LBE110:
 304              	.LBE111:
 305              		.loc 1 97 0 discriminator 2
 306 006c 0348     		ldr	r0, .L25+4
 307              	.LVL21:
 308 006e FFF7FEFF 		bl	chSysHalt
 309              	.LVL22:
 310 0072 CDE7     		b	.L17
 311              	.L24:
 312              		.loc 1 106 0
 313 0074 FFF7FEFF 		bl	__stack_chk_fail
 314              	.LVL23:
 315              	.L26:
 316              		.align	2
 317              	.L25:
 318 0078 00000000 		.word	__stack_chk_guard
 319 007c 00000000 		.word	.LANCHOR0
 320 0080 00000000 		.word	ch
 321 0084 00000000 		.word	.LANCHOR1
 322              		.cfi_endproc
 323              	.LFE258:
 324              		.size	adcStart, .-adcStart
 325              		.section	.text.adcStop,"ax",%progbits
 326              		.align	1
 327              		.p2align 4,,15
 328              		.global	adcStop
 329              		.syntax unified
 330              		.thumb
 331              		.thumb_func
 332              		.fpu fpv4-sp-d16
 333              		.type	adcStop, %function
 334              	adcStop:
 335              	.LFB259:
 336              		.loc 1 115 0
 337              		.cfi_startproc
 338              		@ args = 0, pretend = 0, frame = 8
 339              		@ frame_needed = 0, uses_anonymous_args = 0
 340              	.LVL24:
 341 0000 30B5     		push	{r4, r5, lr}
 342              		.cfi_def_cfa_offset 12
ARM GAS  C:\Users\Moi\AppData\Local\Temp\ccTP9Bb7.s 			page 7


 343              		.cfi_offset 4, -12
 344              		.cfi_offset 5, -8
 345              		.cfi_offset 14, -4
 346 0002 1C4D     		ldr	r5, .L36
 347 0004 83B0     		sub	sp, sp, #12
 348              		.cfi_def_cfa_offset 24
 349              		.loc 1 115 0
 350 0006 2B68     		ldr	r3, [r5]
 351 0008 0193     		str	r3, [sp, #4]
 352              		.loc 1 117 0
 353 000a 0446     		mov	r4, r0
 354 000c 60B3     		cbz	r0, .L33
 355              	.LVL25:
 356              	.L28:
 357              	.LBB125:
 358              	.LBB126:
 359              	.LBB127:
 360              	.LBB128:
 361              	.LBB129:
 362              	.LBB130:
 363              		.loc 3 546 0
 364 000e 2023     		movs	r3, #32
 365              		.syntax unified
 366              	@ 546 "..//ChibiOS//os/ext/CMSIS/include/core_cmFunc.h" 1
 367 0010 83F31188 		MSR basepri, r3
 368              	@ 0 "" 2
 369              	.LVL26:
 370              		.thumb
 371              		.syntax unified
 372              	.LBE130:
 373              	.LBE129:
 374              	.LBE128:
 375              		.loc 4 349 0
 376 0014 FFF7FEFF 		bl	_stats_start_measure_crit_thd
 377              	.LVL27:
 378              		.loc 4 350 0
 379 0018 FFF7FEFF 		bl	_dbg_check_lock
 380              	.LVL28:
 381              	.LBE127:
 382              	.LBE126:
 383              	.LBE125:
 384              		.loc 1 120 0
 385 001c 2378     		ldrb	r3, [r4]	@ zero_extendqisi2
 386 001e 013B     		subs	r3, r3, #1
 387 0020 012B     		cmp	r3, #1
 388 0022 02D9     		bls	.L29
 389              		.loc 1 120 0 is_stmt 0 discriminator 2
 390 0024 1448     		ldr	r0, .L36+4
 391 0026 FFF7FEFF 		bl	chSysHalt
 392              	.LVL29:
 393              	.L29:
 394              		.loc 1 122 0 is_stmt 1
 395 002a 2046     		mov	r0, r4
 396 002c FFF7FEFF 		bl	adc_lld_stop
 397              	.LVL30:
 398              		.loc 1 123 0
 399 0030 0123     		movs	r3, #1
ARM GAS  C:\Users\Moi\AppData\Local\Temp\ccTP9Bb7.s 			page 8


 400 0032 2370     		strb	r3, [r4]
 401              	.LBB131:
 402              	.LBB132:
 403              	.LBB133:
 404              		.loc 4 360 0
 405 0034 FFF7FEFF 		bl	_dbg_check_unlock
 406              	.LVL31:
 407              		.loc 4 361 0
 408 0038 FFF7FEFF 		bl	_stats_stop_measure_crit_thd
 409              	.LVL32:
 410              		.loc 4 367 0
 411 003c 0F4B     		ldr	r3, .L36+8
 412 003e 1A68     		ldr	r2, [r3]
 413 0040 9A42     		cmp	r2, r3
 414 0042 04D0     		beq	.L30
 415 0044 9969     		ldr	r1, [r3, #24]
 416 0046 9368     		ldr	r3, [r2, #8]
 417 0048 8A68     		ldr	r2, [r1, #8]
 418 004a 9A42     		cmp	r2, r3
 419 004c 08D3     		bcc	.L34
 420              	.L30:
 421              	.LVL33:
 422              	.LBB134:
 423              	.LBB135:
 424              	.LBB136:
 425              		.loc 3 546 0
 426 004e 0023     		movs	r3, #0
 427              		.syntax unified
 428              	@ 546 "..//ChibiOS//os/ext/CMSIS/include/core_cmFunc.h" 1
 429 0050 83F31188 		MSR basepri, r3
 430              	@ 0 "" 2
 431              	.LVL34:
 432              		.thumb
 433              		.syntax unified
 434              	.LBE136:
 435              	.LBE135:
 436              	.LBE134:
 437              	.LBE133:
 438              	.LBE132:
 439              	.LBE131:
 440              		.loc 1 125 0
 441 0054 019A     		ldr	r2, [sp, #4]
 442 0056 2B68     		ldr	r3, [r5]
 443 0058 9A42     		cmp	r2, r3
 444 005a 09D1     		bne	.L35
 445 005c 03B0     		add	sp, sp, #12
 446              		.cfi_remember_state
 447              		.cfi_def_cfa_offset 12
 448              		@ sp needed
 449 005e 30BD     		pop	{r4, r5, pc}
 450              	.LVL35:
 451              	.L34:
 452              		.cfi_restore_state
 453              	.LBB139:
 454              	.LBB138:
 455              	.LBB137:
 456              		.loc 4 367 0
ARM GAS  C:\Users\Moi\AppData\Local\Temp\ccTP9Bb7.s 			page 9


 457 0060 0748     		ldr	r0, .L36+12
 458 0062 FFF7FEFF 		bl	chSysHalt
 459              	.LVL36:
 460 0066 F2E7     		b	.L30
 461              	.LVL37:
 462              	.L33:
 463              	.LBE137:
 464              	.LBE138:
 465              	.LBE139:
 466              		.loc 1 117 0 discriminator 2
 467 0068 0348     		ldr	r0, .L36+4
 468              	.LVL38:
 469 006a FFF7FEFF 		bl	chSysHalt
 470              	.LVL39:
 471 006e CEE7     		b	.L28
 472              	.L35:
 473              		.loc 1 125 0
 474 0070 FFF7FEFF 		bl	__stack_chk_fail
 475              	.LVL40:
 476              	.L37:
 477              		.align	2
 478              	.L36:
 479 0074 00000000 		.word	__stack_chk_guard
 480 0078 00000000 		.word	.LANCHOR2
 481 007c 00000000 		.word	ch
 482 0080 00000000 		.word	.LANCHOR1
 483              		.cfi_endproc
 484              	.LFE259:
 485              		.size	adcStop, .-adcStop
 486              		.section	.text.adcStartConversionI,"ax",%progbits
 487              		.align	1
 488              		.p2align 4,,15
 489              		.global	adcStartConversionI
 490              		.syntax unified
 491              		.thumb
 492              		.thumb_func
 493              		.fpu fpv4-sp-d16
 494              		.type	adcStartConversionI, %function
 495              	adcStartConversionI:
 496              	.LFB261:
 497              		.loc 1 174 0
 498              		.cfi_startproc
 499              		@ args = 0, pretend = 0, frame = 8
 500              		@ frame_needed = 0, uses_anonymous_args = 0
 501              	.LVL41:
 502 0000 2DE9F041 		push	{r4, r5, r6, r7, r8, lr}
 503              		.cfi_def_cfa_offset 24
 504              		.cfi_offset 4, -24
 505              		.cfi_offset 5, -20
 506              		.cfi_offset 6, -16
 507              		.cfi_offset 7, -12
 508              		.cfi_offset 8, -8
 509              		.cfi_offset 14, -4
 510 0004 184D     		ldr	r5, .L64
 511 0006 82B0     		sub	sp, sp, #8
 512              		.cfi_def_cfa_offset 32
 513              		.loc 1 174 0
ARM GAS  C:\Users\Moi\AppData\Local\Temp\ccTP9Bb7.s 			page 10


 514 0008 0446     		mov	r4, r0
 515 000a 2868     		ldr	r0, [r5]
 516              	.LVL42:
 517 000c 0190     		str	r0, [sp, #4]
 518 000e 0E46     		mov	r6, r1
 519 0010 9046     		mov	r8, r2
 520 0012 1F46     		mov	r7, r3
 521              		.loc 1 176 0
 522 0014 FFF7FEFF 		bl	chDbgCheckClassI
 523              	.LVL43:
 524              		.loc 1 177 0
 525 0018 3CB1     		cbz	r4, .L39
 526              		.loc 1 177 0 is_stmt 0 discriminator 3
 527 001a 36B1     		cbz	r6, .L39
 528              		.loc 1 177 0 discriminator 5
 529 001c B8F1000F 		cmp	r8, #0
 530 0020 03D0     		beq	.L39
 531              		.loc 1 177 0 discriminator 7
 532 0022 012F     		cmp	r7, #1
 533 0024 04D0     		beq	.L40
 534              		.loc 1 177 0 discriminator 8
 535 0026 FB07     		lsls	r3, r7, #31
 536 0028 02D5     		bpl	.L40
 537              	.L39:
 538              		.loc 1 177 0 discriminator 9
 539 002a 1048     		ldr	r0, .L64+4
 540 002c FFF7FEFF 		bl	chSysHalt
 541              	.LVL44:
 542              	.L40:
 543              		.loc 1 179 0 is_stmt 1 discriminator 1
 544 0030 2378     		ldrb	r3, [r4]	@ zero_extendqisi2
 545 0032 022B     		cmp	r3, #2
 546 0034 05D0     		beq	.L41
 547              		.loc 1 179 0 is_stmt 0 discriminator 2
 548 0036 043B     		subs	r3, r3, #4
 549 0038 012B     		cmp	r3, #1
 550 003a 02D9     		bls	.L41
 551              		.loc 1 179 0 discriminator 4
 552 003c 0B48     		ldr	r0, .L64+4
 553 003e FFF7FEFF 		bl	chSysHalt
 554              	.LVL45:
 555              	.L41:
 556              		.loc 1 188 0 is_stmt 1
 557 0042 019A     		ldr	r2, [sp, #4]
 558 0044 2B68     		ldr	r3, [r5]
 559              		.loc 1 184 0
 560 0046 C4F80880 		str	r8, [r4, #8]
 561              		.loc 1 187 0
 562 004a 0321     		movs	r1, #3
 563              		.loc 1 188 0
 564 004c 9A42     		cmp	r2, r3
 565              		.loc 1 186 0
 566 004e C4E90376 		strd	r7, r6, [r4, #12]
 567              		.loc 1 187 0
 568 0052 2170     		strb	r1, [r4]
 569              		.loc 1 188 0
 570 0054 05D1     		bne	.L63
ARM GAS  C:\Users\Moi\AppData\Local\Temp\ccTP9Bb7.s 			page 11


 571 0056 2046     		mov	r0, r4
 572              		.loc 1 189 0
 573 0058 02B0     		add	sp, sp, #8
 574              		.cfi_remember_state
 575              		.cfi_def_cfa_offset 24
 576              		@ sp needed
 577 005a BDE8F041 		pop	{r4, r5, r6, r7, r8, lr}
 578              		.cfi_restore 14
 579              		.cfi_restore 8
 580              		.cfi_restore 7
 581              		.cfi_restore 6
 582              		.cfi_restore 5
 583              		.cfi_restore 4
 584              		.cfi_def_cfa_offset 0
 585              	.LVL46:
 586              		.loc 1 188 0
 587 005e FFF7FEBF 		b	adc_lld_start_conversion
 588              	.LVL47:
 589              	.L63:
 590              		.cfi_restore_state
 591 0062 FFF7FEFF 		bl	__stack_chk_fail
 592              	.LVL48:
 593              	.L65:
 594 0066 00BF     		.align	2
 595              	.L64:
 596 0068 00000000 		.word	__stack_chk_guard
 597 006c 00000000 		.word	.LANCHOR3
 598              		.cfi_endproc
 599              	.LFE261:
 600              		.size	adcStartConversionI, .-adcStartConversionI
 601              		.section	.text.adcStartConversion,"ax",%progbits
 602              		.align	1
 603              		.p2align 4,,15
 604              		.global	adcStartConversion
 605              		.syntax unified
 606              		.thumb
 607              		.thumb_func
 608              		.fpu fpv4-sp-d16
 609              		.type	adcStartConversion, %function
 610              	adcStartConversion:
 611              	.LFB260:
 612              		.loc 1 146 0
 613              		.cfi_startproc
 614              		@ args = 0, pretend = 0, frame = 8
 615              		@ frame_needed = 0, uses_anonymous_args = 0
 616              	.LVL49:
 617 0000 2DE9F041 		push	{r4, r5, r6, r7, r8, lr}
 618              		.cfi_def_cfa_offset 24
 619              		.cfi_offset 4, -24
 620              		.cfi_offset 5, -20
 621              		.cfi_offset 6, -16
 622              		.cfi_offset 7, -12
 623              		.cfi_offset 8, -8
 624              		.cfi_offset 14, -4
 625 0004 184C     		ldr	r4, .L72
 626 0006 82B0     		sub	sp, sp, #8
 627              		.cfi_def_cfa_offset 32
ARM GAS  C:\Users\Moi\AppData\Local\Temp\ccTP9Bb7.s 			page 12


 628              		.loc 1 146 0
 629 0008 2568     		ldr	r5, [r4]
 630 000a 0195     		str	r5, [sp, #4]
 631              	.LVL50:
 632 000c 9846     		mov	r8, r3
 633 000e 0546     		mov	r5, r0
 634 0010 0E46     		mov	r6, r1
 635 0012 1746     		mov	r7, r2
 636              	.LBB153:
 637              	.LBB154:
 638              	.LBB155:
 639              	.LBB156:
 640              	.LBB157:
 641              	.LBB158:
 642              		.loc 3 546 0
 643 0014 2023     		movs	r3, #32
 644              	.LVL51:
 645              		.syntax unified
 646              	@ 546 "..//ChibiOS//os/ext/CMSIS/include/core_cmFunc.h" 1
 647 0016 83F31188 		MSR basepri, r3
 648              	@ 0 "" 2
 649              	.LVL52:
 650              		.thumb
 651              		.syntax unified
 652              	.LBE158:
 653              	.LBE157:
 654              	.LBE156:
 655              		.loc 4 349 0
 656 001a FFF7FEFF 		bl	_stats_start_measure_crit_thd
 657              	.LVL53:
 658              		.loc 4 350 0
 659 001e FFF7FEFF 		bl	_dbg_check_lock
 660              	.LVL54:
 661              	.LBE155:
 662              	.LBE154:
 663              	.LBE153:
 664              		.loc 1 149 0
 665 0022 4346     		mov	r3, r8
 666 0024 3A46     		mov	r2, r7
 667 0026 3146     		mov	r1, r6
 668 0028 2846     		mov	r0, r5
 669 002a FFF7FEFF 		bl	adcStartConversionI
 670              	.LVL55:
 671              	.LBB159:
 672              	.LBB160:
 673              	.LBB161:
 674              		.loc 4 360 0
 675 002e FFF7FEFF 		bl	_dbg_check_unlock
 676              	.LVL56:
 677              		.loc 4 361 0
 678 0032 FFF7FEFF 		bl	_stats_stop_measure_crit_thd
 679              	.LVL57:
 680              		.loc 4 367 0
 681 0036 0D4B     		ldr	r3, .L72+4
 682 0038 1A68     		ldr	r2, [r3]
 683 003a 9A42     		cmp	r2, r3
 684 003c 04D0     		beq	.L67
ARM GAS  C:\Users\Moi\AppData\Local\Temp\ccTP9Bb7.s 			page 13


 685 003e 9969     		ldr	r1, [r3, #24]
 686 0040 9368     		ldr	r3, [r2, #8]
 687 0042 8A68     		ldr	r2, [r1, #8]
 688 0044 9A42     		cmp	r2, r3
 689 0046 09D3     		bcc	.L70
 690              	.L67:
 691              	.LVL58:
 692              	.LBB162:
 693              	.LBB163:
 694              	.LBB164:
 695              		.loc 3 546 0
 696 0048 0023     		movs	r3, #0
 697              		.syntax unified
 698              	@ 546 "..//ChibiOS//os/ext/CMSIS/include/core_cmFunc.h" 1
 699 004a 83F31188 		MSR basepri, r3
 700              	@ 0 "" 2
 701              	.LVL59:
 702              		.thumb
 703              		.syntax unified
 704              	.LBE164:
 705              	.LBE163:
 706              	.LBE162:
 707              	.LBE161:
 708              	.LBE160:
 709              	.LBE159:
 710              		.loc 1 151 0
 711 004e 019A     		ldr	r2, [sp, #4]
 712 0050 2368     		ldr	r3, [r4]
 713 0052 9A42     		cmp	r2, r3
 714 0054 06D1     		bne	.L71
 715 0056 02B0     		add	sp, sp, #8
 716              		.cfi_remember_state
 717              		.cfi_def_cfa_offset 24
 718              		@ sp needed
 719 0058 BDE8F081 		pop	{r4, r5, r6, r7, r8, pc}
 720              	.LVL60:
 721              	.L70:
 722              		.cfi_restore_state
 723              	.LBB167:
 724              	.LBB166:
 725              	.LBB165:
 726              		.loc 4 367 0
 727 005c 0448     		ldr	r0, .L72+8
 728 005e FFF7FEFF 		bl	chSysHalt
 729              	.LVL61:
 730 0062 F1E7     		b	.L67
 731              	.L71:
 732              	.LBE165:
 733              	.LBE166:
 734              	.LBE167:
 735              		.loc 1 151 0
 736 0064 FFF7FEFF 		bl	__stack_chk_fail
 737              	.LVL62:
 738              	.L73:
 739              		.align	2
 740              	.L72:
 741 0068 00000000 		.word	__stack_chk_guard
ARM GAS  C:\Users\Moi\AppData\Local\Temp\ccTP9Bb7.s 			page 14


 742 006c 00000000 		.word	ch
 743 0070 00000000 		.word	.LANCHOR1
 744              		.cfi_endproc
 745              	.LFE260:
 746              		.size	adcStartConversion, .-adcStartConversion
 747              		.section	.text.adcStopConversion,"ax",%progbits
 748              		.align	1
 749              		.p2align 4,,15
 750              		.global	adcStopConversion
 751              		.syntax unified
 752              		.thumb
 753              		.thumb_func
 754              		.fpu fpv4-sp-d16
 755              		.type	adcStopConversion, %function
 756              	adcStopConversion:
 757              	.LFB262:
 758              		.loc 1 201 0
 759              		.cfi_startproc
 760              		@ args = 0, pretend = 0, frame = 8
 761              		@ frame_needed = 0, uses_anonymous_args = 0
 762              	.LVL63:
 763 0000 30B5     		push	{r4, r5, lr}
 764              		.cfi_def_cfa_offset 12
 765              		.cfi_offset 4, -12
 766              		.cfi_offset 5, -8
 767              		.cfi_offset 14, -4
 768 0002 224D     		ldr	r5, .L87
 769 0004 83B0     		sub	sp, sp, #12
 770              		.cfi_def_cfa_offset 24
 771              		.loc 1 201 0
 772 0006 2B68     		ldr	r3, [r5]
 773 0008 0193     		str	r3, [sp, #4]
 774              		.loc 1 203 0
 775 000a 0446     		mov	r4, r0
 776 000c 0028     		cmp	r0, #0
 777 000e 37D0     		beq	.L84
 778              	.LVL64:
 779              	.L75:
 780              	.LBB183:
 781              	.LBB184:
 782              	.LBB185:
 783              	.LBB186:
 784              	.LBB187:
 785              	.LBB188:
 786              		.loc 3 546 0
 787 0010 2023     		movs	r3, #32
 788              		.syntax unified
 789              	@ 546 "..//ChibiOS//os/ext/CMSIS/include/core_cmFunc.h" 1
 790 0012 83F31188 		MSR basepri, r3
 791              	@ 0 "" 2
 792              	.LVL65:
 793              		.thumb
 794              		.syntax unified
 795              	.LBE188:
 796              	.LBE187:
 797              	.LBE186:
 798              		.loc 4 349 0
ARM GAS  C:\Users\Moi\AppData\Local\Temp\ccTP9Bb7.s 			page 15


 799 0016 FFF7FEFF 		bl	_stats_start_measure_crit_thd
 800              	.LVL66:
 801              		.loc 4 350 0
 802 001a FFF7FEFF 		bl	_dbg_check_lock
 803              	.LVL67:
 804              	.LBE185:
 805              	.LBE184:
 806              	.LBE183:
 807              		.loc 1 206 0
 808 001e 2378     		ldrb	r3, [r4]	@ zero_extendqisi2
 809 0020 9A1E     		subs	r2, r3, #2
 810 0022 012A     		cmp	r2, #1
 811 0024 03D9     		bls	.L76
 812              		.loc 1 206 0 is_stmt 0 discriminator 2
 813 0026 1A48     		ldr	r0, .L87+4
 814 0028 FFF7FEFF 		bl	chSysHalt
 815              	.LVL68:
 816 002c 2378     		ldrb	r3, [r4]	@ zero_extendqisi2
 817              	.L76:
 818              		.loc 1 208 0 is_stmt 1
 819 002e 022B     		cmp	r3, #2
 820 0030 0CD0     		beq	.L77
 821              		.loc 1 209 0
 822 0032 2046     		mov	r0, r4
 823 0034 FFF7FEFF 		bl	adc_lld_stop_conversion
 824              	.LVL69:
 825              		.loc 1 211 0
 826 0038 2046     		mov	r0, r4
 827              		.loc 1 210 0
 828 003a 0022     		movs	r2, #0
 829              		.loc 1 211 0
 830 003c 0223     		movs	r3, #2
 831              		.loc 1 210 0
 832 003e 2261     		str	r2, [r4, #16]
 833              	.LBB189:
 834              	.LBB190:
 835              		.loc 2 697 0
 836 0040 6FF00101 		mvn	r1, #1
 837              	.LBE190:
 838              	.LBE189:
 839              		.loc 1 211 0
 840 0044 00F8143B 		strb	r3, [r0], #20
 841              	.LVL70:
 842              	.LBB192:
 843              	.LBB191:
 844              		.loc 2 697 0
 845 0048 FFF7FEFF 		bl	chThdResumeS
 846              	.LVL71:
 847              	.L77:
 848              	.LBE191:
 849              	.LBE192:
 850              	.LBB193:
 851              	.LBB194:
 852              	.LBB195:
 853              		.loc 4 360 0
 854 004c FFF7FEFF 		bl	_dbg_check_unlock
 855              	.LVL72:
ARM GAS  C:\Users\Moi\AppData\Local\Temp\ccTP9Bb7.s 			page 16


 856              		.loc 4 361 0
 857 0050 FFF7FEFF 		bl	_stats_stop_measure_crit_thd
 858              	.LVL73:
 859              		.loc 4 367 0
 860 0054 0F4B     		ldr	r3, .L87+8
 861 0056 1A68     		ldr	r2, [r3]
 862 0058 9A42     		cmp	r2, r3
 863 005a 04D0     		beq	.L78
 864 005c 9969     		ldr	r1, [r3, #24]
 865 005e 9368     		ldr	r3, [r2, #8]
 866 0060 8A68     		ldr	r2, [r1, #8]
 867 0062 9A42     		cmp	r2, r3
 868 0064 08D3     		bcc	.L85
 869              	.L78:
 870              	.LVL74:
 871              	.LBB196:
 872              	.LBB197:
 873              	.LBB198:
 874              		.loc 3 546 0
 875 0066 0023     		movs	r3, #0
 876              		.syntax unified
 877              	@ 546 "..//ChibiOS//os/ext/CMSIS/include/core_cmFunc.h" 1
 878 0068 83F31188 		MSR basepri, r3
 879              	@ 0 "" 2
 880              	.LVL75:
 881              		.thumb
 882              		.syntax unified
 883              	.LBE198:
 884              	.LBE197:
 885              	.LBE196:
 886              	.LBE195:
 887              	.LBE194:
 888              	.LBE193:
 889              		.loc 1 215 0
 890 006c 019A     		ldr	r2, [sp, #4]
 891 006e 2B68     		ldr	r3, [r5]
 892 0070 9A42     		cmp	r2, r3
 893 0072 09D1     		bne	.L86
 894 0074 03B0     		add	sp, sp, #12
 895              		.cfi_remember_state
 896              		.cfi_def_cfa_offset 12
 897              		@ sp needed
 898 0076 30BD     		pop	{r4, r5, pc}
 899              	.LVL76:
 900              	.L85:
 901              		.cfi_restore_state
 902              	.LBB201:
 903              	.LBB200:
 904              	.LBB199:
 905              		.loc 4 367 0
 906 0078 0748     		ldr	r0, .L87+12
 907 007a FFF7FEFF 		bl	chSysHalt
 908              	.LVL77:
 909 007e F2E7     		b	.L78
 910              	.LVL78:
 911              	.L84:
 912              	.LBE199:
ARM GAS  C:\Users\Moi\AppData\Local\Temp\ccTP9Bb7.s 			page 17


 913              	.LBE200:
 914              	.LBE201:
 915              		.loc 1 203 0 discriminator 2
 916 0080 0348     		ldr	r0, .L87+4
 917              	.LVL79:
 918 0082 FFF7FEFF 		bl	chSysHalt
 919              	.LVL80:
 920 0086 C3E7     		b	.L75
 921              	.L86:
 922              		.loc 1 215 0
 923 0088 FFF7FEFF 		bl	__stack_chk_fail
 924              	.LVL81:
 925              	.L88:
 926              		.align	2
 927              	.L87:
 928 008c 00000000 		.word	__stack_chk_guard
 929 0090 00000000 		.word	.LANCHOR4
 930 0094 00000000 		.word	ch
 931 0098 00000000 		.word	.LANCHOR1
 932              		.cfi_endproc
 933              	.LFE262:
 934              		.size	adcStopConversion, .-adcStopConversion
 935              		.section	.text.adcStopConversionI,"ax",%progbits
 936              		.align	1
 937              		.p2align 4,,15
 938              		.global	adcStopConversionI
 939              		.syntax unified
 940              		.thumb
 941              		.thumb_func
 942              		.fpu fpv4-sp-d16
 943              		.type	adcStopConversionI, %function
 944              	adcStopConversionI:
 945              	.LFB263:
 946              		.loc 1 227 0
 947              		.cfi_startproc
 948              		@ args = 0, pretend = 0, frame = 8
 949              		@ frame_needed = 0, uses_anonymous_args = 0
 950              	.LVL82:
 951 0000 30B5     		push	{r4, r5, lr}
 952              		.cfi_def_cfa_offset 12
 953              		.cfi_offset 4, -12
 954              		.cfi_offset 5, -8
 955              		.cfi_offset 14, -4
 956 0002 194D     		ldr	r5, .L99
 957 0004 83B0     		sub	sp, sp, #12
 958              		.cfi_def_cfa_offset 24
 959              		.loc 1 227 0
 960 0006 0446     		mov	r4, r0
 961 0008 2B68     		ldr	r3, [r5]
 962 000a 0193     		str	r3, [sp, #4]
 963              		.loc 1 229 0
 964 000c FFF7FEFF 		bl	chDbgCheckClassI
 965              	.LVL83:
 966              		.loc 1 230 0
 967 0010 24B3     		cbz	r4, .L97
 968              	.L90:
 969              		.loc 1 231 0 discriminator 1
ARM GAS  C:\Users\Moi\AppData\Local\Temp\ccTP9Bb7.s 			page 18


 970 0012 2378     		ldrb	r3, [r4]	@ zero_extendqisi2
 971 0014 9A1E     		subs	r2, r3, #2
 972 0016 022A     		cmp	r2, #2
 973 0018 1BD8     		bhi	.L98
 974              	.L91:
 975              		.loc 1 236 0
 976 001a 022B     		cmp	r3, #2
 977 001c 13D0     		beq	.L89
 978              		.loc 1 237 0
 979 001e 2046     		mov	r0, r4
 980 0020 FFF7FEFF 		bl	adc_lld_stop_conversion
 981              	.LVL84:
 982              	.LBB202:
 983              	.LBB203:
 984              		.loc 2 682 0
 985 0024 019A     		ldr	r2, [sp, #4]
 986 0026 2B68     		ldr	r3, [r5]
 987              	.LBE203:
 988              	.LBE202:
 989              		.loc 1 238 0
 990 0028 0020     		movs	r0, #0
 991              		.loc 1 239 0
 992 002a 0221     		movs	r1, #2
 993              	.LBB207:
 994              	.LBB204:
 995              		.loc 2 682 0
 996 002c 9A42     		cmp	r2, r3
 997              	.LBE204:
 998              	.LBE207:
 999              		.loc 1 238 0
 1000 002e 2061     		str	r0, [r4, #16]
 1001              		.loc 1 239 0
 1002 0030 2170     		strb	r1, [r4]
 1003              	.LVL85:
 1004              	.LBB208:
 1005              	.LBB205:
 1006              		.loc 2 682 0
 1007 0032 17D1     		bne	.L96
 1008 0034 04F11400 		add	r0, r4, #20
 1009              	.LVL86:
 1010 0038 6FF00101 		mvn	r1, #1
 1011              	.LBE205:
 1012              	.LBE208:
 1013              		.loc 1 242 0
 1014 003c 03B0     		add	sp, sp, #12
 1015              		.cfi_remember_state
 1016              		.cfi_def_cfa_offset 12
 1017              		@ sp needed
 1018 003e BDE83040 		pop	{r4, r5, lr}
 1019              		.cfi_restore 14
 1020              		.cfi_restore 5
 1021              		.cfi_restore 4
 1022              		.cfi_def_cfa_offset 0
 1023              	.LVL87:
 1024              	.LBB209:
 1025              	.LBB206:
 1026              		.loc 2 682 0
ARM GAS  C:\Users\Moi\AppData\Local\Temp\ccTP9Bb7.s 			page 19


 1027 0042 FFF7FEBF 		b	chThdResumeI
 1028              	.LVL88:
 1029              	.L89:
 1030              		.cfi_restore_state
 1031              	.LBE206:
 1032              	.LBE209:
 1033              		.loc 1 242 0
 1034 0046 019A     		ldr	r2, [sp, #4]
 1035 0048 2B68     		ldr	r3, [r5]
 1036 004a 9A42     		cmp	r2, r3
 1037 004c 0AD1     		bne	.L96
 1038 004e 03B0     		add	sp, sp, #12
 1039              		.cfi_remember_state
 1040              		.cfi_def_cfa_offset 12
 1041              		@ sp needed
 1042 0050 30BD     		pop	{r4, r5, pc}
 1043              	.LVL89:
 1044              	.L98:
 1045              		.cfi_restore_state
 1046              		.loc 1 231 0 discriminator 2
 1047 0052 0648     		ldr	r0, .L99+4
 1048 0054 FFF7FEFF 		bl	chSysHalt
 1049              	.LVL90:
 1050 0058 2378     		ldrb	r3, [r4]	@ zero_extendqisi2
 1051 005a DEE7     		b	.L91
 1052              	.L97:
 1053              		.loc 1 230 0 discriminator 2
 1054 005c 0348     		ldr	r0, .L99+4
 1055 005e FFF7FEFF 		bl	chSysHalt
 1056              	.LVL91:
 1057 0062 D6E7     		b	.L90
 1058              	.L96:
 1059              		.loc 1 242 0
 1060 0064 FFF7FEFF 		bl	__stack_chk_fail
 1061              	.LVL92:
 1062              	.L100:
 1063              		.align	2
 1064              	.L99:
 1065 0068 00000000 		.word	__stack_chk_guard
 1066 006c 00000000 		.word	.LANCHOR5
 1067              		.cfi_endproc
 1068              	.LFE263:
 1069              		.size	adcStopConversionI, .-adcStopConversionI
 1070              		.section	.text.adcConvert,"ax",%progbits
 1071              		.align	1
 1072              		.p2align 4,,15
 1073              		.global	adcConvert
 1074              		.syntax unified
 1075              		.thumb
 1076              		.thumb_func
 1077              		.fpu fpv4-sp-d16
 1078              		.type	adcConvert, %function
 1079              	adcConvert:
 1080              	.LFB264:
 1081              		.loc 1 271 0
 1082              		.cfi_startproc
 1083              		@ args = 0, pretend = 0, frame = 8
ARM GAS  C:\Users\Moi\AppData\Local\Temp\ccTP9Bb7.s 			page 20


 1084              		@ frame_needed = 0, uses_anonymous_args = 0
 1085              	.LVL93:
 1086 0000 2DE9F041 		push	{r4, r5, r6, r7, r8, lr}
 1087              		.cfi_def_cfa_offset 24
 1088              		.cfi_offset 4, -24
 1089              		.cfi_offset 5, -20
 1090              		.cfi_offset 6, -16
 1091              		.cfi_offset 7, -12
 1092              		.cfi_offset 8, -8
 1093              		.cfi_offset 14, -4
 1094 0004 1E4D     		ldr	r5, .L111
 1095 0006 82B0     		sub	sp, sp, #8
 1096              		.cfi_def_cfa_offset 32
 1097              		.loc 1 271 0
 1098 0008 2C68     		ldr	r4, [r5]
 1099 000a 0194     		str	r4, [sp, #4]
 1100              	.LVL94:
 1101 000c 9846     		mov	r8, r3
 1102 000e 0446     		mov	r4, r0
 1103 0010 0E46     		mov	r6, r1
 1104 0012 1746     		mov	r7, r2
 1105              	.LBB225:
 1106              	.LBB226:
 1107              	.LBB227:
 1108              	.LBB228:
 1109              	.LBB229:
 1110              	.LBB230:
 1111              		.loc 3 546 0
 1112 0014 2023     		movs	r3, #32
 1113              	.LVL95:
 1114              		.syntax unified
 1115              	@ 546 "..//ChibiOS//os/ext/CMSIS/include/core_cmFunc.h" 1
 1116 0016 83F31188 		MSR basepri, r3
 1117              	@ 0 "" 2
 1118              	.LVL96:
 1119              		.thumb
 1120              		.syntax unified
 1121              	.LBE230:
 1122              	.LBE229:
 1123              	.LBE228:
 1124              		.loc 4 349 0
 1125 001a FFF7FEFF 		bl	_stats_start_measure_crit_thd
 1126              	.LVL97:
 1127              		.loc 4 350 0
 1128 001e FFF7FEFF 		bl	_dbg_check_lock
 1129              	.LVL98:
 1130              	.LBE227:
 1131              	.LBE226:
 1132              	.LBE225:
 1133              		.loc 1 275 0
 1134 0022 6369     		ldr	r3, [r4, #20]
 1135 0024 13B1     		cbz	r3, .L102
 1136              		.loc 1 275 0 is_stmt 0 discriminator 2
 1137 0026 1748     		ldr	r0, .L111+4
 1138 0028 FFF7FEFF 		bl	chSysHalt
 1139              	.LVL99:
 1140              	.L102:
ARM GAS  C:\Users\Moi\AppData\Local\Temp\ccTP9Bb7.s 			page 21


 1141              		.loc 1 276 0 is_stmt 1
 1142 002c 4346     		mov	r3, r8
 1143 002e 3A46     		mov	r2, r7
 1144 0030 3146     		mov	r1, r6
 1145 0032 2046     		mov	r0, r4
 1146 0034 FFF7FEFF 		bl	adcStartConversionI
 1147              	.LVL100:
 1148              	.LBB231:
 1149              	.LBB232:
 1150              		.loc 2 642 0
 1151 0038 04F11400 		add	r0, r4, #20
 1152              	.LVL101:
 1153 003c FFF7FEFF 		bl	chThdSuspendS
 1154              	.LVL102:
 1155 0040 0446     		mov	r4, r0
 1156              	.LVL103:
 1157              	.LBE232:
 1158              	.LBE231:
 1159              	.LBB233:
 1160              	.LBB234:
 1161              	.LBB235:
 1162              		.loc 4 360 0
 1163 0042 FFF7FEFF 		bl	_dbg_check_unlock
 1164              	.LVL104:
 1165              		.loc 4 361 0
 1166 0046 FFF7FEFF 		bl	_stats_stop_measure_crit_thd
 1167              	.LVL105:
 1168              		.loc 4 367 0
 1169 004a 0F4B     		ldr	r3, .L111+8
 1170 004c 1A68     		ldr	r2, [r3]
 1171 004e 9A42     		cmp	r2, r3
 1172 0050 04D0     		beq	.L103
 1173 0052 9969     		ldr	r1, [r3, #24]
 1174 0054 9368     		ldr	r3, [r2, #8]
 1175 0056 8A68     		ldr	r2, [r1, #8]
 1176 0058 9A42     		cmp	r2, r3
 1177 005a 0AD3     		bcc	.L109
 1178              	.L103:
 1179              	.LVL106:
 1180              	.LBB236:
 1181              	.LBB237:
 1182              	.LBB238:
 1183              		.loc 3 546 0
 1184 005c 0023     		movs	r3, #0
 1185              		.syntax unified
 1186              	@ 546 "..//ChibiOS//os/ext/CMSIS/include/core_cmFunc.h" 1
 1187 005e 83F31188 		MSR basepri, r3
 1188              	@ 0 "" 2
 1189              	.LVL107:
 1190              		.thumb
 1191              		.syntax unified
 1192              	.LBE238:
 1193              	.LBE237:
 1194              	.LBE236:
 1195              	.LBE235:
 1196              	.LBE234:
 1197              	.LBE233:
ARM GAS  C:\Users\Moi\AppData\Local\Temp\ccTP9Bb7.s 			page 22


 1198              		.loc 1 280 0
 1199 0062 019A     		ldr	r2, [sp, #4]
 1200 0064 2B68     		ldr	r3, [r5]
 1201 0066 9A42     		cmp	r2, r3
 1202 0068 2046     		mov	r0, r4
 1203 006a 06D1     		bne	.L110
 1204 006c 02B0     		add	sp, sp, #8
 1205              		.cfi_remember_state
 1206              		.cfi_def_cfa_offset 24
 1207              		@ sp needed
 1208 006e BDE8F081 		pop	{r4, r5, r6, r7, r8, pc}
 1209              	.LVL108:
 1210              	.L109:
 1211              		.cfi_restore_state
 1212              	.LBB241:
 1213              	.LBB240:
 1214              	.LBB239:
 1215              		.loc 4 367 0
 1216 0072 0648     		ldr	r0, .L111+12
 1217 0074 FFF7FEFF 		bl	chSysHalt
 1218              	.LVL109:
 1219 0078 F0E7     		b	.L103
 1220              	.L110:
 1221              	.LBE239:
 1222              	.LBE240:
 1223              	.LBE241:
 1224              		.loc 1 280 0
 1225 007a FFF7FEFF 		bl	__stack_chk_fail
 1226              	.LVL110:
 1227              	.L112:
 1228 007e 00BF     		.align	2
 1229              	.L111:
 1230 0080 00000000 		.word	__stack_chk_guard
 1231 0084 00000000 		.word	.LANCHOR6
 1232 0088 00000000 		.word	ch
 1233 008c 00000000 		.word	.LANCHOR1
 1234              		.cfi_endproc
 1235              	.LFE264:
 1236              		.size	adcConvert, .-adcConvert
 1237              		.section	.text.adcAcquireBus,"ax",%progbits
 1238              		.align	1
 1239              		.p2align 4,,15
 1240              		.global	adcAcquireBus
 1241              		.syntax unified
 1242              		.thumb
 1243              		.thumb_func
 1244              		.fpu fpv4-sp-d16
 1245              		.type	adcAcquireBus, %function
 1246              	adcAcquireBus:
 1247              	.LFB265:
 1248              		.loc 1 295 0
 1249              		.cfi_startproc
 1250              		@ args = 0, pretend = 0, frame = 8
 1251              		@ frame_needed = 0, uses_anonymous_args = 0
 1252              	.LVL111:
 1253 0000 30B5     		push	{r4, r5, lr}
 1254              		.cfi_def_cfa_offset 12
ARM GAS  C:\Users\Moi\AppData\Local\Temp\ccTP9Bb7.s 			page 23


 1255              		.cfi_offset 4, -12
 1256              		.cfi_offset 5, -8
 1257              		.cfi_offset 14, -4
 1258 0002 0B4C     		ldr	r4, .L120
 1259 0004 83B0     		sub	sp, sp, #12
 1260              		.cfi_def_cfa_offset 24
 1261              		.loc 1 295 0
 1262 0006 2368     		ldr	r3, [r4]
 1263 0008 0193     		str	r3, [sp, #4]
 1264              		.loc 1 297 0
 1265 000a 0546     		mov	r5, r0
 1266 000c 50B1     		cbz	r0, .L118
 1267              	.LVL112:
 1268              	.L114:
 1269              	.LBB242:
 1270              	.LBB243:
 1271              		.loc 2 861 0
 1272 000e 019A     		ldr	r2, [sp, #4]
 1273 0010 2368     		ldr	r3, [r4]
 1274 0012 9A42     		cmp	r2, r3
 1275 0014 0AD1     		bne	.L119
 1276 0016 05F11800 		add	r0, r5, #24
 1277              	.LVL113:
 1278              	.LBE243:
 1279              	.LBE242:
 1280              		.loc 1 300 0
 1281 001a 03B0     		add	sp, sp, #12
 1282              		.cfi_remember_state
 1283              		.cfi_def_cfa_offset 12
 1284              		@ sp needed
 1285 001c BDE83040 		pop	{r4, r5, lr}
 1286              		.cfi_restore 14
 1287              		.cfi_restore 5
 1288              		.cfi_restore 4
 1289              		.cfi_def_cfa_offset 0
 1290              	.LVL114:
 1291              	.LBB246:
 1292              	.LBB244:
 1293              		.loc 2 861 0
 1294 0020 FFF7FEBF 		b	chMtxLock
 1295              	.LVL115:
 1296              	.L118:
 1297              		.cfi_restore_state
 1298              	.LBE244:
 1299              	.LBE246:
 1300              		.loc 1 297 0 discriminator 2
 1301 0024 0348     		ldr	r0, .L120+4
 1302              	.LVL116:
 1303 0026 FFF7FEFF 		bl	chSysHalt
 1304              	.LVL117:
 1305 002a F0E7     		b	.L114
 1306              	.LVL118:
 1307              	.L119:
 1308              	.LBB247:
 1309              	.LBB245:
 1310              		.loc 2 861 0
 1311 002c FFF7FEFF 		bl	__stack_chk_fail
ARM GAS  C:\Users\Moi\AppData\Local\Temp\ccTP9Bb7.s 			page 24


 1312              	.LVL119:
 1313              	.L121:
 1314              		.align	2
 1315              	.L120:
 1316 0030 00000000 		.word	__stack_chk_guard
 1317 0034 00000000 		.word	.LANCHOR7
 1318              	.LBE245:
 1319              	.LBE247:
 1320              		.cfi_endproc
 1321              	.LFE265:
 1322              		.size	adcAcquireBus, .-adcAcquireBus
 1323              		.section	.text.adcReleaseBus,"ax",%progbits
 1324              		.align	1
 1325              		.p2align 4,,15
 1326              		.global	adcReleaseBus
 1327              		.syntax unified
 1328              		.thumb
 1329              		.thumb_func
 1330              		.fpu fpv4-sp-d16
 1331              		.type	adcReleaseBus, %function
 1332              	adcReleaseBus:
 1333              	.LFB266:
 1334              		.loc 1 311 0
 1335              		.cfi_startproc
 1336              		@ args = 0, pretend = 0, frame = 8
 1337              		@ frame_needed = 0, uses_anonymous_args = 0
 1338              	.LVL120:
 1339 0000 30B5     		push	{r4, r5, lr}
 1340              		.cfi_def_cfa_offset 12
 1341              		.cfi_offset 4, -12
 1342              		.cfi_offset 5, -8
 1343              		.cfi_offset 14, -4
 1344 0002 0B4C     		ldr	r4, .L129
 1345 0004 83B0     		sub	sp, sp, #12
 1346              		.cfi_def_cfa_offset 24
 1347              		.loc 1 311 0
 1348 0006 2368     		ldr	r3, [r4]
 1349 0008 0193     		str	r3, [sp, #4]
 1350              		.loc 1 313 0
 1351 000a 0546     		mov	r5, r0
 1352 000c 50B1     		cbz	r0, .L127
 1353              	.LVL121:
 1354              	.L123:
 1355              	.LBB248:
 1356              	.LBB249:
 1357              		.loc 2 885 0
 1358 000e 019A     		ldr	r2, [sp, #4]
 1359 0010 2368     		ldr	r3, [r4]
 1360 0012 9A42     		cmp	r2, r3
 1361 0014 0AD1     		bne	.L128
 1362 0016 05F11800 		add	r0, r5, #24
 1363              	.LVL122:
 1364              	.LBE249:
 1365              	.LBE248:
 1366              		.loc 1 316 0
 1367 001a 03B0     		add	sp, sp, #12
 1368              		.cfi_remember_state
ARM GAS  C:\Users\Moi\AppData\Local\Temp\ccTP9Bb7.s 			page 25


 1369              		.cfi_def_cfa_offset 12
 1370              		@ sp needed
 1371 001c BDE83040 		pop	{r4, r5, lr}
 1372              		.cfi_restore 14
 1373              		.cfi_restore 5
 1374              		.cfi_restore 4
 1375              		.cfi_def_cfa_offset 0
 1376              	.LVL123:
 1377              	.LBB252:
 1378              	.LBB250:
 1379              		.loc 2 885 0
 1380 0020 FFF7FEBF 		b	chMtxUnlock
 1381              	.LVL124:
 1382              	.L127:
 1383              		.cfi_restore_state
 1384              	.LBE250:
 1385              	.LBE252:
 1386              		.loc 1 313 0 discriminator 2
 1387 0024 0348     		ldr	r0, .L129+4
 1388              	.LVL125:
 1389 0026 FFF7FEFF 		bl	chSysHalt
 1390              	.LVL126:
 1391 002a F0E7     		b	.L123
 1392              	.LVL127:
 1393              	.L128:
 1394              	.LBB253:
 1395              	.LBB251:
 1396              		.loc 2 885 0
 1397 002c FFF7FEFF 		bl	__stack_chk_fail
 1398              	.LVL128:
 1399              	.L130:
 1400              		.align	2
 1401              	.L129:
 1402 0030 00000000 		.word	__stack_chk_guard
 1403 0034 00000000 		.word	.LANCHOR8
 1404              	.LBE251:
 1405              	.LBE253:
 1406              		.cfi_endproc
 1407              	.LFE266:
 1408              		.size	adcReleaseBus, .-adcReleaseBus
 1409              		.section	.rodata.__func__.7153,"a",%progbits
 1410              		.align	2
 1411              		.set	.LANCHOR1,. + 0
 1412              		.type	__func__.7153, %object
 1413              		.size	__func__.7153, 12
 1414              	__func__.7153:
 1415 0000 63685379 		.ascii	"chSysUnlock\000"
 1415      73556E6C 
 1415      6F636B00 
 1416              		.section	.rodata.__func__.9848,"a",%progbits
 1417              		.align	2
 1418              		.set	.LANCHOR0,. + 0
 1419              		.type	__func__.9848, %object
 1420              		.size	__func__.9848, 9
 1421              	__func__.9848:
 1422 0000 61646353 		.ascii	"adcStart\000"
 1422      74617274 
ARM GAS  C:\Users\Moi\AppData\Local\Temp\ccTP9Bb7.s 			page 26


 1422      00
 1423              		.section	.rodata.__func__.9852,"a",%progbits
 1424              		.align	2
 1425              		.set	.LANCHOR2,. + 0
 1426              		.type	__func__.9852, %object
 1427              		.size	__func__.9852, 8
 1428              	__func__.9852:
 1429 0000 61646353 		.ascii	"adcStop\000"
 1429      746F7000 
 1430              		.section	.rodata.__func__.9865,"a",%progbits
 1431              		.align	2
 1432              		.set	.LANCHOR3,. + 0
 1433              		.type	__func__.9865, %object
 1434              		.size	__func__.9865, 20
 1435              	__func__.9865:
 1436 0000 61646353 		.ascii	"adcStartConversionI\000"
 1436      74617274 
 1436      436F6E76 
 1436      65727369 
 1436      6F6E4900 
 1437              		.section	.rodata.__func__.9869,"a",%progbits
 1438              		.align	2
 1439              		.set	.LANCHOR4,. + 0
 1440              		.type	__func__.9869, %object
 1441              		.size	__func__.9869, 18
 1442              	__func__.9869:
 1443 0000 61646353 		.ascii	"adcStopConversion\000"
 1443      746F7043 
 1443      6F6E7665 
 1443      7273696F 
 1443      6E00
 1444              		.section	.rodata.__func__.9873,"a",%progbits
 1445              		.align	2
 1446              		.set	.LANCHOR5,. + 0
 1447              		.type	__func__.9873, %object
 1448              		.size	__func__.9873, 19
 1449              	__func__.9873:
 1450 0000 61646353 		.ascii	"adcStopConversionI\000"
 1450      746F7043 
 1450      6F6E7665 
 1450      7273696F 
 1450      6E4900
 1451              		.section	.rodata.__func__.9881,"a",%progbits
 1452              		.align	2
 1453              		.set	.LANCHOR6,. + 0
 1454              		.type	__func__.9881, %object
 1455              		.size	__func__.9881, 11
 1456              	__func__.9881:
 1457 0000 61646343 		.ascii	"adcConvert\000"
 1457      6F6E7665 
 1457      727400
 1458              		.section	.rodata.__func__.9885,"a",%progbits
 1459              		.align	2
 1460              		.set	.LANCHOR7,. + 0
 1461              		.type	__func__.9885, %object
 1462              		.size	__func__.9885, 14
 1463              	__func__.9885:
ARM GAS  C:\Users\Moi\AppData\Local\Temp\ccTP9Bb7.s 			page 27


 1464 0000 61646341 		.ascii	"adcAcquireBus\000"
 1464      63717569 
 1464      72654275 
 1464      7300
 1465              		.section	.rodata.__func__.9889,"a",%progbits
 1466              		.align	2
 1467              		.set	.LANCHOR8,. + 0
 1468              		.type	__func__.9889, %object
 1469              		.size	__func__.9889, 14
 1470              	__func__.9889:
 1471 0000 61646352 		.ascii	"adcReleaseBus\000"
 1471      656C6561 
 1471      73654275 
 1471      7300
 1472              		.text
 1473              	.Letext0:
 1474              		.file 5 "c:\\users\\moi\\documents\\_microinfo\\epuck-eclipse\\tools\\gcc-arm-none-eabi-7-2017-q4-
 1475              		.file 6 "c:\\users\\moi\\documents\\_microinfo\\epuck-eclipse\\tools\\gcc-arm-none-eabi-7-2017-q4-
 1476              		.file 7 "c:\\users\\moi\\documents\\_microinfo\\epuck-eclipse\\tools\\gcc-arm-none-eabi-7-2017-q4-
 1477              		.file 8 "..//ChibiOS//os/rt/ports/ARMCMx/compilers/GCC/chtypes.h"
 1478              		.file 9 "..//ChibiOS//os/rt/include/chsystypes.h"
 1479              		.file 10 "..//ChibiOS//os/rt/include/chschd.h"
 1480              		.file 11 "..//ChibiOS//os/ext/CMSIS/include/core_cm4.h"
 1481              		.file 12 "..//ChibiOS//os/ext/CMSIS/ST/system_stm32f4xx.h"
 1482              		.file 13 "..//ChibiOS//os/ext/CMSIS/ST/stm32f407xx.h"
 1483              		.file 14 "..//ChibiOS//os/rt/ports/ARMCMx/chcore.h"
 1484              		.file 15 "..//ChibiOS//os/rt/ports/ARMCMx/chcore_v7m.h"
 1485              		.file 16 "..//ChibiOS//os/rt/include/chdebug.h"
 1486              		.file 17 "..//ChibiOS//os/rt/include/chtm.h"
 1487              		.file 18 "..//ChibiOS//os/rt/include/chstats.h"
 1488              		.file 19 "..//ChibiOS//os/rt/include/chsem.h"
 1489              		.file 20 "..//ChibiOS//os/rt/include/chmtx.h"
 1490              		.file 21 "..//ChibiOS//os/rt/include/chregistry.h"
 1491              		.file 22 "..//ChibiOS//os/rt/include/chevents.h"
 1492              		.file 23 "..//ChibiOS//os/rt/include/chqueues.h"
 1493              		.file 24 "..//ChibiOS//os/hal/ports/STM32/STM32F4xx/stm32_dma.h"
 1494              		.file 25 "..//ChibiOS//os/hal/include/hal_ioblock.h"
 1495              		.file 26 "..//ChibiOS//os/hal/ports/STM32/LLD/GPIOv2/pal_lld.h"
 1496              		.file 27 "..//ChibiOS//os/hal/include/adc.h"
 1497              		.file 28 "..//ChibiOS//os/hal/ports/STM32/STM32F4xx/adc_lld.h"
 1498              		.file 29 "..//ChibiOS//os/hal/include/can.h"
 1499              		.file 30 "..//ChibiOS//os/hal/ports/STM32/LLD/can_lld.h"
 1500              		.file 31 "..//ChibiOS//os/hal/include/dac.h"
 1501              		.file 32 "..//ChibiOS//os/hal/ports/STM32/LLD/DACv1/dac_lld.h"
 1502              		.file 33 "..//ChibiOS//os/hal/include/ext.h"
 1503              		.file 34 "..//ChibiOS//os/hal/ports/STM32/LLD/ext_lld.h"
 1504              		.file 35 "..//ChibiOS//os/hal/include/gpt.h"
 1505              		.file 36 "..//ChibiOS//os/hal/ports/STM32/LLD/TIMv1/gpt_lld.h"
 1506              		.file 37 "..//ChibiOS//os/hal/ports/STM32/LLD/TIMv1/stm32_tim.h"
 1507              		.file 38 "..//ChibiOS//os/hal/include/i2c.h"
 1508              		.file 39 "..//ChibiOS//os/hal/ports/STM32/LLD/I2Cv1/i2c_lld.h"
 1509              		.file 40 "..//ChibiOS//os/hal/include/i2s.h"
 1510              		.file 41 "..//ChibiOS//os/hal/ports/STM32/LLD/SPIv1/i2s_lld.h"
 1511              		.file 42 "..//ChibiOS//os/hal/include/pwm.h"
 1512              		.file 43 "..//ChibiOS//os/hal/ports/STM32/LLD/TIMv1/pwm_lld.h"
 1513              		.file 44 "..//ChibiOS//os/hal/include/serial.h"
 1514              		.file 45 "..//ChibiOS//os/hal/ports/STM32/LLD/USARTv1/serial_lld.h"
ARM GAS  C:\Users\Moi\AppData\Local\Temp\ccTP9Bb7.s 			page 28


 1515              		.file 46 "..//ChibiOS//os/hal/include/sdc.h"
 1516              		.file 47 "..//ChibiOS//os/hal/ports/STM32/LLD/sdc_lld.h"
 1517              		.file 48 "..//ChibiOS//os/hal/include/spi.h"
 1518              		.file 49 "..//ChibiOS//os/hal/ports/STM32/LLD/SPIv1/spi_lld.h"
 1519              		.file 50 "..//ChibiOS//os/hal/include/usb.h"
 1520              		.file 51 "..//ChibiOS//os/hal/ports/STM32/LLD/OTGv1/usb_lld.h"
 1521              		.file 52 "..//ChibiOS//os/hal/ports/STM32/LLD/OTGv1/stm32_otg.h"
 1522              		.file 53 "..//ChibiOS//os/rt/include/chthreads.h"