ARM GAS  C:\Users\Moi\AppData\Local\Temp\cccka72G.s 			page 1


   1              		.cpu cortex-m4
   2              		.eabi_attribute 27, 1
   3              		.eabi_attribute 28, 1
   4              		.eabi_attribute 20, 1
   5              		.eabi_attribute 21, 1
   6              		.eabi_attribute 23, 3
   7              		.eabi_attribute 24, 1
   8              		.eabi_attribute 25, 1
   9              		.eabi_attribute 26, 1
  10              		.eabi_attribute 30, 2
  11              		.eabi_attribute 34, 1
  12              		.eabi_attribute 18, 4
  13              		.file	"adc_lld.c"
  14              		.text
  15              	.Ltext0:
  16              		.cfi_sections	.debug_frame
  17              		.section	.text.adc_lld_serve_rx_interrupt,"ax",%progbits
  18              		.align	1
  19              		.p2align 4,,15
  20              		.syntax unified
  21              		.thumb
  22              		.thumb_func
  23              		.fpu fpv4-sp-d16
  24              		.type	adc_lld_serve_rx_interrupt, %function
  25              	adc_lld_serve_rx_interrupt:
  26              	.LFB256:
  27              		.file 1 "..//ChibiOS//os/hal/ports/STM32/STM32F4xx/adc_lld.c"
  28              		.loc 1 75 0
  29              		.cfi_startproc
  30              		@ args = 0, pretend = 0, frame = 8
  31              		@ frame_needed = 0, uses_anonymous_args = 0
  32              	.LVL0:
  33 0000 F0B5     		push	{r4, r5, r6, r7, lr}
  34              		.cfi_def_cfa_offset 20
  35              		.cfi_offset 4, -20
  36              		.cfi_offset 5, -16
  37              		.cfi_offset 6, -12
  38              		.cfi_offset 7, -8
  39              		.cfi_offset 14, -4
  40 0002 564D     		ldr	r5, .L40
  41 0004 0669     		ldr	r6, [r0, #16]
  42 0006 2B68     		ldr	r3, [r5]
  43 0008 83B0     		sub	sp, sp, #12
  44              		.cfi_def_cfa_offset 32
  45              		.loc 1 78 0
  46 000a 11F00C0F 		tst	r1, #12
  47              		.loc 1 75 0
  48 000e 0446     		mov	r4, r0
  49 0010 0193     		str	r3, [sp, #4]
  50              		.loc 1 78 0
  51 0012 3BD0     		beq	.L2
  52              	.LVL1:
  53              	.LBB137:
  54              	.LBB138:
  55              		.loc 1 375 0
  56 0014 006B     		ldr	r0, [r0, #48]
  57              	.LVL2:
ARM GAS  C:\Users\Moi\AppData\Local\Temp\cccka72G.s 			page 2


  58 0016 0368     		ldr	r3, [r0]
  59 0018 1A68     		ldr	r2, [r3]
  60 001a 22F01F02 		bic	r2, r2, #31
  61 001e 1A60     		str	r2, [r3]
  62              	.LVL3:
  63              	.L3:
  64 0020 1968     		ldr	r1, [r3]
  65 0022 11F00101 		ands	r1, r1, #1
  66 0026 FBD1     		bne	.L3
  67 0028 90F808C0 		ldrb	ip, [r0, #8]	@ zero_extendqisi2
  68 002c 4768     		ldr	r7, [r0, #4]
  69              	.LBE138:
  70              	.LBE137:
  71              		.loc 1 81 0
  72 002e B668     		ldr	r6, [r6, #8]
  73              	.LBB140:
  74              	.LBB139:
  75              		.loc 1 376 0
  76 0030 E36A     		ldr	r3, [r4, #44]
  77              		.loc 1 375 0
  78 0032 3D22     		movs	r2, #61
  79 0034 02FA0CF2 		lsl	r2, r2, ip
  80              		.loc 1 378 0
  81 0038 0120     		movs	r0, #1
  82              		.loc 1 375 0
  83 003a 3A60     		str	r2, [r7]
  84              		.loc 1 376 0
  85 003c 5960     		str	r1, [r3, #4]
  86              		.loc 1 377 0
  87 003e 9960     		str	r1, [r3, #8]
  88              		.loc 1 378 0
  89 0040 9860     		str	r0, [r3, #8]
  90              	.LVL4:
  91              	.LBE139:
  92              	.LBE140:
  93              		.loc 1 81 0
  94 0042 46B1     		cbz	r6, .L5
  95              		.loc 1 81 0 is_stmt 0 discriminator 1
  96 0044 0523     		movs	r3, #5
  97 0046 2370     		strb	r3, [r4]
  98 0048 2046     		mov	r0, r4
  99 004a B047     		blx	r6
 100              	.LVL5:
 101 004c 2378     		ldrb	r3, [r4]	@ zero_extendqisi2
 102 004e 052B     		cmp	r3, #5
 103 0050 04BF     		itt	eq
 104 0052 0223     		moveq	r3, #2
 105 0054 2370     		strbeq	r3, [r4]
 106              	.L5:
 107              		.loc 1 81 0 discriminator 5
 108 0056 0026     		movs	r6, #0
 109 0058 2661     		str	r6, [r4, #16]
 110              	.LVL6:
 111              	.LBB141:
 112              	.LBB142:
 113              	.LBB143:
 114              	.LBB144:
ARM GAS  C:\Users\Moi\AppData\Local\Temp\cccka72G.s 			page 3


 115              	.LBB145:
 116              	.LBB146:
 117              	.LBB147:
 118              		.file 2 "..//ChibiOS//os/ext/CMSIS/include/core_cmFunc.h"
 119              		.loc 2 546 0 is_stmt 1 discriminator 5
 120 005a 2023     		movs	r3, #32
 121              		.syntax unified
 122              	@ 546 "..//ChibiOS//os/ext/CMSIS/include/core_cmFunc.h" 1
 123 005c 83F31188 		MSR basepri, r3
 124              	@ 0 "" 2
 125              	.LVL7:
 126              		.thumb
 127              		.syntax unified
 128              	.LBE147:
 129              	.LBE146:
 130              	.LBE145:
 131              	.LBE144:
 132              		.file 3 "..//ChibiOS//os/rt/include/chsys.h"
 133              		.loc 3 389 0 discriminator 5
 134 0060 FFF7FEFF 		bl	_stats_start_measure_crit_isr
 135              	.LVL8:
 136              		.loc 3 390 0 discriminator 5
 137 0064 FFF7FEFF 		bl	_dbg_check_lock_from_isr
 138              	.LVL9:
 139              	.LBE143:
 140              	.LBE142:
 141              	.LBE141:
 142              	.LBB148:
 143              	.LBB149:
 144              		.file 4 "..//ChibiOS//os/hal/osal/rt/osal.h"
 145              		.loc 4 682 0 discriminator 5
 146 0068 04F11400 		add	r0, r4, #20
 147              	.LVL10:
 148 006c 4FF0FF31 		mov	r1, #-1
 149 0070 FFF7FEFF 		bl	chThdResumeI
 150              	.LVL11:
 151              	.LBE149:
 152              	.LBE148:
 153              	.LBB150:
 154              	.LBB151:
 155              	.LBB152:
 156              		.loc 3 408 0 discriminator 5
 157 0074 FFF7FEFF 		bl	_dbg_check_unlock_from_isr
 158              	.LVL12:
 159              		.loc 3 409 0 discriminator 5
 160 0078 FFF7FEFF 		bl	_stats_stop_measure_crit_isr
 161              	.LVL13:
 162              	.LBB153:
 163              	.LBB154:
 164              	.LBB155:
 165              	.LBB156:
 166              		.loc 2 546 0 discriminator 5
 167              		.syntax unified
 168              	@ 546 "..//ChibiOS//os/ext/CMSIS/include/core_cmFunc.h" 1
 169 007c 86F31188 		MSR basepri, r6
 170              	@ 0 "" 2
 171              	.LVL14:
ARM GAS  C:\Users\Moi\AppData\Local\Temp\cccka72G.s 			page 4


 172              		.thumb
 173              		.syntax unified
 174              	.L1:
 175              	.LBE156:
 176              	.LBE155:
 177              	.LBE154:
 178              	.LBE153:
 179              	.LBE152:
 180              	.LBE151:
 181              	.LBE150:
 182              		.loc 1 97 0
 183 0080 019A     		ldr	r2, [sp, #4]
 184 0082 2B68     		ldr	r3, [r5]
 185 0084 9A42     		cmp	r2, r3
 186 0086 62D1     		bne	.L37
 187 0088 03B0     		add	sp, sp, #12
 188              		.cfi_remember_state
 189              		.cfi_def_cfa_offset 20
 190              		@ sp needed
 191 008a F0BD     		pop	{r4, r5, r6, r7, pc}
 192              	.LVL15:
 193              	.L2:
 194              		.cfi_restore_state
 195              		.loc 1 86 0
 196 008c 002E     		cmp	r6, #0
 197 008e F7D0     		beq	.L1
 198              		.loc 1 87 0
 199 0090 8A06     		lsls	r2, r1, #26
 200 0092 0FD4     		bmi	.L39
 201              		.loc 1 91 0
 202 0094 CB06     		lsls	r3, r1, #27
 203 0096 F3D5     		bpl	.L1
 204              		.loc 1 93 0
 205 0098 7368     		ldr	r3, [r6, #4]
 206 009a 002B     		cmp	r3, #0
 207 009c F0D0     		beq	.L1
 208              		.loc 1 93 0 is_stmt 0 discriminator 1
 209 009e 0199     		ldr	r1, [sp, #4]
 210              	.LVL16:
 211 00a0 2A68     		ldr	r2, [r5]
 212 00a2 9142     		cmp	r1, r2
 213 00a4 53D1     		bne	.L37
 214 00a6 D0E90212 		ldrd	r1, r2, [r0, #8]
 215 00aa 5208     		lsrs	r2, r2, #1
 216              	.L36:
 217              		.loc 1 97 0 is_stmt 1 discriminator 1
 218 00ac 03B0     		add	sp, sp, #12
 219              		.cfi_remember_state
 220              		.cfi_def_cfa_offset 20
 221              		@ sp needed
 222 00ae BDE8F040 		pop	{r4, r5, r6, r7, lr}
 223              		.cfi_restore 14
 224              		.cfi_restore 7
 225              		.cfi_restore 6
 226              		.cfi_restore 5
 227              		.cfi_restore 4
 228              		.cfi_def_cfa_offset 0
ARM GAS  C:\Users\Moi\AppData\Local\Temp\cccka72G.s 			page 5


 229              		.loc 1 93 0 discriminator 1
 230 00b2 1847     		bx	r3	@ indirect register sibling call
 231              	.LVL17:
 232              	.L39:
 233              		.cfi_restore_state
 234              		.loc 1 89 0
 235 00b4 3378     		ldrb	r3, [r6]	@ zero_extendqisi2
 236 00b6 7768     		ldr	r7, [r6, #4]
 237 00b8 8BB1     		cbz	r3, .L9
 238              		.loc 1 89 0 is_stmt 0 discriminator 1
 239 00ba 002F     		cmp	r7, #0
 240 00bc E0D0     		beq	.L1
 241 00be D0E90212 		ldrd	r1, r2, [r0, #8]
 242              	.LVL18:
 243              		.loc 1 89 0 discriminator 3
 244 00c2 012A     		cmp	r2, #1
 245              	.LBB157:
 246 00c4 019C     		ldr	r4, [sp, #4]
 247 00c6 2B68     		ldr	r3, [r5]
 248              	.LBE157:
 249 00c8 3DD9     		bls	.L10
 250              	.LBB158:
 251              		.loc 1 89 0 discriminator 4
 252 00ca 9C42     		cmp	r4, r3
 253 00cc 4FEA5202 		lsr	r2, r2, #1
 254              	.LVL19:
 255 00d0 3DD1     		bne	.L37
 256 00d2 7388     		ldrh	r3, [r6, #2]
 257 00d4 5400     		lsls	r4, r2, #1
 258 00d6 04FB0311 		mla	r1, r4, r3, r1
 259 00da 3B46     		mov	r3, r7
 260 00dc E6E7     		b	.L36
 261              	.LVL20:
 262              	.L9:
 263              	.LBE158:
 264              	.LBB159:
 265              	.LBB160:
 266              		.loc 1 375 0 is_stmt 1
 267 00de 006B     		ldr	r0, [r0, #48]
 268              	.LVL21:
 269 00e0 0268     		ldr	r2, [r0]
 270 00e2 1368     		ldr	r3, [r2]
 271 00e4 23F01F03 		bic	r3, r3, #31
 272 00e8 1360     		str	r3, [r2]
 273              	.L13:
 274 00ea 1368     		ldr	r3, [r2]
 275 00ec 13F00103 		ands	r3, r3, #1
 276 00f0 FBD1     		bne	.L13
 277 00f2 90F808C0 		ldrb	ip, [r0, #8]	@ zero_extendqisi2
 278 00f6 4668     		ldr	r6, [r0, #4]
 279              		.loc 1 376 0
 280 00f8 E26A     		ldr	r2, [r4, #44]
 281              		.loc 1 375 0
 282 00fa 3D21     		movs	r1, #61
 283              	.LVL22:
 284 00fc 01FA0CF1 		lsl	r1, r1, ip
 285              		.loc 1 378 0
ARM GAS  C:\Users\Moi\AppData\Local\Temp\cccka72G.s 			page 6


 286 0100 0120     		movs	r0, #1
 287              		.loc 1 375 0
 288 0102 3160     		str	r1, [r6]
 289              		.loc 1 376 0
 290 0104 5360     		str	r3, [r2, #4]
 291              		.loc 1 377 0
 292 0106 9360     		str	r3, [r2, #8]
 293              		.loc 1 378 0
 294 0108 9060     		str	r0, [r2, #8]
 295              	.LVL23:
 296              	.LBE160:
 297              	.LBE159:
 298              		.loc 1 89 0
 299 010a 17B3     		cbz	r7, .L14
 300              		.loc 1 89 0 is_stmt 0 discriminator 6
 301 010c 0423     		movs	r3, #4
 302 010e 2370     		strb	r3, [r4]
 303 0110 D4E90212 		ldrd	r1, r2, [r4, #8]
 304 0114 2046     		mov	r0, r4
 305 0116 B847     		blx	r7
 306              	.LVL24:
 307 0118 2378     		ldrb	r3, [r4]	@ zero_extendqisi2
 308 011a 042B     		cmp	r3, #4
 309 011c 19D0     		beq	.L14
 310              	.L15:
 311              	.LVL25:
 312              	.LBB161:
 313              	.LBB162:
 314              	.LBB163:
 315              	.LBB164:
 316              	.LBB165:
 317              	.LBB166:
 318              	.LBB167:
 319              		.loc 2 546 0 is_stmt 1 discriminator 9
 320 011e 2023     		movs	r3, #32
 321              		.syntax unified
 322              	@ 546 "..//ChibiOS//os/ext/CMSIS/include/core_cmFunc.h" 1
 323 0120 83F31188 		MSR basepri, r3
 324              	@ 0 "" 2
 325              	.LVL26:
 326              		.thumb
 327              		.syntax unified
 328              	.LBE167:
 329              	.LBE166:
 330              	.LBE165:
 331              	.LBE164:
 332              		.loc 3 389 0 discriminator 9
 333 0124 FFF7FEFF 		bl	_stats_start_measure_crit_isr
 334              	.LVL27:
 335              		.loc 3 390 0 discriminator 9
 336 0128 FFF7FEFF 		bl	_dbg_check_lock_from_isr
 337              	.LVL28:
 338              	.LBE163:
 339              	.LBE162:
 340              	.LBE161:
 341              	.LBB168:
 342              	.LBB169:
ARM GAS  C:\Users\Moi\AppData\Local\Temp\cccka72G.s 			page 7


 343              		.loc 4 682 0 discriminator 9
 344 012c 04F11400 		add	r0, r4, #20
 345              	.LVL29:
 346 0130 0021     		movs	r1, #0
 347 0132 FFF7FEFF 		bl	chThdResumeI
 348              	.LVL30:
 349              	.LBE169:
 350              	.LBE168:
 351              	.LBB170:
 352              	.LBB171:
 353              	.LBB172:
 354              		.loc 3 408 0 discriminator 9
 355 0136 FFF7FEFF 		bl	_dbg_check_unlock_from_isr
 356              	.LVL31:
 357              		.loc 3 409 0 discriminator 9
 358 013a FFF7FEFF 		bl	_stats_stop_measure_crit_isr
 359              	.LVL32:
 360              	.LBB173:
 361              	.LBB174:
 362              	.LBB175:
 363              	.LBB176:
 364              		.loc 2 546 0 discriminator 9
 365 013e 0023     		movs	r3, #0
 366              		.syntax unified
 367              	@ 546 "..//ChibiOS//os/ext/CMSIS/include/core_cmFunc.h" 1
 368 0140 83F31188 		MSR basepri, r3
 369              	@ 0 "" 2
 370              	.LVL33:
 371              		.thumb
 372              		.syntax unified
 373 0144 9CE7     		b	.L1
 374              	.LVL34:
 375              	.L10:
 376              	.LBE176:
 377              	.LBE175:
 378              	.LBE174:
 379              	.LBE173:
 380              	.LBE172:
 381              	.LBE171:
 382              	.LBE170:
 383              		.loc 1 89 0 discriminator 5
 384 0146 9C42     		cmp	r4, r3
 385 0148 08BF     		it	eq
 386 014a 3B46     		moveq	r3, r7
 387 014c AED0     		beq	.L36
 388              	.LVL35:
 389              	.L37:
 390              		.loc 1 97 0
 391 014e FFF7FEFF 		bl	__stack_chk_fail
 392              	.LVL36:
 393              	.L14:
 394              		.loc 1 89 0 discriminator 8
 395 0152 0222     		movs	r2, #2
 396 0154 0023     		movs	r3, #0
 397 0156 2270     		strb	r2, [r4]
 398 0158 2361     		str	r3, [r4, #16]
 399 015a E0E7     		b	.L15
ARM GAS  C:\Users\Moi\AppData\Local\Temp\cccka72G.s 			page 8


 400              	.L41:
 401              		.align	2
 402              	.L40:
 403 015c 00000000 		.word	__stack_chk_guard
 404              		.cfi_endproc
 405              	.LFE256:
 406              		.size	adc_lld_serve_rx_interrupt, .-adc_lld_serve_rx_interrupt
 407              		.section	.text.Vector88,"ax",%progbits
 408              		.align	1
 409              		.p2align 4,,15
 410              		.global	Vector88
 411              		.syntax unified
 412              		.thumb
 413              		.thumb_func
 414              		.fpu fpv4-sp-d16
 415              		.type	Vector88, %function
 416              	Vector88:
 417              	.LFB257:
 418              		.loc 1 110 0
 419              		.cfi_startproc
 420              		@ args = 0, pretend = 0, frame = 8
 421              		@ frame_needed = 0, uses_anonymous_args = 0
 422 0000 F0B5     		push	{r4, r5, r6, r7, lr}
 423              		.cfi_def_cfa_offset 20
 424              		.cfi_offset 4, -20
 425              		.cfi_offset 5, -16
 426              		.cfi_offset 6, -12
 427              		.cfi_offset 7, -8
 428              		.cfi_offset 14, -4
 429 0002 6F4C     		ldr	r4, .L94
 430 0004 83B0     		sub	sp, sp, #12
 431              		.cfi_def_cfa_offset 32
 432              		.loc 1 110 0
 433 0006 2368     		ldr	r3, [r4]
 434 0008 0193     		str	r3, [sp, #4]
 435              		.loc 1 113 0
 436 000a FFF7FEFF 		bl	_stats_increase_irq
 437              	.LVL37:
 438 000e FFF7FEFF 		bl	_dbg_check_enter_isr
 439              	.LVL38:
 440              		.loc 1 116 0
 441 0012 6C4B     		ldr	r3, .L94+4
 442 0014 1A68     		ldr	r2, [r3]
 443              	.LVL39:
 444              		.loc 1 117 0
 445 0016 0021     		movs	r1, #0
 446 0018 1960     		str	r1, [r3]
 447              		.loc 1 120 0
 448 001a 9106     		lsls	r1, r2, #26
 449 001c 06D5     		bpl	.L43
 450              		.loc 1 120 0 is_stmt 0 discriminator 1
 451 001e 6A4D     		ldr	r5, .L94+8
 452 0020 296B     		ldr	r1, [r5, #48]
 453 0022 0A68     		ldr	r2, [r1]
 454              	.LVL40:
 455 0024 5368     		ldr	r3, [r2, #4]
 456 0026 002B     		cmp	r3, #0
ARM GAS  C:\Users\Moi\AppData\Local\Temp\cccka72G.s 			page 9


 457 0028 40F09080 		bne	.L91
 458              	.L43:
 459              		.loc 1 130 0 is_stmt 1
 460 002c 674B     		ldr	r3, .L94+12
 461 002e 1A68     		ldr	r2, [r3]
 462              	.LVL41:
 463              		.loc 1 131 0
 464 0030 0021     		movs	r1, #0
 465              		.loc 1 134 0
 466 0032 9206     		lsls	r2, r2, #26
 467              	.LVL42:
 468              		.loc 1 131 0
 469 0034 1960     		str	r1, [r3]
 470              		.loc 1 134 0
 471 0036 05D5     		bpl	.L48
 472              		.loc 1 134 0 is_stmt 0 discriminator 1
 473 0038 654D     		ldr	r5, .L94+16
 474 003a 296B     		ldr	r1, [r5, #48]
 475 003c 0A68     		ldr	r2, [r1]
 476 003e 5368     		ldr	r3, [r2, #4]
 477 0040 002B     		cmp	r3, #0
 478 0042 4CD1     		bne	.L92
 479              	.L48:
 480              		.loc 1 144 0 is_stmt 1
 481 0044 634B     		ldr	r3, .L94+20
 482 0046 1A68     		ldr	r2, [r3]
 483              	.LVL43:
 484              		.loc 1 145 0
 485 0048 0021     		movs	r1, #0
 486 004a 1960     		str	r1, [r3]
 487              		.loc 1 148 0
 488 004c 9306     		lsls	r3, r2, #26
 489 004e 3BD5     		bpl	.L53
 490              		.loc 1 148 0 is_stmt 0 discriminator 1
 491 0050 614D     		ldr	r5, .L94+24
 492 0052 296B     		ldr	r1, [r5, #48]
 493 0054 0A68     		ldr	r2, [r1]
 494              	.LVL44:
 495 0056 5368     		ldr	r3, [r2, #4]
 496 0058 002B     		cmp	r3, #0
 497 005a 35D0     		beq	.L53
 498              		.loc 1 151 0 is_stmt 1
 499 005c 2E69     		ldr	r6, [r5, #16]
 500 005e 002E     		cmp	r6, #0
 501 0060 32D0     		beq	.L53
 502              	.LVL45:
 503              	.LBB177:
 504              	.LBB178:
 505              		.loc 1 375 0
 506 0062 1368     		ldr	r3, [r2]
 507 0064 23F01F03 		bic	r3, r3, #31
 508 0068 1360     		str	r3, [r2]
 509              	.L54:
 510 006a 1368     		ldr	r3, [r2]
 511 006c 13F00103 		ands	r3, r3, #1
 512 0070 FBD1     		bne	.L54
 513 0072 91F808C0 		ldrb	ip, [r1, #8]	@ zero_extendqisi2
ARM GAS  C:\Users\Moi\AppData\Local\Temp\cccka72G.s 			page 10


 514 0076 4F68     		ldr	r7, [r1, #4]
 515              	.LBE178:
 516              	.LBE177:
 517              		.loc 1 152 0
 518 0078 B668     		ldr	r6, [r6, #8]
 519              	.LBB180:
 520              	.LBB179:
 521              		.loc 1 376 0
 522 007a EA6A     		ldr	r2, [r5, #44]
 523              		.loc 1 375 0
 524 007c 3D20     		movs	r0, #61
 525 007e 00FA0CF0 		lsl	r0, r0, ip
 526              		.loc 1 378 0
 527 0082 0121     		movs	r1, #1
 528              		.loc 1 375 0
 529 0084 3860     		str	r0, [r7]
 530              		.loc 1 376 0
 531 0086 5360     		str	r3, [r2, #4]
 532              		.loc 1 377 0
 533 0088 9360     		str	r3, [r2, #8]
 534              		.loc 1 378 0
 535 008a 9160     		str	r1, [r2, #8]
 536              	.LVL46:
 537              	.LBE179:
 538              	.LBE180:
 539              		.loc 1 152 0
 540 008c 46B1     		cbz	r6, .L56
 541              		.loc 1 152 0 is_stmt 0 discriminator 1
 542 008e 0523     		movs	r3, #5
 543 0090 2B70     		strb	r3, [r5]
 544 0092 5148     		ldr	r0, .L94+24
 545 0094 B047     		blx	r6
 546              	.LVL47:
 547 0096 2B78     		ldrb	r3, [r5]	@ zero_extendqisi2
 548 0098 052B     		cmp	r3, #5
 549 009a 04BF     		itt	eq
 550 009c 0223     		moveq	r3, #2
 551 009e 2B70     		strbeq	r3, [r5]
 552              	.L56:
 553              		.loc 1 152 0 discriminator 5
 554 00a0 0026     		movs	r6, #0
 555 00a2 2E61     		str	r6, [r5, #16]
 556              	.LVL48:
 557              	.LBB181:
 558              	.LBB182:
 559              	.LBB183:
 560              	.LBB184:
 561              	.LBB185:
 562              	.LBB186:
 563              	.LBB187:
 564              		.loc 2 546 0 is_stmt 1 discriminator 5
 565 00a4 2023     		movs	r3, #32
 566              		.syntax unified
 567              	@ 546 "..//ChibiOS//os/ext/CMSIS/include/core_cmFunc.h" 1
 568 00a6 83F31188 		MSR basepri, r3
 569              	@ 0 "" 2
 570              	.LVL49:
ARM GAS  C:\Users\Moi\AppData\Local\Temp\cccka72G.s 			page 11


 571              		.thumb
 572              		.syntax unified
 573              	.LBE187:
 574              	.LBE186:
 575              	.LBE185:
 576              	.LBE184:
 577              		.loc 3 389 0 discriminator 5
 578 00aa FFF7FEFF 		bl	_stats_start_measure_crit_isr
 579              	.LVL50:
 580              		.loc 3 390 0 discriminator 5
 581 00ae FFF7FEFF 		bl	_dbg_check_lock_from_isr
 582              	.LVL51:
 583              	.LBE183:
 584              	.LBE182:
 585              	.LBE181:
 586              	.LBB188:
 587              	.LBB189:
 588              		.loc 4 682 0 discriminator 5
 589 00b2 4FF0FF31 		mov	r1, #-1
 590 00b6 4948     		ldr	r0, .L94+28
 591 00b8 FFF7FEFF 		bl	chThdResumeI
 592              	.LVL52:
 593              	.LBE189:
 594              	.LBE188:
 595              	.LBB190:
 596              	.LBB191:
 597              	.LBB192:
 598              		.loc 3 408 0 discriminator 5
 599 00bc FFF7FEFF 		bl	_dbg_check_unlock_from_isr
 600              	.LVL53:
 601              		.loc 3 409 0 discriminator 5
 602 00c0 FFF7FEFF 		bl	_stats_stop_measure_crit_isr
 603              	.LVL54:
 604              	.LBB193:
 605              	.LBB194:
 606              	.LBB195:
 607              	.LBB196:
 608              		.loc 2 546 0 discriminator 5
 609              		.syntax unified
 610              	@ 546 "..//ChibiOS//os/ext/CMSIS/include/core_cmFunc.h" 1
 611 00c4 86F31188 		MSR basepri, r6
 612              	@ 0 "" 2
 613              	.LVL55:
 614              		.thumb
 615              		.syntax unified
 616              	.L53:
 617              	.LBE196:
 618              	.LBE195:
 619              	.LBE194:
 620              	.LBE193:
 621              	.LBE192:
 622              	.LBE191:
 623              	.LBE190:
 624              		.loc 1 157 0
 625 00c8 FFF7FEFF 		bl	_dbg_check_leave_isr
 626              	.LVL56:
 627 00cc 019A     		ldr	r2, [sp, #4]
ARM GAS  C:\Users\Moi\AppData\Local\Temp\cccka72G.s 			page 12


 628 00ce 2368     		ldr	r3, [r4]
 629 00d0 9A42     		cmp	r2, r3
 630 00d2 73D1     		bne	.L93
 631              		.loc 1 158 0
 632 00d4 03B0     		add	sp, sp, #12
 633              		.cfi_remember_state
 634              		.cfi_def_cfa_offset 20
 635              		@ sp needed
 636 00d6 BDE8F040 		pop	{r4, r5, r6, r7, lr}
 637              		.cfi_restore 14
 638              		.cfi_restore 7
 639              		.cfi_restore 6
 640              		.cfi_restore 5
 641              		.cfi_restore 4
 642              		.cfi_def_cfa_offset 0
 643              		.loc 1 157 0
 644 00da FFF7FEBF 		b	_port_irq_epilogue
 645              	.LVL57:
 646              	.L92:
 647              		.cfi_restore_state
 648              		.loc 1 137 0
 649 00de 2E69     		ldr	r6, [r5, #16]
 650 00e0 002E     		cmp	r6, #0
 651 00e2 AFD0     		beq	.L48
 652              	.LVL58:
 653              	.LBB197:
 654              	.LBB198:
 655              		.loc 1 375 0
 656 00e4 1368     		ldr	r3, [r2]
 657 00e6 23F01F03 		bic	r3, r3, #31
 658 00ea 1360     		str	r3, [r2]
 659              	.L49:
 660 00ec 1368     		ldr	r3, [r2]
 661 00ee 13F00103 		ands	r3, r3, #1
 662 00f2 FBD1     		bne	.L49
 663 00f4 91F808C0 		ldrb	ip, [r1, #8]	@ zero_extendqisi2
 664 00f8 4F68     		ldr	r7, [r1, #4]
 665              	.LBE198:
 666              	.LBE197:
 667              		.loc 1 138 0
 668 00fa B668     		ldr	r6, [r6, #8]
 669              	.LBB200:
 670              	.LBB199:
 671              		.loc 1 376 0
 672 00fc EA6A     		ldr	r2, [r5, #44]
 673              		.loc 1 375 0
 674 00fe 3D20     		movs	r0, #61
 675 0100 00FA0CF0 		lsl	r0, r0, ip
 676              		.loc 1 378 0
 677 0104 0121     		movs	r1, #1
 678              		.loc 1 375 0
 679 0106 3860     		str	r0, [r7]
 680              		.loc 1 376 0
 681 0108 5360     		str	r3, [r2, #4]
 682              		.loc 1 377 0
 683 010a 9360     		str	r3, [r2, #8]
 684              		.loc 1 378 0
ARM GAS  C:\Users\Moi\AppData\Local\Temp\cccka72G.s 			page 13


 685 010c 9160     		str	r1, [r2, #8]
 686              	.LVL59:
 687              	.LBE199:
 688              	.LBE200:
 689              		.loc 1 138 0
 690 010e 46B1     		cbz	r6, .L51
 691              		.loc 1 138 0 is_stmt 0 discriminator 1
 692 0110 0523     		movs	r3, #5
 693 0112 2B70     		strb	r3, [r5]
 694 0114 2E48     		ldr	r0, .L94+16
 695 0116 B047     		blx	r6
 696              	.LVL60:
 697 0118 2B78     		ldrb	r3, [r5]	@ zero_extendqisi2
 698 011a 052B     		cmp	r3, #5
 699 011c 04BF     		itt	eq
 700 011e 0223     		moveq	r3, #2
 701 0120 2B70     		strbeq	r3, [r5]
 702              	.L51:
 703              		.loc 1 138 0 discriminator 5
 704 0122 0026     		movs	r6, #0
 705 0124 2E61     		str	r6, [r5, #16]
 706              	.LVL61:
 707              	.LBB201:
 708              	.LBB202:
 709              	.LBB203:
 710              	.LBB204:
 711              	.LBB205:
 712              	.LBB206:
 713              	.LBB207:
 714              		.loc 2 546 0 is_stmt 1 discriminator 5
 715 0126 2023     		movs	r3, #32
 716              		.syntax unified
 717              	@ 546 "..//ChibiOS//os/ext/CMSIS/include/core_cmFunc.h" 1
 718 0128 83F31188 		MSR basepri, r3
 719              	@ 0 "" 2
 720              	.LVL62:
 721              		.thumb
 722              		.syntax unified
 723              	.LBE207:
 724              	.LBE206:
 725              	.LBE205:
 726              	.LBE204:
 727              		.loc 3 389 0 discriminator 5
 728 012c FFF7FEFF 		bl	_stats_start_measure_crit_isr
 729              	.LVL63:
 730              		.loc 3 390 0 discriminator 5
 731 0130 FFF7FEFF 		bl	_dbg_check_lock_from_isr
 732              	.LVL64:
 733              	.LBE203:
 734              	.LBE202:
 735              	.LBE201:
 736              	.LBB208:
 737              	.LBB209:
 738              		.loc 4 682 0 discriminator 5
 739 0134 4FF0FF31 		mov	r1, #-1
 740 0138 2948     		ldr	r0, .L94+32
 741 013a FFF7FEFF 		bl	chThdResumeI
ARM GAS  C:\Users\Moi\AppData\Local\Temp\cccka72G.s 			page 14


 742              	.LVL65:
 743              	.LBE209:
 744              	.LBE208:
 745              	.LBB210:
 746              	.LBB211:
 747              	.LBB212:
 748              		.loc 3 408 0 discriminator 5
 749 013e FFF7FEFF 		bl	_dbg_check_unlock_from_isr
 750              	.LVL66:
 751              		.loc 3 409 0 discriminator 5
 752 0142 FFF7FEFF 		bl	_stats_stop_measure_crit_isr
 753              	.LVL67:
 754              	.LBB213:
 755              	.LBB214:
 756              	.LBB215:
 757              	.LBB216:
 758              		.loc 2 546 0 discriminator 5
 759              		.syntax unified
 760              	@ 546 "..//ChibiOS//os/ext/CMSIS/include/core_cmFunc.h" 1
 761 0146 86F31188 		MSR basepri, r6
 762              	@ 0 "" 2
 763              	.LVL68:
 764              		.thumb
 765              		.syntax unified
 766 014a 7BE7     		b	.L48
 767              	.L91:
 768              	.LBE216:
 769              	.LBE215:
 770              	.LBE214:
 771              	.LBE213:
 772              	.LBE212:
 773              	.LBE211:
 774              	.LBE210:
 775              		.loc 1 123 0
 776 014c 2E69     		ldr	r6, [r5, #16]
 777 014e 002E     		cmp	r6, #0
 778 0150 3FF46CAF 		beq	.L43
 779              	.LVL69:
 780              	.LBB217:
 781              	.LBB218:
 782              		.loc 1 375 0
 783 0154 1368     		ldr	r3, [r2]
 784 0156 23F01F03 		bic	r3, r3, #31
 785 015a 1360     		str	r3, [r2]
 786              	.L44:
 787 015c 1368     		ldr	r3, [r2]
 788 015e 13F00103 		ands	r3, r3, #1
 789 0162 FBD1     		bne	.L44
 790 0164 91F808C0 		ldrb	ip, [r1, #8]	@ zero_extendqisi2
 791 0168 4F68     		ldr	r7, [r1, #4]
 792              	.LBE218:
 793              	.LBE217:
 794              		.loc 1 124 0
 795 016a B668     		ldr	r6, [r6, #8]
 796              	.LBB220:
 797              	.LBB219:
 798              		.loc 1 376 0
ARM GAS  C:\Users\Moi\AppData\Local\Temp\cccka72G.s 			page 15


 799 016c EA6A     		ldr	r2, [r5, #44]
 800              		.loc 1 375 0
 801 016e 3D20     		movs	r0, #61
 802 0170 00FA0CF0 		lsl	r0, r0, ip
 803              		.loc 1 378 0
 804 0174 0121     		movs	r1, #1
 805              		.loc 1 375 0
 806 0176 3860     		str	r0, [r7]
 807              		.loc 1 376 0
 808 0178 5360     		str	r3, [r2, #4]
 809              		.loc 1 377 0
 810 017a 9360     		str	r3, [r2, #8]
 811              		.loc 1 378 0
 812 017c 9160     		str	r1, [r2, #8]
 813              	.LVL70:
 814              	.LBE219:
 815              	.LBE220:
 816              		.loc 1 124 0
 817 017e 46B1     		cbz	r6, .L46
 818              		.loc 1 124 0 is_stmt 0 discriminator 1
 819 0180 0523     		movs	r3, #5
 820 0182 2B70     		strb	r3, [r5]
 821 0184 1048     		ldr	r0, .L94+8
 822 0186 B047     		blx	r6
 823              	.LVL71:
 824 0188 2B78     		ldrb	r3, [r5]	@ zero_extendqisi2
 825 018a 052B     		cmp	r3, #5
 826 018c 04BF     		itt	eq
 827 018e 0223     		moveq	r3, #2
 828 0190 2B70     		strbeq	r3, [r5]
 829              	.L46:
 830              		.loc 1 124 0 discriminator 5
 831 0192 0026     		movs	r6, #0
 832 0194 2E61     		str	r6, [r5, #16]
 833              	.LVL72:
 834              	.LBB221:
 835              	.LBB222:
 836              	.LBB223:
 837              	.LBB224:
 838              	.LBB225:
 839              	.LBB226:
 840              	.LBB227:
 841              		.loc 2 546 0 is_stmt 1 discriminator 5
 842 0196 2023     		movs	r3, #32
 843              		.syntax unified
 844              	@ 546 "..//ChibiOS//os/ext/CMSIS/include/core_cmFunc.h" 1
 845 0198 83F31188 		MSR basepri, r3
 846              	@ 0 "" 2
 847              	.LVL73:
 848              		.thumb
 849              		.syntax unified
 850              	.LBE227:
 851              	.LBE226:
 852              	.LBE225:
 853              	.LBE224:
 854              		.loc 3 389 0 discriminator 5
 855 019c FFF7FEFF 		bl	_stats_start_measure_crit_isr
ARM GAS  C:\Users\Moi\AppData\Local\Temp\cccka72G.s 			page 16


 856              	.LVL74:
 857              		.loc 3 390 0 discriminator 5
 858 01a0 FFF7FEFF 		bl	_dbg_check_lock_from_isr
 859              	.LVL75:
 860              	.LBE223:
 861              	.LBE222:
 862              	.LBE221:
 863              	.LBB228:
 864              	.LBB229:
 865              		.loc 4 682 0 discriminator 5
 866 01a4 4FF0FF31 		mov	r1, #-1
 867 01a8 0E48     		ldr	r0, .L94+36
 868 01aa FFF7FEFF 		bl	chThdResumeI
 869              	.LVL76:
 870              	.LBE229:
 871              	.LBE228:
 872              	.LBB230:
 873              	.LBB231:
 874              	.LBB232:
 875              		.loc 3 408 0 discriminator 5
 876 01ae FFF7FEFF 		bl	_dbg_check_unlock_from_isr
 877              	.LVL77:
 878              		.loc 3 409 0 discriminator 5
 879 01b2 FFF7FEFF 		bl	_stats_stop_measure_crit_isr
 880              	.LVL78:
 881              	.LBB233:
 882              	.LBB234:
 883              	.LBB235:
 884              	.LBB236:
 885              		.loc 2 546 0 discriminator 5
 886              		.syntax unified
 887              	@ 546 "..//ChibiOS//os/ext/CMSIS/include/core_cmFunc.h" 1
 888 01b6 86F31188 		MSR basepri, r6
 889              	@ 0 "" 2
 890              	.LVL79:
 891              		.thumb
 892              		.syntax unified
 893 01ba 37E7     		b	.L43
 894              	.L93:
 895              	.LBE236:
 896              	.LBE235:
 897              	.LBE234:
 898              	.LBE233:
 899              	.LBE232:
 900              	.LBE231:
 901              	.LBE230:
 902              		.loc 1 157 0
 903 01bc FFF7FEFF 		bl	__stack_chk_fail
 904              	.LVL80:
 905              	.L95:
 906              		.align	2
 907              	.L94:
 908 01c0 00000000 		.word	__stack_chk_guard
 909 01c4 00200140 		.word	1073815552
 910 01c8 00000000 		.word	.LANCHOR0
 911 01cc 00210140 		.word	1073815808
 912 01d0 00000000 		.word	.LANCHOR1
ARM GAS  C:\Users\Moi\AppData\Local\Temp\cccka72G.s 			page 17


 913 01d4 00220140 		.word	1073816064
 914 01d8 00000000 		.word	.LANCHOR2
 915 01dc 14000000 		.word	.LANCHOR2+20
 916 01e0 14000000 		.word	.LANCHOR1+20
 917 01e4 14000000 		.word	.LANCHOR0+20
 918              		.cfi_endproc
 919              	.LFE257:
 920              		.size	Vector88, .-Vector88
 921              		.section	.text.adc_lld_init,"ax",%progbits
 922              		.align	1
 923              		.p2align 4,,15
 924              		.global	adc_lld_init
 925              		.syntax unified
 926              		.thumb
 927              		.thumb_func
 928              		.fpu fpv4-sp-d16
 929              		.type	adc_lld_init, %function
 930              	adc_lld_init:
 931              	.LFB258:
 932              		.loc 1 170 0
 933              		.cfi_startproc
 934              		@ args = 0, pretend = 0, frame = 8
 935              		@ frame_needed = 0, uses_anonymous_args = 0
 936 0000 2DE9F041 		push	{r4, r5, r6, r7, r8, lr}
 937              		.cfi_def_cfa_offset 24
 938              		.cfi_offset 4, -24
 939              		.cfi_offset 5, -20
 940              		.cfi_offset 6, -16
 941              		.cfi_offset 7, -12
 942              		.cfi_offset 8, -8
 943              		.cfi_offset 14, -4
 944              		.loc 1 174 0
 945 0004 194F     		ldr	r7, .L101
 946              		.loc 1 170 0
 947 0006 DFF88C80 		ldr	r8, .L101+40
 948              		.loc 1 187 0
 949 000a 194E     		ldr	r6, .L101+4
 950              		.loc 1 170 0
 951 000c D8F80030 		ldr	r3, [r8]
 952              		.loc 1 176 0
 953 0010 184C     		ldr	r4, .L101+8
 954              		.loc 1 200 0
 955 0012 194D     		ldr	r5, .L101+12
 956              		.loc 1 170 0
 957 0014 82B0     		sub	sp, sp, #8
 958              		.cfi_def_cfa_offset 32
 959              		.loc 1 174 0
 960 0016 3846     		mov	r0, r7
 961              		.loc 1 170 0
 962 0018 0193     		str	r3, [sp, #4]
 963              		.loc 1 174 0
 964 001a FFF7FEFF 		bl	adcObjectInit
 965              	.LVL81:
 966              		.loc 1 175 0
 967 001e 174B     		ldr	r3, .L101+16
 968 0020 FB62     		str	r3, [r7, #44]
 969              		.loc 1 187 0
ARM GAS  C:\Users\Moi\AppData\Local\Temp\cccka72G.s 			page 18


 970 0022 3046     		mov	r0, r6
 971              		.loc 1 177 0
 972 0024 164B     		ldr	r3, .L101+20
 973 0026 7B63     		str	r3, [r7, #52]
 974              		.loc 1 176 0
 975 0028 3C63     		str	r4, [r7, #48]
 976              		.loc 1 187 0
 977 002a FFF7FEFF 		bl	adcObjectInit
 978              	.LVL82:
 979              		.loc 1 188 0
 980 002e 154A     		ldr	r2, .L101+24
 981              		.loc 1 190 0
 982 0030 154B     		ldr	r3, .L101+28
 983              		.loc 1 188 0
 984 0032 F262     		str	r2, [r6, #44]
 985              		.loc 1 200 0
 986 0034 2846     		mov	r0, r5
 987              		.loc 1 189 0
 988 0036 A4F11802 		sub	r2, r4, #24
 989 003a 3263     		str	r2, [r6, #48]
 990              		.loc 1 190 0
 991 003c 7363     		str	r3, [r6, #52]
 992              		.loc 1 200 0
 993 003e FFF7FEFF 		bl	adcObjectInit
 994              	.LVL83:
 995              		.loc 1 213 0
 996 0042 019A     		ldr	r2, [sp, #4]
 997 0044 D8F80030 		ldr	r3, [r8]
 998              		.loc 1 203 0
 999 0048 1049     		ldr	r1, .L101+32
 1000              		.loc 1 201 0
 1001 004a 1148     		ldr	r0, .L101+36
 1002 004c E862     		str	r0, [r5, #44]
 1003              		.loc 1 202 0
 1004 004e 243C     		subs	r4, r4, #36
 1005              		.loc 1 213 0
 1006 0050 9A42     		cmp	r2, r3
 1007              		.loc 1 203 0
 1008 0052 C5E90C41 		strd	r4, r1, [r5, #48]
 1009              		.loc 1 213 0
 1010 0056 06D1     		bne	.L100
 1011 0058 0621     		movs	r1, #6
 1012 005a 1220     		movs	r0, #18
 1013              		.loc 1 214 0
 1014 005c 02B0     		add	sp, sp, #8
 1015              		.cfi_remember_state
 1016              		.cfi_def_cfa_offset 24
 1017              		@ sp needed
 1018 005e BDE8F041 		pop	{r4, r5, r6, r7, r8, lr}
 1019              		.cfi_restore 14
 1020              		.cfi_restore 8
 1021              		.cfi_restore 7
 1022              		.cfi_restore 6
 1023              		.cfi_restore 5
 1024              		.cfi_restore 4
 1025              		.cfi_def_cfa_offset 0
 1026              		.loc 1 213 0
ARM GAS  C:\Users\Moi\AppData\Local\Temp\cccka72G.s 			page 19


 1027 0062 FFF7FEBF 		b	nvicEnableVector
 1028              	.LVL84:
 1029              	.L100:
 1030              		.cfi_restore_state
 1031 0066 FFF7FEFF 		bl	__stack_chk_fail
 1032              	.LVL85:
 1033              	.L102:
 1034 006a 00BF     		.align	2
 1035              	.L101:
 1036 006c 00000000 		.word	.LANCHOR0
 1037 0070 00000000 		.word	.LANCHOR1
 1038 0074 90000000 		.word	_stm32_dma_streams+144
 1039 0078 00000000 		.word	.LANCHOR2
 1040 007c 00200140 		.word	1073815552
 1041 0080 162C0200 		.word	142358
 1042 0084 00210140 		.word	1073815808
 1043 0088 162C0202 		.word	33696790
 1044 008c 162C0204 		.word	67251222
 1045 0090 00220140 		.word	1073816064
 1046 0094 00000000 		.word	__stack_chk_guard
 1047              		.cfi_endproc
 1048              	.LFE258:
 1049              		.size	adc_lld_init, .-adc_lld_init
 1050              		.section	.text.adc_lld_start,"ax",%progbits
 1051              		.align	1
 1052              		.p2align 4,,15
 1053              		.global	adc_lld_start
 1054              		.syntax unified
 1055              		.thumb
 1056              		.thumb_func
 1057              		.fpu fpv4-sp-d16
 1058              		.type	adc_lld_start, %function
 1059              	adc_lld_start:
 1060              	.LFB259:
 1061              		.loc 1 223 0
 1062              		.cfi_startproc
 1063              		@ args = 0, pretend = 0, frame = 8
 1064              		@ frame_needed = 0, uses_anonymous_args = 0
 1065              	.LVL86:
 1066 0000 70B5     		push	{r4, r5, r6, lr}
 1067              		.cfi_def_cfa_offset 16
 1068              		.cfi_offset 4, -16
 1069              		.cfi_offset 5, -12
 1070              		.cfi_offset 6, -8
 1071              		.cfi_offset 14, -4
 1072              		.loc 1 226 0
 1073 0002 0378     		ldrb	r3, [r0]	@ zero_extendqisi2
 1074              		.loc 1 223 0
 1075 0004 324D     		ldr	r5, .L130
 1076 0006 82B0     		sub	sp, sp, #8
 1077              		.cfi_def_cfa_offset 24
 1078              		.loc 1 223 0
 1079 0008 2A68     		ldr	r2, [r5]
 1080 000a 0192     		str	r2, [sp, #4]
 1081              		.loc 1 226 0
 1082 000c 012B     		cmp	r3, #1
 1083 000e 05D0     		beq	.L122
ARM GAS  C:\Users\Moi\AppData\Local\Temp\cccka72G.s 			page 20


 1084              	.LVL87:
 1085              	.L103:
 1086              		.loc 1 277 0
 1087 0010 019A     		ldr	r2, [sp, #4]
 1088 0012 2B68     		ldr	r3, [r5]
 1089 0014 9A42     		cmp	r2, r3
 1090 0016 59D1     		bne	.L123
 1091 0018 02B0     		add	sp, sp, #8
 1092              		.cfi_remember_state
 1093              		.cfi_def_cfa_offset 16
 1094              		@ sp needed
 1095 001a 70BD     		pop	{r4, r5, r6, pc}
 1096              	.LVL88:
 1097              	.L122:
 1098              		.cfi_restore_state
 1099              		.loc 1 228 0
 1100 001c 2D4E     		ldr	r6, .L130+4
 1101 001e B042     		cmp	r0, r6
 1102 0020 0446     		mov	r4, r0
 1103 0022 36D0     		beq	.L124
 1104              		.loc 1 241 0
 1105 0024 2C4E     		ldr	r6, .L130+8
 1106 0026 B042     		cmp	r0, r6
 1107 0028 22D0     		beq	.L125
 1108              		.loc 1 254 0
 1109 002a 2C4E     		ldr	r6, .L130+12
 1110 002c B042     		cmp	r0, r6
 1111 002e 0DD0     		beq	.L126
 1112              	.LVL89:
 1113              	.L107:
 1114              		.loc 1 268 0
 1115 0030 2B48     		ldr	r0, .L130+16
 1116              		.loc 1 273 0
 1117 0032 E26A     		ldr	r2, [r4, #44]
 1118              		.loc 1 268 0
 1119 0034 4368     		ldr	r3, [r0, #4]
 1120 0036 03F44003 		and	r3, r3, #12582912
 1121              		.loc 1 273 0
 1122 003a 0021     		movs	r1, #0
 1123              		.loc 1 268 0
 1124 003c 43F44033 		orr	r3, r3, #196608
 1125              		.loc 1 275 0
 1126 0040 0124     		movs	r4, #1
 1127              	.LVL90:
 1128              		.loc 1 268 0
 1129 0042 4360     		str	r3, [r0, #4]
 1130              		.loc 1 273 0
 1131 0044 5160     		str	r1, [r2, #4]
 1132              		.loc 1 274 0
 1133 0046 9160     		str	r1, [r2, #8]
 1134              		.loc 1 275 0
 1135 0048 9460     		str	r4, [r2, #8]
 1136              		.loc 1 277 0
 1137 004a E1E7     		b	.L103
 1138              	.LVL91:
 1139              	.L126:
 1140              	.LBB237:
ARM GAS  C:\Users\Moi\AppData\Local\Temp\cccka72G.s 			page 21


 1141              		.loc 1 256 0
 1142 004c 0346     		mov	r3, r0
 1143 004e 254A     		ldr	r2, .L130+20
 1144 0050 006B     		ldr	r0, [r0, #48]
 1145              	.LVL92:
 1146 0052 0621     		movs	r1, #6
 1147 0054 FFF7FEFF 		bl	dmaStreamAllocate
 1148              	.LVL93:
 1149              		.loc 1 260 0
 1150 0058 0028     		cmp	r0, #0
 1151 005a 33D1     		bne	.L127
 1152              	.LVL94:
 1153              	.L110:
 1154              		.loc 1 261 0
 1155 005c 336B     		ldr	r3, [r6, #48]
 1156              		.loc 1 262 0
 1157 005e 224A     		ldr	r2, .L130+24
 1158              		.loc 1 261 0
 1159 0060 1B68     		ldr	r3, [r3]
 1160 0062 2249     		ldr	r1, .L130+28
 1161 0064 9960     		str	r1, [r3, #8]
 1162              		.loc 1 262 0
 1163 0066 536C     		ldr	r3, [r2, #68]
 1164 0068 43F48063 		orr	r3, r3, #1024
 1165 006c 5364     		str	r3, [r2, #68]
 1166 006e DFE7     		b	.L107
 1167              	.LVL95:
 1168              	.L125:
 1169              	.LBE237:
 1170              	.LBB238:
 1171              		.loc 1 243 0
 1172 0070 0346     		mov	r3, r0
 1173 0072 1C4A     		ldr	r2, .L130+20
 1174 0074 006B     		ldr	r0, [r0, #48]
 1175              	.LVL96:
 1176 0076 0621     		movs	r1, #6
 1177 0078 FFF7FEFF 		bl	dmaStreamAllocate
 1178              	.LVL97:
 1179              		.loc 1 247 0
 1180 007c F0B9     		cbnz	r0, .L128
 1181              	.LVL98:
 1182              	.L109:
 1183              		.loc 1 248 0
 1184 007e 336B     		ldr	r3, [r6, #48]
 1185              		.loc 1 249 0
 1186 0080 194A     		ldr	r2, .L130+24
 1187              		.loc 1 248 0
 1188 0082 1B68     		ldr	r3, [r3]
 1189 0084 1A49     		ldr	r1, .L130+32
 1190 0086 9960     		str	r1, [r3, #8]
 1191              		.loc 1 249 0
 1192 0088 536C     		ldr	r3, [r2, #68]
 1193 008a 43F40073 		orr	r3, r3, #512
 1194 008e 5364     		str	r3, [r2, #68]
 1195 0090 CEE7     		b	.L107
 1196              	.LVL99:
 1197              	.L124:
ARM GAS  C:\Users\Moi\AppData\Local\Temp\cccka72G.s 			page 22


 1198              	.LBE238:
 1199              	.LBB239:
 1200              		.loc 1 230 0
 1201 0092 0346     		mov	r3, r0
 1202 0094 134A     		ldr	r2, .L130+20
 1203 0096 006B     		ldr	r0, [r0, #48]
 1204              	.LVL100:
 1205 0098 0621     		movs	r1, #6
 1206 009a FFF7FEFF 		bl	dmaStreamAllocate
 1207              	.LVL101:
 1208              		.loc 1 234 0
 1209 009e 48B9     		cbnz	r0, .L129
 1210              	.LVL102:
 1211              	.L106:
 1212              		.loc 1 235 0
 1213 00a0 336B     		ldr	r3, [r6, #48]
 1214              		.loc 1 236 0
 1215 00a2 114A     		ldr	r2, .L130+24
 1216              		.loc 1 235 0
 1217 00a4 1B68     		ldr	r3, [r3]
 1218 00a6 1349     		ldr	r1, .L130+36
 1219 00a8 9960     		str	r1, [r3, #8]
 1220              		.loc 1 236 0
 1221 00aa 536C     		ldr	r3, [r2, #68]
 1222 00ac 43F48073 		orr	r3, r3, #256
 1223 00b0 5364     		str	r3, [r2, #68]
 1224 00b2 BDE7     		b	.L107
 1225              	.LVL103:
 1226              	.L129:
 1227              		.loc 1 234 0 discriminator 2
 1228 00b4 1048     		ldr	r0, .L130+40
 1229              	.LVL104:
 1230 00b6 FFF7FEFF 		bl	chSysHalt
 1231              	.LVL105:
 1232 00ba F1E7     		b	.L106
 1233              	.LVL106:
 1234              	.L128:
 1235              	.LBE239:
 1236              	.LBB240:
 1237              		.loc 1 247 0 discriminator 2
 1238 00bc 0E48     		ldr	r0, .L130+40
 1239              	.LVL107:
 1240 00be FFF7FEFF 		bl	chSysHalt
 1241              	.LVL108:
 1242 00c2 DCE7     		b	.L109
 1243              	.LVL109:
 1244              	.L127:
 1245              	.LBE240:
 1246              	.LBB241:
 1247              		.loc 1 260 0 discriminator 2
 1248 00c4 0C48     		ldr	r0, .L130+40
 1249              	.LVL110:
 1250 00c6 FFF7FEFF 		bl	chSysHalt
 1251              	.LVL111:
 1252 00ca C7E7     		b	.L110
 1253              	.LVL112:
 1254              	.L123:
ARM GAS  C:\Users\Moi\AppData\Local\Temp\cccka72G.s 			page 23


 1255              	.LBE241:
 1256              		.loc 1 277 0
 1257 00cc FFF7FEFF 		bl	__stack_chk_fail
 1258              	.LVL113:
 1259              	.L131:
 1260              		.align	2
 1261              	.L130:
 1262 00d0 00000000 		.word	__stack_chk_guard
 1263 00d4 00000000 		.word	.LANCHOR0
 1264 00d8 00000000 		.word	.LANCHOR1
 1265 00dc 00000000 		.word	.LANCHOR2
 1266 00e0 00230140 		.word	1073816320
 1267 00e4 00000000 		.word	adc_lld_serve_rx_interrupt
 1268 00e8 00380240 		.word	1073887232
 1269 00ec 4C220140 		.word	1073816140
 1270 00f0 4C210140 		.word	1073815884
 1271 00f4 4C200140 		.word	1073815628
 1272 00f8 00000000 		.word	.LANCHOR3
 1273              		.cfi_endproc
 1274              	.LFE259:
 1275              		.size	adc_lld_start, .-adc_lld_start
 1276              		.section	.text.adc_lld_stop,"ax",%progbits
 1277              		.align	1
 1278              		.p2align 4,,15
 1279              		.global	adc_lld_stop
 1280              		.syntax unified
 1281              		.thumb
 1282              		.thumb_func
 1283              		.fpu fpv4-sp-d16
 1284              		.type	adc_lld_stop, %function
 1285              	adc_lld_stop:
 1286              	.LFB260:
 1287              		.loc 1 286 0
 1288              		.cfi_startproc
 1289              		@ args = 0, pretend = 0, frame = 8
 1290              		@ frame_needed = 0, uses_anonymous_args = 0
 1291              	.LVL114:
 1292 0000 30B5     		push	{r4, r5, lr}
 1293              		.cfi_def_cfa_offset 12
 1294              		.cfi_offset 4, -12
 1295              		.cfi_offset 5, -8
 1296              		.cfi_offset 14, -4
 1297              		.loc 1 289 0
 1298 0002 0378     		ldrb	r3, [r0]	@ zero_extendqisi2
 1299              		.loc 1 286 0
 1300 0004 184C     		ldr	r4, .L144
 1301 0006 83B0     		sub	sp, sp, #12
 1302              		.cfi_def_cfa_offset 24
 1303              		.loc 1 286 0
 1304 0008 2268     		ldr	r2, [r4]
 1305 000a 0192     		str	r2, [sp, #4]
 1306              		.loc 1 289 0
 1307 000c 022B     		cmp	r3, #2
 1308 000e 05D0     		beq	.L140
 1309              	.LVL115:
 1310              	.L132:
 1311              		.loc 1 309 0
ARM GAS  C:\Users\Moi\AppData\Local\Temp\cccka72G.s 			page 24


 1312 0010 019A     		ldr	r2, [sp, #4]
 1313 0012 2368     		ldr	r3, [r4]
 1314 0014 9A42     		cmp	r2, r3
 1315 0016 24D1     		bne	.L141
 1316 0018 03B0     		add	sp, sp, #12
 1317              		.cfi_remember_state
 1318              		.cfi_def_cfa_offset 12
 1319              		@ sp needed
 1320 001a 30BD     		pop	{r4, r5, pc}
 1321              	.LVL116:
 1322              	.L140:
 1323              		.cfi_restore_state
 1324 001c 0546     		mov	r5, r0
 1325              		.loc 1 290 0
 1326 001e 006B     		ldr	r0, [r0, #48]
 1327              	.LVL117:
 1328 0020 FFF7FEFF 		bl	dmaStreamRelease
 1329              	.LVL118:
 1330              		.loc 1 295 0
 1331 0024 1149     		ldr	r1, .L144+4
 1332              		.loc 1 291 0
 1333 0026 EB6A     		ldr	r3, [r5, #44]
 1334 0028 0022     		movs	r2, #0
 1335              		.loc 1 295 0
 1336 002a 8D42     		cmp	r5, r1
 1337              		.loc 1 291 0
 1338 002c 5A60     		str	r2, [r3, #4]
 1339              		.loc 1 292 0
 1340 002e 9A60     		str	r2, [r3, #8]
 1341              		.loc 1 295 0
 1342 0030 0BD0     		beq	.L142
 1343              		.loc 1 300 0
 1344 0032 0F4B     		ldr	r3, .L144+8
 1345 0034 9D42     		cmp	r5, r3
 1346 0036 0ED0     		beq	.L143
 1347              		.loc 1 305 0
 1348 0038 0E4B     		ldr	r3, .L144+12
 1349 003a 9D42     		cmp	r5, r3
 1350 003c E8D1     		bne	.L132
 1351              		.loc 1 306 0
 1352 003e 0E4A     		ldr	r2, .L144+16
 1353 0040 536C     		ldr	r3, [r2, #68]
 1354 0042 23F48063 		bic	r3, r3, #1024
 1355 0046 5364     		str	r3, [r2, #68]
 1356              		.loc 1 309 0
 1357 0048 E2E7     		b	.L132
 1358              	.L142:
 1359              		.loc 1 296 0
 1360 004a 0B4A     		ldr	r2, .L144+16
 1361 004c 536C     		ldr	r3, [r2, #68]
 1362 004e 23F48073 		bic	r3, r3, #256
 1363 0052 5364     		str	r3, [r2, #68]
 1364 0054 DCE7     		b	.L132
 1365              	.L143:
 1366              		.loc 1 301 0
 1367 0056 084A     		ldr	r2, .L144+16
 1368 0058 536C     		ldr	r3, [r2, #68]
ARM GAS  C:\Users\Moi\AppData\Local\Temp\cccka72G.s 			page 25


 1369 005a 23F40073 		bic	r3, r3, #512
 1370 005e 5364     		str	r3, [r2, #68]
 1371 0060 D6E7     		b	.L132
 1372              	.LVL119:
 1373              	.L141:
 1374              		.loc 1 309 0
 1375 0062 FFF7FEFF 		bl	__stack_chk_fail
 1376              	.LVL120:
 1377              	.L145:
 1378 0066 00BF     		.align	2
 1379              	.L144:
 1380 0068 00000000 		.word	__stack_chk_guard
 1381 006c 00000000 		.word	.LANCHOR0
 1382 0070 00000000 		.word	.LANCHOR1
 1383 0074 00000000 		.word	.LANCHOR2
 1384 0078 00380240 		.word	1073887232
 1385              		.cfi_endproc
 1386              	.LFE260:
 1387              		.size	adc_lld_stop, .-adc_lld_stop
 1388              		.section	.text.adc_lld_start_conversion,"ax",%progbits
 1389              		.align	1
 1390              		.p2align 4,,15
 1391              		.global	adc_lld_start_conversion
 1392              		.syntax unified
 1393              		.thumb
 1394              		.thumb_func
 1395              		.fpu fpv4-sp-d16
 1396              		.type	adc_lld_start_conversion, %function
 1397              	adc_lld_start_conversion:
 1398              	.LFB261:
 1399              		.loc 1 318 0
 1400              		.cfi_startproc
 1401              		@ args = 0, pretend = 0, frame = 8
 1402              		@ frame_needed = 0, uses_anonymous_args = 0
 1403              	.LVL121:
 1404 0000 F0B5     		push	{r4, r5, r6, r7, lr}
 1405              		.cfi_def_cfa_offset 20
 1406              		.cfi_offset 4, -20
 1407              		.cfi_offset 5, -16
 1408              		.cfi_offset 6, -12
 1409              		.cfi_offset 7, -8
 1410              		.cfi_offset 14, -4
 1411              		.loc 1 321 0
 1412 0002 0369     		ldr	r3, [r0, #16]
 1413              	.LVL122:
 1414              		.loc 1 318 0
 1415 0004 244E     		ldr	r6, .L158
 1416              		.loc 1 325 0
 1417 0006 1978     		ldrb	r1, [r3]	@ zero_extendqisi2
 1418              		.loc 1 318 0
 1419 0008 3268     		ldr	r2, [r6]
 1420              		.loc 1 324 0
 1421 000a 456B     		ldr	r5, [r0, #52]
 1422              	.LVL123:
 1423              		.loc 1 318 0
 1424 000c 83B0     		sub	sp, sp, #12
 1425              		.cfi_def_cfa_offset 32
ARM GAS  C:\Users\Moi\AppData\Local\Temp\cccka72G.s 			page 26


 1426              		.loc 1 318 0
 1427 000e 0192     		str	r2, [sp, #4]
 1428 0010 C268     		ldr	r2, [r0, #12]
 1429              		.loc 1 325 0
 1430 0012 29B1     		cbz	r1, .L147
 1431              	.LVL124:
 1432              		.loc 1 327 0
 1433 0014 012A     		cmp	r2, #1
 1434              		.loc 1 326 0
 1435 0016 94BF     		ite	ls
 1436 0018 45F48075 		orrls	r5, r5, #256
 1437              	.LVL125:
 1438              		.loc 1 330 0
 1439 001c 45F48475 		orrhi	r5, r5, #264
 1440              	.LVL126:
 1441              	.L147:
 1442              		.loc 1 333 0
 1443 0020 046B     		ldr	r4, [r0, #48]
 1444              		.loc 1 334 0
 1445 0022 5988     		ldrh	r1, [r3, #2]
 1446              		.loc 1 333 0
 1447 0024 2468     		ldr	r4, [r4]
 1448 0026 8768     		ldr	r7, [r0, #8]
 1449 0028 E760     		str	r7, [r4, #12]
 1450              		.loc 1 334 0
 1451 002a 02FB01F2 		mul	r2, r2, r1
 1452 002e 6260     		str	r2, [r4, #4]
 1453              		.loc 1 348 0
 1454 0030 D968     		ldr	r1, [r3, #12]
 1455              		.loc 1 336 0
 1456 0032 2560     		str	r5, [r4]
 1457              		.loc 1 337 0
 1458 0034 2568     		ldr	r5, [r4]
 1459              	.LVL127:
 1460              		.loc 1 340 0
 1461 0036 C26A     		ldr	r2, [r0, #44]
 1462              		.loc 1 342 0
 1463 0038 9F69     		ldr	r7, [r3, #24]
 1464              		.loc 1 337 0
 1465 003a 45F00105 		orr	r5, r5, #1
 1466              		.loc 1 341 0
 1467 003e D3E9040C 		ldrd	r0, ip, [r3, #16]
 1468              	.LVL128:
 1469              		.loc 1 337 0
 1470 0042 2560     		str	r5, [r4]
 1471              	.LVL129:
 1472              		.loc 1 340 0
 1473 0044 0024     		movs	r4, #0
 1474 0046 1460     		str	r4, [r2]
 1475              		.loc 1 343 0
 1476 0048 DD69     		ldr	r5, [r3, #28]
 1477              		.loc 1 341 0
 1478 004a C2F80CC0 		str	ip, [r2, #12]
 1479              		.loc 1 345 0
 1480 004e D3E90843 		ldrd	r4, r3, [r3, #32]
 1481              	.LVL130:
 1482              		.loc 1 348 0
ARM GAS  C:\Users\Moi\AppData\Local\Temp\cccka72G.s 			page 27


 1483 0052 41F08061 		orr	r1, r1, #67108864
 1484              		.loc 1 342 0
 1485 0056 1761     		str	r7, [r2, #16]
 1486              		.loc 1 348 0
 1487 0058 41F48071 		orr	r1, r1, #256
 1488              		.loc 1 343 0
 1489 005c D562     		str	r5, [r2, #44]
 1490              		.loc 1 344 0
 1491 005e 1463     		str	r4, [r2, #48]
 1492              		.loc 1 345 0
 1493 0060 5363     		str	r3, [r2, #52]
 1494              		.loc 1 355 0
 1495 0062 4300     		lsls	r3, r0, #1
 1496              		.loc 1 348 0
 1497 0064 5160     		str	r1, [r2, #4]
 1498              		.loc 1 355 0
 1499 0066 0AD4     		bmi	.L156
 1500              		.loc 1 351 0
 1501 0068 40F44070 		orr	r0, r0, #768
 1502 006c 40F00100 		orr	r0, r0, #1
 1503              		.loc 1 363 0
 1504 0070 9060     		str	r0, [r2, #8]
 1505              	.L146:
 1506              		.loc 1 364 0
 1507 0072 019A     		ldr	r2, [sp, #4]
 1508 0074 3368     		ldr	r3, [r6]
 1509 0076 9A42     		cmp	r2, r3
 1510 0078 0CD1     		bne	.L157
 1511 007a 03B0     		add	sp, sp, #12
 1512              		.cfi_remember_state
 1513              		.cfi_def_cfa_offset 20
 1514              		@ sp needed
 1515 007c F0BD     		pop	{r4, r5, r6, r7, pc}
 1516              	.L156:
 1517              		.cfi_restore_state
 1518              		.loc 1 357 0
 1519 007e 20F08043 		bic	r3, r0, #1073741824
 1520 0082 40F20331 		movw	r1, #771
 1521 0086 23F00203 		bic	r3, r3, #2
 1522 008a 0B43     		orrs	r3, r3, r1
 1523              		.loc 1 360 0
 1524 008c 0843     		orrs	r0, r0, r1
 1525              		.loc 1 357 0
 1526 008e 9360     		str	r3, [r2, #8]
 1527              		.loc 1 360 0
 1528 0090 9060     		str	r0, [r2, #8]
 1529 0092 EEE7     		b	.L146
 1530              	.L157:
 1531              		.loc 1 364 0
 1532 0094 FFF7FEFF 		bl	__stack_chk_fail
 1533              	.LVL131:
 1534              	.L159:
 1535              		.align	2
 1536              	.L158:
 1537 0098 00000000 		.word	__stack_chk_guard
 1538              		.cfi_endproc
 1539              	.LFE261:
ARM GAS  C:\Users\Moi\AppData\Local\Temp\cccka72G.s 			page 28


 1540              		.size	adc_lld_start_conversion, .-adc_lld_start_conversion
 1541              		.section	.text.adc_lld_stop_conversion,"ax",%progbits
 1542              		.align	1
 1543              		.p2align 4,,15
 1544              		.global	adc_lld_stop_conversion
 1545              		.syntax unified
 1546              		.thumb
 1547              		.thumb_func
 1548              		.fpu fpv4-sp-d16
 1549              		.type	adc_lld_stop_conversion, %function
 1550              	adc_lld_stop_conversion:
 1551              	.LFB262:
 1552              		.loc 1 373 0
 1553              		.cfi_startproc
 1554              		@ args = 0, pretend = 0, frame = 8
 1555              		@ frame_needed = 0, uses_anonymous_args = 0
 1556              	.LVL132:
 1557 0000 70B5     		push	{r4, r5, r6, lr}
 1558              		.cfi_def_cfa_offset 16
 1559              		.cfi_offset 4, -16
 1560              		.cfi_offset 5, -12
 1561              		.cfi_offset 6, -8
 1562              		.cfi_offset 14, -4
 1563              		.loc 1 375 0
 1564 0002 046B     		ldr	r4, [r0, #48]
 1565              		.loc 1 373 0
 1566 0004 0F4D     		ldr	r5, .L166
 1567              		.loc 1 375 0
 1568 0006 2268     		ldr	r2, [r4]
 1569              		.loc 1 373 0
 1570 0008 2B68     		ldr	r3, [r5]
 1571 000a 82B0     		sub	sp, sp, #8
 1572              		.cfi_def_cfa_offset 24
 1573              		.loc 1 373 0
 1574 000c 0193     		str	r3, [sp, #4]
 1575              		.loc 1 375 0
 1576 000e 1368     		ldr	r3, [r2]
 1577 0010 23F01F03 		bic	r3, r3, #31
 1578 0014 1360     		str	r3, [r2]
 1579              	.L161:
 1580              		.loc 1 375 0 is_stmt 0 discriminator 2
 1581 0016 1368     		ldr	r3, [r2]
 1582 0018 13F00103 		ands	r3, r3, #1
 1583 001c FBD1     		bne	.L161
 1584              		.loc 1 375 0 discriminator 3
 1585 001e 267A     		ldrb	r6, [r4, #8]	@ zero_extendqisi2
 1586              		.loc 1 376 0 is_stmt 1 discriminator 3
 1587 0020 C26A     		ldr	r2, [r0, #44]
 1588              		.loc 1 375 0 discriminator 3
 1589 0022 6468     		ldr	r4, [r4, #4]
 1590 0024 3D21     		movs	r1, #61
 1591 0026 B140     		lsls	r1, r1, r6
 1592              		.loc 1 378 0 discriminator 3
 1593 0028 0120     		movs	r0, #1
 1594              	.LVL133:
 1595              		.loc 1 375 0 discriminator 3
 1596 002a 2160     		str	r1, [r4]
ARM GAS  C:\Users\Moi\AppData\Local\Temp\cccka72G.s 			page 29


 1597              		.loc 1 376 0 discriminator 3
 1598 002c 5360     		str	r3, [r2, #4]
 1599              		.loc 1 377 0 discriminator 3
 1600 002e 9360     		str	r3, [r2, #8]
 1601              		.loc 1 378 0 discriminator 3
 1602 0030 9060     		str	r0, [r2, #8]
 1603              		.loc 1 379 0 discriminator 3
 1604 0032 019A     		ldr	r2, [sp, #4]
 1605 0034 2B68     		ldr	r3, [r5]
 1606 0036 9A42     		cmp	r2, r3
 1607 0038 01D1     		bne	.L165
 1608              		.loc 1 379 0 is_stmt 0
 1609 003a 02B0     		add	sp, sp, #8
 1610              		.cfi_remember_state
 1611              		.cfi_def_cfa_offset 16
 1612              		@ sp needed
 1613 003c 70BD     		pop	{r4, r5, r6, pc}
 1614              	.L165:
 1615              		.cfi_restore_state
 1616 003e FFF7FEFF 		bl	__stack_chk_fail
 1617              	.LVL134:
 1618              	.L167:
 1619 0042 00BF     		.align	2
 1620              	.L166:
 1621 0044 00000000 		.word	__stack_chk_guard
 1622              		.cfi_endproc
 1623              	.LFE262:
 1624              		.size	adc_lld_stop_conversion, .-adc_lld_stop_conversion
 1625              		.section	.text.adcSTM32EnableTSVREFE,"ax",%progbits
 1626              		.align	1
 1627              		.p2align 4,,15
 1628              		.global	adcSTM32EnableTSVREFE
 1629              		.syntax unified
 1630              		.thumb
 1631              		.thumb_func
 1632              		.fpu fpv4-sp-d16
 1633              		.type	adcSTM32EnableTSVREFE, %function
 1634              	adcSTM32EnableTSVREFE:
 1635              	.LFB263:
 1636              		.loc 1 387 0 is_stmt 1
 1637              		.cfi_startproc
 1638              		@ args = 0, pretend = 0, frame = 8
 1639              		@ frame_needed = 0, uses_anonymous_args = 0
 1640 0000 00B5     		push	{lr}
 1641              		.cfi_def_cfa_offset 4
 1642              		.cfi_offset 14, -4
 1643 0002 094A     		ldr	r2, .L172
 1644              		.loc 1 389 0
 1645 0004 0949     		ldr	r1, .L172+4
 1646              		.loc 1 387 0
 1647 0006 1368     		ldr	r3, [r2]
 1648 0008 83B0     		sub	sp, sp, #12
 1649              		.cfi_def_cfa_offset 16
 1650              		.loc 1 387 0
 1651 000a 0193     		str	r3, [sp, #4]
 1652              		.loc 1 389 0
 1653 000c 4B68     		ldr	r3, [r1, #4]
ARM GAS  C:\Users\Moi\AppData\Local\Temp\cccka72G.s 			page 30


 1654 000e 43F40003 		orr	r3, r3, #8388608
 1655 0012 4B60     		str	r3, [r1, #4]
 1656              		.loc 1 390 0
 1657 0014 0199     		ldr	r1, [sp, #4]
 1658 0016 1368     		ldr	r3, [r2]
 1659 0018 9942     		cmp	r1, r3
 1660 001a 02D1     		bne	.L171
 1661 001c 03B0     		add	sp, sp, #12
 1662              		.cfi_remember_state
 1663              		.cfi_def_cfa_offset 4
 1664              		@ sp needed
 1665 001e 5DF804FB 		ldr	pc, [sp], #4
 1666              	.L171:
 1667              		.cfi_restore_state
 1668 0022 FFF7FEFF 		bl	__stack_chk_fail
 1669              	.LVL135:
 1670              	.L173:
 1671 0026 00BF     		.align	2
 1672              	.L172:
 1673 0028 00000000 		.word	__stack_chk_guard
 1674 002c 00230140 		.word	1073816320
 1675              		.cfi_endproc
 1676              	.LFE263:
 1677              		.size	adcSTM32EnableTSVREFE, .-adcSTM32EnableTSVREFE
 1678              		.section	.text.adcSTM32DisableTSVREFE,"ax",%progbits
 1679              		.align	1
 1680              		.p2align 4,,15
 1681              		.global	adcSTM32DisableTSVREFE
 1682              		.syntax unified
 1683              		.thumb
 1684              		.thumb_func
 1685              		.fpu fpv4-sp-d16
 1686              		.type	adcSTM32DisableTSVREFE, %function
 1687              	adcSTM32DisableTSVREFE:
 1688              	.LFB264:
 1689              		.loc 1 398 0
 1690              		.cfi_startproc
 1691              		@ args = 0, pretend = 0, frame = 8
 1692              		@ frame_needed = 0, uses_anonymous_args = 0
 1693 0000 00B5     		push	{lr}
 1694              		.cfi_def_cfa_offset 4
 1695              		.cfi_offset 14, -4
 1696 0002 094A     		ldr	r2, .L178
 1697              		.loc 1 400 0
 1698 0004 0949     		ldr	r1, .L178+4
 1699              		.loc 1 398 0
 1700 0006 1368     		ldr	r3, [r2]
 1701 0008 83B0     		sub	sp, sp, #12
 1702              		.cfi_def_cfa_offset 16
 1703              		.loc 1 398 0
 1704 000a 0193     		str	r3, [sp, #4]
 1705              		.loc 1 400 0
 1706 000c 4B68     		ldr	r3, [r1, #4]
 1707 000e 23F40003 		bic	r3, r3, #8388608
 1708 0012 4B60     		str	r3, [r1, #4]
 1709              		.loc 1 401 0
 1710 0014 0199     		ldr	r1, [sp, #4]
ARM GAS  C:\Users\Moi\AppData\Local\Temp\cccka72G.s 			page 31


 1711 0016 1368     		ldr	r3, [r2]
 1712 0018 9942     		cmp	r1, r3
 1713 001a 02D1     		bne	.L177
 1714 001c 03B0     		add	sp, sp, #12
 1715              		.cfi_remember_state
 1716              		.cfi_def_cfa_offset 4
 1717              		@ sp needed
 1718 001e 5DF804FB 		ldr	pc, [sp], #4
 1719              	.L177:
 1720              		.cfi_restore_state
 1721 0022 FFF7FEFF 		bl	__stack_chk_fail
 1722              	.LVL136:
 1723              	.L179:
 1724 0026 00BF     		.align	2
 1725              	.L178:
 1726 0028 00000000 		.word	__stack_chk_guard
 1727 002c 00230140 		.word	1073816320
 1728              		.cfi_endproc
 1729              	.LFE264:
 1730              		.size	adcSTM32DisableTSVREFE, .-adcSTM32DisableTSVREFE
 1731              		.section	.text.adcSTM32EnableVBATE,"ax",%progbits
 1732              		.align	1
 1733              		.p2align 4,,15
 1734              		.global	adcSTM32EnableVBATE
 1735              		.syntax unified
 1736              		.thumb
 1737              		.thumb_func
 1738              		.fpu fpv4-sp-d16
 1739              		.type	adcSTM32EnableVBATE, %function
 1740              	adcSTM32EnableVBATE:
 1741              	.LFB265:
 1742              		.loc 1 409 0
 1743              		.cfi_startproc
 1744              		@ args = 0, pretend = 0, frame = 8
 1745              		@ frame_needed = 0, uses_anonymous_args = 0
 1746 0000 00B5     		push	{lr}
 1747              		.cfi_def_cfa_offset 4
 1748              		.cfi_offset 14, -4
 1749 0002 094A     		ldr	r2, .L184
 1750              		.loc 1 411 0
 1751 0004 0949     		ldr	r1, .L184+4
 1752              		.loc 1 409 0
 1753 0006 1368     		ldr	r3, [r2]
 1754 0008 83B0     		sub	sp, sp, #12
 1755              		.cfi_def_cfa_offset 16
 1756              		.loc 1 409 0
 1757 000a 0193     		str	r3, [sp, #4]
 1758              		.loc 1 411 0
 1759 000c 4B68     		ldr	r3, [r1, #4]
 1760 000e 43F48003 		orr	r3, r3, #4194304
 1761 0012 4B60     		str	r3, [r1, #4]
 1762              		.loc 1 412 0
 1763 0014 0199     		ldr	r1, [sp, #4]
 1764 0016 1368     		ldr	r3, [r2]
 1765 0018 9942     		cmp	r1, r3
 1766 001a 02D1     		bne	.L183
 1767 001c 03B0     		add	sp, sp, #12
ARM GAS  C:\Users\Moi\AppData\Local\Temp\cccka72G.s 			page 32


 1768              		.cfi_remember_state
 1769              		.cfi_def_cfa_offset 4
 1770              		@ sp needed
 1771 001e 5DF804FB 		ldr	pc, [sp], #4
 1772              	.L183:
 1773              		.cfi_restore_state
 1774 0022 FFF7FEFF 		bl	__stack_chk_fail
 1775              	.LVL137:
 1776              	.L185:
 1777 0026 00BF     		.align	2
 1778              	.L184:
 1779 0028 00000000 		.word	__stack_chk_guard
 1780 002c 00230140 		.word	1073816320
 1781              		.cfi_endproc
 1782              	.LFE265:
 1783              		.size	adcSTM32EnableVBATE, .-adcSTM32EnableVBATE
 1784              		.section	.text.adcSTM32DisableVBATE,"ax",%progbits
 1785              		.align	1
 1786              		.p2align 4,,15
 1787              		.global	adcSTM32DisableVBATE
 1788              		.syntax unified
 1789              		.thumb
 1790              		.thumb_func
 1791              		.fpu fpv4-sp-d16
 1792              		.type	adcSTM32DisableVBATE, %function
 1793              	adcSTM32DisableVBATE:
 1794              	.LFB266:
 1795              		.loc 1 420 0
 1796              		.cfi_startproc
 1797              		@ args = 0, pretend = 0, frame = 8
 1798              		@ frame_needed = 0, uses_anonymous_args = 0
 1799 0000 00B5     		push	{lr}
 1800              		.cfi_def_cfa_offset 4
 1801              		.cfi_offset 14, -4
 1802 0002 094A     		ldr	r2, .L190
 1803              		.loc 1 422 0
 1804 0004 0949     		ldr	r1, .L190+4
 1805              		.loc 1 420 0
 1806 0006 1368     		ldr	r3, [r2]
 1807 0008 83B0     		sub	sp, sp, #12
 1808              		.cfi_def_cfa_offset 16
 1809              		.loc 1 420 0
 1810 000a 0193     		str	r3, [sp, #4]
 1811              		.loc 1 422 0
 1812 000c 4B68     		ldr	r3, [r1, #4]
 1813 000e 23F48003 		bic	r3, r3, #4194304
 1814 0012 4B60     		str	r3, [r1, #4]
 1815              		.loc 1 423 0
 1816 0014 0199     		ldr	r1, [sp, #4]
 1817 0016 1368     		ldr	r3, [r2]
 1818 0018 9942     		cmp	r1, r3
 1819 001a 02D1     		bne	.L189
 1820 001c 03B0     		add	sp, sp, #12
 1821              		.cfi_remember_state
 1822              		.cfi_def_cfa_offset 4
 1823              		@ sp needed
 1824 001e 5DF804FB 		ldr	pc, [sp], #4
ARM GAS  C:\Users\Moi\AppData\Local\Temp\cccka72G.s 			page 33


 1825              	.L189:
 1826              		.cfi_restore_state
 1827 0022 FFF7FEFF 		bl	__stack_chk_fail
 1828              	.LVL138:
 1829              	.L191:
 1830 0026 00BF     		.align	2
 1831              	.L190:
 1832 0028 00000000 		.word	__stack_chk_guard
 1833 002c 00230140 		.word	1073816320
 1834              		.cfi_endproc
 1835              	.LFE266:
 1836              		.size	adcSTM32DisableVBATE, .-adcSTM32DisableVBATE
 1837              		.global	ADCD3
 1838              		.global	ADCD2
 1839              		.global	ADCD1
 1840              		.section	.bss.ADCD1,"aw",%nobits
 1841              		.align	2
 1842              		.set	.LANCHOR0,. + 0
 1843              		.type	ADCD1, %object
 1844              		.size	ADCD1, 56
 1845              	ADCD1:
 1846 0000 00000000 		.space	56
 1846      00000000 
 1846      00000000 
 1846      00000000 
 1846      00000000 
 1847              		.section	.bss.ADCD2,"aw",%nobits
 1848              		.align	2
 1849              		.set	.LANCHOR1,. + 0
 1850              		.type	ADCD2, %object
 1851              		.size	ADCD2, 56
 1852              	ADCD2:
 1853 0000 00000000 		.space	56
 1853      00000000 
 1853      00000000 
 1853      00000000 
 1853      00000000 
 1854              		.section	.bss.ADCD3,"aw",%nobits
 1855              		.align	2
 1856              		.set	.LANCHOR2,. + 0
 1857              		.type	ADCD3, %object
 1858              		.size	ADCD3, 56
 1859              	ADCD3:
 1860 0000 00000000 		.space	56
 1860      00000000 
 1860      00000000 
 1860      00000000 
 1860      00000000 
 1861              		.section	.rodata.__func__.9858,"a",%progbits
 1862              		.align	2
 1863              		.set	.LANCHOR3,. + 0
 1864              		.type	__func__.9858, %object
 1865              		.size	__func__.9858, 14
 1866              	__func__.9858:
 1867 0000 6164635F 		.ascii	"adc_lld_start\000"
 1867      6C6C645F 
 1867      73746172 
ARM GAS  C:\Users\Moi\AppData\Local\Temp\cccka72G.s 			page 34


 1867      7400
 1868              		.text
 1869              	.Letext0:
 1870              		.file 5 "c:\\users\\moi\\documents\\_microinfo\\epuck-eclipse\\tools\\gcc-arm-none-eabi-7-2017-q4-
 1871              		.file 6 "c:\\users\\moi\\documents\\_microinfo\\epuck-eclipse\\tools\\gcc-arm-none-eabi-7-2017-q4-
 1872              		.file 7 "c:\\users\\moi\\documents\\_microinfo\\epuck-eclipse\\tools\\gcc-arm-none-eabi-7-2017-q4-
 1873              		.file 8 "..//ChibiOS//os/rt/ports/ARMCMx/compilers/GCC/chtypes.h"
 1874              		.file 9 "..//ChibiOS//os/rt/include/chsystypes.h"
 1875              		.file 10 "..//ChibiOS//os/rt/include/chschd.h"
 1876              		.file 11 "..//ChibiOS//os/ext/CMSIS/include/core_cm4.h"
 1877              		.file 12 "..//ChibiOS//os/ext/CMSIS/ST/system_stm32f4xx.h"
 1878              		.file 13 "..//ChibiOS//os/ext/CMSIS/ST/stm32f407xx.h"
 1879              		.file 14 "..//ChibiOS//os/rt/ports/ARMCMx/chcore.h"
 1880              		.file 15 "..//ChibiOS//os/rt/ports/ARMCMx/chcore_v7m.h"
 1881              		.file 16 "..//ChibiOS//os/rt/include/chdebug.h"
 1882              		.file 17 "..//ChibiOS//os/rt/include/chtm.h"
 1883              		.file 18 "..//ChibiOS//os/rt/include/chstats.h"
 1884              		.file 19 "..//ChibiOS//os/rt/include/chsem.h"
 1885              		.file 20 "..//ChibiOS//os/rt/include/chmtx.h"
 1886              		.file 21 "..//ChibiOS//os/rt/include/chregistry.h"
 1887              		.file 22 "..//ChibiOS//os/rt/include/chevents.h"
 1888              		.file 23 "..//ChibiOS//os/rt/include/chqueues.h"
 1889              		.file 24 "..//ChibiOS//os/hal/ports/STM32/STM32F4xx/stm32_dma.h"
 1890              		.file 25 "..//ChibiOS//os/hal/include/hal_ioblock.h"
 1891              		.file 26 "..//ChibiOS//os/hal/ports/STM32/LLD/GPIOv2/pal_lld.h"
 1892              		.file 27 "..//ChibiOS//os/hal/include/adc.h"
 1893              		.file 28 "..//ChibiOS//os/hal/ports/STM32/STM32F4xx/adc_lld.h"
 1894              		.file 29 "..//ChibiOS//os/hal/include/can.h"
 1895              		.file 30 "..//ChibiOS//os/hal/ports/STM32/LLD/can_lld.h"
 1896              		.file 31 "..//ChibiOS//os/hal/include/dac.h"
 1897              		.file 32 "..//ChibiOS//os/hal/ports/STM32/LLD/DACv1/dac_lld.h"
 1898              		.file 33 "..//ChibiOS//os/hal/include/ext.h"
 1899              		.file 34 "..//ChibiOS//os/hal/ports/STM32/LLD/ext_lld.h"
 1900              		.file 35 "..//ChibiOS//os/hal/include/gpt.h"
 1901              		.file 36 "..//ChibiOS//os/hal/ports/STM32/LLD/TIMv1/gpt_lld.h"
 1902              		.file 37 "..//ChibiOS//os/hal/ports/STM32/LLD/TIMv1/stm32_tim.h"
 1903              		.file 38 "..//ChibiOS//os/hal/include/i2c.h"
 1904              		.file 39 "..//ChibiOS//os/hal/ports/STM32/LLD/I2Cv1/i2c_lld.h"
 1905              		.file 40 "..//ChibiOS//os/hal/include/i2s.h"
 1906              		.file 41 "..//ChibiOS//os/hal/ports/STM32/LLD/SPIv1/i2s_lld.h"
 1907              		.file 42 "..//ChibiOS//os/hal/include/pwm.h"
 1908              		.file 43 "..//ChibiOS//os/hal/ports/STM32/LLD/TIMv1/pwm_lld.h"
 1909              		.file 44 "..//ChibiOS//os/hal/include/serial.h"
 1910              		.file 45 "..//ChibiOS//os/hal/ports/STM32/LLD/USARTv1/serial_lld.h"
 1911              		.file 46 "..//ChibiOS//os/hal/include/sdc.h"
 1912              		.file 47 "..//ChibiOS//os/hal/ports/STM32/LLD/sdc_lld.h"
 1913              		.file 48 "..//ChibiOS//os/hal/include/spi.h"
 1914              		.file 49 "..//ChibiOS//os/hal/ports/STM32/LLD/SPIv1/spi_lld.h"
 1915              		.file 50 "..//ChibiOS//os/hal/include/usb.h"
 1916              		.file 51 "..//ChibiOS//os/hal/ports/STM32/LLD/OTGv1/usb_lld.h"
 1917              		.file 52 "..//ChibiOS//os/hal/ports/STM32/LLD/OTGv1/stm32_otg.h"
 1918              		.file 53 "..//ChibiOS//os/hal/ports/common/ARMCMx/nvic.h"
 1919              		.file 54 "..//ChibiOS//os/rt/include/chthreads.h"