ARM GAS  C:\Users\Moi\AppData\Local\Temp\ccF5N8ze.s 			page 1


   1              		.cpu cortex-m4
   2              		.eabi_attribute 27, 1
   3              		.eabi_attribute 28, 1
   4              		.eabi_attribute 20, 1
   5              		.eabi_attribute 21, 1
   6              		.eabi_attribute 23, 3
   7              		.eabi_attribute 24, 1
   8              		.eabi_attribute 25, 1
   9              		.eabi_attribute 26, 1
  10              		.eabi_attribute 30, 6
  11              		.eabi_attribute 34, 1
  12              		.eabi_attribute 18, 4
  13              		.file	"Asercom2.c"
  14              		.text
  15              	.Ltext0:
  16              		.cfi_sections	.debug_frame
  17              		.section	.rodata
  18              		.align	2
  19              	.LC0:
  20 0000 0C075745 		.ascii	"\014\007WELCOME to the SerCom protocol on e-Puck\015"
  20      4C434F4D 
  20      4520746F 
  20      20746865 
  20      20536572 
  21 002b 0A746865 		.ascii	"\012the EPFL education robot type \"H\" for help\015"
  21      20455046 
  21      4C206564 
  21      75636174 
  21      696F6E20 
  22 0057 0A00     		.ascii	"\012\000"
  23 0059 000000   		.align	2
  24              	.LC1:
  25 005c 612C2564 		.ascii	"a,%d,%d,%d\015\012\000"
  25      2C25642C 
  25      25640D0A 
  25      00
  26 0069 000000   		.align	2
  27              	.LC2:
  28 006c 612C302C 		.ascii	"a,0,0,0\015\012\000"
  28      302C300D 
  28      0A00
  29 0076 0000     		.align	2
  30              	.LC3:
  31 0078 622C2564 		.ascii	"b,%d (%d%%)\015\012\000"
  31      20282564 
  31      2525290D 
  31      0A00
  32 0086 0000     		.align	2
  33              	.LC4:
  34 0088 422C2564 		.ascii	"B,%d\015\000"
  34      0D00
  35 008e 0000     		.align	2
  36              	.LC5:
  37 0090 620D0A00 		.ascii	"b\015\012\000"
  38              		.align	2
  39              	.LC6:
  40 0094 632C2564 		.ascii	"c,%d\015\012\000"
ARM GAS  C:\Users\Moi\AppData\Local\Temp\ccF5N8ze.s 			page 2


  40      0D0A00
  41 009b 00       		.align	2
  42              	.LC7:
  43 009c 442C2564 		.ascii	"D,%d,%d\015\000"
  43      2C25640D 
  43      00
  44 00a5 000000   		.align	2
  45              	.LC8:
  46 00a8 640D0A00 		.ascii	"d\015\012\000"
  47              		.align	2
  48              	.LC9:
  49 00ac 652C2564 		.ascii	"e,%d,%d\015\012\000"
  49      2C25640D 
  49      0A00
  50 00b6 0000     		.align	2
  51              	.LC10:
  52 00b8 462C2564 		.ascii	"F,%d\015\000"
  52      0D00
  53 00be 0000     		.align	2
  54              	.LC11:
  55 00c0 660D0A00 		.ascii	"f\015\012\000"
  56              		.align	2
  57              	.LC12:
  58 00c4 67204952 		.ascii	"g IR check : 0x%x, address : 0x%x, data : 0x%x\015\012"
  58      20636865 
  58      636B203A 
  58      20307825 
  58      782C2061 
  59 00f4 00       		.ascii	"\000"
  60 00f5 000000   		.align	2
  61              	.LC13:
  62 00f8 672C2564 		.ascii	"g,%d,%d,%d\015\012\000"
  62      2C25642C 
  62      25640D0A 
  62      00
  63 0105 000000   		.align	2
  64              	.LC14:
  65 0108 672C302C 		.ascii	"g,0,0,0\015\012\000"
  65      302C300D 
  65      0A00
  66 0112 0000     		.align	2
  67              	.LC15:
  68 0114 0A00     		.ascii	"\012\000"
  69 0116 0000     		.align	2
  70              	.LC16:
  71 0118 22412220 		.ascii	"\"A\"               Accelerometer\015\012\000"
  71      20202020 
  71      20202020 
  71      20202020 
  71      20204163 
  72 013a 0000     		.align	2
  73              	.LC17:
  74 013c 22422C23 		.ascii	"\"B,#\"             Body led 0=off 1=on 2=inverse\015"
  74      22202020 
  74      20202020 
  74      20202020 
  74      2020426F 
ARM GAS  C:\Users\Moi\AppData\Local\Temp\ccF5N8ze.s 			page 3


  75 016c 0A00     		.ascii	"\012\000"
  76 016e 0000     		.align	2
  77              	.LC18:
  78 0170 22622220 		.ascii	"\"b\"               Battery value\015\012\000"
  78      20202020 
  78      20202020 
  78      20202020 
  78      20204261 
  79 0192 0000     		.align	2
  80              	.LC19:
  81 0194 22622220 		.ascii	"\"b\"               Battery state (1=ok, 0=low)\015"
  81      20202020 
  81      20202020 
  81      20202020 
  81      20204261 
  82 01c2 0A00     		.ascii	"\012\000"
  83              		.align	2
  84              	.LC20:
  85 01c4 22432220 		.ascii	"\"C\"               Selector position\015\012\000"
  85      20202020 
  85      20202020 
  85      20202020 
  85      20205365 
  86 01ea 0000     		.align	2
  87              	.LC21:
  88 01ec 22442C23 		.ascii	"\"D,#,#\"           Set motor speed left,right\015\012"
  88      2C232220 
  88      20202020 
  88      20202020 
  88      20205365 
  89 021a 00       		.ascii	"\000"
  90 021b 00       		.align	2
  91              	.LC22:
  92 021c 22452220 		.ascii	"\"E\"               Get motor speed left,right\015\012"
  92      20202020 
  92      20202020 
  92      20202020 
  92      20204765 
  93 024a 00       		.ascii	"\000"
  94 024b 00       		.align	2
  95              	.LC23:
  96 024c 22462C23 		.ascii	"\"F,#\"             Front led 0=off 1=on 2=inverse\015"
  96      22202020 
  96      20202020 
  96      20202020 
  96      20204672 
  97 027d 0A00     		.ascii	"\012\000"
  98 027f 00       		.align	2
  99              	.LC24:
 100 0280 22472220 		.ascii	"\"G\"               IR receiver\015\012\000"
 100      20202020 
 100      20202020 
 100      20202020 
 100      20204952 
 101              		.align	2
 102              	.LC25:
 103 02a0 22672220 		.ascii	"\"g\"               Gyro\015\012\000"
ARM GAS  C:\Users\Moi\AppData\Local\Temp\ccF5N8ze.s 			page 4


 103      20202020 
 103      20202020 
 103      20202020 
 103      20204779 
 104 02b9 000000   		.align	2
 105              	.LC26:
 106 02bc 22482220 		.ascii	"\"H\"               Help\015\012\000"
 106      20202020 
 106      20202020 
 106      20202020 
 106      20204865 
 107 02d5 000000   		.align	2
 108              	.LC27:
 109 02d8 22492220 		.ascii	"\"I\"               Get camera parameter\015\012\000"
 109      20202020 
 109      20202020 
 109      20202020 
 109      20204765 
 110 0301 000000   		.align	2
 111              	.LC28:
 112 0304 224A2C23 		.ascii	"\"J,#,#,#,#,#,#\"   Set camera parameter mode,width"
 112      2C232C23 
 112      2C232C23 
 112      2C232220 
 112      20205365 
 113 0335 2C686569 		.ascii	",heigth,zoom(1,4 or 8),x1,y1\015\012\000"
 113      6774682C 
 113      7A6F6F6D 
 113      28312C34 
 113      206F7220 
 114              		.align	2
 115              	.LC29:
 116 0354 224B2220 		.ascii	"\"K\"               Calibrate proximity sensors\015"
 116      20202020 
 116      20202020 
 116      20202020 
 116      20204361 
 117 0382 0A00     		.ascii	"\012\000"
 118              		.align	2
 119              	.LC30:
 120 0384 224C2C23 		.ascii	"\"L,#,#\"           Led number,0=off 1=on 2=inverse"
 120      2C232220 
 120      20202020 
 120      20202020 
 120      20204C65 
 121 03b5 0D0A00   		.ascii	"\015\012\000"
 122              		.align	2
 123              	.LC31:
 124 03b8 224D2220 		.ascii	"\"M\"               Floor sensors\015\012\000"
 124      20202020 
 124      20202020 
 124      20202020 
 124      2020466C 
 125 03da 0000     		.align	2
 126              	.LC32:
 127 03dc 224E2220 		.ascii	"\"N\"               Proximity\015\012\000"
 127      20202020 
ARM GAS  C:\Users\Moi\AppData\Local\Temp\ccF5N8ze.s 			page 5


 127      20202020 
 127      20202020 
 127      20205072 
 128 03fa 0000     		.align	2
 129              	.LC33:
 130 03fc 224F2220 		.ascii	"\"O\"               Light sensors\015\012\000"
 130      20202020 
 130      20202020 
 130      20202020 
 130      20204C69 
 131 041e 0000     		.align	2
 132              	.LC34:
 133 0420 22502C23 		.ascii	"\"P,#,#\"           Set motor position left,right\015"
 133      2C232220 
 133      20202020 
 133      20202020 
 133      20205365 
 134 0450 0A00     		.ascii	"\012\000"
 135 0452 0000     		.align	2
 136              	.LC35:
 137 0454 22512220 		.ascii	"\"Q\"               Get motor position left,right\015"
 137      20202020 
 137      20202020 
 137      20202020 
 137      20204765 
 138 0484 0A00     		.ascii	"\012\000"
 139 0486 0000     		.align	2
 140              	.LC36:
 141 0488 22522220 		.ascii	"\"R\"               Reset e-puck\015\012\000"
 141      20202020 
 141      20202020 
 141      20202020 
 141      20205265 
 142 04a9 000000   		.align	2
 143              	.LC37:
 144 04ac 22532220 		.ascii	"\"S\"               Stop e-puck and turn off leds\015"
 144      20202020 
 144      20202020 
 144      20202020 
 144      20205374 
 145 04dc 0A00     		.ascii	"\012\000"
 146 04de 0000     		.align	2
 147              	.LC38:
 148 04e0 22542C23 		.ascii	"\"T,#\"             Play sound 1-5 else stop sound\015"
 148      22202020 
 148      20202020 
 148      20202020 
 148      2020506C 
 149 0511 0A00     		.ascii	"\012\000"
 150 0513 00       		.align	2
 151              	.LC39:
 152 0514 22742220 		.ascii	"\"t\"               Temperature\015\012\000"
 152      20202020 
 152      20202020 
 152      20202020 
 152      20205465 
 153              		.align	2
ARM GAS  C:\Users\Moi\AppData\Local\Temp\ccF5N8ze.s 			page 6


 154              	.LC40:
 155 0534 22552220 		.ascii	"\"U\"               Get microphone amplitude\015\012"
 155      20202020 
 155      20202020 
 155      20202020 
 155      20204765 
 156 0560 00       		.ascii	"\000"
 157 0561 000000   		.align	2
 158              	.LC41:
 159 0564 22562220 		.ascii	"\"V\"               Version of SerCom\015\012\000"
 159      20202020 
 159      20202020 
 159      20202020 
 159      20205665 
 160 058a 0000     		.align	2
 161              	.LC42:
 162 058c 22572220 		.ascii	"\"W\"               Write I2C (mod,reg,val)\015\012"
 162      20202020 
 162      20202020 
 162      20202020 
 162      20205772 
 163 05b7 00       		.ascii	"\000"
 164              		.align	2
 165              	.LC43:
 166 05b8 22592220 		.ascii	"\"Y\"               Read I2C val=(mod,reg)\015\012\000"
 166      20202020 
 166      20202020 
 166      20202020 
 166      20205265 
 167 05e3 00       		.align	2
 168              	.LC44:
 169 05e4 22412220 		.ascii	"\"A\"       Accelerometer\015\012\000"
 169      20202020 
 169      20204163 
 169      63656C65 
 169      726F6D65 
 170 05fe 0000     		.align	2
 171              	.LC45:
 172 0600 22622220 		.ascii	"\"b\"       Battery value\015\012\000"
 172      20202020 
 172      20204261 
 172      74746572 
 172      79207661 
 173 061a 0000     		.align	2
 174              	.LC46:
 175 061c 22622220 		.ascii	"\"b\"       Battery state (1=ok, 0=low)\015\012\000"
 175      20202020 
 175      20204261 
 175      74746572 
 175      79207374 
 176              		.align	2
 177              	.LC47:
 178 0644 22422C23 		.ascii	"\"B,#\"       Body led 0=off 1=on 2=inverse\015\012"
 178      22202020 
 178      20202020 
 178      426F6479 
 178      206C6564 
ARM GAS  C:\Users\Moi\AppData\Local\Temp\ccF5N8ze.s 			page 7


 179 066f 00       		.ascii	"\000"
 180              		.align	2
 181              	.LC48:
 182 0670 22432220 		.ascii	"\"C\"       Selector position\015\012\000"
 182      20202020 
 182      20205365 
 182      6C656374 
 182      6F722070 
 183 068e 0000     		.align	2
 184              	.LC49:
 185 0690 22442C23 		.ascii	"\"D,#,#\"   Set motor speed left,right\015\012\000"
 185      2C232220 
 185      20205365 
 185      74206D6F 
 185      746F7220 
 186 06b7 00       		.align	2
 187              	.LC50:
 188 06b8 22452220 		.ascii	"\"E\"       Get motor speed left,right\015\012\000"
 188      20202020 
 188      20204765 
 188      74206D6F 
 188      746F7220 
 189 06df 00       		.align	2
 190              	.LC51:
 191 06e0 22462C23 		.ascii	"\"F,#\"       Front led 0=off 1=on 2=inverse\015\012"
 191      22202020 
 191      20202020 
 191      46726F6E 
 191      74206C65 
 192 070c 00       		.ascii	"\000"
 193 070d 000000   		.align	2
 194              	.LC52:
 195 0710 22472220 		.ascii	"\"G\"       IR receiver\015\012\000"
 195      20202020 
 195      20204952 
 195      20726563 
 195      65697665 
 196              		.align	2
 197              	.LC53:
 198 0728 22482220 		.ascii	"\"H\"       Help\015\012\000"
 198      20202020 
 198      20204865 
 198      6C700D0A 
 198      00
 199 0739 000000   		.align	2
 200              	.LC54:
 201 073c 22492220 		.ascii	"\"I\"         Get camera parameter\015\012\000"
 201      20202020 
 201      20202020 
 201      47657420 
 201      63616D65 
 202 075f 00       		.align	2
 203              	.LC55:
 204 0760 224A2C23 		.ascii	"\"J,#,#,#,#,#,#\" Set camera parameter mode,width,h"
 204      2C232C23 
 204      2C232C23 
 204      2C232220 
ARM GAS  C:\Users\Moi\AppData\Local\Temp\ccF5N8ze.s 			page 8


 204      53657420 
 205 0791 65696774 		.ascii	"eigth,zoom(1,4 or 8),x1,y1\015\012\000"
 205      682C7A6F 
 205      6F6D2831 
 205      2C34206F 
 205      72203829 
 206 07ae 0000     		.align	2
 207              	.LC56:
 208 07b0 224B2220 		.ascii	"\"K\"       Calibrate proximity sensors\015\012\000"
 208      20202020 
 208      20204361 
 208      6C696272 
 208      61746520 
 209              		.align	2
 210              	.LC57:
 211 07d8 224C2C23 		.ascii	"\"L,#,#\"   Led number,0=off 1=on 2=inverse\015\012"
 211      2C232220 
 211      20204C65 
 211      64206E75 
 211      6D626572 
 212 0803 00       		.ascii	"\000"
 213              		.align	2
 214              	.LC58:
 215 0804 224D2220 		.ascii	"\"M\"       Floor sensors\015\012\000"
 215      20202020 
 215      2020466C 
 215      6F6F7220 
 215      73656E73 
 216 081e 0000     		.align	2
 217              	.LC59:
 218 0820 224E2220 		.ascii	"\"N\"       Proximity\015\012\000"
 218      20202020 
 218      20205072 
 218      6F78696D 
 218      6974790D 
 219 0836 0000     		.align	2
 220              	.LC60:
 221 0838 224F2220 		.ascii	"\"O\"       Light sensors\015\012\000"
 221      20202020 
 221      20204C69 
 221      67687420 
 221      73656E73 
 222 0852 0000     		.align	2
 223              	.LC61:
 224 0854 22502C23 		.ascii	"\"P,#,#\"   Set motor position left,right\015\012\000"
 224      2C232220 
 224      20205365 
 224      74206D6F 
 224      746F7220 
 225 087e 0000     		.align	2
 226              	.LC62:
 227 0880 22512220 		.ascii	"\"Q\"       Get motor position left,right\015\012\000"
 227      20202020 
 227      20204765 
 227      74206D6F 
 227      746F7220 
 228 08aa 0000     		.align	2
ARM GAS  C:\Users\Moi\AppData\Local\Temp\ccF5N8ze.s 			page 9


 229              	.LC63:
 230 08ac 22522220 		.ascii	"\"R\"       Reset e-puck\015\012\000"
 230      20202020 
 230      20205265 
 230      73657420 
 230      652D7075 
 231 08c5 000000   		.align	2
 232              	.LC64:
 233 08c8 22532220 		.ascii	"\"S\"       Stop e-puck and turn off leds\015\012\000"
 233      20202020 
 233      20205374 
 233      6F702065 
 233      2D707563 
 234 08f2 0000     		.align	2
 235              	.LC65:
 236 08f4 22542C23 		.ascii	"\"T,#\"       Play sound 1-5 else stop sound\015\012"
 236      22202020 
 236      20202020 
 236      506C6179 
 236      20736F75 
 237 0920 00       		.ascii	"\000"
 238 0921 000000   		.align	2
 239              	.LC66:
 240 0924 22552220 		.ascii	"\"U\"       Get microphone amplitude\015\012\000"
 240      20202020 
 240      20204765 
 240      74206D69 
 240      63726F70 
 241 0949 000000   		.align	2
 242              	.LC67:
 243 094c 22562220 		.ascii	"\"V\"       Version of SerCom\015\012\000"
 243      20202020 
 243      20205665 
 243      7273696F 
 243      6E206F66 
 244 096a 0000     		.align	2
 245              	.LC68:
 246 096c 22572220 		.ascii	"\"W\"         Write I2C (mod,reg,val)\015\012\000"
 246      20202020 
 246      20202020 
 246      57726974 
 246      65204932 
 247 0992 0000     		.align	2
 248              	.LC69:
 249 0994 22592220 		.ascii	"\"Y\"         Read I2C val=(mod,reg)\015\012\000"
 249      20202020 
 249      20202020 
 249      52656164 
 249      20493243 
 250 09b9 000000   		.align	2
 251              	.LC70:
 252 09bc 692C2564 		.ascii	"i,%d,%d,%d,%d,%d\015\012\000"
 252      2C25642C 
 252      25642C25 
 252      642C2564 
 252      0D0A00
 253 09cf 00       		.align	2
ARM GAS  C:\Users\Moi\AppData\Local\Temp\ccF5N8ze.s 			page 10


 254              	.LC71:
 255 09d0 4A2C2564 		.ascii	"J,%d,%d,%d,%d,%d,%d\015\000"
 255      2C25642C 
 255      25642C25 
 255      642C2564 
 255      2C25640D 
 256 09e5 000000   		.align	2
 257              	.LC72:
 258 09e8 6A0D0A00 		.ascii	"j\015\012\000"
 259              		.align	2
 260              	.LC73:
 261 09ec 6B2C2053 		.ascii	"k, Starting calibration - Remove any object in sens"
 261      74617274 
 261      696E6720 
 261      63616C69 
 261      62726174 
 262 0a1f 6F727320 		.ascii	"ors range\015\012\000"
 262      72616E67 
 262      650D0A00 
 263 0a2b 00       		.align	2
 264              	.LC74:
 265 0a2c 6B2C2043 		.ascii	"k, Calibration finished\015\012\000"
 265      616C6962 
 265      72617469 
 265      6F6E2066 
 265      696E6973 
 266 0a46 0000     		.align	2
 267              	.LC75:
 268 0a48 4C2C2564 		.ascii	"L,%d,%d\015\000"
 268      2C25640D 
 268      00
 269 0a51 000000   		.align	2
 270              	.LC76:
 271 0a54 6C0D0A00 		.ascii	"l\015\012\000"
 272              		.align	2
 273              	.LC77:
 274 0a58 6D2C2564 		.ascii	"m,%d,%d,%d,%d,%d\015\012\000"
 274      2C25642C 
 274      25642C25 
 274      642C2564 
 274      0D0A00
 275 0a6b 00       		.align	2
 276              	.LC78:
 277 0a6c 6E2C2564 		.ascii	"n,%d,%d,%d,%d,%d,%d,%d,%d\015\012\000"
 277      2C25642C 
 277      25642C25 
 277      642C2564 
 277      2C25642C 
 278              		.align	2
 279              	.LC79:
 280 0a88 6F2C2564 		.ascii	"o,%d,%d,%d,%d,%d,%d,%d,%d\015\012\000"
 280      2C25642C 
 280      25642C25 
 280      642C2564 
 280      2C25642C 
 281              		.align	2
 282              	.LC80:
ARM GAS  C:\Users\Moi\AppData\Local\Temp\ccF5N8ze.s 			page 11


 283 0aa4 502C2564 		.ascii	"P,%d,%d\015\000"
 283      2C25640D 
 283      00
 284 0aad 000000   		.align	2
 285              	.LC81:
 286 0ab0 700D0A00 		.ascii	"p\015\012\000"
 287              		.align	2
 288              	.LC82:
 289 0ab4 712C2564 		.ascii	"q,%d,%d\015\012\000"
 289      2C25640D 
 289      0A00
 290 0abe 0000     		.align	2
 291              	.LC83:
 292 0ac0 730D0A00 		.ascii	"s\015\012\000"
 293              		.align	2
 294              	.LC84:
 295 0ac4 542C2564 		.ascii	"T,%d\000"
 295      00
 296 0ac9 000000   		.align	2
 297              	.LC85:
 298 0acc 740D0A00 		.ascii	"t\015\012\000"
 299              		.align	2
 300              	.LC86:
 301 0ad0 742C2564 		.ascii	"t,%d\015\012\000"
 301      0D0A00
 302 0ad7 00       		.align	2
 303              	.LC87:
 304 0ad8 742C300D 		.ascii	"t,0\015\012\000"
 304      0A00
 305 0ade 0000     		.align	2
 306              	.LC88:
 307 0ae0 752C2564 		.ascii	"u,%d,%d,%d\015\012\000"
 307      2C25642C 
 307      25640D0A 
 307      00
 308 0aed 000000   		.align	2
 309              	.LC89:
 310 0af0 762C5665 		.ascii	"v,Version 2.0 January 2018 GCtronic\015\012\000"
 310      7273696F 
 310      6E20322E 
 310      30204A61 
 310      6E756172 
 311 0b16 0000     		.align	2
 312              	.LC90:
 313 0b18 48572076 		.ascii	"HW version: %X\015\012\000"
 313      65727369 
 313      6F6E3A20 
 313      25580D0A 
 313      00
 314 0b29 000000   		.align	2
 315              	.LC91:
 316 0b2c 572C2564 		.ascii	"W,%d,%d,%d\015\000"
 316      2C25642C 
 316      25640D00 
 317              		.align	2
 318              	.LC92:
 319 0b38 770D0A00 		.ascii	"w\015\012\000"
ARM GAS  C:\Users\Moi\AppData\Local\Temp\ccF5N8ze.s 			page 12


 320              		.align	2
 321              	.LC93:
 322 0b3c 592C2564 		.ascii	"Y,%d,%d\015\000"
 322      2C25640D 
 322      00
 323 0b45 000000   		.align	2
 324              	.LC94:
 325 0b48 792C2564 		.ascii	"y,%d,%d\015\012\000"
 325      2C25640D 
 325      0A00
 326 0b52 0000     		.align	2
 327              	.LC95:
 328 0b54 792C2564 		.ascii	"y,%d\015\012\000"
 328      0D0A00
 329 0b5b 00       		.align	2
 330              	.LC96:
 331 0b5c 25643A20 		.ascii	"%d: %d\015\012\000"
 331      25640D0A 
 331      00
 332 0b65 000000   		.align	2
 333              	.LC97:
 334 0b68 7A2C436F 		.ascii	"z,Command not found\015\012\000"
 334      6D6D616E 
 334      64206E6F 
 334      7420666F 
 334      756E640D 
 335              		.section	.text.run_asercom2,"ax",%progbits
 336              		.align	1
 337              		.p2align 4,,15
 338              		.global	run_asercom2
 339              		.syntax unified
 340              		.thumb
 341              		.thumb_func
 342              		.fpu fpv4-sp-d16
 343              		.type	run_asercom2, %function
 344              	run_asercom2:
 345              	.LFB260:
 346              		.file 1 "..//src/epuck1x/Asercom2.c"
 347              		.loc 1 68 0
 348              		.cfi_startproc
 349              		@ args = 0, pretend = 0, frame = 40
 350              		@ frame_needed = 0, uses_anonymous_args = 0
 351 0000 2DE9F043 		push	{r4, r5, r6, r7, r8, r9, lr}
 352              		.cfi_def_cfa_offset 28
 353              		.cfi_offset 4, -28
 354              		.cfi_offset 5, -24
 355              		.cfi_offset 6, -20
 356              		.cfi_offset 7, -16
 357              		.cfi_offset 8, -12
 358              		.cfi_offset 9, -8
 359              		.cfi_offset 14, -4
 360 0004 91B0     		sub	sp, sp, #68
 361              		.cfi_def_cfa_offset 96
 362              		.loc 1 68 0
 363 0006 B44B     		ldr	r3, .L487
 364 0008 1B68     		ldr	r3, [r3]
 365 000a 0F93     		str	r3, [sp, #60]
ARM GAS  C:\Users\Moi\AppData\Local\Temp\ccF5N8ze.s 			page 13


 366              		.loc 1 77 0
 367 000c 0023     		movs	r3, #0
 368 000e 8DF82730 		strb	r3, [sp, #39]
 369 0012 0023     		movs	r3, #0
 370 0014 8DF82830 		strb	r3, [sp, #40]
 371 0018 0023     		movs	r3, #0
 372 001a 8DF82530 		strb	r3, [sp, #37]
 373              		.loc 1 81 0
 374 001e 0023     		movs	r3, #0
 375 0020 0B93     		str	r3, [sp, #44]
 376              		.loc 1 82 0
 377 0022 0023     		movs	r3, #0
 378 0024 0D93     		str	r3, [sp, #52]
 379              		.loc 1 83 0
 380 0026 0023     		movs	r3, #0
 381 0028 8DF82630 		strb	r3, [sp, #38]
 382              		.loc 1 84 0
 383 002c 0023     		movs	r3, #0
 384 002e ADF82A30 		strh	r3, [sp, #42]	@ movhi
 385              		.loc 1 88 0
 386 0032 FFF7FEFF 		bl	e_init_motors
 387              		.loc 1 92 0
 388 0036 FFF7FEFF 		bl	getselector
 389 003a 0246     		mov	r2, r0
 390 003c A74B     		ldr	r3, .L487+4
 391 003e 1A60     		str	r2, [r3]
 392              		.loc 1 93 0
 393 0040 A64B     		ldr	r3, .L487+4
 394 0042 1B68     		ldr	r3, [r3]
 395 0044 032B     		cmp	r3, #3
 396 0046 02D1     		bne	.L2
 397              		.loc 1 94 0
 398 0048 0123     		movs	r3, #1
 399 004a 0B93     		str	r3, [sp, #44]
 400 004c 01E0     		b	.L3
 401              	.L2:
 402              		.loc 1 96 0
 403 004e 0023     		movs	r3, #0
 404 0050 0B93     		str	r3, [sp, #44]
 405              	.L3:
 406              		.loc 1 98 0
 407 0052 A24B     		ldr	r3, .L487+4
 408 0054 1B68     		ldr	r3, [r3]
 409 0056 0A2B     		cmp	r3, #10
 410 0058 03D1     		bne	.L4
 411              		.loc 1 99 0
 412 005a 0123     		movs	r3, #1
 413 005c 8DF82630 		strb	r3, [sp, #38]
 414 0060 02E0     		b	.L5
 415              	.L4:
 416              		.loc 1 101 0
 417 0062 0023     		movs	r3, #0
 418 0064 8DF82630 		strb	r3, [sp, #38]
 419              	.L5:
 420              		.loc 1 104 0
 421 0068 FFF7FEFF 		bl	mountSDCard
 422              		.loc 1 107 0
ARM GAS  C:\Users\Moi\AppData\Local\Temp\ccF5N8ze.s 			page 14


 423 006c 9DF82630 		ldrb	r3, [sp, #38]	@ zero_extendqisi2
 424 0070 002B     		cmp	r3, #0
 425 0072 01D1     		bne	.L6
 426              		.loc 1 108 0
 427 0074 FFF7FEFF 		bl	e_i2cp_init
 428              	.L6:
 429              		.loc 1 113 0
 430 0078 FFF7FEFF 		bl	e_init_remote_control
 431              		.loc 1 121 0
 432 007c 0123     		movs	r3, #1
 433 007e 984A     		ldr	r2, .L487+8
 434 0080 4FF6FE71 		movw	r1, #65534
 435 0084 7F20     		movs	r0, #127
 436 0086 FFF7FEFF 		bl	ReadEE
 437              		.loc 1 124 0
 438 008a 964B     		ldr	r3, .L487+12
 439 008c 0122     		movs	r2, #1
 440 008e 1A60     		str	r2, [r3]
 441              		.loc 1 126 0
 442 0090 954B     		ldr	r3, .L487+16
 443 0092 2822     		movs	r2, #40
 444 0094 1A60     		str	r2, [r3]
 445              		.loc 1 127 0
 446 0096 954B     		ldr	r3, .L487+20
 447 0098 2822     		movs	r2, #40
 448 009a 1A60     		str	r2, [r3]
 449              		.loc 1 128 0
 450 009c 944B     		ldr	r3, .L487+24
 451 009e 0822     		movs	r2, #8
 452 00a0 1A60     		str	r2, [r3]
 453              		.loc 1 129 0
 454 00a2 914B     		ldr	r3, .L487+16
 455 00a4 1B68     		ldr	r3, [r3]
 456 00a6 914A     		ldr	r2, .L487+20
 457 00a8 1268     		ldr	r2, [r2]
 458 00aa 02FB03F3 		mul	r3, r2, r3
 459 00ae 5B00     		lsls	r3, r3, #1
 460 00b0 904A     		ldr	r2, .L487+28
 461 00b2 1360     		str	r3, [r2]
 462              		.loc 1 131 0
 463 00b4 9DF82630 		ldrb	r3, [sp, #38]	@ zero_extendqisi2
 464 00b8 002B     		cmp	r3, #0
 465 00ba 39D1     		bne	.L7
 466              		.loc 1 132 0
 467 00bc FFF7FEFF 		bl	e_poxxxx_init_cam
 468              		.loc 1 133 0
 469 00c0 894B     		ldr	r3, .L487+16
 470 00c2 1B68     		ldr	r3, [r3]
 471 00c4 8A4A     		ldr	r2, .L487+24
 472 00c6 1268     		ldr	r2, [r2]
 473 00c8 02FB03F3 		mul	r3, r2, r3
 474 00cc C3F52073 		rsb	r3, r3, #640
 475 00d0 DA0F     		lsrs	r2, r3, #31
 476 00d2 1344     		add	r3, r3, r2
 477 00d4 5B10     		asrs	r3, r3, #1
 478 00d6 1846     		mov	r0, r3
 479 00d8 844B     		ldr	r3, .L487+20
ARM GAS  C:\Users\Moi\AppData\Local\Temp\ccF5N8ze.s 			page 15


 480 00da 1B68     		ldr	r3, [r3]
 481 00dc 844A     		ldr	r2, .L487+24
 482 00de 1268     		ldr	r2, [r2]
 483 00e0 02FB03F3 		mul	r3, r2, r3
 484 00e4 C3F5F073 		rsb	r3, r3, #480
 485 00e8 DA0F     		lsrs	r2, r3, #31
 486 00ea 1344     		add	r3, r3, r2
 487 00ec 5B10     		asrs	r3, r3, #1
 488 00ee 1C46     		mov	r4, r3
 489 00f0 7D4B     		ldr	r3, .L487+16
 490 00f2 1B68     		ldr	r3, [r3]
 491 00f4 7E4A     		ldr	r2, .L487+24
 492 00f6 1268     		ldr	r2, [r2]
 493 00f8 02FB03F3 		mul	r3, r2, r3
 494 00fc 1D46     		mov	r5, r3
 495 00fe 7B4B     		ldr	r3, .L487+20
 496 0100 1B68     		ldr	r3, [r3]
 497 0102 7B4A     		ldr	r2, .L487+24
 498 0104 1268     		ldr	r2, [r2]
 499 0106 02FB03F3 		mul	r3, r2, r3
 500 010a 1E46     		mov	r6, r3
 501 010c 784B     		ldr	r3, .L487+24
 502 010e 1B68     		ldr	r3, [r3]
 503 0110 1A46     		mov	r2, r3
 504 0112 774B     		ldr	r3, .L487+24
 505 0114 1B68     		ldr	r3, [r3]
 506 0116 1946     		mov	r1, r3
 507 0118 724B     		ldr	r3, .L487+12
 508 011a 1B68     		ldr	r3, [r3]
 509 011c 0293     		str	r3, [sp, #8]
 510 011e 0191     		str	r1, [sp, #4]
 511 0120 0092     		str	r2, [sp]
 512 0122 3346     		mov	r3, r6
 513 0124 2A46     		mov	r2, r5
 514 0126 2146     		mov	r1, r4
 515 0128 FFF7FEFF 		bl	e_poxxxx_config_cam
 516              		.loc 1 134 0
 517 012c FFF7FEFF 		bl	e_poxxxx_write_cam_registers
 518              	.L7:
 519              		.loc 1 137 0
 520 0130 9DF82630 		ldrb	r3, [sp, #38]	@ zero_extendqisi2
 521 0134 002B     		cmp	r3, #0
 522 0136 1BD1     		bne	.L441
 523              		.loc 1 142 0
 524 0138 0B9B     		ldr	r3, [sp, #44]
 525 013a 002B     		cmp	r3, #0
 526 013c 0CD0     		beq	.L9
 527              		.loc 1 143 0
 528 013e FFF7FEFF 		bl	e_acc_calibr
 529              		.loc 1 144 0
 530 0142 5821     		movs	r1, #88
 531 0144 6C48     		ldr	r0, .L487+32
 532 0146 FFF7FEFF 		bl	e_send_uart1_char
 533 014a 00BF     		nop
 534              	.L10:
 535              		.loc 1 144 0 is_stmt 0 discriminator 2
 536 014c FFF7FEFF 		bl	e_uart1_sending
ARM GAS  C:\Users\Moi\AppData\Local\Temp\ccF5N8ze.s 			page 16


 537 0150 0346     		mov	r3, r0
 538 0152 002B     		cmp	r3, #0
 539 0154 FAD1     		bne	.L10
 540 0156 0BE0     		b	.L441
 541              	.L9:
 542              		.loc 1 148 0 is_stmt 1
 543 0158 FFF7FEFF 		bl	e_acc_calibr
 544              		.loc 1 149 0
 545 015c 5821     		movs	r1, #88
 546 015e 6648     		ldr	r0, .L487+32
 547 0160 FFF7FEFF 		bl	e_send_uart2_char
 548 0164 00BF     		nop
 549              	.L11:
 550              		.loc 1 149 0 is_stmt 0 discriminator 2
 551 0166 FFF7FEFF 		bl	e_uart2_sending
 552 016a 0346     		mov	r3, r0
 553 016c 002B     		cmp	r3, #0
 554 016e FAD1     		bne	.L11
 555              	.L441:
 556              		.loc 1 155 0 is_stmt 1
 557 0170 9DF82630 		ldrb	r3, [sp, #38]	@ zero_extendqisi2
 558 0174 002B     		cmp	r3, #0
 559 0176 40F07681 		bne	.L12
 560              		.loc 1 157 0
 561 017a 0B9B     		ldr	r3, [sp, #44]
 562 017c 002B     		cmp	r3, #0
 563 017e 00F06B81 		beq	.L31
 564              		.loc 1 158 0
 565 0182 A1E0     		b	.L14
 566              	.L30:
 567              		.loc 1 161 0
 568 0184 FFF7FEFF 		bl	e_get_data
 569 0188 0346     		mov	r3, r0
 570 018a 8DF82730 		strb	r3, [sp, #39]
 571              		.loc 1 162 0
 572 018e FFF7FEFF 		bl	e_get_address
 573 0192 0346     		mov	r3, r0
 574 0194 8DF82830 		strb	r3, [sp, #40]
 575              		.loc 1 163 0
 576 0198 9DF82830 		ldrb	r3, [sp, #40]	@ zero_extendqisi2
 577 019c 002B     		cmp	r3, #0
 578 019e 04D0     		beq	.L15
 579              		.loc 1 163 0 is_stmt 0 discriminator 2
 580 01a0 9DF82830 		ldrb	r3, [sp, #40]	@ zero_extendqisi2
 581 01a4 082B     		cmp	r3, #8
 582 01a6 40F08F80 		bne	.L14
 583              	.L15:
 584              		.loc 1 163 0 discriminator 3
 585 01aa 9DF82720 		ldrb	r2, [sp, #39]	@ zero_extendqisi2
 586 01ae 9DF82530 		ldrb	r3, [sp, #37]	@ zero_extendqisi2
 587 01b2 9A42     		cmp	r2, r3
 588 01b4 00F08880 		beq	.L14
 589              		.loc 1 164 0 is_stmt 1
 590 01b8 9DF82730 		ldrb	r3, [sp, #39]	@ zero_extendqisi2
 591 01bc 092B     		cmp	r3, #9
 592 01be 6ED8     		bhi	.L16
 593 01c0 01A2     		adr	r2, .L18
ARM GAS  C:\Users\Moi\AppData\Local\Temp\ccF5N8ze.s 			page 17


 594 01c2 52F823F0 		ldr	pc, [r2, r3, lsl #2]
 595 01c6 00BF     		.p2align 2
 596              	.L18:
 597 01c8 7F020000 		.word	.L17+1
 598 01cc F1010000 		.word	.L19+1
 599 01d0 03020000 		.word	.L20+1
 600 01d4 15020000 		.word	.L21+1
 601 01d8 27020000 		.word	.L22+1
 602 01dc 37020000 		.word	.L23+1
 603 01e0 45020000 		.word	.L24+1
 604 01e4 55020000 		.word	.L25+1
 605 01e8 63020000 		.word	.L26+1
 606 01ec 71020000 		.word	.L27+1
 607              		.p2align 1
 608              	.L19:
 609              		.loc 1 166 0
 610 01f0 424B     		ldr	r3, .L487+36
 611 01f2 4FF41672 		mov	r2, #600
 612 01f6 1A60     		str	r2, [r3]
 613              		.loc 1 167 0
 614 01f8 414B     		ldr	r3, .L487+40
 615 01fa 4FF49672 		mov	r2, #300
 616 01fe 1A60     		str	r2, [r3]
 617              		.loc 1 168 0
 618 0200 54E0     		b	.L28
 619              	.L20:
 620              		.loc 1 170 0
 621 0202 3E4B     		ldr	r3, .L487+36
 622 0204 4FF41672 		mov	r2, #600
 623 0208 1A60     		str	r2, [r3]
 624              		.loc 1 171 0
 625 020a 3D4B     		ldr	r3, .L487+40
 626 020c 4FF41672 		mov	r2, #600
 627 0210 1A60     		str	r2, [r3]
 628              		.loc 1 172 0
 629 0212 4BE0     		b	.L28
 630              	.L21:
 631              		.loc 1 174 0
 632 0214 394B     		ldr	r3, .L487+36
 633 0216 4FF49672 		mov	r2, #300
 634 021a 1A60     		str	r2, [r3]
 635              		.loc 1 175 0
 636 021c 384B     		ldr	r3, .L487+40
 637 021e 4FF41672 		mov	r2, #600
 638 0222 1A60     		str	r2, [r3]
 639              		.loc 1 176 0
 640 0224 42E0     		b	.L28
 641              	.L22:
 642              		.loc 1 178 0
 643 0226 354B     		ldr	r3, .L487+36
 644 0228 4FF41672 		mov	r2, #600
 645 022c 1A60     		str	r2, [r3]
 646              		.loc 1 179 0
 647 022e 344B     		ldr	r3, .L487+40
 648 0230 344A     		ldr	r2, .L487+44
 649 0232 1A60     		str	r2, [r3]
 650              		.loc 1 180 0
ARM GAS  C:\Users\Moi\AppData\Local\Temp\ccF5N8ze.s 			page 18


 651 0234 3AE0     		b	.L28
 652              	.L23:
 653              		.loc 1 182 0
 654 0236 314B     		ldr	r3, .L487+36
 655 0238 0022     		movs	r2, #0
 656 023a 1A60     		str	r2, [r3]
 657              		.loc 1 183 0
 658 023c 304B     		ldr	r3, .L487+40
 659 023e 0022     		movs	r2, #0
 660 0240 1A60     		str	r2, [r3]
 661              		.loc 1 184 0
 662 0242 33E0     		b	.L28
 663              	.L24:
 664              		.loc 1 186 0
 665 0244 2D4B     		ldr	r3, .L487+36
 666 0246 2F4A     		ldr	r2, .L487+44
 667 0248 1A60     		str	r2, [r3]
 668              		.loc 1 187 0
 669 024a 2D4B     		ldr	r3, .L487+40
 670 024c 4FF41672 		mov	r2, #600
 671 0250 1A60     		str	r2, [r3]
 672              		.loc 1 188 0
 673 0252 2BE0     		b	.L28
 674              	.L25:
 675              		.loc 1 190 0
 676 0254 294B     		ldr	r3, .L487+36
 677 0256 2B4A     		ldr	r2, .L487+44
 678 0258 1A60     		str	r2, [r3]
 679              		.loc 1 191 0
 680 025a 294B     		ldr	r3, .L487+40
 681 025c 2A4A     		ldr	r2, .L487+48
 682 025e 1A60     		str	r2, [r3]
 683              		.loc 1 192 0
 684 0260 24E0     		b	.L28
 685              	.L26:
 686              		.loc 1 194 0
 687 0262 264B     		ldr	r3, .L487+36
 688 0264 274A     		ldr	r2, .L487+44
 689 0266 1A60     		str	r2, [r3]
 690              		.loc 1 195 0
 691 0268 254B     		ldr	r3, .L487+40
 692 026a 264A     		ldr	r2, .L487+44
 693 026c 1A60     		str	r2, [r3]
 694              		.loc 1 196 0
 695 026e 1DE0     		b	.L28
 696              	.L27:
 697              		.loc 1 198 0
 698 0270 224B     		ldr	r3, .L487+36
 699 0272 254A     		ldr	r2, .L487+48
 700 0274 1A60     		str	r2, [r3]
 701              		.loc 1 199 0
 702 0276 224B     		ldr	r3, .L487+40
 703 0278 224A     		ldr	r2, .L487+44
 704 027a 1A60     		str	r2, [r3]
 705              		.loc 1 200 0
 706 027c 16E0     		b	.L28
 707              	.L17:
ARM GAS  C:\Users\Moi\AppData\Local\Temp\ccF5N8ze.s 			page 19


 708              		.loc 1 202 0
 709 027e 234B     		ldr	r3, .L487+52
 710 0280 1B78     		ldrb	r3, [r3]	@ zero_extendqisi2
 711 0282 002B     		cmp	r3, #0
 712 0284 04D1     		bne	.L29
 713              		.loc 1 203 0
 714 0286 FFF7FEFF 		bl	e_init_sound
 715              		.loc 1 204 0
 716 028a 204B     		ldr	r3, .L487+52
 717 028c 0122     		movs	r2, #1
 718 028e 1A70     		strb	r2, [r3]
 719              	.L29:
 720              		.loc 1 206 0
 721 0290 41F65071 		movw	r1, #8016
 722 0294 42F61430 		movw	r0, #11028
 723 0298 FFF7FEFF 		bl	e_play_sound
 724              		.loc 1 207 0
 725 029c 06E0     		b	.L28
 726              	.L16:
 727              		.loc 1 209 0
 728 029e 184B     		ldr	r3, .L487+40
 729 02a0 0022     		movs	r2, #0
 730 02a2 1A60     		str	r2, [r3]
 731 02a4 164B     		ldr	r3, .L487+40
 732 02a6 1B68     		ldr	r3, [r3]
 733 02a8 144A     		ldr	r2, .L487+36
 734 02aa 1360     		str	r3, [r2]
 735              	.L28:
 736              		.loc 1 211 0
 737 02ac 9DF82730 		ldrb	r3, [sp, #39]
 738 02b0 8DF82530 		strb	r3, [sp, #37]
 739              		.loc 1 212 0
 740 02b4 124B     		ldr	r3, .L487+40
 741 02b6 1B68     		ldr	r3, [r3]
 742 02b8 1846     		mov	r0, r3
 743 02ba FFF7FEFF 		bl	e_set_speed_left
 744              		.loc 1 213 0
 745 02be 0F4B     		ldr	r3, .L487+36
 746 02c0 1B68     		ldr	r3, [r3]
 747 02c2 1846     		mov	r0, r3
 748 02c4 FFF7FEFF 		bl	e_set_speed_right
 749              	.L14:
 750              		.loc 1 158 0
 751 02c8 1148     		ldr	r0, .L487+56
 752 02ca FFF7FEFF 		bl	e_getchar_uart1
 753 02ce 0346     		mov	r3, r0
 754 02d0 002B     		cmp	r3, #0
 755 02d2 3FF457AF 		beq	.L30
 756 02d6 C6E0     		b	.L12
 757              	.L488:
 758              		.align	2
 759              	.L487:
 760 02d8 00000000 		.word	__stack_chk_guard
 761 02dc 00000000 		.word	selector
 762 02e0 00000000 		.word	HWversion.13569
 763 02e4 00000000 		.word	cam_mode.13548
 764 02e8 00000000 		.word	cam_width.13549
ARM GAS  C:\Users\Moi\AppData\Local\Temp\ccF5N8ze.s 			page 20


 765 02ec 00000000 		.word	cam_heigth.13550
 766 02f0 00000000 		.word	cam_zoom.13551
 767 02f4 00000000 		.word	cam_size.13552
 768 02f8 00000000 		.word	.LC0
 769 02fc 00000000 		.word	speedr.13535
 770 0300 00000000 		.word	speedl.13536
 771 0304 A8FDFFFF 		.word	-600
 772 0308 D4FEFFFF 		.word	-300
 773 030c 00000000 		.word	first.13555
 774 0310 00000000 		.word	c
 775              	.L47:
 776              		.loc 1 223 0
 777 0314 FFF7FEFF 		bl	e_get_data
 778 0318 0346     		mov	r3, r0
 779 031a 8DF82730 		strb	r3, [sp, #39]
 780              		.loc 1 224 0
 781 031e FFF7FEFF 		bl	e_get_address
 782 0322 0346     		mov	r3, r0
 783 0324 8DF82830 		strb	r3, [sp, #40]
 784              		.loc 1 225 0
 785 0328 9DF82830 		ldrb	r3, [sp, #40]	@ zero_extendqisi2
 786 032c 002B     		cmp	r3, #0
 787 032e 04D0     		beq	.L32
 788              		.loc 1 225 0 is_stmt 0 discriminator 2
 789 0330 9DF82830 		ldrb	r3, [sp, #40]	@ zero_extendqisi2
 790 0334 082B     		cmp	r3, #8
 791 0336 40F08F80 		bne	.L31
 792              	.L32:
 793              		.loc 1 225 0 discriminator 3
 794 033a 9DF82720 		ldrb	r2, [sp, #39]	@ zero_extendqisi2
 795 033e 9DF82530 		ldrb	r3, [sp, #37]	@ zero_extendqisi2
 796 0342 9A42     		cmp	r2, r3
 797 0344 00F08880 		beq	.L31
 798              		.loc 1 226 0 is_stmt 1
 799 0348 9DF82730 		ldrb	r3, [sp, #39]	@ zero_extendqisi2
 800 034c 092B     		cmp	r3, #9
 801 034e 6ED8     		bhi	.L33
 802 0350 01A2     		adr	r2, .L35
 803 0352 52F823F0 		ldr	pc, [r2, r3, lsl #2]
 804 0356 00BF     		.p2align 2
 805              	.L35:
 806 0358 0F040000 		.word	.L34+1
 807 035c 81030000 		.word	.L36+1
 808 0360 93030000 		.word	.L37+1
 809 0364 A5030000 		.word	.L38+1
 810 0368 B7030000 		.word	.L39+1
 811 036c C7030000 		.word	.L40+1
 812 0370 D5030000 		.word	.L41+1
 813 0374 E5030000 		.word	.L42+1
 814 0378 F3030000 		.word	.L43+1
 815 037c 01040000 		.word	.L44+1
 816              		.p2align 1
 817              	.L36:
 818              		.loc 1 228 0
 819 0380 BD4B     		ldr	r3, .L489
 820 0382 4FF41672 		mov	r2, #600
 821 0386 1A60     		str	r2, [r3]
ARM GAS  C:\Users\Moi\AppData\Local\Temp\ccF5N8ze.s 			page 21


 822              		.loc 1 229 0
 823 0388 BC4B     		ldr	r3, .L489+4
 824 038a 4FF49672 		mov	r2, #300
 825 038e 1A60     		str	r2, [r3]
 826              		.loc 1 230 0
 827 0390 54E0     		b	.L45
 828              	.L37:
 829              		.loc 1 232 0
 830 0392 B94B     		ldr	r3, .L489
 831 0394 4FF41672 		mov	r2, #600
 832 0398 1A60     		str	r2, [r3]
 833              		.loc 1 233 0
 834 039a B84B     		ldr	r3, .L489+4
 835 039c 4FF41672 		mov	r2, #600
 836 03a0 1A60     		str	r2, [r3]
 837              		.loc 1 234 0
 838 03a2 4BE0     		b	.L45
 839              	.L38:
 840              		.loc 1 236 0
 841 03a4 B44B     		ldr	r3, .L489
 842 03a6 4FF49672 		mov	r2, #300
 843 03aa 1A60     		str	r2, [r3]
 844              		.loc 1 237 0
 845 03ac B34B     		ldr	r3, .L489+4
 846 03ae 4FF41672 		mov	r2, #600
 847 03b2 1A60     		str	r2, [r3]
 848              		.loc 1 238 0
 849 03b4 42E0     		b	.L45
 850              	.L39:
 851              		.loc 1 240 0
 852 03b6 B04B     		ldr	r3, .L489
 853 03b8 4FF41672 		mov	r2, #600
 854 03bc 1A60     		str	r2, [r3]
 855              		.loc 1 241 0
 856 03be AF4B     		ldr	r3, .L489+4
 857 03c0 AF4A     		ldr	r2, .L489+8
 858 03c2 1A60     		str	r2, [r3]
 859              		.loc 1 242 0
 860 03c4 3AE0     		b	.L45
 861              	.L40:
 862              		.loc 1 244 0
 863 03c6 AC4B     		ldr	r3, .L489
 864 03c8 0022     		movs	r2, #0
 865 03ca 1A60     		str	r2, [r3]
 866              		.loc 1 245 0
 867 03cc AB4B     		ldr	r3, .L489+4
 868 03ce 0022     		movs	r2, #0
 869 03d0 1A60     		str	r2, [r3]
 870              		.loc 1 246 0
 871 03d2 33E0     		b	.L45
 872              	.L41:
 873              		.loc 1 248 0
 874 03d4 A84B     		ldr	r3, .L489
 875 03d6 AA4A     		ldr	r2, .L489+8
 876 03d8 1A60     		str	r2, [r3]
 877              		.loc 1 249 0
 878 03da A84B     		ldr	r3, .L489+4
ARM GAS  C:\Users\Moi\AppData\Local\Temp\ccF5N8ze.s 			page 22


 879 03dc 4FF41672 		mov	r2, #600
 880 03e0 1A60     		str	r2, [r3]
 881              		.loc 1 250 0
 882 03e2 2BE0     		b	.L45
 883              	.L42:
 884              		.loc 1 252 0
 885 03e4 A44B     		ldr	r3, .L489
 886 03e6 A64A     		ldr	r2, .L489+8
 887 03e8 1A60     		str	r2, [r3]
 888              		.loc 1 253 0
 889 03ea A44B     		ldr	r3, .L489+4
 890 03ec A54A     		ldr	r2, .L489+12
 891 03ee 1A60     		str	r2, [r3]
 892              		.loc 1 254 0
 893 03f0 24E0     		b	.L45
 894              	.L43:
 895              		.loc 1 256 0
 896 03f2 A14B     		ldr	r3, .L489
 897 03f4 A24A     		ldr	r2, .L489+8
 898 03f6 1A60     		str	r2, [r3]
 899              		.loc 1 257 0
 900 03f8 A04B     		ldr	r3, .L489+4
 901 03fa A14A     		ldr	r2, .L489+8
 902 03fc 1A60     		str	r2, [r3]
 903              		.loc 1 258 0
 904 03fe 1DE0     		b	.L45
 905              	.L44:
 906              		.loc 1 260 0
 907 0400 9D4B     		ldr	r3, .L489
 908 0402 A04A     		ldr	r2, .L489+12
 909 0404 1A60     		str	r2, [r3]
 910              		.loc 1 261 0
 911 0406 9D4B     		ldr	r3, .L489+4
 912 0408 9D4A     		ldr	r2, .L489+8
 913 040a 1A60     		str	r2, [r3]
 914              		.loc 1 262 0
 915 040c 16E0     		b	.L45
 916              	.L34:
 917              		.loc 1 264 0
 918 040e 9E4B     		ldr	r3, .L489+16
 919 0410 1B78     		ldrb	r3, [r3]	@ zero_extendqisi2
 920 0412 002B     		cmp	r3, #0
 921 0414 04D1     		bne	.L46
 922              		.loc 1 265 0
 923 0416 FFF7FEFF 		bl	e_init_sound
 924              		.loc 1 266 0
 925 041a 9B4B     		ldr	r3, .L489+16
 926 041c 0122     		movs	r2, #1
 927 041e 1A70     		strb	r2, [r3]
 928              	.L46:
 929              		.loc 1 268 0
 930 0420 41F65071 		movw	r1, #8016
 931 0424 42F61430 		movw	r0, #11028
 932 0428 FFF7FEFF 		bl	e_play_sound
 933              		.loc 1 269 0
 934 042c 06E0     		b	.L45
 935              	.L33:
ARM GAS  C:\Users\Moi\AppData\Local\Temp\ccF5N8ze.s 			page 23


 936              		.loc 1 271 0
 937 042e 934B     		ldr	r3, .L489+4
 938 0430 0022     		movs	r2, #0
 939 0432 1A60     		str	r2, [r3]
 940 0434 914B     		ldr	r3, .L489+4
 941 0436 1B68     		ldr	r3, [r3]
 942 0438 8F4A     		ldr	r2, .L489
 943 043a 1360     		str	r3, [r2]
 944              	.L45:
 945              		.loc 1 273 0
 946 043c 9DF82730 		ldrb	r3, [sp, #39]
 947 0440 8DF82530 		strb	r3, [sp, #37]
 948              		.loc 1 274 0
 949 0444 8D4B     		ldr	r3, .L489+4
 950 0446 1B68     		ldr	r3, [r3]
 951 0448 1846     		mov	r0, r3
 952 044a FFF7FEFF 		bl	e_set_speed_left
 953              		.loc 1 275 0
 954 044e 8A4B     		ldr	r3, .L489
 955 0450 1B68     		ldr	r3, [r3]
 956 0452 1846     		mov	r0, r3
 957 0454 FFF7FEFF 		bl	e_set_speed_right
 958              	.L31:
 959              		.loc 1 220 0
 960 0458 8C48     		ldr	r0, .L489+20
 961 045a FFF7FEFF 		bl	e_getchar_uart2
 962 045e 0346     		mov	r3, r0
 963 0460 002B     		cmp	r3, #0
 964 0462 3FF457AF 		beq	.L47
 965              	.L12:
 966              		.loc 1 283 0
 967 0466 894B     		ldr	r3, .L489+20
 968 0468 1B78     		ldrb	r3, [r3]	@ zero_extendqisi2
 969 046a 5BB2     		sxtb	r3, r3
 970 046c 002B     		cmp	r3, #0
 971 046e 81F25880 		bge	.L48
 972              		.loc 1 284 0
 973 0472 874B     		ldr	r3, .L489+24
 974 0474 0022     		movs	r2, #0
 975 0476 1A60     		str	r2, [r3]
 976              	.L170:
 977              		.loc 1 286 0
 978 0478 844B     		ldr	r3, .L489+20
 979 047a 1B78     		ldrb	r3, [r3]	@ zero_extendqisi2
 980 047c 5B42     		negs	r3, r3
 981 047e DBB2     		uxtb	r3, r3
 982 0480 5BB2     		sxtb	r3, r3
 983 0482 0A3B     		subs	r3, r3, #10
 984 0484 6D2B     		cmp	r3, #109
 985 0486 00F2E587 		bhi	.L444
 986 048a 01A2     		adr	r2, .L51
 987 048c 52F823F0 		ldr	pc, [r2, r3, lsl #2]
 988              		.p2align 2
 989              	.L51:
 990 0490 49060000 		.word	.L50+1
 991 0494 11070000 		.word	.L52+1
 992 0498 2B070000 		.word	.L53+1
ARM GAS  C:\Users\Moi\AppData\Local\Temp\ccF5N8ze.s 			page 24


 993 049c 07080000 		.word	.L54+1
 994 04a0 6D080000 		.word	.L55+1
 995 04a4 55140000 		.word	.L444+1
 996 04a8 55140000 		.word	.L444+1
 997 04ac 55140000 		.word	.L444+1
 998 04b0 55140000 		.word	.L444+1
 999 04b4 55140000 		.word	.L444+1
 1000 04b8 55140000 		.word	.L444+1
 1001 04bc 55140000 		.word	.L444+1
 1002 04c0 55140000 		.word	.L444+1
 1003 04c4 55140000 		.word	.L444+1
 1004 04c8 55140000 		.word	.L444+1
 1005 04cc 55140000 		.word	.L444+1
 1006 04d0 55140000 		.word	.L444+1
 1007 04d4 55140000 		.word	.L444+1
 1008 04d8 55140000 		.word	.L444+1
 1009 04dc 55140000 		.word	.L444+1
 1010 04e0 55140000 		.word	.L444+1
 1011 04e4 55140000 		.word	.L444+1
 1012 04e8 55140000 		.word	.L444+1
 1013 04ec 55140000 		.word	.L444+1
 1014 04f0 55140000 		.word	.L444+1
 1015 04f4 55140000 		.word	.L444+1
 1016 04f8 55140000 		.word	.L444+1
 1017 04fc 55140000 		.word	.L444+1
 1018 0500 55140000 		.word	.L444+1
 1019 0504 55140000 		.word	.L444+1
 1020 0508 55140000 		.word	.L444+1
 1021 050c 55140000 		.word	.L444+1
 1022 0510 55140000 		.word	.L444+1
 1023 0514 55140000 		.word	.L444+1
 1024 0518 55140000 		.word	.L444+1
 1025 051c 55140000 		.word	.L444+1
 1026 0520 55140000 		.word	.L444+1
 1027 0524 55140000 		.word	.L444+1
 1028 0528 55140000 		.word	.L444+1
 1029 052c 55140000 		.word	.L444+1
 1030 0530 55140000 		.word	.L444+1
 1031 0534 55140000 		.word	.L444+1
 1032 0538 55140000 		.word	.L444+1
 1033 053c 55140000 		.word	.L444+1
 1034 0540 55140000 		.word	.L444+1
 1035 0544 55140000 		.word	.L444+1
 1036 0548 55140000 		.word	.L444+1
 1037 054c 55140000 		.word	.L444+1
 1038 0550 55140000 		.word	.L444+1
 1039 0554 55140000 		.word	.L444+1
 1040 0558 55140000 		.word	.L444+1
 1041 055c 55140000 		.word	.L444+1
 1042 0560 55140000 		.word	.L444+1
 1043 0564 55140000 		.word	.L444+1
 1044 0568 55140000 		.word	.L444+1
 1045 056c 89090000 		.word	.L56+1
 1046 0570 55140000 		.word	.L444+1
 1047 0574 55140000 		.word	.L444+1
 1048 0578 170B0000 		.word	.L57+1
 1049 057c 110C0000 		.word	.L58+1
ARM GAS  C:\Users\Moi\AppData\Local\Temp\ccF5N8ze.s 			page 25


 1050 0580 55140000 		.word	.L444+1
 1051 0584 55140000 		.word	.L444+1
 1052 0588 55140000 		.word	.L444+1
 1053 058c 5B0D0000 		.word	.L59+1
 1054 0590 55140000 		.word	.L444+1
 1055 0594 55140000 		.word	.L444+1
 1056 0598 090E0000 		.word	.L60+1
 1057 059c 8D0E0000 		.word	.L61+1
 1058 05a0 850F0000 		.word	.L62+1
 1059 05a4 DB0F0000 		.word	.L63+1
 1060 05a8 31100000 		.word	.L64+1
 1061 05ac 17110000 		.word	.L65+1
 1062 05b0 55140000 		.word	.L444+1
 1063 05b4 55140000 		.word	.L444+1
 1064 05b8 55140000 		.word	.L444+1
 1065 05bc 55140000 		.word	.L444+1
 1066 05c0 55140000 		.word	.L444+1
 1067 05c4 59120000 		.word	.L67+1
 1068 05c8 55140000 		.word	.L444+1
 1069 05cc 55140000 		.word	.L444+1
 1070 05d0 55140000 		.word	.L444+1
 1071 05d4 55140000 		.word	.L444+1
 1072 05d8 55140000 		.word	.L444+1
 1073 05dc 55140000 		.word	.L444+1
 1074 05e0 55140000 		.word	.L444+1
 1075 05e4 55140000 		.word	.L444+1
 1076 05e8 55140000 		.word	.L444+1
 1077 05ec 9F080000 		.word	.L68+1
 1078 05f0 E70A0000 		.word	.L69+1
 1079 05f4 55140000 		.word	.L444+1
 1080 05f8 55140000 		.word	.L444+1
 1081 05fc 55140000 		.word	.L444+1
 1082 0600 55140000 		.word	.L444+1
 1083 0604 670C0000 		.word	.L70+1
 1084 0608 55140000 		.word	.L444+1
 1085 060c 55140000 		.word	.L444+1
 1086 0610 55140000 		.word	.L444+1
 1087 0614 55140000 		.word	.L444+1
 1088 0618 55140000 		.word	.L444+1
 1089 061c 55140000 		.word	.L444+1
 1090 0620 55140000 		.word	.L444+1
 1091 0624 55140000 		.word	.L444+1
 1092 0628 55140000 		.word	.L444+1
 1093 062c 55140000 		.word	.L444+1
 1094 0630 55140000 		.word	.L444+1
 1095 0634 55140000 		.word	.L444+1
 1096 0638 81110000 		.word	.L71+1
 1097 063c B5110000 		.word	.L72+1
 1098 0640 55140000 		.word	.L444+1
 1099 0644 E1120000 		.word	.L73+1
 1100              		.p2align 1
 1101              	.L50:
 1102              		.loc 1 288 0
 1103 0648 124B     		ldr	r3, .L489+28
 1104 064a 0022     		movs	r2, #0
 1105 064c 1A60     		str	r2, [r3]
 1106 064e 35E0     		b	.L74
ARM GAS  C:\Users\Moi\AppData\Local\Temp\ccF5N8ze.s 			page 26


 1107              	.L79:
 1108              		.loc 1 289 0
 1109 0650 9DF82630 		ldrb	r3, [sp, #38]	@ zero_extendqisi2
 1110 0654 002B     		cmp	r3, #0
 1111 0656 2CD1     		bne	.L75
 1112              		.loc 1 291 0
 1113 0658 0B9B     		ldr	r3, [sp, #44]
 1114 065a 002B     		cmp	r3, #0
 1115 065c 1ED0     		beq	.L479
 1116              		.loc 1 292 0
 1117 065e 00BF     		nop
 1118              	.L77:
 1119              		.loc 1 292 0 is_stmt 0 discriminator 1
 1120 0660 0C4B     		ldr	r3, .L489+28
 1121 0662 1B68     		ldr	r3, [r3]
 1122 0664 0C4A     		ldr	r2, .L489+32
 1123 0666 1344     		add	r3, r3, r2
 1124 0668 1846     		mov	r0, r3
 1125 066a FFF7FEFF 		bl	e_getchar_uart1
 1126 066e 0346     		mov	r3, r0
 1127 0670 002B     		cmp	r3, #0
 1128 0672 F5D0     		beq	.L77
 1129 0674 1DE0     		b	.L75
 1130              	.L490:
 1131 0676 00BF     		.align	2
 1132              	.L489:
 1133 0678 00000000 		.word	speedr.13535
 1134 067c 00000000 		.word	speedl.13536
 1135 0680 A8FDFFFF 		.word	-600
 1136 0684 D4FEFFFF 		.word	-300
 1137 0688 00000000 		.word	first.13555
 1138 068c 00000000 		.word	c
 1139 0690 00000000 		.word	i.13532
 1140 0694 00000000 		.word	j.13533
 1141 0698 00000000 		.word	rgb_value.13556
 1142              	.L479:
 1143              		.loc 1 294 0 is_stmt 1
 1144 069c 00BF     		nop
 1145              	.L78:
 1146              		.loc 1 294 0 is_stmt 0 discriminator 1
 1147 069e 8D4B     		ldr	r3, .L491
 1148 06a0 1B68     		ldr	r3, [r3]
 1149 06a2 8D4A     		ldr	r2, .L491+4
 1150 06a4 1344     		add	r3, r3, r2
 1151 06a6 1846     		mov	r0, r3
 1152 06a8 FFF7FEFF 		bl	e_getchar_uart2
 1153 06ac 0346     		mov	r3, r0
 1154 06ae 002B     		cmp	r3, #0
 1155 06b0 F5D0     		beq	.L78
 1156              	.L75:
 1157              		.loc 1 288 0 is_stmt 1 discriminator 2
 1158 06b2 884B     		ldr	r3, .L491
 1159 06b4 1B68     		ldr	r3, [r3]
 1160 06b6 0133     		adds	r3, r3, #1
 1161 06b8 864A     		ldr	r2, .L491
 1162 06ba 1360     		str	r3, [r2]
 1163              	.L74:
ARM GAS  C:\Users\Moi\AppData\Local\Temp\ccF5N8ze.s 			page 27


 1164              		.loc 1 288 0 is_stmt 0 discriminator 1
 1165 06bc 854B     		ldr	r3, .L491
 1166 06be 1B68     		ldr	r3, [r3]
 1167 06c0 0B2B     		cmp	r3, #11
 1168 06c2 C5DD     		ble	.L79
 1169              		.loc 1 297 0 is_stmt 1
 1170 06c4 844B     		ldr	r3, .L491+4
 1171 06c6 1978     		ldrb	r1, [r3]	@ zero_extendqisi2
 1172 06c8 834B     		ldr	r3, .L491+4
 1173 06ca 5A78     		ldrb	r2, [r3, #1]	@ zero_extendqisi2
 1174 06cc 824B     		ldr	r3, .L491+4
 1175 06ce 9B78     		ldrb	r3, [r3, #2]	@ zero_extendqisi2
 1176 06d0 0020     		movs	r0, #0
 1177 06d2 FFF7FEFF 		bl	set_rgb_led
 1178              		.loc 1 298 0
 1179 06d6 804B     		ldr	r3, .L491+4
 1180 06d8 D978     		ldrb	r1, [r3, #3]	@ zero_extendqisi2
 1181 06da 7F4B     		ldr	r3, .L491+4
 1182 06dc 1A79     		ldrb	r2, [r3, #4]	@ zero_extendqisi2
 1183 06de 7E4B     		ldr	r3, .L491+4
 1184 06e0 5B79     		ldrb	r3, [r3, #5]	@ zero_extendqisi2
 1185 06e2 0120     		movs	r0, #1
 1186 06e4 FFF7FEFF 		bl	set_rgb_led
 1187              		.loc 1 299 0
 1188 06e8 7B4B     		ldr	r3, .L491+4
 1189 06ea 9979     		ldrb	r1, [r3, #6]	@ zero_extendqisi2
 1190 06ec 7A4B     		ldr	r3, .L491+4
 1191 06ee DA79     		ldrb	r2, [r3, #7]	@ zero_extendqisi2
 1192 06f0 794B     		ldr	r3, .L491+4
 1193 06f2 1B7A     		ldrb	r3, [r3, #8]	@ zero_extendqisi2
 1194 06f4 0220     		movs	r0, #2
 1195 06f6 FFF7FEFF 		bl	set_rgb_led
 1196              		.loc 1 300 0
 1197 06fa 774B     		ldr	r3, .L491+4
 1198 06fc 597A     		ldrb	r1, [r3, #9]	@ zero_extendqisi2
 1199 06fe 764B     		ldr	r3, .L491+4
 1200 0700 9A7A     		ldrb	r2, [r3, #10]	@ zero_extendqisi2
 1201 0702 754B     		ldr	r3, .L491+4
 1202 0704 DB7A     		ldrb	r3, [r3, #11]	@ zero_extendqisi2
 1203 0706 0320     		movs	r0, #3
 1204 0708 FFF7FEFF 		bl	set_rgb_led
 1205              		.loc 1 301 0
 1206 070c 00F0ABBE 		b	.L80
 1207              	.L52:
 1208              		.loc 1 304 0
 1209 0710 724B     		ldr	r3, .L491+8
 1210 0712 1C68     		ldr	r4, [r3]
 1211 0714 631C     		adds	r3, r4, #1
 1212 0716 714A     		ldr	r2, .L491+8
 1213 0718 1360     		str	r3, [r2]
 1214 071a FFF7FEFF 		bl	button_get_state
 1215 071e 0346     		mov	r3, r0
 1216 0720 1A46     		mov	r2, r3
 1217 0722 6F4B     		ldr	r3, .L491+12
 1218 0724 1A55     		strb	r2, [r3, r4]
 1219              		.loc 1 305 0
 1220 0726 00F09EBE 		b	.L80
ARM GAS  C:\Users\Moi\AppData\Local\Temp\ccF5N8ze.s 			page 28


 1221              	.L53:
 1222              		.loc 1 308 0
 1223 072a 0020     		movs	r0, #0
 1224 072c FFF7FEFF 		bl	e_get_micro_volume
 1225 0730 0246     		mov	r2, r0
 1226 0732 6C4B     		ldr	r3, .L491+16
 1227 0734 1A60     		str	r2, [r3]
 1228              		.loc 1 309 0
 1229 0736 6B4B     		ldr	r3, .L491+16
 1230 0738 1868     		ldr	r0, [r3]
 1231 073a 684B     		ldr	r3, .L491+8
 1232 073c 1B68     		ldr	r3, [r3]
 1233 073e 5A1C     		adds	r2, r3, #1
 1234 0740 6649     		ldr	r1, .L491+8
 1235 0742 0A60     		str	r2, [r1]
 1236 0744 C1B2     		uxtb	r1, r0
 1237 0746 664A     		ldr	r2, .L491+12
 1238 0748 D154     		strb	r1, [r2, r3]
 1239              		.loc 1 310 0
 1240 074a 664B     		ldr	r3, .L491+16
 1241 074c 1B68     		ldr	r3, [r3]
 1242 074e 1812     		asrs	r0, r3, #8
 1243 0750 624B     		ldr	r3, .L491+8
 1244 0752 1B68     		ldr	r3, [r3]
 1245 0754 5A1C     		adds	r2, r3, #1
 1246 0756 6149     		ldr	r1, .L491+8
 1247 0758 0A60     		str	r2, [r1]
 1248 075a C1B2     		uxtb	r1, r0
 1249 075c 604A     		ldr	r2, .L491+12
 1250 075e D154     		strb	r1, [r2, r3]
 1251              		.loc 1 312 0
 1252 0760 0120     		movs	r0, #1
 1253 0762 FFF7FEFF 		bl	e_get_micro_volume
 1254 0766 0246     		mov	r2, r0
 1255 0768 5E4B     		ldr	r3, .L491+16
 1256 076a 1A60     		str	r2, [r3]
 1257              		.loc 1 313 0
 1258 076c 5D4B     		ldr	r3, .L491+16
 1259 076e 1868     		ldr	r0, [r3]
 1260 0770 5A4B     		ldr	r3, .L491+8
 1261 0772 1B68     		ldr	r3, [r3]
 1262 0774 5A1C     		adds	r2, r3, #1
 1263 0776 5949     		ldr	r1, .L491+8
 1264 0778 0A60     		str	r2, [r1]
 1265 077a C1B2     		uxtb	r1, r0
 1266 077c 584A     		ldr	r2, .L491+12
 1267 077e D154     		strb	r1, [r2, r3]
 1268              		.loc 1 314 0
 1269 0780 584B     		ldr	r3, .L491+16
 1270 0782 1B68     		ldr	r3, [r3]
 1271 0784 1812     		asrs	r0, r3, #8
 1272 0786 554B     		ldr	r3, .L491+8
 1273 0788 1B68     		ldr	r3, [r3]
 1274 078a 5A1C     		adds	r2, r3, #1
 1275 078c 5349     		ldr	r1, .L491+8
 1276 078e 0A60     		str	r2, [r1]
 1277 0790 C1B2     		uxtb	r1, r0
ARM GAS  C:\Users\Moi\AppData\Local\Temp\ccF5N8ze.s 			page 29


 1278 0792 534A     		ldr	r2, .L491+12
 1279 0794 D154     		strb	r1, [r2, r3]
 1280              		.loc 1 316 0
 1281 0796 0220     		movs	r0, #2
 1282 0798 FFF7FEFF 		bl	e_get_micro_volume
 1283 079c 0246     		mov	r2, r0
 1284 079e 514B     		ldr	r3, .L491+16
 1285 07a0 1A60     		str	r2, [r3]
 1286              		.loc 1 317 0
 1287 07a2 504B     		ldr	r3, .L491+16
 1288 07a4 1868     		ldr	r0, [r3]
 1289 07a6 4D4B     		ldr	r3, .L491+8
 1290 07a8 1B68     		ldr	r3, [r3]
 1291 07aa 5A1C     		adds	r2, r3, #1
 1292 07ac 4B49     		ldr	r1, .L491+8
 1293 07ae 0A60     		str	r2, [r1]
 1294 07b0 C1B2     		uxtb	r1, r0
 1295 07b2 4B4A     		ldr	r2, .L491+12
 1296 07b4 D154     		strb	r1, [r2, r3]
 1297              		.loc 1 318 0
 1298 07b6 4B4B     		ldr	r3, .L491+16
 1299 07b8 1B68     		ldr	r3, [r3]
 1300 07ba 1812     		asrs	r0, r3, #8
 1301 07bc 474B     		ldr	r3, .L491+8
 1302 07be 1B68     		ldr	r3, [r3]
 1303 07c0 5A1C     		adds	r2, r3, #1
 1304 07c2 4649     		ldr	r1, .L491+8
 1305 07c4 0A60     		str	r2, [r1]
 1306 07c6 C1B2     		uxtb	r1, r0
 1307 07c8 454A     		ldr	r2, .L491+12
 1308 07ca D154     		strb	r1, [r2, r3]
 1309              		.loc 1 320 0
 1310 07cc 0320     		movs	r0, #3
 1311 07ce FFF7FEFF 		bl	e_get_micro_volume
 1312 07d2 0246     		mov	r2, r0
 1313 07d4 434B     		ldr	r3, .L491+16
 1314 07d6 1A60     		str	r2, [r3]
 1315              		.loc 1 321 0
 1316 07d8 424B     		ldr	r3, .L491+16
 1317 07da 1868     		ldr	r0, [r3]
 1318 07dc 3F4B     		ldr	r3, .L491+8
 1319 07de 1B68     		ldr	r3, [r3]
 1320 07e0 5A1C     		adds	r2, r3, #1
 1321 07e2 3E49     		ldr	r1, .L491+8
 1322 07e4 0A60     		str	r2, [r1]
 1323 07e6 C1B2     		uxtb	r1, r0
 1324 07e8 3D4A     		ldr	r2, .L491+12
 1325 07ea D154     		strb	r1, [r2, r3]
 1326              		.loc 1 322 0
 1327 07ec 3D4B     		ldr	r3, .L491+16
 1328 07ee 1B68     		ldr	r3, [r3]
 1329 07f0 1812     		asrs	r0, r3, #8
 1330 07f2 3A4B     		ldr	r3, .L491+8
 1331 07f4 1B68     		ldr	r3, [r3]
 1332 07f6 5A1C     		adds	r2, r3, #1
 1333 07f8 3849     		ldr	r1, .L491+8
 1334 07fa 0A60     		str	r2, [r1]
ARM GAS  C:\Users\Moi\AppData\Local\Temp\ccF5N8ze.s 			page 30


 1335 07fc C1B2     		uxtb	r1, r0
 1336 07fe 384A     		ldr	r2, .L491+12
 1337 0800 D154     		strb	r1, [r2, r3]
 1338              		.loc 1 323 0
 1339 0802 00F030BE 		b	.L80
 1340              	.L54:
 1341              		.loc 1 326 0
 1342 0806 9DF82630 		ldrb	r3, [sp, #38]	@ zero_extendqisi2
 1343 080a 002B     		cmp	r3, #0
 1344 080c 1CD1     		bne	.L81
 1345              		.loc 1 327 0
 1346 080e FFF7FEFF 		bl	VL53L0X_get_dist_mm
 1347 0812 0346     		mov	r3, r0
 1348 0814 1A46     		mov	r2, r3
 1349 0816 334B     		ldr	r3, .L491+16
 1350 0818 1A60     		str	r2, [r3]
 1351              		.loc 1 328 0
 1352 081a 324B     		ldr	r3, .L491+16
 1353 081c 1868     		ldr	r0, [r3]
 1354 081e 2F4B     		ldr	r3, .L491+8
 1355 0820 1B68     		ldr	r3, [r3]
 1356 0822 5A1C     		adds	r2, r3, #1
 1357 0824 2D49     		ldr	r1, .L491+8
 1358 0826 0A60     		str	r2, [r1]
 1359 0828 C1B2     		uxtb	r1, r0
 1360 082a 2D4A     		ldr	r2, .L491+12
 1361 082c D154     		strb	r1, [r2, r3]
 1362              		.loc 1 329 0
 1363 082e 2D4B     		ldr	r3, .L491+16
 1364 0830 1B68     		ldr	r3, [r3]
 1365 0832 1812     		asrs	r0, r3, #8
 1366 0834 294B     		ldr	r3, .L491+8
 1367 0836 1B68     		ldr	r3, [r3]
 1368 0838 5A1C     		adds	r2, r3, #1
 1369 083a 2849     		ldr	r1, .L491+8
 1370 083c 0A60     		str	r2, [r1]
 1371 083e C1B2     		uxtb	r1, r0
 1372 0840 274A     		ldr	r2, .L491+12
 1373 0842 D154     		strb	r1, [r2, r3]
 1374              		.loc 1 334 0
 1375 0844 00F00FBE 		b	.L80
 1376              	.L81:
 1377              		.loc 1 331 0
 1378 0848 244B     		ldr	r3, .L491+8
 1379 084a 1B68     		ldr	r3, [r3]
 1380 084c 5A1C     		adds	r2, r3, #1
 1381 084e 2349     		ldr	r1, .L491+8
 1382 0850 0A60     		str	r2, [r1]
 1383 0852 234A     		ldr	r2, .L491+12
 1384 0854 0021     		movs	r1, #0
 1385 0856 D154     		strb	r1, [r2, r3]
 1386              		.loc 1 332 0
 1387 0858 204B     		ldr	r3, .L491+8
 1388 085a 1B68     		ldr	r3, [r3]
 1389 085c 5A1C     		adds	r2, r3, #1
 1390 085e 1F49     		ldr	r1, .L491+8
 1391 0860 0A60     		str	r2, [r1]
ARM GAS  C:\Users\Moi\AppData\Local\Temp\ccF5N8ze.s 			page 31


 1392 0862 1F4A     		ldr	r2, .L491+12
 1393 0864 0021     		movs	r1, #0
 1394 0866 D154     		strb	r1, [r2, r3]
 1395              		.loc 1 334 0
 1396 0868 00F0FDBD 		b	.L80
 1397              	.L55:
 1398              		.loc 1 337 0
 1399 086c FFF7FEFF 		bl	isSDCardMounted
 1400 0870 0346     		mov	r3, r0
 1401 0872 002B     		cmp	r3, #0
 1402 0874 09D0     		beq	.L83
 1403              		.loc 1 338 0
 1404 0876 194B     		ldr	r3, .L491+8
 1405 0878 1B68     		ldr	r3, [r3]
 1406 087a 5A1C     		adds	r2, r3, #1
 1407 087c 1749     		ldr	r1, .L491+8
 1408 087e 0A60     		str	r2, [r1]
 1409 0880 174A     		ldr	r2, .L491+12
 1410 0882 0121     		movs	r1, #1
 1411 0884 D154     		strb	r1, [r2, r3]
 1412              		.loc 1 342 0
 1413 0886 00F0EEBD 		b	.L80
 1414              	.L83:
 1415              		.loc 1 340 0
 1416 088a 144B     		ldr	r3, .L491+8
 1417 088c 1B68     		ldr	r3, [r3]
 1418 088e 5A1C     		adds	r2, r3, #1
 1419 0890 1249     		ldr	r1, .L491+8
 1420 0892 0A60     		str	r2, [r1]
 1421 0894 124A     		ldr	r2, .L491+12
 1422 0896 0021     		movs	r1, #0
 1423 0898 D154     		strb	r1, [r2, r3]
 1424              		.loc 1 342 0
 1425 089a 00F0E4BD 		b	.L80
 1426              	.L68:
 1427              		.loc 1 345 0
 1428 089e 9DF82630 		ldrb	r3, [sp, #38]	@ zero_extendqisi2
 1429 08a2 002B     		cmp	r3, #0
 1430 08a4 26D1     		bne	.L85
 1431              		.loc 1 346 0
 1432 08a6 0121     		movs	r1, #1
 1433 08a8 0020     		movs	r0, #0
 1434 08aa FFF7FEFF 		bl	e_get_acc_filtered
 1435 08ae 0246     		mov	r2, r0
 1436 08b0 0D4B     		ldr	r3, .L491+20
 1437 08b2 1A60     		str	r2, [r3]
 1438              		.loc 1 347 0
 1439 08b4 0121     		movs	r1, #1
 1440 08b6 0120     		movs	r0, #1
 1441 08b8 FFF7FEFF 		bl	e_get_acc_filtered
 1442 08bc 0246     		mov	r2, r0
 1443 08be 0B4B     		ldr	r3, .L491+24
 1444 08c0 1A60     		str	r2, [r3]
 1445              		.loc 1 348 0
 1446 08c2 0121     		movs	r1, #1
 1447 08c4 0220     		movs	r0, #2
 1448 08c6 FFF7FEFF 		bl	e_get_acc_filtered
ARM GAS  C:\Users\Moi\AppData\Local\Temp\ccF5N8ze.s 			page 32


 1449 08ca 0246     		mov	r2, r0
 1450 08cc 084B     		ldr	r3, .L491+28
 1451 08ce 1A60     		str	r2, [r3]
 1452 08d0 19E0     		b	.L86
 1453              	.L492:
 1454 08d2 00BF     		.align	2
 1455              	.L491:
 1456 08d4 00000000 		.word	j.13533
 1457 08d8 00000000 		.word	rgb_value.13556
 1458 08dc 00000000 		.word	i.13532
 1459 08e0 00000000 		.word	buffer
 1460 08e4 00000000 		.word	n.13534
 1461 08e8 00000000 		.word	accx.13541
 1462 08ec 00000000 		.word	accy.13542
 1463 08f0 00000000 		.word	accz.13543
 1464              	.L85:
 1465              		.loc 1 353 0
 1466 08f4 934B     		ldr	r3, .L493
 1467 08f6 0022     		movs	r2, #0
 1468 08f8 1A60     		str	r2, [r3]
 1469              		.loc 1 354 0
 1470 08fa 934B     		ldr	r3, .L493+4
 1471 08fc 0022     		movs	r2, #0
 1472 08fe 1A60     		str	r2, [r3]
 1473              		.loc 1 355 0
 1474 0900 924B     		ldr	r3, .L493+8
 1475 0902 0022     		movs	r2, #0
 1476 0904 1A60     		str	r2, [r3]
 1477              	.L86:
 1478              		.loc 1 357 0
 1479 0906 8F4B     		ldr	r3, .L493
 1480 0908 1868     		ldr	r0, [r3]
 1481 090a 914B     		ldr	r3, .L493+12
 1482 090c 1B68     		ldr	r3, [r3]
 1483 090e 5A1C     		adds	r2, r3, #1
 1484 0910 8F49     		ldr	r1, .L493+12
 1485 0912 0A60     		str	r2, [r1]
 1486 0914 C1B2     		uxtb	r1, r0
 1487 0916 8F4A     		ldr	r2, .L493+16
 1488 0918 D154     		strb	r1, [r2, r3]
 1489              		.loc 1 358 0
 1490 091a 8A4B     		ldr	r3, .L493
 1491 091c 1B68     		ldr	r3, [r3]
 1492 091e 1812     		asrs	r0, r3, #8
 1493 0920 8B4B     		ldr	r3, .L493+12
 1494 0922 1B68     		ldr	r3, [r3]
 1495 0924 5A1C     		adds	r2, r3, #1
 1496 0926 8A49     		ldr	r1, .L493+12
 1497 0928 0A60     		str	r2, [r1]
 1498 092a C1B2     		uxtb	r1, r0
 1499 092c 894A     		ldr	r2, .L493+16
 1500 092e D154     		strb	r1, [r2, r3]
 1501              		.loc 1 359 0
 1502 0930 854B     		ldr	r3, .L493+4
 1503 0932 1868     		ldr	r0, [r3]
 1504 0934 864B     		ldr	r3, .L493+12
 1505 0936 1B68     		ldr	r3, [r3]
ARM GAS  C:\Users\Moi\AppData\Local\Temp\ccF5N8ze.s 			page 33


 1506 0938 5A1C     		adds	r2, r3, #1
 1507 093a 8549     		ldr	r1, .L493+12
 1508 093c 0A60     		str	r2, [r1]
 1509 093e C1B2     		uxtb	r1, r0
 1510 0940 844A     		ldr	r2, .L493+16
 1511 0942 D154     		strb	r1, [r2, r3]
 1512              		.loc 1 360 0
 1513 0944 804B     		ldr	r3, .L493+4
 1514 0946 1B68     		ldr	r3, [r3]
 1515 0948 1812     		asrs	r0, r3, #8
 1516 094a 814B     		ldr	r3, .L493+12
 1517 094c 1B68     		ldr	r3, [r3]
 1518 094e 5A1C     		adds	r2, r3, #1
 1519 0950 7F49     		ldr	r1, .L493+12
 1520 0952 0A60     		str	r2, [r1]
 1521 0954 C1B2     		uxtb	r1, r0
 1522 0956 7F4A     		ldr	r2, .L493+16
 1523 0958 D154     		strb	r1, [r2, r3]
 1524              		.loc 1 361 0
 1525 095a 7C4B     		ldr	r3, .L493+8
 1526 095c 1868     		ldr	r0, [r3]
 1527 095e 7C4B     		ldr	r3, .L493+12
 1528 0960 1B68     		ldr	r3, [r3]
 1529 0962 5A1C     		adds	r2, r3, #1
 1530 0964 7A49     		ldr	r1, .L493+12
 1531 0966 0A60     		str	r2, [r1]
 1532 0968 C1B2     		uxtb	r1, r0
 1533 096a 7A4A     		ldr	r2, .L493+16
 1534 096c D154     		strb	r1, [r2, r3]
 1535              		.loc 1 362 0
 1536 096e 774B     		ldr	r3, .L493+8
 1537 0970 1B68     		ldr	r3, [r3]
 1538 0972 1812     		asrs	r0, r3, #8
 1539 0974 764B     		ldr	r3, .L493+12
 1540 0976 1B68     		ldr	r3, [r3]
 1541 0978 5A1C     		adds	r2, r3, #1
 1542 097a 7549     		ldr	r1, .L493+12
 1543 097c 0A60     		str	r2, [r1]
 1544 097e C1B2     		uxtb	r1, r0
 1545 0980 744A     		ldr	r2, .L493+16
 1546 0982 D154     		strb	r1, [r2, r3]
 1547              		.loc 1 363 0
 1548 0984 00F06FBD 		b	.L80
 1549              	.L56:
 1550              		.loc 1 366 0
 1551 0988 9DF82630 		ldrb	r3, [sp, #38]	@ zero_extendqisi2
 1552 098c 002B     		cmp	r3, #0
 1553 098e 0FD1     		bne	.L87
 1554              		.loc 1 367 0
 1555 0990 FFF7FEFF 		bl	e_read_acc_spheric
 1556 0994 F0EE406A 		vmov.f32	s13, s0
 1557 0998 B0EE607A 		vmov.f32	s14, s1
 1558 099c F0EE417A 		vmov.f32	s15, s2
 1559 09a0 6D4B     		ldr	r3, .L493+20
 1560 09a2 C3ED006A 		vstr.32	s13, [r3]
 1561 09a6 83ED017A 		vstr.32	s14, [r3, #4]
 1562 09aa C3ED027A 		vstr.32	s15, [r3, #8]
ARM GAS  C:\Users\Moi\AppData\Local\Temp\ccF5N8ze.s 			page 34


 1563 09ae 0BE0     		b	.L88
 1564              	.L87:
 1565              		.loc 1 369 0
 1566 09b0 694B     		ldr	r3, .L493+20
 1567 09b2 4FF00002 		mov	r2, #0
 1568 09b6 1A60     		str	r2, [r3]	@ float
 1569              		.loc 1 370 0
 1570 09b8 674B     		ldr	r3, .L493+20
 1571 09ba 4FF00002 		mov	r2, #0
 1572 09be 9A60     		str	r2, [r3, #8]	@ float
 1573              		.loc 1 371 0
 1574 09c0 654B     		ldr	r3, .L493+20
 1575 09c2 4FF00002 		mov	r2, #0
 1576 09c6 5A60     		str	r2, [r3, #4]	@ float
 1577              	.L88:
 1578              		.loc 1 373 0
 1579 09c8 634B     		ldr	r3, .L493+20
 1580 09ca 0E93     		str	r3, [sp, #56]
 1581              		.loc 1 374 0
 1582 09cc 604B     		ldr	r3, .L493+12
 1583 09ce 1B68     		ldr	r3, [r3]
 1584 09d0 5A1C     		adds	r2, r3, #1
 1585 09d2 5F49     		ldr	r1, .L493+12
 1586 09d4 0A60     		str	r2, [r1]
 1587 09d6 0E9A     		ldr	r2, [sp, #56]
 1588 09d8 1178     		ldrb	r1, [r2]	@ zero_extendqisi2
 1589 09da 5E4A     		ldr	r2, .L493+16
 1590 09dc D154     		strb	r1, [r2, r3]
 1591              		.loc 1 375 0
 1592 09de 0E9B     		ldr	r3, [sp, #56]
 1593 09e0 0133     		adds	r3, r3, #1
 1594 09e2 0E93     		str	r3, [sp, #56]
 1595              		.loc 1 376 0
 1596 09e4 5A4B     		ldr	r3, .L493+12
 1597 09e6 1B68     		ldr	r3, [r3]
 1598 09e8 5A1C     		adds	r2, r3, #1
 1599 09ea 5949     		ldr	r1, .L493+12
 1600 09ec 0A60     		str	r2, [r1]
 1601 09ee 0E9A     		ldr	r2, [sp, #56]
 1602 09f0 1178     		ldrb	r1, [r2]	@ zero_extendqisi2
 1603 09f2 584A     		ldr	r2, .L493+16
 1604 09f4 D154     		strb	r1, [r2, r3]
 1605              		.loc 1 377 0
 1606 09f6 0E9B     		ldr	r3, [sp, #56]
 1607 09f8 0133     		adds	r3, r3, #1
 1608 09fa 0E93     		str	r3, [sp, #56]
 1609              		.loc 1 378 0
 1610 09fc 544B     		ldr	r3, .L493+12
 1611 09fe 1B68     		ldr	r3, [r3]
 1612 0a00 5A1C     		adds	r2, r3, #1
 1613 0a02 5349     		ldr	r1, .L493+12
 1614 0a04 0A60     		str	r2, [r1]
 1615 0a06 0E9A     		ldr	r2, [sp, #56]
 1616 0a08 1178     		ldrb	r1, [r2]	@ zero_extendqisi2
 1617 0a0a 524A     		ldr	r2, .L493+16
 1618 0a0c D154     		strb	r1, [r2, r3]
 1619              		.loc 1 379 0
ARM GAS  C:\Users\Moi\AppData\Local\Temp\ccF5N8ze.s 			page 35


 1620 0a0e 0E9B     		ldr	r3, [sp, #56]
 1621 0a10 0133     		adds	r3, r3, #1
 1622 0a12 0E93     		str	r3, [sp, #56]
 1623              		.loc 1 380 0
 1624 0a14 4E4B     		ldr	r3, .L493+12
 1625 0a16 1B68     		ldr	r3, [r3]
 1626 0a18 5A1C     		adds	r2, r3, #1
 1627 0a1a 4D49     		ldr	r1, .L493+12
 1628 0a1c 0A60     		str	r2, [r1]
 1629 0a1e 0E9A     		ldr	r2, [sp, #56]
 1630 0a20 1178     		ldrb	r1, [r2]	@ zero_extendqisi2
 1631 0a22 4C4A     		ldr	r2, .L493+16
 1632 0a24 D154     		strb	r1, [r2, r3]
 1633              		.loc 1 382 0
 1634 0a26 4D4B     		ldr	r3, .L493+24
 1635 0a28 0E93     		str	r3, [sp, #56]
 1636              		.loc 1 383 0
 1637 0a2a 494B     		ldr	r3, .L493+12
 1638 0a2c 1B68     		ldr	r3, [r3]
 1639 0a2e 5A1C     		adds	r2, r3, #1
 1640 0a30 4749     		ldr	r1, .L493+12
 1641 0a32 0A60     		str	r2, [r1]
 1642 0a34 0E9A     		ldr	r2, [sp, #56]
 1643 0a36 1178     		ldrb	r1, [r2]	@ zero_extendqisi2
 1644 0a38 464A     		ldr	r2, .L493+16
 1645 0a3a D154     		strb	r1, [r2, r3]
 1646              		.loc 1 384 0
 1647 0a3c 0E9B     		ldr	r3, [sp, #56]
 1648 0a3e 0133     		adds	r3, r3, #1
 1649 0a40 0E93     		str	r3, [sp, #56]
 1650              		.loc 1 385 0
 1651 0a42 434B     		ldr	r3, .L493+12
 1652 0a44 1B68     		ldr	r3, [r3]
 1653 0a46 5A1C     		adds	r2, r3, #1
 1654 0a48 4149     		ldr	r1, .L493+12
 1655 0a4a 0A60     		str	r2, [r1]
 1656 0a4c 0E9A     		ldr	r2, [sp, #56]
 1657 0a4e 1178     		ldrb	r1, [r2]	@ zero_extendqisi2
 1658 0a50 404A     		ldr	r2, .L493+16
 1659 0a52 D154     		strb	r1, [r2, r3]
 1660              		.loc 1 386 0
 1661 0a54 0E9B     		ldr	r3, [sp, #56]
 1662 0a56 0133     		adds	r3, r3, #1
 1663 0a58 0E93     		str	r3, [sp, #56]
 1664              		.loc 1 387 0
 1665 0a5a 3D4B     		ldr	r3, .L493+12
 1666 0a5c 1B68     		ldr	r3, [r3]
 1667 0a5e 5A1C     		adds	r2, r3, #1
 1668 0a60 3B49     		ldr	r1, .L493+12
 1669 0a62 0A60     		str	r2, [r1]
 1670 0a64 0E9A     		ldr	r2, [sp, #56]
 1671 0a66 1178     		ldrb	r1, [r2]	@ zero_extendqisi2
 1672 0a68 3A4A     		ldr	r2, .L493+16
 1673 0a6a D154     		strb	r1, [r2, r3]
 1674              		.loc 1 388 0
 1675 0a6c 0E9B     		ldr	r3, [sp, #56]
 1676 0a6e 0133     		adds	r3, r3, #1
ARM GAS  C:\Users\Moi\AppData\Local\Temp\ccF5N8ze.s 			page 36


 1677 0a70 0E93     		str	r3, [sp, #56]
 1678              		.loc 1 389 0
 1679 0a72 374B     		ldr	r3, .L493+12
 1680 0a74 1B68     		ldr	r3, [r3]
 1681 0a76 5A1C     		adds	r2, r3, #1
 1682 0a78 3549     		ldr	r1, .L493+12
 1683 0a7a 0A60     		str	r2, [r1]
 1684 0a7c 0E9A     		ldr	r2, [sp, #56]
 1685 0a7e 1178     		ldrb	r1, [r2]	@ zero_extendqisi2
 1686 0a80 344A     		ldr	r2, .L493+16
 1687 0a82 D154     		strb	r1, [r2, r3]
 1688              		.loc 1 391 0
 1689 0a84 364B     		ldr	r3, .L493+28
 1690 0a86 0E93     		str	r3, [sp, #56]
 1691              		.loc 1 392 0
 1692 0a88 314B     		ldr	r3, .L493+12
 1693 0a8a 1B68     		ldr	r3, [r3]
 1694 0a8c 5A1C     		adds	r2, r3, #1
 1695 0a8e 3049     		ldr	r1, .L493+12
 1696 0a90 0A60     		str	r2, [r1]
 1697 0a92 0E9A     		ldr	r2, [sp, #56]
 1698 0a94 1178     		ldrb	r1, [r2]	@ zero_extendqisi2
 1699 0a96 2F4A     		ldr	r2, .L493+16
 1700 0a98 D154     		strb	r1, [r2, r3]
 1701              		.loc 1 393 0
 1702 0a9a 0E9B     		ldr	r3, [sp, #56]
 1703 0a9c 0133     		adds	r3, r3, #1
 1704 0a9e 0E93     		str	r3, [sp, #56]
 1705              		.loc 1 394 0
 1706 0aa0 2B4B     		ldr	r3, .L493+12
 1707 0aa2 1B68     		ldr	r3, [r3]
 1708 0aa4 5A1C     		adds	r2, r3, #1
 1709 0aa6 2A49     		ldr	r1, .L493+12
 1710 0aa8 0A60     		str	r2, [r1]
 1711 0aaa 0E9A     		ldr	r2, [sp, #56]
 1712 0aac 1178     		ldrb	r1, [r2]	@ zero_extendqisi2
 1713 0aae 294A     		ldr	r2, .L493+16
 1714 0ab0 D154     		strb	r1, [r2, r3]
 1715              		.loc 1 395 0
 1716 0ab2 0E9B     		ldr	r3, [sp, #56]
 1717 0ab4 0133     		adds	r3, r3, #1
 1718 0ab6 0E93     		str	r3, [sp, #56]
 1719              		.loc 1 396 0
 1720 0ab8 254B     		ldr	r3, .L493+12
 1721 0aba 1B68     		ldr	r3, [r3]
 1722 0abc 5A1C     		adds	r2, r3, #1
 1723 0abe 2449     		ldr	r1, .L493+12
 1724 0ac0 0A60     		str	r2, [r1]
 1725 0ac2 0E9A     		ldr	r2, [sp, #56]
 1726 0ac4 1178     		ldrb	r1, [r2]	@ zero_extendqisi2
 1727 0ac6 234A     		ldr	r2, .L493+16
 1728 0ac8 D154     		strb	r1, [r2, r3]
 1729              		.loc 1 397 0
 1730 0aca 0E9B     		ldr	r3, [sp, #56]
 1731 0acc 0133     		adds	r3, r3, #1
 1732 0ace 0E93     		str	r3, [sp, #56]
 1733              		.loc 1 398 0
ARM GAS  C:\Users\Moi\AppData\Local\Temp\ccF5N8ze.s 			page 37


 1734 0ad0 1F4B     		ldr	r3, .L493+12
 1735 0ad2 1B68     		ldr	r3, [r3]
 1736 0ad4 5A1C     		adds	r2, r3, #1
 1737 0ad6 1E49     		ldr	r1, .L493+12
 1738 0ad8 0A60     		str	r2, [r1]
 1739 0ada 0E9A     		ldr	r2, [sp, #56]
 1740 0adc 1178     		ldrb	r1, [r2]	@ zero_extendqisi2
 1741 0ade 1D4A     		ldr	r2, .L493+16
 1742 0ae0 D154     		strb	r1, [r2, r3]
 1743              		.loc 1 399 0
 1744 0ae2 00F0C0BC 		b	.L80
 1745              	.L69:
 1746              		.loc 1 403 0
 1747 0ae6 FFF7FEFF 		bl	getBatteryValueRaw
 1748 0aea 0D90     		str	r0, [sp, #52]
 1749              		.loc 1 404 0
 1750 0aec 184B     		ldr	r3, .L493+12
 1751 0aee 1B68     		ldr	r3, [r3]
 1752 0af0 5A1C     		adds	r2, r3, #1
 1753 0af2 1749     		ldr	r1, .L493+12
 1754 0af4 0A60     		str	r2, [r1]
 1755 0af6 0D9A     		ldr	r2, [sp, #52]
 1756 0af8 D1B2     		uxtb	r1, r2
 1757 0afa 164A     		ldr	r2, .L493+16
 1758 0afc D154     		strb	r1, [r2, r3]
 1759              		.loc 1 405 0
 1760 0afe 0D9B     		ldr	r3, [sp, #52]
 1761 0b00 180A     		lsrs	r0, r3, #8
 1762 0b02 134B     		ldr	r3, .L493+12
 1763 0b04 1B68     		ldr	r3, [r3]
 1764 0b06 5A1C     		adds	r2, r3, #1
 1765 0b08 1149     		ldr	r1, .L493+12
 1766 0b0a 0A60     		str	r2, [r1]
 1767 0b0c C1B2     		uxtb	r1, r0
 1768 0b0e 114A     		ldr	r2, .L493+16
 1769 0b10 D154     		strb	r1, [r2, r3]
 1770              		.loc 1 406 0
 1771 0b12 00F0A8BC 		b	.L80
 1772              	.L57:
 1773              		.loc 1 409 0
 1774 0b16 9DF82630 		ldrb	r3, [sp, #38]	@ zero_extendqisi2
 1775 0b1a 002B     		cmp	r3, #0
 1776 0b1c 34D1     		bne	.L89
 1777              		.loc 1 411 0
 1778 0b1e 0B9B     		ldr	r3, [sp, #44]
 1779 0b20 002B     		cmp	r3, #0
 1780 0b22 23D0     		beq	.L480
 1781              		.loc 1 412 0
 1782 0b24 00BF     		nop
 1783              	.L91:
 1784              		.loc 1 412 0 is_stmt 0 discriminator 1
 1785 0b26 0F48     		ldr	r0, .L493+32
 1786 0b28 FFF7FEFF 		bl	e_getchar_uart1
 1787 0b2c 0346     		mov	r3, r0
 1788 0b2e 002B     		cmp	r3, #0
 1789 0b30 F9D0     		beq	.L91
 1790              		.loc 1 413 0 is_stmt 1
ARM GAS  C:\Users\Moi\AppData\Local\Temp\ccF5N8ze.s 			page 38


 1791 0b32 00BF     		nop
 1792              	.L92:
 1793              		.loc 1 413 0 is_stmt 0 discriminator 1
 1794 0b34 0C48     		ldr	r0, .L493+36
 1795 0b36 FFF7FEFF 		bl	e_getchar_uart1
 1796 0b3a 0346     		mov	r3, r0
 1797 0b3c 002B     		cmp	r3, #0
 1798 0b3e F9D0     		beq	.L92
 1799 0b40 22E0     		b	.L89
 1800              	.L494:
 1801 0b42 00BF     		.align	2
 1802              	.L493:
 1803 0b44 00000000 		.word	accx.13541
 1804 0b48 00000000 		.word	accy.13542
 1805 0b4c 00000000 		.word	accz.13543
 1806 0b50 00000000 		.word	i.13532
 1807 0b54 00000000 		.word	buffer
 1808 0b58 00000000 		.word	accelero.13564
 1809 0b5c 04000000 		.word	accelero.13564+4
 1810 0b60 08000000 		.word	accelero.13564+8
 1811 0b64 00000000 		.word	c1.13529
 1812 0b68 00000000 		.word	c2.13530
 1813              	.L480:
 1814              		.loc 1 415 0 is_stmt 1
 1815 0b6c 00BF     		nop
 1816              	.L93:
 1817              		.loc 1 415 0 is_stmt 0 discriminator 1
 1818 0b6e 9848     		ldr	r0, .L495
 1819 0b70 FFF7FEFF 		bl	e_getchar_uart2
 1820 0b74 0346     		mov	r3, r0
 1821 0b76 002B     		cmp	r3, #0
 1822 0b78 F9D0     		beq	.L93
 1823              		.loc 1 416 0 is_stmt 1
 1824 0b7a 00BF     		nop
 1825              	.L94:
 1826              		.loc 1 416 0 is_stmt 0 discriminator 1
 1827 0b7c 9548     		ldr	r0, .L495+4
 1828 0b7e FFF7FEFF 		bl	e_getchar_uart2
 1829 0b82 0346     		mov	r3, r0
 1830 0b84 002B     		cmp	r3, #0
 1831 0b86 F9D0     		beq	.L94
 1832              	.L89:
 1833              		.loc 1 418 0 is_stmt 1
 1834 0b88 914B     		ldr	r3, .L495
 1835 0b8a 1B78     		ldrb	r3, [r3]	@ zero_extendqisi2
 1836 0b8c 1A46     		mov	r2, r3
 1837 0b8e 914B     		ldr	r3, .L495+4
 1838 0b90 1B78     		ldrb	r3, [r3]	@ zero_extendqisi2
 1839 0b92 1B02     		lsls	r3, r3, #8
 1840 0b94 1344     		add	r3, r3, r2
 1841 0b96 1A46     		mov	r2, r3
 1842 0b98 8F4B     		ldr	r3, .L495+8
 1843 0b9a 1A60     		str	r2, [r3]
 1844              		.loc 1 419 0
 1845 0b9c 9DF82630 		ldrb	r3, [sp, #38]	@ zero_extendqisi2
 1846 0ba0 002B     		cmp	r3, #0
 1847 0ba2 1FD1     		bne	.L95
ARM GAS  C:\Users\Moi\AppData\Local\Temp\ccF5N8ze.s 			page 39


 1848              		.loc 1 421 0
 1849 0ba4 0B9B     		ldr	r3, [sp, #44]
 1850 0ba6 002B     		cmp	r3, #0
 1851 0ba8 0ED0     		beq	.L481
 1852              		.loc 1 422 0
 1853 0baa 00BF     		nop
 1854              	.L97:
 1855              		.loc 1 422 0 is_stmt 0 discriminator 1
 1856 0bac 8848     		ldr	r0, .L495
 1857 0bae FFF7FEFF 		bl	e_getchar_uart1
 1858 0bb2 0346     		mov	r3, r0
 1859 0bb4 002B     		cmp	r3, #0
 1860 0bb6 F9D0     		beq	.L97
 1861              		.loc 1 423 0 is_stmt 1
 1862 0bb8 00BF     		nop
 1863              	.L98:
 1864              		.loc 1 423 0 is_stmt 0 discriminator 1
 1865 0bba 8648     		ldr	r0, .L495+4
 1866 0bbc FFF7FEFF 		bl	e_getchar_uart1
 1867 0bc0 0346     		mov	r3, r0
 1868 0bc2 002B     		cmp	r3, #0
 1869 0bc4 F9D0     		beq	.L98
 1870 0bc6 0DE0     		b	.L95
 1871              	.L481:
 1872              		.loc 1 425 0 is_stmt 1
 1873 0bc8 00BF     		nop
 1874              	.L99:
 1875              		.loc 1 425 0 is_stmt 0 discriminator 1
 1876 0bca 8148     		ldr	r0, .L495
 1877 0bcc FFF7FEFF 		bl	e_getchar_uart2
 1878 0bd0 0346     		mov	r3, r0
 1879 0bd2 002B     		cmp	r3, #0
 1880 0bd4 F9D0     		beq	.L99
 1881              		.loc 1 426 0 is_stmt 1
 1882 0bd6 00BF     		nop
 1883              	.L100:
 1884              		.loc 1 426 0 is_stmt 0 discriminator 1
 1885 0bd8 7E48     		ldr	r0, .L495+4
 1886 0bda FFF7FEFF 		bl	e_getchar_uart2
 1887 0bde 0346     		mov	r3, r0
 1888 0be0 002B     		cmp	r3, #0
 1889 0be2 F9D0     		beq	.L100
 1890              	.L95:
 1891              		.loc 1 428 0 is_stmt 1
 1892 0be4 7A4B     		ldr	r3, .L495
 1893 0be6 1B78     		ldrb	r3, [r3]	@ zero_extendqisi2
 1894 0be8 1A46     		mov	r2, r3
 1895 0bea 7A4B     		ldr	r3, .L495+4
 1896 0bec 1B78     		ldrb	r3, [r3]	@ zero_extendqisi2
 1897 0bee 1B02     		lsls	r3, r3, #8
 1898 0bf0 1344     		add	r3, r3, r2
 1899 0bf2 1A46     		mov	r2, r3
 1900 0bf4 794B     		ldr	r3, .L495+12
 1901 0bf6 1A60     		str	r2, [r3]
 1902              		.loc 1 429 0
 1903 0bf8 774B     		ldr	r3, .L495+8
 1904 0bfa 1B68     		ldr	r3, [r3]
ARM GAS  C:\Users\Moi\AppData\Local\Temp\ccF5N8ze.s 			page 40


 1905 0bfc 1846     		mov	r0, r3
 1906 0bfe FFF7FEFF 		bl	e_set_speed_left
 1907              		.loc 1 430 0
 1908 0c02 764B     		ldr	r3, .L495+12
 1909 0c04 1B68     		ldr	r3, [r3]
 1910 0c06 1846     		mov	r0, r3
 1911 0c08 FFF7FEFF 		bl	e_set_speed_right
 1912              		.loc 1 431 0
 1913 0c0c 00F02BBC 		b	.L80
 1914              	.L58:
 1915              		.loc 1 433 0
 1916 0c10 714B     		ldr	r3, .L495+8
 1917 0c12 1868     		ldr	r0, [r3]
 1918 0c14 724B     		ldr	r3, .L495+16
 1919 0c16 1B68     		ldr	r3, [r3]
 1920 0c18 5A1C     		adds	r2, r3, #1
 1921 0c1a 7149     		ldr	r1, .L495+16
 1922 0c1c 0A60     		str	r2, [r1]
 1923 0c1e C1B2     		uxtb	r1, r0
 1924 0c20 704A     		ldr	r2, .L495+20
 1925 0c22 D154     		strb	r1, [r2, r3]
 1926              		.loc 1 434 0
 1927 0c24 6C4B     		ldr	r3, .L495+8
 1928 0c26 1B68     		ldr	r3, [r3]
 1929 0c28 1812     		asrs	r0, r3, #8
 1930 0c2a 6D4B     		ldr	r3, .L495+16
 1931 0c2c 1B68     		ldr	r3, [r3]
 1932 0c2e 5A1C     		adds	r2, r3, #1
 1933 0c30 6B49     		ldr	r1, .L495+16
 1934 0c32 0A60     		str	r2, [r1]
 1935 0c34 C1B2     		uxtb	r1, r0
 1936 0c36 6B4A     		ldr	r2, .L495+20
 1937 0c38 D154     		strb	r1, [r2, r3]
 1938              		.loc 1 435 0
 1939 0c3a 684B     		ldr	r3, .L495+12
 1940 0c3c 1868     		ldr	r0, [r3]
 1941 0c3e 684B     		ldr	r3, .L495+16
 1942 0c40 1B68     		ldr	r3, [r3]
 1943 0c42 5A1C     		adds	r2, r3, #1
 1944 0c44 6649     		ldr	r1, .L495+16
 1945 0c46 0A60     		str	r2, [r1]
 1946 0c48 C1B2     		uxtb	r1, r0
 1947 0c4a 664A     		ldr	r2, .L495+20
 1948 0c4c D154     		strb	r1, [r2, r3]
 1949              		.loc 1 436 0
 1950 0c4e 634B     		ldr	r3, .L495+12
 1951 0c50 1B68     		ldr	r3, [r3]
 1952 0c52 1812     		asrs	r0, r3, #8
 1953 0c54 624B     		ldr	r3, .L495+16
 1954 0c56 1B68     		ldr	r3, [r3]
 1955 0c58 5A1C     		adds	r2, r3, #1
 1956 0c5a 6149     		ldr	r1, .L495+16
 1957 0c5c 0A60     		str	r2, [r1]
 1958 0c5e C1B2     		uxtb	r1, r0
 1959 0c60 604A     		ldr	r2, .L495+20
 1960 0c62 D154     		strb	r1, [r2, r3]
 1961              		.loc 1 437 0
ARM GAS  C:\Users\Moi\AppData\Local\Temp\ccF5N8ze.s 			page 41


 1962 0c64 FFE3     		b	.L80
 1963              	.L70:
 1964              		.loc 1 440 0
 1965 0c66 9DF82630 		ldrb	r3, [sp, #38]	@ zero_extendqisi2
 1966 0c6a 002B     		cmp	r3, #0
 1967 0c6c 44D1     		bne	.L101
 1968              		.loc 1 441 0
 1969 0c6e 5E4A     		ldr	r2, .L495+24
 1970 0c70 5E49     		ldr	r1, .L495+28
 1971 0c72 5F48     		ldr	r0, .L495+32
 1972 0c74 FFF7FEFF 		bl	getAllAxesGyro
 1973              		.loc 1 442 0
 1974 0c78 5D4B     		ldr	r3, .L495+32
 1975 0c7a 1868     		ldr	r0, [r3]
 1976 0c7c 584B     		ldr	r3, .L495+16
 1977 0c7e 1B68     		ldr	r3, [r3]
 1978 0c80 5A1C     		adds	r2, r3, #1
 1979 0c82 5749     		ldr	r1, .L495+16
 1980 0c84 0A60     		str	r2, [r1]
 1981 0c86 C1B2     		uxtb	r1, r0
 1982 0c88 564A     		ldr	r2, .L495+20
 1983 0c8a D154     		strb	r1, [r2, r3]
 1984              		.loc 1 443 0
 1985 0c8c 584B     		ldr	r3, .L495+32
 1986 0c8e 1B68     		ldr	r3, [r3]
 1987 0c90 1812     		asrs	r0, r3, #8
 1988 0c92 534B     		ldr	r3, .L495+16
 1989 0c94 1B68     		ldr	r3, [r3]
 1990 0c96 5A1C     		adds	r2, r3, #1
 1991 0c98 5149     		ldr	r1, .L495+16
 1992 0c9a 0A60     		str	r2, [r1]
 1993 0c9c C1B2     		uxtb	r1, r0
 1994 0c9e 514A     		ldr	r2, .L495+20
 1995 0ca0 D154     		strb	r1, [r2, r3]
 1996              		.loc 1 444 0
 1997 0ca2 524B     		ldr	r3, .L495+28
 1998 0ca4 1868     		ldr	r0, [r3]
 1999 0ca6 4E4B     		ldr	r3, .L495+16
 2000 0ca8 1B68     		ldr	r3, [r3]
 2001 0caa 5A1C     		adds	r2, r3, #1
 2002 0cac 4C49     		ldr	r1, .L495+16
 2003 0cae 0A60     		str	r2, [r1]
 2004 0cb0 C1B2     		uxtb	r1, r0
 2005 0cb2 4C4A     		ldr	r2, .L495+20
 2006 0cb4 D154     		strb	r1, [r2, r3]
 2007              		.loc 1 445 0
 2008 0cb6 4D4B     		ldr	r3, .L495+28
 2009 0cb8 1B68     		ldr	r3, [r3]
 2010 0cba 1812     		asrs	r0, r3, #8
 2011 0cbc 484B     		ldr	r3, .L495+16
 2012 0cbe 1B68     		ldr	r3, [r3]
 2013 0cc0 5A1C     		adds	r2, r3, #1
 2014 0cc2 4749     		ldr	r1, .L495+16
 2015 0cc4 0A60     		str	r2, [r1]
 2016 0cc6 C1B2     		uxtb	r1, r0
 2017 0cc8 464A     		ldr	r2, .L495+20
 2018 0cca D154     		strb	r1, [r2, r3]
ARM GAS  C:\Users\Moi\AppData\Local\Temp\ccF5N8ze.s 			page 42


 2019              		.loc 1 446 0
 2020 0ccc 464B     		ldr	r3, .L495+24
 2021 0cce 1868     		ldr	r0, [r3]
 2022 0cd0 434B     		ldr	r3, .L495+16
 2023 0cd2 1B68     		ldr	r3, [r3]
 2024 0cd4 5A1C     		adds	r2, r3, #1
 2025 0cd6 4249     		ldr	r1, .L495+16
 2026 0cd8 0A60     		str	r2, [r1]
 2027 0cda C1B2     		uxtb	r1, r0
 2028 0cdc 414A     		ldr	r2, .L495+20
 2029 0cde D154     		strb	r1, [r2, r3]
 2030              		.loc 1 447 0
 2031 0ce0 414B     		ldr	r3, .L495+24
 2032 0ce2 1B68     		ldr	r3, [r3]
 2033 0ce4 1812     		asrs	r0, r3, #8
 2034 0ce6 3E4B     		ldr	r3, .L495+16
 2035 0ce8 1B68     		ldr	r3, [r3]
 2036 0cea 5A1C     		adds	r2, r3, #1
 2037 0cec 3C49     		ldr	r1, .L495+16
 2038 0cee 0A60     		str	r2, [r1]
 2039 0cf0 C1B2     		uxtb	r1, r0
 2040 0cf2 3C4A     		ldr	r2, .L495+20
 2041 0cf4 D154     		strb	r1, [r2, r3]
 2042              		.loc 1 456 0
 2043 0cf6 B6E3     		b	.L80
 2044              	.L101:
 2045              		.loc 1 449 0
 2046 0cf8 394B     		ldr	r3, .L495+16
 2047 0cfa 1B68     		ldr	r3, [r3]
 2048 0cfc 5A1C     		adds	r2, r3, #1
 2049 0cfe 3849     		ldr	r1, .L495+16
 2050 0d00 0A60     		str	r2, [r1]
 2051 0d02 384A     		ldr	r2, .L495+20
 2052 0d04 0021     		movs	r1, #0
 2053 0d06 D154     		strb	r1, [r2, r3]
 2054              		.loc 1 450 0
 2055 0d08 354B     		ldr	r3, .L495+16
 2056 0d0a 1B68     		ldr	r3, [r3]
 2057 0d0c 5A1C     		adds	r2, r3, #1
 2058 0d0e 3449     		ldr	r1, .L495+16
 2059 0d10 0A60     		str	r2, [r1]
 2060 0d12 344A     		ldr	r2, .L495+20
 2061 0d14 0021     		movs	r1, #0
 2062 0d16 D154     		strb	r1, [r2, r3]
 2063              		.loc 1 451 0
 2064 0d18 314B     		ldr	r3, .L495+16
 2065 0d1a 1B68     		ldr	r3, [r3]
 2066 0d1c 5A1C     		adds	r2, r3, #1
 2067 0d1e 3049     		ldr	r1, .L495+16
 2068 0d20 0A60     		str	r2, [r1]
 2069 0d22 304A     		ldr	r2, .L495+20
 2070 0d24 0021     		movs	r1, #0
 2071 0d26 D154     		strb	r1, [r2, r3]
 2072              		.loc 1 452 0
 2073 0d28 2D4B     		ldr	r3, .L495+16
 2074 0d2a 1B68     		ldr	r3, [r3]
 2075 0d2c 5A1C     		adds	r2, r3, #1
ARM GAS  C:\Users\Moi\AppData\Local\Temp\ccF5N8ze.s 			page 43


 2076 0d2e 2C49     		ldr	r1, .L495+16
 2077 0d30 0A60     		str	r2, [r1]
 2078 0d32 2C4A     		ldr	r2, .L495+20
 2079 0d34 0021     		movs	r1, #0
 2080 0d36 D154     		strb	r1, [r2, r3]
 2081              		.loc 1 453 0
 2082 0d38 294B     		ldr	r3, .L495+16
 2083 0d3a 1B68     		ldr	r3, [r3]
 2084 0d3c 5A1C     		adds	r2, r3, #1
 2085 0d3e 2849     		ldr	r1, .L495+16
 2086 0d40 0A60     		str	r2, [r1]
 2087 0d42 284A     		ldr	r2, .L495+20
 2088 0d44 0021     		movs	r1, #0
 2089 0d46 D154     		strb	r1, [r2, r3]
 2090              		.loc 1 454 0
 2091 0d48 254B     		ldr	r3, .L495+16
 2092 0d4a 1B68     		ldr	r3, [r3]
 2093 0d4c 5A1C     		adds	r2, r3, #1
 2094 0d4e 2449     		ldr	r1, .L495+16
 2095 0d50 0A60     		str	r2, [r1]
 2096 0d52 244A     		ldr	r2, .L495+20
 2097 0d54 0021     		movs	r1, #0
 2098 0d56 D154     		strb	r1, [r2, r3]
 2099              		.loc 1 456 0
 2100 0d58 85E3     		b	.L80
 2101              	.L59:
 2102              		.loc 1 459 0
 2103 0d5a 9DF82630 		ldrb	r3, [sp, #38]	@ zero_extendqisi2
 2104 0d5e 002B     		cmp	r3, #0
 2105 0d60 40F07A83 		bne	.L445
 2106              		.loc 1 460 0
 2107 0d64 1E4B     		ldr	r3, .L495+16
 2108 0d66 1B68     		ldr	r3, [r3]
 2109 0d68 0333     		adds	r3, r3, #3
 2110 0d6a 1E4A     		ldr	r2, .L495+20
 2111 0d6c 1344     		add	r3, r3, r2
 2112 0d6e 1846     		mov	r0, r3
 2113 0d70 FFF7FEFF 		bl	e_poxxxx_launch_capture
 2114              		.loc 1 461 0
 2115 0d74 1F4B     		ldr	r3, .L495+36
 2116 0d76 0122     		movs	r2, #1
 2117 0d78 1A70     		strb	r2, [r3]
 2118              		.loc 1 462 0
 2119 0d7a 1F4B     		ldr	r3, .L495+40
 2120 0d7c 1868     		ldr	r0, [r3]
 2121 0d7e 184B     		ldr	r3, .L495+16
 2122 0d80 1B68     		ldr	r3, [r3]
 2123 0d82 5A1C     		adds	r2, r3, #1
 2124 0d84 1649     		ldr	r1, .L495+16
 2125 0d86 0A60     		str	r2, [r1]
 2126 0d88 C1B2     		uxtb	r1, r0
 2127 0d8a 164A     		ldr	r2, .L495+20
 2128 0d8c D154     		strb	r1, [r2, r3]
 2129              		.loc 1 463 0
 2130 0d8e 1B4B     		ldr	r3, .L495+44
 2131 0d90 1868     		ldr	r0, [r3]
 2132 0d92 134B     		ldr	r3, .L495+16
ARM GAS  C:\Users\Moi\AppData\Local\Temp\ccF5N8ze.s 			page 44


 2133 0d94 1B68     		ldr	r3, [r3]
 2134 0d96 5A1C     		adds	r2, r3, #1
 2135 0d98 1149     		ldr	r1, .L495+16
 2136 0d9a 0A60     		str	r2, [r1]
 2137 0d9c C1B2     		uxtb	r1, r0
 2138 0d9e 114A     		ldr	r2, .L495+20
 2139 0da0 D154     		strb	r1, [r2, r3]
 2140              		.loc 1 464 0
 2141 0da2 174B     		ldr	r3, .L495+48
 2142 0da4 1868     		ldr	r0, [r3]
 2143 0da6 0E4B     		ldr	r3, .L495+16
 2144 0da8 1B68     		ldr	r3, [r3]
 2145 0daa 5A1C     		adds	r2, r3, #1
 2146 0dac 0C49     		ldr	r1, .L495+16
 2147 0dae 0A60     		str	r2, [r1]
 2148 0db0 C1B2     		uxtb	r1, r0
 2149 0db2 0C4A     		ldr	r2, .L495+20
 2150 0db4 D154     		strb	r1, [r2, r3]
 2151              		.loc 1 465 0
 2152 0db6 0A4B     		ldr	r3, .L495+16
 2153 0db8 1B68     		ldr	r3, [r3]
 2154 0dba ADF82A30 		strh	r3, [sp, #42]	@ movhi
 2155              		.loc 1 466 0
 2156 0dbe 084B     		ldr	r3, .L495+16
 2157 0dc0 1A68     		ldr	r2, [r3]
 2158 0dc2 104B     		ldr	r3, .L495+52
 2159 0dc4 1B68     		ldr	r3, [r3]
 2160 0dc6 1344     		add	r3, r3, r2
 2161 0dc8 054A     		ldr	r2, .L495+16
 2162 0dca 1360     		str	r3, [r2]
 2163              		.loc 1 468 0
 2164 0dcc 44E3     		b	.L445
 2165              	.L496:
 2166 0dce 00BF     		.align	2
 2167              	.L495:
 2168 0dd0 00000000 		.word	c1.13529
 2169 0dd4 00000000 		.word	c2.13530
 2170 0dd8 00000000 		.word	speedl.13536
 2171 0ddc 00000000 		.word	speedr.13535
 2172 0de0 00000000 		.word	i.13532
 2173 0de4 00000000 		.word	buffer
 2174 0de8 00000000 		.word	gyroz.13547
 2175 0dec 00000000 		.word	gyroy.13546
 2176 0df0 00000000 		.word	gyrox.13545
 2177 0df4 00000000 		.word	wait_cam.13531
 2178 0df8 00000000 		.word	cam_mode.13548
 2179 0dfc 00000000 		.word	cam_width.13549
 2180 0e00 00000000 		.word	cam_heigth.13550
 2181 0e04 00000000 		.word	cam_size.13552
 2182              	.L60:
 2183              		.loc 1 470 0
 2184 0e08 9DF82630 		ldrb	r3, [sp, #38]	@ zero_extendqisi2
 2185 0e0c 002B     		cmp	r3, #0
 2186 0e0e 1FD1     		bne	.L104
 2187              		.loc 1 472 0
 2188 0e10 0B9B     		ldr	r3, [sp, #44]
 2189 0e12 002B     		cmp	r3, #0
ARM GAS  C:\Users\Moi\AppData\Local\Temp\ccF5N8ze.s 			page 45


 2190 0e14 0ED0     		beq	.L482
 2191              		.loc 1 473 0
 2192 0e16 00BF     		nop
 2193              	.L106:
 2194              		.loc 1 473 0 is_stmt 0 discriminator 1
 2195 0e18 9048     		ldr	r0, .L497
 2196 0e1a FFF7FEFF 		bl	e_getchar_uart1
 2197 0e1e 0346     		mov	r3, r0
 2198 0e20 002B     		cmp	r3, #0
 2199 0e22 F9D0     		beq	.L106
 2200              		.loc 1 474 0 is_stmt 1
 2201 0e24 00BF     		nop
 2202              	.L107:
 2203              		.loc 1 474 0 is_stmt 0 discriminator 1
 2204 0e26 8E48     		ldr	r0, .L497+4
 2205 0e28 FFF7FEFF 		bl	e_getchar_uart1
 2206 0e2c 0346     		mov	r3, r0
 2207 0e2e 002B     		cmp	r3, #0
 2208 0e30 F9D0     		beq	.L107
 2209 0e32 0DE0     		b	.L104
 2210              	.L482:
 2211              		.loc 1 476 0 is_stmt 1
 2212 0e34 00BF     		nop
 2213              	.L108:
 2214              		.loc 1 476 0 is_stmt 0 discriminator 1
 2215 0e36 8948     		ldr	r0, .L497
 2216 0e38 FFF7FEFF 		bl	e_getchar_uart2
 2217 0e3c 0346     		mov	r3, r0
 2218 0e3e 002B     		cmp	r3, #0
 2219 0e40 F9D0     		beq	.L108
 2220              		.loc 1 477 0 is_stmt 1
 2221 0e42 00BF     		nop
 2222              	.L109:
 2223              		.loc 1 477 0 is_stmt 0 discriminator 1
 2224 0e44 8648     		ldr	r0, .L497+4
 2225 0e46 FFF7FEFF 		bl	e_getchar_uart2
 2226 0e4a 0346     		mov	r3, r0
 2227 0e4c 002B     		cmp	r3, #0
 2228 0e4e F9D0     		beq	.L109
 2229              	.L104:
 2230              		.loc 1 479 0 is_stmt 1
 2231 0e50 824B     		ldr	r3, .L497
 2232 0e52 1B78     		ldrb	r3, [r3]	@ zero_extendqisi2
 2233 0e54 082B     		cmp	r3, #8
 2234 0e56 02D0     		beq	.L111
 2235 0e58 092B     		cmp	r3, #9
 2236 0e5a 06D0     		beq	.L112
 2237 0e5c 0BE0     		b	.L443
 2238              	.L111:
 2239              		.loc 1 481 0
 2240 0e5e 804B     		ldr	r3, .L497+4
 2241 0e60 1B78     		ldrb	r3, [r3]	@ zero_extendqisi2
 2242 0e62 1846     		mov	r0, r3
 2243 0e64 FFF7FEFF 		bl	e_set_body_led
 2244              		.loc 1 482 0
 2245 0e68 0FE0     		b	.L113
 2246              	.L112:
ARM GAS  C:\Users\Moi\AppData\Local\Temp\ccF5N8ze.s 			page 46


 2247              		.loc 1 484 0
 2248 0e6a 7D4B     		ldr	r3, .L497+4
 2249 0e6c 1B78     		ldrb	r3, [r3]	@ zero_extendqisi2
 2250 0e6e 1846     		mov	r0, r3
 2251 0e70 FFF7FEFF 		bl	e_set_front_led
 2252              		.loc 1 485 0
 2253 0e74 09E0     		b	.L113
 2254              	.L443:
 2255              		.loc 1 487 0
 2256 0e76 794B     		ldr	r3, .L497
 2257 0e78 1B78     		ldrb	r3, [r3]	@ zero_extendqisi2
 2258 0e7a 1A46     		mov	r2, r3
 2259 0e7c 784B     		ldr	r3, .L497+4
 2260 0e7e 1B78     		ldrb	r3, [r3]	@ zero_extendqisi2
 2261 0e80 1946     		mov	r1, r3
 2262 0e82 1046     		mov	r0, r2
 2263 0e84 FFF7FEFF 		bl	e_set_led
 2264              		.loc 1 488 0
 2265 0e88 00BF     		nop
 2266              	.L113:
 2267              		.loc 1 490 0
 2268 0e8a ECE2     		b	.L80
 2269              	.L61:
 2270              		.loc 1 493 0
 2271 0e8c 9DF82630 		ldrb	r3, [sp, #38]	@ zero_extendqisi2
 2272 0e90 002B     		cmp	r3, #0
 2273 0e92 40F0E382 		bne	.L446
 2274              		.loc 1 494 0
 2275 0e96 FFF7FEFF 		bl	e_i2cp_init
 2276              		.loc 1 495 0
 2277 0e9a FFF7FEFF 		bl	e_i2cp_enable
 2278              		.loc 1 496 0
 2279 0e9e 0021     		movs	r1, #0
 2280 0ea0 C020     		movs	r0, #192
 2281 0ea2 FFF7FEFF 		bl	e_i2cp_read
 2282              		.loc 1 497 0
 2283 0ea6 6F4B     		ldr	r3, .L497+8
 2284 0ea8 0022     		movs	r2, #0
 2285 0eaa 1A60     		str	r2, [r3]
 2286 0eac 2DE0     		b	.L115
 2287              	.L118:
 2288              		.loc 1 498 0
 2289 0eae 6D4B     		ldr	r3, .L497+8
 2290 0eb0 1B68     		ldr	r3, [r3]
 2291 0eb2 03F00103 		and	r3, r3, #1
 2292 0eb6 002B     		cmp	r3, #0
 2293 0eb8 11D1     		bne	.L116
 2294              		.loc 1 498 0 is_stmt 0 discriminator 1
 2295 0eba 6A4B     		ldr	r3, .L497+8
 2296 0ebc 1B68     		ldr	r3, [r3]
 2297 0ebe DBB2     		uxtb	r3, r3
 2298 0ec0 0133     		adds	r3, r3, #1
 2299 0ec2 D9B2     		uxtb	r1, r3
 2300 0ec4 684B     		ldr	r3, .L497+12
 2301 0ec6 1C68     		ldr	r4, [r3]
 2302 0ec8 631C     		adds	r3, r4, #1
 2303 0eca 674A     		ldr	r2, .L497+12
ARM GAS  C:\Users\Moi\AppData\Local\Temp\ccF5N8ze.s 			page 47


 2304 0ecc 1360     		str	r3, [r2]
 2305 0ece C020     		movs	r0, #192
 2306 0ed0 FFF7FEFF 		bl	e_i2cp_read
 2307 0ed4 0346     		mov	r3, r0
 2308 0ed6 1A46     		mov	r2, r3
 2309 0ed8 644B     		ldr	r3, .L497+16
 2310 0eda 1A55     		strb	r2, [r3, r4]
 2311 0edc 10E0     		b	.L117
 2312              	.L116:
 2313              		.loc 1 499 0 is_stmt 1
 2314 0ede 614B     		ldr	r3, .L497+8
 2315 0ee0 1B68     		ldr	r3, [r3]
 2316 0ee2 DBB2     		uxtb	r3, r3
 2317 0ee4 013B     		subs	r3, r3, #1
 2318 0ee6 D9B2     		uxtb	r1, r3
 2319 0ee8 5F4B     		ldr	r3, .L497+12
 2320 0eea 1C68     		ldr	r4, [r3]
 2321 0eec 631C     		adds	r3, r4, #1
 2322 0eee 5E4A     		ldr	r2, .L497+12
 2323 0ef0 1360     		str	r3, [r2]
 2324 0ef2 C020     		movs	r0, #192
 2325 0ef4 FFF7FEFF 		bl	e_i2cp_read
 2326 0ef8 0346     		mov	r3, r0
 2327 0efa 1A46     		mov	r2, r3
 2328 0efc 5B4B     		ldr	r3, .L497+16
 2329 0efe 1A55     		strb	r2, [r3, r4]
 2330              	.L117:
 2331              		.loc 1 497 0 discriminator 2
 2332 0f00 584B     		ldr	r3, .L497+8
 2333 0f02 1B68     		ldr	r3, [r3]
 2334 0f04 0133     		adds	r3, r3, #1
 2335 0f06 574A     		ldr	r2, .L497+8
 2336 0f08 1360     		str	r3, [r2]
 2337              	.L115:
 2338              		.loc 1 497 0 is_stmt 0 discriminator 1
 2339 0f0a 564B     		ldr	r3, .L497+8
 2340 0f0c 1B68     		ldr	r3, [r3]
 2341 0f0e 052B     		cmp	r3, #5
 2342 0f10 CDDD     		ble	.L118
 2343              		.loc 1 502 0 is_stmt 1
 2344 0f12 544B     		ldr	r3, .L497+8
 2345 0f14 0D22     		movs	r2, #13
 2346 0f16 1A60     		str	r2, [r3]
 2347 0f18 2DE0     		b	.L119
 2348              	.L122:
 2349              		.loc 1 503 0
 2350 0f1a 524B     		ldr	r3, .L497+8
 2351 0f1c 1B68     		ldr	r3, [r3]
 2352 0f1e 03F00103 		and	r3, r3, #1
 2353 0f22 002B     		cmp	r3, #0
 2354 0f24 11D1     		bne	.L120
 2355              		.loc 1 503 0 is_stmt 0 discriminator 1
 2356 0f26 4F4B     		ldr	r3, .L497+8
 2357 0f28 1B68     		ldr	r3, [r3]
 2358 0f2a DBB2     		uxtb	r3, r3
 2359 0f2c 013B     		subs	r3, r3, #1
 2360 0f2e D9B2     		uxtb	r1, r3
ARM GAS  C:\Users\Moi\AppData\Local\Temp\ccF5N8ze.s 			page 48


 2361 0f30 4D4B     		ldr	r3, .L497+12
 2362 0f32 1C68     		ldr	r4, [r3]
 2363 0f34 631C     		adds	r3, r4, #1
 2364 0f36 4C4A     		ldr	r2, .L497+12
 2365 0f38 1360     		str	r3, [r2]
 2366 0f3a C020     		movs	r0, #192
 2367 0f3c FFF7FEFF 		bl	e_i2cp_read
 2368 0f40 0346     		mov	r3, r0
 2369 0f42 1A46     		mov	r2, r3
 2370 0f44 494B     		ldr	r3, .L497+16
 2371 0f46 1A55     		strb	r2, [r3, r4]
 2372 0f48 10E0     		b	.L121
 2373              	.L120:
 2374              		.loc 1 504 0 is_stmt 1
 2375 0f4a 464B     		ldr	r3, .L497+8
 2376 0f4c 1B68     		ldr	r3, [r3]
 2377 0f4e DBB2     		uxtb	r3, r3
 2378 0f50 0133     		adds	r3, r3, #1
 2379 0f52 D9B2     		uxtb	r1, r3
 2380 0f54 444B     		ldr	r3, .L497+12
 2381 0f56 1C68     		ldr	r4, [r3]
 2382 0f58 631C     		adds	r3, r4, #1
 2383 0f5a 434A     		ldr	r2, .L497+12
 2384 0f5c 1360     		str	r3, [r2]
 2385 0f5e C020     		movs	r0, #192
 2386 0f60 FFF7FEFF 		bl	e_i2cp_read
 2387 0f64 0346     		mov	r3, r0
 2388 0f66 1A46     		mov	r2, r3
 2389 0f68 404B     		ldr	r3, .L497+16
 2390 0f6a 1A55     		strb	r2, [r3, r4]
 2391              	.L121:
 2392              		.loc 1 502 0 discriminator 2
 2393 0f6c 3D4B     		ldr	r3, .L497+8
 2394 0f6e 1B68     		ldr	r3, [r3]
 2395 0f70 0133     		adds	r3, r3, #1
 2396 0f72 3C4A     		ldr	r2, .L497+8
 2397 0f74 1360     		str	r3, [r2]
 2398              	.L119:
 2399              		.loc 1 502 0 is_stmt 0 discriminator 1
 2400 0f76 3B4B     		ldr	r3, .L497+8
 2401 0f78 1B68     		ldr	r3, [r3]
 2402 0f7a 102B     		cmp	r3, #16
 2403 0f7c CDDD     		ble	.L122
 2404              		.loc 1 507 0 is_stmt 1
 2405 0f7e FFF7FEFF 		bl	e_i2cp_disable
 2406              		.loc 1 515 0
 2407 0f82 6BE2     		b	.L446
 2408              	.L62:
 2409              		.loc 1 517 0
 2410 0f84 374B     		ldr	r3, .L497+8
 2411 0f86 0022     		movs	r2, #0
 2412 0f88 1A60     		str	r2, [r3]
 2413 0f8a 21E0     		b	.L123
 2414              	.L124:
 2415              		.loc 1 518 0 discriminator 3
 2416 0f8c 354B     		ldr	r3, .L497+8
 2417 0f8e 1B68     		ldr	r3, [r3]
ARM GAS  C:\Users\Moi\AppData\Local\Temp\ccF5N8ze.s 			page 49


 2418 0f90 1846     		mov	r0, r3
 2419 0f92 FFF7FEFF 		bl	e_get_calibrated_prox
 2420 0f96 0246     		mov	r2, r0
 2421 0f98 354B     		ldr	r3, .L497+20
 2422 0f9a 1A60     		str	r2, [r3]
 2423              		.loc 1 519 0 discriminator 3
 2424 0f9c 344B     		ldr	r3, .L497+20
 2425 0f9e 1868     		ldr	r0, [r3]
 2426 0fa0 314B     		ldr	r3, .L497+12
 2427 0fa2 1B68     		ldr	r3, [r3]
 2428 0fa4 5A1C     		adds	r2, r3, #1
 2429 0fa6 3049     		ldr	r1, .L497+12
 2430 0fa8 0A60     		str	r2, [r1]
 2431 0faa C1B2     		uxtb	r1, r0
 2432 0fac 2F4A     		ldr	r2, .L497+16
 2433 0fae D154     		strb	r1, [r2, r3]
 2434              		.loc 1 520 0 discriminator 3
 2435 0fb0 2F4B     		ldr	r3, .L497+20
 2436 0fb2 1B68     		ldr	r3, [r3]
 2437 0fb4 1812     		asrs	r0, r3, #8
 2438 0fb6 2C4B     		ldr	r3, .L497+12
 2439 0fb8 1B68     		ldr	r3, [r3]
 2440 0fba 5A1C     		adds	r2, r3, #1
 2441 0fbc 2A49     		ldr	r1, .L497+12
 2442 0fbe 0A60     		str	r2, [r1]
 2443 0fc0 C1B2     		uxtb	r1, r0
 2444 0fc2 2A4A     		ldr	r2, .L497+16
 2445 0fc4 D154     		strb	r1, [r2, r3]
 2446              		.loc 1 517 0 discriminator 3
 2447 0fc6 274B     		ldr	r3, .L497+8
 2448 0fc8 1B68     		ldr	r3, [r3]
 2449 0fca 0133     		adds	r3, r3, #1
 2450 0fcc 254A     		ldr	r2, .L497+8
 2451 0fce 1360     		str	r3, [r2]
 2452              	.L123:
 2453              		.loc 1 517 0 is_stmt 0 discriminator 1
 2454 0fd0 244B     		ldr	r3, .L497+8
 2455 0fd2 1B68     		ldr	r3, [r3]
 2456 0fd4 072B     		cmp	r3, #7
 2457 0fd6 D9DD     		ble	.L124
 2458              		.loc 1 522 0 is_stmt 1
 2459 0fd8 45E2     		b	.L80
 2460              	.L63:
 2461              		.loc 1 524 0
 2462 0fda 224B     		ldr	r3, .L497+8
 2463 0fdc 0022     		movs	r2, #0
 2464 0fde 1A60     		str	r2, [r3]
 2465 0fe0 21E0     		b	.L125
 2466              	.L126:
 2467              		.loc 1 525 0 discriminator 3
 2468 0fe2 204B     		ldr	r3, .L497+8
 2469 0fe4 1B68     		ldr	r3, [r3]
 2470 0fe6 1846     		mov	r0, r3
 2471 0fe8 FFF7FEFF 		bl	e_get_ambient_light
 2472 0fec 0246     		mov	r2, r0
 2473 0fee 204B     		ldr	r3, .L497+20
 2474 0ff0 1A60     		str	r2, [r3]
ARM GAS  C:\Users\Moi\AppData\Local\Temp\ccF5N8ze.s 			page 50


 2475              		.loc 1 526 0 discriminator 3
 2476 0ff2 1F4B     		ldr	r3, .L497+20
 2477 0ff4 1868     		ldr	r0, [r3]
 2478 0ff6 1C4B     		ldr	r3, .L497+12
 2479 0ff8 1B68     		ldr	r3, [r3]
 2480 0ffa 5A1C     		adds	r2, r3, #1
 2481 0ffc 1A49     		ldr	r1, .L497+12
 2482 0ffe 0A60     		str	r2, [r1]
 2483 1000 C1B2     		uxtb	r1, r0
 2484 1002 1A4A     		ldr	r2, .L497+16
 2485 1004 D154     		strb	r1, [r2, r3]
 2486              		.loc 1 527 0 discriminator 3
 2487 1006 1A4B     		ldr	r3, .L497+20
 2488 1008 1B68     		ldr	r3, [r3]
 2489 100a 1812     		asrs	r0, r3, #8
 2490 100c 164B     		ldr	r3, .L497+12
 2491 100e 1B68     		ldr	r3, [r3]
 2492 1010 5A1C     		adds	r2, r3, #1
 2493 1012 1549     		ldr	r1, .L497+12
 2494 1014 0A60     		str	r2, [r1]
 2495 1016 C1B2     		uxtb	r1, r0
 2496 1018 144A     		ldr	r2, .L497+16
 2497 101a D154     		strb	r1, [r2, r3]
 2498              		.loc 1 524 0 discriminator 3
 2499 101c 114B     		ldr	r3, .L497+8
 2500 101e 1B68     		ldr	r3, [r3]
 2501 1020 0133     		adds	r3, r3, #1
 2502 1022 104A     		ldr	r2, .L497+8
 2503 1024 1360     		str	r3, [r2]
 2504              	.L125:
 2505              		.loc 1 524 0 is_stmt 0 discriminator 1
 2506 1026 0F4B     		ldr	r3, .L497+8
 2507 1028 1B68     		ldr	r3, [r3]
 2508 102a 072B     		cmp	r3, #7
 2509 102c D9DD     		ble	.L126
 2510              		.loc 1 529 0 is_stmt 1
 2511 102e 1AE2     		b	.L80
 2512              	.L64:
 2513              		.loc 1 532 0
 2514 1030 9DF82630 		ldrb	r3, [sp, #38]	@ zero_extendqisi2
 2515 1034 002B     		cmp	r3, #0
 2516 1036 2BD1     		bne	.L127
 2517              		.loc 1 534 0
 2518 1038 0B9B     		ldr	r3, [sp, #44]
 2519 103a 002B     		cmp	r3, #0
 2520 103c 1AD0     		beq	.L483
 2521              		.loc 1 535 0
 2522 103e 00BF     		nop
 2523              	.L129:
 2524              		.loc 1 535 0 is_stmt 0 discriminator 1
 2525 1040 0648     		ldr	r0, .L497
 2526 1042 FFF7FEFF 		bl	e_getchar_uart1
 2527 1046 0346     		mov	r3, r0
 2528 1048 002B     		cmp	r3, #0
 2529 104a F9D0     		beq	.L129
 2530              		.loc 1 536 0 is_stmt 1
 2531 104c 00BF     		nop
ARM GAS  C:\Users\Moi\AppData\Local\Temp\ccF5N8ze.s 			page 51


 2532              	.L130:
 2533              		.loc 1 536 0 is_stmt 0 discriminator 1
 2534 104e 0448     		ldr	r0, .L497+4
 2535 1050 FFF7FEFF 		bl	e_getchar_uart1
 2536 1054 0346     		mov	r3, r0
 2537 1056 002B     		cmp	r3, #0
 2538 1058 F9D0     		beq	.L130
 2539 105a 19E0     		b	.L127
 2540              	.L498:
 2541              		.align	2
 2542              	.L497:
 2543 105c 00000000 		.word	c1.13529
 2544 1060 00000000 		.word	c2.13530
 2545 1064 00000000 		.word	j.13533
 2546 1068 00000000 		.word	i.13532
 2547 106c 00000000 		.word	buffer
 2548 1070 00000000 		.word	n.13534
 2549              	.L483:
 2550              		.loc 1 538 0 is_stmt 1
 2551 1074 00BF     		nop
 2552              	.L131:
 2553              		.loc 1 538 0 is_stmt 0 discriminator 1
 2554 1076 A048     		ldr	r0, .L499
 2555 1078 FFF7FEFF 		bl	e_getchar_uart2
 2556 107c 0346     		mov	r3, r0
 2557 107e 002B     		cmp	r3, #0
 2558 1080 F9D0     		beq	.L131
 2559              		.loc 1 539 0 is_stmt 1
 2560 1082 00BF     		nop
 2561              	.L132:
 2562              		.loc 1 539 0 is_stmt 0 discriminator 1
 2563 1084 9D48     		ldr	r0, .L499+4
 2564 1086 FFF7FEFF 		bl	e_getchar_uart2
 2565 108a 0346     		mov	r3, r0
 2566 108c 002B     		cmp	r3, #0
 2567 108e F9D0     		beq	.L132
 2568              	.L127:
 2569              		.loc 1 541 0 is_stmt 1
 2570 1090 994B     		ldr	r3, .L499
 2571 1092 1B78     		ldrb	r3, [r3]	@ zero_extendqisi2
 2572 1094 1A46     		mov	r2, r3
 2573 1096 994B     		ldr	r3, .L499+4
 2574 1098 1B78     		ldrb	r3, [r3]	@ zero_extendqisi2
 2575 109a 1B02     		lsls	r3, r3, #8
 2576 109c 1344     		add	r3, r3, r2
 2577 109e 1A46     		mov	r2, r3
 2578 10a0 974B     		ldr	r3, .L499+8
 2579 10a2 1A60     		str	r2, [r3]
 2580              		.loc 1 542 0
 2581 10a4 9DF82630 		ldrb	r3, [sp, #38]	@ zero_extendqisi2
 2582 10a8 002B     		cmp	r3, #0
 2583 10aa 1FD1     		bne	.L133
 2584              		.loc 1 544 0
 2585 10ac 0B9B     		ldr	r3, [sp, #44]
 2586 10ae 002B     		cmp	r3, #0
 2587 10b0 0ED0     		beq	.L484
 2588              		.loc 1 545 0
ARM GAS  C:\Users\Moi\AppData\Local\Temp\ccF5N8ze.s 			page 52


 2589 10b2 00BF     		nop
 2590              	.L135:
 2591              		.loc 1 545 0 is_stmt 0 discriminator 1
 2592 10b4 9048     		ldr	r0, .L499
 2593 10b6 FFF7FEFF 		bl	e_getchar_uart1
 2594 10ba 0346     		mov	r3, r0
 2595 10bc 002B     		cmp	r3, #0
 2596 10be F9D0     		beq	.L135
 2597              		.loc 1 546 0 is_stmt 1
 2598 10c0 00BF     		nop
 2599              	.L136:
 2600              		.loc 1 546 0 is_stmt 0 discriminator 1
 2601 10c2 8E48     		ldr	r0, .L499+4
 2602 10c4 FFF7FEFF 		bl	e_getchar_uart1
 2603 10c8 0346     		mov	r3, r0
 2604 10ca 002B     		cmp	r3, #0
 2605 10cc F9D0     		beq	.L136
 2606 10ce 0DE0     		b	.L133
 2607              	.L484:
 2608              		.loc 1 548 0 is_stmt 1
 2609 10d0 00BF     		nop
 2610              	.L137:
 2611              		.loc 1 548 0 is_stmt 0 discriminator 1
 2612 10d2 8948     		ldr	r0, .L499
 2613 10d4 FFF7FEFF 		bl	e_getchar_uart2
 2614 10d8 0346     		mov	r3, r0
 2615 10da 002B     		cmp	r3, #0
 2616 10dc F9D0     		beq	.L137
 2617              		.loc 1 549 0 is_stmt 1
 2618 10de 00BF     		nop
 2619              	.L138:
 2620              		.loc 1 549 0 is_stmt 0 discriminator 1
 2621 10e0 8648     		ldr	r0, .L499+4
 2622 10e2 FFF7FEFF 		bl	e_getchar_uart2
 2623 10e6 0346     		mov	r3, r0
 2624 10e8 002B     		cmp	r3, #0
 2625 10ea F9D0     		beq	.L138
 2626              	.L133:
 2627              		.loc 1 551 0 is_stmt 1
 2628 10ec 824B     		ldr	r3, .L499
 2629 10ee 1B78     		ldrb	r3, [r3]	@ zero_extendqisi2
 2630 10f0 1A46     		mov	r2, r3
 2631 10f2 824B     		ldr	r3, .L499+4
 2632 10f4 1B78     		ldrb	r3, [r3]	@ zero_extendqisi2
 2633 10f6 1B02     		lsls	r3, r3, #8
 2634 10f8 1344     		add	r3, r3, r2
 2635 10fa 1A46     		mov	r2, r3
 2636 10fc 814B     		ldr	r3, .L499+12
 2637 10fe 1A60     		str	r2, [r3]
 2638              		.loc 1 552 0
 2639 1100 7F4B     		ldr	r3, .L499+8
 2640 1102 1B68     		ldr	r3, [r3]
 2641 1104 1846     		mov	r0, r3
 2642 1106 FFF7FEFF 		bl	e_set_steps_left
 2643              		.loc 1 553 0
 2644 110a 7E4B     		ldr	r3, .L499+12
 2645 110c 1B68     		ldr	r3, [r3]
ARM GAS  C:\Users\Moi\AppData\Local\Temp\ccF5N8ze.s 			page 53


 2646 110e 1846     		mov	r0, r3
 2647 1110 FFF7FEFF 		bl	e_set_steps_right
 2648              		.loc 1 554 0
 2649 1114 A7E1     		b	.L80
 2650              	.L65:
 2651              		.loc 1 556 0
 2652 1116 FFF7FEFF 		bl	e_get_steps_left
 2653 111a 0246     		mov	r2, r0
 2654 111c 7A4B     		ldr	r3, .L499+16
 2655 111e 1A60     		str	r2, [r3]
 2656              		.loc 1 557 0
 2657 1120 794B     		ldr	r3, .L499+16
 2658 1122 1868     		ldr	r0, [r3]
 2659 1124 794B     		ldr	r3, .L499+20
 2660 1126 1B68     		ldr	r3, [r3]
 2661 1128 5A1C     		adds	r2, r3, #1
 2662 112a 7849     		ldr	r1, .L499+20
 2663 112c 0A60     		str	r2, [r1]
 2664 112e C1B2     		uxtb	r1, r0
 2665 1130 774A     		ldr	r2, .L499+24
 2666 1132 D154     		strb	r1, [r2, r3]
 2667              		.loc 1 558 0
 2668 1134 744B     		ldr	r3, .L499+16
 2669 1136 1B68     		ldr	r3, [r3]
 2670 1138 1812     		asrs	r0, r3, #8
 2671 113a 744B     		ldr	r3, .L499+20
 2672 113c 1B68     		ldr	r3, [r3]
 2673 113e 5A1C     		adds	r2, r3, #1
 2674 1140 7249     		ldr	r1, .L499+20
 2675 1142 0A60     		str	r2, [r1]
 2676 1144 C1B2     		uxtb	r1, r0
 2677 1146 724A     		ldr	r2, .L499+24
 2678 1148 D154     		strb	r1, [r2, r3]
 2679              		.loc 1 559 0
 2680 114a FFF7FEFF 		bl	e_get_steps_right
 2681 114e 0246     		mov	r2, r0
 2682 1150 6D4B     		ldr	r3, .L499+16
 2683 1152 1A60     		str	r2, [r3]
 2684              		.loc 1 560 0
 2685 1154 6C4B     		ldr	r3, .L499+16
 2686 1156 1868     		ldr	r0, [r3]
 2687 1158 6C4B     		ldr	r3, .L499+20
 2688 115a 1B68     		ldr	r3, [r3]
 2689 115c 5A1C     		adds	r2, r3, #1
 2690 115e 6B49     		ldr	r1, .L499+20
 2691 1160 0A60     		str	r2, [r1]
 2692 1162 C1B2     		uxtb	r1, r0
 2693 1164 6A4A     		ldr	r2, .L499+24
 2694 1166 D154     		strb	r1, [r2, r3]
 2695              		.loc 1 561 0
 2696 1168 674B     		ldr	r3, .L499+16
 2697 116a 1B68     		ldr	r3, [r3]
 2698 116c 1812     		asrs	r0, r3, #8
 2699 116e 674B     		ldr	r3, .L499+20
 2700 1170 1B68     		ldr	r3, [r3]
 2701 1172 5A1C     		adds	r2, r3, #1
 2702 1174 6549     		ldr	r1, .L499+20
ARM GAS  C:\Users\Moi\AppData\Local\Temp\ccF5N8ze.s 			page 54


 2703 1176 0A60     		str	r2, [r1]
 2704 1178 C1B2     		uxtb	r1, r0
 2705 117a 654A     		ldr	r2, .L499+24
 2706 117c D154     		strb	r1, [r2, r3]
 2707              		.loc 1 562 0
 2708 117e 72E1     		b	.L80
 2709              	.L71:
 2710              		.loc 1 565 0
 2711 1180 9DF82630 		ldrb	r3, [sp, #38]	@ zero_extendqisi2
 2712 1184 002B     		cmp	r3, #0
 2713 1186 08D1     		bne	.L139
 2714              		.loc 1 566 0
 2715 1188 604B     		ldr	r3, .L499+20
 2716 118a 1B68     		ldr	r3, [r3]
 2717 118c 5A1C     		adds	r2, r3, #1
 2718 118e 5F49     		ldr	r1, .L499+20
 2719 1190 0A60     		str	r2, [r1]
 2720 1192 5F4A     		ldr	r2, .L499+24
 2721 1194 0021     		movs	r1, #0
 2722 1196 D154     		strb	r1, [r2, r3]
 2723              		.loc 1 570 0
 2724 1198 65E1     		b	.L80
 2725              	.L139:
 2726              		.loc 1 568 0
 2727 119a FFF7FEFF 		bl	getTemperature
 2728 119e 0346     		mov	r3, r0
 2729 11a0 1846     		mov	r0, r3
 2730 11a2 5A4B     		ldr	r3, .L499+20
 2731 11a4 1B68     		ldr	r3, [r3]
 2732 11a6 5A1C     		adds	r2, r3, #1
 2733 11a8 5849     		ldr	r1, .L499+20
 2734 11aa 0A60     		str	r2, [r1]
 2735 11ac C1B2     		uxtb	r1, r0
 2736 11ae 584A     		ldr	r2, .L499+24
 2737 11b0 D154     		strb	r1, [r2, r3]
 2738              		.loc 1 570 0
 2739 11b2 58E1     		b	.L80
 2740              	.L72:
 2741              		.loc 1 573 0
 2742 11b4 0020     		movs	r0, #0
 2743 11b6 FFF7FEFF 		bl	e_get_micro_volume
 2744 11ba 0246     		mov	r2, r0
 2745 11bc 524B     		ldr	r3, .L499+16
 2746 11be 1A60     		str	r2, [r3]
 2747              		.loc 1 574 0
 2748 11c0 514B     		ldr	r3, .L499+16
 2749 11c2 1868     		ldr	r0, [r3]
 2750 11c4 514B     		ldr	r3, .L499+20
 2751 11c6 1B68     		ldr	r3, [r3]
 2752 11c8 5A1C     		adds	r2, r3, #1
 2753 11ca 5049     		ldr	r1, .L499+20
 2754 11cc 0A60     		str	r2, [r1]
 2755 11ce C1B2     		uxtb	r1, r0
 2756 11d0 4F4A     		ldr	r2, .L499+24
 2757 11d2 D154     		strb	r1, [r2, r3]
 2758              		.loc 1 575 0
 2759 11d4 4C4B     		ldr	r3, .L499+16
ARM GAS  C:\Users\Moi\AppData\Local\Temp\ccF5N8ze.s 			page 55


 2760 11d6 1B68     		ldr	r3, [r3]
 2761 11d8 1812     		asrs	r0, r3, #8
 2762 11da 4C4B     		ldr	r3, .L499+20
 2763 11dc 1B68     		ldr	r3, [r3]
 2764 11de 5A1C     		adds	r2, r3, #1
 2765 11e0 4A49     		ldr	r1, .L499+20
 2766 11e2 0A60     		str	r2, [r1]
 2767 11e4 C1B2     		uxtb	r1, r0
 2768 11e6 4A4A     		ldr	r2, .L499+24
 2769 11e8 D154     		strb	r1, [r2, r3]
 2770              		.loc 1 577 0
 2771 11ea 0120     		movs	r0, #1
 2772 11ec FFF7FEFF 		bl	e_get_micro_volume
 2773 11f0 0246     		mov	r2, r0
 2774 11f2 454B     		ldr	r3, .L499+16
 2775 11f4 1A60     		str	r2, [r3]
 2776              		.loc 1 578 0
 2777 11f6 444B     		ldr	r3, .L499+16
 2778 11f8 1868     		ldr	r0, [r3]
 2779 11fa 444B     		ldr	r3, .L499+20
 2780 11fc 1B68     		ldr	r3, [r3]
 2781 11fe 5A1C     		adds	r2, r3, #1
 2782 1200 4249     		ldr	r1, .L499+20
 2783 1202 0A60     		str	r2, [r1]
 2784 1204 C1B2     		uxtb	r1, r0
 2785 1206 424A     		ldr	r2, .L499+24
 2786 1208 D154     		strb	r1, [r2, r3]
 2787              		.loc 1 579 0
 2788 120a 3F4B     		ldr	r3, .L499+16
 2789 120c 1B68     		ldr	r3, [r3]
 2790 120e 1812     		asrs	r0, r3, #8
 2791 1210 3E4B     		ldr	r3, .L499+20
 2792 1212 1B68     		ldr	r3, [r3]
 2793 1214 5A1C     		adds	r2, r3, #1
 2794 1216 3D49     		ldr	r1, .L499+20
 2795 1218 0A60     		str	r2, [r1]
 2796 121a C1B2     		uxtb	r1, r0
 2797 121c 3C4A     		ldr	r2, .L499+24
 2798 121e D154     		strb	r1, [r2, r3]
 2799              		.loc 1 581 0
 2800 1220 0220     		movs	r0, #2
 2801 1222 FFF7FEFF 		bl	e_get_micro_volume
 2802 1226 0246     		mov	r2, r0
 2803 1228 374B     		ldr	r3, .L499+16
 2804 122a 1A60     		str	r2, [r3]
 2805              		.loc 1 582 0
 2806 122c 364B     		ldr	r3, .L499+16
 2807 122e 1868     		ldr	r0, [r3]
 2808 1230 364B     		ldr	r3, .L499+20
 2809 1232 1B68     		ldr	r3, [r3]
 2810 1234 5A1C     		adds	r2, r3, #1
 2811 1236 3549     		ldr	r1, .L499+20
 2812 1238 0A60     		str	r2, [r1]
 2813 123a C1B2     		uxtb	r1, r0
 2814 123c 344A     		ldr	r2, .L499+24
 2815 123e D154     		strb	r1, [r2, r3]
 2816              		.loc 1 583 0
ARM GAS  C:\Users\Moi\AppData\Local\Temp\ccF5N8ze.s 			page 56


 2817 1240 314B     		ldr	r3, .L499+16
 2818 1242 1B68     		ldr	r3, [r3]
 2819 1244 1812     		asrs	r0, r3, #8
 2820 1246 314B     		ldr	r3, .L499+20
 2821 1248 1B68     		ldr	r3, [r3]
 2822 124a 5A1C     		adds	r2, r3, #1
 2823 124c 2F49     		ldr	r1, .L499+20
 2824 124e 0A60     		str	r2, [r1]
 2825 1250 C1B2     		uxtb	r1, r0
 2826 1252 2F4A     		ldr	r2, .L499+24
 2827 1254 D154     		strb	r1, [r2, r3]
 2828              		.loc 1 584 0
 2829 1256 06E1     		b	.L80
 2830              	.L67:
 2831              		.loc 1 598 0
 2832 1258 9DF82630 		ldrb	r3, [sp, #38]	@ zero_extendqisi2
 2833 125c 002B     		cmp	r3, #0
 2834 125e 40F0FF80 		bne	.L447
 2835              		.loc 1 599 0
 2836 1262 0B9B     		ldr	r3, [sp, #44]
 2837 1264 002B     		cmp	r3, #0
 2838 1266 15D0     		beq	.L485
 2839              		.loc 1 600 0
 2840 1268 00BF     		nop
 2841              	.L143:
 2842              		.loc 1 600 0 is_stmt 0 discriminator 1
 2843 126a 2A48     		ldr	r0, .L499+28
 2844 126c FFF7FEFF 		bl	e_getchar_uart1
 2845 1270 0346     		mov	r3, r0
 2846 1272 002B     		cmp	r3, #0
 2847 1274 F9D0     		beq	.L143
 2848              		.loc 1 601 0 is_stmt 1
 2849 1276 00BF     		nop
 2850              	.L144:
 2851              		.loc 1 601 0 is_stmt 0 discriminator 1
 2852 1278 2748     		ldr	r0, .L499+32
 2853 127a FFF7FEFF 		bl	e_getchar_uart1
 2854 127e 0346     		mov	r3, r0
 2855 1280 002B     		cmp	r3, #0
 2856 1282 F9D0     		beq	.L144
 2857              		.loc 1 602 0 is_stmt 1
 2858 1284 00BF     		nop
 2859              	.L145:
 2860              		.loc 1 602 0 is_stmt 0 discriminator 1
 2861 1286 2548     		ldr	r0, .L499+36
 2862 1288 FFF7FEFF 		bl	e_getchar_uart1
 2863 128c 0346     		mov	r3, r0
 2864 128e 002B     		cmp	r3, #0
 2865 1290 F9D0     		beq	.L145
 2866 1292 14E0     		b	.L146
 2867              	.L485:
 2868              		.loc 1 604 0 is_stmt 1
 2869 1294 00BF     		nop
 2870              	.L147:
 2871              		.loc 1 604 0 is_stmt 0 discriminator 1
 2872 1296 1F48     		ldr	r0, .L499+28
 2873 1298 FFF7FEFF 		bl	e_getchar_uart2
ARM GAS  C:\Users\Moi\AppData\Local\Temp\ccF5N8ze.s 			page 57


 2874 129c 0346     		mov	r3, r0
 2875 129e 002B     		cmp	r3, #0
 2876 12a0 F9D0     		beq	.L147
 2877              		.loc 1 605 0 is_stmt 1
 2878 12a2 00BF     		nop
 2879              	.L148:
 2880              		.loc 1 605 0 is_stmt 0 discriminator 1
 2881 12a4 1C48     		ldr	r0, .L499+32
 2882 12a6 FFF7FEFF 		bl	e_getchar_uart2
 2883 12aa 0346     		mov	r3, r0
 2884 12ac 002B     		cmp	r3, #0
 2885 12ae F9D0     		beq	.L148
 2886              		.loc 1 606 0 is_stmt 1
 2887 12b0 00BF     		nop
 2888              	.L149:
 2889              		.loc 1 606 0 is_stmt 0 discriminator 1
 2890 12b2 1A48     		ldr	r0, .L499+36
 2891 12b4 FFF7FEFF 		bl	e_getchar_uart2
 2892 12b8 0346     		mov	r3, r0
 2893 12ba 002B     		cmp	r3, #0
 2894 12bc F9D0     		beq	.L149
 2895              	.L146:
 2896              		.loc 1 608 0 is_stmt 1
 2897 12be FFF7FEFF 		bl	e_i2cp_enable
 2898              		.loc 1 609 0
 2899 12c2 144B     		ldr	r3, .L499+28
 2900 12c4 1B68     		ldr	r3, [r3]
 2901 12c6 D8B2     		uxtb	r0, r3
 2902 12c8 134B     		ldr	r3, .L499+32
 2903 12ca 1B68     		ldr	r3, [r3]
 2904 12cc D9B2     		uxtb	r1, r3
 2905 12ce 134B     		ldr	r3, .L499+36
 2906 12d0 1B68     		ldr	r3, [r3]
 2907 12d2 DBB2     		uxtb	r3, r3
 2908 12d4 1A46     		mov	r2, r3
 2909 12d6 FFF7FEFF 		bl	e_i2cp_write
 2910              		.loc 1 610 0
 2911 12da FFF7FEFF 		bl	e_i2cp_disable
 2912              		.loc 1 612 0
 2913 12de BFE0     		b	.L447
 2914              	.L73:
 2915              		.loc 1 614 0
 2916 12e0 9DF82630 		ldrb	r3, [sp, #38]	@ zero_extendqisi2
 2917 12e4 002B     		cmp	r3, #0
 2918 12e6 40F0BD80 		bne	.L448
 2919              		.loc 1 615 0
 2920 12ea FFF7FEFF 		bl	e_i2cp_enable
 2921              		.loc 1 616 0
 2922 12ee 0C4B     		ldr	r3, .L499+40
 2923 12f0 0022     		movs	r2, #0
 2924 12f2 1A60     		str	r2, [r3]
 2925 12f4 26E0     		b	.L151
 2926              	.L500:
 2927 12f6 00BF     		.align	2
 2928              	.L499:
 2929 12f8 00000000 		.word	c1.13529
 2930 12fc 00000000 		.word	c2.13530
ARM GAS  C:\Users\Moi\AppData\Local\Temp\ccF5N8ze.s 			page 58


 2931 1300 00000000 		.word	positionl.13538
 2932 1304 00000000 		.word	positionr.13537
 2933 1308 00000000 		.word	n.13534
 2934 130c 00000000 		.word	i.13532
 2935 1310 00000000 		.word	buffer
 2936 1314 00000000 		.word	mod.13558
 2937 1318 00000000 		.word	reg.13559
 2938 131c 00000000 		.word	val.13560
 2939 1320 00000000 		.word	j.13533
 2940              	.L153:
 2941              		.loc 1 617 0
 2942 1324 00BF     		nop
 2943              	.L152:
 2944              		.loc 1 617 0 is_stmt 0 discriminator 1
 2945 1326 A44B     		ldr	r3, .L501
 2946 1328 1B68     		ldr	r3, [r3]
 2947 132a A44A     		ldr	r2, .L501+4
 2948 132c 1344     		add	r3, r3, r2
 2949 132e 1846     		mov	r0, r3
 2950 1330 FFF7FEFF 		bl	e_getchar_uart1
 2951 1334 0346     		mov	r3, r0
 2952 1336 002B     		cmp	r3, #0
 2953 1338 F5D0     		beq	.L152
 2954              		.loc 1 616 0 is_stmt 1 discriminator 2
 2955 133a 9F4B     		ldr	r3, .L501
 2956 133c 1B68     		ldr	r3, [r3]
 2957 133e 0133     		adds	r3, r3, #1
 2958 1340 9D4A     		ldr	r2, .L501
 2959 1342 1360     		str	r3, [r2]
 2960              	.L151:
 2961              		.loc 1 616 0 is_stmt 0 discriminator 1
 2962 1344 9C4B     		ldr	r3, .L501
 2963 1346 1B68     		ldr	r3, [r3]
 2964 1348 172B     		cmp	r3, #23
 2965 134a EBDD     		ble	.L153
 2966              		.loc 1 619 0 is_stmt 1
 2967 134c 9A4B     		ldr	r3, .L501
 2968 134e 9222     		movs	r2, #146
 2969 1350 1A60     		str	r2, [r3]
 2970 1352 10E0     		b	.L154
 2971              	.L156:
 2972              		.loc 1 620 0
 2973 1354 00BF     		nop
 2974              	.L155:
 2975              		.loc 1 620 0 is_stmt 0 discriminator 1
 2976 1356 984B     		ldr	r3, .L501
 2977 1358 1B68     		ldr	r3, [r3]
 2978 135a 7A3B     		subs	r3, r3, #122
 2979 135c 974A     		ldr	r2, .L501+4
 2980 135e 1344     		add	r3, r3, r2
 2981 1360 1846     		mov	r0, r3
 2982 1362 FFF7FEFF 		bl	e_getchar_uart1
 2983 1366 0346     		mov	r3, r0
 2984 1368 002B     		cmp	r3, #0
 2985 136a F4D0     		beq	.L155
 2986              		.loc 1 619 0 is_stmt 1 discriminator 2
 2987 136c 924B     		ldr	r3, .L501
ARM GAS  C:\Users\Moi\AppData\Local\Temp\ccF5N8ze.s 			page 59


 2988 136e 1B68     		ldr	r3, [r3]
 2989 1370 0133     		adds	r3, r3, #1
 2990 1372 914A     		ldr	r2, .L501
 2991 1374 1360     		str	r3, [r2]
 2992              	.L154:
 2993              		.loc 1 619 0 is_stmt 0 discriminator 1
 2994 1376 904B     		ldr	r3, .L501
 2995 1378 1B68     		ldr	r3, [r3]
 2996 137a 942B     		cmp	r3, #148
 2997 137c EADD     		ble	.L156
 2998              		.loc 1 622 0 is_stmt 1
 2999 137e 8E4B     		ldr	r3, .L501
 3000 1380 A422     		movs	r2, #164
 3001 1382 1A60     		str	r2, [r3]
 3002 1384 10E0     		b	.L157
 3003              	.L159:
 3004              		.loc 1 623 0
 3005 1386 00BF     		nop
 3006              	.L158:
 3007              		.loc 1 623 0 is_stmt 0 discriminator 1
 3008 1388 8B4B     		ldr	r3, .L501
 3009 138a 1B68     		ldr	r3, [r3]
 3010 138c 893B     		subs	r3, r3, #137
 3011 138e 8B4A     		ldr	r2, .L501+4
 3012 1390 1344     		add	r3, r3, r2
 3013 1392 1846     		mov	r0, r3
 3014 1394 FFF7FEFF 		bl	e_getchar_uart1
 3015 1398 0346     		mov	r3, r0
 3016 139a 002B     		cmp	r3, #0
 3017 139c F4D0     		beq	.L158
 3018              		.loc 1 622 0 is_stmt 1 discriminator 2
 3019 139e 864B     		ldr	r3, .L501
 3020 13a0 1B68     		ldr	r3, [r3]
 3021 13a2 0133     		adds	r3, r3, #1
 3022 13a4 844A     		ldr	r2, .L501
 3023 13a6 1360     		str	r3, [r2]
 3024              	.L157:
 3025              		.loc 1 622 0 is_stmt 0 discriminator 1
 3026 13a8 834B     		ldr	r3, .L501
 3027 13aa 1B68     		ldr	r3, [r3]
 3028 13ac AB2B     		cmp	r3, #171
 3029 13ae EADD     		ble	.L159
 3030              		.loc 1 625 0 is_stmt 1
 3031 13b0 814B     		ldr	r3, .L501
 3032 13b2 0022     		movs	r2, #0
 3033 13b4 1A60     		str	r2, [r3]
 3034 13b6 0FE0     		b	.L160
 3035              	.L161:
 3036              		.loc 1 626 0 discriminator 3
 3037 13b8 7F4B     		ldr	r3, .L501
 3038 13ba 1B68     		ldr	r3, [r3]
 3039 13bc D9B2     		uxtb	r1, r3
 3040 13be 7E4B     		ldr	r3, .L501
 3041 13c0 1B68     		ldr	r3, [r3]
 3042 13c2 7E4A     		ldr	r2, .L501+4
 3043 13c4 D35C     		ldrb	r3, [r2, r3]	@ zero_extendqisi2
 3044 13c6 1A46     		mov	r2, r3
ARM GAS  C:\Users\Moi\AppData\Local\Temp\ccF5N8ze.s 			page 60


 3045 13c8 B020     		movs	r0, #176
 3046 13ca FFF7FEFF 		bl	e_i2cp_write
 3047              		.loc 1 625 0 discriminator 3
 3048 13ce 7A4B     		ldr	r3, .L501
 3049 13d0 1B68     		ldr	r3, [r3]
 3050 13d2 0133     		adds	r3, r3, #1
 3051 13d4 784A     		ldr	r2, .L501
 3052 13d6 1360     		str	r3, [r2]
 3053              	.L160:
 3054              		.loc 1 625 0 is_stmt 0 discriminator 1
 3055 13d8 774B     		ldr	r3, .L501
 3056 13da 1B68     		ldr	r3, [r3]
 3057 13dc 172B     		cmp	r3, #23
 3058 13de EBDD     		ble	.L161
 3059              		.loc 1 628 0 is_stmt 1
 3060 13e0 754B     		ldr	r3, .L501
 3061 13e2 9222     		movs	r2, #146
 3062 13e4 1A60     		str	r2, [r3]
 3063 13e6 10E0     		b	.L162
 3064              	.L163:
 3065              		.loc 1 629 0 discriminator 3
 3066 13e8 734B     		ldr	r3, .L501
 3067 13ea 1B68     		ldr	r3, [r3]
 3068 13ec D9B2     		uxtb	r1, r3
 3069 13ee 724B     		ldr	r3, .L501
 3070 13f0 1B68     		ldr	r3, [r3]
 3071 13f2 7A3B     		subs	r3, r3, #122
 3072 13f4 714A     		ldr	r2, .L501+4
 3073 13f6 D35C     		ldrb	r3, [r2, r3]	@ zero_extendqisi2
 3074 13f8 1A46     		mov	r2, r3
 3075 13fa B020     		movs	r0, #176
 3076 13fc FFF7FEFF 		bl	e_i2cp_write
 3077              		.loc 1 628 0 discriminator 3
 3078 1400 6D4B     		ldr	r3, .L501
 3079 1402 1B68     		ldr	r3, [r3]
 3080 1404 0133     		adds	r3, r3, #1
 3081 1406 6C4A     		ldr	r2, .L501
 3082 1408 1360     		str	r3, [r2]
 3083              	.L162:
 3084              		.loc 1 628 0 is_stmt 0 discriminator 1
 3085 140a 6B4B     		ldr	r3, .L501
 3086 140c 1B68     		ldr	r3, [r3]
 3087 140e 942B     		cmp	r3, #148
 3088 1410 EADD     		ble	.L163
 3089              		.loc 1 631 0 is_stmt 1
 3090 1412 694B     		ldr	r3, .L501
 3091 1414 A422     		movs	r2, #164
 3092 1416 1A60     		str	r2, [r3]
 3093 1418 10E0     		b	.L164
 3094              	.L165:
 3095              		.loc 1 632 0 discriminator 3
 3096 141a 674B     		ldr	r3, .L501
 3097 141c 1B68     		ldr	r3, [r3]
 3098 141e D9B2     		uxtb	r1, r3
 3099 1420 654B     		ldr	r3, .L501
 3100 1422 1B68     		ldr	r3, [r3]
 3101 1424 893B     		subs	r3, r3, #137
ARM GAS  C:\Users\Moi\AppData\Local\Temp\ccF5N8ze.s 			page 61


 3102 1426 654A     		ldr	r2, .L501+4
 3103 1428 D35C     		ldrb	r3, [r2, r3]	@ zero_extendqisi2
 3104 142a 1A46     		mov	r2, r3
 3105 142c B020     		movs	r0, #176
 3106 142e FFF7FEFF 		bl	e_i2cp_write
 3107              		.loc 1 631 0 discriminator 3
 3108 1432 614B     		ldr	r3, .L501
 3109 1434 1B68     		ldr	r3, [r3]
 3110 1436 0133     		adds	r3, r3, #1
 3111 1438 5F4A     		ldr	r2, .L501
 3112 143a 1360     		str	r3, [r2]
 3113              	.L164:
 3114              		.loc 1 631 0 is_stmt 0 discriminator 1
 3115 143c 5E4B     		ldr	r3, .L501
 3116 143e 1B68     		ldr	r3, [r3]
 3117 1440 AB2B     		cmp	r3, #171
 3118 1442 EADD     		ble	.L165
 3119              		.loc 1 634 0 is_stmt 1
 3120 1444 0122     		movs	r2, #1
 3121 1446 9121     		movs	r1, #145
 3122 1448 B020     		movs	r0, #176
 3123 144a FFF7FEFF 		bl	e_i2cp_write
 3124              		.loc 1 635 0
 3125 144e FFF7FEFF 		bl	e_i2cp_disable
 3126              		.loc 1 637 0
 3127 1452 07E0     		b	.L448
 3128              	.L444:
 3129              		.loc 1 639 0
 3130 1454 00BF     		nop
 3131 1456 06E0     		b	.L80
 3132              	.L445:
 3133              		.loc 1 468 0
 3134 1458 00BF     		nop
 3135 145a 04E0     		b	.L80
 3136              	.L446:
 3137              		.loc 1 515 0
 3138 145c 00BF     		nop
 3139 145e 02E0     		b	.L80
 3140              	.L447:
 3141              		.loc 1 612 0
 3142 1460 00BF     		nop
 3143 1462 00E0     		b	.L80
 3144              	.L448:
 3145              		.loc 1 637 0
 3146 1464 00BF     		nop
 3147              	.L80:
 3148              		.loc 1 641 0
 3149 1466 9DF82630 		ldrb	r3, [sp, #38]	@ zero_extendqisi2
 3150 146a 002B     		cmp	r3, #0
 3151 146c 11D1     		bne	.L166
 3152              		.loc 1 643 0
 3153 146e 0B9B     		ldr	r3, [sp, #44]
 3154 1470 002B     		cmp	r3, #0
 3155 1472 07D0     		beq	.L486
 3156              		.loc 1 644 0
 3157 1474 00BF     		nop
 3158              	.L168:
ARM GAS  C:\Users\Moi\AppData\Local\Temp\ccF5N8ze.s 			page 62


 3159              		.loc 1 644 0 is_stmt 0 discriminator 1
 3160 1476 5248     		ldr	r0, .L501+8
 3161 1478 FFF7FEFF 		bl	e_getchar_uart1
 3162 147c 0346     		mov	r3, r0
 3163 147e 002B     		cmp	r3, #0
 3164 1480 F9D0     		beq	.L168
 3165 1482 06E0     		b	.L166
 3166              	.L486:
 3167              		.loc 1 646 0 is_stmt 1
 3168 1484 00BF     		nop
 3169              	.L169:
 3170              		.loc 1 646 0 is_stmt 0 discriminator 1
 3171 1486 4E48     		ldr	r0, .L501+8
 3172 1488 FFF7FEFF 		bl	e_getchar_uart2
 3173 148c 0346     		mov	r3, r0
 3174 148e 002B     		cmp	r3, #0
 3175 1490 F9D0     		beq	.L169
 3176              	.L166:
 3177              		.loc 1 648 0 is_stmt 1
 3178 1492 4B4B     		ldr	r3, .L501+8
 3179 1494 1B78     		ldrb	r3, [r3]	@ zero_extendqisi2
 3180 1496 002B     		cmp	r3, #0
 3181 1498 7EF4EEAF 		bne	.L170
 3182              		.loc 1 649 0
 3183 149c 494B     		ldr	r3, .L501+12
 3184 149e 1B68     		ldr	r3, [r3]
 3185 14a0 002B     		cmp	r3, #0
 3186 14a2 3EF465AE 		beq	.L441
 3187              		.loc 1 650 0
 3188 14a6 9DF82630 		ldrb	r3, [sp, #38]	@ zero_extendqisi2
 3189 14aa 002B     		cmp	r3, #0
 3190 14ac 15D1     		bne	.L172
 3191              		.loc 1 651 0
 3192 14ae 464B     		ldr	r3, .L501+16
 3193 14b0 1B78     		ldrb	r3, [r3]	@ zero_extendqisi2
 3194 14b2 002B     		cmp	r3, #0
 3195 14b4 11D0     		beq	.L172
 3196              		.loc 1 652 0
 3197 14b6 444B     		ldr	r3, .L501+16
 3198 14b8 0022     		movs	r2, #0
 3199 14ba 1A70     		strb	r2, [r3]
 3200              		.loc 1 653 0
 3201 14bc FFF7FEFF 		bl	e_poxxxx_wait_img_ready
 3202              		.loc 1 654 0
 3203 14c0 BDF82A30 		ldrh	r3, [sp, #42]
 3204 14c4 3D4A     		ldr	r2, .L501+4
 3205 14c6 9C18     		adds	r4, r3, r2
 3206 14c8 FFF7FEFF 		bl	dcmi_get_last_image_ptr
 3207 14cc 0146     		mov	r1, r0
 3208 14ce 3F4B     		ldr	r3, .L501+20
 3209 14d0 1B68     		ldr	r3, [r3]
 3210 14d2 1A46     		mov	r2, r3
 3211 14d4 2046     		mov	r0, r4
 3212 14d6 FFF7FEFF 		bl	memcpy
 3213              	.L172:
 3214              		.loc 1 658 0
 3215 14da 9DF82630 		ldrb	r3, [sp, #38]	@ zero_extendqisi2
ARM GAS  C:\Users\Moi\AppData\Local\Temp\ccF5N8ze.s 			page 63


 3216 14de 002B     		cmp	r3, #0
 3217 14e0 7EF446AE 		bne	.L441
 3218              		.loc 1 660 0
 3219 14e4 0B9B     		ldr	r3, [sp, #44]
 3220 14e6 002B     		cmp	r3, #0
 3221 14e8 0DD0     		beq	.L173
 3222              		.loc 1 661 0
 3223 14ea 364B     		ldr	r3, .L501+12
 3224 14ec 1B68     		ldr	r3, [r3]
 3225 14ee 1946     		mov	r1, r3
 3226 14f0 3248     		ldr	r0, .L501+4
 3227 14f2 FFF7FEFF 		bl	e_send_uart1_char
 3228              		.loc 1 662 0
 3229 14f6 00BF     		nop
 3230              	.L174:
 3231              		.loc 1 662 0 is_stmt 0 discriminator 1
 3232 14f8 FFF7FEFF 		bl	e_uart1_sending
 3233 14fc 0346     		mov	r3, r0
 3234 14fe 002B     		cmp	r3, #0
 3235 1500 FAD1     		bne	.L174
 3236 1502 FEF735BE 		b	.L441
 3237              	.L173:
 3238              		.loc 1 664 0 is_stmt 1
 3239 1506 2F4B     		ldr	r3, .L501+12
 3240 1508 1B68     		ldr	r3, [r3]
 3241 150a 1946     		mov	r1, r3
 3242 150c 2B48     		ldr	r0, .L501+4
 3243 150e FFF7FEFF 		bl	e_send_uart2_char
 3244              		.loc 1 665 0
 3245 1512 00BF     		nop
 3246              	.L175:
 3247              		.loc 1 665 0 is_stmt 0 discriminator 1
 3248 1514 FFF7FEFF 		bl	e_uart2_sending
 3249 1518 0346     		mov	r3, r0
 3250 151a 002B     		cmp	r3, #0
 3251 151c FAD1     		bne	.L175
 3252 151e FEF727BE 		b	.L441
 3253              	.L48:
 3254              		.loc 1 669 0 is_stmt 1
 3255 1522 274B     		ldr	r3, .L501+8
 3256 1524 1B78     		ldrb	r3, [r3]	@ zero_extendqisi2
 3257 1526 002B     		cmp	r3, #0
 3258 1528 01F00D84 		beq	.L449
 3259              		.loc 1 670 0
 3260 152c 9DF82630 		ldrb	r3, [sp, #38]	@ zero_extendqisi2
 3261 1530 002B     		cmp	r3, #0
 3262 1532 1AD1     		bne	.L176
 3263              		.loc 1 672 0
 3264 1534 0B9B     		ldr	r3, [sp, #44]
 3265 1536 002B     		cmp	r3, #0
 3266 1538 0FD0     		beq	.L180
 3267              		.loc 1 673 0
 3268 153a 02E0     		b	.L178
 3269              	.L179:
 3270              		.loc 1 673 0 is_stmt 0 discriminator 4
 3271 153c 2048     		ldr	r0, .L501+8
 3272 153e FFF7FEFF 		bl	e_getchar_uart1
ARM GAS  C:\Users\Moi\AppData\Local\Temp\ccF5N8ze.s 			page 64


 3273              	.L178:
 3274              		.loc 1 673 0 discriminator 1
 3275 1542 1F4B     		ldr	r3, .L501+8
 3276 1544 1B78     		ldrb	r3, [r3]	@ zero_extendqisi2
 3277 1546 0A2B     		cmp	r3, #10
 3278 1548 F8D0     		beq	.L179
 3279              		.loc 1 673 0 discriminator 3
 3280 154a 1D4B     		ldr	r3, .L501+8
 3281 154c 1B78     		ldrb	r3, [r3]	@ zero_extendqisi2
 3282 154e 0D2B     		cmp	r3, #13
 3283 1550 F4D0     		beq	.L179
 3284 1552 0AE0     		b	.L176
 3285              	.L181:
 3286              		.loc 1 675 0 is_stmt 1 discriminator 4
 3287 1554 1A48     		ldr	r0, .L501+8
 3288 1556 FFF7FEFF 		bl	e_getchar_uart2
 3289              	.L180:
 3290              		.loc 1 675 0 is_stmt 0 discriminator 1
 3291 155a 194B     		ldr	r3, .L501+8
 3292 155c 1B78     		ldrb	r3, [r3]	@ zero_extendqisi2
 3293 155e 0A2B     		cmp	r3, #10
 3294 1560 F8D0     		beq	.L181
 3295              		.loc 1 675 0 discriminator 3
 3296 1562 174B     		ldr	r3, .L501+8
 3297 1564 1B78     		ldrb	r3, [r3]	@ zero_extendqisi2
 3298 1566 0D2B     		cmp	r3, #13
 3299 1568 F4D0     		beq	.L181
 3300              	.L176:
 3301              		.loc 1 677 0 is_stmt 1
 3302 156a 154B     		ldr	r3, .L501+8
 3303 156c 1A78     		ldrb	r2, [r3]	@ zero_extendqisi2
 3304 156e 134B     		ldr	r3, .L501+4
 3305 1570 1A70     		strb	r2, [r3]
 3306              		.loc 1 678 0
 3307 1572 144B     		ldr	r3, .L501+12
 3308 1574 0122     		movs	r2, #1
 3309 1576 1A60     		str	r2, [r3]
 3310              		.loc 1 679 0
 3311 1578 9DF82630 		ldrb	r3, [sp, #38]	@ zero_extendqisi2
 3312 157c 002B     		cmp	r3, #0
 3313 157e 3ED1     		bne	.L182
 3314              		.loc 1 681 0
 3315 1580 0B9B     		ldr	r3, [sp, #44]
 3316 1582 002B     		cmp	r3, #0
 3317 1584 24D0     		beq	.L183
 3318              	.L185:
 3319              		.loc 1 682 0
 3320 1586 0E48     		ldr	r0, .L501+8
 3321 1588 FFF7FEFF 		bl	e_getchar_uart1
 3322 158c 0346     		mov	r3, r0
 3323 158e 002B     		cmp	r3, #0
 3324 1590 08D0     		beq	.L184
 3325              		.loc 1 682 0 is_stmt 0 discriminator 1
 3326 1592 0C4B     		ldr	r3, .L501+12
 3327 1594 1B68     		ldr	r3, [r3]
 3328 1596 5A1C     		adds	r2, r3, #1
 3329 1598 0A49     		ldr	r1, .L501+12
ARM GAS  C:\Users\Moi\AppData\Local\Temp\ccF5N8ze.s 			page 65


 3330 159a 0A60     		str	r2, [r1]
 3331 159c 084A     		ldr	r2, .L501+8
 3332 159e 1178     		ldrb	r1, [r2]	@ zero_extendqisi2
 3333 15a0 064A     		ldr	r2, .L501+4
 3334 15a2 D154     		strb	r1, [r2, r3]
 3335              	.L184:
 3336              		.loc 1 683 0 is_stmt 1
 3337 15a4 064B     		ldr	r3, .L501+8
 3338 15a6 1B78     		ldrb	r3, [r3]	@ zero_extendqisi2
 3339 15a8 0A2B     		cmp	r3, #10
 3340 15aa 28D0     		beq	.L182
 3341              		.loc 1 683 0 is_stmt 0 discriminator 1
 3342 15ac 044B     		ldr	r3, .L501+8
 3343 15ae 1B78     		ldrb	r3, [r3]	@ zero_extendqisi2
 3344 15b0 0D2B     		cmp	r3, #13
 3345 15b2 E8D1     		bne	.L185
 3346 15b4 23E0     		b	.L182
 3347              	.L502:
 3348 15b6 00BF     		.align	2
 3349              	.L501:
 3350 15b8 00000000 		.word	j.13533
 3351 15bc 00000000 		.word	buffer
 3352 15c0 00000000 		.word	c
 3353 15c4 00000000 		.word	i.13532
 3354 15c8 00000000 		.word	wait_cam.13531
 3355 15cc 00000000 		.word	cam_size.13552
 3356              	.L183:
 3357              		.loc 1 685 0 is_stmt 1
 3358 15d0 CA48     		ldr	r0, .L503
 3359 15d2 FFF7FEFF 		bl	e_getchar_uart2
 3360 15d6 0346     		mov	r3, r0
 3361 15d8 002B     		cmp	r3, #0
 3362 15da 08D0     		beq	.L186
 3363              		.loc 1 685 0 is_stmt 0 discriminator 1
 3364 15dc C84B     		ldr	r3, .L503+4
 3365 15de 1B68     		ldr	r3, [r3]
 3366 15e0 5A1C     		adds	r2, r3, #1
 3367 15e2 C749     		ldr	r1, .L503+4
 3368 15e4 0A60     		str	r2, [r1]
 3369 15e6 C54A     		ldr	r2, .L503
 3370 15e8 1178     		ldrb	r1, [r2]	@ zero_extendqisi2
 3371 15ea C64A     		ldr	r2, .L503+8
 3372 15ec D154     		strb	r1, [r2, r3]
 3373              	.L186:
 3374              		.loc 1 686 0 is_stmt 1
 3375 15ee C34B     		ldr	r3, .L503
 3376 15f0 1B78     		ldrb	r3, [r3]	@ zero_extendqisi2
 3377 15f2 0A2B     		cmp	r3, #10
 3378 15f4 03D0     		beq	.L182
 3379              		.loc 1 686 0 is_stmt 0 discriminator 1
 3380 15f6 C14B     		ldr	r3, .L503
 3381 15f8 1B78     		ldrb	r3, [r3]	@ zero_extendqisi2
 3382 15fa 0D2B     		cmp	r3, #13
 3383 15fc E8D1     		bne	.L183
 3384              	.L182:
 3385              		.loc 1 688 0 is_stmt 1
 3386 15fe C04B     		ldr	r3, .L503+4
ARM GAS  C:\Users\Moi\AppData\Local\Temp\ccF5N8ze.s 			page 66


 3387 1600 1B68     		ldr	r3, [r3]
 3388 1602 5A1C     		adds	r2, r3, #1
 3389 1604 BE49     		ldr	r1, .L503+4
 3390 1606 0A60     		str	r2, [r1]
 3391 1608 BE4A     		ldr	r2, .L503+8
 3392 160a 0021     		movs	r1, #0
 3393 160c D154     		strb	r1, [r2, r3]
 3394              		.loc 1 690 0
 3395 160e BD4B     		ldr	r3, .L503+8
 3396 1610 1B78     		ldrb	r3, [r3]	@ zero_extendqisi2
 3397 1612 622B     		cmp	r3, #98
 3398 1614 1CD0     		beq	.L187
 3399              		.loc 1 690 0 is_stmt 0 discriminator 1
 3400 1616 BB4B     		ldr	r3, .L503+8
 3401 1618 1B78     		ldrb	r3, [r3]	@ zero_extendqisi2
 3402 161a 672B     		cmp	r3, #103
 3403 161c 18D0     		beq	.L187
 3404              	.LBB2:
 3405              		.loc 1 691 0 is_stmt 1
 3406 161e B94B     		ldr	r3, .L503+8
 3407 1620 1B78     		ldrb	r3, [r3]
 3408 1622 8DF82930 		strb	r3, [sp, #41]
 3409 1626 FFF7FEFF 		bl	__locale_ctype_ptr
 3410 162a 0246     		mov	r2, r0
 3411 162c 9DF82930 		ldrb	r3, [sp, #41]	@ zero_extendqisi2
 3412 1630 0133     		adds	r3, r3, #1
 3413 1632 1344     		add	r3, r3, r2
 3414 1634 1B78     		ldrb	r3, [r3]	@ zero_extendqisi2
 3415 1636 03F00303 		and	r3, r3, #3
 3416 163a 022B     		cmp	r3, #2
 3417 163c 03D1     		bne	.L188
 3418              		.loc 1 691 0 is_stmt 0 discriminator 1
 3419 163e 9DF82930 		ldrb	r3, [sp, #41]	@ zero_extendqisi2
 3420 1642 203B     		subs	r3, r3, #32
 3421 1644 01E0     		b	.L189
 3422              	.L188:
 3423              		.loc 1 691 0 discriminator 2
 3424 1646 9DF82930 		ldrb	r3, [sp, #41]	@ zero_extendqisi2
 3425              	.L189:
 3426              	.LBE2:
 3427              		.loc 1 691 0 discriminator 4
 3428 164a DAB2     		uxtb	r2, r3
 3429 164c AD4B     		ldr	r3, .L503+8
 3430 164e 1A70     		strb	r2, [r3]
 3431              	.L187:
 3432              		.loc 1 693 0 is_stmt 1
 3433 1650 AC4B     		ldr	r3, .L503+8
 3434 1652 1B78     		ldrb	r3, [r3]	@ zero_extendqisi2
 3435 1654 413B     		subs	r3, r3, #65
 3436 1656 332B     		cmp	r3, #51
 3437 1658 01F25883 		bhi	.L190
 3438 165c 01A2     		adr	r2, .L192
 3439 165e 52F823F0 		ldr	pc, [r2, r3, lsl #2]
 3440 1662 00BF     		.p2align 2
 3441              	.L192:
 3442 1664 35170000 		.word	.L191+1
 3443 1668 2F180000 		.word	.L193+1
ARM GAS  C:\Users\Moi\AppData\Local\Temp\ccF5N8ze.s 			page 67


 3444 166c 83180000 		.word	.L194+1
 3445 1670 51190000 		.word	.L195+1
 3446 1674 B1190000 		.word	.L196+1
 3447 1678 111A0000 		.word	.L197+1
 3448 167c 651A0000 		.word	.L198+1
 3449 1680 611B0000 		.word	.L199+1
 3450 1684 C5200000 		.word	.L200+1
 3451 1688 3B210000 		.word	.L201+1
 3452 168c 29230000 		.word	.L202+1
 3453 1690 E9230000 		.word	.L203+1
 3454 1694 47240000 		.word	.L204+1
 3455 1698 03260000 		.word	.L205+1
 3456 169c A9260000 		.word	.L206+1
 3457 16a0 4F270000 		.word	.L207+1
 3458 16a4 AB270000 		.word	.L208+1
 3459 16a8 4D2D0000 		.word	.L450+1
 3460 16ac 37280000 		.word	.L210+1
 3461 16b0 87280000 		.word	.L211+1
 3462 16b4 C7290000 		.word	.L212+1
 3463 16b8 392A0000 		.word	.L213+1
 3464 16bc CB2A0000 		.word	.L214+1
 3465 16c0 0D2D0000 		.word	.L190+1
 3466 16c4 7B2B0000 		.word	.L215+1
 3467 16c8 712C0000 		.word	.L216+1
 3468 16cc 0D2D0000 		.word	.L190+1
 3469 16d0 0D2D0000 		.word	.L190+1
 3470 16d4 0D2D0000 		.word	.L190+1
 3471 16d8 0D2D0000 		.word	.L190+1
 3472 16dc 0D2D0000 		.word	.L190+1
 3473 16e0 0D2D0000 		.word	.L190+1
 3474 16e4 0D2D0000 		.word	.L190+1
 3475 16e8 C9170000 		.word	.L217+1
 3476 16ec 0D2D0000 		.word	.L190+1
 3477 16f0 0D2D0000 		.word	.L190+1
 3478 16f4 0D2D0000 		.word	.L190+1
 3479 16f8 0D2D0000 		.word	.L190+1
 3480 16fc D91A0000 		.word	.L218+1
 3481 1700 0D2D0000 		.word	.L190+1
 3482 1704 0D2D0000 		.word	.L190+1
 3483 1708 0D2D0000 		.word	.L190+1
 3484 170c 0D2D0000 		.word	.L190+1
 3485 1710 0D2D0000 		.word	.L190+1
 3486 1714 0D2D0000 		.word	.L190+1
 3487 1718 0D2D0000 		.word	.L190+1
 3488 171c 0D2D0000 		.word	.L190+1
 3489 1720 0D2D0000 		.word	.L190+1
 3490 1724 0D2D0000 		.word	.L190+1
 3491 1728 0D2D0000 		.word	.L190+1
 3492 172c 0D2D0000 		.word	.L190+1
 3493 1730 55290000 		.word	.L219+1
 3494              		.p2align 1
 3495              	.L191:
 3496              	.LBB3:
 3497              		.loc 1 695 0
 3498 1734 9DF82630 		ldrb	r3, [sp, #38]	@ zero_extendqisi2
 3499 1738 002B     		cmp	r3, #0
 3500 173a 16D1     		bne	.L220
ARM GAS  C:\Users\Moi\AppData\Local\Temp\ccF5N8ze.s 			page 68


 3501              		.loc 1 696 0
 3502 173c 0121     		movs	r1, #1
 3503 173e 0020     		movs	r0, #0
 3504 1740 FFF7FEFF 		bl	e_get_acc_filtered
 3505 1744 0446     		mov	r4, r0
 3506 1746 0121     		movs	r1, #1
 3507 1748 0120     		movs	r0, #1
 3508 174a FFF7FEFF 		bl	e_get_acc_filtered
 3509 174e 0546     		mov	r5, r0
 3510 1750 0121     		movs	r1, #1
 3511 1752 0220     		movs	r0, #2
 3512 1754 FFF7FEFF 		bl	e_get_acc_filtered
 3513 1758 0346     		mov	r3, r0
 3514 175a 0093     		str	r3, [sp]
 3515 175c 2B46     		mov	r3, r5
 3516 175e 2246     		mov	r2, r4
 3517 1760 6949     		ldr	r1, .L503+12
 3518 1762 6848     		ldr	r0, .L503+8
 3519 1764 FFF7FEFF 		bl	sprintf
 3520 1768 06E0     		b	.L221
 3521              	.L220:
 3522              		.loc 1 698 0
 3523 176a 664A     		ldr	r2, .L503+8
 3524 176c 674B     		ldr	r3, .L503+16
 3525 176e 03CB     		ldmia	r3!, {r0, r1}
 3526 1770 1060     		str	r0, [r2]	@ unaligned
 3527 1772 5160     		str	r1, [r2, #4]	@ unaligned
 3528 1774 1B88     		ldrh	r3, [r3]	@ unaligned
 3529 1776 1381     		strh	r3, [r2, #8]	@ unaligned
 3530              	.L221:
 3531              		.loc 1 700 0
 3532 1778 9DF82630 		ldrb	r3, [sp, #38]	@ zero_extendqisi2
 3533 177c 002B     		cmp	r3, #0
 3534 177e 41F0E882 		bne	.L451
 3535              		.loc 1 702 0
 3536 1782 0B9B     		ldr	r3, [sp, #44]
 3537 1784 002B     		cmp	r3, #0
 3538 1786 0FD0     		beq	.L223
 3539              		.loc 1 703 0
 3540 1788 5E48     		ldr	r0, .L503+8
 3541 178a FFF7FEFF 		bl	strlen
 3542 178e 0346     		mov	r3, r0
 3543 1790 1946     		mov	r1, r3
 3544 1792 5C48     		ldr	r0, .L503+8
 3545 1794 FFF7FEFF 		bl	e_send_uart1_char
 3546 1798 00BF     		nop
 3547              	.L224:
 3548              		.loc 1 703 0 is_stmt 0 discriminator 2
 3549 179a FFF7FEFF 		bl	e_uart1_sending
 3550 179e 0346     		mov	r3, r0
 3551 17a0 002B     		cmp	r3, #0
 3552 17a2 FAD1     		bne	.L224
 3553              		.loc 1 707 0 is_stmt 1
 3554 17a4 01F0D5BA 		b	.L451
 3555              	.L223:
 3556              		.loc 1 705 0
 3557 17a8 5648     		ldr	r0, .L503+8
ARM GAS  C:\Users\Moi\AppData\Local\Temp\ccF5N8ze.s 			page 69


 3558 17aa FFF7FEFF 		bl	strlen
 3559 17ae 0346     		mov	r3, r0
 3560 17b0 1946     		mov	r1, r3
 3561 17b2 5448     		ldr	r0, .L503+8
 3562 17b4 FFF7FEFF 		bl	e_send_uart2_char
 3563 17b8 00BF     		nop
 3564              	.L225:
 3565              		.loc 1 705 0 is_stmt 0 discriminator 2
 3566 17ba FFF7FEFF 		bl	e_uart2_sending
 3567 17be 0346     		mov	r3, r0
 3568 17c0 002B     		cmp	r3, #0
 3569 17c2 FAD1     		bne	.L225
 3570              		.loc 1 707 0 is_stmt 1
 3571 17c4 01F0C5BA 		b	.L451
 3572              	.L217:
 3573              		.loc 1 709 0
 3574 17c8 FFF7FEFF 		bl	getBatteryValueRaw
 3575 17cc 0446     		mov	r4, r0
 3576 17ce FFF7FEFF 		bl	getBatteryValuePercentage
 3577 17d2 0346     		mov	r3, r0
 3578 17d4 2246     		mov	r2, r4
 3579 17d6 4E49     		ldr	r1, .L503+20
 3580 17d8 4A48     		ldr	r0, .L503+8
 3581 17da FFF7FEFF 		bl	sprintf
 3582              		.loc 1 710 0
 3583 17de 9DF82630 		ldrb	r3, [sp, #38]	@ zero_extendqisi2
 3584 17e2 002B     		cmp	r3, #0
 3585 17e4 41F0B882 		bne	.L452
 3586              		.loc 1 712 0
 3587 17e8 0B9B     		ldr	r3, [sp, #44]
 3588 17ea 002B     		cmp	r3, #0
 3589 17ec 0FD0     		beq	.L227
 3590              		.loc 1 713 0
 3591 17ee 4548     		ldr	r0, .L503+8
 3592 17f0 FFF7FEFF 		bl	strlen
 3593 17f4 0346     		mov	r3, r0
 3594 17f6 1946     		mov	r1, r3
 3595 17f8 4248     		ldr	r0, .L503+8
 3596 17fa FFF7FEFF 		bl	e_send_uart1_char
 3597 17fe 00BF     		nop
 3598              	.L228:
 3599              		.loc 1 713 0 is_stmt 0 discriminator 2
 3600 1800 FFF7FEFF 		bl	e_uart1_sending
 3601 1804 0346     		mov	r3, r0
 3602 1806 002B     		cmp	r3, #0
 3603 1808 FAD1     		bne	.L228
 3604              		.loc 1 717 0 is_stmt 1
 3605 180a 01F0A5BA 		b	.L452
 3606              	.L227:
 3607              		.loc 1 715 0
 3608 180e 3D48     		ldr	r0, .L503+8
 3609 1810 FFF7FEFF 		bl	strlen
 3610 1814 0346     		mov	r3, r0
 3611 1816 1946     		mov	r1, r3
 3612 1818 3A48     		ldr	r0, .L503+8
 3613 181a FFF7FEFF 		bl	e_send_uart2_char
 3614 181e 00BF     		nop
ARM GAS  C:\Users\Moi\AppData\Local\Temp\ccF5N8ze.s 			page 70


 3615              	.L229:
 3616              		.loc 1 715 0 is_stmt 0 discriminator 2
 3617 1820 FFF7FEFF 		bl	e_uart2_sending
 3618 1824 0346     		mov	r3, r0
 3619 1826 002B     		cmp	r3, #0
 3620 1828 FAD1     		bne	.L229
 3621              		.loc 1 717 0 is_stmt 1
 3622 182a 01F095BA 		b	.L452
 3623              	.L193:
 3624              		.loc 1 719 0
 3625 182e 394A     		ldr	r2, .L503+24
 3626 1830 3949     		ldr	r1, .L503+28
 3627 1832 3448     		ldr	r0, .L503+8
 3628 1834 FFF7FEFF 		bl	sscanf
 3629              		.loc 1 720 0
 3630 1838 364B     		ldr	r3, .L503+24
 3631 183a 1B68     		ldr	r3, [r3]
 3632 183c 1846     		mov	r0, r3
 3633 183e FFF7FEFF 		bl	e_set_body_led
 3634              		.loc 1 721 0
 3635 1842 9DF82630 		ldrb	r3, [sp, #38]	@ zero_extendqisi2
 3636 1846 002B     		cmp	r3, #0
 3637 1848 41F08982 		bne	.L453
 3638              		.loc 1 723 0
 3639 184c 0B9B     		ldr	r3, [sp, #44]
 3640 184e 002B     		cmp	r3, #0
 3641 1850 0BD0     		beq	.L231
 3642              		.loc 1 724 0
 3643 1852 0321     		movs	r1, #3
 3644 1854 3148     		ldr	r0, .L503+32
 3645 1856 FFF7FEFF 		bl	e_send_uart1_char
 3646 185a 00BF     		nop
 3647              	.L232:
 3648              		.loc 1 724 0 is_stmt 0 discriminator 2
 3649 185c FFF7FEFF 		bl	e_uart1_sending
 3650 1860 0346     		mov	r3, r0
 3651 1862 002B     		cmp	r3, #0
 3652 1864 FAD1     		bne	.L232
 3653              		.loc 1 728 0 is_stmt 1
 3654 1866 01F07ABA 		b	.L453
 3655              	.L231:
 3656              		.loc 1 726 0
 3657 186a 0321     		movs	r1, #3
 3658 186c 2B48     		ldr	r0, .L503+32
 3659 186e FFF7FEFF 		bl	e_send_uart2_char
 3660 1872 00BF     		nop
 3661              	.L233:
 3662              		.loc 1 726 0 is_stmt 0 discriminator 2
 3663 1874 FFF7FEFF 		bl	e_uart2_sending
 3664 1878 0346     		mov	r3, r0
 3665 187a 002B     		cmp	r3, #0
 3666 187c FAD1     		bne	.L233
 3667              		.loc 1 728 0 is_stmt 1
 3668 187e 01F06EBA 		b	.L453
 3669              	.L194:
 3670              		.loc 1 730 0
 3671 1882 274B     		ldr	r3, .L503+36
ARM GAS  C:\Users\Moi\AppData\Local\Temp\ccF5N8ze.s 			page 71


 3672 1884 1B69     		ldr	r3, [r3, #16]
 3673 1886 5B0B     		lsrs	r3, r3, #13
 3674 1888 03F00102 		and	r2, r3, #1
 3675 188c 244B     		ldr	r3, .L503+36
 3676 188e 1B69     		ldr	r3, [r3, #16]
 3677 1890 DB0B     		lsrs	r3, r3, #15
 3678 1892 03F00101 		and	r1, r3, #1
 3679 1896 234B     		ldr	r3, .L503+40
 3680 1898 1B69     		ldr	r3, [r3, #16]
 3681 189a 1B09     		lsrs	r3, r3, #4
 3682 189c 03F00103 		and	r3, r3, #1
 3683 18a0 5B00     		lsls	r3, r3, #1
 3684 18a2 0B44     		add	r3, r3, r1
 3685 18a4 5900     		lsls	r1, r3, #1
 3686 18a6 1E4B     		ldr	r3, .L503+36
 3687 18a8 1B69     		ldr	r3, [r3, #16]
 3688 18aa 9B0B     		lsrs	r3, r3, #14
 3689 18ac 03F00103 		and	r3, r3, #1
 3690 18b0 0B44     		add	r3, r3, r1
 3691 18b2 5B00     		lsls	r3, r3, #1
 3692 18b4 1344     		add	r3, r3, r2
 3693 18b6 1A46     		mov	r2, r3
 3694 18b8 1B4B     		ldr	r3, .L503+44
 3695 18ba 1A60     		str	r2, [r3]
 3696              		.loc 1 731 0
 3697 18bc 1A4B     		ldr	r3, .L503+44
 3698 18be 1B68     		ldr	r3, [r3]
 3699 18c0 1A46     		mov	r2, r3
 3700 18c2 1A49     		ldr	r1, .L503+48
 3701 18c4 0F48     		ldr	r0, .L503+8
 3702 18c6 FFF7FEFF 		bl	sprintf
 3703              		.loc 1 732 0
 3704 18ca 9DF82630 		ldrb	r3, [sp, #38]	@ zero_extendqisi2
 3705 18ce 002B     		cmp	r3, #0
 3706 18d0 41F04882 		bne	.L454
 3707              		.loc 1 734 0
 3708 18d4 0B9B     		ldr	r3, [sp, #44]
 3709 18d6 002B     		cmp	r3, #0
 3710 18d8 2AD0     		beq	.L235
 3711              		.loc 1 735 0
 3712 18da 0A48     		ldr	r0, .L503+8
 3713 18dc FFF7FEFF 		bl	strlen
 3714 18e0 0346     		mov	r3, r0
 3715 18e2 1946     		mov	r1, r3
 3716 18e4 0748     		ldr	r0, .L503+8
 3717 18e6 FFF7FEFF 		bl	e_send_uart1_char
 3718 18ea 00BF     		nop
 3719              	.L236:
 3720              		.loc 1 735 0 is_stmt 0 discriminator 2
 3721 18ec FFF7FEFF 		bl	e_uart1_sending
 3722 18f0 0346     		mov	r3, r0
 3723 18f2 002B     		cmp	r3, #0
 3724 18f4 FAD1     		bne	.L236
 3725              		.loc 1 739 0 is_stmt 1
 3726 18f6 01F035BA 		b	.L454
 3727              	.L504:
 3728 18fa 00BF     		.align	2
ARM GAS  C:\Users\Moi\AppData\Local\Temp\ccF5N8ze.s 			page 72


 3729              	.L503:
 3730 18fc 00000000 		.word	c
 3731 1900 00000000 		.word	i.13532
 3732 1904 00000000 		.word	buffer
 3733 1908 5C000000 		.word	.LC1
 3734 190c 6C000000 		.word	.LC2
 3735 1910 78000000 		.word	.LC3
 3736 1914 00000000 		.word	LED_action.13540
 3737 1918 88000000 		.word	.LC4
 3738 191c 90000000 		.word	.LC5
 3739 1920 00080240 		.word	1073874944
 3740 1924 000C0240 		.word	1073875968
 3741 1928 00000000 		.word	selector
 3742 192c 94000000 		.word	.LC6
 3743              	.L235:
 3744              		.loc 1 737 0
 3745 1930 A748     		ldr	r0, .L505
 3746 1932 FFF7FEFF 		bl	strlen
 3747 1936 0346     		mov	r3, r0
 3748 1938 1946     		mov	r1, r3
 3749 193a A548     		ldr	r0, .L505
 3750 193c FFF7FEFF 		bl	e_send_uart2_char
 3751 1940 00BF     		nop
 3752              	.L237:
 3753              		.loc 1 737 0 is_stmt 0 discriminator 2
 3754 1942 FFF7FEFF 		bl	e_uart2_sending
 3755 1946 0346     		mov	r3, r0
 3756 1948 002B     		cmp	r3, #0
 3757 194a FAD1     		bne	.L237
 3758              		.loc 1 739 0 is_stmt 1
 3759 194c 01F00ABA 		b	.L454
 3760              	.L195:
 3761              		.loc 1 741 0
 3762 1950 A04B     		ldr	r3, .L505+4
 3763 1952 A14A     		ldr	r2, .L505+8
 3764 1954 A149     		ldr	r1, .L505+12
 3765 1956 9E48     		ldr	r0, .L505
 3766 1958 FFF7FEFF 		bl	sscanf
 3767              		.loc 1 742 0
 3768 195c 9E4B     		ldr	r3, .L505+8
 3769 195e 1B68     		ldr	r3, [r3]
 3770 1960 1846     		mov	r0, r3
 3771 1962 FFF7FEFF 		bl	e_set_speed_left
 3772              		.loc 1 743 0
 3773 1966 9B4B     		ldr	r3, .L505+4
 3774 1968 1B68     		ldr	r3, [r3]
 3775 196a 1846     		mov	r0, r3
 3776 196c FFF7FEFF 		bl	e_set_speed_right
 3777              		.loc 1 744 0
 3778 1970 9DF82630 		ldrb	r3, [sp, #38]	@ zero_extendqisi2
 3779 1974 002B     		cmp	r3, #0
 3780 1976 41F0F881 		bne	.L455
 3781              		.loc 1 746 0
 3782 197a 0B9B     		ldr	r3, [sp, #44]
 3783 197c 002B     		cmp	r3, #0
 3784 197e 0BD0     		beq	.L239
 3785              		.loc 1 747 0
ARM GAS  C:\Users\Moi\AppData\Local\Temp\ccF5N8ze.s 			page 73


 3786 1980 0321     		movs	r1, #3
 3787 1982 9748     		ldr	r0, .L505+16
 3788 1984 FFF7FEFF 		bl	e_send_uart1_char
 3789 1988 00BF     		nop
 3790              	.L240:
 3791              		.loc 1 747 0 is_stmt 0 discriminator 2
 3792 198a FFF7FEFF 		bl	e_uart1_sending
 3793 198e 0346     		mov	r3, r0
 3794 1990 002B     		cmp	r3, #0
 3795 1992 FAD1     		bne	.L240
 3796              		.loc 1 751 0 is_stmt 1
 3797 1994 01F0E9B9 		b	.L455
 3798              	.L239:
 3799              		.loc 1 749 0
 3800 1998 0321     		movs	r1, #3
 3801 199a 9148     		ldr	r0, .L505+16
 3802 199c FFF7FEFF 		bl	e_send_uart2_char
 3803 19a0 00BF     		nop
 3804              	.L241:
 3805              		.loc 1 749 0 is_stmt 0 discriminator 2
 3806 19a2 FFF7FEFF 		bl	e_uart2_sending
 3807 19a6 0346     		mov	r3, r0
 3808 19a8 002B     		cmp	r3, #0
 3809 19aa FAD1     		bne	.L241
 3810              		.loc 1 751 0 is_stmt 1
 3811 19ac 01F0DDB9 		b	.L455
 3812              	.L196:
 3813              		.loc 1 753 0
 3814 19b0 894B     		ldr	r3, .L505+8
 3815 19b2 1A68     		ldr	r2, [r3]
 3816 19b4 874B     		ldr	r3, .L505+4
 3817 19b6 1B68     		ldr	r3, [r3]
 3818 19b8 8A49     		ldr	r1, .L505+20
 3819 19ba 8548     		ldr	r0, .L505
 3820 19bc FFF7FEFF 		bl	sprintf
 3821              		.loc 1 754 0
 3822 19c0 9DF82630 		ldrb	r3, [sp, #38]	@ zero_extendqisi2
 3823 19c4 002B     		cmp	r3, #0
 3824 19c6 41F0D381 		bne	.L456
 3825              		.loc 1 756 0
 3826 19ca 0B9B     		ldr	r3, [sp, #44]
 3827 19cc 002B     		cmp	r3, #0
 3828 19ce 0FD0     		beq	.L243
 3829              		.loc 1 757 0
 3830 19d0 7F48     		ldr	r0, .L505
 3831 19d2 FFF7FEFF 		bl	strlen
 3832 19d6 0346     		mov	r3, r0
 3833 19d8 1946     		mov	r1, r3
 3834 19da 7D48     		ldr	r0, .L505
 3835 19dc FFF7FEFF 		bl	e_send_uart1_char
 3836 19e0 00BF     		nop
 3837              	.L244:
 3838              		.loc 1 757 0 is_stmt 0 discriminator 2
 3839 19e2 FFF7FEFF 		bl	e_uart1_sending
 3840 19e6 0346     		mov	r3, r0
 3841 19e8 002B     		cmp	r3, #0
 3842 19ea FAD1     		bne	.L244
ARM GAS  C:\Users\Moi\AppData\Local\Temp\ccF5N8ze.s 			page 74


 3843              		.loc 1 761 0 is_stmt 1
 3844 19ec 01F0C0B9 		b	.L456
 3845              	.L243:
 3846              		.loc 1 759 0
 3847 19f0 7748     		ldr	r0, .L505
 3848 19f2 FFF7FEFF 		bl	strlen
 3849 19f6 0346     		mov	r3, r0
 3850 19f8 1946     		mov	r1, r3
 3851 19fa 7548     		ldr	r0, .L505
 3852 19fc FFF7FEFF 		bl	e_send_uart2_char
 3853 1a00 00BF     		nop
 3854              	.L245:
 3855              		.loc 1 759 0 is_stmt 0 discriminator 2
 3856 1a02 FFF7FEFF 		bl	e_uart2_sending
 3857 1a06 0346     		mov	r3, r0
 3858 1a08 002B     		cmp	r3, #0
 3859 1a0a FAD1     		bne	.L245
 3860              		.loc 1 761 0 is_stmt 1
 3861 1a0c 01F0B0B9 		b	.L456
 3862              	.L197:
 3863              		.loc 1 763 0
 3864 1a10 754A     		ldr	r2, .L505+24
 3865 1a12 7649     		ldr	r1, .L505+28
 3866 1a14 6E48     		ldr	r0, .L505
 3867 1a16 FFF7FEFF 		bl	sscanf
 3868              		.loc 1 764 0
 3869 1a1a 734B     		ldr	r3, .L505+24
 3870 1a1c 1B68     		ldr	r3, [r3]
 3871 1a1e 1846     		mov	r0, r3
 3872 1a20 FFF7FEFF 		bl	e_set_front_led
 3873              		.loc 1 765 0
 3874 1a24 9DF82630 		ldrb	r3, [sp, #38]	@ zero_extendqisi2
 3875 1a28 002B     		cmp	r3, #0
 3876 1a2a 41F0A481 		bne	.L457
 3877              		.loc 1 767 0
 3878 1a2e 0B9B     		ldr	r3, [sp, #44]
 3879 1a30 002B     		cmp	r3, #0
 3880 1a32 0BD0     		beq	.L247
 3881              		.loc 1 768 0
 3882 1a34 0321     		movs	r1, #3
 3883 1a36 6E48     		ldr	r0, .L505+32
 3884 1a38 FFF7FEFF 		bl	e_send_uart1_char
 3885 1a3c 00BF     		nop
 3886              	.L248:
 3887              		.loc 1 768 0 is_stmt 0 discriminator 2
 3888 1a3e FFF7FEFF 		bl	e_uart1_sending
 3889 1a42 0346     		mov	r3, r0
 3890 1a44 002B     		cmp	r3, #0
 3891 1a46 FAD1     		bne	.L248
 3892              		.loc 1 772 0 is_stmt 1
 3893 1a48 01F095B9 		b	.L457
 3894              	.L247:
 3895              		.loc 1 770 0
 3896 1a4c 0321     		movs	r1, #3
 3897 1a4e 6848     		ldr	r0, .L505+32
 3898 1a50 FFF7FEFF 		bl	e_send_uart2_char
 3899 1a54 00BF     		nop
ARM GAS  C:\Users\Moi\AppData\Local\Temp\ccF5N8ze.s 			page 75


 3900              	.L249:
 3901              		.loc 1 770 0 is_stmt 0 discriminator 2
 3902 1a56 FFF7FEFF 		bl	e_uart2_sending
 3903 1a5a 0346     		mov	r3, r0
 3904 1a5c 002B     		cmp	r3, #0
 3905 1a5e FAD1     		bne	.L249
 3906              		.loc 1 772 0 is_stmt 1
 3907 1a60 01F089B9 		b	.L457
 3908              	.L198:
 3909              		.loc 1 775 0
 3910 1a64 FFF7FEFF 		bl	e_get_check
 3911 1a68 0346     		mov	r3, r0
 3912 1a6a 1C46     		mov	r4, r3
 3913 1a6c FFF7FEFF 		bl	e_get_address
 3914 1a70 0346     		mov	r3, r0
 3915 1a72 1D46     		mov	r5, r3
 3916 1a74 FFF7FEFF 		bl	e_get_data
 3917 1a78 0346     		mov	r3, r0
 3918 1a7a 0093     		str	r3, [sp]
 3919 1a7c 2B46     		mov	r3, r5
 3920 1a7e 2246     		mov	r2, r4
 3921 1a80 5C49     		ldr	r1, .L505+36
 3922 1a82 5348     		ldr	r0, .L505
 3923 1a84 FFF7FEFF 		bl	sprintf
 3924              		.loc 1 776 0
 3925 1a88 9DF82630 		ldrb	r3, [sp, #38]	@ zero_extendqisi2
 3926 1a8c 002B     		cmp	r3, #0
 3927 1a8e 41F07581 		bne	.L458
 3928              		.loc 1 778 0
 3929 1a92 0B9B     		ldr	r3, [sp, #44]
 3930 1a94 002B     		cmp	r3, #0
 3931 1a96 0FD0     		beq	.L251
 3932              		.loc 1 779 0
 3933 1a98 4D48     		ldr	r0, .L505
 3934 1a9a FFF7FEFF 		bl	strlen
 3935 1a9e 0346     		mov	r3, r0
 3936 1aa0 1946     		mov	r1, r3
 3937 1aa2 4B48     		ldr	r0, .L505
 3938 1aa4 FFF7FEFF 		bl	e_send_uart1_char
 3939 1aa8 00BF     		nop
 3940              	.L252:
 3941              		.loc 1 779 0 is_stmt 0 discriminator 2
 3942 1aaa FFF7FEFF 		bl	e_uart1_sending
 3943 1aae 0346     		mov	r3, r0
 3944 1ab0 002B     		cmp	r3, #0
 3945 1ab2 FAD1     		bne	.L252
 3946              		.loc 1 783 0 is_stmt 1
 3947 1ab4 01F062B9 		b	.L458
 3948              	.L251:
 3949              		.loc 1 781 0
 3950 1ab8 4548     		ldr	r0, .L505
 3951 1aba FFF7FEFF 		bl	strlen
 3952 1abe 0346     		mov	r3, r0
 3953 1ac0 1946     		mov	r1, r3
 3954 1ac2 4348     		ldr	r0, .L505
 3955 1ac4 FFF7FEFF 		bl	e_send_uart2_char
 3956 1ac8 00BF     		nop
ARM GAS  C:\Users\Moi\AppData\Local\Temp\ccF5N8ze.s 			page 76


 3957              	.L253:
 3958              		.loc 1 781 0 is_stmt 0 discriminator 2
 3959 1aca FFF7FEFF 		bl	e_uart2_sending
 3960 1ace 0346     		mov	r3, r0
 3961 1ad0 002B     		cmp	r3, #0
 3962 1ad2 FAD1     		bne	.L253
 3963              		.loc 1 783 0 is_stmt 1
 3964 1ad4 01F052B9 		b	.L458
 3965              	.L218:
 3966              		.loc 1 786 0
 3967 1ad8 9DF82630 		ldrb	r3, [sp, #38]	@ zero_extendqisi2
 3968 1adc 002B     		cmp	r3, #0
 3969 1ade 10D1     		bne	.L254
 3970              		.loc 1 787 0
 3971 1ae0 FFF7FEFF 		bl	getXAxisGyro
 3972 1ae4 0446     		mov	r4, r0
 3973 1ae6 FFF7FEFF 		bl	getYAxisGyro
 3974 1aea 0546     		mov	r5, r0
 3975 1aec FFF7FEFF 		bl	getZAxisGyro
 3976 1af0 0346     		mov	r3, r0
 3977 1af2 0093     		str	r3, [sp]
 3978 1af4 2B46     		mov	r3, r5
 3979 1af6 2246     		mov	r2, r4
 3980 1af8 3F49     		ldr	r1, .L505+40
 3981 1afa 3548     		ldr	r0, .L505
 3982 1afc FFF7FEFF 		bl	sprintf
 3983 1b00 06E0     		b	.L255
 3984              	.L254:
 3985              		.loc 1 789 0
 3986 1b02 334A     		ldr	r2, .L505
 3987 1b04 3D4B     		ldr	r3, .L505+44
 3988 1b06 03CB     		ldmia	r3!, {r0, r1}
 3989 1b08 1060     		str	r0, [r2]	@ unaligned
 3990 1b0a 5160     		str	r1, [r2, #4]	@ unaligned
 3991 1b0c 1B88     		ldrh	r3, [r3]	@ unaligned
 3992 1b0e 1381     		strh	r3, [r2, #8]	@ unaligned
 3993              	.L255:
 3994              		.loc 1 791 0
 3995 1b10 9DF82630 		ldrb	r3, [sp, #38]	@ zero_extendqisi2
 3996 1b14 002B     		cmp	r3, #0
 3997 1b16 41F03481 		bne	.L459
 3998              		.loc 1 793 0
 3999 1b1a 0B9B     		ldr	r3, [sp, #44]
 4000 1b1c 002B     		cmp	r3, #0
 4001 1b1e 0FD0     		beq	.L257
 4002              		.loc 1 794 0
 4003 1b20 2B48     		ldr	r0, .L505
 4004 1b22 FFF7FEFF 		bl	strlen
 4005 1b26 0346     		mov	r3, r0
 4006 1b28 1946     		mov	r1, r3
 4007 1b2a 2948     		ldr	r0, .L505
 4008 1b2c FFF7FEFF 		bl	e_send_uart1_char
 4009 1b30 00BF     		nop
 4010              	.L258:
 4011              		.loc 1 794 0 is_stmt 0 discriminator 2
 4012 1b32 FFF7FEFF 		bl	e_uart1_sending
 4013 1b36 0346     		mov	r3, r0
ARM GAS  C:\Users\Moi\AppData\Local\Temp\ccF5N8ze.s 			page 77


 4014 1b38 002B     		cmp	r3, #0
 4015 1b3a FAD1     		bne	.L258
 4016              		.loc 1 798 0 is_stmt 1
 4017 1b3c 01F021B9 		b	.L459
 4018              	.L257:
 4019              		.loc 1 796 0
 4020 1b40 2348     		ldr	r0, .L505
 4021 1b42 FFF7FEFF 		bl	strlen
 4022 1b46 0346     		mov	r3, r0
 4023 1b48 1946     		mov	r1, r3
 4024 1b4a 2148     		ldr	r0, .L505
 4025 1b4c FFF7FEFF 		bl	e_send_uart2_char
 4026 1b50 00BF     		nop
 4027              	.L259:
 4028              		.loc 1 796 0 is_stmt 0 discriminator 2
 4029 1b52 FFF7FEFF 		bl	e_uart2_sending
 4030 1b56 0346     		mov	r3, r0
 4031 1b58 002B     		cmp	r3, #0
 4032 1b5a FAD1     		bne	.L259
 4033              		.loc 1 798 0 is_stmt 1
 4034 1b5c 01F011B9 		b	.L459
 4035              	.L199:
 4036              		.loc 1 801 0
 4037 1b60 9DF82630 		ldrb	r3, [sp, #38]	@ zero_extendqisi2
 4038 1b64 002B     		cmp	r3, #0
 4039 1b66 41F00F81 		bne	.L460
 4040              		.loc 1 839 0
 4041 1b6a 0B9B     		ldr	r3, [sp, #44]
 4042 1b6c 002B     		cmp	r3, #0
 4043 1b6e 00F05581 		beq	.L261
 4044              		.loc 1 840 0
 4045 1b72 0121     		movs	r1, #1
 4046 1b74 2248     		ldr	r0, .L505+48
 4047 1b76 FFF7FEFF 		bl	e_send_uart1_char
 4048 1b7a 00BF     		nop
 4049              	.L262:
 4050              		.loc 1 840 0 is_stmt 0 discriminator 2
 4051 1b7c FFF7FEFF 		bl	e_uart1_sending
 4052 1b80 0346     		mov	r3, r0
 4053 1b82 002B     		cmp	r3, #0
 4054 1b84 FAD1     		bne	.L262
 4055              		.loc 1 841 0 is_stmt 1
 4056 1b86 2121     		movs	r1, #33
 4057 1b88 1E48     		ldr	r0, .L505+52
 4058 1b8a FFF7FEFF 		bl	e_send_uart1_char
 4059 1b8e 00BF     		nop
 4060              	.L263:
 4061              		.loc 1 841 0 is_stmt 0 discriminator 2
 4062 1b90 FFF7FEFF 		bl	e_uart1_sending
 4063 1b94 0346     		mov	r3, r0
 4064 1b96 002B     		cmp	r3, #0
 4065 1b98 FAD1     		bne	.L263
 4066              		.loc 1 842 0 is_stmt 1
 4067 1b9a 3121     		movs	r1, #49
 4068 1b9c 1A48     		ldr	r0, .L505+56
 4069 1b9e FFF7FEFF 		bl	e_send_uart1_char
 4070 1ba2 00BF     		nop
ARM GAS  C:\Users\Moi\AppData\Local\Temp\ccF5N8ze.s 			page 78


 4071              	.L264:
 4072              		.loc 1 842 0 is_stmt 0 discriminator 2
 4073 1ba4 FFF7FEFF 		bl	e_uart1_sending
 4074 1ba8 0346     		mov	r3, r0
 4075 1baa 002B     		cmp	r3, #0
 4076 1bac FAD1     		bne	.L264
 4077              		.loc 1 843 0 is_stmt 1
 4078 1bae FFF7FEFF 		bl	isEpuckVersion1_3
 4079 1bb2 0346     		mov	r3, r0
 4080 1bb4 002B     		cmp	r3, #0
 4081 1bb6 2BD0     		beq	.L265
 4082              		.loc 1 844 0
 4083 1bb8 2121     		movs	r1, #33
 4084 1bba 1448     		ldr	r0, .L505+60
 4085 1bbc FFF7FEFF 		bl	e_send_uart1_char
 4086 1bc0 00BF     		nop
 4087              	.L266:
 4088              		.loc 1 844 0 is_stmt 0 discriminator 2
 4089 1bc2 FFF7FEFF 		bl	e_uart1_sending
 4090 1bc6 0346     		mov	r3, r0
 4091 1bc8 002B     		cmp	r3, #0
 4092 1bca FAD1     		bne	.L266
 4093 1bcc 2AE0     		b	.L267
 4094              	.L506:
 4095 1bce 00BF     		.align	2
 4096              	.L505:
 4097 1bd0 00000000 		.word	buffer
 4098 1bd4 00000000 		.word	speedr.13535
 4099 1bd8 00000000 		.word	speedl.13536
 4100 1bdc 9C000000 		.word	.LC7
 4101 1be0 A8000000 		.word	.LC8
 4102 1be4 AC000000 		.word	.LC9
 4103 1be8 00000000 		.word	LED_action.13540
 4104 1bec B8000000 		.word	.LC10
 4105 1bf0 C0000000 		.word	.LC11
 4106 1bf4 C4000000 		.word	.LC12
 4107 1bf8 F8000000 		.word	.LC13
 4108 1bfc 08010000 		.word	.LC14
 4109 1c00 14010000 		.word	.LC15
 4110 1c04 18010000 		.word	.LC16
 4111 1c08 3C010000 		.word	.LC17
 4112 1c0c 70010000 		.word	.LC18
 4113              	.L265:
 4114              		.loc 1 846 0 is_stmt 1
 4115 1c10 2F21     		movs	r1, #47
 4116 1c12 9748     		ldr	r0, .L507
 4117 1c14 FFF7FEFF 		bl	e_send_uart1_char
 4118 1c18 00BF     		nop
 4119              	.L268:
 4120              		.loc 1 846 0 is_stmt 0 discriminator 2
 4121 1c1a FFF7FEFF 		bl	e_uart1_sending
 4122 1c1e 0346     		mov	r3, r0
 4123 1c20 002B     		cmp	r3, #0
 4124 1c22 FAD1     		bne	.L268
 4125              	.L267:
 4126              		.loc 1 848 0 is_stmt 1
 4127 1c24 2521     		movs	r1, #37
ARM GAS  C:\Users\Moi\AppData\Local\Temp\ccF5N8ze.s 			page 79


 4128 1c26 9348     		ldr	r0, .L507+4
 4129 1c28 FFF7FEFF 		bl	e_send_uart1_char
 4130 1c2c 00BF     		nop
 4131              	.L269:
 4132              		.loc 1 848 0 is_stmt 0 discriminator 2
 4133 1c2e FFF7FEFF 		bl	e_uart1_sending
 4134 1c32 0346     		mov	r3, r0
 4135 1c34 002B     		cmp	r3, #0
 4136 1c36 FAD1     		bne	.L269
 4137              		.loc 1 849 0 is_stmt 1
 4138 1c38 2E21     		movs	r1, #46
 4139 1c3a 8F48     		ldr	r0, .L507+8
 4140 1c3c FFF7FEFF 		bl	e_send_uart1_char
 4141 1c40 00BF     		nop
 4142              	.L270:
 4143              		.loc 1 849 0 is_stmt 0 discriminator 2
 4144 1c42 FFF7FEFF 		bl	e_uart1_sending
 4145 1c46 0346     		mov	r3, r0
 4146 1c48 002B     		cmp	r3, #0
 4147 1c4a FAD1     		bne	.L270
 4148              		.loc 1 850 0 is_stmt 1
 4149 1c4c 2E21     		movs	r1, #46
 4150 1c4e 8B48     		ldr	r0, .L507+12
 4151 1c50 FFF7FEFF 		bl	e_send_uart1_char
 4152 1c54 00BF     		nop
 4153              	.L271:
 4154              		.loc 1 850 0 is_stmt 0 discriminator 2
 4155 1c56 FFF7FEFF 		bl	e_uart1_sending
 4156 1c5a 0346     		mov	r3, r0
 4157 1c5c 002B     		cmp	r3, #0
 4158 1c5e FAD1     		bne	.L271
 4159              		.loc 1 851 0 is_stmt 1
 4160 1c60 3221     		movs	r1, #50
 4161 1c62 8748     		ldr	r0, .L507+16
 4162 1c64 FFF7FEFF 		bl	e_send_uart1_char
 4163 1c68 00BF     		nop
 4164              	.L272:
 4165              		.loc 1 851 0 is_stmt 0 discriminator 2
 4166 1c6a FFF7FEFF 		bl	e_uart1_sending
 4167 1c6e 0346     		mov	r3, r0
 4168 1c70 002B     		cmp	r3, #0
 4169 1c72 FAD1     		bne	.L272
 4170              		.loc 1 853 0 is_stmt 1
 4171 1c74 1F21     		movs	r1, #31
 4172 1c76 8348     		ldr	r0, .L507+20
 4173 1c78 FFF7FEFF 		bl	e_send_uart1_char
 4174 1c7c 00BF     		nop
 4175              	.L273:
 4176              		.loc 1 853 0 is_stmt 0 discriminator 2
 4177 1c7e FFF7FEFF 		bl	e_uart1_sending
 4178 1c82 0346     		mov	r3, r0
 4179 1c84 002B     		cmp	r3, #0
 4180 1c86 FAD1     		bne	.L273
 4181              		.loc 1 855 0 is_stmt 1
 4182 1c88 FFF7FEFF 		bl	isEpuckVersion1_3
 4183 1c8c 0346     		mov	r3, r0
 4184 1c8e 002B     		cmp	r3, #0
ARM GAS  C:\Users\Moi\AppData\Local\Temp\ccF5N8ze.s 			page 80


 4185 1c90 09D0     		beq	.L274
 4186              		.loc 1 856 0
 4187 1c92 1821     		movs	r1, #24
 4188 1c94 7C48     		ldr	r0, .L507+24
 4189 1c96 FFF7FEFF 		bl	e_send_uart1_char
 4190 1c9a 00BF     		nop
 4191              	.L275:
 4192              		.loc 1 856 0 is_stmt 0 discriminator 2
 4193 1c9c FFF7FEFF 		bl	e_uart1_sending
 4194 1ca0 0346     		mov	r3, r0
 4195 1ca2 002B     		cmp	r3, #0
 4196 1ca4 FAD1     		bne	.L275
 4197              	.L274:
 4198              		.loc 1 858 0 is_stmt 1
 4199 1ca6 1821     		movs	r1, #24
 4200 1ca8 7848     		ldr	r0, .L507+28
 4201 1caa FFF7FEFF 		bl	e_send_uart1_char
 4202 1cae 00BF     		nop
 4203              	.L276:
 4204              		.loc 1 858 0 is_stmt 0 discriminator 2
 4205 1cb0 FFF7FEFF 		bl	e_uart1_sending
 4206 1cb4 0346     		mov	r3, r0
 4207 1cb6 002B     		cmp	r3, #0
 4208 1cb8 FAD1     		bne	.L276
 4209              		.loc 1 859 0 is_stmt 1
 4210 1cba 2821     		movs	r1, #40
 4211 1cbc 7448     		ldr	r0, .L507+32
 4212 1cbe FFF7FEFF 		bl	e_send_uart1_char
 4213 1cc2 00BF     		nop
 4214              	.L277:
 4215              		.loc 1 859 0 is_stmt 0 discriminator 2
 4216 1cc4 FFF7FEFF 		bl	e_uart1_sending
 4217 1cc8 0346     		mov	r3, r0
 4218 1cca 002B     		cmp	r3, #0
 4219 1ccc FAD1     		bne	.L277
 4220              		.loc 1 860 0 is_stmt 1
 4221 1cce 4F21     		movs	r1, #79
 4222 1cd0 7048     		ldr	r0, .L507+36
 4223 1cd2 FFF7FEFF 		bl	e_send_uart1_char
 4224 1cd6 00BF     		nop
 4225              	.L278:
 4226              		.loc 1 860 0 is_stmt 0 discriminator 2
 4227 1cd8 FFF7FEFF 		bl	e_uart1_sending
 4228 1cdc 0346     		mov	r3, r0
 4229 1cde 002B     		cmp	r3, #0
 4230 1ce0 FAD1     		bne	.L278
 4231              		.loc 1 861 0 is_stmt 1
 4232 1ce2 2F21     		movs	r1, #47
 4233 1ce4 6C48     		ldr	r0, .L507+40
 4234 1ce6 FFF7FEFF 		bl	e_send_uart1_char
 4235 1cea 00BF     		nop
 4236              	.L279:
 4237              		.loc 1 861 0 is_stmt 0 discriminator 2
 4238 1cec FFF7FEFF 		bl	e_uart1_sending
 4239 1cf0 0346     		mov	r3, r0
 4240 1cf2 002B     		cmp	r3, #0
 4241 1cf4 FAD1     		bne	.L279
ARM GAS  C:\Users\Moi\AppData\Local\Temp\ccF5N8ze.s 			page 81


 4242              		.loc 1 862 0 is_stmt 1
 4243 1cf6 3321     		movs	r1, #51
 4244 1cf8 6848     		ldr	r0, .L507+44
 4245 1cfa FFF7FEFF 		bl	e_send_uart1_char
 4246 1cfe 00BF     		nop
 4247              	.L280:
 4248              		.loc 1 862 0 is_stmt 0 discriminator 2
 4249 1d00 FFF7FEFF 		bl	e_uart1_sending
 4250 1d04 0346     		mov	r3, r0
 4251 1d06 002B     		cmp	r3, #0
 4252 1d08 FAD1     		bne	.L280
 4253              		.loc 1 864 0 is_stmt 1
 4254 1d0a 2121     		movs	r1, #33
 4255 1d0c 6448     		ldr	r0, .L507+48
 4256 1d0e FFF7FEFF 		bl	e_send_uart1_char
 4257 1d12 00BF     		nop
 4258              	.L281:
 4259              		.loc 1 864 0 is_stmt 0 discriminator 2
 4260 1d14 FFF7FEFF 		bl	e_uart1_sending
 4261 1d18 0346     		mov	r3, r0
 4262 1d1a 002B     		cmp	r3, #0
 4263 1d1c FAD1     		bne	.L281
 4264              		.loc 1 866 0 is_stmt 1
 4265 1d1e 1D21     		movs	r1, #29
 4266 1d20 6048     		ldr	r0, .L507+52
 4267 1d22 FFF7FEFF 		bl	e_send_uart1_char
 4268 1d26 00BF     		nop
 4269              	.L282:
 4270              		.loc 1 866 0 is_stmt 0 discriminator 2
 4271 1d28 FFF7FEFF 		bl	e_uart1_sending
 4272 1d2c 0346     		mov	r3, r0
 4273 1d2e 002B     		cmp	r3, #0
 4274 1d30 FAD1     		bne	.L282
 4275              		.loc 1 867 0 is_stmt 1
 4276 1d32 2121     		movs	r1, #33
 4277 1d34 5C48     		ldr	r0, .L507+56
 4278 1d36 FFF7FEFF 		bl	e_send_uart1_char
 4279 1d3a 00BF     		nop
 4280              	.L283:
 4281              		.loc 1 867 0 is_stmt 0 discriminator 2
 4282 1d3c FFF7FEFF 		bl	e_uart1_sending
 4283 1d40 0346     		mov	r3, r0
 4284 1d42 002B     		cmp	r3, #0
 4285 1d44 FAD1     		bne	.L283
 4286              		.loc 1 868 0 is_stmt 1
 4287 1d46 3121     		movs	r1, #49
 4288 1d48 5848     		ldr	r0, .L507+60
 4289 1d4a FFF7FEFF 		bl	e_send_uart1_char
 4290 1d4e 00BF     		nop
 4291              	.L284:
 4292              		.loc 1 868 0 is_stmt 0 discriminator 2
 4293 1d50 FFF7FEFF 		bl	e_uart1_sending
 4294 1d54 0346     		mov	r3, r0
 4295 1d56 002B     		cmp	r3, #0
 4296 1d58 FAD1     		bne	.L284
 4297              		.loc 1 869 0 is_stmt 1
 4298 1d5a 3121     		movs	r1, #49
ARM GAS  C:\Users\Moi\AppData\Local\Temp\ccF5N8ze.s 			page 82


 4299 1d5c 5448     		ldr	r0, .L507+64
 4300 1d5e FFF7FEFF 		bl	e_send_uart1_char
 4301 1d62 00BF     		nop
 4302              	.L285:
 4303              		.loc 1 869 0 is_stmt 0 discriminator 2
 4304 1d64 FFF7FEFF 		bl	e_uart1_sending
 4305 1d68 0346     		mov	r3, r0
 4306 1d6a 002B     		cmp	r3, #0
 4307 1d6c FAD1     		bne	.L285
 4308              		.loc 1 870 0 is_stmt 1
 4309 1d6e 2021     		movs	r1, #32
 4310 1d70 5048     		ldr	r0, .L507+68
 4311 1d72 FFF7FEFF 		bl	e_send_uart1_char
 4312 1d76 00BF     		nop
 4313              	.L286:
 4314              		.loc 1 870 0 is_stmt 0 discriminator 2
 4315 1d78 FFF7FEFF 		bl	e_uart1_sending
 4316 1d7c 0346     		mov	r3, r0
 4317 1d7e 002B     		cmp	r3, #0
 4318 1d80 FAD1     		bne	.L286
 4319              		.loc 1 871 0 is_stmt 1
 4320 1d82 3121     		movs	r1, #49
 4321 1d84 4C48     		ldr	r0, .L507+72
 4322 1d86 FFF7FEFF 		bl	e_send_uart1_char
 4323 1d8a 00BF     		nop
 4324              	.L287:
 4325              		.loc 1 871 0 is_stmt 0 discriminator 2
 4326 1d8c FFF7FEFF 		bl	e_uart1_sending
 4327 1d90 0346     		mov	r3, r0
 4328 1d92 002B     		cmp	r3, #0
 4329 1d94 FAD1     		bne	.L287
 4330              		.loc 1 872 0 is_stmt 1
 4331 1d96 3221     		movs	r1, #50
 4332 1d98 4848     		ldr	r0, .L507+76
 4333 1d9a FFF7FEFF 		bl	e_send_uart1_char
 4334 1d9e 00BF     		nop
 4335              	.L288:
 4336              		.loc 1 872 0 is_stmt 0 discriminator 2
 4337 1da0 FFF7FEFF 		bl	e_uart1_sending
 4338 1da4 0346     		mov	r3, r0
 4339 1da6 002B     		cmp	r3, #0
 4340 1da8 FAD1     		bne	.L288
 4341              		.loc 1 873 0 is_stmt 1
 4342 1daa FFF7FEFF 		bl	isEpuckVersion1_3
 4343 1dae 0346     		mov	r3, r0
 4344 1db0 002B     		cmp	r3, #0
 4345 1db2 09D0     		beq	.L289
 4346              		.loc 1 874 0
 4347 1db4 1F21     		movs	r1, #31
 4348 1db6 4248     		ldr	r0, .L507+80
 4349 1db8 FFF7FEFF 		bl	e_send_uart1_char
 4350 1dbc 00BF     		nop
 4351              	.L290:
 4352              		.loc 1 874 0 is_stmt 0 discriminator 2
 4353 1dbe FFF7FEFF 		bl	e_uart1_sending
 4354 1dc2 0346     		mov	r3, r0
 4355 1dc4 002B     		cmp	r3, #0
ARM GAS  C:\Users\Moi\AppData\Local\Temp\ccF5N8ze.s 			page 83


 4356 1dc6 FAD1     		bne	.L290
 4357              	.L289:
 4358              		.loc 1 876 0 is_stmt 1
 4359 1dc8 2C21     		movs	r1, #44
 4360 1dca 3E48     		ldr	r0, .L507+84
 4361 1dcc FFF7FEFF 		bl	e_send_uart1_char
 4362 1dd0 00BF     		nop
 4363              	.L291:
 4364              		.loc 1 876 0 is_stmt 0 discriminator 2
 4365 1dd2 FFF7FEFF 		bl	e_uart1_sending
 4366 1dd6 0346     		mov	r3, r0
 4367 1dd8 002B     		cmp	r3, #0
 4368 1dda FAD1     		bne	.L291
 4369              		.loc 1 877 0 is_stmt 1
 4370 1ddc 2521     		movs	r1, #37
 4371 1dde 3A48     		ldr	r0, .L507+88
 4372 1de0 FFF7FEFF 		bl	e_send_uart1_char
 4373 1de4 00BF     		nop
 4374              	.L292:
 4375              		.loc 1 877 0 is_stmt 0 discriminator 2
 4376 1de6 FFF7FEFF 		bl	e_uart1_sending
 4377 1dea 0346     		mov	r3, r0
 4378 1dec 002B     		cmp	r3, #0
 4379 1dee FAD1     		bne	.L292
 4380              		.loc 1 878 0 is_stmt 1
 4381 1df0 2B21     		movs	r1, #43
 4382 1df2 3648     		ldr	r0, .L507+92
 4383 1df4 FFF7FEFF 		bl	e_send_uart1_char
 4384 1df8 00BF     		nop
 4385              	.L293:
 4386              		.loc 1 878 0 is_stmt 0 discriminator 2
 4387 1dfa FFF7FEFF 		bl	e_uart1_sending
 4388 1dfe 0346     		mov	r3, r0
 4389 1e00 002B     		cmp	r3, #0
 4390 1e02 FAD1     		bne	.L293
 4391              		.loc 1 879 0 is_stmt 1
 4392 1e04 2A21     		movs	r1, #42
 4393 1e06 3248     		ldr	r0, .L507+96
 4394 1e08 FFF7FEFF 		bl	e_send_uart1_char
 4395 1e0c 00BF     		nop
 4396              	.L294:
 4397              		.loc 1 879 0 is_stmt 0 discriminator 2
 4398 1e0e FFF7FEFF 		bl	e_uart1_sending
 4399 1e12 0346     		mov	r3, r0
 4400 1e14 002B     		cmp	r3, #0
 4401 1e16 FAD1     		bne	.L294
 4402              		.loc 1 918 0 is_stmt 1
 4403 1e18 00F0B6BF 		b	.L460
 4404              	.L261:
 4405              		.loc 1 881 0
 4406 1e1c 0121     		movs	r1, #1
 4407 1e1e 2D48     		ldr	r0, .L507+100
 4408 1e20 FFF7FEFF 		bl	e_send_uart2_char
 4409 1e24 00BF     		nop
 4410              	.L295:
 4411              		.loc 1 881 0 is_stmt 0 discriminator 2
 4412 1e26 FFF7FEFF 		bl	e_uart2_sending
ARM GAS  C:\Users\Moi\AppData\Local\Temp\ccF5N8ze.s 			page 84


 4413 1e2a 0346     		mov	r3, r0
 4414 1e2c 002B     		cmp	r3, #0
 4415 1e2e FAD1     		bne	.L295
 4416              		.loc 1 882 0 is_stmt 1
 4417 1e30 FFF7FEFF 		bl	isEpuckVersion1_3
 4418 1e34 0346     		mov	r3, r0
 4419 1e36 002B     		cmp	r3, #0
 4420 1e38 09D1     		bne	.L296
 4421              		.loc 1 883 0
 4422 1e3a 1921     		movs	r1, #25
 4423 1e3c 2648     		ldr	r0, .L507+104
 4424 1e3e FFF7FEFF 		bl	e_send_uart2_char
 4425 1e42 00BF     		nop
 4426              	.L297:
 4427              		.loc 1 883 0 is_stmt 0 discriminator 2
 4428 1e44 FFF7FEFF 		bl	e_uart2_sending
 4429 1e48 0346     		mov	r3, r0
 4430 1e4a 002B     		cmp	r3, #0
 4431 1e4c FAD1     		bne	.L297
 4432              	.L296:
 4433              		.loc 1 885 0 is_stmt 1
 4434 1e4e FFF7FEFF 		bl	isEpuckVersion1_3
 4435 1e52 0346     		mov	r3, r0
 4436 1e54 002B     		cmp	r3, #0
 4437 1e56 43D0     		beq	.L298
 4438              		.loc 1 886 0
 4439 1e58 1921     		movs	r1, #25
 4440 1e5a 2048     		ldr	r0, .L507+108
 4441 1e5c FFF7FEFF 		bl	e_send_uart2_char
 4442 1e60 00BF     		nop
 4443              	.L299:
 4444              		.loc 1 886 0 is_stmt 0 discriminator 2
 4445 1e62 FFF7FEFF 		bl	e_uart2_sending
 4446 1e66 0346     		mov	r3, r0
 4447 1e68 002B     		cmp	r3, #0
 4448 1e6a FAD1     		bne	.L299
 4449 1e6c 42E0     		b	.L300
 4450              	.L508:
 4451 1e6e 00BF     		.align	2
 4452              	.L507:
 4453 1e70 94010000 		.word	.LC19
 4454 1e74 C4010000 		.word	.LC20
 4455 1e78 EC010000 		.word	.LC21
 4456 1e7c 1C020000 		.word	.LC22
 4457 1e80 4C020000 		.word	.LC23
 4458 1e84 80020000 		.word	.LC24
 4459 1e88 A0020000 		.word	.LC25
 4460 1e8c BC020000 		.word	.LC26
 4461 1e90 D8020000 		.word	.LC27
 4462 1e94 04030000 		.word	.LC28
 4463 1e98 54030000 		.word	.LC29
 4464 1e9c 84030000 		.word	.LC30
 4465 1ea0 B8030000 		.word	.LC31
 4466 1ea4 DC030000 		.word	.LC32
 4467 1ea8 FC030000 		.word	.LC33
 4468 1eac 20040000 		.word	.LC34
 4469 1eb0 54040000 		.word	.LC35
ARM GAS  C:\Users\Moi\AppData\Local\Temp\ccF5N8ze.s 			page 85


 4470 1eb4 88040000 		.word	.LC36
 4471 1eb8 AC040000 		.word	.LC37
 4472 1ebc E0040000 		.word	.LC38
 4473 1ec0 14050000 		.word	.LC39
 4474 1ec4 34050000 		.word	.LC40
 4475 1ec8 64050000 		.word	.LC41
 4476 1ecc 8C050000 		.word	.LC42
 4477 1ed0 B8050000 		.word	.LC43
 4478 1ed4 14010000 		.word	.LC15
 4479 1ed8 E4050000 		.word	.LC44
 4480 1edc 00060000 		.word	.LC45
 4481              	.L298:
 4482              		.loc 1 888 0 is_stmt 1
 4483 1ee0 2721     		movs	r1, #39
 4484 1ee2 AA48     		ldr	r0, .L509
 4485 1ee4 FFF7FEFF 		bl	e_send_uart2_char
 4486 1ee8 00BF     		nop
 4487              	.L301:
 4488              		.loc 1 888 0 is_stmt 0 discriminator 2
 4489 1eea FFF7FEFF 		bl	e_uart2_sending
 4490 1eee 0346     		mov	r3, r0
 4491 1ef0 002B     		cmp	r3, #0
 4492 1ef2 FAD1     		bne	.L301
 4493              	.L300:
 4494              		.loc 1 890 0 is_stmt 1
 4495 1ef4 2B21     		movs	r1, #43
 4496 1ef6 A648     		ldr	r0, .L509+4
 4497 1ef8 FFF7FEFF 		bl	e_send_uart2_char
 4498 1efc 00BF     		nop
 4499              	.L302:
 4500              		.loc 1 890 0 is_stmt 0 discriminator 2
 4501 1efe FFF7FEFF 		bl	e_uart2_sending
 4502 1f02 0346     		mov	r3, r0
 4503 1f04 002B     		cmp	r3, #0
 4504 1f06 FAD1     		bne	.L302
 4505              		.loc 1 891 0 is_stmt 1
 4506 1f08 1D21     		movs	r1, #29
 4507 1f0a A248     		ldr	r0, .L509+8
 4508 1f0c FFF7FEFF 		bl	e_send_uart2_char
 4509 1f10 00BF     		nop
 4510              	.L303:
 4511              		.loc 1 891 0 is_stmt 0 discriminator 2
 4512 1f12 FFF7FEFF 		bl	e_uart2_sending
 4513 1f16 0346     		mov	r3, r0
 4514 1f18 002B     		cmp	r3, #0
 4515 1f1a FAD1     		bne	.L303
 4516              		.loc 1 892 0 is_stmt 1
 4517 1f1c 2621     		movs	r1, #38
 4518 1f1e 9E48     		ldr	r0, .L509+12
 4519 1f20 FFF7FEFF 		bl	e_send_uart2_char
 4520 1f24 00BF     		nop
 4521              	.L304:
 4522              		.loc 1 892 0 is_stmt 0 discriminator 2
 4523 1f26 FFF7FEFF 		bl	e_uart2_sending
 4524 1f2a 0346     		mov	r3, r0
 4525 1f2c 002B     		cmp	r3, #0
 4526 1f2e FAD1     		bne	.L304
ARM GAS  C:\Users\Moi\AppData\Local\Temp\ccF5N8ze.s 			page 86


 4527              		.loc 1 893 0 is_stmt 1
 4528 1f30 2621     		movs	r1, #38
 4529 1f32 9A48     		ldr	r0, .L509+16
 4530 1f34 FFF7FEFF 		bl	e_send_uart2_char
 4531 1f38 00BF     		nop
 4532              	.L305:
 4533              		.loc 1 893 0 is_stmt 0 discriminator 2
 4534 1f3a FFF7FEFF 		bl	e_uart2_sending
 4535 1f3e 0346     		mov	r3, r0
 4536 1f40 002B     		cmp	r3, #0
 4537 1f42 FAD1     		bne	.L305
 4538              		.loc 1 894 0 is_stmt 1
 4539 1f44 2C21     		movs	r1, #44
 4540 1f46 9648     		ldr	r0, .L509+20
 4541 1f48 FFF7FEFF 		bl	e_send_uart2_char
 4542 1f4c 00BF     		nop
 4543              	.L306:
 4544              		.loc 1 894 0 is_stmt 0 discriminator 2
 4545 1f4e FFF7FEFF 		bl	e_uart2_sending
 4546 1f52 0346     		mov	r3, r0
 4547 1f54 002B     		cmp	r3, #0
 4548 1f56 FAD1     		bne	.L306
 4549              		.loc 1 896 0 is_stmt 1
 4550 1f58 1721     		movs	r1, #23
 4551 1f5a 9248     		ldr	r0, .L509+24
 4552 1f5c FFF7FEFF 		bl	e_send_uart2_char
 4553 1f60 00BF     		nop
 4554              	.L307:
 4555              		.loc 1 896 0 is_stmt 0 discriminator 2
 4556 1f62 FFF7FEFF 		bl	e_uart2_sending
 4557 1f66 0346     		mov	r3, r0
 4558 1f68 002B     		cmp	r3, #0
 4559 1f6a FAD1     		bne	.L307
 4560              		.loc 1 898 0 is_stmt 1
 4561 1f6c 1021     		movs	r1, #16
 4562 1f6e 8E48     		ldr	r0, .L509+28
 4563 1f70 FFF7FEFF 		bl	e_send_uart2_char
 4564 1f74 00BF     		nop
 4565              	.L308:
 4566              		.loc 1 898 0 is_stmt 0 discriminator 2
 4567 1f76 FFF7FEFF 		bl	e_uart2_sending
 4568 1f7a 0346     		mov	r3, r0
 4569 1f7c 002B     		cmp	r3, #0
 4570 1f7e FAD1     		bne	.L308
 4571              		.loc 1 899 0 is_stmt 1
 4572 1f80 2221     		movs	r1, #34
 4573 1f82 8A48     		ldr	r0, .L509+32
 4574 1f84 FFF7FEFF 		bl	e_send_uart2_char
 4575 1f88 00BF     		nop
 4576              	.L309:
 4577              		.loc 1 899 0 is_stmt 0 discriminator 2
 4578 1f8a FFF7FEFF 		bl	e_uart2_sending
 4579 1f8e 0346     		mov	r3, r0
 4580 1f90 002B     		cmp	r3, #0
 4581 1f92 FAD1     		bne	.L309
 4582              		.loc 1 900 0 is_stmt 1
 4583 1f94 4D21     		movs	r1, #77
ARM GAS  C:\Users\Moi\AppData\Local\Temp\ccF5N8ze.s 			page 87


 4584 1f96 8648     		ldr	r0, .L509+36
 4585 1f98 FFF7FEFF 		bl	e_send_uart2_char
 4586 1f9c 00BF     		nop
 4587              	.L310:
 4588              		.loc 1 900 0 is_stmt 0 discriminator 2
 4589 1f9e FFF7FEFF 		bl	e_uart2_sending
 4590 1fa2 0346     		mov	r3, r0
 4591 1fa4 002B     		cmp	r3, #0
 4592 1fa6 FAD1     		bne	.L310
 4593              		.loc 1 901 0 is_stmt 1
 4594 1fa8 2721     		movs	r1, #39
 4595 1faa 8248     		ldr	r0, .L509+40
 4596 1fac FFF7FEFF 		bl	e_send_uart2_char
 4597 1fb0 00BF     		nop
 4598              	.L311:
 4599              		.loc 1 901 0 is_stmt 0 discriminator 2
 4600 1fb2 FFF7FEFF 		bl	e_uart2_sending
 4601 1fb6 0346     		mov	r3, r0
 4602 1fb8 002B     		cmp	r3, #0
 4603 1fba FAD1     		bne	.L311
 4604              		.loc 1 902 0 is_stmt 1
 4605 1fbc 2B21     		movs	r1, #43
 4606 1fbe 7E48     		ldr	r0, .L509+44
 4607 1fc0 FFF7FEFF 		bl	e_send_uart2_char
 4608 1fc4 00BF     		nop
 4609              	.L312:
 4610              		.loc 1 902 0 is_stmt 0 discriminator 2
 4611 1fc6 FFF7FEFF 		bl	e_uart2_sending
 4612 1fca 0346     		mov	r3, r0
 4613 1fcc 002B     		cmp	r3, #0
 4614 1fce FAD1     		bne	.L312
 4615              		.loc 1 904 0 is_stmt 1
 4616 1fd0 1921     		movs	r1, #25
 4617 1fd2 7A48     		ldr	r0, .L509+48
 4618 1fd4 FFF7FEFF 		bl	e_send_uart2_char
 4619 1fd8 00BF     		nop
 4620              	.L313:
 4621              		.loc 1 904 0 is_stmt 0 discriminator 2
 4622 1fda FFF7FEFF 		bl	e_uart2_sending
 4623 1fde 0346     		mov	r3, r0
 4624 1fe0 002B     		cmp	r3, #0
 4625 1fe2 FAD1     		bne	.L313
 4626              		.loc 1 906 0 is_stmt 1
 4627 1fe4 1521     		movs	r1, #21
 4628 1fe6 7648     		ldr	r0, .L509+52
 4629 1fe8 FFF7FEFF 		bl	e_send_uart2_char
 4630 1fec 00BF     		nop
 4631              	.L314:
 4632              		.loc 1 906 0 is_stmt 0 discriminator 2
 4633 1fee FFF7FEFF 		bl	e_uart2_sending
 4634 1ff2 0346     		mov	r3, r0
 4635 1ff4 002B     		cmp	r3, #0
 4636 1ff6 FAD1     		bne	.L314
 4637              		.loc 1 907 0 is_stmt 1
 4638 1ff8 1921     		movs	r1, #25
 4639 1ffa 7248     		ldr	r0, .L509+56
 4640 1ffc FFF7FEFF 		bl	e_send_uart2_char
ARM GAS  C:\Users\Moi\AppData\Local\Temp\ccF5N8ze.s 			page 88


 4641 2000 00BF     		nop
 4642              	.L315:
 4643              		.loc 1 907 0 is_stmt 0 discriminator 2
 4644 2002 FFF7FEFF 		bl	e_uart2_sending
 4645 2006 0346     		mov	r3, r0
 4646 2008 002B     		cmp	r3, #0
 4647 200a FAD1     		bne	.L315
 4648              		.loc 1 908 0 is_stmt 1
 4649 200c 2921     		movs	r1, #41
 4650 200e 6E48     		ldr	r0, .L509+60
 4651 2010 FFF7FEFF 		bl	e_send_uart2_char
 4652 2014 00BF     		nop
 4653              	.L316:
 4654              		.loc 1 908 0 is_stmt 0 discriminator 2
 4655 2016 FFF7FEFF 		bl	e_uart2_sending
 4656 201a 0346     		mov	r3, r0
 4657 201c 002B     		cmp	r3, #0
 4658 201e FAD1     		bne	.L316
 4659              		.loc 1 909 0 is_stmt 1
 4660 2020 2921     		movs	r1, #41
 4661 2022 6A48     		ldr	r0, .L509+64
 4662 2024 FFF7FEFF 		bl	e_send_uart2_char
 4663 2028 00BF     		nop
 4664              	.L317:
 4665              		.loc 1 909 0 is_stmt 0 discriminator 2
 4666 202a FFF7FEFF 		bl	e_uart2_sending
 4667 202e 0346     		mov	r3, r0
 4668 2030 002B     		cmp	r3, #0
 4669 2032 FAD1     		bne	.L317
 4670              		.loc 1 910 0 is_stmt 1
 4671 2034 1821     		movs	r1, #24
 4672 2036 6648     		ldr	r0, .L509+68
 4673 2038 FFF7FEFF 		bl	e_send_uart2_char
 4674 203c 00BF     		nop
 4675              	.L318:
 4676              		.loc 1 910 0 is_stmt 0 discriminator 2
 4677 203e FFF7FEFF 		bl	e_uart2_sending
 4678 2042 0346     		mov	r3, r0
 4679 2044 002B     		cmp	r3, #0
 4680 2046 FAD1     		bne	.L318
 4681              		.loc 1 911 0 is_stmt 1
 4682 2048 2921     		movs	r1, #41
 4683 204a 6248     		ldr	r0, .L509+72
 4684 204c FFF7FEFF 		bl	e_send_uart2_char
 4685 2050 00BF     		nop
 4686              	.L319:
 4687              		.loc 1 911 0 is_stmt 0 discriminator 2
 4688 2052 FFF7FEFF 		bl	e_uart2_sending
 4689 2056 0346     		mov	r3, r0
 4690 2058 002B     		cmp	r3, #0
 4691 205a FAD1     		bne	.L319
 4692              		.loc 1 912 0 is_stmt 1
 4693 205c 2C21     		movs	r1, #44
 4694 205e 5E48     		ldr	r0, .L509+76
 4695 2060 FFF7FEFF 		bl	e_send_uart2_char
 4696 2064 00BF     		nop
 4697              	.L320:
ARM GAS  C:\Users\Moi\AppData\Local\Temp\ccF5N8ze.s 			page 89


 4698              		.loc 1 912 0 is_stmt 0 discriminator 2
 4699 2066 FFF7FEFF 		bl	e_uart2_sending
 4700 206a 0346     		mov	r3, r0
 4701 206c 002B     		cmp	r3, #0
 4702 206e FAD1     		bne	.L320
 4703              		.loc 1 913 0 is_stmt 1
 4704 2070 2421     		movs	r1, #36
 4705 2072 5A48     		ldr	r0, .L509+80
 4706 2074 FFF7FEFF 		bl	e_send_uart2_char
 4707 2078 00BF     		nop
 4708              	.L321:
 4709              		.loc 1 913 0 is_stmt 0 discriminator 2
 4710 207a FFF7FEFF 		bl	e_uart2_sending
 4711 207e 0346     		mov	r3, r0
 4712 2080 002B     		cmp	r3, #0
 4713 2082 FAD1     		bne	.L321
 4714              		.loc 1 914 0 is_stmt 1
 4715 2084 1D21     		movs	r1, #29
 4716 2086 5648     		ldr	r0, .L509+84
 4717 2088 FFF7FEFF 		bl	e_send_uart2_char
 4718 208c 00BF     		nop
 4719              	.L322:
 4720              		.loc 1 914 0 is_stmt 0 discriminator 2
 4721 208e FFF7FEFF 		bl	e_uart2_sending
 4722 2092 0346     		mov	r3, r0
 4723 2094 002B     		cmp	r3, #0
 4724 2096 FAD1     		bne	.L322
 4725              		.loc 1 915 0 is_stmt 1
 4726 2098 2521     		movs	r1, #37
 4727 209a 5248     		ldr	r0, .L509+88
 4728 209c FFF7FEFF 		bl	e_send_uart2_char
 4729 20a0 00BF     		nop
 4730              	.L323:
 4731              		.loc 1 915 0 is_stmt 0 discriminator 2
 4732 20a2 FFF7FEFF 		bl	e_uart2_sending
 4733 20a6 0346     		mov	r3, r0
 4734 20a8 002B     		cmp	r3, #0
 4735 20aa FAD1     		bne	.L323
 4736              		.loc 1 916 0 is_stmt 1
 4737 20ac 2421     		movs	r1, #36
 4738 20ae 4E48     		ldr	r0, .L509+92
 4739 20b0 FFF7FEFF 		bl	e_send_uart2_char
 4740 20b4 00BF     		nop
 4741              	.L324:
 4742              		.loc 1 916 0 is_stmt 0 discriminator 2
 4743 20b6 FFF7FEFF 		bl	e_uart2_sending
 4744 20ba 0346     		mov	r3, r0
 4745 20bc 002B     		cmp	r3, #0
 4746 20be FAD1     		bne	.L324
 4747              		.loc 1 918 0 is_stmt 1
 4748 20c0 00F062BE 		b	.L460
 4749              	.L200:
 4750              		.loc 1 920 0
 4751 20c4 9DF82630 		ldrb	r3, [sp, #38]	@ zero_extendqisi2
 4752 20c8 002B     		cmp	r3, #0
 4753 20ca 40F06086 		bne	.L461
 4754              		.loc 1 921 0
ARM GAS  C:\Users\Moi\AppData\Local\Temp\ccF5N8ze.s 			page 90


 4755 20ce 474B     		ldr	r3, .L509+96
 4756 20d0 1868     		ldr	r0, [r3]
 4757 20d2 474B     		ldr	r3, .L509+100
 4758 20d4 1C68     		ldr	r4, [r3]
 4759 20d6 474B     		ldr	r3, .L509+104
 4760 20d8 1B68     		ldr	r3, [r3]
 4761 20da 474A     		ldr	r2, .L509+108
 4762 20dc 1268     		ldr	r2, [r2]
 4763 20de 4749     		ldr	r1, .L509+112
 4764 20e0 0968     		ldr	r1, [r1]
 4765 20e2 0291     		str	r1, [sp, #8]
 4766 20e4 0192     		str	r2, [sp, #4]
 4767 20e6 0093     		str	r3, [sp]
 4768 20e8 2346     		mov	r3, r4
 4769 20ea 0246     		mov	r2, r0
 4770 20ec 4449     		ldr	r1, .L509+116
 4771 20ee 4548     		ldr	r0, .L509+120
 4772 20f0 FFF7FEFF 		bl	sprintf
 4773              		.loc 1 922 0
 4774 20f4 0B9B     		ldr	r3, [sp, #44]
 4775 20f6 002B     		cmp	r3, #0
 4776 20f8 0FD0     		beq	.L326
 4777              		.loc 1 923 0
 4778 20fa 4248     		ldr	r0, .L509+120
 4779 20fc FFF7FEFF 		bl	strlen
 4780 2100 0346     		mov	r3, r0
 4781 2102 1946     		mov	r1, r3
 4782 2104 3F48     		ldr	r0, .L509+120
 4783 2106 FFF7FEFF 		bl	e_send_uart1_char
 4784 210a 00BF     		nop
 4785              	.L327:
 4786              		.loc 1 923 0 is_stmt 0 discriminator 2
 4787 210c FFF7FEFF 		bl	e_uart1_sending
 4788 2110 0346     		mov	r3, r0
 4789 2112 002B     		cmp	r3, #0
 4790 2114 FAD1     		bne	.L327
 4791              		.loc 1 928 0 is_stmt 1
 4792 2116 00F03ABE 		b	.L461
 4793              	.L326:
 4794              		.loc 1 925 0
 4795 211a 3A48     		ldr	r0, .L509+120
 4796 211c FFF7FEFF 		bl	strlen
 4797 2120 0346     		mov	r3, r0
 4798 2122 1946     		mov	r1, r3
 4799 2124 3748     		ldr	r0, .L509+120
 4800 2126 FFF7FEFF 		bl	e_send_uart2_char
 4801 212a 00BF     		nop
 4802              	.L328:
 4803              		.loc 1 925 0 is_stmt 0 discriminator 2
 4804 212c FFF7FEFF 		bl	e_uart2_sending
 4805 2130 0346     		mov	r3, r0
 4806 2132 002B     		cmp	r3, #0
 4807 2134 FAD1     		bne	.L328
 4808              		.loc 1 928 0 is_stmt 1
 4809 2136 00F02ABE 		b	.L461
 4810              	.L201:
 4811              		.loc 1 930 0
ARM GAS  C:\Users\Moi\AppData\Local\Temp\ccF5N8ze.s 			page 91


 4812 213a 9DF82630 		ldrb	r3, [sp, #38]	@ zero_extendqisi2
 4813 213e 002B     		cmp	r3, #0
 4814 2140 40F02886 		bne	.L462
 4815              		.loc 1 931 0
 4816 2144 304B     		ldr	r3, .L509+124
 4817 2146 4FF0FF32 		mov	r2, #-1
 4818 214a 1A60     		str	r2, [r3]
 4819              		.loc 1 932 0
 4820 214c 2F4B     		ldr	r3, .L509+128
 4821 214e 4FF0FF32 		mov	r2, #-1
 4822 2152 1A60     		str	r2, [r3]
 4823              		.loc 1 933 0
 4824 2154 2D4B     		ldr	r3, .L509+128
 4825 2156 0393     		str	r3, [sp, #12]
 4826 2158 2B4B     		ldr	r3, .L509+124
 4827 215a 0293     		str	r3, [sp, #8]
 4828 215c 264B     		ldr	r3, .L509+108
 4829 215e 0193     		str	r3, [sp, #4]
 4830 2160 244B     		ldr	r3, .L509+104
 4831 2162 0093     		str	r3, [sp]
 4832 2164 224B     		ldr	r3, .L509+100
 4833 2166 214A     		ldr	r2, .L509+96
 4834 2168 2949     		ldr	r1, .L509+132
 4835 216a 2648     		ldr	r0, .L509+120
 4836 216c FFF7FEFF 		bl	sscanf
 4837              		.loc 1 934 0
 4838 2170 1E4B     		ldr	r3, .L509+96
 4839 2172 1B68     		ldr	r3, [r3]
 4840 2174 002B     		cmp	r3, #0
 4841 2176 4DD1     		bne	.L330
 4842              		.loc 1 935 0
 4843 2178 1D4B     		ldr	r3, .L509+100
 4844 217a 1B68     		ldr	r3, [r3]
 4845 217c 1D4A     		ldr	r2, .L509+104
 4846 217e 1268     		ldr	r2, [r2]
 4847 2180 02FB03F3 		mul	r3, r2, r3
 4848 2184 1D4A     		ldr	r2, .L509+112
 4849 2186 1360     		str	r3, [r2]
 4850 2188 4DE0     		b	.L331
 4851              	.L510:
 4852 218a 00BF     		.align	2
 4853              	.L509:
 4854 218c 1C060000 		.word	.LC46
 4855 2190 44060000 		.word	.LC47
 4856 2194 70060000 		.word	.LC48
 4857 2198 90060000 		.word	.LC49
 4858 219c B8060000 		.word	.LC50
 4859 21a0 E0060000 		.word	.LC51
 4860 21a4 10070000 		.word	.LC52
 4861 21a8 28070000 		.word	.LC53
 4862 21ac 3C070000 		.word	.LC54
 4863 21b0 60070000 		.word	.LC55
 4864 21b4 B0070000 		.word	.LC56
 4865 21b8 D8070000 		.word	.LC57
 4866 21bc 04080000 		.word	.LC58
 4867 21c0 20080000 		.word	.LC59
 4868 21c4 38080000 		.word	.LC60
ARM GAS  C:\Users\Moi\AppData\Local\Temp\ccF5N8ze.s 			page 92


 4869 21c8 54080000 		.word	.LC61
 4870 21cc 80080000 		.word	.LC62
 4871 21d0 AC080000 		.word	.LC63
 4872 21d4 C8080000 		.word	.LC64
 4873 21d8 F4080000 		.word	.LC65
 4874 21dc 24090000 		.word	.LC66
 4875 21e0 4C090000 		.word	.LC67
 4876 21e4 6C090000 		.word	.LC68
 4877 21e8 94090000 		.word	.LC69
 4878 21ec 00000000 		.word	cam_mode.13548
 4879 21f0 00000000 		.word	cam_width.13549
 4880 21f4 00000000 		.word	cam_heigth.13550
 4881 21f8 00000000 		.word	cam_zoom.13551
 4882 21fc 00000000 		.word	cam_size.13552
 4883 2200 BC090000 		.word	.LC70
 4884 2204 00000000 		.word	buffer
 4885 2208 00000000 		.word	cam_x1.13553
 4886 220c 00000000 		.word	cam_y1.13554
 4887 2210 D0090000 		.word	.LC71
 4888              	.L330:
 4889              		.loc 1 937 0
 4890 2214 AA4B     		ldr	r3, .L511
 4891 2216 1B68     		ldr	r3, [r3]
 4892 2218 AA4A     		ldr	r2, .L511+4
 4893 221a 1268     		ldr	r2, [r2]
 4894 221c 02FB03F3 		mul	r3, r2, r3
 4895 2220 5B00     		lsls	r3, r3, #1
 4896 2222 A94A     		ldr	r2, .L511+8
 4897 2224 1360     		str	r3, [r2]
 4898              	.L331:
 4899              		.loc 1 938 0
 4900 2226 A84B     		ldr	r3, .L511+8
 4901 2228 1B68     		ldr	r3, [r3]
 4902 222a 41F22802 		movw	r2, #4136
 4903 222e 9342     		cmp	r3, r2
 4904 2230 11DD     		ble	.L332
 4905              		.loc 1 939 0
 4906 2232 A64B     		ldr	r3, .L511+12
 4907 2234 0122     		movs	r2, #1
 4908 2236 1A60     		str	r2, [r3]
 4909              		.loc 1 940 0
 4910 2238 A14B     		ldr	r3, .L511
 4911 223a 2822     		movs	r2, #40
 4912 223c 1A60     		str	r2, [r3]
 4913              		.loc 1 941 0
 4914 223e A14B     		ldr	r3, .L511+4
 4915 2240 2822     		movs	r2, #40
 4916 2242 1A60     		str	r2, [r3]
 4917              		.loc 1 942 0
 4918 2244 9E4B     		ldr	r3, .L511
 4919 2246 1B68     		ldr	r3, [r3]
 4920 2248 9E4A     		ldr	r2, .L511+4
 4921 224a 1268     		ldr	r2, [r2]
 4922 224c 02FB03F3 		mul	r3, r2, r3
 4923 2250 5B00     		lsls	r3, r3, #1
 4924 2252 9D4A     		ldr	r2, .L511+8
 4925 2254 1360     		str	r3, [r2]
ARM GAS  C:\Users\Moi\AppData\Local\Temp\ccF5N8ze.s 			page 93


 4926              	.L332:
 4927              		.loc 1 944 0
 4928 2256 FFF7FEFF 		bl	e_poxxxx_init_cam
 4929              		.loc 1 945 0
 4930 225a 9D4B     		ldr	r3, .L511+16
 4931 225c 1B68     		ldr	r3, [r3]
 4932 225e B3F1FF3F 		cmp	r3, #-1
 4933 2262 0DD1     		bne	.L333
 4934              		.loc 1 946 0
 4935 2264 964B     		ldr	r3, .L511
 4936 2266 1B68     		ldr	r3, [r3]
 4937 2268 9A4A     		ldr	r2, .L511+20
 4938 226a 1268     		ldr	r2, [r2]
 4939 226c 02FB03F3 		mul	r3, r2, r3
 4940 2270 C3F52073 		rsb	r3, r3, #640
 4941 2274 DA0F     		lsrs	r2, r3, #31
 4942 2276 1344     		add	r3, r3, r2
 4943 2278 5B10     		asrs	r3, r3, #1
 4944 227a 1A46     		mov	r2, r3
 4945 227c 944B     		ldr	r3, .L511+16
 4946 227e 1A60     		str	r2, [r3]
 4947              	.L333:
 4948              		.loc 1 948 0
 4949 2280 954B     		ldr	r3, .L511+24
 4950 2282 1B68     		ldr	r3, [r3]
 4951 2284 B3F1FF3F 		cmp	r3, #-1
 4952 2288 0DD1     		bne	.L334
 4953              		.loc 1 949 0
 4954 228a 8E4B     		ldr	r3, .L511+4
 4955 228c 1B68     		ldr	r3, [r3]
 4956 228e 914A     		ldr	r2, .L511+20
 4957 2290 1268     		ldr	r2, [r2]
 4958 2292 02FB03F3 		mul	r3, r2, r3
 4959 2296 C3F5F073 		rsb	r3, r3, #480
 4960 229a DA0F     		lsrs	r2, r3, #31
 4961 229c 1344     		add	r3, r3, r2
 4962 229e 5B10     		asrs	r3, r3, #1
 4963 22a0 1A46     		mov	r2, r3
 4964 22a2 8D4B     		ldr	r3, .L511+24
 4965 22a4 1A60     		str	r2, [r3]
 4966              	.L334:
 4967              		.loc 1 951 0
 4968 22a6 8A4B     		ldr	r3, .L511+16
 4969 22a8 1B68     		ldr	r3, [r3]
 4970 22aa 1846     		mov	r0, r3
 4971 22ac 8A4B     		ldr	r3, .L511+24
 4972 22ae 1B68     		ldr	r3, [r3]
 4973 22b0 1C46     		mov	r4, r3
 4974 22b2 834B     		ldr	r3, .L511
 4975 22b4 1B68     		ldr	r3, [r3]
 4976 22b6 874A     		ldr	r2, .L511+20
 4977 22b8 1268     		ldr	r2, [r2]
 4978 22ba 02FB03F3 		mul	r3, r2, r3
 4979 22be 1D46     		mov	r5, r3
 4980 22c0 804B     		ldr	r3, .L511+4
 4981 22c2 1B68     		ldr	r3, [r3]
 4982 22c4 834A     		ldr	r2, .L511+20
ARM GAS  C:\Users\Moi\AppData\Local\Temp\ccF5N8ze.s 			page 94


 4983 22c6 1268     		ldr	r2, [r2]
 4984 22c8 02FB03F3 		mul	r3, r2, r3
 4985 22cc 1E46     		mov	r6, r3
 4986 22ce 814B     		ldr	r3, .L511+20
 4987 22d0 1B68     		ldr	r3, [r3]
 4988 22d2 1A46     		mov	r2, r3
 4989 22d4 7F4B     		ldr	r3, .L511+20
 4990 22d6 1B68     		ldr	r3, [r3]
 4991 22d8 1946     		mov	r1, r3
 4992 22da 7C4B     		ldr	r3, .L511+12
 4993 22dc 1B68     		ldr	r3, [r3]
 4994 22de 0293     		str	r3, [sp, #8]
 4995 22e0 0191     		str	r1, [sp, #4]
 4996 22e2 0092     		str	r2, [sp]
 4997 22e4 3346     		mov	r3, r6
 4998 22e6 2A46     		mov	r2, r5
 4999 22e8 2146     		mov	r1, r4
 5000 22ea FFF7FEFF 		bl	e_poxxxx_config_cam
 5001              		.loc 1 952 0
 5002 22ee FFF7FEFF 		bl	e_poxxxx_write_cam_registers
 5003              		.loc 1 953 0
 5004 22f2 0B9B     		ldr	r3, [sp, #44]
 5005 22f4 002B     		cmp	r3, #0
 5006 22f6 0BD0     		beq	.L335
 5007              		.loc 1 954 0
 5008 22f8 0321     		movs	r1, #3
 5009 22fa 7848     		ldr	r0, .L511+28
 5010 22fc FFF7FEFF 		bl	e_send_uart1_char
 5011 2300 00BF     		nop
 5012              	.L336:
 5013              		.loc 1 954 0 is_stmt 0 discriminator 2
 5014 2302 FFF7FEFF 		bl	e_uart1_sending
 5015 2306 0346     		mov	r3, r0
 5016 2308 002B     		cmp	r3, #0
 5017 230a FAD1     		bne	.L336
 5018              		.loc 1 959 0 is_stmt 1
 5019 230c 00F042BD 		b	.L462
 5020              	.L335:
 5021              		.loc 1 956 0
 5022 2310 0321     		movs	r1, #3
 5023 2312 7248     		ldr	r0, .L511+28
 5024 2314 FFF7FEFF 		bl	e_send_uart2_char
 5025 2318 00BF     		nop
 5026              	.L337:
 5027              		.loc 1 956 0 is_stmt 0 discriminator 2
 5028 231a FFF7FEFF 		bl	e_uart2_sending
 5029 231e 0346     		mov	r3, r0
 5030 2320 002B     		cmp	r3, #0
 5031 2322 FAD1     		bne	.L337
 5032              		.loc 1 959 0 is_stmt 1
 5033 2324 00F036BD 		b	.L462
 5034              	.L202:
 5035              		.loc 1 961 0
 5036 2328 9DF82630 		ldrb	r3, [sp, #38]	@ zero_extendqisi2
 5037 232c 002B     		cmp	r3, #0
 5038 232e 17D1     		bne	.L338
 5039              		.loc 1 963 0
ARM GAS  C:\Users\Moi\AppData\Local\Temp\ccF5N8ze.s 			page 95


 5040 2330 0B9B     		ldr	r3, [sp, #44]
 5041 2332 002B     		cmp	r3, #0
 5042 2334 0AD0     		beq	.L339
 5043              		.loc 1 964 0
 5044 2336 3E21     		movs	r1, #62
 5045 2338 6948     		ldr	r0, .L511+32
 5046 233a FFF7FEFF 		bl	e_send_uart1_char
 5047 233e 00BF     		nop
 5048              	.L340:
 5049              		.loc 1 964 0 is_stmt 0 discriminator 2
 5050 2340 FFF7FEFF 		bl	e_uart1_sending
 5051 2344 0346     		mov	r3, r0
 5052 2346 002B     		cmp	r3, #0
 5053 2348 FAD1     		bne	.L340
 5054 234a 09E0     		b	.L338
 5055              	.L339:
 5056              		.loc 1 966 0 is_stmt 1
 5057 234c 3E21     		movs	r1, #62
 5058 234e 6448     		ldr	r0, .L511+32
 5059 2350 FFF7FEFF 		bl	e_send_uart2_char
 5060 2354 00BF     		nop
 5061              	.L341:
 5062              		.loc 1 966 0 is_stmt 0 discriminator 2
 5063 2356 FFF7FEFF 		bl	e_uart2_sending
 5064 235a 0346     		mov	r3, r0
 5065 235c 002B     		cmp	r3, #0
 5066 235e FAD1     		bne	.L341
 5067              	.L338:
 5068              		.loc 1 969 0 is_stmt 1
 5069 2360 0121     		movs	r1, #1
 5070 2362 0820     		movs	r0, #8
 5071 2364 FFF7FEFF 		bl	e_set_led
 5072              		.loc 1 970 0
 5073 2368 0023     		movs	r3, #0
 5074 236a 0C93     		str	r3, [sp, #48]
 5075 236c 02E0     		b	.L342
 5076              	.L343:
 5077              		.loc 1 970 0 is_stmt 0 discriminator 3
 5078 236e 0C9B     		ldr	r3, [sp, #48]
 5079 2370 0133     		adds	r3, r3, #1
 5080 2372 0C93     		str	r3, [sp, #48]
 5081              	.L342:
 5082              		.loc 1 970 0 discriminator 1
 5083 2374 0C9B     		ldr	r3, [sp, #48]
 5084 2376 5B4A     		ldr	r2, .L511+36
 5085 2378 9342     		cmp	r3, r2
 5086 237a F8DD     		ble	.L343
 5087              		.loc 1 971 0 is_stmt 1
 5088 237c 4FF4C870 		mov	r0, #400
 5089 2380 FFF7FEFF 		bl	chThdSleep
 5090              		.loc 1 972 0
 5091 2384 FFF7FEFF 		bl	e_led_clear
 5092              		.loc 1 973 0
 5093 2388 0023     		movs	r3, #0
 5094 238a 0C93     		str	r3, [sp, #48]
 5095 238c 02E0     		b	.L344
 5096              	.L345:
ARM GAS  C:\Users\Moi\AppData\Local\Temp\ccF5N8ze.s 			page 96


 5097              		.loc 1 973 0 is_stmt 0 discriminator 3
 5098 238e 0C9B     		ldr	r3, [sp, #48]
 5099 2390 0133     		adds	r3, r3, #1
 5100 2392 0C93     		str	r3, [sp, #48]
 5101              	.L344:
 5102              		.loc 1 973 0 discriminator 1
 5103 2394 0C9B     		ldr	r3, [sp, #48]
 5104 2396 42F20F72 		movw	r2, #9999
 5105 239a 9342     		cmp	r3, r2
 5106 239c F7DD     		ble	.L345
 5107              		.loc 1 974 0 is_stmt 1
 5108 239e 6420     		movs	r0, #100
 5109 23a0 FFF7FEFF 		bl	chThdSleep
 5110              		.loc 1 975 0
 5111 23a4 FFF7FEFF 		bl	e_calibrate_ir
 5112              		.loc 1 976 0
 5113 23a8 9DF82630 		ldrb	r3, [sp, #38]	@ zero_extendqisi2
 5114 23ac 002B     		cmp	r3, #0
 5115 23ae 40F0F484 		bne	.L463
 5116              		.loc 1 978 0
 5117 23b2 0B9B     		ldr	r3, [sp, #44]
 5118 23b4 002B     		cmp	r3, #0
 5119 23b6 0BD0     		beq	.L347
 5120              		.loc 1 979 0
 5121 23b8 1921     		movs	r1, #25
 5122 23ba 4B48     		ldr	r0, .L511+40
 5123 23bc FFF7FEFF 		bl	e_send_uart1_char
 5124 23c0 00BF     		nop
 5125              	.L348:
 5126              		.loc 1 979 0 is_stmt 0 discriminator 2
 5127 23c2 FFF7FEFF 		bl	e_uart1_sending
 5128 23c6 0346     		mov	r3, r0
 5129 23c8 002B     		cmp	r3, #0
 5130 23ca FAD1     		bne	.L348
 5131              		.loc 1 983 0 is_stmt 1
 5132 23cc 00F0E5BC 		b	.L463
 5133              	.L347:
 5134              		.loc 1 981 0
 5135 23d0 1921     		movs	r1, #25
 5136 23d2 4548     		ldr	r0, .L511+40
 5137 23d4 FFF7FEFF 		bl	e_send_uart2_char
 5138 23d8 00BF     		nop
 5139              	.L349:
 5140              		.loc 1 981 0 is_stmt 0 discriminator 2
 5141 23da FFF7FEFF 		bl	e_uart2_sending
 5142 23de 0346     		mov	r3, r0
 5143 23e0 002B     		cmp	r3, #0
 5144 23e2 FAD1     		bne	.L349
 5145              		.loc 1 983 0 is_stmt 1
 5146 23e4 00F0D9BC 		b	.L463
 5147              	.L203:
 5148              		.loc 1 985 0
 5149 23e8 404B     		ldr	r3, .L511+44
 5150 23ea 414A     		ldr	r2, .L511+48
 5151 23ec 4149     		ldr	r1, .L511+52
 5152 23ee 4248     		ldr	r0, .L511+56
 5153 23f0 FFF7FEFF 		bl	sscanf
ARM GAS  C:\Users\Moi\AppData\Local\Temp\ccF5N8ze.s 			page 97


 5154              		.loc 1 986 0
 5155 23f4 3E4B     		ldr	r3, .L511+48
 5156 23f6 1B68     		ldr	r3, [r3]
 5157 23f8 1A46     		mov	r2, r3
 5158 23fa 3C4B     		ldr	r3, .L511+44
 5159 23fc 1B68     		ldr	r3, [r3]
 5160 23fe 1946     		mov	r1, r3
 5161 2400 1046     		mov	r0, r2
 5162 2402 FFF7FEFF 		bl	e_set_led
 5163              		.loc 1 987 0
 5164 2406 9DF82630 		ldrb	r3, [sp, #38]	@ zero_extendqisi2
 5165 240a 002B     		cmp	r3, #0
 5166 240c 40F0C884 		bne	.L464
 5167              		.loc 1 989 0
 5168 2410 0B9B     		ldr	r3, [sp, #44]
 5169 2412 002B     		cmp	r3, #0
 5170 2414 0BD0     		beq	.L351
 5171              		.loc 1 990 0
 5172 2416 0321     		movs	r1, #3
 5173 2418 3848     		ldr	r0, .L511+60
 5174 241a FFF7FEFF 		bl	e_send_uart1_char
 5175 241e 00BF     		nop
 5176              	.L352:
 5177              		.loc 1 990 0 is_stmt 0 discriminator 2
 5178 2420 FFF7FEFF 		bl	e_uart1_sending
 5179 2424 0346     		mov	r3, r0
 5180 2426 002B     		cmp	r3, #0
 5181 2428 FAD1     		bne	.L352
 5182              		.loc 1 994 0 is_stmt 1
 5183 242a 00F0B9BC 		b	.L464
 5184              	.L351:
 5185              		.loc 1 992 0
 5186 242e 0321     		movs	r1, #3
 5187 2430 3248     		ldr	r0, .L511+60
 5188 2432 FFF7FEFF 		bl	e_send_uart2_char
 5189 2436 00BF     		nop
 5190              	.L353:
 5191              		.loc 1 992 0 is_stmt 0 discriminator 2
 5192 2438 FFF7FEFF 		bl	e_uart2_sending
 5193 243c 0346     		mov	r3, r0
 5194 243e 002B     		cmp	r3, #0
 5195 2440 FAD1     		bne	.L353
 5196              		.loc 1 994 0 is_stmt 1
 5197 2442 00F0ADBC 		b	.L464
 5198              	.L204:
 5199              		.loc 1 997 0
 5200 2446 9DF82630 		ldrb	r3, [sp, #38]	@ zero_extendqisi2
 5201 244a 002B     		cmp	r3, #0
 5202 244c 40F0AB84 		bne	.L465
 5203              		.loc 1 998 0
 5204 2450 FFF7FEFF 		bl	e_i2cp_enable
 5205              		.loc 1 999 0
 5206 2454 2A4B     		ldr	r3, .L511+64
 5207 2456 0022     		movs	r2, #0
 5208 2458 1A60     		str	r2, [r3]
 5209 245a 29E0     		b	.L355
 5210              	.L358:
ARM GAS  C:\Users\Moi\AppData\Local\Temp\ccF5N8ze.s 			page 98


 5211              		.loc 1 1000 0
 5212 245c 284B     		ldr	r3, .L511+64
 5213 245e 1B68     		ldr	r3, [r3]
 5214 2460 03F00103 		and	r3, r3, #1
 5215 2464 002B     		cmp	r3, #0
 5216 2466 0FD1     		bne	.L356
 5217              		.loc 1 1000 0 is_stmt 0 discriminator 1
 5218 2468 254B     		ldr	r3, .L511+64
 5219 246a 1B68     		ldr	r3, [r3]
 5220 246c DBB2     		uxtb	r3, r3
 5221 246e 0133     		adds	r3, r3, #1
 5222 2470 DAB2     		uxtb	r2, r3
 5223 2472 234B     		ldr	r3, .L511+64
 5224 2474 1C68     		ldr	r4, [r3]
 5225 2476 1146     		mov	r1, r2
 5226 2478 C020     		movs	r0, #192
 5227 247a FFF7FEFF 		bl	e_i2cp_read
 5228 247e 0346     		mov	r3, r0
 5229 2480 1A46     		mov	r2, r3
 5230 2482 1D4B     		ldr	r3, .L511+56
 5231 2484 1A55     		strb	r2, [r3, r4]
 5232 2486 0EE0     		b	.L357
 5233              	.L356:
 5234              		.loc 1 1001 0 is_stmt 1
 5235 2488 1D4B     		ldr	r3, .L511+64
 5236 248a 1B68     		ldr	r3, [r3]
 5237 248c DBB2     		uxtb	r3, r3
 5238 248e 013B     		subs	r3, r3, #1
 5239 2490 DAB2     		uxtb	r2, r3
 5240 2492 1B4B     		ldr	r3, .L511+64
 5241 2494 1C68     		ldr	r4, [r3]
 5242 2496 1146     		mov	r1, r2
 5243 2498 C020     		movs	r0, #192
 5244 249a FFF7FEFF 		bl	e_i2cp_read
 5245 249e 0346     		mov	r3, r0
 5246 24a0 1A46     		mov	r2, r3
 5247 24a2 154B     		ldr	r3, .L511+56
 5248 24a4 1A55     		strb	r2, [r3, r4]
 5249              	.L357:
 5250              		.loc 1 999 0 discriminator 2
 5251 24a6 164B     		ldr	r3, .L511+64
 5252 24a8 1B68     		ldr	r3, [r3]
 5253 24aa 0133     		adds	r3, r3, #1
 5254 24ac 144A     		ldr	r2, .L511+64
 5255 24ae 1360     		str	r3, [r2]
 5256              	.L355:
 5257              		.loc 1 999 0 is_stmt 0 discriminator 1
 5258 24b0 134B     		ldr	r3, .L511+64
 5259 24b2 1B68     		ldr	r3, [r3]
 5260 24b4 052B     		cmp	r3, #5
 5261 24b6 D1DD     		ble	.L358
 5262              		.loc 1 1004 0 is_stmt 1
 5263 24b8 114B     		ldr	r3, .L511+64
 5264 24ba 0D22     		movs	r2, #13
 5265 24bc 1A60     		str	r2, [r3]
 5266 24be 4DE0     		b	.L359
 5267              	.L512:
ARM GAS  C:\Users\Moi\AppData\Local\Temp\ccF5N8ze.s 			page 99


 5268              		.align	2
 5269              	.L511:
 5270 24c0 00000000 		.word	cam_width.13549
 5271 24c4 00000000 		.word	cam_heigth.13550
 5272 24c8 00000000 		.word	cam_size.13552
 5273 24cc 00000000 		.word	cam_mode.13548
 5274 24d0 00000000 		.word	cam_x1.13553
 5275 24d4 00000000 		.word	cam_zoom.13551
 5276 24d8 00000000 		.word	cam_y1.13554
 5277 24dc E8090000 		.word	.LC72
 5278 24e0 EC090000 		.word	.LC73
 5279 24e4 3F420F00 		.word	999999
 5280 24e8 2C0A0000 		.word	.LC74
 5281 24ec 00000000 		.word	LED_action.13540
 5282 24f0 00000000 		.word	LED_nbr.13539
 5283 24f4 480A0000 		.word	.LC75
 5284 24f8 00000000 		.word	buffer
 5285 24fc 540A0000 		.word	.LC76
 5286 2500 00000000 		.word	j.13533
 5287              	.L362:
 5288              		.loc 1 1005 0
 5289 2504 BA4B     		ldr	r3, .L513
 5290 2506 1B68     		ldr	r3, [r3]
 5291 2508 03F00103 		and	r3, r3, #1
 5292 250c 002B     		cmp	r3, #0
 5293 250e 10D1     		bne	.L360
 5294              		.loc 1 1005 0 is_stmt 0 discriminator 1
 5295 2510 B74B     		ldr	r3, .L513
 5296 2512 1B68     		ldr	r3, [r3]
 5297 2514 DBB2     		uxtb	r3, r3
 5298 2516 013B     		subs	r3, r3, #1
 5299 2518 DAB2     		uxtb	r2, r3
 5300 251a B54B     		ldr	r3, .L513
 5301 251c 1B68     		ldr	r3, [r3]
 5302 251e DC1F     		subs	r4, r3, #7
 5303 2520 1146     		mov	r1, r2
 5304 2522 C020     		movs	r0, #192
 5305 2524 FFF7FEFF 		bl	e_i2cp_read
 5306 2528 0346     		mov	r3, r0
 5307 252a 1A46     		mov	r2, r3
 5308 252c B14B     		ldr	r3, .L513+4
 5309 252e 1A55     		strb	r2, [r3, r4]
 5310 2530 0FE0     		b	.L361
 5311              	.L360:
 5312              		.loc 1 1006 0 is_stmt 1
 5313 2532 AF4B     		ldr	r3, .L513
 5314 2534 1B68     		ldr	r3, [r3]
 5315 2536 DBB2     		uxtb	r3, r3
 5316 2538 0133     		adds	r3, r3, #1
 5317 253a DAB2     		uxtb	r2, r3
 5318 253c AC4B     		ldr	r3, .L513
 5319 253e 1B68     		ldr	r3, [r3]
 5320 2540 DC1F     		subs	r4, r3, #7
 5321 2542 1146     		mov	r1, r2
 5322 2544 C020     		movs	r0, #192
 5323 2546 FFF7FEFF 		bl	e_i2cp_read
 5324 254a 0346     		mov	r3, r0
ARM GAS  C:\Users\Moi\AppData\Local\Temp\ccF5N8ze.s 			page 100


 5325 254c 1A46     		mov	r2, r3
 5326 254e A94B     		ldr	r3, .L513+4
 5327 2550 1A55     		strb	r2, [r3, r4]
 5328              	.L361:
 5329              		.loc 1 1004 0 discriminator 2
 5330 2552 A74B     		ldr	r3, .L513
 5331 2554 1B68     		ldr	r3, [r3]
 5332 2556 0133     		adds	r3, r3, #1
 5333 2558 A54A     		ldr	r2, .L513
 5334 255a 1360     		str	r3, [r2]
 5335              	.L359:
 5336              		.loc 1 1004 0 is_stmt 0 discriminator 1
 5337 255c A44B     		ldr	r3, .L513
 5338 255e 1B68     		ldr	r3, [r3]
 5339 2560 102B     		cmp	r3, #16
 5340 2562 CFDD     		ble	.L362
 5341              		.loc 1 1009 0 is_stmt 1
 5342 2564 FFF7FEFF 		bl	e_i2cp_disable
 5343              		.loc 1 1013 0
 5344 2568 A24B     		ldr	r3, .L513+4
 5345 256a 1B78     		ldrb	r3, [r3]	@ zero_extendqisi2
 5346 256c 1A46     		mov	r2, r3
 5347              		.loc 1 1014 0
 5348 256e A14B     		ldr	r3, .L513+4
 5349 2570 5B78     		ldrb	r3, [r3, #1]	@ zero_extendqisi2
 5350 2572 1B02     		lsls	r3, r3, #8
 5351              		.loc 1 1012 0
 5352 2574 D018     		adds	r0, r2, r3
 5353              		.loc 1 1015 0
 5354 2576 9F4B     		ldr	r3, .L513+4
 5355 2578 9B78     		ldrb	r3, [r3, #2]	@ zero_extendqisi2
 5356 257a 1A46     		mov	r2, r3
 5357              		.loc 1 1016 0
 5358 257c 9D4B     		ldr	r3, .L513+4
 5359 257e DB78     		ldrb	r3, [r3, #3]	@ zero_extendqisi2
 5360 2580 1B02     		lsls	r3, r3, #8
 5361              		.loc 1 1012 0
 5362 2582 D418     		adds	r4, r2, r3
 5363              		.loc 1 1017 0
 5364 2584 9B4B     		ldr	r3, .L513+4
 5365 2586 1B79     		ldrb	r3, [r3, #4]	@ zero_extendqisi2
 5366 2588 1A46     		mov	r2, r3
 5367              		.loc 1 1018 0
 5368 258a 9A4B     		ldr	r3, .L513+4
 5369 258c 5B79     		ldrb	r3, [r3, #5]	@ zero_extendqisi2
 5370 258e 1B02     		lsls	r3, r3, #8
 5371              		.loc 1 1012 0
 5372 2590 1344     		add	r3, r3, r2
 5373              		.loc 1 1019 0
 5374 2592 984A     		ldr	r2, .L513+4
 5375 2594 9279     		ldrb	r2, [r2, #6]	@ zero_extendqisi2
 5376 2596 1146     		mov	r1, r2
 5377              		.loc 1 1020 0
 5378 2598 964A     		ldr	r2, .L513+4
 5379 259a D279     		ldrb	r2, [r2, #7]	@ zero_extendqisi2
 5380 259c 1202     		lsls	r2, r2, #8
 5381              		.loc 1 1012 0
ARM GAS  C:\Users\Moi\AppData\Local\Temp\ccF5N8ze.s 			page 101


 5382 259e 0A44     		add	r2, r2, r1
 5383              		.loc 1 1021 0
 5384 25a0 9449     		ldr	r1, .L513+4
 5385 25a2 097A     		ldrb	r1, [r1, #8]	@ zero_extendqisi2
 5386 25a4 0D46     		mov	r5, r1
 5387              		.loc 1 1022 0
 5388 25a6 9349     		ldr	r1, .L513+4
 5389 25a8 497A     		ldrb	r1, [r1, #9]	@ zero_extendqisi2
 5390 25aa 0902     		lsls	r1, r1, #8
 5391              		.loc 1 1012 0
 5392 25ac 2944     		add	r1, r1, r5
 5393 25ae 0291     		str	r1, [sp, #8]
 5394 25b0 0192     		str	r2, [sp, #4]
 5395 25b2 0093     		str	r3, [sp]
 5396 25b4 2346     		mov	r3, r4
 5397 25b6 0246     		mov	r2, r0
 5398 25b8 8F49     		ldr	r1, .L513+8
 5399 25ba 8E48     		ldr	r0, .L513+4
 5400 25bc FFF7FEFF 		bl	sprintf
 5401              		.loc 1 1032 0
 5402 25c0 0B9B     		ldr	r3, [sp, #44]
 5403 25c2 002B     		cmp	r3, #0
 5404 25c4 0ED0     		beq	.L363
 5405              		.loc 1 1033 0
 5406 25c6 8B48     		ldr	r0, .L513+4
 5407 25c8 FFF7FEFF 		bl	strlen
 5408 25cc 0346     		mov	r3, r0
 5409 25ce 1946     		mov	r1, r3
 5410 25d0 8848     		ldr	r0, .L513+4
 5411 25d2 FFF7FEFF 		bl	e_send_uart1_char
 5412 25d6 00BF     		nop
 5413              	.L364:
 5414              		.loc 1 1033 0 is_stmt 0 discriminator 2
 5415 25d8 FFF7FEFF 		bl	e_uart1_sending
 5416 25dc 0346     		mov	r3, r0
 5417 25de 002B     		cmp	r3, #0
 5418 25e0 FAD1     		bne	.L364
 5419              		.loc 1 1047 0 is_stmt 1
 5420 25e2 E0E3     		b	.L465
 5421              	.L363:
 5422              		.loc 1 1035 0
 5423 25e4 8348     		ldr	r0, .L513+4
 5424 25e6 FFF7FEFF 		bl	strlen
 5425 25ea 0346     		mov	r3, r0
 5426 25ec 1946     		mov	r1, r3
 5427 25ee 8148     		ldr	r0, .L513+4
 5428 25f0 FFF7FEFF 		bl	e_send_uart2_char
 5429 25f4 00BF     		nop
 5430              	.L365:
 5431              		.loc 1 1035 0 is_stmt 0 discriminator 2
 5432 25f6 FFF7FEFF 		bl	e_uart2_sending
 5433 25fa 0346     		mov	r3, r0
 5434 25fc 002B     		cmp	r3, #0
 5435 25fe FAD1     		bne	.L365
 5436              		.loc 1 1047 0 is_stmt 1
 5437 2600 D1E3     		b	.L465
 5438              	.L205:
ARM GAS  C:\Users\Moi\AppData\Local\Temp\ccF5N8ze.s 			page 102


 5439              		.loc 1 1049 0
 5440 2602 0020     		movs	r0, #0
 5441 2604 FFF7FEFF 		bl	e_get_calibrated_prox
 5442 2608 8046     		mov	r8, r0
 5443 260a 0120     		movs	r0, #1
 5444 260c FFF7FEFF 		bl	e_get_calibrated_prox
 5445 2610 8146     		mov	r9, r0
 5446 2612 0220     		movs	r0, #2
 5447 2614 FFF7FEFF 		bl	e_get_calibrated_prox
 5448 2618 0446     		mov	r4, r0
 5449 261a 0320     		movs	r0, #3
 5450 261c FFF7FEFF 		bl	e_get_calibrated_prox
 5451 2620 0546     		mov	r5, r0
 5452 2622 0420     		movs	r0, #4
 5453 2624 FFF7FEFF 		bl	e_get_calibrated_prox
 5454 2628 0646     		mov	r6, r0
 5455 262a 0520     		movs	r0, #5
 5456 262c FFF7FEFF 		bl	e_get_calibrated_prox
 5457 2630 0746     		mov	r7, r0
 5458 2632 0620     		movs	r0, #6
 5459 2634 FFF7FEFF 		bl	e_get_calibrated_prox
 5460 2638 0790     		str	r0, [sp, #28]
 5461 263a 0720     		movs	r0, #7
 5462 263c FFF7FEFF 		bl	e_get_calibrated_prox
 5463 2640 0346     		mov	r3, r0
 5464 2642 0593     		str	r3, [sp, #20]
 5465 2644 079B     		ldr	r3, [sp, #28]
 5466 2646 0493     		str	r3, [sp, #16]
 5467 2648 0397     		str	r7, [sp, #12]
 5468 264a 0296     		str	r6, [sp, #8]
 5469 264c 0195     		str	r5, [sp, #4]
 5470 264e 0094     		str	r4, [sp]
 5471 2650 4B46     		mov	r3, r9
 5472 2652 4246     		mov	r2, r8
 5473 2654 6949     		ldr	r1, .L513+12
 5474 2656 6748     		ldr	r0, .L513+4
 5475 2658 FFF7FEFF 		bl	sprintf
 5476              		.loc 1 1052 0
 5477 265c 9DF82630 		ldrb	r3, [sp, #38]	@ zero_extendqisi2
 5478 2660 002B     		cmp	r3, #0
 5479 2662 40F0A383 		bne	.L466
 5480              		.loc 1 1054 0
 5481 2666 0B9B     		ldr	r3, [sp, #44]
 5482 2668 002B     		cmp	r3, #0
 5483 266a 0ED0     		beq	.L367
 5484              		.loc 1 1055 0
 5485 266c 6148     		ldr	r0, .L513+4
 5486 266e FFF7FEFF 		bl	strlen
 5487 2672 0346     		mov	r3, r0
 5488 2674 1946     		mov	r1, r3
 5489 2676 5F48     		ldr	r0, .L513+4
 5490 2678 FFF7FEFF 		bl	e_send_uart1_char
 5491 267c 00BF     		nop
 5492              	.L368:
 5493              		.loc 1 1055 0 is_stmt 0 discriminator 2
 5494 267e FFF7FEFF 		bl	e_uart1_sending
 5495 2682 0346     		mov	r3, r0
ARM GAS  C:\Users\Moi\AppData\Local\Temp\ccF5N8ze.s 			page 103


 5496 2684 002B     		cmp	r3, #0
 5497 2686 FAD1     		bne	.L368
 5498              		.loc 1 1059 0 is_stmt 1
 5499 2688 90E3     		b	.L466
 5500              	.L367:
 5501              		.loc 1 1057 0
 5502 268a 5A48     		ldr	r0, .L513+4
 5503 268c FFF7FEFF 		bl	strlen
 5504 2690 0346     		mov	r3, r0
 5505 2692 1946     		mov	r1, r3
 5506 2694 5748     		ldr	r0, .L513+4
 5507 2696 FFF7FEFF 		bl	e_send_uart2_char
 5508 269a 00BF     		nop
 5509              	.L369:
 5510              		.loc 1 1057 0 is_stmt 0 discriminator 2
 5511 269c FFF7FEFF 		bl	e_uart2_sending
 5512 26a0 0346     		mov	r3, r0
 5513 26a2 002B     		cmp	r3, #0
 5514 26a4 FAD1     		bne	.L369
 5515              		.loc 1 1059 0 is_stmt 1
 5516 26a6 81E3     		b	.L466
 5517              	.L206:
 5518              		.loc 1 1061 0
 5519 26a8 0020     		movs	r0, #0
 5520 26aa FFF7FEFF 		bl	e_get_ambient_light
 5521 26ae 8046     		mov	r8, r0
 5522 26b0 0120     		movs	r0, #1
 5523 26b2 FFF7FEFF 		bl	e_get_ambient_light
 5524 26b6 8146     		mov	r9, r0
 5525 26b8 0220     		movs	r0, #2
 5526 26ba FFF7FEFF 		bl	e_get_ambient_light
 5527 26be 0446     		mov	r4, r0
 5528 26c0 0320     		movs	r0, #3
 5529 26c2 FFF7FEFF 		bl	e_get_ambient_light
 5530 26c6 0546     		mov	r5, r0
 5531 26c8 0420     		movs	r0, #4
 5532 26ca FFF7FEFF 		bl	e_get_ambient_light
 5533 26ce 0646     		mov	r6, r0
 5534 26d0 0520     		movs	r0, #5
 5535 26d2 FFF7FEFF 		bl	e_get_ambient_light
 5536 26d6 0746     		mov	r7, r0
 5537 26d8 0620     		movs	r0, #6
 5538 26da FFF7FEFF 		bl	e_get_ambient_light
 5539 26de 0790     		str	r0, [sp, #28]
 5540 26e0 0720     		movs	r0, #7
 5541 26e2 FFF7FEFF 		bl	e_get_ambient_light
 5542 26e6 0346     		mov	r3, r0
 5543 26e8 0593     		str	r3, [sp, #20]
 5544 26ea 079B     		ldr	r3, [sp, #28]
 5545 26ec 0493     		str	r3, [sp, #16]
 5546 26ee 0397     		str	r7, [sp, #12]
 5547 26f0 0296     		str	r6, [sp, #8]
 5548 26f2 0195     		str	r5, [sp, #4]
 5549 26f4 0094     		str	r4, [sp]
 5550 26f6 4B46     		mov	r3, r9
 5551 26f8 4246     		mov	r2, r8
 5552 26fa 4149     		ldr	r1, .L513+16
ARM GAS  C:\Users\Moi\AppData\Local\Temp\ccF5N8ze.s 			page 104


 5553 26fc 3D48     		ldr	r0, .L513+4
 5554 26fe FFF7FEFF 		bl	sprintf
 5555              		.loc 1 1064 0
 5556 2702 9DF82630 		ldrb	r3, [sp, #38]	@ zero_extendqisi2
 5557 2706 002B     		cmp	r3, #0
 5558 2708 40F05383 		bne	.L467
 5559              		.loc 1 1066 0
 5560 270c 0B9B     		ldr	r3, [sp, #44]
 5561 270e 002B     		cmp	r3, #0
 5562 2710 0ED0     		beq	.L371
 5563              		.loc 1 1067 0
 5564 2712 3848     		ldr	r0, .L513+4
 5565 2714 FFF7FEFF 		bl	strlen
 5566 2718 0346     		mov	r3, r0
 5567 271a 1946     		mov	r1, r3
 5568 271c 3548     		ldr	r0, .L513+4
 5569 271e FFF7FEFF 		bl	e_send_uart1_char
 5570 2722 00BF     		nop
 5571              	.L372:
 5572              		.loc 1 1067 0 is_stmt 0 discriminator 2
 5573 2724 FFF7FEFF 		bl	e_uart1_sending
 5574 2728 0346     		mov	r3, r0
 5575 272a 002B     		cmp	r3, #0
 5576 272c FAD1     		bne	.L372
 5577              		.loc 1 1071 0 is_stmt 1
 5578 272e 40E3     		b	.L467
 5579              	.L371:
 5580              		.loc 1 1069 0
 5581 2730 3048     		ldr	r0, .L513+4
 5582 2732 FFF7FEFF 		bl	strlen
 5583 2736 0346     		mov	r3, r0
 5584 2738 1946     		mov	r1, r3
 5585 273a 2E48     		ldr	r0, .L513+4
 5586 273c FFF7FEFF 		bl	e_send_uart2_char
 5587 2740 00BF     		nop
 5588              	.L373:
 5589              		.loc 1 1069 0 is_stmt 0 discriminator 2
 5590 2742 FFF7FEFF 		bl	e_uart2_sending
 5591 2746 0346     		mov	r3, r0
 5592 2748 002B     		cmp	r3, #0
 5593 274a FAD1     		bne	.L373
 5594              		.loc 1 1071 0 is_stmt 1
 5595 274c 31E3     		b	.L467
 5596              	.L207:
 5597              		.loc 1 1073 0
 5598 274e 2D4B     		ldr	r3, .L513+20
 5599 2750 2D4A     		ldr	r2, .L513+24
 5600 2752 2E49     		ldr	r1, .L513+28
 5601 2754 2748     		ldr	r0, .L513+4
 5602 2756 FFF7FEFF 		bl	sscanf
 5603              		.loc 1 1074 0
 5604 275a 2B4B     		ldr	r3, .L513+24
 5605 275c 1B68     		ldr	r3, [r3]
 5606 275e 1846     		mov	r0, r3
 5607 2760 FFF7FEFF 		bl	e_set_steps_left
 5608              		.loc 1 1075 0
 5609 2764 274B     		ldr	r3, .L513+20
ARM GAS  C:\Users\Moi\AppData\Local\Temp\ccF5N8ze.s 			page 105


 5610 2766 1B68     		ldr	r3, [r3]
 5611 2768 1846     		mov	r0, r3
 5612 276a FFF7FEFF 		bl	e_set_steps_right
 5613              		.loc 1 1076 0
 5614 276e 9DF82630 		ldrb	r3, [sp, #38]	@ zero_extendqisi2
 5615 2772 002B     		cmp	r3, #0
 5616 2774 40F02083 		bne	.L468
 5617              		.loc 1 1078 0
 5618 2778 0B9B     		ldr	r3, [sp, #44]
 5619 277a 002B     		cmp	r3, #0
 5620 277c 0AD0     		beq	.L375
 5621              		.loc 1 1079 0
 5622 277e 0321     		movs	r1, #3
 5623 2780 2348     		ldr	r0, .L513+32
 5624 2782 FFF7FEFF 		bl	e_send_uart1_char
 5625 2786 00BF     		nop
 5626              	.L376:
 5627              		.loc 1 1079 0 is_stmt 0 discriminator 2
 5628 2788 FFF7FEFF 		bl	e_uart1_sending
 5629 278c 0346     		mov	r3, r0
 5630 278e 002B     		cmp	r3, #0
 5631 2790 FAD1     		bne	.L376
 5632              		.loc 1 1083 0 is_stmt 1
 5633 2792 11E3     		b	.L468
 5634              	.L375:
 5635              		.loc 1 1081 0
 5636 2794 0321     		movs	r1, #3
 5637 2796 1E48     		ldr	r0, .L513+32
 5638 2798 FFF7FEFF 		bl	e_send_uart2_char
 5639 279c 00BF     		nop
 5640              	.L377:
 5641              		.loc 1 1081 0 is_stmt 0 discriminator 2
 5642 279e FFF7FEFF 		bl	e_uart2_sending
 5643 27a2 0346     		mov	r3, r0
 5644 27a4 002B     		cmp	r3, #0
 5645 27a6 FAD1     		bne	.L377
 5646              		.loc 1 1083 0 is_stmt 1
 5647 27a8 06E3     		b	.L468
 5648              	.L208:
 5649              		.loc 1 1085 0
 5650 27aa FFF7FEFF 		bl	e_get_steps_left
 5651 27ae 0446     		mov	r4, r0
 5652 27b0 FFF7FEFF 		bl	e_get_steps_right
 5653 27b4 0346     		mov	r3, r0
 5654 27b6 2246     		mov	r2, r4
 5655 27b8 1649     		ldr	r1, .L513+36
 5656 27ba 0E48     		ldr	r0, .L513+4
 5657 27bc FFF7FEFF 		bl	sprintf
 5658              		.loc 1 1086 0
 5659 27c0 9DF82630 		ldrb	r3, [sp, #38]	@ zero_extendqisi2
 5660 27c4 002B     		cmp	r3, #0
 5661 27c6 40F0FA82 		bne	.L469
 5662              		.loc 1 1088 0
 5663 27ca 0B9B     		ldr	r3, [sp, #44]
 5664 27cc 002B     		cmp	r3, #0
 5665 27ce 23D0     		beq	.L379
 5666              		.loc 1 1089 0
ARM GAS  C:\Users\Moi\AppData\Local\Temp\ccF5N8ze.s 			page 106


 5667 27d0 0848     		ldr	r0, .L513+4
 5668 27d2 FFF7FEFF 		bl	strlen
 5669 27d6 0346     		mov	r3, r0
 5670 27d8 1946     		mov	r1, r3
 5671 27da 0648     		ldr	r0, .L513+4
 5672 27dc FFF7FEFF 		bl	e_send_uart1_char
 5673 27e0 00BF     		nop
 5674              	.L380:
 5675              		.loc 1 1089 0 is_stmt 0 discriminator 2
 5676 27e2 FFF7FEFF 		bl	e_uart1_sending
 5677 27e6 0346     		mov	r3, r0
 5678 27e8 002B     		cmp	r3, #0
 5679 27ea FAD1     		bne	.L380
 5680              		.loc 1 1093 0 is_stmt 1
 5681 27ec E7E2     		b	.L469
 5682              	.L514:
 5683 27ee 00BF     		.align	2
 5684              	.L513:
 5685 27f0 00000000 		.word	j.13533
 5686 27f4 00000000 		.word	buffer
 5687 27f8 580A0000 		.word	.LC77
 5688 27fc 6C0A0000 		.word	.LC78
 5689 2800 880A0000 		.word	.LC79
 5690 2804 00000000 		.word	positionr.13537
 5691 2808 00000000 		.word	positionl.13538
 5692 280c A40A0000 		.word	.LC80
 5693 2810 B00A0000 		.word	.LC81
 5694 2814 B40A0000 		.word	.LC82
 5695              	.L379:
 5696              		.loc 1 1091 0
 5697 2818 C148     		ldr	r0, .L515
 5698 281a FFF7FEFF 		bl	strlen
 5699 281e 0346     		mov	r3, r0
 5700 2820 1946     		mov	r1, r3
 5701 2822 BF48     		ldr	r0, .L515
 5702 2824 FFF7FEFF 		bl	e_send_uart2_char
 5703 2828 00BF     		nop
 5704              	.L381:
 5705              		.loc 1 1091 0 is_stmt 0 discriminator 2
 5706 282a FFF7FEFF 		bl	e_uart2_sending
 5707 282e 0346     		mov	r3, r0
 5708 2830 002B     		cmp	r3, #0
 5709 2832 FAD1     		bne	.L381
 5710              		.loc 1 1093 0 is_stmt 1
 5711 2834 C3E2     		b	.L469
 5712              	.L210:
 5713              		.loc 1 1103 0
 5714 2836 0020     		movs	r0, #0
 5715 2838 FFF7FEFF 		bl	e_set_speed_left
 5716              		.loc 1 1104 0
 5717 283c 0020     		movs	r0, #0
 5718 283e FFF7FEFF 		bl	e_set_speed_right
 5719              		.loc 1 1105 0
 5720 2842 0021     		movs	r1, #0
 5721 2844 0820     		movs	r0, #8
 5722 2846 FFF7FEFF 		bl	e_set_led
 5723              		.loc 1 1106 0
ARM GAS  C:\Users\Moi\AppData\Local\Temp\ccF5N8ze.s 			page 107


 5724 284a 9DF82630 		ldrb	r3, [sp, #38]	@ zero_extendqisi2
 5725 284e 002B     		cmp	r3, #0
 5726 2850 40F0B882 		bne	.L470
 5727              		.loc 1 1108 0
 5728 2854 0B9B     		ldr	r3, [sp, #44]
 5729 2856 002B     		cmp	r3, #0
 5730 2858 0AD0     		beq	.L383
 5731              		.loc 1 1109 0
 5732 285a 0321     		movs	r1, #3
 5733 285c B148     		ldr	r0, .L515+4
 5734 285e FFF7FEFF 		bl	e_send_uart1_char
 5735 2862 00BF     		nop
 5736              	.L384:
 5737              		.loc 1 1109 0 is_stmt 0 discriminator 2
 5738 2864 FFF7FEFF 		bl	e_uart1_sending
 5739 2868 0346     		mov	r3, r0
 5740 286a 002B     		cmp	r3, #0
 5741 286c FAD1     		bne	.L384
 5742              		.loc 1 1113 0 is_stmt 1
 5743 286e A9E2     		b	.L470
 5744              	.L383:
 5745              		.loc 1 1111 0
 5746 2870 0321     		movs	r1, #3
 5747 2872 AC48     		ldr	r0, .L515+4
 5748 2874 FFF7FEFF 		bl	e_send_uart2_char
 5749 2878 00BF     		nop
 5750              	.L385:
 5751              		.loc 1 1111 0 is_stmt 0 discriminator 2
 5752 287a FFF7FEFF 		bl	e_uart2_sending
 5753 287e 0346     		mov	r3, r0
 5754 2880 002B     		cmp	r3, #0
 5755 2882 FAD1     		bne	.L385
 5756              		.loc 1 1113 0 is_stmt 1
 5757 2884 9EE2     		b	.L470
 5758              	.L211:
 5759              		.loc 1 1115 0
 5760 2886 A84A     		ldr	r2, .L515+8
 5761 2888 A849     		ldr	r1, .L515+12
 5762 288a A548     		ldr	r0, .L515
 5763 288c FFF7FEFF 		bl	sscanf
 5764              		.loc 1 1116 0
 5765 2890 A74B     		ldr	r3, .L515+16
 5766 2892 1B78     		ldrb	r3, [r3]	@ zero_extendqisi2
 5767 2894 002B     		cmp	r3, #0
 5768 2896 04D1     		bne	.L386
 5769              		.loc 1 1117 0
 5770 2898 FFF7FEFF 		bl	e_init_sound
 5771              		.loc 1 1118 0
 5772 289c A44B     		ldr	r3, .L515+16
 5773 289e 0122     		movs	r2, #1
 5774 28a0 1A70     		strb	r2, [r3]
 5775              	.L386:
 5776              		.loc 1 1120 0
 5777 28a2 A14B     		ldr	r3, .L515+8
 5778 28a4 1B68     		ldr	r3, [r3]
 5779 28a6 013B     		subs	r3, r3, #1
 5780 28a8 042B     		cmp	r3, #4
ARM GAS  C:\Users\Moi\AppData\Local\Temp\ccF5N8ze.s 			page 108


 5781 28aa 2DD8     		bhi	.L387
 5782 28ac 01A2     		adr	r2, .L389
 5783 28ae 52F823F0 		ldr	pc, [r2, r3, lsl #2]
 5784 28b2 00BF     		.p2align 2
 5785              	.L389:
 5786 28b4 C9280000 		.word	.L388+1
 5787 28b8 D5280000 		.word	.L390+1
 5788 28bc E1280000 		.word	.L391+1
 5789 28c0 ED280000 		.word	.L392+1
 5790 28c4 FB280000 		.word	.L393+1
 5791              		.p2align 1
 5792              	.L388:
 5793              		.loc 1 1121 0
 5794 28c8 0022     		movs	r2, #0
 5795 28ca 0221     		movs	r1, #2
 5796 28cc 0320     		movs	r0, #3
 5797 28ce FFF7FEFF 		bl	playMelody
 5798              		.loc 1 1122 0
 5799 28d2 21E0     		b	.L394
 5800              	.L390:
 5801              		.loc 1 1123 0
 5802 28d4 0022     		movs	r2, #0
 5803 28d6 0221     		movs	r1, #2
 5804 28d8 0420     		movs	r0, #4
 5805 28da FFF7FEFF 		bl	playMelody
 5806              		.loc 1 1124 0
 5807 28de 1BE0     		b	.L394
 5808              	.L391:
 5809              		.loc 1 1125 0
 5810 28e0 0022     		movs	r2, #0
 5811 28e2 0221     		movs	r1, #2
 5812 28e4 0B20     		movs	r0, #11
 5813 28e6 FFF7FEFF 		bl	playMelody
 5814              		.loc 1 1126 0
 5815 28ea 15E0     		b	.L394
 5816              	.L392:
 5817              		.loc 1 1127 0
 5818 28ec 40F69461 		movw	r1, #3732
 5819 28f0 41F67E40 		movw	r0, #7294
 5820 28f4 FFF7FEFF 		bl	e_play_sound
 5821              		.loc 1 1128 0
 5822 28f8 0EE0     		b	.L394
 5823              	.L393:
 5824              		.loc 1 1129 0
 5825 28fa 41F65071 		movw	r1, #8016
 5826 28fe 42F61430 		movw	r0, #11028
 5827 2902 FFF7FEFF 		bl	e_play_sound
 5828              		.loc 1 1130 0
 5829 2906 07E0     		b	.L394
 5830              	.L387:
 5831              		.loc 1 1132 0
 5832 2908 FFF7FEFF 		bl	e_close_sound
 5833              		.loc 1 1133 0
 5834 290c FFF7FEFF 		bl	stopCurrentMelody
 5835              		.loc 1 1134 0
 5836 2910 874B     		ldr	r3, .L515+16
 5837 2912 0022     		movs	r2, #0
ARM GAS  C:\Users\Moi\AppData\Local\Temp\ccF5N8ze.s 			page 109


 5838 2914 1A70     		strb	r2, [r3]
 5839              		.loc 1 1135 0
 5840 2916 00BF     		nop
 5841              	.L394:
 5842              		.loc 1 1137 0
 5843 2918 9DF82630 		ldrb	r3, [sp, #38]	@ zero_extendqisi2
 5844 291c 002B     		cmp	r3, #0
 5845 291e 40F05482 		bne	.L471
 5846              		.loc 1 1139 0
 5847 2922 0B9B     		ldr	r3, [sp, #44]
 5848 2924 002B     		cmp	r3, #0
 5849 2926 0AD0     		beq	.L396
 5850              		.loc 1 1140 0
 5851 2928 0321     		movs	r1, #3
 5852 292a 8248     		ldr	r0, .L515+20
 5853 292c FFF7FEFF 		bl	e_send_uart1_char
 5854 2930 00BF     		nop
 5855              	.L397:
 5856              		.loc 1 1140 0 is_stmt 0 discriminator 2
 5857 2932 FFF7FEFF 		bl	e_uart1_sending
 5858 2936 0346     		mov	r3, r0
 5859 2938 002B     		cmp	r3, #0
 5860 293a FAD1     		bne	.L397
 5861              		.loc 1 1144 0 is_stmt 1
 5862 293c 45E2     		b	.L471
 5863              	.L396:
 5864              		.loc 1 1142 0
 5865 293e 0321     		movs	r1, #3
 5866 2940 7C48     		ldr	r0, .L515+20
 5867 2942 FFF7FEFF 		bl	e_send_uart2_char
 5868 2946 00BF     		nop
 5869              	.L398:
 5870              		.loc 1 1142 0 is_stmt 0 discriminator 2
 5871 2948 FFF7FEFF 		bl	e_uart2_sending
 5872 294c 0346     		mov	r3, r0
 5873 294e 002B     		cmp	r3, #0
 5874 2950 FAD1     		bne	.L398
 5875              		.loc 1 1144 0 is_stmt 1
 5876 2952 3AE2     		b	.L471
 5877              	.L219:
 5878              		.loc 1 1147 0
 5879 2954 9DF82630 		ldrb	r3, [sp, #38]	@ zero_extendqisi2
 5880 2958 002B     		cmp	r3, #0
 5881 295a 08D1     		bne	.L399
 5882              		.loc 1 1148 0
 5883 295c FFF7FEFF 		bl	getTemperature
 5884 2960 0346     		mov	r3, r0
 5885 2962 1A46     		mov	r2, r3
 5886 2964 7449     		ldr	r1, .L515+24
 5887 2966 6E48     		ldr	r0, .L515
 5888 2968 FFF7FEFF 		bl	sprintf
 5889 296c 05E0     		b	.L400
 5890              	.L399:
 5891              		.loc 1 1150 0
 5892 296e 6C4B     		ldr	r3, .L515
 5893 2970 724A     		ldr	r2, .L515+28
 5894 2972 1068     		ldr	r0, [r2]
ARM GAS  C:\Users\Moi\AppData\Local\Temp\ccF5N8ze.s 			page 110


 5895 2974 1860     		str	r0, [r3]	@ unaligned
 5896 2976 9288     		ldrh	r2, [r2, #4]	@ unaligned
 5897 2978 9A80     		strh	r2, [r3, #4]	@ unaligned
 5898              	.L400:
 5899              		.loc 1 1152 0
 5900 297a 9DF82630 		ldrb	r3, [sp, #38]	@ zero_extendqisi2
 5901 297e 002B     		cmp	r3, #0
 5902 2980 40F02682 		bne	.L472
 5903              		.loc 1 1154 0
 5904 2984 0B9B     		ldr	r3, [sp, #44]
 5905 2986 002B     		cmp	r3, #0
 5906 2988 0ED0     		beq	.L402
 5907              		.loc 1 1155 0
 5908 298a 6548     		ldr	r0, .L515
 5909 298c FFF7FEFF 		bl	strlen
 5910 2990 0346     		mov	r3, r0
 5911 2992 1946     		mov	r1, r3
 5912 2994 6248     		ldr	r0, .L515
 5913 2996 FFF7FEFF 		bl	e_send_uart1_char
 5914 299a 00BF     		nop
 5915              	.L403:
 5916              		.loc 1 1155 0 is_stmt 0 discriminator 2
 5917 299c FFF7FEFF 		bl	e_uart1_sending
 5918 29a0 0346     		mov	r3, r0
 5919 29a2 002B     		cmp	r3, #0
 5920 29a4 FAD1     		bne	.L403
 5921              		.loc 1 1159 0 is_stmt 1
 5922 29a6 13E2     		b	.L472
 5923              	.L402:
 5924              		.loc 1 1157 0
 5925 29a8 5D48     		ldr	r0, .L515
 5926 29aa FFF7FEFF 		bl	strlen
 5927 29ae 0346     		mov	r3, r0
 5928 29b0 1946     		mov	r1, r3
 5929 29b2 5B48     		ldr	r0, .L515
 5930 29b4 FFF7FEFF 		bl	e_send_uart2_char
 5931 29b8 00BF     		nop
 5932              	.L404:
 5933              		.loc 1 1157 0 is_stmt 0 discriminator 2
 5934 29ba FFF7FEFF 		bl	e_uart2_sending
 5935 29be 0346     		mov	r3, r0
 5936 29c0 002B     		cmp	r3, #0
 5937 29c2 FAD1     		bne	.L404
 5938              		.loc 1 1159 0 is_stmt 1
 5939 29c4 04E2     		b	.L472
 5940              	.L212:
 5941              		.loc 1 1162 0
 5942 29c6 0020     		movs	r0, #0
 5943 29c8 FFF7FEFF 		bl	e_get_micro_volume
 5944 29cc 0446     		mov	r4, r0
 5945 29ce 0120     		movs	r0, #1
 5946 29d0 FFF7FEFF 		bl	e_get_micro_volume
 5947 29d4 0546     		mov	r5, r0
 5948 29d6 0220     		movs	r0, #2
 5949 29d8 FFF7FEFF 		bl	e_get_micro_volume
 5950 29dc 0346     		mov	r3, r0
 5951 29de 0093     		str	r3, [sp]
ARM GAS  C:\Users\Moi\AppData\Local\Temp\ccF5N8ze.s 			page 111


 5952 29e0 2B46     		mov	r3, r5
 5953 29e2 2246     		mov	r2, r4
 5954 29e4 5649     		ldr	r1, .L515+32
 5955 29e6 4E48     		ldr	r0, .L515
 5956 29e8 FFF7FEFF 		bl	sprintf
 5957              		.loc 1 1163 0
 5958 29ec 9DF82630 		ldrb	r3, [sp, #38]	@ zero_extendqisi2
 5959 29f0 002B     		cmp	r3, #0
 5960 29f2 40F0F081 		bne	.L473
 5961              		.loc 1 1165 0
 5962 29f6 0B9B     		ldr	r3, [sp, #44]
 5963 29f8 002B     		cmp	r3, #0
 5964 29fa 0ED0     		beq	.L406
 5965              		.loc 1 1166 0
 5966 29fc 4848     		ldr	r0, .L515
 5967 29fe FFF7FEFF 		bl	strlen
 5968 2a02 0346     		mov	r3, r0
 5969 2a04 1946     		mov	r1, r3
 5970 2a06 4648     		ldr	r0, .L515
 5971 2a08 FFF7FEFF 		bl	e_send_uart1_char
 5972 2a0c 00BF     		nop
 5973              	.L407:
 5974              		.loc 1 1166 0 is_stmt 0 discriminator 2
 5975 2a0e FFF7FEFF 		bl	e_uart1_sending
 5976 2a12 0346     		mov	r3, r0
 5977 2a14 002B     		cmp	r3, #0
 5978 2a16 FAD1     		bne	.L407
 5979              		.loc 1 1170 0 is_stmt 1
 5980 2a18 DDE1     		b	.L473
 5981              	.L406:
 5982              		.loc 1 1168 0
 5983 2a1a 4148     		ldr	r0, .L515
 5984 2a1c FFF7FEFF 		bl	strlen
 5985 2a20 0346     		mov	r3, r0
 5986 2a22 1946     		mov	r1, r3
 5987 2a24 3E48     		ldr	r0, .L515
 5988 2a26 FFF7FEFF 		bl	e_send_uart2_char
 5989 2a2a 00BF     		nop
 5990              	.L408:
 5991              		.loc 1 1168 0 is_stmt 0 discriminator 2
 5992 2a2c FFF7FEFF 		bl	e_uart2_sending
 5993 2a30 0346     		mov	r3, r0
 5994 2a32 002B     		cmp	r3, #0
 5995 2a34 FAD1     		bne	.L408
 5996              		.loc 1 1170 0 is_stmt 1
 5997 2a36 CEE1     		b	.L473
 5998              	.L213:
 5999              		.loc 1 1172 0
 6000 2a38 9DF82630 		ldrb	r3, [sp, #38]	@ zero_extendqisi2
 6001 2a3c 002B     		cmp	r3, #0
 6002 2a3e 17D1     		bne	.L409
 6003              		.loc 1 1174 0
 6004 2a40 0B9B     		ldr	r3, [sp, #44]
 6005 2a42 002B     		cmp	r3, #0
 6006 2a44 0AD0     		beq	.L410
 6007              		.loc 1 1175 0
 6008 2a46 2521     		movs	r1, #37
ARM GAS  C:\Users\Moi\AppData\Local\Temp\ccF5N8ze.s 			page 112


 6009 2a48 3E48     		ldr	r0, .L515+36
 6010 2a4a FFF7FEFF 		bl	e_send_uart1_char
 6011 2a4e 00BF     		nop
 6012              	.L411:
 6013              		.loc 1 1175 0 is_stmt 0 discriminator 2
 6014 2a50 FFF7FEFF 		bl	e_uart1_sending
 6015 2a54 0346     		mov	r3, r0
 6016 2a56 002B     		cmp	r3, #0
 6017 2a58 FAD1     		bne	.L411
 6018 2a5a 09E0     		b	.L409
 6019              	.L410:
 6020              		.loc 1 1177 0 is_stmt 1
 6021 2a5c 2521     		movs	r1, #37
 6022 2a5e 3948     		ldr	r0, .L515+36
 6023 2a60 FFF7FEFF 		bl	e_send_uart2_char
 6024 2a64 00BF     		nop
 6025              	.L412:
 6026              		.loc 1 1177 0 is_stmt 0 discriminator 2
 6027 2a66 FFF7FEFF 		bl	e_uart2_sending
 6028 2a6a 0346     		mov	r3, r0
 6029 2a6c 002B     		cmp	r3, #0
 6030 2a6e FAD1     		bne	.L412
 6031              	.L409:
 6032              		.loc 1 1179 0 is_stmt 1
 6033 2a70 354B     		ldr	r3, .L515+40
 6034 2a72 1B68     		ldr	r3, [r3]
 6035 2a74 1A46     		mov	r2, r3
 6036 2a76 3549     		ldr	r1, .L515+44
 6037 2a78 2948     		ldr	r0, .L515
 6038 2a7a FFF7FEFF 		bl	sprintf
 6039              		.loc 1 1180 0
 6040 2a7e 9DF82630 		ldrb	r3, [sp, #38]	@ zero_extendqisi2
 6041 2a82 002B     		cmp	r3, #0
 6042 2a84 40F0AA81 		bne	.L474
 6043              		.loc 1 1182 0
 6044 2a88 0B9B     		ldr	r3, [sp, #44]
 6045 2a8a 002B     		cmp	r3, #0
 6046 2a8c 0ED0     		beq	.L414
 6047              		.loc 1 1183 0
 6048 2a8e 2448     		ldr	r0, .L515
 6049 2a90 FFF7FEFF 		bl	strlen
 6050 2a94 0346     		mov	r3, r0
 6051 2a96 1946     		mov	r1, r3
 6052 2a98 2148     		ldr	r0, .L515
 6053 2a9a FFF7FEFF 		bl	e_send_uart1_char
 6054 2a9e 00BF     		nop
 6055              	.L415:
 6056              		.loc 1 1183 0 is_stmt 0 discriminator 2
 6057 2aa0 FFF7FEFF 		bl	e_uart1_sending
 6058 2aa4 0346     		mov	r3, r0
 6059 2aa6 002B     		cmp	r3, #0
 6060 2aa8 FAD1     		bne	.L415
 6061              		.loc 1 1187 0 is_stmt 1
 6062 2aaa 97E1     		b	.L474
 6063              	.L414:
 6064              		.loc 1 1185 0
 6065 2aac 1C48     		ldr	r0, .L515
ARM GAS  C:\Users\Moi\AppData\Local\Temp\ccF5N8ze.s 			page 113


 6066 2aae FFF7FEFF 		bl	strlen
 6067 2ab2 0346     		mov	r3, r0
 6068 2ab4 1946     		mov	r1, r3
 6069 2ab6 1A48     		ldr	r0, .L515
 6070 2ab8 FFF7FEFF 		bl	e_send_uart2_char
 6071 2abc 00BF     		nop
 6072              	.L416:
 6073              		.loc 1 1185 0 is_stmt 0 discriminator 2
 6074 2abe FFF7FEFF 		bl	e_uart2_sending
 6075 2ac2 0346     		mov	r3, r0
 6076 2ac4 002B     		cmp	r3, #0
 6077 2ac6 FAD1     		bne	.L416
 6078              		.loc 1 1187 0 is_stmt 1
 6079 2ac8 88E1     		b	.L474
 6080              	.L214:
 6081              		.loc 1 1189 0
 6082 2aca 9DF82630 		ldrb	r3, [sp, #38]	@ zero_extendqisi2
 6083 2ace 002B     		cmp	r3, #0
 6084 2ad0 40F08781 		bne	.L475
 6085              		.loc 1 1190 0
 6086 2ad4 1E4B     		ldr	r3, .L515+48
 6087 2ad6 0093     		str	r3, [sp]
 6088 2ad8 1E4B     		ldr	r3, .L515+52
 6089 2ada 1F4A     		ldr	r2, .L515+56
 6090 2adc 1F49     		ldr	r1, .L515+60
 6091 2ade 1048     		ldr	r0, .L515
 6092 2ae0 FFF7FEFF 		bl	sscanf
 6093              		.loc 1 1191 0
 6094 2ae4 FFF7FEFF 		bl	e_i2cp_enable
 6095              		.loc 1 1192 0
 6096 2ae8 1B4B     		ldr	r3, .L515+56
 6097 2aea 1B68     		ldr	r3, [r3]
 6098 2aec D8B2     		uxtb	r0, r3
 6099 2aee 194B     		ldr	r3, .L515+52
 6100 2af0 1B68     		ldr	r3, [r3]
 6101 2af2 D9B2     		uxtb	r1, r3
 6102 2af4 164B     		ldr	r3, .L515+48
 6103 2af6 1B68     		ldr	r3, [r3]
 6104 2af8 DBB2     		uxtb	r3, r3
 6105 2afa 1A46     		mov	r2, r3
 6106 2afc FFF7FEFF 		bl	e_i2cp_write
 6107              		.loc 1 1193 0
 6108 2b00 FFF7FEFF 		bl	e_i2cp_disable
 6109              		.loc 1 1194 0
 6110 2b04 0B9B     		ldr	r3, [sp, #44]
 6111 2b06 002B     		cmp	r3, #0
 6112 2b08 2CD0     		beq	.L418
 6113              		.loc 1 1195 0
 6114 2b0a 0321     		movs	r1, #3
 6115 2b0c 1448     		ldr	r0, .L515+64
 6116 2b0e FFF7FEFF 		bl	e_send_uart1_char
 6117 2b12 00BF     		nop
 6118              	.L419:
 6119              		.loc 1 1195 0 is_stmt 0 discriminator 2
 6120 2b14 FFF7FEFF 		bl	e_uart1_sending
 6121 2b18 0346     		mov	r3, r0
 6122 2b1a 002B     		cmp	r3, #0
ARM GAS  C:\Users\Moi\AppData\Local\Temp\ccF5N8ze.s 			page 114


 6123 2b1c FAD1     		bne	.L419
 6124              		.loc 1 1200 0 is_stmt 1
 6125 2b1e 60E1     		b	.L475
 6126              	.L516:
 6127              		.align	2
 6128              	.L515:
 6129 2b20 00000000 		.word	buffer
 6130 2b24 C00A0000 		.word	.LC83
 6131 2b28 00000000 		.word	sound.13544
 6132 2b2c C40A0000 		.word	.LC84
 6133 2b30 00000000 		.word	first.13555
 6134 2b34 CC0A0000 		.word	.LC85
 6135 2b38 D00A0000 		.word	.LC86
 6136 2b3c D80A0000 		.word	.LC87
 6137 2b40 E00A0000 		.word	.LC88
 6138 2b44 F00A0000 		.word	.LC89
 6139 2b48 00000000 		.word	HWversion.13569
 6140 2b4c 180B0000 		.word	.LC90
 6141 2b50 00000000 		.word	val.13560
 6142 2b54 00000000 		.word	reg.13559
 6143 2b58 00000000 		.word	mod.13558
 6144 2b5c 2C0B0000 		.word	.LC91
 6145 2b60 380B0000 		.word	.LC92
 6146              	.L418:
 6147              		.loc 1 1197 0
 6148 2b64 0321     		movs	r1, #3
 6149 2b66 A548     		ldr	r0, .L517
 6150 2b68 FFF7FEFF 		bl	e_send_uart2_char
 6151 2b6c 00BF     		nop
 6152              	.L420:
 6153              		.loc 1 1197 0 is_stmt 0 discriminator 2
 6154 2b6e FFF7FEFF 		bl	e_uart2_sending
 6155 2b72 0346     		mov	r3, r0
 6156 2b74 002B     		cmp	r3, #0
 6157 2b76 FAD1     		bne	.L420
 6158              		.loc 1 1200 0 is_stmt 1
 6159 2b78 33E1     		b	.L475
 6160              	.L215:
 6161              		.loc 1 1202 0
 6162 2b7a 9DF82630 		ldrb	r3, [sp, #38]	@ zero_extendqisi2
 6163 2b7e 002B     		cmp	r3, #0
 6164 2b80 40F03281 		bne	.L476
 6165              		.loc 1 1203 0
 6166 2b84 9E4B     		ldr	r3, .L517+4
 6167 2b86 9F4A     		ldr	r2, .L517+8
 6168 2b88 9F49     		ldr	r1, .L517+12
 6169 2b8a A048     		ldr	r0, .L517+16
 6170 2b8c FFF7FEFF 		bl	sscanf
 6171              		.loc 1 1204 0
 6172 2b90 9C4B     		ldr	r3, .L517+8
 6173 2b92 1A68     		ldr	r2, [r3]
 6174 2b94 9A4B     		ldr	r3, .L517+4
 6175 2b96 1B68     		ldr	r3, [r3]
 6176 2b98 9D49     		ldr	r1, .L517+20
 6177 2b9a 9C48     		ldr	r0, .L517+16
 6178 2b9c FFF7FEFF 		bl	sprintf
 6179              		.loc 1 1205 0
ARM GAS  C:\Users\Moi\AppData\Local\Temp\ccF5N8ze.s 			page 115


 6180 2ba0 0B9B     		ldr	r3, [sp, #44]
 6181 2ba2 002B     		cmp	r3, #0
 6182 2ba4 0ED0     		beq	.L422
 6183              		.loc 1 1206 0
 6184 2ba6 9948     		ldr	r0, .L517+16
 6185 2ba8 FFF7FEFF 		bl	strlen
 6186 2bac 0346     		mov	r3, r0
 6187 2bae 1946     		mov	r1, r3
 6188 2bb0 9648     		ldr	r0, .L517+16
 6189 2bb2 FFF7FEFF 		bl	e_send_uart1_char
 6190 2bb6 00BF     		nop
 6191              	.L423:
 6192              		.loc 1 1206 0 is_stmt 0 discriminator 2
 6193 2bb8 FFF7FEFF 		bl	e_uart1_sending
 6194 2bbc 0346     		mov	r3, r0
 6195 2bbe 002B     		cmp	r3, #0
 6196 2bc0 FAD1     		bne	.L423
 6197 2bc2 0DE0     		b	.L424
 6198              	.L422:
 6199              		.loc 1 1208 0 is_stmt 1
 6200 2bc4 9148     		ldr	r0, .L517+16
 6201 2bc6 FFF7FEFF 		bl	strlen
 6202 2bca 0346     		mov	r3, r0
 6203 2bcc 1946     		mov	r1, r3
 6204 2bce 8F48     		ldr	r0, .L517+16
 6205 2bd0 FFF7FEFF 		bl	e_send_uart2_char
 6206 2bd4 00BF     		nop
 6207              	.L425:
 6208              		.loc 1 1208 0 is_stmt 0 discriminator 2
 6209 2bd6 FFF7FEFF 		bl	e_uart2_sending
 6210 2bda 0346     		mov	r3, r0
 6211 2bdc 002B     		cmp	r3, #0
 6212 2bde FAD1     		bne	.L425
 6213              	.L424:
 6214              		.loc 1 1210 0 is_stmt 1
 6215 2be0 FFF7FEFF 		bl	e_i2cp_enable
 6216              		.loc 1 1211 0
 6217 2be4 874B     		ldr	r3, .L517+8
 6218 2be6 1B68     		ldr	r3, [r3]
 6219 2be8 DAB2     		uxtb	r2, r3
 6220 2bea 854B     		ldr	r3, .L517+4
 6221 2bec 1B68     		ldr	r3, [r3]
 6222 2bee DBB2     		uxtb	r3, r3
 6223 2bf0 1946     		mov	r1, r3
 6224 2bf2 1046     		mov	r0, r2
 6225 2bf4 FFF7FEFF 		bl	e_i2cp_read
 6226 2bf8 0346     		mov	r3, r0
 6227 2bfa 1A46     		mov	r2, r3
 6228 2bfc 854B     		ldr	r3, .L517+24
 6229 2bfe 1A60     		str	r2, [r3]
 6230              		.loc 1 1212 0
 6231 2c00 FFF7FEFF 		bl	e_i2cp_disable
 6232              		.loc 1 1213 0
 6233 2c04 834B     		ldr	r3, .L517+24
 6234 2c06 1B68     		ldr	r3, [r3]
 6235 2c08 1A46     		mov	r2, r3
 6236 2c0a 8349     		ldr	r1, .L517+28
ARM GAS  C:\Users\Moi\AppData\Local\Temp\ccF5N8ze.s 			page 116


 6237 2c0c 7F48     		ldr	r0, .L517+16
 6238 2c0e FFF7FEFF 		bl	sprintf
 6239              		.loc 1 1214 0
 6240 2c12 7E48     		ldr	r0, .L517+16
 6241 2c14 FFF7FEFF 		bl	strlen
 6242 2c18 0346     		mov	r3, r0
 6243 2c1a 1946     		mov	r1, r3
 6244 2c1c 7B48     		ldr	r0, .L517+16
 6245 2c1e FFF7FEFF 		bl	e_send_uart1_char
 6246 2c22 00BF     		nop
 6247              	.L426:
 6248              		.loc 1 1214 0 is_stmt 0 discriminator 2
 6249 2c24 FFF7FEFF 		bl	e_uart1_sending
 6250 2c28 0346     		mov	r3, r0
 6251 2c2a 002B     		cmp	r3, #0
 6252 2c2c FAD1     		bne	.L426
 6253              		.loc 1 1215 0 is_stmt 1
 6254 2c2e 0B9B     		ldr	r3, [sp, #44]
 6255 2c30 002B     		cmp	r3, #0
 6256 2c32 0ED0     		beq	.L427
 6257              		.loc 1 1216 0
 6258 2c34 7548     		ldr	r0, .L517+16
 6259 2c36 FFF7FEFF 		bl	strlen
 6260 2c3a 0346     		mov	r3, r0
 6261 2c3c 1946     		mov	r1, r3
 6262 2c3e 7348     		ldr	r0, .L517+16
 6263 2c40 FFF7FEFF 		bl	e_send_uart1_char
 6264 2c44 00BF     		nop
 6265              	.L428:
 6266              		.loc 1 1216 0 is_stmt 0 discriminator 2
 6267 2c46 FFF7FEFF 		bl	e_uart1_sending
 6268 2c4a 0346     		mov	r3, r0
 6269 2c4c 002B     		cmp	r3, #0
 6270 2c4e FAD1     		bne	.L428
 6271              		.loc 1 1221 0 is_stmt 1
 6272 2c50 CAE0     		b	.L476
 6273              	.L427:
 6274              		.loc 1 1218 0
 6275 2c52 6E48     		ldr	r0, .L517+16
 6276 2c54 FFF7FEFF 		bl	strlen
 6277 2c58 0346     		mov	r3, r0
 6278 2c5a 1946     		mov	r1, r3
 6279 2c5c 6B48     		ldr	r0, .L517+16
 6280 2c5e FFF7FEFF 		bl	e_send_uart2_char
 6281 2c62 00BF     		nop
 6282              	.L429:
 6283              		.loc 1 1218 0 is_stmt 0 discriminator 2
 6284 2c64 FFF7FEFF 		bl	e_uart2_sending
 6285 2c68 0346     		mov	r3, r0
 6286 2c6a 002B     		cmp	r3, #0
 6287 2c6c FAD1     		bne	.L429
 6288              		.loc 1 1221 0 is_stmt 1
 6289 2c6e BBE0     		b	.L476
 6290              	.L216:
 6291              		.loc 1 1223 0
 6292 2c70 9DF82630 		ldrb	r3, [sp, #38]	@ zero_extendqisi2
 6293 2c74 002B     		cmp	r3, #0
ARM GAS  C:\Users\Moi\AppData\Local\Temp\ccF5N8ze.s 			page 117


 6294 2c76 40F0BA80 		bne	.L477
 6295              		.loc 1 1224 0
 6296 2c7a 684B     		ldr	r3, .L517+32
 6297 2c7c 0222     		movs	r2, #2
 6298 2c7e 1A60     		str	r2, [r3]
 6299 2c80 3FE0     		b	.L431
 6300              	.L436:
 6301              		.loc 1 1225 0
 6302 2c82 FFF7FEFF 		bl	e_i2cp_enable
 6303              		.loc 1 1226 0
 6304 2c86 654B     		ldr	r3, .L517+32
 6305 2c88 1B68     		ldr	r3, [r3]
 6306 2c8a DBB2     		uxtb	r3, r3
 6307 2c8c 0021     		movs	r1, #0
 6308 2c8e 1846     		mov	r0, r3
 6309 2c90 FFF7FEFF 		bl	e_i2cp_read
 6310 2c94 0346     		mov	r3, r0
 6311 2c96 1A46     		mov	r2, r3
 6312 2c98 5E4B     		ldr	r3, .L517+24
 6313 2c9a 1A60     		str	r2, [r3]
 6314              		.loc 1 1227 0
 6315 2c9c FFF7FEFF 		bl	e_i2cp_disable
 6316              		.loc 1 1228 0
 6317 2ca0 5C4B     		ldr	r3, .L517+24
 6318 2ca2 1B68     		ldr	r3, [r3]
 6319 2ca4 002B     		cmp	r3, #0
 6320 2ca6 27DB     		blt	.L432
 6321              		.loc 1 1229 0
 6322 2ca8 5C4B     		ldr	r3, .L517+32
 6323 2caa 1A68     		ldr	r2, [r3]
 6324 2cac 594B     		ldr	r3, .L517+24
 6325 2cae 1B68     		ldr	r3, [r3]
 6326 2cb0 5B49     		ldr	r1, .L517+36
 6327 2cb2 5648     		ldr	r0, .L517+16
 6328 2cb4 FFF7FEFF 		bl	sprintf
 6329              		.loc 1 1230 0
 6330 2cb8 0B9B     		ldr	r3, [sp, #44]
 6331 2cba 002B     		cmp	r3, #0
 6332 2cbc 0ED0     		beq	.L433
 6333              		.loc 1 1231 0
 6334 2cbe 5348     		ldr	r0, .L517+16
 6335 2cc0 FFF7FEFF 		bl	strlen
 6336 2cc4 0346     		mov	r3, r0
 6337 2cc6 1946     		mov	r1, r3
 6338 2cc8 5048     		ldr	r0, .L517+16
 6339 2cca FFF7FEFF 		bl	e_send_uart1_char
 6340 2cce 00BF     		nop
 6341              	.L434:
 6342              		.loc 1 1231 0 is_stmt 0 discriminator 2
 6343 2cd0 FFF7FEFF 		bl	e_uart1_sending
 6344 2cd4 0346     		mov	r3, r0
 6345 2cd6 002B     		cmp	r3, #0
 6346 2cd8 FAD1     		bne	.L434
 6347 2cda 0DE0     		b	.L432
 6348              	.L433:
 6349              		.loc 1 1233 0 is_stmt 1
 6350 2cdc 4B48     		ldr	r0, .L517+16
ARM GAS  C:\Users\Moi\AppData\Local\Temp\ccF5N8ze.s 			page 118


 6351 2cde FFF7FEFF 		bl	strlen
 6352 2ce2 0346     		mov	r3, r0
 6353 2ce4 1946     		mov	r1, r3
 6354 2ce6 4948     		ldr	r0, .L517+16
 6355 2ce8 FFF7FEFF 		bl	e_send_uart2_char
 6356 2cec 00BF     		nop
 6357              	.L435:
 6358              		.loc 1 1233 0 is_stmt 0 discriminator 2
 6359 2cee FFF7FEFF 		bl	e_uart2_sending
 6360 2cf2 0346     		mov	r3, r0
 6361 2cf4 002B     		cmp	r3, #0
 6362 2cf6 FAD1     		bne	.L435
 6363              	.L432:
 6364              		.loc 1 1224 0 is_stmt 1 discriminator 2
 6365 2cf8 484B     		ldr	r3, .L517+32
 6366 2cfa 1B68     		ldr	r3, [r3]
 6367 2cfc 0233     		adds	r3, r3, #2
 6368 2cfe 474A     		ldr	r2, .L517+32
 6369 2d00 1360     		str	r3, [r2]
 6370              	.L431:
 6371              		.loc 1 1224 0 is_stmt 0 discriminator 1
 6372 2d02 464B     		ldr	r3, .L517+32
 6373 2d04 1B68     		ldr	r3, [r3]
 6374 2d06 FE2B     		cmp	r3, #254
 6375 2d08 BBDD     		ble	.L436
 6376              		.loc 1 1238 0 is_stmt 1
 6377 2d0a 70E0     		b	.L477
 6378              	.L190:
 6379              		.loc 1 1240 0
 6380 2d0c 9DF82630 		ldrb	r3, [sp, #38]	@ zero_extendqisi2
 6381 2d10 002B     		cmp	r3, #0
 6382 2d12 6FD1     		bne	.L478
 6383              		.loc 1 1242 0
 6384 2d14 0B9B     		ldr	r3, [sp, #44]
 6385 2d16 002B     		cmp	r3, #0
 6386 2d18 0AD0     		beq	.L438
 6387              		.loc 1 1243 0
 6388 2d1a 1521     		movs	r1, #21
 6389 2d1c 4148     		ldr	r0, .L517+40
 6390 2d1e FFF7FEFF 		bl	e_send_uart1_char
 6391 2d22 00BF     		nop
 6392              	.L439:
 6393              		.loc 1 1243 0 is_stmt 0 discriminator 2
 6394 2d24 FFF7FEFF 		bl	e_uart1_sending
 6395 2d28 0346     		mov	r3, r0
 6396 2d2a 002B     		cmp	r3, #0
 6397 2d2c FAD1     		bne	.L439
 6398              		.loc 1 1247 0 is_stmt 1
 6399 2d2e 61E0     		b	.L478
 6400              	.L438:
 6401              		.loc 1 1245 0
 6402 2d30 1521     		movs	r1, #21
 6403 2d32 3C48     		ldr	r0, .L517+40
 6404 2d34 FFF7FEFF 		bl	e_send_uart2_char
 6405 2d38 00BF     		nop
 6406              	.L440:
 6407              		.loc 1 1245 0 is_stmt 0 discriminator 2
ARM GAS  C:\Users\Moi\AppData\Local\Temp\ccF5N8ze.s 			page 119


 6408 2d3a FFF7FEFF 		bl	e_uart2_sending
 6409 2d3e 0346     		mov	r3, r0
 6410 2d40 002B     		cmp	r3, #0
 6411 2d42 FAD1     		bne	.L440
 6412              		.loc 1 1247 0 is_stmt 1
 6413 2d44 56E0     		b	.L478
 6414              	.L449:
 6415              	.LBE3:
 6416              		.loc 1 1249 0
 6417 2d46 00BF     		nop
 6418 2d48 FDF712BA 		b	.L441
 6419              	.L450:
 6420              	.LBB4:
 6421              		.loc 1 1101 0
 6422 2d4c 00BF     		nop
 6423 2d4e FDF70FBA 		b	.L441
 6424              	.L451:
 6425              		.loc 1 707 0
 6426 2d52 00BF     		nop
 6427 2d54 FDF70CBA 		b	.L441
 6428              	.L452:
 6429              		.loc 1 717 0
 6430 2d58 00BF     		nop
