ARM GAS  C:\Users\Moi\AppData\Local\Temp\ccAXdvuJ.s 			page 1


   1              		.cpu cortex-m4
   2              		.eabi_attribute 27, 1
   3              		.eabi_attribute 28, 1
   4              		.eabi_attribute 20, 1
   5              		.eabi_attribute 21, 1
   6              		.eabi_attribute 23, 3
   7              		.eabi_attribute 24, 1
   8              		.eabi_attribute 25, 1
   9              		.eabi_attribute 26, 1
  10              		.eabi_attribute 30, 6
  11              		.eabi_attribute 34, 1
  12              		.eabi_attribute 18, 4
  13              		.file	"Asercom.c"
  14              		.text
  15              	.Ltext0:
  16              		.cfi_sections	.debug_frame
  17              		.global	buffer
  18              		.section	.bss.buffer,"aw",%nobits
  19              		.align	2
  20              		.type	buffer, %object
  21              		.size	buffer, 4139
  22              	buffer:
  23 0000 00000000 		.space	4139
  23      00000000 
  23      00000000 
  23      00000000 
  23      00000000 
  24              		.global	selector
  25              		.section	.bss.selector,"aw",%nobits
  26              		.align	2
  27              		.type	selector, %object
  28              		.size	selector, 4
  29              	selector:
  30 0000 00000000 		.space	4
  31              		.global	c
  32              		.section	.bss.c,"aw",%nobits
  33              		.type	c, %object
  34              		.size	c, 1
  35              	c:
  36 0000 00       		.space	1
  37              		.global	e_ambient_ir
  38              		.section	.bss.e_ambient_ir,"aw",%nobits
  39              		.align	2
  40              		.type	e_ambient_ir, %object
  41              		.size	e_ambient_ir, 40
  42              	e_ambient_ir:
  43 0000 00000000 		.space	40
  43      00000000 
  43      00000000 
  43      00000000 
  43      00000000 
  44              		.global	e_ambient_and_reflected_ir
  45              		.section	.bss.e_ambient_and_reflected_ir,"aw",%nobits
  46              		.align	2
  47              		.type	e_ambient_and_reflected_ir, %object
  48              		.size	e_ambient_and_reflected_ir, 40
  49              	e_ambient_and_reflected_ir:
ARM GAS  C:\Users\Moi\AppData\Local\Temp\ccAXdvuJ.s 			page 2


  50 0000 00000000 		.space	40
  50      00000000 
  50      00000000 
  50      00000000 
  50      00000000 
  51              		.section	.rodata
  52              		.align	2
  53              	.LC0:
  54 0000 0C075745 		.ascii	"\014\007WELCOME to the SerCom protocol on e-Puck\015"
  54      4C434F4D 
  54      4520746F 
  54      20746865 
  54      20536572 
  55 002b 0A746865 		.ascii	"\012the EPFL education robot type \"H\" for help\015"
  55      20455046 
  55      4C206564 
  55      75636174 
  55      696F6E20 
  56 0057 0A00     		.ascii	"\012\000"
  57 0059 000000   		.align	2
  58              	.LC1:
  59 005c 612C2564 		.ascii	"a,%d,%d,%d\015\012\000"
  59      2C25642C 
  59      25640D0A 
  59      00
  60 0069 000000   		.align	2
  61              	.LC2:
  62 006c 612C302C 		.ascii	"a,0,0,0\015\012\000"
  62      302C300D 
  62      0A00
  63 0076 0000     		.align	2
  64              	.LC3:
  65 0078 622C2564 		.ascii	"b,%d (%d%%)\015\012\000"
  65      20282564 
  65      2525290D 
  65      0A00
  66 0086 0000     		.align	2
  67              	.LC4:
  68 0088 622C2564 		.ascii	"b,%d\015\012\000"
  68      0D0A00
  69 008f 00       		.align	2
  70              	.LC5:
  71 0090 422C2564 		.ascii	"B,%d\015\000"
  71      0D00
  72 0096 0000     		.align	2
  73              	.LC6:
  74 0098 620D0A00 		.ascii	"b\015\012\000"
  75              		.align	2
  76              	.LC7:
  77 009c 632C2564 		.ascii	"c,%d\015\012\000"
  77      0D0A00
  78 00a3 00       		.align	2
  79              	.LC8:
  80 00a4 442C2564 		.ascii	"D,%d,%d\015\000"
  80      2C25640D 
  80      00
  81 00ad 000000   		.align	2
ARM GAS  C:\Users\Moi\AppData\Local\Temp\ccAXdvuJ.s 			page 3


  82              	.LC9:
  83 00b0 640D0A00 		.ascii	"d\015\012\000"
  84              		.align	2
  85              	.LC10:
  86 00b4 652C2564 		.ascii	"e,%d,%d\015\012\000"
  86      2C25640D 
  86      0A00
  87 00be 0000     		.align	2
  88              	.LC11:
  89 00c0 462C2564 		.ascii	"F,%d\015\000"
  89      0D00
  90 00c6 0000     		.align	2
  91              	.LC12:
  92 00c8 660D0A00 		.ascii	"f\015\012\000"
  93              		.align	2
  94              	.LC13:
  95 00cc 67204952 		.ascii	"g IR check : 0x%x, address : 0x%x, data : 0x%x\015\012"
  95      20636865 
  95      636B203A 
  95      20307825 
  95      782C2061 
  96 00fc 00       		.ascii	"\000"
  97 00fd 000000   		.align	2
  98              	.LC14:
  99 0100 672C2564 		.ascii	"g,%d,%d,%d\015\012\000"
  99      2C25642C 
  99      25640D0A 
  99      00
 100 010d 000000   		.align	2
 101              	.LC15:
 102 0110 672C302C 		.ascii	"g,0,0,0\015\012\000"
 102      302C300D 
 102      0A00
 103 011a 0000     		.align	2
 104              	.LC16:
 105 011c 0A00     		.ascii	"\012\000"
 106 011e 0000     		.align	2
 107              	.LC17:
 108 0120 22412220 		.ascii	"\"A\"               Accelerometer\015\012\000"
 108      20202020 
 108      20202020 
 108      20202020 
 108      20204163 
 109 0142 0000     		.align	2
 110              	.LC18:
 111 0144 22422C23 		.ascii	"\"B,#\"             Body led 0=off 1=on 2=inverse\015"
 111      22202020 
 111      20202020 
 111      20202020 
 111      2020426F 
 112 0174 0A00     		.ascii	"\012\000"
 113 0176 0000     		.align	2
 114              	.LC19:
 115 0178 22622220 		.ascii	"\"b\"               Battery value\015\012\000"
 115      20202020 
 115      20202020 
 115      20202020 
ARM GAS  C:\Users\Moi\AppData\Local\Temp\ccAXdvuJ.s 			page 4


 115      20204261 
 116 019a 0000     		.align	2
 117              	.LC20:
 118 019c 22622220 		.ascii	"\"b\"               Battery state (1=ok, 0=low)\015"
 118      20202020 
 118      20202020 
 118      20202020 
 118      20204261 
 119 01ca 0A00     		.ascii	"\012\000"
 120              		.align	2
 121              	.LC21:
 122 01cc 22432220 		.ascii	"\"C\"               Selector position\015\012\000"
 122      20202020 
 122      20202020 
 122      20202020 
 122      20205365 
 123 01f2 0000     		.align	2
 124              	.LC22:
 125 01f4 22442C23 		.ascii	"\"D,#,#\"           Set motor speed left,right\015\012"
 125      2C232220 
 125      20202020 
 125      20202020 
 125      20205365 
 126 0222 00       		.ascii	"\000"
 127 0223 00       		.align	2
 128              	.LC23:
 129 0224 22452220 		.ascii	"\"E\"               Get motor speed left,right\015\012"
 129      20202020 
 129      20202020 
 129      20202020 
 129      20204765 
 130 0252 00       		.ascii	"\000"
 131 0253 00       		.align	2
 132              	.LC24:
 133 0254 22462C23 		.ascii	"\"F,#\"             Front led 0=off 1=on 2=inverse\015"
 133      22202020 
 133      20202020 
 133      20202020 
 133      20204672 
 134 0285 0A00     		.ascii	"\012\000"
 135 0287 00       		.align	2
 136              	.LC25:
 137 0288 22472220 		.ascii	"\"G\"               IR receiver\015\012\000"
 137      20202020 
 137      20202020 
 137      20202020 
 137      20204952 
 138              		.align	2
 139              	.LC26:
 140 02a8 22672220 		.ascii	"\"g\"               Gyro\015\012\000"
 140      20202020 
 140      20202020 
 140      20202020 
 140      20204779 
 141 02c1 000000   		.align	2
 142              	.LC27:
 143 02c4 22482220 		.ascii	"\"H\"               Help\015\012\000"
ARM GAS  C:\Users\Moi\AppData\Local\Temp\ccAXdvuJ.s 			page 5


 143      20202020 
 143      20202020 
 143      20202020 
 143      20204865 
 144 02dd 000000   		.align	2
 145              	.LC28:
 146 02e0 22492220 		.ascii	"\"I\"               Get camera parameter\015\012\000"
 146      20202020 
 146      20202020 
 146      20202020 
 146      20204765 
 147 0309 000000   		.align	2
 148              	.LC29:
 149 030c 224A2C23 		.ascii	"\"J,#,#,#,#,#,#\"   Set camera parameter mode,width"
 149      2C232C23 
 149      2C232C23 
 149      2C232220 
 149      20205365 
 150 033d 2C686569 		.ascii	",heigth,zoom(1,4 or 8),x1,y1\015\012\000"
 150      6774682C 
 150      7A6F6F6D 
 150      28312C34 
 150      206F7220 
 151              		.align	2
 152              	.LC30:
 153 035c 224B2220 		.ascii	"\"K\"               Calibrate proximity sensors\015"
 153      20202020 
 153      20202020 
 153      20202020 
 153      20204361 
 154 038a 0A00     		.ascii	"\012\000"
 155              		.align	2
 156              	.LC31:
 157 038c 224C2C23 		.ascii	"\"L,#,#\"           Led number,0=off 1=on 2=inverse"
 157      2C232220 
 157      20202020 
 157      20202020 
 157      20204C65 
 158 03bd 0D0A00   		.ascii	"\015\012\000"
 159              		.align	2
 160              	.LC32:
 161 03c0 224D2220 		.ascii	"\"M\"               Floor sensors\015\012\000"
 161      20202020 
 161      20202020 
 161      20202020 
 161      2020466C 
 162 03e2 0000     		.align	2
 163              	.LC33:
 164 03e4 224E2220 		.ascii	"\"N\"               Proximity\015\012\000"
 164      20202020 
 164      20202020 
 164      20202020 
 164      20205072 
 165 0402 0000     		.align	2
 166              	.LC34:
 167 0404 224F2220 		.ascii	"\"O\"               Light sensors\015\012\000"
 167      20202020 
ARM GAS  C:\Users\Moi\AppData\Local\Temp\ccAXdvuJ.s 			page 6


 167      20202020 
 167      20202020 
 167      20204C69 
 168 0426 0000     		.align	2
 169              	.LC35:
 170 0428 22502C23 		.ascii	"\"P,#,#\"           Set motor position left,right\015"
 170      2C232220 
 170      20202020 
 170      20202020 
 170      20205365 
 171 0458 0A00     		.ascii	"\012\000"
 172 045a 0000     		.align	2
 173              	.LC36:
 174 045c 22512220 		.ascii	"\"Q\"               Get motor position left,right\015"
 174      20202020 
 174      20202020 
 174      20202020 
 174      20204765 
 175 048c 0A00     		.ascii	"\012\000"
 176 048e 0000     		.align	2
 177              	.LC37:
 178 0490 22522220 		.ascii	"\"R\"               Reset e-puck\015\012\000"
 178      20202020 
 178      20202020 
 178      20202020 
 178      20205265 
 179 04b1 000000   		.align	2
 180              	.LC38:
 181 04b4 22532220 		.ascii	"\"S\"               Stop e-puck and turn off leds\015"
 181      20202020 
 181      20202020 
 181      20202020 
 181      20205374 
 182 04e4 0A00     		.ascii	"\012\000"
 183 04e6 0000     		.align	2
 184              	.LC39:
 185 04e8 22542C23 		.ascii	"\"T,#\"             Play sound 1-5 else stop sound\015"
 185      22202020 
 185      20202020 
 185      20202020 
 185      2020506C 
 186 0519 0A00     		.ascii	"\012\000"
 187 051b 00       		.align	2
 188              	.LC40:
 189 051c 22742220 		.ascii	"\"t\"               Temperature\015\012\000"
 189      20202020 
 189      20202020 
 189      20202020 
 189      20205465 
 190              		.align	2
 191              	.LC41:
 192 053c 22552220 		.ascii	"\"U\"               Get microphone amplitude\015\012"
 192      20202020 
 192      20202020 
 192      20202020 
 192      20204765 
 193 0568 00       		.ascii	"\000"
ARM GAS  C:\Users\Moi\AppData\Local\Temp\ccAXdvuJ.s 			page 7


 194 0569 000000   		.align	2
 195              	.LC42:
 196 056c 22562220 		.ascii	"\"V\"               Version of SerCom\015\012\000"
 196      20202020 
 196      20202020 
 196      20202020 
 196      20205665 
 197 0592 0000     		.align	2
 198              	.LC43:
 199 0594 22572220 		.ascii	"\"W\"               Write I2C (mod,reg,val)\015\012"
 199      20202020 
 199      20202020 
 199      20202020 
 199      20205772 
 200 05bf 00       		.ascii	"\000"
 201              		.align	2
 202              	.LC44:
 203 05c0 22592220 		.ascii	"\"Y\"               Read I2C val=(mod,reg)\015\012\000"
 203      20202020 
 203      20202020 
 203      20202020 
 203      20205265 
 204 05eb 00       		.align	2
 205              	.LC45:
 206 05ec 22412220 		.ascii	"\"A\"       Accelerometer\015\012\000"
 206      20202020 
 206      20204163 
 206      63656C65 
 206      726F6D65 
 207 0606 0000     		.align	2
 208              	.LC46:
 209 0608 22622220 		.ascii	"\"b\"       Battery value\015\012\000"
 209      20202020 
 209      20204261 
 209      74746572 
 209      79207661 
 210 0622 0000     		.align	2
 211              	.LC47:
 212 0624 22622220 		.ascii	"\"b\"       Battery state (1=ok, 0=low)\015\012\000"
 212      20202020 
 212      20204261 
 212      74746572 
 212      79207374 
 213              		.align	2
 214              	.LC48:
 215 064c 22432220 		.ascii	"\"C\"       Selector position\015\012\000"
 215      20202020 
 215      20205365 
 215      6C656374 
 215      6F722070 
 216 066a 0000     		.align	2
 217              	.LC49:
 218 066c 22442C23 		.ascii	"\"D,#,#\"   Set motor speed left,right\015\012\000"
 218      2C232220 
 218      20205365 
 218      74206D6F 
 218      746F7220 
ARM GAS  C:\Users\Moi\AppData\Local\Temp\ccAXdvuJ.s 			page 8


 219 0693 00       		.align	2
 220              	.LC50:
 221 0694 22452220 		.ascii	"\"E\"       Get motor speed left,right\015\012\000"
 221      20202020 
 221      20204765 
 221      74206D6F 
 221      746F7220 
 222 06bb 00       		.align	2
 223              	.LC51:
 224 06bc 22472220 		.ascii	"\"G\"       IR receiver\015\012\000"
 224      20202020 
 224      20204952 
 224      20726563 
 224      65697665 
 225              		.align	2
 226              	.LC52:
 227 06d4 22482220 		.ascii	"\"H\"       Help\015\012\000"
 227      20202020 
 227      20204865 
 227      6C700D0A 
 227      00
 228 06e5 000000   		.align	2
 229              	.LC53:
 230 06e8 224B2220 		.ascii	"\"K\"       Calibrate proximity sensors\015\012\000"
 230      20202020 
 230      20204361 
 230      6C696272 
 230      61746520 
 231              		.align	2
 232              	.LC54:
 233 0710 224C2C23 		.ascii	"\"L,#,#\"   Led number,0=off 1=on 2=inverse\015\012"
 233      2C232220 
 233      20204C65 
 233      64206E75 
 233      6D626572 
 234 073b 00       		.ascii	"\000"
 235              		.align	2
 236              	.LC55:
 237 073c 224D2220 		.ascii	"\"M\"       Floor sensors\015\012\000"
 237      20202020 
 237      2020466C 
 237      6F6F7220 
 237      73656E73 
 238 0756 0000     		.align	2
 239              	.LC56:
 240 0758 224E2220 		.ascii	"\"N\"       Proximity\015\012\000"
 240      20202020 
 240      20205072 
 240      6F78696D 
 240      6974790D 
 241 076e 0000     		.align	2
 242              	.LC57:
 243 0770 224F2220 		.ascii	"\"O\"       Light sensors\015\012\000"
 243      20202020 
 243      20204C69 
 243      67687420 
 243      73656E73 
ARM GAS  C:\Users\Moi\AppData\Local\Temp\ccAXdvuJ.s 			page 9


 244 078a 0000     		.align	2
 245              	.LC58:
 246 078c 22502C23 		.ascii	"\"P,#,#\"   Set motor position left,right\015\012\000"
 246      2C232220 
 246      20205365 
 246      74206D6F 
 246      746F7220 
 247 07b6 0000     		.align	2
 248              	.LC59:
 249 07b8 22512220 		.ascii	"\"Q\"       Get motor position left,right\015\012\000"
 249      20202020 
 249      20204765 
 249      74206D6F 
 249      746F7220 
 250 07e2 0000     		.align	2
 251              	.LC60:
 252 07e4 22522220 		.ascii	"\"R\"       Reset e-puck\015\012\000"
 252      20202020 
 252      20205265 
 252      73657420 
 252      652D7075 
 253 07fd 000000   		.align	2
 254              	.LC61:
 255 0800 22532220 		.ascii	"\"S\"       Stop e-puck and turn off leds\015\012\000"
 255      20202020 
 255      20205374 
 255      6F702065 
 255      2D707563 
 256 082a 0000     		.align	2
 257              	.LC62:
 258 082c 22552220 		.ascii	"\"U\"       Get microphone amplitude\015\012\000"
 258      20202020 
 258      20204765 
 258      74206D69 
 258      63726F70 
 259 0851 000000   		.align	2
 260              	.LC63:
 261 0854 22562220 		.ascii	"\"V\"       Version of SerCom\015\012\000"
 261      20202020 
 261      20205665 
 261      7273696F 
 261      6E206F66 
 262 0872 0000     		.align	2
 263              	.LC64:
 264 0874 692C2564 		.ascii	"i,%d,%d,%d,%d,%d\015\012\000"
 264      2C25642C 
 264      25642C25 
 264      642C2564 
 264      0D0A00
 265 0887 00       		.align	2
 266              	.LC65:
 267 0888 4A2C2564 		.ascii	"J,%d,%d,%d,%d,%d,%d\015\000"
 267      2C25642C 
 267      25642C25 
 267      642C2564 
 267      2C25640D 
 268 089d 000000   		.align	2
ARM GAS  C:\Users\Moi\AppData\Local\Temp\ccAXdvuJ.s 			page 10


 269              	.LC66:
 270 08a0 6A0D0A00 		.ascii	"j\015\012\000"
 271              		.align	2
 272              	.LC67:
 273 08a4 6B2C2053 		.ascii	"k, Starting calibration - Remove any object in sens"
 273      74617274 
 273      696E6720 
 273      63616C69 
 273      62726174 
 274 08d7 6F727320 		.ascii	"ors range\015\012\000"
 274      72616E67 
 274      650D0A00 
 275 08e3 00       		.align	2
 276              	.LC68:
 277 08e4 6B2C2043 		.ascii	"k, Calibration finished\015\012\000"
 277      616C6962 
 277      72617469 
 277      6F6E2066 
 277      696E6973 
 278 08fe 0000     		.align	2
 279              	.LC69:
 280 0900 4C2C2564 		.ascii	"L,%d,%d\015\000"
 280      2C25640D 
 280      00
 281 0909 000000   		.align	2
 282              	.LC70:
 283 090c 6C0D0A00 		.ascii	"l\015\012\000"
 284              		.align	2
 285              	.LC71:
 286 0910 6D2C2564 		.ascii	"m,%d,%d,%d,%d,%d\015\012\000"
 286      2C25642C 
 286      25642C25 
 286      642C2564 
 286      0D0A00
 287 0923 00       		.align	2
 288              	.LC72:
 289 0924 6E2C2564 		.ascii	"n,%d,%d,%d,%d,%d,%d,%d,%d\015\012\000"
 289      2C25642C 
 289      25642C25 
 289      642C2564 
 289      2C25642C 
 290              		.align	2
 291              	.LC73:
 292 0940 6E2C2564 		.ascii	"n,%d,%d,%d,%d,%d,%d,%d,%d,%d,%d\015\012\000"
 292      2C25642C 
 292      25642C25 
 292      642C2564 
 292      2C25642C 
 293 0962 0000     		.align	2
 294              	.LC74:
 295 0964 6F2C2564 		.ascii	"o,%d,%d,%d,%d,%d,%d,%d,%d\015\012\000"
 295      2C25642C 
 295      25642C25 
 295      642C2564 
 295      2C25642C 
 296              		.align	2
 297              	.LC75:
ARM GAS  C:\Users\Moi\AppData\Local\Temp\ccAXdvuJ.s 			page 11


 298 0980 6F2C2564 		.ascii	"o,%d,%d,%d,%d,%d,%d,%d,%d,%d,%d\015\012\000"
 298      2C25642C 
 298      25642C25 
 298      642C2564 
 298      2C25642C 
 299 09a2 0000     		.align	2
 300              	.LC76:
 301 09a4 502C2564 		.ascii	"P,%d,%d\015\000"
 301      2C25640D 
 301      00
 302 09ad 000000   		.align	2
 303              	.LC77:
 304 09b0 700D0A00 		.ascii	"p\015\012\000"
 305              		.align	2
 306              	.LC78:
 307 09b4 712C2564 		.ascii	"q,%d,%d\015\012\000"
 307      2C25640D 
 307      0A00
 308 09be 0000     		.align	2
 309              	.LC79:
 310 09c0 730D0A00 		.ascii	"s\015\012\000"
 311              		.align	2
 312              	.LC80:
 313 09c4 542C2564 		.ascii	"T,%d\000"
 313      00
 314 09c9 000000   		.align	2
 315              	.LC81:
 316 09cc 740D0A00 		.ascii	"t\015\012\000"
 317              		.align	2
 318              	.LC82:
 319 09d0 742C2564 		.ascii	"t,%d\015\012\000"
 319      0D0A00
 320 09d7 00       		.align	2
 321              	.LC83:
 322 09d8 742C300D 		.ascii	"t,0\015\012\000"
 322      0A00
 323 09de 0000     		.align	2
 324              	.LC84:
 325 09e0 752C2564 		.ascii	"u,%d,%d,%d\015\012\000"
 325      2C25642C 
 325      25640D0A 
 325      00
 326 09ed 000000   		.align	2
 327              	.LC85:
 328 09f0 762C5665 		.ascii	"v,Version 1.2.2 August 2008 GCtronic\015\012\000"
 328      7273696F 
 328      6E20312E 
 328      322E3220 
 328      41756775 
 329 0a17 00       		.align	2
 330              	.LC86:
 331 0a18 48572076 		.ascii	"HW version: %X\015\012\000"
 331      65727369 
 331      6F6E3A20 
 331      25580D0A 
 331      00
 332 0a29 000000   		.align	2
ARM GAS  C:\Users\Moi\AppData\Local\Temp\ccAXdvuJ.s 			page 12


 333              	.LC87:
 334 0a2c 572C2564 		.ascii	"W,%d,%d,%d\015\000"
 334      2C25642C 
 334      25640D00 
 335              		.align	2
 336              	.LC88:
 337 0a38 770D0A00 		.ascii	"w\015\012\000"
 338              		.align	2
 339              	.LC89:
 340 0a3c 592C2564 		.ascii	"Y,%d,%d\015\000"
 340      2C25640D 
 340      00
 341 0a45 000000   		.align	2
 342              	.LC90:
 343 0a48 792C2564 		.ascii	"y,%d,%d\015\012\000"
 343      2C25640D 
 343      0A00
 344 0a52 0000     		.align	2
 345              	.LC91:
 346 0a54 792C2564 		.ascii	"y,%d\015\012\000"
 346      0D0A00
 347 0a5b 00       		.align	2
 348              	.LC92:
 349 0a5c 25643A20 		.ascii	"%d: %d\015\012\000"
 349      25640D0A 
 349      00
 350 0a65 000000   		.align	2
 351              	.LC93:
 352 0a68 7A2C436F 		.ascii	"z,Command not found\015\012\000"
 352      6D6D616E 
 352      64206E6F 
 352      7420666F 
 352      756E640D 
 353              		.section	.text.run_asercom,"ax",%progbits
 354              		.align	1
 355              		.p2align 4,,15
 356              		.global	run_asercom
 357              		.syntax unified
 358              		.thumb
 359              		.thumb_func
 360              		.fpu fpv4-sp-d16
 361              		.type	run_asercom, %function
 362              	run_asercom:
 363              	.LFB259:
 364              		.file 1 "..//src/epuck1x/Asercom.c"
 365              		.loc 1 60 0
 366              		.cfi_startproc
 367              		@ args = 0, pretend = 0, frame = 40
 368              		@ frame_needed = 0, uses_anonymous_args = 0
 369 0000 2DE9F043 		push	{r4, r5, r6, r7, r8, r9, lr}
 370              		.cfi_def_cfa_offset 28
 371              		.cfi_offset 4, -28
 372              		.cfi_offset 5, -24
 373              		.cfi_offset 6, -20
 374              		.cfi_offset 7, -16
 375              		.cfi_offset 8, -12
 376              		.cfi_offset 9, -8
ARM GAS  C:\Users\Moi\AppData\Local\Temp\ccAXdvuJ.s 			page 13


 377              		.cfi_offset 14, -4
 378 0004 93B0     		sub	sp, sp, #76
 379              		.cfi_def_cfa_offset 104
 380              		.loc 1 60 0
 381 0006 A74B     		ldr	r3, .L438
 382 0008 1B68     		ldr	r3, [r3]
 383 000a 1193     		str	r3, [sp, #68]
 384              		.loc 1 68 0
 385 000c 0023     		movs	r3, #0
 386 000e 8DF83130 		strb	r3, [sp, #49]
 387 0012 0023     		movs	r3, #0
 388 0014 8DF83230 		strb	r3, [sp, #50]
 389 0018 0023     		movs	r3, #0
 390 001a 8DF83030 		strb	r3, [sp, #48]
 391              		.loc 1 72 0
 392 001e 0023     		movs	r3, #0
 393 0020 0D93     		str	r3, [sp, #52]
 394              		.loc 1 73 0
 395 0022 0023     		movs	r3, #0
 396 0024 0F93     		str	r3, [sp, #60]
 397              		.loc 1 77 0
 398 0026 FFF7FEFF 		bl	e_init_motors
 399              		.loc 1 81 0
 400 002a FFF7FEFF 		bl	getselector
 401 002e 0246     		mov	r2, r0
 402 0030 9D4B     		ldr	r3, .L438+4
 403 0032 1A60     		str	r2, [r3]
 404              		.loc 1 82 0
 405 0034 9C4B     		ldr	r3, .L438+4
 406 0036 1B68     		ldr	r3, [r3]
 407 0038 0A2B     		cmp	r3, #10
 408 003a 02D1     		bne	.L2
 409              		.loc 1 83 0
 410 003c 0023     		movs	r3, #0
 411 003e 0D93     		str	r3, [sp, #52]
 412 0040 01E0     		b	.L3
 413              	.L2:
 414              		.loc 1 85 0
 415 0042 0123     		movs	r3, #1
 416 0044 0D93     		str	r3, [sp, #52]
 417              	.L3:
 418              		.loc 1 89 0
 419 0046 0D9B     		ldr	r3, [sp, #52]
 420 0048 002B     		cmp	r3, #0
 421 004a 01D0     		beq	.L4
 422              		.loc 1 90 0
 423 004c FFF7FEFF 		bl	e_i2cp_init
 424              	.L4:
 425              		.loc 1 95 0
 426 0050 FFF7FEFF 		bl	e_init_remote_control
 427              		.loc 1 103 0
 428 0054 0123     		movs	r3, #1
 429 0056 954A     		ldr	r2, .L438+8
 430 0058 4FF6FE71 		movw	r1, #65534
 431 005c 7F20     		movs	r0, #127
 432 005e FFF7FEFF 		bl	ReadEE
 433              		.loc 1 106 0
ARM GAS  C:\Users\Moi\AppData\Local\Temp\ccAXdvuJ.s 			page 14


 434 0062 934B     		ldr	r3, .L438+12
 435 0064 0122     		movs	r2, #1
 436 0066 1A60     		str	r2, [r3]
 437              		.loc 1 108 0
 438 0068 924B     		ldr	r3, .L438+16
 439 006a 2822     		movs	r2, #40
 440 006c 1A60     		str	r2, [r3]
 441              		.loc 1 109 0
 442 006e 924B     		ldr	r3, .L438+20
 443 0070 2822     		movs	r2, #40
 444 0072 1A60     		str	r2, [r3]
 445              		.loc 1 110 0
 446 0074 914B     		ldr	r3, .L438+24
 447 0076 0822     		movs	r2, #8
 448 0078 1A60     		str	r2, [r3]
 449              		.loc 1 111 0
 450 007a 8E4B     		ldr	r3, .L438+16
 451 007c 1B68     		ldr	r3, [r3]
 452 007e 8E4A     		ldr	r2, .L438+20
 453 0080 1268     		ldr	r2, [r2]
 454 0082 02FB03F3 		mul	r3, r2, r3
 455 0086 5B00     		lsls	r3, r3, #1
 456 0088 8D4A     		ldr	r2, .L438+28
 457 008a 1360     		str	r3, [r2]
 458              		.loc 1 113 0
 459 008c 0D9B     		ldr	r3, [sp, #52]
 460 008e 002B     		cmp	r3, #0
 461 0090 39D0     		beq	.L5
 462              		.loc 1 114 0
 463 0092 FFF7FEFF 		bl	e_poxxxx_init_cam
 464              		.loc 1 115 0
 465 0096 874B     		ldr	r3, .L438+16
 466 0098 1B68     		ldr	r3, [r3]
 467 009a 884A     		ldr	r2, .L438+24
 468 009c 1268     		ldr	r2, [r2]
 469 009e 02FB03F3 		mul	r3, r2, r3
 470 00a2 C3F52073 		rsb	r3, r3, #640
 471 00a6 DA0F     		lsrs	r2, r3, #31
 472 00a8 1344     		add	r3, r3, r2
 473 00aa 5B10     		asrs	r3, r3, #1
 474 00ac 1846     		mov	r0, r3
 475 00ae 824B     		ldr	r3, .L438+20
 476 00b0 1B68     		ldr	r3, [r3]
 477 00b2 824A     		ldr	r2, .L438+24
 478 00b4 1268     		ldr	r2, [r2]
 479 00b6 02FB03F3 		mul	r3, r2, r3
 480 00ba C3F5F073 		rsb	r3, r3, #480
 481 00be DA0F     		lsrs	r2, r3, #31
 482 00c0 1344     		add	r3, r3, r2
 483 00c2 5B10     		asrs	r3, r3, #1
 484 00c4 1C46     		mov	r4, r3
 485 00c6 7B4B     		ldr	r3, .L438+16
 486 00c8 1B68     		ldr	r3, [r3]
 487 00ca 7C4A     		ldr	r2, .L438+24
 488 00cc 1268     		ldr	r2, [r2]
 489 00ce 02FB03F3 		mul	r3, r2, r3
 490 00d2 1D46     		mov	r5, r3
ARM GAS  C:\Users\Moi\AppData\Local\Temp\ccAXdvuJ.s 			page 15


 491 00d4 784B     		ldr	r3, .L438+20
 492 00d6 1B68     		ldr	r3, [r3]
 493 00d8 784A     		ldr	r2, .L438+24
 494 00da 1268     		ldr	r2, [r2]
 495 00dc 02FB03F3 		mul	r3, r2, r3
 496 00e0 1E46     		mov	r6, r3
 497 00e2 764B     		ldr	r3, .L438+24
 498 00e4 1B68     		ldr	r3, [r3]
 499 00e6 1A46     		mov	r2, r3
 500 00e8 744B     		ldr	r3, .L438+24
 501 00ea 1B68     		ldr	r3, [r3]
 502 00ec 1946     		mov	r1, r3
 503 00ee 704B     		ldr	r3, .L438+12
 504 00f0 1B68     		ldr	r3, [r3]
 505 00f2 0293     		str	r3, [sp, #8]
 506 00f4 0191     		str	r1, [sp, #4]
 507 00f6 0092     		str	r2, [sp]
 508 00f8 3346     		mov	r3, r6
 509 00fa 2A46     		mov	r2, r5
 510 00fc 2146     		mov	r1, r4
 511 00fe FFF7FEFF 		bl	e_poxxxx_config_cam
 512              		.loc 1 116 0
 513 0102 FFF7FEFF 		bl	e_poxxxx_write_cam_registers
 514              	.L5:
 515              		.loc 1 119 0
 516 0106 0D9B     		ldr	r3, [sp, #52]
 517 0108 002B     		cmp	r3, #0
 518 010a 0CD0     		beq	.L6
 519              		.loc 1 120 0
 520 010c FFF7FEFF 		bl	e_acc_calibr
 521              		.loc 1 121 0
 522 0110 5821     		movs	r1, #88
 523 0112 6C48     		ldr	r0, .L438+32
 524 0114 FFF7FEFF 		bl	e_send_uart1_char
 525 0118 00BF     		nop
 526              	.L7:
 527              		.loc 1 121 0 is_stmt 0 discriminator 2
 528 011a FFF7FEFF 		bl	e_uart1_sending
 529 011e 0346     		mov	r3, r0
 530 0120 002B     		cmp	r3, #0
 531 0122 FAD1     		bne	.L7
 532 0124 10E0     		b	.L413
 533              	.L6:
 534              		.loc 1 125 0 is_stmt 1
 535 0126 FFF7FEFF 		bl	isEpuckVersion1_3
 536 012a 0346     		mov	r3, r0
 537 012c 002B     		cmp	r3, #0
 538 012e 01D1     		bne	.L9
 539              		.loc 1 126 0
 540 0130 FFF7FEFF 		bl	e_acc_calibr
 541              	.L9:
 542              		.loc 1 128 0
 543 0134 5821     		movs	r1, #88
 544 0136 6348     		ldr	r0, .L438+32
 545 0138 FFF7FEFF 		bl	e_send_uart2_char
 546 013c 00BF     		nop
 547              	.L10:
ARM GAS  C:\Users\Moi\AppData\Local\Temp\ccAXdvuJ.s 			page 16


 548              		.loc 1 128 0 is_stmt 0 discriminator 2
 549 013e FFF7FEFF 		bl	e_uart2_sending
 550 0142 0346     		mov	r3, r0
 551 0144 002B     		cmp	r3, #0
 552 0146 FAD1     		bne	.L10
 553              	.L413:
 554              		.loc 1 134 0 is_stmt 1
 555 0148 0D9B     		ldr	r3, [sp, #52]
 556 014a 002B     		cmp	r3, #0
 557 014c 00F06A81 		beq	.L30
 558              		.loc 1 135 0
 559 0150 A0E0     		b	.L12
 560              	.L28:
 561              		.loc 1 138 0
 562 0152 FFF7FEFF 		bl	e_get_data
 563 0156 0346     		mov	r3, r0
 564 0158 8DF83130 		strb	r3, [sp, #49]
 565              		.loc 1 139 0
 566 015c FFF7FEFF 		bl	e_get_address
 567 0160 0346     		mov	r3, r0
 568 0162 8DF83230 		strb	r3, [sp, #50]
 569              		.loc 1 140 0
 570 0166 9DF83230 		ldrb	r3, [sp, #50]	@ zero_extendqisi2
 571 016a 002B     		cmp	r3, #0
 572 016c 04D0     		beq	.L13
 573              		.loc 1 140 0 is_stmt 0 discriminator 2
 574 016e 9DF83230 		ldrb	r3, [sp, #50]	@ zero_extendqisi2
 575 0172 082B     		cmp	r3, #8
 576 0174 40F08E80 		bne	.L12
 577              	.L13:
 578              		.loc 1 140 0 discriminator 3
 579 0178 9DF83120 		ldrb	r2, [sp, #49]	@ zero_extendqisi2
 580 017c 9DF83030 		ldrb	r3, [sp, #48]	@ zero_extendqisi2
 581 0180 9A42     		cmp	r2, r3
 582 0182 00F08780 		beq	.L12
 583              		.loc 1 141 0 is_stmt 1
 584 0186 9DF83130 		ldrb	r3, [sp, #49]	@ zero_extendqisi2
 585 018a 092B     		cmp	r3, #9
 586 018c 6DD8     		bhi	.L14
 587 018e 01A2     		adr	r2, .L16
 588 0190 52F823F0 		ldr	pc, [r2, r3, lsl #2]
 589              		.p2align 2
 590              	.L16:
 591 0194 4B020000 		.word	.L15+1
 592 0198 BD010000 		.word	.L17+1
 593 019c CF010000 		.word	.L18+1
 594 01a0 E1010000 		.word	.L19+1
 595 01a4 F3010000 		.word	.L20+1
 596 01a8 03020000 		.word	.L21+1
 597 01ac 11020000 		.word	.L22+1
 598 01b0 21020000 		.word	.L23+1
 599 01b4 2F020000 		.word	.L24+1
 600 01b8 3D020000 		.word	.L25+1
 601              		.p2align 1
 602              	.L17:
 603              		.loc 1 143 0
 604 01bc 424B     		ldr	r3, .L438+36
ARM GAS  C:\Users\Moi\AppData\Local\Temp\ccAXdvuJ.s 			page 17


 605 01be 4FF41672 		mov	r2, #600
 606 01c2 1A60     		str	r2, [r3]
 607              		.loc 1 144 0
 608 01c4 414B     		ldr	r3, .L438+40
 609 01c6 4FF49672 		mov	r2, #300
 610 01ca 1A60     		str	r2, [r3]
 611              		.loc 1 145 0
 612 01cc 54E0     		b	.L26
 613              	.L18:
 614              		.loc 1 147 0
 615 01ce 3E4B     		ldr	r3, .L438+36
 616 01d0 4FF41672 		mov	r2, #600
 617 01d4 1A60     		str	r2, [r3]
 618              		.loc 1 148 0
 619 01d6 3D4B     		ldr	r3, .L438+40
 620 01d8 4FF41672 		mov	r2, #600
 621 01dc 1A60     		str	r2, [r3]
 622              		.loc 1 149 0
 623 01de 4BE0     		b	.L26
 624              	.L19:
 625              		.loc 1 151 0
 626 01e0 394B     		ldr	r3, .L438+36
 627 01e2 4FF49672 		mov	r2, #300
 628 01e6 1A60     		str	r2, [r3]
 629              		.loc 1 152 0
 630 01e8 384B     		ldr	r3, .L438+40
 631 01ea 4FF41672 		mov	r2, #600
 632 01ee 1A60     		str	r2, [r3]
 633              		.loc 1 153 0
 634 01f0 42E0     		b	.L26
 635              	.L20:
 636              		.loc 1 155 0
 637 01f2 354B     		ldr	r3, .L438+36
 638 01f4 4FF41672 		mov	r2, #600
 639 01f8 1A60     		str	r2, [r3]
 640              		.loc 1 156 0
 641 01fa 344B     		ldr	r3, .L438+40
 642 01fc 344A     		ldr	r2, .L438+44
 643 01fe 1A60     		str	r2, [r3]
 644              		.loc 1 157 0
 645 0200 3AE0     		b	.L26
 646              	.L21:
 647              		.loc 1 159 0
 648 0202 314B     		ldr	r3, .L438+36
 649 0204 0022     		movs	r2, #0
 650 0206 1A60     		str	r2, [r3]
 651              		.loc 1 160 0
 652 0208 304B     		ldr	r3, .L438+40
 653 020a 0022     		movs	r2, #0
 654 020c 1A60     		str	r2, [r3]
 655              		.loc 1 161 0
 656 020e 33E0     		b	.L26
 657              	.L22:
 658              		.loc 1 163 0
 659 0210 2D4B     		ldr	r3, .L438+36
 660 0212 2F4A     		ldr	r2, .L438+44
 661 0214 1A60     		str	r2, [r3]
ARM GAS  C:\Users\Moi\AppData\Local\Temp\ccAXdvuJ.s 			page 18


 662              		.loc 1 164 0
 663 0216 2D4B     		ldr	r3, .L438+40
 664 0218 4FF41672 		mov	r2, #600
 665 021c 1A60     		str	r2, [r3]
 666              		.loc 1 165 0
 667 021e 2BE0     		b	.L26
 668              	.L23:
 669              		.loc 1 167 0
 670 0220 294B     		ldr	r3, .L438+36
 671 0222 2B4A     		ldr	r2, .L438+44
 672 0224 1A60     		str	r2, [r3]
 673              		.loc 1 168 0
 674 0226 294B     		ldr	r3, .L438+40
 675 0228 2A4A     		ldr	r2, .L438+48
 676 022a 1A60     		str	r2, [r3]
 677              		.loc 1 169 0
 678 022c 24E0     		b	.L26
 679              	.L24:
 680              		.loc 1 171 0
 681 022e 264B     		ldr	r3, .L438+36
 682 0230 274A     		ldr	r2, .L438+44
 683 0232 1A60     		str	r2, [r3]
 684              		.loc 1 172 0
 685 0234 254B     		ldr	r3, .L438+40
 686 0236 264A     		ldr	r2, .L438+44
 687 0238 1A60     		str	r2, [r3]
 688              		.loc 1 173 0
 689 023a 1DE0     		b	.L26
 690              	.L25:
 691              		.loc 1 175 0
 692 023c 224B     		ldr	r3, .L438+36
 693 023e 254A     		ldr	r2, .L438+48
 694 0240 1A60     		str	r2, [r3]
 695              		.loc 1 176 0
 696 0242 224B     		ldr	r3, .L438+40
 697 0244 224A     		ldr	r2, .L438+44
 698 0246 1A60     		str	r2, [r3]
 699              		.loc 1 177 0
 700 0248 16E0     		b	.L26
 701              	.L15:
 702              		.loc 1 179 0
 703 024a 234B     		ldr	r3, .L438+52
 704 024c 1B78     		ldrb	r3, [r3]	@ zero_extendqisi2
 705 024e 002B     		cmp	r3, #0
 706 0250 04D1     		bne	.L27
 707              		.loc 1 180 0
 708 0252 FFF7FEFF 		bl	e_init_sound
 709              		.loc 1 181 0
 710 0256 204B     		ldr	r3, .L438+52
 711 0258 0122     		movs	r2, #1
 712 025a 1A70     		strb	r2, [r3]
 713              	.L27:
 714              		.loc 1 183 0
 715 025c 41F65071 		movw	r1, #8016
 716 0260 42F61430 		movw	r0, #11028
 717 0264 FFF7FEFF 		bl	e_play_sound
 718              		.loc 1 184 0
ARM GAS  C:\Users\Moi\AppData\Local\Temp\ccAXdvuJ.s 			page 19


 719 0268 06E0     		b	.L26
 720              	.L14:
 721              		.loc 1 186 0
 722 026a 184B     		ldr	r3, .L438+40
 723 026c 0022     		movs	r2, #0
 724 026e 1A60     		str	r2, [r3]
 725 0270 164B     		ldr	r3, .L438+40
 726 0272 1B68     		ldr	r3, [r3]
 727 0274 144A     		ldr	r2, .L438+36
 728 0276 1360     		str	r3, [r2]
 729              	.L26:
 730              		.loc 1 188 0
 731 0278 9DF83130 		ldrb	r3, [sp, #49]
 732 027c 8DF83030 		strb	r3, [sp, #48]
 733              		.loc 1 189 0
 734 0280 124B     		ldr	r3, .L438+40
 735 0282 1B68     		ldr	r3, [r3]
 736 0284 1846     		mov	r0, r3
 737 0286 FFF7FEFF 		bl	e_set_speed_left
 738              		.loc 1 190 0
 739 028a 0F4B     		ldr	r3, .L438+36
 740 028c 1B68     		ldr	r3, [r3]
 741 028e 1846     		mov	r0, r3
 742 0290 FFF7FEFF 		bl	e_set_speed_right
 743              	.L12:
 744              		.loc 1 135 0
 745 0294 1148     		ldr	r0, .L438+56
 746 0296 FFF7FEFF 		bl	e_getchar_uart1
 747 029a 0346     		mov	r3, r0
 748 029c 002B     		cmp	r3, #0
 749 029e 3FF458AF 		beq	.L28
 750 02a2 C6E0     		b	.L29
 751              	.L439:
 752              		.align	2
 753              	.L438:
 754 02a4 00000000 		.word	__stack_chk_guard
 755 02a8 00000000 		.word	selector
 756 02ac 00000000 		.word	HWversion.12697
 757 02b0 00000000 		.word	cam_mode.12679
 758 02b4 00000000 		.word	cam_width.12680
 759 02b8 00000000 		.word	cam_heigth.12681
 760 02bc 00000000 		.word	cam_zoom.12682
 761 02c0 00000000 		.word	cam_size.12683
 762 02c4 00000000 		.word	.LC0
 763 02c8 00000000 		.word	speedr.12666
 764 02cc 00000000 		.word	speedl.12667
 765 02d0 A8FDFFFF 		.word	-600
 766 02d4 D4FEFFFF 		.word	-300
 767 02d8 00000000 		.word	first.12686
 768 02dc 00000000 		.word	c
 769              	.L46:
 770              		.loc 1 200 0
 771 02e0 FFF7FEFF 		bl	e_get_data
 772 02e4 0346     		mov	r3, r0
 773 02e6 8DF83130 		strb	r3, [sp, #49]
 774              		.loc 1 201 0
 775 02ea FFF7FEFF 		bl	e_get_address
ARM GAS  C:\Users\Moi\AppData\Local\Temp\ccAXdvuJ.s 			page 20


 776 02ee 0346     		mov	r3, r0
 777 02f0 8DF83230 		strb	r3, [sp, #50]
 778              		.loc 1 202 0
 779 02f4 9DF83230 		ldrb	r3, [sp, #50]	@ zero_extendqisi2
 780 02f8 002B     		cmp	r3, #0
 781 02fa 04D0     		beq	.L31
 782              		.loc 1 202 0 is_stmt 0 discriminator 2
 783 02fc 9DF83230 		ldrb	r3, [sp, #50]	@ zero_extendqisi2
 784 0300 082B     		cmp	r3, #8
 785 0302 40F08F80 		bne	.L30
 786              	.L31:
 787              		.loc 1 202 0 discriminator 3
 788 0306 9DF83120 		ldrb	r2, [sp, #49]	@ zero_extendqisi2
 789 030a 9DF83030 		ldrb	r3, [sp, #48]	@ zero_extendqisi2
 790 030e 9A42     		cmp	r2, r3
 791 0310 00F08880 		beq	.L30
 792              		.loc 1 203 0 is_stmt 1
 793 0314 9DF83130 		ldrb	r3, [sp, #49]	@ zero_extendqisi2
 794 0318 092B     		cmp	r3, #9
 795 031a 6ED8     		bhi	.L32
 796 031c 01A2     		adr	r2, .L34
 797 031e 52F823F0 		ldr	pc, [r2, r3, lsl #2]
 798 0322 00BF     		.p2align 2
 799              	.L34:
 800 0324 DB030000 		.word	.L33+1
 801 0328 4D030000 		.word	.L35+1
 802 032c 5F030000 		.word	.L36+1
 803 0330 71030000 		.word	.L37+1
 804 0334 83030000 		.word	.L38+1
 805 0338 93030000 		.word	.L39+1
 806 033c A1030000 		.word	.L40+1
 807 0340 B1030000 		.word	.L41+1
 808 0344 BF030000 		.word	.L42+1
 809 0348 CD030000 		.word	.L43+1
 810              		.p2align 1
 811              	.L35:
 812              		.loc 1 205 0
 813 034c 8E4B     		ldr	r3, .L440
 814 034e 4FF41672 		mov	r2, #600
 815 0352 1A60     		str	r2, [r3]
 816              		.loc 1 206 0
 817 0354 8D4B     		ldr	r3, .L440+4
 818 0356 4FF49672 		mov	r2, #300
 819 035a 1A60     		str	r2, [r3]
 820              		.loc 1 207 0
 821 035c 54E0     		b	.L44
 822              	.L36:
 823              		.loc 1 209 0
 824 035e 8A4B     		ldr	r3, .L440
 825 0360 4FF41672 		mov	r2, #600
 826 0364 1A60     		str	r2, [r3]
 827              		.loc 1 210 0
 828 0366 894B     		ldr	r3, .L440+4
 829 0368 4FF41672 		mov	r2, #600
 830 036c 1A60     		str	r2, [r3]
 831              		.loc 1 211 0
 832 036e 4BE0     		b	.L44
ARM GAS  C:\Users\Moi\AppData\Local\Temp\ccAXdvuJ.s 			page 21


 833              	.L37:
 834              		.loc 1 213 0
 835 0370 854B     		ldr	r3, .L440
 836 0372 4FF49672 		mov	r2, #300
 837 0376 1A60     		str	r2, [r3]
 838              		.loc 1 214 0
 839 0378 844B     		ldr	r3, .L440+4
 840 037a 4FF41672 		mov	r2, #600
 841 037e 1A60     		str	r2, [r3]
 842              		.loc 1 215 0
 843 0380 42E0     		b	.L44
 844              	.L38:
 845              		.loc 1 217 0
 846 0382 814B     		ldr	r3, .L440
 847 0384 4FF41672 		mov	r2, #600
 848 0388 1A60     		str	r2, [r3]
 849              		.loc 1 218 0
 850 038a 804B     		ldr	r3, .L440+4
 851 038c 804A     		ldr	r2, .L440+8
 852 038e 1A60     		str	r2, [r3]
 853              		.loc 1 219 0
 854 0390 3AE0     		b	.L44
 855              	.L39:
 856              		.loc 1 221 0
 857 0392 7D4B     		ldr	r3, .L440
 858 0394 0022     		movs	r2, #0
 859 0396 1A60     		str	r2, [r3]
 860              		.loc 1 222 0
 861 0398 7C4B     		ldr	r3, .L440+4
 862 039a 0022     		movs	r2, #0
 863 039c 1A60     		str	r2, [r3]
 864              		.loc 1 223 0
 865 039e 33E0     		b	.L44
 866              	.L40:
 867              		.loc 1 225 0
 868 03a0 794B     		ldr	r3, .L440
 869 03a2 7B4A     		ldr	r2, .L440+8
 870 03a4 1A60     		str	r2, [r3]
 871              		.loc 1 226 0
 872 03a6 794B     		ldr	r3, .L440+4
 873 03a8 4FF41672 		mov	r2, #600
 874 03ac 1A60     		str	r2, [r3]
 875              		.loc 1 227 0
 876 03ae 2BE0     		b	.L44
 877              	.L41:
 878              		.loc 1 229 0
 879 03b0 754B     		ldr	r3, .L440
 880 03b2 774A     		ldr	r2, .L440+8
 881 03b4 1A60     		str	r2, [r3]
 882              		.loc 1 230 0
 883 03b6 754B     		ldr	r3, .L440+4
 884 03b8 764A     		ldr	r2, .L440+12
 885 03ba 1A60     		str	r2, [r3]
 886              		.loc 1 231 0
 887 03bc 24E0     		b	.L44
 888              	.L42:
 889              		.loc 1 233 0
ARM GAS  C:\Users\Moi\AppData\Local\Temp\ccAXdvuJ.s 			page 22


 890 03be 724B     		ldr	r3, .L440
 891 03c0 734A     		ldr	r2, .L440+8
 892 03c2 1A60     		str	r2, [r3]
 893              		.loc 1 234 0
 894 03c4 714B     		ldr	r3, .L440+4
 895 03c6 724A     		ldr	r2, .L440+8
 896 03c8 1A60     		str	r2, [r3]
 897              		.loc 1 235 0
 898 03ca 1DE0     		b	.L44
 899              	.L43:
 900              		.loc 1 237 0
 901 03cc 6E4B     		ldr	r3, .L440
 902 03ce 714A     		ldr	r2, .L440+12
 903 03d0 1A60     		str	r2, [r3]
 904              		.loc 1 238 0
 905 03d2 6E4B     		ldr	r3, .L440+4
 906 03d4 6E4A     		ldr	r2, .L440+8
 907 03d6 1A60     		str	r2, [r3]
 908              		.loc 1 239 0
 909 03d8 16E0     		b	.L44
 910              	.L33:
 911              		.loc 1 241 0
 912 03da 6F4B     		ldr	r3, .L440+16
 913 03dc 1B78     		ldrb	r3, [r3]	@ zero_extendqisi2
 914 03de 002B     		cmp	r3, #0
 915 03e0 04D1     		bne	.L45
 916              		.loc 1 242 0
 917 03e2 FFF7FEFF 		bl	e_init_sound
 918              		.loc 1 243 0
 919 03e6 6C4B     		ldr	r3, .L440+16
 920 03e8 0122     		movs	r2, #1
 921 03ea 1A70     		strb	r2, [r3]
 922              	.L45:
 923              		.loc 1 245 0
 924 03ec 41F65071 		movw	r1, #8016
 925 03f0 42F61430 		movw	r0, #11028
 926 03f4 FFF7FEFF 		bl	e_play_sound
 927              		.loc 1 246 0
 928 03f8 06E0     		b	.L44
 929              	.L32:
 930              		.loc 1 248 0
 931 03fa 644B     		ldr	r3, .L440+4
 932 03fc 0022     		movs	r2, #0
 933 03fe 1A60     		str	r2, [r3]
 934 0400 624B     		ldr	r3, .L440+4
 935 0402 1B68     		ldr	r3, [r3]
 936 0404 604A     		ldr	r2, .L440
 937 0406 1360     		str	r3, [r2]
 938              	.L44:
 939              		.loc 1 250 0
 940 0408 9DF83130 		ldrb	r3, [sp, #49]
 941 040c 8DF83030 		strb	r3, [sp, #48]
 942              		.loc 1 251 0
 943 0410 5E4B     		ldr	r3, .L440+4
 944 0412 1B68     		ldr	r3, [r3]
 945 0414 1846     		mov	r0, r3
 946 0416 FFF7FEFF 		bl	e_set_speed_left
ARM GAS  C:\Users\Moi\AppData\Local\Temp\ccAXdvuJ.s 			page 23


 947              		.loc 1 252 0
 948 041a 5B4B     		ldr	r3, .L440
 949 041c 1B68     		ldr	r3, [r3]
 950 041e 1846     		mov	r0, r3
 951 0420 FFF7FEFF 		bl	e_set_speed_right
 952              	.L30:
 953              		.loc 1 197 0
 954 0424 5D48     		ldr	r0, .L440+20
 955 0426 FFF7FEFF 		bl	e_getchar_uart2
 956 042a 0346     		mov	r3, r0
 957 042c 002B     		cmp	r3, #0
 958 042e 3FF457AF 		beq	.L46
 959              	.L29:
 960              		.loc 1 260 0
 961 0432 5A4B     		ldr	r3, .L440+20
 962 0434 1B78     		ldrb	r3, [r3]	@ zero_extendqisi2
 963 0436 5BB2     		sxtb	r3, r3
 964 0438 002B     		cmp	r3, #0
 965 043a 80F24187 		bge	.L47
 966              		.loc 1 261 0
 967 043e 584B     		ldr	r3, .L440+24
 968 0440 0022     		movs	r2, #0
 969 0442 1A60     		str	r2, [r3]
 970              	.L163:
 971              		.loc 1 263 0
 972 0444 554B     		ldr	r3, .L440+20
 973 0446 1B78     		ldrb	r3, [r3]	@ zero_extendqisi2
 974 0448 5B42     		negs	r3, r3
 975 044a DBB2     		uxtb	r3, r3
 976 044c 5BB2     		sxtb	r3, r3
 977 044e 413B     		subs	r3, r3, #65
 978 0450 362B     		cmp	r3, #54
 979 0452 00F2C186 		bhi	.L416
 980 0456 01A2     		adr	r2, .L50
 981 0458 52F823F0 		ldr	pc, [r2, r3, lsl #2]
 982              		.p2align 2
 983              	.L50:
 984 045c 5D060000 		.word	.L49+1
 985 0460 D9110000 		.word	.L416+1
 986 0464 D9110000 		.word	.L416+1
 987 0468 61080000 		.word	.L51+1
 988 046c 21090000 		.word	.L52+1
 989 0470 D9110000 		.word	.L416+1
 990 0474 D9110000 		.word	.L416+1
 991 0478 D9110000 		.word	.L416+1
 992 047c 990A0000 		.word	.L53+1
 993 0480 D9110000 		.word	.L416+1
 994 0484 D9110000 		.word	.L416+1
 995 0488 030B0000 		.word	.L54+1
 996 048c 910B0000 		.word	.L55+1
 997 0490 870C0000 		.word	.L56+1
 998 0494 670D0000 		.word	.L57+1
 999 0498 190E0000 		.word	.L58+1
 1000 049c D70E0000 		.word	.L59+1
 1001 04a0 D9110000 		.word	.L416+1
 1002 04a4 D9110000 		.word	.L416+1
 1003 04a8 D9110000 		.word	.L416+1
ARM GAS  C:\Users\Moi\AppData\Local\Temp\ccAXdvuJ.s 			page 24


 1004 04ac D9110000 		.word	.L416+1
 1005 04b0 D9110000 		.word	.L416+1
 1006 04b4 41100000 		.word	.L61+1
 1007 04b8 D9110000 		.word	.L416+1
 1008 04bc D9110000 		.word	.L416+1
 1009 04c0 D9110000 		.word	.L416+1
 1010 04c4 D9110000 		.word	.L416+1
 1011 04c8 D9110000 		.word	.L416+1
 1012 04cc D9110000 		.word	.L416+1
 1013 04d0 D9110000 		.word	.L416+1
 1014 04d4 D9110000 		.word	.L416+1
 1015 04d8 D9110000 		.word	.L416+1
 1016 04dc 39050000 		.word	.L62+1
 1017 04e0 E3070000 		.word	.L63+1
 1018 04e4 D9110000 		.word	.L416+1
 1019 04e8 D9110000 		.word	.L416+1
 1020 04ec D9110000 		.word	.L416+1
 1021 04f0 D9110000 		.word	.L416+1
 1022 04f4 79090000 		.word	.L64+1
 1023 04f8 D9110000 		.word	.L416+1
 1024 04fc D9110000 		.word	.L416+1
 1025 0500 D9110000 		.word	.L416+1
 1026 0504 D9110000 		.word	.L416+1
 1027 0508 D9110000 		.word	.L416+1
 1028 050c D9110000 		.word	.L416+1
 1029 0510 D9110000 		.word	.L416+1
 1030 0514 D9110000 		.word	.L416+1
 1031 0518 D9110000 		.word	.L416+1
 1032 051c D9110000 		.word	.L416+1
 1033 0520 D9110000 		.word	.L416+1
 1034 0524 D9110000 		.word	.L416+1
 1035 0528 410F0000 		.word	.L65+1
 1036 052c 9D0F0000 		.word	.L66+1
 1037 0530 D9110000 		.word	.L416+1
 1038 0534 95100000 		.word	.L67+1
 1039              		.p2align 1
 1040              	.L62:
 1041              		.loc 1 265 0
 1042 0538 0D9B     		ldr	r3, [sp, #52]
 1043 053a 002B     		cmp	r3, #0
 1044 053c 15D0     		beq	.L68
 1045              		.loc 1 266 0
 1046 053e 0121     		movs	r1, #1
 1047 0540 0020     		movs	r0, #0
 1048 0542 FFF7FEFF 		bl	e_get_acc_filtered
 1049 0546 0246     		mov	r2, r0
 1050 0548 164B     		ldr	r3, .L440+28
 1051 054a 1A60     		str	r2, [r3]
 1052              		.loc 1 267 0
 1053 054c 0121     		movs	r1, #1
 1054 054e 0120     		movs	r0, #1
 1055 0550 FFF7FEFF 		bl	e_get_acc_filtered
 1056 0554 0246     		mov	r2, r0
 1057 0556 144B     		ldr	r3, .L440+32
 1058 0558 1A60     		str	r2, [r3]
 1059              		.loc 1 268 0
 1060 055a 0121     		movs	r1, #1
ARM GAS  C:\Users\Moi\AppData\Local\Temp\ccAXdvuJ.s 			page 25


 1061 055c 0220     		movs	r0, #2
 1062 055e FFF7FEFF 		bl	e_get_acc_filtered
 1063 0562 0246     		mov	r2, r0
 1064 0564 114B     		ldr	r3, .L440+36
 1065 0566 1A60     		str	r2, [r3]
 1066 0568 37E0     		b	.L69
 1067              	.L68:
 1068              		.loc 1 273 0
 1069 056a FFF7FEFF 		bl	isEpuckVersion1_3
 1070 056e 0346     		mov	r3, r0
 1071 0570 002B     		cmp	r3, #0
 1072 0572 1DD0     		beq	.L70
 1073              		.loc 1 274 0
 1074 0574 0B4B     		ldr	r3, .L440+28
 1075 0576 0022     		movs	r2, #0
 1076 0578 1A60     		str	r2, [r3]
 1077              		.loc 1 275 0
 1078 057a 0B4B     		ldr	r3, .L440+32
 1079 057c 0022     		movs	r2, #0
 1080 057e 1A60     		str	r2, [r3]
 1081              		.loc 1 276 0
 1082 0580 0A4B     		ldr	r3, .L440+36
 1083 0582 0022     		movs	r2, #0
 1084 0584 1A60     		str	r2, [r3]
 1085 0586 28E0     		b	.L69
 1086              	.L441:
 1087              		.align	2
 1088              	.L440:
 1089 0588 00000000 		.word	speedr.12666
 1090 058c 00000000 		.word	speedl.12667
 1091 0590 A8FDFFFF 		.word	-600
 1092 0594 D4FEFFFF 		.word	-300
 1093 0598 00000000 		.word	first.12686
 1094 059c 00000000 		.word	c
 1095 05a0 00000000 		.word	i.12663
 1096 05a4 00000000 		.word	accx.12672
 1097 05a8 00000000 		.word	accy.12673
 1098 05ac 00000000 		.word	accz.12674
 1099              	.L70:
 1100              		.loc 1 278 0
 1101 05b0 0121     		movs	r1, #1
 1102 05b2 0020     		movs	r0, #0
 1103 05b4 FFF7FEFF 		bl	e_get_acc_filtered
 1104 05b8 0246     		mov	r2, r0
 1105 05ba 984B     		ldr	r3, .L442
 1106 05bc 1A60     		str	r2, [r3]
 1107              		.loc 1 279 0
 1108 05be 0121     		movs	r1, #1
 1109 05c0 0120     		movs	r0, #1
 1110 05c2 FFF7FEFF 		bl	e_get_acc_filtered
 1111 05c6 0246     		mov	r2, r0
 1112 05c8 954B     		ldr	r3, .L442+4
 1113 05ca 1A60     		str	r2, [r3]
 1114              		.loc 1 280 0
 1115 05cc 0121     		movs	r1, #1
 1116 05ce 0220     		movs	r0, #2
 1117 05d0 FFF7FEFF 		bl	e_get_acc_filtered
ARM GAS  C:\Users\Moi\AppData\Local\Temp\ccAXdvuJ.s 			page 26


 1118 05d4 0246     		mov	r2, r0
 1119 05d6 934B     		ldr	r3, .L442+8
 1120 05d8 1A60     		str	r2, [r3]
 1121              	.L69:
 1122              		.loc 1 283 0
 1123 05da 904B     		ldr	r3, .L442
 1124 05dc 1868     		ldr	r0, [r3]
 1125 05de 924B     		ldr	r3, .L442+12
 1126 05e0 1B68     		ldr	r3, [r3]
 1127 05e2 5A1C     		adds	r2, r3, #1
 1128 05e4 9049     		ldr	r1, .L442+12
 1129 05e6 0A60     		str	r2, [r1]
 1130 05e8 C1B2     		uxtb	r1, r0
 1131 05ea 904A     		ldr	r2, .L442+16
 1132 05ec D154     		strb	r1, [r2, r3]
 1133              		.loc 1 284 0
 1134 05ee 8B4B     		ldr	r3, .L442
 1135 05f0 1B68     		ldr	r3, [r3]
 1136 05f2 1812     		asrs	r0, r3, #8
 1137 05f4 8C4B     		ldr	r3, .L442+12
 1138 05f6 1B68     		ldr	r3, [r3]
 1139 05f8 5A1C     		adds	r2, r3, #1
 1140 05fa 8B49     		ldr	r1, .L442+12
 1141 05fc 0A60     		str	r2, [r1]
 1142 05fe C1B2     		uxtb	r1, r0
 1143 0600 8A4A     		ldr	r2, .L442+16
 1144 0602 D154     		strb	r1, [r2, r3]
 1145              		.loc 1 285 0
 1146 0604 864B     		ldr	r3, .L442+4
 1147 0606 1868     		ldr	r0, [r3]
 1148 0608 874B     		ldr	r3, .L442+12
 1149 060a 1B68     		ldr	r3, [r3]
 1150 060c 5A1C     		adds	r2, r3, #1
 1151 060e 8649     		ldr	r1, .L442+12
 1152 0610 0A60     		str	r2, [r1]
 1153 0612 C1B2     		uxtb	r1, r0
 1154 0614 854A     		ldr	r2, .L442+16
 1155 0616 D154     		strb	r1, [r2, r3]
 1156              		.loc 1 286 0
 1157 0618 814B     		ldr	r3, .L442+4
 1158 061a 1B68     		ldr	r3, [r3]
 1159 061c 1812     		asrs	r0, r3, #8
 1160 061e 824B     		ldr	r3, .L442+12
 1161 0620 1B68     		ldr	r3, [r3]
 1162 0622 5A1C     		adds	r2, r3, #1
 1163 0624 8049     		ldr	r1, .L442+12
 1164 0626 0A60     		str	r2, [r1]
 1165 0628 C1B2     		uxtb	r1, r0
 1166 062a 804A     		ldr	r2, .L442+16
 1167 062c D154     		strb	r1, [r2, r3]
 1168              		.loc 1 287 0
 1169 062e 7D4B     		ldr	r3, .L442+8
 1170 0630 1868     		ldr	r0, [r3]
 1171 0632 7D4B     		ldr	r3, .L442+12
 1172 0634 1B68     		ldr	r3, [r3]
 1173 0636 5A1C     		adds	r2, r3, #1
 1174 0638 7B49     		ldr	r1, .L442+12
ARM GAS  C:\Users\Moi\AppData\Local\Temp\ccAXdvuJ.s 			page 27


 1175 063a 0A60     		str	r2, [r1]
 1176 063c C1B2     		uxtb	r1, r0
 1177 063e 7B4A     		ldr	r2, .L442+16
 1178 0640 D154     		strb	r1, [r2, r3]
 1179              		.loc 1 288 0
 1180 0642 784B     		ldr	r3, .L442+8
 1181 0644 1B68     		ldr	r3, [r3]
 1182 0646 1812     		asrs	r0, r3, #8
 1183 0648 774B     		ldr	r3, .L442+12
 1184 064a 1B68     		ldr	r3, [r3]
 1185 064c 5A1C     		adds	r2, r3, #1
 1186 064e 7649     		ldr	r1, .L442+12
 1187 0650 0A60     		str	r2, [r1]
 1188 0652 C1B2     		uxtb	r1, r0
 1189 0654 754A     		ldr	r2, .L442+16
 1190 0656 D154     		strb	r1, [r2, r3]
 1191              		.loc 1 289 0
 1192 0658 00F0C7BD 		b	.L71
 1193              	.L49:
 1194              		.loc 1 292 0
 1195 065c 0D9B     		ldr	r3, [sp, #52]
 1196 065e 002B     		cmp	r3, #0
 1197 0660 0FD0     		beq	.L72
 1198              		.loc 1 293 0
 1199 0662 FFF7FEFF 		bl	e_read_acc_spheric
 1200 0666 F0EE406A 		vmov.f32	s13, s0
 1201 066a B0EE607A 		vmov.f32	s14, s1
 1202 066e F0EE417A 		vmov.f32	s15, s2
 1203 0672 6F4B     		ldr	r3, .L442+20
 1204 0674 C3ED006A 		vstr.32	s13, [r3]
 1205 0678 83ED017A 		vstr.32	s14, [r3, #4]
 1206 067c C3ED027A 		vstr.32	s15, [r3, #8]
 1207 0680 20E0     		b	.L73
 1208              	.L72:
 1209              		.loc 1 295 0
 1210 0682 FFF7FEFF 		bl	isEpuckVersion1_3
 1211 0686 0346     		mov	r3, r0
 1212 0688 002B     		cmp	r3, #0
 1213 068a 0CD0     		beq	.L74
 1214              		.loc 1 296 0
 1215 068c 684B     		ldr	r3, .L442+20
 1216 068e 4FF00002 		mov	r2, #0
 1217 0692 1A60     		str	r2, [r3]	@ float
 1218              		.loc 1 297 0
 1219 0694 664B     		ldr	r3, .L442+20
 1220 0696 4FF00002 		mov	r2, #0
 1221 069a 9A60     		str	r2, [r3, #8]	@ float
 1222              		.loc 1 298 0
 1223 069c 644B     		ldr	r3, .L442+20
 1224 069e 4FF00002 		mov	r2, #0
 1225 06a2 5A60     		str	r2, [r3, #4]	@ float
 1226 06a4 0EE0     		b	.L73
 1227              	.L74:
 1228              		.loc 1 300 0
 1229 06a6 FFF7FEFF 		bl	e_read_acc_spheric
 1230 06aa F0EE406A 		vmov.f32	s13, s0
 1231 06ae B0EE607A 		vmov.f32	s14, s1
ARM GAS  C:\Users\Moi\AppData\Local\Temp\ccAXdvuJ.s 			page 28


 1232 06b2 F0EE417A 		vmov.f32	s15, s2
 1233 06b6 5E4B     		ldr	r3, .L442+20
 1234 06b8 C3ED006A 		vstr.32	s13, [r3]
 1235 06bc 83ED017A 		vstr.32	s14, [r3, #4]
 1236 06c0 C3ED027A 		vstr.32	s15, [r3, #8]
 1237              	.L73:
 1238              		.loc 1 303 0
 1239 06c4 5A4B     		ldr	r3, .L442+20
 1240 06c6 1093     		str	r3, [sp, #64]
 1241              		.loc 1 304 0
 1242 06c8 574B     		ldr	r3, .L442+12
 1243 06ca 1B68     		ldr	r3, [r3]
 1244 06cc 5A1C     		adds	r2, r3, #1
 1245 06ce 5649     		ldr	r1, .L442+12
 1246 06d0 0A60     		str	r2, [r1]
 1247 06d2 109A     		ldr	r2, [sp, #64]
 1248 06d4 1178     		ldrb	r1, [r2]	@ zero_extendqisi2
 1249 06d6 554A     		ldr	r2, .L442+16
 1250 06d8 D154     		strb	r1, [r2, r3]
 1251              		.loc 1 305 0
 1252 06da 109B     		ldr	r3, [sp, #64]
 1253 06dc 0133     		adds	r3, r3, #1
 1254 06de 1093     		str	r3, [sp, #64]
 1255              		.loc 1 306 0
 1256 06e0 514B     		ldr	r3, .L442+12
 1257 06e2 1B68     		ldr	r3, [r3]
 1258 06e4 5A1C     		adds	r2, r3, #1
 1259 06e6 5049     		ldr	r1, .L442+12
 1260 06e8 0A60     		str	r2, [r1]
 1261 06ea 109A     		ldr	r2, [sp, #64]
 1262 06ec 1178     		ldrb	r1, [r2]	@ zero_extendqisi2
 1263 06ee 4F4A     		ldr	r2, .L442+16
 1264 06f0 D154     		strb	r1, [r2, r3]
 1265              		.loc 1 307 0
 1266 06f2 109B     		ldr	r3, [sp, #64]
 1267 06f4 0133     		adds	r3, r3, #1
 1268 06f6 1093     		str	r3, [sp, #64]
 1269              		.loc 1 308 0
 1270 06f8 4B4B     		ldr	r3, .L442+12
 1271 06fa 1B68     		ldr	r3, [r3]
 1272 06fc 5A1C     		adds	r2, r3, #1
 1273 06fe 4A49     		ldr	r1, .L442+12
 1274 0700 0A60     		str	r2, [r1]
 1275 0702 109A     		ldr	r2, [sp, #64]
 1276 0704 1178     		ldrb	r1, [r2]	@ zero_extendqisi2
 1277 0706 494A     		ldr	r2, .L442+16
 1278 0708 D154     		strb	r1, [r2, r3]
 1279              		.loc 1 309 0
 1280 070a 109B     		ldr	r3, [sp, #64]
 1281 070c 0133     		adds	r3, r3, #1
 1282 070e 1093     		str	r3, [sp, #64]
 1283              		.loc 1 310 0
 1284 0710 454B     		ldr	r3, .L442+12
 1285 0712 1B68     		ldr	r3, [r3]
 1286 0714 5A1C     		adds	r2, r3, #1
 1287 0716 4449     		ldr	r1, .L442+12
 1288 0718 0A60     		str	r2, [r1]
ARM GAS  C:\Users\Moi\AppData\Local\Temp\ccAXdvuJ.s 			page 29


 1289 071a 109A     		ldr	r2, [sp, #64]
 1290 071c 1178     		ldrb	r1, [r2]	@ zero_extendqisi2
 1291 071e 434A     		ldr	r2, .L442+16
 1292 0720 D154     		strb	r1, [r2, r3]
 1293              		.loc 1 312 0
 1294 0722 444B     		ldr	r3, .L442+24
 1295 0724 1093     		str	r3, [sp, #64]
 1296              		.loc 1 313 0
 1297 0726 404B     		ldr	r3, .L442+12
 1298 0728 1B68     		ldr	r3, [r3]
 1299 072a 5A1C     		adds	r2, r3, #1
 1300 072c 3E49     		ldr	r1, .L442+12
 1301 072e 0A60     		str	r2, [r1]
 1302 0730 109A     		ldr	r2, [sp, #64]
 1303 0732 1178     		ldrb	r1, [r2]	@ zero_extendqisi2
 1304 0734 3D4A     		ldr	r2, .L442+16
 1305 0736 D154     		strb	r1, [r2, r3]
 1306              		.loc 1 314 0
 1307 0738 109B     		ldr	r3, [sp, #64]
 1308 073a 0133     		adds	r3, r3, #1
 1309 073c 1093     		str	r3, [sp, #64]
 1310              		.loc 1 315 0
 1311 073e 3A4B     		ldr	r3, .L442+12
 1312 0740 1B68     		ldr	r3, [r3]
 1313 0742 5A1C     		adds	r2, r3, #1
 1314 0744 3849     		ldr	r1, .L442+12
 1315 0746 0A60     		str	r2, [r1]
 1316 0748 109A     		ldr	r2, [sp, #64]
 1317 074a 1178     		ldrb	r1, [r2]	@ zero_extendqisi2
 1318 074c 374A     		ldr	r2, .L442+16
 1319 074e D154     		strb	r1, [r2, r3]
 1320              		.loc 1 316 0
 1321 0750 109B     		ldr	r3, [sp, #64]
 1322 0752 0133     		adds	r3, r3, #1
 1323 0754 1093     		str	r3, [sp, #64]
 1324              		.loc 1 317 0
 1325 0756 344B     		ldr	r3, .L442+12
 1326 0758 1B68     		ldr	r3, [r3]
 1327 075a 5A1C     		adds	r2, r3, #1
 1328 075c 3249     		ldr	r1, .L442+12
 1329 075e 0A60     		str	r2, [r1]
 1330 0760 109A     		ldr	r2, [sp, #64]
 1331 0762 1178     		ldrb	r1, [r2]	@ zero_extendqisi2
 1332 0764 314A     		ldr	r2, .L442+16
 1333 0766 D154     		strb	r1, [r2, r3]
 1334              		.loc 1 318 0
 1335 0768 109B     		ldr	r3, [sp, #64]
 1336 076a 0133     		adds	r3, r3, #1
 1337 076c 1093     		str	r3, [sp, #64]
 1338              		.loc 1 319 0
 1339 076e 2E4B     		ldr	r3, .L442+12
 1340 0770 1B68     		ldr	r3, [r3]
 1341 0772 5A1C     		adds	r2, r3, #1
 1342 0774 2C49     		ldr	r1, .L442+12
 1343 0776 0A60     		str	r2, [r1]
 1344 0778 109A     		ldr	r2, [sp, #64]
 1345 077a 1178     		ldrb	r1, [r2]	@ zero_extendqisi2
ARM GAS  C:\Users\Moi\AppData\Local\Temp\ccAXdvuJ.s 			page 30


 1346 077c 2B4A     		ldr	r2, .L442+16
 1347 077e D154     		strb	r1, [r2, r3]
 1348              		.loc 1 321 0
 1349 0780 2D4B     		ldr	r3, .L442+28
 1350 0782 1093     		str	r3, [sp, #64]
 1351              		.loc 1 322 0
 1352 0784 284B     		ldr	r3, .L442+12
 1353 0786 1B68     		ldr	r3, [r3]
 1354 0788 5A1C     		adds	r2, r3, #1
 1355 078a 2749     		ldr	r1, .L442+12
 1356 078c 0A60     		str	r2, [r1]
 1357 078e 109A     		ldr	r2, [sp, #64]
 1358 0790 1178     		ldrb	r1, [r2]	@ zero_extendqisi2
 1359 0792 264A     		ldr	r2, .L442+16
 1360 0794 D154     		strb	r1, [r2, r3]
 1361              		.loc 1 323 0
 1362 0796 109B     		ldr	r3, [sp, #64]
 1363 0798 0133     		adds	r3, r3, #1
 1364 079a 1093     		str	r3, [sp, #64]
 1365              		.loc 1 324 0
 1366 079c 224B     		ldr	r3, .L442+12
 1367 079e 1B68     		ldr	r3, [r3]
 1368 07a0 5A1C     		adds	r2, r3, #1
 1369 07a2 2149     		ldr	r1, .L442+12
 1370 07a4 0A60     		str	r2, [r1]
 1371 07a6 109A     		ldr	r2, [sp, #64]
 1372 07a8 1178     		ldrb	r1, [r2]	@ zero_extendqisi2
 1373 07aa 204A     		ldr	r2, .L442+16
 1374 07ac D154     		strb	r1, [r2, r3]
 1375              		.loc 1 325 0
 1376 07ae 109B     		ldr	r3, [sp, #64]
 1377 07b0 0133     		adds	r3, r3, #1
 1378 07b2 1093     		str	r3, [sp, #64]
 1379              		.loc 1 326 0
 1380 07b4 1C4B     		ldr	r3, .L442+12
 1381 07b6 1B68     		ldr	r3, [r3]
 1382 07b8 5A1C     		adds	r2, r3, #1
 1383 07ba 1B49     		ldr	r1, .L442+12
 1384 07bc 0A60     		str	r2, [r1]
 1385 07be 109A     		ldr	r2, [sp, #64]
 1386 07c0 1178     		ldrb	r1, [r2]	@ zero_extendqisi2
 1387 07c2 1A4A     		ldr	r2, .L442+16
 1388 07c4 D154     		strb	r1, [r2, r3]
 1389              		.loc 1 327 0
 1390 07c6 109B     		ldr	r3, [sp, #64]
 1391 07c8 0133     		adds	r3, r3, #1
 1392 07ca 1093     		str	r3, [sp, #64]
 1393              		.loc 1 328 0
 1394 07cc 164B     		ldr	r3, .L442+12
 1395 07ce 1B68     		ldr	r3, [r3]
 1396 07d0 5A1C     		adds	r2, r3, #1
 1397 07d2 1549     		ldr	r1, .L442+12
 1398 07d4 0A60     		str	r2, [r1]
 1399 07d6 109A     		ldr	r2, [sp, #64]
 1400 07d8 1178     		ldrb	r1, [r2]	@ zero_extendqisi2
 1401 07da 144A     		ldr	r2, .L442+16
 1402 07dc D154     		strb	r1, [r2, r3]
ARM GAS  C:\Users\Moi\AppData\Local\Temp\ccAXdvuJ.s 			page 31


 1403              		.loc 1 329 0
 1404 07de 00F004BD 		b	.L71
 1405              	.L63:
 1406              		.loc 1 332 0
 1407 07e2 FFF7FEFF 		bl	isEpuckVersion1_3
 1408 07e6 0346     		mov	r3, r0
 1409 07e8 002B     		cmp	r3, #0
 1410 07ea 27D0     		beq	.L75
 1411              		.loc 1 334 0
 1412 07ec FFF7FEFF 		bl	getBatteryValueRaw
 1413 07f0 0F90     		str	r0, [sp, #60]
 1414              		.loc 1 335 0
 1415 07f2 0D4B     		ldr	r3, .L442+12
 1416 07f4 1B68     		ldr	r3, [r3]
 1417 07f6 5A1C     		adds	r2, r3, #1
 1418 07f8 0B49     		ldr	r1, .L442+12
 1419 07fa 0A60     		str	r2, [r1]
 1420 07fc 0F9A     		ldr	r2, [sp, #60]
 1421 07fe D1B2     		uxtb	r1, r2
 1422 0800 0A4A     		ldr	r2, .L442+16
 1423 0802 D154     		strb	r1, [r2, r3]
 1424              		.loc 1 336 0
 1425 0804 0F9B     		ldr	r3, [sp, #60]
 1426 0806 180A     		lsrs	r0, r3, #8
 1427 0808 074B     		ldr	r3, .L442+12
 1428 080a 1B68     		ldr	r3, [r3]
 1429 080c 5A1C     		adds	r2, r3, #1
 1430 080e 0649     		ldr	r1, .L442+12
 1431 0810 0A60     		str	r2, [r1]
 1432 0812 C1B2     		uxtb	r1, r0
 1433 0814 054A     		ldr	r2, .L442+16
 1434 0816 D154     		strb	r1, [r2, r3]
 1435              		.loc 1 341 0
 1436 0818 00F0E7BC 		b	.L71
 1437              	.L443:
 1438              		.align	2
 1439              	.L442:
 1440 081c 00000000 		.word	accx.12672
 1441 0820 00000000 		.word	accy.12673
 1442 0824 00000000 		.word	accz.12674
 1443 0828 00000000 		.word	i.12663
 1444 082c 00000000 		.word	buffer
 1445 0830 00000000 		.word	accelero.12694
 1446 0834 04000000 		.word	accelero.12694+4
 1447 0838 08000000 		.word	accelero.12694+8
 1448              	.L75:
 1449              		.loc 1 338 0
 1450 083c 8D4B     		ldr	r3, .L444
 1451 083e 1B68     		ldr	r3, [r3]
 1452 0840 5A1C     		adds	r2, r3, #1
 1453 0842 8C49     		ldr	r1, .L444
 1454 0844 0A60     		str	r2, [r1]
 1455 0846 8C4A     		ldr	r2, .L444+4
 1456 0848 0021     		movs	r1, #0
 1457 084a D154     		strb	r1, [r2, r3]
 1458              		.loc 1 339 0
 1459 084c 894B     		ldr	r3, .L444
ARM GAS  C:\Users\Moi\AppData\Local\Temp\ccAXdvuJ.s 			page 32


 1460 084e 1B68     		ldr	r3, [r3]
 1461 0850 5A1C     		adds	r2, r3, #1
 1462 0852 8849     		ldr	r1, .L444
 1463 0854 0A60     		str	r2, [r1]
 1464 0856 884A     		ldr	r2, .L444+4
 1465 0858 0021     		movs	r1, #0
 1466 085a D154     		strb	r1, [r2, r3]
 1467              		.loc 1 341 0
 1468 085c 00F0C5BC 		b	.L71
 1469              	.L51:
 1470              		.loc 1 344 0
 1471 0860 0D9B     		ldr	r3, [sp, #52]
 1472 0862 002B     		cmp	r3, #0
 1473 0864 0ED0     		beq	.L432
 1474              		.loc 1 345 0
 1475 0866 00BF     		nop
 1476              	.L78:
 1477              		.loc 1 345 0 is_stmt 0 discriminator 1
 1478 0868 8448     		ldr	r0, .L444+8
 1479 086a FFF7FEFF 		bl	e_getchar_uart1
 1480 086e 0346     		mov	r3, r0
 1481 0870 002B     		cmp	r3, #0
 1482 0872 F9D0     		beq	.L78
 1483              		.loc 1 346 0 is_stmt 1
 1484 0874 00BF     		nop
 1485              	.L79:
 1486              		.loc 1 346 0 is_stmt 0 discriminator 1
 1487 0876 8248     		ldr	r0, .L444+12
 1488 0878 FFF7FEFF 		bl	e_getchar_uart1
 1489 087c 0346     		mov	r3, r0
 1490 087e 002B     		cmp	r3, #0
 1491 0880 F9D0     		beq	.L79
 1492 0882 0DE0     		b	.L80
 1493              	.L432:
 1494              		.loc 1 348 0 is_stmt 1
 1495 0884 00BF     		nop
 1496              	.L81:
 1497              		.loc 1 348 0 is_stmt 0 discriminator 1
 1498 0886 7D48     		ldr	r0, .L444+8
 1499 0888 FFF7FEFF 		bl	e_getchar_uart2
 1500 088c 0346     		mov	r3, r0
 1501 088e 002B     		cmp	r3, #0
 1502 0890 F9D0     		beq	.L81
 1503              		.loc 1 349 0 is_stmt 1
 1504 0892 00BF     		nop
 1505              	.L82:
 1506              		.loc 1 349 0 is_stmt 0 discriminator 1
 1507 0894 7A48     		ldr	r0, .L444+12
 1508 0896 FFF7FEFF 		bl	e_getchar_uart2
 1509 089a 0346     		mov	r3, r0
 1510 089c 002B     		cmp	r3, #0
 1511 089e F9D0     		beq	.L82
 1512              	.L80:
 1513              		.loc 1 351 0 is_stmt 1
 1514 08a0 764B     		ldr	r3, .L444+8
 1515 08a2 1B78     		ldrb	r3, [r3]	@ zero_extendqisi2
 1516 08a4 1A46     		mov	r2, r3
ARM GAS  C:\Users\Moi\AppData\Local\Temp\ccAXdvuJ.s 			page 33


 1517 08a6 764B     		ldr	r3, .L444+12
 1518 08a8 1B78     		ldrb	r3, [r3]	@ zero_extendqisi2
 1519 08aa 1B02     		lsls	r3, r3, #8
 1520 08ac 1344     		add	r3, r3, r2
 1521 08ae 1A46     		mov	r2, r3
 1522 08b0 744B     		ldr	r3, .L444+16
 1523 08b2 1A60     		str	r2, [r3]
 1524              		.loc 1 352 0
 1525 08b4 0D9B     		ldr	r3, [sp, #52]
 1526 08b6 002B     		cmp	r3, #0
 1527 08b8 0ED0     		beq	.L433
 1528              		.loc 1 353 0
 1529 08ba 00BF     		nop
 1530              	.L84:
 1531              		.loc 1 353 0 is_stmt 0 discriminator 1
 1532 08bc 6F48     		ldr	r0, .L444+8
 1533 08be FFF7FEFF 		bl	e_getchar_uart1
 1534 08c2 0346     		mov	r3, r0
 1535 08c4 002B     		cmp	r3, #0
 1536 08c6 F9D0     		beq	.L84
 1537              		.loc 1 354 0 is_stmt 1
 1538 08c8 00BF     		nop
 1539              	.L85:
 1540              		.loc 1 354 0 is_stmt 0 discriminator 1
 1541 08ca 6D48     		ldr	r0, .L444+12
 1542 08cc FFF7FEFF 		bl	e_getchar_uart1
 1543 08d0 0346     		mov	r3, r0
 1544 08d2 002B     		cmp	r3, #0
 1545 08d4 F9D0     		beq	.L85
 1546 08d6 0DE0     		b	.L86
 1547              	.L433:
 1548              		.loc 1 356 0 is_stmt 1
 1549 08d8 00BF     		nop
 1550              	.L87:
 1551              		.loc 1 356 0 is_stmt 0 discriminator 1
 1552 08da 6848     		ldr	r0, .L444+8
 1553 08dc FFF7FEFF 		bl	e_getchar_uart2
 1554 08e0 0346     		mov	r3, r0
 1555 08e2 002B     		cmp	r3, #0
 1556 08e4 F9D0     		beq	.L87
 1557              		.loc 1 357 0 is_stmt 1
 1558 08e6 00BF     		nop
 1559              	.L88:
 1560              		.loc 1 357 0 is_stmt 0 discriminator 1
 1561 08e8 6548     		ldr	r0, .L444+12
 1562 08ea FFF7FEFF 		bl	e_getchar_uart2
 1563 08ee 0346     		mov	r3, r0
 1564 08f0 002B     		cmp	r3, #0
 1565 08f2 F9D0     		beq	.L88
 1566              	.L86:
 1567              		.loc 1 359 0 is_stmt 1
 1568 08f4 614B     		ldr	r3, .L444+8
 1569 08f6 1B78     		ldrb	r3, [r3]	@ zero_extendqisi2
 1570 08f8 1A46     		mov	r2, r3
 1571 08fa 614B     		ldr	r3, .L444+12
 1572 08fc 1B78     		ldrb	r3, [r3]	@ zero_extendqisi2
 1573 08fe 1B02     		lsls	r3, r3, #8
ARM GAS  C:\Users\Moi\AppData\Local\Temp\ccAXdvuJ.s 			page 34


 1574 0900 1344     		add	r3, r3, r2
 1575 0902 1A46     		mov	r2, r3
 1576 0904 604B     		ldr	r3, .L444+20
 1577 0906 1A60     		str	r2, [r3]
 1578              		.loc 1 360 0
 1579 0908 5E4B     		ldr	r3, .L444+16
 1580 090a 1B68     		ldr	r3, [r3]
 1581 090c 1846     		mov	r0, r3
 1582 090e FFF7FEFF 		bl	e_set_speed_left
 1583              		.loc 1 361 0
 1584 0912 5D4B     		ldr	r3, .L444+20
 1585 0914 1B68     		ldr	r3, [r3]
 1586 0916 1846     		mov	r0, r3
 1587 0918 FFF7FEFF 		bl	e_set_speed_right
 1588              		.loc 1 362 0
 1589 091c 00F065BC 		b	.L71
 1590              	.L52:
 1591              		.loc 1 364 0
 1592 0920 584B     		ldr	r3, .L444+16
 1593 0922 1868     		ldr	r0, [r3]
 1594 0924 534B     		ldr	r3, .L444
 1595 0926 1B68     		ldr	r3, [r3]
 1596 0928 5A1C     		adds	r2, r3, #1
 1597 092a 5249     		ldr	r1, .L444
 1598 092c 0A60     		str	r2, [r1]
 1599 092e C1B2     		uxtb	r1, r0
 1600 0930 514A     		ldr	r2, .L444+4
 1601 0932 D154     		strb	r1, [r2, r3]
 1602              		.loc 1 365 0
 1603 0934 534B     		ldr	r3, .L444+16
 1604 0936 1B68     		ldr	r3, [r3]
 1605 0938 1812     		asrs	r0, r3, #8
 1606 093a 4E4B     		ldr	r3, .L444
 1607 093c 1B68     		ldr	r3, [r3]
 1608 093e 5A1C     		adds	r2, r3, #1
 1609 0940 4C49     		ldr	r1, .L444
 1610 0942 0A60     		str	r2, [r1]
 1611 0944 C1B2     		uxtb	r1, r0
 1612 0946 4C4A     		ldr	r2, .L444+4
 1613 0948 D154     		strb	r1, [r2, r3]
 1614              		.loc 1 366 0
 1615 094a 4F4B     		ldr	r3, .L444+20
 1616 094c 1868     		ldr	r0, [r3]
 1617 094e 494B     		ldr	r3, .L444
 1618 0950 1B68     		ldr	r3, [r3]
 1619 0952 5A1C     		adds	r2, r3, #1
 1620 0954 4749     		ldr	r1, .L444
 1621 0956 0A60     		str	r2, [r1]
 1622 0958 C1B2     		uxtb	r1, r0
 1623 095a 474A     		ldr	r2, .L444+4
 1624 095c D154     		strb	r1, [r2, r3]
 1625              		.loc 1 367 0
 1626 095e 4A4B     		ldr	r3, .L444+20
 1627 0960 1B68     		ldr	r3, [r3]
 1628 0962 1812     		asrs	r0, r3, #8
 1629 0964 434B     		ldr	r3, .L444
 1630 0966 1B68     		ldr	r3, [r3]
ARM GAS  C:\Users\Moi\AppData\Local\Temp\ccAXdvuJ.s 			page 35


 1631 0968 5A1C     		adds	r2, r3, #1
 1632 096a 4249     		ldr	r1, .L444
 1633 096c 0A60     		str	r2, [r1]
 1634 096e C1B2     		uxtb	r1, r0
 1635 0970 414A     		ldr	r2, .L444+4
 1636 0972 D154     		strb	r1, [r2, r3]
 1637              		.loc 1 368 0
 1638 0974 00F039BC 		b	.L71
 1639              	.L64:
 1640              		.loc 1 371 0
 1641 0978 0D9B     		ldr	r3, [sp, #52]
 1642 097a 002B     		cmp	r3, #0
 1643 097c 49D0     		beq	.L89
 1644              		.loc 1 371 0 is_stmt 0 discriminator 1
 1645 097e FFF7FEFF 		bl	isEpuckVersion1_3
 1646 0982 0346     		mov	r3, r0
 1647 0984 002B     		cmp	r3, #0
 1648 0986 44D0     		beq	.L89
 1649              		.loc 1 372 0 is_stmt 1
 1650 0988 404A     		ldr	r2, .L444+24
 1651 098a 4149     		ldr	r1, .L444+28
 1652 098c 4148     		ldr	r0, .L444+32
 1653 098e FFF7FEFF 		bl	getAllAxesGyro
 1654              		.loc 1 373 0
 1655 0992 404B     		ldr	r3, .L444+32
 1656 0994 1868     		ldr	r0, [r3]
 1657 0996 374B     		ldr	r3, .L444
 1658 0998 1B68     		ldr	r3, [r3]
 1659 099a 5A1C     		adds	r2, r3, #1
 1660 099c 3549     		ldr	r1, .L444
 1661 099e 0A60     		str	r2, [r1]
 1662 09a0 C1B2     		uxtb	r1, r0
 1663 09a2 354A     		ldr	r2, .L444+4
 1664 09a4 D154     		strb	r1, [r2, r3]
 1665              		.loc 1 374 0
 1666 09a6 3B4B     		ldr	r3, .L444+32
 1667 09a8 1B68     		ldr	r3, [r3]
 1668 09aa 1812     		asrs	r0, r3, #8
 1669 09ac 314B     		ldr	r3, .L444
 1670 09ae 1B68     		ldr	r3, [r3]
 1671 09b0 5A1C     		adds	r2, r3, #1
 1672 09b2 3049     		ldr	r1, .L444
 1673 09b4 0A60     		str	r2, [r1]
 1674 09b6 C1B2     		uxtb	r1, r0
 1675 09b8 2F4A     		ldr	r2, .L444+4
 1676 09ba D154     		strb	r1, [r2, r3]
 1677              		.loc 1 375 0
 1678 09bc 344B     		ldr	r3, .L444+28
 1679 09be 1868     		ldr	r0, [r3]
 1680 09c0 2C4B     		ldr	r3, .L444
 1681 09c2 1B68     		ldr	r3, [r3]
 1682 09c4 5A1C     		adds	r2, r3, #1
 1683 09c6 2B49     		ldr	r1, .L444
 1684 09c8 0A60     		str	r2, [r1]
 1685 09ca C1B2     		uxtb	r1, r0
 1686 09cc 2A4A     		ldr	r2, .L444+4
 1687 09ce D154     		strb	r1, [r2, r3]
ARM GAS  C:\Users\Moi\AppData\Local\Temp\ccAXdvuJ.s 			page 36


 1688              		.loc 1 376 0
 1689 09d0 2F4B     		ldr	r3, .L444+28
 1690 09d2 1B68     		ldr	r3, [r3]
 1691 09d4 1812     		asrs	r0, r3, #8
 1692 09d6 274B     		ldr	r3, .L444
 1693 09d8 1B68     		ldr	r3, [r3]
 1694 09da 5A1C     		adds	r2, r3, #1
 1695 09dc 2549     		ldr	r1, .L444
 1696 09de 0A60     		str	r2, [r1]
 1697 09e0 C1B2     		uxtb	r1, r0
 1698 09e2 254A     		ldr	r2, .L444+4
 1699 09e4 D154     		strb	r1, [r2, r3]
 1700              		.loc 1 377 0
 1701 09e6 294B     		ldr	r3, .L444+24
 1702 09e8 1868     		ldr	r0, [r3]
 1703 09ea 224B     		ldr	r3, .L444
 1704 09ec 1B68     		ldr	r3, [r3]
 1705 09ee 5A1C     		adds	r2, r3, #1
 1706 09f0 2049     		ldr	r1, .L444
 1707 09f2 0A60     		str	r2, [r1]
 1708 09f4 C1B2     		uxtb	r1, r0
 1709 09f6 204A     		ldr	r2, .L444+4
 1710 09f8 D154     		strb	r1, [r2, r3]
 1711              		.loc 1 378 0
 1712 09fa 244B     		ldr	r3, .L444+24
 1713 09fc 1B68     		ldr	r3, [r3]
 1714 09fe 1812     		asrs	r0, r3, #8
 1715 0a00 1C4B     		ldr	r3, .L444
 1716 0a02 1B68     		ldr	r3, [r3]
 1717 0a04 5A1C     		adds	r2, r3, #1
 1718 0a06 1B49     		ldr	r1, .L444
 1719 0a08 0A60     		str	r2, [r1]
 1720 0a0a C1B2     		uxtb	r1, r0
 1721 0a0c 1A4A     		ldr	r2, .L444+4
 1722 0a0e D154     		strb	r1, [r2, r3]
 1723              		.loc 1 387 0
 1724 0a10 EBE3     		b	.L71
 1725              	.L89:
 1726              		.loc 1 380 0
 1727 0a12 184B     		ldr	r3, .L444
 1728 0a14 1B68     		ldr	r3, [r3]
 1729 0a16 5A1C     		adds	r2, r3, #1
 1730 0a18 1649     		ldr	r1, .L444
 1731 0a1a 0A60     		str	r2, [r1]
 1732 0a1c 164A     		ldr	r2, .L444+4
 1733 0a1e 0021     		movs	r1, #0
 1734 0a20 D154     		strb	r1, [r2, r3]
 1735              		.loc 1 381 0
 1736 0a22 144B     		ldr	r3, .L444
 1737 0a24 1B68     		ldr	r3, [r3]
 1738 0a26 5A1C     		adds	r2, r3, #1
 1739 0a28 1249     		ldr	r1, .L444
 1740 0a2a 0A60     		str	r2, [r1]
 1741 0a2c 124A     		ldr	r2, .L444+4
 1742 0a2e 0021     		movs	r1, #0
 1743 0a30 D154     		strb	r1, [r2, r3]
 1744              		.loc 1 382 0
ARM GAS  C:\Users\Moi\AppData\Local\Temp\ccAXdvuJ.s 			page 37


 1745 0a32 104B     		ldr	r3, .L444
 1746 0a34 1B68     		ldr	r3, [r3]
 1747 0a36 5A1C     		adds	r2, r3, #1
 1748 0a38 0E49     		ldr	r1, .L444
 1749 0a3a 0A60     		str	r2, [r1]
 1750 0a3c 0E4A     		ldr	r2, .L444+4
 1751 0a3e 0021     		movs	r1, #0
 1752 0a40 D154     		strb	r1, [r2, r3]
 1753              		.loc 1 383 0
 1754 0a42 0C4B     		ldr	r3, .L444
 1755 0a44 1B68     		ldr	r3, [r3]
 1756 0a46 5A1C     		adds	r2, r3, #1
 1757 0a48 0A49     		ldr	r1, .L444
 1758 0a4a 0A60     		str	r2, [r1]
 1759 0a4c 0A4A     		ldr	r2, .L444+4
 1760 0a4e 0021     		movs	r1, #0
 1761 0a50 D154     		strb	r1, [r2, r3]
 1762              		.loc 1 384 0
 1763 0a52 084B     		ldr	r3, .L444
 1764 0a54 1B68     		ldr	r3, [r3]
 1765 0a56 5A1C     		adds	r2, r3, #1
 1766 0a58 0649     		ldr	r1, .L444
 1767 0a5a 0A60     		str	r2, [r1]
 1768 0a5c 064A     		ldr	r2, .L444+4
 1769 0a5e 0021     		movs	r1, #0
 1770 0a60 D154     		strb	r1, [r2, r3]
 1771              		.loc 1 385 0
 1772 0a62 044B     		ldr	r3, .L444
 1773 0a64 1B68     		ldr	r3, [r3]
 1774 0a66 5A1C     		adds	r2, r3, #1
 1775 0a68 0249     		ldr	r1, .L444
 1776 0a6a 0A60     		str	r2, [r1]
 1777 0a6c 024A     		ldr	r2, .L444+4
 1778 0a6e 0021     		movs	r1, #0
 1779 0a70 D154     		strb	r1, [r2, r3]
 1780              		.loc 1 387 0
 1781 0a72 BAE3     		b	.L71
 1782              	.L445:
 1783              		.align	2
 1784              	.L444:
 1785 0a74 00000000 		.word	i.12663
 1786 0a78 00000000 		.word	buffer
 1787 0a7c 00000000 		.word	c1.12660
 1788 0a80 00000000 		.word	c2.12661
 1789 0a84 00000000 		.word	speedl.12667
 1790 0a88 00000000 		.word	speedr.12666
 1791 0a8c 00000000 		.word	gyroz.12678
 1792 0a90 00000000 		.word	gyroy.12677
 1793 0a94 00000000 		.word	gyrox.12676
 1794              	.L53:
 1795              		.loc 1 390 0
 1796 0a98 0D9B     		ldr	r3, [sp, #52]
 1797 0a9a 002B     		cmp	r3, #0
 1798 0a9c 00F09E83 		beq	.L417
 1799              		.loc 1 391 0
 1800 0aa0 924B     		ldr	r3, .L446
 1801 0aa2 1B68     		ldr	r3, [r3]
ARM GAS  C:\Users\Moi\AppData\Local\Temp\ccAXdvuJ.s 			page 38


 1802 0aa4 0333     		adds	r3, r3, #3
 1803 0aa6 924A     		ldr	r2, .L446+4
 1804 0aa8 1344     		add	r3, r3, r2
 1805 0aaa 1846     		mov	r0, r3
 1806 0aac FFF7FEFF 		bl	e_poxxxx_launch_capture
 1807              		.loc 1 392 0
 1808 0ab0 904B     		ldr	r3, .L446+8
 1809 0ab2 0122     		movs	r2, #1
 1810 0ab4 1A70     		strb	r2, [r3]
 1811              		.loc 1 393 0
 1812 0ab6 904B     		ldr	r3, .L446+12
 1813 0ab8 1868     		ldr	r0, [r3]
 1814 0aba 8C4B     		ldr	r3, .L446
 1815 0abc 1B68     		ldr	r3, [r3]
 1816 0abe 5A1C     		adds	r2, r3, #1
 1817 0ac0 8A49     		ldr	r1, .L446
 1818 0ac2 0A60     		str	r2, [r1]
 1819 0ac4 C1B2     		uxtb	r1, r0
 1820 0ac6 8A4A     		ldr	r2, .L446+4
 1821 0ac8 D154     		strb	r1, [r2, r3]
 1822              		.loc 1 394 0
 1823 0aca 8C4B     		ldr	r3, .L446+16
 1824 0acc 1868     		ldr	r0, [r3]
 1825 0ace 874B     		ldr	r3, .L446
 1826 0ad0 1B68     		ldr	r3, [r3]
 1827 0ad2 5A1C     		adds	r2, r3, #1
 1828 0ad4 8549     		ldr	r1, .L446
 1829 0ad6 0A60     		str	r2, [r1]
 1830 0ad8 C1B2     		uxtb	r1, r0
 1831 0ada 854A     		ldr	r2, .L446+4
 1832 0adc D154     		strb	r1, [r2, r3]
 1833              		.loc 1 395 0
 1834 0ade 884B     		ldr	r3, .L446+20
 1835 0ae0 1868     		ldr	r0, [r3]
 1836 0ae2 824B     		ldr	r3, .L446
 1837 0ae4 1B68     		ldr	r3, [r3]
 1838 0ae6 5A1C     		adds	r2, r3, #1
 1839 0ae8 8049     		ldr	r1, .L446
 1840 0aea 0A60     		str	r2, [r1]
 1841 0aec C1B2     		uxtb	r1, r0
 1842 0aee 804A     		ldr	r2, .L446+4
 1843 0af0 D154     		strb	r1, [r2, r3]
 1844              		.loc 1 396 0
 1845 0af2 7E4B     		ldr	r3, .L446
 1846 0af4 1A68     		ldr	r2, [r3]
 1847 0af6 834B     		ldr	r3, .L446+24
 1848 0af8 1B68     		ldr	r3, [r3]
 1849 0afa 1344     		add	r3, r3, r2
 1850 0afc 7B4A     		ldr	r2, .L446
 1851 0afe 1360     		str	r3, [r2]
 1852              		.loc 1 398 0
 1853 0b00 6CE3     		b	.L417
 1854              	.L54:
 1855              		.loc 1 400 0
 1856 0b02 0D9B     		ldr	r3, [sp, #52]
 1857 0b04 002B     		cmp	r3, #0
 1858 0b06 0ED0     		beq	.L434
ARM GAS  C:\Users\Moi\AppData\Local\Temp\ccAXdvuJ.s 			page 39


 1859              		.loc 1 401 0
 1860 0b08 00BF     		nop
 1861              	.L93:
 1862              		.loc 1 401 0 is_stmt 0 discriminator 1
 1863 0b0a 7F48     		ldr	r0, .L446+28
 1864 0b0c FFF7FEFF 		bl	e_getchar_uart1
 1865 0b10 0346     		mov	r3, r0
 1866 0b12 002B     		cmp	r3, #0
 1867 0b14 F9D0     		beq	.L93
 1868              		.loc 1 402 0 is_stmt 1
 1869 0b16 00BF     		nop
 1870              	.L94:
 1871              		.loc 1 402 0 is_stmt 0 discriminator 1
 1872 0b18 7C48     		ldr	r0, .L446+32
 1873 0b1a FFF7FEFF 		bl	e_getchar_uart1
 1874 0b1e 0346     		mov	r3, r0
 1875 0b20 002B     		cmp	r3, #0
 1876 0b22 F9D0     		beq	.L94
 1877 0b24 0DE0     		b	.L95
 1878              	.L434:
 1879              		.loc 1 404 0 is_stmt 1
 1880 0b26 00BF     		nop
 1881              	.L96:
 1882              		.loc 1 404 0 is_stmt 0 discriminator 1
 1883 0b28 7748     		ldr	r0, .L446+28
 1884 0b2a FFF7FEFF 		bl	e_getchar_uart2
 1885 0b2e 0346     		mov	r3, r0
 1886 0b30 002B     		cmp	r3, #0
 1887 0b32 F9D0     		beq	.L96
 1888              		.loc 1 405 0 is_stmt 1
 1889 0b34 00BF     		nop
 1890              	.L97:
 1891              		.loc 1 405 0 is_stmt 0 discriminator 1
 1892 0b36 7548     		ldr	r0, .L446+32
 1893 0b38 FFF7FEFF 		bl	e_getchar_uart2
 1894 0b3c 0346     		mov	r3, r0
 1895 0b3e 002B     		cmp	r3, #0
 1896 0b40 F9D0     		beq	.L97
 1897              	.L95:
 1898              		.loc 1 407 0 is_stmt 1
 1899 0b42 714B     		ldr	r3, .L446+28
 1900 0b44 1B78     		ldrb	r3, [r3]	@ zero_extendqisi2
 1901 0b46 082B     		cmp	r3, #8
 1902 0b48 02D0     		beq	.L99
 1903 0b4a 092B     		cmp	r3, #9
 1904 0b4c 09D0     		beq	.L100
 1905 0b4e 11E0     		b	.L415
 1906              	.L99:
 1907              		.loc 1 409 0
 1908 0b50 0D9B     		ldr	r3, [sp, #52]
 1909 0b52 002B     		cmp	r3, #0
 1910 0b54 18D0     		beq	.L418
 1911              		.loc 1 410 0
 1912 0b56 6D4B     		ldr	r3, .L446+32
 1913 0b58 1B78     		ldrb	r3, [r3]	@ zero_extendqisi2
 1914 0b5a 1846     		mov	r0, r3
 1915 0b5c FFF7FEFF 		bl	e_set_body_led
ARM GAS  C:\Users\Moi\AppData\Local\Temp\ccAXdvuJ.s 			page 40


 1916              		.loc 1 412 0
 1917 0b60 12E0     		b	.L418
 1918              	.L100:
 1919              		.loc 1 414 0
 1920 0b62 0D9B     		ldr	r3, [sp, #52]
 1921 0b64 002B     		cmp	r3, #0
 1922 0b66 11D0     		beq	.L419
 1923              		.loc 1 415 0
 1924 0b68 684B     		ldr	r3, .L446+32
 1925 0b6a 1B78     		ldrb	r3, [r3]	@ zero_extendqisi2
 1926 0b6c 1846     		mov	r0, r3
 1927 0b6e FFF7FEFF 		bl	e_set_front_led
 1928              		.loc 1 417 0
 1929 0b72 0BE0     		b	.L419
 1930              	.L415:
 1931              		.loc 1 419 0
 1932 0b74 644B     		ldr	r3, .L446+28
 1933 0b76 1B78     		ldrb	r3, [r3]	@ zero_extendqisi2
 1934 0b78 1A46     		mov	r2, r3
 1935 0b7a 644B     		ldr	r3, .L446+32
 1936 0b7c 1B78     		ldrb	r3, [r3]	@ zero_extendqisi2
 1937 0b7e 1946     		mov	r1, r3
 1938 0b80 1046     		mov	r0, r2
 1939 0b82 FFF7FEFF 		bl	e_set_led
 1940              		.loc 1 420 0
 1941 0b86 02E0     		b	.L102
 1942              	.L418:
 1943              		.loc 1 412 0
 1944 0b88 00BF     		nop
 1945 0b8a 2EE3     		b	.L71
 1946              	.L419:
 1947              		.loc 1 417 0
 1948 0b8c 00BF     		nop
 1949              	.L102:
 1950              		.loc 1 422 0
 1951 0b8e 2CE3     		b	.L71
 1952              	.L55:
 1953              		.loc 1 425 0
 1954 0b90 0D9B     		ldr	r3, [sp, #52]
 1955 0b92 002B     		cmp	r3, #0
 1956 0b94 00F02483 		beq	.L420
 1957              		.loc 1 426 0
 1958 0b98 FFF7FEFF 		bl	e_i2cp_init
 1959              		.loc 1 427 0
 1960 0b9c FFF7FEFF 		bl	e_i2cp_enable
 1961              		.loc 1 428 0
 1962 0ba0 0021     		movs	r1, #0
 1963 0ba2 C020     		movs	r0, #192
 1964 0ba4 FFF7FEFF 		bl	e_i2cp_read
 1965              		.loc 1 429 0
 1966 0ba8 594B     		ldr	r3, .L446+36
 1967 0baa 0022     		movs	r2, #0
 1968 0bac 1A60     		str	r2, [r3]
 1969 0bae 2DE0     		b	.L105
 1970              	.L108:
 1971              		.loc 1 430 0
 1972 0bb0 574B     		ldr	r3, .L446+36
ARM GAS  C:\Users\Moi\AppData\Local\Temp\ccAXdvuJ.s 			page 41


 1973 0bb2 1B68     		ldr	r3, [r3]
 1974 0bb4 03F00103 		and	r3, r3, #1
 1975 0bb8 002B     		cmp	r3, #0
 1976 0bba 11D1     		bne	.L106
 1977              		.loc 1 430 0 is_stmt 0 discriminator 1
 1978 0bbc 544B     		ldr	r3, .L446+36
 1979 0bbe 1B68     		ldr	r3, [r3]
 1980 0bc0 DBB2     		uxtb	r3, r3
 1981 0bc2 0133     		adds	r3, r3, #1
 1982 0bc4 D9B2     		uxtb	r1, r3
 1983 0bc6 494B     		ldr	r3, .L446
 1984 0bc8 1C68     		ldr	r4, [r3]
 1985 0bca 631C     		adds	r3, r4, #1
 1986 0bcc 474A     		ldr	r2, .L446
 1987 0bce 1360     		str	r3, [r2]
 1988 0bd0 C020     		movs	r0, #192
 1989 0bd2 FFF7FEFF 		bl	e_i2cp_read
 1990 0bd6 0346     		mov	r3, r0
 1991 0bd8 1A46     		mov	r2, r3
 1992 0bda 454B     		ldr	r3, .L446+4
 1993 0bdc 1A55     		strb	r2, [r3, r4]
 1994 0bde 10E0     		b	.L107
 1995              	.L106:
 1996              		.loc 1 431 0 is_stmt 1
 1997 0be0 4B4B     		ldr	r3, .L446+36
 1998 0be2 1B68     		ldr	r3, [r3]
 1999 0be4 DBB2     		uxtb	r3, r3
 2000 0be6 013B     		subs	r3, r3, #1
 2001 0be8 D9B2     		uxtb	r1, r3
 2002 0bea 404B     		ldr	r3, .L446
 2003 0bec 1C68     		ldr	r4, [r3]
 2004 0bee 631C     		adds	r3, r4, #1
 2005 0bf0 3E4A     		ldr	r2, .L446
 2006 0bf2 1360     		str	r3, [r2]
 2007 0bf4 C020     		movs	r0, #192
 2008 0bf6 FFF7FEFF 		bl	e_i2cp_read
 2009 0bfa 0346     		mov	r3, r0
 2010 0bfc 1A46     		mov	r2, r3
 2011 0bfe 3C4B     		ldr	r3, .L446+4
 2012 0c00 1A55     		strb	r2, [r3, r4]
 2013              	.L107:
 2014              		.loc 1 429 0 discriminator 2
 2015 0c02 434B     		ldr	r3, .L446+36
 2016 0c04 1B68     		ldr	r3, [r3]
 2017 0c06 0133     		adds	r3, r3, #1
 2018 0c08 414A     		ldr	r2, .L446+36
 2019 0c0a 1360     		str	r3, [r2]
 2020              	.L105:
 2021              		.loc 1 429 0 is_stmt 0 discriminator 1
 2022 0c0c 404B     		ldr	r3, .L446+36
 2023 0c0e 1B68     		ldr	r3, [r3]
 2024 0c10 052B     		cmp	r3, #5
 2025 0c12 CDDD     		ble	.L108
 2026              		.loc 1 434 0 is_stmt 1
 2027 0c14 3E4B     		ldr	r3, .L446+36
 2028 0c16 0D22     		movs	r2, #13
 2029 0c18 1A60     		str	r2, [r3]
ARM GAS  C:\Users\Moi\AppData\Local\Temp\ccAXdvuJ.s 			page 42


 2030 0c1a 2DE0     		b	.L109
 2031              	.L112:
 2032              		.loc 1 435 0
 2033 0c1c 3C4B     		ldr	r3, .L446+36
 2034 0c1e 1B68     		ldr	r3, [r3]
 2035 0c20 03F00103 		and	r3, r3, #1
 2036 0c24 002B     		cmp	r3, #0
 2037 0c26 11D1     		bne	.L110
 2038              		.loc 1 435 0 is_stmt 0 discriminator 1
 2039 0c28 394B     		ldr	r3, .L446+36
 2040 0c2a 1B68     		ldr	r3, [r3]
 2041 0c2c DBB2     		uxtb	r3, r3
 2042 0c2e 013B     		subs	r3, r3, #1
 2043 0c30 D9B2     		uxtb	r1, r3
 2044 0c32 2E4B     		ldr	r3, .L446
 2045 0c34 1C68     		ldr	r4, [r3]
 2046 0c36 631C     		adds	r3, r4, #1
 2047 0c38 2C4A     		ldr	r2, .L446
 2048 0c3a 1360     		str	r3, [r2]
 2049 0c3c C020     		movs	r0, #192
 2050 0c3e FFF7FEFF 		bl	e_i2cp_read
 2051 0c42 0346     		mov	r3, r0
 2052 0c44 1A46     		mov	r2, r3
 2053 0c46 2A4B     		ldr	r3, .L446+4
 2054 0c48 1A55     		strb	r2, [r3, r4]
 2055 0c4a 10E0     		b	.L111
 2056              	.L110:
 2057              		.loc 1 436 0 is_stmt 1
 2058 0c4c 304B     		ldr	r3, .L446+36
 2059 0c4e 1B68     		ldr	r3, [r3]
 2060 0c50 DBB2     		uxtb	r3, r3
 2061 0c52 0133     		adds	r3, r3, #1
 2062 0c54 D9B2     		uxtb	r1, r3
 2063 0c56 254B     		ldr	r3, .L446
 2064 0c58 1C68     		ldr	r4, [r3]
 2065 0c5a 631C     		adds	r3, r4, #1
 2066 0c5c 234A     		ldr	r2, .L446
 2067 0c5e 1360     		str	r3, [r2]
 2068 0c60 C020     		movs	r0, #192
 2069 0c62 FFF7FEFF 		bl	e_i2cp_read
 2070 0c66 0346     		mov	r3, r0
 2071 0c68 1A46     		mov	r2, r3
 2072 0c6a 214B     		ldr	r3, .L446+4
 2073 0c6c 1A55     		strb	r2, [r3, r4]
 2074              	.L111:
 2075              		.loc 1 434 0 discriminator 2
 2076 0c6e 284B     		ldr	r3, .L446+36
 2077 0c70 1B68     		ldr	r3, [r3]
 2078 0c72 0133     		adds	r3, r3, #1
 2079 0c74 264A     		ldr	r2, .L446+36
 2080 0c76 1360     		str	r3, [r2]
 2081              	.L109:
 2082              		.loc 1 434 0 is_stmt 0 discriminator 1
 2083 0c78 254B     		ldr	r3, .L446+36
 2084 0c7a 1B68     		ldr	r3, [r3]
 2085 0c7c 102B     		cmp	r3, #16
 2086 0c7e CDDD     		ble	.L112
ARM GAS  C:\Users\Moi\AppData\Local\Temp\ccAXdvuJ.s 			page 43


 2087              		.loc 1 439 0 is_stmt 1
 2088 0c80 FFF7FEFF 		bl	e_i2cp_disable
 2089              		.loc 1 444 0
 2090 0c84 ACE2     		b	.L420
 2091              	.L56:
 2092              		.loc 1 446 0
 2093 0c86 0D9B     		ldr	r3, [sp, #52]
 2094 0c88 002B     		cmp	r3, #0
 2095 0c8a 2AD0     		beq	.L113
 2096              		.loc 1 447 0
 2097 0c8c 204B     		ldr	r3, .L446+36
 2098 0c8e 0022     		movs	r2, #0
 2099 0c90 1A60     		str	r2, [r3]
 2100 0c92 21E0     		b	.L114
 2101              	.L115:
 2102              		.loc 1 448 0 discriminator 3
 2103 0c94 1E4B     		ldr	r3, .L446+36
 2104 0c96 1B68     		ldr	r3, [r3]
 2105 0c98 1846     		mov	r0, r3
 2106 0c9a FFF7FEFF 		bl	e_get_calibrated_prox
 2107 0c9e 0246     		mov	r2, r0
 2108 0ca0 1C4B     		ldr	r3, .L446+40
 2109 0ca2 1A60     		str	r2, [r3]
 2110              		.loc 1 449 0 discriminator 3
 2111 0ca4 1B4B     		ldr	r3, .L446+40
 2112 0ca6 1868     		ldr	r0, [r3]
 2113 0ca8 104B     		ldr	r3, .L446
 2114 0caa 1B68     		ldr	r3, [r3]
 2115 0cac 5A1C     		adds	r2, r3, #1
 2116 0cae 0F49     		ldr	r1, .L446
 2117 0cb0 0A60     		str	r2, [r1]
 2118 0cb2 C1B2     		uxtb	r1, r0
 2119 0cb4 0E4A     		ldr	r2, .L446+4
 2120 0cb6 D154     		strb	r1, [r2, r3]
 2121              		.loc 1 450 0 discriminator 3
 2122 0cb8 164B     		ldr	r3, .L446+40
 2123 0cba 1B68     		ldr	r3, [r3]
 2124 0cbc 1812     		asrs	r0, r3, #8
 2125 0cbe 0B4B     		ldr	r3, .L446
 2126 0cc0 1B68     		ldr	r3, [r3]
 2127 0cc2 5A1C     		adds	r2, r3, #1
 2128 0cc4 0949     		ldr	r1, .L446
 2129 0cc6 0A60     		str	r2, [r1]
 2130 0cc8 C1B2     		uxtb	r1, r0
 2131 0cca 094A     		ldr	r2, .L446+4
 2132 0ccc D154     		strb	r1, [r2, r3]
 2133              		.loc 1 447 0 discriminator 3
 2134 0cce 104B     		ldr	r3, .L446+36
 2135 0cd0 1B68     		ldr	r3, [r3]
 2136 0cd2 0133     		adds	r3, r3, #1
 2137 0cd4 0E4A     		ldr	r2, .L446+36
 2138 0cd6 1360     		str	r3, [r2]
 2139              	.L114:
 2140              		.loc 1 447 0 is_stmt 0 discriminator 1
 2141 0cd8 0D4B     		ldr	r3, .L446+36
 2142 0cda 1B68     		ldr	r3, [r3]
 2143 0cdc 072B     		cmp	r3, #7
ARM GAS  C:\Users\Moi\AppData\Local\Temp\ccAXdvuJ.s 			page 44


 2144 0cde D9DD     		ble	.L115
 2145              		.loc 1 459 0 is_stmt 1
 2146 0ce0 83E2     		b	.L71
 2147              	.L113:
 2148              		.loc 1 453 0
 2149 0ce2 0B4B     		ldr	r3, .L446+36
 2150 0ce4 0022     		movs	r2, #0
 2151 0ce6 1A60     		str	r2, [r3]
 2152 0ce8 38E0     		b	.L117
 2153              	.L447:
 2154 0cea 00BF     		.align	2
 2155              	.L446:
 2156 0cec 00000000 		.word	i.12663
 2157 0cf0 00000000 		.word	buffer
 2158 0cf4 00000000 		.word	wait_cam.12662
 2159 0cf8 00000000 		.word	cam_mode.12679
 2160 0cfc 00000000 		.word	cam_width.12680
 2161 0d00 00000000 		.word	cam_heigth.12681
 2162 0d04 00000000 		.word	cam_size.12683
 2163 0d08 00000000 		.word	c1.12660
 2164 0d0c 00000000 		.word	c2.12661
 2165 0d10 00000000 		.word	j.12664
 2166 0d14 00000000 		.word	n.12665
 2167              	.L118:
 2168              		.loc 1 454 0 discriminator 3
 2169 0d18 984B     		ldr	r3, .L448
 2170 0d1a 1B68     		ldr	r3, [r3]
 2171 0d1c 1846     		mov	r0, r3
 2172 0d1e FFF7FEFF 		bl	e_get_calibrated_prox
 2173 0d22 0246     		mov	r2, r0
 2174 0d24 964B     		ldr	r3, .L448+4
 2175 0d26 1A60     		str	r2, [r3]
 2176              		.loc 1 455 0 discriminator 3
 2177 0d28 954B     		ldr	r3, .L448+4
 2178 0d2a 1868     		ldr	r0, [r3]
 2179 0d2c 954B     		ldr	r3, .L448+8
 2180 0d2e 1B68     		ldr	r3, [r3]
 2181 0d30 5A1C     		adds	r2, r3, #1
 2182 0d32 9449     		ldr	r1, .L448+8
 2183 0d34 0A60     		str	r2, [r1]
 2184 0d36 C1B2     		uxtb	r1, r0
 2185 0d38 934A     		ldr	r2, .L448+12
 2186 0d3a D154     		strb	r1, [r2, r3]
 2187              		.loc 1 456 0 discriminator 3
 2188 0d3c 904B     		ldr	r3, .L448+4
 2189 0d3e 1B68     		ldr	r3, [r3]
 2190 0d40 1812     		asrs	r0, r3, #8
 2191 0d42 904B     		ldr	r3, .L448+8
 2192 0d44 1B68     		ldr	r3, [r3]
 2193 0d46 5A1C     		adds	r2, r3, #1
 2194 0d48 8E49     		ldr	r1, .L448+8
 2195 0d4a 0A60     		str	r2, [r1]
 2196 0d4c C1B2     		uxtb	r1, r0
 2197 0d4e 8E4A     		ldr	r2, .L448+12
 2198 0d50 D154     		strb	r1, [r2, r3]
 2199              		.loc 1 453 0 discriminator 3
 2200 0d52 8A4B     		ldr	r3, .L448
ARM GAS  C:\Users\Moi\AppData\Local\Temp\ccAXdvuJ.s 			page 45


 2201 0d54 1B68     		ldr	r3, [r3]
 2202 0d56 0133     		adds	r3, r3, #1
 2203 0d58 884A     		ldr	r2, .L448
 2204 0d5a 1360     		str	r3, [r2]
 2205              	.L117:
 2206              		.loc 1 453 0 is_stmt 0 discriminator 1
 2207 0d5c 874B     		ldr	r3, .L448
 2208 0d5e 1B68     		ldr	r3, [r3]
 2209 0d60 092B     		cmp	r3, #9
 2210 0d62 D9DD     		ble	.L118
 2211              		.loc 1 459 0 is_stmt 1
 2212 0d64 41E2     		b	.L71
 2213              	.L57:
 2214              		.loc 1 461 0
 2215 0d66 0D9B     		ldr	r3, [sp, #52]
 2216 0d68 002B     		cmp	r3, #0
 2217 0d6a 2AD0     		beq	.L119
 2218              		.loc 1 462 0
 2219 0d6c 834B     		ldr	r3, .L448
 2220 0d6e 0022     		movs	r2, #0
 2221 0d70 1A60     		str	r2, [r3]
 2222 0d72 21E0     		b	.L120
 2223              	.L121:
 2224              		.loc 1 464 0 discriminator 3
 2225 0d74 814B     		ldr	r3, .L448
 2226 0d76 1B68     		ldr	r3, [r3]
 2227 0d78 1846     		mov	r0, r3
 2228 0d7a FFF7FEFF 		bl	e_get_ambient_light
 2229 0d7e 0246     		mov	r2, r0
 2230 0d80 7F4B     		ldr	r3, .L448+4
 2231 0d82 1A60     		str	r2, [r3]
 2232              		.loc 1 465 0 discriminator 3
 2233 0d84 7E4B     		ldr	r3, .L448+4
 2234 0d86 1868     		ldr	r0, [r3]
 2235 0d88 7E4B     		ldr	r3, .L448+8
 2236 0d8a 1B68     		ldr	r3, [r3]
 2237 0d8c 5A1C     		adds	r2, r3, #1
 2238 0d8e 7D49     		ldr	r1, .L448+8
 2239 0d90 0A60     		str	r2, [r1]
 2240 0d92 C1B2     		uxtb	r1, r0
 2241 0d94 7C4A     		ldr	r2, .L448+12
 2242 0d96 D154     		strb	r1, [r2, r3]
 2243              		.loc 1 466 0 discriminator 3
 2244 0d98 794B     		ldr	r3, .L448+4
 2245 0d9a 1B68     		ldr	r3, [r3]
 2246 0d9c 1812     		asrs	r0, r3, #8
 2247 0d9e 794B     		ldr	r3, .L448+8
 2248 0da0 1B68     		ldr	r3, [r3]
 2249 0da2 5A1C     		adds	r2, r3, #1
 2250 0da4 7749     		ldr	r1, .L448+8
 2251 0da6 0A60     		str	r2, [r1]
 2252 0da8 C1B2     		uxtb	r1, r0
 2253 0daa 774A     		ldr	r2, .L448+12
 2254 0dac D154     		strb	r1, [r2, r3]
 2255              		.loc 1 462 0 discriminator 3
 2256 0dae 734B     		ldr	r3, .L448
 2257 0db0 1B68     		ldr	r3, [r3]
ARM GAS  C:\Users\Moi\AppData\Local\Temp\ccAXdvuJ.s 			page 46


 2258 0db2 0133     		adds	r3, r3, #1
 2259 0db4 714A     		ldr	r2, .L448
 2260 0db6 1360     		str	r3, [r2]
 2261              	.L120:
 2262              		.loc 1 462 0 is_stmt 0 discriminator 1
 2263 0db8 704B     		ldr	r3, .L448
 2264 0dba 1B68     		ldr	r3, [r3]
 2265 0dbc 072B     		cmp	r3, #7
 2266 0dbe D9DD     		ble	.L121
 2267              		.loc 1 475 0 is_stmt 1
 2268 0dc0 13E2     		b	.L71
 2269              	.L119:
 2270              		.loc 1 469 0
 2271 0dc2 6E4B     		ldr	r3, .L448
 2272 0dc4 0022     		movs	r2, #0
 2273 0dc6 1A60     		str	r2, [r3]
 2274 0dc8 21E0     		b	.L123
 2275              	.L124:
 2276              		.loc 1 470 0 discriminator 3
 2277 0dca 6C4B     		ldr	r3, .L448
 2278 0dcc 1B68     		ldr	r3, [r3]
 2279 0dce 1846     		mov	r0, r3
 2280 0dd0 FFF7FEFF 		bl	e_get_ambient_light
 2281 0dd4 0246     		mov	r2, r0
 2282 0dd6 6A4B     		ldr	r3, .L448+4
 2283 0dd8 1A60     		str	r2, [r3]
 2284              		.loc 1 471 0 discriminator 3
 2285 0dda 694B     		ldr	r3, .L448+4
 2286 0ddc 1868     		ldr	r0, [r3]
 2287 0dde 694B     		ldr	r3, .L448+8
 2288 0de0 1B68     		ldr	r3, [r3]
 2289 0de2 5A1C     		adds	r2, r3, #1
 2290 0de4 6749     		ldr	r1, .L448+8
 2291 0de6 0A60     		str	r2, [r1]
 2292 0de8 C1B2     		uxtb	r1, r0
 2293 0dea 674A     		ldr	r2, .L448+12
 2294 0dec D154     		strb	r1, [r2, r3]
 2295              		.loc 1 472 0 discriminator 3
 2296 0dee 644B     		ldr	r3, .L448+4
 2297 0df0 1B68     		ldr	r3, [r3]
 2298 0df2 1812     		asrs	r0, r3, #8
 2299 0df4 634B     		ldr	r3, .L448+8
 2300 0df6 1B68     		ldr	r3, [r3]
 2301 0df8 5A1C     		adds	r2, r3, #1
 2302 0dfa 6249     		ldr	r1, .L448+8
 2303 0dfc 0A60     		str	r2, [r1]
 2304 0dfe C1B2     		uxtb	r1, r0
 2305 0e00 614A     		ldr	r2, .L448+12
 2306 0e02 D154     		strb	r1, [r2, r3]
 2307              		.loc 1 469 0 discriminator 3
 2308 0e04 5D4B     		ldr	r3, .L448
 2309 0e06 1B68     		ldr	r3, [r3]
 2310 0e08 0133     		adds	r3, r3, #1
 2311 0e0a 5C4A     		ldr	r2, .L448
 2312 0e0c 1360     		str	r3, [r2]
 2313              	.L123:
 2314              		.loc 1 469 0 is_stmt 0 discriminator 1
ARM GAS  C:\Users\Moi\AppData\Local\Temp\ccAXdvuJ.s 			page 47


 2315 0e0e 5B4B     		ldr	r3, .L448
 2316 0e10 1B68     		ldr	r3, [r3]
 2317 0e12 092B     		cmp	r3, #9
 2318 0e14 D9DD     		ble	.L124
 2319              		.loc 1 475 0 is_stmt 1
 2320 0e16 E8E1     		b	.L71
 2321              	.L58:
 2322              		.loc 1 478 0
 2323 0e18 0D9B     		ldr	r3, [sp, #52]
 2324 0e1a 002B     		cmp	r3, #0
 2325 0e1c 0ED0     		beq	.L435
 2326              		.loc 1 479 0
 2327 0e1e 00BF     		nop
 2328              	.L126:
 2329              		.loc 1 479 0 is_stmt 0 discriminator 1
 2330 0e20 5A48     		ldr	r0, .L448+16
 2331 0e22 FFF7FEFF 		bl	e_getchar_uart1
 2332 0e26 0346     		mov	r3, r0
 2333 0e28 002B     		cmp	r3, #0
 2334 0e2a F9D0     		beq	.L126
 2335              		.loc 1 480 0 is_stmt 1
 2336 0e2c 00BF     		nop
 2337              	.L127:
 2338              		.loc 1 480 0 is_stmt 0 discriminator 1
 2339 0e2e 5848     		ldr	r0, .L448+20
 2340 0e30 FFF7FEFF 		bl	e_getchar_uart1
 2341 0e34 0346     		mov	r3, r0
 2342 0e36 002B     		cmp	r3, #0
 2343 0e38 F9D0     		beq	.L127
 2344 0e3a 0DE0     		b	.L128
 2345              	.L435:
 2346              		.loc 1 482 0 is_stmt 1
 2347 0e3c 00BF     		nop
 2348              	.L129:
 2349              		.loc 1 482 0 is_stmt 0 discriminator 1
 2350 0e3e 5348     		ldr	r0, .L448+16
 2351 0e40 FFF7FEFF 		bl	e_getchar_uart2
 2352 0e44 0346     		mov	r3, r0
 2353 0e46 002B     		cmp	r3, #0
 2354 0e48 F9D0     		beq	.L129
 2355              		.loc 1 483 0 is_stmt 1
 2356 0e4a 00BF     		nop
 2357              	.L130:
 2358              		.loc 1 483 0 is_stmt 0 discriminator 1
 2359 0e4c 5048     		ldr	r0, .L448+20
 2360 0e4e FFF7FEFF 		bl	e_getchar_uart2
 2361 0e52 0346     		mov	r3, r0
 2362 0e54 002B     		cmp	r3, #0
 2363 0e56 F9D0     		beq	.L130
 2364              	.L128:
 2365              		.loc 1 485 0 is_stmt 1
 2366 0e58 4C4B     		ldr	r3, .L448+16
 2367 0e5a 1B78     		ldrb	r3, [r3]	@ zero_extendqisi2
 2368 0e5c 1A46     		mov	r2, r3
 2369 0e5e 4C4B     		ldr	r3, .L448+20
 2370 0e60 1B78     		ldrb	r3, [r3]	@ zero_extendqisi2
 2371 0e62 1B02     		lsls	r3, r3, #8
ARM GAS  C:\Users\Moi\AppData\Local\Temp\ccAXdvuJ.s 			page 48


 2372 0e64 1344     		add	r3, r3, r2
 2373 0e66 1A46     		mov	r2, r3
 2374 0e68 4A4B     		ldr	r3, .L448+24
 2375 0e6a 1A60     		str	r2, [r3]
 2376              		.loc 1 486 0
 2377 0e6c 0D9B     		ldr	r3, [sp, #52]
 2378 0e6e 002B     		cmp	r3, #0
 2379 0e70 0ED0     		beq	.L436
 2380              		.loc 1 487 0
 2381 0e72 00BF     		nop
 2382              	.L132:
 2383              		.loc 1 487 0 is_stmt 0 discriminator 1
 2384 0e74 4548     		ldr	r0, .L448+16
 2385 0e76 FFF7FEFF 		bl	e_getchar_uart1
 2386 0e7a 0346     		mov	r3, r0
 2387 0e7c 002B     		cmp	r3, #0
 2388 0e7e F9D0     		beq	.L132
 2389              		.loc 1 488 0 is_stmt 1
 2390 0e80 00BF     		nop
 2391              	.L133:
 2392              		.loc 1 488 0 is_stmt 0 discriminator 1
 2393 0e82 4348     		ldr	r0, .L448+20
 2394 0e84 FFF7FEFF 		bl	e_getchar_uart1
 2395 0e88 0346     		mov	r3, r0
 2396 0e8a 002B     		cmp	r3, #0
 2397 0e8c F9D0     		beq	.L133
 2398 0e8e 0DE0     		b	.L134
 2399              	.L436:
 2400              		.loc 1 490 0 is_stmt 1
 2401 0e90 00BF     		nop
 2402              	.L135:
 2403              		.loc 1 490 0 is_stmt 0 discriminator 1
 2404 0e92 3E48     		ldr	r0, .L448+16
 2405 0e94 FFF7FEFF 		bl	e_getchar_uart2
 2406 0e98 0346     		mov	r3, r0
 2407 0e9a 002B     		cmp	r3, #0
 2408 0e9c F9D0     		beq	.L135
 2409              		.loc 1 491 0 is_stmt 1
 2410 0e9e 00BF     		nop
 2411              	.L136:
 2412              		.loc 1 491 0 is_stmt 0 discriminator 1
 2413 0ea0 3B48     		ldr	r0, .L448+20
 2414 0ea2 FFF7FEFF 		bl	e_getchar_uart2
 2415 0ea6 0346     		mov	r3, r0
 2416 0ea8 002B     		cmp	r3, #0
 2417 0eaa F9D0     		beq	.L136
 2418              	.L134:
 2419              		.loc 1 493 0 is_stmt 1
 2420 0eac 374B     		ldr	r3, .L448+16
 2421 0eae 1B78     		ldrb	r3, [r3]	@ zero_extendqisi2
 2422 0eb0 1A46     		mov	r2, r3
 2423 0eb2 374B     		ldr	r3, .L448+20
 2424 0eb4 1B78     		ldrb	r3, [r3]	@ zero_extendqisi2
 2425 0eb6 1B02     		lsls	r3, r3, #8
 2426 0eb8 1344     		add	r3, r3, r2
 2427 0eba 1A46     		mov	r2, r3
 2428 0ebc 364B     		ldr	r3, .L448+28
ARM GAS  C:\Users\Moi\AppData\Local\Temp\ccAXdvuJ.s 			page 49


 2429 0ebe 1A60     		str	r2, [r3]
 2430              		.loc 1 494 0
 2431 0ec0 344B     		ldr	r3, .L448+24
 2432 0ec2 1B68     		ldr	r3, [r3]
 2433 0ec4 1846     		mov	r0, r3
 2434 0ec6 FFF7FEFF 		bl	e_set_steps_left
 2435              		.loc 1 495 0
 2436 0eca 334B     		ldr	r3, .L448+28
 2437 0ecc 1B68     		ldr	r3, [r3]
 2438 0ece 1846     		mov	r0, r3
 2439 0ed0 FFF7FEFF 		bl	e_set_steps_right
 2440              		.loc 1 496 0
 2441 0ed4 89E1     		b	.L71
 2442              	.L59:
 2443              		.loc 1 498 0
 2444 0ed6 FFF7FEFF 		bl	e_get_steps_left
 2445 0eda 0246     		mov	r2, r0
 2446 0edc 284B     		ldr	r3, .L448+4
 2447 0ede 1A60     		str	r2, [r3]
 2448              		.loc 1 499 0
 2449 0ee0 274B     		ldr	r3, .L448+4
 2450 0ee2 1868     		ldr	r0, [r3]
 2451 0ee4 274B     		ldr	r3, .L448+8
 2452 0ee6 1B68     		ldr	r3, [r3]
 2453 0ee8 5A1C     		adds	r2, r3, #1
 2454 0eea 2649     		ldr	r1, .L448+8
 2455 0eec 0A60     		str	r2, [r1]
 2456 0eee C1B2     		uxtb	r1, r0
 2457 0ef0 254A     		ldr	r2, .L448+12
 2458 0ef2 D154     		strb	r1, [r2, r3]
 2459              		.loc 1 500 0
 2460 0ef4 224B     		ldr	r3, .L448+4
 2461 0ef6 1B68     		ldr	r3, [r3]
 2462 0ef8 1812     		asrs	r0, r3, #8
 2463 0efa 224B     		ldr	r3, .L448+8
 2464 0efc 1B68     		ldr	r3, [r3]
 2465 0efe 5A1C     		adds	r2, r3, #1
 2466 0f00 2049     		ldr	r1, .L448+8
 2467 0f02 0A60     		str	r2, [r1]
 2468 0f04 C1B2     		uxtb	r1, r0
 2469 0f06 204A     		ldr	r2, .L448+12
 2470 0f08 D154     		strb	r1, [r2, r3]
 2471              		.loc 1 501 0
 2472 0f0a FFF7FEFF 		bl	e_get_steps_right
 2473 0f0e 0246     		mov	r2, r0
 2474 0f10 1B4B     		ldr	r3, .L448+4
 2475 0f12 1A60     		str	r2, [r3]
 2476              		.loc 1 502 0
 2477 0f14 1A4B     		ldr	r3, .L448+4
 2478 0f16 1868     		ldr	r0, [r3]
 2479 0f18 1A4B     		ldr	r3, .L448+8
 2480 0f1a 1B68     		ldr	r3, [r3]
 2481 0f1c 5A1C     		adds	r2, r3, #1
 2482 0f1e 1949     		ldr	r1, .L448+8
 2483 0f20 0A60     		str	r2, [r1]
 2484 0f22 C1B2     		uxtb	r1, r0
 2485 0f24 184A     		ldr	r2, .L448+12
ARM GAS  C:\Users\Moi\AppData\Local\Temp\ccAXdvuJ.s 			page 50


 2486 0f26 D154     		strb	r1, [r2, r3]
 2487              		.loc 1 503 0
 2488 0f28 154B     		ldr	r3, .L448+4
 2489 0f2a 1B68     		ldr	r3, [r3]
 2490 0f2c 1812     		asrs	r0, r3, #8
 2491 0f2e 154B     		ldr	r3, .L448+8
 2492 0f30 1B68     		ldr	r3, [r3]
 2493 0f32 5A1C     		adds	r2, r3, #1
 2494 0f34 1349     		ldr	r1, .L448+8
 2495 0f36 0A60     		str	r2, [r1]
 2496 0f38 C1B2     		uxtb	r1, r0
 2497 0f3a 134A     		ldr	r2, .L448+12
 2498 0f3c D154     		strb	r1, [r2, r3]
 2499              		.loc 1 504 0
 2500 0f3e 54E1     		b	.L71
 2501              	.L65:
 2502              		.loc 1 507 0
 2503 0f40 0D9B     		ldr	r3, [sp, #52]
 2504 0f42 002B     		cmp	r3, #0
 2505 0f44 11D0     		beq	.L137
 2506              		.loc 1 507 0 is_stmt 0 discriminator 1
 2507 0f46 FFF7FEFF 		bl	isEpuckVersion1_3
 2508 0f4a 0346     		mov	r3, r0
 2509 0f4c 002B     		cmp	r3, #0
 2510 0f4e 0CD0     		beq	.L137
 2511              		.loc 1 508 0 is_stmt 1
 2512 0f50 FFF7FEFF 		bl	getTemperature
 2513 0f54 0346     		mov	r3, r0
 2514 0f56 1846     		mov	r0, r3
 2515 0f58 0A4B     		ldr	r3, .L448+8
 2516 0f5a 1B68     		ldr	r3, [r3]
 2517 0f5c 5A1C     		adds	r2, r3, #1
 2518 0f5e 0949     		ldr	r1, .L448+8
 2519 0f60 0A60     		str	r2, [r1]
 2520 0f62 C1B2     		uxtb	r1, r0
 2521 0f64 084A     		ldr	r2, .L448+12
 2522 0f66 D154     		strb	r1, [r2, r3]
 2523              		.loc 1 512 0
 2524 0f68 3FE1     		b	.L71
 2525              	.L137:
 2526              		.loc 1 510 0
 2527 0f6a 064B     		ldr	r3, .L448+8
 2528 0f6c 1B68     		ldr	r3, [r3]
 2529 0f6e 5A1C     		adds	r2, r3, #1
 2530 0f70 0449     		ldr	r1, .L448+8
 2531 0f72 0A60     		str	r2, [r1]
 2532 0f74 044A     		ldr	r2, .L448+12
 2533 0f76 0021     		movs	r1, #0
 2534 0f78 D154     		strb	r1, [r2, r3]
 2535              		.loc 1 512 0
 2536 0f7a 36E1     		b	.L71
 2537              	.L449:
 2538              		.align	2
 2539              	.L448:
 2540 0f7c 00000000 		.word	j.12664
 2541 0f80 00000000 		.word	n.12665
 2542 0f84 00000000 		.word	i.12663
ARM GAS  C:\Users\Moi\AppData\Local\Temp\ccAXdvuJ.s 			page 51


 2543 0f88 00000000 		.word	buffer
 2544 0f8c 00000000 		.word	c1.12660
 2545 0f90 00000000 		.word	c2.12661
 2546 0f94 00000000 		.word	positionl.12669
 2547 0f98 00000000 		.word	positionr.12668
 2548              	.L66:
 2549              		.loc 1 515 0
 2550 0f9c 0020     		movs	r0, #0
 2551 0f9e FFF7FEFF 		bl	e_get_micro_volume
 2552 0fa2 0246     		mov	r2, r0
 2553 0fa4 964B     		ldr	r3, .L450
 2554 0fa6 1A60     		str	r2, [r3]
 2555              		.loc 1 516 0
 2556 0fa8 954B     		ldr	r3, .L450
 2557 0faa 1868     		ldr	r0, [r3]
 2558 0fac 954B     		ldr	r3, .L450+4
 2559 0fae 1B68     		ldr	r3, [r3]
 2560 0fb0 5A1C     		adds	r2, r3, #1
 2561 0fb2 9449     		ldr	r1, .L450+4
 2562 0fb4 0A60     		str	r2, [r1]
 2563 0fb6 C1B2     		uxtb	r1, r0
 2564 0fb8 934A     		ldr	r2, .L450+8
 2565 0fba D154     		strb	r1, [r2, r3]
 2566              		.loc 1 517 0
 2567 0fbc 904B     		ldr	r3, .L450
 2568 0fbe 1B68     		ldr	r3, [r3]
 2569 0fc0 1812     		asrs	r0, r3, #8
 2570 0fc2 904B     		ldr	r3, .L450+4
 2571 0fc4 1B68     		ldr	r3, [r3]
 2572 0fc6 5A1C     		adds	r2, r3, #1
 2573 0fc8 8E49     		ldr	r1, .L450+4
 2574 0fca 0A60     		str	r2, [r1]
 2575 0fcc C1B2     		uxtb	r1, r0
 2576 0fce 8E4A     		ldr	r2, .L450+8
 2577 0fd0 D154     		strb	r1, [r2, r3]
 2578              		.loc 1 519 0
 2579 0fd2 0120     		movs	r0, #1
 2580 0fd4 FFF7FEFF 		bl	e_get_micro_volume
 2581 0fd8 0246     		mov	r2, r0
 2582 0fda 894B     		ldr	r3, .L450
 2583 0fdc 1A60     		str	r2, [r3]
 2584              		.loc 1 520 0
 2585 0fde 884B     		ldr	r3, .L450
 2586 0fe0 1868     		ldr	r0, [r3]
 2587 0fe2 884B     		ldr	r3, .L450+4
 2588 0fe4 1B68     		ldr	r3, [r3]
 2589 0fe6 5A1C     		adds	r2, r3, #1
 2590 0fe8 8649     		ldr	r1, .L450+4
 2591 0fea 0A60     		str	r2, [r1]
 2592 0fec C1B2     		uxtb	r1, r0
 2593 0fee 864A     		ldr	r2, .L450+8
 2594 0ff0 D154     		strb	r1, [r2, r3]
 2595              		.loc 1 521 0
 2596 0ff2 834B     		ldr	r3, .L450
 2597 0ff4 1B68     		ldr	r3, [r3]
 2598 0ff6 1812     		asrs	r0, r3, #8
 2599 0ff8 824B     		ldr	r3, .L450+4
ARM GAS  C:\Users\Moi\AppData\Local\Temp\ccAXdvuJ.s 			page 52


 2600 0ffa 1B68     		ldr	r3, [r3]
 2601 0ffc 5A1C     		adds	r2, r3, #1
 2602 0ffe 8149     		ldr	r1, .L450+4
 2603 1000 0A60     		str	r2, [r1]
 2604 1002 C1B2     		uxtb	r1, r0
 2605 1004 804A     		ldr	r2, .L450+8
 2606 1006 D154     		strb	r1, [r2, r3]
 2607              		.loc 1 523 0
 2608 1008 0220     		movs	r0, #2
 2609 100a FFF7FEFF 		bl	e_get_micro_volume
 2610 100e 0246     		mov	r2, r0
 2611 1010 7B4B     		ldr	r3, .L450
 2612 1012 1A60     		str	r2, [r3]
 2613              		.loc 1 524 0
 2614 1014 7A4B     		ldr	r3, .L450
 2615 1016 1868     		ldr	r0, [r3]
 2616 1018 7A4B     		ldr	r3, .L450+4
 2617 101a 1B68     		ldr	r3, [r3]
 2618 101c 5A1C     		adds	r2, r3, #1
 2619 101e 7949     		ldr	r1, .L450+4
 2620 1020 0A60     		str	r2, [r1]
 2621 1022 C1B2     		uxtb	r1, r0
 2622 1024 784A     		ldr	r2, .L450+8
 2623 1026 D154     		strb	r1, [r2, r3]
 2624              		.loc 1 525 0
 2625 1028 754B     		ldr	r3, .L450
 2626 102a 1B68     		ldr	r3, [r3]
 2627 102c 1812     		asrs	r0, r3, #8
 2628 102e 754B     		ldr	r3, .L450+4
 2629 1030 1B68     		ldr	r3, [r3]
 2630 1032 5A1C     		adds	r2, r3, #1
 2631 1034 7349     		ldr	r1, .L450+4
 2632 1036 0A60     		str	r2, [r1]
 2633 1038 C1B2     		uxtb	r1, r0
 2634 103a 734A     		ldr	r2, .L450+8
 2635 103c D154     		strb	r1, [r2, r3]
 2636              		.loc 1 526 0
 2637 103e D4E0     		b	.L71
 2638              	.L61:
 2639              		.loc 1 538 0
 2640 1040 0D9B     		ldr	r3, [sp, #52]
 2641 1042 002B     		cmp	r3, #0
 2642 1044 00F0CE80 		beq	.L421
 2643              		.loc 1 539 0
 2644 1048 00BF     		nop
 2645              	.L140:
 2646              		.loc 1 539 0 is_stmt 0 discriminator 1
 2647 104a 7048     		ldr	r0, .L450+12
 2648 104c FFF7FEFF 		bl	e_getchar_uart1
 2649 1050 0346     		mov	r3, r0
 2650 1052 002B     		cmp	r3, #0
 2651 1054 F9D0     		beq	.L140
 2652              		.loc 1 540 0 is_stmt 1
 2653 1056 00BF     		nop
 2654              	.L141:
 2655              		.loc 1 540 0 is_stmt 0 discriminator 1
 2656 1058 6D48     		ldr	r0, .L450+16
ARM GAS  C:\Users\Moi\AppData\Local\Temp\ccAXdvuJ.s 			page 53


 2657 105a FFF7FEFF 		bl	e_getchar_uart1
 2658 105e 0346     		mov	r3, r0
 2659 1060 002B     		cmp	r3, #0
 2660 1062 F9D0     		beq	.L141
 2661              		.loc 1 541 0 is_stmt 1
 2662 1064 00BF     		nop
 2663              	.L142:
 2664              		.loc 1 541 0 is_stmt 0 discriminator 1
 2665 1066 6B48     		ldr	r0, .L450+20
 2666 1068 FFF7FEFF 		bl	e_getchar_uart1
 2667 106c 0346     		mov	r3, r0
 2668 106e 002B     		cmp	r3, #0
 2669 1070 F9D0     		beq	.L142
 2670              		.loc 1 542 0 is_stmt 1
 2671 1072 FFF7FEFF 		bl	e_i2cp_enable
 2672              		.loc 1 543 0
 2673 1076 654B     		ldr	r3, .L450+12
 2674 1078 1B68     		ldr	r3, [r3]
 2675 107a D8B2     		uxtb	r0, r3
 2676 107c 644B     		ldr	r3, .L450+16
 2677 107e 1B68     		ldr	r3, [r3]
 2678 1080 D9B2     		uxtb	r1, r3
 2679 1082 644B     		ldr	r3, .L450+20
 2680 1084 1B68     		ldr	r3, [r3]
 2681 1086 DBB2     		uxtb	r3, r3
 2682 1088 1A46     		mov	r2, r3
 2683 108a FFF7FEFF 		bl	e_i2cp_write
 2684              		.loc 1 544 0
 2685 108e FFF7FEFF 		bl	e_i2cp_disable
 2686              		.loc 1 546 0
 2687 1092 A7E0     		b	.L421
 2688              	.L67:
 2689              		.loc 1 548 0
 2690 1094 0D9B     		ldr	r3, [sp, #52]
 2691 1096 002B     		cmp	r3, #0
 2692 1098 00F0A680 		beq	.L422
 2693              		.loc 1 549 0
 2694 109c FFF7FEFF 		bl	e_i2cp_enable
 2695              		.loc 1 550 0
 2696 10a0 5D4B     		ldr	r3, .L450+24
 2697 10a2 0022     		movs	r2, #0
 2698 10a4 1A60     		str	r2, [r3]
 2699 10a6 0FE0     		b	.L144
 2700              	.L146:
 2701              		.loc 1 551 0
 2702 10a8 00BF     		nop
 2703              	.L145:
 2704              		.loc 1 551 0 is_stmt 0 discriminator 1
 2705 10aa 5B4B     		ldr	r3, .L450+24
 2706 10ac 1B68     		ldr	r3, [r3]
 2707 10ae 564A     		ldr	r2, .L450+8
 2708 10b0 1344     		add	r3, r3, r2
 2709 10b2 1846     		mov	r0, r3
 2710 10b4 FFF7FEFF 		bl	e_getchar_uart1
 2711 10b8 0346     		mov	r3, r0
 2712 10ba 002B     		cmp	r3, #0
 2713 10bc F5D0     		beq	.L145
ARM GAS  C:\Users\Moi\AppData\Local\Temp\ccAXdvuJ.s 			page 54


 2714              		.loc 1 550 0 is_stmt 1 discriminator 2
 2715 10be 564B     		ldr	r3, .L450+24
 2716 10c0 1B68     		ldr	r3, [r3]
 2717 10c2 0133     		adds	r3, r3, #1
 2718 10c4 544A     		ldr	r2, .L450+24
 2719 10c6 1360     		str	r3, [r2]
 2720              	.L144:
 2721              		.loc 1 550 0 is_stmt 0 discriminator 1
 2722 10c8 534B     		ldr	r3, .L450+24
 2723 10ca 1B68     		ldr	r3, [r3]
 2724 10cc 172B     		cmp	r3, #23
 2725 10ce EBDD     		ble	.L146
 2726              		.loc 1 553 0 is_stmt 1
 2727 10d0 514B     		ldr	r3, .L450+24
 2728 10d2 9222     		movs	r2, #146
 2729 10d4 1A60     		str	r2, [r3]
 2730 10d6 10E0     		b	.L147
 2731              	.L149:
 2732              		.loc 1 554 0
 2733 10d8 00BF     		nop
 2734              	.L148:
 2735              		.loc 1 554 0 is_stmt 0 discriminator 1
 2736 10da 4F4B     		ldr	r3, .L450+24
 2737 10dc 1B68     		ldr	r3, [r3]
 2738 10de 7A3B     		subs	r3, r3, #122
 2739 10e0 494A     		ldr	r2, .L450+8
 2740 10e2 1344     		add	r3, r3, r2
 2741 10e4 1846     		mov	r0, r3
 2742 10e6 FFF7FEFF 		bl	e_getchar_uart1
 2743 10ea 0346     		mov	r3, r0
 2744 10ec 002B     		cmp	r3, #0
 2745 10ee F4D0     		beq	.L148
 2746              		.loc 1 553 0 is_stmt 1 discriminator 2
 2747 10f0 494B     		ldr	r3, .L450+24
 2748 10f2 1B68     		ldr	r3, [r3]
 2749 10f4 0133     		adds	r3, r3, #1
 2750 10f6 484A     		ldr	r2, .L450+24
 2751 10f8 1360     		str	r3, [r2]
 2752              	.L147:
 2753              		.loc 1 553 0 is_stmt 0 discriminator 1
 2754 10fa 474B     		ldr	r3, .L450+24
 2755 10fc 1B68     		ldr	r3, [r3]
 2756 10fe 942B     		cmp	r3, #148
 2757 1100 EADD     		ble	.L149
 2758              		.loc 1 556 0 is_stmt 1
 2759 1102 454B     		ldr	r3, .L450+24
 2760 1104 A422     		movs	r2, #164
 2761 1106 1A60     		str	r2, [r3]
 2762 1108 10E0     		b	.L150
 2763              	.L152:
 2764              		.loc 1 557 0
 2765 110a 00BF     		nop
 2766              	.L151:
 2767              		.loc 1 557 0 is_stmt 0 discriminator 1
 2768 110c 424B     		ldr	r3, .L450+24
 2769 110e 1B68     		ldr	r3, [r3]
 2770 1110 893B     		subs	r3, r3, #137
ARM GAS  C:\Users\Moi\AppData\Local\Temp\ccAXdvuJ.s 			page 55


 2771 1112 3D4A     		ldr	r2, .L450+8
 2772 1114 1344     		add	r3, r3, r2
 2773 1116 1846     		mov	r0, r3
 2774 1118 FFF7FEFF 		bl	e_getchar_uart1
 2775 111c 0346     		mov	r3, r0
 2776 111e 002B     		cmp	r3, #0
 2777 1120 F4D0     		beq	.L151
 2778              		.loc 1 556 0 is_stmt 1 discriminator 2
 2779 1122 3D4B     		ldr	r3, .L450+24
 2780 1124 1B68     		ldr	r3, [r3]
 2781 1126 0133     		adds	r3, r3, #1
 2782 1128 3B4A     		ldr	r2, .L450+24
 2783 112a 1360     		str	r3, [r2]
 2784              	.L150:
 2785              		.loc 1 556 0 is_stmt 0 discriminator 1
 2786 112c 3A4B     		ldr	r3, .L450+24
 2787 112e 1B68     		ldr	r3, [r3]
 2788 1130 AB2B     		cmp	r3, #171
 2789 1132 EADD     		ble	.L152
 2790              		.loc 1 559 0 is_stmt 1
 2791 1134 384B     		ldr	r3, .L450+24
 2792 1136 0022     		movs	r2, #0
 2793 1138 1A60     		str	r2, [r3]
 2794 113a 0FE0     		b	.L153
 2795              	.L154:
 2796              		.loc 1 560 0 discriminator 3
 2797 113c 364B     		ldr	r3, .L450+24
 2798 113e 1B68     		ldr	r3, [r3]
 2799 1140 D9B2     		uxtb	r1, r3
 2800 1142 354B     		ldr	r3, .L450+24
 2801 1144 1B68     		ldr	r3, [r3]
 2802 1146 304A     		ldr	r2, .L450+8
 2803 1148 D35C     		ldrb	r3, [r2, r3]	@ zero_extendqisi2
 2804 114a 1A46     		mov	r2, r3
 2805 114c B020     		movs	r0, #176
 2806 114e FFF7FEFF 		bl	e_i2cp_write
 2807              		.loc 1 559 0 discriminator 3
 2808 1152 314B     		ldr	r3, .L450+24
 2809 1154 1B68     		ldr	r3, [r3]
 2810 1156 0133     		adds	r3, r3, #1
 2811 1158 2F4A     		ldr	r2, .L450+24
 2812 115a 1360     		str	r3, [r2]
 2813              	.L153:
 2814              		.loc 1 559 0 is_stmt 0 discriminator 1
 2815 115c 2E4B     		ldr	r3, .L450+24
 2816 115e 1B68     		ldr	r3, [r3]
 2817 1160 172B     		cmp	r3, #23
 2818 1162 EBDD     		ble	.L154
 2819              		.loc 1 562 0 is_stmt 1
 2820 1164 2C4B     		ldr	r3, .L450+24
 2821 1166 9222     		movs	r2, #146
 2822 1168 1A60     		str	r2, [r3]
 2823 116a 10E0     		b	.L155
 2824              	.L156:
 2825              		.loc 1 563 0 discriminator 3
 2826 116c 2A4B     		ldr	r3, .L450+24
 2827 116e 1B68     		ldr	r3, [r3]
ARM GAS  C:\Users\Moi\AppData\Local\Temp\ccAXdvuJ.s 			page 56


 2828 1170 D9B2     		uxtb	r1, r3
 2829 1172 294B     		ldr	r3, .L450+24
 2830 1174 1B68     		ldr	r3, [r3]
 2831 1176 7A3B     		subs	r3, r3, #122
 2832 1178 234A     		ldr	r2, .L450+8
 2833 117a D35C     		ldrb	r3, [r2, r3]	@ zero_extendqisi2
 2834 117c 1A46     		mov	r2, r3
 2835 117e B020     		movs	r0, #176
 2836 1180 FFF7FEFF 		bl	e_i2cp_write
 2837              		.loc 1 562 0 discriminator 3
 2838 1184 244B     		ldr	r3, .L450+24
 2839 1186 1B68     		ldr	r3, [r3]
 2840 1188 0133     		adds	r3, r3, #1
 2841 118a 234A     		ldr	r2, .L450+24
 2842 118c 1360     		str	r3, [r2]
 2843              	.L155:
 2844              		.loc 1 562 0 is_stmt 0 discriminator 1
 2845 118e 224B     		ldr	r3, .L450+24
 2846 1190 1B68     		ldr	r3, [r3]
 2847 1192 942B     		cmp	r3, #148
 2848 1194 EADD     		ble	.L156
 2849              		.loc 1 565 0 is_stmt 1
 2850 1196 204B     		ldr	r3, .L450+24
 2851 1198 A422     		movs	r2, #164
 2852 119a 1A60     		str	r2, [r3]
 2853 119c 10E0     		b	.L157
 2854              	.L158:
 2855              		.loc 1 566 0 discriminator 3
 2856 119e 1E4B     		ldr	r3, .L450+24
 2857 11a0 1B68     		ldr	r3, [r3]
 2858 11a2 D9B2     		uxtb	r1, r3
 2859 11a4 1C4B     		ldr	r3, .L450+24
 2860 11a6 1B68     		ldr	r3, [r3]
 2861 11a8 893B     		subs	r3, r3, #137
 2862 11aa 174A     		ldr	r2, .L450+8
 2863 11ac D35C     		ldrb	r3, [r2, r3]	@ zero_extendqisi2
 2864 11ae 1A46     		mov	r2, r3
 2865 11b0 B020     		movs	r0, #176
 2866 11b2 FFF7FEFF 		bl	e_i2cp_write
 2867              		.loc 1 565 0 discriminator 3
 2868 11b6 184B     		ldr	r3, .L450+24
 2869 11b8 1B68     		ldr	r3, [r3]
 2870 11ba 0133     		adds	r3, r3, #1
 2871 11bc 164A     		ldr	r2, .L450+24
 2872 11be 1360     		str	r3, [r2]
 2873              	.L157:
 2874              		.loc 1 565 0 is_stmt 0 discriminator 1
 2875 11c0 154B     		ldr	r3, .L450+24
 2876 11c2 1B68     		ldr	r3, [r3]
 2877 11c4 AB2B     		cmp	r3, #171
 2878 11c6 EADD     		ble	.L158
 2879              		.loc 1 568 0 is_stmt 1
 2880 11c8 0122     		movs	r2, #1
 2881 11ca 9121     		movs	r1, #145
 2882 11cc B020     		movs	r0, #176
 2883 11ce FFF7FEFF 		bl	e_i2cp_write
 2884              		.loc 1 569 0
ARM GAS  C:\Users\Moi\AppData\Local\Temp\ccAXdvuJ.s 			page 57


 2885 11d2 FFF7FEFF 		bl	e_i2cp_disable
 2886              		.loc 1 571 0
 2887 11d6 07E0     		b	.L422
 2888              	.L416:
 2889              		.loc 1 573 0
 2890 11d8 00BF     		nop
 2891 11da 06E0     		b	.L71
 2892              	.L417:
 2893              		.loc 1 398 0
 2894 11dc 00BF     		nop
 2895 11de 04E0     		b	.L71
 2896              	.L420:
 2897              		.loc 1 444 0
 2898 11e0 00BF     		nop
 2899 11e2 02E0     		b	.L71
 2900              	.L421:
 2901              		.loc 1 546 0
 2902 11e4 00BF     		nop
 2903 11e6 00E0     		b	.L71
 2904              	.L422:
 2905              		.loc 1 571 0
 2906 11e8 00BF     		nop
 2907              	.L71:
 2908              		.loc 1 575 0
 2909 11ea 0D9B     		ldr	r3, [sp, #52]
 2910 11ec 002B     		cmp	r3, #0
 2911 11ee 17D0     		beq	.L437
 2912              		.loc 1 576 0
 2913 11f0 00BF     		nop
 2914              	.L160:
 2915              		.loc 1 576 0 is_stmt 0 discriminator 1
 2916 11f2 0A48     		ldr	r0, .L450+28
 2917 11f4 FFF7FEFF 		bl	e_getchar_uart1
 2918 11f8 0346     		mov	r3, r0
 2919 11fa 002B     		cmp	r3, #0
 2920 11fc F9D0     		beq	.L160
 2921 11fe 16E0     		b	.L161
 2922              	.L451:
 2923              		.align	2
 2924              	.L450:
 2925 1200 00000000 		.word	n.12665
 2926 1204 00000000 		.word	i.12663
 2927 1208 00000000 		.word	buffer
 2928 120c 00000000 		.word	mod.12688
 2929 1210 00000000 		.word	reg.12689
 2930 1214 00000000 		.word	val.12690
 2931 1218 00000000 		.word	j.12664
 2932 121c 00000000 		.word	c
 2933              	.L437:
 2934              		.loc 1 578 0 is_stmt 1
 2935 1220 00BF     		nop
 2936              	.L162:
 2937              		.loc 1 578 0 is_stmt 0 discriminator 1
 2938 1222 B448     		ldr	r0, .L452
 2939 1224 FFF7FEFF 		bl	e_getchar_uart2
 2940 1228 0346     		mov	r3, r0
 2941 122a 002B     		cmp	r3, #0
ARM GAS  C:\Users\Moi\AppData\Local\Temp\ccAXdvuJ.s 			page 58


 2942 122c F9D0     		beq	.L162
 2943              	.L161:
 2944              		.loc 1 580 0 is_stmt 1
 2945 122e B14B     		ldr	r3, .L452
 2946 1230 1B78     		ldrb	r3, [r3]	@ zero_extendqisi2
 2947 1232 002B     		cmp	r3, #0
 2948 1234 7FF406A9 		bne	.L163
 2949              		.loc 1 581 0
 2950 1238 AF4B     		ldr	r3, .L452+4
 2951 123a 1B68     		ldr	r3, [r3]
 2952 123c 002B     		cmp	r3, #0
 2953 123e 3EF483AF 		beq	.L413
 2954              		.loc 1 582 0
 2955 1242 0D9B     		ldr	r3, [sp, #52]
 2956 1244 002B     		cmp	r3, #0
 2957 1246 1CD0     		beq	.L165
 2958              		.loc 1 583 0
 2959 1248 AC4B     		ldr	r3, .L452+8
 2960 124a 1B78     		ldrb	r3, [r3]	@ zero_extendqisi2
 2961 124c 002B     		cmp	r3, #0
 2962 124e 18D0     		beq	.L165
 2963              		.loc 1 584 0
 2964 1250 AA4B     		ldr	r3, .L452+8
 2965 1252 0022     		movs	r2, #0
 2966 1254 1A70     		strb	r2, [r3]
 2967              		.loc 1 585 0
 2968 1256 00BF     		nop
 2969              	.L166:
 2970              		.loc 1 585 0 is_stmt 0 discriminator 1
 2971 1258 FFF7FEFF 		bl	e_poxxxx_is_img_ready
 2972 125c 0346     		mov	r3, r0
 2973 125e 002B     		cmp	r3, #0
 2974 1260 FAD0     		beq	.L166
 2975              		.loc 1 586 0 is_stmt 1
 2976 1262 A54B     		ldr	r3, .L452+4
 2977 1264 1A68     		ldr	r2, [r3]
 2978 1266 A64B     		ldr	r3, .L452+12
 2979 1268 1B68     		ldr	r3, [r3]
 2980 126a D31A     		subs	r3, r2, r3
 2981 126c A54A     		ldr	r2, .L452+16
 2982 126e 9C18     		adds	r4, r3, r2
 2983 1270 FFF7FEFF 		bl	dcmi_get_last_image_ptr
 2984 1274 0146     		mov	r1, r0
 2985 1276 A24B     		ldr	r3, .L452+12
 2986 1278 1B68     		ldr	r3, [r3]
 2987 127a 1A46     		mov	r2, r3
 2988 127c 2046     		mov	r0, r4
 2989 127e FFF7FEFF 		bl	memcpy
 2990              	.L165:
 2991              		.loc 1 590 0
 2992 1282 0D9B     		ldr	r3, [sp, #52]
 2993 1284 002B     		cmp	r3, #0
 2994 1286 0DD0     		beq	.L167
 2995              		.loc 1 591 0
 2996 1288 9B4B     		ldr	r3, .L452+4
 2997 128a 1B68     		ldr	r3, [r3]
 2998 128c 1946     		mov	r1, r3
ARM GAS  C:\Users\Moi\AppData\Local\Temp\ccAXdvuJ.s 			page 59


 2999 128e 9D48     		ldr	r0, .L452+16
 3000 1290 FFF7FEFF 		bl	e_send_uart1_char
 3001              		.loc 1 592 0
 3002 1294 00BF     		nop
 3003              	.L168:
 3004              		.loc 1 592 0 is_stmt 0 discriminator 1
 3005 1296 FFF7FEFF 		bl	e_uart1_sending
 3006 129a 0346     		mov	r3, r0
 3007 129c 002B     		cmp	r3, #0
 3008 129e FAD1     		bne	.L168
 3009 12a0 FEF752BF 		b	.L413
 3010              	.L167:
 3011              		.loc 1 594 0 is_stmt 1
 3012 12a4 944B     		ldr	r3, .L452+4
 3013 12a6 1B68     		ldr	r3, [r3]
 3014 12a8 1946     		mov	r1, r3
 3015 12aa 9648     		ldr	r0, .L452+16
 3016 12ac FFF7FEFF 		bl	e_send_uart2_char
 3017              		.loc 1 595 0
 3018 12b0 00BF     		nop
 3019              	.L169:
 3020              		.loc 1 595 0 is_stmt 0 discriminator 1
 3021 12b2 FFF7FEFF 		bl	e_uart2_sending
 3022 12b6 0346     		mov	r3, r0
 3023 12b8 002B     		cmp	r3, #0
 3024 12ba FAD1     		bne	.L169
 3025 12bc FEF744BF 		b	.L413
 3026              	.L47:
 3027              		.loc 1 599 0 is_stmt 1
 3028 12c0 8C4B     		ldr	r3, .L452
 3029 12c2 1B78     		ldrb	r3, [r3]	@ zero_extendqisi2
 3030 12c4 002B     		cmp	r3, #0
 3031 12c6 01F02F83 		beq	.L423
 3032              		.loc 1 600 0
 3033 12ca 0D9B     		ldr	r3, [sp, #52]
 3034 12cc 002B     		cmp	r3, #0
 3035 12ce 0FD0     		beq	.L174
 3036              		.loc 1 601 0
 3037 12d0 02E0     		b	.L171
 3038              	.L172:
 3039              		.loc 1 601 0 is_stmt 0 discriminator 4
 3040 12d2 8848     		ldr	r0, .L452
 3041 12d4 FFF7FEFF 		bl	e_getchar_uart1
 3042              	.L171:
 3043              		.loc 1 601 0 discriminator 1
 3044 12d8 864B     		ldr	r3, .L452
 3045 12da 1B78     		ldrb	r3, [r3]	@ zero_extendqisi2
 3046 12dc 0A2B     		cmp	r3, #10
 3047 12de F8D0     		beq	.L172
 3048              		.loc 1 601 0 discriminator 3
 3049 12e0 844B     		ldr	r3, .L452
 3050 12e2 1B78     		ldrb	r3, [r3]	@ zero_extendqisi2
 3051 12e4 0D2B     		cmp	r3, #13
 3052 12e6 F4D0     		beq	.L172
 3053 12e8 0AE0     		b	.L173
 3054              	.L175:
 3055              		.loc 1 603 0 is_stmt 1 discriminator 4
ARM GAS  C:\Users\Moi\AppData\Local\Temp\ccAXdvuJ.s 			page 60


 3056 12ea 8248     		ldr	r0, .L452
 3057 12ec FFF7FEFF 		bl	e_getchar_uart2
 3058              	.L174:
 3059              		.loc 1 603 0 is_stmt 0 discriminator 1
 3060 12f0 804B     		ldr	r3, .L452
 3061 12f2 1B78     		ldrb	r3, [r3]	@ zero_extendqisi2
 3062 12f4 0A2B     		cmp	r3, #10
 3063 12f6 F8D0     		beq	.L175
 3064              		.loc 1 603 0 discriminator 3
 3065 12f8 7E4B     		ldr	r3, .L452
 3066 12fa 1B78     		ldrb	r3, [r3]	@ zero_extendqisi2
 3067 12fc 0D2B     		cmp	r3, #13
 3068 12fe F4D0     		beq	.L175
 3069              	.L173:
 3070              		.loc 1 605 0 is_stmt 1
 3071 1300 7C4B     		ldr	r3, .L452
 3072 1302 1A78     		ldrb	r2, [r3]	@ zero_extendqisi2
 3073 1304 7F4B     		ldr	r3, .L452+16
 3074 1306 1A70     		strb	r2, [r3]
 3075              		.loc 1 606 0
 3076 1308 7B4B     		ldr	r3, .L452+4
 3077 130a 0122     		movs	r2, #1
 3078 130c 1A60     		str	r2, [r3]
 3079              		.loc 1 607 0
 3080 130e 0D9B     		ldr	r3, [sp, #52]
 3081 1310 002B     		cmp	r3, #0
 3082 1312 17D0     		beq	.L176
 3083              	.L179:
 3084              		.loc 1 608 0
 3085 1314 7748     		ldr	r0, .L452
 3086 1316 FFF7FEFF 		bl	e_getchar_uart1
 3087 131a 0346     		mov	r3, r0
 3088 131c 002B     		cmp	r3, #0
 3089 131e 08D0     		beq	.L177
 3090              		.loc 1 608 0 is_stmt 0 discriminator 1
 3091 1320 754B     		ldr	r3, .L452+4
 3092 1322 1B68     		ldr	r3, [r3]
 3093 1324 5A1C     		adds	r2, r3, #1
 3094 1326 7449     		ldr	r1, .L452+4
 3095 1328 0A60     		str	r2, [r1]
 3096 132a 724A     		ldr	r2, .L452
 3097 132c 1178     		ldrb	r1, [r2]	@ zero_extendqisi2
 3098 132e 754A     		ldr	r2, .L452+16
 3099 1330 D154     		strb	r1, [r2, r3]
 3100              	.L177:
 3101              		.loc 1 609 0 is_stmt 1
 3102 1332 704B     		ldr	r3, .L452
 3103 1334 1B78     		ldrb	r3, [r3]	@ zero_extendqisi2
 3104 1336 0A2B     		cmp	r3, #10
 3105 1338 1BD0     		beq	.L178
 3106              		.loc 1 609 0 is_stmt 0 discriminator 1
 3107 133a 6E4B     		ldr	r3, .L452
 3108 133c 1B78     		ldrb	r3, [r3]	@ zero_extendqisi2
 3109 133e 0D2B     		cmp	r3, #13
 3110 1340 E8D1     		bne	.L179
 3111 1342 16E0     		b	.L178
 3112              	.L176:
ARM GAS  C:\Users\Moi\AppData\Local\Temp\ccAXdvuJ.s 			page 61


 3113              		.loc 1 611 0 is_stmt 1
 3114 1344 6B48     		ldr	r0, .L452
 3115 1346 FFF7FEFF 		bl	e_getchar_uart2
 3116 134a 0346     		mov	r3, r0
 3117 134c 002B     		cmp	r3, #0
 3118 134e 08D0     		beq	.L180
 3119              		.loc 1 611 0 is_stmt 0 discriminator 1
 3120 1350 694B     		ldr	r3, .L452+4
 3121 1352 1B68     		ldr	r3, [r3]
 3122 1354 5A1C     		adds	r2, r3, #1
 3123 1356 6849     		ldr	r1, .L452+4
 3124 1358 0A60     		str	r2, [r1]
 3125 135a 664A     		ldr	r2, .L452
 3126 135c 1178     		ldrb	r1, [r2]	@ zero_extendqisi2
 3127 135e 694A     		ldr	r2, .L452+16
 3128 1360 D154     		strb	r1, [r2, r3]
 3129              	.L180:
 3130              		.loc 1 612 0 is_stmt 1
 3131 1362 644B     		ldr	r3, .L452
 3132 1364 1B78     		ldrb	r3, [r3]	@ zero_extendqisi2
 3133 1366 0A2B     		cmp	r3, #10
 3134 1368 03D0     		beq	.L178
 3135              		.loc 1 612 0 is_stmt 0 discriminator 1
 3136 136a 624B     		ldr	r3, .L452
 3137 136c 1B78     		ldrb	r3, [r3]	@ zero_extendqisi2
 3138 136e 0D2B     		cmp	r3, #13
 3139 1370 E8D1     		bne	.L176
 3140              	.L178:
 3141              		.loc 1 614 0 is_stmt 1
 3142 1372 614B     		ldr	r3, .L452+4
 3143 1374 1B68     		ldr	r3, [r3]
 3144 1376 5A1C     		adds	r2, r3, #1
 3145 1378 5F49     		ldr	r1, .L452+4
 3146 137a 0A60     		str	r2, [r1]
 3147 137c 614A     		ldr	r2, .L452+16
 3148 137e 0021     		movs	r1, #0
 3149 1380 D154     		strb	r1, [r2, r3]
 3150              		.loc 1 616 0
 3151 1382 604B     		ldr	r3, .L452+16
 3152 1384 1B78     		ldrb	r3, [r3]	@ zero_extendqisi2
 3153 1386 622B     		cmp	r3, #98
 3154 1388 1CD0     		beq	.L181
 3155              		.loc 1 616 0 is_stmt 0 discriminator 1
 3156 138a 5E4B     		ldr	r3, .L452+16
 3157 138c 1B78     		ldrb	r3, [r3]	@ zero_extendqisi2
 3158 138e 672B     		cmp	r3, #103
 3159 1390 18D0     		beq	.L181
 3160              	.LBB2:
 3161              		.loc 1 617 0 is_stmt 1
 3162 1392 5C4B     		ldr	r3, .L452+16
 3163 1394 1B78     		ldrb	r3, [r3]
 3164 1396 8DF83330 		strb	r3, [sp, #51]
 3165 139a FFF7FEFF 		bl	__locale_ctype_ptr
 3166 139e 0246     		mov	r2, r0
 3167 13a0 9DF83330 		ldrb	r3, [sp, #51]	@ zero_extendqisi2
 3168 13a4 0133     		adds	r3, r3, #1
 3169 13a6 1344     		add	r3, r3, r2
ARM GAS  C:\Users\Moi\AppData\Local\Temp\ccAXdvuJ.s 			page 62


 3170 13a8 1B78     		ldrb	r3, [r3]	@ zero_extendqisi2
 3171 13aa 03F00303 		and	r3, r3, #3
 3172 13ae 022B     		cmp	r3, #2
 3173 13b0 03D1     		bne	.L182
 3174              		.loc 1 617 0 is_stmt 0 discriminator 1
 3175 13b2 9DF83330 		ldrb	r3, [sp, #51]	@ zero_extendqisi2
 3176 13b6 203B     		subs	r3, r3, #32
 3177 13b8 01E0     		b	.L183
 3178              	.L182:
 3179              		.loc 1 617 0 discriminator 2
 3180 13ba 9DF83330 		ldrb	r3, [sp, #51]	@ zero_extendqisi2
 3181              	.L183:
 3182              	.LBE2:
 3183              		.loc 1 617 0 discriminator 4
 3184 13be DAB2     		uxtb	r2, r3
 3185 13c0 504B     		ldr	r3, .L452+16
 3186 13c2 1A70     		strb	r2, [r3]
 3187              	.L181:
 3188              		.loc 1 619 0 is_stmt 1
 3189 13c4 4F4B     		ldr	r3, .L452+16
 3190 13c6 1B78     		ldrb	r3, [r3]	@ zero_extendqisi2
 3191 13c8 413B     		subs	r3, r3, #65
 3192 13ca 332B     		cmp	r3, #51
 3193 13cc 01F29382 		bhi	.L184
 3194 13d0 01A2     		adr	r2, .L186
 3195 13d2 52F823F0 		ldr	pc, [r2, r3, lsl #2]
 3196 13d6 00BF     		.p2align 2
 3197              	.L186:
 3198 13d8 A9140000 		.word	.L185+1
 3199 13dc F5150000 		.word	.L187+1
 3200 13e0 3F160000 		.word	.L188+1
 3201 13e4 CD160000 		.word	.L189+1
 3202 13e8 23170000 		.word	.L190+1
 3203 13ec 79170000 		.word	.L191+1
 3204 13f0 C3170000 		.word	.L192+1
 3205 13f4 E1180000 		.word	.L193+1
 3206 13f8 811D0000 		.word	.L194+1
 3207 13fc CF1D0000 		.word	.L195+1
 3208 1400 7F1F0000 		.word	.L196+1
 3209 1404 2D200000 		.word	.L197+1
 3210 1408 81200000 		.word	.L198+1
 3211 140c 19220000 		.word	.L199+1
 3212 1410 27230000 		.word	.L200+1
 3213 1414 51240000 		.word	.L201+1
 3214 1418 A3240000 		.word	.L202+1
 3215 141c 2F290000 		.word	.L424+1
 3216 1420 FB240000 		.word	.L204+1
 3217 1424 41250000 		.word	.L205+1
 3218 1428 77260000 		.word	.L206+1
 3219 142c DF260000 		.word	.L207+1
 3220 1430 A5270000 		.word	.L208+1
 3221 1434 F7280000 		.word	.L184+1
 3222 1438 F3270000 		.word	.L209+1
 3223 143c 83280000 		.word	.L210+1
 3224 1440 F7280000 		.word	.L184+1
 3225 1444 F7280000 		.word	.L184+1
 3226 1448 F7280000 		.word	.L184+1
ARM GAS  C:\Users\Moi\AppData\Local\Temp\ccAXdvuJ.s 			page 63


 3227 144c F7280000 		.word	.L184+1
 3228 1450 F7280000 		.word	.L184+1
 3229 1454 F7280000 		.word	.L184+1
 3230 1458 F7280000 		.word	.L184+1
 3231 145c 83150000 		.word	.L211+1
 3232 1460 F7280000 		.word	.L184+1
 3233 1464 F7280000 		.word	.L184+1
 3234 1468 F7280000 		.word	.L184+1
 3235 146c F7280000 		.word	.L184+1
 3236 1470 0F180000 		.word	.L212+1
 3237 1474 F7280000 		.word	.L184+1
 3238 1478 F7280000 		.word	.L184+1
 3239 147c F7280000 		.word	.L184+1
 3240 1480 F7280000 		.word	.L184+1
 3241 1484 F7280000 		.word	.L184+1
 3242 1488 F7280000 		.word	.L184+1
 3243 148c F7280000 		.word	.L184+1
 3244 1490 F7280000 		.word	.L184+1
 3245 1494 F7280000 		.word	.L184+1
 3246 1498 F7280000 		.word	.L184+1
 3247 149c F7280000 		.word	.L184+1
 3248 14a0 F7280000 		.word	.L184+1
 3249 14a4 05260000 		.word	.L213+1
 3250              		.p2align 1
 3251              	.L185:
 3252              	.LBB3:
 3253              		.loc 1 621 0
 3254 14a8 0D9B     		ldr	r3, [sp, #52]
 3255 14aa 002B     		cmp	r3, #0
 3256 14ac 16D0     		beq	.L214
 3257              		.loc 1 622 0
 3258 14ae 0121     		movs	r1, #1
 3259 14b0 0020     		movs	r0, #0
 3260 14b2 FFF7FEFF 		bl	e_get_acc_filtered
 3261 14b6 0446     		mov	r4, r0
 3262 14b8 0121     		movs	r1, #1
 3263 14ba 0120     		movs	r0, #1
 3264 14bc FFF7FEFF 		bl	e_get_acc_filtered
 3265 14c0 0546     		mov	r5, r0
 3266 14c2 0121     		movs	r1, #1
 3267 14c4 0220     		movs	r0, #2
 3268 14c6 FFF7FEFF 		bl	e_get_acc_filtered
 3269 14ca 0346     		mov	r3, r0
 3270 14cc 0093     		str	r3, [sp]
 3271 14ce 2B46     		mov	r3, r5
 3272 14d0 2246     		mov	r2, r4
 3273 14d2 0D49     		ldr	r1, .L452+20
 3274 14d4 0B48     		ldr	r0, .L452+16
 3275 14d6 FFF7FEFF 		bl	sprintf
 3276 14da 2FE0     		b	.L215
 3277              	.L214:
 3278              		.loc 1 624 0
 3279 14dc FFF7FEFF 		bl	isEpuckVersion1_3
 3280 14e0 0346     		mov	r3, r0
 3281 14e2 002B     		cmp	r3, #0
 3282 14e4 14D0     		beq	.L216
 3283              		.loc 1 625 0
ARM GAS  C:\Users\Moi\AppData\Local\Temp\ccAXdvuJ.s 			page 64


 3284 14e6 074B     		ldr	r3, .L452+16
 3285 14e8 084A     		ldr	r2, .L452+24
 3286 14ea 07CA     		ldm	r2, {r0, r1, r2}
 3287 14ec 03C3     		stmia	r3!, {r0, r1}
 3288 14ee 1A80     		strh	r2, [r3]	@ movhi
 3289 14f0 24E0     		b	.L215
 3290              	.L453:
 3291 14f2 00BF     		.align	2
 3292              	.L452:
 3293 14f4 00000000 		.word	c
 3294 14f8 00000000 		.word	i.12663
 3295 14fc 00000000 		.word	wait_cam.12662
 3296 1500 00000000 		.word	cam_size.12683
 3297 1504 00000000 		.word	buffer
 3298 1508 5C000000 		.word	.LC1
 3299 150c 6C000000 		.word	.LC2
 3300              	.L216:
 3301              		.loc 1 627 0
 3302 1510 0121     		movs	r1, #1
 3303 1512 0020     		movs	r0, #0
 3304 1514 FFF7FEFF 		bl	e_get_acc_filtered
 3305 1518 0446     		mov	r4, r0
 3306 151a 0121     		movs	r1, #1
 3307 151c 0120     		movs	r0, #1
 3308 151e FFF7FEFF 		bl	e_get_acc_filtered
 3309 1522 0546     		mov	r5, r0
 3310 1524 0121     		movs	r1, #1
 3311 1526 0220     		movs	r0, #2
 3312 1528 FFF7FEFF 		bl	e_get_acc_filtered
 3313 152c 0346     		mov	r3, r0
 3314 152e 0093     		str	r3, [sp]
 3315 1530 2B46     		mov	r3, r5
 3316 1532 2246     		mov	r2, r4
 3317 1534 C249     		ldr	r1, .L454
 3318 1536 C348     		ldr	r0, .L454+4
 3319 1538 FFF7FEFF 		bl	sprintf
 3320              	.L215:
 3321              		.loc 1 630 0
 3322 153c 0D9B     		ldr	r3, [sp, #52]
 3323 153e 002B     		cmp	r3, #0
 3324 1540 0FD0     		beq	.L217
 3325              		.loc 1 631 0
 3326 1542 C048     		ldr	r0, .L454+4
 3327 1544 FFF7FEFF 		bl	strlen
 3328 1548 0346     		mov	r3, r0
 3329 154a 1946     		mov	r1, r3
 3330 154c BD48     		ldr	r0, .L454+4
 3331 154e FFF7FEFF 		bl	e_send_uart1_char
 3332 1552 00BF     		nop
 3333              	.L218:
 3334              		.loc 1 631 0 is_stmt 0 discriminator 2
 3335 1554 FFF7FEFF 		bl	e_uart1_sending
 3336 1558 0346     		mov	r3, r0
 3337 155a 002B     		cmp	r3, #0
 3338 155c FAD1     		bne	.L218
 3339              		.loc 1 635 0 is_stmt 1
 3340 155e 01F0FCB9 		b	.L164
ARM GAS  C:\Users\Moi\AppData\Local\Temp\ccAXdvuJ.s 			page 65


 3341              	.L217:
 3342              		.loc 1 633 0
 3343 1562 B848     		ldr	r0, .L454+4
 3344 1564 FFF7FEFF 		bl	strlen
 3345 1568 0346     		mov	r3, r0
 3346 156a 1946     		mov	r1, r3
 3347 156c B548     		ldr	r0, .L454+4
 3348 156e FFF7FEFF 		bl	e_send_uart2_char
 3349 1572 00BF     		nop
 3350              	.L220:
 3351              		.loc 1 633 0 is_stmt 0 discriminator 2
 3352 1574 FFF7FEFF 		bl	e_uart2_sending
 3353 1578 0346     		mov	r3, r0
 3354 157a 002B     		cmp	r3, #0
 3355 157c FAD1     		bne	.L220
 3356              		.loc 1 635 0 is_stmt 1
 3357 157e 01F0ECB9 		b	.L164
 3358              	.L211:
 3359              		.loc 1 637 0
 3360 1582 FFF7FEFF 		bl	isEpuckVersion1_3
 3361 1586 0346     		mov	r3, r0
 3362 1588 002B     		cmp	r3, #0
 3363 158a 0BD0     		beq	.L221
 3364              		.loc 1 638 0
 3365 158c FFF7FEFF 		bl	getBatteryValueRaw
 3366 1590 0446     		mov	r4, r0
 3367 1592 FFF7FEFF 		bl	getBatteryValuePercentage
 3368 1596 0346     		mov	r3, r0
 3369 1598 2246     		mov	r2, r4
 3370 159a AB49     		ldr	r1, .L454+8
 3371 159c A948     		ldr	r0, .L454+4
 3372 159e FFF7FEFF 		bl	sprintf
 3373 15a2 04E0     		b	.L222
 3374              	.L221:
 3375              		.loc 1 640 0
 3376 15a4 0022     		movs	r2, #0
 3377 15a6 A949     		ldr	r1, .L454+12
 3378 15a8 A648     		ldr	r0, .L454+4
 3379 15aa FFF7FEFF 		bl	sprintf
 3380              	.L222:
 3381              		.loc 1 642 0
 3382 15ae 0D9B     		ldr	r3, [sp, #52]
 3383 15b0 002B     		cmp	r3, #0
 3384 15b2 0FD0     		beq	.L223
 3385              		.loc 1 643 0
 3386 15b4 A348     		ldr	r0, .L454+4
 3387 15b6 FFF7FEFF 		bl	strlen
 3388 15ba 0346     		mov	r3, r0
 3389 15bc 1946     		mov	r1, r3
 3390 15be A148     		ldr	r0, .L454+4
 3391 15c0 FFF7FEFF 		bl	e_send_uart1_char
 3392 15c4 00BF     		nop
 3393              	.L224:
 3394              		.loc 1 643 0 is_stmt 0 discriminator 2
 3395 15c6 FFF7FEFF 		bl	e_uart1_sending
 3396 15ca 0346     		mov	r3, r0
 3397 15cc 002B     		cmp	r3, #0
ARM GAS  C:\Users\Moi\AppData\Local\Temp\ccAXdvuJ.s 			page 66


 3398 15ce FAD1     		bne	.L224
 3399              		.loc 1 647 0 is_stmt 1
 3400 15d0 01F0C3B9 		b	.L164
 3401              	.L223:
 3402              		.loc 1 645 0
 3403 15d4 9B48     		ldr	r0, .L454+4
 3404 15d6 FFF7FEFF 		bl	strlen
 3405 15da 0346     		mov	r3, r0
 3406 15dc 1946     		mov	r1, r3
 3407 15de 9948     		ldr	r0, .L454+4
 3408 15e0 FFF7FEFF 		bl	e_send_uart2_char
 3409 15e4 00BF     		nop
 3410              	.L226:
 3411              		.loc 1 645 0 is_stmt 0 discriminator 2
 3412 15e6 FFF7FEFF 		bl	e_uart2_sending
 3413 15ea 0346     		mov	r3, r0
 3414 15ec 002B     		cmp	r3, #0
 3415 15ee FAD1     		bne	.L226
 3416              		.loc 1 647 0 is_stmt 1
 3417 15f0 01F0B3B9 		b	.L164
 3418              	.L187:
 3419              		.loc 1 649 0
 3420 15f4 964A     		ldr	r2, .L454+16
 3421 15f6 9749     		ldr	r1, .L454+20
 3422 15f8 9248     		ldr	r0, .L454+4
 3423 15fa FFF7FEFF 		bl	sscanf
 3424              		.loc 1 650 0
 3425 15fe 0D9B     		ldr	r3, [sp, #52]
 3426 1600 002B     		cmp	r3, #0
 3427 1602 10D0     		beq	.L227
 3428              		.loc 1 651 0
 3429 1604 924B     		ldr	r3, .L454+16
 3430 1606 1B68     		ldr	r3, [r3]
 3431 1608 1846     		mov	r0, r3
 3432 160a FFF7FEFF 		bl	e_set_body_led
 3433              		.loc 1 652 0
 3434 160e 0321     		movs	r1, #3
 3435 1610 9148     		ldr	r0, .L454+24
 3436 1612 FFF7FEFF 		bl	e_send_uart1_char
 3437 1616 00BF     		nop
 3438              	.L228:
 3439              		.loc 1 652 0 is_stmt 0 discriminator 2
 3440 1618 FFF7FEFF 		bl	e_uart1_sending
 3441 161c 0346     		mov	r3, r0
 3442 161e 002B     		cmp	r3, #0
 3443 1620 FAD1     		bne	.L228
 3444              		.loc 1 656 0 is_stmt 1
 3445 1622 01F09AB9 		b	.L164
 3446              	.L227:
 3447              		.loc 1 654 0
 3448 1626 0321     		movs	r1, #3
 3449 1628 8B48     		ldr	r0, .L454+24
 3450 162a FFF7FEFF 		bl	e_send_uart2_char
 3451 162e 00BF     		nop
 3452              	.L230:
 3453              		.loc 1 654 0 is_stmt 0 discriminator 2
 3454 1630 FFF7FEFF 		bl	e_uart2_sending
ARM GAS  C:\Users\Moi\AppData\Local\Temp\ccAXdvuJ.s 			page 67


 3455 1634 0346     		mov	r3, r0
 3456 1636 002B     		cmp	r3, #0
 3457 1638 FAD1     		bne	.L230
 3458              		.loc 1 656 0 is_stmt 1
 3459 163a 01F08EB9 		b	.L164
 3460              	.L188:
 3461              		.loc 1 658 0
 3462 163e 874B     		ldr	r3, .L454+28
 3463 1640 1B69     		ldr	r3, [r3, #16]
 3464 1642 5B0B     		lsrs	r3, r3, #13
 3465 1644 03F00102 		and	r2, r3, #1
 3466 1648 844B     		ldr	r3, .L454+28
 3467 164a 1B69     		ldr	r3, [r3, #16]
 3468 164c DB0B     		lsrs	r3, r3, #15
 3469 164e 03F00101 		and	r1, r3, #1
 3470 1652 834B     		ldr	r3, .L454+32
 3471 1654 1B69     		ldr	r3, [r3, #16]
 3472 1656 1B09     		lsrs	r3, r3, #4
 3473 1658 03F00103 		and	r3, r3, #1
 3474 165c 5B00     		lsls	r3, r3, #1
 3475 165e 0B44     		add	r3, r3, r1
 3476 1660 5900     		lsls	r1, r3, #1
 3477 1662 7E4B     		ldr	r3, .L454+28
 3478 1664 1B69     		ldr	r3, [r3, #16]
 3479 1666 9B0B     		lsrs	r3, r3, #14
 3480 1668 03F00103 		and	r3, r3, #1
 3481 166c 0B44     		add	r3, r3, r1
 3482 166e 5B00     		lsls	r3, r3, #1
 3483 1670 1344     		add	r3, r3, r2
 3484 1672 1A46     		mov	r2, r3
 3485 1674 7B4B     		ldr	r3, .L454+36
 3486 1676 1A60     		str	r2, [r3]
 3487              		.loc 1 659 0
 3488 1678 7A4B     		ldr	r3, .L454+36
 3489 167a 1B68     		ldr	r3, [r3]
 3490 167c 1A46     		mov	r2, r3
 3491 167e 7A49     		ldr	r1, .L454+40
 3492 1680 7048     		ldr	r0, .L454+4
 3493 1682 FFF7FEFF 		bl	sprintf
 3494              		.loc 1 660 0
 3495 1686 0D9B     		ldr	r3, [sp, #52]
 3496 1688 002B     		cmp	r3, #0
 3497 168a 0FD0     		beq	.L231
 3498              		.loc 1 661 0
 3499 168c 6D48     		ldr	r0, .L454+4
 3500 168e FFF7FEFF 		bl	strlen
 3501 1692 0346     		mov	r3, r0
 3502 1694 1946     		mov	r1, r3
 3503 1696 6B48     		ldr	r0, .L454+4
 3504 1698 FFF7FEFF 		bl	e_send_uart1_char
 3505 169c 00BF     		nop
 3506              	.L232:
 3507              		.loc 1 661 0 is_stmt 0 discriminator 2
 3508 169e FFF7FEFF 		bl	e_uart1_sending
 3509 16a2 0346     		mov	r3, r0
 3510 16a4 002B     		cmp	r3, #0
 3511 16a6 FAD1     		bne	.L232
ARM GAS  C:\Users\Moi\AppData\Local\Temp\ccAXdvuJ.s 			page 68


 3512              		.loc 1 665 0 is_stmt 1
 3513 16a8 01F057B9 		b	.L164
 3514              	.L231:
 3515              		.loc 1 663 0
 3516 16ac 6548     		ldr	r0, .L454+4
 3517 16ae FFF7FEFF 		bl	strlen
 3518 16b2 0346     		mov	r3, r0
 3519 16b4 1946     		mov	r1, r3
 3520 16b6 6348     		ldr	r0, .L454+4
 3521 16b8 FFF7FEFF 		bl	e_send_uart2_char
 3522 16bc 00BF     		nop
 3523              	.L234:
 3524              		.loc 1 663 0 is_stmt 0 discriminator 2
 3525 16be FFF7FEFF 		bl	e_uart2_sending
 3526 16c2 0346     		mov	r3, r0
 3527 16c4 002B     		cmp	r3, #0
 3528 16c6 FAD1     		bne	.L234
 3529              		.loc 1 665 0 is_stmt 1
 3530 16c8 01F047B9 		b	.L164
 3531              	.L189:
 3532              		.loc 1 667 0
 3533 16cc 674B     		ldr	r3, .L454+44
 3534 16ce 684A     		ldr	r2, .L454+48
 3535 16d0 6849     		ldr	r1, .L454+52
 3536 16d2 5C48     		ldr	r0, .L454+4
 3537 16d4 FFF7FEFF 		bl	sscanf
 3538              		.loc 1 668 0
 3539 16d8 654B     		ldr	r3, .L454+48
 3540 16da 1B68     		ldr	r3, [r3]
 3541 16dc 1846     		mov	r0, r3
 3542 16de FFF7FEFF 		bl	e_set_speed_left
 3543              		.loc 1 669 0
 3544 16e2 624B     		ldr	r3, .L454+44
 3545 16e4 1B68     		ldr	r3, [r3]
 3546 16e6 1846     		mov	r0, r3
 3547 16e8 FFF7FEFF 		bl	e_set_speed_right
 3548              		.loc 1 670 0
 3549 16ec 0D9B     		ldr	r3, [sp, #52]
 3550 16ee 002B     		cmp	r3, #0
 3551 16f0 0BD0     		beq	.L235
 3552              		.loc 1 671 0
 3553 16f2 0321     		movs	r1, #3
 3554 16f4 6048     		ldr	r0, .L454+56
 3555 16f6 FFF7FEFF 		bl	e_send_uart1_char
 3556 16fa 00BF     		nop
 3557              	.L236:
 3558              		.loc 1 671 0 is_stmt 0 discriminator 2
 3559 16fc FFF7FEFF 		bl	e_uart1_sending
 3560 1700 0346     		mov	r3, r0
 3561 1702 002B     		cmp	r3, #0
 3562 1704 FAD1     		bne	.L236
 3563              		.loc 1 675 0 is_stmt 1
 3564 1706 01F028B9 		b	.L164
 3565              	.L235:
 3566              		.loc 1 673 0
 3567 170a 0321     		movs	r1, #3
 3568 170c 5A48     		ldr	r0, .L454+56
ARM GAS  C:\Users\Moi\AppData\Local\Temp\ccAXdvuJ.s 			page 69


 3569 170e FFF7FEFF 		bl	e_send_uart2_char
 3570 1712 00BF     		nop
 3571              	.L238:
 3572              		.loc 1 673 0 is_stmt 0 discriminator 2
 3573 1714 FFF7FEFF 		bl	e_uart2_sending
 3574 1718 0346     		mov	r3, r0
 3575 171a 002B     		cmp	r3, #0
 3576 171c FAD1     		bne	.L238
 3577              		.loc 1 675 0 is_stmt 1
 3578 171e 01F01CB9 		b	.L164
 3579              	.L190:
 3580              		.loc 1 677 0
 3581 1722 534B     		ldr	r3, .L454+48
 3582 1724 1A68     		ldr	r2, [r3]
 3583 1726 514B     		ldr	r3, .L454+44
 3584 1728 1B68     		ldr	r3, [r3]
 3585 172a 5449     		ldr	r1, .L454+60
 3586 172c 4548     		ldr	r0, .L454+4
 3587 172e FFF7FEFF 		bl	sprintf
 3588              		.loc 1 678 0
 3589 1732 0D9B     		ldr	r3, [sp, #52]
 3590 1734 002B     		cmp	r3, #0
 3591 1736 0FD0     		beq	.L239
 3592              		.loc 1 679 0
 3593 1738 4248     		ldr	r0, .L454+4
 3594 173a FFF7FEFF 		bl	strlen
 3595 173e 0346     		mov	r3, r0
 3596 1740 1946     		mov	r1, r3
 3597 1742 4048     		ldr	r0, .L454+4
 3598 1744 FFF7FEFF 		bl	e_send_uart1_char
 3599 1748 00BF     		nop
 3600              	.L240:
 3601              		.loc 1 679 0 is_stmt 0 discriminator 2
 3602 174a FFF7FEFF 		bl	e_uart1_sending
 3603 174e 0346     		mov	r3, r0
 3604 1750 002B     		cmp	r3, #0
 3605 1752 FAD1     		bne	.L240
 3606              		.loc 1 683 0 is_stmt 1
 3607 1754 01F001B9 		b	.L164
 3608              	.L239:
 3609              		.loc 1 681 0
 3610 1758 3A48     		ldr	r0, .L454+4
 3611 175a FFF7FEFF 		bl	strlen
 3612 175e 0346     		mov	r3, r0
 3613 1760 1946     		mov	r1, r3
 3614 1762 3848     		ldr	r0, .L454+4
 3615 1764 FFF7FEFF 		bl	e_send_uart2_char
 3616 1768 00BF     		nop
 3617              	.L242:
 3618              		.loc 1 681 0 is_stmt 0 discriminator 2
 3619 176a FFF7FEFF 		bl	e_uart2_sending
 3620 176e 0346     		mov	r3, r0
 3621 1770 002B     		cmp	r3, #0
 3622 1772 FAD1     		bne	.L242
 3623              		.loc 1 683 0 is_stmt 1
 3624 1774 01F0F1B8 		b	.L164
 3625              	.L191:
ARM GAS  C:\Users\Moi\AppData\Local\Temp\ccAXdvuJ.s 			page 70


 3626              		.loc 1 685 0
 3627 1778 354A     		ldr	r2, .L454+16
 3628 177a 4149     		ldr	r1, .L454+64
 3629 177c 3148     		ldr	r0, .L454+4
 3630 177e FFF7FEFF 		bl	sscanf
 3631              		.loc 1 686 0
 3632 1782 0D9B     		ldr	r3, [sp, #52]
 3633 1784 002B     		cmp	r3, #0
 3634 1786 10D0     		beq	.L243
 3635              		.loc 1 687 0
 3636 1788 314B     		ldr	r3, .L454+16
 3637 178a 1B68     		ldr	r3, [r3]
 3638 178c 1846     		mov	r0, r3
 3639 178e FFF7FEFF 		bl	e_set_front_led
 3640              		.loc 1 688 0
 3641 1792 0321     		movs	r1, #3
 3642 1794 3B48     		ldr	r0, .L454+68
 3643 1796 FFF7FEFF 		bl	e_send_uart1_char
 3644 179a 00BF     		nop
 3645              	.L244:
 3646              		.loc 1 688 0 is_stmt 0 discriminator 2
 3647 179c FFF7FEFF 		bl	e_uart1_sending
 3648 17a0 0346     		mov	r3, r0
 3649 17a2 002B     		cmp	r3, #0
 3650 17a4 FAD1     		bne	.L244
 3651              		.loc 1 692 0 is_stmt 1
 3652 17a6 01F0D8B8 		b	.L164
 3653              	.L243:
 3654              		.loc 1 690 0
 3655 17aa 0321     		movs	r1, #3
 3656 17ac 3548     		ldr	r0, .L454+68
 3657 17ae FFF7FEFF 		bl	e_send_uart2_char
 3658 17b2 00BF     		nop
 3659              	.L246:
 3660              		.loc 1 690 0 is_stmt 0 discriminator 2
 3661 17b4 FFF7FEFF 		bl	e_uart2_sending
 3662 17b8 0346     		mov	r3, r0
 3663 17ba 002B     		cmp	r3, #0
 3664 17bc FAD1     		bne	.L246
 3665              		.loc 1 692 0 is_stmt 1
 3666 17be 01F0CCB8 		b	.L164
 3667              	.L192:
 3668              		.loc 1 695 0
 3669 17c2 0D9B     		ldr	r3, [sp, #52]
 3670 17c4 002B     		cmp	r3, #0
 3671 17c6 01F0B580 		beq	.L425
 3672              		.loc 1 696 0
 3673 17ca FFF7FEFF 		bl	e_get_check
 3674 17ce 0346     		mov	r3, r0
 3675 17d0 1C46     		mov	r4, r3
 3676 17d2 FFF7FEFF 		bl	e_get_address
 3677 17d6 0346     		mov	r3, r0
 3678 17d8 1D46     		mov	r5, r3
 3679 17da FFF7FEFF 		bl	e_get_data
 3680 17de 0346     		mov	r3, r0
 3681 17e0 0093     		str	r3, [sp]
 3682 17e2 2B46     		mov	r3, r5
ARM GAS  C:\Users\Moi\AppData\Local\Temp\ccAXdvuJ.s 			page 71


 3683 17e4 2246     		mov	r2, r4
 3684 17e6 2849     		ldr	r1, .L454+72
 3685 17e8 1648     		ldr	r0, .L454+4
 3686 17ea FFF7FEFF 		bl	sprintf
 3687              		.loc 1 697 0
 3688 17ee 1548     		ldr	r0, .L454+4
 3689 17f0 FFF7FEFF 		bl	strlen
 3690 17f4 0346     		mov	r3, r0
 3691 17f6 1946     		mov	r1, r3
 3692 17f8 1248     		ldr	r0, .L454+4
 3693 17fa FFF7FEFF 		bl	e_send_uart1_char
 3694 17fe 00BF     		nop
 3695              	.L248:
 3696              		.loc 1 697 0 is_stmt 0 discriminator 2
 3697 1800 FFF7FEFF 		bl	e_uart1_sending
 3698 1804 0346     		mov	r3, r0
 3699 1806 002B     		cmp	r3, #0
 3700 1808 FAD1     		bne	.L248
 3701              		.loc 1 699 0 is_stmt 1
 3702 180a 01F093B8 		b	.L425
 3703              	.L212:
 3704              		.loc 1 702 0
 3705 180e 0D9B     		ldr	r3, [sp, #52]
 3706 1810 002B     		cmp	r3, #0
 3707 1812 3DD0     		beq	.L249
 3708              		.loc 1 702 0 is_stmt 0 discriminator 1
 3709 1814 FFF7FEFF 		bl	isEpuckVersion1_3
 3710 1818 0346     		mov	r3, r0
 3711 181a 002B     		cmp	r3, #0
 3712 181c 38D0     		beq	.L249
 3713              		.loc 1 703 0 is_stmt 1
 3714 181e FFF7FEFF 		bl	getXAxisGyro
 3715 1822 0446     		mov	r4, r0
 3716 1824 FFF7FEFF 		bl	getYAxisGyro
 3717 1828 0546     		mov	r5, r0
 3718 182a FFF7FEFF 		bl	getZAxisGyro
 3719 182e 0346     		mov	r3, r0
 3720 1830 0093     		str	r3, [sp]
 3721 1832 2B46     		mov	r3, r5
 3722 1834 2246     		mov	r2, r4
 3723 1836 1549     		ldr	r1, .L454+76
 3724 1838 0248     		ldr	r0, .L454+4
 3725 183a FFF7FEFF 		bl	sprintf
 3726 183e 2CE0     		b	.L250
 3727              	.L455:
 3728              		.align	2
 3729              	.L454:
 3730 1840 5C000000 		.word	.LC1
 3731 1844 00000000 		.word	buffer
 3732 1848 78000000 		.word	.LC3
 3733 184c 88000000 		.word	.LC4
 3734 1850 00000000 		.word	LED_action.12671
 3735 1854 90000000 		.word	.LC5
 3736 1858 98000000 		.word	.LC6
 3737 185c 00080240 		.word	1073874944
 3738 1860 000C0240 		.word	1073875968
 3739 1864 00000000 		.word	selector
ARM GAS  C:\Users\Moi\AppData\Local\Temp\ccAXdvuJ.s 			page 72


 3740 1868 9C000000 		.word	.LC7
 3741 186c 00000000 		.word	speedr.12666
 3742 1870 00000000 		.word	speedl.12667
 3743 1874 A4000000 		.word	.LC8
 3744 1878 B0000000 		.word	.LC9
 3745 187c B4000000 		.word	.LC10
 3746 1880 C0000000 		.word	.LC11
 3747 1884 C8000000 		.word	.LC12
 3748 1888 CC000000 		.word	.LC13
 3749 188c 00010000 		.word	.LC14
 3750              	.L249:
 3751              		.loc 1 705 0
 3752 1890 C44B     		ldr	r3, .L456
 3753 1892 C54A     		ldr	r2, .L456+4
 3754 1894 07CA     		ldm	r2, {r0, r1, r2}
 3755 1896 03C3     		stmia	r3!, {r0, r1}
 3756 1898 1A80     		strh	r2, [r3]	@ movhi
 3757              	.L250:
 3758              		.loc 1 707 0
 3759 189a 0D9B     		ldr	r3, [sp, #52]
 3760 189c 002B     		cmp	r3, #0
 3761 189e 0FD0     		beq	.L251
 3762              		.loc 1 708 0
 3763 18a0 C048     		ldr	r0, .L456
 3764 18a2 FFF7FEFF 		bl	strlen
 3765 18a6 0346     		mov	r3, r0
 3766 18a8 1946     		mov	r1, r3
 3767 18aa BE48     		ldr	r0, .L456
 3768 18ac FFF7FEFF 		bl	e_send_uart1_char
 3769 18b0 00BF     		nop
 3770              	.L252:
 3771              		.loc 1 708 0 is_stmt 0 discriminator 2
 3772 18b2 FFF7FEFF 		bl	e_uart1_sending
 3773 18b6 0346     		mov	r3, r0
 3774 18b8 002B     		cmp	r3, #0
 3775 18ba FAD1     		bne	.L252
 3776              		.loc 1 712 0 is_stmt 1
 3777 18bc 01F04DB8 		b	.L164
 3778              	.L251:
 3779              		.loc 1 710 0
 3780 18c0 B848     		ldr	r0, .L456
 3781 18c2 FFF7FEFF 		bl	strlen
 3782 18c6 0346     		mov	r3, r0
 3783 18c8 1946     		mov	r1, r3
 3784 18ca B648     		ldr	r0, .L456
 3785 18cc FFF7FEFF 		bl	e_send_uart2_char
 3786 18d0 00BF     		nop
 3787              	.L254:
 3788              		.loc 1 710 0 is_stmt 0 discriminator 2
 3789 18d2 FFF7FEFF 		bl	e_uart2_sending
 3790 18d6 0346     		mov	r3, r0
 3791 18d8 002B     		cmp	r3, #0
 3792 18da FAD1     		bne	.L254
 3793              		.loc 1 712 0 is_stmt 1
 3794 18dc 01F03DB8 		b	.L164
 3795              	.L193:
 3796              		.loc 1 715 0
ARM GAS  C:\Users\Moi\AppData\Local\Temp\ccAXdvuJ.s 			page 73


 3797 18e0 0D9B     		ldr	r3, [sp, #52]
 3798 18e2 002B     		cmp	r3, #0
 3799 18e4 00F03481 		beq	.L255
 3800              		.loc 1 716 0
 3801 18e8 0121     		movs	r1, #1
 3802 18ea B048     		ldr	r0, .L456+8
 3803 18ec FFF7FEFF 		bl	e_send_uart1_char
 3804 18f0 00BF     		nop
 3805              	.L256:
 3806              		.loc 1 716 0 is_stmt 0 discriminator 2
 3807 18f2 FFF7FEFF 		bl	e_uart1_sending
 3808 18f6 0346     		mov	r3, r0
 3809 18f8 002B     		cmp	r3, #0
 3810 18fa FAD1     		bne	.L256
 3811              		.loc 1 717 0 is_stmt 1
 3812 18fc 2121     		movs	r1, #33
 3813 18fe AC48     		ldr	r0, .L456+12
 3814 1900 FFF7FEFF 		bl	e_send_uart1_char
 3815 1904 00BF     		nop
 3816              	.L257:
 3817              		.loc 1 717 0 is_stmt 0 discriminator 2
 3818 1906 FFF7FEFF 		bl	e_uart1_sending
 3819 190a 0346     		mov	r3, r0
 3820 190c 002B     		cmp	r3, #0
 3821 190e FAD1     		bne	.L257
 3822              		.loc 1 718 0 is_stmt 1
 3823 1910 3121     		movs	r1, #49
 3824 1912 A848     		ldr	r0, .L456+16
 3825 1914 FFF7FEFF 		bl	e_send_uart1_char
 3826 1918 00BF     		nop
 3827              	.L258:
 3828              		.loc 1 718 0 is_stmt 0 discriminator 2
 3829 191a FFF7FEFF 		bl	e_uart1_sending
 3830 191e 0346     		mov	r3, r0
 3831 1920 002B     		cmp	r3, #0
 3832 1922 FAD1     		bne	.L258
 3833              		.loc 1 719 0 is_stmt 1
 3834 1924 FFF7FEFF 		bl	isEpuckVersion1_3
 3835 1928 0346     		mov	r3, r0
 3836 192a 002B     		cmp	r3, #0
 3837 192c 0AD0     		beq	.L259
 3838              		.loc 1 720 0
 3839 192e 2121     		movs	r1, #33
 3840 1930 A148     		ldr	r0, .L456+20
 3841 1932 FFF7FEFF 		bl	e_send_uart1_char
 3842 1936 00BF     		nop
 3843              	.L260:
 3844              		.loc 1 720 0 is_stmt 0 discriminator 2
 3845 1938 FFF7FEFF 		bl	e_uart1_sending
 3846 193c 0346     		mov	r3, r0
 3847 193e 002B     		cmp	r3, #0
 3848 1940 FAD1     		bne	.L260
 3849 1942 09E0     		b	.L261
 3850              	.L259:
 3851              		.loc 1 722 0 is_stmt 1
 3852 1944 2F21     		movs	r1, #47
 3853 1946 9D48     		ldr	r0, .L456+24
ARM GAS  C:\Users\Moi\AppData\Local\Temp\ccAXdvuJ.s 			page 74


 3854 1948 FFF7FEFF 		bl	e_send_uart1_char
 3855 194c 00BF     		nop
 3856              	.L262:
 3857              		.loc 1 722 0 is_stmt 0 discriminator 2
 3858 194e FFF7FEFF 		bl	e_uart1_sending
 3859 1952 0346     		mov	r3, r0
 3860 1954 002B     		cmp	r3, #0
 3861 1956 FAD1     		bne	.L262
 3862              	.L261:
 3863              		.loc 1 724 0 is_stmt 1
 3864 1958 2521     		movs	r1, #37
 3865 195a 9948     		ldr	r0, .L456+28
 3866 195c FFF7FEFF 		bl	e_send_uart1_char
 3867 1960 00BF     		nop
 3868              	.L263:
 3869              		.loc 1 724 0 is_stmt 0 discriminator 2
 3870 1962 FFF7FEFF 		bl	e_uart1_sending
 3871 1966 0346     		mov	r3, r0
 3872 1968 002B     		cmp	r3, #0
 3873 196a FAD1     		bne	.L263
 3874              		.loc 1 725 0 is_stmt 1
 3875 196c 2E21     		movs	r1, #46
 3876 196e 9548     		ldr	r0, .L456+32
 3877 1970 FFF7FEFF 		bl	e_send_uart1_char
 3878 1974 00BF     		nop
 3879              	.L264:
 3880              		.loc 1 725 0 is_stmt 0 discriminator 2
 3881 1976 FFF7FEFF 		bl	e_uart1_sending
 3882 197a 0346     		mov	r3, r0
 3883 197c 002B     		cmp	r3, #0
 3884 197e FAD1     		bne	.L264
 3885              		.loc 1 726 0 is_stmt 1
 3886 1980 2E21     		movs	r1, #46
 3887 1982 9148     		ldr	r0, .L456+36
 3888 1984 FFF7FEFF 		bl	e_send_uart1_char
 3889 1988 00BF     		nop
 3890              	.L265:
 3891              		.loc 1 726 0 is_stmt 0 discriminator 2
 3892 198a FFF7FEFF 		bl	e_uart1_sending
 3893 198e 0346     		mov	r3, r0
 3894 1990 002B     		cmp	r3, #0
 3895 1992 FAD1     		bne	.L265
 3896              		.loc 1 727 0 is_stmt 1
 3897 1994 3221     		movs	r1, #50
 3898 1996 8D48     		ldr	r0, .L456+40
 3899 1998 FFF7FEFF 		bl	e_send_uart1_char
 3900 199c 00BF     		nop
 3901              	.L266:
 3902              		.loc 1 727 0 is_stmt 0 discriminator 2
 3903 199e FFF7FEFF 		bl	e_uart1_sending
 3904 19a2 0346     		mov	r3, r0
 3905 19a4 002B     		cmp	r3, #0
 3906 19a6 FAD1     		bne	.L266
 3907              		.loc 1 729 0 is_stmt 1
 3908 19a8 1F21     		movs	r1, #31
 3909 19aa 8948     		ldr	r0, .L456+44
 3910 19ac FFF7FEFF 		bl	e_send_uart1_char
ARM GAS  C:\Users\Moi\AppData\Local\Temp\ccAXdvuJ.s 			page 75


 3911 19b0 00BF     		nop
 3912              	.L267:
 3913              		.loc 1 729 0 is_stmt 0 discriminator 2
 3914 19b2 FFF7FEFF 		bl	e_uart1_sending
 3915 19b6 0346     		mov	r3, r0
 3916 19b8 002B     		cmp	r3, #0
 3917 19ba FAD1     		bne	.L267
 3918              		.loc 1 731 0 is_stmt 1
 3919 19bc FFF7FEFF 		bl	isEpuckVersion1_3
 3920 19c0 0346     		mov	r3, r0
 3921 19c2 002B     		cmp	r3, #0
 3922 19c4 09D0     		beq	.L268
 3923              		.loc 1 732 0
 3924 19c6 1821     		movs	r1, #24
 3925 19c8 8248     		ldr	r0, .L456+48
 3926 19ca FFF7FEFF 		bl	e_send_uart1_char
 3927 19ce 00BF     		nop
 3928              	.L269:
 3929              		.loc 1 732 0 is_stmt 0 discriminator 2
 3930 19d0 FFF7FEFF 		bl	e_uart1_sending
 3931 19d4 0346     		mov	r3, r0
 3932 19d6 002B     		cmp	r3, #0
 3933 19d8 FAD1     		bne	.L269
 3934              	.L268:
 3935              		.loc 1 734 0 is_stmt 1
 3936 19da 1821     		movs	r1, #24
 3937 19dc 7E48     		ldr	r0, .L456+52
 3938 19de FFF7FEFF 		bl	e_send_uart1_char
 3939 19e2 00BF     		nop
 3940              	.L270:
 3941              		.loc 1 734 0 is_stmt 0 discriminator 2
 3942 19e4 FFF7FEFF 		bl	e_uart1_sending
 3943 19e8 0346     		mov	r3, r0
 3944 19ea 002B     		cmp	r3, #0
 3945 19ec FAD1     		bne	.L270
 3946              		.loc 1 735 0 is_stmt 1
 3947 19ee 2821     		movs	r1, #40
 3948 19f0 7A48     		ldr	r0, .L456+56
 3949 19f2 FFF7FEFF 		bl	e_send_uart1_char
 3950 19f6 00BF     		nop
 3951              	.L271:
 3952              		.loc 1 735 0 is_stmt 0 discriminator 2
 3953 19f8 FFF7FEFF 		bl	e_uart1_sending
 3954 19fc 0346     		mov	r3, r0
 3955 19fe 002B     		cmp	r3, #0
 3956 1a00 FAD1     		bne	.L271
 3957              		.loc 1 736 0 is_stmt 1
 3958 1a02 4F21     		movs	r1, #79
 3959 1a04 7648     		ldr	r0, .L456+60
 3960 1a06 FFF7FEFF 		bl	e_send_uart1_char
 3961 1a0a 00BF     		nop
 3962              	.L272:
 3963              		.loc 1 736 0 is_stmt 0 discriminator 2
 3964 1a0c FFF7FEFF 		bl	e_uart1_sending
 3965 1a10 0346     		mov	r3, r0
 3966 1a12 002B     		cmp	r3, #0
 3967 1a14 FAD1     		bne	.L272
ARM GAS  C:\Users\Moi\AppData\Local\Temp\ccAXdvuJ.s 			page 76


 3968              		.loc 1 737 0 is_stmt 1
 3969 1a16 2F21     		movs	r1, #47
 3970 1a18 7248     		ldr	r0, .L456+64
 3971 1a1a FFF7FEFF 		bl	e_send_uart1_char
 3972 1a1e 00BF     		nop
 3973              	.L273:
 3974              		.loc 1 737 0 is_stmt 0 discriminator 2
 3975 1a20 FFF7FEFF 		bl	e_uart1_sending
 3976 1a24 0346     		mov	r3, r0
 3977 1a26 002B     		cmp	r3, #0
 3978 1a28 FAD1     		bne	.L273
 3979              		.loc 1 738 0 is_stmt 1
 3980 1a2a 3321     		movs	r1, #51
 3981 1a2c 6E48     		ldr	r0, .L456+68
 3982 1a2e FFF7FEFF 		bl	e_send_uart1_char
 3983 1a32 00BF     		nop
 3984              	.L274:
 3985              		.loc 1 738 0 is_stmt 0 discriminator 2
 3986 1a34 FFF7FEFF 		bl	e_uart1_sending
 3987 1a38 0346     		mov	r3, r0
 3988 1a3a 002B     		cmp	r3, #0
 3989 1a3c FAD1     		bne	.L274
 3990              		.loc 1 740 0 is_stmt 1
 3991 1a3e 2121     		movs	r1, #33
 3992 1a40 6A48     		ldr	r0, .L456+72
 3993 1a42 FFF7FEFF 		bl	e_send_uart1_char
 3994 1a46 00BF     		nop
 3995              	.L275:
 3996              		.loc 1 740 0 is_stmt 0 discriminator 2
 3997 1a48 FFF7FEFF 		bl	e_uart1_sending
 3998 1a4c 0346     		mov	r3, r0
 3999 1a4e 002B     		cmp	r3, #0
 4000 1a50 FAD1     		bne	.L275
 4001              		.loc 1 742 0 is_stmt 1
 4002 1a52 1D21     		movs	r1, #29
 4003 1a54 6648     		ldr	r0, .L456+76
 4004 1a56 FFF7FEFF 		bl	e_send_uart1_char
 4005 1a5a 00BF     		nop
 4006              	.L276:
 4007              		.loc 1 742 0 is_stmt 0 discriminator 2
 4008 1a5c FFF7FEFF 		bl	e_uart1_sending
 4009 1a60 0346     		mov	r3, r0
 4010 1a62 002B     		cmp	r3, #0
 4011 1a64 FAD1     		bne	.L276
 4012              		.loc 1 743 0 is_stmt 1
 4013 1a66 2121     		movs	r1, #33
 4014 1a68 6248     		ldr	r0, .L456+80
 4015 1a6a FFF7FEFF 		bl	e_send_uart1_char
 4016 1a6e 00BF     		nop
 4017              	.L277:
 4018              		.loc 1 743 0 is_stmt 0 discriminator 2
 4019 1a70 FFF7FEFF 		bl	e_uart1_sending
 4020 1a74 0346     		mov	r3, r0
 4021 1a76 002B     		cmp	r3, #0
 4022 1a78 FAD1     		bne	.L277
 4023              		.loc 1 744 0 is_stmt 1
 4024 1a7a 3121     		movs	r1, #49
ARM GAS  C:\Users\Moi\AppData\Local\Temp\ccAXdvuJ.s 			page 77


 4025 1a7c 5E48     		ldr	r0, .L456+84
 4026 1a7e FFF7FEFF 		bl	e_send_uart1_char
 4027 1a82 00BF     		nop
 4028              	.L278:
 4029              		.loc 1 744 0 is_stmt 0 discriminator 2
 4030 1a84 FFF7FEFF 		bl	e_uart1_sending
 4031 1a88 0346     		mov	r3, r0
 4032 1a8a 002B     		cmp	r3, #0
 4033 1a8c FAD1     		bne	.L278
 4034              		.loc 1 745 0 is_stmt 1
 4035 1a8e 3121     		movs	r1, #49
 4036 1a90 5A48     		ldr	r0, .L456+88
 4037 1a92 FFF7FEFF 		bl	e_send_uart1_char
 4038 1a96 00BF     		nop
 4039              	.L279:
 4040              		.loc 1 745 0 is_stmt 0 discriminator 2
 4041 1a98 FFF7FEFF 		bl	e_uart1_sending
 4042 1a9c 0346     		mov	r3, r0
 4043 1a9e 002B     		cmp	r3, #0
 4044 1aa0 FAD1     		bne	.L279
 4045              		.loc 1 746 0 is_stmt 1
 4046 1aa2 2021     		movs	r1, #32
 4047 1aa4 5648     		ldr	r0, .L456+92
 4048 1aa6 FFF7FEFF 		bl	e_send_uart1_char
 4049 1aaa 00BF     		nop
 4050              	.L280:
 4051              		.loc 1 746 0 is_stmt 0 discriminator 2
 4052 1aac FFF7FEFF 		bl	e_uart1_sending
 4053 1ab0 0346     		mov	r3, r0
 4054 1ab2 002B     		cmp	r3, #0
 4055 1ab4 FAD1     		bne	.L280
 4056              		.loc 1 747 0 is_stmt 1
 4057 1ab6 3121     		movs	r1, #49
 4058 1ab8 5248     		ldr	r0, .L456+96
 4059 1aba FFF7FEFF 		bl	e_send_uart1_char
 4060 1abe 00BF     		nop
 4061              	.L281:
 4062              		.loc 1 747 0 is_stmt 0 discriminator 2
 4063 1ac0 FFF7FEFF 		bl	e_uart1_sending
 4064 1ac4 0346     		mov	r3, r0
 4065 1ac6 002B     		cmp	r3, #0
 4066 1ac8 FAD1     		bne	.L281
 4067              		.loc 1 748 0 is_stmt 1
 4068 1aca 3221     		movs	r1, #50
 4069 1acc 4E48     		ldr	r0, .L456+100
 4070 1ace FFF7FEFF 		bl	e_send_uart1_char
 4071 1ad2 00BF     		nop
 4072              	.L282:
 4073              		.loc 1 748 0 is_stmt 0 discriminator 2
 4074 1ad4 FFF7FEFF 		bl	e_uart1_sending
 4075 1ad8 0346     		mov	r3, r0
 4076 1ada 002B     		cmp	r3, #0
 4077 1adc FAD1     		bne	.L282
 4078              		.loc 1 749 0 is_stmt 1
 4079 1ade FFF7FEFF 		bl	isEpuckVersion1_3
 4080 1ae2 0346     		mov	r3, r0
 4081 1ae4 002B     		cmp	r3, #0
ARM GAS  C:\Users\Moi\AppData\Local\Temp\ccAXdvuJ.s 			page 78


 4082 1ae6 09D0     		beq	.L283
 4083              		.loc 1 750 0
 4084 1ae8 1F21     		movs	r1, #31
 4085 1aea 4848     		ldr	r0, .L456+104
 4086 1aec FFF7FEFF 		bl	e_send_uart1_char
 4087 1af0 00BF     		nop
 4088              	.L284:
 4089              		.loc 1 750 0 is_stmt 0 discriminator 2
 4090 1af2 FFF7FEFF 		bl	e_uart1_sending
 4091 1af6 0346     		mov	r3, r0
 4092 1af8 002B     		cmp	r3, #0
 4093 1afa FAD1     		bne	.L284
 4094              	.L283:
 4095              		.loc 1 752 0 is_stmt 1
 4096 1afc 2C21     		movs	r1, #44
 4097 1afe 4448     		ldr	r0, .L456+108
 4098 1b00 FFF7FEFF 		bl	e_send_uart1_char
 4099 1b04 00BF     		nop
 4100              	.L285:
 4101              		.loc 1 752 0 is_stmt 0 discriminator 2
 4102 1b06 FFF7FEFF 		bl	e_uart1_sending
 4103 1b0a 0346     		mov	r3, r0
 4104 1b0c 002B     		cmp	r3, #0
 4105 1b0e FAD1     		bne	.L285
 4106              		.loc 1 753 0 is_stmt 1
 4107 1b10 2521     		movs	r1, #37
 4108 1b12 4048     		ldr	r0, .L456+112
 4109 1b14 FFF7FEFF 		bl	e_send_uart1_char
 4110 1b18 00BF     		nop
 4111              	.L286:
 4112              		.loc 1 753 0 is_stmt 0 discriminator 2
 4113 1b1a FFF7FEFF 		bl	e_uart1_sending
 4114 1b1e 0346     		mov	r3, r0
 4115 1b20 002B     		cmp	r3, #0
 4116 1b22 FAD1     		bne	.L286
 4117              		.loc 1 754 0 is_stmt 1
 4118 1b24 2B21     		movs	r1, #43
 4119 1b26 3C48     		ldr	r0, .L456+116
 4120 1b28 FFF7FEFF 		bl	e_send_uart1_char
 4121 1b2c 00BF     		nop
 4122              	.L287:
 4123              		.loc 1 754 0 is_stmt 0 discriminator 2
 4124 1b2e FFF7FEFF 		bl	e_uart1_sending
 4125 1b32 0346     		mov	r3, r0
 4126 1b34 002B     		cmp	r3, #0
 4127 1b36 FAD1     		bne	.L287
 4128              		.loc 1 755 0 is_stmt 1
 4129 1b38 2A21     		movs	r1, #42
 4130 1b3a 3848     		ldr	r0, .L456+120
 4131 1b3c FFF7FEFF 		bl	e_send_uart1_char
 4132 1b40 00BF     		nop
 4133              	.L288:
 4134              		.loc 1 755 0 is_stmt 0 discriminator 2
 4135 1b42 FFF7FEFF 		bl	e_uart1_sending
 4136 1b46 0346     		mov	r3, r0
 4137 1b48 002B     		cmp	r3, #0
 4138 1b4a FAD1     		bne	.L288
ARM GAS  C:\Users\Moi\AppData\Local\Temp\ccAXdvuJ.s 			page 79


 4139              		.loc 1 794 0 is_stmt 1
 4140 1b4c 00F005BF 		b	.L164
 4141              	.L255:
 4142              		.loc 1 757 0
 4143 1b50 0121     		movs	r1, #1
 4144 1b52 1648     		ldr	r0, .L456+8
 4145 1b54 FFF7FEFF 		bl	e_send_uart2_char
 4146 1b58 00BF     		nop
 4147              	.L290:
 4148              		.loc 1 757 0 is_stmt 0 discriminator 2
 4149 1b5a FFF7FEFF 		bl	e_uart2_sending
 4150 1b5e 0346     		mov	r3, r0
 4151 1b60 002B     		cmp	r3, #0
 4152 1b62 FAD1     		bne	.L290
 4153              		.loc 1 758 0 is_stmt 1
 4154 1b64 FFF7FEFF 		bl	isEpuckVersion1_3
 4155 1b68 0346     		mov	r3, r0
 4156 1b6a 002B     		cmp	r3, #0
 4157 1b6c 09D1     		bne	.L291
 4158              		.loc 1 759 0
 4159 1b6e 1921     		movs	r1, #25
 4160 1b70 2B48     		ldr	r0, .L456+124
 4161 1b72 FFF7FEFF 		bl	e_send_uart2_char
 4162 1b76 00BF     		nop
 4163              	.L292:
 4164              		.loc 1 759 0 is_stmt 0 discriminator 2
 4165 1b78 FFF7FEFF 		bl	e_uart2_sending
 4166 1b7c 0346     		mov	r3, r0
 4167 1b7e 002B     		cmp	r3, #0
 4168 1b80 FAD1     		bne	.L292
 4169              	.L291:
 4170              		.loc 1 761 0 is_stmt 1
 4171 1b82 FFF7FEFF 		bl	isEpuckVersion1_3
 4172 1b86 0346     		mov	r3, r0
 4173 1b88 002B     		cmp	r3, #0
 4174 1b8a 4DD0     		beq	.L293
 4175              		.loc 1 762 0
 4176 1b8c 1921     		movs	r1, #25
 4177 1b8e 2548     		ldr	r0, .L456+128
 4178 1b90 FFF7FEFF 		bl	e_send_uart2_char
 4179 1b94 00BF     		nop
 4180              	.L294:
 4181              		.loc 1 762 0 is_stmt 0 discriminator 2
 4182 1b96 FFF7FEFF 		bl	e_uart2_sending
 4183 1b9a 0346     		mov	r3, r0
 4184 1b9c 002B     		cmp	r3, #0
 4185 1b9e FAD1     		bne	.L294
 4186 1ba0 4CE0     		b	.L295
 4187              	.L457:
 4188 1ba2 00BF     		.align	2
 4189              	.L456:
 4190 1ba4 00000000 		.word	buffer
 4191 1ba8 10010000 		.word	.LC15
 4192 1bac 1C010000 		.word	.LC16
 4193 1bb0 20010000 		.word	.LC17
 4194 1bb4 44010000 		.word	.LC18
 4195 1bb8 78010000 		.word	.LC19
ARM GAS  C:\Users\Moi\AppData\Local\Temp\ccAXdvuJ.s 			page 80


 4196 1bbc 9C010000 		.word	.LC20
 4197 1bc0 CC010000 		.word	.LC21
 4198 1bc4 F4010000 		.word	.LC22
 4199 1bc8 24020000 		.word	.LC23
 4200 1bcc 54020000 		.word	.LC24
 4201 1bd0 88020000 		.word	.LC25
 4202 1bd4 A8020000 		.word	.LC26
 4203 1bd8 C4020000 		.word	.LC27
 4204 1bdc E0020000 		.word	.LC28
 4205 1be0 0C030000 		.word	.LC29
 4206 1be4 5C030000 		.word	.LC30
 4207 1be8 8C030000 		.word	.LC31
 4208 1bec C0030000 		.word	.LC32
 4209 1bf0 E4030000 		.word	.LC33
 4210 1bf4 04040000 		.word	.LC34
 4211 1bf8 28040000 		.word	.LC35
 4212 1bfc 5C040000 		.word	.LC36
 4213 1c00 90040000 		.word	.LC37
 4214 1c04 B4040000 		.word	.LC38
 4215 1c08 E8040000 		.word	.LC39
 4216 1c0c 1C050000 		.word	.LC40
 4217 1c10 3C050000 		.word	.LC41
 4218 1c14 6C050000 		.word	.LC42
 4219 1c18 94050000 		.word	.LC43
 4220 1c1c C0050000 		.word	.LC44
 4221 1c20 EC050000 		.word	.LC45
 4222 1c24 08060000 		.word	.LC46
 4223              	.L293:
 4224              		.loc 1 764 0 is_stmt 1
 4225 1c28 2721     		movs	r1, #39
 4226 1c2a 7C48     		ldr	r0, .L458
 4227 1c2c FFF7FEFF 		bl	e_send_uart2_char
 4228 1c30 00BF     		nop
 4229              	.L296:
 4230              		.loc 1 764 0 is_stmt 0 discriminator 2
 4231 1c32 FFF7FEFF 		bl	e_uart2_sending
 4232 1c36 0346     		mov	r3, r0
 4233 1c38 002B     		cmp	r3, #0
 4234 1c3a FAD1     		bne	.L296
 4235              	.L295:
 4236              		.loc 1 767 0 is_stmt 1
 4237 1c3c 1D21     		movs	r1, #29
 4238 1c3e 7848     		ldr	r0, .L458+4
 4239 1c40 FFF7FEFF 		bl	e_send_uart2_char
 4240 1c44 00BF     		nop
 4241              	.L297:
 4242              		.loc 1 767 0 is_stmt 0 discriminator 2
 4243 1c46 FFF7FEFF 		bl	e_uart2_sending
 4244 1c4a 0346     		mov	r3, r0
 4245 1c4c 002B     		cmp	r3, #0
 4246 1c4e FAD1     		bne	.L297
 4247              		.loc 1 768 0 is_stmt 1
 4248 1c50 2621     		movs	r1, #38
 4249 1c52 7448     		ldr	r0, .L458+8
 4250 1c54 FFF7FEFF 		bl	e_send_uart2_char
 4251 1c58 00BF     		nop
 4252              	.L298:
ARM GAS  C:\Users\Moi\AppData\Local\Temp\ccAXdvuJ.s 			page 81


 4253              		.loc 1 768 0 is_stmt 0 discriminator 2
 4254 1c5a FFF7FEFF 		bl	e_uart2_sending
 4255 1c5e 0346     		mov	r3, r0
 4256 1c60 002B     		cmp	r3, #0
 4257 1c62 FAD1     		bne	.L298
 4258              		.loc 1 769 0 is_stmt 1
 4259 1c64 2621     		movs	r1, #38
 4260 1c66 7048     		ldr	r0, .L458+12
 4261 1c68 FFF7FEFF 		bl	e_send_uart2_char
 4262 1c6c 00BF     		nop
 4263              	.L299:
 4264              		.loc 1 769 0 is_stmt 0 discriminator 2
 4265 1c6e FFF7FEFF 		bl	e_uart2_sending
 4266 1c72 0346     		mov	r3, r0
 4267 1c74 002B     		cmp	r3, #0
 4268 1c76 FAD1     		bne	.L299
 4269              		.loc 1 772 0 is_stmt 1
 4270 1c78 1721     		movs	r1, #23
 4271 1c7a 6C48     		ldr	r0, .L458+16
 4272 1c7c FFF7FEFF 		bl	e_send_uart2_char
 4273 1c80 00BF     		nop
 4274              	.L300:
 4275              		.loc 1 772 0 is_stmt 0 discriminator 2
 4276 1c82 FFF7FEFF 		bl	e_uart2_sending
 4277 1c86 0346     		mov	r3, r0
 4278 1c88 002B     		cmp	r3, #0
 4279 1c8a FAD1     		bne	.L300
 4280              		.loc 1 774 0 is_stmt 1
 4281 1c8c 1021     		movs	r1, #16
 4282 1c8e 6848     		ldr	r0, .L458+20
 4283 1c90 FFF7FEFF 		bl	e_send_uart2_char
 4284 1c94 00BF     		nop
 4285              	.L301:
 4286              		.loc 1 774 0 is_stmt 0 discriminator 2
 4287 1c96 FFF7FEFF 		bl	e_uart2_sending
 4288 1c9a 0346     		mov	r3, r0
 4289 1c9c 002B     		cmp	r3, #0
 4290 1c9e FAD1     		bne	.L301
 4291              		.loc 1 777 0 is_stmt 1
 4292 1ca0 2721     		movs	r1, #39
 4293 1ca2 6448     		ldr	r0, .L458+24
 4294 1ca4 FFF7FEFF 		bl	e_send_uart2_char
 4295 1ca8 00BF     		nop
 4296              	.L302:
 4297              		.loc 1 777 0 is_stmt 0 discriminator 2
 4298 1caa FFF7FEFF 		bl	e_uart2_sending
 4299 1cae 0346     		mov	r3, r0
 4300 1cb0 002B     		cmp	r3, #0
 4301 1cb2 FAD1     		bne	.L302
 4302              		.loc 1 778 0 is_stmt 1
 4303 1cb4 2B21     		movs	r1, #43
 4304 1cb6 6048     		ldr	r0, .L458+28
 4305 1cb8 FFF7FEFF 		bl	e_send_uart2_char
 4306 1cbc 00BF     		nop
 4307              	.L303:
 4308              		.loc 1 778 0 is_stmt 0 discriminator 2
 4309 1cbe FFF7FEFF 		bl	e_uart2_sending
ARM GAS  C:\Users\Moi\AppData\Local\Temp\ccAXdvuJ.s 			page 82


 4310 1cc2 0346     		mov	r3, r0
 4311 1cc4 002B     		cmp	r3, #0
 4312 1cc6 FAD1     		bne	.L303
 4313              		.loc 1 780 0 is_stmt 1
 4314 1cc8 1921     		movs	r1, #25
 4315 1cca 5C48     		ldr	r0, .L458+32
 4316 1ccc FFF7FEFF 		bl	e_send_uart2_char
 4317 1cd0 00BF     		nop
 4318              	.L304:
 4319              		.loc 1 780 0 is_stmt 0 discriminator 2
 4320 1cd2 FFF7FEFF 		bl	e_uart2_sending
 4321 1cd6 0346     		mov	r3, r0
 4322 1cd8 002B     		cmp	r3, #0
 4323 1cda FAD1     		bne	.L304
 4324              		.loc 1 782 0 is_stmt 1
 4325 1cdc 1521     		movs	r1, #21
 4326 1cde 5848     		ldr	r0, .L458+36
 4327 1ce0 FFF7FEFF 		bl	e_send_uart2_char
 4328 1ce4 00BF     		nop
 4329              	.L305:
 4330              		.loc 1 782 0 is_stmt 0 discriminator 2
 4331 1ce6 FFF7FEFF 		bl	e_uart2_sending
 4332 1cea 0346     		mov	r3, r0
 4333 1cec 002B     		cmp	r3, #0
 4334 1cee FAD1     		bne	.L305
 4335              		.loc 1 783 0 is_stmt 1
 4336 1cf0 1921     		movs	r1, #25
 4337 1cf2 5448     		ldr	r0, .L458+40
 4338 1cf4 FFF7FEFF 		bl	e_send_uart2_char
 4339 1cf8 00BF     		nop
 4340              	.L306:
 4341              		.loc 1 783 0 is_stmt 0 discriminator 2
 4342 1cfa FFF7FEFF 		bl	e_uart2_sending
 4343 1cfe 0346     		mov	r3, r0
 4344 1d00 002B     		cmp	r3, #0
 4345 1d02 FAD1     		bne	.L306
 4346              		.loc 1 784 0 is_stmt 1
 4347 1d04 2921     		movs	r1, #41
 4348 1d06 5048     		ldr	r0, .L458+44
 4349 1d08 FFF7FEFF 		bl	e_send_uart2_char
 4350 1d0c 00BF     		nop
 4351              	.L307:
 4352              		.loc 1 784 0 is_stmt 0 discriminator 2
 4353 1d0e FFF7FEFF 		bl	e_uart2_sending
 4354 1d12 0346     		mov	r3, r0
 4355 1d14 002B     		cmp	r3, #0
 4356 1d16 FAD1     		bne	.L307
 4357              		.loc 1 785 0 is_stmt 1
 4358 1d18 2921     		movs	r1, #41
 4359 1d1a 4C48     		ldr	r0, .L458+48
 4360 1d1c FFF7FEFF 		bl	e_send_uart2_char
 4361 1d20 00BF     		nop
 4362              	.L308:
 4363              		.loc 1 785 0 is_stmt 0 discriminator 2
 4364 1d22 FFF7FEFF 		bl	e_uart2_sending
 4365 1d26 0346     		mov	r3, r0
 4366 1d28 002B     		cmp	r3, #0
ARM GAS  C:\Users\Moi\AppData\Local\Temp\ccAXdvuJ.s 			page 83


 4367 1d2a FAD1     		bne	.L308
 4368              		.loc 1 786 0 is_stmt 1
 4369 1d2c 1821     		movs	r1, #24
 4370 1d2e 4848     		ldr	r0, .L458+52
 4371 1d30 FFF7FEFF 		bl	e_send_uart2_char
 4372 1d34 00BF     		nop
 4373              	.L309:
 4374              		.loc 1 786 0 is_stmt 0 discriminator 2
 4375 1d36 FFF7FEFF 		bl	e_uart2_sending
 4376 1d3a 0346     		mov	r3, r0
 4377 1d3c 002B     		cmp	r3, #0
 4378 1d3e FAD1     		bne	.L309
 4379              		.loc 1 787 0 is_stmt 1
 4380 1d40 2921     		movs	r1, #41
 4381 1d42 4448     		ldr	r0, .L458+56
 4382 1d44 FFF7FEFF 		bl	e_send_uart2_char
 4383 1d48 00BF     		nop
 4384              	.L310:
 4385              		.loc 1 787 0 is_stmt 0 discriminator 2
 4386 1d4a FFF7FEFF 		bl	e_uart2_sending
 4387 1d4e 0346     		mov	r3, r0
 4388 1d50 002B     		cmp	r3, #0
 4389 1d52 FAD1     		bne	.L310
 4390              		.loc 1 789 0 is_stmt 1
 4391 1d54 2421     		movs	r1, #36
 4392 1d56 4048     		ldr	r0, .L458+60
 4393 1d58 FFF7FEFF 		bl	e_send_uart2_char
 4394 1d5c 00BF     		nop
 4395              	.L311:
 4396              		.loc 1 789 0 is_stmt 0 discriminator 2
 4397 1d5e FFF7FEFF 		bl	e_uart2_sending
 4398 1d62 0346     		mov	r3, r0
 4399 1d64 002B     		cmp	r3, #0
 4400 1d66 FAD1     		bne	.L311
 4401              		.loc 1 790 0 is_stmt 1
 4402 1d68 1D21     		movs	r1, #29
 4403 1d6a 3C48     		ldr	r0, .L458+64
 4404 1d6c FFF7FEFF 		bl	e_send_uart2_char
 4405 1d70 00BF     		nop
 4406              	.L312:
 4407              		.loc 1 790 0 is_stmt 0 discriminator 2
 4408 1d72 FFF7FEFF 		bl	e_uart2_sending
 4409 1d76 0346     		mov	r3, r0
 4410 1d78 002B     		cmp	r3, #0
 4411 1d7a FAD1     		bne	.L312
 4412              		.loc 1 794 0 is_stmt 1
 4413 1d7c 00F0EDBD 		b	.L164
 4414              	.L194:
 4415              		.loc 1 796 0
 4416 1d80 0D9B     		ldr	r3, [sp, #52]
 4417 1d82 002B     		cmp	r3, #0
 4418 1d84 00F0D985 		beq	.L426
 4419              		.loc 1 797 0
 4420 1d88 354B     		ldr	r3, .L458+68
 4421 1d8a 1868     		ldr	r0, [r3]
 4422 1d8c 354B     		ldr	r3, .L458+72
 4423 1d8e 1C68     		ldr	r4, [r3]
ARM GAS  C:\Users\Moi\AppData\Local\Temp\ccAXdvuJ.s 			page 84


 4424 1d90 354B     		ldr	r3, .L458+76
 4425 1d92 1B68     		ldr	r3, [r3]
 4426 1d94 354A     		ldr	r2, .L458+80
 4427 1d96 1268     		ldr	r2, [r2]
 4428 1d98 3549     		ldr	r1, .L458+84
 4429 1d9a 0968     		ldr	r1, [r1]
 4430 1d9c 0291     		str	r1, [sp, #8]
 4431 1d9e 0192     		str	r2, [sp, #4]
 4432 1da0 0093     		str	r3, [sp]
 4433 1da2 2346     		mov	r3, r4
 4434 1da4 0246     		mov	r2, r0
 4435 1da6 3349     		ldr	r1, .L458+88
 4436 1da8 3348     		ldr	r0, .L458+92
 4437 1daa FFF7FEFF 		bl	sprintf
 4438              		.loc 1 798 0
 4439 1dae 3248     		ldr	r0, .L458+92
 4440 1db0 FFF7FEFF 		bl	strlen
 4441 1db4 0346     		mov	r3, r0
 4442 1db6 1946     		mov	r1, r3
 4443 1db8 2F48     		ldr	r0, .L458+92
 4444 1dba FFF7FEFF 		bl	e_send_uart1_char
 4445 1dbe 00BF     		nop
 4446              	.L314:
 4447              		.loc 1 798 0 is_stmt 0 discriminator 2
 4448 1dc0 FFF7FEFF 		bl	e_uart1_sending
 4449 1dc4 0346     		mov	r3, r0
 4450 1dc6 002B     		cmp	r3, #0
 4451 1dc8 FAD1     		bne	.L314
 4452              		.loc 1 800 0 is_stmt 1
 4453 1dca 00F0B6BD 		b	.L426
 4454              	.L195:
 4455              		.loc 1 802 0
 4456 1dce 0D9B     		ldr	r3, [sp, #52]
 4457 1dd0 002B     		cmp	r3, #0
 4458 1dd2 00F0B585 		beq	.L427
 4459              		.loc 1 803 0
 4460 1dd6 294B     		ldr	r3, .L458+96
 4461 1dd8 4FF0FF32 		mov	r2, #-1
 4462 1ddc 1A60     		str	r2, [r3]
 4463              		.loc 1 804 0
 4464 1dde 284B     		ldr	r3, .L458+100
 4465 1de0 4FF0FF32 		mov	r2, #-1
 4466 1de4 1A60     		str	r2, [r3]
 4467              		.loc 1 805 0
 4468 1de6 264B     		ldr	r3, .L458+100
 4469 1de8 0393     		str	r3, [sp, #12]
 4470 1dea 244B     		ldr	r3, .L458+96
 4471 1dec 0293     		str	r3, [sp, #8]
 4472 1dee 1F4B     		ldr	r3, .L458+80
 4473 1df0 0193     		str	r3, [sp, #4]
 4474 1df2 1D4B     		ldr	r3, .L458+76
 4475 1df4 0093     		str	r3, [sp]
 4476 1df6 1B4B     		ldr	r3, .L458+72
 4477 1df8 194A     		ldr	r2, .L458+68
 4478 1dfa 2249     		ldr	r1, .L458+104
 4479 1dfc 1E48     		ldr	r0, .L458+92
 4480 1dfe FFF7FEFF 		bl	sscanf
ARM GAS  C:\Users\Moi\AppData\Local\Temp\ccAXdvuJ.s 			page 85


 4481              		.loc 1 806 0
 4482 1e02 174B     		ldr	r3, .L458+68
 4483 1e04 1B68     		ldr	r3, [r3]
 4484 1e06 002B     		cmp	r3, #0
 4485 1e08 3ED1     		bne	.L316
 4486              		.loc 1 807 0
 4487 1e0a 164B     		ldr	r3, .L458+72
 4488 1e0c 1B68     		ldr	r3, [r3]
 4489 1e0e 164A     		ldr	r2, .L458+76
 4490 1e10 1268     		ldr	r2, [r2]
 4491 1e12 02FB03F3 		mul	r3, r2, r3
 4492 1e16 164A     		ldr	r2, .L458+84
 4493 1e18 1360     		str	r3, [r2]
 4494 1e1a 3EE0     		b	.L317
 4495              	.L459:
 4496              		.align	2
 4497              	.L458:
 4498 1e1c 24060000 		.word	.LC47
 4499 1e20 4C060000 		.word	.LC48
 4500 1e24 6C060000 		.word	.LC49
 4501 1e28 94060000 		.word	.LC50
 4502 1e2c BC060000 		.word	.LC51
 4503 1e30 D4060000 		.word	.LC52
 4504 1e34 E8060000 		.word	.LC53
 4505 1e38 10070000 		.word	.LC54
 4506 1e3c 3C070000 		.word	.LC55
 4507 1e40 58070000 		.word	.LC56
 4508 1e44 70070000 		.word	.LC57
 4509 1e48 8C070000 		.word	.LC58
 4510 1e4c B8070000 		.word	.LC59
 4511 1e50 E4070000 		.word	.LC60
 4512 1e54 00080000 		.word	.LC61
 4513 1e58 2C080000 		.word	.LC62
 4514 1e5c 54080000 		.word	.LC63
 4515 1e60 00000000 		.word	cam_mode.12679
 4516 1e64 00000000 		.word	cam_width.12680
 4517 1e68 00000000 		.word	cam_heigth.12681
 4518 1e6c 00000000 		.word	cam_zoom.12682
 4519 1e70 00000000 		.word	cam_size.12683
 4520 1e74 74080000 		.word	.LC64
 4521 1e78 00000000 		.word	buffer
 4522 1e7c 00000000 		.word	cam_x1.12684
 4523 1e80 00000000 		.word	cam_y1.12685
 4524 1e84 88080000 		.word	.LC65
 4525              	.L316:
 4526              		.loc 1 809 0
 4527 1e88 A74B     		ldr	r3, .L460
 4528 1e8a 1B68     		ldr	r3, [r3]
 4529 1e8c A74A     		ldr	r2, .L460+4
 4530 1e8e 1268     		ldr	r2, [r2]
 4531 1e90 02FB03F3 		mul	r3, r2, r3
 4532 1e94 5B00     		lsls	r3, r3, #1
 4533 1e96 A64A     		ldr	r2, .L460+8
 4534 1e98 1360     		str	r3, [r2]
 4535              	.L317:
 4536              		.loc 1 810 0
 4537 1e9a A54B     		ldr	r3, .L460+8
ARM GAS  C:\Users\Moi\AppData\Local\Temp\ccAXdvuJ.s 			page 86


 4538 1e9c 1B68     		ldr	r3, [r3]
 4539 1e9e 41F22B02 		movw	r2, #4139
 4540 1ea2 9342     		cmp	r3, r2
 4541 1ea4 11DD     		ble	.L318
 4542              		.loc 1 811 0
 4543 1ea6 A34B     		ldr	r3, .L460+12
 4544 1ea8 0122     		movs	r2, #1
 4545 1eaa 1A60     		str	r2, [r3]
 4546              		.loc 1 812 0
 4547 1eac 9E4B     		ldr	r3, .L460
 4548 1eae 2822     		movs	r2, #40
 4549 1eb0 1A60     		str	r2, [r3]
 4550              		.loc 1 813 0
 4551 1eb2 9E4B     		ldr	r3, .L460+4
 4552 1eb4 2822     		movs	r2, #40
 4553 1eb6 1A60     		str	r2, [r3]
 4554              		.loc 1 814 0
 4555 1eb8 9B4B     		ldr	r3, .L460
 4556 1eba 1B68     		ldr	r3, [r3]
 4557 1ebc 9B4A     		ldr	r2, .L460+4
 4558 1ebe 1268     		ldr	r2, [r2]
 4559 1ec0 02FB03F3 		mul	r3, r2, r3
 4560 1ec4 5B00     		lsls	r3, r3, #1
 4561 1ec6 9A4A     		ldr	r2, .L460+8
 4562 1ec8 1360     		str	r3, [r2]
 4563              	.L318:
 4564              		.loc 1 816 0
 4565 1eca FFF7FEFF 		bl	e_poxxxx_init_cam
 4566              		.loc 1 817 0
 4567 1ece 9A4B     		ldr	r3, .L460+16
 4568 1ed0 1B68     		ldr	r3, [r3]
 4569 1ed2 B3F1FF3F 		cmp	r3, #-1
 4570 1ed6 0DD1     		bne	.L319
 4571              		.loc 1 818 0
 4572 1ed8 934B     		ldr	r3, .L460
 4573 1eda 1B68     		ldr	r3, [r3]
 4574 1edc 974A     		ldr	r2, .L460+20
 4575 1ede 1268     		ldr	r2, [r2]
 4576 1ee0 02FB03F3 		mul	r3, r2, r3
 4577 1ee4 C3F52073 		rsb	r3, r3, #640
 4578 1ee8 DA0F     		lsrs	r2, r3, #31
 4579 1eea 1344     		add	r3, r3, r2
 4580 1eec 5B10     		asrs	r3, r3, #1
 4581 1eee 1A46     		mov	r2, r3
 4582 1ef0 914B     		ldr	r3, .L460+16
 4583 1ef2 1A60     		str	r2, [r3]
 4584              	.L319:
 4585              		.loc 1 820 0
 4586 1ef4 924B     		ldr	r3, .L460+24
 4587 1ef6 1B68     		ldr	r3, [r3]
 4588 1ef8 B3F1FF3F 		cmp	r3, #-1
 4589 1efc 0DD1     		bne	.L320
 4590              		.loc 1 821 0
 4591 1efe 8B4B     		ldr	r3, .L460+4
 4592 1f00 1B68     		ldr	r3, [r3]
 4593 1f02 8E4A     		ldr	r2, .L460+20
 4594 1f04 1268     		ldr	r2, [r2]
ARM GAS  C:\Users\Moi\AppData\Local\Temp\ccAXdvuJ.s 			page 87


 4595 1f06 02FB03F3 		mul	r3, r2, r3
 4596 1f0a C3F5F073 		rsb	r3, r3, #480
 4597 1f0e DA0F     		lsrs	r2, r3, #31
 4598 1f10 1344     		add	r3, r3, r2
 4599 1f12 5B10     		asrs	r3, r3, #1
 4600 1f14 1A46     		mov	r2, r3
 4601 1f16 8A4B     		ldr	r3, .L460+24
 4602 1f18 1A60     		str	r2, [r3]
 4603              	.L320:
 4604              		.loc 1 823 0
 4605 1f1a 874B     		ldr	r3, .L460+16
 4606 1f1c 1B68     		ldr	r3, [r3]
 4607 1f1e 1846     		mov	r0, r3
 4608 1f20 874B     		ldr	r3, .L460+24
 4609 1f22 1B68     		ldr	r3, [r3]
 4610 1f24 1C46     		mov	r4, r3
 4611 1f26 804B     		ldr	r3, .L460
 4612 1f28 1B68     		ldr	r3, [r3]
 4613 1f2a 844A     		ldr	r2, .L460+20
 4614 1f2c 1268     		ldr	r2, [r2]
 4615 1f2e 02FB03F3 		mul	r3, r2, r3
 4616 1f32 1D46     		mov	r5, r3
 4617 1f34 7D4B     		ldr	r3, .L460+4
 4618 1f36 1B68     		ldr	r3, [r3]
 4619 1f38 804A     		ldr	r2, .L460+20
 4620 1f3a 1268     		ldr	r2, [r2]
 4621 1f3c 02FB03F3 		mul	r3, r2, r3
 4622 1f40 1E46     		mov	r6, r3
 4623 1f42 7E4B     		ldr	r3, .L460+20
 4624 1f44 1B68     		ldr	r3, [r3]
 4625 1f46 1A46     		mov	r2, r3
 4626 1f48 7C4B     		ldr	r3, .L460+20
 4627 1f4a 1B68     		ldr	r3, [r3]
 4628 1f4c 1946     		mov	r1, r3
 4629 1f4e 794B     		ldr	r3, .L460+12
 4630 1f50 1B68     		ldr	r3, [r3]
 4631 1f52 0293     		str	r3, [sp, #8]
 4632 1f54 0191     		str	r1, [sp, #4]
 4633 1f56 0092     		str	r2, [sp]
 4634 1f58 3346     		mov	r3, r6
 4635 1f5a 2A46     		mov	r2, r5
 4636 1f5c 2146     		mov	r1, r4
 4637 1f5e FFF7FEFF 		bl	e_poxxxx_config_cam
 4638              		.loc 1 824 0
 4639 1f62 FFF7FEFF 		bl	e_poxxxx_write_cam_registers
 4640              		.loc 1 825 0
 4641 1f66 0321     		movs	r1, #3
 4642 1f68 7648     		ldr	r0, .L460+28
 4643 1f6a FFF7FEFF 		bl	e_send_uart1_char
 4644 1f6e 00BF     		nop
 4645              	.L321:
 4646              		.loc 1 825 0 is_stmt 0 discriminator 2
 4647 1f70 FFF7FEFF 		bl	e_uart1_sending
 4648 1f74 0346     		mov	r3, r0
 4649 1f76 002B     		cmp	r3, #0
 4650 1f78 FAD1     		bne	.L321
 4651              		.loc 1 827 0 is_stmt 1
ARM GAS  C:\Users\Moi\AppData\Local\Temp\ccAXdvuJ.s 			page 88


 4652 1f7a 00F0E1BC 		b	.L427
 4653              	.L196:
 4654              		.loc 1 829 0
 4655 1f7e 0D9B     		ldr	r3, [sp, #52]
 4656 1f80 002B     		cmp	r3, #0
 4657 1f82 0AD0     		beq	.L322
 4658              		.loc 1 830 0
 4659 1f84 3E21     		movs	r1, #62
 4660 1f86 7048     		ldr	r0, .L460+32
 4661 1f88 FFF7FEFF 		bl	e_send_uart1_char
 4662 1f8c 00BF     		nop
 4663              	.L323:
 4664              		.loc 1 830 0 is_stmt 0 discriminator 2
 4665 1f8e FFF7FEFF 		bl	e_uart1_sending
 4666 1f92 0346     		mov	r3, r0
 4667 1f94 002B     		cmp	r3, #0
 4668 1f96 FAD1     		bne	.L323
 4669 1f98 09E0     		b	.L324
 4670              	.L322:
 4671              		.loc 1 832 0 is_stmt 1
 4672 1f9a 3E21     		movs	r1, #62
 4673 1f9c 6A48     		ldr	r0, .L460+32
 4674 1f9e FFF7FEFF 		bl	e_send_uart2_char
 4675 1fa2 00BF     		nop
 4676              	.L325:
 4677              		.loc 1 832 0 is_stmt 0 discriminator 2
 4678 1fa4 FFF7FEFF 		bl	e_uart2_sending
 4679 1fa8 0346     		mov	r3, r0
 4680 1faa 002B     		cmp	r3, #0
 4681 1fac FAD1     		bne	.L325
 4682              	.L324:
 4683              		.loc 1 835 0 is_stmt 1
 4684 1fae 0121     		movs	r1, #1
 4685 1fb0 0820     		movs	r0, #8
 4686 1fb2 FFF7FEFF 		bl	e_set_led
 4687              		.loc 1 836 0
 4688 1fb6 0023     		movs	r3, #0
 4689 1fb8 0E93     		str	r3, [sp, #56]
 4690 1fba 02E0     		b	.L326
 4691              	.L327:
 4692              		.loc 1 836 0 is_stmt 0 discriminator 3
 4693 1fbc 0E9B     		ldr	r3, [sp, #56]
 4694 1fbe 0133     		adds	r3, r3, #1
 4695 1fc0 0E93     		str	r3, [sp, #56]
 4696              	.L326:
 4697              		.loc 1 836 0 discriminator 1
 4698 1fc2 0E9B     		ldr	r3, [sp, #56]
 4699 1fc4 614A     		ldr	r2, .L460+36
 4700 1fc6 9342     		cmp	r3, r2
 4701 1fc8 F8DD     		ble	.L327
 4702              		.loc 1 837 0 is_stmt 1
 4703 1fca 4FF4C870 		mov	r0, #400
 4704 1fce FFF7FEFF 		bl	chThdSleep
 4705              		.loc 1 838 0
 4706 1fd2 FFF7FEFF 		bl	e_led_clear
 4707              		.loc 1 839 0
 4708 1fd6 0023     		movs	r3, #0
ARM GAS  C:\Users\Moi\AppData\Local\Temp\ccAXdvuJ.s 			page 89


 4709 1fd8 0E93     		str	r3, [sp, #56]
 4710 1fda 02E0     		b	.L328
 4711              	.L329:
 4712              		.loc 1 839 0 is_stmt 0 discriminator 3
 4713 1fdc 0E9B     		ldr	r3, [sp, #56]
 4714 1fde 0133     		adds	r3, r3, #1
 4715 1fe0 0E93     		str	r3, [sp, #56]
 4716              	.L328:
 4717              		.loc 1 839 0 discriminator 1
 4718 1fe2 0E9B     		ldr	r3, [sp, #56]
 4719 1fe4 42F20F72 		movw	r2, #9999
 4720 1fe8 9342     		cmp	r3, r2
 4721 1fea F7DD     		ble	.L329
 4722              		.loc 1 840 0 is_stmt 1
 4723 1fec 6420     		movs	r0, #100
 4724 1fee FFF7FEFF 		bl	chThdSleep
 4725              		.loc 1 841 0
 4726 1ff2 FFF7FEFF 		bl	e_calibrate_ir
 4727              		.loc 1 842 0
 4728 1ff6 0D9B     		ldr	r3, [sp, #52]
 4729 1ff8 002B     		cmp	r3, #0
 4730 1ffa 0BD0     		beq	.L330
 4731              		.loc 1 843 0
 4732 1ffc 1921     		movs	r1, #25
 4733 1ffe 5448     		ldr	r0, .L460+40
 4734 2000 FFF7FEFF 		bl	e_send_uart1_char
 4735 2004 00BF     		nop
 4736              	.L331:
 4737              		.loc 1 843 0 is_stmt 0 discriminator 2
 4738 2006 FFF7FEFF 		bl	e_uart1_sending
 4739 200a 0346     		mov	r3, r0
 4740 200c 002B     		cmp	r3, #0
 4741 200e FAD1     		bne	.L331
 4742              		.loc 1 847 0 is_stmt 1
 4743 2010 00F0A3BC 		b	.L164
 4744              	.L330:
 4745              		.loc 1 845 0
 4746 2014 1921     		movs	r1, #25
 4747 2016 4E48     		ldr	r0, .L460+40
 4748 2018 FFF7FEFF 		bl	e_send_uart2_char
 4749 201c 00BF     		nop
 4750              	.L333:
 4751              		.loc 1 845 0 is_stmt 0 discriminator 2
 4752 201e FFF7FEFF 		bl	e_uart2_sending
 4753 2022 0346     		mov	r3, r0
 4754 2024 002B     		cmp	r3, #0
 4755 2026 FAD1     		bne	.L333
 4756              		.loc 1 847 0 is_stmt 1
 4757 2028 00F097BC 		b	.L164
 4758              	.L197:
 4759              		.loc 1 849 0
 4760 202c 494B     		ldr	r3, .L460+44
 4761 202e 4A4A     		ldr	r2, .L460+48
 4762 2030 4A49     		ldr	r1, .L460+52
 4763 2032 4B48     		ldr	r0, .L460+56
 4764 2034 FFF7FEFF 		bl	sscanf
 4765              		.loc 1 850 0
ARM GAS  C:\Users\Moi\AppData\Local\Temp\ccAXdvuJ.s 			page 90


 4766 2038 474B     		ldr	r3, .L460+48
 4767 203a 1B68     		ldr	r3, [r3]
 4768 203c 1A46     		mov	r2, r3
 4769 203e 454B     		ldr	r3, .L460+44
 4770 2040 1B68     		ldr	r3, [r3]
 4771 2042 1946     		mov	r1, r3
 4772 2044 1046     		mov	r0, r2
 4773 2046 FFF7FEFF 		bl	e_set_led
 4774              		.loc 1 851 0
 4775 204a 0D9B     		ldr	r3, [sp, #52]
 4776 204c 002B     		cmp	r3, #0
 4777 204e 0BD0     		beq	.L334
 4778              		.loc 1 852 0
 4779 2050 0321     		movs	r1, #3
 4780 2052 4448     		ldr	r0, .L460+60
 4781 2054 FFF7FEFF 		bl	e_send_uart1_char
 4782 2058 00BF     		nop
 4783              	.L335:
 4784              		.loc 1 852 0 is_stmt 0 discriminator 2
 4785 205a FFF7FEFF 		bl	e_uart1_sending
 4786 205e 0346     		mov	r3, r0
 4787 2060 002B     		cmp	r3, #0
 4788 2062 FAD1     		bne	.L335
 4789              		.loc 1 856 0 is_stmt 1
 4790 2064 00F079BC 		b	.L164
 4791              	.L334:
 4792              		.loc 1 854 0
 4793 2068 0321     		movs	r1, #3
 4794 206a 3E48     		ldr	r0, .L460+60
 4795 206c FFF7FEFF 		bl	e_send_uart2_char
 4796 2070 00BF     		nop
 4797              	.L337:
 4798              		.loc 1 854 0 is_stmt 0 discriminator 2
 4799 2072 FFF7FEFF 		bl	e_uart2_sending
 4800 2076 0346     		mov	r3, r0
 4801 2078 002B     		cmp	r3, #0
 4802 207a FAD1     		bne	.L337
 4803              		.loc 1 856 0 is_stmt 1
 4804 207c 00F06DBC 		b	.L164
 4805              	.L198:
 4806              		.loc 1 859 0
 4807 2080 0D9B     		ldr	r3, [sp, #52]
 4808 2082 002B     		cmp	r3, #0
 4809 2084 00F05F84 		beq	.L428
 4810              		.loc 1 860 0
 4811 2088 FFF7FEFF 		bl	e_i2cp_enable
 4812              		.loc 1 861 0
 4813 208c 364B     		ldr	r3, .L460+64
 4814 208e 0022     		movs	r2, #0
 4815 2090 1A60     		str	r2, [r3]
 4816 2092 29E0     		b	.L339
 4817              	.L342:
 4818              		.loc 1 862 0
 4819 2094 344B     		ldr	r3, .L460+64
 4820 2096 1B68     		ldr	r3, [r3]
 4821 2098 03F00103 		and	r3, r3, #1
 4822 209c 002B     		cmp	r3, #0
ARM GAS  C:\Users\Moi\AppData\Local\Temp\ccAXdvuJ.s 			page 91


 4823 209e 0FD1     		bne	.L340
 4824              		.loc 1 862 0 is_stmt 0 discriminator 1
 4825 20a0 314B     		ldr	r3, .L460+64
 4826 20a2 1B68     		ldr	r3, [r3]
 4827 20a4 DBB2     		uxtb	r3, r3
 4828 20a6 0133     		adds	r3, r3, #1
 4829 20a8 DAB2     		uxtb	r2, r3
 4830 20aa 2F4B     		ldr	r3, .L460+64
 4831 20ac 1C68     		ldr	r4, [r3]
 4832 20ae 1146     		mov	r1, r2
 4833 20b0 C020     		movs	r0, #192
 4834 20b2 FFF7FEFF 		bl	e_i2cp_read
 4835 20b6 0346     		mov	r3, r0
 4836 20b8 1A46     		mov	r2, r3
 4837 20ba 294B     		ldr	r3, .L460+56
 4838 20bc 1A55     		strb	r2, [r3, r4]
 4839 20be 0EE0     		b	.L341
 4840              	.L340:
 4841              		.loc 1 863 0 is_stmt 1
 4842 20c0 294B     		ldr	r3, .L460+64
 4843 20c2 1B68     		ldr	r3, [r3]
 4844 20c4 DBB2     		uxtb	r3, r3
 4845 20c6 013B     		subs	r3, r3, #1
 4846 20c8 DAB2     		uxtb	r2, r3
 4847 20ca 274B     		ldr	r3, .L460+64
 4848 20cc 1C68     		ldr	r4, [r3]
 4849 20ce 1146     		mov	r1, r2
 4850 20d0 C020     		movs	r0, #192
 4851 20d2 FFF7FEFF 		bl	e_i2cp_read
 4852 20d6 0346     		mov	r3, r0
 4853 20d8 1A46     		mov	r2, r3
 4854 20da 214B     		ldr	r3, .L460+56
 4855 20dc 1A55     		strb	r2, [r3, r4]
 4856              	.L341:
 4857              		.loc 1 861 0 discriminator 2
 4858 20de 224B     		ldr	r3, .L460+64
 4859 20e0 1B68     		ldr	r3, [r3]
 4860 20e2 0133     		adds	r3, r3, #1
 4861 20e4 204A     		ldr	r2, .L460+64
 4862 20e6 1360     		str	r3, [r2]
 4863              	.L339:
 4864              		.loc 1 861 0 is_stmt 0 discriminator 1
 4865 20e8 1F4B     		ldr	r3, .L460+64
 4866 20ea 1B68     		ldr	r3, [r3]
 4867 20ec 052B     		cmp	r3, #5
 4868 20ee D1DD     		ble	.L342
 4869              		.loc 1 866 0 is_stmt 1
 4870 20f0 1D4B     		ldr	r3, .L460+64
 4871 20f2 0D22     		movs	r2, #13
 4872 20f4 1A60     		str	r2, [r3]
 4873 20f6 4EE0     		b	.L343
 4874              	.L346:
 4875              		.loc 1 867 0
 4876 20f8 1B4B     		ldr	r3, .L460+64
 4877 20fa 1B68     		ldr	r3, [r3]
 4878 20fc 03F00103 		and	r3, r3, #1
 4879 2100 002B     		cmp	r3, #0
ARM GAS  C:\Users\Moi\AppData\Local\Temp\ccAXdvuJ.s 			page 92


 4880 2102 33D1     		bne	.L344
 4881              		.loc 1 867 0 is_stmt 0 discriminator 1
 4882 2104 184B     		ldr	r3, .L460+64
 4883 2106 1B68     		ldr	r3, [r3]
 4884 2108 DBB2     		uxtb	r3, r3
 4885 210a 013B     		subs	r3, r3, #1
 4886 210c DAB2     		uxtb	r2, r3
 4887 210e 164B     		ldr	r3, .L460+64
 4888 2110 1B68     		ldr	r3, [r3]
 4889 2112 DC1F     		subs	r4, r3, #7
 4890 2114 1146     		mov	r1, r2
 4891 2116 C020     		movs	r0, #192
 4892 2118 FFF7FEFF 		bl	e_i2cp_read
 4893 211c 0346     		mov	r3, r0
 4894 211e 1A46     		mov	r2, r3
 4895 2120 0F4B     		ldr	r3, .L460+56
 4896 2122 1A55     		strb	r2, [r3, r4]
 4897 2124 32E0     		b	.L345
 4898              	.L461:
 4899 2126 00BF     		.align	2
 4900              	.L460:
 4901 2128 00000000 		.word	cam_width.12680
 4902 212c 00000000 		.word	cam_heigth.12681
 4903 2130 00000000 		.word	cam_size.12683
 4904 2134 00000000 		.word	cam_mode.12679
 4905 2138 00000000 		.word	cam_x1.12684
 4906 213c 00000000 		.word	cam_zoom.12682
 4907 2140 00000000 		.word	cam_y1.12685
 4908 2144 A0080000 		.word	.LC66
 4909 2148 A4080000 		.word	.LC67
 4910 214c 3F420F00 		.word	999999
 4911 2150 E4080000 		.word	.LC68
 4912 2154 00000000 		.word	LED_action.12671
 4913 2158 00000000 		.word	LED_nbr.12670
 4914 215c 00090000 		.word	.LC69
 4915 2160 00000000 		.word	buffer
 4916 2164 0C090000 		.word	.LC70
 4917 2168 00000000 		.word	j.12664
 4918              	.L344:
 4919              		.loc 1 868 0 is_stmt 1
 4920 216c B14B     		ldr	r3, .L462
 4921 216e 1B68     		ldr	r3, [r3]
 4922 2170 DBB2     		uxtb	r3, r3
 4923 2172 0133     		adds	r3, r3, #1
 4924 2174 DAB2     		uxtb	r2, r3
 4925 2176 AF4B     		ldr	r3, .L462
 4926 2178 1B68     		ldr	r3, [r3]
 4927 217a DC1F     		subs	r4, r3, #7
 4928 217c 1146     		mov	r1, r2
 4929 217e C020     		movs	r0, #192
 4930 2180 FFF7FEFF 		bl	e_i2cp_read
 4931 2184 0346     		mov	r3, r0
 4932 2186 1A46     		mov	r2, r3
 4933 2188 AB4B     		ldr	r3, .L462+4
 4934 218a 1A55     		strb	r2, [r3, r4]
 4935              	.L345:
 4936              		.loc 1 866 0 discriminator 2
ARM GAS  C:\Users\Moi\AppData\Local\Temp\ccAXdvuJ.s 			page 93


 4937 218c A94B     		ldr	r3, .L462
 4938 218e 1B68     		ldr	r3, [r3]
 4939 2190 0133     		adds	r3, r3, #1
 4940 2192 A84A     		ldr	r2, .L462
 4941 2194 1360     		str	r3, [r2]
 4942              	.L343:
 4943              		.loc 1 866 0 is_stmt 0 discriminator 1
 4944 2196 A74B     		ldr	r3, .L462
 4945 2198 1B68     		ldr	r3, [r3]
 4946 219a 102B     		cmp	r3, #16
 4947 219c ACDD     		ble	.L346
 4948              		.loc 1 871 0 is_stmt 1
 4949 219e FFF7FEFF 		bl	e_i2cp_disable
 4950              		.loc 1 875 0
 4951 21a2 A54B     		ldr	r3, .L462+4
 4952 21a4 1B78     		ldrb	r3, [r3]	@ zero_extendqisi2
 4953 21a6 1A46     		mov	r2, r3
 4954              		.loc 1 876 0
 4955 21a8 A34B     		ldr	r3, .L462+4
 4956 21aa 5B78     		ldrb	r3, [r3, #1]	@ zero_extendqisi2
 4957 21ac 1B02     		lsls	r3, r3, #8
 4958              		.loc 1 874 0
 4959 21ae D018     		adds	r0, r2, r3
 4960              		.loc 1 877 0
 4961 21b0 A14B     		ldr	r3, .L462+4
 4962 21b2 9B78     		ldrb	r3, [r3, #2]	@ zero_extendqisi2
 4963 21b4 1A46     		mov	r2, r3
 4964              		.loc 1 878 0
 4965 21b6 A04B     		ldr	r3, .L462+4
 4966 21b8 DB78     		ldrb	r3, [r3, #3]	@ zero_extendqisi2
 4967 21ba 1B02     		lsls	r3, r3, #8
 4968              		.loc 1 874 0
 4969 21bc D418     		adds	r4, r2, r3
 4970              		.loc 1 879 0
 4971 21be 9E4B     		ldr	r3, .L462+4
 4972 21c0 1B79     		ldrb	r3, [r3, #4]	@ zero_extendqisi2
 4973 21c2 1A46     		mov	r2, r3
 4974              		.loc 1 880 0
 4975 21c4 9C4B     		ldr	r3, .L462+4
 4976 21c6 5B79     		ldrb	r3, [r3, #5]	@ zero_extendqisi2
 4977 21c8 1B02     		lsls	r3, r3, #8
 4978              		.loc 1 874 0
 4979 21ca 1344     		add	r3, r3, r2
 4980              		.loc 1 881 0
 4981 21cc 9A4A     		ldr	r2, .L462+4
 4982 21ce 9279     		ldrb	r2, [r2, #6]	@ zero_extendqisi2
 4983 21d0 1146     		mov	r1, r2
 4984              		.loc 1 882 0
 4985 21d2 994A     		ldr	r2, .L462+4
 4986 21d4 D279     		ldrb	r2, [r2, #7]	@ zero_extendqisi2
 4987 21d6 1202     		lsls	r2, r2, #8
 4988              		.loc 1 874 0
 4989 21d8 0A44     		add	r2, r2, r1
 4990              		.loc 1 883 0
 4991 21da 9749     		ldr	r1, .L462+4
 4992 21dc 097A     		ldrb	r1, [r1, #8]	@ zero_extendqisi2
 4993 21de 0D46     		mov	r5, r1
ARM GAS  C:\Users\Moi\AppData\Local\Temp\ccAXdvuJ.s 			page 94


 4994              		.loc 1 884 0
 4995 21e0 9549     		ldr	r1, .L462+4
 4996 21e2 497A     		ldrb	r1, [r1, #9]	@ zero_extendqisi2
 4997 21e4 0902     		lsls	r1, r1, #8
 4998              		.loc 1 874 0
 4999 21e6 2944     		add	r1, r1, r5
 5000 21e8 0291     		str	r1, [sp, #8]
 5001 21ea 0192     		str	r2, [sp, #4]
 5002 21ec 0093     		str	r3, [sp]
 5003 21ee 2346     		mov	r3, r4
 5004 21f0 0246     		mov	r2, r0
 5005 21f2 9249     		ldr	r1, .L462+8
 5006 21f4 9048     		ldr	r0, .L462+4
 5007 21f6 FFF7FEFF 		bl	sprintf
 5008              		.loc 1 894 0
 5009 21fa 8F48     		ldr	r0, .L462+4
 5010 21fc FFF7FEFF 		bl	strlen
 5011 2200 0346     		mov	r3, r0
 5012 2202 1946     		mov	r1, r3
 5013 2204 8C48     		ldr	r0, .L462+4
 5014 2206 FFF7FEFF 		bl	e_send_uart1_char
 5015 220a 00BF     		nop
 5016              	.L347:
 5017              		.loc 1 894 0 is_stmt 0 discriminator 2
 5018 220c FFF7FEFF 		bl	e_uart1_sending
 5019 2210 0346     		mov	r3, r0
 5020 2212 002B     		cmp	r3, #0
 5021 2214 FAD1     		bne	.L347
 5022              		.loc 1 903 0 is_stmt 1
 5023 2216 96E3     		b	.L428
 5024              	.L199:
 5025              		.loc 1 905 0
 5026 2218 0D9B     		ldr	r3, [sp, #52]
 5027 221a 002B     		cmp	r3, #0
 5028 221c 3BD0     		beq	.L348
 5029              		.loc 1 906 0
 5030 221e 0020     		movs	r0, #0
 5031 2220 FFF7FEFF 		bl	e_get_calibrated_prox
 5032 2224 8046     		mov	r8, r0
 5033 2226 0120     		movs	r0, #1
 5034 2228 FFF7FEFF 		bl	e_get_calibrated_prox
 5035 222c 8146     		mov	r9, r0
 5036 222e 0220     		movs	r0, #2
 5037 2230 FFF7FEFF 		bl	e_get_calibrated_prox
 5038 2234 0446     		mov	r4, r0
 5039 2236 0320     		movs	r0, #3
 5040 2238 FFF7FEFF 		bl	e_get_calibrated_prox
 5041 223c 0546     		mov	r5, r0
 5042 223e 0420     		movs	r0, #4
 5043 2240 FFF7FEFF 		bl	e_get_calibrated_prox
 5044 2244 0646     		mov	r6, r0
 5045 2246 0520     		movs	r0, #5
 5046 2248 FFF7FEFF 		bl	e_get_calibrated_prox
 5047 224c 0746     		mov	r7, r0
 5048 224e 0620     		movs	r0, #6
 5049 2250 FFF7FEFF 		bl	e_get_calibrated_prox
 5050 2254 0990     		str	r0, [sp, #36]
ARM GAS  C:\Users\Moi\AppData\Local\Temp\ccAXdvuJ.s 			page 95


 5051 2256 0720     		movs	r0, #7
 5052 2258 FFF7FEFF 		bl	e_get_calibrated_prox
 5053 225c 0346     		mov	r3, r0
 5054 225e 0593     		str	r3, [sp, #20]
 5055 2260 099B     		ldr	r3, [sp, #36]
 5056 2262 0493     		str	r3, [sp, #16]
 5057 2264 0397     		str	r7, [sp, #12]
 5058 2266 0296     		str	r6, [sp, #8]
 5059 2268 0195     		str	r5, [sp, #4]
 5060 226a 0094     		str	r4, [sp]
 5061 226c 4B46     		mov	r3, r9
 5062 226e 4246     		mov	r2, r8
 5063 2270 7349     		ldr	r1, .L462+12
 5064 2272 7148     		ldr	r0, .L462+4
 5065 2274 FFF7FEFF 		bl	sprintf
 5066              		.loc 1 909 0
 5067 2278 6F48     		ldr	r0, .L462+4
 5068 227a FFF7FEFF 		bl	strlen
 5069 227e 0346     		mov	r3, r0
 5070 2280 1946     		mov	r1, r3
 5071 2282 6D48     		ldr	r0, .L462+4
 5072 2284 FFF7FEFF 		bl	e_send_uart1_char
 5073 2288 00BF     		nop
 5074              	.L349:
 5075              		.loc 1 909 0 is_stmt 0 discriminator 2
 5076 228a FFF7FEFF 		bl	e_uart1_sending
 5077 228e 0346     		mov	r3, r0
 5078 2290 002B     		cmp	r3, #0
 5079 2292 FAD1     		bne	.L349
 5080              		.loc 1 917 0 is_stmt 1
 5081 2294 61E3     		b	.L164
 5082              	.L348:
 5083              		.loc 1 911 0
 5084 2296 0020     		movs	r0, #0
 5085 2298 FFF7FEFF 		bl	e_get_calibrated_prox
 5086 229c 8046     		mov	r8, r0
 5087 229e 0120     		movs	r0, #1
 5088 22a0 FFF7FEFF 		bl	e_get_calibrated_prox
 5089 22a4 8146     		mov	r9, r0
 5090 22a6 0220     		movs	r0, #2
 5091 22a8 FFF7FEFF 		bl	e_get_calibrated_prox
 5092 22ac 0446     		mov	r4, r0
 5093 22ae 0320     		movs	r0, #3
 5094 22b0 FFF7FEFF 		bl	e_get_calibrated_prox
 5095 22b4 0546     		mov	r5, r0
 5096 22b6 0420     		movs	r0, #4
 5097 22b8 FFF7FEFF 		bl	e_get_calibrated_prox
 5098 22bc 0646     		mov	r6, r0
 5099 22be 0520     		movs	r0, #5
 5100 22c0 FFF7FEFF 		bl	e_get_calibrated_prox
 5101 22c4 0746     		mov	r7, r0
 5102 22c6 0620     		movs	r0, #6
 5103 22c8 FFF7FEFF 		bl	e_get_calibrated_prox
 5104 22cc 0990     		str	r0, [sp, #36]
 5105 22ce 0720     		movs	r0, #7
 5106 22d0 FFF7FEFF 		bl	e_get_calibrated_prox
 5107 22d4 0A90     		str	r0, [sp, #40]
ARM GAS  C:\Users\Moi\AppData\Local\Temp\ccAXdvuJ.s 			page 96


 5108 22d6 0820     		movs	r0, #8
 5109 22d8 FFF7FEFF 		bl	e_get_calibrated_prox
 5110 22dc 0B90     		str	r0, [sp, #44]
 5111 22de 0920     		movs	r0, #9
 5112 22e0 FFF7FEFF 		bl	e_get_calibrated_prox
 5113 22e4 0346     		mov	r3, r0
 5114 22e6 0793     		str	r3, [sp, #28]
 5115 22e8 0B9B     		ldr	r3, [sp, #44]
 5116 22ea 0693     		str	r3, [sp, #24]
 5117 22ec 0A9B     		ldr	r3, [sp, #40]
 5118 22ee 0593     		str	r3, [sp, #20]
 5119 22f0 099B     		ldr	r3, [sp, #36]
 5120 22f2 0493     		str	r3, [sp, #16]
 5121 22f4 0397     		str	r7, [sp, #12]
 5122 22f6 0296     		str	r6, [sp, #8]
 5123 22f8 0195     		str	r5, [sp, #4]
 5124 22fa 0094     		str	r4, [sp]
 5125 22fc 4B46     		mov	r3, r9
 5126 22fe 4246     		mov	r2, r8
 5127 2300 5049     		ldr	r1, .L462+16
 5128 2302 4D48     		ldr	r0, .L462+4
 5129 2304 FFF7FEFF 		bl	sprintf
 5130              		.loc 1 915 0
 5131 2308 4B48     		ldr	r0, .L462+4
 5132 230a FFF7FEFF 		bl	strlen
 5133 230e 0346     		mov	r3, r0
 5134 2310 1946     		mov	r1, r3
 5135 2312 4948     		ldr	r0, .L462+4
 5136 2314 FFF7FEFF 		bl	e_send_uart2_char
 5137 2318 00BF     		nop
 5138              	.L351:
 5139              		.loc 1 915 0 is_stmt 0 discriminator 2
 5140 231a FFF7FEFF 		bl	e_uart2_sending
 5141 231e 0346     		mov	r3, r0
 5142 2320 002B     		cmp	r3, #0
 5143 2322 FAD1     		bne	.L351
 5144              		.loc 1 917 0 is_stmt 1
 5145 2324 19E3     		b	.L164
 5146              	.L200:
 5147              		.loc 1 919 0
 5148 2326 0D9B     		ldr	r3, [sp, #52]
 5149 2328 002B     		cmp	r3, #0
 5150 232a 3BD0     		beq	.L352
 5151              		.loc 1 920 0
 5152 232c 0020     		movs	r0, #0
 5153 232e FFF7FEFF 		bl	e_get_ambient_light
 5154 2332 8046     		mov	r8, r0
 5155 2334 0120     		movs	r0, #1
 5156 2336 FFF7FEFF 		bl	e_get_ambient_light
 5157 233a 8146     		mov	r9, r0
 5158 233c 0220     		movs	r0, #2
 5159 233e FFF7FEFF 		bl	e_get_ambient_light
 5160 2342 0446     		mov	r4, r0
 5161 2344 0320     		movs	r0, #3
 5162 2346 FFF7FEFF 		bl	e_get_ambient_light
 5163 234a 0546     		mov	r5, r0
 5164 234c 0420     		movs	r0, #4
ARM GAS  C:\Users\Moi\AppData\Local\Temp\ccAXdvuJ.s 			page 97


 5165 234e FFF7FEFF 		bl	e_get_ambient_light
 5166 2352 0646     		mov	r6, r0
 5167 2354 0520     		movs	r0, #5
 5168 2356 FFF7FEFF 		bl	e_get_ambient_light
 5169 235a 0746     		mov	r7, r0
 5170 235c 0620     		movs	r0, #6
 5171 235e FFF7FEFF 		bl	e_get_ambient_light
 5172 2362 0990     		str	r0, [sp, #36]
 5173 2364 0720     		movs	r0, #7
 5174 2366 FFF7FEFF 		bl	e_get_ambient_light
 5175 236a 0346     		mov	r3, r0
 5176 236c 0593     		str	r3, [sp, #20]
 5177 236e 099B     		ldr	r3, [sp, #36]
 5178 2370 0493     		str	r3, [sp, #16]
 5179 2372 0397     		str	r7, [sp, #12]
 5180 2374 0296     		str	r6, [sp, #8]
 5181 2376 0195     		str	r5, [sp, #4]
 5182 2378 0094     		str	r4, [sp]
 5183 237a 4B46     		mov	r3, r9
 5184 237c 4246     		mov	r2, r8
 5185 237e 3249     		ldr	r1, .L462+20
 5186 2380 2D48     		ldr	r0, .L462+4
 5187 2382 FFF7FEFF 		bl	sprintf
 5188              		.loc 1 923 0
 5189 2386 2C48     		ldr	r0, .L462+4
 5190 2388 FFF7FEFF 		bl	strlen
 5191 238c 0346     		mov	r3, r0
 5192 238e 1946     		mov	r1, r3
 5193 2390 2948     		ldr	r0, .L462+4
 5194 2392 FFF7FEFF 		bl	e_send_uart1_char
 5195 2396 00BF     		nop
 5196              	.L353:
 5197              		.loc 1 923 0 is_stmt 0 discriminator 2
 5198 2398 FFF7FEFF 		bl	e_uart1_sending
 5199 239c 0346     		mov	r3, r0
 5200 239e 002B     		cmp	r3, #0
 5201 23a0 FAD1     		bne	.L353
 5202              		.loc 1 931 0 is_stmt 1
 5203 23a2 DAE2     		b	.L164
 5204              	.L352:
 5205              		.loc 1 925 0
 5206 23a4 0020     		movs	r0, #0
 5207 23a6 FFF7FEFF 		bl	e_get_ambient_light
 5208 23aa 8046     		mov	r8, r0
 5209 23ac 0120     		movs	r0, #1
 5210 23ae FFF7FEFF 		bl	e_get_ambient_light
 5211 23b2 8146     		mov	r9, r0
 5212 23b4 0220     		movs	r0, #2
 5213 23b6 FFF7FEFF 		bl	e_get_ambient_light
 5214 23ba 0446     		mov	r4, r0
 5215 23bc 0320     		movs	r0, #3
 5216 23be FFF7FEFF 		bl	e_get_ambient_light
 5217 23c2 0546     		mov	r5, r0
 5218 23c4 0420     		movs	r0, #4
 5219 23c6 FFF7FEFF 		bl	e_get_ambient_light
 5220 23ca 0646     		mov	r6, r0
 5221 23cc 0520     		movs	r0, #5
ARM GAS  C:\Users\Moi\AppData\Local\Temp\ccAXdvuJ.s 			page 98


 5222 23ce FFF7FEFF 		bl	e_get_ambient_light
 5223 23d2 0746     		mov	r7, r0
 5224 23d4 0620     		movs	r0, #6
 5225 23d6 FFF7FEFF 		bl	e_get_ambient_light
 5226 23da 0990     		str	r0, [sp, #36]
 5227 23dc 0720     		movs	r0, #7
 5228 23de FFF7FEFF 		bl	e_get_ambient_light
 5229 23e2 0A90     		str	r0, [sp, #40]
 5230 23e4 0820     		movs	r0, #8
 5231 23e6 FFF7FEFF 		bl	e_get_ambient_light
 5232 23ea 0B90     		str	r0, [sp, #44]
 5233 23ec 0920     		movs	r0, #9
 5234 23ee FFF7FEFF 		bl	e_get_ambient_light
 5235 23f2 0346     		mov	r3, r0
 5236 23f4 0793     		str	r3, [sp, #28]
 5237 23f6 0B9B     		ldr	r3, [sp, #44]
 5238 23f8 0693     		str	r3, [sp, #24]
 5239 23fa 0A9B     		ldr	r3, [sp, #40]
 5240 23fc 0593     		str	r3, [sp, #20]
 5241 23fe 099B     		ldr	r3, [sp, #36]
 5242 2400 0493     		str	r3, [sp, #16]
 5243 2402 0397     		str	r7, [sp, #12]
 5244 2404 0296     		str	r6, [sp, #8]
 5245 2406 0195     		str	r5, [sp, #4]
 5246 2408 0094     		str	r4, [sp]
 5247 240a 4B46     		mov	r3, r9
 5248 240c 4246     		mov	r2, r8
 5249 240e 0F49     		ldr	r1, .L462+24
 5250 2410 0948     		ldr	r0, .L462+4
 5251 2412 FFF7FEFF 		bl	sprintf
 5252              		.loc 1 929 0
 5253 2416 0848     		ldr	r0, .L462+4
 5254 2418 FFF7FEFF 		bl	strlen
 5255 241c 0346     		mov	r3, r0
 5256 241e 1946     		mov	r1, r3
 5257 2420 0548     		ldr	r0, .L462+4
 5258 2422 FFF7FEFF 		bl	e_send_uart2_char
 5259 2426 00BF     		nop
 5260              	.L355:
 5261              		.loc 1 929 0 is_stmt 0 discriminator 2
 5262 2428 FFF7FEFF 		bl	e_uart2_sending
 5263 242c 0346     		mov	r3, r0
 5264 242e 002B     		cmp	r3, #0
 5265 2430 FAD1     		bne	.L355
 5266              		.loc 1 931 0 is_stmt 1
 5267 2432 92E2     		b	.L164
 5268              	.L463:
 5269              		.align	2
 5270              	.L462:
 5271 2434 00000000 		.word	j.12664
 5272 2438 00000000 		.word	buffer
 5273 243c 10090000 		.word	.LC71
 5274 2440 24090000 		.word	.LC72
 5275 2444 40090000 		.word	.LC73
 5276 2448 64090000 		.word	.LC74
 5277 244c 80090000 		.word	.LC75
 5278              	.L201:
ARM GAS  C:\Users\Moi\AppData\Local\Temp\ccAXdvuJ.s 			page 99


 5279              		.loc 1 933 0
 5280 2450 C34B     		ldr	r3, .L464
 5281 2452 C44A     		ldr	r2, .L464+4
 5282 2454 C449     		ldr	r1, .L464+8
 5283 2456 C548     		ldr	r0, .L464+12
 5284 2458 FFF7FEFF 		bl	sscanf
 5285              		.loc 1 934 0
 5286 245c C14B     		ldr	r3, .L464+4
 5287 245e 1B68     		ldr	r3, [r3]
 5288 2460 1846     		mov	r0, r3
 5289 2462 FFF7FEFF 		bl	e_set_steps_left
 5290              		.loc 1 935 0
 5291 2466 BE4B     		ldr	r3, .L464
 5292 2468 1B68     		ldr	r3, [r3]
 5293 246a 1846     		mov	r0, r3
 5294 246c FFF7FEFF 		bl	e_set_steps_right
 5295              		.loc 1 936 0
 5296 2470 0D9B     		ldr	r3, [sp, #52]
 5297 2472 002B     		cmp	r3, #0
 5298 2474 0AD0     		beq	.L356
 5299              		.loc 1 937 0
 5300 2476 0321     		movs	r1, #3
 5301 2478 BD48     		ldr	r0, .L464+16
 5302 247a FFF7FEFF 		bl	e_send_uart1_char
 5303 247e 00BF     		nop
 5304              	.L357:
 5305              		.loc 1 937 0 is_stmt 0 discriminator 2
 5306 2480 FFF7FEFF 		bl	e_uart1_sending
 5307 2484 0346     		mov	r3, r0
 5308 2486 002B     		cmp	r3, #0
 5309 2488 FAD1     		bne	.L357
 5310              		.loc 1 941 0 is_stmt 1
 5311 248a 66E2     		b	.L164
 5312              	.L356:
 5313              		.loc 1 939 0
 5314 248c 0321     		movs	r1, #3
 5315 248e B848     		ldr	r0, .L464+16
 5316 2490 FFF7FEFF 		bl	e_send_uart2_char
 5317 2494 00BF     		nop
 5318              	.L359:
 5319              		.loc 1 939 0 is_stmt 0 discriminator 2
 5320 2496 FFF7FEFF 		bl	e_uart2_sending
 5321 249a 0346     		mov	r3, r0
 5322 249c 002B     		cmp	r3, #0
 5323 249e FAD1     		bne	.L359
 5324              		.loc 1 941 0 is_stmt 1
 5325 24a0 5BE2     		b	.L164
 5326              	.L202:
 5327              		.loc 1 943 0
 5328 24a2 FFF7FEFF 		bl	e_get_steps_left
 5329 24a6 0446     		mov	r4, r0
 5330 24a8 FFF7FEFF 		bl	e_get_steps_right
 5331 24ac 0346     		mov	r3, r0
 5332 24ae 2246     		mov	r2, r4
 5333 24b0 B049     		ldr	r1, .L464+20
 5334 24b2 AE48     		ldr	r0, .L464+12
 5335 24b4 FFF7FEFF 		bl	sprintf
ARM GAS  C:\Users\Moi\AppData\Local\Temp\ccAXdvuJ.s 			page 100


 5336              		.loc 1 944 0
 5337 24b8 0D9B     		ldr	r3, [sp, #52]
 5338 24ba 002B     		cmp	r3, #0
 5339 24bc 0ED0     		beq	.L360
 5340              		.loc 1 945 0
 5341 24be AB48     		ldr	r0, .L464+12
 5342 24c0 FFF7FEFF 		bl	strlen
 5343 24c4 0346     		mov	r3, r0
 5344 24c6 1946     		mov	r1, r3
 5345 24c8 A848     		ldr	r0, .L464+12
 5346 24ca FFF7FEFF 		bl	e_send_uart1_char
 5347 24ce 00BF     		nop
 5348              	.L361:
 5349              		.loc 1 945 0 is_stmt 0 discriminator 2
 5350 24d0 FFF7FEFF 		bl	e_uart1_sending
 5351 24d4 0346     		mov	r3, r0
 5352 24d6 002B     		cmp	r3, #0
 5353 24d8 FAD1     		bne	.L361
 5354              		.loc 1 949 0 is_stmt 1
 5355 24da 3EE2     		b	.L164
 5356              	.L360:
 5357              		.loc 1 947 0
 5358 24dc A348     		ldr	r0, .L464+12
 5359 24de FFF7FEFF 		bl	strlen
 5360 24e2 0346     		mov	r3, r0
 5361 24e4 1946     		mov	r1, r3
 5362 24e6 A148     		ldr	r0, .L464+12
 5363 24e8 FFF7FEFF 		bl	e_send_uart2_char
 5364 24ec 00BF     		nop
 5365              	.L363:
 5366              		.loc 1 947 0 is_stmt 0 discriminator 2
 5367 24ee FFF7FEFF 		bl	e_uart2_sending
 5368 24f2 0346     		mov	r3, r0
 5369 24f4 002B     		cmp	r3, #0
 5370 24f6 FAD1     		bne	.L363
 5371              		.loc 1 949 0 is_stmt 1
 5372 24f8 2FE2     		b	.L164
 5373              	.L204:
 5374              		.loc 1 959 0
 5375 24fa 0020     		movs	r0, #0
 5376 24fc FFF7FEFF 		bl	e_set_speed_left
 5377              		.loc 1 960 0
 5378 2500 0020     		movs	r0, #0
 5379 2502 FFF7FEFF 		bl	e_set_speed_right
 5380              		.loc 1 961 0
 5381 2506 0021     		movs	r1, #0
 5382 2508 0820     		movs	r0, #8
 5383 250a FFF7FEFF 		bl	e_set_led
 5384              		.loc 1 962 0
 5385 250e 0D9B     		ldr	r3, [sp, #52]
 5386 2510 002B     		cmp	r3, #0
 5387 2512 0AD0     		beq	.L364
 5388              		.loc 1 963 0
 5389 2514 0321     		movs	r1, #3
 5390 2516 9848     		ldr	r0, .L464+24
 5391 2518 FFF7FEFF 		bl	e_send_uart1_char
 5392 251c 00BF     		nop
ARM GAS  C:\Users\Moi\AppData\Local\Temp\ccAXdvuJ.s 			page 101


 5393              	.L365:
 5394              		.loc 1 963 0 is_stmt 0 discriminator 2
 5395 251e FFF7FEFF 		bl	e_uart1_sending
 5396 2522 0346     		mov	r3, r0
 5397 2524 002B     		cmp	r3, #0
 5398 2526 FAD1     		bne	.L365
 5399              		.loc 1 967 0 is_stmt 1
 5400 2528 17E2     		b	.L164
 5401              	.L364:
 5402              		.loc 1 965 0
 5403 252a 0321     		movs	r1, #3
 5404 252c 9248     		ldr	r0, .L464+24
 5405 252e FFF7FEFF 		bl	e_send_uart2_char
 5406 2532 00BF     		nop
 5407              	.L367:
 5408              		.loc 1 965 0 is_stmt 0 discriminator 2
 5409 2534 FFF7FEFF 		bl	e_uart2_sending
 5410 2538 0346     		mov	r3, r0
 5411 253a 002B     		cmp	r3, #0
 5412 253c FAD1     		bne	.L367
 5413              		.loc 1 967 0 is_stmt 1
 5414 253e 0CE2     		b	.L164
 5415              	.L205:
 5416              		.loc 1 969 0
 5417 2540 0D9B     		ldr	r3, [sp, #52]
 5418 2542 002B     		cmp	r3, #0
 5419 2544 53D0     		beq	.L368
 5420              		.loc 1 970 0
 5421 2546 8D4A     		ldr	r2, .L464+28
 5422 2548 8D49     		ldr	r1, .L464+32
 5423 254a 8848     		ldr	r0, .L464+12
 5424 254c FFF7FEFF 		bl	sscanf
 5425              		.loc 1 971 0
 5426 2550 8C4B     		ldr	r3, .L464+36
 5427 2552 1B78     		ldrb	r3, [r3]	@ zero_extendqisi2
 5428 2554 002B     		cmp	r3, #0
 5429 2556 04D1     		bne	.L369
 5430              		.loc 1 972 0
 5431 2558 FFF7FEFF 		bl	e_init_sound
 5432              		.loc 1 973 0
 5433 255c 894B     		ldr	r3, .L464+36
 5434 255e 0122     		movs	r2, #1
 5435 2560 1A70     		strb	r2, [r3]
 5436              	.L369:
 5437              		.loc 1 975 0
 5438 2562 864B     		ldr	r3, .L464+28
 5439 2564 1B68     		ldr	r3, [r3]
 5440 2566 013B     		subs	r3, r3, #1
 5441 2568 042B     		cmp	r3, #4
 5442 256a 2DD8     		bhi	.L370
 5443 256c 01A2     		adr	r2, .L372
 5444 256e 52F823F0 		ldr	pc, [r2, r3, lsl #2]
 5445 2572 00BF     		.p2align 2
 5446              	.L372:
 5447 2574 89250000 		.word	.L371+1
 5448 2578 95250000 		.word	.L373+1
 5449 257c A1250000 		.word	.L374+1
ARM GAS  C:\Users\Moi\AppData\Local\Temp\ccAXdvuJ.s 			page 102


 5450 2580 AD250000 		.word	.L375+1
 5451 2584 BB250000 		.word	.L376+1
 5452              		.p2align 1
 5453              	.L371:
 5454              		.loc 1 976 0
 5455 2588 0022     		movs	r2, #0
 5456 258a 0221     		movs	r1, #2
 5457 258c 0320     		movs	r0, #3
 5458 258e FFF7FEFF 		bl	playMelody
 5459              		.loc 1 977 0
 5460 2592 21E0     		b	.L377
 5461              	.L373:
 5462              		.loc 1 978 0
 5463 2594 0022     		movs	r2, #0
 5464 2596 0221     		movs	r1, #2
 5465 2598 0420     		movs	r0, #4
 5466 259a FFF7FEFF 		bl	playMelody
 5467              		.loc 1 979 0
 5468 259e 1BE0     		b	.L377
 5469              	.L374:
 5470              		.loc 1 980 0
 5471 25a0 0022     		movs	r2, #0
 5472 25a2 0221     		movs	r1, #2
 5473 25a4 0B20     		movs	r0, #11
 5474 25a6 FFF7FEFF 		bl	playMelody
 5475              		.loc 1 981 0
 5476 25aa 15E0     		b	.L377
 5477              	.L375:
 5478              		.loc 1 982 0
 5479 25ac 40F69461 		movw	r1, #3732
 5480 25b0 41F67E40 		movw	r0, #7294
 5481 25b4 FFF7FEFF 		bl	e_play_sound
 5482              		.loc 1 983 0
 5483 25b8 0EE0     		b	.L377
 5484              	.L376:
 5485              		.loc 1 984 0
 5486 25ba 41F65071 		movw	r1, #8016
 5487 25be 42F61430 		movw	r0, #11028
 5488 25c2 FFF7FEFF 		bl	e_play_sound
 5489              		.loc 1 985 0
 5490 25c6 07E0     		b	.L377
 5491              	.L370:
 5492              		.loc 1 987 0
 5493 25c8 FFF7FEFF 		bl	e_close_sound
 5494              		.loc 1 988 0
 5495 25cc FFF7FEFF 		bl	stopCurrentMelody
 5496              		.loc 1 989 0
 5497 25d0 6C4B     		ldr	r3, .L464+36
 5498 25d2 0022     		movs	r2, #0
 5499 25d4 1A70     		strb	r2, [r3]
 5500              		.loc 1 990 0
 5501 25d6 00BF     		nop
 5502              	.L377:
 5503              		.loc 1 992 0
 5504 25d8 0321     		movs	r1, #3
 5505 25da 6B48     		ldr	r0, .L464+40
 5506 25dc FFF7FEFF 		bl	e_send_uart1_char
ARM GAS  C:\Users\Moi\AppData\Local\Temp\ccAXdvuJ.s 			page 103


 5507 25e0 00BF     		nop
 5508              	.L378:
 5509              		.loc 1 992 0 is_stmt 0 discriminator 2
 5510 25e2 FFF7FEFF 		bl	e_uart1_sending
 5511 25e6 0346     		mov	r3, r0
 5512 25e8 002B     		cmp	r3, #0
 5513 25ea FAD1     		bne	.L378
 5514              		.loc 1 996 0 is_stmt 1
 5515 25ec B5E1     		b	.L164
 5516              	.L368:
 5517              		.loc 1 994 0
 5518 25ee 0321     		movs	r1, #3
 5519 25f0 6548     		ldr	r0, .L464+40
 5520 25f2 FFF7FEFF 		bl	e_send_uart2_char
 5521 25f6 00BF     		nop
 5522              	.L380:
 5523              		.loc 1 994 0 is_stmt 0 discriminator 2
 5524 25f8 FFF7FEFF 		bl	e_uart2_sending
 5525 25fc 0346     		mov	r3, r0
 5526 25fe 002B     		cmp	r3, #0
 5527 2600 FAD1     		bne	.L380
 5528              		.loc 1 996 0 is_stmt 1
 5529 2602 AAE1     		b	.L164
 5530              	.L213:
 5531              		.loc 1 999 0
 5532 2604 0D9B     		ldr	r3, [sp, #52]
 5533 2606 002B     		cmp	r3, #0
 5534 2608 0DD0     		beq	.L381
 5535              		.loc 1 999 0 is_stmt 0 discriminator 1
 5536 260a FFF7FEFF 		bl	isEpuckVersion1_3
 5537 260e 0346     		mov	r3, r0
 5538 2610 002B     		cmp	r3, #0
 5539 2612 08D0     		beq	.L381
 5540              		.loc 1 1000 0 is_stmt 1
 5541 2614 FFF7FEFF 		bl	getTemperature
 5542 2618 0346     		mov	r3, r0
 5543 261a 1A46     		mov	r2, r3
 5544 261c 5B49     		ldr	r1, .L464+44
 5545 261e 5348     		ldr	r0, .L464+12
 5546 2620 FFF7FEFF 		bl	sprintf
 5547 2624 06E0     		b	.L382
 5548              	.L381:
 5549              		.loc 1 1002 0
 5550 2626 514B     		ldr	r3, .L464+12
 5551 2628 594A     		ldr	r2, .L464+48
 5552 262a 92E80300 		ldm	r2, {r0, r1}
 5553 262e 1860     		str	r0, [r3]
 5554 2630 0433     		adds	r3, r3, #4
 5555 2632 1980     		strh	r1, [r3]	@ movhi
 5556              	.L382:
 5557              		.loc 1 1004 0
 5558 2634 0D9B     		ldr	r3, [sp, #52]
 5559 2636 002B     		cmp	r3, #0
 5560 2638 0ED0     		beq	.L383
 5561              		.loc 1 1005 0
 5562 263a 4C48     		ldr	r0, .L464+12
 5563 263c FFF7FEFF 		bl	strlen
ARM GAS  C:\Users\Moi\AppData\Local\Temp\ccAXdvuJ.s 			page 104


 5564 2640 0346     		mov	r3, r0
 5565 2642 1946     		mov	r1, r3
 5566 2644 4948     		ldr	r0, .L464+12
 5567 2646 FFF7FEFF 		bl	e_send_uart1_char
 5568 264a 00BF     		nop
 5569              	.L384:
 5570              		.loc 1 1005 0 is_stmt 0 discriminator 2
 5571 264c FFF7FEFF 		bl	e_uart1_sending
 5572 2650 0346     		mov	r3, r0
 5573 2652 002B     		cmp	r3, #0
 5574 2654 FAD1     		bne	.L384
 5575              		.loc 1 1009 0 is_stmt 1
 5576 2656 80E1     		b	.L164
 5577              	.L383:
 5578              		.loc 1 1007 0
 5579 2658 4448     		ldr	r0, .L464+12
 5580 265a FFF7FEFF 		bl	strlen
 5581 265e 0346     		mov	r3, r0
 5582 2660 1946     		mov	r1, r3
 5583 2662 4248     		ldr	r0, .L464+12
 5584 2664 FFF7FEFF 		bl	e_send_uart2_char
 5585 2668 00BF     		nop
 5586              	.L386:
 5587              		.loc 1 1007 0 is_stmt 0 discriminator 2
 5588 266a FFF7FEFF 		bl	e_uart2_sending
 5589 266e 0346     		mov	r3, r0
 5590 2670 002B     		cmp	r3, #0
 5591 2672 FAD1     		bne	.L386
 5592              		.loc 1 1009 0 is_stmt 1
 5593 2674 71E1     		b	.L164
 5594              	.L206:
 5595              		.loc 1 1012 0
 5596 2676 0020     		movs	r0, #0
 5597 2678 FFF7FEFF 		bl	e_get_micro_volume
 5598 267c 0446     		mov	r4, r0
 5599 267e 0120     		movs	r0, #1
 5600 2680 FFF7FEFF 		bl	e_get_micro_volume
 5601 2684 0546     		mov	r5, r0
 5602 2686 0220     		movs	r0, #2
 5603 2688 FFF7FEFF 		bl	e_get_micro_volume
 5604 268c 0346     		mov	r3, r0
 5605 268e 0093     		str	r3, [sp]
 5606 2690 2B46     		mov	r3, r5
 5607 2692 2246     		mov	r2, r4
 5608 2694 3F49     		ldr	r1, .L464+52
 5609 2696 3548     		ldr	r0, .L464+12
 5610 2698 FFF7FEFF 		bl	sprintf
 5611              		.loc 1 1013 0
 5612 269c 0D9B     		ldr	r3, [sp, #52]
 5613 269e 002B     		cmp	r3, #0
 5614 26a0 0ED0     		beq	.L387
 5615              		.loc 1 1014 0
 5616 26a2 3248     		ldr	r0, .L464+12
 5617 26a4 FFF7FEFF 		bl	strlen
 5618 26a8 0346     		mov	r3, r0
 5619 26aa 1946     		mov	r1, r3
 5620 26ac 2F48     		ldr	r0, .L464+12
ARM GAS  C:\Users\Moi\AppData\Local\Temp\ccAXdvuJ.s 			page 105


 5621 26ae FFF7FEFF 		bl	e_send_uart1_char
 5622 26b2 00BF     		nop
 5623              	.L388:
 5624              		.loc 1 1014 0 is_stmt 0 discriminator 2
 5625 26b4 FFF7FEFF 		bl	e_uart1_sending
 5626 26b8 0346     		mov	r3, r0
 5627 26ba 002B     		cmp	r3, #0
 5628 26bc FAD1     		bne	.L388
 5629              		.loc 1 1018 0 is_stmt 1
 5630 26be 4CE1     		b	.L164
 5631              	.L387:
 5632              		.loc 1 1016 0
 5633 26c0 2A48     		ldr	r0, .L464+12
 5634 26c2 FFF7FEFF 		bl	strlen
 5635 26c6 0346     		mov	r3, r0
 5636 26c8 1946     		mov	r1, r3
 5637 26ca 2848     		ldr	r0, .L464+12
 5638 26cc FFF7FEFF 		bl	e_send_uart2_char
 5639 26d0 00BF     		nop
 5640              	.L390:
 5641              		.loc 1 1016 0 is_stmt 0 discriminator 2
 5642 26d2 FFF7FEFF 		bl	e_uart2_sending
 5643 26d6 0346     		mov	r3, r0
 5644 26d8 002B     		cmp	r3, #0
 5645 26da FAD1     		bne	.L390
 5646              		.loc 1 1018 0 is_stmt 1
 5647 26dc 3DE1     		b	.L164
 5648              	.L207:
 5649              		.loc 1 1020 0
 5650 26de 0D9B     		ldr	r3, [sp, #52]
 5651 26e0 002B     		cmp	r3, #0
 5652 26e2 0AD0     		beq	.L391
 5653              		.loc 1 1021 0
 5654 26e4 2621     		movs	r1, #38
 5655 26e6 2C48     		ldr	r0, .L464+56
 5656 26e8 FFF7FEFF 		bl	e_send_uart1_char
 5657 26ec 00BF     		nop
 5658              	.L392:
 5659              		.loc 1 1021 0 is_stmt 0 discriminator 2
 5660 26ee FFF7FEFF 		bl	e_uart1_sending
 5661 26f2 0346     		mov	r3, r0
 5662 26f4 002B     		cmp	r3, #0
 5663 26f6 FAD1     		bne	.L392
 5664 26f8 09E0     		b	.L393
 5665              	.L391:
 5666              		.loc 1 1023 0 is_stmt 1
 5667 26fa 2621     		movs	r1, #38
 5668 26fc 2648     		ldr	r0, .L464+56
 5669 26fe FFF7FEFF 		bl	e_send_uart2_char
 5670 2702 00BF     		nop
 5671              	.L394:
 5672              		.loc 1 1023 0 is_stmt 0 discriminator 2
 5673 2704 FFF7FEFF 		bl	e_uart2_sending
 5674 2708 0346     		mov	r3, r0
 5675 270a 002B     		cmp	r3, #0
 5676 270c FAD1     		bne	.L394
 5677              	.L393:
ARM GAS  C:\Users\Moi\AppData\Local\Temp\ccAXdvuJ.s 			page 106


 5678              		.loc 1 1025 0 is_stmt 1
 5679 270e 234B     		ldr	r3, .L464+60
 5680 2710 1B68     		ldr	r3, [r3]
 5681 2712 1A46     		mov	r2, r3
 5682 2714 2249     		ldr	r1, .L464+64
 5683 2716 1548     		ldr	r0, .L464+12
 5684 2718 FFF7FEFF 		bl	sprintf
 5685              		.loc 1 1026 0
 5686 271c 0D9B     		ldr	r3, [sp, #52]
 5687 271e 002B     		cmp	r3, #0
 5688 2720 0ED0     		beq	.L395
 5689              		.loc 1 1027 0
 5690 2722 1248     		ldr	r0, .L464+12
 5691 2724 FFF7FEFF 		bl	strlen
 5692 2728 0346     		mov	r3, r0
 5693 272a 1946     		mov	r1, r3
 5694 272c 0F48     		ldr	r0, .L464+12
 5695 272e FFF7FEFF 		bl	e_send_uart1_char
 5696 2732 00BF     		nop
 5697              	.L396:
 5698              		.loc 1 1027 0 is_stmt 0 discriminator 2
 5699 2734 FFF7FEFF 		bl	e_uart1_sending
 5700 2738 0346     		mov	r3, r0
 5701 273a 002B     		cmp	r3, #0
 5702 273c FAD1     		bne	.L396
 5703              		.loc 1 1031 0 is_stmt 1
 5704 273e 0CE1     		b	.L164
 5705              	.L395:
 5706              		.loc 1 1029 0
 5707 2740 0A48     		ldr	r0, .L464+12
 5708 2742 FFF7FEFF 		bl	strlen
 5709 2746 0346     		mov	r3, r0
 5710 2748 1946     		mov	r1, r3
 5711 274a 0848     		ldr	r0, .L464+12
 5712 274c FFF7FEFF 		bl	e_send_uart2_char
 5713 2750 00BF     		nop
 5714              	.L398:
 5715              		.loc 1 1029 0 is_stmt 0 discriminator 2
 5716 2752 FFF7FEFF 		bl	e_uart2_sending
 5717 2756 0346     		mov	r3, r0
 5718 2758 002B     		cmp	r3, #0
 5719 275a FAD1     		bne	.L398
 5720              		.loc 1 1031 0 is_stmt 1
 5721 275c FDE0     		b	.L164
 5722              	.L465:
 5723 275e 00BF     		.align	2
 5724              	.L464:
 5725 2760 00000000 		.word	positionr.12668
 5726 2764 00000000 		.word	positionl.12669
 5727 2768 A4090000 		.word	.LC76
 5728 276c 00000000 		.word	buffer
 5729 2770 B0090000 		.word	.LC77
 5730 2774 B4090000 		.word	.LC78
 5731 2778 C0090000 		.word	.LC79
 5732 277c 00000000 		.word	sound.12675
 5733 2780 C4090000 		.word	.LC80
 5734 2784 00000000 		.word	first.12686
ARM GAS  C:\Users\Moi\AppData\Local\Temp\ccAXdvuJ.s 			page 107


 5735 2788 CC090000 		.word	.LC81
 5736 278c D0090000 		.word	.LC82
 5737 2790 D8090000 		.word	.LC83
 5738 2794 E0090000 		.word	.LC84
 5739 2798 F0090000 		.word	.LC85
 5740 279c 00000000 		.word	HWversion.12697
 5741 27a0 180A0000 		.word	.LC86
 5742              	.L208:
 5743              		.loc 1 1033 0
 5744 27a4 0D9B     		ldr	r3, [sp, #52]
 5745 27a6 002B     		cmp	r3, #0
 5746 27a8 00F0D080 		beq	.L429
 5747              		.loc 1 1034 0
 5748 27ac 6C4B     		ldr	r3, .L466
 5749 27ae 0093     		str	r3, [sp]
 5750 27b0 6C4B     		ldr	r3, .L466+4
 5751 27b2 6D4A     		ldr	r2, .L466+8
 5752 27b4 6D49     		ldr	r1, .L466+12
 5753 27b6 6E48     		ldr	r0, .L466+16
 5754 27b8 FFF7FEFF 		bl	sscanf
 5755              		.loc 1 1035 0
 5756 27bc FFF7FEFF 		bl	e_i2cp_enable
 5757              		.loc 1 1036 0
 5758 27c0 694B     		ldr	r3, .L466+8
 5759 27c2 1B68     		ldr	r3, [r3]
 5760 27c4 D8B2     		uxtb	r0, r3
 5761 27c6 674B     		ldr	r3, .L466+4
 5762 27c8 1B68     		ldr	r3, [r3]
 5763 27ca D9B2     		uxtb	r1, r3
 5764 27cc 644B     		ldr	r3, .L466
 5765 27ce 1B68     		ldr	r3, [r3]
 5766 27d0 DBB2     		uxtb	r3, r3
 5767 27d2 1A46     		mov	r2, r3
 5768 27d4 FFF7FEFF 		bl	e_i2cp_write
 5769              		.loc 1 1037 0
 5770 27d8 FFF7FEFF 		bl	e_i2cp_disable
 5771              		.loc 1 1038 0
 5772 27dc 0321     		movs	r1, #3
 5773 27de 6548     		ldr	r0, .L466+20
 5774 27e0 FFF7FEFF 		bl	e_send_uart1_char
 5775 27e4 00BF     		nop
 5776              	.L400:
 5777              		.loc 1 1038 0 is_stmt 0 discriminator 2
 5778 27e6 FFF7FEFF 		bl	e_uart1_sending
 5779 27ea 0346     		mov	r3, r0
 5780 27ec 002B     		cmp	r3, #0
 5781 27ee FAD1     		bne	.L400
 5782              		.loc 1 1040 0 is_stmt 1
 5783 27f0 ACE0     		b	.L429
 5784              	.L209:
 5785              		.loc 1 1042 0
 5786 27f2 0D9B     		ldr	r3, [sp, #52]
 5787 27f4 002B     		cmp	r3, #0
 5788 27f6 00F0AC80 		beq	.L430
 5789              		.loc 1 1043 0
 5790 27fa 5A4B     		ldr	r3, .L466+4
 5791 27fc 5A4A     		ldr	r2, .L466+8
ARM GAS  C:\Users\Moi\AppData\Local\Temp\ccAXdvuJ.s 			page 108


 5792 27fe 5E49     		ldr	r1, .L466+24
 5793 2800 5B48     		ldr	r0, .L466+16
 5794 2802 FFF7FEFF 		bl	sscanf
 5795              		.loc 1 1045 0
 5796 2806 584B     		ldr	r3, .L466+8
 5797 2808 1A68     		ldr	r2, [r3]
 5798 280a 564B     		ldr	r3, .L466+4
 5799 280c 1B68     		ldr	r3, [r3]
 5800 280e 5B49     		ldr	r1, .L466+28
 5801 2810 5748     		ldr	r0, .L466+16
 5802 2812 FFF7FEFF 		bl	sprintf
 5803              		.loc 1 1046 0
 5804 2816 5648     		ldr	r0, .L466+16
 5805 2818 FFF7FEFF 		bl	strlen
 5806 281c 0346     		mov	r3, r0
 5807 281e 1946     		mov	r1, r3
 5808 2820 5348     		ldr	r0, .L466+16
 5809 2822 FFF7FEFF 		bl	e_send_uart1_char
 5810 2826 00BF     		nop
 5811              	.L402:
 5812              		.loc 1 1046 0 is_stmt 0 discriminator 2
 5813 2828 FFF7FEFF 		bl	e_uart1_sending
 5814 282c 0346     		mov	r3, r0
 5815 282e 002B     		cmp	r3, #0
 5816 2830 FAD1     		bne	.L402
 5817              		.loc 1 1051 0 is_stmt 1
 5818 2832 FFF7FEFF 		bl	e_i2cp_enable
 5819              		.loc 1 1052 0
 5820 2836 4C4B     		ldr	r3, .L466+8
 5821 2838 1B68     		ldr	r3, [r3]
 5822 283a DAB2     		uxtb	r2, r3
 5823 283c 494B     		ldr	r3, .L466+4
 5824 283e 1B68     		ldr	r3, [r3]
 5825 2840 DBB2     		uxtb	r3, r3
 5826 2842 1946     		mov	r1, r3
 5827 2844 1046     		mov	r0, r2
 5828 2846 FFF7FEFF 		bl	e_i2cp_read
 5829 284a 0346     		mov	r3, r0
 5830 284c 1A46     		mov	r2, r3
 5831 284e 444B     		ldr	r3, .L466
 5832 2850 1A60     		str	r2, [r3]
 5833              		.loc 1 1053 0
 5834 2852 FFF7FEFF 		bl	e_i2cp_disable
 5835              		.loc 1 1054 0
 5836 2856 424B     		ldr	r3, .L466
 5837 2858 1B68     		ldr	r3, [r3]
 5838 285a 1A46     		mov	r2, r3
 5839 285c 4849     		ldr	r1, .L466+32
 5840 285e 4448     		ldr	r0, .L466+16
 5841 2860 FFF7FEFF 		bl	sprintf
 5842              		.loc 1 1055 0
 5843 2864 4248     		ldr	r0, .L466+16
 5844 2866 FFF7FEFF 		bl	strlen
 5845 286a 0346     		mov	r3, r0
 5846 286c 1946     		mov	r1, r3
 5847 286e 4048     		ldr	r0, .L466+16
 5848 2870 FFF7FEFF 		bl	e_send_uart1_char
ARM GAS  C:\Users\Moi\AppData\Local\Temp\ccAXdvuJ.s 			page 109


 5849 2874 00BF     		nop
 5850              	.L403:
 5851              		.loc 1 1055 0 is_stmt 0 discriminator 2
 5852 2876 FFF7FEFF 		bl	e_uart1_sending
 5853 287a 0346     		mov	r3, r0
 5854 287c 002B     		cmp	r3, #0
 5855 287e FAD1     		bne	.L403
 5856              		.loc 1 1057 0 is_stmt 1
 5857 2880 67E0     		b	.L430
 5858              	.L210:
 5859              		.loc 1 1059 0
 5860 2882 0D9B     		ldr	r3, [sp, #52]
 5861 2884 002B     		cmp	r3, #0
 5862 2886 67D0     		beq	.L431
 5863              		.loc 1 1060 0
 5864 2888 3E4B     		ldr	r3, .L466+36
 5865 288a 0222     		movs	r2, #2
 5866 288c 1A60     		str	r2, [r3]
 5867 288e 2DE0     		b	.L405
 5868              	.L408:
 5869              		.loc 1 1061 0
 5870 2890 FFF7FEFF 		bl	e_i2cp_enable
 5871              		.loc 1 1062 0
 5872 2894 3B4B     		ldr	r3, .L466+36
 5873 2896 1B68     		ldr	r3, [r3]
 5874 2898 DBB2     		uxtb	r3, r3
 5875 289a 0021     		movs	r1, #0
 5876 289c 1846     		mov	r0, r3
 5877 289e FFF7FEFF 		bl	e_i2cp_read
 5878 28a2 0346     		mov	r3, r0
 5879 28a4 1A46     		mov	r2, r3
 5880 28a6 2E4B     		ldr	r3, .L466
 5881 28a8 1A60     		str	r2, [r3]
 5882              		.loc 1 1063 0
 5883 28aa FFF7FEFF 		bl	e_i2cp_disable
 5884              		.loc 1 1064 0
 5885 28ae 2C4B     		ldr	r3, .L466
 5886 28b0 1B68     		ldr	r3, [r3]
 5887 28b2 002B     		cmp	r3, #0
 5888 28b4 15DB     		blt	.L406
 5889              		.loc 1 1065 0
 5890 28b6 334B     		ldr	r3, .L466+36
 5891 28b8 1A68     		ldr	r2, [r3]
 5892 28ba 294B     		ldr	r3, .L466
 5893 28bc 1B68     		ldr	r3, [r3]
 5894 28be 3249     		ldr	r1, .L466+40
 5895 28c0 2B48     		ldr	r0, .L466+16
 5896 28c2 FFF7FEFF 		bl	sprintf
 5897              		.loc 1 1066 0
 5898 28c6 2A48     		ldr	r0, .L466+16
 5899 28c8 FFF7FEFF 		bl	strlen
 5900 28cc 0346     		mov	r3, r0
 5901 28ce 1946     		mov	r1, r3
 5902 28d0 2748     		ldr	r0, .L466+16
 5903 28d2 FFF7FEFF 		bl	e_send_uart1_char
 5904 28d6 00BF     		nop
 5905              	.L407:
ARM GAS  C:\Users\Moi\AppData\Local\Temp\ccAXdvuJ.s 			page 110


 5906              		.loc 1 1066 0 is_stmt 0 discriminator 2
 5907 28d8 FFF7FEFF 		bl	e_uart1_sending
 5908 28dc 0346     		mov	r3, r0
 5909 28de 002B     		cmp	r3, #0
 5910 28e0 FAD1     		bne	.L407
 5911              	.L406:
 5912              		.loc 1 1060 0 is_stmt 1 discriminator 2
 5913 28e2 284B     		ldr	r3, .L466+36
 5914 28e4 1B68     		ldr	r3, [r3]
 5915 28e6 0233     		adds	r3, r3, #2
 5916 28e8 264A     		ldr	r2, .L466+36
 5917 28ea 1360     		str	r3, [r2]
 5918              	.L405:
 5919              		.loc 1 1060 0 is_stmt 0 discriminator 1
 5920 28ec 254B     		ldr	r3, .L466+36
 5921 28ee 1B68     		ldr	r3, [r3]
 5922 28f0 FE2B     		cmp	r3, #254
 5923 28f2 CDDD     		ble	.L408
 5924              		.loc 1 1070 0 is_stmt 1
 5925 28f4 30E0     		b	.L431
 5926              	.L184:
 5927              		.loc 1 1072 0
 5928 28f6 0D9B     		ldr	r3, [sp, #52]
 5929 28f8 002B     		cmp	r3, #0
 5930 28fa 0AD0     		beq	.L409
 5931              		.loc 1 1073 0
 5932 28fc 1521     		movs	r1, #21
 5933 28fe 2348     		ldr	r0, .L466+44
 5934 2900 FFF7FEFF 		bl	e_send_uart1_char
 5935 2904 00BF     		nop
 5936              	.L410:
 5937              		.loc 1 1073 0 is_stmt 0 discriminator 2
 5938 2906 FFF7FEFF 		bl	e_uart1_sending
 5939 290a 0346     		mov	r3, r0
 5940 290c 002B     		cmp	r3, #0
 5941 290e FAD1     		bne	.L410
 5942              		.loc 1 1077 0 is_stmt 1
 5943 2910 23E0     		b	.L164
 5944              	.L409:
 5945              		.loc 1 1075 0
 5946 2912 1521     		movs	r1, #21
 5947 2914 1D48     		ldr	r0, .L466+44
 5948 2916 FFF7FEFF 		bl	e_send_uart2_char
 5949 291a 00BF     		nop
 5950              	.L412:
 5951              		.loc 1 1075 0 is_stmt 0 discriminator 2
 5952 291c FFF7FEFF 		bl	e_uart2_sending
 5953 2920 0346     		mov	r3, r0
 5954 2922 002B     		cmp	r3, #0
 5955 2924 FAD1     		bne	.L412
 5956              		.loc 1 1077 0 is_stmt 1
 5957 2926 18E0     		b	.L164
 5958              	.L423:
 5959              	.LBE3:
 5960              		.loc 1 1079 0
 5961 2928 00BF     		nop
 5962 292a FDF70DBC 		b	.L413
ARM GAS  C:\Users\Moi\AppData\Local\Temp\ccAXdvuJ.s 			page 111


 5963              	.L424:
 5964              	.LBB4:
 5965              		.loc 1 957 0
 5966 292e 00BF     		nop
 5967 2930 FDF70ABC 		b	.L413
 5968              	.L425:
 5969              		.loc 1 699 0
 5970 2934 00BF     		nop
 5971 2936 FDF707BC 		b	.L413
 5972              	.L426:
 5973              		.loc 1 800 0
 5974 293a 00BF     		nop
 5975 293c FDF704BC 		b	.L413
 5976              	.L427:
 5977              		.loc 1 827 0
 5978 2940 00BF     		nop
 5979 2942 FDF701BC 		b	.L413
 5980              	.L428:
 5981              		.loc 1 903 0
 5982 2946 00BF     		nop
 5983 2948 FDF7FEBB 		b	.L413
 5984              	.L429:
 5985              		.loc 1 1040 0
 5986 294c 00BF     		nop
 5987 294e FDF7FBBB 		b	.L413
 5988              	.L430:
 5989              		.loc 1 1057 0
 5990 2952 00BF     		nop
 5991 2954 FDF7F8BB 		b	.L413
 5992              	.L431:
 5993              		.loc 1 1070 0
 5994 2958 00BF     		nop
 5995              	.L164:
 5996              	.LBE4:
 5997              		.loc 1 134 0
 5998 295a FDF7F5BB 		b	.L413
 5999              	.L467:
 6000 295e 00BF     		.align	2
 6001              	.L466:
 6002 2960 00000000 		.word	val.12690
 6003 2964 00000000 		.word	reg.12689
 6004 2968 00000000 		.word	mod.12688
 6005 296c 2C0A0000 		.word	.LC87
 6006 2970 00000000 		.word	buffer
 6007 2974 380A0000 		.word	.LC88
 6008 2978 3C0A0000 		.word	.LC89
 6009 297c 480A0000 		.word	.LC90
 6010 2980 540A0000 		.word	.LC91
 6011 2984 00000000 		.word	j.12664
 6012 2988 5C0A0000 		.word	.LC92
 6013 298c 680A0000 		.word	.LC93
 6014              		.cfi_endproc
 6015              	.LFE259:
 6016              		.size	run_asercom, .-run_asercom
 6017              		.section	.data.HWversion.12697,"aw",%progbits
 6018              		.align	2
 6019              		.type	HWversion.12697, %object
ARM GAS  C:\Users\Moi\AppData\Local\Temp\ccAXdvuJ.s 			page 112


 6020              		.size	HWversion.12697, 4
 6021              	HWversion.12697:
 6022 0000 FFFF0000 		.word	65535
 6023              		.section	.bss.cam_mode.12679,"aw",%nobits
 6024              		.align	2
 6025              		.type	cam_mode.12679, %object
 6026              		.size	cam_mode.12679, 4
 6027              	cam_mode.12679:
 6028 0000 00000000 		.space	4
 6029              		.section	.bss.cam_width.12680,"aw",%nobits
 6030              		.align	2
 6031              		.type	cam_width.12680, %object
 6032              		.size	cam_width.12680, 4
 6033              	cam_width.12680:
 6034 0000 00000000 		.space	4
 6035              		.section	.bss.cam_heigth.12681,"aw",%nobits
 6036              		.align	2
 6037              		.type	cam_heigth.12681, %object
 6038              		.size	cam_heigth.12681, 4
 6039              	cam_heigth.12681:
 6040 0000 00000000 		.space	4
 6041              		.section	.bss.cam_zoom.12682,"aw",%nobits
 6042              		.align	2
 6043              		.type	cam_zoom.12682, %object
 6044              		.size	cam_zoom.12682, 4
 6045              	cam_zoom.12682:
 6046 0000 00000000 		.space	4
 6047              		.section	.bss.cam_size.12683,"aw",%nobits
 6048              		.align	2
 6049              		.type	cam_size.12683, %object
 6050              		.size	cam_size.12683, 4
 6051              	cam_size.12683:
 6052 0000 00000000 		.space	4
 6053              		.section	.bss.speedr.12666,"aw",%nobits
 6054              		.align	2
 6055              		.type	speedr.12666, %object
 6056              		.size	speedr.12666, 4
 6057              	speedr.12666:
 6058 0000 00000000 		.space	4
 6059              		.section	.bss.speedl.12667,"aw",%nobits
 6060              		.align	2
 6061              		.type	speedl.12667, %object
 6062              		.size	speedl.12667, 4
 6063              	speedl.12667:
 6064 0000 00000000 		.space	4
 6065              		.section	.bss.first.12686,"aw",%nobits
 6066              		.type	first.12686, %object
 6067              		.size	first.12686, 1
 6068              	first.12686:
 6069 0000 00       		.space	1
 6070              		.section	.bss.i.12663,"aw",%nobits
 6071              		.align	2
 6072              		.type	i.12663, %object
 6073              		.size	i.12663, 4
 6074              	i.12663:
 6075 0000 00000000 		.space	4
 6076              		.section	.bss.accx.12672,"aw",%nobits
ARM GAS  C:\Users\Moi\AppData\Local\Temp\ccAXdvuJ.s 			page 113


 6077              		.align	2
 6078              		.type	accx.12672, %object
 6079              		.size	accx.12672, 4
 6080              	accx.12672:
 6081 0000 00000000 		.space	4
 6082              		.section	.bss.accy.12673,"aw",%nobits
 6083              		.align	2
 6084              		.type	accy.12673, %object
 6085              		.size	accy.12673, 4
 6086              	accy.12673:
 6087 0000 00000000 		.space	4
 6088              		.section	.bss.accz.12674,"aw",%nobits
 6089              		.align	2
 6090              		.type	accz.12674, %object
 6091              		.size	accz.12674, 4
 6092              	accz.12674:
 6093 0000 00000000 		.space	4
 6094              		.section	.bss.accelero.12694,"aw",%nobits
 6095              		.align	2
 6096              		.type	accelero.12694, %object
 6097              		.size	accelero.12694, 12
 6098              	accelero.12694:
 6099 0000 00000000 		.space	12
 6099      00000000 
 6099      00000000 
 6100              		.section	.bss.c1.12660,"aw",%nobits
 6101              		.type	c1.12660, %object
 6102              		.size	c1.12660, 1
 6103              	c1.12660:
 6104 0000 00       		.space	1
 6105              		.section	.bss.c2.12661,"aw",%nobits
 6106              		.type	c2.12661, %object
 6107              		.size	c2.12661, 1
 6108              	c2.12661:
 6109 0000 00       		.space	1
 6110              		.section	.bss.gyrox.12676,"aw",%nobits
 6111              		.align	2
 6112              		.type	gyrox.12676, %object
 6113              		.size	gyrox.12676, 4
 6114              	gyrox.12676:
 6115 0000 00000000 		.space	4
 6116              		.section	.bss.gyroy.12677,"aw",%nobits
 6117              		.align	2
 6118              		.type	gyroy.12677, %object
 6119              		.size	gyroy.12677, 4
 6120              	gyroy.12677:
 6121 0000 00000000 		.space	4
 6122              		.section	.bss.gyroz.12678,"aw",%nobits
 6123              		.align	2
 6124              		.type	gyroz.12678, %object
 6125              		.size	gyroz.12678, 4
 6126              	gyroz.12678:
 6127 0000 00000000 		.space	4
 6128              		.section	.bss.wait_cam.12662,"aw",%nobits
 6129              		.type	wait_cam.12662, %object
 6130              		.size	wait_cam.12662, 1
 6131              	wait_cam.12662:
ARM GAS  C:\Users\Moi\AppData\Local\Temp\ccAXdvuJ.s 			page 114


 6132 0000 00       		.space	1
 6133              		.section	.bss.j.12664,"aw",%nobits
 6134              		.align	2
 6135              		.type	j.12664, %object
 6136              		.size	j.12664, 4
 6137              	j.12664:
 6138 0000 00000000 		.space	4
 6139              		.section	.bss.n.12665,"aw",%nobits
 6140              		.align	2
 6141              		.type	n.12665, %object
 6142              		.size	n.12665, 4
 6143              	n.12665:
 6144 0000 00000000 		.space	4
 6145              		.section	.bss.positionl.12669,"aw",%nobits
 6146              		.align	2
 6147              		.type	positionl.12669, %object
 6148              		.size	positionl.12669, 4
 6149              	positionl.12669:
 6150 0000 00000000 		.space	4
 6151              		.section	.bss.positionr.12668,"aw",%nobits
 6152              		.align	2
 6153              		.type	positionr.12668, %object
 6154              		.size	positionr.12668, 4
 6155              	positionr.12668:
 6156 0000 00000000 		.space	4
 6157              		.section	.bss.mod.12688,"aw",%nobits
 6158              		.align	2
 6159              		.type	mod.12688, %object
 6160              		.size	mod.12688, 4
 6161              	mod.12688:
 6162 0000 00000000 		.space	4
 6163              		.section	.bss.reg.12689,"aw",%nobits
 6164              		.align	2
 6165              		.type	reg.12689, %object
 6166              		.size	reg.12689, 4
 6167              	reg.12689:
 6168 0000 00000000 		.space	4
 6169              		.section	.bss.val.12690,"aw",%nobits
 6170              		.align	2
 6171              		.type	val.12690, %object
 6172              		.size	val.12690, 4
 6173              	val.12690:
 6174 0000 00000000 		.space	4
 6175              		.section	.bss.LED_action.12671,"aw",%nobits
 6176              		.align	2
 6177              		.type	LED_action.12671, %object
 6178              		.size	LED_action.12671, 4
 6179              	LED_action.12671:
 6180 0000 00000000 		.space	4
 6181              		.section	.bss.cam_x1.12684,"aw",%nobits
 6182              		.align	2
 6183              		.type	cam_x1.12684, %object
 6184              		.size	cam_x1.12684, 4
 6185              	cam_x1.12684:
 6186 0000 00000000 		.space	4
 6187              		.section	.bss.cam_y1.12685,"aw",%nobits
 6188              		.align	2
ARM GAS  C:\Users\Moi\AppData\Local\Temp\ccAXdvuJ.s 			page 115


 6189              		.type	cam_y1.12685, %object
 6190              		.size	cam_y1.12685, 4
 6191              	cam_y1.12685:
 6192 0000 00000000 		.space	4
 6193              		.section	.bss.LED_nbr.12670,"aw",%nobits
 6194              		.align	2
 6195              		.type	LED_nbr.12670, %object
 6196              		.size	LED_nbr.12670, 4
 6197              	LED_nbr.12670:
 6198 0000 00000000 		.space	4
 6199              		.section	.bss.sound.12675,"aw",%nobits
 6200              		.align	2
 6201              		.type	sound.12675, %object
 6202              		.size	sound.12675, 4
 6203              	sound.12675:
 6204 0000 00000000 		.space	4
 6205              		.text
 6206              	.Letext0:
 6207              		.file 2 "c:\\users\\moi\\documents\\_microinfo\\epuck-eclipse\\tools\\gcc-arm-none-eabi-7-2017-q4-
 6208              		.file 3 "c:\\users\\moi\\documents\\_microinfo\\epuck-eclipse\\tools\\gcc-arm-none-eabi-7-2017-q4-
 6209              		.file 4 "c:\\users\\moi\\documents\\_microinfo\\epuck-eclipse\\tools\\gcc-arm-none-eabi-7-2017-q4-
 6210              		.file 5 "c:\\users\\moi\\documents\\_microinfo\\epuck-eclipse\\tools\\gcc-arm-none-eabi-7-2017-q4-
 6211              		.file 6 "c:\\users\\moi\\documents\\_microinfo\\epuck-eclipse\\tools\\gcc-arm-none-eabi-7-2017-q4-
 6212              		.file 7 "c:\\users\\moi\\documents\\_microinfo\\epuck-eclipse\\tools\\gcc-arm-none-eabi-7-2017-q4-
 6213              		.file 8 "..//src/msgbus/messagebus.h"
 6214              		.file 9 "c:\\users\\moi\\documents\\_microinfo\\epuck-eclipse\\tools\\gcc-arm-none-eabi-7-2017-q4-
 6215              		.file 10 "c:\\users\\moi\\documents\\_microinfo\\epuck-eclipse\\tools\\gcc-arm-none-eabi-7-2017-q4
 6216              		.file 11 "..//src/parameter/parameter.h"
 6217              		.file 12 "./main.h"
 6218              		.file 13 "..//ChibiOS//os/rt/ports/ARMCMx/compilers/GCC/chtypes.h"
 6219              		.file 14 "..//ChibiOS//os/rt/include/chsystypes.h"
 6220              		.file 15 "..//ChibiOS//os/rt/include/chschd.h"
 6221              		.file 16 "..//ChibiOS//os/ext/CMSIS/include/core_cm4.h"
 6222              		.file 17 "..//ChibiOS//os/ext/CMSIS/ST/system_stm32f4xx.h"
 6223              		.file 18 "..//ChibiOS//os/ext/CMSIS/ST/stm32f407xx.h"
 6224              		.file 19 "..//ChibiOS//os/rt/ports/ARMCMx/chcore.h"
 6225              		.file 20 "..//ChibiOS//os/rt/ports/ARMCMx/chcore_v7m.h"
 6226              		.file 21 "..//ChibiOS//os/rt/include/chdebug.h"
 6227              		.file 22 "..//ChibiOS//os/rt/include/chtm.h"
 6228              		.file 23 "..//ChibiOS//os/rt/include/chstats.h"
 6229              		.file 24 "..//ChibiOS//os/rt/include/chsem.h"
 6230              		.file 25 "..//ChibiOS//os/rt/include/chmtx.h"
 6231              		.file 26 "..//ChibiOS//os/rt/include/chregistry.h"
 6232              		.file 27 "..//ChibiOS//os/rt/include/chevents.h"
 6233              		.file 28 "..//ChibiOS//os/rt/include/chqueues.h"
 6234              		.file 29 "..//ChibiOS//os/hal/ports/STM32/STM32F4xx/stm32_dma.h"
 6235              		.file 30 "..//ChibiOS//os/hal/include/hal_ioblock.h"
 6236              		.file 31 "..//ChibiOS//os/hal/ports/STM32/LLD/GPIOv2/pal_lld.h"
 6237              		.file 32 "..//ChibiOS//os/hal/include/adc.h"
 6238              		.file 33 "..//ChibiOS//os/hal/ports/STM32/STM32F4xx/adc_lld.h"
 6239              		.file 34 "..//ChibiOS//os/hal/include/can.h"
 6240              		.file 35 "..//ChibiOS//os/hal/ports/STM32/LLD/can_lld.h"
 6241              		.file 36 "..//ChibiOS//os/hal/include/dac.h"
 6242              		.file 37 "..//ChibiOS//os/hal/ports/STM32/LLD/DACv1/dac_lld.h"
 6243              		.file 38 "..//ChibiOS//os/hal/include/ext.h"
 6244              		.file 39 "..//ChibiOS//os/hal/ports/STM32/LLD/ext_lld.h"
 6245              		.file 40 "..//ChibiOS//os/hal/include/gpt.h"
ARM GAS  C:\Users\Moi\AppData\Local\Temp\ccAXdvuJ.s 			page 116


 6246              		.file 41 "..//ChibiOS//os/hal/ports/STM32/LLD/TIMv1/gpt_lld.h"
 6247              		.file 42 "..//ChibiOS//os/hal/ports/STM32/LLD/TIMv1/stm32_tim.h"
 6248              		.file 43 "..//ChibiOS//os/hal/include/i2c.h"
 6249              		.file 44 "..//ChibiOS//os/hal/ports/STM32/LLD/I2Cv1/i2c_lld.h"
 6250              		.file 45 "..//ChibiOS//os/hal/include/i2s.h"
 6251              		.file 46 "..//ChibiOS//os/hal/ports/STM32/LLD/SPIv1/i2s_lld.h"
 6252              		.file 47 "..//ChibiOS//os/hal/include/pwm.h"
 6253              		.file 48 "..//ChibiOS//os/hal/ports/STM32/LLD/TIMv1/pwm_lld.h"
 6254              		.file 49 "..//ChibiOS//os/hal/include/serial.h"
 6255              		.file 50 "..//ChibiOS//os/hal/ports/STM32/LLD/USARTv1/serial_lld.h"
 6256              		.file 51 "..//ChibiOS//os/hal/include/sdc.h"
 6257              		.file 52 "..//ChibiOS//os/hal/ports/STM32/LLD/sdc_lld.h"
 6258              		.file 53 "..//ChibiOS//os/hal/include/spi.h"
 6259              		.file 54 "..//ChibiOS//os/hal/ports/STM32/LLD/SPIv1/spi_lld.h"
 6260              		.file 55 "..//ChibiOS//os/hal/include/usb.h"
 6261              		.file 56 "..//ChibiOS//os/hal/ports/STM32/LLD/OTGv1/usb_lld.h"
 6262              		.file 57 "..//ChibiOS//os/hal/ports/STM32/LLD/OTGv1/stm32_otg.h"
 6263              		.file 58 "..//src/audio/play_melody.h"
 6264              		.file 59 "c:\\users\\moi\\documents\\_microinfo\\epuck-eclipse\\tools\\gcc-arm-none-eabi-7-2017-q4
 6265              		.file 60 "..//src/epuck1x/a_d/advance_ad_scan/e_acc.h"
 6266              		.file 61 "..//ChibiOS_ext/os/hal/include/../ports/STM32/STM32F4xx/dcmi_lld.h"
 6267              		.section	.debug_info,"",%progbits
 6268              	.Ldebug_info0:
 6269 0000 81460000 		.4byte	0x4681
 6270 0004 0400     		.2byte	0x4
 6271 0006 00000000 		.4byte	.Ldebug_abbrev0
 6272 000a 04       		.byte	0x4
 6273 000b 01       		.uleb128 0x1
 6274 000c FA1C0000 		.4byte	.LASF949
 6275 0010 0C       		.byte	0xc
 6276 0011 8A200000 		.4byte	.LASF950
 6277 0015 86140000 		.4byte	.LASF951
 6278 0019 18000000 		.4byte	.Ldebug_ranges0+0x18
 6279 001d 00000000 		.4byte	0
 6280 0021 00000000 		.4byte	.Ldebug_line0
 6281 0025 02       		.uleb128 0x2
 6282 0026 6C240000 		.4byte	.LASF0
 6283 002a 02       		.byte	0x2
 6284 002b 29       		.byte	0x29
 6285 002c 30000000 		.4byte	0x30
 6286 0030 03       		.uleb128 0x3
 6287 0031 01       		.byte	0x1
 6288 0032 06       		.byte	0x6
 6289 0033 4E140000 		.4byte	.LASF2
 6290 0037 02       		.uleb128 0x2
 6291 0038 09010000 		.4byte	.LASF1
 6292 003c 02       		.byte	0x2
 6293 003d 2B       		.byte	0x2b
 6294 003e 42000000 		.4byte	0x42
 6295 0042 03       		.uleb128 0x3
 6296 0043 01       		.byte	0x1
 6297 0044 08       		.byte	0x8
 6298 0045 8B090000 		.4byte	.LASF3
 6299 0049 02       		.uleb128 0x2
 6300 004a CA070000 		.4byte	.LASF4
 6301 004e 02       		.byte	0x2
 6302 004f 37       		.byte	0x37
ARM GAS  C:\Users\Moi\AppData\Local\Temp\ccAXdvuJ.s 			page 117


 6303 0050 54000000 		.4byte	0x54
 6304 0054 03       		.uleb128 0x3
 6305 0055 02       		.byte	0x2
 6306 0056 05       		.byte	0x5
 6307 0057 42250000 		.4byte	.LASF5
 6308 005b 02       		.uleb128 0x2
 6309 005c D4070000 		.4byte	.LASF6
 6310 0060 02       		.byte	0x2
 6311 0061 39       		.byte	0x39
 6312 0062 66000000 		.4byte	0x66
 6313 0066 03       		.uleb128 0x3
 6314 0067 02       		.byte	0x2
 6315 0068 07       		.byte	0x7
 6316 0069 33140000 		.4byte	.LASF7
 6317 006d 02       		.uleb128 0x2
 6318 006e 4F1E0000 		.4byte	.LASF8
 6319 0072 02       		.byte	0x2
 6320 0073 4D       		.byte	0x4d
 6321 0074 78000000 		.4byte	0x78
 6322 0078 03       		.uleb128 0x3
 6323 0079 04       		.byte	0x4
 6324 007a 05       		.byte	0x5
 6325 007b F0160000 		.4byte	.LASF9
 6326 007f 02       		.uleb128 0x2
 6327 0080 591E0000 		.4byte	.LASF10
 6328 0084 02       		.byte	0x2
 6329 0085 4F       		.byte	0x4f
 6330 0086 8A000000 		.4byte	0x8a
 6331 008a 03       		.uleb128 0x3
 6332 008b 04       		.byte	0x4
 6333 008c 07       		.byte	0x7
 6334 008d 9F180000 		.4byte	.LASF11
 6335 0091 03       		.uleb128 0x3
 6336 0092 08       		.byte	0x8
 6337 0093 05       		.byte	0x5
 6338 0094 A1220000 		.4byte	.LASF12
 6339 0098 02       		.uleb128 0x2
 6340 0099 95100000 		.4byte	.LASF13
 6341 009d 02       		.byte	0x2
 6342 009e 69       		.byte	0x69
 6343 009f A3000000 		.4byte	0xa3
 6344 00a3 03       		.uleb128 0x3
 6345 00a4 08       		.byte	0x8
 6346 00a5 07       		.byte	0x7
 6347 00a6 25200000 		.4byte	.LASF14
 6348 00aa 04       		.uleb128 0x4
 6349 00ab 04       		.byte	0x4
 6350 00ac 05       		.byte	0x5
 6351 00ad 696E7400 		.ascii	"int\000"
 6352 00b1 03       		.uleb128 0x3
 6353 00b2 04       		.byte	0x4
 6354 00b3 07       		.byte	0x7
 6355 00b4 D6240000 		.4byte	.LASF15
 6356 00b8 02       		.uleb128 0x2
 6357 00b9 2B0D0000 		.4byte	.LASF16
 6358 00bd 03       		.byte	0x3
 6359 00be D8       		.byte	0xd8
ARM GAS  C:\Users\Moi\AppData\Local\Temp\ccAXdvuJ.s 			page 118


 6360 00bf B1000000 		.4byte	0xb1
 6361 00c3 03       		.uleb128 0x3
 6362 00c4 08       		.byte	0x8
 6363 00c5 04       		.byte	0x4
 6364 00c6 4E180000 		.4byte	.LASF17
 6365 00ca 02       		.uleb128 0x2
 6366 00cb 9D070000 		.4byte	.LASF18
 6367 00cf 04       		.byte	0x4
 6368 00d0 22       		.byte	0x22
 6369 00d1 D5000000 		.4byte	0xd5
 6370 00d5 05       		.uleb128 0x5
 6371 00d6 04       		.byte	0x4
 6372 00d7 DB000000 		.4byte	0xdb
 6373 00db 06       		.uleb128 0x6
 6374 00dc E3050000 		.4byte	.LASF157
 6375 00e0 02       		.uleb128 0x2
 6376 00e1 060D0000 		.4byte	.LASF19
 6377 00e5 05       		.byte	0x5
 6378 00e6 2C       		.byte	0x2c
 6379 00e7 78000000 		.4byte	0x78
 6380 00eb 02       		.uleb128 0x2
 6381 00ec 2E1C0000 		.4byte	.LASF20
 6382 00f0 05       		.byte	0x5
 6383 00f1 72       		.byte	0x72
 6384 00f2 78000000 		.4byte	0x78
 6385 00f6 07       		.uleb128 0x7
 6386 00f7 160F0000 		.4byte	.LASF21
 6387 00fb 03       		.byte	0x3
 6388 00fc 6501     		.2byte	0x165
 6389 00fe B1000000 		.4byte	0xb1
 6390 0102 08       		.uleb128 0x8
 6391 0103 04       		.byte	0x4
 6392 0104 05       		.byte	0x5
 6393 0105 A6       		.byte	0xa6
 6394 0106 21010000 		.4byte	0x121
 6395 010a 09       		.uleb128 0x9
 6396 010b 3F160000 		.4byte	.LASF22
 6397 010f 05       		.byte	0x5
 6398 0110 A8       		.byte	0xa8
 6399 0111 F6000000 		.4byte	0xf6
 6400 0115 09       		.uleb128 0x9
 6401 0116 BE0E0000 		.4byte	.LASF23
 6402 011a 05       		.byte	0x5
 6403 011b A9       		.byte	0xa9
 6404 011c 21010000 		.4byte	0x121
 6405 0120 00       		.byte	0
 6406 0121 0A       		.uleb128 0xa
 6407 0122 42000000 		.4byte	0x42
 6408 0126 31010000 		.4byte	0x131
 6409 012a 0B       		.uleb128 0xb
 6410 012b B1000000 		.4byte	0xb1
 6411 012f 03       		.byte	0x3
 6412 0130 00       		.byte	0
 6413 0131 0C       		.uleb128 0xc
 6414 0132 08       		.byte	0x8
 6415 0133 05       		.byte	0x5
 6416 0134 A3       		.byte	0xa3
ARM GAS  C:\Users\Moi\AppData\Local\Temp\ccAXdvuJ.s 			page 119


 6417 0135 52010000 		.4byte	0x152
 6418 0139 0D       		.uleb128 0xd
 6419 013a 610D0000 		.4byte	.LASF24
 6420 013e 05       		.byte	0x5
 6421 013f A5       		.byte	0xa5
 6422 0140 AA000000 		.4byte	0xaa
 6423 0144 00       		.byte	0
 6424 0145 0D       		.uleb128 0xd
 6425 0146 B01E0000 		.4byte	.LASF25
 6426 014a 05       		.byte	0x5
 6427 014b AA       		.byte	0xaa
 6428 014c 02010000 		.4byte	0x102
 6429 0150 04       		.byte	0x4
 6430 0151 00       		.byte	0
 6431 0152 02       		.uleb128 0x2
 6432 0153 CE1C0000 		.4byte	.LASF26
 6433 0157 05       		.byte	0x5
 6434 0158 AB       		.byte	0xab
 6435 0159 31010000 		.4byte	0x131
 6436 015d 02       		.uleb128 0x2
 6437 015e FB210000 		.4byte	.LASF27
 6438 0162 05       		.byte	0x5
 6439 0163 AF       		.byte	0xaf
 6440 0164 CA000000 		.4byte	0xca
 6441 0168 0E       		.uleb128 0xe
 6442 0169 04       		.byte	0x4
 6443 016a 02       		.uleb128 0x2
 6444 016b 02130000 		.4byte	.LASF28
 6445 016f 06       		.byte	0x6
 6446 0170 14       		.byte	0x14
 6447 0171 25000000 		.4byte	0x25
 6448 0175 02       		.uleb128 0x2
 6449 0176 690D0000 		.4byte	.LASF29
 6450 017a 06       		.byte	0x6
 6451 017b 18       		.byte	0x18
 6452 017c 37000000 		.4byte	0x37
 6453 0180 0F       		.uleb128 0xf
 6454 0181 75010000 		.4byte	0x175
 6455 0185 02       		.uleb128 0x2
 6456 0186 0E140000 		.4byte	.LASF30
 6457 018a 06       		.byte	0x6
 6458 018b 20       		.byte	0x20
 6459 018c 49000000 		.4byte	0x49
 6460 0190 02       		.uleb128 0x2
 6461 0191 29020000 		.4byte	.LASF31
 6462 0195 06       		.byte	0x6
 6463 0196 24       		.byte	0x24
 6464 0197 5B000000 		.4byte	0x5b
 6465 019b 02       		.uleb128 0x2
 6466 019c E0030000 		.4byte	.LASF32
 6467 01a0 06       		.byte	0x6
 6468 01a1 2C       		.byte	0x2c
 6469 01a2 6D000000 		.4byte	0x6d
 6470 01a6 10       		.uleb128 0x10
 6471 01a7 9B010000 		.4byte	0x19b
 6472 01ab 02       		.uleb128 0x2
 6473 01ac 21180000 		.4byte	.LASF33
ARM GAS  C:\Users\Moi\AppData\Local\Temp\ccAXdvuJ.s 			page 120


 6474 01b0 06       		.byte	0x6
 6475 01b1 30       		.byte	0x30
 6476 01b2 7F000000 		.4byte	0x7f
 6477 01b6 10       		.uleb128 0x10
 6478 01b7 AB010000 		.4byte	0x1ab
 6479 01bb 0F       		.uleb128 0xf
 6480 01bc B6010000 		.4byte	0x1b6
 6481 01c0 02       		.uleb128 0x2
 6482 01c1 DF0A0000 		.4byte	.LASF34
 6483 01c5 06       		.byte	0x6
 6484 01c6 3C       		.byte	0x3c
 6485 01c7 98000000 		.4byte	0x98
 6486 01cb 05       		.uleb128 0x5
 6487 01cc 04       		.byte	0x4
 6488 01cd D1010000 		.4byte	0x1d1
 6489 01d1 03       		.uleb128 0x3
 6490 01d2 01       		.byte	0x1
 6491 01d3 08       		.byte	0x8
 6492 01d4 40190000 		.4byte	.LASF35
 6493 01d8 0F       		.uleb128 0xf
 6494 01d9 D1010000 		.4byte	0x1d1
 6495 01dd 11       		.uleb128 0x11
 6496 01de 8B0E0000 		.4byte	.LASF36
 6497 01e2 07       		.byte	0x7
 6498 01e3 10       		.byte	0x10
 6499 01e4 E8010000 		.4byte	0x1e8
 6500 01e8 05       		.uleb128 0x5
 6501 01e9 04       		.byte	0x4
 6502 01ea CB010000 		.4byte	0x1cb
 6503 01ee 11       		.uleb128 0x11
 6504 01ef 07070000 		.4byte	.LASF37
 6505 01f3 07       		.byte	0x7
 6506 01f4 E8       		.byte	0xe8
 6507 01f5 CB010000 		.4byte	0x1cb
 6508 01f9 11       		.uleb128 0x11
 6509 01fa 7C220000 		.4byte	.LASF38
 6510 01fe 07       		.byte	0x7
 6511 01ff E9       		.byte	0xe9
 6512 0200 AA000000 		.4byte	0xaa
 6513 0204 11       		.uleb128 0x11
 6514 0205 DB150000 		.4byte	.LASF39
 6515 0209 07       		.byte	0x7
 6516 020a E9       		.byte	0xe9
 6517 020b AA000000 		.4byte	0xaa
 6518 020f 11       		.uleb128 0x11
 6519 0210 81130000 		.4byte	.LASF40
 6520 0214 07       		.byte	0x7
 6521 0215 E9       		.byte	0xe9
 6522 0216 AA000000 		.4byte	0xaa
 6523 021a 11       		.uleb128 0x11
 6524 021b 6C080000 		.4byte	.LASF41
 6525 021f 07       		.byte	0x7
 6526 0220 EB       		.byte	0xeb
 6527 0221 AA000000 		.4byte	0xaa
 6528 0225 12       		.uleb128 0x12
 6529 0226 CF0F0000 		.4byte	.LASF51
 6530 022a 5C       		.byte	0x5c
ARM GAS  C:\Users\Moi\AppData\Local\Temp\ccAXdvuJ.s 			page 121


 6531 022b 08       		.byte	0x8
 6532 022c 0C       		.byte	0xc
 6533 022d 92020000 		.4byte	0x292
 6534 0231 0D       		.uleb128 0xd
 6535 0232 861A0000 		.4byte	.LASF42
 6536 0236 08       		.byte	0x8
 6537 0237 0D       		.byte	0xd
 6538 0238 68010000 		.4byte	0x168
 6539 023c 00       		.byte	0
 6540 023d 0D       		.uleb128 0xd
 6541 023e 8A180000 		.4byte	.LASF43
 6542 0242 08       		.byte	0x8
 6543 0243 0E       		.byte	0xe
 6544 0244 B8000000 		.4byte	0xb8
 6545 0248 04       		.byte	0x4
 6546 0249 0D       		.uleb128 0xd
 6547 024a 0A1B0000 		.4byte	.LASF44
 6548 024e 08       		.byte	0x8
 6549 024f 0F       		.byte	0xf
 6550 0250 68010000 		.4byte	0x168
 6551 0254 08       		.byte	0x8
 6552 0255 0D       		.uleb128 0xd
 6553 0256 D3060000 		.4byte	.LASF45
 6554 025a 08       		.byte	0x8
 6555 025b 10       		.byte	0x10
 6556 025c 68010000 		.4byte	0x168
 6557 0260 0C       		.byte	0xc
 6558 0261 0D       		.uleb128 0xd
 6559 0262 F2120000 		.4byte	.LASF46
 6560 0266 08       		.byte	0x8
 6561 0267 11       		.byte	0x11
 6562 0268 92020000 		.4byte	0x292
 6563 026c 10       		.byte	0x10
 6564 026d 0D       		.uleb128 0xd
 6565 026e 6C010000 		.4byte	.LASF47
 6566 0272 08       		.byte	0x8
 6567 0273 12       		.byte	0x12
 6568 0274 A2020000 		.4byte	0x2a2
 6569 0278 51       		.byte	0x51
 6570 0279 0D       		.uleb128 0xd
 6571 027a 241F0000 		.4byte	.LASF48
 6572 027e 08       		.byte	0x8
 6573 027f 13       		.byte	0x13
 6574 0280 CE020000 		.4byte	0x2ce
 6575 0284 54       		.byte	0x54
 6576 0285 0D       		.uleb128 0xd
 6577 0286 5E020000 		.4byte	.LASF49
 6578 028a 08       		.byte	0x8
 6579 028b 14       		.byte	0x14
 6580 028c D4020000 		.4byte	0x2d4
 6581 0290 58       		.byte	0x58
 6582 0291 00       		.byte	0
 6583 0292 0A       		.uleb128 0xa
 6584 0293 D1010000 		.4byte	0x1d1
 6585 0297 A2020000 		.4byte	0x2a2
 6586 029b 0B       		.uleb128 0xb
 6587 029c B1000000 		.4byte	0xb1
ARM GAS  C:\Users\Moi\AppData\Local\Temp\ccAXdvuJ.s 			page 122


 6588 02a0 40       		.byte	0x40
 6589 02a1 00       		.byte	0
 6590 02a2 03       		.uleb128 0x3
 6591 02a3 01       		.byte	0x1
 6592 02a4 02       		.byte	0x2
 6593 02a5 29010000 		.4byte	.LASF50
 6594 02a9 12       		.uleb128 0x12
 6595 02aa 32000000 		.4byte	.LASF52
 6596 02ae 08       		.byte	0x8
 6597 02af 08       		.byte	0x8
 6598 02b0 25       		.byte	0x25
 6599 02b1 CE020000 		.4byte	0x2ce
 6600 02b5 0D       		.uleb128 0xd
 6601 02b6 431E0000 		.4byte	.LASF53
 6602 02ba 08       		.byte	0x8
 6603 02bb 26       		.byte	0x26
 6604 02bc 74030000 		.4byte	0x374
 6605 02c0 00       		.byte	0
 6606 02c1 0D       		.uleb128 0xd
 6607 02c2 5E020000 		.4byte	.LASF49
 6608 02c6 08       		.byte	0x8
 6609 02c7 27       		.byte	0x27
 6610 02c8 CE020000 		.4byte	0x2ce
 6611 02cc 04       		.byte	0x4
 6612 02cd 00       		.byte	0
 6613 02ce 05       		.uleb128 0x5
 6614 02cf 04       		.byte	0x4
 6615 02d0 A9020000 		.4byte	0x2a9
 6616 02d4 05       		.uleb128 0x5
 6617 02d5 04       		.byte	0x4
 6618 02d6 25020000 		.4byte	0x225
 6619 02da 02       		.uleb128 0x2
 6620 02db 5B170000 		.4byte	.LASF54
 6621 02df 08       		.byte	0x8
 6622 02e0 15       		.byte	0x15
 6623 02e1 25020000 		.4byte	0x225
 6624 02e5 0C       		.uleb128 0xc
 6625 02e6 04       		.byte	0x4
 6626 02e7 08       		.byte	0x8
 6627 02e8 18       		.byte	0x18
 6628 02e9 FA020000 		.4byte	0x2fa
 6629 02ed 0D       		.uleb128 0xd
 6630 02ee D61E0000 		.4byte	.LASF55
 6631 02f2 08       		.byte	0x8
 6632 02f3 19       		.byte	0x19
 6633 02f4 FA020000 		.4byte	0x2fa
 6634 02f8 00       		.byte	0
 6635 02f9 00       		.byte	0
 6636 02fa 05       		.uleb128 0x5
 6637 02fb 04       		.byte	0x4
 6638 02fc DA020000 		.4byte	0x2da
 6639 0300 0C       		.uleb128 0xc
 6640 0301 0C       		.byte	0xc
 6641 0302 08       		.byte	0x8
 6642 0303 17       		.byte	0x17
 6643 0304 2D030000 		.4byte	0x32d
 6644 0308 0D       		.uleb128 0xd
ARM GAS  C:\Users\Moi\AppData\Local\Temp\ccAXdvuJ.s 			page 123


 6645 0309 50200000 		.4byte	.LASF56
 6646 030d 08       		.byte	0x8
 6647 030e 1A       		.byte	0x1a
 6648 030f E5020000 		.4byte	0x2e5
 6649 0313 00       		.byte	0
 6650 0314 0D       		.uleb128 0xd
 6651 0315 0A1B0000 		.4byte	.LASF44
 6652 0319 08       		.byte	0x8
 6653 031a 1B       		.byte	0x1b
 6654 031b 68010000 		.4byte	0x168
 6655 031f 04       		.byte	0x4
 6656 0320 0D       		.uleb128 0xd
 6657 0321 D3060000 		.4byte	.LASF45
 6658 0325 08       		.byte	0x8
 6659 0326 1C       		.byte	0x1c
 6660 0327 68010000 		.4byte	0x168
 6661 032b 08       		.byte	0x8
 6662 032c 00       		.byte	0
 6663 032d 02       		.uleb128 0x2
 6664 032e A20F0000 		.4byte	.LASF57
 6665 0332 08       		.byte	0x8
 6666 0333 1D       		.byte	0x1d
 6667 0334 00030000 		.4byte	0x300
 6668 0338 12       		.uleb128 0x12
 6669 0339 CF1A0000 		.4byte	.LASF58
 6670 033d 0C       		.byte	0xc
 6671 033e 08       		.byte	0x8
 6672 033f 1F       		.byte	0x1f
 6673 0340 69030000 		.4byte	0x369
 6674 0344 0D       		.uleb128 0xd
 6675 0345 0A1B0000 		.4byte	.LASF44
 6676 0349 08       		.byte	0x8
 6677 034a 20       		.byte	0x20
 6678 034b 68010000 		.4byte	0x168
 6679 034f 00       		.byte	0
 6680 0350 0D       		.uleb128 0xd
 6681 0351 D3060000 		.4byte	.LASF45
 6682 0355 08       		.byte	0x8
 6683 0356 21       		.byte	0x21
 6684 0357 68010000 		.4byte	0x168
 6685 035b 04       		.byte	0x4
 6686 035c 0D       		.uleb128 0xd
 6687 035d EE250000 		.4byte	.LASF59
 6688 0361 08       		.byte	0x8
 6689 0362 22       		.byte	0x22
 6690 0363 FA020000 		.4byte	0x2fa
 6691 0367 08       		.byte	0x8
 6692 0368 00       		.byte	0
 6693 0369 02       		.uleb128 0x2
 6694 036a E71A0000 		.4byte	.LASF60
 6695 036e 08       		.byte	0x8
 6696 036f 23       		.byte	0x23
 6697 0370 38030000 		.4byte	0x338
 6698 0374 05       		.uleb128 0x5
 6699 0375 04       		.byte	0x4
 6700 0376 69030000 		.4byte	0x369
 6701 037a 02       		.uleb128 0x2
ARM GAS  C:\Users\Moi\AppData\Local\Temp\ccAXdvuJ.s 			page 124


 6702 037b 09130000 		.4byte	.LASF61
 6703 037f 09       		.byte	0x9
 6704 0380 16       		.byte	0x16
 6705 0381 8A000000 		.4byte	0x8a
 6706 0385 12       		.uleb128 0x12
 6707 0386 0C1A0000 		.4byte	.LASF62
 6708 038a 18       		.byte	0x18
 6709 038b 09       		.byte	0x9
 6710 038c 2F       		.byte	0x2f
 6711 038d D8030000 		.4byte	0x3d8
 6712 0391 0D       		.uleb128 0xd
 6713 0392 A0100000 		.4byte	.LASF63
 6714 0396 09       		.byte	0x9
 6715 0397 31       		.byte	0x31
 6716 0398 D8030000 		.4byte	0x3d8
 6717 039c 00       		.byte	0
 6718 039d 13       		.uleb128 0x13
 6719 039e 5F6B00   		.ascii	"_k\000"
 6720 03a1 09       		.byte	0x9
 6721 03a2 32       		.byte	0x32
 6722 03a3 AA000000 		.4byte	0xaa
 6723 03a7 04       		.byte	0x4
 6724 03a8 0D       		.uleb128 0xd
 6725 03a9 35180000 		.4byte	.LASF64
 6726 03ad 09       		.byte	0x9
 6727 03ae 32       		.byte	0x32
 6728 03af AA000000 		.4byte	0xaa
 6729 03b3 08       		.byte	0x8
 6730 03b4 0D       		.uleb128 0xd
 6731 03b5 66240000 		.4byte	.LASF65
 6732 03b9 09       		.byte	0x9
 6733 03ba 32       		.byte	0x32
 6734 03bb AA000000 		.4byte	0xaa
 6735 03bf 0C       		.byte	0xc
 6736 03c0 0D       		.uleb128 0xd
 6737 03c1 000A0000 		.4byte	.LASF66
 6738 03c5 09       		.byte	0x9
 6739 03c6 32       		.byte	0x32
 6740 03c7 AA000000 		.4byte	0xaa
 6741 03cb 10       		.byte	0x10
 6742 03cc 13       		.uleb128 0x13
 6743 03cd 5F7800   		.ascii	"_x\000"
 6744 03d0 09       		.byte	0x9
 6745 03d1 33       		.byte	0x33
 6746 03d2 DE030000 		.4byte	0x3de
 6747 03d6 14       		.byte	0x14
 6748 03d7 00       		.byte	0
 6749 03d8 05       		.uleb128 0x5
 6750 03d9 04       		.byte	0x4
 6751 03da 85030000 		.4byte	0x385
 6752 03de 0A       		.uleb128 0xa
 6753 03df 7A030000 		.4byte	0x37a
 6754 03e3 EE030000 		.4byte	0x3ee
 6755 03e7 0B       		.uleb128 0xb
 6756 03e8 B1000000 		.4byte	0xb1
 6757 03ec 00       		.byte	0
 6758 03ed 00       		.byte	0
ARM GAS  C:\Users\Moi\AppData\Local\Temp\ccAXdvuJ.s 			page 125


 6759 03ee 12       		.uleb128 0x12
 6760 03ef EA060000 		.4byte	.LASF67
 6761 03f3 24       		.byte	0x24
 6762 03f4 09       		.byte	0x9
 6763 03f5 37       		.byte	0x37
 6764 03f6 67040000 		.4byte	0x467
 6765 03fa 0D       		.uleb128 0xd
 6766 03fb E7110000 		.4byte	.LASF68
 6767 03ff 09       		.byte	0x9
 6768 0400 39       		.byte	0x39
 6769 0401 AA000000 		.4byte	0xaa
 6770 0405 00       		.byte	0
 6771 0406 0D       		.uleb128 0xd
 6772 0407 7E240000 		.4byte	.LASF69
 6773 040b 09       		.byte	0x9
 6774 040c 3A       		.byte	0x3a
 6775 040d AA000000 		.4byte	0xaa
 6776 0411 04       		.byte	0x4
 6777 0412 0D       		.uleb128 0xd
 6778 0413 DF0E0000 		.4byte	.LASF70
 6779 0417 09       		.byte	0x9
 6780 0418 3B       		.byte	0x3b
 6781 0419 AA000000 		.4byte	0xaa
 6782 041d 08       		.byte	0x8
 6783 041e 0D       		.uleb128 0xd
 6784 041f 1E090000 		.4byte	.LASF71
 6785 0423 09       		.byte	0x9
 6786 0424 3C       		.byte	0x3c
 6787 0425 AA000000 		.4byte	0xaa
 6788 0429 0C       		.byte	0xc
 6789 042a 0D       		.uleb128 0xd
 6790 042b B7010000 		.4byte	.LASF72
 6791 042f 09       		.byte	0x9
 6792 0430 3D       		.byte	0x3d
 6793 0431 AA000000 		.4byte	0xaa
 6794 0435 10       		.byte	0x10
 6795 0436 0D       		.uleb128 0xd
 6796 0437 3F0B0000 		.4byte	.LASF73
 6797 043b 09       		.byte	0x9
 6798 043c 3E       		.byte	0x3e
 6799 043d AA000000 		.4byte	0xaa
 6800 0441 14       		.byte	0x14
 6801 0442 0D       		.uleb128 0xd
 6802 0443 14090000 		.4byte	.LASF74
 6803 0447 09       		.byte	0x9
 6804 0448 3F       		.byte	0x3f
 6805 0449 AA000000 		.4byte	0xaa
 6806 044d 18       		.byte	0x18
 6807 044e 0D       		.uleb128 0xd
 6808 044f 53070000 		.4byte	.LASF75
 6809 0453 09       		.byte	0x9
 6810 0454 40       		.byte	0x40
 6811 0455 AA000000 		.4byte	0xaa
 6812 0459 1C       		.byte	0x1c
 6813 045a 0D       		.uleb128 0xd
 6814 045b 99250000 		.4byte	.LASF76
 6815 045f 09       		.byte	0x9
ARM GAS  C:\Users\Moi\AppData\Local\Temp\ccAXdvuJ.s 			page 126


 6816 0460 41       		.byte	0x41
 6817 0461 AA000000 		.4byte	0xaa
 6818 0465 20       		.byte	0x20
 6819 0466 00       		.byte	0
 6820 0467 14       		.uleb128 0x14
 6821 0468 08120000 		.4byte	.LASF77
 6822 046c 0801     		.2byte	0x108
 6823 046e 09       		.byte	0x9
 6824 046f 4A       		.byte	0x4a
 6825 0470 A7040000 		.4byte	0x4a7
 6826 0474 0D       		.uleb128 0xd
 6827 0475 0A100000 		.4byte	.LASF78
 6828 0479 09       		.byte	0x9
 6829 047a 4B       		.byte	0x4b
 6830 047b A7040000 		.4byte	0x4a7
 6831 047f 00       		.byte	0
 6832 0480 0D       		.uleb128 0xd
 6833 0481 D1080000 		.4byte	.LASF79
 6834 0485 09       		.byte	0x9
 6835 0486 4C       		.byte	0x4c
 6836 0487 A7040000 		.4byte	0x4a7
 6837 048b 80       		.byte	0x80
 6838 048c 15       		.uleb128 0x15
 6839 048d C0010000 		.4byte	.LASF80
 6840 0491 09       		.byte	0x9
 6841 0492 4E       		.byte	0x4e
 6842 0493 7A030000 		.4byte	0x37a
 6843 0497 0001     		.2byte	0x100
 6844 0499 15       		.uleb128 0x15
 6845 049a CE1E0000 		.4byte	.LASF81
 6846 049e 09       		.byte	0x9
 6847 049f 51       		.byte	0x51
 6848 04a0 7A030000 		.4byte	0x37a
 6849 04a4 0401     		.2byte	0x104
 6850 04a6 00       		.byte	0
 6851 04a7 0A       		.uleb128 0xa
 6852 04a8 68010000 		.4byte	0x168
 6853 04ac B7040000 		.4byte	0x4b7
 6854 04b0 0B       		.uleb128 0xb
 6855 04b1 B1000000 		.4byte	0xb1
 6856 04b5 1F       		.byte	0x1f
 6857 04b6 00       		.byte	0
 6858 04b7 14       		.uleb128 0x14
 6859 04b8 47010000 		.4byte	.LASF82
 6860 04bc 9001     		.2byte	0x190
 6861 04be 09       		.byte	0x9
 6862 04bf 5D       		.byte	0x5d
 6863 04c0 F5040000 		.4byte	0x4f5
 6864 04c4 0D       		.uleb128 0xd
 6865 04c5 A0100000 		.4byte	.LASF63
 6866 04c9 09       		.byte	0x9
 6867 04ca 5E       		.byte	0x5e
 6868 04cb F5040000 		.4byte	0x4f5
 6869 04cf 00       		.byte	0
 6870 04d0 0D       		.uleb128 0xd
 6871 04d1 DC010000 		.4byte	.LASF83
 6872 04d5 09       		.byte	0x9
ARM GAS  C:\Users\Moi\AppData\Local\Temp\ccAXdvuJ.s 			page 127


 6873 04d6 5F       		.byte	0x5f
 6874 04d7 AA000000 		.4byte	0xaa
 6875 04db 04       		.byte	0x4
 6876 04dc 0D       		.uleb128 0xd
 6877 04dd 971C0000 		.4byte	.LASF84
 6878 04e1 09       		.byte	0x9
 6879 04e2 61       		.byte	0x61
 6880 04e3 FB040000 		.4byte	0x4fb
 6881 04e7 08       		.byte	0x8
 6882 04e8 0D       		.uleb128 0xd
 6883 04e9 08120000 		.4byte	.LASF77
 6884 04ed 09       		.byte	0x9
 6885 04ee 62       		.byte	0x62
 6886 04ef 67040000 		.4byte	0x467
 6887 04f3 88       		.byte	0x88
 6888 04f4 00       		.byte	0
 6889 04f5 05       		.uleb128 0x5
 6890 04f6 04       		.byte	0x4
 6891 04f7 B7040000 		.4byte	0x4b7
 6892 04fb 0A       		.uleb128 0xa
 6893 04fc 0B050000 		.4byte	0x50b
 6894 0500 0B050000 		.4byte	0x50b
 6895 0504 0B       		.uleb128 0xb
 6896 0505 B1000000 		.4byte	0xb1
 6897 0509 1F       		.byte	0x1f
 6898 050a 00       		.byte	0
 6899 050b 05       		.uleb128 0x5
 6900 050c 04       		.byte	0x4
 6901 050d 11050000 		.4byte	0x511
 6902 0511 16       		.uleb128 0x16
 6903 0512 12       		.uleb128 0x12
 6904 0513 A4150000 		.4byte	.LASF85
 6905 0517 08       		.byte	0x8
 6906 0518 09       		.byte	0x9
 6907 0519 75       		.byte	0x75
 6908 051a 37050000 		.4byte	0x537
 6909 051e 0D       		.uleb128 0xd
 6910 051f 57060000 		.4byte	.LASF86
 6911 0523 09       		.byte	0x9
 6912 0524 76       		.byte	0x76
 6913 0525 37050000 		.4byte	0x537
 6914 0529 00       		.byte	0
 6915 052a 0D       		.uleb128 0xd
 6916 052b 3D0A0000 		.4byte	.LASF87
 6917 052f 09       		.byte	0x9
 6918 0530 77       		.byte	0x77
 6919 0531 AA000000 		.4byte	0xaa
 6920 0535 04       		.byte	0x4
 6921 0536 00       		.byte	0
 6922 0537 05       		.uleb128 0x5
 6923 0538 04       		.byte	0x4
 6924 0539 42000000 		.4byte	0x42
 6925 053d 12       		.uleb128 0x12
 6926 053e 8F1C0000 		.4byte	.LASF88
 6927 0542 68       		.byte	0x68
 6928 0543 09       		.byte	0x9
 6929 0544 B5       		.byte	0xb5
ARM GAS  C:\Users\Moi\AppData\Local\Temp\ccAXdvuJ.s 			page 128


 6930 0545 67060000 		.4byte	0x667
 6931 0549 13       		.uleb128 0x13
 6932 054a 5F7000   		.ascii	"_p\000"
 6933 054d 09       		.byte	0x9
 6934 054e B6       		.byte	0xb6
 6935 054f 37050000 		.4byte	0x537
 6936 0553 00       		.byte	0
 6937 0554 13       		.uleb128 0x13
 6938 0555 5F7200   		.ascii	"_r\000"
 6939 0558 09       		.byte	0x9
 6940 0559 B7       		.byte	0xb7
 6941 055a AA000000 		.4byte	0xaa
 6942 055e 04       		.byte	0x4
 6943 055f 13       		.uleb128 0x13
 6944 0560 5F7700   		.ascii	"_w\000"
 6945 0563 09       		.byte	0x9
 6946 0564 B8       		.byte	0xb8
 6947 0565 AA000000 		.4byte	0xaa
 6948 0569 08       		.byte	0x8
 6949 056a 0D       		.uleb128 0xd
 6950 056b 57020000 		.4byte	.LASF89
 6951 056f 09       		.byte	0x9
 6952 0570 B9       		.byte	0xb9
 6953 0571 54000000 		.4byte	0x54
 6954 0575 0C       		.byte	0xc
 6955 0576 0D       		.uleb128 0xd
 6956 0577 4B1C0000 		.4byte	.LASF90
 6957 057b 09       		.byte	0x9
 6958 057c BA       		.byte	0xba
 6959 057d 54000000 		.4byte	0x54
 6960 0581 0E       		.byte	0xe
 6961 0582 13       		.uleb128 0x13
 6962 0583 5F626600 		.ascii	"_bf\000"
 6963 0587 09       		.byte	0x9
 6964 0588 BB       		.byte	0xbb
 6965 0589 12050000 		.4byte	0x512
 6966 058d 10       		.byte	0x10
 6967 058e 0D       		.uleb128 0xd
 6968 058f 9E040000 		.4byte	.LASF91
 6969 0593 09       		.byte	0x9
 6970 0594 BC       		.byte	0xbc
 6971 0595 AA000000 		.4byte	0xaa
 6972 0599 18       		.byte	0x18
 6973 059a 0D       		.uleb128 0xd
 6974 059b FD100000 		.4byte	.LASF92
 6975 059f 09       		.byte	0x9
 6976 05a0 C3       		.byte	0xc3
 6977 05a1 68010000 		.4byte	0x168
 6978 05a5 1C       		.byte	0x1c
 6979 05a6 0D       		.uleb128 0xd
 6980 05a7 5A250000 		.4byte	.LASF93
 6981 05ab 09       		.byte	0x9
 6982 05ac C5       		.byte	0xc5
 6983 05ad C2070000 		.4byte	0x7c2
 6984 05b1 20       		.byte	0x20
 6985 05b2 0D       		.uleb128 0xd
 6986 05b3 9B0A0000 		.4byte	.LASF94
ARM GAS  C:\Users\Moi\AppData\Local\Temp\ccAXdvuJ.s 			page 129


 6987 05b7 09       		.byte	0x9
 6988 05b8 C7       		.byte	0xc7
 6989 05b9 F1070000 		.4byte	0x7f1
 6990 05bd 24       		.byte	0x24
 6991 05be 0D       		.uleb128 0xd
 6992 05bf F6130000 		.4byte	.LASF95
 6993 05c3 09       		.byte	0x9
 6994 05c4 CA       		.byte	0xca
 6995 05c5 15080000 		.4byte	0x815
 6996 05c9 28       		.byte	0x28
 6997 05ca 0D       		.uleb128 0xd
 6998 05cb 39190000 		.4byte	.LASF96
 6999 05cf 09       		.byte	0x9
 7000 05d0 CB       		.byte	0xcb
 7001 05d1 2F080000 		.4byte	0x82f
 7002 05d5 2C       		.byte	0x2c
 7003 05d6 13       		.uleb128 0x13
 7004 05d7 5F756200 		.ascii	"_ub\000"
 7005 05db 09       		.byte	0x9
 7006 05dc CE       		.byte	0xce
 7007 05dd 12050000 		.4byte	0x512
 7008 05e1 30       		.byte	0x30
 7009 05e2 13       		.uleb128 0x13
 7010 05e3 5F757000 		.ascii	"_up\000"
 7011 05e7 09       		.byte	0x9
 7012 05e8 CF       		.byte	0xcf
 7013 05e9 37050000 		.4byte	0x537
 7014 05ed 38       		.byte	0x38
 7015 05ee 13       		.uleb128 0x13
 7016 05ef 5F757200 		.ascii	"_ur\000"
 7017 05f3 09       		.byte	0x9
 7018 05f4 D0       		.byte	0xd0
 7019 05f5 AA000000 		.4byte	0xaa
 7020 05f9 3C       		.byte	0x3c
 7021 05fa 0D       		.uleb128 0xd
 7022 05fb 8F1B0000 		.4byte	.LASF97
 7023 05ff 09       		.byte	0x9
 7024 0600 D3       		.byte	0xd3
 7025 0601 35080000 		.4byte	0x835
 7026 0605 40       		.byte	0x40
 7027 0606 0D       		.uleb128 0xd
 7028 0607 02030000 		.4byte	.LASF98
 7029 060b 09       		.byte	0x9
 7030 060c D4       		.byte	0xd4
 7031 060d 45080000 		.4byte	0x845
 7032 0611 43       		.byte	0x43
 7033 0612 13       		.uleb128 0x13
 7034 0613 5F6C6200 		.ascii	"_lb\000"
 7035 0617 09       		.byte	0x9
 7036 0618 D7       		.byte	0xd7
 7037 0619 12050000 		.4byte	0x512
 7038 061d 44       		.byte	0x44
 7039 061e 0D       		.uleb128 0xd
 7040 061f 7D1B0000 		.4byte	.LASF99
 7041 0623 09       		.byte	0x9
 7042 0624 DA       		.byte	0xda
 7043 0625 AA000000 		.4byte	0xaa
ARM GAS  C:\Users\Moi\AppData\Local\Temp\ccAXdvuJ.s 			page 130


 7044 0629 4C       		.byte	0x4c
 7045 062a 0D       		.uleb128 0xd
 7046 062b 42150000 		.4byte	.LASF100
 7047 062f 09       		.byte	0x9
 7048 0630 DB       		.byte	0xdb
 7049 0631 E0000000 		.4byte	0xe0
 7050 0635 50       		.byte	0x50
 7051 0636 0D       		.uleb128 0xd
 7052 0637 2F050000 		.4byte	.LASF101
 7053 063b 09       		.byte	0x9
 7054 063c DE       		.byte	0xde
 7055 063d 85060000 		.4byte	0x685
 7056 0641 54       		.byte	0x54
 7057 0642 0D       		.uleb128 0xd
 7058 0643 FC020000 		.4byte	.LASF102
 7059 0647 09       		.byte	0x9
 7060 0648 E2       		.byte	0xe2
 7061 0649 5D010000 		.4byte	0x15d
 7062 064d 58       		.byte	0x58
 7063 064e 0D       		.uleb128 0xd
 7064 064f 3E010000 		.4byte	.LASF103
 7065 0653 09       		.byte	0x9
 7066 0654 E4       		.byte	0xe4
 7067 0655 52010000 		.4byte	0x152
 7068 0659 5C       		.byte	0x5c
 7069 065a 0D       		.uleb128 0xd
 7070 065b D9220000 		.4byte	.LASF104
 7071 065f 09       		.byte	0x9
 7072 0660 E5       		.byte	0xe5
 7073 0661 AA000000 		.4byte	0xaa
 7074 0665 64       		.byte	0x64
 7075 0666 00       		.byte	0
 7076 0667 17       		.uleb128 0x17
 7077 0668 AA000000 		.4byte	0xaa
 7078 066c 85060000 		.4byte	0x685
 7079 0670 18       		.uleb128 0x18
 7080 0671 85060000 		.4byte	0x685
 7081 0675 18       		.uleb128 0x18
 7082 0676 68010000 		.4byte	0x168
 7083 067a 18       		.uleb128 0x18
 7084 067b CB010000 		.4byte	0x1cb
 7085 067f 18       		.uleb128 0x18
 7086 0680 AA000000 		.4byte	0xaa
 7087 0684 00       		.byte	0
 7088 0685 05       		.uleb128 0x5
 7089 0686 04       		.byte	0x4
 7090 0687 90060000 		.4byte	0x690
 7091 068b 0F       		.uleb128 0xf
 7092 068c 85060000 		.4byte	0x685
 7093 0690 19       		.uleb128 0x19
 7094 0691 F9050000 		.4byte	.LASF105
 7095 0695 2804     		.2byte	0x428
 7096 0697 09       		.byte	0x9
 7097 0698 3902     		.2byte	0x239
 7098 069a C2070000 		.4byte	0x7c2
 7099 069e 1A       		.uleb128 0x1a
 7100 069f 9B0F0000 		.4byte	.LASF106
ARM GAS  C:\Users\Moi\AppData\Local\Temp\ccAXdvuJ.s 			page 131


 7101 06a3 09       		.byte	0x9
 7102 06a4 3B02     		.2byte	0x23b
 7103 06a6 AA000000 		.4byte	0xaa
 7104 06aa 00       		.byte	0
 7105 06ab 1A       		.uleb128 0x1a
 7106 06ac 3D0C0000 		.4byte	.LASF107
 7107 06b0 09       		.byte	0x9
 7108 06b1 4002     		.2byte	0x240
 7109 06b3 9C080000 		.4byte	0x89c
 7110 06b7 04       		.byte	0x4
 7111 06b8 1A       		.uleb128 0x1a
 7112 06b9 99090000 		.4byte	.LASF108
 7113 06bd 09       		.byte	0x9
 7114 06be 4002     		.2byte	0x240
 7115 06c0 9C080000 		.4byte	0x89c
 7116 06c4 08       		.byte	0x8
 7117 06c5 1A       		.uleb128 0x1a
 7118 06c6 B1080000 		.4byte	.LASF109
 7119 06ca 09       		.byte	0x9
 7120 06cb 4002     		.2byte	0x240
 7121 06cd 9C080000 		.4byte	0x89c
 7122 06d1 0C       		.byte	0xc
 7123 06d2 1A       		.uleb128 0x1a
 7124 06d3 D7010000 		.4byte	.LASF110
 7125 06d7 09       		.byte	0x9
 7126 06d8 4202     		.2byte	0x242
 7127 06da AA000000 		.4byte	0xaa
 7128 06de 10       		.byte	0x10
 7129 06df 1A       		.uleb128 0x1a
 7130 06e0 B9170000 		.4byte	.LASF111
 7131 06e4 09       		.byte	0x9
 7132 06e5 4302     		.2byte	0x243
 7133 06e7 7E0A0000 		.4byte	0xa7e
 7134 06eb 14       		.byte	0x14
 7135 06ec 1A       		.uleb128 0x1a
 7136 06ed 44210000 		.4byte	.LASF112
 7137 06f1 09       		.byte	0x9
 7138 06f2 4602     		.2byte	0x246
 7139 06f4 AA000000 		.4byte	0xaa
 7140 06f8 30       		.byte	0x30
 7141 06f9 1A       		.uleb128 0x1a
 7142 06fa 1A230000 		.4byte	.LASF113
 7143 06fe 09       		.byte	0x9
 7144 06ff 4702     		.2byte	0x247
 7145 0701 930A0000 		.4byte	0xa93
 7146 0705 34       		.byte	0x34
 7147 0706 1A       		.uleb128 0x1a
 7148 0707 A8210000 		.4byte	.LASF114
 7149 070b 09       		.byte	0x9
 7150 070c 4902     		.2byte	0x249
 7151 070e AA000000 		.4byte	0xaa
 7152 0712 38       		.byte	0x38
 7153 0713 1A       		.uleb128 0x1a
 7154 0714 D21B0000 		.4byte	.LASF115
 7155 0718 09       		.byte	0x9
 7156 0719 4B02     		.2byte	0x24b
 7157 071b A40A0000 		.4byte	0xaa4
ARM GAS  C:\Users\Moi\AppData\Local\Temp\ccAXdvuJ.s 			page 132


 7158 071f 3C       		.byte	0x3c
 7159 0720 1A       		.uleb128 0x1a
 7160 0721 B9080000 		.4byte	.LASF116
 7161 0725 09       		.byte	0x9
 7162 0726 4E02     		.2byte	0x24e
 7163 0728 D8030000 		.4byte	0x3d8
 7164 072c 40       		.byte	0x40
 7165 072d 1A       		.uleb128 0x1a
 7166 072e A2080000 		.4byte	.LASF117
 7167 0732 09       		.byte	0x9
 7168 0733 4F02     		.2byte	0x24f
 7169 0735 AA000000 		.4byte	0xaa
 7170 0739 44       		.byte	0x44
 7171 073a 1A       		.uleb128 0x1a
 7172 073b 011F0000 		.4byte	.LASF118
 7173 073f 09       		.byte	0x9
 7174 0740 5002     		.2byte	0x250
 7175 0742 D8030000 		.4byte	0x3d8
 7176 0746 48       		.byte	0x48
 7177 0747 1A       		.uleb128 0x1a
 7178 0748 0F150000 		.4byte	.LASF119
 7179 074c 09       		.byte	0x9
 7180 074d 5102     		.2byte	0x251
 7181 074f AA0A0000 		.4byte	0xaaa
 7182 0753 4C       		.byte	0x4c
 7183 0754 1A       		.uleb128 0x1a
 7184 0755 98020000 		.4byte	.LASF120
 7185 0759 09       		.byte	0x9
 7186 075a 5402     		.2byte	0x254
 7187 075c AA000000 		.4byte	0xaa
 7188 0760 50       		.byte	0x50
 7189 0761 1A       		.uleb128 0x1a
 7190 0762 170E0000 		.4byte	.LASF121
 7191 0766 09       		.byte	0x9
 7192 0767 5502     		.2byte	0x255
 7193 0769 CB010000 		.4byte	0x1cb
 7194 076d 54       		.byte	0x54
 7195 076e 1A       		.uleb128 0x1a
 7196 076f 250F0000 		.4byte	.LASF122
 7197 0773 09       		.byte	0x9
 7198 0774 7802     		.2byte	0x278
 7199 0776 5C0A0000 		.4byte	0xa5c
 7200 077a 58       		.byte	0x58
 7201 077b 1B       		.uleb128 0x1b
 7202 077c 47010000 		.4byte	.LASF82
 7203 0780 09       		.byte	0x9
 7204 0781 7C02     		.2byte	0x27c
 7205 0783 F5040000 		.4byte	0x4f5
 7206 0787 4801     		.2byte	0x148
 7207 0789 1B       		.uleb128 0x1b
 7208 078a 3C1A0000 		.4byte	.LASF123
 7209 078e 09       		.byte	0x9
 7210 078f 7D02     		.2byte	0x27d
 7211 0791 B7040000 		.4byte	0x4b7
 7212 0795 4C01     		.2byte	0x14c
 7213 0797 1B       		.uleb128 0x1b
 7214 0798 C6020000 		.4byte	.LASF124
ARM GAS  C:\Users\Moi\AppData\Local\Temp\ccAXdvuJ.s 			page 133


 7215 079c 09       		.byte	0x9
 7216 079d 8102     		.2byte	0x281
 7217 079f BB0A0000 		.4byte	0xabb
 7218 07a3 DC02     		.2byte	0x2dc
 7219 07a5 1B       		.uleb128 0x1b
 7220 07a6 B01B0000 		.4byte	.LASF125
 7221 07aa 09       		.byte	0x9
 7222 07ab 8602     		.2byte	0x286
 7223 07ad 61080000 		.4byte	0x861
 7224 07b1 E002     		.2byte	0x2e0
 7225 07b3 1B       		.uleb128 0x1b
 7226 07b4 40060000 		.4byte	.LASF126
 7227 07b8 09       		.byte	0x9
 7228 07b9 8802     		.2byte	0x288
 7229 07bb C70A0000 		.4byte	0xac7
 7230 07bf EC02     		.2byte	0x2ec
 7231 07c1 00       		.byte	0
 7232 07c2 05       		.uleb128 0x5
 7233 07c3 04       		.byte	0x4
 7234 07c4 67060000 		.4byte	0x667
 7235 07c8 17       		.uleb128 0x17
 7236 07c9 AA000000 		.4byte	0xaa
 7237 07cd E6070000 		.4byte	0x7e6
 7238 07d1 18       		.uleb128 0x18
 7239 07d2 85060000 		.4byte	0x685
 7240 07d6 18       		.uleb128 0x18
 7241 07d7 68010000 		.4byte	0x168
 7242 07db 18       		.uleb128 0x18
 7243 07dc E6070000 		.4byte	0x7e6
 7244 07e0 18       		.uleb128 0x18
 7245 07e1 AA000000 		.4byte	0xaa
 7246 07e5 00       		.byte	0
 7247 07e6 05       		.uleb128 0x5
 7248 07e7 04       		.byte	0x4
 7249 07e8 D8010000 		.4byte	0x1d8
 7250 07ec 10       		.uleb128 0x10
 7251 07ed E6070000 		.4byte	0x7e6
 7252 07f1 05       		.uleb128 0x5
 7253 07f2 04       		.byte	0x4
 7254 07f3 C8070000 		.4byte	0x7c8
 7255 07f7 17       		.uleb128 0x17
 7256 07f8 EB000000 		.4byte	0xeb
 7257 07fc 15080000 		.4byte	0x815
 7258 0800 18       		.uleb128 0x18
 7259 0801 85060000 		.4byte	0x685
 7260 0805 18       		.uleb128 0x18
 7261 0806 68010000 		.4byte	0x168
 7262 080a 18       		.uleb128 0x18
 7263 080b EB000000 		.4byte	0xeb
 7264 080f 18       		.uleb128 0x18
 7265 0810 AA000000 		.4byte	0xaa
 7266 0814 00       		.byte	0
 7267 0815 05       		.uleb128 0x5
 7268 0816 04       		.byte	0x4
 7269 0817 F7070000 		.4byte	0x7f7
 7270 081b 17       		.uleb128 0x17
 7271 081c AA000000 		.4byte	0xaa
ARM GAS  C:\Users\Moi\AppData\Local\Temp\ccAXdvuJ.s 			page 134


 7272 0820 2F080000 		.4byte	0x82f
 7273 0824 18       		.uleb128 0x18
 7274 0825 85060000 		.4byte	0x685
 7275 0829 18       		.uleb128 0x18
 7276 082a 68010000 		.4byte	0x168
 7277 082e 00       		.byte	0
 7278 082f 05       		.uleb128 0x5
 7279 0830 04       		.byte	0x4
 7280 0831 1B080000 		.4byte	0x81b
 7281 0835 0A       		.uleb128 0xa
 7282 0836 42000000 		.4byte	0x42
 7283 083a 45080000 		.4byte	0x845
 7284 083e 0B       		.uleb128 0xb
 7285 083f B1000000 		.4byte	0xb1
 7286 0843 02       		.byte	0x2
 7287 0844 00       		.byte	0
 7288 0845 0A       		.uleb128 0xa
 7289 0846 42000000 		.4byte	0x42
 7290 084a 55080000 		.4byte	0x855
 7291 084e 0B       		.uleb128 0xb
 7292 084f B1000000 		.4byte	0xb1
 7293 0853 00       		.byte	0
 7294 0854 00       		.byte	0
 7295 0855 07       		.uleb128 0x7
 7296 0856 55240000 		.4byte	.LASF127
 7297 085a 09       		.byte	0x9
 7298 085b 1F01     		.2byte	0x11f
 7299 085d 3D050000 		.4byte	0x53d
 7300 0861 1C       		.uleb128 0x1c
 7301 0862 75190000 		.4byte	.LASF128
 7302 0866 0C       		.byte	0xc
 7303 0867 09       		.byte	0x9
 7304 0868 2301     		.2byte	0x123
 7305 086a 96080000 		.4byte	0x896
 7306 086e 1A       		.uleb128 0x1a
 7307 086f A0100000 		.4byte	.LASF63
 7308 0873 09       		.byte	0x9
 7309 0874 2501     		.2byte	0x125
 7310 0876 96080000 		.4byte	0x896
 7311 087a 00       		.byte	0
 7312 087b 1A       		.uleb128 0x1a
 7313 087c 540F0000 		.4byte	.LASF129
 7314 0880 09       		.byte	0x9
 7315 0881 2601     		.2byte	0x126
 7316 0883 AA000000 		.4byte	0xaa
 7317 0887 04       		.byte	0x4
 7318 0888 1A       		.uleb128 0x1a
 7319 0889 B3170000 		.4byte	.LASF130
 7320 088d 09       		.byte	0x9
 7321 088e 2701     		.2byte	0x127
 7322 0890 9C080000 		.4byte	0x89c
 7323 0894 08       		.byte	0x8
 7324 0895 00       		.byte	0
 7325 0896 05       		.uleb128 0x5
 7326 0897 04       		.byte	0x4
 7327 0898 61080000 		.4byte	0x861
 7328 089c 05       		.uleb128 0x5
ARM GAS  C:\Users\Moi\AppData\Local\Temp\ccAXdvuJ.s 			page 135


 7329 089d 04       		.byte	0x4
 7330 089e 55080000 		.4byte	0x855
 7331 08a2 1C       		.uleb128 0x1c
 7332 08a3 85250000 		.4byte	.LASF131
 7333 08a7 0E       		.byte	0xe
 7334 08a8 09       		.byte	0x9
 7335 08a9 3F01     		.2byte	0x13f
 7336 08ab D7080000 		.4byte	0x8d7
 7337 08af 1A       		.uleb128 0x1a
 7338 08b0 E1130000 		.4byte	.LASF132
 7339 08b4 09       		.byte	0x9
 7340 08b5 4001     		.2byte	0x140
 7341 08b7 D7080000 		.4byte	0x8d7
 7342 08bb 00       		.byte	0
 7343 08bc 1A       		.uleb128 0x1a
 7344 08bd 990B0000 		.4byte	.LASF133
 7345 08c1 09       		.byte	0x9
 7346 08c2 4101     		.2byte	0x141
 7347 08c4 D7080000 		.4byte	0x8d7
 7348 08c8 06       		.byte	0x6
 7349 08c9 1A       		.uleb128 0x1a
 7350 08ca 0E040000 		.4byte	.LASF134
 7351 08ce 09       		.byte	0x9
 7352 08cf 4201     		.2byte	0x142
 7353 08d1 66000000 		.4byte	0x66
 7354 08d5 0C       		.byte	0xc
 7355 08d6 00       		.byte	0
 7356 08d7 0A       		.uleb128 0xa
 7357 08d8 66000000 		.4byte	0x66
 7358 08dc E7080000 		.4byte	0x8e7
 7359 08e0 0B       		.uleb128 0xb
 7360 08e1 B1000000 		.4byte	0xb1
 7361 08e5 02       		.byte	0x2
 7362 08e6 00       		.byte	0
 7363 08e7 1D       		.uleb128 0x1d
 7364 08e8 D0       		.byte	0xd0
 7365 08e9 09       		.byte	0x9
 7366 08ea 5902     		.2byte	0x259
 7367 08ec E8090000 		.4byte	0x9e8
 7368 08f0 1A       		.uleb128 0x1a
 7369 08f1 FD070000 		.4byte	.LASF135
 7370 08f5 09       		.byte	0x9
 7371 08f6 5B02     		.2byte	0x25b
 7372 08f8 B1000000 		.4byte	0xb1
 7373 08fc 00       		.byte	0
 7374 08fd 1A       		.uleb128 0x1a
 7375 08fe 97130000 		.4byte	.LASF136
 7376 0902 09       		.byte	0x9
 7377 0903 5C02     		.2byte	0x25c
 7378 0905 CB010000 		.4byte	0x1cb
 7379 0909 04       		.byte	0x4
 7380 090a 1A       		.uleb128 0x1a
 7381 090b 13160000 		.4byte	.LASF137
 7382 090f 09       		.byte	0x9
 7383 0910 5D02     		.2byte	0x25d
 7384 0912 E8090000 		.4byte	0x9e8
 7385 0916 08       		.byte	0x8
ARM GAS  C:\Users\Moi\AppData\Local\Temp\ccAXdvuJ.s 			page 136


 7386 0917 1A       		.uleb128 0x1a
 7387 0918 320D0000 		.4byte	.LASF138
 7388 091c 09       		.byte	0x9
 7389 091d 5E02     		.2byte	0x25e
 7390 091f EE030000 		.4byte	0x3ee
 7391 0923 24       		.byte	0x24
 7392 0924 1A       		.uleb128 0x1a
 7393 0925 64200000 		.4byte	.LASF139
 7394 0929 09       		.byte	0x9
 7395 092a 5F02     		.2byte	0x25f
 7396 092c AA000000 		.4byte	0xaa
 7397 0930 48       		.byte	0x48
 7398 0931 1A       		.uleb128 0x1a
 7399 0932 ED170000 		.4byte	.LASF140
 7400 0936 09       		.byte	0x9
 7401 0937 6002     		.2byte	0x260
 7402 0939 A3000000 		.4byte	0xa3
 7403 093d 50       		.byte	0x50
 7404 093e 1A       		.uleb128 0x1a
 7405 093f ED240000 		.4byte	.LASF141
 7406 0943 09       		.byte	0x9
 7407 0944 6102     		.2byte	0x261
 7408 0946 A2080000 		.4byte	0x8a2
 7409 094a 58       		.byte	0x58
 7410 094b 1A       		.uleb128 0x1a
 7411 094c A31B0000 		.4byte	.LASF142
 7412 0950 09       		.byte	0x9
 7413 0951 6202     		.2byte	0x262
 7414 0953 52010000 		.4byte	0x152
 7415 0957 68       		.byte	0x68
 7416 0958 1A       		.uleb128 0x1a
 7417 0959 6F060000 		.4byte	.LASF143
 7418 095d 09       		.byte	0x9
 7419 095e 6302     		.2byte	0x263
 7420 0960 52010000 		.4byte	0x152
 7421 0964 70       		.byte	0x70
 7422 0965 1A       		.uleb128 0x1a
 7423 0966 1C170000 		.4byte	.LASF144
 7424 096a 09       		.byte	0x9
 7425 096b 6402     		.2byte	0x264
 7426 096d 52010000 		.4byte	0x152
 7427 0971 78       		.byte	0x78
 7428 0972 1A       		.uleb128 0x1a
 7429 0973 CC150000 		.4byte	.LASF145
 7430 0977 09       		.byte	0x9
 7431 0978 6502     		.2byte	0x265
 7432 097a F8090000 		.4byte	0x9f8
 7433 097e 80       		.byte	0x80
 7434 097f 1A       		.uleb128 0x1a
 7435 0980 D6100000 		.4byte	.LASF146
 7436 0984 09       		.byte	0x9
 7437 0985 6602     		.2byte	0x266
 7438 0987 080A0000 		.4byte	0xa08
 7439 098b 88       		.byte	0x88
 7440 098c 1A       		.uleb128 0x1a
 7441 098d 8D1A0000 		.4byte	.LASF147
 7442 0991 09       		.byte	0x9
ARM GAS  C:\Users\Moi\AppData\Local\Temp\ccAXdvuJ.s 			page 137


 7443 0992 6702     		.2byte	0x267
 7444 0994 AA000000 		.4byte	0xaa
 7445 0998 A0       		.byte	0xa0
 7446 0999 1A       		.uleb128 0x1a
 7447 099a DD0B0000 		.4byte	.LASF148
 7448 099e 09       		.byte	0x9
 7449 099f 6802     		.2byte	0x268
 7450 09a1 52010000 		.4byte	0x152
 7451 09a5 A4       		.byte	0xa4
 7452 09a6 1A       		.uleb128 0x1a
 7453 09a7 C50E0000 		.4byte	.LASF149
 7454 09ab 09       		.byte	0x9
 7455 09ac 6902     		.2byte	0x269
 7456 09ae 52010000 		.4byte	0x152
 7457 09b2 AC       		.byte	0xac
 7458 09b3 1A       		.uleb128 0x1a
 7459 09b4 E7090000 		.4byte	.LASF150
 7460 09b8 09       		.byte	0x9
 7461 09b9 6A02     		.2byte	0x26a
 7462 09bb 52010000 		.4byte	0x152
 7463 09bf B4       		.byte	0xb4
 7464 09c0 1A       		.uleb128 0x1a
 7465 09c1 7A120000 		.4byte	.LASF151
 7466 09c5 09       		.byte	0x9
 7467 09c6 6B02     		.2byte	0x26b
 7468 09c8 52010000 		.4byte	0x152
 7469 09cc BC       		.byte	0xbc
 7470 09cd 1A       		.uleb128 0x1a
 7471 09ce 6A160000 		.4byte	.LASF152
 7472 09d2 09       		.byte	0x9
 7473 09d3 6C02     		.2byte	0x26c
 7474 09d5 52010000 		.4byte	0x152
 7475 09d9 C4       		.byte	0xc4
 7476 09da 1A       		.uleb128 0x1a
 7477 09db D91C0000 		.4byte	.LASF153
 7478 09df 09       		.byte	0x9
 7479 09e0 6D02     		.2byte	0x26d
 7480 09e2 AA000000 		.4byte	0xaa
 7481 09e6 CC       		.byte	0xcc
 7482 09e7 00       		.byte	0
 7483 09e8 0A       		.uleb128 0xa
 7484 09e9 D1010000 		.4byte	0x1d1
 7485 09ed F8090000 		.4byte	0x9f8
 7486 09f1 0B       		.uleb128 0xb
 7487 09f2 B1000000 		.4byte	0xb1
 7488 09f6 19       		.byte	0x19
 7489 09f7 00       		.byte	0
 7490 09f8 0A       		.uleb128 0xa
 7491 09f9 D1010000 		.4byte	0x1d1
 7492 09fd 080A0000 		.4byte	0xa08
 7493 0a01 0B       		.uleb128 0xb
 7494 0a02 B1000000 		.4byte	0xb1
 7495 0a06 07       		.byte	0x7
 7496 0a07 00       		.byte	0
 7497 0a08 0A       		.uleb128 0xa
 7498 0a09 D1010000 		.4byte	0x1d1
 7499 0a0d 180A0000 		.4byte	0xa18
ARM GAS  C:\Users\Moi\AppData\Local\Temp\ccAXdvuJ.s 			page 138


 7500 0a11 0B       		.uleb128 0xb
 7501 0a12 B1000000 		.4byte	0xb1
 7502 0a16 17       		.byte	0x17
 7503 0a17 00       		.byte	0
 7504 0a18 1D       		.uleb128 0x1d
 7505 0a19 F0       		.byte	0xf0
 7506 0a1a 09       		.byte	0x9
 7507 0a1b 7202     		.2byte	0x272
 7508 0a1d 3C0A0000 		.4byte	0xa3c
 7509 0a21 1A       		.uleb128 0x1a
 7510 0a22 E0170000 		.4byte	.LASF154
 7511 0a26 09       		.byte	0x9
 7512 0a27 7502     		.2byte	0x275
 7513 0a29 3C0A0000 		.4byte	0xa3c
 7514 0a2d 00       		.byte	0
 7515 0a2e 1A       		.uleb128 0x1a
 7516 0a2f 440C0000 		.4byte	.LASF155
 7517 0a33 09       		.byte	0x9
 7518 0a34 7602     		.2byte	0x276
 7519 0a36 4C0A0000 		.4byte	0xa4c
 7520 0a3a 78       		.byte	0x78
 7521 0a3b 00       		.byte	0
 7522 0a3c 0A       		.uleb128 0xa
 7523 0a3d 37050000 		.4byte	0x537
 7524 0a41 4C0A0000 		.4byte	0xa4c
 7525 0a45 0B       		.uleb128 0xb
 7526 0a46 B1000000 		.4byte	0xb1
 7527 0a4a 1D       		.byte	0x1d
 7528 0a4b 00       		.byte	0
 7529 0a4c 0A       		.uleb128 0xa
 7530 0a4d B1000000 		.4byte	0xb1
 7531 0a51 5C0A0000 		.4byte	0xa5c
 7532 0a55 0B       		.uleb128 0xb
 7533 0a56 B1000000 		.4byte	0xb1
 7534 0a5a 1D       		.byte	0x1d
 7535 0a5b 00       		.byte	0
 7536 0a5c 1E       		.uleb128 0x1e
 7537 0a5d F0       		.byte	0xf0
 7538 0a5e 09       		.byte	0x9
 7539 0a5f 5702     		.2byte	0x257
 7540 0a61 7E0A0000 		.4byte	0xa7e
 7541 0a65 1F       		.uleb128 0x1f
 7542 0a66 F9050000 		.4byte	.LASF105
 7543 0a6a 09       		.byte	0x9
 7544 0a6b 6E02     		.2byte	0x26e
 7545 0a6d E7080000 		.4byte	0x8e7
 7546 0a71 1F       		.uleb128 0x1f
 7547 0a72 11030000 		.4byte	.LASF156
 7548 0a76 09       		.byte	0x9
 7549 0a77 7702     		.2byte	0x277
 7550 0a79 180A0000 		.4byte	0xa18
 7551 0a7d 00       		.byte	0
 7552 0a7e 0A       		.uleb128 0xa
 7553 0a7f D1010000 		.4byte	0x1d1
 7554 0a83 8E0A0000 		.4byte	0xa8e
 7555 0a87 0B       		.uleb128 0xb
 7556 0a88 B1000000 		.4byte	0xb1
ARM GAS  C:\Users\Moi\AppData\Local\Temp\ccAXdvuJ.s 			page 139


 7557 0a8c 18       		.byte	0x18
 7558 0a8d 00       		.byte	0
 7559 0a8e 06       		.uleb128 0x6
 7560 0a8f B81B0000 		.4byte	.LASF158
 7561 0a93 05       		.uleb128 0x5
 7562 0a94 04       		.byte	0x4
 7563 0a95 8E0A0000 		.4byte	0xa8e
 7564 0a99 20       		.uleb128 0x20
 7565 0a9a A40A0000 		.4byte	0xaa4
 7566 0a9e 18       		.uleb128 0x18
 7567 0a9f 85060000 		.4byte	0x685
 7568 0aa3 00       		.byte	0
 7569 0aa4 05       		.uleb128 0x5
 7570 0aa5 04       		.byte	0x4
 7571 0aa6 990A0000 		.4byte	0xa99
 7572 0aaa 05       		.uleb128 0x5
 7573 0aab 04       		.byte	0x4
 7574 0aac D8030000 		.4byte	0x3d8
 7575 0ab0 20       		.uleb128 0x20
 7576 0ab1 BB0A0000 		.4byte	0xabb
 7577 0ab5 18       		.uleb128 0x18
 7578 0ab6 AA000000 		.4byte	0xaa
 7579 0aba 00       		.byte	0
 7580 0abb 05       		.uleb128 0x5
 7581 0abc 04       		.byte	0x4
 7582 0abd C10A0000 		.4byte	0xac1
 7583 0ac1 05       		.uleb128 0x5
 7584 0ac2 04       		.byte	0x4
 7585 0ac3 B00A0000 		.4byte	0xab0
 7586 0ac7 0A       		.uleb128 0xa
 7587 0ac8 55080000 		.4byte	0x855
 7588 0acc D70A0000 		.4byte	0xad7
 7589 0ad0 0B       		.uleb128 0xb
 7590 0ad1 B1000000 		.4byte	0xb1
 7591 0ad5 02       		.byte	0x2
 7592 0ad6 00       		.byte	0
 7593 0ad7 21       		.uleb128 0x21
 7594 0ad8 551B0000 		.4byte	.LASF159
 7595 0adc 09       		.byte	0x9
 7596 0add 0703     		.2byte	0x307
 7597 0adf 85060000 		.4byte	0x685
 7598 0ae3 21       		.uleb128 0x21
 7599 0ae4 21210000 		.4byte	.LASF160
 7600 0ae8 09       		.byte	0x9
 7601 0ae9 0803     		.2byte	0x308
 7602 0aeb 8B060000 		.4byte	0x68b
 7603 0aef 05       		.uleb128 0x5
 7604 0af0 04       		.byte	0x4
 7605 0af1 F50A0000 		.4byte	0xaf5
 7606 0af5 22       		.uleb128 0x22
 7607 0af6 11       		.uleb128 0x11
 7608 0af7 75180000 		.4byte	.LASF161
 7609 0afb 0A       		.byte	0xa
 7610 0afc 63       		.byte	0x63
 7611 0afd CB010000 		.4byte	0x1cb
 7612 0b01 02       		.uleb128 0x2
 7613 0b02 01050000 		.4byte	.LASF162
ARM GAS  C:\Users\Moi\AppData\Local\Temp\ccAXdvuJ.s 			page 140


 7614 0b06 0B       		.byte	0xb
 7615 0b07 08       		.byte	0x8
 7616 0b08 0C0B0000 		.4byte	0xb0c
 7617 0b0c 12       		.uleb128 0x12
 7618 0b0d EB040000 		.4byte	.LASF163
 7619 0b11 18       		.byte	0x18
 7620 0b12 0B       		.byte	0xb
 7621 0b13 0B       		.byte	0xb
 7622 0b14 600B0000 		.4byte	0xb60
 7623 0b18 13       		.uleb128 0x13
 7624 0b19 696400   		.ascii	"id\000"
 7625 0b1c 0B       		.byte	0xb
 7626 0b1d 0C       		.byte	0xc
 7627 0b1e E6070000 		.4byte	0x7e6
 7628 0b22 00       		.byte	0
 7629 0b23 0D       		.uleb128 0xd
 7630 0b24 5B010000 		.4byte	.LASF164
 7631 0b28 0B       		.byte	0xb
 7632 0b29 0D       		.byte	0xd
 7633 0b2a 9B010000 		.4byte	0x19b
 7634 0b2e 04       		.byte	0x4
 7635 0b2f 0D       		.uleb128 0xd
 7636 0b30 3C200000 		.4byte	.LASF165
 7637 0b34 0B       		.byte	0xb
 7638 0b35 0E       		.byte	0xe
 7639 0b36 CA0B0000 		.4byte	0xbca
 7640 0b3a 08       		.byte	0x8
 7641 0b3b 0D       		.uleb128 0xd
 7642 0b3c 1D0B0000 		.4byte	.LASF166
 7643 0b40 0B       		.byte	0xb
 7644 0b41 0F       		.byte	0xf
 7645 0b42 CA0B0000 		.4byte	0xbca
 7646 0b46 0C       		.byte	0xc
 7647 0b47 0D       		.uleb128 0xd
 7648 0b48 5E020000 		.4byte	.LASF49
 7649 0b4c 0B       		.byte	0xb
 7650 0b4d 10       		.byte	0x10
 7651 0b4e CA0B0000 		.4byte	0xbca
 7652 0b52 10       		.byte	0x10
 7653 0b53 0D       		.uleb128 0xd
 7654 0b54 46240000 		.4byte	.LASF167
 7655 0b58 0B       		.byte	0xb
 7656 0b59 11       		.byte	0x11
 7657 0b5a D00B0000 		.4byte	0xbd0
 7658 0b5e 14       		.byte	0x14
 7659 0b5f 00       		.byte	0
 7660 0b60 02       		.uleb128 0x2
 7661 0b61 5A140000 		.4byte	.LASF168
 7662 0b65 0B       		.byte	0xb
 7663 0b66 09       		.byte	0x9
 7664 0b67 6B0B0000 		.4byte	0xb6b
 7665 0b6b 12       		.uleb128 0x12
 7666 0b6c C30F0000 		.4byte	.LASF169
 7667 0b70 18       		.byte	0x18
 7668 0b71 0B       		.byte	0xb
 7669 0b72 2E       		.byte	0x2e
 7670 0b73 CA0B0000 		.4byte	0xbca
ARM GAS  C:\Users\Moi\AppData\Local\Temp\ccAXdvuJ.s 			page 141


 7671 0b77 13       		.uleb128 0x13
 7672 0b78 696400   		.ascii	"id\000"
 7673 0b7b 0B       		.byte	0xb
 7674 0b7c 2F       		.byte	0x2f
 7675 0b7d E6070000 		.4byte	0x7e6
 7676 0b81 00       		.byte	0
 7677 0b82 13       		.uleb128 0x13
 7678 0b83 6E7300   		.ascii	"ns\000"
 7679 0b86 0B       		.byte	0xb
 7680 0b87 30       		.byte	0x30
 7681 0b88 CA0B0000 		.4byte	0xbca
 7682 0b8c 04       		.byte	0x4
 7683 0b8d 0D       		.uleb128 0xd
 7684 0b8e 5E020000 		.4byte	.LASF49
 7685 0b92 0B       		.byte	0xb
 7686 0b93 31       		.byte	0x31
 7687 0b94 D00B0000 		.4byte	0xbd0
 7688 0b98 08       		.byte	0x8
 7689 0b99 0D       		.uleb128 0xd
 7690 0b9a C61C0000 		.4byte	.LASF170
 7691 0b9e 0B       		.byte	0xb
 7692 0b9f 32       		.byte	0x32
 7693 0ba0 A2020000 		.4byte	0x2a2
 7694 0ba4 0C       		.byte	0xc
 7695 0ba5 0D       		.uleb128 0xd
 7696 0ba6 7D100000 		.4byte	.LASF171
 7697 0baa 0B       		.byte	0xb
 7698 0bab 33       		.byte	0x33
 7699 0bac A2020000 		.4byte	0x2a2
 7700 0bb0 0D       		.byte	0xd
 7701 0bb1 0D       		.uleb128 0xd
 7702 0bb2 82070000 		.4byte	.LASF172
 7703 0bb6 0B       		.byte	0xb
 7704 0bb7 34       		.byte	0x34
 7705 0bb8 75010000 		.4byte	0x175
 7706 0bbc 0E       		.byte	0xe
 7707 0bbd 0D       		.uleb128 0xd
 7708 0bbe EB0B0000 		.4byte	.LASF173
 7709 0bc2 0B       		.byte	0xb
 7710 0bc3 3C       		.byte	0x3c
 7711 0bc4 720C0000 		.4byte	0xc72
 7712 0bc8 10       		.byte	0x10
 7713 0bc9 00       		.byte	0
 7714 0bca 05       		.uleb128 0x5
 7715 0bcb 04       		.byte	0x4
 7716 0bcc 010B0000 		.4byte	0xb01
 7717 0bd0 05       		.uleb128 0x5
 7718 0bd1 04       		.byte	0x4
 7719 0bd2 600B0000 		.4byte	0xb60
 7720 0bd6 12       		.uleb128 0x12
 7721 0bd7 90160000 		.4byte	.LASF174
 7722 0bdb 08       		.byte	0x8
 7723 0bdc 0B       		.byte	0xb
 7724 0bdd 14       		.byte	0x14
 7725 0bde 070C0000 		.4byte	0xc07
 7726 0be2 13       		.uleb128 0x13
 7727 0be3 62756600 		.ascii	"buf\000"
ARM GAS  C:\Users\Moi\AppData\Local\Temp\ccAXdvuJ.s 			page 142


 7728 0be7 0B       		.byte	0xb
 7729 0be8 15       		.byte	0x15
 7730 0be9 CB010000 		.4byte	0x1cb
 7731 0bed 00       		.byte	0
 7732 0bee 0D       		.uleb128 0xd
 7733 0bef 08240000 		.4byte	.LASF175
 7734 0bf3 0B       		.byte	0xb
 7735 0bf4 16       		.byte	0x16
 7736 0bf5 90010000 		.4byte	0x190
 7737 0bf9 04       		.byte	0x4
 7738 0bfa 13       		.uleb128 0x13
 7739 0bfb 6C656E00 		.ascii	"len\000"
 7740 0bff 0B       		.byte	0xb
 7741 0c00 17       		.byte	0x17
 7742 0c01 90010000 		.4byte	0x190
 7743 0c05 06       		.byte	0x6
 7744 0c06 00       		.byte	0
 7745 0c07 12       		.uleb128 0x12
 7746 0c08 4A150000 		.4byte	.LASF176
 7747 0c0c 08       		.byte	0x8
 7748 0c0d 0B       		.byte	0xb
 7749 0c0e 1A       		.byte	0x1a
 7750 0c0f 380C0000 		.4byte	0xc38
 7751 0c13 13       		.uleb128 0x13
 7752 0c14 62756600 		.ascii	"buf\000"
 7753 0c18 0B       		.byte	0xb
 7754 0c19 1B       		.byte	0x1b
 7755 0c1a 380C0000 		.4byte	0xc38
 7756 0c1e 00       		.byte	0
 7757 0c1f 0D       		.uleb128 0xd
 7758 0c20 FB080000 		.4byte	.LASF177
 7759 0c24 0B       		.byte	0xb
 7760 0c25 1C       		.byte	0x1c
 7761 0c26 90010000 		.4byte	0x190
 7762 0c2a 04       		.byte	0x4
 7763 0c2b 13       		.uleb128 0x13
 7764 0c2c 64696D00 		.ascii	"dim\000"
 7765 0c30 0B       		.byte	0xb
 7766 0c31 1D       		.byte	0x1d
 7767 0c32 90010000 		.4byte	0x190
 7768 0c36 06       		.byte	0x6
 7769 0c37 00       		.byte	0
 7770 0c38 05       		.uleb128 0x5
 7771 0c39 04       		.byte	0x4
 7772 0c3a 3E0C0000 		.4byte	0xc3e
 7773 0c3e 03       		.uleb128 0x3
 7774 0c3f 04       		.byte	0x4
 7775 0c40 04       		.byte	0x4
 7776 0c41 100A0000 		.4byte	.LASF178
 7777 0c45 12       		.uleb128 0x12
 7778 0c46 40090000 		.4byte	.LASF179
 7779 0c4a 08       		.byte	0x8
 7780 0c4b 0B       		.byte	0xb
 7781 0c4c 20       		.byte	0x20
 7782 0c4d 720C0000 		.4byte	0xc72
 7783 0c51 13       		.uleb128 0x13
 7784 0c52 62756600 		.ascii	"buf\000"
ARM GAS  C:\Users\Moi\AppData\Local\Temp\ccAXdvuJ.s 			page 143


 7785 0c56 0B       		.byte	0xb
 7786 0c57 21       		.byte	0x21
 7787 0c58 380C0000 		.4byte	0xc38
 7788 0c5c 00       		.byte	0
 7789 0c5d 13       		.uleb128 0x13
 7790 0c5e 6E00     		.ascii	"n\000"
 7791 0c60 0B       		.byte	0xb
 7792 0c61 22       		.byte	0x22
 7793 0c62 90010000 		.4byte	0x190
 7794 0c66 04       		.byte	0x4
 7795 0c67 13       		.uleb128 0x13
 7796 0c68 6D00     		.ascii	"m\000"
 7797 0c6a 0B       		.byte	0xb
 7798 0c6b 23       		.byte	0x23
 7799 0c6c 90010000 		.4byte	0x190
 7800 0c70 06       		.byte	0x6
 7801 0c71 00       		.byte	0
 7802 0c72 08       		.uleb128 0x8
 7803 0c73 08       		.byte	0x8
 7804 0c74 0B       		.byte	0xb
 7805 0c75 35       		.byte	0x35
 7806 0c76 B70C0000 		.4byte	0xcb7
 7807 0c7a 23       		.uleb128 0x23
 7808 0c7b 6200     		.ascii	"b\000"
 7809 0c7d 0B       		.byte	0xb
 7810 0c7e 36       		.byte	0x36
 7811 0c7f A2020000 		.4byte	0x2a2
 7812 0c83 23       		.uleb128 0x23
 7813 0c84 7300     		.ascii	"s\000"
 7814 0c86 0B       		.byte	0xb
 7815 0c87 37       		.byte	0x37
 7816 0c88 3E0C0000 		.4byte	0xc3e
 7817 0c8c 23       		.uleb128 0x23
 7818 0c8d 6900     		.ascii	"i\000"
 7819 0c8f 0B       		.byte	0xb
 7820 0c90 38       		.byte	0x38
 7821 0c91 9B010000 		.4byte	0x19b
 7822 0c95 23       		.uleb128 0x23
 7823 0c96 73747200 		.ascii	"str\000"
 7824 0c9a 0B       		.byte	0xb
 7825 0c9b 39       		.byte	0x39
 7826 0c9c D60B0000 		.4byte	0xbd6
 7827 0ca0 09       		.uleb128 0x9
 7828 0ca1 D4000000 		.4byte	.LASF180
 7829 0ca5 0B       		.byte	0xb
 7830 0ca6 3A       		.byte	0x3a
 7831 0ca7 070C0000 		.4byte	0xc07
 7832 0cab 23       		.uleb128 0x23
 7833 0cac 6D617400 		.ascii	"mat\000"
 7834 0cb0 0B       		.byte	0xb
 7835 0cb1 3B       		.byte	0x3b
 7836 0cb2 450C0000 		.4byte	0xc45
 7837 0cb6 00       		.byte	0
 7838 0cb7 24       		.uleb128 0x24
 7839 0cb8 62757300 		.ascii	"bus\000"
 7840 0cbc 0C       		.byte	0xc
 7841 0cbd 0C       		.byte	0xc
ARM GAS  C:\Users\Moi\AppData\Local\Temp\ccAXdvuJ.s 			page 144


 7842 0cbe 2D030000 		.4byte	0x32d
 7843 0cc2 11       		.uleb128 0x11
 7844 0cc3 520D0000 		.4byte	.LASF181
 7845 0cc7 0C       		.byte	0xc
 7846 0cc8 0D       		.byte	0xd
 7847 0cc9 010B0000 		.4byte	0xb01
 7848 0ccd 02       		.uleb128 0x2
 7849 0cce AC0C0000 		.4byte	.LASF182
 7850 0cd2 0D       		.byte	0xd
 7851 0cd3 45       		.byte	0x45
 7852 0cd4 AB010000 		.4byte	0x1ab
 7853 0cd8 02       		.uleb128 0x2
 7854 0cd9 0D060000 		.4byte	.LASF183
 7855 0cdd 0D       		.byte	0xd
 7856 0cde 46       		.byte	0x46
 7857 0cdf C0010000 		.4byte	0x1c0
 7858 0ce3 02       		.uleb128 0x2
 7859 0ce4 1E120000 		.4byte	.LASF184
 7860 0ce8 0D       		.byte	0xd
 7861 0ce9 48       		.byte	0x48
 7862 0cea 75010000 		.4byte	0x175
 7863 0cee 02       		.uleb128 0x2
 7864 0cef 18210000 		.4byte	.LASF185
 7865 0cf3 0D       		.byte	0xd
 7866 0cf4 49       		.byte	0x49
 7867 0cf5 75010000 		.4byte	0x175
 7868 0cf9 02       		.uleb128 0x2
 7869 0cfa B0110000 		.4byte	.LASF186
 7870 0cfe 0D       		.byte	0xd
 7871 0cff 4A       		.byte	0x4a
 7872 0d00 75010000 		.4byte	0x175
 7873 0d04 02       		.uleb128 0x2
 7874 0d05 8D130000 		.4byte	.LASF187
 7875 0d09 0D       		.byte	0xd
 7876 0d0a 4B       		.byte	0x4b
 7877 0d0b 75010000 		.4byte	0x175
 7878 0d0f 02       		.uleb128 0x2
 7879 0d10 C5060000 		.4byte	.LASF188
 7880 0d14 0D       		.byte	0xd
 7881 0d15 4C       		.byte	0x4c
 7882 0d16 AB010000 		.4byte	0x1ab
 7883 0d1a 02       		.uleb128 0x2
 7884 0d1b 81000000 		.4byte	.LASF189
 7885 0d1f 0D       		.byte	0xd
 7886 0d20 4D       		.byte	0x4d
 7887 0d21 9B010000 		.4byte	0x19b
 7888 0d25 02       		.uleb128 0x2
 7889 0d26 63180000 		.4byte	.LASF190
 7890 0d2a 0D       		.byte	0xd
 7891 0d2b 4F       		.byte	0x4f
 7892 0d2c AB010000 		.4byte	0x1ab
 7893 0d30 02       		.uleb128 0x2
 7894 0d31 22230000 		.4byte	.LASF191
 7895 0d35 0D       		.byte	0xd
 7896 0d36 50       		.byte	0x50
 7897 0d37 AB010000 		.4byte	0x1ab
 7898 0d3b 02       		.uleb128 0x2
ARM GAS  C:\Users\Moi\AppData\Local\Temp\ccAXdvuJ.s 			page 145


 7899 0d3c 6F180000 		.4byte	.LASF192
 7900 0d40 0D       		.byte	0xd
 7901 0d41 51       		.byte	0x51
 7902 0d42 9B010000 		.4byte	0x19b
 7903 0d46 02       		.uleb128 0x2
 7904 0d47 A50C0000 		.4byte	.LASF193
 7905 0d4b 0D       		.byte	0xd
 7906 0d4c 52       		.byte	0x52
 7907 0d4d AB010000 		.4byte	0x1ab
 7908 0d51 02       		.uleb128 0x2
 7909 0d52 F4030000 		.4byte	.LASF194
 7910 0d56 0E       		.byte	0xe
 7911 0d57 33       		.byte	0x33
 7912 0d58 AB010000 		.4byte	0x1ab
 7913 0d5c 10       		.uleb128 0x10
 7914 0d5d 510D0000 		.4byte	0xd51
 7915 0d61 02       		.uleb128 0x2
 7916 0d62 90030000 		.4byte	.LASF195
 7917 0d66 0E       		.byte	0xe
 7918 0d67 3F       		.byte	0x3f
 7919 0d68 6C0D0000 		.4byte	0xd6c
 7920 0d6c 12       		.uleb128 0x12
 7921 0d6d CB090000 		.4byte	.LASF196
 7922 0d71 68       		.byte	0x68
 7923 0d72 0F       		.byte	0xf
 7924 0d73 C2       		.byte	0xc2
 7925 0d74 8A0E0000 		.4byte	0xe8a
 7926 0d78 0D       		.uleb128 0xd
 7927 0d79 4C110000 		.4byte	.LASF197
 7928 0d7d 0F       		.byte	0xf
 7929 0d7e C3       		.byte	0xc3
 7930 0d7f 950E0000 		.4byte	0xe95
 7931 0d83 00       		.byte	0
 7932 0d84 0D       		.uleb128 0xd
 7933 0d85 9A0D0000 		.4byte	.LASF198
 7934 0d89 0F       		.byte	0xf
 7935 0d8a C5       		.byte	0xc5
 7936 0d8b 950E0000 		.4byte	0xe95
 7937 0d8f 04       		.byte	0x4
 7938 0d90 0D       		.uleb128 0xd
 7939 0d91 76100000 		.4byte	.LASF199
 7940 0d95 0F       		.byte	0xf
 7941 0d96 C7       		.byte	0xc7
 7942 0d97 0F0D0000 		.4byte	0xd0f
 7943 0d9b 08       		.byte	0x8
 7944 0d9c 0D       		.uleb128 0xd
 7945 0d9d 750A0000 		.4byte	.LASF200
 7946 0da1 0F       		.byte	0xf
 7947 0da2 C8       		.byte	0xc8
 7948 0da3 3F190000 		.4byte	0x193f
 7949 0da7 0C       		.byte	0xc
 7950 0da8 0D       		.uleb128 0xd
 7951 0da9 D0020000 		.4byte	.LASF201
 7952 0dad 0F       		.byte	0xf
 7953 0dae CA       		.byte	0xca
 7954 0daf 950E0000 		.4byte	0xe95
 7955 0db3 10       		.byte	0x10
ARM GAS  C:\Users\Moi\AppData\Local\Temp\ccAXdvuJ.s 			page 146


 7956 0db4 0D       		.uleb128 0xd
 7957 0db5 9F230000 		.4byte	.LASF202
 7958 0db9 0F       		.byte	0xf
 7959 0dba CB       		.byte	0xcb
 7960 0dbb 950E0000 		.4byte	0xe95
 7961 0dbf 14       		.byte	0x14
 7962 0dc0 0D       		.uleb128 0xd
 7963 0dc1 A1210000 		.4byte	.LASF203
 7964 0dc5 0F       		.byte	0xf
 7965 0dc6 D2       		.byte	0xd2
 7966 0dc7 E6070000 		.4byte	0x7e6
 7967 0dcb 18       		.byte	0x18
 7968 0dcc 0D       		.uleb128 0xd
 7969 0dcd FF1A0000 		.4byte	.LASF204
 7970 0dd1 0F       		.byte	0xf
 7971 0dd2 D8       		.byte	0xd8
 7972 0dd3 B51C0000 		.4byte	0x1cb5
 7973 0dd7 1C       		.byte	0x1c
 7974 0dd8 0D       		.uleb128 0xd
 7975 0dd9 E6250000 		.4byte	.LASF205
 7976 0ddd 0F       		.byte	0xf
 7977 0dde DD       		.byte	0xdd
 7978 0ddf EE0C0000 		.4byte	0xcee
 7979 0de3 20       		.byte	0x20
 7980 0de4 0D       		.uleb128 0xd
 7981 0de5 DE200000 		.4byte	.LASF206
 7982 0de9 0F       		.byte	0xf
 7983 0dea E1       		.byte	0xe1
 7984 0deb E30C0000 		.4byte	0xce3
 7985 0def 21       		.byte	0x21
 7986 0df0 0D       		.uleb128 0xd
 7987 0df1 CF160000 		.4byte	.LASF207
 7988 0df5 0F       		.byte	0xf
 7989 0df6 E6       		.byte	0xe6
 7990 0df7 F90C0000 		.4byte	0xcf9
 7991 0dfb 22       		.byte	0x22
 7992 0dfc 0D       		.uleb128 0xd
 7993 0dfd 72140000 		.4byte	.LASF208
 7994 0e01 0F       		.byte	0xf
 7995 0e02 EC       		.byte	0xec
 7996 0e03 040D0000 		.4byte	0xd04
 7997 0e07 23       		.byte	0x23
 7998 0e08 0D       		.uleb128 0xd
 7999 0e09 C8160000 		.4byte	.LASF209
 8000 0e0d 0F       		.byte	0xf
 8001 0e0e F3       		.byte	0xf3
 8002 0e0f 5C0D0000 		.4byte	0xd5c
 8003 0e13 24       		.byte	0x24
 8004 0e14 25       		.uleb128 0x25
 8005 0e15 705F7500 		.ascii	"p_u\000"
 8006 0e19 0F       		.byte	0xf
 8007 0e1a 3101     		.2byte	0x131
 8008 0e1c E41B0000 		.4byte	0x1be4
 8009 0e20 28       		.byte	0x28
 8010 0e21 1A       		.uleb128 0x1a
 8011 0e22 4B050000 		.4byte	.LASF210
 8012 0e26 0F       		.byte	0xf
ARM GAS  C:\Users\Moi\AppData\Local\Temp\ccAXdvuJ.s 			page 147


 8013 0e27 3601     		.2byte	0x136
 8014 0e29 9B0E0000 		.4byte	0xe9b
 8015 0e2d 2C       		.byte	0x2c
 8016 0e2e 1A       		.uleb128 0x1a
 8017 0e2f 7F1E0000 		.4byte	.LASF211
 8018 0e33 0F       		.byte	0xf
 8019 0e34 3C01     		.2byte	0x13c
 8020 0e36 BF0E0000 		.4byte	0xebf
 8021 0e3a 30       		.byte	0x30
 8022 0e3b 1A       		.uleb128 0x1a
 8023 0e3c F7070000 		.4byte	.LASF212
 8024 0e40 0F       		.byte	0xf
 8025 0e41 4001     		.2byte	0x140
 8026 0e43 1A0D0000 		.4byte	0xd1a
 8027 0e47 38       		.byte	0x38
 8028 0e48 1A       		.uleb128 0x1a
 8029 0e49 061F0000 		.4byte	.LASF213
 8030 0e4d 0F       		.byte	0xf
 8031 0e4e 4601     		.2byte	0x146
 8032 0e50 250D0000 		.4byte	0xd25
 8033 0e54 3C       		.byte	0x3c
 8034 0e55 1A       		.uleb128 0x1a
 8035 0e56 03210000 		.4byte	.LASF214
 8036 0e5a 0F       		.byte	0xf
 8037 0e5b 4D01     		.2byte	0x14d
 8038 0e5d AF1C0000 		.4byte	0x1caf
 8039 0e61 40       		.byte	0x40
 8040 0e62 1A       		.uleb128 0x1a
 8041 0e63 6B1C0000 		.4byte	.LASF215
 8042 0e67 0F       		.byte	0xf
 8043 0e68 5101     		.2byte	0x151
 8044 0e6a 0F0D0000 		.4byte	0xd0f
 8045 0e6e 44       		.byte	0x44
 8046 0e6f 1A       		.uleb128 0x1a
 8047 0e70 B8110000 		.4byte	.LASF216
 8048 0e74 0F       		.byte	0xf
 8049 0e75 5801     		.2byte	0x158
 8050 0e77 68010000 		.4byte	0x168
 8051 0e7b 48       		.byte	0x48
 8052 0e7c 1A       		.uleb128 0x1a
 8053 0e7d 31260000 		.4byte	.LASF217
 8054 0e81 0F       		.byte	0xf
 8055 0e82 5E01     		.2byte	0x15e
 8056 0e84 951B0000 		.4byte	0x1b95
 8057 0e88 50       		.byte	0x50
 8058 0e89 00       		.byte	0
 8059 0e8a 02       		.uleb128 0x2
 8060 0e8b 10240000 		.4byte	.LASF218
 8061 0e8f 0E       		.byte	0xe
 8062 0e90 44       		.byte	0x44
 8063 0e91 950E0000 		.4byte	0xe95
 8064 0e95 05       		.uleb128 0x5
 8065 0e96 04       		.byte	0x4
 8066 0e97 610D0000 		.4byte	0xd61
 8067 0e9b 02       		.uleb128 0x2
 8068 0e9c 95050000 		.4byte	.LASF219
 8069 0ea0 0E       		.byte	0xe
ARM GAS  C:\Users\Moi\AppData\Local\Temp\ccAXdvuJ.s 			page 148


 8070 0ea1 49       		.byte	0x49
 8071 0ea2 A60E0000 		.4byte	0xea6
 8072 0ea6 12       		.uleb128 0x12
 8073 0ea7 0A260000 		.4byte	.LASF220
 8074 0eab 04       		.byte	0x4
 8075 0eac 0F       		.byte	0xf
 8076 0ead B0       		.byte	0xb0
 8077 0eae BF0E0000 		.4byte	0xebf
 8078 0eb2 0D       		.uleb128 0xd
 8079 0eb3 4C110000 		.4byte	.LASF197
 8080 0eb7 0F       		.byte	0xf
 8081 0eb8 B1       		.byte	0xb1
 8082 0eb9 950E0000 		.4byte	0xe95
 8083 0ebd 00       		.byte	0
 8084 0ebe 00       		.byte	0
 8085 0ebf 02       		.uleb128 0x2
 8086 0ec0 AD160000 		.4byte	.LASF221
 8087 0ec4 0E       		.byte	0xe
 8088 0ec5 50       		.byte	0x50
 8089 0ec6 CA0E0000 		.4byte	0xeca
 8090 0eca 12       		.uleb128 0x12
 8091 0ecb B5020000 		.4byte	.LASF222
 8092 0ecf 08       		.byte	0x8
 8093 0ed0 0F       		.byte	0xf
 8094 0ed1 B7       		.byte	0xb7
 8095 0ed2 EF0E0000 		.4byte	0xeef
 8096 0ed6 0D       		.uleb128 0xd
 8097 0ed7 4C110000 		.4byte	.LASF197
 8098 0edb 0F       		.byte	0xf
 8099 0edc B8       		.byte	0xb8
 8100 0edd 950E0000 		.4byte	0xe95
 8101 0ee1 00       		.byte	0
 8102 0ee2 0D       		.uleb128 0xd
 8103 0ee3 9A0D0000 		.4byte	.LASF198
 8104 0ee7 0F       		.byte	0xf
 8105 0ee8 B9       		.byte	0xb9
 8106 0ee9 950E0000 		.4byte	0xe95
 8107 0eed 04       		.byte	0x4
 8108 0eee 00       		.byte	0
 8109 0eef 02       		.uleb128 0x2
 8110 0ef0 BE090000 		.4byte	.LASF223
 8111 0ef4 0E       		.byte	0xe
 8112 0ef5 57       		.byte	0x57
 8113 0ef6 FA0E0000 		.4byte	0xefa
 8114 0efa 1C       		.uleb128 0x1c
 8115 0efb 351E0000 		.4byte	.LASF224
 8116 0eff 1C       		.byte	0x1c
 8117 0f00 0F       		.byte	0xf
 8118 0f01 9001     		.2byte	0x190
 8119 0f03 560F0000 		.4byte	0xf56
 8120 0f07 1A       		.uleb128 0x1a
 8121 0f08 6D190000 		.4byte	.LASF225
 8122 0f0c 0F       		.byte	0xf
 8123 0f0d 9101     		.2byte	0x191
 8124 0f0f BF0E0000 		.4byte	0xebf
 8125 0f13 00       		.byte	0
 8126 0f14 1A       		.uleb128 0x1a
ARM GAS  C:\Users\Moi\AppData\Local\Temp\ccAXdvuJ.s 			page 149


 8127 0f15 FC1F0000 		.4byte	.LASF226
 8128 0f19 0F       		.byte	0xf
 8129 0f1a 9201     		.2byte	0x192
 8130 0f1c 0F0D0000 		.4byte	0xd0f
 8131 0f20 08       		.byte	0x8
 8132 0f21 1A       		.uleb128 0x1a
 8133 0f22 850C0000 		.4byte	.LASF227
 8134 0f26 0F       		.byte	0xf
 8135 0f27 9401     		.2byte	0x194
 8136 0f29 3F190000 		.4byte	0x193f
 8137 0f2d 0C       		.byte	0xc
 8138 0f2e 1A       		.uleb128 0x1a
 8139 0f2f 2F130000 		.4byte	.LASF228
 8140 0f33 0F       		.byte	0xf
 8141 0f34 9701     		.2byte	0x197
 8142 0f36 950E0000 		.4byte	0xe95
 8143 0f3a 10       		.byte	0x10
 8144 0f3b 1A       		.uleb128 0x1a
 8145 0f3c 920D0000 		.4byte	.LASF229
 8146 0f40 0F       		.byte	0xf
 8147 0f41 9801     		.2byte	0x198
 8148 0f43 950E0000 		.4byte	0xe95
 8149 0f47 14       		.byte	0x14
 8150 0f48 1A       		.uleb128 0x1a
 8151 0f49 910F0000 		.4byte	.LASF230
 8152 0f4d 0F       		.byte	0xf
 8153 0f4e 9B01     		.2byte	0x19b
 8154 0f50 950E0000 		.4byte	0xe95
 8155 0f54 18       		.byte	0x18
 8156 0f55 00       		.byte	0
 8157 0f56 02       		.uleb128 0x2
 8158 0f57 FA1B0000 		.4byte	.LASF231
 8159 0f5b 0E       		.byte	0xe
 8160 0f5c 5C       		.byte	0x5c
 8161 0f5d 610F0000 		.4byte	0xf61
 8162 0f61 05       		.uleb128 0x5
 8163 0f62 04       		.byte	0x4
 8164 0f63 670F0000 		.4byte	0xf67
 8165 0f67 20       		.uleb128 0x20
 8166 0f68 720F0000 		.4byte	0xf72
 8167 0f6c 18       		.uleb128 0x18
 8168 0f6d 68010000 		.4byte	0x168
 8169 0f71 00       		.byte	0
 8170 0f72 02       		.uleb128 0x2
 8171 0f73 690C0000 		.4byte	.LASF232
 8172 0f77 0E       		.byte	0xe
 8173 0f78 61       		.byte	0x61
 8174 0f79 7D0F0000 		.4byte	0xf7d
 8175 0f7d 1C       		.uleb128 0x1c
 8176 0f7e CD200000 		.4byte	.LASF233
 8177 0f82 14       		.byte	0x14
 8178 0f83 0F       		.byte	0xf
 8179 0f84 6B01     		.2byte	0x16b
 8180 0f86 CC0F0000 		.4byte	0xfcc
 8181 0f8a 1A       		.uleb128 0x1a
 8182 0f8b 8B0C0000 		.4byte	.LASF234
 8183 0f8f 0F       		.byte	0xf
ARM GAS  C:\Users\Moi\AppData\Local\Temp\ccAXdvuJ.s 			page 150


 8184 0f90 6C01     		.2byte	0x16c
 8185 0f92 BB1C0000 		.4byte	0x1cbb
 8186 0f96 00       		.byte	0
 8187 0f97 1A       		.uleb128 0x1a
 8188 0f98 73090000 		.4byte	.LASF235
 8189 0f9c 0F       		.byte	0xf
 8190 0f9d 6D01     		.2byte	0x16d
 8191 0f9f BB1C0000 		.4byte	0x1cbb
 8192 0fa3 04       		.byte	0x4
 8193 0fa4 1A       		.uleb128 0x1a
 8194 0fa5 D8130000 		.4byte	.LASF236
 8195 0fa9 0F       		.byte	0xf
 8196 0faa 6E01     		.2byte	0x16e
 8197 0fac 510D0000 		.4byte	0xd51
 8198 0fb0 08       		.byte	0x8
 8199 0fb1 1A       		.uleb128 0x1a
 8200 0fb2 B8200000 		.4byte	.LASF237
 8201 0fb6 0F       		.byte	0xf
 8202 0fb7 6F01     		.2byte	0x16f
 8203 0fb9 560F0000 		.4byte	0xf56
 8204 0fbd 0C       		.byte	0xc
 8205 0fbe 1A       		.uleb128 0x1a
 8206 0fbf 7B0A0000 		.4byte	.LASF238
 8207 0fc3 0F       		.byte	0xf
 8208 0fc4 7101     		.2byte	0x171
 8209 0fc6 68010000 		.4byte	0x168
 8210 0fca 10       		.byte	0x10
 8211 0fcb 00       		.byte	0
 8212 0fcc 02       		.uleb128 0x2
 8213 0fcd 04220000 		.4byte	.LASF239
 8214 0fd1 0E       		.byte	0xe
 8215 0fd2 66       		.byte	0x66
 8216 0fd3 D70F0000 		.4byte	0xfd7
 8217 0fd7 1C       		.uleb128 0x1c
 8218 0fd8 BA030000 		.4byte	.LASF240
 8219 0fdc 10       		.byte	0x10
 8220 0fdd 0F       		.byte	0xf
 8221 0fde 7B01     		.2byte	0x17b
 8222 0fe0 19100000 		.4byte	0x1019
 8223 0fe4 1A       		.uleb128 0x1a
 8224 0fe5 8B0C0000 		.4byte	.LASF234
 8225 0fe9 0F       		.byte	0xf
 8226 0fea 7C01     		.2byte	0x17c
 8227 0fec BB1C0000 		.4byte	0x1cbb
 8228 0ff0 00       		.byte	0
 8229 0ff1 1A       		.uleb128 0x1a
 8230 0ff2 73090000 		.4byte	.LASF235
 8231 0ff6 0F       		.byte	0xf
 8232 0ff7 7E01     		.2byte	0x17e
 8233 0ff9 BB1C0000 		.4byte	0x1cbb
 8234 0ffd 04       		.byte	0x4
 8235 0ffe 1A       		.uleb128 0x1a
 8236 0fff D8130000 		.4byte	.LASF236
 8237 1003 0F       		.byte	0xf
 8238 1004 8001     		.2byte	0x180
 8239 1006 510D0000 		.4byte	0xd51
 8240 100a 08       		.byte	0x8
ARM GAS  C:\Users\Moi\AppData\Local\Temp\ccAXdvuJ.s 			page 151


 8241 100b 1A       		.uleb128 0x1a
 8242 100c 98010000 		.4byte	.LASF241
 8243 1010 0F       		.byte	0xf
 8244 1011 8201     		.2byte	0x182
 8245 1013 5C0D0000 		.4byte	0xd5c
 8246 1017 0C       		.byte	0xc
 8247 1018 00       		.byte	0
 8248 1019 02       		.uleb128 0x2
 8249 101a 490A0000 		.4byte	.LASF242
 8250 101e 0E       		.byte	0xe
 8251 101f 6B       		.byte	0x6b
 8252 1020 24100000 		.4byte	0x1024
 8253 1024 19       		.uleb128 0x19
 8254 1025 6F1E0000 		.4byte	.LASF243
 8255 1029 1404     		.2byte	0x414
 8256 102b 0F       		.byte	0xf
 8257 102c A201     		.2byte	0x1a2
 8258 102e 67100000 		.4byte	0x1067
 8259 1032 1A       		.uleb128 0x1a
 8260 1033 11130000 		.4byte	.LASF244
 8261 1037 0F       		.byte	0xf
 8262 1038 AA01     		.2byte	0x1aa
 8263 103a EC070000 		.4byte	0x7ec
 8264 103e 00       		.byte	0
 8265 103f 1A       		.uleb128 0x1a
 8266 1040 D3120000 		.4byte	.LASF245
 8267 1044 0F       		.byte	0xf
 8268 1045 AF01     		.2byte	0x1af
 8269 1047 3B0D0000 		.4byte	0xd3b
 8270 104b 04       		.byte	0x4
 8271 104c 1A       		.uleb128 0x1a
 8272 104d AC020000 		.4byte	.LASF246
 8273 1051 0F       		.byte	0xf
 8274 1052 B301     		.2byte	0x1b3
 8275 1054 3B0D0000 		.4byte	0xd3b
 8276 1058 08       		.byte	0x8
 8277 1059 1A       		.uleb128 0x1a
 8278 105a 00160000 		.4byte	.LASF247
 8279 105e 0F       		.byte	0xf
 8280 105f B901     		.2byte	0x1b9
 8281 1061 271B0000 		.4byte	0x1b27
 8282 1065 0C       		.byte	0xc
 8283 1066 00       		.byte	0
 8284 1067 02       		.uleb128 0x2
 8285 1068 FD000000 		.4byte	.LASF248
 8286 106c 0E       		.byte	0xe
 8287 106d 70       		.byte	0x70
 8288 106e 72100000 		.4byte	0x1072
 8289 1072 19       		.uleb128 0x19
 8290 1073 F0150000 		.4byte	.LASF249
 8291 1077 7006     		.2byte	0x670
 8292 1079 0F       		.byte	0xf
 8293 107a C201     		.2byte	0x1c2
 8294 107c DF100000 		.4byte	0x10df
 8295 1080 1A       		.uleb128 0x1a
 8296 1081 8F050000 		.4byte	.LASF250
 8297 1085 0F       		.byte	0xf
ARM GAS  C:\Users\Moi\AppData\Local\Temp\ccAXdvuJ.s 			page 152


 8298 1086 C601     		.2byte	0x1c6
 8299 1088 EF0E0000 		.4byte	0xeef
 8300 108c 00       		.byte	0
 8301 108d 1A       		.uleb128 0x1a
 8302 108e 35050000 		.4byte	.LASF251
 8303 1092 0F       		.byte	0xf
 8304 1093 CA01     		.2byte	0x1ca
 8305 1095 CC0F0000 		.4byte	0xfcc
 8306 1099 1C       		.byte	0x1c
 8307 109a 25       		.uleb128 0x25
 8308 109b 64626700 		.ascii	"dbg\000"
 8309 109f 0F       		.byte	0xf
 8310 10a0 CE01     		.2byte	0x1ce
 8311 10a2 19100000 		.4byte	0x1019
 8312 10a6 2C       		.byte	0x2c
 8313 10a7 1B       		.uleb128 0x1b
 8314 10a8 F9160000 		.4byte	.LASF252
 8315 10ac 0F       		.byte	0xf
 8316 10ad D201     		.2byte	0x1d2
 8317 10af 610D0000 		.4byte	0xd61
 8318 10b3 4004     		.2byte	0x440
 8319 10b5 26       		.uleb128 0x26
 8320 10b6 746D00   		.ascii	"tm\000"
 8321 10b9 0F       		.byte	0xf
 8322 10ba D701     		.2byte	0x1d7
 8323 10bc 471B0000 		.4byte	0x1b47
 8324 10c0 A804     		.2byte	0x4a8
 8325 10c2 1B       		.uleb128 0x1b
 8326 10c3 C21A0000 		.4byte	.LASF253
 8327 10c7 0F       		.byte	0xf
 8328 10c8 DD01     		.2byte	0x1dd
 8329 10ca D91B0000 		.4byte	0x1bd9
 8330 10ce B004     		.2byte	0x4b0
 8331 10d0 1B       		.uleb128 0x1b
 8332 10d1 7B200000 		.4byte	.LASF254
 8333 10d5 0F       		.byte	0xf
 8334 10d6 E301     		.2byte	0x1e3
 8335 10d8 C11C0000 		.4byte	0x1cc1
 8336 10dc E804     		.2byte	0x4e8
 8337 10de 00       		.byte	0
 8338 10df 0A       		.uleb128 0xa
 8339 10e0 AB010000 		.4byte	0x1ab
 8340 10e4 EF100000 		.4byte	0x10ef
 8341 10e8 0B       		.uleb128 0xb
 8342 10e9 B1000000 		.4byte	0xb1
 8343 10ed 01       		.byte	0x1
 8344 10ee 00       		.byte	0
 8345 10ef 0A       		.uleb128 0xa
 8346 10f0 AB010000 		.4byte	0x1ab
 8347 10f4 FF100000 		.4byte	0x10ff
 8348 10f8 0B       		.uleb128 0xb
 8349 10f9 B1000000 		.4byte	0xb1
 8350 10fd 07       		.byte	0x7
 8351 10fe 00       		.byte	0
 8352 10ff 21       		.uleb128 0x21
 8353 1100 08200000 		.4byte	.LASF255
 8354 1104 10       		.byte	0x10
ARM GAS  C:\Users\Moi\AppData\Local\Temp\ccAXdvuJ.s 			page 153


 8355 1105 A706     		.2byte	0x6a7
 8356 1107 A6010000 		.4byte	0x1a6
 8357 110b 11       		.uleb128 0x11
 8358 110c 5E150000 		.4byte	.LASF256
 8359 1110 11       		.byte	0x11
 8360 1111 4C       		.byte	0x4c
 8361 1112 AB010000 		.4byte	0x1ab
 8362 1116 0C       		.uleb128 0xc
 8363 1117 50       		.byte	0x50
 8364 1118 12       		.byte	0x12
 8365 1119 C4       		.byte	0xc4
 8366 111a 0D120000 		.4byte	0x120d
 8367 111e 13       		.uleb128 0x13
 8368 111f 535200   		.ascii	"SR\000"
 8369 1122 12       		.byte	0x12
 8370 1123 C6       		.byte	0xc6
 8371 1124 B6010000 		.4byte	0x1b6
 8372 1128 00       		.byte	0
 8373 1129 13       		.uleb128 0x13
 8374 112a 43523100 		.ascii	"CR1\000"
 8375 112e 12       		.byte	0x12
 8376 112f C7       		.byte	0xc7
 8377 1130 B6010000 		.4byte	0x1b6
 8378 1134 04       		.byte	0x4
 8379 1135 13       		.uleb128 0x13
 8380 1136 43523200 		.ascii	"CR2\000"
 8381 113a 12       		.byte	0x12
 8382 113b C8       		.byte	0xc8
 8383 113c B6010000 		.4byte	0x1b6
 8384 1140 08       		.byte	0x8
 8385 1141 0D       		.uleb128 0xd
 8386 1142 E3020000 		.4byte	.LASF257
 8387 1146 12       		.byte	0x12
 8388 1147 C9       		.byte	0xc9
 8389 1148 B6010000 		.4byte	0x1b6
 8390 114c 0C       		.byte	0xc
 8391 114d 0D       		.uleb128 0xd
 8392 114e E9020000 		.4byte	.LASF258
 8393 1152 12       		.byte	0x12
 8394 1153 CA       		.byte	0xca
 8395 1154 B6010000 		.4byte	0x1b6
 8396 1158 10       		.byte	0x10
 8397 1159 0D       		.uleb128 0xd
 8398 115a 820A0000 		.4byte	.LASF259
 8399 115e 12       		.byte	0x12
 8400 115f CB       		.byte	0xcb
 8401 1160 B6010000 		.4byte	0x1b6
 8402 1164 14       		.byte	0x14
 8403 1165 0D       		.uleb128 0xd
 8404 1166 880A0000 		.4byte	.LASF260
 8405 116a 12       		.byte	0x12
 8406 116b CC       		.byte	0xcc
 8407 116c B6010000 		.4byte	0x1b6
 8408 1170 18       		.byte	0x18
 8409 1171 0D       		.uleb128 0xd
 8410 1172 55100000 		.4byte	.LASF261
 8411 1176 12       		.byte	0x12
ARM GAS  C:\Users\Moi\AppData\Local\Temp\ccAXdvuJ.s 			page 154


 8412 1177 CD       		.byte	0xcd
 8413 1178 B6010000 		.4byte	0x1b6
 8414 117c 1C       		.byte	0x1c
 8415 117d 0D       		.uleb128 0xd
 8416 117e 8E0A0000 		.4byte	.LASF262
 8417 1182 12       		.byte	0x12
 8418 1183 CE       		.byte	0xce
 8419 1184 B6010000 		.4byte	0x1b6
 8420 1188 20       		.byte	0x20
 8421 1189 13       		.uleb128 0x13
 8422 118a 48545200 		.ascii	"HTR\000"
 8423 118e 12       		.byte	0x12
 8424 118f CF       		.byte	0xcf
 8425 1190 B6010000 		.4byte	0x1b6
 8426 1194 24       		.byte	0x24
 8427 1195 13       		.uleb128 0x13
 8428 1196 4C545200 		.ascii	"LTR\000"
 8429 119a 12       		.byte	0x12
 8430 119b D0       		.byte	0xd0
 8431 119c B6010000 		.4byte	0x1b6
 8432 11a0 28       		.byte	0x28
 8433 11a1 0D       		.uleb128 0xd
 8434 11a2 42120000 		.4byte	.LASF263
 8435 11a6 12       		.byte	0x12
 8436 11a7 D1       		.byte	0xd1
 8437 11a8 B6010000 		.4byte	0x1b6
 8438 11ac 2C       		.byte	0x2c
 8439 11ad 0D       		.uleb128 0xd
 8440 11ae 47120000 		.4byte	.LASF264
 8441 11b2 12       		.byte	0x12
 8442 11b3 D2       		.byte	0xd2
 8443 11b4 B6010000 		.4byte	0x1b6
 8444 11b8 30       		.byte	0x30
 8445 11b9 0D       		.uleb128 0xd
 8446 11ba 4C120000 		.4byte	.LASF265
 8447 11be 12       		.byte	0x12
 8448 11bf D3       		.byte	0xd3
 8449 11c0 B6010000 		.4byte	0x1b6
 8450 11c4 34       		.byte	0x34
 8451 11c5 0D       		.uleb128 0xd
 8452 11c6 380C0000 		.4byte	.LASF266
 8453 11ca 12       		.byte	0x12
 8454 11cb D4       		.byte	0xd4
 8455 11cc B6010000 		.4byte	0x1b6
 8456 11d0 38       		.byte	0x38
 8457 11d1 0D       		.uleb128 0xd
 8458 11d2 C0210000 		.4byte	.LASF267
 8459 11d6 12       		.byte	0x12
 8460 11d7 D5       		.byte	0xd5
 8461 11d8 B6010000 		.4byte	0x1b6
 8462 11dc 3C       		.byte	0x3c
 8463 11dd 0D       		.uleb128 0xd
 8464 11de C5210000 		.4byte	.LASF268
 8465 11e2 12       		.byte	0x12
 8466 11e3 D6       		.byte	0xd6
 8467 11e4 B6010000 		.4byte	0x1b6
 8468 11e8 40       		.byte	0x40
ARM GAS  C:\Users\Moi\AppData\Local\Temp\ccAXdvuJ.s 			page 155


 8469 11e9 0D       		.uleb128 0xd
 8470 11ea CA210000 		.4byte	.LASF269
 8471 11ee 12       		.byte	0x12
 8472 11ef D7       		.byte	0xd7
 8473 11f0 B6010000 		.4byte	0x1b6
 8474 11f4 44       		.byte	0x44
 8475 11f5 0D       		.uleb128 0xd
 8476 11f6 CF210000 		.4byte	.LASF270
 8477 11fa 12       		.byte	0x12
 8478 11fb D8       		.byte	0xd8
 8479 11fc B6010000 		.4byte	0x1b6
 8480 1200 48       		.byte	0x48
 8481 1201 13       		.uleb128 0x13
 8482 1202 445200   		.ascii	"DR\000"
 8483 1205 12       		.byte	0x12
 8484 1206 D9       		.byte	0xd9
 8485 1207 B6010000 		.4byte	0x1b6
 8486 120b 4C       		.byte	0x4c
 8487 120c 00       		.byte	0
 8488 120d 02       		.uleb128 0x2
 8489 120e 1F140000 		.4byte	.LASF271
 8490 1212 12       		.byte	0x12
 8491 1213 DA       		.byte	0xda
 8492 1214 16110000 		.4byte	0x1116
 8493 1218 0C       		.uleb128 0xc
 8494 1219 10       		.byte	0x10
 8495 121a 12       		.byte	0x12
 8496 121b E9       		.byte	0xe9
 8497 121c 51120000 		.4byte	0x1251
 8498 1220 13       		.uleb128 0x13
 8499 1221 54495200 		.ascii	"TIR\000"
 8500 1225 12       		.byte	0x12
 8501 1226 EB       		.byte	0xeb
 8502 1227 B6010000 		.4byte	0x1b6
 8503 122b 00       		.byte	0
 8504 122c 0D       		.uleb128 0xd
 8505 122d 1C100000 		.4byte	.LASF272
 8506 1231 12       		.byte	0x12
 8507 1232 EC       		.byte	0xec
 8508 1233 B6010000 		.4byte	0x1b6
 8509 1237 04       		.byte	0x4
 8510 1238 0D       		.uleb128 0xd
 8511 1239 EB160000 		.4byte	.LASF273
 8512 123d 12       		.byte	0x12
 8513 123e ED       		.byte	0xed
 8514 123f B6010000 		.4byte	0x1b6
 8515 1243 08       		.byte	0x8
 8516 1244 0D       		.uleb128 0xd
 8517 1245 B6140000 		.4byte	.LASF274
 8518 1249 12       		.byte	0x12
 8519 124a EE       		.byte	0xee
 8520 124b B6010000 		.4byte	0x1b6
 8521 124f 0C       		.byte	0xc
 8522 1250 00       		.byte	0
 8523 1251 02       		.uleb128 0x2
 8524 1252 79050000 		.4byte	.LASF275
 8525 1256 12       		.byte	0x12
ARM GAS  C:\Users\Moi\AppData\Local\Temp\ccAXdvuJ.s 			page 156


 8526 1257 EF       		.byte	0xef
 8527 1258 18120000 		.4byte	0x1218
 8528 125c 0C       		.uleb128 0xc
 8529 125d 10       		.byte	0x10
 8530 125e 12       		.byte	0x12
 8531 125f F5       		.byte	0xf5
 8532 1260 95120000 		.4byte	0x1295
 8533 1264 13       		.uleb128 0x13
 8534 1265 52495200 		.ascii	"RIR\000"
 8535 1269 12       		.byte	0x12
 8536 126a F7       		.byte	0xf7
 8537 126b B6010000 		.4byte	0x1b6
 8538 126f 00       		.byte	0
 8539 1270 0D       		.uleb128 0xd
 8540 1271 ED1C0000 		.4byte	.LASF276
 8541 1275 12       		.byte	0x12
 8542 1276 F8       		.byte	0xf8
 8543 1277 B6010000 		.4byte	0x1b6
 8544 127b 04       		.byte	0x4
 8545 127c 0D       		.uleb128 0xd
 8546 127d 49180000 		.4byte	.LASF277
 8547 1281 12       		.byte	0x12
 8548 1282 F9       		.byte	0xf9
 8549 1283 B6010000 		.4byte	0x1b6
 8550 1287 08       		.byte	0x8
 8551 1288 0D       		.uleb128 0xd
 8552 1289 D6150000 		.4byte	.LASF278
 8553 128d 12       		.byte	0x12
 8554 128e FA       		.byte	0xfa
 8555 128f B6010000 		.4byte	0x1b6
 8556 1293 0C       		.byte	0xc
 8557 1294 00       		.byte	0
 8558 1295 02       		.uleb128 0x2
 8559 1296 031C0000 		.4byte	.LASF279
 8560 129a 12       		.byte	0x12
 8561 129b FB       		.byte	0xfb
 8562 129c 5C120000 		.4byte	0x125c
 8563 12a0 1D       		.uleb128 0x1d
 8564 12a1 08       		.byte	0x8
 8565 12a2 12       		.byte	0x12
 8566 12a3 0101     		.2byte	0x101
 8567 12a5 C4120000 		.4byte	0x12c4
 8568 12a9 25       		.uleb128 0x25
 8569 12aa 46523100 		.ascii	"FR1\000"
 8570 12ae 12       		.byte	0x12
 8571 12af 0301     		.2byte	0x103
 8572 12b1 B6010000 		.4byte	0x1b6
 8573 12b5 00       		.byte	0
 8574 12b6 25       		.uleb128 0x25
 8575 12b7 46523200 		.ascii	"FR2\000"
 8576 12bb 12       		.byte	0x12
 8577 12bc 0401     		.2byte	0x104
 8578 12be B6010000 		.4byte	0x1b6
 8579 12c2 04       		.byte	0x4
 8580 12c3 00       		.byte	0
 8581 12c4 07       		.uleb128 0x7
 8582 12c5 21100000 		.4byte	.LASF280
ARM GAS  C:\Users\Moi\AppData\Local\Temp\ccAXdvuJ.s 			page 157


 8583 12c9 12       		.byte	0x12
 8584 12ca 0501     		.2byte	0x105
 8585 12cc A0120000 		.4byte	0x12a0
 8586 12d0 27       		.uleb128 0x27
 8587 12d1 2003     		.2byte	0x320
 8588 12d3 12       		.byte	0x12
 8589 12d4 0B01     		.2byte	0x10b
 8590 12d6 06140000 		.4byte	0x1406
 8591 12da 25       		.uleb128 0x25
 8592 12db 4D435200 		.ascii	"MCR\000"
 8593 12df 12       		.byte	0x12
 8594 12e0 0D01     		.2byte	0x10d
 8595 12e2 B6010000 		.4byte	0x1b6
 8596 12e6 00       		.byte	0
 8597 12e7 25       		.uleb128 0x25
 8598 12e8 4D535200 		.ascii	"MSR\000"
 8599 12ec 12       		.byte	0x12
 8600 12ed 0E01     		.2byte	0x10e
 8601 12ef B6010000 		.4byte	0x1b6
 8602 12f3 04       		.byte	0x4
 8603 12f4 25       		.uleb128 0x25
 8604 12f5 54535200 		.ascii	"TSR\000"
 8605 12f9 12       		.byte	0x12
 8606 12fa 0F01     		.2byte	0x10f
 8607 12fc B6010000 		.4byte	0x1b6
 8608 1300 08       		.byte	0x8
 8609 1301 1A       		.uleb128 0x1a
 8610 1302 680E0000 		.4byte	.LASF281
 8611 1306 12       		.byte	0x12
 8612 1307 1001     		.2byte	0x110
 8613 1309 B6010000 		.4byte	0x1b6
 8614 130d 0C       		.byte	0xc
 8615 130e 1A       		.uleb128 0x1a
 8616 130f 85180000 		.4byte	.LASF282
 8617 1313 12       		.byte	0x12
 8618 1314 1101     		.2byte	0x111
 8619 1316 B6010000 		.4byte	0x1b6
 8620 131a 10       		.byte	0x10
 8621 131b 25       		.uleb128 0x25
 8622 131c 49455200 		.ascii	"IER\000"
 8623 1320 12       		.byte	0x12
 8624 1321 1201     		.2byte	0x112
 8625 1323 B6010000 		.4byte	0x1b6
 8626 1327 14       		.byte	0x14
 8627 1328 25       		.uleb128 0x25
 8628 1329 45535200 		.ascii	"ESR\000"
 8629 132d 12       		.byte	0x12
 8630 132e 1301     		.2byte	0x113
 8631 1330 B6010000 		.4byte	0x1b6
 8632 1334 18       		.byte	0x18
 8633 1335 25       		.uleb128 0x25
 8634 1336 42545200 		.ascii	"BTR\000"
 8635 133a 12       		.byte	0x12
 8636 133b 1401     		.2byte	0x114
 8637 133d B6010000 		.4byte	0x1b6
 8638 1341 1C       		.byte	0x1c
 8639 1342 1A       		.uleb128 0x1a
ARM GAS  C:\Users\Moi\AppData\Local\Temp\ccAXdvuJ.s 			page 158


 8640 1343 2D1F0000 		.4byte	.LASF283
 8641 1347 12       		.byte	0x12
 8642 1348 1501     		.2byte	0x115
 8643 134a 06140000 		.4byte	0x1406
 8644 134e 20       		.byte	0x20
 8645 134f 1B       		.uleb128 0x1b
 8646 1350 1E110000 		.4byte	.LASF284
 8647 1354 12       		.byte	0x12
 8648 1355 1601     		.2byte	0x116
 8649 1357 16140000 		.4byte	0x1416
 8650 135b 8001     		.2byte	0x180
 8651 135d 1B       		.uleb128 0x1b
 8652 135e 39230000 		.4byte	.LASF285
 8653 1362 12       		.byte	0x12
 8654 1363 1701     		.2byte	0x117
 8655 1365 26140000 		.4byte	0x1426
 8656 1369 B001     		.2byte	0x1b0
 8657 136b 1B       		.uleb128 0x1b
 8658 136c 371F0000 		.4byte	.LASF286
 8659 1370 12       		.byte	0x12
 8660 1371 1801     		.2byte	0x118
 8661 1373 36140000 		.4byte	0x1436
 8662 1377 D001     		.2byte	0x1d0
 8663 1379 26       		.uleb128 0x26
 8664 137a 464D5200 		.ascii	"FMR\000"
 8665 137e 12       		.byte	0x12
 8666 137f 1901     		.2byte	0x119
 8667 1381 B6010000 		.4byte	0x1b6
 8668 1385 0002     		.2byte	0x200
 8669 1387 1B       		.uleb128 0x1b
 8670 1388 080B0000 		.4byte	.LASF287
 8671 138c 12       		.byte	0x12
 8672 138d 1A01     		.2byte	0x11a
 8673 138f B6010000 		.4byte	0x1b6
 8674 1393 0402     		.2byte	0x204
 8675 1395 1B       		.uleb128 0x1b
 8676 1396 411F0000 		.4byte	.LASF288
 8677 139a 12       		.byte	0x12
 8678 139b 1B01     		.2byte	0x11b
 8679 139d AB010000 		.4byte	0x1ab
 8680 13a1 0802     		.2byte	0x208
 8681 13a3 1B       		.uleb128 0x1b
 8682 13a4 13210000 		.4byte	.LASF289
 8683 13a8 12       		.byte	0x12
 8684 13a9 1C01     		.2byte	0x11c
 8685 13ab B6010000 		.4byte	0x1b6
 8686 13af 0C02     		.2byte	0x20c
 8687 13b1 1B       		.uleb128 0x1b
 8688 13b2 4B1F0000 		.4byte	.LASF290
 8689 13b6 12       		.byte	0x12
 8690 13b7 1D01     		.2byte	0x11d
 8691 13b9 AB010000 		.4byte	0x1ab
 8692 13bd 1002     		.2byte	0x210
 8693 13bf 1B       		.uleb128 0x1b
 8694 13c0 7F180000 		.4byte	.LASF291
 8695 13c4 12       		.byte	0x12
 8696 13c5 1E01     		.2byte	0x11e
ARM GAS  C:\Users\Moi\AppData\Local\Temp\ccAXdvuJ.s 			page 159


 8697 13c7 B6010000 		.4byte	0x1b6
 8698 13cb 1402     		.2byte	0x214
 8699 13cd 1B       		.uleb128 0x1b
 8700 13ce 551F0000 		.4byte	.LASF292
 8701 13d2 12       		.byte	0x12
 8702 13d3 1F01     		.2byte	0x11f
 8703 13d5 AB010000 		.4byte	0x1ab
 8704 13d9 1802     		.2byte	0x218
 8705 13db 1B       		.uleb128 0x1b
 8706 13dc 31040000 		.4byte	.LASF293
 8707 13e0 12       		.byte	0x12
 8708 13e1 2001     		.2byte	0x120
 8709 13e3 B6010000 		.4byte	0x1b6
 8710 13e7 1C02     		.2byte	0x21c
 8711 13e9 1B       		.uleb128 0x1b
 8712 13ea 5F1F0000 		.4byte	.LASF294
 8713 13ee 12       		.byte	0x12
 8714 13ef 2101     		.2byte	0x121
 8715 13f1 EF100000 		.4byte	0x10ef
 8716 13f5 2002     		.2byte	0x220
 8717 13f7 1B       		.uleb128 0x1b
 8718 13f8 30060000 		.4byte	.LASF295
 8719 13fc 12       		.byte	0x12
 8720 13fd 2201     		.2byte	0x122
 8721 13ff 46140000 		.4byte	0x1446
 8722 1403 4002     		.2byte	0x240
 8723 1405 00       		.byte	0
 8724 1406 0A       		.uleb128 0xa
 8725 1407 AB010000 		.4byte	0x1ab
 8726 140b 16140000 		.4byte	0x1416
 8727 140f 0B       		.uleb128 0xb
 8728 1410 B1000000 		.4byte	0xb1
 8729 1414 57       		.byte	0x57
 8730 1415 00       		.byte	0
 8731 1416 0A       		.uleb128 0xa
 8732 1417 51120000 		.4byte	0x1251
 8733 141b 26140000 		.4byte	0x1426
 8734 141f 0B       		.uleb128 0xb
 8735 1420 B1000000 		.4byte	0xb1
 8736 1424 02       		.byte	0x2
 8737 1425 00       		.byte	0
 8738 1426 0A       		.uleb128 0xa
 8739 1427 95120000 		.4byte	0x1295
 8740 142b 36140000 		.4byte	0x1436
 8741 142f 0B       		.uleb128 0xb
 8742 1430 B1000000 		.4byte	0xb1
 8743 1434 01       		.byte	0x1
 8744 1435 00       		.byte	0
 8745 1436 0A       		.uleb128 0xa
 8746 1437 AB010000 		.4byte	0x1ab
 8747 143b 46140000 		.4byte	0x1446
 8748 143f 0B       		.uleb128 0xb
 8749 1440 B1000000 		.4byte	0xb1
 8750 1444 0B       		.byte	0xb
 8751 1445 00       		.byte	0
 8752 1446 0A       		.uleb128 0xa
 8753 1447 C4120000 		.4byte	0x12c4
ARM GAS  C:\Users\Moi\AppData\Local\Temp\ccAXdvuJ.s 			page 160


 8754 144b 56140000 		.4byte	0x1456
 8755 144f 0B       		.uleb128 0xb
 8756 1450 B1000000 		.4byte	0xb1
 8757 1454 1B       		.byte	0x1b
 8758 1455 00       		.byte	0
 8759 1456 07       		.uleb128 0x7
 8760 1457 FA0C0000 		.4byte	.LASF296
 8761 145b 12       		.byte	0x12
 8762 145c 2301     		.2byte	0x123
 8763 145e D0120000 		.4byte	0x12d0
 8764 1462 1D       		.uleb128 0x1d
 8765 1463 38       		.byte	0x38
 8766 1464 12       		.byte	0x12
 8767 1465 3601     		.2byte	0x136
 8768 1467 20150000 		.4byte	0x1520
 8769 146b 25       		.uleb128 0x25
 8770 146c 435200   		.ascii	"CR\000"
 8771 146f 12       		.byte	0x12
 8772 1470 3801     		.2byte	0x138
 8773 1472 B6010000 		.4byte	0x1b6
 8774 1476 00       		.byte	0
 8775 1477 1A       		.uleb128 0x1a
 8776 1478 B0150000 		.4byte	.LASF297
 8777 147c 12       		.byte	0x12
 8778 147d 3901     		.2byte	0x139
 8779 147f B6010000 		.4byte	0x1b6
 8780 1483 04       		.byte	0x4
 8781 1484 1A       		.uleb128 0x1a
 8782 1485 7B1F0000 		.4byte	.LASF298
 8783 1489 12       		.byte	0x12
 8784 148a 3A01     		.2byte	0x13a
 8785 148c B6010000 		.4byte	0x1b6
 8786 1490 08       		.byte	0x8
 8787 1491 1A       		.uleb128 0x1a
 8788 1492 7E1A0000 		.4byte	.LASF299
 8789 1496 12       		.byte	0x12
 8790 1497 3B01     		.2byte	0x13b
 8791 1499 B6010000 		.4byte	0x1b6
 8792 149d 0C       		.byte	0xc
 8793 149e 1A       		.uleb128 0x1a
 8794 149f 580A0000 		.4byte	.LASF300
 8795 14a3 12       		.byte	0x12
 8796 14a4 3C01     		.2byte	0x13c
 8797 14a6 B6010000 		.4byte	0x1b6
 8798 14aa 10       		.byte	0x10
 8799 14ab 1A       		.uleb128 0x1a
 8800 14ac 831F0000 		.4byte	.LASF301
 8801 14b0 12       		.byte	0x12
 8802 14b1 3D01     		.2byte	0x13d
 8803 14b3 B6010000 		.4byte	0x1b6
 8804 14b7 14       		.byte	0x14
 8805 14b8 1A       		.uleb128 0x1a
 8806 14b9 EE0F0000 		.4byte	.LASF302
 8807 14bd 12       		.byte	0x12
 8808 14be 3E01     		.2byte	0x13e
 8809 14c0 B6010000 		.4byte	0x1b6
 8810 14c4 18       		.byte	0x18
ARM GAS  C:\Users\Moi\AppData\Local\Temp\ccAXdvuJ.s 			page 161


 8811 14c5 1A       		.uleb128 0x1a
 8812 14c6 5F0A0000 		.4byte	.LASF303
 8813 14ca 12       		.byte	0x12
 8814 14cb 3F01     		.2byte	0x13f
 8815 14cd B6010000 		.4byte	0x1b6
 8816 14d1 1C       		.byte	0x1c
 8817 14d2 1A       		.uleb128 0x1a
 8818 14d3 CA1F0000 		.4byte	.LASF304
 8819 14d7 12       		.byte	0x12
 8820 14d8 4001     		.2byte	0x140
 8821 14da B6010000 		.4byte	0x1b6
 8822 14de 20       		.byte	0x20
 8823 14df 1A       		.uleb128 0x1a
 8824 14e0 A71A0000 		.4byte	.LASF305
 8825 14e4 12       		.byte	0x12
 8826 14e5 4101     		.2byte	0x141
 8827 14e7 B6010000 		.4byte	0x1b6
 8828 14eb 24       		.byte	0x24
 8829 14ec 1A       		.uleb128 0x1a
 8830 14ed 5B230000 		.4byte	.LASF306
 8831 14f1 12       		.byte	0x12
 8832 14f2 4201     		.2byte	0x142
 8833 14f4 B6010000 		.4byte	0x1b6
 8834 14f8 28       		.byte	0x28
 8835 14f9 1A       		.uleb128 0x1a
 8836 14fa A3010000 		.4byte	.LASF307
 8837 14fe 12       		.byte	0x12
 8838 14ff 4301     		.2byte	0x143
 8839 1501 B6010000 		.4byte	0x1b6
 8840 1505 2C       		.byte	0x2c
 8841 1506 1A       		.uleb128 0x1a
 8842 1507 A8010000 		.4byte	.LASF308
 8843 150b 12       		.byte	0x12
 8844 150c 4401     		.2byte	0x144
 8845 150e B6010000 		.4byte	0x1b6
 8846 1512 30       		.byte	0x30
 8847 1513 25       		.uleb128 0x25
 8848 1514 535200   		.ascii	"SR\000"
 8849 1517 12       		.byte	0x12
 8850 1518 4501     		.2byte	0x145
 8851 151a B6010000 		.4byte	0x1b6
 8852 151e 34       		.byte	0x34
 8853 151f 00       		.byte	0
 8854 1520 07       		.uleb128 0x7
 8855 1521 1B1C0000 		.4byte	.LASF309
 8856 1525 12       		.byte	0x12
 8857 1526 4601     		.2byte	0x146
 8858 1528 62140000 		.4byte	0x1462
 8859 152c 1D       		.uleb128 0x1d
 8860 152d 2C       		.byte	0x2c
 8861 152e 12       		.byte	0x12
 8862 152f 5801     		.2byte	0x158
 8863 1531 C2150000 		.4byte	0x15c2
 8864 1535 25       		.uleb128 0x25
 8865 1536 435200   		.ascii	"CR\000"
 8866 1539 12       		.byte	0x12
 8867 153a 5A01     		.2byte	0x15a
ARM GAS  C:\Users\Moi\AppData\Local\Temp\ccAXdvuJ.s 			page 162


 8868 153c B6010000 		.4byte	0x1b6
 8869 1540 00       		.byte	0
 8870 1541 25       		.uleb128 0x25
 8871 1542 535200   		.ascii	"SR\000"
 8872 1545 12       		.byte	0x12
 8873 1546 5B01     		.2byte	0x15b
 8874 1548 B6010000 		.4byte	0x1b6
 8875 154c 04       		.byte	0x4
 8876 154d 1A       		.uleb128 0x1a
 8877 154e AE090000 		.4byte	.LASF310
 8878 1552 12       		.byte	0x12
 8879 1553 5C01     		.2byte	0x15c
 8880 1555 B6010000 		.4byte	0x1b6
 8881 1559 08       		.byte	0x8
 8882 155a 25       		.uleb128 0x25
 8883 155b 49455200 		.ascii	"IER\000"
 8884 155f 12       		.byte	0x12
 8885 1560 5D01     		.2byte	0x15d
 8886 1562 B6010000 		.4byte	0x1b6
 8887 1566 0C       		.byte	0xc
 8888 1567 1A       		.uleb128 0x1a
 8889 1568 03200000 		.4byte	.LASF311
 8890 156c 12       		.byte	0x12
 8891 156d 5E01     		.2byte	0x15e
 8892 156f B6010000 		.4byte	0x1b6
 8893 1573 10       		.byte	0x10
 8894 1574 25       		.uleb128 0x25
 8895 1575 49435200 		.ascii	"ICR\000"
 8896 1579 12       		.byte	0x12
 8897 157a 5F01     		.2byte	0x15f
 8898 157c B6010000 		.4byte	0x1b6
 8899 1580 14       		.byte	0x14
 8900 1581 1A       		.uleb128 0x1a
 8901 1582 57190000 		.4byte	.LASF312
 8902 1586 12       		.byte	0x12
 8903 1587 6001     		.2byte	0x160
 8904 1589 B6010000 		.4byte	0x1b6
 8905 158d 18       		.byte	0x18
 8906 158e 1A       		.uleb128 0x1a
 8907 158f 2E250000 		.4byte	.LASF313
 8908 1593 12       		.byte	0x12
 8909 1594 6101     		.2byte	0x161
 8910 1596 B6010000 		.4byte	0x1b6
 8911 159a 1C       		.byte	0x1c
 8912 159b 1A       		.uleb128 0x1a
 8913 159c DF110000 		.4byte	.LASF314
 8914 15a0 12       		.byte	0x12
 8915 15a1 6201     		.2byte	0x162
 8916 15a3 B6010000 		.4byte	0x1b6
 8917 15a7 20       		.byte	0x20
 8918 15a8 1A       		.uleb128 0x1a
 8919 15a9 CC190000 		.4byte	.LASF315
 8920 15ad 12       		.byte	0x12
 8921 15ae 6301     		.2byte	0x163
 8922 15b0 B6010000 		.4byte	0x1b6
 8923 15b4 24       		.byte	0x24
 8924 15b5 25       		.uleb128 0x25
ARM GAS  C:\Users\Moi\AppData\Local\Temp\ccAXdvuJ.s 			page 163


 8925 15b6 445200   		.ascii	"DR\000"
 8926 15b9 12       		.byte	0x12
 8927 15ba 6401     		.2byte	0x164
 8928 15bc B6010000 		.4byte	0x1b6
 8929 15c0 28       		.byte	0x28
 8930 15c1 00       		.byte	0
 8931 15c2 07       		.uleb128 0x7
 8932 15c3 36040000 		.4byte	.LASF316
 8933 15c7 12       		.byte	0x12
 8934 15c8 6501     		.2byte	0x165
 8935 15ca 2C150000 		.4byte	0x152c
 8936 15ce 1D       		.uleb128 0x1d
 8937 15cf 18       		.byte	0x18
 8938 15d0 12       		.byte	0x12
 8939 15d1 6B01     		.2byte	0x16b
 8940 15d3 25160000 		.4byte	0x1625
 8941 15d7 25       		.uleb128 0x25
 8942 15d8 435200   		.ascii	"CR\000"
 8943 15db 12       		.byte	0x12
 8944 15dc 6D01     		.2byte	0x16d
 8945 15de B6010000 		.4byte	0x1b6
 8946 15e2 00       		.byte	0
 8947 15e3 1A       		.uleb128 0x1a
 8948 15e4 57200000 		.4byte	.LASF317
 8949 15e8 12       		.byte	0x12
 8950 15e9 6E01     		.2byte	0x16e
 8951 15eb B6010000 		.4byte	0x1b6
 8952 15ef 04       		.byte	0x4
 8953 15f0 25       		.uleb128 0x25
 8954 15f1 50415200 		.ascii	"PAR\000"
 8955 15f5 12       		.byte	0x12
 8956 15f6 6F01     		.2byte	0x16f
 8957 15f8 B6010000 		.4byte	0x1b6
 8958 15fc 08       		.byte	0x8
 8959 15fd 1A       		.uleb128 0x1a
 8960 15fe 13040000 		.4byte	.LASF318
 8961 1602 12       		.byte	0x12
 8962 1603 7001     		.2byte	0x170
 8963 1605 B6010000 		.4byte	0x1b6
 8964 1609 0C       		.byte	0xc
 8965 160a 1A       		.uleb128 0x1a
 8966 160b 36080000 		.4byte	.LASF319
 8967 160f 12       		.byte	0x12
 8968 1610 7101     		.2byte	0x171
 8969 1612 B6010000 		.4byte	0x1b6
 8970 1616 10       		.byte	0x10
 8971 1617 25       		.uleb128 0x25
 8972 1618 46435200 		.ascii	"FCR\000"
 8973 161c 12       		.byte	0x12
 8974 161d 7201     		.2byte	0x172
 8975 161f B6010000 		.4byte	0x1b6
 8976 1623 14       		.byte	0x14
 8977 1624 00       		.byte	0
 8978 1625 07       		.uleb128 0x7
 8979 1626 40080000 		.4byte	.LASF320
 8980 162a 12       		.byte	0x12
 8981 162b 7301     		.2byte	0x173
ARM GAS  C:\Users\Moi\AppData\Local\Temp\ccAXdvuJ.s 			page 164


 8982 162d CE150000 		.4byte	0x15ce
 8983 1631 0A       		.uleb128 0xa
 8984 1632 B6010000 		.4byte	0x1b6
 8985 1636 41160000 		.4byte	0x1641
 8986 163a 0B       		.uleb128 0xb
 8987 163b B1000000 		.4byte	0xb1
 8988 163f 01       		.byte	0x1
 8989 1640 00       		.byte	0
 8990 1641 10       		.uleb128 0x10
 8991 1642 31160000 		.4byte	0x1631
 8992 1646 0A       		.uleb128 0xa
 8993 1647 B6010000 		.4byte	0x1b6
 8994 164b 56160000 		.4byte	0x1656
 8995 164f 0B       		.uleb128 0xb
 8996 1650 B1000000 		.4byte	0xb1
 8997 1654 03       		.byte	0x3
 8998 1655 00       		.byte	0
 8999 1656 10       		.uleb128 0x10
 9000 1657 46160000 		.4byte	0x1646
 9001 165b 1D       		.uleb128 0x1d
 9002 165c 28       		.byte	0x28
 9003 165d 12       		.byte	0x12
 9004 165e 3F02     		.2byte	0x23f
 9005 1660 E6160000 		.4byte	0x16e6
 9006 1664 25       		.uleb128 0x25
 9007 1665 43523100 		.ascii	"CR1\000"
 9008 1669 12       		.byte	0x12
 9009 166a 4102     		.2byte	0x241
 9010 166c B6010000 		.4byte	0x1b6
 9011 1670 00       		.byte	0
 9012 1671 25       		.uleb128 0x25
 9013 1672 43523200 		.ascii	"CR2\000"
 9014 1676 12       		.byte	0x12
 9015 1677 4202     		.2byte	0x242
 9016 1679 B6010000 		.4byte	0x1b6
 9017 167d 04       		.byte	0x4
 9018 167e 1A       		.uleb128 0x1a
 9019 167f 27260000 		.4byte	.LASF321
 9020 1683 12       		.byte	0x12
 9021 1684 4302     		.2byte	0x243
 9022 1686 B6010000 		.4byte	0x1b6
 9023 168a 08       		.byte	0x8
 9024 168b 1A       		.uleb128 0x1a
 9025 168c 2C260000 		.4byte	.LASF322
 9026 1690 12       		.byte	0x12
 9027 1691 4402     		.2byte	0x244
 9028 1693 B6010000 		.4byte	0x1b6
 9029 1697 0C       		.byte	0xc
 9030 1698 25       		.uleb128 0x25
 9031 1699 445200   		.ascii	"DR\000"
 9032 169c 12       		.byte	0x12
 9033 169d 4502     		.2byte	0x245
 9034 169f B6010000 		.4byte	0x1b6
 9035 16a3 10       		.byte	0x10
 9036 16a4 25       		.uleb128 0x25
 9037 16a5 53523100 		.ascii	"SR1\000"
 9038 16a9 12       		.byte	0x12
ARM GAS  C:\Users\Moi\AppData\Local\Temp\ccAXdvuJ.s 			page 165


 9039 16aa 4602     		.2byte	0x246
 9040 16ac B6010000 		.4byte	0x1b6
 9041 16b0 14       		.byte	0x14
 9042 16b1 25       		.uleb128 0x25
 9043 16b2 53523200 		.ascii	"SR2\000"
 9044 16b6 12       		.byte	0x12
 9045 16b7 4702     		.2byte	0x247
 9046 16b9 B6010000 		.4byte	0x1b6
 9047 16bd 18       		.byte	0x18
 9048 16be 25       		.uleb128 0x25
 9049 16bf 43435200 		.ascii	"CCR\000"
 9050 16c3 12       		.byte	0x12
 9051 16c4 4802     		.2byte	0x248
 9052 16c6 B6010000 		.4byte	0x1b6
 9053 16ca 1C       		.byte	0x1c
 9054 16cb 1A       		.uleb128 0x1a
 9055 16cc 3C050000 		.4byte	.LASF323
 9056 16d0 12       		.byte	0x12
 9057 16d1 4902     		.2byte	0x249
 9058 16d3 B6010000 		.4byte	0x1b6
 9059 16d7 20       		.byte	0x20
 9060 16d8 1A       		.uleb128 0x1a
 9061 16d9 BF240000 		.4byte	.LASF324
 9062 16dd 12       		.byte	0x12
 9063 16de 4A02     		.2byte	0x24a
 9064 16e0 B6010000 		.4byte	0x1b6
 9065 16e4 24       		.byte	0x24
 9066 16e5 00       		.byte	0
 9067 16e6 07       		.uleb128 0x7
 9068 16e7 C0110000 		.4byte	.LASF325
 9069 16eb 12       		.byte	0x12
 9070 16ec 4B02     		.2byte	0x24b
 9071 16ee 5B160000 		.4byte	0x165b
 9072 16f2 1D       		.uleb128 0x1d
 9073 16f3 84       		.byte	0x84
 9074 16f4 12       		.byte	0x12
 9075 16f5 BF02     		.2byte	0x2bf
 9076 16f7 00180000 		.4byte	0x1800
 9077 16fb 1A       		.uleb128 0x1a
 9078 16fc FA150000 		.4byte	.LASF326
 9079 1700 12       		.byte	0x12
 9080 1701 C102     		.2byte	0x2c1
 9081 1703 B6010000 		.4byte	0x1b6
 9082 1707 00       		.byte	0
 9083 1708 1A       		.uleb128 0x1a
 9084 1709 91210000 		.4byte	.LASF327
 9085 170d 12       		.byte	0x12
 9086 170e C202     		.2byte	0x2c2
 9087 1710 B6010000 		.4byte	0x1b6
 9088 1714 04       		.byte	0x4
 9089 1715 25       		.uleb128 0x25
 9090 1716 41524700 		.ascii	"ARG\000"
 9091 171a 12       		.byte	0x12
 9092 171b C302     		.2byte	0x2c3
 9093 171d B6010000 		.4byte	0x1b6
 9094 1721 08       		.byte	0x8
 9095 1722 25       		.uleb128 0x25
ARM GAS  C:\Users\Moi\AppData\Local\Temp\ccAXdvuJ.s 			page 166


 9096 1723 434D4400 		.ascii	"CMD\000"
 9097 1727 12       		.byte	0x12
 9098 1728 C402     		.2byte	0x2c4
 9099 172a B6010000 		.4byte	0x1b6
 9100 172e 0C       		.byte	0xc
 9101 172f 1A       		.uleb128 0x1a
 9102 1730 19190000 		.4byte	.LASF328
 9103 1734 12       		.byte	0x12
 9104 1735 C502     		.2byte	0x2c5
 9105 1737 BB010000 		.4byte	0x1bb
 9106 173b 10       		.byte	0x10
 9107 173c 1A       		.uleb128 0x1a
 9108 173d 5D060000 		.4byte	.LASF329
 9109 1741 12       		.byte	0x12
 9110 1742 C602     		.2byte	0x2c6
 9111 1744 BB010000 		.4byte	0x1bb
 9112 1748 14       		.byte	0x14
 9113 1749 1A       		.uleb128 0x1a
 9114 174a 67030000 		.4byte	.LASF330
 9115 174e 12       		.byte	0x12
 9116 174f C702     		.2byte	0x2c7
 9117 1751 BB010000 		.4byte	0x1bb
 9118 1755 18       		.byte	0x18
 9119 1756 1A       		.uleb128 0x1a
 9120 1757 63060000 		.4byte	.LASF331
 9121 175b 12       		.byte	0x12
 9122 175c C802     		.2byte	0x2c8
 9123 175e BB010000 		.4byte	0x1bb
 9124 1762 1C       		.byte	0x1c
 9125 1763 1A       		.uleb128 0x1a
 9126 1764 69060000 		.4byte	.LASF332
 9127 1768 12       		.byte	0x12
 9128 1769 C902     		.2byte	0x2c9
 9129 176b BB010000 		.4byte	0x1bb
 9130 176f 20       		.byte	0x20
 9131 1770 1A       		.uleb128 0x1a
 9132 1771 28130000 		.4byte	.LASF333
 9133 1775 12       		.byte	0x12
 9134 1776 CA02     		.2byte	0x2ca
 9135 1778 B6010000 		.4byte	0x1b6
 9136 177c 24       		.byte	0x24
 9137 177d 1A       		.uleb128 0x1a
 9138 177e E0140000 		.4byte	.LASF334
 9139 1782 12       		.byte	0x12
 9140 1783 CB02     		.2byte	0x2cb
 9141 1785 B6010000 		.4byte	0x1b6
 9142 1789 28       		.byte	0x28
 9143 178a 1A       		.uleb128 0x1a
 9144 178b AB240000 		.4byte	.LASF335
 9145 178f 12       		.byte	0x12
 9146 1790 CC02     		.2byte	0x2cc
 9147 1792 B6010000 		.4byte	0x1b6
 9148 1796 2C       		.byte	0x2c
 9149 1797 1A       		.uleb128 0x1a
 9150 1798 20260000 		.4byte	.LASF336
 9151 179c 12       		.byte	0x12
 9152 179d CD02     		.2byte	0x2cd
ARM GAS  C:\Users\Moi\AppData\Local\Temp\ccAXdvuJ.s 			page 167


 9153 179f BB010000 		.4byte	0x1bb
 9154 17a3 30       		.byte	0x30
 9155 17a4 25       		.uleb128 0x25
 9156 17a5 53544100 		.ascii	"STA\000"
 9157 17a9 12       		.byte	0x12
 9158 17aa CE02     		.2byte	0x2ce
 9159 17ac BB010000 		.4byte	0x1bb
 9160 17b0 34       		.byte	0x34
 9161 17b1 25       		.uleb128 0x25
 9162 17b2 49435200 		.ascii	"ICR\000"
 9163 17b6 12       		.byte	0x12
 9164 17b7 CF02     		.2byte	0x2cf
 9165 17b9 B6010000 		.4byte	0x1b6
 9166 17bd 38       		.byte	0x38
 9167 17be 1A       		.uleb128 0x1a
 9168 17bf E1010000 		.4byte	.LASF337
 9169 17c3 12       		.byte	0x12
 9170 17c4 D002     		.2byte	0x2d0
 9171 17c6 B6010000 		.4byte	0x1b6
 9172 17ca 3C       		.byte	0x3c
 9173 17cb 1A       		.uleb128 0x1a
 9174 17cc 2D1F0000 		.4byte	.LASF283
 9175 17d0 12       		.byte	0x12
 9176 17d1 D102     		.2byte	0x2d1
 9177 17d3 DF100000 		.4byte	0x10df
 9178 17d7 40       		.byte	0x40
 9179 17d8 1A       		.uleb128 0x1a
 9180 17d9 B8130000 		.4byte	.LASF338
 9181 17dd 12       		.byte	0x12
 9182 17de D202     		.2byte	0x2d2
 9183 17e0 BB010000 		.4byte	0x1bb
 9184 17e4 48       		.byte	0x48
 9185 17e5 1A       		.uleb128 0x1a
 9186 17e6 371F0000 		.4byte	.LASF286
 9187 17ea 12       		.byte	0x12
 9188 17eb D302     		.2byte	0x2d3
 9189 17ed 00180000 		.4byte	0x1800
 9190 17f1 4C       		.byte	0x4c
 9191 17f2 1A       		.uleb128 0x1a
 9192 17f3 A1090000 		.4byte	.LASF339
 9193 17f7 12       		.byte	0x12
 9194 17f8 D402     		.2byte	0x2d4
 9195 17fa B6010000 		.4byte	0x1b6
 9196 17fe 80       		.byte	0x80
 9197 17ff 00       		.byte	0
 9198 1800 0A       		.uleb128 0xa
 9199 1801 AB010000 		.4byte	0x1ab
 9200 1805 10180000 		.4byte	0x1810
 9201 1809 0B       		.uleb128 0xb
 9202 180a B1000000 		.4byte	0xb1
 9203 180e 0C       		.byte	0xc
 9204 180f 00       		.byte	0
 9205 1810 07       		.uleb128 0x7
 9206 1811 3F020000 		.4byte	.LASF340
 9207 1815 12       		.byte	0x12
 9208 1816 D502     		.2byte	0x2d5
 9209 1818 F2160000 		.4byte	0x16f2
ARM GAS  C:\Users\Moi\AppData\Local\Temp\ccAXdvuJ.s 			page 168


 9210 181c 1D       		.uleb128 0x1d
 9211 181d 24       		.byte	0x24
 9212 181e 12       		.byte	0x12
 9213 181f DB02     		.2byte	0x2db
 9214 1821 99180000 		.4byte	0x1899
 9215 1825 25       		.uleb128 0x25
 9216 1826 43523100 		.ascii	"CR1\000"
 9217 182a 12       		.byte	0x12
 9218 182b DD02     		.2byte	0x2dd
 9219 182d B6010000 		.4byte	0x1b6
 9220 1831 00       		.byte	0
 9221 1832 25       		.uleb128 0x25
 9222 1833 43523200 		.ascii	"CR2\000"
 9223 1837 12       		.byte	0x12
 9224 1838 DE02     		.2byte	0x2de
 9225 183a B6010000 		.4byte	0x1b6
 9226 183e 04       		.byte	0x4
 9227 183f 25       		.uleb128 0x25
 9228 1840 535200   		.ascii	"SR\000"
 9229 1843 12       		.byte	0x12
 9230 1844 DF02     		.2byte	0x2df
 9231 1846 B6010000 		.4byte	0x1b6
 9232 184a 08       		.byte	0x8
 9233 184b 25       		.uleb128 0x25
 9234 184c 445200   		.ascii	"DR\000"
 9235 184f 12       		.byte	0x12
 9236 1850 E002     		.2byte	0x2e0
 9237 1852 B6010000 		.4byte	0x1b6
 9238 1856 0C       		.byte	0xc
 9239 1857 1A       		.uleb128 0x1a
 9240 1858 BA070000 		.4byte	.LASF341
 9241 185c 12       		.byte	0x12
 9242 185d E102     		.2byte	0x2e1
 9243 185f B6010000 		.4byte	0x1b6
 9244 1863 10       		.byte	0x10
 9245 1864 1A       		.uleb128 0x1a
 9246 1865 8C0B0000 		.4byte	.LASF342
 9247 1869 12       		.byte	0x12
 9248 186a E202     		.2byte	0x2e2
 9249 186c B6010000 		.4byte	0x1b6
 9250 1870 14       		.byte	0x14
 9251 1871 1A       		.uleb128 0x1a
 9252 1872 A20A0000 		.4byte	.LASF343
 9253 1876 12       		.byte	0x12
 9254 1877 E302     		.2byte	0x2e3
 9255 1879 B6010000 		.4byte	0x1b6
 9256 187d 18       		.byte	0x18
 9257 187e 1A       		.uleb128 0x1a
 9258 187f 74220000 		.4byte	.LASF344
 9259 1883 12       		.byte	0x12
 9260 1884 E402     		.2byte	0x2e4
 9261 1886 B6010000 		.4byte	0x1b6
 9262 188a 1C       		.byte	0x1c
 9263 188b 1A       		.uleb128 0x1a
 9264 188c 6C070000 		.4byte	.LASF345
 9265 1890 12       		.byte	0x12
 9266 1891 E502     		.2byte	0x2e5
ARM GAS  C:\Users\Moi\AppData\Local\Temp\ccAXdvuJ.s 			page 169


 9267 1893 B6010000 		.4byte	0x1b6
 9268 1897 20       		.byte	0x20
 9269 1898 00       		.byte	0
 9270 1899 07       		.uleb128 0x7
 9271 189a AC200000 		.4byte	.LASF346
 9272 189e 12       		.byte	0x12
 9273 189f E602     		.2byte	0x2e6
 9274 18a1 1C180000 		.4byte	0x181c
 9275 18a5 1D       		.uleb128 0x1d
 9276 18a6 1C       		.byte	0x1c
 9277 18a7 12       		.byte	0x12
 9278 18a8 0903     		.2byte	0x309
 9279 18aa 08190000 		.4byte	0x1908
 9280 18ae 25       		.uleb128 0x25
 9281 18af 535200   		.ascii	"SR\000"
 9282 18b2 12       		.byte	0x12
 9283 18b3 0B03     		.2byte	0x30b
 9284 18b5 B6010000 		.4byte	0x1b6
 9285 18b9 00       		.byte	0
 9286 18ba 25       		.uleb128 0x25
 9287 18bb 445200   		.ascii	"DR\000"
 9288 18be 12       		.byte	0x12
 9289 18bf 0C03     		.2byte	0x30c
 9290 18c1 B6010000 		.4byte	0x1b6
 9291 18c5 04       		.byte	0x4
 9292 18c6 25       		.uleb128 0x25
 9293 18c7 42525200 		.ascii	"BRR\000"
 9294 18cb 12       		.byte	0x12
 9295 18cc 0D03     		.2byte	0x30d
 9296 18ce B6010000 		.4byte	0x1b6
 9297 18d2 08       		.byte	0x8
 9298 18d3 25       		.uleb128 0x25
 9299 18d4 43523100 		.ascii	"CR1\000"
 9300 18d8 12       		.byte	0x12
 9301 18d9 0E03     		.2byte	0x30e
 9302 18db B6010000 		.4byte	0x1b6
 9303 18df 0C       		.byte	0xc
 9304 18e0 25       		.uleb128 0x25
 9305 18e1 43523200 		.ascii	"CR2\000"
 9306 18e5 12       		.byte	0x12
 9307 18e6 0F03     		.2byte	0x30f
 9308 18e8 B6010000 		.4byte	0x1b6
 9309 18ec 10       		.byte	0x10
 9310 18ed 25       		.uleb128 0x25
 9311 18ee 43523300 		.ascii	"CR3\000"
 9312 18f2 12       		.byte	0x12
 9313 18f3 1003     		.2byte	0x310
 9314 18f5 B6010000 		.4byte	0x1b6
 9315 18f9 14       		.byte	0x14
 9316 18fa 1A       		.uleb128 0x1a
 9317 18fb B3090000 		.4byte	.LASF347
 9318 18ff 12       		.byte	0x12
 9319 1900 1103     		.2byte	0x311
 9320 1902 B6010000 		.4byte	0x1b6
 9321 1906 18       		.byte	0x18
 9322 1907 00       		.byte	0
 9323 1908 07       		.uleb128 0x7
ARM GAS  C:\Users\Moi\AppData\Local\Temp\ccAXdvuJ.s 			page 170


 9324 1909 68250000 		.4byte	.LASF348
 9325 190d 12       		.byte	0x12
 9326 190e 1203     		.2byte	0x312
 9327 1910 A5180000 		.4byte	0x18a5
 9328 1914 0A       		.uleb128 0xa
 9329 1915 B6010000 		.4byte	0x1b6
 9330 1919 24190000 		.4byte	0x1924
 9331 191d 0B       		.uleb128 0xb
 9332 191e B1000000 		.4byte	0xb1
 9333 1922 0E       		.byte	0xe
 9334 1923 00       		.byte	0
 9335 1924 10       		.uleb128 0x10
 9336 1925 14190000 		.4byte	0x1914
 9337 1929 02       		.uleb128 0x2
 9338 192a 5A180000 		.4byte	.LASF349
 9339 192e 13       		.byte	0x13
 9340 192f 65       		.byte	0x65
 9341 1930 68010000 		.4byte	0x168
 9342 1934 02       		.uleb128 0x2
 9343 1935 35090000 		.4byte	.LASF350
 9344 1939 13       		.byte	0x13
 9345 193a 6D       		.byte	0x6d
 9346 193b C0010000 		.4byte	0x1c0
 9347 193f 12       		.uleb128 0x12
 9348 1940 16120000 		.4byte	.LASF351
 9349 1944 04       		.byte	0x4
 9350 1945 13       		.byte	0x13
 9351 1946 89       		.byte	0x89
 9352 1947 58190000 		.4byte	0x1958
 9353 194b 13       		.uleb128 0x13
 9354 194c 72313300 		.ascii	"r13\000"
 9355 1950 13       		.byte	0x13
 9356 1951 8A       		.byte	0x8a
 9357 1952 991A0000 		.4byte	0x1a99
 9358 1956 00       		.byte	0
 9359 1957 00       		.byte	0
 9360 1958 12       		.uleb128 0x12
 9361 1959 09000000 		.4byte	.LASF352
 9362 195d 64       		.byte	0x64
 9363 195e 14       		.byte	0x14
 9364 195f F4       		.byte	0xf4
 9365 1960 991A0000 		.4byte	0x1a99
 9366 1964 13       		.uleb128 0x13
 9367 1965 73313600 		.ascii	"s16\000"
 9368 1969 14       		.byte	0x14
 9369 196a F6       		.byte	0xf6
 9370 196b 29190000 		.4byte	0x1929
 9371 196f 00       		.byte	0
 9372 1970 13       		.uleb128 0x13
 9373 1971 73313700 		.ascii	"s17\000"
 9374 1975 14       		.byte	0x14
 9375 1976 F7       		.byte	0xf7
 9376 1977 29190000 		.4byte	0x1929
 9377 197b 04       		.byte	0x4
 9378 197c 13       		.uleb128 0x13
 9379 197d 73313800 		.ascii	"s18\000"
 9380 1981 14       		.byte	0x14
ARM GAS  C:\Users\Moi\AppData\Local\Temp\ccAXdvuJ.s 			page 171


 9381 1982 F8       		.byte	0xf8
 9382 1983 29190000 		.4byte	0x1929
 9383 1987 08       		.byte	0x8
 9384 1988 13       		.uleb128 0x13
 9385 1989 73313900 		.ascii	"s19\000"
 9386 198d 14       		.byte	0x14
 9387 198e F9       		.byte	0xf9
 9388 198f 29190000 		.4byte	0x1929
 9389 1993 0C       		.byte	0xc
 9390 1994 13       		.uleb128 0x13
 9391 1995 73323000 		.ascii	"s20\000"
 9392 1999 14       		.byte	0x14
 9393 199a FA       		.byte	0xfa
 9394 199b 29190000 		.4byte	0x1929
 9395 199f 10       		.byte	0x10
 9396 19a0 13       		.uleb128 0x13
 9397 19a1 73323100 		.ascii	"s21\000"
 9398 19a5 14       		.byte	0x14
 9399 19a6 FB       		.byte	0xfb
 9400 19a7 29190000 		.4byte	0x1929
 9401 19ab 14       		.byte	0x14
 9402 19ac 13       		.uleb128 0x13
 9403 19ad 73323200 		.ascii	"s22\000"
 9404 19b1 14       		.byte	0x14
 9405 19b2 FC       		.byte	0xfc
 9406 19b3 29190000 		.4byte	0x1929
 9407 19b7 18       		.byte	0x18
 9408 19b8 13       		.uleb128 0x13
 9409 19b9 73323300 		.ascii	"s23\000"
 9410 19bd 14       		.byte	0x14
 9411 19be FD       		.byte	0xfd
 9412 19bf 29190000 		.4byte	0x1929
 9413 19c3 1C       		.byte	0x1c
 9414 19c4 13       		.uleb128 0x13
 9415 19c5 73323400 		.ascii	"s24\000"
 9416 19c9 14       		.byte	0x14
 9417 19ca FE       		.byte	0xfe
 9418 19cb 29190000 		.4byte	0x1929
 9419 19cf 20       		.byte	0x20
 9420 19d0 13       		.uleb128 0x13
 9421 19d1 73323500 		.ascii	"s25\000"
 9422 19d5 14       		.byte	0x14
 9423 19d6 FF       		.byte	0xff
 9424 19d7 29190000 		.4byte	0x1929
 9425 19db 24       		.byte	0x24
 9426 19dc 25       		.uleb128 0x25
 9427 19dd 73323600 		.ascii	"s26\000"
 9428 19e1 14       		.byte	0x14
 9429 19e2 0001     		.2byte	0x100
 9430 19e4 29190000 		.4byte	0x1929
 9431 19e8 28       		.byte	0x28
 9432 19e9 25       		.uleb128 0x25
 9433 19ea 73323700 		.ascii	"s27\000"
 9434 19ee 14       		.byte	0x14
 9435 19ef 0101     		.2byte	0x101
 9436 19f1 29190000 		.4byte	0x1929
 9437 19f5 2C       		.byte	0x2c
ARM GAS  C:\Users\Moi\AppData\Local\Temp\ccAXdvuJ.s 			page 172


 9438 19f6 25       		.uleb128 0x25
 9439 19f7 73323800 		.ascii	"s28\000"
 9440 19fb 14       		.byte	0x14
 9441 19fc 0201     		.2byte	0x102
 9442 19fe 29190000 		.4byte	0x1929
 9443 1a02 30       		.byte	0x30
 9444 1a03 25       		.uleb128 0x25
 9445 1a04 73323900 		.ascii	"s29\000"
 9446 1a08 14       		.byte	0x14
 9447 1a09 0301     		.2byte	0x103
 9448 1a0b 29190000 		.4byte	0x1929
 9449 1a0f 34       		.byte	0x34
 9450 1a10 25       		.uleb128 0x25
 9451 1a11 73333000 		.ascii	"s30\000"
 9452 1a15 14       		.byte	0x14
 9453 1a16 0401     		.2byte	0x104
 9454 1a18 29190000 		.4byte	0x1929
 9455 1a1c 38       		.byte	0x38
 9456 1a1d 25       		.uleb128 0x25
 9457 1a1e 73333100 		.ascii	"s31\000"
 9458 1a22 14       		.byte	0x14
 9459 1a23 0501     		.2byte	0x105
 9460 1a25 29190000 		.4byte	0x1929
 9461 1a29 3C       		.byte	0x3c
 9462 1a2a 25       		.uleb128 0x25
 9463 1a2b 723400   		.ascii	"r4\000"
 9464 1a2e 14       		.byte	0x14
 9465 1a2f 0701     		.2byte	0x107
 9466 1a31 29190000 		.4byte	0x1929
 9467 1a35 40       		.byte	0x40
 9468 1a36 25       		.uleb128 0x25
 9469 1a37 723500   		.ascii	"r5\000"
 9470 1a3a 14       		.byte	0x14
 9471 1a3b 0801     		.2byte	0x108
 9472 1a3d 29190000 		.4byte	0x1929
 9473 1a41 44       		.byte	0x44
 9474 1a42 25       		.uleb128 0x25
 9475 1a43 723600   		.ascii	"r6\000"
 9476 1a46 14       		.byte	0x14
 9477 1a47 0901     		.2byte	0x109
 9478 1a49 29190000 		.4byte	0x1929
 9479 1a4d 48       		.byte	0x48
 9480 1a4e 25       		.uleb128 0x25
 9481 1a4f 723700   		.ascii	"r7\000"
 9482 1a52 14       		.byte	0x14
 9483 1a53 0A01     		.2byte	0x10a
 9484 1a55 29190000 		.4byte	0x1929
 9485 1a59 4C       		.byte	0x4c
 9486 1a5a 25       		.uleb128 0x25
 9487 1a5b 723800   		.ascii	"r8\000"
 9488 1a5e 14       		.byte	0x14
 9489 1a5f 0B01     		.2byte	0x10b
 9490 1a61 29190000 		.4byte	0x1929
 9491 1a65 50       		.byte	0x50
 9492 1a66 25       		.uleb128 0x25
 9493 1a67 723900   		.ascii	"r9\000"
 9494 1a6a 14       		.byte	0x14
ARM GAS  C:\Users\Moi\AppData\Local\Temp\ccAXdvuJ.s 			page 173


 9495 1a6b 0C01     		.2byte	0x10c
 9496 1a6d 29190000 		.4byte	0x1929
 9497 1a71 54       		.byte	0x54
 9498 1a72 25       		.uleb128 0x25
 9499 1a73 72313000 		.ascii	"r10\000"
 9500 1a77 14       		.byte	0x14
 9501 1a78 0D01     		.2byte	0x10d
 9502 1a7a 29190000 		.4byte	0x1929
 9503 1a7e 58       		.byte	0x58
 9504 1a7f 25       		.uleb128 0x25
 9505 1a80 72313100 		.ascii	"r11\000"
 9506 1a84 14       		.byte	0x14
 9507 1a85 0E01     		.2byte	0x10e
 9508 1a87 29190000 		.4byte	0x1929
 9509 1a8b 5C       		.byte	0x5c
 9510 1a8c 25       		.uleb128 0x25
 9511 1a8d 6C7200   		.ascii	"lr\000"
 9512 1a90 14       		.byte	0x14
 9513 1a91 0F01     		.2byte	0x10f
 9514 1a93 29190000 		.4byte	0x1929
 9515 1a97 60       		.byte	0x60
 9516 1a98 00       		.byte	0
 9517 1a99 05       		.uleb128 0x5
 9518 1a9a 04       		.byte	0x4
 9519 1a9b 58190000 		.4byte	0x1958
 9520 1a9f 0C       		.uleb128 0xc
 9521 1aa0 10       		.byte	0x10
 9522 1aa1 15       		.byte	0x15
 9523 1aa2 51       		.byte	0x51
 9524 1aa3 D81A0000 		.4byte	0x1ad8
 9525 1aa7 0D       		.uleb128 0xd
 9526 1aa8 A11F0000 		.4byte	.LASF353
 9527 1aac 15       		.byte	0x15
 9528 1aad 55       		.byte	0x55
 9529 1aae 510D0000 		.4byte	0xd51
 9530 1ab2 00       		.byte	0
 9531 1ab3 0D       		.uleb128 0xd
 9532 1ab4 E5180000 		.4byte	.LASF354
 9533 1ab8 15       		.byte	0x15
 9534 1ab9 59       		.byte	0x59
 9535 1aba 950E0000 		.4byte	0xe95
 9536 1abe 04       		.byte	0x4
 9537 1abf 0D       		.uleb128 0xd
 9538 1ac0 2E0C0000 		.4byte	.LASF355
 9539 1ac4 15       		.byte	0x15
 9540 1ac5 5D       		.byte	0x5d
 9541 1ac6 68010000 		.4byte	0x168
 9542 1aca 08       		.byte	0x8
 9543 1acb 0D       		.uleb128 0xd
 9544 1acc 340A0000 		.4byte	.LASF356
 9545 1ad0 15       		.byte	0x15
 9546 1ad1 61       		.byte	0x61
 9547 1ad2 75010000 		.4byte	0x175
 9548 1ad6 0C       		.byte	0xc
 9549 1ad7 00       		.byte	0
 9550 1ad8 02       		.uleb128 0x2
 9551 1ad9 0D0D0000 		.4byte	.LASF357
ARM GAS  C:\Users\Moi\AppData\Local\Temp\ccAXdvuJ.s 			page 174


 9552 1add 15       		.byte	0x15
 9553 1ade 62       		.byte	0x62
 9554 1adf 9F1A0000 		.4byte	0x1a9f
 9555 1ae3 28       		.uleb128 0x28
 9556 1ae4 0804     		.2byte	0x408
 9557 1ae6 15       		.byte	0x15
 9558 1ae7 67       		.byte	0x67
 9559 1ae8 111B0000 		.4byte	0x1b11
 9560 1aec 0D       		.uleb128 0xd
 9561 1aed FD0D0000 		.4byte	.LASF358
 9562 1af1 15       		.byte	0x15
 9563 1af2 6B       		.byte	0x6b
 9564 1af3 B1000000 		.4byte	0xb1
 9565 1af7 00       		.byte	0
 9566 1af8 0D       		.uleb128 0xd
 9567 1af9 E7130000 		.4byte	.LASF359
 9568 1afd 15       		.byte	0x15
 9569 1afe 6F       		.byte	0x6f
 9570 1aff 111B0000 		.4byte	0x1b11
 9571 1b03 04       		.byte	0x4
 9572 1b04 0D       		.uleb128 0xd
 9573 1b05 E8100000 		.4byte	.LASF360
 9574 1b09 15       		.byte	0x15
 9575 1b0a 73       		.byte	0x73
 9576 1b0b 171B0000 		.4byte	0x1b17
 9577 1b0f 08       		.byte	0x8
 9578 1b10 00       		.byte	0
 9579 1b11 05       		.uleb128 0x5
 9580 1b12 04       		.byte	0x4
 9581 1b13 D81A0000 		.4byte	0x1ad8
 9582 1b17 0A       		.uleb128 0xa
 9583 1b18 D81A0000 		.4byte	0x1ad8
 9584 1b1c 271B0000 		.4byte	0x1b27
 9585 1b20 0B       		.uleb128 0xb
 9586 1b21 B1000000 		.4byte	0xb1
 9587 1b25 3F       		.byte	0x3f
 9588 1b26 00       		.byte	0
 9589 1b27 02       		.uleb128 0x2
 9590 1b28 15000000 		.4byte	.LASF361
 9591 1b2c 15       		.byte	0x15
 9592 1b2d 74       		.byte	0x74
 9593 1b2e E31A0000 		.4byte	0x1ae3
 9594 1b32 0C       		.uleb128 0xc
 9595 1b33 04       		.byte	0x4
 9596 1b34 16       		.byte	0x16
 9597 1b35 38       		.byte	0x38
 9598 1b36 471B0000 		.4byte	0x1b47
 9599 1b3a 0D       		.uleb128 0xd
 9600 1b3b 43200000 		.4byte	.LASF362
 9601 1b3f 16       		.byte	0x16
 9602 1b40 3C       		.byte	0x3c
 9603 1b41 CD0C0000 		.4byte	0xccd
 9604 1b45 00       		.byte	0
 9605 1b46 00       		.byte	0
 9606 1b47 02       		.uleb128 0x2
 9607 1b48 A4050000 		.4byte	.LASF363
 9608 1b4c 16       		.byte	0x16
ARM GAS  C:\Users\Moi\AppData\Local\Temp\ccAXdvuJ.s 			page 175


 9609 1b4d 3D       		.byte	0x3d
 9610 1b4e 321B0000 		.4byte	0x1b32
 9611 1b52 0C       		.uleb128 0xc
 9612 1b53 18       		.byte	0x18
 9613 1b54 16       		.byte	0x16
 9614 1b55 48       		.byte	0x48
 9615 1b56 951B0000 		.4byte	0x1b95
 9616 1b5a 0D       		.uleb128 0xd
 9617 1b5b 7D070000 		.4byte	.LASF364
 9618 1b5f 16       		.byte	0x16
 9619 1b60 49       		.byte	0x49
 9620 1b61 CD0C0000 		.4byte	0xccd
 9621 1b65 00       		.byte	0
 9622 1b66 0D       		.uleb128 0xd
 9623 1b67 92010000 		.4byte	.LASF365
 9624 1b6b 16       		.byte	0x16
 9625 1b6c 4A       		.byte	0x4a
 9626 1b6d CD0C0000 		.4byte	0xccd
 9627 1b71 04       		.byte	0x4
 9628 1b72 0D       		.uleb128 0xd
 9629 1b73 0D180000 		.4byte	.LASF366
 9630 1b77 16       		.byte	0x16
 9631 1b78 4B       		.byte	0x4b
 9632 1b79 CD0C0000 		.4byte	0xccd
 9633 1b7d 08       		.byte	0x8
 9634 1b7e 13       		.uleb128 0x13
 9635 1b7f 6E00     		.ascii	"n\000"
 9636 1b81 16       		.byte	0x16
 9637 1b82 4C       		.byte	0x4c
 9638 1b83 460D0000 		.4byte	0xd46
 9639 1b87 0C       		.byte	0xc
 9640 1b88 0D       		.uleb128 0xd
 9641 1b89 A8170000 		.4byte	.LASF367
 9642 1b8d 16       		.byte	0x16
 9643 1b8e 4D       		.byte	0x4d
 9644 1b8f D80C0000 		.4byte	0xcd8
 9645 1b93 10       		.byte	0x10
 9646 1b94 00       		.byte	0
 9647 1b95 02       		.uleb128 0x2
 9648 1b96 E1220000 		.4byte	.LASF368
 9649 1b9a 16       		.byte	0x16
 9650 1b9b 4E       		.byte	0x4e
 9651 1b9c 521B0000 		.4byte	0x1b52
 9652 1ba0 0C       		.uleb128 0xc
 9653 1ba1 38       		.byte	0x38
 9654 1ba2 17       		.byte	0x17
 9655 1ba3 38       		.byte	0x38
 9656 1ba4 D91B0000 		.4byte	0x1bd9
 9657 1ba8 0D       		.uleb128 0xd
 9658 1ba9 CD060000 		.4byte	.LASF369
 9659 1bad 17       		.byte	0x17
 9660 1bae 39       		.byte	0x39
 9661 1baf 460D0000 		.4byte	0xd46
 9662 1bb3 00       		.byte	0
 9663 1bb4 0D       		.uleb128 0xd
 9664 1bb5 E80A0000 		.4byte	.LASF370
 9665 1bb9 17       		.byte	0x17
ARM GAS  C:\Users\Moi\AppData\Local\Temp\ccAXdvuJ.s 			page 176


 9666 1bba 3A       		.byte	0x3a
 9667 1bbb 460D0000 		.4byte	0xd46
 9668 1bbf 04       		.byte	0x4
 9669 1bc0 0D       		.uleb128 0xd
 9670 1bc1 57220000 		.4byte	.LASF371
 9671 1bc5 17       		.byte	0x17
 9672 1bc6 3B       		.byte	0x3b
 9673 1bc7 951B0000 		.4byte	0x1b95
 9674 1bcb 08       		.byte	0x8
 9675 1bcc 0D       		.uleb128 0xd
 9676 1bcd A0000000 		.4byte	.LASF372
 9677 1bd1 17       		.byte	0x17
 9678 1bd2 3D       		.byte	0x3d
 9679 1bd3 951B0000 		.4byte	0x1b95
 9680 1bd7 20       		.byte	0x20
 9681 1bd8 00       		.byte	0
 9682 1bd9 02       		.uleb128 0x2
 9683 1bda 55050000 		.4byte	.LASF373
 9684 1bde 17       		.byte	0x17
 9685 1bdf 3F       		.byte	0x3f
 9686 1be0 A01B0000 		.4byte	0x1ba0
 9687 1be4 08       		.uleb128 0x8
 9688 1be5 04       		.byte	0x4
 9689 1be6 0F       		.byte	0xf
 9690 1be7 FA       		.byte	0xfa
 9691 1be8 411C0000 		.4byte	0x1c41
 9692 1bec 1F       		.uleb128 0x1f
 9693 1bed 03100000 		.4byte	.LASF374
 9694 1bf1 0F       		.byte	0xf
 9695 1bf2 0101     		.2byte	0x101
 9696 1bf4 1A0D0000 		.4byte	0xd1a
 9697 1bf8 1F       		.uleb128 0x1f
 9698 1bf9 2D080000 		.4byte	.LASF375
 9699 1bfd 0F       		.byte	0xf
 9700 1bfe 0801     		.2byte	0x108
 9701 1c00 1A0D0000 		.4byte	0xd1a
 9702 1c04 1F       		.uleb128 0x1f
 9703 1c05 271C0000 		.4byte	.LASF376
 9704 1c09 0F       		.byte	0xf
 9705 1c0a 0F01     		.2byte	0x10f
 9706 1c0c 68010000 		.4byte	0x168
 9707 1c10 1F       		.uleb128 0x1f
 9708 1c11 D2170000 		.4byte	.LASF377
 9709 1c15 0F       		.byte	0xf
 9710 1c16 1601     		.2byte	0x116
 9711 1c18 411C0000 		.4byte	0x1c41
 9712 1c1c 1F       		.uleb128 0x1f
 9713 1c1d 13010000 		.4byte	.LASF378
 9714 1c21 0F       		.byte	0xf
 9715 1c22 1E01     		.2byte	0x11e
 9716 1c24 6C1C0000 		.4byte	0x1c6c
 9717 1c28 1F       		.uleb128 0x1f
 9718 1c29 881C0000 		.4byte	.LASF379
 9719 1c2d 0F       		.byte	0xf
 9720 1c2e 2701     		.2byte	0x127
 9721 1c30 AF1C0000 		.4byte	0x1caf
 9722 1c34 1F       		.uleb128 0x1f
ARM GAS  C:\Users\Moi\AppData\Local\Temp\ccAXdvuJ.s 			page 177


 9723 1c35 E6200000 		.4byte	.LASF380
 9724 1c39 0F       		.byte	0xf
 9725 1c3a 2F01     		.2byte	0x12f
 9726 1c3c 250D0000 		.4byte	0xd25
 9727 1c40 00       		.byte	0
 9728 1c41 05       		.uleb128 0x5
 9729 1c42 04       		.byte	0x4
 9730 1c43 8A0E0000 		.4byte	0xe8a
 9731 1c47 12       		.uleb128 0x12
 9732 1c48 55160000 		.4byte	.LASF381
 9733 1c4c 0C       		.byte	0xc
 9734 1c4d 18       		.byte	0x18
 9735 1c4e 34       		.byte	0x34
 9736 1c4f 6C1C0000 		.4byte	0x1c6c
 9737 1c53 0D       		.uleb128 0xd
 9738 1c54 4F220000 		.4byte	.LASF382
 9739 1c58 18       		.byte	0x18
 9740 1c59 35       		.byte	0x35
 9741 1c5a BF0E0000 		.4byte	0xebf
 9742 1c5e 00       		.byte	0
 9743 1c5f 0D       		.uleb128 0xd
 9744 1c60 B8090000 		.4byte	.LASF383
 9745 1c64 18       		.byte	0x18
 9746 1c65 37       		.byte	0x37
 9747 1c66 3B0D0000 		.4byte	0xd3b
 9748 1c6a 08       		.byte	0x8
 9749 1c6b 00       		.byte	0
 9750 1c6c 05       		.uleb128 0x5
 9751 1c6d 04       		.byte	0x4
 9752 1c6e 471C0000 		.4byte	0x1c47
 9753 1c72 12       		.uleb128 0x12
 9754 1c73 AB0B0000 		.4byte	.LASF384
 9755 1c77 14       		.byte	0x14
 9756 1c78 19       		.byte	0x19
 9757 1c79 39       		.byte	0x39
 9758 1c7a AF1C0000 		.4byte	0x1caf
 9759 1c7e 0D       		.uleb128 0xd
 9760 1c7f B9120000 		.4byte	.LASF385
 9761 1c83 19       		.byte	0x19
 9762 1c84 3A       		.byte	0x3a
 9763 1c85 BF0E0000 		.4byte	0xebf
 9764 1c89 00       		.byte	0
 9765 1c8a 0D       		.uleb128 0xd
 9766 1c8b 3A150000 		.4byte	.LASF386
 9767 1c8f 19       		.byte	0x19
 9768 1c90 3C       		.byte	0x3c
 9769 1c91 950E0000 		.4byte	0xe95
 9770 1c95 08       		.byte	0x8
 9771 1c96 0D       		.uleb128 0xd
 9772 1c97 C9010000 		.4byte	.LASF387
 9773 1c9b 19       		.byte	0x19
 9774 1c9c 3E       		.byte	0x3e
 9775 1c9d F31D0000 		.4byte	0x1df3
 9776 1ca1 0C       		.byte	0xc
 9777 1ca2 0D       		.uleb128 0xd
 9778 1ca3 C1080000 		.4byte	.LASF388
 9779 1ca7 19       		.byte	0x19
ARM GAS  C:\Users\Moi\AppData\Local\Temp\ccAXdvuJ.s 			page 178


 9780 1ca8 41       		.byte	0x41
 9781 1ca9 3B0D0000 		.4byte	0xd3b
 9782 1cad 10       		.byte	0x10
 9783 1cae 00       		.byte	0
 9784 1caf 05       		.uleb128 0x5
 9785 1cb0 04       		.byte	0x4
 9786 1cb1 721C0000 		.4byte	0x1c72
 9787 1cb5 05       		.uleb128 0x5
 9788 1cb6 04       		.byte	0x4
 9789 1cb7 34190000 		.4byte	0x1934
 9790 1cbb 05       		.uleb128 0x5
 9791 1cbc 04       		.byte	0x4
 9792 1cbd 720F0000 		.4byte	0xf72
 9793 1cc1 0A       		.uleb128 0xa
 9794 1cc2 34190000 		.4byte	0x1934
 9795 1cc6 D11C0000 		.4byte	0x1cd1
 9796 1cca 0B       		.uleb128 0xb
 9797 1ccb B1000000 		.4byte	0xb1
 9798 1ccf 30       		.byte	0x30
 9799 1cd0 00       		.byte	0
 9800 1cd1 29       		.uleb128 0x29
 9801 1cd2 636800   		.ascii	"ch\000"
 9802 1cd5 0F       		.byte	0xf
 9803 1cd6 0902     		.2byte	0x209
 9804 1cd8 67100000 		.4byte	0x1067
 9805 1cdc 0C       		.uleb128 0xc
 9806 1cdd 16       		.byte	0x16
 9807 1cde 1A       		.byte	0x1a
 9808 1cdf 34       		.byte	0x34
 9809 1ce0 BD1D0000 		.4byte	0x1dbd
 9810 1ce4 0D       		.uleb128 0xd
 9811 1ce5 83220000 		.4byte	.LASF389
 9812 1ce9 1A       		.byte	0x1a
 9813 1cea 35       		.byte	0x35
 9814 1ceb BD1D0000 		.4byte	0x1dbd
 9815 1cef 00       		.byte	0
 9816 1cf0 0D       		.uleb128 0xd
 9817 1cf1 91240000 		.4byte	.LASF390
 9818 1cf5 1A       		.byte	0x1a
 9819 1cf6 36       		.byte	0x36
 9820 1cf7 75010000 		.4byte	0x175
 9821 1cfb 04       		.byte	0x4
 9822 1cfc 0D       		.uleb128 0xd
 9823 1cfd 33030000 		.4byte	.LASF391
 9824 1d01 1A       		.byte	0x1a
 9825 1d02 37       		.byte	0x37
 9826 1d03 75010000 		.4byte	0x175
 9827 1d07 05       		.byte	0x5
 9828 1d08 0D       		.uleb128 0xd
 9829 1d09 99150000 		.4byte	.LASF392
 9830 1d0d 1A       		.byte	0x1a
 9831 1d0e 38       		.byte	0x38
 9832 1d0f 90010000 		.4byte	0x190
 9833 1d13 06       		.byte	0x6
 9834 1d14 0D       		.uleb128 0xd
 9835 1d15 27000000 		.4byte	.LASF393
 9836 1d19 1A       		.byte	0x1a
ARM GAS  C:\Users\Moi\AppData\Local\Temp\ccAXdvuJ.s 			page 179


 9837 1d1a 39       		.byte	0x39
 9838 1d1b 75010000 		.4byte	0x175
 9839 1d1f 08       		.byte	0x8
 9840 1d20 0D       		.uleb128 0xd
 9841 1d21 A4130000 		.4byte	.LASF394
 9842 1d25 1A       		.byte	0x1a
 9843 1d26 3A       		.byte	0x3a
 9844 1d27 75010000 		.4byte	0x175
 9845 1d2b 09       		.byte	0x9
 9846 1d2c 0D       		.uleb128 0xd
 9847 1d2d B1240000 		.4byte	.LASF395
 9848 1d31 1A       		.byte	0x1a
 9849 1d32 3B       		.byte	0x3b
 9850 1d33 75010000 		.4byte	0x175
 9851 1d37 0A       		.byte	0xa
 9852 1d38 0D       		.uleb128 0xd
 9853 1d39 CD220000 		.4byte	.LASF396
 9854 1d3d 1A       		.byte	0x1a
 9855 1d3e 3C       		.byte	0x3c
 9856 1d3f 75010000 		.4byte	0x175
 9857 1d43 0B       		.byte	0xb
 9858 1d44 0D       		.uleb128 0xd
 9859 1d45 E7210000 		.4byte	.LASF397
 9860 1d49 1A       		.byte	0x1a
 9861 1d4a 3D       		.byte	0x3d
 9862 1d4b 75010000 		.4byte	0x175
 9863 1d4f 0C       		.byte	0xc
 9864 1d50 0D       		.uleb128 0xd
 9865 1d51 F10B0000 		.4byte	.LASF398
 9866 1d55 1A       		.byte	0x1a
 9867 1d56 3E       		.byte	0x3e
 9868 1d57 75010000 		.4byte	0x175
 9869 1d5b 0D       		.byte	0xd
 9870 1d5c 0D       		.uleb128 0xd
 9871 1d5d 00060000 		.4byte	.LASF399
 9872 1d61 1A       		.byte	0x1a
 9873 1d62 3F       		.byte	0x3f
 9874 1d63 75010000 		.4byte	0x175
 9875 1d67 0E       		.byte	0xe
 9876 1d68 0D       		.uleb128 0xd
 9877 1d69 A10D0000 		.4byte	.LASF400
 9878 1d6d 1A       		.byte	0x1a
 9879 1d6e 40       		.byte	0x40
 9880 1d6f 75010000 		.4byte	0x175
 9881 1d73 0F       		.byte	0xf
 9882 1d74 0D       		.uleb128 0xd
 9883 1d75 5B0F0000 		.4byte	.LASF401
 9884 1d79 1A       		.byte	0x1a
 9885 1d7a 41       		.byte	0x41
 9886 1d7b 75010000 		.4byte	0x175
 9887 1d7f 10       		.byte	0x10
 9888 1d80 0D       		.uleb128 0xd
 9889 1d81 2D150000 		.4byte	.LASF402
 9890 1d85 1A       		.byte	0x1a
 9891 1d86 43       		.byte	0x43
 9892 1d87 75010000 		.4byte	0x175
 9893 1d8b 11       		.byte	0x11
ARM GAS  C:\Users\Moi\AppData\Local\Temp\ccAXdvuJ.s 			page 180


 9894 1d8c 0D       		.uleb128 0xd
 9895 1d8d EF020000 		.4byte	.LASF403
 9896 1d91 1A       		.byte	0x1a
 9897 1d92 44       		.byte	0x44
 9898 1d93 75010000 		.4byte	0x175
 9899 1d97 12       		.byte	0x12
 9900 1d98 0D       		.uleb128 0xd
 9901 1d99 21150000 		.4byte	.LASF404
 9902 1d9d 1A       		.byte	0x1a
 9903 1d9e 45       		.byte	0x45
 9904 1d9f 75010000 		.4byte	0x175
 9905 1da3 13       		.byte	0x13
 9906 1da4 0D       		.uleb128 0xd
 9907 1da5 611B0000 		.4byte	.LASF405
 9908 1da9 1A       		.byte	0x1a
 9909 1daa 46       		.byte	0x46
 9910 1dab 75010000 		.4byte	0x175
 9911 1daf 14       		.byte	0x14
 9912 1db0 0D       		.uleb128 0xd
 9913 1db1 F1000000 		.4byte	.LASF406
 9914 1db5 1A       		.byte	0x1a
 9915 1db6 48       		.byte	0x48
 9916 1db7 75010000 		.4byte	0x175
 9917 1dbb 15       		.byte	0x15
 9918 1dbc 00       		.byte	0
 9919 1dbd 0A       		.uleb128 0xa
 9920 1dbe D1010000 		.4byte	0x1d1
 9921 1dc2 CD1D0000 		.4byte	0x1dcd
 9922 1dc6 0B       		.uleb128 0xb
 9923 1dc7 B1000000 		.4byte	0xb1
 9924 1dcb 03       		.byte	0x3
 9925 1dcc 00       		.byte	0
 9926 1dcd 02       		.uleb128 0x2
 9927 1dce 49130000 		.4byte	.LASF407
 9928 1dd2 1A       		.byte	0x1a
 9929 1dd3 49       		.byte	0x49
 9930 1dd4 DC1C0000 		.4byte	0x1cdc
 9931 1dd8 0F       		.uleb128 0xf
 9932 1dd9 CD1D0000 		.4byte	0x1dcd
 9933 1ddd 11       		.uleb128 0x11
 9934 1dde FA0A0000 		.4byte	.LASF408
 9935 1de2 1A       		.byte	0x1a
 9936 1de3 6E       		.byte	0x6e
 9937 1de4 D81D0000 		.4byte	0x1dd8
 9938 1de8 02       		.uleb128 0x2
 9939 1de9 F91E0000 		.4byte	.LASF409
 9940 1ded 19       		.byte	0x19
 9941 1dee 34       		.byte	0x34
 9942 1def 721C0000 		.4byte	0x1c72
 9943 1df3 05       		.uleb128 0x5
 9944 1df4 04       		.byte	0x4
 9945 1df5 E81D0000 		.4byte	0x1de8
 9946 1df9 02       		.uleb128 0x2
 9947 1dfa 490B0000 		.4byte	.LASF410
 9948 1dfe 1B       		.byte	0x1b
 9949 1dff 34       		.byte	0x34
 9950 1e00 041E0000 		.4byte	0x1e04
ARM GAS  C:\Users\Moi\AppData\Local\Temp\ccAXdvuJ.s 			page 181


 9951 1e04 12       		.uleb128 0x12
 9952 1e05 33250000 		.4byte	.LASF411
 9953 1e09 14       		.byte	0x14
 9954 1e0a 1B       		.byte	0x1b
 9955 1e0b 39       		.byte	0x39
 9956 1e0c 4D1E0000 		.4byte	0x1e4d
 9957 1e10 0D       		.uleb128 0xd
 9958 1e11 73020000 		.4byte	.LASF412
 9959 1e15 1B       		.byte	0x1b
 9960 1e16 3A       		.byte	0x3a
 9961 1e17 4D1E0000 		.4byte	0x1e4d
 9962 1e1b 00       		.byte	0
 9963 1e1c 0D       		.uleb128 0xd
 9964 1e1d D21F0000 		.4byte	.LASF413
 9965 1e21 1B       		.byte	0x1b
 9966 1e22 3D       		.byte	0x3d
 9967 1e23 950E0000 		.4byte	0xe95
 9968 1e27 04       		.byte	0x4
 9969 1e28 0D       		.uleb128 0xd
 9970 1e29 99030000 		.4byte	.LASF414
 9971 1e2d 1B       		.byte	0x1b
 9972 1e2e 3F       		.byte	0x3f
 9973 1e2f 250D0000 		.4byte	0xd25
 9974 1e33 08       		.byte	0x8
 9975 1e34 0D       		.uleb128 0xd
 9976 1e35 ED200000 		.4byte	.LASF415
 9977 1e39 1B       		.byte	0x1b
 9978 1e3a 41       		.byte	0x41
 9979 1e3b 300D0000 		.4byte	0xd30
 9980 1e3f 0C       		.byte	0xc
 9981 1e40 0D       		.uleb128 0xd
 9982 1e41 E90D0000 		.4byte	.LASF416
 9983 1e45 1B       		.byte	0x1b
 9984 1e46 43       		.byte	0x43
 9985 1e47 300D0000 		.4byte	0xd30
 9986 1e4b 10       		.byte	0x10
 9987 1e4c 00       		.byte	0
 9988 1e4d 05       		.uleb128 0x5
 9989 1e4e 04       		.byte	0x4
 9990 1e4f F91D0000 		.4byte	0x1df9
 9991 1e53 12       		.uleb128 0x12
 9992 1e54 F6200000 		.4byte	.LASF417
 9993 1e58 04       		.byte	0x4
 9994 1e59 1B       		.byte	0x1b
 9995 1e5a 4A       		.byte	0x4a
 9996 1e5b 6C1E0000 		.4byte	0x1e6c
 9997 1e5f 0D       		.uleb128 0xd
 9998 1e60 5C200000 		.4byte	.LASF418
 9999 1e64 1B       		.byte	0x1b
 10000 1e65 4B       		.byte	0x4b
 10001 1e66 4D1E0000 		.4byte	0x1e4d
 10002 1e6a 00       		.byte	0
 10003 1e6b 00       		.byte	0
 10004 1e6c 02       		.uleb128 0x2
 10005 1e6d C0130000 		.4byte	.LASF419
 10006 1e71 1B       		.byte	0x1b
 10007 1e72 4E       		.byte	0x4e
ARM GAS  C:\Users\Moi\AppData\Local\Temp\ccAXdvuJ.s 			page 182


 10008 1e73 531E0000 		.4byte	0x1e53
 10009 1e77 02       		.uleb128 0x2
 10010 1e78 290E0000 		.4byte	.LASF420
 10011 1e7c 1C       		.byte	0x1c
 10012 1e7d 3F       		.byte	0x3f
 10013 1e7e 821E0000 		.4byte	0x1e82
 10014 1e82 12       		.uleb128 0x12
 10015 1e83 85100000 		.4byte	.LASF421
 10016 1e87 24       		.byte	0x24
 10017 1e88 1C       		.byte	0x1c
 10018 1e89 4D       		.byte	0x4d
 10019 1e8a EF1E0000 		.4byte	0x1eef
 10020 1e8e 0D       		.uleb128 0xd
 10021 1e8f 6F050000 		.4byte	.LASF422
 10022 1e93 1C       		.byte	0x1c
 10023 1e94 4E       		.byte	0x4e
 10024 1e95 BF0E0000 		.4byte	0xebf
 10025 1e99 00       		.byte	0
 10026 1e9a 0D       		.uleb128 0xd
 10027 1e9b 3F170000 		.4byte	.LASF423
 10028 1e9f 1C       		.byte	0x1c
 10029 1ea0 4F       		.byte	0x4f
 10030 1ea1 B8000000 		.4byte	0xb8
 10031 1ea5 08       		.byte	0x8
 10032 1ea6 0D       		.uleb128 0xd
 10033 1ea7 43110000 		.4byte	.LASF424
 10034 1eab 1C       		.byte	0x1c
 10035 1eac 50       		.byte	0x50
 10036 1ead 111F0000 		.4byte	0x1f11
 10037 1eb1 0C       		.byte	0xc
 10038 1eb2 0D       		.uleb128 0xd
 10039 1eb3 98040000 		.4byte	.LASF425
 10040 1eb7 1C       		.byte	0x1c
 10041 1eb8 51       		.byte	0x51
 10042 1eb9 111F0000 		.4byte	0x1f11
 10043 1ebd 10       		.byte	0x10
 10044 1ebe 0D       		.uleb128 0xd
 10045 1ebf EB180000 		.4byte	.LASF426
 10046 1ec3 1C       		.byte	0x1c
 10047 1ec4 53       		.byte	0x53
 10048 1ec5 111F0000 		.4byte	0x1f11
 10049 1ec9 14       		.byte	0x14
 10050 1eca 0D       		.uleb128 0xd
 10051 1ecb D8170000 		.4byte	.LASF427
 10052 1ecf 1C       		.byte	0x1c
 10053 1ed0 54       		.byte	0x54
 10054 1ed1 111F0000 		.4byte	0x1f11
 10055 1ed5 18       		.byte	0x18
 10056 1ed6 0D       		.uleb128 0xd
 10057 1ed7 7F1C0000 		.4byte	.LASF428
 10058 1edb 1C       		.byte	0x1c
 10059 1edc 55       		.byte	0x55
 10060 1edd EF1E0000 		.4byte	0x1eef
 10061 1ee1 1C       		.byte	0x1c
 10062 1ee2 0D       		.uleb128 0xd
 10063 1ee3 DE190000 		.4byte	.LASF429
 10064 1ee7 1C       		.byte	0x1c
ARM GAS  C:\Users\Moi\AppData\Local\Temp\ccAXdvuJ.s 			page 183


 10065 1ee8 56       		.byte	0x56
 10066 1ee9 68010000 		.4byte	0x168
 10067 1eed 20       		.byte	0x20
 10068 1eee 00       		.byte	0
 10069 1eef 02       		.uleb128 0x2
 10070 1ef0 61040000 		.4byte	.LASF430
 10071 1ef4 1C       		.byte	0x1c
 10072 1ef5 42       		.byte	0x42
 10073 1ef6 FA1E0000 		.4byte	0x1efa
 10074 1efa 05       		.uleb128 0x5
 10075 1efb 04       		.byte	0x4
 10076 1efc 001F0000 		.4byte	0x1f00
 10077 1f00 20       		.uleb128 0x20
 10078 1f01 0B1F0000 		.4byte	0x1f0b
 10079 1f05 18       		.uleb128 0x18
 10080 1f06 0B1F0000 		.4byte	0x1f0b
 10081 1f0a 00       		.byte	0
 10082 1f0b 05       		.uleb128 0x5
 10083 1f0c 04       		.byte	0x4
 10084 1f0d 771E0000 		.4byte	0x1e77
 10085 1f11 05       		.uleb128 0x5
 10086 1f12 04       		.byte	0x4
 10087 1f13 75010000 		.4byte	0x175
 10088 1f17 02       		.uleb128 0x2
 10089 1f18 B5050000 		.4byte	.LASF431
 10090 1f1c 1C       		.byte	0x1c
 10091 1f1d 64       		.byte	0x64
 10092 1f1e 771E0000 		.4byte	0x1e77
 10093 1f22 02       		.uleb128 0x2
 10094 1f23 76250000 		.4byte	.LASF432
 10095 1f27 1C       		.byte	0x1c
 10096 1f28 71       		.byte	0x71
 10097 1f29 771E0000 		.4byte	0x1e77
 10098 1f2d 17       		.uleb128 0x17
 10099 1f2e B8000000 		.4byte	0xb8
 10100 1f32 461F0000 		.4byte	0x1f46
 10101 1f36 18       		.uleb128 0x18
 10102 1f37 68010000 		.4byte	0x168
 10103 1f3b 18       		.uleb128 0x18
 10104 1f3c 461F0000 		.4byte	0x1f46
 10105 1f40 18       		.uleb128 0x18
 10106 1f41 B8000000 		.4byte	0xb8
 10107 1f45 00       		.byte	0
 10108 1f46 05       		.uleb128 0x5
 10109 1f47 04       		.byte	0x4
 10110 1f48 80010000 		.4byte	0x180
 10111 1f4c 05       		.uleb128 0x5
 10112 1f4d 04       		.byte	0x4
 10113 1f4e 2D1F0000 		.4byte	0x1f2d
 10114 1f52 17       		.uleb128 0x17
 10115 1f53 B8000000 		.4byte	0xb8
 10116 1f57 6B1F0000 		.4byte	0x1f6b
 10117 1f5b 18       		.uleb128 0x18
 10118 1f5c 68010000 		.4byte	0x168
 10119 1f60 18       		.uleb128 0x18
 10120 1f61 111F0000 		.4byte	0x1f11
 10121 1f65 18       		.uleb128 0x18
ARM GAS  C:\Users\Moi\AppData\Local\Temp\ccAXdvuJ.s 			page 184


 10122 1f66 B8000000 		.4byte	0xb8
 10123 1f6a 00       		.byte	0
 10124 1f6b 05       		.uleb128 0x5
 10125 1f6c 04       		.byte	0x4
 10126 1f6d 521F0000 		.4byte	0x1f52
 10127 1f71 17       		.uleb128 0x17
 10128 1f72 1A0D0000 		.4byte	0xd1a
 10129 1f76 851F0000 		.4byte	0x1f85
 10130 1f7a 18       		.uleb128 0x18
 10131 1f7b 68010000 		.4byte	0x168
 10132 1f7f 18       		.uleb128 0x18
 10133 1f80 75010000 		.4byte	0x175
 10134 1f84 00       		.byte	0
 10135 1f85 05       		.uleb128 0x5
 10136 1f86 04       		.byte	0x4
 10137 1f87 711F0000 		.4byte	0x1f71
 10138 1f8b 17       		.uleb128 0x17
 10139 1f8c 1A0D0000 		.4byte	0xd1a
 10140 1f90 9A1F0000 		.4byte	0x1f9a
 10141 1f94 18       		.uleb128 0x18
 10142 1f95 68010000 		.4byte	0x168
 10143 1f99 00       		.byte	0
 10144 1f9a 05       		.uleb128 0x5
 10145 1f9b 04       		.byte	0x4
 10146 1f9c 8B1F0000 		.4byte	0x1f8b
 10147 1fa0 0C       		.uleb128 0xc
 10148 1fa1 0C       		.byte	0xc
 10149 1fa2 1D       		.byte	0x1d
 10150 1fa3 DA       		.byte	0xda
 10151 1fa4 E51F0000 		.4byte	0x1fe5
 10152 1fa8 0D       		.uleb128 0xd
 10153 1fa9 0D250000 		.4byte	.LASF433
 10154 1fad 1D       		.byte	0x1d
 10155 1fae DB       		.byte	0xdb
 10156 1faf E51F0000 		.4byte	0x1fe5
 10157 1fb3 00       		.byte	0
 10158 1fb4 0D       		.uleb128 0xd
 10159 1fb5 D70F0000 		.4byte	.LASF434
 10160 1fb9 1D       		.byte	0x1d
 10161 1fba DC       		.byte	0xdc
 10162 1fbb EB1F0000 		.4byte	0x1feb
 10163 1fbf 04       		.byte	0x4
 10164 1fc0 0D       		.uleb128 0xd
 10165 1fc1 85040000 		.4byte	.LASF435
 10166 1fc5 1D       		.byte	0x1d
 10167 1fc6 DD       		.byte	0xdd
 10168 1fc7 75010000 		.4byte	0x175
 10169 1fcb 08       		.byte	0x8
 10170 1fcc 0D       		.uleb128 0xd
 10171 1fcd EF1E0000 		.4byte	.LASF436
 10172 1fd1 1D       		.byte	0x1d
 10173 1fd2 DF       		.byte	0xdf
 10174 1fd3 75010000 		.4byte	0x175
 10175 1fd7 09       		.byte	0x9
 10176 1fd8 0D       		.uleb128 0xd
 10177 1fd9 D1030000 		.4byte	.LASF437
 10178 1fdd 1D       		.byte	0x1d
ARM GAS  C:\Users\Moi\AppData\Local\Temp\ccAXdvuJ.s 			page 185


 10179 1fde E0       		.byte	0xe0
 10180 1fdf 75010000 		.4byte	0x175
 10181 1fe3 0A       		.byte	0xa
 10182 1fe4 00       		.byte	0
 10183 1fe5 05       		.uleb128 0x5
 10184 1fe6 04       		.byte	0x4
 10185 1fe7 25160000 		.4byte	0x1625
 10186 1feb 05       		.uleb128 0x5
 10187 1fec 04       		.byte	0x4
 10188 1fed B6010000 		.4byte	0x1b6
 10189 1ff1 02       		.uleb128 0x2
 10190 1ff2 56120000 		.4byte	.LASF438
 10191 1ff6 1D       		.byte	0x1d
 10192 1ff7 E1       		.byte	0xe1
 10193 1ff8 A01F0000 		.4byte	0x1fa0
 10194 1ffc 0F       		.uleb128 0xf
 10195 1ffd F11F0000 		.4byte	0x1ff1
 10196 2001 0A       		.uleb128 0xa
 10197 2002 FC1F0000 		.4byte	0x1ffc
 10198 2006 11200000 		.4byte	0x2011
 10199 200a 0B       		.uleb128 0xb
 10200 200b B1000000 		.4byte	0xb1
 10201 200f 0F       		.byte	0xf
 10202 2010 00       		.byte	0
 10203 2011 0F       		.uleb128 0xf
 10204 2012 01200000 		.4byte	0x2001
 10205 2016 21       		.uleb128 0x21
 10206 2017 6B1A0000 		.4byte	.LASF439
 10207 201b 1D       		.byte	0x1d
 10208 201c BB01     		.2byte	0x1bb
 10209 201e 11200000 		.4byte	0x2011
 10210 2022 17       		.uleb128 0x17
 10211 2023 1A0D0000 		.4byte	0xd1a
 10212 2027 3B200000 		.4byte	0x203b
 10213 202b 18       		.uleb128 0x18
 10214 202c 68010000 		.4byte	0x168
 10215 2030 18       		.uleb128 0x18
 10216 2031 75010000 		.4byte	0x175
 10217 2035 18       		.uleb128 0x18
 10218 2036 510D0000 		.4byte	0xd51
 10219 203a 00       		.byte	0
 10220 203b 05       		.uleb128 0x5
 10221 203c 04       		.byte	0x4
 10222 203d 22200000 		.4byte	0x2022
 10223 2041 17       		.uleb128 0x17
 10224 2042 1A0D0000 		.4byte	0xd1a
 10225 2046 55200000 		.4byte	0x2055
 10226 204a 18       		.uleb128 0x18
 10227 204b 68010000 		.4byte	0x168
 10228 204f 18       		.uleb128 0x18
 10229 2050 510D0000 		.4byte	0xd51
 10230 2054 00       		.byte	0
 10231 2055 05       		.uleb128 0x5
 10232 2056 04       		.byte	0x4
 10233 2057 41200000 		.4byte	0x2041
 10234 205b 17       		.uleb128 0x17
 10235 205c B8000000 		.4byte	0xb8
ARM GAS  C:\Users\Moi\AppData\Local\Temp\ccAXdvuJ.s 			page 186


 10236 2060 79200000 		.4byte	0x2079
 10237 2064 18       		.uleb128 0x18
 10238 2065 68010000 		.4byte	0x168
 10239 2069 18       		.uleb128 0x18
 10240 206a 461F0000 		.4byte	0x1f46
 10241 206e 18       		.uleb128 0x18
 10242 206f B8000000 		.4byte	0xb8
 10243 2073 18       		.uleb128 0x18
 10244 2074 510D0000 		.4byte	0xd51
 10245 2078 00       		.byte	0
 10246 2079 05       		.uleb128 0x5
 10247 207a 04       		.byte	0x4
 10248 207b 5B200000 		.4byte	0x205b
 10249 207f 17       		.uleb128 0x17
 10250 2080 B8000000 		.4byte	0xb8
 10251 2084 9D200000 		.4byte	0x209d
 10252 2088 18       		.uleb128 0x18
 10253 2089 68010000 		.4byte	0x168
 10254 208d 18       		.uleb128 0x18
 10255 208e 111F0000 		.4byte	0x1f11
 10256 2092 18       		.uleb128 0x18
 10257 2093 B8000000 		.4byte	0xb8
 10258 2097 18       		.uleb128 0x18
 10259 2098 510D0000 		.4byte	0xd51
 10260 209c 00       		.byte	0
 10261 209d 05       		.uleb128 0x5
 10262 209e 04       		.byte	0x4
 10263 209f 7F200000 		.4byte	0x207f
 10264 20a3 2A       		.uleb128 0x2a
 10265 20a4 07       		.byte	0x7
 10266 20a5 01       		.byte	0x1
 10267 20a6 42000000 		.4byte	0x42
 10268 20aa 1E       		.byte	0x1e
 10269 20ab 28       		.byte	0x28
 10270 20ac E7200000 		.4byte	0x20e7
 10271 20b0 2B       		.uleb128 0x2b
 10272 20b1 76010000 		.4byte	.LASF440
 10273 20b5 00       		.byte	0
 10274 20b6 2B       		.uleb128 0x2b
 10275 20b7 EF0E0000 		.4byte	.LASF441
 10276 20bb 01       		.byte	0x1
 10277 20bc 2B       		.uleb128 0x2b
 10278 20bd 340B0000 		.4byte	.LASF442
 10279 20c1 02       		.byte	0x2
 10280 20c2 2B       		.uleb128 0x2b
 10281 20c3 C31B0000 		.4byte	.LASF443
 10282 20c7 03       		.byte	0x3
 10283 20c8 2B       		.uleb128 0x2b
 10284 20c9 EF230000 		.4byte	.LASF444
 10285 20cd 04       		.byte	0x4
 10286 20ce 2B       		.uleb128 0x2b
 10287 20cf C0070000 		.4byte	.LASF445
 10288 20d3 05       		.byte	0x5
 10289 20d4 2B       		.uleb128 0x2b
 10290 20d5 4F010000 		.4byte	.LASF446
 10291 20d9 06       		.byte	0x6
 10292 20da 2B       		.uleb128 0x2b
ARM GAS  C:\Users\Moi\AppData\Local\Temp\ccAXdvuJ.s 			page 187


 10293 20db 3D180000 		.4byte	.LASF447
 10294 20df 07       		.byte	0x7
 10295 20e0 2B       		.uleb128 0x2b
 10296 20e1 A7230000 		.4byte	.LASF448
 10297 20e5 08       		.byte	0x8
 10298 20e6 00       		.byte	0
 10299 20e7 02       		.uleb128 0x2
 10300 20e8 BD160000 		.4byte	.LASF449
 10301 20ec 1E       		.byte	0x1e
 10302 20ed 32       		.byte	0x32
 10303 20ee A3200000 		.4byte	0x20a3
 10304 20f2 0C       		.uleb128 0xc
 10305 20f3 08       		.byte	0x8
 10306 20f4 1E       		.byte	0x1e
 10307 20f5 37       		.byte	0x37
 10308 20f6 13210000 		.4byte	0x2113
 10309 20fa 0D       		.uleb128 0xd
 10310 20fb 40070000 		.4byte	.LASF450
 10311 20ff 1E       		.byte	0x1e
 10312 2100 38       		.byte	0x38
 10313 2101 AB010000 		.4byte	0x1ab
 10314 2105 00       		.byte	0
 10315 2106 0D       		.uleb128 0xd
 10316 2107 F21C0000 		.4byte	.LASF451
 10317 210b 1E       		.byte	0x1e
 10318 210c 39       		.byte	0x39
 10319 210d AB010000 		.4byte	0x1ab
 10320 2111 04       		.byte	0x4
 10321 2112 00       		.byte	0
 10322 2113 02       		.uleb128 0x2
 10323 2114 15200000 		.4byte	.LASF452
 10324 2118 1E       		.byte	0x1e
 10325 2119 3A       		.byte	0x3a
 10326 211a F2200000 		.4byte	0x20f2
 10327 211e 17       		.uleb128 0x17
 10328 211f A2020000 		.4byte	0x2a2
 10329 2123 2D210000 		.4byte	0x212d
 10330 2127 18       		.uleb128 0x18
 10331 2128 68010000 		.4byte	0x168
 10332 212c 00       		.byte	0
 10333 212d 05       		.uleb128 0x5
 10334 212e 04       		.byte	0x4
 10335 212f 1E210000 		.4byte	0x211e
 10336 2133 17       		.uleb128 0x17
 10337 2134 A2020000 		.4byte	0x2a2
 10338 2138 51210000 		.4byte	0x2151
 10339 213c 18       		.uleb128 0x18
 10340 213d 68010000 		.4byte	0x168
 10341 2141 18       		.uleb128 0x18
 10342 2142 AB010000 		.4byte	0x1ab
 10343 2146 18       		.uleb128 0x18
 10344 2147 111F0000 		.4byte	0x1f11
 10345 214b 18       		.uleb128 0x18
 10346 214c AB010000 		.4byte	0x1ab
 10347 2150 00       		.byte	0
 10348 2151 05       		.uleb128 0x5
 10349 2152 04       		.byte	0x4
ARM GAS  C:\Users\Moi\AppData\Local\Temp\ccAXdvuJ.s 			page 188


 10350 2153 33210000 		.4byte	0x2133
 10351 2157 17       		.uleb128 0x17
 10352 2158 A2020000 		.4byte	0x2a2
 10353 215c 75210000 		.4byte	0x2175
 10354 2160 18       		.uleb128 0x18
 10355 2161 68010000 		.4byte	0x168
 10356 2165 18       		.uleb128 0x18
 10357 2166 AB010000 		.4byte	0x1ab
 10358 216a 18       		.uleb128 0x18
 10359 216b 461F0000 		.4byte	0x1f46
 10360 216f 18       		.uleb128 0x18
 10361 2170 AB010000 		.4byte	0x1ab
 10362 2174 00       		.byte	0
 10363 2175 05       		.uleb128 0x5
 10364 2176 04       		.byte	0x4
 10365 2177 57210000 		.4byte	0x2157
 10366 217b 17       		.uleb128 0x17
 10367 217c A2020000 		.4byte	0x2a2
 10368 2180 8F210000 		.4byte	0x218f
 10369 2184 18       		.uleb128 0x18
 10370 2185 68010000 		.4byte	0x168
 10371 2189 18       		.uleb128 0x18
 10372 218a 8F210000 		.4byte	0x218f
 10373 218e 00       		.byte	0
 10374 218f 05       		.uleb128 0x5
 10375 2190 04       		.byte	0x4
 10376 2191 13210000 		.4byte	0x2113
 10377 2195 05       		.uleb128 0x5
 10378 2196 04       		.byte	0x4
 10379 2197 7B210000 		.4byte	0x217b
 10380 219b 0A       		.uleb128 0xa
 10381 219c AB010000 		.4byte	0x1ab
 10382 21a0 AB210000 		.4byte	0x21ab
 10383 21a4 0B       		.uleb128 0xb
 10384 21a5 B1000000 		.4byte	0xb1
 10385 21a9 03       		.byte	0x3
 10386 21aa 00       		.byte	0
 10387 21ab 0C       		.uleb128 0xc
 10388 21ac 04       		.byte	0x4
 10389 21ad 1F       		.byte	0x1f
 10390 21ae B3       		.byte	0xb3
 10391 21af CC210000 		.4byte	0x21cc
 10392 21b3 13       		.uleb128 0x13
 10393 21b4 73657400 		.ascii	"set\000"
 10394 21b8 1F       		.byte	0x1f
 10395 21b9 B4       		.byte	0xb4
 10396 21ba 90010000 		.4byte	0x190
 10397 21be 00       		.byte	0
 10398 21bf 0D       		.uleb128 0xd
 10399 21c0 EF0C0000 		.4byte	.LASF453
 10400 21c4 1F       		.byte	0x1f
 10401 21c5 B5       		.byte	0xb5
 10402 21c6 90010000 		.4byte	0x190
 10403 21ca 02       		.byte	0x2
 10404 21cb 00       		.byte	0
 10405 21cc 08       		.uleb128 0x8
 10406 21cd 04       		.byte	0x4
ARM GAS  C:\Users\Moi\AppData\Local\Temp\ccAXdvuJ.s 			page 189


 10407 21ce 1F       		.byte	0x1f
 10408 21cf B1       		.byte	0xb1
 10409 21d0 E7210000 		.4byte	0x21e7
 10410 21d4 23       		.uleb128 0x23
 10411 21d5 5700     		.ascii	"W\000"
 10412 21d7 1F       		.byte	0x1f
 10413 21d8 B2       		.byte	0xb2
 10414 21d9 AB010000 		.4byte	0x1ab
 10415 21dd 23       		.uleb128 0x23
 10416 21de 4800     		.ascii	"H\000"
 10417 21e0 1F       		.byte	0x1f
 10418 21e1 B6       		.byte	0xb6
 10419 21e2 AB210000 		.4byte	0x21ab
 10420 21e6 00       		.byte	0
 10421 21e7 10       		.uleb128 0x10
 10422 21e8 CC210000 		.4byte	0x21cc
 10423 21ec 0C       		.uleb128 0xc
 10424 21ed 2C       		.byte	0x2c
 10425 21ee 1F       		.byte	0x1f
 10426 21ef A9       		.byte	0xa9
 10427 21f0 79220000 		.4byte	0x2279
 10428 21f4 0D       		.uleb128 0xd
 10429 21f5 111F0000 		.4byte	.LASF454
 10430 21f9 1F       		.byte	0x1f
 10431 21fa AB       		.byte	0xab
 10432 21fb B6010000 		.4byte	0x1b6
 10433 21ff 00       		.byte	0
 10434 2200 0D       		.uleb128 0xd
 10435 2201 54030000 		.4byte	.LASF455
 10436 2205 1F       		.byte	0x1f
 10437 2206 AC       		.byte	0xac
 10438 2207 B6010000 		.4byte	0x1b6
 10439 220b 04       		.byte	0x4
 10440 220c 0D       		.uleb128 0xd
 10441 220d A40E0000 		.4byte	.LASF456
 10442 2211 1F       		.byte	0x1f
 10443 2212 AD       		.byte	0xad
 10444 2213 B6010000 		.4byte	0x1b6
 10445 2217 08       		.byte	0x8
 10446 2218 0D       		.uleb128 0xd
 10447 2219 491E0000 		.4byte	.LASF457
 10448 221d 1F       		.byte	0x1f
 10449 221e AE       		.byte	0xae
 10450 221f B6010000 		.4byte	0x1b6
 10451 2223 0C       		.byte	0xc
 10452 2224 13       		.uleb128 0x13
 10453 2225 49445200 		.ascii	"IDR\000"
 10454 2229 1F       		.byte	0x1f
 10455 222a AF       		.byte	0xaf
 10456 222b B6010000 		.4byte	0x1b6
 10457 222f 10       		.byte	0x10
 10458 2230 13       		.uleb128 0x13
 10459 2231 4F445200 		.ascii	"ODR\000"
 10460 2235 1F       		.byte	0x1f
 10461 2236 B0       		.byte	0xb0
 10462 2237 B6010000 		.4byte	0x1b6
 10463 223b 14       		.byte	0x14
ARM GAS  C:\Users\Moi\AppData\Local\Temp\ccAXdvuJ.s 			page 190


 10464 223c 0D       		.uleb128 0xd
 10465 223d 51120000 		.4byte	.LASF458
 10466 2241 1F       		.byte	0x1f
 10467 2242 B7       		.byte	0xb7
 10468 2243 E7210000 		.4byte	0x21e7
 10469 2247 18       		.byte	0x18
 10470 2248 0D       		.uleb128 0xd
 10471 2249 12180000 		.4byte	.LASF459
 10472 224d 1F       		.byte	0x1f
 10473 224e B8       		.byte	0xb8
 10474 224f B6010000 		.4byte	0x1b6
 10475 2253 1C       		.byte	0x1c
 10476 2254 0D       		.uleb128 0xd
 10477 2255 501B0000 		.4byte	.LASF460
 10478 2259 1F       		.byte	0x1f
 10479 225a B9       		.byte	0xb9
 10480 225b B6010000 		.4byte	0x1b6
 10481 225f 20       		.byte	0x20
 10482 2260 0D       		.uleb128 0xd
 10483 2261 4B1B0000 		.4byte	.LASF461
 10484 2265 1F       		.byte	0x1f
 10485 2266 BA       		.byte	0xba
 10486 2267 B6010000 		.4byte	0x1b6
 10487 226b 24       		.byte	0x24
 10488 226c 13       		.uleb128 0x13
 10489 226d 42525200 		.ascii	"BRR\000"
 10490 2271 1F       		.byte	0x1f
 10491 2272 BB       		.byte	0xbb
 10492 2273 B6010000 		.4byte	0x1b6
 10493 2277 28       		.byte	0x28
 10494 2278 00       		.byte	0
 10495 2279 02       		.uleb128 0x2
 10496 227a F60F0000 		.4byte	.LASF462
 10497 227e 1F       		.byte	0x1f
 10498 227f BC       		.byte	0xbc
 10499 2280 EC210000 		.4byte	0x21ec
 10500 2284 0C       		.uleb128 0xc
 10501 2285 1C       		.byte	0x1c
 10502 2286 1F       		.byte	0x1f
 10503 2287 C1       		.byte	0xc1
 10504 2288 E1220000 		.4byte	0x22e1
 10505 228c 0D       		.uleb128 0xd
 10506 228d 3F220000 		.4byte	.LASF463
 10507 2291 1F       		.byte	0x1f
 10508 2292 C3       		.byte	0xc3
 10509 2293 AB010000 		.4byte	0x1ab
 10510 2297 00       		.byte	0
 10511 2298 0D       		.uleb128 0xd
 10512 2299 4D030000 		.4byte	.LASF464
 10513 229d 1F       		.byte	0x1f
 10514 229e C5       		.byte	0xc5
 10515 229f AB010000 		.4byte	0x1ab
 10516 22a3 04       		.byte	0x4
 10517 22a4 0D       		.uleb128 0xd
 10518 22a5 63020000 		.4byte	.LASF465
 10519 22a9 1F       		.byte	0x1f
 10520 22aa C7       		.byte	0xc7
ARM GAS  C:\Users\Moi\AppData\Local\Temp\ccAXdvuJ.s 			page 191


 10521 22ab AB010000 		.4byte	0x1ab
 10522 22af 08       		.byte	0x8
 10523 22b0 0D       		.uleb128 0xd
 10524 22b1 5D210000 		.4byte	.LASF466
 10525 22b5 1F       		.byte	0x1f
 10526 22b6 C9       		.byte	0xc9
 10527 22b7 AB010000 		.4byte	0x1ab
 10528 22bb 0C       		.byte	0xc
 10529 22bc 13       		.uleb128 0x13
 10530 22bd 6F647200 		.ascii	"odr\000"
 10531 22c1 1F       		.byte	0x1f
 10532 22c2 CB       		.byte	0xcb
 10533 22c3 AB010000 		.4byte	0x1ab
 10534 22c7 10       		.byte	0x10
 10535 22c8 0D       		.uleb128 0xd
 10536 22c9 DB1E0000 		.4byte	.LASF467
 10537 22cd 1F       		.byte	0x1f
 10538 22ce CD       		.byte	0xcd
 10539 22cf AB010000 		.4byte	0x1ab
 10540 22d3 14       		.byte	0x14
 10541 22d4 0D       		.uleb128 0xd
 10542 22d5 87000000 		.4byte	.LASF468
 10543 22d9 1F       		.byte	0x1f
 10544 22da CF       		.byte	0xcf
 10545 22db AB010000 		.4byte	0x1ab
 10546 22df 18       		.byte	0x18
 10547 22e0 00       		.byte	0
 10548 22e1 02       		.uleb128 0x2
 10549 22e2 451A0000 		.4byte	.LASF469
 10550 22e6 1F       		.byte	0x1f
 10551 22e7 D0       		.byte	0xd0
 10552 22e8 84220000 		.4byte	0x2284
 10553 22ec 0C       		.uleb128 0xc
 10554 22ed FC       		.byte	0xfc
 10555 22ee 1F       		.byte	0x1f
 10556 22ef D9       		.byte	0xd9
 10557 22f0 61230000 		.4byte	0x2361
 10558 22f4 0D       		.uleb128 0xd
 10559 22f5 8E100000 		.4byte	.LASF470
 10560 22f9 1F       		.byte	0x1f
 10561 22fa DC       		.byte	0xdc
 10562 22fb E1220000 		.4byte	0x22e1
 10563 22ff 00       		.byte	0
 10564 2300 0D       		.uleb128 0xd
 10565 2301 2C030000 		.4byte	.LASF471
 10566 2305 1F       		.byte	0x1f
 10567 2306 E0       		.byte	0xe0
 10568 2307 E1220000 		.4byte	0x22e1
 10569 230b 1C       		.byte	0x1c
 10570 230c 0D       		.uleb128 0xd
 10571 230d D0010000 		.4byte	.LASF472
 10572 2311 1F       		.byte	0x1f
 10573 2312 E4       		.byte	0xe4
 10574 2313 E1220000 		.4byte	0x22e1
 10575 2317 38       		.byte	0x38
 10576 2318 0D       		.uleb128 0xd
 10577 2319 050E0000 		.4byte	.LASF473
ARM GAS  C:\Users\Moi\AppData\Local\Temp\ccAXdvuJ.s 			page 192


 10578 231d 1F       		.byte	0x1f
 10579 231e E8       		.byte	0xe8
 10580 231f E1220000 		.4byte	0x22e1
 10581 2323 54       		.byte	0x54
 10582 2324 0D       		.uleb128 0xd
 10583 2325 66190000 		.4byte	.LASF474
 10584 2329 1F       		.byte	0x1f
 10585 232a EC       		.byte	0xec
 10586 232b E1220000 		.4byte	0x22e1
 10587 232f 70       		.byte	0x70
 10588 2330 0D       		.uleb128 0xd
 10589 2331 D6250000 		.4byte	.LASF475
 10590 2335 1F       		.byte	0x1f
 10591 2336 F0       		.byte	0xf0
 10592 2337 E1220000 		.4byte	0x22e1
 10593 233b 8C       		.byte	0x8c
 10594 233c 0D       		.uleb128 0xd
 10595 233d CC0B0000 		.4byte	.LASF476
 10596 2341 1F       		.byte	0x1f
 10597 2342 F4       		.byte	0xf4
 10598 2343 E1220000 		.4byte	0x22e1
 10599 2347 A8       		.byte	0xa8
 10600 2348 0D       		.uleb128 0xd
 10601 2349 49170000 		.4byte	.LASF477
 10602 234d 1F       		.byte	0x1f
 10603 234e F8       		.byte	0xf8
 10604 234f E1220000 		.4byte	0x22e1
 10605 2353 C4       		.byte	0xc4
 10606 2354 0D       		.uleb128 0xd
 10607 2355 B3230000 		.4byte	.LASF478
 10608 2359 1F       		.byte	0x1f
 10609 235a FC       		.byte	0xfc
 10610 235b E1220000 		.4byte	0x22e1
 10611 235f E0       		.byte	0xe0
 10612 2360 00       		.byte	0
 10613 2361 02       		.uleb128 0x2
 10614 2362 0D0B0000 		.4byte	.LASF479
 10615 2366 1F       		.byte	0x1f
 10616 2367 FE       		.byte	0xfe
 10617 2368 EC220000 		.4byte	0x22ec
 10618 236c 0F       		.uleb128 0xf
 10619 236d 61230000 		.4byte	0x2361
 10620 2371 07       		.uleb128 0x7
 10621 2372 50170000 		.4byte	.LASF480
 10622 2376 1F       		.byte	0x1f
 10623 2377 1B01     		.2byte	0x11b
 10624 2379 7D230000 		.4byte	0x237d
 10625 237d 05       		.uleb128 0x5
 10626 237e 04       		.byte	0x4
 10627 237f 79220000 		.4byte	0x2279
 10628 2383 21       		.uleb128 0x21
 10629 2384 B21F0000 		.4byte	.LASF481
 10630 2388 1F       		.byte	0x1f
 10631 2389 DA01     		.2byte	0x1da
 10632 238b 6C230000 		.4byte	0x236c
 10633 238f 2A       		.uleb128 0x2a
 10634 2390 07       		.byte	0x7
ARM GAS  C:\Users\Moi\AppData\Local\Temp\ccAXdvuJ.s 			page 193


 10635 2391 01       		.byte	0x1
 10636 2392 42000000 		.4byte	0x42
 10637 2396 20       		.byte	0x20
 10638 2397 46       		.byte	0x46
 10639 2398 C1230000 		.4byte	0x23c1
 10640 239c 2B       		.uleb128 0x2b
 10641 239d 8D080000 		.4byte	.LASF482
 10642 23a1 00       		.byte	0
 10643 23a2 2B       		.uleb128 0x2b
 10644 23a3 BB140000 		.4byte	.LASF483
 10645 23a7 01       		.byte	0x1
 10646 23a8 2B       		.uleb128 0x2b
 10647 23a9 DD210000 		.4byte	.LASF484
 10648 23ad 02       		.byte	0x2
 10649 23ae 2B       		.uleb128 0x2b
 10650 23af 31120000 		.4byte	.LASF485
 10651 23b3 03       		.byte	0x3
 10652 23b4 2B       		.uleb128 0x2b
 10653 23b5 98060000 		.4byte	.LASF486
 10654 23b9 04       		.byte	0x4
 10655 23ba 2B       		.uleb128 0x2b
 10656 23bb FE110000 		.4byte	.LASF487
 10657 23bf 05       		.byte	0x5
 10658 23c0 00       		.byte	0
 10659 23c1 02       		.uleb128 0x2
 10660 23c2 6B040000 		.4byte	.LASF488
 10661 23c6 20       		.byte	0x20
 10662 23c7 4D       		.byte	0x4d
 10663 23c8 8F230000 		.4byte	0x238f
 10664 23cc 07       		.uleb128 0x7
 10665 23cd 29110000 		.4byte	.LASF489
 10666 23d1 21       		.byte	0x21
 10667 23d2 2701     		.2byte	0x127
 10668 23d4 90010000 		.4byte	0x190
 10669 23d8 07       		.uleb128 0x7
 10670 23d9 E71B0000 		.4byte	.LASF490
 10671 23dd 21       		.byte	0x21
 10672 23de 2C01     		.2byte	0x12c
 10673 23e0 90010000 		.4byte	0x190
 10674 23e4 2C       		.uleb128 0x2c
 10675 23e5 07       		.byte	0x7
 10676 23e6 01       		.byte	0x1
 10677 23e7 42000000 		.4byte	0x42
 10678 23eb 21       		.byte	0x21
 10679 23ec 3301     		.2byte	0x133
 10680 23ee FF230000 		.4byte	0x23ff
 10681 23f2 2B       		.uleb128 0x2b
 10682 23f3 6D0E0000 		.4byte	.LASF491
 10683 23f7 00       		.byte	0
 10684 23f8 2B       		.uleb128 0x2b
 10685 23f9 87020000 		.4byte	.LASF492
 10686 23fd 01       		.byte	0x1
 10687 23fe 00       		.byte	0
 10688 23ff 07       		.uleb128 0x7
 10689 2400 FD220000 		.4byte	.LASF493
 10690 2404 21       		.byte	0x21
 10691 2405 3601     		.2byte	0x136
ARM GAS  C:\Users\Moi\AppData\Local\Temp\ccAXdvuJ.s 			page 194


 10692 2407 E4230000 		.4byte	0x23e4
 10693 240b 07       		.uleb128 0x7
 10694 240c 2A0F0000 		.4byte	.LASF494
 10695 2410 21       		.byte	0x21
 10696 2411 3B01     		.2byte	0x13b
 10697 2413 17240000 		.4byte	0x2417
 10698 2417 1C       		.uleb128 0x1c
 10699 2418 2A0F0000 		.4byte	.LASF494
 10700 241c 38       		.byte	0x38
 10701 241d 21       		.byte	0x21
 10702 241e 9F01     		.2byte	0x19f
 10703 2420 A7240000 		.4byte	0x24a7
 10704 2424 1A       		.uleb128 0x1a
 10705 2425 93150000 		.4byte	.LASF495
 10706 2429 21       		.byte	0x21
 10707 242a A301     		.2byte	0x1a3
 10708 242c C1230000 		.4byte	0x23c1
 10709 2430 00       		.byte	0
 10710 2431 1A       		.uleb128 0x1a
 10711 2432 951B0000 		.4byte	.LASF496
 10712 2436 21       		.byte	0x21
 10713 2437 A701     		.2byte	0x1a7
 10714 2439 CE250000 		.4byte	0x25ce
 10715 243d 04       		.byte	0x4
 10716 243e 1A       		.uleb128 0x1a
 10717 243f E6010000 		.4byte	.LASF497
 10718 2443 21       		.byte	0x21
 10719 2444 AB01     		.2byte	0x1ab
 10720 2446 D4240000 		.4byte	0x24d4
 10721 244a 08       		.byte	0x8
 10722 244b 1A       		.uleb128 0x1a
 10723 244c 0D160000 		.4byte	.LASF498
 10724 2450 21       		.byte	0x21
 10725 2451 AF01     		.2byte	0x1af
 10726 2453 B8000000 		.4byte	0xb8
 10727 2457 0C       		.byte	0xc
 10728 2458 1A       		.uleb128 0x1a
 10729 2459 C51F0000 		.4byte	.LASF499
 10730 245d 21       		.byte	0x21
 10731 245e B301     		.2byte	0x1b3
 10732 2460 D4250000 		.4byte	0x25d4
 10733 2464 10       		.byte	0x10
 10734 2465 1A       		.uleb128 0x1a
 10735 2466 17070000 		.4byte	.LASF500
 10736 246a 21       		.byte	0x21
 10737 246b B801     		.2byte	0x1b8
 10738 246d 8A0E0000 		.4byte	0xe8a
 10739 2471 14       		.byte	0x14
 10740 2472 1A       		.uleb128 0x1a
 10741 2473 B40C0000 		.4byte	.LASF501
 10742 2477 21       		.byte	0x21
 10743 2478 BE01     		.2byte	0x1be
 10744 247a E81D0000 		.4byte	0x1de8
 10745 247e 18       		.byte	0x18
 10746 247f 25       		.uleb128 0x25
 10747 2480 61646300 		.ascii	"adc\000"
 10748 2484 21       		.byte	0x21
ARM GAS  C:\Users\Moi\AppData\Local\Temp\ccAXdvuJ.s 			page 195


 10749 2485 C701     		.2byte	0x1c7
 10750 2487 DA250000 		.4byte	0x25da
 10751 248b 2C       		.byte	0x2c
 10752 248c 1A       		.uleb128 0x1a
 10753 248d B60A0000 		.4byte	.LASF502
 10754 2491 21       		.byte	0x21
 10755 2492 CB01     		.2byte	0x1cb
 10756 2494 E0250000 		.4byte	0x25e0
 10757 2498 30       		.byte	0x30
 10758 2499 1A       		.uleb128 0x1a
 10759 249a A0170000 		.4byte	.LASF503
 10760 249e 21       		.byte	0x21
 10761 249f CF01     		.2byte	0x1cf
 10762 24a1 AB010000 		.4byte	0x1ab
 10763 24a5 34       		.byte	0x34
 10764 24a6 00       		.byte	0
 10765 24a7 07       		.uleb128 0x7
 10766 24a8 53080000 		.4byte	.LASF504
 10767 24ac 21       		.byte	0x21
 10768 24ad 4501     		.2byte	0x145
 10769 24af B3240000 		.4byte	0x24b3
 10770 24b3 05       		.uleb128 0x5
 10771 24b4 04       		.byte	0x4
 10772 24b5 B9240000 		.4byte	0x24b9
 10773 24b9 20       		.uleb128 0x20
 10774 24ba CE240000 		.4byte	0x24ce
 10775 24be 18       		.uleb128 0x18
 10776 24bf CE240000 		.4byte	0x24ce
 10777 24c3 18       		.uleb128 0x18
 10778 24c4 D4240000 		.4byte	0x24d4
 10779 24c8 18       		.uleb128 0x18
 10780 24c9 B8000000 		.4byte	0xb8
 10781 24cd 00       		.byte	0
 10782 24ce 05       		.uleb128 0x5
 10783 24cf 04       		.byte	0x4
 10784 24d0 0B240000 		.4byte	0x240b
 10785 24d4 05       		.uleb128 0x5
 10786 24d5 04       		.byte	0x4
 10787 24d6 CC230000 		.4byte	0x23cc
 10788 24da 07       		.uleb128 0x7
 10789 24db 6E150000 		.4byte	.LASF505
 10790 24df 21       		.byte	0x21
 10791 24e0 4E01     		.2byte	0x14e
 10792 24e2 E6240000 		.4byte	0x24e6
 10793 24e6 05       		.uleb128 0x5
 10794 24e7 04       		.byte	0x4
 10795 24e8 EC240000 		.4byte	0x24ec
 10796 24ec 20       		.uleb128 0x20
 10797 24ed FC240000 		.4byte	0x24fc
 10798 24f1 18       		.uleb128 0x18
 10799 24f2 CE240000 		.4byte	0x24ce
 10800 24f6 18       		.uleb128 0x18
 10801 24f7 FF230000 		.4byte	0x23ff
 10802 24fb 00       		.byte	0
 10803 24fc 1D       		.uleb128 0x1d
 10804 24fd 28       		.byte	0x28
 10805 24fe 21       		.byte	0x21
ARM GAS  C:\Users\Moi\AppData\Local\Temp\ccAXdvuJ.s 			page 196


 10806 24ff 5801     		.2byte	0x158
 10807 2501 95250000 		.4byte	0x2595
 10808 2505 1A       		.uleb128 0x1a
 10809 2506 2B220000 		.4byte	.LASF506
 10810 250a 21       		.byte	0x21
 10811 250b 5C01     		.2byte	0x15c
 10812 250d A2020000 		.4byte	0x2a2
 10813 2511 00       		.byte	0
 10814 2512 1A       		.uleb128 0x1a
 10815 2513 48100000 		.4byte	.LASF507
 10816 2517 21       		.byte	0x21
 10817 2518 6001     		.2byte	0x160
 10818 251a D8230000 		.4byte	0x23d8
 10819 251e 02       		.byte	0x2
 10820 251f 1A       		.uleb128 0x1a
 10821 2520 7B090000 		.4byte	.LASF508
 10822 2524 21       		.byte	0x21
 10823 2525 6401     		.2byte	0x164
 10824 2527 A7240000 		.4byte	0x24a7
 10825 252b 04       		.byte	0x4
 10826 252c 1A       		.uleb128 0x1a
 10827 252d E6230000 		.4byte	.LASF509
 10828 2531 21       		.byte	0x21
 10829 2532 6801     		.2byte	0x168
 10830 2534 DA240000 		.4byte	0x24da
 10831 2538 08       		.byte	0x8
 10832 2539 25       		.uleb128 0x25
 10833 253a 63723100 		.ascii	"cr1\000"
 10834 253e 21       		.byte	0x21
 10835 253f 6F01     		.2byte	0x16f
 10836 2541 AB010000 		.4byte	0x1ab
 10837 2545 0C       		.byte	0xc
 10838 2546 25       		.uleb128 0x25
 10839 2547 63723200 		.ascii	"cr2\000"
 10840 254b 21       		.byte	0x21
 10841 254c 7601     		.2byte	0x176
 10842 254e AB010000 		.4byte	0x1ab
 10843 2552 10       		.byte	0x10
 10844 2553 1A       		.uleb128 0x1a
 10845 2554 A1160000 		.4byte	.LASF510
 10846 2558 21       		.byte	0x21
 10847 2559 7C01     		.2byte	0x17c
 10848 255b AB010000 		.4byte	0x1ab
 10849 255f 14       		.byte	0x14
 10850 2560 1A       		.uleb128 0x1a
 10851 2561 A7160000 		.4byte	.LASF511
 10852 2565 21       		.byte	0x21
 10853 2566 8201     		.2byte	0x182
 10854 2568 AB010000 		.4byte	0x1ab
 10855 256c 18       		.byte	0x18
 10856 256d 1A       		.uleb128 0x1a
 10857 256e 67010000 		.4byte	.LASF512
 10858 2572 21       		.byte	0x21
 10859 2573 8701     		.2byte	0x187
 10860 2575 AB010000 		.4byte	0x1ab
 10861 2579 1C       		.byte	0x1c
 10862 257a 1A       		.uleb128 0x1a
ARM GAS  C:\Users\Moi\AppData\Local\Temp\ccAXdvuJ.s 			page 197


 10863 257b E3240000 		.4byte	.LASF513
 10864 257f 21       		.byte	0x21
 10865 2580 8C01     		.2byte	0x18c
 10866 2582 AB010000 		.4byte	0x1ab
 10867 2586 20       		.byte	0x20
 10868 2587 1A       		.uleb128 0x1a
 10869 2588 E8240000 		.4byte	.LASF514
 10870 258c 21       		.byte	0x21
 10871 258d 9101     		.2byte	0x191
 10872 258f AB010000 		.4byte	0x1ab
 10873 2593 24       		.byte	0x24
 10874 2594 00       		.byte	0
 10875 2595 07       		.uleb128 0x7
 10876 2596 C3050000 		.4byte	.LASF515
 10877 259a 21       		.byte	0x21
 10878 259b 9201     		.2byte	0x192
 10879 259d FC240000 		.4byte	0x24fc
 10880 25a1 0F       		.uleb128 0xf
 10881 25a2 95250000 		.4byte	0x2595
 10882 25a6 1D       		.uleb128 0x1d
 10883 25a7 04       		.byte	0x4
 10884 25a8 21       		.byte	0x21
 10885 25a9 9801     		.2byte	0x198
 10886 25ab BD250000 		.4byte	0x25bd
 10887 25af 1A       		.uleb128 0x1a
 10888 25b0 14250000 		.4byte	.LASF516
 10889 25b4 21       		.byte	0x21
 10890 25b5 9901     		.2byte	0x199
 10891 25b7 AB010000 		.4byte	0x1ab
 10892 25bb 00       		.byte	0
 10893 25bc 00       		.byte	0
 10894 25bd 07       		.uleb128 0x7
 10895 25be 420F0000 		.4byte	.LASF517
 10896 25c2 21       		.byte	0x21
 10897 25c3 9A01     		.2byte	0x19a
 10898 25c5 A6250000 		.4byte	0x25a6
 10899 25c9 0F       		.uleb128 0xf
 10900 25ca BD250000 		.4byte	0x25bd
 10901 25ce 05       		.uleb128 0x5
 10902 25cf 04       		.byte	0x4
 10903 25d0 C9250000 		.4byte	0x25c9
 10904 25d4 05       		.uleb128 0x5
 10905 25d5 04       		.byte	0x4
 10906 25d6 A1250000 		.4byte	0x25a1
 10907 25da 05       		.uleb128 0x5
 10908 25db 04       		.byte	0x4
 10909 25dc 0D120000 		.4byte	0x120d
 10910 25e0 05       		.uleb128 0x5
 10911 25e1 04       		.byte	0x4
 10912 25e2 FC1F0000 		.4byte	0x1ffc
 10913 25e6 21       		.uleb128 0x21
 10914 25e7 89170000 		.4byte	.LASF518
 10915 25eb 21       		.byte	0x21
 10916 25ec 1402     		.2byte	0x214
 10917 25ee 0B240000 		.4byte	0x240b
 10918 25f2 21       		.uleb128 0x21
 10919 25f3 8F170000 		.4byte	.LASF519
ARM GAS  C:\Users\Moi\AppData\Local\Temp\ccAXdvuJ.s 			page 198


 10920 25f7 21       		.byte	0x21
 10921 25f8 1802     		.2byte	0x218
 10922 25fa 0B240000 		.4byte	0x240b
 10923 25fe 21       		.uleb128 0x21
 10924 25ff 95170000 		.4byte	.LASF520
 10925 2603 21       		.byte	0x21
 10926 2604 1C02     		.2byte	0x21c
 10927 2606 0B240000 		.4byte	0x240b
 10928 260a 2A       		.uleb128 0x2a
 10929 260b 07       		.byte	0x7
 10930 260c 01       		.byte	0x1
 10931 260d 42000000 		.4byte	0x42
 10932 2611 22       		.byte	0x22
 10933 2612 5F       		.byte	0x5f
 10934 2613 36260000 		.4byte	0x2636
 10935 2617 2B       		.uleb128 0x2b
 10936 2618 7F0D0000 		.4byte	.LASF521
 10937 261c 00       		.byte	0
 10938 261d 2B       		.uleb128 0x2b
 10939 261e E8000000 		.4byte	.LASF522
 10940 2622 01       		.byte	0x1
 10941 2623 2B       		.uleb128 0x2b
 10942 2624 58000000 		.4byte	.LASF523
 10943 2628 02       		.byte	0x2
 10944 2629 2B       		.uleb128 0x2b
 10945 262a 95180000 		.4byte	.LASF524
 10946 262e 03       		.byte	0x3
 10947 262f 2B       		.uleb128 0x2b
 10948 2630 2A0A0000 		.4byte	.LASF525
 10949 2634 04       		.byte	0x4
 10950 2635 00       		.byte	0
 10951 2636 02       		.uleb128 0x2
 10952 2637 25060000 		.4byte	.LASF526
 10953 263b 22       		.byte	0x22
 10954 263c 65       		.byte	0x65
 10955 263d 0A260000 		.4byte	0x260a
 10956 2641 0A       		.uleb128 0xa
 10957 2642 75010000 		.4byte	0x175
 10958 2646 51260000 		.4byte	0x2651
 10959 264a 0B       		.uleb128 0xb
 10960 264b B1000000 		.4byte	0xb1
 10961 264f 07       		.byte	0x7
 10962 2650 00       		.byte	0
 10963 2651 0C       		.uleb128 0xc
 10964 2652 08       		.byte	0x8
 10965 2653 23       		.byte	0x23
 10966 2654 F4       		.byte	0xf4
 10967 2655 73260000 		.4byte	0x2673
 10968 2659 13       		.uleb128 0x13
 10969 265a 6D637200 		.ascii	"mcr\000"
 10970 265e 23       		.byte	0x23
 10971 265f FA       		.byte	0xfa
 10972 2660 AB010000 		.4byte	0x1ab
 10973 2664 00       		.byte	0
 10974 2665 25       		.uleb128 0x25
 10975 2666 62747200 		.ascii	"btr\000"
 10976 266a 23       		.byte	0x23
ARM GAS  C:\Users\Moi\AppData\Local\Temp\ccAXdvuJ.s 			page 199


 10977 266b 0001     		.2byte	0x100
 10978 266d AB010000 		.4byte	0x1ab
 10979 2671 04       		.byte	0x4
 10980 2672 00       		.byte	0
 10981 2673 07       		.uleb128 0x7
 10982 2674 5C190000 		.4byte	.LASF527
 10983 2678 23       		.byte	0x23
 10984 2679 0101     		.2byte	0x101
 10985 267b 51260000 		.4byte	0x2651
 10986 267f 0F       		.uleb128 0xf
 10987 2680 73260000 		.4byte	0x2673
 10988 2684 1D       		.uleb128 0x1d
 10989 2685 30       		.byte	0x30
 10990 2686 23       		.byte	0x23
 10991 2687 0601     		.2byte	0x106
 10992 2689 10270000 		.4byte	0x2710
 10993 268d 1A       		.uleb128 0x1a
 10994 268e 93150000 		.4byte	.LASF495
 10995 2692 23       		.byte	0x23
 10996 2693 0A01     		.2byte	0x10a
 10997 2695 36260000 		.4byte	0x2636
 10998 2699 00       		.byte	0
 10999 269a 1A       		.uleb128 0x1a
 11000 269b 951B0000 		.4byte	.LASF496
 11001 269f 23       		.byte	0x23
 11002 26a0 0E01     		.2byte	0x10e
 11003 26a2 10270000 		.4byte	0x2710
 11004 26a6 04       		.byte	0x4
 11005 26a7 1A       		.uleb128 0x1a
 11006 26a8 A6090000 		.4byte	.LASF528
 11007 26ac 23       		.byte	0x23
 11008 26ad 1201     		.2byte	0x112
 11009 26af BF0E0000 		.4byte	0xebf
 11010 26b3 08       		.byte	0x8
 11011 26b4 1A       		.uleb128 0x1a
 11012 26b5 991F0000 		.4byte	.LASF529
 11013 26b9 23       		.byte	0x23
 11014 26ba 1601     		.2byte	0x116
 11015 26bc BF0E0000 		.4byte	0xebf
 11016 26c0 10       		.byte	0x10
 11017 26c1 1A       		.uleb128 0x1a
 11018 26c2 21190000 		.4byte	.LASF530
 11019 26c6 23       		.byte	0x23
 11020 26c7 2301     		.2byte	0x123
 11021 26c9 6C1E0000 		.4byte	0x1e6c
 11022 26cd 18       		.byte	0x18
 11023 26ce 1A       		.uleb128 0x1a
 11024 26cf B40B0000 		.4byte	.LASF531
 11025 26d3 23       		.byte	0x23
 11026 26d4 2A01     		.2byte	0x12a
 11027 26d6 6C1E0000 		.4byte	0x1e6c
 11028 26da 1C       		.byte	0x1c
 11029 26db 1A       		.uleb128 0x1a
 11030 26dc 3C100000 		.4byte	.LASF532
 11031 26e0 23       		.byte	0x23
 11032 26e1 3001     		.2byte	0x130
 11033 26e3 6C1E0000 		.4byte	0x1e6c
ARM GAS  C:\Users\Moi\AppData\Local\Temp\ccAXdvuJ.s 			page 200


 11034 26e7 20       		.byte	0x20
 11035 26e8 1A       		.uleb128 0x1a
 11036 26e9 AE030000 		.4byte	.LASF533
 11037 26ed 23       		.byte	0x23
 11038 26ee 3501     		.2byte	0x135
 11039 26f0 6C1E0000 		.4byte	0x1e6c
 11040 26f4 24       		.byte	0x24
 11041 26f5 1A       		.uleb128 0x1a
 11042 26f6 66090000 		.4byte	.LASF534
 11043 26fa 23       		.byte	0x23
 11044 26fb 3901     		.2byte	0x139
 11045 26fd 6C1E0000 		.4byte	0x1e6c
 11046 2701 28       		.byte	0x28
 11047 2702 25       		.uleb128 0x25
 11048 2703 63616E00 		.ascii	"can\000"
 11049 2707 23       		.byte	0x23
 11050 2708 3F01     		.2byte	0x13f
 11051 270a 16270000 		.4byte	0x2716
 11052 270e 2C       		.byte	0x2c
 11053 270f 00       		.byte	0
 11054 2710 05       		.uleb128 0x5
 11055 2711 04       		.byte	0x4
 11056 2712 7F260000 		.4byte	0x267f
 11057 2716 05       		.uleb128 0x5
 11058 2717 04       		.byte	0x4
 11059 2718 56140000 		.4byte	0x1456
 11060 271c 07       		.uleb128 0x7
 11061 271d 04040000 		.4byte	.LASF535
 11062 2721 23       		.byte	0x23
 11063 2722 4001     		.2byte	0x140
 11064 2724 84260000 		.4byte	0x2684
 11065 2728 21       		.uleb128 0x21
 11066 2729 0D210000 		.4byte	.LASF536
 11067 272d 23       		.byte	0x23
 11068 272e 4B01     		.2byte	0x14b
 11069 2730 1C270000 		.4byte	0x271c
 11070 2734 2A       		.uleb128 0x2a
 11071 2735 07       		.byte	0x7
 11072 2736 01       		.byte	0x1
 11073 2737 42000000 		.4byte	0x42
 11074 273b 24       		.byte	0x24
 11075 273c 46       		.byte	0x46
 11076 273d 66270000 		.4byte	0x2766
 11077 2741 2B       		.uleb128 0x2b
 11078 2742 DC1B0000 		.4byte	.LASF537
 11079 2746 00       		.byte	0
 11080 2747 2B       		.uleb128 0x2b
 11081 2748 62220000 		.4byte	.LASF538
 11082 274c 01       		.byte	0x1
 11083 274d 2B       		.uleb128 0x2b
 11084 274e AC0E0000 		.4byte	.LASF539
 11085 2752 02       		.byte	0x2
 11086 2753 2B       		.uleb128 0x2b
 11087 2754 81150000 		.4byte	.LASF540
 11088 2758 03       		.byte	0x3
 11089 2759 2B       		.uleb128 0x2b
 11090 275a 701B0000 		.4byte	.LASF541
ARM GAS  C:\Users\Moi\AppData\Local\Temp\ccAXdvuJ.s 			page 201


 11091 275e 04       		.byte	0x4
 11092 275f 2B       		.uleb128 0x2b
 11093 2760 870F0000 		.4byte	.LASF542
 11094 2764 05       		.byte	0x5
 11095 2765 00       		.byte	0
 11096 2766 02       		.uleb128 0x2
 11097 2767 CD180000 		.4byte	.LASF543
 11098 276b 24       		.byte	0x24
 11099 276c 4D       		.byte	0x4d
 11100 276d 34270000 		.4byte	0x2734
 11101 2771 0C       		.uleb128 0xc
 11102 2772 1C       		.byte	0x1c
 11103 2773 25       		.byte	0x25
 11104 2774 F9       		.byte	0xf9
 11105 2775 D4270000 		.4byte	0x27d4
 11106 2779 13       		.uleb128 0x13
 11107 277a 64616300 		.ascii	"dac\000"
 11108 277e 25       		.byte	0x25
 11109 277f FD       		.byte	0xfd
 11110 2780 D4270000 		.4byte	0x27d4
 11111 2784 00       		.byte	0
 11112 2785 1A       		.uleb128 0x1a
 11113 2786 2A180000 		.4byte	.LASF544
 11114 278a 25       		.byte	0x25
 11115 278b 0101     		.2byte	0x101
 11116 278d AB010000 		.4byte	0x1ab
 11117 2791 04       		.byte	0x4
 11118 2792 1A       		.uleb128 0x1a
 11119 2793 1E070000 		.4byte	.LASF545
 11120 2797 25       		.byte	0x25
 11121 2798 0501     		.2byte	0x105
 11122 279a AB010000 		.4byte	0x1ab
 11123 279e 08       		.byte	0x8
 11124 279f 1A       		.uleb128 0x1a
 11125 27a0 0E020000 		.4byte	.LASF546
 11126 27a4 25       		.byte	0x25
 11127 27a5 0901     		.2byte	0x109
 11128 27a7 AB010000 		.4byte	0x1ab
 11129 27ab 0C       		.byte	0xc
 11130 27ac 25       		.uleb128 0x25
 11131 27ad 646D6100 		.ascii	"dma\000"
 11132 27b1 25       		.byte	0x25
 11133 27b2 0D01     		.2byte	0x10d
 11134 27b4 E0250000 		.4byte	0x25e0
 11135 27b8 10       		.byte	0x10
 11136 27b9 1A       		.uleb128 0x1a
 11137 27ba A0170000 		.4byte	.LASF503
 11138 27be 25       		.byte	0x25
 11139 27bf 1101     		.2byte	0x111
 11140 27c1 AB010000 		.4byte	0x1ab
 11141 27c5 14       		.byte	0x14
 11142 27c6 1A       		.uleb128 0x1a
 11143 27c7 2A170000 		.4byte	.LASF547
 11144 27cb 25       		.byte	0x25
 11145 27cc 1501     		.2byte	0x115
 11146 27ce AB010000 		.4byte	0x1ab
 11147 27d2 18       		.byte	0x18
ARM GAS  C:\Users\Moi\AppData\Local\Temp\ccAXdvuJ.s 			page 202


 11148 27d3 00       		.byte	0
 11149 27d4 05       		.uleb128 0x5
 11150 27d5 04       		.byte	0x4
 11151 27d6 20150000 		.4byte	0x1520
 11152 27da 07       		.uleb128 0x7
 11153 27db 5B030000 		.4byte	.LASF548
 11154 27df 25       		.byte	0x25
 11155 27e0 1601     		.2byte	0x116
 11156 27e2 71270000 		.4byte	0x2771
 11157 27e6 0F       		.uleb128 0xf
 11158 27e7 DA270000 		.4byte	0x27da
 11159 27eb 07       		.uleb128 0x7
 11160 27ec CB0C0000 		.4byte	.LASF549
 11161 27f0 25       		.byte	0x25
 11162 27f1 1B01     		.2byte	0x11b
 11163 27f3 F7270000 		.4byte	0x27f7
 11164 27f7 1C       		.uleb128 0x1c
 11165 27f8 CB0C0000 		.4byte	.LASF549
 11166 27fc 30       		.byte	0x30
 11167 27fd 25       		.byte	0x25
 11168 27fe 7B01     		.2byte	0x17b
 11169 2800 6D280000 		.4byte	0x286d
 11170 2804 1A       		.uleb128 0x1a
 11171 2805 93150000 		.4byte	.LASF495
 11172 2809 25       		.byte	0x25
 11173 280a 7F01     		.2byte	0x17f
 11174 280c 66270000 		.4byte	0x2766
 11175 2810 00       		.byte	0
 11176 2811 1A       		.uleb128 0x1a
 11177 2812 C51F0000 		.4byte	.LASF499
 11178 2816 25       		.byte	0x25
 11179 2817 8301     		.2byte	0x183
 11180 2819 AB290000 		.4byte	0x29ab
 11181 281d 04       		.byte	0x4
 11182 281e 1A       		.uleb128 0x1a
 11183 281f E6010000 		.4byte	.LASF497
 11184 2823 25       		.byte	0x25
 11185 2824 8701     		.2byte	0x187
 11186 2826 D2280000 		.4byte	0x28d2
 11187 282a 08       		.byte	0x8
 11188 282b 1A       		.uleb128 0x1a
 11189 282c 0D160000 		.4byte	.LASF498
 11190 2830 25       		.byte	0x25
 11191 2831 8B01     		.2byte	0x18b
 11192 2833 90010000 		.4byte	0x190
 11193 2837 0C       		.byte	0xc
 11194 2838 1A       		.uleb128 0x1a
 11195 2839 951B0000 		.4byte	.LASF496
 11196 283d 25       		.byte	0x25
 11197 283e 8F01     		.2byte	0x18f
 11198 2840 B1290000 		.4byte	0x29b1
 11199 2844 10       		.byte	0x10
 11200 2845 1A       		.uleb128 0x1a
 11201 2846 17070000 		.4byte	.LASF500
 11202 284a 25       		.byte	0x25
 11203 284b 9401     		.2byte	0x194
 11204 284d 8A0E0000 		.4byte	0xe8a
ARM GAS  C:\Users\Moi\AppData\Local\Temp\ccAXdvuJ.s 			page 203


 11205 2851 14       		.byte	0x14
 11206 2852 1A       		.uleb128 0x1a
 11207 2853 B40C0000 		.4byte	.LASF501
 11208 2857 25       		.byte	0x25
 11209 2858 9A01     		.2byte	0x19a
 11210 285a E81D0000 		.4byte	0x1de8
 11211 285e 18       		.byte	0x18
 11212 285f 1A       		.uleb128 0x1a
 11213 2860 BB100000 		.4byte	.LASF550
 11214 2864 25       		.byte	0x25
 11215 2865 A301     		.2byte	0x1a3
 11216 2867 B7290000 		.4byte	0x29b7
 11217 286b 2C       		.byte	0x2c
 11218 286c 00       		.byte	0
 11219 286d 07       		.uleb128 0x7
 11220 286e F3180000 		.4byte	.LASF551
 11221 2872 25       		.byte	0x25
 11222 2873 2001     		.2byte	0x120
 11223 2875 90010000 		.4byte	0x190
 11224 2879 0F       		.uleb128 0xf
 11225 287a 6D280000 		.4byte	0x286d
 11226 287e 2C       		.uleb128 0x2c
 11227 287f 07       		.byte	0x7
 11228 2880 01       		.byte	0x1
 11229 2881 42000000 		.4byte	0x42
 11230 2885 25       		.byte	0x25
 11231 2886 2701     		.2byte	0x127
 11232 2888 99280000 		.4byte	0x2899
 11233 288c 2B       		.uleb128 0x2b
 11234 288d 8D190000 		.4byte	.LASF552
 11235 2891 00       		.byte	0
 11236 2892 2B       		.uleb128 0x2b
 11237 2893 54090000 		.4byte	.LASF553
 11238 2897 01       		.byte	0x1
 11239 2898 00       		.byte	0
 11240 2899 07       		.uleb128 0x7
 11241 289a 13110000 		.4byte	.LASF554
 11242 289e 25       		.byte	0x25
 11243 289f 2A01     		.2byte	0x12a
 11244 28a1 7E280000 		.4byte	0x287e
 11245 28a5 07       		.uleb128 0x7
 11246 28a6 8F070000 		.4byte	.LASF555
 11247 28aa 25       		.byte	0x25
 11248 28ab 3401     		.2byte	0x134
 11249 28ad B1280000 		.4byte	0x28b1
 11250 28b1 05       		.uleb128 0x5
 11251 28b2 04       		.byte	0x4
 11252 28b3 B7280000 		.4byte	0x28b7
 11253 28b7 20       		.uleb128 0x20
 11254 28b8 CC280000 		.4byte	0x28cc
 11255 28bc 18       		.uleb128 0x18
 11256 28bd CC280000 		.4byte	0x28cc
 11257 28c1 18       		.uleb128 0x18
 11258 28c2 D2280000 		.4byte	0x28d2
 11259 28c6 18       		.uleb128 0x18
 11260 28c7 B8000000 		.4byte	0xb8
 11261 28cb 00       		.byte	0
ARM GAS  C:\Users\Moi\AppData\Local\Temp\ccAXdvuJ.s 			page 204


 11262 28cc 05       		.uleb128 0x5
 11263 28cd 04       		.byte	0x4
 11264 28ce EB270000 		.4byte	0x27eb
 11265 28d2 05       		.uleb128 0x5
 11266 28d3 04       		.byte	0x4
 11267 28d4 79280000 		.4byte	0x2879
 11268 28d8 07       		.uleb128 0x7
 11269 28d9 63210000 		.4byte	.LASF556
 11270 28dd 25       		.byte	0x25
 11271 28de 3F01     		.2byte	0x13f
 11272 28e0 E4280000 		.4byte	0x28e4
 11273 28e4 05       		.uleb128 0x5
 11274 28e5 04       		.byte	0x4
 11275 28e6 EA280000 		.4byte	0x28ea
 11276 28ea 20       		.uleb128 0x20
 11277 28eb FA280000 		.4byte	0x28fa
 11278 28ef 18       		.uleb128 0x18
 11279 28f0 CC280000 		.4byte	0x28cc
 11280 28f4 18       		.uleb128 0x18
 11281 28f5 99280000 		.4byte	0x2899
 11282 28f9 00       		.byte	0
 11283 28fa 2C       		.uleb128 0x2c
 11284 28fb 07       		.byte	0x7
 11285 28fc 01       		.byte	0x1
 11286 28fd 42000000 		.4byte	0x42
 11287 2901 25       		.byte	0x25
 11288 2902 4401     		.2byte	0x144
 11289 2904 1B290000 		.4byte	0x291b
 11290 2908 2B       		.uleb128 0x2b
 11291 2909 361C0000 		.4byte	.LASF557
 11292 290d 00       		.byte	0
 11293 290e 2B       		.uleb128 0x2b
 11294 290f 9E120000 		.4byte	.LASF558
 11295 2913 01       		.byte	0x1
 11296 2914 2B       		.uleb128 0x2b
 11297 2915 20160000 		.4byte	.LASF559
 11298 2919 02       		.byte	0x2
 11299 291a 00       		.byte	0
 11300 291b 07       		.uleb128 0x7
 11301 291c A90A0000 		.4byte	.LASF560
 11302 2920 25       		.byte	0x25
 11303 2921 4D01     		.2byte	0x14d
 11304 2923 FA280000 		.4byte	0x28fa
 11305 2927 1D       		.uleb128 0x1d
 11306 2928 10       		.byte	0x10
 11307 2929 25       		.byte	0x25
 11308 292a 5201     		.2byte	0x152
 11309 292c 65290000 		.4byte	0x2965
 11310 2930 1A       		.uleb128 0x1a
 11311 2931 48100000 		.4byte	.LASF507
 11312 2935 25       		.byte	0x25
 11313 2936 5601     		.2byte	0x156
 11314 2938 AB010000 		.4byte	0x1ab
 11315 293c 00       		.byte	0
 11316 293d 1A       		.uleb128 0x1a
 11317 293e 7B090000 		.4byte	.LASF508
 11318 2942 25       		.byte	0x25
ARM GAS  C:\Users\Moi\AppData\Local\Temp\ccAXdvuJ.s 			page 205


 11319 2943 5A01     		.2byte	0x15a
 11320 2945 A5280000 		.4byte	0x28a5
 11321 2949 04       		.byte	0x4
 11322 294a 1A       		.uleb128 0x1a
 11323 294b E6230000 		.4byte	.LASF509
 11324 294f 25       		.byte	0x25
 11325 2950 5E01     		.2byte	0x15e
 11326 2952 D8280000 		.4byte	0x28d8
 11327 2956 08       		.byte	0x8
 11328 2957 1A       		.uleb128 0x1a
 11329 2958 EE130000 		.4byte	.LASF561
 11330 295c 25       		.byte	0x25
 11331 295d 6601     		.2byte	0x166
 11332 295f AB010000 		.4byte	0x1ab
 11333 2963 0C       		.byte	0xc
 11334 2964 00       		.byte	0
 11335 2965 07       		.uleb128 0x7
 11336 2966 CC110000 		.4byte	.LASF562
 11337 296a 25       		.byte	0x25
 11338 296b 6701     		.2byte	0x167
 11339 296d 27290000 		.4byte	0x2927
 11340 2971 0F       		.uleb128 0xf
 11341 2972 65290000 		.4byte	0x2965
 11342 2976 1D       		.uleb128 0x1d
 11343 2977 04       		.byte	0x4
 11344 2978 25       		.byte	0x25
 11345 2979 6C01     		.2byte	0x16c
 11346 297b 9A290000 		.4byte	0x299a
 11347 297f 1A       		.uleb128 0x1a
 11348 2980 030B0000 		.4byte	.LASF563
 11349 2984 25       		.byte	0x25
 11350 2985 7101     		.2byte	0x171
 11351 2987 6D280000 		.4byte	0x286d
 11352 298b 00       		.byte	0
 11353 298c 1A       		.uleb128 0x1a
 11354 298d 2F010000 		.4byte	.LASF564
 11355 2991 25       		.byte	0x25
 11356 2992 7501     		.2byte	0x175
 11357 2994 1B290000 		.4byte	0x291b
 11358 2998 02       		.byte	0x2
 11359 2999 00       		.byte	0
 11360 299a 07       		.uleb128 0x7
 11361 299b D50C0000 		.4byte	.LASF565
 11362 299f 25       		.byte	0x25
 11363 29a0 7601     		.2byte	0x176
 11364 29a2 76290000 		.4byte	0x2976
 11365 29a6 0F       		.uleb128 0xf
 11366 29a7 9A290000 		.4byte	0x299a
 11367 29ab 05       		.uleb128 0x5
 11368 29ac 04       		.byte	0x4
 11369 29ad 71290000 		.4byte	0x2971
 11370 29b1 05       		.uleb128 0x5
 11371 29b2 04       		.byte	0x4
 11372 29b3 A6290000 		.4byte	0x29a6
 11373 29b7 05       		.uleb128 0x5
 11374 29b8 04       		.byte	0x4
 11375 29b9 E6270000 		.4byte	0x27e6
ARM GAS  C:\Users\Moi\AppData\Local\Temp\ccAXdvuJ.s 			page 206


 11376 29bd 21       		.uleb128 0x21
 11377 29be FE030000 		.4byte	.LASF566
 11378 29c2 25       		.byte	0x25
 11379 29c3 B301     		.2byte	0x1b3
 11380 29c5 EB270000 		.4byte	0x27eb
 11381 29c9 2A       		.uleb128 0x2a
 11382 29ca 07       		.byte	0x7
 11383 29cb 01       		.byte	0x1
 11384 29cc 42000000 		.4byte	0x42
 11385 29d0 26       		.byte	0x26
 11386 29d1 3F       		.byte	0x3f
 11387 29d2 E9290000 		.4byte	0x29e9
 11388 29d6 2B       		.uleb128 0x2b
 11389 29d7 1F0A0000 		.4byte	.LASF567
 11390 29db 00       		.byte	0
 11391 29dc 2B       		.uleb128 0x2b
 11392 29dd DD250000 		.4byte	.LASF568
 11393 29e1 01       		.byte	0x1
 11394 29e2 2B       		.uleb128 0x2b
 11395 29e3 4C020000 		.4byte	.LASF569
 11396 29e7 02       		.byte	0x2
 11397 29e8 00       		.byte	0
 11398 29e9 02       		.uleb128 0x2
 11399 29ea 0F1B0000 		.4byte	.LASF570
 11400 29ee 26       		.byte	0x26
 11401 29ef 43       		.byte	0x43
 11402 29f0 C9290000 		.4byte	0x29c9
 11403 29f4 02       		.uleb128 0x2
 11404 29f5 C7080000 		.4byte	.LASF571
 11405 29f9 26       		.byte	0x26
 11406 29fa 48       		.byte	0x48
 11407 29fb FF290000 		.4byte	0x29ff
 11408 29ff 12       		.uleb128 0x12
 11409 2a00 C7080000 		.4byte	.LASF571
 11410 2a04 08       		.byte	0x8
 11411 2a05 27       		.byte	0x27
 11412 2a06 71       		.byte	0x71
 11413 2a07 242A0000 		.4byte	0x2a24
 11414 2a0b 0D       		.uleb128 0xd
 11415 2a0c 93150000 		.4byte	.LASF495
 11416 2a10 27       		.byte	0x27
 11417 2a11 75       		.byte	0x75
 11418 2a12 E9290000 		.4byte	0x29e9
 11419 2a16 00       		.byte	0
 11420 2a17 0D       		.uleb128 0xd
 11421 2a18 951B0000 		.4byte	.LASF496
 11422 2a1c 27       		.byte	0x27
 11423 2a1d 79       		.byte	0x79
 11424 2a1e B62A0000 		.4byte	0x2ab6
 11425 2a22 04       		.byte	0x4
 11426 2a23 00       		.byte	0
 11427 2a24 02       		.uleb128 0x2
 11428 2a25 2F240000 		.4byte	.LASF572
 11429 2a29 27       		.byte	0x27
 11430 2a2a 47       		.byte	0x47
 11431 2a2b AB010000 		.4byte	0x1ab
 11432 2a2f 02       		.uleb128 0x2
ARM GAS  C:\Users\Moi\AppData\Local\Temp\ccAXdvuJ.s 			page 207


 11433 2a30 8B1F0000 		.4byte	.LASF573
 11434 2a34 27       		.byte	0x27
 11435 2a35 4F       		.byte	0x4f
 11436 2a36 3A2A0000 		.4byte	0x2a3a
 11437 2a3a 05       		.uleb128 0x5
 11438 2a3b 04       		.byte	0x4
 11439 2a3c 402A0000 		.4byte	0x2a40
 11440 2a40 20       		.uleb128 0x20
 11441 2a41 502A0000 		.4byte	0x2a50
 11442 2a45 18       		.uleb128 0x18
 11443 2a46 502A0000 		.4byte	0x2a50
 11444 2a4a 18       		.uleb128 0x18
 11445 2a4b 242A0000 		.4byte	0x2a24
 11446 2a4f 00       		.byte	0
 11447 2a50 05       		.uleb128 0x5
 11448 2a51 04       		.byte	0x4
 11449 2a52 F4290000 		.4byte	0x29f4
 11450 2a56 0C       		.uleb128 0xc
 11451 2a57 08       		.byte	0x8
 11452 2a58 27       		.byte	0x27
 11453 2a59 54       		.byte	0x54
 11454 2a5a 762A0000 		.4byte	0x2a76
 11455 2a5e 0D       		.uleb128 0xd
 11456 2a5f AC080000 		.4byte	.LASF574
 11457 2a63 27       		.byte	0x27
 11458 2a64 58       		.byte	0x58
 11459 2a65 AB010000 		.4byte	0x1ab
 11460 2a69 00       		.byte	0
 11461 2a6a 13       		.uleb128 0x13
 11462 2a6b 636200   		.ascii	"cb\000"
 11463 2a6e 27       		.byte	0x27
 11464 2a6f 5F       		.byte	0x5f
 11465 2a70 2F2A0000 		.4byte	0x2a2f
 11466 2a74 04       		.byte	0x4
 11467 2a75 00       		.byte	0
 11468 2a76 02       		.uleb128 0x2
 11469 2a77 930E0000 		.4byte	.LASF575
 11470 2a7b 27       		.byte	0x27
 11471 2a7c 60       		.byte	0x60
 11472 2a7d 562A0000 		.4byte	0x2a56
 11473 2a81 0C       		.uleb128 0xc
 11474 2a82 B8       		.byte	0xb8
 11475 2a83 27       		.byte	0x27
 11476 2a84 66       		.byte	0x66
 11477 2a85 962A0000 		.4byte	0x2a96
 11478 2a89 0D       		.uleb128 0xd
 11479 2a8a 88210000 		.4byte	.LASF576
 11480 2a8e 27       		.byte	0x27
 11481 2a8f 6A       		.byte	0x6a
 11482 2a90 962A0000 		.4byte	0x2a96
 11483 2a94 00       		.byte	0
 11484 2a95 00       		.byte	0
 11485 2a96 0A       		.uleb128 0xa
 11486 2a97 762A0000 		.4byte	0x2a76
 11487 2a9b A62A0000 		.4byte	0x2aa6
 11488 2a9f 0B       		.uleb128 0xb
 11489 2aa0 B1000000 		.4byte	0xb1
ARM GAS  C:\Users\Moi\AppData\Local\Temp\ccAXdvuJ.s 			page 208


 11490 2aa4 16       		.byte	0x16
 11491 2aa5 00       		.byte	0
 11492 2aa6 02       		.uleb128 0x2
 11493 2aa7 A61E0000 		.4byte	.LASF577
 11494 2aab 27       		.byte	0x27
 11495 2aac 6C       		.byte	0x6c
 11496 2aad 812A0000 		.4byte	0x2a81
 11497 2ab1 0F       		.uleb128 0xf
 11498 2ab2 A62A0000 		.4byte	0x2aa6
 11499 2ab6 05       		.uleb128 0x5
 11500 2ab7 04       		.byte	0x4
 11501 2ab8 B12A0000 		.4byte	0x2ab1
 11502 2abc 11       		.uleb128 0x11
 11503 2abd 16060000 		.4byte	.LASF578
 11504 2ac1 27       		.byte	0x27
 11505 2ac2 86       		.byte	0x86
 11506 2ac3 F4290000 		.4byte	0x29f4
 11507 2ac7 2A       		.uleb128 0x2a
 11508 2ac8 07       		.byte	0x7
 11509 2ac9 01       		.byte	0x1
 11510 2aca 42000000 		.4byte	0x42
 11511 2ace 28       		.byte	0x28
 11512 2acf 31       		.byte	0x31
 11513 2ad0 F32A0000 		.4byte	0x2af3
 11514 2ad4 2B       		.uleb128 0x2b
 11515 2ad5 34160000 		.4byte	.LASF579
 11516 2ad9 00       		.byte	0
 11517 2ada 2B       		.uleb128 0x2b
 11518 2adb 16140000 		.4byte	.LASF580
 11519 2adf 01       		.byte	0x1
 11520 2ae0 2B       		.uleb128 0x2b
 11521 2ae1 C3180000 		.4byte	.LASF581
 11522 2ae5 02       		.byte	0x2
 11523 2ae6 2B       		.uleb128 0x2b
 11524 2ae7 DF070000 		.4byte	.LASF582
 11525 2aeb 03       		.byte	0x3
 11526 2aec 2B       		.uleb128 0x2b
 11527 2aed 8C040000 		.4byte	.LASF583
 11528 2af1 04       		.byte	0x4
 11529 2af2 00       		.byte	0
 11530 2af3 02       		.uleb128 0x2
 11531 2af4 F7120000 		.4byte	.LASF584
 11532 2af8 28       		.byte	0x28
 11533 2af9 37       		.byte	0x37
 11534 2afa C72A0000 		.4byte	0x2ac7
 11535 2afe 02       		.uleb128 0x2
 11536 2aff 35170000 		.4byte	.LASF585
 11537 2b03 28       		.byte	0x28
 11538 2b04 3C       		.byte	0x3c
 11539 2b05 092B0000 		.4byte	0x2b09
 11540 2b09 1C       		.uleb128 0x1c
 11541 2b0a 35170000 		.4byte	.LASF585
 11542 2b0e 10       		.byte	0x10
 11543 2b0f 29       		.byte	0x29
 11544 2b10 9701     		.2byte	0x197
 11545 2b12 4B2B0000 		.4byte	0x2b4b
 11546 2b16 1A       		.uleb128 0x1a
ARM GAS  C:\Users\Moi\AppData\Local\Temp\ccAXdvuJ.s 			page 209


 11547 2b17 93150000 		.4byte	.LASF495
 11548 2b1b 29       		.byte	0x29
 11549 2b1c 9B01     		.2byte	0x19b
 11550 2b1e F32A0000 		.4byte	0x2af3
 11551 2b22 00       		.byte	0
 11552 2b23 1A       		.uleb128 0x1a
 11553 2b24 951B0000 		.4byte	.LASF496
 11554 2b28 29       		.byte	0x29
 11555 2b29 9F01     		.2byte	0x19f
 11556 2b2b E02C0000 		.4byte	0x2ce0
 11557 2b2f 04       		.byte	0x4
 11558 2b30 1A       		.uleb128 0x1a
 11559 2b31 E90C0000 		.4byte	.LASF586
 11560 2b35 29       		.byte	0x29
 11561 2b36 A701     		.2byte	0x1a7
 11562 2b38 AB010000 		.4byte	0x1ab
 11563 2b3c 08       		.byte	0x8
 11564 2b3d 25       		.uleb128 0x25
 11565 2b3e 74696D00 		.ascii	"tim\000"
 11566 2b42 29       		.byte	0x29
 11567 2b43 AB01     		.2byte	0x1ab
 11568 2b45 E62C0000 		.4byte	0x2ce6
 11569 2b49 0C       		.byte	0xc
 11570 2b4a 00       		.byte	0
 11571 2b4b 02       		.uleb128 0x2
 11572 2b4c 35110000 		.4byte	.LASF587
 11573 2b50 28       		.byte	0x28
 11574 2b51 43       		.byte	0x43
 11575 2b52 562B0000 		.4byte	0x2b56
 11576 2b56 05       		.uleb128 0x5
 11577 2b57 04       		.byte	0x4
 11578 2b58 5C2B0000 		.4byte	0x2b5c
 11579 2b5c 20       		.uleb128 0x20
 11580 2b5d 672B0000 		.4byte	0x2b67
 11581 2b61 18       		.uleb128 0x18
 11582 2b62 672B0000 		.4byte	0x2b67
 11583 2b66 00       		.byte	0
 11584 2b67 05       		.uleb128 0x5
 11585 2b68 04       		.byte	0x4
 11586 2b69 FE2A0000 		.4byte	0x2afe
 11587 2b6d 1D       		.uleb128 0x1d
 11588 2b6e 60       		.byte	0x60
 11589 2b6f 2A       		.byte	0x2a
 11590 2b70 9E01     		.2byte	0x19e
 11591 2b72 792C0000 		.4byte	0x2c79
 11592 2b76 25       		.uleb128 0x25
 11593 2b77 43523100 		.ascii	"CR1\000"
 11594 2b7b 2A       		.byte	0x2a
 11595 2b7c 9F01     		.2byte	0x19f
 11596 2b7e B6010000 		.4byte	0x1b6
 11597 2b82 00       		.byte	0
 11598 2b83 25       		.uleb128 0x25
 11599 2b84 43523200 		.ascii	"CR2\000"
 11600 2b88 2A       		.byte	0x2a
 11601 2b89 A001     		.2byte	0x1a0
 11602 2b8b B6010000 		.4byte	0x1b6
 11603 2b8f 04       		.byte	0x4
ARM GAS  C:\Users\Moi\AppData\Local\Temp\ccAXdvuJ.s 			page 210


 11604 2b90 1A       		.uleb128 0x1a
 11605 2b91 C0200000 		.4byte	.LASF588
 11606 2b95 2A       		.byte	0x2a
 11607 2b96 A101     		.2byte	0x1a1
 11608 2b98 B6010000 		.4byte	0x1b6
 11609 2b9c 08       		.byte	0x8
 11610 2b9d 1A       		.uleb128 0x1a
 11611 2b9e 660A0000 		.4byte	.LASF589
 11612 2ba2 2A       		.byte	0x2a
 11613 2ba3 A201     		.2byte	0x1a2
 11614 2ba5 B6010000 		.4byte	0x1b6
 11615 2ba9 0C       		.byte	0xc
 11616 2baa 25       		.uleb128 0x25
 11617 2bab 535200   		.ascii	"SR\000"
 11618 2bae 2A       		.byte	0x2a
 11619 2baf A301     		.2byte	0x1a3
 11620 2bb1 B6010000 		.4byte	0x1b6
 11621 2bb5 10       		.byte	0x10
 11622 2bb6 25       		.uleb128 0x25
 11623 2bb7 45475200 		.ascii	"EGR\000"
 11624 2bbb 2A       		.byte	0x2a
 11625 2bbc A401     		.2byte	0x1a4
 11626 2bbe B6010000 		.4byte	0x1b6
 11627 2bc2 14       		.byte	0x14
 11628 2bc3 1A       		.uleb128 0x1a
 11629 2bc4 C4240000 		.4byte	.LASF590
 11630 2bc8 2A       		.byte	0x2a
 11631 2bc9 A501     		.2byte	0x1a5
 11632 2bcb B6010000 		.4byte	0x1b6
 11633 2bcf 18       		.byte	0x18
 11634 2bd0 1A       		.uleb128 0x1a
 11635 2bd1 CA240000 		.4byte	.LASF591
 11636 2bd5 2A       		.byte	0x2a
 11637 2bd6 A601     		.2byte	0x1a6
 11638 2bd8 B6010000 		.4byte	0x1b6
 11639 2bdc 1C       		.byte	0x1c
 11640 2bdd 1A       		.uleb128 0x1a
 11641 2bde 67070000 		.4byte	.LASF592
 11642 2be2 2A       		.byte	0x2a
 11643 2be3 A701     		.2byte	0x1a7
 11644 2be5 B6010000 		.4byte	0x1b6
 11645 2be9 20       		.byte	0x20
 11646 2bea 25       		.uleb128 0x25
 11647 2beb 434E5400 		.ascii	"CNT\000"
 11648 2bef 2A       		.byte	0x2a
 11649 2bf0 A801     		.2byte	0x1a8
 11650 2bf2 B6010000 		.4byte	0x1b6
 11651 2bf6 24       		.byte	0x24
 11652 2bf7 25       		.uleb128 0x25
 11653 2bf8 50534300 		.ascii	"PSC\000"
 11654 2bfc 2A       		.byte	0x2a
 11655 2bfd A901     		.2byte	0x1a9
 11656 2bff B6010000 		.4byte	0x1b6
 11657 2c03 28       		.byte	0x28
 11658 2c04 25       		.uleb128 0x25
 11659 2c05 41525200 		.ascii	"ARR\000"
 11660 2c09 2A       		.byte	0x2a
ARM GAS  C:\Users\Moi\AppData\Local\Temp\ccAXdvuJ.s 			page 211


 11661 2c0a AA01     		.2byte	0x1aa
 11662 2c0c B6010000 		.4byte	0x1b6
 11663 2c10 2C       		.byte	0x2c
 11664 2c11 25       		.uleb128 0x25
 11665 2c12 52435200 		.ascii	"RCR\000"
 11666 2c16 2A       		.byte	0x2a
 11667 2c17 AB01     		.2byte	0x1ab
 11668 2c19 B6010000 		.4byte	0x1b6
 11669 2c1d 30       		.byte	0x30
 11670 2c1e 25       		.uleb128 0x25
 11671 2c1f 43435200 		.ascii	"CCR\000"
 11672 2c23 2A       		.byte	0x2a
 11673 2c24 AC01     		.2byte	0x1ac
 11674 2c26 56160000 		.4byte	0x1656
 11675 2c2a 34       		.byte	0x34
 11676 2c2b 1A       		.uleb128 0x1a
 11677 2c2c 09020000 		.4byte	.LASF593
 11678 2c30 2A       		.byte	0x2a
 11679 2c31 AD01     		.2byte	0x1ad
 11680 2c33 B6010000 		.4byte	0x1b6
 11681 2c37 44       		.byte	0x44
 11682 2c38 25       		.uleb128 0x25
 11683 2c39 44435200 		.ascii	"DCR\000"
 11684 2c3d 2A       		.byte	0x2a
 11685 2c3e AE01     		.2byte	0x1ae
 11686 2c40 B6010000 		.4byte	0x1b6
 11687 2c44 48       		.byte	0x48
 11688 2c45 1A       		.uleb128 0x1a
 11689 2c46 E2150000 		.4byte	.LASF594
 11690 2c4a 2A       		.byte	0x2a
 11691 2c4b AF01     		.2byte	0x1af
 11692 2c4d B6010000 		.4byte	0x1b6
 11693 2c51 4C       		.byte	0x4c
 11694 2c52 25       		.uleb128 0x25
 11695 2c53 4F5200   		.ascii	"OR\000"
 11696 2c56 2A       		.byte	0x2a
 11697 2c57 B001     		.2byte	0x1b0
 11698 2c59 B6010000 		.4byte	0x1b6
 11699 2c5d 50       		.byte	0x50
 11700 2c5e 1A       		.uleb128 0x1a
 11701 2c5f D0240000 		.4byte	.LASF595
 11702 2c63 2A       		.byte	0x2a
 11703 2c64 B101     		.2byte	0x1b1
 11704 2c66 B6010000 		.4byte	0x1b6
 11705 2c6a 54       		.byte	0x54
 11706 2c6b 1A       		.uleb128 0x1a
 11707 2c6c F50C0000 		.4byte	.LASF596
 11708 2c70 2A       		.byte	0x2a
 11709 2c71 B201     		.2byte	0x1b2
 11710 2c73 41160000 		.4byte	0x1641
 11711 2c77 58       		.byte	0x58
 11712 2c78 00       		.byte	0
 11713 2c79 07       		.uleb128 0x7
 11714 2c7a F01F0000 		.4byte	.LASF597
 11715 2c7e 2A       		.byte	0x2a
 11716 2c7f B301     		.2byte	0x1b3
 11717 2c81 6D2B0000 		.4byte	0x2b6d
ARM GAS  C:\Users\Moi\AppData\Local\Temp\ccAXdvuJ.s 			page 212


 11718 2c85 07       		.uleb128 0x7
 11719 2c86 03090000 		.4byte	.LASF598
 11720 2c8a 29       		.byte	0x29
 11721 2c8b 6D01     		.2byte	0x16d
 11722 2c8d AB010000 		.4byte	0x1ab
 11723 2c91 1D       		.uleb128 0x1d
 11724 2c92 10       		.byte	0x10
 11725 2c93 29       		.byte	0x29
 11726 2c94 7801     		.2byte	0x178
 11727 2c96 CF2C0000 		.4byte	0x2ccf
 11728 2c9a 1A       		.uleb128 0x1a
 11729 2c9b 5C240000 		.4byte	.LASF599
 11730 2c9f 29       		.byte	0x29
 11731 2ca0 7E01     		.2byte	0x17e
 11732 2ca2 852C0000 		.4byte	0x2c85
 11733 2ca6 00       		.byte	0
 11734 2ca7 1A       		.uleb128 0x1a
 11735 2ca8 E7150000 		.4byte	.LASF600
 11736 2cac 29       		.byte	0x29
 11737 2cad 8501     		.2byte	0x185
 11738 2caf 4B2B0000 		.4byte	0x2b4b
 11739 2cb3 04       		.byte	0x4
 11740 2cb4 25       		.uleb128 0x25
 11741 2cb5 63723200 		.ascii	"cr2\000"
 11742 2cb9 29       		.byte	0x29
 11743 2cba 8B01     		.2byte	0x18b
 11744 2cbc AB010000 		.4byte	0x1ab
 11745 2cc0 08       		.byte	0x8
 11746 2cc1 1A       		.uleb128 0x1a
 11747 2cc2 4D0C0000 		.4byte	.LASF601
 11748 2cc6 29       		.byte	0x29
 11749 2cc7 9101     		.2byte	0x191
 11750 2cc9 AB010000 		.4byte	0x1ab
 11751 2ccd 0C       		.byte	0xc
 11752 2cce 00       		.byte	0
 11753 2ccf 07       		.uleb128 0x7
 11754 2cd0 A5060000 		.4byte	.LASF602
 11755 2cd4 29       		.byte	0x29
 11756 2cd5 9201     		.2byte	0x192
 11757 2cd7 912C0000 		.4byte	0x2c91
 11758 2cdb 0F       		.uleb128 0xf
 11759 2cdc CF2C0000 		.4byte	0x2ccf
 11760 2ce0 05       		.uleb128 0x5
 11761 2ce1 04       		.byte	0x4
 11762 2ce2 DB2C0000 		.4byte	0x2cdb
 11763 2ce6 05       		.uleb128 0x5
 11764 2ce7 04       		.byte	0x4
 11765 2ce8 792C0000 		.4byte	0x2c79
 11766 2cec 21       		.uleb128 0x21
 11767 2ced CC230000 		.4byte	.LASF603
 11768 2cf1 29       		.byte	0x29
 11769 2cf2 F201     		.2byte	0x1f2
 11770 2cf4 FE2A0000 		.4byte	0x2afe
 11771 2cf8 21       		.uleb128 0x21
 11772 2cf9 9C1B0000 		.4byte	.LASF604
 11773 2cfd 29       		.byte	0x29
 11774 2cfe 0202     		.2byte	0x202
ARM GAS  C:\Users\Moi\AppData\Local\Temp\ccAXdvuJ.s 			page 213


 11775 2d00 FE2A0000 		.4byte	0x2afe
 11776 2d04 2A       		.uleb128 0x2a
 11777 2d05 07       		.byte	0x7
 11778 2d06 01       		.byte	0x1
 11779 2d07 42000000 		.4byte	0x42
 11780 2d0b 2B       		.byte	0x2b
 11781 2d0c 4C       		.byte	0x4c
 11782 2d0d 362D0000 		.4byte	0x2d36
 11783 2d11 2B       		.uleb128 0x2b
 11784 2d12 7D060000 		.4byte	.LASF605
 11785 2d16 00       		.byte	0
 11786 2d17 2B       		.uleb128 0x2b
 11787 2d18 4C0E0000 		.4byte	.LASF606
 11788 2d1c 01       		.byte	0x1
 11789 2d1d 2B       		.uleb128 0x2b
 11790 2d1e 49070000 		.4byte	.LASF607
 11791 2d22 02       		.byte	0x2
 11792 2d23 2B       		.uleb128 0x2b
 11793 2d24 BB040000 		.4byte	.LASF608
 11794 2d28 03       		.byte	0x3
 11795 2d29 2B       		.uleb128 0x2b
 11796 2d2a 82030000 		.4byte	.LASF609
 11797 2d2e 04       		.byte	0x4
 11798 2d2f 2B       		.uleb128 0x2b
 11799 2d30 C1120000 		.4byte	.LASF610
 11800 2d34 05       		.byte	0x5
 11801 2d35 00       		.byte	0
 11802 2d36 02       		.uleb128 0x2
 11803 2d37 F2100000 		.4byte	.LASF611
 11804 2d3b 2B       		.byte	0x2b
 11805 2d3c 53       		.byte	0x53
 11806 2d3d 042D0000 		.4byte	0x2d04
 11807 2d41 07       		.uleb128 0x7
 11808 2d42 12170000 		.4byte	.LASF612
 11809 2d46 2C       		.byte	0x2c
 11810 2d47 6A01     		.2byte	0x16a
 11811 2d49 90010000 		.4byte	0x190
 11812 2d4d 07       		.uleb128 0x7
 11813 2d4e 20040000 		.4byte	.LASF613
 11814 2d52 2C       		.byte	0x2c
 11815 2d53 6F01     		.2byte	0x16f
 11816 2d55 AB010000 		.4byte	0x1ab
 11817 2d59 2C       		.uleb128 0x2c
 11818 2d5a 07       		.byte	0x7
 11819 2d5b 01       		.byte	0x1
 11820 2d5c 42000000 		.4byte	0x42
 11821 2d60 2C       		.byte	0x2c
 11822 2d61 7401     		.2byte	0x174
 11823 2d63 7A2D0000 		.4byte	0x2d7a
 11824 2d67 2B       		.uleb128 0x2b
 11825 2d68 CE040000 		.4byte	.LASF614
 11826 2d6c 01       		.byte	0x1
 11827 2d6d 2B       		.uleb128 0x2b
 11828 2d6e 8C000000 		.4byte	.LASF615
 11829 2d72 02       		.byte	0x2
 11830 2d73 2B       		.uleb128 0x2b
 11831 2d74 D5090000 		.4byte	.LASF616
ARM GAS  C:\Users\Moi\AppData\Local\Temp\ccAXdvuJ.s 			page 214


 11832 2d78 03       		.byte	0x3
 11833 2d79 00       		.byte	0
 11834 2d7a 07       		.uleb128 0x7
 11835 2d7b 22250000 		.4byte	.LASF617
 11836 2d7f 2C       		.byte	0x2c
 11837 2d80 7801     		.2byte	0x178
 11838 2d82 592D0000 		.4byte	0x2d59
 11839 2d86 2C       		.uleb128 0x2c
 11840 2d87 07       		.byte	0x7
 11841 2d88 01       		.byte	0x1
 11842 2d89 42000000 		.4byte	0x42
 11843 2d8d 2C       		.byte	0x2c
 11844 2d8e 7D01     		.2byte	0x17d
 11845 2d90 A72D0000 		.4byte	0x2da7
 11846 2d94 2B       		.uleb128 0x2b
 11847 2d95 EA050000 		.4byte	.LASF618
 11848 2d99 01       		.byte	0x1
 11849 2d9a 2B       		.uleb128 0x2b
 11850 2d9b 99240000 		.4byte	.LASF619
 11851 2d9f 02       		.byte	0x2
 11852 2da0 2B       		.uleb128 0x2b
 11853 2da1 CA0A0000 		.4byte	.LASF620
 11854 2da5 03       		.byte	0x3
 11855 2da6 00       		.byte	0
 11856 2da7 07       		.uleb128 0x7
 11857 2da8 F8060000 		.4byte	.LASF621
 11858 2dac 2C       		.byte	0x2c
 11859 2dad 8101     		.2byte	0x181
 11860 2daf 862D0000 		.4byte	0x2d86
 11861 2db3 1D       		.uleb128 0x1d
 11862 2db4 0C       		.byte	0xc
 11863 2db5 2C       		.byte	0x2c
 11864 2db6 8601     		.2byte	0x186
 11865 2db8 E42D0000 		.4byte	0x2de4
 11866 2dbc 1A       		.uleb128 0x1a
 11867 2dbd 46140000 		.4byte	.LASF622
 11868 2dc1 2C       		.byte	0x2c
 11869 2dc2 8801     		.2byte	0x188
 11870 2dc4 7A2D0000 		.4byte	0x2d7a
 11871 2dc8 00       		.byte	0
 11872 2dc9 1A       		.uleb128 0x1a
 11873 2dca E8030000 		.4byte	.LASF623
 11874 2dce 2C       		.byte	0x2c
 11875 2dcf 8901     		.2byte	0x189
 11876 2dd1 AB010000 		.4byte	0x1ab
 11877 2dd5 04       		.byte	0x4
 11878 2dd6 1A       		.uleb128 0x1a
 11879 2dd7 AE250000 		.4byte	.LASF624
 11880 2ddb 2C       		.byte	0x2c
 11881 2ddc 8C01     		.2byte	0x18c
 11882 2dde A72D0000 		.4byte	0x2da7
 11883 2de2 08       		.byte	0x8
 11884 2de3 00       		.byte	0
 11885 2de4 07       		.uleb128 0x7
 11886 2de5 1F020000 		.4byte	.LASF625
 11887 2de9 2C       		.byte	0x2c
 11888 2dea 8E01     		.2byte	0x18e
ARM GAS  C:\Users\Moi\AppData\Local\Temp\ccAXdvuJ.s 			page 215


 11889 2dec B32D0000 		.4byte	0x2db3
 11890 2df0 0F       		.uleb128 0xf
 11891 2df1 E42D0000 		.4byte	0x2de4
 11892 2df5 07       		.uleb128 0x7
 11893 2df6 B1040000 		.4byte	.LASF626
 11894 2dfa 2C       		.byte	0x2c
 11895 2dfb 9301     		.2byte	0x193
 11896 2dfd 012E0000 		.4byte	0x2e01
 11897 2e01 1C       		.uleb128 0x1c
 11898 2e02 B1040000 		.4byte	.LASF626
 11899 2e06 3C       		.byte	0x3c
 11900 2e07 2C       		.byte	0x2c
 11901 2e08 9801     		.2byte	0x198
 11902 2e0a 9E2E0000 		.4byte	0x2e9e
 11903 2e0e 1A       		.uleb128 0x1a
 11904 2e0f 93150000 		.4byte	.LASF495
 11905 2e13 2C       		.byte	0x2c
 11906 2e14 9C01     		.2byte	0x19c
 11907 2e16 362D0000 		.4byte	0x2d36
 11908 2e1a 00       		.byte	0
 11909 2e1b 1A       		.uleb128 0x1a
 11910 2e1c 951B0000 		.4byte	.LASF496
 11911 2e20 2C       		.byte	0x2c
 11912 2e21 A001     		.2byte	0x1a0
 11913 2e23 9E2E0000 		.4byte	0x2e9e
 11914 2e27 04       		.byte	0x4
 11915 2e28 1A       		.uleb128 0x1a
 11916 2e29 8B010000 		.4byte	.LASF627
 11917 2e2d 2C       		.byte	0x2c
 11918 2e2e A401     		.2byte	0x1a4
 11919 2e30 4D2D0000 		.4byte	0x2d4d
 11920 2e34 08       		.byte	0x8
 11921 2e35 1A       		.uleb128 0x1a
 11922 2e36 B40C0000 		.4byte	.LASF501
 11923 2e3a 2C       		.byte	0x2c
 11924 2e3b A901     		.2byte	0x1a9
 11925 2e3d E81D0000 		.4byte	0x1de8
 11926 2e41 0C       		.byte	0xc
 11927 2e42 1A       		.uleb128 0x1a
 11928 2e43 17070000 		.4byte	.LASF500
 11929 2e47 2C       		.byte	0x2c
 11930 2e48 B201     		.2byte	0x1b2
 11931 2e4a 8A0E0000 		.4byte	0xe8a
 11932 2e4e 20       		.byte	0x20
 11933 2e4f 1A       		.uleb128 0x1a
 11934 2e50 550E0000 		.4byte	.LASF628
 11935 2e54 2C       		.byte	0x2c
 11936 2e55 B601     		.2byte	0x1b6
 11937 2e57 412D0000 		.4byte	0x2d41
 11938 2e5b 24       		.byte	0x24
 11939 2e5c 1A       		.uleb128 0x1a
 11940 2e5d 98080000 		.4byte	.LASF629
 11941 2e61 2C       		.byte	0x2c
 11942 2e62 BA01     		.2byte	0x1ba
 11943 2e64 AB010000 		.4byte	0x1ab
 11944 2e68 28       		.byte	0x28
 11945 2e69 1A       		.uleb128 0x1a
ARM GAS  C:\Users\Moi\AppData\Local\Temp\ccAXdvuJ.s 			page 216


 11946 2e6a F1080000 		.4byte	.LASF630
 11947 2e6e 2C       		.byte	0x2c
 11948 2e6f BE01     		.2byte	0x1be
 11949 2e71 AB010000 		.4byte	0x1ab
 11950 2e75 2C       		.byte	0x2c
 11951 2e76 1A       		.uleb128 0x1a
 11952 2e77 38010000 		.4byte	.LASF631
 11953 2e7b 2C       		.byte	0x2c
 11954 2e7c C201     		.2byte	0x1c2
 11955 2e7e E0250000 		.4byte	0x25e0
 11956 2e82 30       		.byte	0x30
 11957 2e83 1A       		.uleb128 0x1a
 11958 2e84 32020000 		.4byte	.LASF632
 11959 2e88 2C       		.byte	0x2c
 11960 2e89 C601     		.2byte	0x1c6
 11961 2e8b E0250000 		.4byte	0x25e0
 11962 2e8f 34       		.byte	0x34
 11963 2e90 25       		.uleb128 0x25
 11964 2e91 69326300 		.ascii	"i2c\000"
 11965 2e95 2C       		.byte	0x2c
 11966 2e96 CA01     		.2byte	0x1ca
 11967 2e98 A42E0000 		.4byte	0x2ea4
 11968 2e9c 38       		.byte	0x38
 11969 2e9d 00       		.byte	0
 11970 2e9e 05       		.uleb128 0x5
 11971 2e9f 04       		.byte	0x4
 11972 2ea0 F02D0000 		.4byte	0x2df0
 11973 2ea4 05       		.uleb128 0x5
 11974 2ea5 04       		.byte	0x4
 11975 2ea6 E6160000 		.4byte	0x16e6
 11976 2eaa 21       		.uleb128 0x21
 11977 2eab 53110000 		.4byte	.LASF633
 11978 2eaf 2C       		.byte	0x2c
 11979 2eb0 E001     		.2byte	0x1e0
 11980 2eb2 F52D0000 		.4byte	0x2df5
 11981 2eb6 2A       		.uleb128 0x2a
 11982 2eb7 07       		.byte	0x7
 11983 2eb8 01       		.byte	0x1
 11984 2eb9 42000000 		.4byte	0x42
 11985 2ebd 2D       		.byte	0x2d
 11986 2ebe 39       		.byte	0x39
 11987 2ebf E22E0000 		.4byte	0x2ee2
 11988 2ec3 2B       		.uleb128 0x2b
 11989 2ec4 050A0000 		.4byte	.LASF634
 11990 2ec8 00       		.byte	0
 11991 2ec9 2B       		.uleb128 0x2b
 11992 2eca 930C0000 		.4byte	.LASF635
 11993 2ece 01       		.byte	0x1
 11994 2ecf 2B       		.uleb128 0x2b
 11995 2ed0 7C140000 		.4byte	.LASF636
 11996 2ed4 02       		.byte	0x2
 11997 2ed5 2B       		.uleb128 0x2b
 11998 2ed6 B8180000 		.4byte	.LASF637
 11999 2eda 03       		.byte	0x3
 12000 2edb 2B       		.uleb128 0x2b
 12001 2edc 171F0000 		.4byte	.LASF638
 12002 2ee0 04       		.byte	0x4
ARM GAS  C:\Users\Moi\AppData\Local\Temp\ccAXdvuJ.s 			page 217


 12003 2ee1 00       		.byte	0
 12004 2ee2 02       		.uleb128 0x2
 12005 2ee3 34220000 		.4byte	.LASF639
 12006 2ee7 2D       		.byte	0x2d
 12007 2ee8 3F       		.byte	0x3f
 12008 2ee9 B62E0000 		.4byte	0x2eb6
 12009 2eed 02       		.uleb128 0x2
 12010 2eee A4250000 		.4byte	.LASF640
 12011 2ef2 2E       		.byte	0x2e
 12012 2ef3 E2       		.byte	0xe2
 12013 2ef4 F82E0000 		.4byte	0x2ef8
 12014 2ef8 1C       		.uleb128 0x1c
 12015 2ef9 A4250000 		.4byte	.LASF640
 12016 2efd 20       		.byte	0x20
 12017 2efe 2E       		.byte	0x2e
 12018 2eff 1B01     		.2byte	0x11b
 12019 2f01 6E2F0000 		.4byte	0x2f6e
 12020 2f05 1A       		.uleb128 0x1a
 12021 2f06 93150000 		.4byte	.LASF495
 12022 2f0a 2E       		.byte	0x2e
 12023 2f0b 1F01     		.2byte	0x11f
 12024 2f0d E22E0000 		.4byte	0x2ee2
 12025 2f11 00       		.byte	0
 12026 2f12 1A       		.uleb128 0x1a
 12027 2f13 951B0000 		.4byte	.LASF496
 12028 2f17 2E       		.byte	0x2e
 12029 2f18 2301     		.2byte	0x123
 12030 2f1a FF2F0000 		.4byte	0x2fff
 12031 2f1e 04       		.byte	0x4
 12032 2f1f 25       		.uleb128 0x25
 12033 2f20 73706900 		.ascii	"spi\000"
 12034 2f24 2E       		.byte	0x2e
 12035 2f25 2801     		.2byte	0x128
 12036 2f27 05300000 		.4byte	0x3005
 12037 2f2b 08       		.byte	0x8
 12038 2f2c 25       		.uleb128 0x25
 12039 2f2d 63666700 		.ascii	"cfg\000"
 12040 2f31 2E       		.byte	0x2e
 12041 2f32 2C01     		.2byte	0x12c
 12042 2f34 90010000 		.4byte	0x190
 12043 2f38 0C       		.byte	0xc
 12044 2f39 1A       		.uleb128 0x1a
 12045 2f3a 38010000 		.4byte	.LASF631
 12046 2f3e 2E       		.byte	0x2e
 12047 2f3f 3001     		.2byte	0x130
 12048 2f41 E0250000 		.4byte	0x25e0
 12049 2f45 10       		.byte	0x10
 12050 2f46 1A       		.uleb128 0x1a
 12051 2f47 32020000 		.4byte	.LASF632
 12052 2f4b 2E       		.byte	0x2e
 12053 2f4c 3401     		.2byte	0x134
 12054 2f4e E0250000 		.4byte	0x25e0
 12055 2f52 14       		.byte	0x14
 12056 2f53 1A       		.uleb128 0x1a
 12057 2f54 98080000 		.4byte	.LASF629
 12058 2f58 2E       		.byte	0x2e
 12059 2f59 3801     		.2byte	0x138
ARM GAS  C:\Users\Moi\AppData\Local\Temp\ccAXdvuJ.s 			page 218


 12060 2f5b AB010000 		.4byte	0x1ab
 12061 2f5f 18       		.byte	0x18
 12062 2f60 1A       		.uleb128 0x1a
 12063 2f61 F1080000 		.4byte	.LASF630
 12064 2f65 2E       		.byte	0x2e
 12065 2f66 3C01     		.2byte	0x13c
 12066 2f68 AB010000 		.4byte	0x1ab
 12067 2f6c 1C       		.byte	0x1c
 12068 2f6d 00       		.byte	0
 12069 2f6e 02       		.uleb128 0x2
 12070 2f6f DD080000 		.4byte	.LASF641
 12071 2f73 2E       		.byte	0x2e
 12072 2f74 EB       		.byte	0xeb
 12073 2f75 792F0000 		.4byte	0x2f79
 12074 2f79 05       		.uleb128 0x5
 12075 2f7a 04       		.byte	0x4
 12076 2f7b 7F2F0000 		.4byte	0x2f7f
 12077 2f7f 20       		.uleb128 0x20
 12078 2f80 942F0000 		.4byte	0x2f94
 12079 2f84 18       		.uleb128 0x18
 12080 2f85 942F0000 		.4byte	0x2f94
 12081 2f89 18       		.uleb128 0x18
 12082 2f8a B8000000 		.4byte	0xb8
 12083 2f8e 18       		.uleb128 0x18
 12084 2f8f B8000000 		.4byte	0xb8
 12085 2f93 00       		.byte	0
 12086 2f94 05       		.uleb128 0x5
 12087 2f95 04       		.byte	0x4
 12088 2f96 ED2E0000 		.4byte	0x2eed
 12089 2f9a 0C       		.uleb128 0xc
 12090 2f9b 14       		.byte	0x14
 12091 2f9c 2E       		.byte	0x2e
 12092 2f9d F1       		.byte	0xf1
 12093 2f9e EE2F0000 		.4byte	0x2fee
 12094 2fa2 0D       		.uleb128 0xd
 12095 2fa3 AD010000 		.4byte	.LASF642
 12096 2fa7 2E       		.byte	0x2e
 12097 2fa8 F6       		.byte	0xf6
 12098 2fa9 EF0A0000 		.4byte	0xaef
 12099 2fad 00       		.byte	0
 12100 2fae 0D       		.uleb128 0xd
 12101 2faf 81010000 		.4byte	.LASF643
 12102 2fb3 2E       		.byte	0x2e
 12103 2fb4 FB       		.byte	0xfb
 12104 2fb5 68010000 		.4byte	0x168
 12105 2fb9 04       		.byte	0x4
 12106 2fba 0D       		.uleb128 0xd
 12107 2fbb BA0C0000 		.4byte	.LASF644
 12108 2fbf 2E       		.byte	0x2e
 12109 2fc0 FF       		.byte	0xff
 12110 2fc1 B8000000 		.4byte	0xb8
 12111 2fc5 08       		.byte	0x8
 12112 2fc6 1A       		.uleb128 0x1a
 12113 2fc7 7B090000 		.4byte	.LASF508
 12114 2fcb 2E       		.byte	0x2e
 12115 2fcc 0301     		.2byte	0x103
 12116 2fce 6E2F0000 		.4byte	0x2f6e
ARM GAS  C:\Users\Moi\AppData\Local\Temp\ccAXdvuJ.s 			page 219


 12117 2fd2 0C       		.byte	0xc
 12118 2fd3 1A       		.uleb128 0x1a
 12119 2fd4 11190000 		.4byte	.LASF645
 12120 2fd8 2E       		.byte	0x2e
 12121 2fd9 0F01     		.2byte	0x10f
 12122 2fdb 85010000 		.4byte	0x185
 12123 2fdf 10       		.byte	0x10
 12124 2fe0 1A       		.uleb128 0x1a
 12125 2fe1 DB060000 		.4byte	.LASF646
 12126 2fe5 2E       		.byte	0x2e
 12127 2fe6 1501     		.2byte	0x115
 12128 2fe8 85010000 		.4byte	0x185
 12129 2fec 12       		.byte	0x12
 12130 2fed 00       		.byte	0
 12131 2fee 07       		.uleb128 0x7
 12132 2fef B9250000 		.4byte	.LASF647
 12133 2ff3 2E       		.byte	0x2e
 12134 2ff4 1601     		.2byte	0x116
 12135 2ff6 9A2F0000 		.4byte	0x2f9a
 12136 2ffa 0F       		.uleb128 0xf
 12137 2ffb EE2F0000 		.4byte	0x2fee
 12138 2fff 05       		.uleb128 0x5
 12139 3000 04       		.byte	0x4
 12140 3001 FA2F0000 		.4byte	0x2ffa
 12141 3005 05       		.uleb128 0x5
 12142 3006 04       		.byte	0x4
 12143 3007 99180000 		.4byte	0x1899
 12144 300b 21       		.uleb128 0x21
 12145 300c E2100000 		.4byte	.LASF648
 12146 3010 2E       		.byte	0x2e
 12147 3011 4801     		.2byte	0x148
 12148 3013 ED2E0000 		.4byte	0x2eed
 12149 3017 2A       		.uleb128 0x2a
 12150 3018 07       		.byte	0x7
 12151 3019 01       		.byte	0x1
 12152 301a 42000000 		.4byte	0x42
 12153 301e 2F       		.byte	0x2f
 12154 301f 4A       		.byte	0x4a
 12155 3020 37300000 		.4byte	0x3037
 12156 3024 2B       		.uleb128 0x2b
 12157 3025 72070000 		.4byte	.LASF649
 12158 3029 00       		.byte	0
 12159 302a 2B       		.uleb128 0x2b
 12160 302b 9C0C0000 		.4byte	.LASF650
 12161 302f 01       		.byte	0x1
 12162 3030 2B       		.uleb128 0x2b
 12163 3031 12100000 		.4byte	.LASF651
 12164 3035 02       		.byte	0x2
 12165 3036 00       		.byte	0
 12166 3037 02       		.uleb128 0x2
 12167 3038 A3030000 		.4byte	.LASF652
 12168 303c 2F       		.byte	0x2f
 12169 303d 4E       		.byte	0x4e
 12170 303e 17300000 		.4byte	0x3017
 12171 3042 02       		.uleb128 0x2
 12172 3043 C20B0000 		.4byte	.LASF653
 12173 3047 2F       		.byte	0x2f
ARM GAS  C:\Users\Moi\AppData\Local\Temp\ccAXdvuJ.s 			page 220


 12174 3048 53       		.byte	0x53
 12175 3049 4D300000 		.4byte	0x304d
 12176 304d 1C       		.uleb128 0x1c
 12177 304e C20B0000 		.4byte	.LASF653
 12178 3052 1C       		.byte	0x1c
 12179 3053 30       		.byte	0x30
 12180 3054 7901     		.2byte	0x179
 12181 3056 B6300000 		.4byte	0x30b6
 12182 305a 1A       		.uleb128 0x1a
 12183 305b 93150000 		.4byte	.LASF495
 12184 305f 30       		.byte	0x30
 12185 3060 7D01     		.2byte	0x17d
 12186 3062 37300000 		.4byte	0x3037
 12187 3066 00       		.byte	0
 12188 3067 1A       		.uleb128 0x1a
 12189 3068 951B0000 		.4byte	.LASF496
 12190 306c 30       		.byte	0x30
 12191 306d 8101     		.2byte	0x181
 12192 306f B1310000 		.4byte	0x31b1
 12193 3073 04       		.byte	0x4
 12194 3074 1A       		.uleb128 0x1a
 12195 3075 B2120000 		.4byte	.LASF654
 12196 3079 30       		.byte	0x30
 12197 307a 8501     		.2byte	0x185
 12198 307c FC300000 		.4byte	0x30fc
 12199 3080 08       		.byte	0x8
 12200 3081 1A       		.uleb128 0x1a
 12201 3082 85190000 		.4byte	.LASF655
 12202 3086 30       		.byte	0x30
 12203 3087 8901     		.2byte	0x189
 12204 3089 F0300000 		.4byte	0x30f0
 12205 308d 0C       		.byte	0xc
 12206 308e 1A       		.uleb128 0x1a
 12207 308f 88210000 		.4byte	.LASF576
 12208 3093 30       		.byte	0x30
 12209 3094 8D01     		.2byte	0x18d
 12210 3096 E4300000 		.4byte	0x30e4
 12211 309a 10       		.byte	0x10
 12212 309b 1A       		.uleb128 0x1a
 12213 309c E90C0000 		.4byte	.LASF586
 12214 30a0 30       		.byte	0x30
 12215 30a1 9501     		.2byte	0x195
 12216 30a3 AB010000 		.4byte	0x1ab
 12217 30a7 14       		.byte	0x14
 12218 30a8 25       		.uleb128 0x25
 12219 30a9 74696D00 		.ascii	"tim\000"
 12220 30ad 30       		.byte	0x30
 12221 30ae 9901     		.2byte	0x199
 12222 30b0 E62C0000 		.4byte	0x2ce6
 12223 30b4 18       		.byte	0x18
 12224 30b5 00       		.byte	0
 12225 30b6 02       		.uleb128 0x2
 12226 30b7 AD100000 		.4byte	.LASF656
 12227 30bb 2F       		.byte	0x2f
 12228 30bc 5A       		.byte	0x5a
 12229 30bd C1300000 		.4byte	0x30c1
 12230 30c1 05       		.uleb128 0x5
ARM GAS  C:\Users\Moi\AppData\Local\Temp\ccAXdvuJ.s 			page 221


 12231 30c2 04       		.byte	0x4
 12232 30c3 C7300000 		.4byte	0x30c7
 12233 30c7 20       		.uleb128 0x20
 12234 30c8 D2300000 		.4byte	0x30d2
 12235 30cc 18       		.uleb128 0x18
 12236 30cd D2300000 		.4byte	0x30d2
 12237 30d1 00       		.byte	0
 12238 30d2 05       		.uleb128 0x5
 12239 30d3 04       		.byte	0x4
 12240 30d4 42300000 		.4byte	0x3042
 12241 30d8 07       		.uleb128 0x7
 12242 30d9 CF140000 		.4byte	.LASF657
 12243 30dd 30       		.byte	0x30
 12244 30de 2501     		.2byte	0x125
 12245 30e0 AB010000 		.4byte	0x1ab
 12246 30e4 07       		.uleb128 0x7
 12247 30e5 DE160000 		.4byte	.LASF658
 12248 30e9 30       		.byte	0x30
 12249 30ea 2A01     		.2byte	0x12a
 12250 30ec 75010000 		.4byte	0x175
 12251 30f0 07       		.uleb128 0x7
 12252 30f1 66140000 		.4byte	.LASF659
 12253 30f5 30       		.byte	0x30
 12254 30f6 2F01     		.2byte	0x12f
 12255 30f8 AB010000 		.4byte	0x1ab
 12256 30fc 07       		.uleb128 0x7
 12257 30fd BE0D0000 		.4byte	.LASF660
 12258 3101 30       		.byte	0x30
 12259 3102 3401     		.2byte	0x134
 12260 3104 AB010000 		.4byte	0x1ab
 12261 3108 1D       		.uleb128 0x1d
 12262 3109 08       		.byte	0x8
 12263 310a 30       		.byte	0x30
 12264 310b 3901     		.2byte	0x139
 12265 310d 2C310000 		.4byte	0x312c
 12266 3111 1A       		.uleb128 0x1a
 12267 3112 AC080000 		.4byte	.LASF574
 12268 3116 30       		.byte	0x30
 12269 3117 3D01     		.2byte	0x13d
 12270 3119 D8300000 		.4byte	0x30d8
 12271 311d 00       		.byte	0
 12272 311e 1A       		.uleb128 0x1a
 12273 311f E7150000 		.4byte	.LASF600
 12274 3123 30       		.byte	0x30
 12275 3124 4301     		.2byte	0x143
 12276 3126 B6300000 		.4byte	0x30b6
 12277 312a 04       		.byte	0x4
 12278 312b 00       		.byte	0
 12279 312c 07       		.uleb128 0x7
 12280 312d AD0D0000 		.4byte	.LASF661
 12281 3131 30       		.byte	0x30
 12282 3132 4501     		.2byte	0x145
 12283 3134 08310000 		.4byte	0x3108
 12284 3138 1D       		.uleb128 0x1d
 12285 3139 34       		.byte	0x34
 12286 313a 30       		.byte	0x30
 12287 313b 4A01     		.2byte	0x14a
ARM GAS  C:\Users\Moi\AppData\Local\Temp\ccAXdvuJ.s 			page 222


 12288 313d 90310000 		.4byte	0x3190
 12289 3141 1A       		.uleb128 0x1a
 12290 3142 5C240000 		.4byte	.LASF599
 12291 3146 30       		.byte	0x30
 12292 3147 5001     		.2byte	0x150
 12293 3149 AB010000 		.4byte	0x1ab
 12294 314d 00       		.byte	0
 12295 314e 1A       		.uleb128 0x1a
 12296 314f B2120000 		.4byte	.LASF654
 12297 3153 30       		.byte	0x30
 12298 3154 5601     		.2byte	0x156
 12299 3156 FC300000 		.4byte	0x30fc
 12300 315a 04       		.byte	0x4
 12301 315b 1A       		.uleb128 0x1a
 12302 315c E7150000 		.4byte	.LASF600
 12303 3160 30       		.byte	0x30
 12304 3161 5C01     		.2byte	0x15c
 12305 3163 B6300000 		.4byte	0x30b6
 12306 3167 08       		.byte	0x8
 12307 3168 1A       		.uleb128 0x1a
 12308 3169 88210000 		.4byte	.LASF576
 12309 316d 30       		.byte	0x30
 12310 316e 6001     		.2byte	0x160
 12311 3170 90310000 		.4byte	0x3190
 12312 3174 0C       		.byte	0xc
 12313 3175 25       		.uleb128 0x25
 12314 3176 63723200 		.ascii	"cr2\000"
 12315 317a 30       		.byte	0x30
 12316 317b 6601     		.2byte	0x166
 12317 317d AB010000 		.4byte	0x1ab
 12318 3181 2C       		.byte	0x2c
 12319 3182 1A       		.uleb128 0x1a
 12320 3183 4D0C0000 		.4byte	.LASF601
 12321 3187 30       		.byte	0x30
 12322 3188 7301     		.2byte	0x173
 12323 318a AB010000 		.4byte	0x1ab
 12324 318e 30       		.byte	0x30
 12325 318f 00       		.byte	0
 12326 3190 0A       		.uleb128 0xa
 12327 3191 2C310000 		.4byte	0x312c
 12328 3195 A0310000 		.4byte	0x31a0
 12329 3199 0B       		.uleb128 0xb
 12330 319a B1000000 		.4byte	0xb1
 12331 319e 03       		.byte	0x3
 12332 319f 00       		.byte	0
 12333 31a0 07       		.uleb128 0x7
 12334 31a1 D30B0000 		.4byte	.LASF662
 12335 31a5 30       		.byte	0x30
 12336 31a6 7401     		.2byte	0x174
 12337 31a8 38310000 		.4byte	0x3138
 12338 31ac 0F       		.uleb128 0xf
 12339 31ad A0310000 		.4byte	0x31a0
 12340 31b1 05       		.uleb128 0x5
 12341 31b2 04       		.byte	0x4
 12342 31b3 AC310000 		.4byte	0x31ac
 12343 31b7 21       		.uleb128 0x21
 12344 31b8 84110000 		.4byte	.LASF663
ARM GAS  C:\Users\Moi\AppData\Local\Temp\ccAXdvuJ.s 			page 223


 12345 31bc 30       		.byte	0x30
 12346 31bd BC01     		.2byte	0x1bc
 12347 31bf 42300000 		.4byte	0x3042
 12348 31c3 21       		.uleb128 0x21
 12349 31c4 8A110000 		.4byte	.LASF664
 12350 31c8 30       		.byte	0x30
 12351 31c9 C001     		.2byte	0x1c0
 12352 31cb 42300000 		.4byte	0x3042
 12353 31cf 21       		.uleb128 0x21
 12354 31d0 90110000 		.4byte	.LASF665
 12355 31d4 30       		.byte	0x30
 12356 31d5 C401     		.2byte	0x1c4
 12357 31d7 42300000 		.4byte	0x3042
 12358 31db 21       		.uleb128 0x21
 12359 31dc 96110000 		.4byte	.LASF666
 12360 31e0 30       		.byte	0x30
 12361 31e1 C801     		.2byte	0x1c8
 12362 31e3 42300000 		.4byte	0x3042
 12363 31e7 2A       		.uleb128 0x2a
 12364 31e8 07       		.byte	0x7
 12365 31e9 01       		.byte	0x1
 12366 31ea 42000000 		.4byte	0x42
 12367 31ee 31       		.byte	0x31
 12368 31ef 55       		.byte	0x55
 12369 31f0 07320000 		.4byte	0x3207
 12370 31f4 2B       		.uleb128 0x2b
 12371 31f5 AF060000 		.4byte	.LASF667
 12372 31f9 00       		.byte	0
 12373 31fa 2B       		.uleb128 0x2b
 12374 31fb 1C0D0000 		.4byte	.LASF668
 12375 31ff 01       		.byte	0x1
 12376 3200 2B       		.uleb128 0x2b
 12377 3201 6B0F0000 		.4byte	.LASF669
 12378 3205 02       		.byte	0x2
 12379 3206 00       		.byte	0
 12380 3207 02       		.uleb128 0x2
 12381 3208 17180000 		.4byte	.LASF670
 12382 320c 31       		.byte	0x31
 12383 320d 59       		.byte	0x59
 12384 320e E7310000 		.4byte	0x31e7
 12385 3212 02       		.uleb128 0x2
 12386 3213 B3210000 		.4byte	.LASF671
 12387 3217 31       		.byte	0x31
 12388 3218 5E       		.byte	0x5e
 12389 3219 1D320000 		.4byte	0x321d
 12390 321d 12       		.uleb128 0x12
 12391 321e B3210000 		.4byte	.LASF671
 12392 3222 78       		.byte	0x78
 12393 3223 31       		.byte	0x31
 12394 3224 78       		.byte	0x78
 12395 3225 88320000 		.4byte	0x3288
 12396 3229 13       		.uleb128 0x13
 12397 322a 766D7400 		.ascii	"vmt\000"
 12398 322e 31       		.byte	0x31
 12399 322f 7A       		.byte	0x7a
 12400 3230 06330000 		.4byte	0x3306
 12401 3234 00       		.byte	0
ARM GAS  C:\Users\Moi\AppData\Local\Temp\ccAXdvuJ.s 			page 224


 12402 3235 0D       		.uleb128 0xd
 12403 3236 47000000 		.4byte	.LASF672
 12404 323a 31       		.byte	0x31
 12405 323b 7B       		.byte	0x7b
 12406 323c 6C1E0000 		.4byte	0x1e6c
 12407 3240 04       		.byte	0x4
 12408 3241 0D       		.uleb128 0xd
 12409 3242 93150000 		.4byte	.LASF495
 12410 3246 31       		.byte	0x31
 12411 3247 7B       		.byte	0x7b
 12412 3248 07320000 		.4byte	0x3207
 12413 324c 08       		.byte	0x8
 12414 324d 0D       		.uleb128 0xd
 12415 324e F8170000 		.4byte	.LASF673
 12416 3252 31       		.byte	0x31
 12417 3253 7B       		.byte	0x7b
 12418 3254 171F0000 		.4byte	0x1f17
 12419 3258 0C       		.byte	0xc
 12420 3259 0D       		.uleb128 0xd
 12421 325a A9110000 		.4byte	.LASF674
 12422 325e 31       		.byte	0x31
 12423 325f 7B       		.byte	0x7b
 12424 3260 221F0000 		.4byte	0x1f22
 12425 3264 30       		.byte	0x30
 12426 3265 13       		.uleb128 0x13
 12427 3266 696200   		.ascii	"ib\000"
 12428 3269 31       		.byte	0x31
 12429 326a 7B       		.byte	0x7b
 12430 326b 0C330000 		.4byte	0x330c
 12431 326f 54       		.byte	0x54
 12432 3270 13       		.uleb128 0x13
 12433 3271 6F6200   		.ascii	"ob\000"
 12434 3274 31       		.byte	0x31
 12435 3275 7B       		.byte	0x7b
 12436 3276 0C330000 		.4byte	0x330c
 12437 327a 64       		.byte	0x64
 12438 327b 0D       		.uleb128 0xd
 12439 327c C6190000 		.4byte	.LASF675
 12440 3280 31       		.byte	0x31
 12441 3281 7B       		.byte	0x7b
 12442 3282 1C330000 		.4byte	0x331c
 12443 3286 74       		.byte	0x74
 12444 3287 00       		.byte	0
 12445 3288 29       		.uleb128 0x29
 12446 3289 53443300 		.ascii	"SD3\000"
 12447 328d 32       		.byte	0x32
 12448 328e 1501     		.2byte	0x115
 12449 3290 12320000 		.4byte	0x3212
 12450 3294 12       		.uleb128 0x12
 12451 3295 F80E0000 		.4byte	.LASF676
 12452 3299 20       		.byte	0x20
 12453 329a 31       		.byte	0x31
 12454 329b 6D       		.byte	0x6d
 12455 329c 01330000 		.4byte	0x3301
 12456 32a0 0D       		.uleb128 0xd
 12457 32a1 E7170000 		.4byte	.LASF677
 12458 32a5 31       		.byte	0x31
ARM GAS  C:\Users\Moi\AppData\Local\Temp\ccAXdvuJ.s 			page 225


 12459 32a6 6E       		.byte	0x6e
 12460 32a7 4C1F0000 		.4byte	0x1f4c
 12461 32ab 00       		.byte	0
 12462 32ac 0D       		.uleb128 0xd
 12463 32ad C9040000 		.4byte	.LASF678
 12464 32b1 31       		.byte	0x31
 12465 32b2 6E       		.byte	0x6e
 12466 32b3 6B1F0000 		.4byte	0x1f6b
 12467 32b7 04       		.byte	0x4
 12468 32b8 13       		.uleb128 0x13
 12469 32b9 70757400 		.ascii	"put\000"
 12470 32bd 31       		.byte	0x31
 12471 32be 6E       		.byte	0x6e
 12472 32bf 851F0000 		.4byte	0x1f85
 12473 32c3 08       		.byte	0x8
 12474 32c4 13       		.uleb128 0x13
 12475 32c5 67657400 		.ascii	"get\000"
 12476 32c9 31       		.byte	0x31
 12477 32ca 6E       		.byte	0x6e
 12478 32cb 9A1F0000 		.4byte	0x1f9a
 12479 32cf 0C       		.byte	0xc
 12480 32d0 0D       		.uleb128 0xd
 12481 32d1 88130000 		.4byte	.LASF679
 12482 32d5 31       		.byte	0x31
 12483 32d6 6E       		.byte	0x6e
 12484 32d7 3B200000 		.4byte	0x203b
 12485 32db 10       		.byte	0x10
 12486 32dc 0D       		.uleb128 0xd
 12487 32dd C4170000 		.4byte	.LASF680
 12488 32e1 31       		.byte	0x31
 12489 32e2 6E       		.byte	0x6e
 12490 32e3 55200000 		.4byte	0x2055
 12491 32e7 14       		.byte	0x14
 12492 32e8 0D       		.uleb128 0xd
 12493 32e9 91220000 		.4byte	.LASF681
 12494 32ed 31       		.byte	0x31
 12495 32ee 6E       		.byte	0x6e
 12496 32ef 79200000 		.4byte	0x2079
 12497 32f3 18       		.byte	0x18
 12498 32f4 0D       		.uleb128 0xd
 12499 32f5 EC120000 		.4byte	.LASF682
 12500 32f9 31       		.byte	0x31
 12501 32fa 6E       		.byte	0x6e
 12502 32fb 9D200000 		.4byte	0x209d
 12503 32ff 1C       		.byte	0x1c
 12504 3300 00       		.byte	0
 12505 3301 0F       		.uleb128 0xf
 12506 3302 94320000 		.4byte	0x3294
 12507 3306 05       		.uleb128 0x5
 12508 3307 04       		.byte	0x4
 12509 3308 01330000 		.4byte	0x3301
 12510 330c 0A       		.uleb128 0xa
 12511 330d 75010000 		.4byte	0x175
 12512 3311 1C330000 		.4byte	0x331c
 12513 3315 0B       		.uleb128 0xb
 12514 3316 B1000000 		.4byte	0xb1
 12515 331a 0F       		.byte	0xf
ARM GAS  C:\Users\Moi\AppData\Local\Temp\ccAXdvuJ.s 			page 226


 12516 331b 00       		.byte	0
 12517 331c 05       		.uleb128 0x5
 12518 331d 04       		.byte	0x4
 12519 331e 08190000 		.4byte	0x1908
 12520 3322 2A       		.uleb128 0x2a
 12521 3323 07       		.byte	0x7
 12522 3324 01       		.byte	0x1
 12523 3325 42000000 		.4byte	0x42
 12524 3329 33       		.byte	0x33
 12525 332a 6C       		.byte	0x6c
 12526 332b 42330000 		.4byte	0x3342
 12527 332f 2B       		.uleb128 0x2b
 12528 3330 6D030000 		.4byte	.LASF683
 12529 3334 00       		.byte	0
 12530 3335 2B       		.uleb128 0x2b
 12531 3336 E5140000 		.4byte	.LASF684
 12532 333a 01       		.byte	0x1
 12533 333b 2B       		.uleb128 0x2b
 12534 333c 89120000 		.4byte	.LASF685
 12535 3340 02       		.byte	0x2
 12536 3341 00       		.byte	0
 12537 3342 02       		.uleb128 0x2
 12538 3343 9A1A0000 		.4byte	.LASF686
 12539 3347 33       		.byte	0x33
 12540 3348 70       		.byte	0x70
 12541 3349 22330000 		.4byte	0x3322
 12542 334d 02       		.uleb128 0x2
 12543 334e D4190000 		.4byte	.LASF687
 12544 3352 34       		.byte	0x34
 12545 3353 BF       		.byte	0xbf
 12546 3354 AB010000 		.4byte	0x1ab
 12547 3358 02       		.uleb128 0x2
 12548 3359 AB000000 		.4byte	.LASF688
 12549 335d 34       		.byte	0x34
 12550 335e C4       		.byte	0xc4
 12551 335f AB010000 		.4byte	0x1ab
 12552 3363 02       		.uleb128 0x2
 12553 3364 97210000 		.4byte	.LASF689
 12554 3368 34       		.byte	0x34
 12555 3369 C9       		.byte	0xc9
 12556 336a 6E330000 		.4byte	0x336e
 12557 336e 12       		.uleb128 0x12
 12558 336f 97210000 		.4byte	.LASF689
 12559 3373 4C       		.byte	0x4c
 12560 3374 34       		.byte	0x34
 12561 3375 F2       		.byte	0xf2
 12562 3376 1D340000 		.4byte	0x341d
 12563 337a 13       		.uleb128 0x13
 12564 337b 766D7400 		.ascii	"vmt\000"
 12565 337f 34       		.byte	0x34
 12566 3380 F6       		.byte	0xf6
 12567 3381 C0340000 		.4byte	0x34c0
 12568 3385 00       		.byte	0
 12569 3386 0D       		.uleb128 0xd
 12570 3387 93150000 		.4byte	.LASF495
 12571 338b 34       		.byte	0x34
 12572 338c F7       		.byte	0xf7
ARM GAS  C:\Users\Moi\AppData\Local\Temp\ccAXdvuJ.s 			page 227


 12573 338d E7200000 		.4byte	0x20e7
 12574 3391 04       		.byte	0x4
 12575 3392 13       		.uleb128 0x13
 12576 3393 63696400 		.ascii	"cid\000"
 12577 3397 34       		.byte	0x34
 12578 3398 F7       		.byte	0xf7
 12579 3399 9B210000 		.4byte	0x219b
 12580 339d 08       		.byte	0x8
 12581 339e 13       		.uleb128 0x13
 12582 339f 63736400 		.ascii	"csd\000"
 12583 33a3 34       		.byte	0x34
 12584 33a4 F7       		.byte	0xf7
 12585 33a5 9B210000 		.4byte	0x219b
 12586 33a9 18       		.byte	0x18
 12587 33aa 0D       		.uleb128 0xd
 12588 33ab 761C0000 		.4byte	.LASF690
 12589 33af 34       		.byte	0x34
 12590 33b0 F7       		.byte	0xf7
 12591 33b1 AB010000 		.4byte	0x1ab
 12592 33b5 28       		.byte	0x28
 12593 33b6 0D       		.uleb128 0xd
 12594 33b7 951B0000 		.4byte	.LASF496
 12595 33bb 34       		.byte	0x34
 12596 33bc FB       		.byte	0xfb
 12597 33bd C6340000 		.4byte	0x34c6
 12598 33c1 2C       		.byte	0x2c
 12599 33c2 0D       		.uleb128 0xd
 12600 33c3 7C040000 		.4byte	.LASF691
 12601 33c7 34       		.byte	0x34
 12602 33c8 FF       		.byte	0xff
 12603 33c9 4D330000 		.4byte	0x334d
 12604 33cd 30       		.byte	0x30
 12605 33ce 1A       		.uleb128 0x1a
 12606 33cf 8B010000 		.4byte	.LASF627
 12607 33d3 34       		.byte	0x34
 12608 33d4 0301     		.2byte	0x103
 12609 33d6 58330000 		.4byte	0x3358
 12610 33da 34       		.byte	0x34
 12611 33db 25       		.uleb128 0x25
 12612 33dc 72636100 		.ascii	"rca\000"
 12613 33e0 34       		.byte	0x34
 12614 33e1 0701     		.2byte	0x107
 12615 33e3 AB010000 		.4byte	0x1ab
 12616 33e7 38       		.byte	0x38
 12617 33e8 1A       		.uleb128 0x1a
 12618 33e9 17070000 		.4byte	.LASF500
 12619 33ed 34       		.byte	0x34
 12620 33ee 0C01     		.2byte	0x10c
 12621 33f0 8A0E0000 		.4byte	0xe8a
 12622 33f4 3C       		.byte	0x3c
 12623 33f5 1A       		.uleb128 0x1a
 12624 33f6 A0170000 		.4byte	.LASF503
 12625 33fa 34       		.byte	0x34
 12626 33fb 1001     		.2byte	0x110
 12627 33fd AB010000 		.4byte	0x1ab
 12628 3401 40       		.byte	0x40
 12629 3402 25       		.uleb128 0x25
ARM GAS  C:\Users\Moi\AppData\Local\Temp\ccAXdvuJ.s 			page 228


 12630 3403 646D6100 		.ascii	"dma\000"
 12631 3407 34       		.byte	0x34
 12632 3408 1401     		.2byte	0x114
 12633 340a E0250000 		.4byte	0x25e0
 12634 340e 44       		.byte	0x44
 12635 340f 1A       		.uleb128 0x1a
 12636 3410 AB150000 		.4byte	.LASF692
 12637 3414 34       		.byte	0x34
 12638 3415 1901     		.2byte	0x119
 12639 3417 CC340000 		.4byte	0x34cc
 12640 341b 48       		.byte	0x48
 12641 341c 00       		.byte	0
 12642 341d 0C       		.uleb128 0xc
 12643 341e 08       		.byte	0x8
 12644 341f 34       		.byte	0x34
 12645 3420 CF       		.byte	0xcf
 12646 3421 3E340000 		.4byte	0x343e
 12647 3425 0D       		.uleb128 0xd
 12648 3426 0C0E0000 		.4byte	.LASF693
 12649 342a 34       		.byte	0x34
 12650 342b D8       		.byte	0xd8
 12651 342c 111F0000 		.4byte	0x1f11
 12652 3430 00       		.byte	0
 12653 3431 0D       		.uleb128 0xd
 12654 3432 46230000 		.4byte	.LASF694
 12655 3436 34       		.byte	0x34
 12656 3437 DC       		.byte	0xdc
 12657 3438 42330000 		.4byte	0x3342
 12658 343c 04       		.byte	0x4
 12659 343d 00       		.byte	0
 12660 343e 02       		.uleb128 0x2
 12661 343f 7B190000 		.4byte	.LASF695
 12662 3443 34       		.byte	0x34
 12663 3444 DE       		.byte	0xde
 12664 3445 1D340000 		.4byte	0x341d
 12665 3449 0F       		.uleb128 0xf
 12666 344a 3E340000 		.4byte	0x343e
 12667 344e 12       		.uleb128 0x12
 12668 344f 67230000 		.4byte	.LASF696
 12669 3453 20       		.byte	0x20
 12670 3454 34       		.byte	0x34
 12671 3455 EB       		.byte	0xeb
 12672 3456 BB340000 		.4byte	0x34bb
 12673 345a 0D       		.uleb128 0xd
 12674 345b FE250000 		.4byte	.LASF697
 12675 345f 34       		.byte	0x34
 12676 3460 EC       		.byte	0xec
 12677 3461 2D210000 		.4byte	0x212d
 12678 3465 00       		.byte	0
 12679 3466 0D       		.uleb128 0xd
 12680 3467 520C0000 		.4byte	.LASF698
 12681 346b 34       		.byte	0x34
 12682 346c EC       		.byte	0xec
 12683 346d 2D210000 		.4byte	0x212d
 12684 3471 04       		.byte	0x4
 12685 3472 0D       		.uleb128 0xd
 12686 3473 1D0F0000 		.4byte	.LASF699
ARM GAS  C:\Users\Moi\AppData\Local\Temp\ccAXdvuJ.s 			page 229


 12687 3477 34       		.byte	0x34
 12688 3478 EC       		.byte	0xec
 12689 3479 2D210000 		.4byte	0x212d
 12690 347d 08       		.byte	0x8
 12691 347e 0D       		.uleb128 0xd
 12692 347f 76130000 		.4byte	.LASF700
 12693 3483 34       		.byte	0x34
 12694 3484 EC       		.byte	0xec
 12695 3485 2D210000 		.4byte	0x212d
 12696 3489 0C       		.byte	0xc
 12697 348a 0D       		.uleb128 0xd
 12698 348b C9040000 		.4byte	.LASF678
 12699 348f 34       		.byte	0x34
 12700 3490 EC       		.byte	0xec
 12701 3491 51210000 		.4byte	0x2151
 12702 3495 10       		.byte	0x10
 12703 3496 0D       		.uleb128 0xd
 12704 3497 E7170000 		.4byte	.LASF677
 12705 349b 34       		.byte	0x34
 12706 349c EC       		.byte	0xec
 12707 349d 75210000 		.4byte	0x2175
 12708 34a1 14       		.byte	0x14
 12709 34a2 0D       		.uleb128 0xd
 12710 34a3 C1190000 		.4byte	.LASF701
 12711 34a7 34       		.byte	0x34
 12712 34a8 EC       		.byte	0xec
 12713 34a9 2D210000 		.4byte	0x212d
 12714 34ad 18       		.byte	0x18
 12715 34ae 0D       		.uleb128 0xd
 12716 34af F4220000 		.4byte	.LASF702
 12717 34b3 34       		.byte	0x34
 12718 34b4 EC       		.byte	0xec
 12719 34b5 95210000 		.4byte	0x2195
 12720 34b9 1C       		.byte	0x1c
 12721 34ba 00       		.byte	0
 12722 34bb 0F       		.uleb128 0xf
 12723 34bc 4E340000 		.4byte	0x344e
 12724 34c0 05       		.uleb128 0x5
 12725 34c1 04       		.byte	0x4
 12726 34c2 BB340000 		.4byte	0x34bb
 12727 34c6 05       		.uleb128 0x5
 12728 34c7 04       		.byte	0x4
 12729 34c8 49340000 		.4byte	0x3449
 12730 34cc 05       		.uleb128 0x5
 12731 34cd 04       		.byte	0x4
 12732 34ce 10180000 		.4byte	0x1810
 12733 34d2 21       		.uleb128 0x21
 12734 34d3 430A0000 		.4byte	.LASF703
 12735 34d7 34       		.byte	0x34
 12736 34d8 2501     		.2byte	0x125
 12737 34da 63330000 		.4byte	0x3363
 12738 34de 2A       		.uleb128 0x2a
 12739 34df 07       		.byte	0x7
 12740 34e0 01       		.byte	0x1
 12741 34e1 42000000 		.4byte	0x42
 12742 34e5 35       		.byte	0x35
 12743 34e6 46       		.byte	0x46
ARM GAS  C:\Users\Moi\AppData\Local\Temp\ccAXdvuJ.s 			page 230


 12744 34e7 0A350000 		.4byte	0x350a
 12745 34eb 2B       		.uleb128 0x2b
 12746 34ec 2D070000 		.4byte	.LASF704
 12747 34f0 00       		.byte	0
 12748 34f1 2B       		.uleb128 0x2b
 12749 34f2 08030000 		.4byte	.LASF705
 12750 34f6 01       		.byte	0x1
 12751 34f7 2B       		.uleb128 0x2b
 12752 34f8 2F230000 		.4byte	.LASF706
 12753 34fc 02       		.byte	0x2
 12754 34fd 2B       		.uleb128 0x2b
 12755 34fe 800E0000 		.4byte	.LASF707
 12756 3502 03       		.byte	0x3
 12757 3503 2B       		.uleb128 0x2b
 12758 3504 1B130000 		.4byte	.LASF708
 12759 3508 04       		.byte	0x4
 12760 3509 00       		.byte	0
 12761 350a 02       		.uleb128 0x2
 12762 350b 340E0000 		.4byte	.LASF709
 12763 350f 35       		.byte	0x35
 12764 3510 4C       		.byte	0x4c
 12765 3511 DE340000 		.4byte	0x34de
 12766 3515 07       		.uleb128 0x7
 12767 3516 45220000 		.4byte	.LASF710
 12768 351a 36       		.byte	0x36
 12769 351b 9601     		.2byte	0x196
 12770 351d 21350000 		.4byte	0x3521
 12771 3521 1C       		.uleb128 0x1c
 12772 3522 45220000 		.4byte	.LASF710
 12773 3526 34       		.byte	0x34
 12774 3527 36       		.byte	0x36
 12775 3528 BA01     		.2byte	0x1ba
 12776 352a A4350000 		.4byte	0x35a4
 12777 352e 1A       		.uleb128 0x1a
 12778 352f 93150000 		.4byte	.LASF495
 12779 3533 36       		.byte	0x36
 12780 3534 BE01     		.2byte	0x1be
 12781 3536 0A350000 		.4byte	0x350a
 12782 353a 00       		.byte	0
 12783 353b 1A       		.uleb128 0x1a
 12784 353c 951B0000 		.4byte	.LASF496
 12785 3540 36       		.byte	0x36
 12786 3541 C201     		.2byte	0x1c2
 12787 3543 16360000 		.4byte	0x3616
 12788 3547 04       		.byte	0x4
 12789 3548 1A       		.uleb128 0x1a
 12790 3549 17070000 		.4byte	.LASF500
 12791 354d 36       		.byte	0x36
 12792 354e C701     		.2byte	0x1c7
 12793 3550 8A0E0000 		.4byte	0xe8a
 12794 3554 08       		.byte	0x8
 12795 3555 1A       		.uleb128 0x1a
 12796 3556 B40C0000 		.4byte	.LASF501
 12797 355a 36       		.byte	0x36
 12798 355b CD01     		.2byte	0x1cd
 12799 355d E81D0000 		.4byte	0x1de8
 12800 3561 0C       		.byte	0xc
ARM GAS  C:\Users\Moi\AppData\Local\Temp\ccAXdvuJ.s 			page 231


 12801 3562 25       		.uleb128 0x25
 12802 3563 73706900 		.ascii	"spi\000"
 12803 3567 36       		.byte	0x36
 12804 3568 D601     		.2byte	0x1d6
 12805 356a 05300000 		.4byte	0x3005
 12806 356e 20       		.byte	0x20
 12807 356f 1A       		.uleb128 0x1a
 12808 3570 38010000 		.4byte	.LASF631
 12809 3574 36       		.byte	0x36
 12810 3575 DA01     		.2byte	0x1da
 12811 3577 E0250000 		.4byte	0x25e0
 12812 357b 24       		.byte	0x24
 12813 357c 1A       		.uleb128 0x1a
 12814 357d 32020000 		.4byte	.LASF632
 12815 3581 36       		.byte	0x36
 12816 3582 DE01     		.2byte	0x1de
 12817 3584 E0250000 		.4byte	0x25e0
 12818 3588 28       		.byte	0x28
 12819 3589 1A       		.uleb128 0x1a
 12820 358a 98080000 		.4byte	.LASF629
 12821 358e 36       		.byte	0x36
 12822 358f E201     		.2byte	0x1e2
 12823 3591 AB010000 		.4byte	0x1ab
 12824 3595 2C       		.byte	0x2c
 12825 3596 1A       		.uleb128 0x1a
 12826 3597 F1080000 		.4byte	.LASF630
 12827 359b 36       		.byte	0x36
 12828 359c E601     		.2byte	0x1e6
 12829 359e AB010000 		.4byte	0x1ab
 12830 35a2 30       		.byte	0x30
 12831 35a3 00       		.byte	0
 12832 35a4 07       		.uleb128 0x7
 12833 35a5 01150000 		.4byte	.LASF711
 12834 35a9 36       		.byte	0x36
 12835 35aa 9E01     		.2byte	0x19e
 12836 35ac B0350000 		.4byte	0x35b0
 12837 35b0 05       		.uleb128 0x5
 12838 35b1 04       		.byte	0x4
 12839 35b2 B6350000 		.4byte	0x35b6
 12840 35b6 20       		.uleb128 0x20
 12841 35b7 C1350000 		.4byte	0x35c1
 12842 35bb 18       		.uleb128 0x18
 12843 35bc C1350000 		.4byte	0x35c1
 12844 35c0 00       		.byte	0
 12845 35c1 05       		.uleb128 0x5
 12846 35c2 04       		.byte	0x4
 12847 35c3 15350000 		.4byte	0x3515
 12848 35c7 1D       		.uleb128 0x1d
 12849 35c8 0C       		.byte	0xc
 12850 35c9 36       		.byte	0x36
 12851 35ca A301     		.2byte	0x1a3
 12852 35cc 05360000 		.4byte	0x3605
 12853 35d0 1A       		.uleb128 0x1a
 12854 35d1 7B090000 		.4byte	.LASF508
 12855 35d5 36       		.byte	0x36
 12856 35d6 A701     		.2byte	0x1a7
 12857 35d8 A4350000 		.4byte	0x35a4
ARM GAS  C:\Users\Moi\AppData\Local\Temp\ccAXdvuJ.s 			page 232


 12858 35dc 00       		.byte	0
 12859 35dd 1A       		.uleb128 0x1a
 12860 35de 01240000 		.4byte	.LASF712
 12861 35e2 36       		.byte	0x36
 12862 35e3 AC01     		.2byte	0x1ac
 12863 35e5 71230000 		.4byte	0x2371
 12864 35e9 04       		.byte	0x4
 12865 35ea 1A       		.uleb128 0x1a
 12866 35eb EB080000 		.4byte	.LASF713
 12867 35ef 36       		.byte	0x36
 12868 35f0 B001     		.2byte	0x1b0
 12869 35f2 90010000 		.4byte	0x190
 12870 35f6 08       		.byte	0x8
 12871 35f7 25       		.uleb128 0x25
 12872 35f8 63723100 		.ascii	"cr1\000"
 12873 35fc 36       		.byte	0x36
 12874 35fd B401     		.2byte	0x1b4
 12875 35ff 90010000 		.4byte	0x190
 12876 3603 0A       		.byte	0xa
 12877 3604 00       		.byte	0
 12878 3605 07       		.uleb128 0x7
 12879 3606 3A210000 		.4byte	.LASF714
 12880 360a 36       		.byte	0x36
 12881 360b B501     		.2byte	0x1b5
 12882 360d C7350000 		.4byte	0x35c7
 12883 3611 0F       		.uleb128 0xf
 12884 3612 05360000 		.4byte	0x3605
 12885 3616 05       		.uleb128 0x5
 12886 3617 04       		.byte	0x4
 12887 3618 11360000 		.4byte	0x3611
 12888 361c 21       		.uleb128 0x21
 12889 361d 4A200000 		.4byte	.LASF715
 12890 3621 36       		.byte	0x36
 12891 3622 F201     		.2byte	0x1f2
 12892 3624 15350000 		.4byte	0x3515
 12893 3628 02       		.uleb128 0x2
 12894 3629 60110000 		.4byte	.LASF716
 12895 362d 37       		.byte	0x37
 12896 362e FA       		.byte	0xfa
 12897 362f 33360000 		.4byte	0x3633
 12898 3633 19       		.uleb128 0x19
 12899 3634 60110000 		.4byte	.LASF716
 12900 3638 6002     		.2byte	0x260
 12901 363a 38       		.byte	0x38
 12902 363b 7701     		.2byte	0x177
 12903 363d 5F370000 		.4byte	0x375f
 12904 3641 1A       		.uleb128 0x1a
 12905 3642 93150000 		.4byte	.LASF495
 12906 3646 38       		.byte	0x38
 12907 3647 7B01     		.2byte	0x17b
 12908 3649 97370000 		.4byte	0x3797
 12909 364d 00       		.byte	0
 12910 364e 1A       		.uleb128 0x1a
 12911 364f 951B0000 		.4byte	.LASF496
 12912 3653 38       		.byte	0x38
 12913 3654 7F01     		.2byte	0x17f
 12914 3656 BA400000 		.4byte	0x40ba
ARM GAS  C:\Users\Moi\AppData\Local\Temp\ccAXdvuJ.s 			page 233


 12915 365a 04       		.byte	0x4
 12916 365b 1A       		.uleb128 0x1a
 12917 365c 7B210000 		.4byte	.LASF717
 12918 3660 38       		.byte	0x38
 12919 3661 8301     		.2byte	0x183
 12920 3663 90010000 		.4byte	0x190
 12921 3667 08       		.byte	0x8
 12922 3668 1A       		.uleb128 0x1a
 12923 3669 3C240000 		.4byte	.LASF718
 12924 366d 38       		.byte	0x38
 12925 366e 8701     		.2byte	0x187
 12926 3670 90010000 		.4byte	0x190
 12927 3674 0A       		.byte	0xa
 12928 3675 25       		.uleb128 0x25
 12929 3676 65706300 		.ascii	"epc\000"
 12930 367a 38       		.byte	0x38
 12931 367b 8B01     		.2byte	0x18b
 12932 367d C0400000 		.4byte	0x40c0
 12933 3681 0C       		.byte	0xc
 12934 3682 1A       		.uleb128 0x1a
 12935 3683 5D070000 		.4byte	.LASF719
 12936 3687 38       		.byte	0x38
 12937 3688 9201     		.2byte	0x192
 12938 368a D6400000 		.4byte	0x40d6
 12939 368e 1C       		.byte	0x1c
 12940 368f 1A       		.uleb128 0x1a
 12941 3690 230C0000 		.4byte	.LASF720
 12942 3694 38       		.byte	0x38
 12943 3695 9901     		.2byte	0x199
 12944 3697 D6400000 		.4byte	0x40d6
 12945 369b 28       		.byte	0x28
 12946 369c 1A       		.uleb128 0x1a
 12947 369d BA0F0000 		.4byte	.LASF721
 12948 36a1 38       		.byte	0x38
 12949 36a2 9D01     		.2byte	0x19d
 12950 36a4 DC370000 		.4byte	0x37dc
 12951 36a8 34       		.byte	0x34
 12952 36a9 1A       		.uleb128 0x1a
 12953 36aa 2E1B0000 		.4byte	.LASF722
 12954 36ae 38       		.byte	0x38
 12955 36af A101     		.2byte	0x1a1
 12956 36b1 111F0000 		.4byte	0x1f11
 12957 36b5 38       		.byte	0x38
 12958 36b6 1A       		.uleb128 0x1a
 12959 36b7 04170000 		.4byte	.LASF723
 12960 36bb 38       		.byte	0x38
 12961 36bc A501     		.2byte	0x1a5
 12962 36be B8000000 		.4byte	0xb8
 12963 36c2 3C       		.byte	0x3c
 12964 36c3 1A       		.uleb128 0x1a
 12965 36c4 E61E0000 		.4byte	.LASF724
 12966 36c8 38       		.byte	0x38
 12967 36c9 A901     		.2byte	0x1a9
 12968 36cb 5C380000 		.4byte	0x385c
 12969 36cf 40       		.byte	0x40
 12970 36d0 1A       		.uleb128 0x1a
 12971 36d1 27070000 		.4byte	.LASF725
ARM GAS  C:\Users\Moi\AppData\Local\Temp\ccAXdvuJ.s 			page 234


 12972 36d5 38       		.byte	0x38
 12973 36d6 AD01     		.2byte	0x1ad
 12974 36d8 41260000 		.4byte	0x2641
 12975 36dc 44       		.byte	0x44
 12976 36dd 1A       		.uleb128 0x1a
 12977 36de D9140000 		.4byte	.LASF726
 12978 36e2 38       		.byte	0x38
 12979 36e3 B101     		.2byte	0x1b1
 12980 36e5 90010000 		.4byte	0x190
 12981 36e9 4C       		.byte	0x4c
 12982 36ea 1A       		.uleb128 0x1a
 12983 36eb 19150000 		.4byte	.LASF727
 12984 36ef 38       		.byte	0x38
 12985 36f0 B501     		.2byte	0x1b5
 12986 36f2 75010000 		.4byte	0x175
 12987 36f6 4E       		.byte	0x4e
 12988 36f7 1A       		.uleb128 0x1a
 12989 36f8 2E1A0000 		.4byte	.LASF728
 12990 36fc 38       		.byte	0x38
 12991 36fd B901     		.2byte	0x1b9
 12992 36ff 75010000 		.4byte	0x175
 12993 3703 4F       		.byte	0x4f
 12994 3704 25       		.uleb128 0x25
 12995 3705 6F746700 		.ascii	"otg\000"
 12996 3709 38       		.byte	0x38
 12997 370a C101     		.2byte	0x1c1
 12998 370c E6400000 		.4byte	0x40e6
 12999 3710 50       		.byte	0x50
 13000 3711 1A       		.uleb128 0x1a
 13001 3712 F30D0000 		.4byte	.LASF729
 13002 3716 38       		.byte	0x38
 13003 3717 C501     		.2byte	0x1c5
 13004 3719 EC400000 		.4byte	0x40ec
 13005 371d 54       		.byte	0x54
 13006 371e 1A       		.uleb128 0x1a
 13007 371f B1180000 		.4byte	.LASF730
 13008 3723 38       		.byte	0x38
 13009 3724 C901     		.2byte	0x1c9
 13010 3726 AB010000 		.4byte	0x1ab
 13011 372a 58       		.byte	0x58
 13012 372b 1A       		.uleb128 0x1a
 13013 372c DF0C0000 		.4byte	.LASF731
 13014 3730 38       		.byte	0x38
 13015 3731 CD01     		.2byte	0x1cd
 13016 3733 AB010000 		.4byte	0x1ab
 13017 3737 5C       		.byte	0x5c
 13018 3738 1A       		.uleb128 0x1a
 13019 3739 3B080000 		.4byte	.LASF732
 13020 373d 38       		.byte	0x38
 13021 373e D101     		.2byte	0x1d1
 13022 3740 8A0E0000 		.4byte	0xe8a
 13023 3744 60       		.byte	0x60
 13024 3745 25       		.uleb128 0x25
 13025 3746 747200   		.ascii	"tr\000"
 13026 3749 38       		.byte	0x38
 13027 374a D601     		.2byte	0x1d6
 13028 374c 8A0E0000 		.4byte	0xe8a
ARM GAS  C:\Users\Moi\AppData\Local\Temp\ccAXdvuJ.s 			page 235


 13029 3750 64       		.byte	0x64
 13030 3751 1A       		.uleb128 0x1a
 13031 3752 B0130000 		.4byte	.LASF733
 13032 3756 38       		.byte	0x38
 13033 3757 DA01     		.2byte	0x1da
 13034 3759 F2400000 		.4byte	0x40f2
 13035 375d 68       		.byte	0x68
 13036 375e 00       		.byte	0
 13037 375f 02       		.uleb128 0x2
 13038 3760 F8090000 		.4byte	.LASF734
 13039 3764 37       		.byte	0x37
 13040 3765 FF       		.byte	0xff
 13041 3766 75010000 		.4byte	0x175
 13042 376a 2C       		.uleb128 0x2c
 13043 376b 07       		.byte	0x7
 13044 376c 01       		.byte	0x1
 13045 376d 42000000 		.4byte	0x42
 13046 3771 37       		.byte	0x37
 13047 3772 0401     		.2byte	0x104
 13048 3774 97370000 		.4byte	0x3797
 13049 3778 2B       		.uleb128 0x2b
 13050 3779 02250000 		.4byte	.LASF735
 13051 377d 00       		.byte	0
 13052 377e 2B       		.uleb128 0x2b
 13053 377f 00000000 		.4byte	.LASF736
 13054 3783 01       		.byte	0x1
 13055 3784 2B       		.uleb128 0x2b
 13056 3785 E2120000 		.4byte	.LASF737
 13057 3789 02       		.byte	0x2
 13058 378a 2B       		.uleb128 0x2b
 13059 378b BD0A0000 		.4byte	.LASF738
 13060 378f 03       		.byte	0x3
 13061 3790 2B       		.uleb128 0x2b
 13062 3791 61080000 		.4byte	.LASF739
 13063 3795 04       		.byte	0x4
 13064 3796 00       		.byte	0
 13065 3797 07       		.uleb128 0x7
 13066 3798 39260000 		.4byte	.LASF740
 13067 379c 37       		.byte	0x37
 13068 379d 0A01     		.2byte	0x10a
 13069 379f 6A370000 		.4byte	0x376a
 13070 37a3 2C       		.uleb128 0x2c
 13071 37a4 07       		.byte	0x7
 13072 37a5 01       		.byte	0x1
 13073 37a6 42000000 		.4byte	0x42
 13074 37aa 37       		.byte	0x37
 13075 37ab 1801     		.2byte	0x118
 13076 37ad DC370000 		.4byte	0x37dc
 13077 37b1 2B       		.uleb128 0x2b
 13078 37b2 B81E0000 		.4byte	.LASF741
 13079 37b6 00       		.byte	0
 13080 37b7 2B       		.uleb128 0x2b
 13081 37b8 AF0F0000 		.4byte	.LASF742
 13082 37bc 01       		.byte	0x1
 13083 37bd 2B       		.uleb128 0x2b
 13084 37be 1A1B0000 		.4byte	.LASF743
 13085 37c2 02       		.byte	0x2
ARM GAS  C:\Users\Moi\AppData\Local\Temp\ccAXdvuJ.s 			page 236


 13086 37c3 2B       		.uleb128 0x2b
 13087 37c4 B8150000 		.4byte	.LASF744
 13088 37c8 03       		.byte	0x3
 13089 37c9 2B       		.uleb128 0x2b
 13090 37ca C4140000 		.4byte	.LASF745
 13091 37ce 04       		.byte	0x4
 13092 37cf 2B       		.uleb128 0x2b
 13093 37d0 C2100000 		.4byte	.LASF746
 13094 37d4 05       		.byte	0x5
 13095 37d5 2B       		.uleb128 0x2b
 13096 37d6 080F0000 		.4byte	.LASF747
 13097 37da 06       		.byte	0x6
 13098 37db 00       		.byte	0
 13099 37dc 07       		.uleb128 0x7
 13100 37dd 05110000 		.4byte	.LASF748
 13101 37e1 37       		.byte	0x37
 13102 37e2 2001     		.2byte	0x120
 13103 37e4 A3370000 		.4byte	0x37a3
 13104 37e8 2C       		.uleb128 0x2c
 13105 37e9 07       		.byte	0x7
 13106 37ea 01       		.byte	0x1
 13107 37eb 42000000 		.4byte	0x42
 13108 37ef 37       		.byte	0x37
 13109 37f0 2501     		.2byte	0x125
 13110 37f2 1B380000 		.4byte	0x381b
 13111 37f6 2B       		.uleb128 0x2b
 13112 37f7 251E0000 		.4byte	.LASF749
 13113 37fb 00       		.byte	0
 13114 37fc 2B       		.uleb128 0x2b
 13115 37fd FF180000 		.4byte	.LASF750
 13116 3801 01       		.byte	0x1
 13117 3802 2B       		.uleb128 0x2b
 13118 3803 61130000 		.4byte	.LASF751
 13119 3807 02       		.byte	0x2
 13120 3808 2B       		.uleb128 0x2b
 13121 3809 FC130000 		.4byte	.LASF752
 13122 380d 03       		.byte	0x3
 13123 380e 2B       		.uleb128 0x2b
 13124 380f 82230000 		.4byte	.LASF753
 13125 3813 04       		.byte	0x4
 13126 3814 2B       		.uleb128 0x2b
 13127 3815 37130000 		.4byte	.LASF754
 13128 3819 05       		.byte	0x5
 13129 381a 00       		.byte	0
 13130 381b 07       		.uleb128 0x7
 13131 381c 2E190000 		.4byte	.LASF755
 13132 3820 37       		.byte	0x37
 13133 3821 2C01     		.2byte	0x12c
 13134 3823 E8370000 		.4byte	0x37e8
 13135 3827 1D       		.uleb128 0x1d
 13136 3828 08       		.byte	0x8
 13137 3829 37       		.byte	0x37
 13138 382a 3101     		.2byte	0x131
 13139 382c 4B380000 		.4byte	0x384b
 13140 3830 1A       		.uleb128 0x1a
 13141 3831 C3250000 		.4byte	.LASF756
 13142 3835 37       		.byte	0x37
ARM GAS  C:\Users\Moi\AppData\Local\Temp\ccAXdvuJ.s 			page 237


 13143 3836 3501     		.2byte	0x135
 13144 3838 B8000000 		.4byte	0xb8
 13145 383c 00       		.byte	0
 13146 383d 1A       		.uleb128 0x1a
 13147 383e A7040000 		.4byte	.LASF757
 13148 3842 37       		.byte	0x37
 13149 3843 3901     		.2byte	0x139
 13150 3845 461F0000 		.4byte	0x1f46
 13151 3849 04       		.byte	0x4
 13152 384a 00       		.byte	0
 13153 384b 07       		.uleb128 0x7
 13154 384c F3140000 		.4byte	.LASF758
 13155 3850 37       		.byte	0x37
 13156 3851 3A01     		.2byte	0x13a
 13157 3853 27380000 		.4byte	0x3827
 13158 3857 0F       		.uleb128 0xf
 13159 3858 4B380000 		.4byte	0x384b
 13160 385c 07       		.uleb128 0x7
 13161 385d 4C250000 		.4byte	.LASF759
 13162 3861 37       		.byte	0x37
 13163 3862 4201     		.2byte	0x142
 13164 3864 68380000 		.4byte	0x3868
 13165 3868 05       		.uleb128 0x5
 13166 3869 04       		.byte	0x4
 13167 386a 6E380000 		.4byte	0x386e
 13168 386e 20       		.uleb128 0x20
 13169 386f 79380000 		.4byte	0x3879
 13170 3873 18       		.uleb128 0x18
 13171 3874 79380000 		.4byte	0x3879
 13172 3878 00       		.byte	0
 13173 3879 05       		.uleb128 0x5
 13174 387a 04       		.byte	0x4
 13175 387b 28360000 		.4byte	0x3628
 13176 387f 07       		.uleb128 0x7
 13177 3880 1F050000 		.4byte	.LASF760
 13178 3884 37       		.byte	0x37
 13179 3885 4B01     		.2byte	0x14b
 13180 3887 8B380000 		.4byte	0x388b
 13181 388b 05       		.uleb128 0x5
 13182 388c 04       		.byte	0x4
 13183 388d 91380000 		.4byte	0x3891
 13184 3891 20       		.uleb128 0x20
 13185 3892 A1380000 		.4byte	0x38a1
 13186 3896 18       		.uleb128 0x18
 13187 3897 79380000 		.4byte	0x3879
 13188 389b 18       		.uleb128 0x18
 13189 389c 5F370000 		.4byte	0x375f
 13190 38a0 00       		.byte	0
 13191 38a1 07       		.uleb128 0x7
 13192 38a2 270B0000 		.4byte	.LASF761
 13193 38a6 37       		.byte	0x37
 13194 38a7 5401     		.2byte	0x154
 13195 38a9 AD380000 		.4byte	0x38ad
 13196 38ad 05       		.uleb128 0x5
 13197 38ae 04       		.byte	0x4
 13198 38af B3380000 		.4byte	0x38b3
 13199 38b3 20       		.uleb128 0x20
ARM GAS  C:\Users\Moi\AppData\Local\Temp\ccAXdvuJ.s 			page 238


 13200 38b4 C3380000 		.4byte	0x38c3
 13201 38b8 18       		.uleb128 0x18
 13202 38b9 79380000 		.4byte	0x3879
 13203 38bd 18       		.uleb128 0x18
 13204 38be 1B380000 		.4byte	0x381b
 13205 38c2 00       		.byte	0
 13206 38c3 07       		.uleb128 0x7
 13207 38c4 88060000 		.4byte	.LASF762
 13208 38c8 37       		.byte	0x37
 13209 38c9 6001     		.2byte	0x160
 13210 38cb CF380000 		.4byte	0x38cf
 13211 38cf 05       		.uleb128 0x5
 13212 38d0 04       		.byte	0x4
 13213 38d1 D5380000 		.4byte	0x38d5
 13214 38d5 17       		.uleb128 0x17
 13215 38d6 A2020000 		.4byte	0x2a2
 13216 38da E4380000 		.4byte	0x38e4
 13217 38de 18       		.uleb128 0x18
 13218 38df 79380000 		.4byte	0x3879
 13219 38e3 00       		.byte	0
 13220 38e4 07       		.uleb128 0x7
 13221 38e5 740F0000 		.4byte	.LASF763
 13222 38e9 37       		.byte	0x37
 13223 38ea 6501     		.2byte	0x165
 13224 38ec F0380000 		.4byte	0x38f0
 13225 38f0 05       		.uleb128 0x5
 13226 38f1 04       		.byte	0x4
 13227 38f2 F6380000 		.4byte	0x38f6
 13228 38f6 17       		.uleb128 0x17
 13229 38f7 14390000 		.4byte	0x3914
 13230 38fb 14390000 		.4byte	0x3914
 13231 38ff 18       		.uleb128 0x18
 13232 3900 79380000 		.4byte	0x3879
 13233 3904 18       		.uleb128 0x18
 13234 3905 75010000 		.4byte	0x175
 13235 3909 18       		.uleb128 0x18
 13236 390a 75010000 		.4byte	0x175
 13237 390e 18       		.uleb128 0x18
 13238 390f 90010000 		.4byte	0x190
 13239 3913 00       		.byte	0
 13240 3914 05       		.uleb128 0x5
 13241 3915 04       		.byte	0x4
 13242 3916 57380000 		.4byte	0x3857
 13243 391a 0C       		.uleb128 0xc
 13244 391b 20       		.byte	0x20
 13245 391c 39       		.byte	0x39
 13246 391d 35       		.byte	0x35
 13247 391e 83390000 		.4byte	0x3983
 13248 3922 0D       		.uleb128 0xd
 13249 3923 7B030000 		.4byte	.LASF764
 13250 3927 39       		.byte	0x39
 13251 3928 36       		.byte	0x36
 13252 3929 B6010000 		.4byte	0x1b6
 13253 392d 00       		.byte	0
 13254 392e 0D       		.uleb128 0xd
 13255 392f 240D0000 		.4byte	.LASF765
 13256 3933 39       		.byte	0x39
ARM GAS  C:\Users\Moi\AppData\Local\Temp\ccAXdvuJ.s 			page 239


 13257 3934 38       		.byte	0x38
 13258 3935 B6010000 		.4byte	0x1b6
 13259 3939 04       		.byte	0x4
 13260 393a 0D       		.uleb128 0xd
 13261 393b DD020000 		.4byte	.LASF766
 13262 393f 39       		.byte	0x39
 13263 3940 39       		.byte	0x39
 13264 3941 B6010000 		.4byte	0x1b6
 13265 3945 08       		.byte	0x8
 13266 3946 0D       		.uleb128 0xd
 13267 3947 861B0000 		.4byte	.LASF767
 13268 394b 39       		.byte	0x39
 13269 394c 3A       		.byte	0x3a
 13270 394d B6010000 		.4byte	0x1b6
 13271 3951 0C       		.byte	0xc
 13272 3952 0D       		.uleb128 0xd
 13273 3953 5A130000 		.4byte	.LASF768
 13274 3957 39       		.byte	0x39
 13275 3958 3C       		.byte	0x3c
 13276 3959 B6010000 		.4byte	0x1b6
 13277 395d 10       		.byte	0x10
 13278 395e 0D       		.uleb128 0xd
 13279 395f 770D0000 		.4byte	.LASF769
 13280 3963 39       		.byte	0x39
 13281 3964 3E       		.byte	0x3e
 13282 3965 B6010000 		.4byte	0x1b6
 13283 3969 14       		.byte	0x14
 13284 396a 0D       		.uleb128 0xd
 13285 396b 8A0D0000 		.4byte	.LASF770
 13286 396f 39       		.byte	0x39
 13287 3970 3F       		.byte	0x3f
 13288 3971 B6010000 		.4byte	0x1b6
 13289 3975 18       		.byte	0x18
 13290 3976 0D       		.uleb128 0xd
 13291 3977 18040000 		.4byte	.LASF771
 13292 397b 39       		.byte	0x39
 13293 397c 40       		.byte	0x40
 13294 397d B6010000 		.4byte	0x1b6
 13295 3981 1C       		.byte	0x1c
 13296 3982 00       		.byte	0
 13297 3983 02       		.uleb128 0x2
 13298 3984 361B0000 		.4byte	.LASF772
 13299 3988 39       		.byte	0x39
 13300 3989 41       		.byte	0x41
 13301 398a 1A390000 		.4byte	0x391a
 13302 398e 0C       		.uleb128 0xc
 13303 398f 20       		.byte	0x20
 13304 3990 39       		.byte	0x39
 13305 3991 46       		.byte	0x46
 13306 3992 F7390000 		.4byte	0x39f7
 13307 3996 0D       		.uleb128 0xd
 13308 3997 E10D0000 		.4byte	.LASF773
 13309 399b 39       		.byte	0x39
 13310 399c 47       		.byte	0x47
 13311 399d B6010000 		.4byte	0x1b6
 13312 39a1 00       		.byte	0
 13313 39a2 0D       		.uleb128 0xd
ARM GAS  C:\Users\Moi\AppData\Local\Temp\ccAXdvuJ.s 			page 240


 13314 39a3 59110000 		.4byte	.LASF774
 13315 39a7 39       		.byte	0x39
 13316 39a8 49       		.byte	0x49
 13317 39a9 B6010000 		.4byte	0x1b6
 13318 39ad 04       		.byte	0x4
 13319 39ae 0D       		.uleb128 0xd
 13320 39af A4200000 		.4byte	.LASF775
 13321 39b3 39       		.byte	0x39
 13322 39b4 4A       		.byte	0x4a
 13323 39b5 B6010000 		.4byte	0x1b6
 13324 39b9 08       		.byte	0x8
 13325 39ba 0D       		.uleb128 0xd
 13326 39bb 7D110000 		.4byte	.LASF776
 13327 39bf 39       		.byte	0x39
 13328 39c0 4C       		.byte	0x4c
 13329 39c1 B6010000 		.4byte	0x1b6
 13330 39c5 0C       		.byte	0xc
 13331 39c6 0D       		.uleb128 0xd
 13332 39c7 87160000 		.4byte	.LASF777
 13333 39cb 39       		.byte	0x39
 13334 39cc 4D       		.byte	0x4d
 13335 39cd B6010000 		.4byte	0x1b6
 13336 39d1 10       		.byte	0x10
 13337 39d2 0D       		.uleb128 0xd
 13338 39d3 770D0000 		.4byte	.LASF769
 13339 39d7 39       		.byte	0x39
 13340 39d8 4F       		.byte	0x4f
 13341 39d9 B6010000 		.4byte	0x1b6
 13342 39dd 14       		.byte	0x14
 13343 39de 0D       		.uleb128 0xd
 13344 39df 38070000 		.4byte	.LASF778
 13345 39e3 39       		.byte	0x39
 13346 39e4 50       		.byte	0x50
 13347 39e5 B6010000 		.4byte	0x1b6
 13348 39e9 18       		.byte	0x18
 13349 39ea 0D       		.uleb128 0xd
 13350 39eb 73200000 		.4byte	.LASF779
 13351 39ef 39       		.byte	0x39
 13352 39f0 52       		.byte	0x52
 13353 39f1 B6010000 		.4byte	0x1b6
 13354 39f5 1C       		.byte	0x1c
 13355 39f6 00       		.byte	0
 13356 39f7 02       		.uleb128 0x2
 13357 39f8 75080000 		.4byte	.LASF780
 13358 39fc 39       		.byte	0x39
 13359 39fd 53       		.byte	0x53
 13360 39fe 8E390000 		.4byte	0x398e
 13361 3a02 0C       		.uleb128 0xc
 13362 3a03 20       		.byte	0x20
 13363 3a04 39       		.byte	0x39
 13364 3a05 58       		.byte	0x58
 13365 3a06 6B3A0000 		.4byte	0x3a6b
 13366 3a0a 0D       		.uleb128 0xd
 13367 3a0b 2B140000 		.4byte	.LASF781
 13368 3a0f 39       		.byte	0x39
 13369 3a10 59       		.byte	0x59
 13370 3a11 B6010000 		.4byte	0x1b6
ARM GAS  C:\Users\Moi\AppData\Local\Temp\ccAXdvuJ.s 			page 241


 13371 3a15 00       		.byte	0
 13372 3a16 0D       		.uleb128 0xd
 13373 3a17 59110000 		.4byte	.LASF774
 13374 3a1b 39       		.byte	0x39
 13375 3a1c 5B       		.byte	0x5b
 13376 3a1d B6010000 		.4byte	0x1b6
 13377 3a21 04       		.byte	0x4
 13378 3a22 0D       		.uleb128 0xd
 13379 3a23 05180000 		.4byte	.LASF782
 13380 3a27 39       		.byte	0x39
 13381 3a28 5C       		.byte	0x5c
 13382 3a29 B6010000 		.4byte	0x1b6
 13383 3a2d 08       		.byte	0x8
 13384 3a2e 0D       		.uleb128 0xd
 13385 3a2f 7D110000 		.4byte	.LASF776
 13386 3a33 39       		.byte	0x39
 13387 3a34 5E       		.byte	0x5e
 13388 3a35 B6010000 		.4byte	0x1b6
 13389 3a39 0C       		.byte	0xc
 13390 3a3a 0D       		.uleb128 0xd
 13391 3a3b D4210000 		.4byte	.LASF783
 13392 3a3f 39       		.byte	0x39
 13393 3a40 5F       		.byte	0x5f
 13394 3a41 B6010000 		.4byte	0x1b6
 13395 3a45 10       		.byte	0x10
 13396 3a46 0D       		.uleb128 0xd
 13397 3a47 770D0000 		.4byte	.LASF769
 13398 3a4b 39       		.byte	0x39
 13399 3a4c 61       		.byte	0x61
 13400 3a4d B6010000 		.4byte	0x1b6
 13401 3a51 14       		.byte	0x14
 13402 3a52 0D       		.uleb128 0xd
 13403 3a53 8A0D0000 		.4byte	.LASF770
 13404 3a57 39       		.byte	0x39
 13405 3a58 62       		.byte	0x62
 13406 3a59 B6010000 		.4byte	0x1b6
 13407 3a5d 18       		.byte	0x18
 13408 3a5e 0D       		.uleb128 0xd
 13409 3a5f 73200000 		.4byte	.LASF779
 13410 3a63 39       		.byte	0x39
 13411 3a64 63       		.byte	0x63
 13412 3a65 B6010000 		.4byte	0x1b6
 13413 3a69 1C       		.byte	0x1c
 13414 3a6a 00       		.byte	0
 13415 3a6b 02       		.uleb128 0x2
 13416 3a6c 0A080000 		.4byte	.LASF784
 13417 3a70 39       		.byte	0x39
 13418 3a71 64       		.byte	0x64
 13419 3a72 023A0000 		.4byte	0x3a02
 13420 3a76 2D       		.uleb128 0x2d
 13421 3a77 00100100 		.4byte	0x11000
 13422 3a7b 39       		.byte	0x39
 13423 3a7c 69       		.byte	0x69
 13424 3a7d 533D0000 		.4byte	0x3d53
 13425 3a81 0D       		.uleb128 0xd
 13426 3a82 17050000 		.4byte	.LASF785
 13427 3a86 39       		.byte	0x39
ARM GAS  C:\Users\Moi\AppData\Local\Temp\ccAXdvuJ.s 			page 242


 13428 3a87 6A       		.byte	0x6a
 13429 3a88 B6010000 		.4byte	0x1b6
 13430 3a8c 00       		.byte	0
 13431 3a8d 0D       		.uleb128 0xd
 13432 3a8e 060C0000 		.4byte	.LASF786
 13433 3a92 39       		.byte	0x39
 13434 3a93 6B       		.byte	0x6b
 13435 3a94 B6010000 		.4byte	0x1b6
 13436 3a98 04       		.byte	0x4
 13437 3a99 0D       		.uleb128 0xd
 13438 3a9a 87070000 		.4byte	.LASF787
 13439 3a9e 39       		.byte	0x39
 13440 3a9f 6C       		.byte	0x6c
 13441 3aa0 B6010000 		.4byte	0x1b6
 13442 3aa4 08       		.byte	0x8
 13443 3aa5 0D       		.uleb128 0xd
 13444 3aa6 60250000 		.4byte	.LASF788
 13445 3aaa 39       		.byte	0x39
 13446 3aab 6D       		.byte	0x6d
 13447 3aac B6010000 		.4byte	0x1b6
 13448 3ab0 0C       		.byte	0xc
 13449 3ab1 0D       		.uleb128 0xd
 13450 3ab2 23220000 		.4byte	.LASF789
 13451 3ab6 39       		.byte	0x39
 13452 3ab7 6E       		.byte	0x6e
 13453 3ab8 B6010000 		.4byte	0x1b6
 13454 3abc 10       		.byte	0x10
 13455 3abd 0D       		.uleb128 0xd
 13456 3abe D8030000 		.4byte	.LASF790
 13457 3ac2 39       		.byte	0x39
 13458 3ac3 6F       		.byte	0x6f
 13459 3ac4 B6010000 		.4byte	0x1b6
 13460 3ac8 14       		.byte	0x14
 13461 3ac9 0D       		.uleb128 0xd
 13462 3aca 1D1A0000 		.4byte	.LASF791
 13463 3ace 39       		.byte	0x39
 13464 3acf 70       		.byte	0x70
 13465 3ad0 B6010000 		.4byte	0x1b6
 13466 3ad4 18       		.byte	0x18
 13467 3ad5 0D       		.uleb128 0xd
 13468 3ad6 25080000 		.4byte	.LASF792
 13469 3ada 39       		.byte	0x39
 13470 3adb 71       		.byte	0x71
 13471 3adc B6010000 		.4byte	0x1b6
 13472 3ae0 1C       		.byte	0x1c
 13473 3ae1 0D       		.uleb128 0xd
 13474 3ae2 1D080000 		.4byte	.LASF793
 13475 3ae6 39       		.byte	0x39
 13476 3ae7 73       		.byte	0x73
 13477 3ae8 B6010000 		.4byte	0x1b6
 13478 3aec 20       		.byte	0x20
 13479 3aed 0D       		.uleb128 0xd
 13480 3aee A0190000 		.4byte	.LASF794
 13481 3af2 39       		.byte	0x39
 13482 3af3 75       		.byte	0x75
 13483 3af4 B6010000 		.4byte	0x1b6
 13484 3af8 24       		.byte	0x24
ARM GAS  C:\Users\Moi\AppData\Local\Temp\ccAXdvuJ.s 			page 243


 13485 3af9 0D       		.uleb128 0xd
 13486 3afa D9000000 		.4byte	.LASF795
 13487 3afe 39       		.byte	0x39
 13488 3aff 76       		.byte	0x76
 13489 3b00 B6010000 		.4byte	0x1b6
 13490 3b04 28       		.byte	0x28
 13491 3b05 0D       		.uleb128 0xd
 13492 3b06 251A0000 		.4byte	.LASF796
 13493 3b0a 39       		.byte	0x39
 13494 3b0b 78       		.byte	0x78
 13495 3b0c B6010000 		.4byte	0x1b6
 13496 3b10 2C       		.byte	0x2c
 13497 3b11 0D       		.uleb128 0xd
 13498 3b12 B60E0000 		.4byte	.LASF797
 13499 3b16 39       		.byte	0x39
 13500 3b17 7A       		.byte	0x7a
 13501 3b18 B6010000 		.4byte	0x1b6
 13502 3b1c 30       		.byte	0x30
 13503 3b1d 0D       		.uleb128 0xd
 13504 3b1e C4230000 		.4byte	.LASF798
 13505 3b22 39       		.byte	0x39
 13506 3b23 7B       		.byte	0x7b
 13507 3b24 B6010000 		.4byte	0x1b6
 13508 3b28 34       		.byte	0x34
 13509 3b29 0D       		.uleb128 0xd
 13510 3b2a EE010000 		.4byte	.LASF799
 13511 3b2e 39       		.byte	0x39
 13512 3b2f 7C       		.byte	0x7c
 13513 3b30 B6010000 		.4byte	0x1b6
 13514 3b34 38       		.byte	0x38
 13515 3b35 13       		.uleb128 0x13
 13516 3b36 43494400 		.ascii	"CID\000"
 13517 3b3a 39       		.byte	0x39
 13518 3b3b 7D       		.byte	0x7d
 13519 3b3c B6010000 		.4byte	0x1b6
 13520 3b40 3C       		.byte	0x3c
 13521 3b41 0D       		.uleb128 0xd
 13522 3b42 5B100000 		.4byte	.LASF800
 13523 3b46 39       		.byte	0x39
 13524 3b47 7E       		.byte	0x7e
 13525 3b48 633D0000 		.4byte	0x3d63
 13526 3b4c 40       		.byte	0x40
 13527 3b4d 15       		.uleb128 0x15
 13528 3b4e AF220000 		.4byte	.LASF801
 13529 3b52 39       		.byte	0x39
 13530 3b53 7F       		.byte	0x7f
 13531 3b54 B6010000 		.4byte	0x1b6
 13532 3b58 0001     		.2byte	0x100
 13533 3b5a 15       		.uleb128 0x15
 13534 3b5b 6B020000 		.4byte	.LASF802
 13535 3b5f 39       		.byte	0x39
 13536 3b60 81       		.byte	0x81
 13537 3b61 24190000 		.4byte	0x1924
 13538 3b65 0401     		.2byte	0x104
 13539 3b67 15       		.uleb128 0x15
 13540 3b68 CF130000 		.4byte	.LASF803
 13541 3b6c 39       		.byte	0x39
ARM GAS  C:\Users\Moi\AppData\Local\Temp\ccAXdvuJ.s 			page 244


 13542 3b6d 83       		.byte	0x83
 13543 3b6e 783D0000 		.4byte	0x3d78
 13544 3b72 4001     		.2byte	0x140
 13545 3b74 15       		.uleb128 0x15
 13546 3b75 9B170000 		.4byte	.LASF804
 13547 3b79 39       		.byte	0x39
 13548 3b7a 84       		.byte	0x84
 13549 3b7b B6010000 		.4byte	0x1b6
 13550 3b7f 0004     		.2byte	0x400
 13551 3b81 15       		.uleb128 0x15
 13552 3b82 F2240000 		.4byte	.LASF805
 13553 3b86 39       		.byte	0x39
 13554 3b87 85       		.byte	0x85
 13555 3b88 B6010000 		.4byte	0x1b6
 13556 3b8c 0404     		.2byte	0x404
 13557 3b8e 15       		.uleb128 0x15
 13558 3b8f 4E040000 		.4byte	.LASF806
 13559 3b93 39       		.byte	0x39
 13560 3b94 86       		.byte	0x86
 13561 3b95 B6010000 		.4byte	0x1b6
 13562 3b99 0804     		.2byte	0x408
 13563 3b9b 15       		.uleb128 0x15
 13564 3b9c 1A220000 		.4byte	.LASF807
 13565 3ba0 39       		.byte	0x39
 13566 3ba1 88       		.byte	0x88
 13567 3ba2 B6010000 		.4byte	0x1b6
 13568 3ba6 0C04     		.2byte	0x40c
 13569 3ba8 15       		.uleb128 0x15
 13570 3ba9 45030000 		.4byte	.LASF808
 13571 3bad 39       		.byte	0x39
 13572 3bae 89       		.byte	0x89
 13573 3baf B6010000 		.4byte	0x1b6
 13574 3bb3 1004     		.2byte	0x410
 13575 3bb5 15       		.uleb128 0x15
 13576 3bb6 2B040000 		.4byte	.LASF809
 13577 3bba 39       		.byte	0x39
 13578 3bbb 8B       		.byte	0x8b
 13579 3bbc B6010000 		.4byte	0x1b6
 13580 3bc0 1404     		.2byte	0x414
 13581 3bc2 15       		.uleb128 0x15
 13582 3bc3 1A0C0000 		.4byte	.LASF810
 13583 3bc7 39       		.byte	0x39
 13584 3bc8 8D       		.byte	0x8d
 13585 3bc9 B6010000 		.4byte	0x1b6
 13586 3bcd 1804     		.2byte	0x418
 13587 3bcf 15       		.uleb128 0x15
 13588 3bd0 BD1C0000 		.4byte	.LASF811
 13589 3bd4 39       		.byte	0x39
 13590 3bd5 8F       		.byte	0x8f
 13591 3bd6 8D3D0000 		.4byte	0x3d8d
 13592 3bda 1C04     		.2byte	0x41c
 13593 3bdc 15       		.uleb128 0x15
 13594 3bdd D8020000 		.4byte	.LASF812
 13595 3be1 39       		.byte	0x39
 13596 3be2 90       		.byte	0x90
 13597 3be3 B6010000 		.4byte	0x1b6
 13598 3be7 4004     		.2byte	0x440
ARM GAS  C:\Users\Moi\AppData\Local\Temp\ccAXdvuJ.s 			page 245


 13599 3be9 15       		.uleb128 0x15
 13600 3bea A91F0000 		.4byte	.LASF813
 13601 3bee 39       		.byte	0x39
 13602 3bef 92       		.byte	0x92
 13603 3bf0 A23D0000 		.4byte	0x3da2
 13604 3bf4 4404     		.2byte	0x444
 13605 3bf6 2E       		.uleb128 0x2e
 13606 3bf7 686300   		.ascii	"hc\000"
 13607 3bfa 39       		.byte	0x39
 13608 3bfb 93       		.byte	0x93
 13609 3bfc A73D0000 		.4byte	0x3da7
 13610 3c00 0005     		.2byte	0x500
 13611 3c02 15       		.uleb128 0x15
 13612 3c03 6B220000 		.4byte	.LASF814
 13613 3c07 39       		.byte	0x39
 13614 3c08 94       		.byte	0x94
 13615 3c09 C73D0000 		.4byte	0x3dc7
 13616 3c0d 0007     		.2byte	0x700
 13617 3c0f 15       		.uleb128 0x15
 13618 3c10 071A0000 		.4byte	.LASF815
 13619 3c14 39       		.byte	0x39
 13620 3c15 95       		.byte	0x95
 13621 3c16 B6010000 		.4byte	0x1b6
 13622 3c1a 0008     		.2byte	0x800
 13623 3c1c 15       		.uleb128 0x15
 13624 3c1d 62230000 		.4byte	.LASF816
 13625 3c21 39       		.byte	0x39
 13626 3c22 96       		.byte	0x96
 13627 3c23 B6010000 		.4byte	0x1b6
 13628 3c27 0408     		.2byte	0x804
 13629 3c29 15       		.uleb128 0x15
 13630 3c2a DE050000 		.4byte	.LASF817
 13631 3c2e 39       		.byte	0x39
 13632 3c2f 97       		.byte	0x97
 13633 3c30 B6010000 		.4byte	0x1b6
 13634 3c34 0808     		.2byte	0x808
 13635 3c36 15       		.uleb128 0x15
 13636 3c37 D9040000 		.4byte	.LASF818
 13637 3c3b 39       		.byte	0x39
 13638 3c3c 98       		.byte	0x98
 13639 3c3d B6010000 		.4byte	0x1b6
 13640 3c41 0C08     		.2byte	0x80c
 13641 3c43 15       		.uleb128 0x15
 13642 3c44 FE0B0000 		.4byte	.LASF819
 13643 3c48 39       		.byte	0x39
 13644 3c49 99       		.byte	0x99
 13645 3c4a B6010000 		.4byte	0x1b6
 13646 3c4e 1008     		.2byte	0x810
 13647 3c50 15       		.uleb128 0x15
 13648 3c51 C5200000 		.4byte	.LASF820
 13649 3c55 39       		.byte	0x39
 13650 3c56 9B       		.byte	0x9b
 13651 3c57 B6010000 		.4byte	0x1b6
 13652 3c5b 1408     		.2byte	0x814
 13653 3c5d 15       		.uleb128 0x15
 13654 3c5e 34210000 		.4byte	.LASF821
 13655 3c62 39       		.byte	0x39
ARM GAS  C:\Users\Moi\AppData\Local\Temp\ccAXdvuJ.s 			page 246


 13656 3c63 9D       		.byte	0x9d
 13657 3c64 B6010000 		.4byte	0x1b6
 13658 3c68 1808     		.2byte	0x818
 13659 3c6a 15       		.uleb128 0x15
 13660 3c6b 8A1E0000 		.4byte	.LASF822
 13661 3c6f 39       		.byte	0x39
 13662 3c70 9F       		.byte	0x9f
 13663 3c71 B6010000 		.4byte	0x1b6
 13664 3c75 1C08     		.2byte	0x81c
 13665 3c77 15       		.uleb128 0x15
 13666 3c78 4E060000 		.4byte	.LASF823
 13667 3c7c 39       		.byte	0x39
 13668 3c7d A1       		.byte	0xa1
 13669 3c7e B6010000 		.4byte	0x1b6
 13670 3c82 2008     		.2byte	0x820
 13671 3c84 15       		.uleb128 0x15
 13672 3c85 42050000 		.4byte	.LASF824
 13673 3c89 39       		.byte	0x39
 13674 3c8a A2       		.byte	0xa2
 13675 3c8b B6010000 		.4byte	0x1b6
 13676 3c8f 2408     		.2byte	0x824
 13677 3c91 15       		.uleb128 0x15
 13678 3c92 141A0000 		.4byte	.LASF825
 13679 3c96 39       		.byte	0x39
 13680 3c97 A3       		.byte	0xa3
 13681 3c98 B6010000 		.4byte	0x1b6
 13682 3c9c 2808     		.2byte	0x828
 13683 3c9e 15       		.uleb128 0x15
 13684 3c9f D40E0000 		.4byte	.LASF826
 13685 3ca3 39       		.byte	0x39
 13686 3ca4 A5       		.byte	0xa5
 13687 3ca5 B6010000 		.4byte	0x1b6
 13688 3ca9 2C08     		.2byte	0x82c
 13689 3cab 15       		.uleb128 0x15
 13690 3cac E1060000 		.4byte	.LASF827
 13691 3cb0 39       		.byte	0x39
 13692 3cb1 A7       		.byte	0xa7
 13693 3cb2 B6010000 		.4byte	0x1b6
 13694 3cb6 3008     		.2byte	0x830
 13695 3cb8 15       		.uleb128 0x15
 13696 3cb9 C70D0000 		.4byte	.LASF828
 13697 3cbd 39       		.byte	0x39
 13698 3cbe A8       		.byte	0xa8
 13699 3cbf B6010000 		.4byte	0x1b6
 13700 3cc3 3408     		.2byte	0x834
 13701 3cc5 15       		.uleb128 0x15
 13702 3cc6 EF060000 		.4byte	.LASF829
 13703 3cca 39       		.byte	0x39
 13704 3ccb AA       		.byte	0xaa
 13705 3ccc B6010000 		.4byte	0x1b6
 13706 3cd0 3808     		.2byte	0x838
 13707 3cd2 15       		.uleb128 0x15
 13708 3cd3 0E070000 		.4byte	.LASF830
 13709 3cd7 39       		.byte	0x39
 13710 3cd8 AB       		.byte	0xab
 13711 3cd9 B6010000 		.4byte	0x1b6
 13712 3cdd 3C08     		.2byte	0x83c
ARM GAS  C:\Users\Moi\AppData\Local\Temp\ccAXdvuJ.s 			page 247


 13713 3cdf 15       		.uleb128 0x15
 13714 3ce0 A5070000 		.4byte	.LASF831
 13715 3ce4 39       		.byte	0x39
 13716 3ce5 AC       		.byte	0xac
 13717 3ce6 DC3D0000 		.4byte	0x3ddc
 13718 3cea 4008     		.2byte	0x840
 13719 3cec 15       		.uleb128 0x15
 13720 3ced 410D0000 		.4byte	.LASF832
 13721 3cf1 39       		.byte	0x39
 13722 3cf2 AD       		.byte	0xad
 13723 3cf3 DC3D0000 		.4byte	0x3ddc
 13724 3cf7 8008     		.2byte	0x880
 13725 3cf9 15       		.uleb128 0x15
 13726 3cfa 6A110000 		.4byte	.LASF833
 13727 3cfe 39       		.byte	0x39
 13728 3cff AE       		.byte	0xae
 13729 3d00 DC3D0000 		.4byte	0x3ddc
 13730 3d04 C008     		.2byte	0x8c0
 13731 3d06 2E       		.uleb128 0x2e
 13732 3d07 696500   		.ascii	"ie\000"
 13733 3d0a 39       		.byte	0x39
 13734 3d0b AF       		.byte	0xaf
 13735 3d0c E13D0000 		.4byte	0x3de1
 13736 3d10 0009     		.2byte	0x900
 13737 3d12 2E       		.uleb128 0x2e
 13738 3d13 6F6500   		.ascii	"oe\000"
 13739 3d16 39       		.byte	0x39
 13740 3d17 B0       		.byte	0xb0
 13741 3d18 F13D0000 		.4byte	0x3df1
 13742 3d1c 000B     		.2byte	0xb00
 13743 3d1e 15       		.uleb128 0x15
 13744 3d1f 830B0000 		.4byte	.LASF834
 13745 3d23 39       		.byte	0x39
 13746 3d24 B1       		.byte	0xb1
 13747 3d25 C73D0000 		.4byte	0x3dc7
 13748 3d29 000D     		.2byte	0xd00
 13749 3d2b 15       		.uleb128 0x15
 13750 3d2c 7A230000 		.4byte	.LASF835
 13751 3d30 39       		.byte	0x39
 13752 3d31 B2       		.byte	0xb2
 13753 3d32 B6010000 		.4byte	0x1b6
 13754 3d36 000E     		.2byte	0xe00
 13755 3d38 15       		.uleb128 0x15
 13756 3d39 09170000 		.4byte	.LASF836
 13757 3d3d 39       		.byte	0x39
 13758 3d3e B4       		.byte	0xb4
 13759 3d3f 113E0000 		.4byte	0x3e11
 13760 3d43 040E     		.2byte	0xe04
 13761 3d45 15       		.uleb128 0x15
 13762 3d46 A1090000 		.4byte	.LASF339
 13763 3d4a 39       		.byte	0x39
 13764 3d4b B5       		.byte	0xb5
 13765 3d4c 2D3E0000 		.4byte	0x3e2d
 13766 3d50 0010     		.2byte	0x1000
 13767 3d52 00       		.byte	0
 13768 3d53 0A       		.uleb128 0xa
 13769 3d54 B6010000 		.4byte	0x1b6
ARM GAS  C:\Users\Moi\AppData\Local\Temp\ccAXdvuJ.s 			page 248


 13770 3d58 633D0000 		.4byte	0x3d63
 13771 3d5c 0B       		.uleb128 0xb
 13772 3d5d B1000000 		.4byte	0xb1
 13773 3d61 2F       		.byte	0x2f
 13774 3d62 00       		.byte	0
 13775 3d63 10       		.uleb128 0x10
 13776 3d64 533D0000 		.4byte	0x3d53
 13777 3d68 0A       		.uleb128 0xa
 13778 3d69 B6010000 		.4byte	0x1b6
 13779 3d6d 783D0000 		.4byte	0x3d78
 13780 3d71 0B       		.uleb128 0xb
 13781 3d72 B1000000 		.4byte	0xb1
 13782 3d76 AF       		.byte	0xaf
 13783 3d77 00       		.byte	0
 13784 3d78 10       		.uleb128 0x10
 13785 3d79 683D0000 		.4byte	0x3d68
 13786 3d7d 0A       		.uleb128 0xa
 13787 3d7e B6010000 		.4byte	0x1b6
 13788 3d82 8D3D0000 		.4byte	0x3d8d
 13789 3d86 0B       		.uleb128 0xb
 13790 3d87 B1000000 		.4byte	0xb1
 13791 3d8b 08       		.byte	0x8
 13792 3d8c 00       		.byte	0
 13793 3d8d 10       		.uleb128 0x10
 13794 3d8e 7D3D0000 		.4byte	0x3d7d
 13795 3d92 0A       		.uleb128 0xa
 13796 3d93 B6010000 		.4byte	0x1b6
 13797 3d97 A23D0000 		.4byte	0x3da2
 13798 3d9b 0B       		.uleb128 0xb
 13799 3d9c B1000000 		.4byte	0xb1
 13800 3da0 2E       		.byte	0x2e
 13801 3da1 00       		.byte	0
 13802 3da2 10       		.uleb128 0x10
 13803 3da3 923D0000 		.4byte	0x3d92
 13804 3da7 0A       		.uleb128 0xa
 13805 3da8 83390000 		.4byte	0x3983
 13806 3dac B73D0000 		.4byte	0x3db7
 13807 3db0 0B       		.uleb128 0xb
 13808 3db1 B1000000 		.4byte	0xb1
 13809 3db5 0F       		.byte	0xf
 13810 3db6 00       		.byte	0
 13811 3db7 0A       		.uleb128 0xa
 13812 3db8 B6010000 		.4byte	0x1b6
 13813 3dbc C73D0000 		.4byte	0x3dc7
 13814 3dc0 0B       		.uleb128 0xb
 13815 3dc1 B1000000 		.4byte	0xb1
 13816 3dc5 3F       		.byte	0x3f
 13817 3dc6 00       		.byte	0
 13818 3dc7 10       		.uleb128 0x10
 13819 3dc8 B73D0000 		.4byte	0x3db7
 13820 3dcc 0A       		.uleb128 0xa
 13821 3dcd B6010000 		.4byte	0x1b6
 13822 3dd1 DC3D0000 		.4byte	0x3ddc
 13823 3dd5 0B       		.uleb128 0xb
 13824 3dd6 B1000000 		.4byte	0xb1
 13825 3dda 0F       		.byte	0xf
 13826 3ddb 00       		.byte	0
ARM GAS  C:\Users\Moi\AppData\Local\Temp\ccAXdvuJ.s 			page 249


 13827 3ddc 10       		.uleb128 0x10
 13828 3ddd CC3D0000 		.4byte	0x3dcc
 13829 3de1 0A       		.uleb128 0xa
 13830 3de2 F7390000 		.4byte	0x39f7
 13831 3de6 F13D0000 		.4byte	0x3df1
 13832 3dea 0B       		.uleb128 0xb
 13833 3deb B1000000 		.4byte	0xb1
 13834 3def 0F       		.byte	0xf
 13835 3df0 00       		.byte	0
 13836 3df1 0A       		.uleb128 0xa
 13837 3df2 6B3A0000 		.4byte	0x3a6b
 13838 3df6 013E0000 		.4byte	0x3e01
 13839 3dfa 0B       		.uleb128 0xb
 13840 3dfb B1000000 		.4byte	0xb1
 13841 3dff 0F       		.byte	0xf
 13842 3e00 00       		.byte	0
 13843 3e01 0A       		.uleb128 0xa
 13844 3e02 B6010000 		.4byte	0x1b6
 13845 3e06 113E0000 		.4byte	0x3e11
 13846 3e0a 0B       		.uleb128 0xb
 13847 3e0b B1000000 		.4byte	0xb1
 13848 3e0f 7E       		.byte	0x7e
 13849 3e10 00       		.byte	0
 13850 3e11 10       		.uleb128 0x10
 13851 3e12 013E0000 		.4byte	0x3e01
 13852 3e16 0A       		.uleb128 0xa
 13853 3e17 B6010000 		.4byte	0x1b6
 13854 3e1b 2D3E0000 		.4byte	0x3e2d
 13855 3e1f 0B       		.uleb128 0xb
 13856 3e20 B1000000 		.4byte	0xb1
 13857 3e24 0F       		.byte	0xf
 13858 3e25 2F       		.uleb128 0x2f
 13859 3e26 B1000000 		.4byte	0xb1
 13860 3e2a FF03     		.2byte	0x3ff
 13861 3e2c 00       		.byte	0
 13862 3e2d 10       		.uleb128 0x10
 13863 3e2e 163E0000 		.4byte	0x3e16
 13864 3e32 02       		.uleb128 0x2
 13865 3e33 8D250000 		.4byte	.LASF837
 13866 3e37 39       		.byte	0x39
 13867 3e38 B6       		.byte	0xb6
 13868 3e39 763A0000 		.4byte	0x3a76
 13869 3e3d 0C       		.uleb128 0xc
 13870 3e3e 0C       		.byte	0xc
 13871 3e3f 38       		.byte	0x38
 13872 3e40 C6       		.byte	0xc6
 13873 3e41 6A3E0000 		.4byte	0x3e6a
 13874 3e45 0D       		.uleb128 0xd
 13875 3e46 28090000 		.4byte	.LASF838
 13876 3e4a 38       		.byte	0x38
 13877 3e4b C7       		.byte	0xc7
 13878 3e4c AB010000 		.4byte	0x1ab
 13879 3e50 00       		.byte	0
 13880 3e51 0D       		.uleb128 0xd
 13881 3e52 5A0B0000 		.4byte	.LASF839
 13882 3e56 38       		.byte	0x38
 13883 3e57 C8       		.byte	0xc8
ARM GAS  C:\Users\Moi\AppData\Local\Temp\ccAXdvuJ.s 			page 250


 13884 3e58 AB010000 		.4byte	0x1ab
 13885 3e5c 04       		.byte	0x4
 13886 3e5d 0D       		.uleb128 0xd
 13887 3e5e 340F0000 		.4byte	.LASF840
 13888 3e62 38       		.byte	0x38
 13889 3e63 C9       		.byte	0xc9
 13890 3e64 AB010000 		.4byte	0x1ab
 13891 3e68 08       		.byte	0x8
 13892 3e69 00       		.byte	0
 13893 3e6a 02       		.uleb128 0x2
 13894 3e6b 700B0000 		.4byte	.LASF841
 13895 3e6f 38       		.byte	0x38
 13896 3e70 CA       		.byte	0xca
 13897 3e71 3D3E0000 		.4byte	0x3e3d
 13898 3e75 0F       		.uleb128 0xf
 13899 3e76 6A3E0000 		.4byte	0x3e6a
 13900 3e7a 0C       		.uleb128 0xc
 13901 3e7b 04       		.byte	0x4
 13902 3e7c 38       		.byte	0x38
 13903 3e7d DD       		.byte	0xdd
 13904 3e7e 8F3E0000 		.4byte	0x3e8f
 13905 3e82 0D       		.uleb128 0xd
 13906 3e83 74230000 		.4byte	.LASF842
 13907 3e87 38       		.byte	0x38
 13908 3e88 E1       		.byte	0xe1
 13909 3e89 461F0000 		.4byte	0x1f46
 13910 3e8d 00       		.byte	0
 13911 3e8e 00       		.byte	0
 13912 3e8f 0C       		.uleb128 0xc
 13913 3e90 04       		.byte	0x4
 13914 3e91 38       		.byte	0x38
 13915 3e92 E3       		.byte	0xe3
 13916 3e93 A43E0000 		.4byte	0x3ea4
 13917 3e97 0D       		.uleb128 0xd
 13918 3e98 A6090000 		.4byte	.LASF528
 13919 3e9c 38       		.byte	0x38
 13920 3e9d E7       		.byte	0xe7
 13921 3e9e A43E0000 		.4byte	0x3ea4
 13922 3ea2 00       		.byte	0
 13923 3ea3 00       		.byte	0
 13924 3ea4 05       		.uleb128 0x5
 13925 3ea5 04       		.byte	0x4
 13926 3ea6 221F0000 		.4byte	0x1f22
 13927 3eaa 08       		.uleb128 0x8
 13928 3eab 04       		.byte	0x4
 13929 3eac 38       		.byte	0x38
 13930 3ead DC       		.byte	0xdc
 13931 3eae C93E0000 		.4byte	0x3ec9
 13932 3eb2 09       		.uleb128 0x9
 13933 3eb3 DE1F0000 		.4byte	.LASF843
 13934 3eb7 38       		.byte	0x38
 13935 3eb8 E2       		.byte	0xe2
 13936 3eb9 7A3E0000 		.4byte	0x3e7a
 13937 3ebd 09       		.uleb128 0x9
 13938 3ebe E01E0000 		.4byte	.LASF844
 13939 3ec2 38       		.byte	0x38
 13940 3ec3 E8       		.byte	0xe8
ARM GAS  C:\Users\Moi\AppData\Local\Temp\ccAXdvuJ.s 			page 251


 13941 3ec4 8F3E0000 		.4byte	0x3e8f
 13942 3ec8 00       		.byte	0
 13943 3ec9 0C       		.uleb128 0xc
 13944 3eca 14       		.byte	0x14
 13945 3ecb 38       		.byte	0x38
 13946 3ecc CF       		.byte	0xcf
 13947 3ecd 0E3F0000 		.4byte	0x3f0e
 13948 3ed1 0D       		.uleb128 0xd
 13949 3ed2 EE070000 		.4byte	.LASF845
 13950 3ed6 38       		.byte	0x38
 13951 3ed7 D3       		.byte	0xd3
 13952 3ed8 A2020000 		.4byte	0x2a2
 13953 3edc 00       		.byte	0
 13954 3edd 0D       		.uleb128 0xd
 13955 3ede 97120000 		.4byte	.LASF846
 13956 3ee2 38       		.byte	0x38
 13957 3ee3 D7       		.byte	0xd7
 13958 3ee4 B8000000 		.4byte	0xb8
 13959 3ee8 04       		.byte	0x4
 13960 3ee9 0D       		.uleb128 0xd
 13961 3eea 170B0000 		.4byte	.LASF847
 13962 3eee 38       		.byte	0x38
 13963 3eef DB       		.byte	0xdb
 13964 3ef0 B8000000 		.4byte	0xb8
 13965 3ef4 08       		.byte	0x8
 13966 3ef5 0D       		.uleb128 0xd
 13967 3ef6 AC080000 		.4byte	.LASF574
 13968 3efa 38       		.byte	0x38
 13969 3efb E9       		.byte	0xe9
 13970 3efc AA3E0000 		.4byte	0x3eaa
 13971 3f00 0C       		.byte	0xc
 13972 3f01 0D       		.uleb128 0xd
 13973 3f02 4C0F0000 		.4byte	.LASF848
 13974 3f06 38       		.byte	0x38
 13975 3f07 ED       		.byte	0xed
 13976 3f08 B8000000 		.4byte	0xb8
 13977 3f0c 10       		.byte	0x10
 13978 3f0d 00       		.byte	0
 13979 3f0e 02       		.uleb128 0x2
 13980 3f0f 63100000 		.4byte	.LASF849
 13981 3f13 38       		.byte	0x38
 13982 3f14 EE       		.byte	0xee
 13983 3f15 C93E0000 		.4byte	0x3ec9
 13984 3f19 1D       		.uleb128 0x1d
 13985 3f1a 04       		.byte	0x4
 13986 3f1b 38       		.byte	0x38
 13987 3f1c 0101     		.2byte	0x101
 13988 3f1e 303F0000 		.4byte	0x3f30
 13989 3f22 1A       		.uleb128 0x1a
 13990 3f23 930B0000 		.4byte	.LASF850
 13991 3f27 38       		.byte	0x38
 13992 3f28 0501     		.2byte	0x105
 13993 3f2a 111F0000 		.4byte	0x1f11
 13994 3f2e 00       		.byte	0
 13995 3f2f 00       		.byte	0
 13996 3f30 1D       		.uleb128 0x1d
 13997 3f31 04       		.byte	0x4
ARM GAS  C:\Users\Moi\AppData\Local\Temp\ccAXdvuJ.s 			page 252


 13998 3f32 38       		.byte	0x38
 13999 3f33 0701     		.2byte	0x107
 14000 3f35 473F0000 		.4byte	0x3f47
 14001 3f39 1A       		.uleb128 0x1a
 14002 3f3a 991F0000 		.4byte	.LASF529
 14003 3f3e 38       		.byte	0x38
 14004 3f3f 0B01     		.2byte	0x10b
 14005 3f41 473F0000 		.4byte	0x3f47
 14006 3f45 00       		.byte	0
 14007 3f46 00       		.byte	0
 14008 3f47 05       		.uleb128 0x5
 14009 3f48 04       		.byte	0x4
 14010 3f49 171F0000 		.4byte	0x1f17
 14011 3f4d 1E       		.uleb128 0x1e
 14012 3f4e 04       		.byte	0x4
 14013 3f4f 38       		.byte	0x38
 14014 3f50 0001     		.2byte	0x100
 14015 3f52 6F3F0000 		.4byte	0x3f6f
 14016 3f56 1F       		.uleb128 0x1f
 14017 3f57 DE1F0000 		.4byte	.LASF843
 14018 3f5b 38       		.byte	0x38
 14019 3f5c 0601     		.2byte	0x106
 14020 3f5e 193F0000 		.4byte	0x3f19
 14021 3f62 1F       		.uleb128 0x1f
 14022 3f63 E01E0000 		.4byte	.LASF844
 14023 3f67 38       		.byte	0x38
 14024 3f68 0C01     		.2byte	0x10c
 14025 3f6a 303F0000 		.4byte	0x3f30
 14026 3f6e 00       		.byte	0
 14027 3f6f 0C       		.uleb128 0xc
 14028 3f70 14       		.byte	0x14
 14029 3f71 38       		.byte	0x38
 14030 3f72 F3       		.byte	0xf3
 14031 3f73 B63F0000 		.4byte	0x3fb6
 14032 3f77 0D       		.uleb128 0xd
 14033 3f78 1C060000 		.4byte	.LASF851
 14034 3f7c 38       		.byte	0x38
 14035 3f7d F7       		.byte	0xf7
 14036 3f7e A2020000 		.4byte	0x2a2
 14037 3f82 00       		.byte	0
 14038 3f83 0D       		.uleb128 0xd
 14039 3f84 53130000 		.4byte	.LASF852
 14040 3f88 38       		.byte	0x38
 14041 3f89 FB       		.byte	0xfb
 14042 3f8a B8000000 		.4byte	0xb8
 14043 3f8e 04       		.byte	0x4
 14044 3f8f 0D       		.uleb128 0xd
 14045 3f90 87080000 		.4byte	.LASF853
 14046 3f94 38       		.byte	0x38
 14047 3f95 FF       		.byte	0xff
 14048 3f96 B8000000 		.4byte	0xb8
 14049 3f9a 08       		.byte	0x8
 14050 3f9b 1A       		.uleb128 0x1a
 14051 3f9c AC080000 		.4byte	.LASF574
 14052 3fa0 38       		.byte	0x38
 14053 3fa1 0D01     		.2byte	0x10d
 14054 3fa3 4D3F0000 		.4byte	0x3f4d
ARM GAS  C:\Users\Moi\AppData\Local\Temp\ccAXdvuJ.s 			page 253


 14055 3fa7 0C       		.byte	0xc
 14056 3fa8 1A       		.uleb128 0x1a
 14057 3fa9 4C0F0000 		.4byte	.LASF848
 14058 3fad 38       		.byte	0x38
 14059 3fae 1101     		.2byte	0x111
 14060 3fb0 B8000000 		.4byte	0xb8
 14061 3fb4 10       		.byte	0x10
 14062 3fb5 00       		.byte	0
 14063 3fb6 07       		.uleb128 0x7
 14064 3fb7 A91C0000 		.4byte	.LASF854
 14065 3fbb 38       		.byte	0x38
 14066 3fbc 1201     		.2byte	0x112
 14067 3fbe 6F3F0000 		.4byte	0x3f6f
 14068 3fc2 1D       		.uleb128 0x1d
 14069 3fc3 24       		.byte	0x24
 14070 3fc4 38       		.byte	0x38
 14071 3fc5 1801     		.2byte	0x118
 14072 3fc7 4E400000 		.4byte	0x404e
 14073 3fcb 1A       		.uleb128 0x1a
 14074 3fcc D6160000 		.4byte	.LASF855
 14075 3fd0 38       		.byte	0x38
 14076 3fd1 1C01     		.2byte	0x11c
 14077 3fd3 AB010000 		.4byte	0x1ab
 14078 3fd7 00       		.byte	0
 14079 3fd8 1A       		.uleb128 0x1a
 14080 3fd9 82090000 		.4byte	.LASF856
 14081 3fdd 38       		.byte	0x38
 14082 3fde 2701     		.2byte	0x127
 14083 3fe0 7F380000 		.4byte	0x387f
 14084 3fe4 04       		.byte	0x4
 14085 3fe5 1A       		.uleb128 0x1a
 14086 3fe6 FF170000 		.4byte	.LASF857
 14087 3fea 38       		.byte	0x38
 14088 3feb 2D01     		.2byte	0x12d
 14089 3fed 7F380000 		.4byte	0x387f
 14090 3ff1 08       		.byte	0x8
 14091 3ff2 1A       		.uleb128 0x1a
 14092 3ff3 130C0000 		.4byte	.LASF858
 14093 3ff7 38       		.byte	0x38
 14094 3ff8 3301     		.2byte	0x133
 14095 3ffa 7F380000 		.4byte	0x387f
 14096 3ffe 0C       		.byte	0xc
 14097 3fff 1A       		.uleb128 0x1a
 14098 4000 CB250000 		.4byte	.LASF859
 14099 4004 38       		.byte	0x38
 14100 4005 3901     		.2byte	0x139
 14101 4007 90010000 		.4byte	0x190
 14102 400b 10       		.byte	0x10
 14103 400c 1A       		.uleb128 0x1a
 14104 400d 790C0000 		.4byte	.LASF860
 14105 4011 38       		.byte	0x38
 14106 4012 3F01     		.2byte	0x13f
 14107 4014 90010000 		.4byte	0x190
 14108 4018 12       		.byte	0x12
 14109 4019 1A       		.uleb128 0x1a
 14110 401a 75240000 		.4byte	.LASF861
 14111 401e 38       		.byte	0x38
ARM GAS  C:\Users\Moi\AppData\Local\Temp\ccAXdvuJ.s 			page 254


 14112 401f 4401     		.2byte	0x144
 14113 4021 4E400000 		.4byte	0x404e
 14114 4025 14       		.byte	0x14
 14115 4026 1A       		.uleb128 0x1a
 14116 4027 1F0E0000 		.4byte	.LASF862
 14117 402b 38       		.byte	0x38
 14118 402c 4901     		.2byte	0x149
 14119 402e 54400000 		.4byte	0x4054
 14120 4032 18       		.byte	0x18
 14121 4033 1A       		.uleb128 0x1a
 14122 4034 F0110000 		.4byte	.LASF863
 14123 4038 38       		.byte	0x38
 14124 4039 5001     		.2byte	0x150
 14125 403b 90010000 		.4byte	0x190
 14126 403f 1C       		.byte	0x1c
 14127 4040 1A       		.uleb128 0x1a
 14128 4041 BA230000 		.4byte	.LASF864
 14129 4045 38       		.byte	0x38
 14130 4046 5601     		.2byte	0x156
 14131 4048 111F0000 		.4byte	0x1f11
 14132 404c 20       		.byte	0x20
 14133 404d 00       		.byte	0
 14134 404e 05       		.uleb128 0x5
 14135 404f 04       		.byte	0x4
 14136 4050 0E3F0000 		.4byte	0x3f0e
 14137 4054 05       		.uleb128 0x5
 14138 4055 04       		.byte	0x4
 14139 4056 B63F0000 		.4byte	0x3fb6
 14140 405a 07       		.uleb128 0x7
 14141 405b 691F0000 		.4byte	.LASF865
 14142 405f 38       		.byte	0x38
 14143 4060 5701     		.2byte	0x157
 14144 4062 C23F0000 		.4byte	0x3fc2
 14145 4066 0F       		.uleb128 0xf
 14146 4067 5A400000 		.4byte	0x405a
 14147 406b 1D       		.uleb128 0x1d
 14148 406c 10       		.byte	0x10
 14149 406d 38       		.byte	0x38
 14150 406e 5C01     		.2byte	0x15c
 14151 4070 A9400000 		.4byte	0x40a9
 14152 4074 1A       		.uleb128 0x1a
 14153 4075 E2040000 		.4byte	.LASF866
 14154 4079 38       		.byte	0x38
 14155 407a 6101     		.2byte	0x161
 14156 407c A1380000 		.4byte	0x38a1
 14157 4080 00       		.byte	0
 14158 4081 1A       		.uleb128 0x1a
 14159 4082 08230000 		.4byte	.LASF867
 14160 4086 38       		.byte	0x38
 14161 4087 6601     		.2byte	0x166
 14162 4089 E4380000 		.4byte	0x38e4
 14163 408d 04       		.byte	0x4
 14164 408e 1A       		.uleb128 0x1a
 14165 408f 69120000 		.4byte	.LASF868
 14166 4093 38       		.byte	0x38
 14167 4094 6C01     		.2byte	0x16c
 14168 4096 C3380000 		.4byte	0x38c3
ARM GAS  C:\Users\Moi\AppData\Local\Temp\ccAXdvuJ.s 			page 255


 14169 409a 08       		.byte	0x8
 14170 409b 1A       		.uleb128 0x1a
 14171 409c 38020000 		.4byte	.LASF869
 14172 40a0 38       		.byte	0x38
 14173 40a1 7001     		.2byte	0x170
 14174 40a3 5C380000 		.4byte	0x385c
 14175 40a7 0C       		.byte	0xc
 14176 40a8 00       		.byte	0
 14177 40a9 07       		.uleb128 0x7
 14178 40aa 73110000 		.4byte	.LASF870
 14179 40ae 38       		.byte	0x38
 14180 40af 7201     		.2byte	0x172
 14181 40b1 6B400000 		.4byte	0x406b
 14182 40b5 0F       		.uleb128 0xf
 14183 40b6 A9400000 		.4byte	0x40a9
 14184 40ba 05       		.uleb128 0x5
 14185 40bb 04       		.byte	0x4
 14186 40bc B5400000 		.4byte	0x40b5
 14187 40c0 0A       		.uleb128 0xa
 14188 40c1 D0400000 		.4byte	0x40d0
 14189 40c5 D0400000 		.4byte	0x40d0
 14190 40c9 0B       		.uleb128 0xb
 14191 40ca B1000000 		.4byte	0xb1
 14192 40ce 03       		.byte	0x3
 14193 40cf 00       		.byte	0
 14194 40d0 05       		.uleb128 0x5
 14195 40d1 04       		.byte	0x4
 14196 40d2 66400000 		.4byte	0x4066
 14197 40d6 0A       		.uleb128 0xa
 14198 40d7 68010000 		.4byte	0x168
 14199 40db E6400000 		.4byte	0x40e6
 14200 40df 0B       		.uleb128 0xb
 14201 40e0 B1000000 		.4byte	0xb1
 14202 40e4 02       		.byte	0x2
 14203 40e5 00       		.byte	0
 14204 40e6 05       		.uleb128 0x5
 14205 40e7 04       		.byte	0x4
 14206 40e8 323E0000 		.4byte	0x3e32
 14207 40ec 05       		.uleb128 0x5
 14208 40ed 04       		.byte	0x4
 14209 40ee 753E0000 		.4byte	0x3e75
 14210 40f2 0A       		.uleb128 0xa
 14211 40f3 34190000 		.4byte	0x1934
 14212 40f7 02410000 		.4byte	0x4102
 14213 40fb 0B       		.uleb128 0xb
 14214 40fc B1000000 		.4byte	0xb1
 14215 4100 3E       		.byte	0x3e
 14216 4101 00       		.byte	0
 14217 4102 21       		.uleb128 0x21
 14218 4103 E2000000 		.4byte	.LASF871
 14219 4107 38       		.byte	0x38
 14220 4108 0602     		.2byte	0x206
 14221 410a 28360000 		.4byte	0x3628
 14222 410e 2A       		.uleb128 0x2a
 14223 410f 07       		.byte	0x7
 14224 4110 01       		.byte	0x1
 14225 4111 42000000 		.4byte	0x42
ARM GAS  C:\Users\Moi\AppData\Local\Temp\ccAXdvuJ.s 			page 256


 14226 4115 3A       		.byte	0x3a
 14227 4116 70       		.byte	0x70
 14228 4117 7C410000 		.4byte	0x417c
 14229 411b 2B       		.uleb128 0x2b
 14230 411c 19030000 		.4byte	.LASF872
 14231 4120 00       		.byte	0
 14232 4121 2B       		.uleb128 0x2b
 14233 4122 F4010000 		.4byte	.LASF873
 14234 4126 01       		.byte	0x1
 14235 4127 2B       		.uleb128 0x2b
 14236 4128 940A0000 		.4byte	.LASF874
 14237 412c 02       		.byte	0x2
 14238 412d 2B       		.uleb128 0x2b
 14239 412e 3C120000 		.4byte	.LASF875
 14240 4132 03       		.byte	0x3
 14241 4133 2B       		.uleb128 0x2b
 14242 4134 E21C0000 		.4byte	.LASF876
 14243 4138 04       		.byte	0x4
 14244 4139 2B       		.uleb128 0x2b
 14245 413a AE070000 		.4byte	.LASF877
 14246 413e 05       		.byte	0x5
 14247 413f 2B       		.uleb128 0x2b
 14248 4140 9F0B0000 		.4byte	.LASF878
 14249 4144 06       		.byte	0x6
 14250 4145 2B       		.uleb128 0x2b
 14251 4146 641E0000 		.4byte	.LASF879
 14252 414a 07       		.byte	0x7
 14253 414b 2B       		.uleb128 0x2b
 14254 414c 4A0D0000 		.4byte	.LASF880
 14255 4150 08       		.byte	0x8
 14256 4151 2B       		.uleb128 0x2b
 14257 4152 A8190000 		.4byte	.LASF881
 14258 4156 09       		.byte	0x9
 14259 4157 2B       		.uleb128 0x2b
 14260 4158 1A250000 		.4byte	.LASF882
 14261 415c 0A       		.byte	0xa
 14262 415d 2B       		.uleb128 0x2b
 14263 415e 160A0000 		.4byte	.LASF883
 14264 4162 0B       		.byte	0xb
 14265 4163 2B       		.uleb128 0x2b
 14266 4164 4D000000 		.4byte	.LASF884
 14267 4168 0C       		.byte	0xc
 14268 4169 2B       		.uleb128 0x2b
 14269 416a DC0F0000 		.4byte	.LASF885
 14270 416e 0D       		.byte	0xd
 14271 416f 2B       		.uleb128 0x2b
 14272 4170 98220000 		.4byte	.LASF886
 14273 4174 0E       		.byte	0xe
 14274 4175 2B       		.uleb128 0x2b
 14275 4176 5A0E0000 		.4byte	.LASF887
 14276 417a 0F       		.byte	0xf
 14277 417b 00       		.byte	0
 14278 417c 2A       		.uleb128 0x2a
 14279 417d 07       		.byte	0x7
 14280 417e 01       		.byte	0x1
 14281 417f 42000000 		.4byte	0x42
 14282 4183 3A       		.byte	0x3a
ARM GAS  C:\Users\Moi\AppData\Local\Temp\ccAXdvuJ.s 			page 257


 14283 4184 86       		.byte	0x86
 14284 4185 9C410000 		.4byte	0x419c
 14285 4189 2B       		.uleb128 0x2b
 14286 418a 1A010000 		.4byte	.LASF888
 14287 418e 00       		.byte	0
 14288 418f 2B       		.uleb128 0x2b
 14289 4190 581A0000 		.4byte	.LASF889
 14290 4194 01       		.byte	0x1
 14291 4195 2B       		.uleb128 0x2b
 14292 4196 45160000 		.4byte	.LASF890
 14293 419a 02       		.byte	0x2
 14294 419b 00       		.byte	0
 14295 419c 0A       		.uleb128 0xa
 14296 419d D8010000 		.4byte	0x1d8
 14297 41a1 A7410000 		.4byte	0x41a7
 14298 41a5 30       		.uleb128 0x30
 14299 41a6 00       		.byte	0
 14300 41a7 0F       		.uleb128 0xf
 14301 41a8 9C410000 		.4byte	0x419c
 14302 41ac 11       		.uleb128 0x11
 14303 41ad 62160000 		.4byte	.LASF891
 14304 41b1 3B       		.byte	0x3b
 14305 41b2 A5       		.byte	0xa5
 14306 41b3 A7410000 		.4byte	0x41a7
 14307 41b7 0C       		.uleb128 0xc
 14308 41b8 0C       		.byte	0xc
 14309 41b9 3C       		.byte	0x3c
 14310 41ba 16       		.byte	0x16
 14311 41bb E4410000 		.4byte	0x41e4
 14312 41bf 0D       		.uleb128 0xd
 14313 41c0 3F0E0000 		.4byte	.LASF892
 14314 41c4 3C       		.byte	0x3c
 14315 41c5 18       		.byte	0x18
 14316 41c6 3E0C0000 		.4byte	0xc3e
 14317 41ca 00       		.byte	0
 14318 41cb 0D       		.uleb128 0xd
 14319 41cc A0020000 		.4byte	.LASF893
 14320 41d0 3C       		.byte	0x3c
 14321 41d1 1A       		.byte	0x1a
 14322 41d2 3E0C0000 		.4byte	0xc3e
 14323 41d6 04       		.byte	0x4
 14324 41d7 0D       		.uleb128 0xd
 14325 41d8 7B020000 		.4byte	.LASF894
 14326 41dc 3C       		.byte	0x3c
 14327 41dd 24       		.byte	0x24
 14328 41de 3E0C0000 		.4byte	0xc3e
 14329 41e2 08       		.byte	0x8
 14330 41e3 00       		.byte	0
 14331 41e4 02       		.uleb128 0x2
 14332 41e5 5C1C0000 		.4byte	.LASF895
 14333 41e9 3C       		.byte	0x3c
 14334 41ea 28       		.byte	0x28
 14335 41eb B7410000 		.4byte	0x41b7
 14336 41ef 2A       		.uleb128 0x2a
 14337 41f0 07       		.byte	0x7
 14338 41f1 01       		.byte	0x1
 14339 41f2 42000000 		.4byte	0x42
ARM GAS  C:\Users\Moi\AppData\Local\Temp\ccAXdvuJ.s 			page 258


 14340 41f6 3D       		.byte	0x3d
 14341 41f7 83       		.byte	0x83
 14342 41f8 09420000 		.4byte	0x4209
 14343 41fc 2B       		.uleb128 0x2b
 14344 41fd D2230000 		.4byte	.LASF896
 14345 4201 00       		.byte	0
 14346 4202 2B       		.uleb128 0x2b
 14347 4203 45190000 		.4byte	.LASF897
 14348 4207 01       		.byte	0x1
 14349 4208 00       		.byte	0
 14350 4209 02       		.uleb128 0x2
 14351 420a 23240000 		.4byte	.LASF898
 14352 420e 3D       		.byte	0x3d
 14353 420f 86       		.byte	0x86
 14354 4210 EF410000 		.4byte	0x41ef
 14355 4214 2A       		.uleb128 0x2a
 14356 4215 07       		.byte	0x7
 14357 4216 01       		.byte	0x1
 14358 4217 42000000 		.4byte	0x42
 14359 421b 3D       		.byte	0x3d
 14360 421c 8B       		.byte	0x8b
 14361 421d 52420000 		.4byte	0x4252
 14362 4221 2B       		.uleb128 0x2b
 14363 4222 B9060000 		.4byte	.LASF899
 14364 4226 00       		.byte	0
 14365 4227 2B       		.uleb128 0x2b
 14366 4228 3B030000 		.4byte	.LASF900
 14367 422c 01       		.byte	0x1
 14368 422d 2B       		.uleb128 0x2b
 14369 422e E51F0000 		.4byte	.LASF901
 14370 4232 02       		.byte	0x2
 14371 4233 2B       		.uleb128 0x2b
 14372 4234 931E0000 		.4byte	.LASF902
 14373 4238 03       		.byte	0x3
 14374 4239 2B       		.uleb128 0x2b
 14375 423a 6D000000 		.4byte	.LASF903
 14376 423e 04       		.byte	0x4
 14377 423f 2B       		.uleb128 0x2b
 14378 4240 E5190000 		.4byte	.LASF904
 14379 4244 05       		.byte	0x5
 14380 4245 2B       		.uleb128 0x2b
 14381 4246 26120000 		.4byte	.LASF905
 14382 424a 06       		.byte	0x6
 14383 424b 2B       		.uleb128 0x2b
 14384 424c D8180000 		.4byte	.LASF906
 14385 4250 07       		.byte	0x7
 14386 4251 00       		.byte	0
 14387 4252 02       		.uleb128 0x2
 14388 4253 7B160000 		.4byte	.LASF907
 14389 4257 3D       		.byte	0x3d
 14390 4258 94       		.byte	0x94
 14391 4259 14420000 		.4byte	0x4214
 14392 425d 02       		.uleb128 0x2
 14393 425e 43040000 		.4byte	.LASF908
 14394 4262 3D       		.byte	0x3d
 14395 4263 99       		.byte	0x99
 14396 4264 68420000 		.4byte	0x4268
ARM GAS  C:\Users\Moi\AppData\Local\Temp\ccAXdvuJ.s 			page 259


 14397 4268 12       		.uleb128 0x12
 14398 4269 43040000 		.4byte	.LASF908
 14399 426d 14       		.byte	0x14
 14400 426e 3D       		.byte	0x3d
 14401 426f C3       		.byte	0xc3
 14402 4270 B1420000 		.4byte	0x42b1
 14403 4274 0D       		.uleb128 0xd
 14404 4275 93150000 		.4byte	.LASF495
 14405 4279 3D       		.byte	0x3d
 14406 427a C7       		.byte	0xc7
 14407 427b 52420000 		.4byte	0x4252
 14408 427f 00       		.byte	0
 14409 4280 0D       		.uleb128 0xd
 14410 4281 951B0000 		.4byte	.LASF496
 14411 4285 3D       		.byte	0x3d
 14412 4286 CB       		.byte	0xcb
 14413 4287 3C430000 		.4byte	0x433c
 14414 428b 04       		.byte	0x4
 14415 428c 0D       		.uleb128 0xd
 14416 428d 76210000 		.4byte	.LASF909
 14417 4291 3D       		.byte	0x3d
 14418 4292 CF       		.byte	0xcf
 14419 4293 42430000 		.4byte	0x4342
 14420 4297 08       		.byte	0x8
 14421 4298 0D       		.uleb128 0xd
 14422 4299 B60A0000 		.4byte	.LASF502
 14423 429d 3D       		.byte	0x3d
 14424 429e D3       		.byte	0xd3
 14425 429f E0250000 		.4byte	0x25e0
 14426 42a3 0C       		.byte	0xc
 14427 42a4 0D       		.uleb128 0xd
 14428 42a5 A0170000 		.4byte	.LASF503
 14429 42a9 3D       		.byte	0x3d
 14430 42aa D7       		.byte	0xd7
 14431 42ab AB010000 		.4byte	0x1ab
 14432 42af 10       		.byte	0x10
 14433 42b0 00       		.byte	0
 14434 42b1 02       		.uleb128 0x2
 14435 42b2 D20D0000 		.4byte	.LASF910
 14436 42b6 3D       		.byte	0x3d
 14437 42b7 A0       		.byte	0xa0
 14438 42b8 BC420000 		.4byte	0x42bc
 14439 42bc 05       		.uleb128 0x5
 14440 42bd 04       		.byte	0x4
 14441 42be C2420000 		.4byte	0x42c2
 14442 42c2 20       		.uleb128 0x20
 14443 42c3 CD420000 		.4byte	0x42cd
 14444 42c7 18       		.uleb128 0x18
 14445 42c8 CD420000 		.4byte	0x42cd
 14446 42cc 00       		.byte	0
 14447 42cd 05       		.uleb128 0x5
 14448 42ce 04       		.byte	0x4
 14449 42cf 5D420000 		.4byte	0x425d
 14450 42d3 02       		.uleb128 0x2
 14451 42d4 F3190000 		.4byte	.LASF911
 14452 42d8 3D       		.byte	0x3d
 14453 42d9 A8       		.byte	0xa8
ARM GAS  C:\Users\Moi\AppData\Local\Temp\ccAXdvuJ.s 			page 260


 14454 42da DE420000 		.4byte	0x42de
 14455 42de 05       		.uleb128 0x5
 14456 42df 04       		.byte	0x4
 14457 42e0 E4420000 		.4byte	0x42e4
 14458 42e4 20       		.uleb128 0x20
 14459 42e5 F4420000 		.4byte	0x42f4
 14460 42e9 18       		.uleb128 0x18
 14461 42ea CD420000 		.4byte	0x42cd
 14462 42ee 18       		.uleb128 0x18
 14463 42ef 09420000 		.4byte	0x4209
 14464 42f3 00       		.byte	0
 14465 42f4 0C       		.uleb128 0xc
 14466 42f5 10       		.byte	0x10
 14467 42f6 3D       		.byte	0x3d
 14468 42f7 AD       		.byte	0xad
 14469 42f8 2C430000 		.4byte	0x432c
 14470 42fc 0D       		.uleb128 0xd
 14471 42fd 9C1C0000 		.4byte	.LASF912
 14472 4301 3D       		.byte	0x3d
 14473 4302 B1       		.byte	0xb1
 14474 4303 B1420000 		.4byte	0x42b1
 14475 4307 00       		.byte	0
 14476 4308 0D       		.uleb128 0xd
 14477 4309 B8220000 		.4byte	.LASF913
 14478 430d 3D       		.byte	0x3d
 14479 430e B5       		.byte	0xb5
 14480 430f B1420000 		.4byte	0x42b1
 14481 4313 04       		.byte	0x4
 14482 4314 0D       		.uleb128 0xd
 14483 4315 E6230000 		.4byte	.LASF509
 14484 4319 3D       		.byte	0x3d
 14485 431a B9       		.byte	0xb9
 14486 431b D3420000 		.4byte	0x42d3
 14487 431f 08       		.byte	0x8
 14488 4320 13       		.uleb128 0x13
 14489 4321 637200   		.ascii	"cr\000"
 14490 4324 3D       		.byte	0x3d
 14491 4325 BD       		.byte	0xbd
 14492 4326 AB010000 		.4byte	0x1ab
 14493 432a 0C       		.byte	0xc
 14494 432b 00       		.byte	0
 14495 432c 02       		.uleb128 0x2
 14496 432d F7240000 		.4byte	.LASF914
 14497 4331 3D       		.byte	0x3d
 14498 4332 BE       		.byte	0xbe
 14499 4333 F4420000 		.4byte	0x42f4
 14500 4337 0F       		.uleb128 0xf
 14501 4338 2C430000 		.4byte	0x432c
 14502 433c 05       		.uleb128 0x5
 14503 433d 04       		.byte	0x4
 14504 433e 37430000 		.4byte	0x4337
 14505 4342 05       		.uleb128 0x5
 14506 4343 04       		.byte	0x4
 14507 4344 C2150000 		.4byte	0x15c2
 14508 4348 11       		.uleb128 0x11
 14509 4349 76040000 		.4byte	.LASF915
 14510 434d 3D       		.byte	0x3d
ARM GAS  C:\Users\Moi\AppData\Local\Temp\ccAXdvuJ.s 			page 261


 14511 434e E3       		.byte	0xe3
 14512 434f 5D420000 		.4byte	0x425d
 14513 4353 0A       		.uleb128 0xa
 14514 4354 D1010000 		.4byte	0x1d1
 14515 4358 64430000 		.4byte	0x4364
 14516 435c 2F       		.uleb128 0x2f
 14517 435d B1000000 		.4byte	0xb1
 14518 4361 2A10     		.2byte	0x102a
 14519 4363 00       		.byte	0
 14520 4364 31       		.uleb128 0x31
 14521 4365 861A0000 		.4byte	.LASF42
 14522 4369 01       		.byte	0x1
 14523 436a 2F       		.byte	0x2f
 14524 436b 53430000 		.4byte	0x4353
 14525 436f 05       		.uleb128 0x5
 14526 4370 03       		.byte	0x3
 14527 4371 00000000 		.4byte	buffer
 14528 4375 11       		.uleb128 0x11
 14529 4376 AF1A0000 		.4byte	.LASF916
 14530 437a 01       		.byte	0x1
 14531 437b 31       		.byte	0x31
 14532 437c B1000000 		.4byte	0xb1
 14533 4380 31       		.uleb128 0x31
 14534 4381 670B0000 		.4byte	.LASF917
 14535 4385 01       		.byte	0x1
 14536 4386 32       		.byte	0x32
 14537 4387 AA000000 		.4byte	0xaa
 14538 438b 05       		.uleb128 0x5
 14539 438c 03       		.byte	0x3
 14540 438d 00000000 		.4byte	selector
 14541 4391 32       		.uleb128 0x32
 14542 4392 6300     		.ascii	"c\000"
 14543 4394 01       		.byte	0x1
 14544 4395 33       		.byte	0x33
 14545 4396 D1010000 		.4byte	0x1d1
 14546 439a 05       		.uleb128 0x5
 14547 439b 03       		.byte	0x3
 14548 439c 00000000 		.4byte	c
 14549 43a0 0A       		.uleb128 0xa
 14550 43a1 AA000000 		.4byte	0xaa
 14551 43a5 B0430000 		.4byte	0x43b0
 14552 43a9 0B       		.uleb128 0xb
 14553 43aa B1000000 		.4byte	0xb1
 14554 43ae 09       		.byte	0x9
 14555 43af 00       		.byte	0
 14556 43b0 31       		.uleb128 0x31
 14557 43b1 54040000 		.4byte	.LASF918
 14558 43b5 01       		.byte	0x1
 14559 43b6 34       		.byte	0x34
 14560 43b7 A0430000 		.4byte	0x43a0
 14561 43bb 05       		.uleb128 0x5
 14562 43bc 03       		.byte	0x3
 14563 43bd 00000000 		.4byte	e_ambient_ir
 14564 43c1 31       		.uleb128 0x31
 14565 43c2 6E170000 		.4byte	.LASF919
 14566 43c6 01       		.byte	0x1
 14567 43c7 35       		.byte	0x35
ARM GAS  C:\Users\Moi\AppData\Local\Temp\ccAXdvuJ.s 			page 262


 14568 43c8 A0430000 		.4byte	0x43a0
 14569 43cc 05       		.uleb128 0x5
 14570 43cd 03       		.byte	0x3
 14571 43ce 00000000 		.4byte	e_ambient_and_reflected_ir
 14572 43d2 33       		.uleb128 0x33
 14573 43d3 BF0C0000 		.4byte	.LASF952
 14574 43d7 01       		.byte	0x1
 14575 43d8 3C       		.byte	0x3c
 14576 43d9 AA000000 		.4byte	0xaa
 14577 43dd 00000000 		.4byte	.LFB259
 14578 43e1 90290000 		.4byte	.LFE259-.LFB259
 14579 43e5 01       		.uleb128 0x1
 14580 43e6 9C       		.byte	0x9c
 14581 43e7 34       		.uleb128 0x34
 14582 43e8 633100   		.ascii	"c1\000"
 14583 43eb 01       		.byte	0x1
 14584 43ec 3D       		.byte	0x3d
 14585 43ed D1010000 		.4byte	0x1d1
 14586 43f1 05       		.uleb128 0x5
 14587 43f2 03       		.byte	0x3
 14588 43f3 00000000 		.4byte	c1.12660
 14589 43f7 34       		.uleb128 0x34
 14590 43f8 633200   		.ascii	"c2\000"
 14591 43fb 01       		.byte	0x1
 14592 43fc 3D       		.byte	0x3d
 14593 43fd D1010000 		.4byte	0x1d1
 14594 4401 05       		.uleb128 0x5
 14595 4402 03       		.byte	0x3
 14596 4403 00000000 		.4byte	c2.12661
 14597 4407 35       		.uleb128 0x35
 14598 4408 45060000 		.4byte	.LASF920
 14599 440c 01       		.byte	0x1
 14600 440d 3D       		.byte	0x3d
 14601 440e D1010000 		.4byte	0x1d1
 14602 4412 05       		.uleb128 0x5
 14603 4413 03       		.byte	0x3
 14604 4414 00000000 		.4byte	wait_cam.12662
 14605 4418 34       		.uleb128 0x34
 14606 4419 6900     		.ascii	"i\000"
 14607 441b 01       		.byte	0x1
 14608 441c 3E       		.byte	0x3e
 14609 441d AA000000 		.4byte	0xaa
 14610 4421 05       		.uleb128 0x5
 14611 4422 03       		.byte	0x3
 14612 4423 00000000 		.4byte	i.12663
 14613 4427 34       		.uleb128 0x34
 14614 4428 6A00     		.ascii	"j\000"
 14615 442a 01       		.byte	0x1
 14616 442b 3E       		.byte	0x3e
 14617 442c AA000000 		.4byte	0xaa
 14618 4430 05       		.uleb128 0x5
 14619 4431 03       		.byte	0x3
 14620 4432 00000000 		.4byte	j.12664
 14621 4436 34       		.uleb128 0x34
 14622 4437 6E00     		.ascii	"n\000"
 14623 4439 01       		.byte	0x1
 14624 443a 3E       		.byte	0x3e
ARM GAS  C:\Users\Moi\AppData\Local\Temp\ccAXdvuJ.s 			page 263


 14625 443b AA000000 		.4byte	0xaa
 14626 443f 05       		.uleb128 0x5
 14627 4440 03       		.byte	0x3
 14628 4441 00000000 		.4byte	n.12665
 14629 4445 35       		.uleb128 0x35
 14630 4446 DB120000 		.4byte	.LASF921
 14631 444a 01       		.byte	0x1
 14632 444b 3E       		.byte	0x3e
 14633 444c AA000000 		.4byte	0xaa
 14634 4450 05       		.uleb128 0x5
 14635 4451 03       		.byte	0x3
 14636 4452 00000000 		.4byte	speedr.12666
 14637 4456 35       		.uleb128 0x35
 14638 4457 CC120000 		.4byte	.LASF922
 14639 445b 01       		.byte	0x1
 14640 445c 3E       		.byte	0x3e
 14641 445d AA000000 		.4byte	0xaa
 14642 4461 05       		.uleb128 0x5
 14643 4462 03       		.byte	0x3
 14644 4463 00000000 		.4byte	speedl.12667
 14645 4467 35       		.uleb128 0x35
 14646 4468 C0000000 		.4byte	.LASF923
 14647 446c 01       		.byte	0x1
 14648 446d 3E       		.byte	0x3e
 14649 446e AA000000 		.4byte	0xaa
 14650 4472 05       		.uleb128 0x5
 14651 4473 03       		.byte	0x3
 14652 4474 00000000 		.4byte	positionr.12668
 14653 4478 35       		.uleb128 0x35
 14654 4479 B6000000 		.4byte	.LASF924
 14655 447d 01       		.byte	0x1
 14656 447e 3E       		.byte	0x3e
 14657 447f AA000000 		.4byte	0xaa
 14658 4483 05       		.uleb128 0x5
 14659 4484 03       		.byte	0x3
 14660 4485 00000000 		.4byte	positionl.12669
 14661 4489 35       		.uleb128 0x35
 14662 448a 65000000 		.4byte	.LASF925
 14663 448e 01       		.byte	0x1
 14664 448f 3E       		.byte	0x3e
 14665 4490 AA000000 		.4byte	0xaa
 14666 4494 05       		.uleb128 0x5
 14667 4495 03       		.byte	0x3
 14668 4496 00000000 		.4byte	LED_nbr.12670
 14669 449a 35       		.uleb128 0x35
 14670 449b 50230000 		.4byte	.LASF926
 14671 449f 01       		.byte	0x1
 14672 44a0 3E       		.byte	0x3e
 14673 44a1 AA000000 		.4byte	0xaa
 14674 44a5 05       		.uleb128 0x5
 14675 44a6 03       		.byte	0x3
 14676 44a7 00000000 		.4byte	LED_action.12671
 14677 44ab 35       		.uleb128 0x35
 14678 44ac 6B0A0000 		.4byte	.LASF927
 14679 44b0 01       		.byte	0x1
 14680 44b1 3E       		.byte	0x3e
 14681 44b2 AA000000 		.4byte	0xaa
ARM GAS  C:\Users\Moi\AppData\Local\Temp\ccAXdvuJ.s 			page 264


 14682 44b6 05       		.uleb128 0x5
 14683 44b7 03       		.byte	0x3
 14684 44b8 00000000 		.4byte	accx.12672
 14685 44bc 35       		.uleb128 0x35
 14686 44bd 700A0000 		.4byte	.LASF928
 14687 44c1 01       		.byte	0x1
 14688 44c2 3E       		.byte	0x3e
 14689 44c3 AA000000 		.4byte	0xaa
 14690 44c7 05       		.uleb128 0x5
 14691 44c8 03       		.byte	0x3
 14692 44c9 00000000 		.4byte	accy.12673
 14693 44cd 35       		.uleb128 0x35
 14694 44ce 0E0C0000 		.4byte	.LASF929
 14695 44d2 01       		.byte	0x1
 14696 44d3 3E       		.byte	0x3e
 14697 44d4 AA000000 		.4byte	0xaa
 14698 44d8 05       		.uleb128 0x5
 14699 44d9 03       		.byte	0x3
 14700 44da 00000000 		.4byte	accz.12674
 14701 44de 35       		.uleb128 0x35
 14702 44df 1A260000 		.4byte	.LASF930
 14703 44e3 01       		.byte	0x1
 14704 44e4 3E       		.byte	0x3e
 14705 44e5 AA000000 		.4byte	0xaa
 14706 44e9 05       		.uleb128 0x5
 14707 44ea 03       		.byte	0x3
 14708 44eb 00000000 		.4byte	sound.12675
 14709 44ef 35       		.uleb128 0x35
 14710 44f0 93230000 		.4byte	.LASF931
 14711 44f4 01       		.byte	0x1
 14712 44f5 3E       		.byte	0x3e
 14713 44f6 AA000000 		.4byte	0xaa
 14714 44fa 05       		.uleb128 0x5
 14715 44fb 03       		.byte	0x3
 14716 44fc 00000000 		.4byte	gyrox.12676
 14717 4500 35       		.uleb128 0x35
 14718 4501 710D0000 		.4byte	.LASF932
 14719 4505 01       		.byte	0x1
 14720 4506 3E       		.byte	0x3e
 14721 4507 AA000000 		.4byte	0xaa
 14722 450b 05       		.uleb128 0x5
 14723 450c 03       		.byte	0x3
 14724 450d 00000000 		.4byte	gyroy.12677
 14725 4511 35       		.uleb128 0x35
 14726 4512 99230000 		.4byte	.LASF933
 14727 4516 01       		.byte	0x1
 14728 4517 3E       		.byte	0x3e
 14729 4518 AA000000 		.4byte	0xaa
 14730 451c 05       		.uleb128 0x5
 14731 451d 03       		.byte	0x3
 14732 451e 00000000 		.4byte	gyroz.12678
 14733 4522 35       		.uleb128 0x35
 14734 4523 C9170000 		.4byte	.LASF934
 14735 4527 01       		.byte	0x1
 14736 4528 3F       		.byte	0x3f
 14737 4529 AA000000 		.4byte	0xaa
 14738 452d 05       		.uleb128 0x5
ARM GAS  C:\Users\Moi\AppData\Local\Temp\ccAXdvuJ.s 			page 265


 14739 452e 03       		.byte	0x3
 14740 452f 00000000 		.4byte	cam_mode.12679
 14741 4533 35       		.uleb128 0x35
 14742 4534 5F0C0000 		.4byte	.LASF935
 14743 4538 01       		.byte	0x1
 14744 4539 3F       		.byte	0x3f
 14745 453a AA000000 		.4byte	0xaa
 14746 453e 05       		.uleb128 0x5
 14747 453f 03       		.byte	0x3
 14748 4540 00000000 		.4byte	cam_width.12680
 14749 4544 35       		.uleb128 0x35
 14750 4545 511C0000 		.4byte	.LASF936
 14751 4549 01       		.byte	0x1
 14752 454a 3F       		.byte	0x3f
 14753 454b AA000000 		.4byte	0xaa
 14754 454f 05       		.uleb128 0x5
 14755 4550 03       		.byte	0x3
 14756 4551 00000000 		.4byte	cam_heigth.12681
 14757 4555 35       		.uleb128 0x35
 14758 4556 16020000 		.4byte	.LASF937
 14759 455a 01       		.byte	0x1
 14760 455b 3F       		.byte	0x3f
 14761 455c AA000000 		.4byte	0xaa
 14762 4560 05       		.uleb128 0x5
 14763 4561 03       		.byte	0x3
 14764 4562 00000000 		.4byte	cam_zoom.12682
 14765 4566 35       		.uleb128 0x35
 14766 4567 F10A0000 		.4byte	.LASF938
 14767 456b 01       		.byte	0x1
 14768 456c 3F       		.byte	0x3f
 14769 456d AA000000 		.4byte	0xaa
 14770 4571 05       		.uleb128 0x5
 14771 4572 03       		.byte	0x3
 14772 4573 00000000 		.4byte	cam_size.12683
 14773 4577 35       		.uleb128 0x35
 14774 4578 A6100000 		.4byte	.LASF939
 14775 457c 01       		.byte	0x1
 14776 457d 3F       		.byte	0x3f
 14777 457e AA000000 		.4byte	0xaa
 14778 4582 05       		.uleb128 0x5
 14779 4583 03       		.byte	0x3
 14780 4584 00000000 		.4byte	cam_x1.12684
 14781 4588 35       		.uleb128 0x35
 14782 4589 8C150000 		.4byte	.LASF940
 14783 458d 01       		.byte	0x1
 14784 458e 3F       		.byte	0x3f
 14785 458f AA000000 		.4byte	0xaa
 14786 4593 05       		.uleb128 0x5
 14787 4594 03       		.byte	0x3
 14788 4595 00000000 		.4byte	cam_y1.12685
 14789 4599 35       		.uleb128 0x35
 14790 459a E90E0000 		.4byte	.LASF941
 14791 459e 01       		.byte	0x1
 14792 459f 40       		.byte	0x40
 14793 45a0 D1010000 		.4byte	0x1d1
 14794 45a4 05       		.uleb128 0x5
 14795 45a5 03       		.byte	0x3
ARM GAS  C:\Users\Moi\AppData\Local\Temp\ccAXdvuJ.s 			page 266


 14796 45a6 00000000 		.4byte	first.12686
 14797 45aa 34       		.uleb128 0x34
 14798 45ab 70747200 		.ascii	"ptr\000"
 14799 45af 01       		.byte	0x1
 14800 45b0 41       		.byte	0x41
 14801 45b1 CB010000 		.4byte	0x1cb
 14802 45b5 02       		.uleb128 0x2
 14803 45b6 91       		.byte	0x91
 14804 45b7 58       		.sleb128 -40
 14805 45b8 34       		.uleb128 0x34
 14806 45b9 6D6F6400 		.ascii	"mod\000"
 14807 45bd 01       		.byte	0x1
 14808 45be 42       		.byte	0x42
 14809 45bf AA000000 		.4byte	0xaa
 14810 45c3 05       		.uleb128 0x5
 14811 45c4 03       		.byte	0x3
 14812 45c5 00000000 		.4byte	mod.12688
 14813 45c9 34       		.uleb128 0x34
 14814 45ca 72656700 		.ascii	"reg\000"
 14815 45ce 01       		.byte	0x1
 14816 45cf 42       		.byte	0x42
 14817 45d0 AA000000 		.4byte	0xaa
 14818 45d4 05       		.uleb128 0x5
 14819 45d5 03       		.byte	0x3
 14820 45d6 00000000 		.4byte	reg.12689
 14821 45da 34       		.uleb128 0x34
 14822 45db 76616C00 		.ascii	"val\000"
 14823 45df 01       		.byte	0x1
 14824 45e0 42       		.byte	0x42
 14825 45e1 AA000000 		.4byte	0xaa
 14826 45e5 05       		.uleb128 0x5
 14827 45e6 03       		.byte	0x3
 14828 45e7 00000000 		.4byte	val.12690
 14829 45eb 35       		.uleb128 0x35
 14830 45ec D6050000 		.4byte	.LASF942
 14831 45f0 01       		.byte	0x1
 14832 45f1 44       		.byte	0x44
 14833 45f2 D1010000 		.4byte	0x1d1
 14834 45f6 02       		.uleb128 0x2
 14835 45f7 91       		.byte	0x91
 14836 45f8 49       		.sleb128 -55
 14837 45f9 35       		.uleb128 0x35
 14838 45fa 64050000 		.4byte	.LASF943
 14839 45fe 01       		.byte	0x1
 14840 45ff 44       		.byte	0x44
 14841 4600 D1010000 		.4byte	0x1d1
 14842 4604 02       		.uleb128 0x2
 14843 4605 91       		.byte	0x91
 14844 4606 4A       		.sleb128 -54
 14845 4607 35       		.uleb128 0x35
 14846 4608 9C110000 		.4byte	.LASF944
 14847 460c 01       		.byte	0x1
 14848 460d 44       		.byte	0x44
 14849 460e D1010000 		.4byte	0x1d1
 14850 4612 02       		.uleb128 0x2
 14851 4613 91       		.byte	0x91
 14852 4614 48       		.sleb128 -56
ARM GAS  C:\Users\Moi\AppData\Local\Temp\ccAXdvuJ.s 			page 267


 14853 4615 35       		.uleb128 0x35
 14854 4616 F2210000 		.4byte	.LASF945
 14855 461a 01       		.byte	0x1
 14856 461b 46       		.byte	0x46
 14857 461c E4410000 		.4byte	0x41e4
 14858 4620 05       		.uleb128 0x5
 14859 4621 03       		.byte	0x3
 14860 4622 00000000 		.4byte	accelero.12694
 14861 4626 35       		.uleb128 0x35
 14862 4627 0D090000 		.4byte	.LASF946
 14863 462b 01       		.byte	0x1
 14864 462c 48       		.byte	0x48
 14865 462d AA000000 		.4byte	0xaa
 14866 4631 02       		.uleb128 0x2
 14867 4632 91       		.byte	0x91
 14868 4633 4C       		.sleb128 -52
 14869 4634 35       		.uleb128 0x35
 14870 4635 CA000000 		.4byte	.LASF947
 14871 4639 01       		.byte	0x1
 14872 463a 49       		.byte	0x49
 14873 463b B1000000 		.4byte	0xb1
 14874 463f 02       		.uleb128 0x2
 14875 4640 91       		.byte	0x91
 14876 4641 54       		.sleb128 -44
 14877 4642 35       		.uleb128 0x35
 14878 4643 87240000 		.4byte	.LASF948
 14879 4647 01       		.byte	0x1
 14880 4648 66       		.byte	0x66
 14881 4649 AA000000 		.4byte	0xaa
 14882 464d 05       		.uleb128 0x5
 14883 464e 03       		.byte	0x3
 14884 464f 00000000 		.4byte	HWversion.12697
 14885 4653 36       		.uleb128 0x36
 14886 4654 92130000 		.4byte	.LBB2
 14887 4658 2C000000 		.4byte	.LBE2-.LBB2
 14888 465c 70460000 		.4byte	0x4670
 14889 4660 37       		.uleb128 0x37
 14890 4661 5F5F7800 		.ascii	"__x\000"
 14891 4665 01       		.byte	0x1
 14892 4666 6902     		.2byte	0x269
 14893 4668 D1010000 		.4byte	0x1d1
 14894 466c 02       		.uleb128 0x2
 14895 466d 91       		.byte	0x91
 14896 466e 4B       		.sleb128 -53
 14897 466f 00       		.byte	0
 14898 4670 38       		.uleb128 0x38
 14899 4671 00000000 		.4byte	.Ldebug_ranges0+0
 14900 4675 37       		.uleb128 0x37
 14901 4676 7400     		.ascii	"t\000"
 14902 4678 01       		.byte	0x1
 14903 4679 4203     		.2byte	0x342
 14904 467b 78000000 		.4byte	0x78
 14905 467f 02       		.uleb128 0x2
 14906 4680 91       		.byte	0x91
 14907 4681 50       		.sleb128 -48
 14908 4682 00       		.byte	0
 14909 4683 00       		.byte	0
ARM GAS  C:\Users\Moi\AppData\Local\Temp\ccAXdvuJ.s 			page 268


 14910 4684 00       		.byte	0
 14911              		.section	.debug_abbrev,"",%progbits
 14912              	.Ldebug_abbrev0:
 14913 0000 01       		.uleb128 0x1
 14914 0001 11       		.uleb128 0x11
 14915 0002 01       		.byte	0x1
 14916 0003 25       		.uleb128 0x25
 14917 0004 0E       		.uleb128 0xe
 14918 0005 13       		.uleb128 0x13
 14919 0006 0B       		.uleb128 0xb
 14920 0007 03       		.uleb128 0x3
 14921 0008 0E       		.uleb128 0xe
 14922 0009 1B       		.uleb128 0x1b
 14923 000a 0E       		.uleb128 0xe
 14924 000b 55       		.uleb128 0x55
 14925 000c 17       		.uleb128 0x17
 14926 000d 11       		.uleb128 0x11
 14927 000e 01       		.uleb128 0x1
 14928 000f 10       		.uleb128 0x10
 14929 0010 17       		.uleb128 0x17
 14930 0011 00       		.byte	0
 14931 0012 00       		.byte	0
 14932 0013 02       		.uleb128 0x2
 14933 0014 16       		.uleb128 0x16
 14934 0015 00       		.byte	0
 14935 0016 03       		.uleb128 0x3
 14936 0017 0E       		.uleb128 0xe
 14937 0018 3A       		.uleb128 0x3a
 14938 0019 0B       		.uleb128 0xb
 14939 001a 3B       		.uleb128 0x3b
 14940 001b 0B       		.uleb128 0xb
 14941 001c 49       		.uleb128 0x49
 14942 001d 13       		.uleb128 0x13
 14943 001e 00       		.byte	0
 14944 001f 00       		.byte	0
 14945 0020 03       		.uleb128 0x3
 14946 0021 24       		.uleb128 0x24
 14947 0022 00       		.byte	0
 14948 0023 0B       		.uleb128 0xb
 14949 0024 0B       		.uleb128 0xb
 14950 0025 3E       		.uleb128 0x3e
 14951 0026 0B       		.uleb128 0xb
 14952 0027 03       		.uleb128 0x3
 14953 0028 0E       		.uleb128 0xe
 14954 0029 00       		.byte	0
 14955 002a 00       		.byte	0
 14956 002b 04       		.uleb128 0x4
 14957 002c 24       		.uleb128 0x24
 14958 002d 00       		.byte	0
 14959 002e 0B       		.uleb128 0xb
 14960 002f 0B       		.uleb128 0xb
 14961 0030 3E       		.uleb128 0x3e
 14962 0031 0B       		.uleb128 0xb
 14963 0032 03       		.uleb128 0x3
 14964 0033 08       		.uleb128 0x8
 14965 0034 00       		.byte	0
 14966 0035 00       		.byte	0
ARM GAS  C:\Users\Moi\AppData\Local\Temp\ccAXdvuJ.s 			page 269


 14967 0036 05       		.uleb128 0x5
 14968 0037 0F       		.uleb128 0xf
 14969 0038 00       		.byte	0
 14970 0039 0B       		.uleb128 0xb
 14971 003a 0B       		.uleb128 0xb
 14972 003b 49       		.uleb128 0x49
 14973 003c 13       		.uleb128 0x13
 14974 003d 00       		.byte	0
 14975 003e 00       		.byte	0
 14976 003f 06       		.uleb128 0x6
 14977 0040 13       		.uleb128 0x13
 14978 0041 00       		.byte	0
 14979 0042 03       		.uleb128 0x3
 14980 0043 0E       		.uleb128 0xe
 14981 0044 3C       		.uleb128 0x3c
 14982 0045 19       		.uleb128 0x19
 14983 0046 00       		.byte	0
 14984 0047 00       		.byte	0
 14985 0048 07       		.uleb128 0x7
 14986 0049 16       		.uleb128 0x16
 14987 004a 00       		.byte	0
 14988 004b 03       		.uleb128 0x3
 14989 004c 0E       		.uleb128 0xe
 14990 004d 3A       		.uleb128 0x3a
 14991 004e 0B       		.uleb128 0xb
 14992 004f 3B       		.uleb128 0x3b
 14993 0050 05       		.uleb128 0x5
 14994 0051 49       		.uleb128 0x49
 14995 0052 13       		.uleb128 0x13
 14996 0053 00       		.byte	0
 14997 0054 00       		.byte	0
 14998 0055 08       		.uleb128 0x8
 14999 0056 17       		.uleb128 0x17
 15000 0057 01       		.byte	0x1
 15001 0058 0B       		.uleb128 0xb
 15002 0059 0B       		.uleb128 0xb
 15003 005a 3A       		.uleb128 0x3a
 15004 005b 0B       		.uleb128 0xb
 15005 005c 3B       		.uleb128 0x3b
 15006 005d 0B       		.uleb128 0xb
 15007 005e 01       		.uleb128 0x1
 15008 005f 13       		.uleb128 0x13
 15009 0060 00       		.byte	0
 15010 0061 00       		.byte	0
 15011 0062 09       		.uleb128 0x9
 15012 0063 0D       		.uleb128 0xd
 15013 0064 00       		.byte	0
 15014 0065 03       		.uleb128 0x3
 15015 0066 0E       		.uleb128 0xe
 15016 0067 3A       		.uleb128 0x3a
 15017 0068 0B       		.uleb128 0xb
 15018 0069 3B       		.uleb128 0x3b
 15019 006a 0B       		.uleb128 0xb
 15020 006b 49       		.uleb128 0x49
 15021 006c 13       		.uleb128 0x13
 15022 006d 00       		.byte	0
 15023 006e 00       		.byte	0
ARM GAS  C:\Users\Moi\AppData\Local\Temp\ccAXdvuJ.s 			page 270


 15024 006f 0A       		.uleb128 0xa
 15025 0070 01       		.uleb128 0x1
 15026 0071 01       		.byte	0x1
 15027 0072 49       		.uleb128 0x49
 15028 0073 13       		.uleb128 0x13
 15029 0074 01       		.uleb128 0x1
 15030 0075 13       		.uleb128 0x13
 15031 0076 00       		.byte	0
 15032 0077 00       		.byte	0
 15033 0078 0B       		.uleb128 0xb
 15034 0079 21       		.uleb128 0x21
 15035 007a 00       		.byte	0
 15036 007b 49       		.uleb128 0x49
 15037 007c 13       		.uleb128 0x13
 15038 007d 2F       		.uleb128 0x2f
 15039 007e 0B       		.uleb128 0xb
 15040 007f 00       		.byte	0
 15041 0080 00       		.byte	0
 15042 0081 0C       		.uleb128 0xc
 15043 0082 13       		.uleb128 0x13
 15044 0083 01       		.byte	0x1
 15045 0084 0B       		.uleb128 0xb
 15046 0085 0B       		.uleb128 0xb
 15047 0086 3A       		.uleb128 0x3a
 15048 0087 0B       		.uleb128 0xb
 15049 0088 3B       		.uleb128 0x3b
 15050 0089 0B       		.uleb128 0xb
 15051 008a 01       		.uleb128 0x1
 15052 008b 13       		.uleb128 0x13
 15053 008c 00       		.byte	0
 15054 008d 00       		.byte	0
 15055 008e 0D       		.uleb128 0xd
 15056 008f 0D       		.uleb128 0xd
 15057 0090 00       		.byte	0
 15058 0091 03       		.uleb128 0x3
 15059 0092 0E       		.uleb128 0xe
 15060 0093 3A       		.uleb128 0x3a
 15061 0094 0B       		.uleb128 0xb
 15062 0095 3B       		.uleb128 0x3b
 15063 0096 0B       		.uleb128 0xb
 15064 0097 49       		.uleb128 0x49
 15065 0098 13       		.uleb128 0x13
 15066 0099 38       		.uleb128 0x38
 15067 009a 0B       		.uleb128 0xb
 15068 009b 00       		.byte	0
 15069 009c 00       		.byte	0
 15070 009d 0E       		.uleb128 0xe
 15071 009e 0F       		.uleb128 0xf
 15072 009f 00       		.byte	0
 15073 00a0 0B       		.uleb128 0xb
 15074 00a1 0B       		.uleb128 0xb
 15075 00a2 00       		.byte	0
 15076 00a3 00       		.byte	0
 15077 00a4 0F       		.uleb128 0xf
 15078 00a5 26       		.uleb128 0x26
 15079 00a6 00       		.byte	0
 15080 00a7 49       		.uleb128 0x49
ARM GAS  C:\Users\Moi\AppData\Local\Temp\ccAXdvuJ.s 			page 271


 15081 00a8 13       		.uleb128 0x13
 15082 00a9 00       		.byte	0
 15083 00aa 00       		.byte	0
 15084 00ab 10       		.uleb128 0x10
 15085 00ac 35       		.uleb128 0x35
 15086 00ad 00       		.byte	0
 15087 00ae 49       		.uleb128 0x49
 15088 00af 13       		.uleb128 0x13
 15089 00b0 00       		.byte	0
 15090 00b1 00       		.byte	0
 15091 00b2 11       		.uleb128 0x11
 15092 00b3 34       		.uleb128 0x34
 15093 00b4 00       		.byte	0
 15094 00b5 03       		.uleb128 0x3
 15095 00b6 0E       		.uleb128 0xe
 15096 00b7 3A       		.uleb128 0x3a
 15097 00b8 0B       		.uleb128 0xb
 15098 00b9 3B       		.uleb128 0x3b
 15099 00ba 0B       		.uleb128 0xb
 15100 00bb 49       		.uleb128 0x49
 15101 00bc 13       		.uleb128 0x13
 15102 00bd 3F       		.uleb128 0x3f
 15103 00be 19       		.uleb128 0x19
 15104 00bf 3C       		.uleb128 0x3c
 15105 00c0 19       		.uleb128 0x19
 15106 00c1 00       		.byte	0
 15107 00c2 00       		.byte	0
 15108 00c3 12       		.uleb128 0x12
 15109 00c4 13       		.uleb128 0x13
 15110 00c5 01       		.byte	0x1
 15111 00c6 03       		.uleb128 0x3
 15112 00c7 0E       		.uleb128 0xe
 15113 00c8 0B       		.uleb128 0xb
 15114 00c9 0B       		.uleb128 0xb
 15115 00ca 3A       		.uleb128 0x3a
 15116 00cb 0B       		.uleb128 0xb
 15117 00cc 3B       		.uleb128 0x3b
 15118 00cd 0B       		.uleb128 0xb
 15119 00ce 01       		.uleb128 0x1
 15120 00cf 13       		.uleb128 0x13
 15121 00d0 00       		.byte	0
 15122 00d1 00       		.byte	0
 15123 00d2 13       		.uleb128 0x13
 15124 00d3 0D       		.uleb128 0xd
 15125 00d4 00       		.byte	0
 15126 00d5 03       		.uleb128 0x3
 15127 00d6 08       		.uleb128 0x8
 15128 00d7 3A       		.uleb128 0x3a
 15129 00d8 0B       		.uleb128 0xb
 15130 00d9 3B       		.uleb128 0x3b
 15131 00da 0B       		.uleb128 0xb
 15132 00db 49       		.uleb128 0x49
 15133 00dc 13       		.uleb128 0x13
 15134 00dd 38       		.uleb128 0x38
 15135 00de 0B       		.uleb128 0xb
 15136 00df 00       		.byte	0
 15137 00e0 00       		.byte	0
ARM GAS  C:\Users\Moi\AppData\Local\Temp\ccAXdvuJ.s 			page 272


 15138 00e1 14       		.uleb128 0x14
 15139 00e2 13       		.uleb128 0x13
 15140 00e3 01       		.byte	0x1
 15141 00e4 03       		.uleb128 0x3
 15142 00e5 0E       		.uleb128 0xe
 15143 00e6 0B       		.uleb128 0xb
 15144 00e7 05       		.uleb128 0x5
 15145 00e8 3A       		.uleb128 0x3a
 15146 00e9 0B       		.uleb128 0xb
 15147 00ea 3B       		.uleb128 0x3b
 15148 00eb 0B       		.uleb128 0xb
 15149 00ec 01       		.uleb128 0x1
 15150 00ed 13       		.uleb128 0x13
 15151 00ee 00       		.byte	0
 15152 00ef 00       		.byte	0
 15153 00f0 15       		.uleb128 0x15
 15154 00f1 0D       		.uleb128 0xd
 15155 00f2 00       		.byte	0
 15156 00f3 03       		.uleb128 0x3
 15157 00f4 0E       		.uleb128 0xe
 15158 00f5 3A       		.uleb128 0x3a
 15159 00f6 0B       		.uleb128 0xb
 15160 00f7 3B       		.uleb128 0x3b
 15161 00f8 0B       		.uleb128 0xb
 15162 00f9 49       		.uleb128 0x49
 15163 00fa 13       		.uleb128 0x13
 15164 00fb 38       		.uleb128 0x38
 15165 00fc 05       		.uleb128 0x5
 15166 00fd 00       		.byte	0
 15167 00fe 00       		.byte	0
 15168 00ff 16       		.uleb128 0x16
 15169 0100 15       		.uleb128 0x15
 15170 0101 00       		.byte	0
 15171 0102 27       		.uleb128 0x27
 15172 0103 19       		.uleb128 0x19
 15173 0104 00       		.byte	0
 15174 0105 00       		.byte	0
 15175 0106 17       		.uleb128 0x17
 15176 0107 15       		.uleb128 0x15
 15177 0108 01       		.byte	0x1
 15178 0109 27       		.uleb128 0x27
 15179 010a 19       		.uleb128 0x19
 15180 010b 49       		.uleb128 0x49
 15181 010c 13       		.uleb128 0x13
 15182 010d 01       		.uleb128 0x1
 15183 010e 13       		.uleb128 0x13
 15184 010f 00       		.byte	0
 15185 0110 00       		.byte	0
 15186 0111 18       		.uleb128 0x18
 15187 0112 05       		.uleb128 0x5
 15188 0113 00       		.byte	0
 15189 0114 49       		.uleb128 0x49
 15190 0115 13       		.uleb128 0x13
 15191 0116 00       		.byte	0
 15192 0117 00       		.byte	0
 15193 0118 19       		.uleb128 0x19
 15194 0119 13       		.uleb128 0x13
ARM GAS  C:\Users\Moi\AppData\Local\Temp\ccAXdvuJ.s 			page 273


 15195 011a 01       		.byte	0x1
 15196 011b 03       		.uleb128 0x3
 15197 011c 0E       		.uleb128 0xe
 15198 011d 0B       		.uleb128 0xb
 15199 011e 05       		.uleb128 0x5
 15200 011f 3A       		.uleb128 0x3a
 15201 0120 0B       		.uleb128 0xb
 15202 0121 3B       		.uleb128 0x3b
 15203 0122 05       		.uleb128 0x5
 15204 0123 01       		.uleb128 0x1
 15205 0124 13       		.uleb128 0x13
 15206 0125 00       		.byte	0
 15207 0126 00       		.byte	0
 15208 0127 1A       		.uleb128 0x1a
 15209 0128 0D       		.uleb128 0xd
 15210 0129 00       		.byte	0
 15211 012a 03       		.uleb128 0x3
 15212 012b 0E       		.uleb128 0xe
 15213 012c 3A       		.uleb128 0x3a
 15214 012d 0B       		.uleb128 0xb
 15215 012e 3B       		.uleb128 0x3b
 15216 012f 05       		.uleb128 0x5
 15217 0130 49       		.uleb128 0x49
 15218 0131 13       		.uleb128 0x13
 15219 0132 38       		.uleb128 0x38
 15220 0133 0B       		.uleb128 0xb
 15221 0134 00       		.byte	0
 15222 0135 00       		.byte	0
 15223 0136 1B       		.uleb128 0x1b
 15224 0137 0D       		.uleb128 0xd
 15225 0138 00       		.byte	0
 15226 0139 03       		.uleb128 0x3
 15227 013a 0E       		.uleb128 0xe
 15228 013b 3A       		.uleb128 0x3a
 15229 013c 0B       		.uleb128 0xb
 15230 013d 3B       		.uleb128 0x3b
 15231 013e 05       		.uleb128 0x5
 15232 013f 49       		.uleb128 0x49
 15233 0140 13       		.uleb128 0x13
 15234 0141 38       		.uleb128 0x38
 15235 0142 05       		.uleb128 0x5
 15236 0143 00       		.byte	0
 15237 0144 00       		.byte	0
 15238 0145 1C       		.uleb128 0x1c
 15239 0146 13       		.uleb128 0x13
 15240 0147 01       		.byte	0x1
 15241 0148 03       		.uleb128 0x3
 15242 0149 0E       		.uleb128 0xe
 15243 014a 0B       		.uleb128 0xb
 15244 014b 0B       		.uleb128 0xb
 15245 014c 3A       		.uleb128 0x3a
 15246 014d 0B       		.uleb128 0xb
 15247 014e 3B       		.uleb128 0x3b
 15248 014f 05       		.uleb128 0x5
 15249 0150 01       		.uleb128 0x1
 15250 0151 13       		.uleb128 0x13
 15251 0152 00       		.byte	0
ARM GAS  C:\Users\Moi\AppData\Local\Temp\ccAXdvuJ.s 			page 274


 15252 0153 00       		.byte	0
 15253 0154 1D       		.uleb128 0x1d
 15254 0155 13       		.uleb128 0x13
 15255 0156 01       		.byte	0x1
 15256 0157 0B       		.uleb128 0xb
 15257 0158 0B       		.uleb128 0xb
 15258 0159 3A       		.uleb128 0x3a
 15259 015a 0B       		.uleb128 0xb
 15260 015b 3B       		.uleb128 0x3b
 15261 015c 05       		.uleb128 0x5
 15262 015d 01       		.uleb128 0x1
 15263 015e 13       		.uleb128 0x13
 15264 015f 00       		.byte	0
 15265 0160 00       		.byte	0
 15266 0161 1E       		.uleb128 0x1e
 15267 0162 17       		.uleb128 0x17
 15268 0163 01       		.byte	0x1
 15269 0164 0B       		.uleb128 0xb
 15270 0165 0B       		.uleb128 0xb
 15271 0166 3A       		.uleb128 0x3a
 15272 0167 0B       		.uleb128 0xb
 15273 0168 3B       		.uleb128 0x3b
 15274 0169 05       		.uleb128 0x5
 15275 016a 01       		.uleb128 0x1
 15276 016b 13       		.uleb128 0x13
 15277 016c 00       		.byte	0
 15278 016d 00       		.byte	0
 15279 016e 1F       		.uleb128 0x1f
 15280 016f 0D       		.uleb128 0xd
 15281 0170 00       		.byte	0
 15282 0171 03       		.uleb128 0x3
 15283 0172 0E       		.uleb128 0xe
 15284 0173 3A       		.uleb128 0x3a
 15285 0174 0B       		.uleb128 0xb
 15286 0175 3B       		.uleb128 0x3b
 15287 0176 05       		.uleb128 0x5
 15288 0177 49       		.uleb128 0x49
 15289 0178 13       		.uleb128 0x13
 15290 0179 00       		.byte	0
 15291 017a 00       		.byte	0
 15292 017b 20       		.uleb128 0x20
 15293 017c 15       		.uleb128 0x15
 15294 017d 01       		.byte	0x1
 15295 017e 27       		.uleb128 0x27
 15296 017f 19       		.uleb128 0x19
 15297 0180 01       		.uleb128 0x1
 15298 0181 13       		.uleb128 0x13
 15299 0182 00       		.byte	0
 15300 0183 00       		.byte	0
 15301 0184 21       		.uleb128 0x21
 15302 0185 34       		.uleb128 0x34
 15303 0186 00       		.byte	0
 15304 0187 03       		.uleb128 0x3
 15305 0188 0E       		.uleb128 0xe
 15306 0189 3A       		.uleb128 0x3a
 15307 018a 0B       		.uleb128 0xb
 15308 018b 3B       		.uleb128 0x3b
ARM GAS  C:\Users\Moi\AppData\Local\Temp\ccAXdvuJ.s 			page 275


 15309 018c 05       		.uleb128 0x5
 15310 018d 49       		.uleb128 0x49
 15311 018e 13       		.uleb128 0x13
 15312 018f 3F       		.uleb128 0x3f
 15313 0190 19       		.uleb128 0x19
 15314 0191 3C       		.uleb128 0x3c
 15315 0192 19       		.uleb128 0x19
 15316 0193 00       		.byte	0
 15317 0194 00       		.byte	0
 15318 0195 22       		.uleb128 0x22
 15319 0196 26       		.uleb128 0x26
 15320 0197 00       		.byte	0
 15321 0198 00       		.byte	0
 15322 0199 00       		.byte	0
 15323 019a 23       		.uleb128 0x23
 15324 019b 0D       		.uleb128 0xd
 15325 019c 00       		.byte	0
 15326 019d 03       		.uleb128 0x3
 15327 019e 08       		.uleb128 0x8
 15328 019f 3A       		.uleb128 0x3a
 15329 01a0 0B       		.uleb128 0xb
 15330 01a1 3B       		.uleb128 0x3b
 15331 01a2 0B       		.uleb128 0xb
 15332 01a3 49       		.uleb128 0x49
 15333 01a4 13       		.uleb128 0x13
 15334 01a5 00       		.byte	0
 15335 01a6 00       		.byte	0
 15336 01a7 24       		.uleb128 0x24
 15337 01a8 34       		.uleb128 0x34
 15338 01a9 00       		.byte	0
 15339 01aa 03       		.uleb128 0x3
 15340 01ab 08       		.uleb128 0x8
 15341 01ac 3A       		.uleb128 0x3a
 15342 01ad 0B       		.uleb128 0xb
 15343 01ae 3B       		.uleb128 0x3b
 15344 01af 0B       		.uleb128 0xb
 15345 01b0 49       		.uleb128 0x49
 15346 01b1 13       		.uleb128 0x13
 15347 01b2 3F       		.uleb128 0x3f
 15348 01b3 19       		.uleb128 0x19
 15349 01b4 3C       		.uleb128 0x3c
 15350 01b5 19       		.uleb128 0x19
 15351 01b6 00       		.byte	0
 15352 01b7 00       		.byte	0
 15353 01b8 25       		.uleb128 0x25
 15354 01b9 0D       		.uleb128 0xd
 15355 01ba 00       		.byte	0
 15356 01bb 03       		.uleb128 0x3
 15357 01bc 08       		.uleb128 0x8
 15358 01bd 3A       		.uleb128 0x3a
 15359 01be 0B       		.uleb128 0xb
 15360 01bf 3B       		.uleb128 0x3b
 15361 01c0 05       		.uleb128 0x5
 15362 01c1 49       		.uleb128 0x49
 15363 01c2 13       		.uleb128 0x13
 15364 01c3 38       		.uleb128 0x38
 15365 01c4 0B       		.uleb128 0xb
ARM GAS  C:\Users\Moi\AppData\Local\Temp\ccAXdvuJ.s 			page 276


 15366 01c5 00       		.byte	0
 15367 01c6 00       		.byte	0
 15368 01c7 26       		.uleb128 0x26
 15369 01c8 0D       		.uleb128 0xd
 15370 01c9 00       		.byte	0
 15371 01ca 03       		.uleb128 0x3
 15372 01cb 08       		.uleb128 0x8
 15373 01cc 3A       		.uleb128 0x3a
 15374 01cd 0B       		.uleb128 0xb
 15375 01ce 3B       		.uleb128 0x3b
 15376 01cf 05       		.uleb128 0x5
 15377 01d0 49       		.uleb128 0x49
 15378 01d1 13       		.uleb128 0x13
 15379 01d2 38       		.uleb128 0x38
 15380 01d3 05       		.uleb128 0x5
 15381 01d4 00       		.byte	0
 15382 01d5 00       		.byte	0
 15383 01d6 27       		.uleb128 0x27
 15384 01d7 13       		.uleb128 0x13
 15385 01d8 01       		.byte	0x1
 15386 01d9 0B       		.uleb128 0xb
 15387 01da 05       		.uleb128 0x5
 15388 01db 3A       		.uleb128 0x3a
 15389 01dc 0B       		.uleb128 0xb
 15390 01dd 3B       		.uleb128 0x3b
 15391 01de 05       		.uleb128 0x5
 15392 01df 01       		.uleb128 0x1
 15393 01e0 13       		.uleb128 0x13
 15394 01e1 00       		.byte	0
 15395 01e2 00       		.byte	0
 15396 01e3 28       		.uleb128 0x28
 15397 01e4 13       		.uleb128 0x13
 15398 01e5 01       		.byte	0x1
 15399 01e6 0B       		.uleb128 0xb
 15400 01e7 05       		.uleb128 0x5
 15401 01e8 3A       		.uleb128 0x3a
 15402 01e9 0B       		.uleb128 0xb
 15403 01ea 3B       		.uleb128 0x3b
 15404 01eb 0B       		.uleb128 0xb
 15405 01ec 01       		.uleb128 0x1
 15406 01ed 13       		.uleb128 0x13
 15407 01ee 00       		.byte	0
 15408 01ef 00       		.byte	0
 15409 01f0 29       		.uleb128 0x29
 15410 01f1 34       		.uleb128 0x34
 15411 01f2 00       		.byte	0
 15412 01f3 03       		.uleb128 0x3
 15413 01f4 08       		.uleb128 0x8
 15414 01f5 3A       		.uleb128 0x3a
 15415 01f6 0B       		.uleb128 0xb
 15416 01f7 3B       		.uleb128 0x3b
 15417 01f8 05       		.uleb128 0x5
 15418 01f9 49       		.uleb128 0x49
 15419 01fa 13       		.uleb128 0x13
 15420 01fb 3F       		.uleb128 0x3f
 15421 01fc 19       		.uleb128 0x19
 15422 01fd 3C       		.uleb128 0x3c
ARM GAS  C:\Users\Moi\AppData\Local\Temp\ccAXdvuJ.s 			page 277


 15423 01fe 19       		.uleb128 0x19
 15424 01ff 00       		.byte	0
 15425 0200 00       		.byte	0
 15426 0201 2A       		.uleb128 0x2a
 15427 0202 04       		.uleb128 0x4
 15428 0203 01       		.byte	0x1
 15429 0204 3E       		.uleb128 0x3e
 15430 0205 0B       		.uleb128 0xb
 15431 0206 0B       		.uleb128 0xb
 15432 0207 0B       		.uleb128 0xb
 15433 0208 49       		.uleb128 0x49
 15434 0209 13       		.uleb128 0x13
 15435 020a 3A       		.uleb128 0x3a
 15436 020b 0B       		.uleb128 0xb
 15437 020c 3B       		.uleb128 0x3b
 15438 020d 0B       		.uleb128 0xb
 15439 020e 01       		.uleb128 0x1
 15440 020f 13       		.uleb128 0x13
 15441 0210 00       		.byte	0
 15442 0211 00       		.byte	0
 15443 0212 2B       		.uleb128 0x2b
 15444 0213 28       		.uleb128 0x28
 15445 0214 00       		.byte	0
 15446 0215 03       		.uleb128 0x3
 15447 0216 0E       		.uleb128 0xe
 15448 0217 1C       		.uleb128 0x1c
 15449 0218 0B       		.uleb128 0xb
 15450 0219 00       		.byte	0
 15451 021a 00       		.byte	0
 15452 021b 2C       		.uleb128 0x2c
 15453 021c 04       		.uleb128 0x4
 15454 021d 01       		.byte	0x1
 15455 021e 3E       		.uleb128 0x3e
 15456 021f 0B       		.uleb128 0xb
 15457 0220 0B       		.uleb128 0xb
 15458 0221 0B       		.uleb128 0xb
 15459 0222 49       		.uleb128 0x49
 15460 0223 13       		.uleb128 0x13
 15461 0224 3A       		.uleb128 0x3a
 15462 0225 0B       		.uleb128 0xb
 15463 0226 3B       		.uleb128 0x3b
 15464 0227 05       		.uleb128 0x5
 15465 0228 01       		.uleb128 0x1
 15466 0229 13       		.uleb128 0x13
 15467 022a 00       		.byte	0
 15468 022b 00       		.byte	0
 15469 022c 2D       		.uleb128 0x2d
 15470 022d 13       		.uleb128 0x13
 15471 022e 01       		.byte	0x1
 15472 022f 0B       		.uleb128 0xb
 15473 0230 06       		.uleb128 0x6
 15474 0231 3A       		.uleb128 0x3a
 15475 0232 0B       		.uleb128 0xb
 15476 0233 3B       		.uleb128 0x3b
 15477 0234 0B       		.uleb128 0xb
 15478 0235 01       		.uleb128 0x1
 15479 0236 13       		.uleb128 0x13
ARM GAS  C:\Users\Moi\AppData\Local\Temp\ccAXdvuJ.s 			page 278


 15480 0237 00       		.byte	0
 15481 0238 00       		.byte	0
 15482 0239 2E       		.uleb128 0x2e
 15483 023a 0D       		.uleb128 0xd
 15484 023b 00       		.byte	0
 15485 023c 03       		.uleb128 0x3
 15486 023d 08       		.uleb128 0x8
 15487 023e 3A       		.uleb128 0x3a
 15488 023f 0B       		.uleb128 0xb
 15489 0240 3B       		.uleb128 0x3b
 15490 0241 0B       		.uleb128 0xb
 15491 0242 49       		.uleb128 0x49
 15492 0243 13       		.uleb128 0x13
 15493 0244 38       		.uleb128 0x38
 15494 0245 05       		.uleb128 0x5
 15495 0246 00       		.byte	0
 15496 0247 00       		.byte	0
 15497 0248 2F       		.uleb128 0x2f
 15498 0249 21       		.uleb128 0x21
 15499 024a 00       		.byte	0
 15500 024b 49       		.uleb128 0x49
 15501 024c 13       		.uleb128 0x13
 15502 024d 2F       		.uleb128 0x2f
 15503 024e 05       		.uleb128 0x5
 15504 024f 00       		.byte	0
 15505 0250 00       		.byte	0
 15506 0251 30       		.uleb128 0x30
 15507 0252 21       		.uleb128 0x21
 15508 0253 00       		.byte	0
 15509 0254 00       		.byte	0
 15510 0255 00       		.byte	0
 15511 0256 31       		.uleb128 0x31
 15512 0257 34       		.uleb128 0x34
 15513 0258 00       		.byte	0
 15514 0259 03       		.uleb128 0x3
 15515 025a 0E       		.uleb128 0xe
 15516 025b 3A       		.uleb128 0x3a
 15517 025c 0B       		.uleb128 0xb
 15518 025d 3B       		.uleb128 0x3b
 15519 025e 0B       		.uleb128 0xb
 15520 025f 49       		.uleb128 0x49
 15521 0260 13       		.uleb128 0x13
 15522 0261 3F       		.uleb128 0x3f
 15523 0262 19       		.uleb128 0x19
 15524 0263 02       		.uleb128 0x2
 15525 0264 18       		.uleb128 0x18
 15526 0265 00       		.byte	0
 15527 0266 00       		.byte	0
 15528 0267 32       		.uleb128 0x32
 15529 0268 34       		.uleb128 0x34
 15530 0269 00       		.byte	0
 15531 026a 03       		.uleb128 0x3
 15532 026b 08       		.uleb128 0x8
 15533 026c 3A       		.uleb128 0x3a
 15534 026d 0B       		.uleb128 0xb
 15535 026e 3B       		.uleb128 0x3b
 15536 026f 0B       		.uleb128 0xb
ARM GAS  C:\Users\Moi\AppData\Local\Temp\ccAXdvuJ.s 			page 279


 15537 0270 49       		.uleb128 0x49
 15538 0271 13       		.uleb128 0x13
 15539 0272 3F       		.uleb128 0x3f
 15540 0273 19       		.uleb128 0x19
 15541 0274 02       		.uleb128 0x2
 15542 0275 18       		.uleb128 0x18
 15543 0276 00       		.byte	0
 15544 0277 00       		.byte	0
 15545 0278 33       		.uleb128 0x33
 15546 0279 2E       		.uleb128 0x2e
 15547 027a 01       		.byte	0x1
 15548 027b 3F       		.uleb128 0x3f
 15549 027c 19       		.uleb128 0x19
 15550 027d 03       		.uleb128 0x3
 15551 027e 0E       		.uleb128 0xe
 15552 027f 3A       		.uleb128 0x3a
 15553 0280 0B       		.uleb128 0xb
 15554 0281 3B       		.uleb128 0x3b
 15555 0282 0B       		.uleb128 0xb
 15556 0283 27       		.uleb128 0x27
 15557 0284 19       		.uleb128 0x19
 15558 0285 49       		.uleb128 0x49
 15559 0286 13       		.uleb128 0x13
 15560 0287 11       		.uleb128 0x11
 15561 0288 01       		.uleb128 0x1
 15562 0289 12       		.uleb128 0x12
 15563 028a 06       		.uleb128 0x6
 15564 028b 40       		.uleb128 0x40
 15565 028c 18       		.uleb128 0x18
 15566 028d 9642     		.uleb128 0x2116
 15567 028f 19       		.uleb128 0x19
 15568 0290 00       		.byte	0
 15569 0291 00       		.byte	0
 15570 0292 34       		.uleb128 0x34
 15571 0293 34       		.uleb128 0x34
 15572 0294 00       		.byte	0
 15573 0295 03       		.uleb128 0x3
 15574 0296 08       		.uleb128 0x8
 15575 0297 3A       		.uleb128 0x3a
 15576 0298 0B       		.uleb128 0xb
 15577 0299 3B       		.uleb128 0x3b
 15578 029a 0B       		.uleb128 0xb
 15579 029b 49       		.uleb128 0x49
 15580 029c 13       		.uleb128 0x13
 15581 029d 02       		.uleb128 0x2
 15582 029e 18       		.uleb128 0x18
 15583 029f 00       		.byte	0
 15584 02a0 00       		.byte	0
 15585 02a1 35       		.uleb128 0x35
 15586 02a2 34       		.uleb128 0x34
 15587 02a3 00       		.byte	0
 15588 02a4 03       		.uleb128 0x3
 15589 02a5 0E       		.uleb128 0xe
 15590 02a6 3A       		.uleb128 0x3a
 15591 02a7 0B       		.uleb128 0xb
 15592 02a8 3B       		.uleb128 0x3b
 15593 02a9 0B       		.uleb128 0xb
ARM GAS  C:\Users\Moi\AppData\Local\Temp\ccAXdvuJ.s 			page 280


 15594 02aa 49       		.uleb128 0x49
 15595 02ab 13       		.uleb128 0x13
 15596 02ac 02       		.uleb128 0x2
 15597 02ad 18       		.uleb128 0x18
 15598 02ae 00       		.byte	0
 15599 02af 00       		.byte	0
 15600 02b0 36       		.uleb128 0x36
 15601 02b1 0B       		.uleb128 0xb
 15602 02b2 01       		.byte	0x1
 15603 02b3 11       		.uleb128 0x11
 15604 02b4 01       		.uleb128 0x1
 15605 02b5 12       		.uleb128 0x12
 15606 02b6 06       		.uleb128 0x6
 15607 02b7 01       		.uleb128 0x1
 15608 02b8 13       		.uleb128 0x13
 15609 02b9 00       		.byte	0
 15610 02ba 00       		.byte	0
 15611 02bb 37       		.uleb128 0x37
 15612 02bc 34       		.uleb128 0x34
 15613 02bd 00       		.byte	0
 15614 02be 03       		.uleb128 0x3
 15615 02bf 08       		.uleb128 0x8
 15616 02c0 3A       		.uleb128 0x3a
 15617 02c1 0B       		.uleb128 0xb
 15618 02c2 3B       		.uleb128 0x3b
 15619 02c3 05       		.uleb128 0x5
 15620 02c4 49       		.uleb128 0x49
 15621 02c5 13       		.uleb128 0x13
 15622 02c6 02       		.uleb128 0x2
 15623 02c7 18       		.uleb128 0x18
 15624 02c8 00       		.byte	0
 15625 02c9 00       		.byte	0
 15626 02ca 38       		.uleb128 0x38
 15627 02cb 0B       		.uleb128 0xb
 15628 02cc 01       		.byte	0x1
 15629 02cd 55       		.uleb128 0x55
 15630 02ce 17       		.uleb128 0x17
 15631 02cf 00       		.byte	0
 15632 02d0 00       		.byte	0
 15633 02d1 00       		.byte	0
 15634              		.section	.debug_aranges,"",%progbits
 15635 0000 1C000000 		.4byte	0x1c
 15636 0004 0200     		.2byte	0x2
 15637 0006 00000000 		.4byte	.Ldebug_info0
 15638 000a 04       		.byte	0x4
 15639 000b 00       		.byte	0
 15640 000c 0000     		.2byte	0
 15641 000e 0000     		.2byte	0
 15642 0010 00000000 		.4byte	.LFB259
 15643 0014 90290000 		.4byte	.LFE259-.LFB259
 15644 0018 00000000 		.4byte	0
 15645 001c 00000000 		.4byte	0
 15646              		.section	.debug_ranges,"",%progbits
 15647              	.Ldebug_ranges0:
 15648 0000 A8140000 		.4byte	.LBB3
 15649 0004 28290000 		.4byte	.LBE3
 15650 0008 2E290000 		.4byte	.LBB4
ARM GAS  C:\Users\Moi\AppData\Local\Temp\ccAXdvuJ.s 			page 281


 15651 000c 5A290000 		.4byte	.LBE4
 15652 0010 00000000 		.4byte	0
 15653 0014 00000000 		.4byte	0
 15654 0018 00000000 		.4byte	.LFB259
 15655 001c 90290000 		.4byte	.LFE259
 15656 0020 00000000 		.4byte	0
 15657 0024 00000000 		.4byte	0
 15658              		.section	.debug_line,"",%progbits
 15659              	.Ldebug_line0:
 15660 0000 7A100000 		.section	.debug_str,"MS",%progbits,1
 15660      0200DF07 
 15660      00000201 
 15660      FB0E0D00 
 15660      01010101 
 15661              	.LASF736:
 15662 0000 5553425F 		.ascii	"USB_STOP\000"
 15662      53544F50 
 15662      00
 15663              	.LASF352:
 15664 0009 706F7274 		.ascii	"port_intctx\000"
 15664      5F696E74 
 15664      63747800 
 15665              	.LASF361:
 15666 0015 63685F74 		.ascii	"ch_trace_buffer_t\000"
 15666      72616365 
 15666      5F627566 
 15666      6665725F 
 15666      7400
 15667              	.LASF393:
 15668 0027 63685F70 		.ascii	"ch_ptrsize\000"
 15668      74727369 
 15668      7A6500
 15669              	.LASF52:
 15670 0032 6D657373 		.ascii	"messagebus_watcher_s\000"
 15670      61676562 
 15670      75735F77 
 15670      61746368 
 15670      65725F73 
 15671              	.LASF672:
 15672 0047 6576656E 		.ascii	"event\000"
 15672      7400
 15673              	.LASF884:
 15674 004d 53414E44 		.ascii	"SANDSTORMS\000"
 15674      53544F52 
 15674      4D5300
 15675              	.LASF523:
 15676 0058 43414E5F 		.ascii	"CAN_STARTING\000"
 15676      53544152 
 15676      54494E47 
 15676      00
 15677              	.LASF925:
 15678 0065 4C45445F 		.ascii	"LED_nbr\000"
 15678      6E627200 
 15679              	.LASF903:
 15680 006d 44434D49 		.ascii	"DCMI_ACTIVE_ONESHOT\000"
 15680      5F414354 
 15680      4956455F 
ARM GAS  C:\Users\Moi\AppData\Local\Temp\ccAXdvuJ.s 			page 282


 15680      4F4E4553 
 15680      484F5400 
 15681              	.LASF189:
 15682 0081 6D73675F 		.ascii	"msg_t\000"
 15682      7400
 15683              	.LASF468:
 15684 0087 61667268 		.ascii	"afrh\000"
 15684      00
 15685              	.LASF615:
 15686 008c 4F504D4F 		.ascii	"OPMODE_SMBUS_DEVICE\000"
 15686      44455F53 
 15686      4D425553 
 15686      5F444556 
 15686      49434500 
 15687              	.LASF372:
 15688 00a0 6D5F6372 		.ascii	"m_crit_isr\000"
 15688      69745F69 
 15688      737200
 15689              	.LASF688:
 15690 00ab 73646366 		.ascii	"sdcflags_t\000"
 15690      6C616773 
 15690      5F7400
 15691              	.LASF924:
 15692 00b6 706F7369 		.ascii	"positionl\000"
 15692      74696F6E 
 15692      6C00
 15693              	.LASF923:
 15694 00c0 706F7369 		.ascii	"positionr\000"
 15694      74696F6E 
 15694      7200
 15695              	.LASF947:
 15696 00ca 62617474 		.ascii	"battValue\000"
 15696      56616C75 
 15696      6500
 15697              	.LASF180:
 15698 00d4 76656374 		.ascii	"vect\000"
 15698      00
 15699              	.LASF795:
 15700 00d9 44494550 		.ascii	"DIEPTXF0\000"
 15700      54584630 
 15700      00
 15701              	.LASF871:
 15702 00e2 55534244 		.ascii	"USBD1\000"
 15702      3100
 15703              	.LASF522:
 15704 00e8 43414E5F 		.ascii	"CAN_STOP\000"
 15704      53544F50 
 15704      00
 15705              	.LASF406:
 15706 00f1 63665F6F 		.ascii	"cf_off_time\000"
 15706      66665F74 
 15706      696D6500 
 15707              	.LASF248:
 15708 00fd 63685F73 		.ascii	"ch_system_t\000"
 15708      79737465 
 15708      6D5F7400 
 15709              	.LASF1:
ARM GAS  C:\Users\Moi\AppData\Local\Temp\ccAXdvuJ.s 			page 283


 15710 0109 5F5F7569 		.ascii	"__uint8_t\000"
 15710      6E74385F 
 15710      7400
 15711              	.LASF378:
 15712 0113 77747365 		.ascii	"wtsemp\000"
 15712      6D7000
 15713              	.LASF888:
 15714 011a 4D4C5F53 		.ascii	"ML_SIMPLE_PLAY\000"
 15714      494D504C 
 15714      455F504C 
 15714      415900
 15715              	.LASF50:
 15716 0129 5F426F6F 		.ascii	"_Bool\000"
 15716      6C00
 15717              	.LASF564:
 15718 012f 64617461 		.ascii	"datamode\000"
 15718      6D6F6465 
 15718      00
 15719              	.LASF631:
 15720 0138 646D6172 		.ascii	"dmarx\000"
 15720      7800
 15721              	.LASF103:
 15722 013e 5F6D6273 		.ascii	"_mbstate\000"
 15722      74617465 
 15722      00
 15723              	.LASF82:
 15724 0147 5F617465 		.ascii	"_atexit\000"
 15724      78697400 
 15725              	.LASF446:
 15726 014f 424C4B5F 		.ascii	"BLK_READING\000"
 15726      52454144 
 15726      494E4700 
 15727              	.LASF164:
 15728 015b 6368616E 		.ascii	"changed_cnt\000"
 15728      6765645F 
 15728      636E7400 
 15729              	.LASF512:
 15730 0167 73717231 		.ascii	"sqr1\000"
 15730      00
 15731              	.LASF47:
 15732 016c 7075626C 		.ascii	"published\000"
 15732      69736865 
 15732      6400
 15733              	.LASF440:
 15734 0176 424C4B5F 		.ascii	"BLK_UNINIT\000"
 15734      554E494E 
 15734      495400
 15735              	.LASF643:
 15736 0181 72785F62 		.ascii	"rx_buffer\000"
 15736      75666665 
 15736      7200
 15737              	.LASF627:
 15738 018b 6572726F 		.ascii	"errors\000"
 15738      727300
 15739              	.LASF365:
 15740 0192 776F7273 		.ascii	"worst\000"
 15740      7400
ARM GAS  C:\Users\Moi\AppData\Local\Temp\ccAXdvuJ.s 			page 284


 15741              	.LASF241:
 15742 0198 76745F73 		.ascii	"vt_systime\000"
 15742      79737469 
 15742      6D6500
 15743              	.LASF307:
 15744 01a3 444F5231 		.ascii	"DOR1\000"
 15744      00
 15745              	.LASF308:
 15746 01a8 444F5232 		.ascii	"DOR2\000"
 15746      00
 15747              	.LASF642:
 15748 01ad 74785F62 		.ascii	"tx_buffer\000"
 15748      75666665 
 15748      7200
 15749              	.LASF72:
 15750 01b7 5F5F746D 		.ascii	"__tm_mon\000"
 15750      5F6D6F6E 
 15750      00
 15751              	.LASF80:
 15752 01c0 5F666E74 		.ascii	"_fntypes\000"
 15752      79706573 
 15752      00
 15753              	.LASF387:
 15754 01c9 6D5F6E65 		.ascii	"m_next\000"
 15754      787400
 15755              	.LASF472:
 15756 01d0 50434461 		.ascii	"PCData\000"
 15756      746100
 15757              	.LASF110:
 15758 01d7 5F696E63 		.ascii	"_inc\000"
 15758      00
 15759              	.LASF83:
 15760 01dc 5F696E64 		.ascii	"_ind\000"
 15760      00
 15761              	.LASF337:
 15762 01e1 4D41534B 		.ascii	"MASK\000"
 15762      00
 15763              	.LASF497:
 15764 01e6 73616D70 		.ascii	"samples\000"
 15764      6C657300 
 15765              	.LASF799:
 15766 01ee 47434346 		.ascii	"GCCFG\000"
 15766      4700
 15767              	.LASF873:
 15768 01f4 57455F41 		.ascii	"WE_ARE_THE_CHAMPIONS\000"
 15768      52455F54 
 15768      48455F43 
 15768      48414D50 
 15768      494F4E53 
 15769              	.LASF593:
 15770 0209 42445452 		.ascii	"BDTR\000"
 15770      00
 15771              	.LASF546:
 15772 020e 7265676D 		.ascii	"regmask\000"
 15772      61736B00 
 15773              	.LASF937:
 15774 0216 63616D5F 		.ascii	"cam_zoom\000"
ARM GAS  C:\Users\Moi\AppData\Local\Temp\ccAXdvuJ.s 			page 285


 15774      7A6F6F6D 
 15774      00
 15775              	.LASF625:
 15776 021f 49324343 		.ascii	"I2CConfig\000"
 15776      6F6E6669 
 15776      6700
 15777              	.LASF31:
 15778 0229 75696E74 		.ascii	"uint16_t\000"
 15778      31365F74 
 15778      00
 15779              	.LASF632:
 15780 0232 646D6174 		.ascii	"dmatx\000"
 15780      7800
 15781              	.LASF869:
 15782 0238 736F665F 		.ascii	"sof_cb\000"
 15782      636200
 15783              	.LASF340:
 15784 023f 5344494F 		.ascii	"SDIO_TypeDef\000"
 15784      5F547970 
 15784      65446566 
 15784      00
 15785              	.LASF569:
 15786 024c 4558545F 		.ascii	"EXT_ACTIVE\000"
 15786      41435449 
 15786      564500
 15787              	.LASF89:
 15788 0257 5F666C61 		.ascii	"_flags\000"
 15788      677300
 15789              	.LASF49:
 15790 025e 6E657874 		.ascii	"next\000"
 15790      00
 15791              	.LASF465:
 15792 0263 6F737065 		.ascii	"ospeedr\000"
 15792      65647200 
 15793              	.LASF802:
 15794 026b 44494550 		.ascii	"DIEPTXF\000"
 15794      54584600 
 15795              	.LASF412:
 15796 0273 656C5F6E 		.ascii	"el_next\000"
 15796      65787400 
 15797              	.LASF894:
 15798 027b 696E636C 		.ascii	"inclination\000"
 15798      696E6174 
 15798      696F6E00 
 15799              	.LASF492:
 15800 0287 4144435F 		.ascii	"ADC_ERR_OVERFLOW\000"
 15800      4552525F 
 15800      4F564552 
 15800      464C4F57 
 15800      00
 15801              	.LASF120:
 15802 0298 5F637674 		.ascii	"_cvtlen\000"
 15802      6C656E00 
 15803              	.LASF893:
 15804 02a0 6F726965 		.ascii	"orientation\000"
 15804      6E746174 
 15804      696F6E00 
ARM GAS  C:\Users\Moi\AppData\Local\Temp\ccAXdvuJ.s 			page 286


 15805              	.LASF246:
 15806 02ac 6C6F636B 		.ascii	"lock_cnt\000"
 15806      5F636E74 
 15806      00
 15807              	.LASF222:
 15808 02b5 63685F74 		.ascii	"ch_threads_queue\000"
 15808      68726561 
 15808      64735F71 
 15808      75657565 
 15808      00
 15809              	.LASF124:
 15810 02c6 5F736967 		.ascii	"_sig_func\000"
 15810      5F66756E 
 15810      6300
 15811              	.LASF201:
 15812 02d0 705F6E65 		.ascii	"p_newer\000"
 15812      77657200 
 15813              	.LASF812:
 15814 02d8 48505254 		.ascii	"HPRT\000"
 15814      00
 15815              	.LASF766:
 15816 02dd 4843494E 		.ascii	"HCINT\000"
 15816      5400
 15817              	.LASF257:
 15818 02e3 534D5052 		.ascii	"SMPR1\000"
 15818      3100
 15819              	.LASF258:
 15820 02e9 534D5052 		.ascii	"SMPR2\000"
 15820      3200
 15821              	.LASF403:
 15822 02ef 63665F6F 		.ascii	"cf_off_flags\000"
 15822      66665F66 
 15822      6C616773 
 15822      00
 15823              	.LASF102:
 15824 02fc 5F6C6F63 		.ascii	"_lock\000"
 15824      6B00
 15825              	.LASF98:
 15826 0302 5F6E6275 		.ascii	"_nbuf\000"
 15826      6600
 15827              	.LASF705:
 15828 0308 5350495F 		.ascii	"SPI_STOP\000"
 15828      53544F50 
 15828      00
 15829              	.LASF156:
 15830 0311 5F756E75 		.ascii	"_unused\000"
 15830      73656400 
 15831              	.LASF872:
 15832 0319 494D504F 		.ascii	"IMPOSSIBLE_MISSION\000"
 15832      53534942 
 15832      4C455F4D 
 15832      49535349 
 15832      4F4E00
 15833              	.LASF471:
 15834 032c 50424461 		.ascii	"PBData\000"
 15834      746100
 15835              	.LASF391:
ARM GAS  C:\Users\Moi\AppData\Local\Temp\ccAXdvuJ.s 			page 287


 15836 0333 63685F73 		.ascii	"ch_size\000"
 15836      697A6500 
 15837              	.LASF900:
 15838 033b 44434D49 		.ascii	"DCMI_STOP\000"
 15838      5F53544F 
 15838      5000
 15839              	.LASF808:
 15840 0345 48505458 		.ascii	"HPTXSTS\000"
 15840      53545300 
 15841              	.LASF464:
 15842 034d 6F747970 		.ascii	"otyper\000"
 15842      657200
 15843              	.LASF455:
 15844 0354 4F545950 		.ascii	"OTYPER\000"
 15844      455200
 15845              	.LASF548:
 15846 035b 64616370 		.ascii	"dacparams_t\000"
 15846      6172616D 
 15846      735F7400 
 15847              	.LASF330:
 15848 0367 52455350 		.ascii	"RESP2\000"
 15848      3200
 15849              	.LASF683:
 15850 036d 5344435F 		.ascii	"SDC_MODE_1BIT\000"
 15850      4D4F4445 
 15850      5F314249 
 15850      5400
 15851              	.LASF764:
 15852 037b 48434348 		.ascii	"HCCHAR\000"
 15852      415200
 15853              	.LASF609:
 15854 0382 4932435F 		.ascii	"I2C_ACTIVE_RX\000"
 15854      41435449 
 15854      56455F52 
 15854      5800
 15855              	.LASF195:
 15856 0390 74687265 		.ascii	"thread_t\000"
 15856      61645F74 
 15856      00
 15857              	.LASF414:
 15858 0399 656C5F65 		.ascii	"el_events\000"
 15858      76656E74 
 15858      7300
 15859              	.LASF652:
 15860 03a3 70776D73 		.ascii	"pwmstate_t\000"
 15860      74617465 
 15860      5F7400
 15861              	.LASF533:
 15862 03ae 736C6565 		.ascii	"sleep_event\000"
 15862      705F6576 
 15862      656E7400 
 15863              	.LASF240:
 15864 03ba 63685F76 		.ascii	"ch_virtual_timers_list\000"
 15864      69727475 
 15864      616C5F74 
 15864      696D6572 
 15864      735F6C69 
ARM GAS  C:\Users\Moi\AppData\Local\Temp\ccAXdvuJ.s 			page 288


 15865              	.LASF437:
 15866 03d1 76656374 		.ascii	"vector\000"
 15866      6F7200
 15867              	.LASF790:
 15868 03d8 47494E54 		.ascii	"GINTSTS\000"
 15868      53545300 
 15869              	.LASF32:
 15870 03e0 696E7433 		.ascii	"int32_t\000"
 15870      325F7400 
 15871              	.LASF623:
 15872 03e8 636C6F63 		.ascii	"clock_speed\000"
 15872      6B5F7370 
 15872      65656400 
 15873              	.LASF194:
 15874 03f4 73797374 		.ascii	"systime_t\000"
 15874      696D655F 
 15874      7400
 15875              	.LASF566:
 15876 03fe 44414344 		.ascii	"DACD2\000"
 15876      3200
 15877              	.LASF535:
 15878 0404 43414E44 		.ascii	"CANDriver\000"
 15878      72697665 
 15878      7200
 15879              	.LASF134:
 15880 040e 5F616464 		.ascii	"_add\000"
 15880      00
 15881              	.LASF318:
 15882 0413 4D304152 		.ascii	"M0AR\000"
 15882      00
 15883              	.LASF771:
 15884 0418 72657376 		.ascii	"resvd1c\000"
 15884      64316300 
 15885              	.LASF613:
 15886 0420 69326366 		.ascii	"i2cflags_t\000"
 15886      6C616773 
 15886      5F7400
 15887              	.LASF809:
 15888 042b 4841494E 		.ascii	"HAINT\000"
 15888      5400
 15889              	.LASF293:
 15890 0431 46413152 		.ascii	"FA1R\000"
 15890      00
 15891              	.LASF316:
 15892 0436 44434D49 		.ascii	"DCMI_TypeDef\000"
 15892      5F547970 
 15892      65446566 
 15892      00
 15893              	.LASF908:
 15894 0443 44434D49 		.ascii	"DCMIDriver\000"
 15894      44726976 
 15894      657200
 15895              	.LASF806:
 15896 044e 48464E55 		.ascii	"HFNUM\000"
 15896      4D00
 15897              	.LASF918:
 15898 0454 655F616D 		.ascii	"e_ambient_ir\000"
ARM GAS  C:\Users\Moi\AppData\Local\Temp\ccAXdvuJ.s 			page 289


 15898      6269656E 
 15898      745F6972 
 15898      00
 15899              	.LASF430:
 15900 0461 716E6F74 		.ascii	"qnotify_t\000"
 15900      6966795F 
 15900      7400
 15901              	.LASF488:
 15902 046b 61646373 		.ascii	"adcstate_t\000"
 15902      74617465 
 15902      5F7400
 15903              	.LASF915:
 15904 0476 44434D49 		.ascii	"DCMID\000"
 15904      4400
 15905              	.LASF691:
 15906 047c 63617264 		.ascii	"cardmode\000"
 15906      6D6F6465 
 15906      00
 15907              	.LASF435:
 15908 0485 69736869 		.ascii	"ishift\000"
 15908      667400
 15909              	.LASF583:
 15910 048c 4750545F 		.ascii	"GPT_ONESHOT\000"
 15910      4F4E4553 
 15910      484F5400 
 15911              	.LASF425:
 15912 0498 715F746F 		.ascii	"q_top\000"
 15912      7000
 15913              	.LASF91:
 15914 049e 5F6C6266 		.ascii	"_lbfsize\000"
 15914      73697A65 
 15914      00
 15915              	.LASF757:
 15916 04a7 75645F73 		.ascii	"ud_string\000"
 15916      7472696E 
 15916      6700
 15917              	.LASF626:
 15918 04b1 49324344 		.ascii	"I2CDriver\000"
 15918      72697665 
 15918      7200
 15919              	.LASF608:
 15920 04bb 4932435F 		.ascii	"I2C_ACTIVE_TX\000"
 15920      41435449 
 15920      56455F54 
 15920      5800
 15921              	.LASF678:
 15922 04c9 72656164 		.ascii	"read\000"
 15922      00
 15923              	.LASF614:
 15924 04ce 4F504D4F 		.ascii	"OPMODE_I2C\000"
 15924      44455F49 
 15924      324300
 15925              	.LASF818:
 15926 04d9 72657376 		.ascii	"resvd80C\000"
 15926      64383043 
 15926      00
 15927              	.LASF866:
ARM GAS  C:\Users\Moi\AppData\Local\Temp\ccAXdvuJ.s 			page 290


 15928 04e2 6576656E 		.ascii	"event_cb\000"
 15928      745F6362 
 15928      00
 15929              	.LASF163:
 15930 04eb 70617261 		.ascii	"parameter_namespace_s\000"
 15930      6D657465 
 15930      725F6E61 
 15930      6D657370 
 15930      6163655F 
 15931              	.LASF162:
 15932 0501 70617261 		.ascii	"parameter_namespace_t\000"
 15932      6D657465 
 15932      725F6E61 
 15932      6D657370 
 15932      6163655F 
 15933              	.LASF785:
 15934 0517 474F5447 		.ascii	"GOTGCTL\000"
 15934      43544C00 
 15935              	.LASF760:
 15936 051f 75736265 		.ascii	"usbepcallback_t\000"
 15936      7063616C 
 15936      6C626163 
 15936      6B5F7400 
 15937              	.LASF101:
 15938 052f 5F646174 		.ascii	"_data\000"
 15938      6100
 15939              	.LASF251:
 15940 0535 76746C69 		.ascii	"vtlist\000"
 15940      737400
 15941              	.LASF323:
 15942 053c 54524953 		.ascii	"TRISE\000"
 15942      4500
 15943              	.LASF824:
 15944 0542 72657376 		.ascii	"resvd824\000"
 15944      64383234 
 15944      00
 15945              	.LASF210:
 15946 054b 705F7761 		.ascii	"p_waiting\000"
 15946      6974696E 
 15946      6700
 15947              	.LASF373:
 15948 0555 6B65726E 		.ascii	"kernel_stats_t\000"
 15948      656C5F73 
 15948      74617473 
 15948      5F7400
 15949              	.LASF943:
 15950 0564 69725F61 		.ascii	"ir_address\000"
 15950      64647265 
 15950      737300
 15951              	.LASF422:
 15952 056f 715F7761 		.ascii	"q_waiting\000"
 15952      6974696E 
 15952      6700
 15953              	.LASF275:
 15954 0579 43414E5F 		.ascii	"CAN_TxMailBox_TypeDef\000"
 15954      54784D61 
 15954      696C426F 
ARM GAS  C:\Users\Moi\AppData\Local\Temp\ccAXdvuJ.s 			page 291


 15954      785F5479 
 15954      70654465 
 15955              	.LASF250:
 15956 058f 726C6973 		.ascii	"rlist\000"
 15956      7400
 15957              	.LASF219:
 15958 0595 74687265 		.ascii	"threads_list_t\000"
 15958      6164735F 
 15958      6C697374 
 15958      5F7400
 15959              	.LASF363:
 15960 05a4 746D5F63 		.ascii	"tm_calibration_t\000"
 15960      616C6962 
 15960      72617469 
 15960      6F6E5F74 
 15960      00
 15961              	.LASF431:
 15962 05b5 696E7075 		.ascii	"input_queue_t\000"
 15962      745F7175 
 15962      6575655F 
 15962      7400
 15963              	.LASF515:
 15964 05c3 41444343 		.ascii	"ADCConversionGroup\000"
 15964      6F6E7665 
 15964      7273696F 
 15964      6E47726F 
 15964      757000
 15965              	.LASF942:
 15966 05d6 69725F6D 		.ascii	"ir_move\000"
 15966      6F766500 
 15967              	.LASF817:
 15968 05de 44535453 		.ascii	"DSTS\000"
 15968      00
 15969              	.LASF157:
 15970 05e3 5F5F6C6F 		.ascii	"__lock\000"
 15970      636B00
 15971              	.LASF618:
 15972 05ea 5354445F 		.ascii	"STD_DUTY_CYCLE\000"
 15972      44555459 
 15972      5F435943 
 15972      4C4500
 15973              	.LASF105:
 15974 05f9 5F726565 		.ascii	"_reent\000"
 15974      6E7400
 15975              	.LASF399:
 15976 0600 63665F6F 		.ascii	"cf_off_older\000"
 15976      66665F6F 
 15976      6C646572 
 15976      00
 15977              	.LASF183:
 15978 060d 72747469 		.ascii	"rttime_t\000"
 15978      6D655F74 
 15978      00
 15979              	.LASF578:
 15980 0616 45585444 		.ascii	"EXTD1\000"
 15980      3100
 15981              	.LASF851:
ARM GAS  C:\Users\Moi\AppData\Local\Temp\ccAXdvuJ.s 			page 292


 15982 061c 72787175 		.ascii	"rxqueued\000"
 15982      65756564 
 15982      00
 15983              	.LASF526:
 15984 0625 63616E73 		.ascii	"canstate_t\000"
 15984      74617465 
 15984      5F7400
 15985              	.LASF295:
 15986 0630 7346696C 		.ascii	"sFilterRegister\000"
 15986      74657252 
 15986      65676973 
 15986      74657200 
 15987              	.LASF126:
 15988 0640 5F5F7366 		.ascii	"__sf\000"
 15988      00
 15989              	.LASF920:
 15990 0645 77616974 		.ascii	"wait_cam\000"
 15990      5F63616D 
 15990      00
 15991              	.LASF823:
 15992 064e 72657376 		.ascii	"resvd820\000"
 15992      64383230 
 15992      00
 15993              	.LASF86:
 15994 0657 5F626173 		.ascii	"_base\000"
 15994      6500
 15995              	.LASF329:
 15996 065d 52455350 		.ascii	"RESP1\000"
 15996      3100
 15997              	.LASF331:
 15998 0663 52455350 		.ascii	"RESP3\000"
 15998      3300
 15999              	.LASF332:
 16000 0669 52455350 		.ascii	"RESP4\000"
 16000      3400
 16001              	.LASF143:
 16002 066f 5F6D6274 		.ascii	"_mbtowc_state\000"
 16002      6F77635F 
 16002      73746174 
 16002      6500
 16003              	.LASF605:
 16004 067d 4932435F 		.ascii	"I2C_UNINIT\000"
 16004      554E494E 
 16004      495400
 16005              	.LASF762:
 16006 0688 75736272 		.ascii	"usbreqhandler_t\000"
 16006      65716861 
 16006      6E646C65 
 16006      725F7400 
 16007              	.LASF486:
 16008 0698 4144435F 		.ascii	"ADC_COMPLETE\000"
 16008      434F4D50 
 16008      4C455445 
 16008      00
 16009              	.LASF602:
 16010 06a5 47505443 		.ascii	"GPTConfig\000"
 16010      6F6E6669 
ARM GAS  C:\Users\Moi\AppData\Local\Temp\ccAXdvuJ.s 			page 293


 16010      6700
 16011              	.LASF667:
 16012 06af 53445F55 		.ascii	"SD_UNINIT\000"
 16012      4E494E49 
 16012      5400
 16013              	.LASF899:
 16014 06b9 44434D49 		.ascii	"DCMI_UNINIT\000"
 16014      5F554E49 
 16014      4E495400 
 16015              	.LASF188:
 16016 06c5 74707269 		.ascii	"tprio_t\000"
 16016      6F5F7400 
 16017              	.LASF369:
 16018 06cd 6E5F6972 		.ascii	"n_irq\000"
 16018      7100
 16019              	.LASF45:
 16020 06d3 636F6E64 		.ascii	"condvar\000"
 16020      76617200 
 16021              	.LASF646:
 16022 06db 69327370 		.ascii	"i2spr\000"
 16022      7200
 16023              	.LASF827:
 16024 06e1 72657376 		.ascii	"resvd830\000"
 16024      64383330 
 16024      00
 16025              	.LASF67:
 16026 06ea 5F5F746D 		.ascii	"__tm\000"
 16026      00
 16027              	.LASF829:
 16028 06ef 72657376 		.ascii	"resvd838\000"
 16028      64383338 
 16028      00
 16029              	.LASF621:
 16030 06f8 69326364 		.ascii	"i2cdutycycle_t\000"
 16030      75747963 
 16030      79636C65 
 16030      5F7400
 16031              	.LASF37:
 16032 0707 6F707461 		.ascii	"optarg\000"
 16032      726700
 16033              	.LASF830:
 16034 070e 72657376 		.ascii	"resvd83C\000"
 16034      64383343 
 16034      00
 16035              	.LASF500:
 16036 0717 74687265 		.ascii	"thread\000"
 16036      616400
 16037              	.LASF545:
 16038 071e 72656773 		.ascii	"regshift\000"
 16038      68696674 
 16038      00
 16039              	.LASF725:
 16040 0727 73657475 		.ascii	"setup\000"
 16040      7000
 16041              	.LASF704:
 16042 072d 5350495F 		.ascii	"SPI_UNINIT\000"
 16042      554E494E 
ARM GAS  C:\Users\Moi\AppData\Local\Temp\ccAXdvuJ.s 			page 294


 16042      495400
 16043              	.LASF778:
 16044 0738 44545846 		.ascii	"DTXFSTS\000"
 16044      53545300 
 16045              	.LASF450:
 16046 0740 626C6B5F 		.ascii	"blk_size\000"
 16046      73697A65 
 16046      00
 16047              	.LASF607:
 16048 0749 4932435F 		.ascii	"I2C_READY\000"
 16048      52454144 
 16048      5900
 16049              	.LASF75:
 16050 0753 5F5F746D 		.ascii	"__tm_yday\000"
 16050      5F796461 
 16050      7900
 16051              	.LASF719:
 16052 075d 696E5F70 		.ascii	"in_params\000"
 16052      6172616D 
 16052      7300
 16053              	.LASF592:
 16054 0767 43434552 		.ascii	"CCER\000"
 16054      00
 16055              	.LASF345:
 16056 076c 49325350 		.ascii	"I2SPR\000"
 16056      5200
 16057              	.LASF649:
 16058 0772 50574D5F 		.ascii	"PWM_UNINIT\000"
 16058      554E494E 
 16058      495400
 16059              	.LASF364:
 16060 077d 62657374 		.ascii	"best\000"
 16060      00
 16061              	.LASF172:
 16062 0782 74797065 		.ascii	"type\000"
 16062      00
 16063              	.LASF787:
 16064 0787 47414842 		.ascii	"GAHBCFG\000"
 16064      43464700 
 16065              	.LASF555:
 16066 078f 64616363 		.ascii	"daccallback_t\000"
 16066      616C6C62 
 16066      61636B5F 
 16066      7400
 16067              	.LASF18:
 16068 079d 5F4C4F43 		.ascii	"_LOCK_T\000"
 16068      4B5F5400 
 16069              	.LASF831:
 16070 07a5 72657376 		.ascii	"resvd840\000"
 16070      64383430 
 16070      00
 16071              	.LASF877:
 16072 07ae 4D415249 		.ascii	"MARIO_START\000"
 16072      4F5F5354 
 16072      41525400 
 16073              	.LASF341:
 16074 07ba 43524350 		.ascii	"CRCPR\000"
ARM GAS  C:\Users\Moi\AppData\Local\Temp\ccAXdvuJ.s 			page 295


 16074      5200
 16075              	.LASF445:
 16076 07c0 424C4B5F 		.ascii	"BLK_READY\000"
 16076      52454144 
 16076      5900
 16077              	.LASF4:
 16078 07ca 5F5F696E 		.ascii	"__int16_t\000"
 16078      7431365F 
 16078      7400
 16079              	.LASF6:
 16080 07d4 5F5F7569 		.ascii	"__uint16_t\000"
 16080      6E743136 
 16080      5F7400
 16081              	.LASF582:
 16082 07df 4750545F 		.ascii	"GPT_CONTINUOUS\000"
 16082      434F4E54 
 16082      494E554F 
 16082      555300
 16083              	.LASF845:
 16084 07ee 74787175 		.ascii	"txqueued\000"
 16084      65756564 
 16084      00
 16085              	.LASF212:
 16086 07f7 705F6D73 		.ascii	"p_msg\000"
 16086      6700
 16087              	.LASF135:
 16088 07fd 5F756E75 		.ascii	"_unused_rand\000"
 16088      7365645F 
 16088      72616E64 
 16088      00
 16089              	.LASF784:
 16090 080a 73746D33 		.ascii	"stm32_otg_out_ep_t\000"
 16090      325F6F74 
 16090      675F6F75 
 16090      745F6570 
 16090      5F7400
 16091              	.LASF793:
 16092 081d 47525853 		.ascii	"GRXSTSP\000"
 16092      54535000 
 16093              	.LASF792:
 16094 0825 47525853 		.ascii	"GRXSTSR\000"
 16094      54535200 
 16095              	.LASF375:
 16096 082d 65786974 		.ascii	"exitcode\000"
 16096      636F6465 
 16096      00
 16097              	.LASF319:
 16098 0836 4D314152 		.ascii	"M1AR\000"
 16098      00
 16099              	.LASF732:
 16100 083b 77616974 		.ascii	"wait\000"
 16100      00
 16101              	.LASF320:
 16102 0840 444D415F 		.ascii	"DMA_Stream_TypeDef\000"
 16102      53747265 
 16102      616D5F54 
 16102      79706544 
ARM GAS  C:\Users\Moi\AppData\Local\Temp\ccAXdvuJ.s 			page 296


 16102      656600
 16103              	.LASF504:
 16104 0853 61646363 		.ascii	"adccallback_t\000"
 16104      616C6C62 
 16104      61636B5F 
 16104      7400
 16105              	.LASF739:
 16106 0861 5553425F 		.ascii	"USB_ACTIVE\000"
 16106      41435449 
 16106      564500
 16107              	.LASF41:
 16108 086c 6F707472 		.ascii	"optreset\000"
 16108      65736574 
 16108      00
 16109              	.LASF780:
 16110 0875 73746D33 		.ascii	"stm32_otg_in_ep_t\000"
 16110      325F6F74 
 16110      675F696E 
 16110      5F65705F 
 16110      7400
 16111              	.LASF853:
 16112 0887 7278636E 		.ascii	"rxcnt\000"
 16112      7400
 16113              	.LASF482:
 16114 088d 4144435F 		.ascii	"ADC_UNINIT\000"
 16114      554E494E 
 16114      495400
 16115              	.LASF629:
 16116 0898 7278646D 		.ascii	"rxdmamode\000"
 16116      616D6F64 
 16116      6500
 16117              	.LASF117:
 16118 08a2 5F726573 		.ascii	"_result_k\000"
 16118      756C745F 
 16118      6B00
 16119              	.LASF574:
 16120 08ac 6D6F6465 		.ascii	"mode\000"
 16120      00
 16121              	.LASF109:
 16122 08b1 5F737464 		.ascii	"_stderr\000"
 16122      65727200 
 16123              	.LASF116:
 16124 08b9 5F726573 		.ascii	"_result\000"
 16124      756C7400 
 16125              	.LASF388:
 16126 08c1 6D5F636E 		.ascii	"m_cnt\000"
 16126      7400
 16127              	.LASF571:
 16128 08c7 45585444 		.ascii	"EXTDriver\000"
 16128      72697665 
 16128      7200
 16129              	.LASF79:
 16130 08d1 5F64736F 		.ascii	"_dso_handle\000"
 16130      5F68616E 
 16130      646C6500 
 16131              	.LASF641:
 16132 08dd 69327363 		.ascii	"i2scallback_t\000"
ARM GAS  C:\Users\Moi\AppData\Local\Temp\ccAXdvuJ.s 			page 297


 16132      616C6C62 
 16132      61636B5F 
 16132      7400
 16133              	.LASF713:
 16134 08eb 73737061 		.ascii	"sspad\000"
 16134      6400
 16135              	.LASF630:
 16136 08f1 7478646D 		.ascii	"txdmamode\000"
 16136      616D6F64 
 16136      6500
 16137              	.LASF177:
 16138 08fb 6275665F 		.ascii	"buf_dim\000"
 16138      64696D00 
 16139              	.LASF598:
 16140 0903 67707466 		.ascii	"gptfreq_t\000"
 16140      7265715F 
 16140      7400
 16141              	.LASF946:
 16142 090d 7573655F 		.ascii	"use_bt\000"
 16142      627400
 16143              	.LASF74:
 16144 0914 5F5F746D 		.ascii	"__tm_wday\000"
 16144      5F776461 
 16144      7900
 16145              	.LASF71:
 16146 091e 5F5F746D 		.ascii	"__tm_mday\000"
 16146      5F6D6461 
 16146      7900
 16147              	.LASF838:
 16148 0928 72785F66 		.ascii	"rx_fifo_size\000"
 16148      69666F5F 
 16148      73697A65 
 16148      00
 16149              	.LASF350:
 16150 0935 73746B61 		.ascii	"stkalign_t\000"
 16150      6C69676E 
 16150      5F7400
 16151              	.LASF179:
 16152 0940 5F706172 		.ascii	"_param_val_matrix_s\000"
 16152      616D5F76 
 16152      616C5F6D 
 16152      61747269 
 16152      785F7300 
 16153              	.LASF553:
 16154 0954 4441435F 		.ascii	"DAC_ERR_UNDERFLOW\000"
 16154      4552525F 
 16154      554E4445 
 16154      52464C4F 
 16154      5700
 16155              	.LASF534:
 16156 0966 77616B65 		.ascii	"wakeup_event\000"
 16156      75705F65 
 16156      76656E74 
 16156      00
 16157              	.LASF235:
 16158 0973 76745F70 		.ascii	"vt_prev\000"
 16158      72657600 
ARM GAS  C:\Users\Moi\AppData\Local\Temp\ccAXdvuJ.s 			page 298


 16159              	.LASF508:
 16160 097b 656E645F 		.ascii	"end_cb\000"
 16160      636200
 16161              	.LASF856:
 16162 0982 73657475 		.ascii	"setup_cb\000"
 16162      705F6362 
 16162      00
 16163              	.LASF3:
 16164 098b 756E7369 		.ascii	"unsigned char\000"
 16164      676E6564 
 16164      20636861 
 16164      7200
 16165              	.LASF108:
 16166 0999 5F737464 		.ascii	"_stdout\000"
 16166      6F757400 
 16167              	.LASF339:
 16168 09a1 4649464F 		.ascii	"FIFO\000"
 16168      00
 16169              	.LASF528:
 16170 09a6 74787175 		.ascii	"txqueue\000"
 16170      65756500 
 16171              	.LASF310:
 16172 09ae 52495352 		.ascii	"RISR\000"
 16172      00
 16173              	.LASF347:
 16174 09b3 47545052 		.ascii	"GTPR\000"
 16174      00
 16175              	.LASF383:
 16176 09b8 735F636E 		.ascii	"s_cnt\000"
 16176      7400
 16177              	.LASF223:
 16178 09be 72656164 		.ascii	"ready_list_t\000"
 16178      795F6C69 
 16178      73745F74 
 16178      00
 16179              	.LASF196:
 16180 09cb 63685F74 		.ascii	"ch_thread\000"
 16180      68726561 
 16180      6400
 16181              	.LASF616:
 16182 09d5 4F504D4F 		.ascii	"OPMODE_SMBUS_HOST\000"
 16182      44455F53 
 16182      4D425553 
 16182      5F484F53 
 16182      5400
 16183              	.LASF150:
 16184 09e7 5F6D6273 		.ascii	"_mbsrtowcs_state\000"
 16184      72746F77 
 16184      63735F73 
 16184      74617465 
 16184      00
 16185              	.LASF734:
 16186 09f8 75736265 		.ascii	"usbep_t\000"
 16186      705F7400 
 16187              	.LASF66:
 16188 0a00 5F776473 		.ascii	"_wds\000"
 16188      00
ARM GAS  C:\Users\Moi\AppData\Local\Temp\ccAXdvuJ.s 			page 299


 16189              	.LASF634:
 16190 0a05 4932535F 		.ascii	"I2S_UNINIT\000"
 16190      554E494E 
 16190      495400
 16191              	.LASF178:
 16192 0a10 666C6F61 		.ascii	"float\000"
 16192      7400
 16193              	.LASF883:
 16194 0a16 53544152 		.ascii	"STARWARS\000"
 16194      57415253 
 16194      00
 16195              	.LASF567:
 16196 0a1f 4558545F 		.ascii	"EXT_UNINIT\000"
 16196      554E494E 
 16196      495400
 16197              	.LASF525:
 16198 0a2a 43414E5F 		.ascii	"CAN_SLEEP\000"
 16198      534C4545 
 16198      5000
 16199              	.LASF356:
 16200 0a34 73655F73 		.ascii	"se_state\000"
 16200      74617465 
 16200      00
 16201              	.LASF87:
 16202 0a3d 5F73697A 		.ascii	"_size\000"
 16202      6500
 16203              	.LASF703:
 16204 0a43 53444344 		.ascii	"SDCD1\000"
 16204      3100
 16205              	.LASF242:
 16206 0a49 73797374 		.ascii	"system_debug_t\000"
 16206      656D5F64 
 16206      65627567 
 16206      5F7400
 16207              	.LASF300:
 16208 0a58 44485238 		.ascii	"DHR8R1\000"
 16208      523100
 16209              	.LASF303:
 16210 0a5f 44485238 		.ascii	"DHR8R2\000"
 16210      523200
 16211              	.LASF589:
 16212 0a66 44494552 		.ascii	"DIER\000"
 16212      00
 16213              	.LASF927:
 16214 0a6b 61636378 		.ascii	"accx\000"
 16214      00
 16215              	.LASF928:
 16216 0a70 61636379 		.ascii	"accy\000"
 16216      00
 16217              	.LASF200:
 16218 0a75 705F6374 		.ascii	"p_ctx\000"
 16218      7800
 16219              	.LASF238:
 16220 0a7b 76745F70 		.ascii	"vt_par\000"
 16220      617200
 16221              	.LASF259:
 16222 0a82 4A4F4652 		.ascii	"JOFR1\000"
ARM GAS  C:\Users\Moi\AppData\Local\Temp\ccAXdvuJ.s 			page 300


 16222      3100
 16223              	.LASF260:
 16224 0a88 4A4F4652 		.ascii	"JOFR2\000"
 16224      3200
 16225              	.LASF262:
 16226 0a8e 4A4F4652 		.ascii	"JOFR4\000"
 16226      3400
 16227              	.LASF874:
 16228 0a94 52555353 		.ascii	"RUSSIA\000"
 16228      494100
 16229              	.LASF94:
 16230 0a9b 5F777269 		.ascii	"_write\000"
 16230      746500
 16231              	.LASF343:
 16232 0aa2 54584352 		.ascii	"TXCRCR\000"
 16232      435200
 16233              	.LASF560:
 16234 0aa9 64616364 		.ascii	"dacdhrmode_t\000"
 16234      68726D6F 
 16234      64655F74 
 16234      00
 16235              	.LASF502:
 16236 0ab6 646D6173 		.ascii	"dmastp\000"
 16236      747000
 16237              	.LASF738:
 16238 0abd 5553425F 		.ascii	"USB_SELECTED\000"
 16238      53454C45 
 16238      43544544 
 16238      00
 16239              	.LASF620:
 16240 0aca 46415354 		.ascii	"FAST_DUTY_CYCLE_16_9\000"
 16240      5F445554 
 16240      595F4359 
 16240      434C455F 
 16240      31365F39 
 16241              	.LASF34:
 16242 0adf 75696E74 		.ascii	"uint64_t\000"
 16242      36345F74 
 16242      00
 16243              	.LASF370:
 16244 0ae8 6E5F6374 		.ascii	"n_ctxswc\000"
 16244      78737763 
 16244      00
 16245              	.LASF938:
 16246 0af1 63616D5F 		.ascii	"cam_size\000"
 16246      73697A65 
 16246      00
 16247              	.LASF408:
 16248 0afa 63685F64 		.ascii	"ch_debug\000"
 16248      65627567 
 16248      00
 16249              	.LASF563:
 16250 0b03 696E6974 		.ascii	"init\000"
 16250      00
 16251              	.LASF287:
 16252 0b08 464D3152 		.ascii	"FM1R\000"
 16252      00
ARM GAS  C:\Users\Moi\AppData\Local\Temp\ccAXdvuJ.s 			page 301


 16253              	.LASF479:
 16254 0b0d 50414C43 		.ascii	"PALConfig\000"
 16254      6F6E6669 
 16254      6700
 16255              	.LASF847:
 16256 0b17 7478636E 		.ascii	"txcnt\000"
 16256      7400
 16257              	.LASF166:
 16258 0b1d 73756273 		.ascii	"subspaces\000"
 16258      70616365 
 16258      7300
 16259              	.LASF761:
 16260 0b27 75736265 		.ascii	"usbeventcb_t\000"
 16260      76656E74 
 16260      63625F74 
 16260      00
 16261              	.LASF442:
 16262 0b34 424C4B5F 		.ascii	"BLK_ACTIVE\000"
 16262      41435449 
 16262      564500
 16263              	.LASF73:
 16264 0b3f 5F5F746D 		.ascii	"__tm_year\000"
 16264      5F796561 
 16264      7200
 16265              	.LASF410:
 16266 0b49 6576656E 		.ascii	"event_listener_t\000"
 16266      745F6C69 
 16266      7374656E 
 16266      65725F74 
 16266      00
 16267              	.LASF839:
 16268 0b5a 6F74675F 		.ascii	"otg_ram_size\000"
 16268      72616D5F 
 16268      73697A65 
 16268      00
 16269              	.LASF917:
 16270 0b67 73656C65 		.ascii	"selector\000"
 16270      63746F72 
 16270      00
 16271              	.LASF841:
 16272 0b70 73746D33 		.ascii	"stm32_otg_params_t\000"
 16272      325F6F74 
 16272      675F7061 
 16272      72616D73 
 16272      5F7400
 16273              	.LASF834:
 16274 0b83 72657376 		.ascii	"resvdD00\000"
 16274      64443030 
 16274      00
 16275              	.LASF342:
 16276 0b8c 52584352 		.ascii	"RXCRCR\000"
 16276      435200
 16277              	.LASF850:
 16278 0b93 72786275 		.ascii	"rxbuf\000"
 16278      6600
 16279              	.LASF133:
 16280 0b99 5F6D756C 		.ascii	"_mult\000"
ARM GAS  C:\Users\Moi\AppData\Local\Temp\ccAXdvuJ.s 			page 302


 16280      7400
 16281              	.LASF878:
 16282 0b9f 4D415249 		.ascii	"MARIO_DEATH\000"
 16282      4F5F4445 
 16282      41544800 
 16283              	.LASF384:
 16284 0bab 63685F6D 		.ascii	"ch_mutex\000"
 16284      75746578 
 16284      00
 16285              	.LASF531:
 16286 0bb4 7478656D 		.ascii	"txempty_event\000"
 16286      7074795F 
 16286      6576656E 
 16286      7400
 16287              	.LASF653:
 16288 0bc2 50574D44 		.ascii	"PWMDriver\000"
 16288      72697665 
 16288      7200
 16289              	.LASF476:
 16290 0bcc 50474461 		.ascii	"PGData\000"
 16290      746100
 16291              	.LASF662:
 16292 0bd3 50574D43 		.ascii	"PWMConfig\000"
 16292      6F6E6669 
 16292      6700
 16293              	.LASF148:
 16294 0bdd 5F6D6272 		.ascii	"_mbrlen_state\000"
 16294      6C656E5F 
 16294      73746174 
 16294      6500
 16295              	.LASF173:
 16296 0beb 76616C75 		.ascii	"value\000"
 16296      6500
 16297              	.LASF398:
 16298 0bf1 63665F6F 		.ascii	"cf_off_newer\000"
 16298      66665F6E 
 16298      65776572 
 16298      00
 16299              	.LASF819:
 16300 0bfe 44494550 		.ascii	"DIEPMSK\000"
 16300      4D534B00 
 16301              	.LASF786:
 16302 0c06 474F5447 		.ascii	"GOTGINT\000"
 16302      494E5400 
 16303              	.LASF929:
 16304 0c0e 6163637A 		.ascii	"accz\000"
 16304      00
 16305              	.LASF858:
 16306 0c13 6F75745F 		.ascii	"out_cb\000"
 16306      636200
 16307              	.LASF810:
 16308 0c1a 4841494E 		.ascii	"HAINTMSK\000"
 16308      544D534B 
 16308      00
 16309              	.LASF720:
 16310 0c23 6F75745F 		.ascii	"out_params\000"
 16310      70617261 
ARM GAS  C:\Users\Moi\AppData\Local\Temp\ccAXdvuJ.s 			page 303


 16310      6D7300
 16311              	.LASF355:
 16312 0c2e 73655F77 		.ascii	"se_wtobjp\000"
 16312      746F626A 
 16312      7000
 16313              	.LASF266:
 16314 0c38 4A535152 		.ascii	"JSQR\000"
 16314      00
 16315              	.LASF107:
 16316 0c3d 5F737464 		.ascii	"_stdin\000"
 16316      696E00
 16317              	.LASF155:
 16318 0c44 5F6E6D61 		.ascii	"_nmalloc\000"
 16318      6C6C6F63 
 16318      00
 16319              	.LASF601:
 16320 0c4d 64696572 		.ascii	"dier\000"
 16320      00
 16321              	.LASF698:
 16322 0c52 69735F70 		.ascii	"is_protected\000"
 16322      726F7465 
 16322      63746564 
 16322      00
 16323              	.LASF935:
 16324 0c5f 63616D5F 		.ascii	"cam_width\000"
 16324      77696474 
 16324      6800
 16325              	.LASF232:
 16326 0c69 76697274 		.ascii	"virtual_timer_t\000"
 16326      75616C5F 
 16326      74696D65 
 16326      725F7400 
 16327              	.LASF860:
 16328 0c79 6F75745F 		.ascii	"out_maxsize\000"
 16328      6D617873 
 16328      697A6500 
 16329              	.LASF227:
 16330 0c85 725F6374 		.ascii	"r_ctx\000"
 16330      7800
 16331              	.LASF234:
 16332 0c8b 76745F6E 		.ascii	"vt_next\000"
 16332      65787400 
 16333              	.LASF635:
 16334 0c93 4932535F 		.ascii	"I2S_STOP\000"
 16334      53544F50 
 16334      00
 16335              	.LASF650:
 16336 0c9c 50574D5F 		.ascii	"PWM_STOP\000"
 16336      53544F50 
 16336      00
 16337              	.LASF193:
 16338 0ca5 75636E74 		.ascii	"ucnt_t\000"
 16338      5F7400
 16339              	.LASF182:
 16340 0cac 7274636E 		.ascii	"rtcnt_t\000"
 16340      745F7400 
 16341              	.LASF501:
ARM GAS  C:\Users\Moi\AppData\Local\Temp\ccAXdvuJ.s 			page 304


 16342 0cb4 6D757465 		.ascii	"mutex\000"
 16342      7800
 16343              	.LASF644:
 16344 0cba 73697A65 		.ascii	"size\000"
 16344      00
 16345              	.LASF952:
 16346 0cbf 72756E5F 		.ascii	"run_asercom\000"
 16346      61736572 
 16346      636F6D00 
 16347              	.LASF549:
 16348 0ccb 44414344 		.ascii	"DACDriver\000"
 16348      72697665 
 16348      7200
 16349              	.LASF565:
 16350 0cd5 44414343 		.ascii	"DACConfig\000"
 16350      6F6E6669 
 16350      6700
 16351              	.LASF731:
 16352 0cdf 74787065 		.ascii	"txpending\000"
 16352      6E64696E 
 16352      6700
 16353              	.LASF586:
 16354 0ce9 636C6F63 		.ascii	"clock\000"
 16354      6B00
 16355              	.LASF453:
 16356 0cef 636C6561 		.ascii	"clear\000"
 16356      7200
 16357              	.LASF596:
 16358 0cf5 43435852 		.ascii	"CCXR\000"
 16358      00
 16359              	.LASF296:
 16360 0cfa 43414E5F 		.ascii	"CAN_TypeDef\000"
 16360      54797065 
 16360      44656600 
 16361              	.LASF19:
 16362 0d06 5F6F6666 		.ascii	"_off_t\000"
 16362      5F7400
 16363              	.LASF357:
 16364 0d0d 63685F73 		.ascii	"ch_swc_event_t\000"
 16364      77635F65 
 16364      76656E74 
 16364      5F7400
 16365              	.LASF668:
 16366 0d1c 53445F53 		.ascii	"SD_STOP\000"
 16366      544F5000 
 16367              	.LASF765:
 16368 0d24 72657376 		.ascii	"resvd8\000"
 16368      643800
 16369              	.LASF16:
 16370 0d2b 73697A65 		.ascii	"size_t\000"
 16370      5F7400
 16371              	.LASF138:
 16372 0d32 5F6C6F63 		.ascii	"_localtime_buf\000"
 16372      616C7469 
 16372      6D655F62 
 16372      756600
 16373              	.LASF832:
ARM GAS  C:\Users\Moi\AppData\Local\Temp\ccAXdvuJ.s 			page 305


 16374 0d41 72657376 		.ascii	"resvd880\000"
 16374      64383830 
 16374      00
 16375              	.LASF880:
 16376 0d4a 57414C4B 		.ascii	"WALKING\000"
 16376      494E4700 
 16377              	.LASF181:
 16378 0d52 70617261 		.ascii	"parameter_root\000"
 16378      6D657465 
 16378      725F726F 
 16378      6F7400
 16379              	.LASF24:
 16380 0d61 5F5F636F 		.ascii	"__count\000"
 16380      756E7400 
 16381              	.LASF29:
 16382 0d69 75696E74 		.ascii	"uint8_t\000"
 16382      385F7400 
 16383              	.LASF932:
 16384 0d71 6779726F 		.ascii	"gyroy\000"
 16384      7900
 16385              	.LASF769:
 16386 0d77 72657376 		.ascii	"resvd14\000"
 16386      64313400 
 16387              	.LASF521:
 16388 0d7f 43414E5F 		.ascii	"CAN_UNINIT\000"
 16388      554E494E 
 16388      495400
 16389              	.LASF770:
 16390 0d8a 72657376 		.ascii	"resvd18\000"
 16390      64313800 
 16391              	.LASF229:
 16392 0d92 725F6F6C 		.ascii	"r_older\000"
 16392      64657200 
 16393              	.LASF198:
 16394 0d9a 705F7072 		.ascii	"p_prev\000"
 16394      657600
 16395              	.LASF400:
 16396 0da1 63665F6F 		.ascii	"cf_off_name\000"
 16396      66665F6E 
 16396      616D6500 
 16397              	.LASF661:
 16398 0dad 50574D43 		.ascii	"PWMChannelConfig\000"
 16398      68616E6E 
 16398      656C436F 
 16398      6E666967 
 16398      00
 16399              	.LASF660:
 16400 0dbe 70776D63 		.ascii	"pwmcnt_t\000"
 16400      6E745F74 
 16400      00
 16401              	.LASF828:
 16402 0dc7 44494550 		.ascii	"DIEPEMPMSK\000"
 16402      454D504D 
 16402      534B00
 16403              	.LASF910:
 16404 0dd2 64636D69 		.ascii	"dcmicallback_t\000"
 16404      63616C6C 
ARM GAS  C:\Users\Moi\AppData\Local\Temp\ccAXdvuJ.s 			page 306


 16404      6261636B 
 16404      5F7400
 16405              	.LASF773:
 16406 0de1 44494550 		.ascii	"DIEPCTL\000"
 16406      43544C00 
 16407              	.LASF416:
 16408 0de9 656C5F77 		.ascii	"el_wflags\000"
 16408      666C6167 
 16408      7300
 16409              	.LASF729:
 16410 0df3 6F746770 		.ascii	"otgparams\000"
 16410      6172616D 
 16410      7300
 16411              	.LASF358:
 16412 0dfd 74625F73 		.ascii	"tb_size\000"
 16412      697A6500 
 16413              	.LASF473:
 16414 0e05 50444461 		.ascii	"PDData\000"
 16414      746100
 16415              	.LASF693:
 16416 0e0c 73637261 		.ascii	"scratchpad\000"
 16416      74636870 
 16416      616400
 16417              	.LASF121:
 16418 0e17 5F637674 		.ascii	"_cvtbuf\000"
 16418      62756600 
 16419              	.LASF862:
 16420 0e1f 6F75745F 		.ascii	"out_state\000"
 16420      73746174 
 16420      6500
 16421              	.LASF420:
 16422 0e29 696F5F71 		.ascii	"io_queue_t\000"
 16422      75657565 
 16422      5F7400
 16423              	.LASF709:
 16424 0e34 73706973 		.ascii	"spistate_t\000"
 16424      74617465 
 16424      5F7400
 16425              	.LASF892:
 16426 0e3f 61636365 		.ascii	"acceleration\000"
 16426      6C657261 
 16426      74696F6E 
 16426      00
 16427              	.LASF606:
 16428 0e4c 4932435F 		.ascii	"I2C_STOP\000"
 16428      53544F50 
 16428      00
 16429              	.LASF628:
 16430 0e55 61646472 		.ascii	"addr\000"
 16430      00
 16431              	.LASF887:
 16432 0e5a 45585445 		.ascii	"EXTERNAL_SONG\000"
 16432      524E414C 
 16432      5F534F4E 
 16432      4700
 16433              	.LASF281:
 16434 0e68 52463052 		.ascii	"RF0R\000"
ARM GAS  C:\Users\Moi\AppData\Local\Temp\ccAXdvuJ.s 			page 307


 16434      00
 16435              	.LASF491:
 16436 0e6d 4144435F 		.ascii	"ADC_ERR_DMAFAILURE\000"
 16436      4552525F 
 16436      444D4146 
 16436      41494C55 
 16436      524500
 16437              	.LASF707:
 16438 0e80 5350495F 		.ascii	"SPI_ACTIVE\000"
 16438      41435449 
 16438      564500
 16439              	.LASF36:
 16440 0e8b 656E7669 		.ascii	"environ\000"
 16440      726F6E00 
 16441              	.LASF575:
 16442 0e93 45585443 		.ascii	"EXTChannelConfig\000"
 16442      68616E6E 
 16442      656C436F 
 16442      6E666967 
 16442      00
 16443              	.LASF456:
 16444 0ea4 4F535045 		.ascii	"OSPEEDR\000"
 16444      45445200 
 16445              	.LASF539:
 16446 0eac 4441435F 		.ascii	"DAC_READY\000"
 16446      52454144 
 16446      5900
 16447              	.LASF797:
 16448 0eb6 72657376 		.ascii	"resvd30\000"
 16448      64333000 
 16449              	.LASF23:
 16450 0ebe 5F5F7763 		.ascii	"__wchb\000"
 16450      686200
 16451              	.LASF149:
 16452 0ec5 5F6D6272 		.ascii	"_mbrtowc_state\000"
 16452      746F7763 
 16452      5F737461 
 16452      746500
 16453              	.LASF826:
 16454 0ed4 44564255 		.ascii	"DVBUSPULSE\000"
 16454      5350554C 
 16454      534500
 16455              	.LASF70:
 16456 0edf 5F5F746D 		.ascii	"__tm_hour\000"
 16456      5F686F75 
 16456      7200
 16457              	.LASF941:
 16458 0ee9 66697273 		.ascii	"first\000"
 16458      7400
 16459              	.LASF441:
 16460 0eef 424C4B5F 		.ascii	"BLK_STOP\000"
 16460      53544F50 
 16460      00
 16461              	.LASF676:
 16462 0ef8 53657269 		.ascii	"SerialDriverVMT\000"
 16462      616C4472 
 16462      69766572 
ARM GAS  C:\Users\Moi\AppData\Local\Temp\ccAXdvuJ.s 			page 308


 16462      564D5400 
 16463              	.LASF747:
 16464 0f08 5553425F 		.ascii	"USB_EP0_ERROR\000"
 16464      4550305F 
 16464      4552524F 
 16464      5200
 16465              	.LASF21:
 16466 0f16 77696E74 		.ascii	"wint_t\000"
 16466      5F7400
 16467              	.LASF699:
 16468 0f1d 636F6E6E 		.ascii	"connect\000"
 16468      65637400 
 16469              	.LASF122:
 16470 0f25 5F6E6577 		.ascii	"_new\000"
 16470      00
 16471              	.LASF494:
 16472 0f2a 41444344 		.ascii	"ADCDriver\000"
 16472      72697665 
 16472      7200
 16473              	.LASF840:
 16474 0f34 6E756D5F 		.ascii	"num_endpoints\000"
 16474      656E6470 
 16474      6F696E74 
 16474      7300
 16475              	.LASF517:
 16476 0f42 41444343 		.ascii	"ADCConfig\000"
 16476      6F6E6669 
 16476      6700
 16477              	.LASF848:
 16478 0f4c 746F7473 		.ascii	"totsize\000"
 16478      697A6500 
 16479              	.LASF129:
 16480 0f54 5F6E696F 		.ascii	"_niobs\000"
 16480      627300
 16481              	.LASF401:
 16482 0f5b 63665F6F 		.ascii	"cf_off_stklimit\000"
 16482      66665F73 
 16482      746B6C69 
 16482      6D697400 
 16483              	.LASF669:
 16484 0f6b 53445F52 		.ascii	"SD_READY\000"
 16484      45414459 
 16484      00
 16485              	.LASF763:
 16486 0f74 75736267 		.ascii	"usbgetdescriptor_t\000"
 16486      65746465 
 16486      73637269 
 16486      70746F72 
 16486      5F7400
 16487              	.LASF542:
 16488 0f87 4441435F 		.ascii	"DAC_ERROR\000"
 16488      4552524F 
 16488      5200
 16489              	.LASF230:
 16490 0f91 725F6375 		.ascii	"r_current\000"
 16490      7272656E 
 16490      7400
ARM GAS  C:\Users\Moi\AppData\Local\Temp\ccAXdvuJ.s 			page 309


 16491              	.LASF106:
 16492 0f9b 5F657272 		.ascii	"_errno\000"
 16492      6E6F00
 16493              	.LASF57:
 16494 0fa2 6D657373 		.ascii	"messagebus_t\000"
 16494      61676562 
 16494      75735F74 
 16494      00
 16495              	.LASF742:
 16496 0faf 5553425F 		.ascii	"USB_EP0_TX\000"
 16496      4550305F 
 16496      545800
 16497              	.LASF721:
 16498 0fba 65703073 		.ascii	"ep0state\000"
 16498      74617465 
 16498      00
 16499              	.LASF169:
 16500 0fc3 70617261 		.ascii	"parameter_s\000"
 16500      6D657465 
 16500      725F7300 
 16501              	.LASF51:
 16502 0fcf 746F7069 		.ascii	"topic_s\000"
 16502      635F7300 
 16503              	.LASF434:
 16504 0fd7 69666372 		.ascii	"ifcr\000"
 16504      00
 16505              	.LASF885:
 16506 0fdc 53455645 		.ascii	"SEVEN_NATION_ARMY\000"
 16506      4E5F4E41 
 16506      54494F4E 
 16506      5F41524D 
 16506      5900
 16507              	.LASF302:
 16508 0fee 44485231 		.ascii	"DHR12L2\000"
 16508      324C3200 
 16509              	.LASF462:
 16510 0ff6 73746D33 		.ascii	"stm32_gpio_t\000"
 16510      325F6770 
 16510      696F5F74 
 16510      00
 16511              	.LASF374:
 16512 1003 7264796D 		.ascii	"rdymsg\000"
 16512      736700
 16513              	.LASF78:
 16514 100a 5F666E61 		.ascii	"_fnargs\000"
 16514      72677300 
 16515              	.LASF651:
 16516 1012 50574D5F 		.ascii	"PWM_READY\000"
 16516      52454144 
 16516      5900
 16517              	.LASF272:
 16518 101c 54445452 		.ascii	"TDTR\000"
 16518      00
 16519              	.LASF280:
 16520 1021 43414E5F 		.ascii	"CAN_FilterRegister_TypeDef\000"
 16520      46696C74 
 16520      65725265 
ARM GAS  C:\Users\Moi\AppData\Local\Temp\ccAXdvuJ.s 			page 310


 16520      67697374 
 16520      65725F54 
 16521              	.LASF532:
 16522 103c 6572726F 		.ascii	"error_event\000"
 16522      725F6576 
 16522      656E7400 
 16523              	.LASF507:
 16524 1048 6E756D5F 		.ascii	"num_channels\000"
 16524      6368616E 
 16524      6E656C73 
 16524      00
 16525              	.LASF261:
 16526 1055 4A4F4652 		.ascii	"JOFR3\000"
 16526      3300
 16527              	.LASF800:
 16528 105b 72657376 		.ascii	"resvd58\000"
 16528      64353800 
 16529              	.LASF849:
 16530 1063 55534249 		.ascii	"USBInEndpointState\000"
 16530      6E456E64 
 16530      706F696E 
 16530      74537461 
 16530      746500
 16531              	.LASF199:
 16532 1076 705F7072 		.ascii	"p_prio\000"
 16532      696F00
 16533              	.LASF171:
 16534 107d 64656669 		.ascii	"defined\000"
 16534      6E656400 
 16535              	.LASF421:
 16536 1085 696F5F71 		.ascii	"io_queue\000"
 16536      75657565 
 16536      00
 16537              	.LASF470:
 16538 108e 50414461 		.ascii	"PAData\000"
 16538      746100
 16539              	.LASF13:
 16540 1095 5F5F7569 		.ascii	"__uint64_t\000"
 16540      6E743634 
 16540      5F7400
 16541              	.LASF63:
 16542 10a0 5F6E6578 		.ascii	"_next\000"
 16542      7400
 16543              	.LASF939:
 16544 10a6 63616D5F 		.ascii	"cam_x1\000"
 16544      783100
 16545              	.LASF656:
 16546 10ad 70776D63 		.ascii	"pwmcallback_t\000"
 16546      616C6C62 
 16546      61636B5F 
 16546      7400
 16547              	.LASF550:
 16548 10bb 70617261 		.ascii	"params\000"
 16548      6D7300
 16549              	.LASF746:
 16550 10c2 5553425F 		.ascii	"USB_EP0_SENDING_STS\000"
 16550      4550305F 
ARM GAS  C:\Users\Moi\AppData\Local\Temp\ccAXdvuJ.s 			page 311


 16550      53454E44 
 16550      494E475F 
 16550      53545300 
 16551              	.LASF146:
 16552 10d6 5F736967 		.ascii	"_signal_buf\000"
 16552      6E616C5F 
 16552      62756600 
 16553              	.LASF648:
 16554 10e2 49325344 		.ascii	"I2SD2\000"
 16554      3200
 16555              	.LASF360:
 16556 10e8 74625F62 		.ascii	"tb_buffer\000"
 16556      75666665 
 16556      7200
 16557              	.LASF611:
 16558 10f2 69326373 		.ascii	"i2cstate_t\000"
 16558      74617465 
 16558      5F7400
 16559              	.LASF92:
 16560 10fd 5F636F6F 		.ascii	"_cookie\000"
 16560      6B696500 
 16561              	.LASF748:
 16562 1105 75736265 		.ascii	"usbep0state_t\000"
 16562      70307374 
 16562      6174655F 
 16562      7400
 16563              	.LASF554:
 16564 1113 64616365 		.ascii	"dacerror_t\000"
 16564      72726F72 
 16564      5F7400
 16565              	.LASF284:
 16566 111e 7354784D 		.ascii	"sTxMailBox\000"
 16566      61696C42 
 16566      6F7800
 16567              	.LASF489:
 16568 1129 61646373 		.ascii	"adcsample_t\000"
 16568      616D706C 
 16568      655F7400 
 16569              	.LASF587:
 16570 1135 67707463 		.ascii	"gptcallback_t\000"
 16570      616C6C62 
 16570      61636B5F 
 16570      7400
 16571              	.LASF424:
 16572 1143 715F6275 		.ascii	"q_buffer\000"
 16572      66666572 
 16572      00
 16573              	.LASF197:
 16574 114c 705F6E65 		.ascii	"p_next\000"
 16574      787400
 16575              	.LASF633:
 16576 1153 49324344 		.ascii	"I2CD1\000"
 16576      3100
 16577              	.LASF774:
 16578 1159 72657376 		.ascii	"resvd4\000"
 16578      643400
 16579              	.LASF716:
ARM GAS  C:\Users\Moi\AppData\Local\Temp\ccAXdvuJ.s 			page 312


 16580 1160 55534244 		.ascii	"USBDriver\000"
 16580      72697665 
 16580      7200
 16581              	.LASF833:
 16582 116a 72657376 		.ascii	"resvd8C0\000"
 16582      64384330 
 16582      00
 16583              	.LASF870:
 16584 1173 55534243 		.ascii	"USBConfig\000"
 16584      6F6E6669 
 16584      6700
 16585              	.LASF776:
 16586 117d 72657376 		.ascii	"resvdC\000"
 16586      644300
 16587              	.LASF663:
 16588 1184 50574D44 		.ascii	"PWMD2\000"
 16588      3200
 16589              	.LASF664:
 16590 118a 50574D44 		.ascii	"PWMD3\000"
 16590      3300
 16591              	.LASF665:
 16592 1190 50574D44 		.ascii	"PWMD4\000"
 16592      3400
 16593              	.LASF666:
 16594 1196 50574D44 		.ascii	"PWMD5\000"
 16594      3500
 16595              	.LASF944:
 16596 119c 69725F6C 		.ascii	"ir_last_move\000"
 16596      6173745F 
 16596      6D6F7665 
 16596      00
 16597              	.LASF674:
 16598 11a9 6F717565 		.ascii	"oqueue\000"
 16598      756500
 16599              	.LASF186:
 16600 11b0 74726566 		.ascii	"trefs_t\000"
 16600      735F7400 
 16601              	.LASF216:
 16602 11b8 705F6D70 		.ascii	"p_mpool\000"
 16602      6F6F6C00 
 16603              	.LASF325:
 16604 11c0 4932435F 		.ascii	"I2C_TypeDef\000"
 16604      54797065 
 16604      44656600 
 16605              	.LASF562:
 16606 11cc 44414343 		.ascii	"DACConversionGroup\000"
 16606      6F6E7665 
 16606      7273696F 
 16606      6E47726F 
 16606      757000
 16607              	.LASF314:
 16608 11df 43575354 		.ascii	"CWSTRTR\000"
 16608      52545200 
 16609              	.LASF68:
 16610 11e7 5F5F746D 		.ascii	"__tm_sec\000"
 16610      5F736563 
 16610      00
ARM GAS  C:\Users\Moi\AppData\Local\Temp\ccAXdvuJ.s 			page 313


 16611              	.LASF863:
 16612 11f0 696E5F6D 		.ascii	"in_multiplier\000"
 16612      756C7469 
 16612      706C6965 
 16612      7200
 16613              	.LASF487:
 16614 11fe 4144435F 		.ascii	"ADC_ERROR\000"
 16614      4552524F 
 16614      5200
 16615              	.LASF77:
 16616 1208 5F6F6E5F 		.ascii	"_on_exit_args\000"
 16616      65786974 
 16616      5F617267 
 16616      7300
 16617              	.LASF351:
 16618 1216 636F6E74 		.ascii	"context\000"
 16618      65787400 
 16619              	.LASF184:
 16620 121e 746D6F64 		.ascii	"tmode_t\000"
 16620      655F7400 
 16621              	.LASF905:
 16622 1226 44434D49 		.ascii	"DCMI_ERROR\000"
 16622      5F455252 
 16622      4F5200
 16623              	.LASF485:
 16624 1231 4144435F 		.ascii	"ADC_ACTIVE\000"
 16624      41435449 
 16624      564500
 16625              	.LASF875:
 16626 123c 4D415249 		.ascii	"MARIO\000"
 16626      4F00
 16627              	.LASF263:
 16628 1242 53515231 		.ascii	"SQR1\000"
 16628      00
 16629              	.LASF264:
 16630 1247 53515232 		.ascii	"SQR2\000"
 16630      00
 16631              	.LASF265:
 16632 124c 53515233 		.ascii	"SQR3\000"
 16632      00
 16633              	.LASF458:
 16634 1251 42535252 		.ascii	"BSRR\000"
 16634      00
 16635              	.LASF438:
 16636 1256 73746D33 		.ascii	"stm32_dma_stream_t\000"
 16636      325F646D 
 16636      615F7374 
 16636      7265616D 
 16636      5F7400
 16637              	.LASF868:
 16638 1269 72657175 		.ascii	"requests_hook_cb\000"
 16638      65737473 
 16638      5F686F6F 
 16638      6B5F6362 
 16638      00
 16639              	.LASF151:
 16640 127a 5F776372 		.ascii	"_wcrtomb_state\000"
ARM GAS  C:\Users\Moi\AppData\Local\Temp\ccAXdvuJ.s 			page 314


 16640      746F6D62 
 16640      5F737461 
 16640      746500
 16641              	.LASF685:
 16642 1289 5344435F 		.ascii	"SDC_MODE_8BIT\000"
 16642      4D4F4445 
 16642      5F384249 
 16642      5400
 16643              	.LASF846:
 16644 1297 74787369 		.ascii	"txsize\000"
 16644      7A6500
 16645              	.LASF558:
 16646 129e 4441435F 		.ascii	"DAC_DHRM_12BIT_LEFT\000"
 16646      4448524D 
 16646      5F313242 
 16646      49545F4C 
 16646      45465400 
 16647              	.LASF654:
 16648 12b2 70657269 		.ascii	"period\000"
 16648      6F6400
 16649              	.LASF385:
 16650 12b9 6D5F7175 		.ascii	"m_queue\000"
 16650      65756500 
 16651              	.LASF610:
 16652 12c1 4932435F 		.ascii	"I2C_LOCKED\000"
 16652      4C4F434B 
 16652      454400
 16653              	.LASF922:
 16654 12cc 73706565 		.ascii	"speedl\000"
 16654      646C00
 16655              	.LASF245:
 16656 12d3 6973725F 		.ascii	"isr_cnt\000"
 16656      636E7400 
 16657              	.LASF921:
 16658 12db 73706565 		.ascii	"speedr\000"
 16658      647200
 16659              	.LASF737:
 16660 12e2 5553425F 		.ascii	"USB_READY\000"
 16660      52454144 
 16660      5900
 16661              	.LASF682:
 16662 12ec 72656164 		.ascii	"readt\000"
 16662      7400
 16663              	.LASF46:
 16664 12f2 6E616D65 		.ascii	"name\000"
 16664      00
 16665              	.LASF584:
 16666 12f7 67707473 		.ascii	"gptstate_t\000"
 16666      74617465 
 16666      5F7400
 16667              	.LASF28:
 16668 1302 696E7438 		.ascii	"int8_t\000"
 16668      5F7400
 16669              	.LASF61:
 16670 1309 5F5F554C 		.ascii	"__ULong\000"
 16670      6F6E6700 
 16671              	.LASF244:
ARM GAS  C:\Users\Moi\AppData\Local\Temp\ccAXdvuJ.s 			page 315


 16672 1311 70616E69 		.ascii	"panic_msg\000"
 16672      635F6D73 
 16672      6700
 16673              	.LASF708:
 16674 131b 5350495F 		.ascii	"SPI_COMPLETE\000"
 16674      434F4D50 
 16674      4C455445 
 16674      00
 16675              	.LASF333:
 16676 1328 4454494D 		.ascii	"DTIMER\000"
 16676      455200
 16677              	.LASF228:
 16678 132f 725F6E65 		.ascii	"r_newer\000"
 16678      77657200 
 16679              	.LASF754:
 16680 1337 5553425F 		.ascii	"USB_EVENT_STALLED\000"
 16680      4556454E 
 16680      545F5354 
 16680      414C4C45 
 16680      4400
 16681              	.LASF407:
 16682 1349 63686465 		.ascii	"chdebug_t\000"
 16682      6275675F 
 16682      7400
 16683              	.LASF852:
 16684 1353 72787369 		.ascii	"rxsize\000"
 16684      7A6500
 16685              	.LASF768:
 16686 135a 48435453 		.ascii	"HCTSIZ\000"
 16686      495A00
 16687              	.LASF751:
 16688 1361 5553425F 		.ascii	"USB_EVENT_CONFIGURED\000"
 16688      4556454E 
 16688      545F434F 
 16688      4E464947 
 16688      55524544 
 16689              	.LASF700:
 16690 1376 64697363 		.ascii	"disconnect\000"
 16690      6F6E6E65 
 16690      637400
 16691              	.LASF40:
 16692 1381 6F70746F 		.ascii	"optopt\000"
 16692      707400
 16693              	.LASF679:
 16694 1388 70757474 		.ascii	"putt\000"
 16694      00
 16695              	.LASF187:
 16696 138d 74736C69 		.ascii	"tslices_t\000"
 16696      6365735F 
 16696      7400
 16697              	.LASF136:
 16698 1397 5F737472 		.ascii	"_strtok_last\000"
 16698      746F6B5F 
 16698      6C617374 
 16698      00
 16699              	.LASF394:
 16700 13a4 63685F74 		.ascii	"ch_timesize\000"
ARM GAS  C:\Users\Moi\AppData\Local\Temp\ccAXdvuJ.s 			page 316


 16700      696D6573 
 16700      697A6500 
 16701              	.LASF733:
 16702 13b0 77615F70 		.ascii	"wa_pump\000"
 16702      756D7000 
 16703              	.LASF338:
 16704 13b8 4649464F 		.ascii	"FIFOCNT\000"
 16704      434E5400 
 16705              	.LASF419:
 16706 13c0 6576656E 		.ascii	"event_source_t\000"
 16706      745F736F 
 16706      75726365 
 16706      5F7400
 16707              	.LASF803:
 16708 13cf 72657376 		.ascii	"resvd140\000"
 16708      64313430 
 16708      00
 16709              	.LASF236:
 16710 13d8 76745F64 		.ascii	"vt_delta\000"
 16710      656C7461 
 16710      00
 16711              	.LASF132:
 16712 13e1 5F736565 		.ascii	"_seed\000"
 16712      6400
 16713              	.LASF359:
 16714 13e7 74625F70 		.ascii	"tb_ptr\000"
 16714      747200
 16715              	.LASF561:
 16716 13ee 74726967 		.ascii	"trigger\000"
 16716      67657200 
 16717              	.LASF95:
 16718 13f6 5F736565 		.ascii	"_seek\000"
 16718      6B00
 16719              	.LASF752:
 16720 13fc 5553425F 		.ascii	"USB_EVENT_SUSPEND\000"
 16720      4556454E 
 16720      545F5355 
 16720      5350454E 
 16720      4400
 16721              	.LASF30:
 16722 140e 696E7431 		.ascii	"int16_t\000"
 16722      365F7400 
 16723              	.LASF580:
 16724 1416 4750545F 		.ascii	"GPT_STOP\000"
 16724      53544F50 
 16724      00
 16725              	.LASF271:
 16726 141f 4144435F 		.ascii	"ADC_TypeDef\000"
 16726      54797065 
 16726      44656600 
 16727              	.LASF781:
 16728 142b 444F4550 		.ascii	"DOEPCTL\000"
 16728      43544C00 
 16729              	.LASF7:
 16730 1433 73686F72 		.ascii	"short unsigned int\000"
 16730      7420756E 
 16730      7369676E 
ARM GAS  C:\Users\Moi\AppData\Local\Temp\ccAXdvuJ.s 			page 317


 16730      65642069 
 16730      6E7400
 16731              	.LASF622:
 16732 1446 6F705F6D 		.ascii	"op_mode\000"
 16732      6F646500 
 16733              	.LASF2:
 16734 144e 7369676E 		.ascii	"signed char\000"
 16734      65642063 
 16734      68617200 
 16735              	.LASF168:
 16736 145a 70617261 		.ascii	"parameter_t\000"
 16736      6D657465 
 16736      725F7400 
 16737              	.LASF659:
 16738 1466 70776D63 		.ascii	"pwmchnmsk_t\000"
 16738      686E6D73 
 16738      6B5F7400 
 16739              	.LASF208:
 16740 1472 705F7072 		.ascii	"p_preempt\000"
 16740      65656D70 
 16740      7400
 16741              	.LASF636:
 16742 147c 4932535F 		.ascii	"I2S_READY\000"
 16742      52454144 
 16742      5900
 16743              	.LASF951:
 16744 1486 433A5C55 		.ascii	"C:\\Users\\Moi\\Documents\\_microinfo\\_projet\\hug"
 16744      73657273 
 16744      5C4D6F69 
 16744      5C446F63 
 16744      756D656E 
 16745 14b3 756900   		.ascii	"ui\000"
 16746              	.LASF274:
 16747 14b6 54444852 		.ascii	"TDHR\000"
 16747      00
 16748              	.LASF483:
 16749 14bb 4144435F 		.ascii	"ADC_STOP\000"
 16749      53544F50 
 16749      00
 16750              	.LASF745:
 16751 14c4 5553425F 		.ascii	"USB_EP0_RX\000"
 16751      4550305F 
 16751      525800
 16752              	.LASF657:
 16753 14cf 70776D6D 		.ascii	"pwmmode_t\000"
 16753      6F64655F 
 16753      7400
 16754              	.LASF726:
 16755 14d9 73746174 		.ascii	"status\000"
 16755      757300
 16756              	.LASF334:
 16757 14e0 444C454E 		.ascii	"DLEN\000"
 16757      00
 16758              	.LASF684:
 16759 14e5 5344435F 		.ascii	"SDC_MODE_4BIT\000"
 16759      4D4F4445 
 16759      5F344249 
ARM GAS  C:\Users\Moi\AppData\Local\Temp\ccAXdvuJ.s 			page 318


 16759      5400
 16760              	.LASF758:
 16761 14f3 55534244 		.ascii	"USBDescriptor\000"
 16761      65736372 
 16761      6970746F 
 16761      7200
 16762              	.LASF711:
 16763 1501 73706963 		.ascii	"spicallback_t\000"
 16763      616C6C62 
 16763      61636B5F 
 16763      7400
 16764              	.LASF119:
 16765 150f 5F667265 		.ascii	"_freelist\000"
 16765      656C6973 
 16765      7400
 16766              	.LASF727:
 16767 1519 61646472 		.ascii	"address\000"
 16767      65737300 
 16768              	.LASF404:
 16769 1521 63665F6F 		.ascii	"cf_off_refs\000"
 16769      66665F72 
 16769      65667300 
 16770              	.LASF402:
 16771 152d 63665F6F 		.ascii	"cf_off_state\000"
 16771      66665F73 
 16771      74617465 
 16771      00
 16772              	.LASF386:
 16773 153a 6D5F6F77 		.ascii	"m_owner\000"
 16773      6E657200 
 16774              	.LASF100:
 16775 1542 5F6F6666 		.ascii	"_offset\000"
 16775      73657400 
 16776              	.LASF176:
 16777 154a 5F706172 		.ascii	"_param_val_vector_s\000"
 16777      616D5F76 
 16777      616C5F76 
 16777      6563746F 
 16777      725F7300 
 16778              	.LASF256:
 16779 155e 53797374 		.ascii	"SystemCoreClock\000"
 16779      656D436F 
 16779      7265436C 
 16779      6F636B00 
 16780              	.LASF505:
 16781 156e 61646365 		.ascii	"adcerrorcallback_t\000"
 16781      72726F72 
 16781      63616C6C 
 16781      6261636B 
 16781      5F7400
 16782              	.LASF540:
 16783 1581 4441435F 		.ascii	"DAC_ACTIVE\000"
 16783      41435449 
 16783      564500
 16784              	.LASF940:
 16785 158c 63616D5F 		.ascii	"cam_y1\000"
 16785      793100
ARM GAS  C:\Users\Moi\AppData\Local\Temp\ccAXdvuJ.s 			page 319


 16786              	.LASF495:
 16787 1593 73746174 		.ascii	"state\000"
 16787      6500
 16788              	.LASF392:
 16789 1599 63685F76 		.ascii	"ch_version\000"
 16789      65727369 
 16789      6F6E00
 16790              	.LASF85:
 16791 15a4 5F5F7362 		.ascii	"__sbuf\000"
 16791      756600
 16792              	.LASF692:
 16793 15ab 7364696F 		.ascii	"sdio\000"
 16793      00
 16794              	.LASF297:
 16795 15b0 53575452 		.ascii	"SWTRIGR\000"
 16795      49475200 
 16796              	.LASF744:
 16797 15b8 5553425F 		.ascii	"USB_EP0_WAITING_STS\000"
 16797      4550305F 
 16797      57414954 
 16797      494E475F 
 16797      53545300 
 16798              	.LASF145:
 16799 15cc 5F6C3634 		.ascii	"_l64a_buf\000"
 16799      615F6275 
 16799      6600
 16800              	.LASF278:
 16801 15d6 52444852 		.ascii	"RDHR\000"
 16801      00
 16802              	.LASF39:
 16803 15db 6F707465 		.ascii	"opterr\000"
 16803      727200
 16804              	.LASF594:
 16805 15e2 444D4152 		.ascii	"DMAR\000"
 16805      00
 16806              	.LASF600:
 16807 15e7 63616C6C 		.ascii	"callback\000"
 16807      6261636B 
 16807      00
 16808              	.LASF249:
 16809 15f0 63685F73 		.ascii	"ch_system\000"
 16809      79737465 
 16809      6D00
 16810              	.LASF326:
 16811 15fa 504F5745 		.ascii	"POWER\000"
 16811      5200
 16812              	.LASF247:
 16813 1600 74726163 		.ascii	"trace_buffer\000"
 16813      655F6275 
 16813      66666572 
 16813      00
 16814              	.LASF498:
 16815 160d 64657074 		.ascii	"depth\000"
 16815      6800
 16816              	.LASF137:
 16817 1613 5F617363 		.ascii	"_asctime_buf\000"
 16817      74696D65 
ARM GAS  C:\Users\Moi\AppData\Local\Temp\ccAXdvuJ.s 			page 320


 16817      5F627566 
 16817      00
 16818              	.LASF559:
 16819 1620 4441435F 		.ascii	"DAC_DHRM_8BIT_RIGHT\000"
 16819      4448524D 
 16819      5F384249 
 16819      545F5249 
 16819      47485400 
 16820              	.LASF579:
 16821 1634 4750545F 		.ascii	"GPT_UNINIT\000"
 16821      554E494E 
 16821      495400
 16822              	.LASF22:
 16823 163f 5F5F7763 		.ascii	"__wch\000"
 16823      6800
 16824              	.LASF890:
 16825 1645 4D4C5F46 		.ascii	"ML_FORCE_CHANGE\000"
 16825      4F524345 
 16825      5F434841 
 16825      4E474500 
 16826              	.LASF381:
 16827 1655 63685F73 		.ascii	"ch_semaphore\000"
 16827      656D6170 
 16827      686F7265 
 16827      00
 16828              	.LASF891:
 16829 1662 5F637479 		.ascii	"_ctype_\000"
 16829      70655F00 
 16830              	.LASF152:
 16831 166a 5F776373 		.ascii	"_wcsrtombs_state\000"
 16831      72746F6D 
 16831      62735F73 
 16831      74617465 
 16831      00
 16832              	.LASF907:
 16833 167b 64636D69 		.ascii	"dcmistate_t\000"
 16833      73746174 
 16833      655F7400 
 16834              	.LASF777:
 16835 1687 44494550 		.ascii	"DIEPTSIZ\000"
 16835      5453495A 
 16835      00
 16836              	.LASF174:
 16837 1690 5F706172 		.ascii	"_param_val_str_s\000"
 16837      616D5F76 
 16837      616C5F73 
 16837      74725F73 
 16837      00
 16838              	.LASF510:
 16839 16a1 736D7072 		.ascii	"smpr1\000"
 16839      3100
 16840              	.LASF511:
 16841 16a7 736D7072 		.ascii	"smpr2\000"
 16841      3200
 16842              	.LASF221:
 16843 16ad 74687265 		.ascii	"threads_queue_t\000"
 16843      6164735F 
ARM GAS  C:\Users\Moi\AppData\Local\Temp\ccAXdvuJ.s 			page 321


 16843      71756575 
 16843      655F7400 
 16844              	.LASF449:
 16845 16bd 626C6B73 		.ascii	"blkstate_t\000"
 16845      74617465 
 16845      5F7400
 16846              	.LASF209:
 16847 16c8 705F7469 		.ascii	"p_time\000"
 16847      6D6500
 16848              	.LASF207:
 16849 16cf 705F7265 		.ascii	"p_refs\000"
 16849      667300
 16850              	.LASF855:
 16851 16d6 65705F6D 		.ascii	"ep_mode\000"
 16851      6F646500 
 16852              	.LASF658:
 16853 16de 70776D63 		.ascii	"pwmchannel_t\000"
 16853      68616E6E 
 16853      656C5F74 
 16853      00
 16854              	.LASF273:
 16855 16eb 54444C52 		.ascii	"TDLR\000"
 16855      00
 16856              	.LASF9:
 16857 16f0 6C6F6E67 		.ascii	"long int\000"
 16857      20696E74 
 16857      00
 16858              	.LASF252:
 16859 16f9 6D61696E 		.ascii	"mainthread\000"
 16859      74687265 
 16859      616400
 16860              	.LASF723:
 16861 1704 6570306E 		.ascii	"ep0n\000"
 16861      00
 16862              	.LASF836:
 16863 1709 72657376 		.ascii	"resvdE04\000"
 16863      64453034 
 16863      00
 16864              	.LASF612:
 16865 1712 69326361 		.ascii	"i2caddr_t\000"
 16865      6464725F 
 16865      7400
 16866              	.LASF144:
 16867 171c 5F776374 		.ascii	"_wctomb_state\000"
 16867      6F6D625F 
 16867      73746174 
 16867      6500
 16868              	.LASF547:
 16869 172a 646D6169 		.ascii	"dmairqprio\000"
 16869      72717072 
 16869      696F00
 16870              	.LASF585:
 16871 1735 47505444 		.ascii	"GPTDriver\000"
 16871      72697665 
 16871      7200
 16872              	.LASF423:
 16873 173f 715F636F 		.ascii	"q_counter\000"
ARM GAS  C:\Users\Moi\AppData\Local\Temp\ccAXdvuJ.s 			page 322


 16873      756E7465 
 16873      7200
 16874              	.LASF477:
 16875 1749 50484461 		.ascii	"PHData\000"
 16875      746100
 16876              	.LASF480:
 16877 1750 696F706F 		.ascii	"ioportid_t\000"
 16877      72746964 
 16877      5F7400
 16878              	.LASF54:
 16879 175b 6D657373 		.ascii	"messagebus_topic_t\000"
 16879      61676562 
 16879      75735F74 
 16879      6F706963 
 16879      5F7400
 16880              	.LASF919:
 16881 176e 655F616D 		.ascii	"e_ambient_and_reflected_ir\000"
 16881      6269656E 
 16881      745F616E 
 16881      645F7265 
 16881      666C6563 
 16882              	.LASF518:
 16883 1789 41444344 		.ascii	"ADCD1\000"
 16883      3100
 16884              	.LASF519:
 16885 178f 41444344 		.ascii	"ADCD2\000"
 16885      3200
 16886              	.LASF520:
 16887 1795 41444344 		.ascii	"ADCD3\000"
 16887      3300
 16888              	.LASF804:
 16889 179b 48434647 		.ascii	"HCFG\000"
 16889      00
 16890              	.LASF503:
 16891 17a0 646D616D 		.ascii	"dmamode\000"
 16891      6F646500 
 16892              	.LASF367:
 16893 17a8 63756D75 		.ascii	"cumulative\000"
 16893      6C617469 
 16893      766500
 16894              	.LASF130:
 16895 17b3 5F696F62 		.ascii	"_iobs\000"
 16895      7300
 16896              	.LASF111:
 16897 17b9 5F656D65 		.ascii	"_emergency\000"
 16897      7267656E 
 16897      637900
 16898              	.LASF680:
 16899 17c4 67657474 		.ascii	"gett\000"
 16899      00
 16900              	.LASF934:
 16901 17c9 63616D5F 		.ascii	"cam_mode\000"
 16901      6D6F6465 
 16901      00
 16902              	.LASF377:
 16903 17d2 77747472 		.ascii	"wttrp\000"
 16903      7000
ARM GAS  C:\Users\Moi\AppData\Local\Temp\ccAXdvuJ.s 			page 323


 16904              	.LASF427:
 16905 17d8 715F7264 		.ascii	"q_rdptr\000"
 16905      70747200 
 16906              	.LASF154:
 16907 17e0 5F6E6578 		.ascii	"_nextf\000"
 16907      746600
 16908              	.LASF677:
 16909 17e7 77726974 		.ascii	"write\000"
 16909      6500
 16910              	.LASF140:
 16911 17ed 5F72616E 		.ascii	"_rand_next\000"
 16911      645F6E65 
 16911      787400
 16912              	.LASF673:
 16913 17f8 69717565 		.ascii	"iqueue\000"
 16913      756500
 16914              	.LASF857:
 16915 17ff 696E5F63 		.ascii	"in_cb\000"
 16915      6200
 16916              	.LASF782:
 16917 1805 444F4550 		.ascii	"DOEPINT\000"
 16917      494E5400 
 16918              	.LASF366:
 16919 180d 6C617374 		.ascii	"last\000"
 16919      00
 16920              	.LASF459:
 16921 1812 4C434B52 		.ascii	"LCKR\000"
 16921      00
 16922              	.LASF670:
 16923 1817 73647374 		.ascii	"sdstate_t\000"
 16923      6174655F 
 16923      7400
 16924              	.LASF33:
 16925 1821 75696E74 		.ascii	"uint32_t\000"
 16925      33325F74 
 16925      00
 16926              	.LASF544:
 16927 182a 64617461 		.ascii	"dataoffset\000"
 16927      6F666673 
 16927      657400
 16928              	.LASF64:
 16929 1835 5F6D6178 		.ascii	"_maxwds\000"
 16929      77647300 
 16930              	.LASF447:
 16931 183d 424C4B5F 		.ascii	"BLK_WRITING\000"
 16931      57524954 
 16931      494E4700 
 16932              	.LASF277:
 16933 1849 52444C52 		.ascii	"RDLR\000"
 16933      00
 16934              	.LASF17:
 16935 184e 6C6F6E67 		.ascii	"long double\000"
 16935      20646F75 
 16935      626C6500 
 16936              	.LASF349:
 16937 185a 72656761 		.ascii	"regarm_t\000"
 16937      726D5F74 
ARM GAS  C:\Users\Moi\AppData\Local\Temp\ccAXdvuJ.s 			page 324


 16937      00
 16938              	.LASF190:
 16939 1863 6576656E 		.ascii	"eventmask_t\000"
 16939      746D6173 
 16939      6B5F7400 
 16940              	.LASF192:
 16941 186f 636E745F 		.ascii	"cnt_t\000"
 16941      7400
 16942              	.LASF161:
 16943 1875 7375626F 		.ascii	"suboptarg\000"
 16943      70746172 
 16943      6700
 16944              	.LASF291:
 16945 187f 46464131 		.ascii	"FFA1R\000"
 16945      5200
 16946              	.LASF282:
 16947 1885 52463152 		.ascii	"RF1R\000"
 16947      00
 16948              	.LASF43:
 16949 188a 62756666 		.ascii	"buffer_len\000"
 16949      65725F6C 
 16949      656E00
 16950              	.LASF524:
 16951 1895 43414E5F 		.ascii	"CAN_READY\000"
 16951      52454144 
 16951      5900
 16952              	.LASF11:
 16953 189f 6C6F6E67 		.ascii	"long unsigned int\000"
 16953      20756E73 
 16953      69676E65 
 16953      6420696E 
 16953      7400
 16954              	.LASF730:
 16955 18b1 706D6E65 		.ascii	"pmnext\000"
 16955      787400
 16956              	.LASF637:
 16957 18b8 4932535F 		.ascii	"I2S_ACTIVE\000"
 16957      41435449 
 16957      564500
 16958              	.LASF581:
 16959 18c3 4750545F 		.ascii	"GPT_READY\000"
 16959      52454144 
 16959      5900
 16960              	.LASF543:
 16961 18cd 64616373 		.ascii	"dacstate_t\000"
 16961      74617465 
 16961      5F7400
 16962              	.LASF906:
 16963 18d8 44434D49 		.ascii	"DCMI_TIMEOUT\000"
 16963      5F54494D 
 16963      454F5554 
 16963      00
 16964              	.LASF354:
 16965 18e5 73655F74 		.ascii	"se_tp\000"
 16965      7000
 16966              	.LASF426:
 16967 18eb 715F7772 		.ascii	"q_wrptr\000"
ARM GAS  C:\Users\Moi\AppData\Local\Temp\ccAXdvuJ.s 			page 325


 16967      70747200 
 16968              	.LASF551:
 16969 18f3 64616373 		.ascii	"dacsample_t\000"
 16969      616D706C 
 16969      655F7400 
 16970              	.LASF750:
 16971 18ff 5553425F 		.ascii	"USB_EVENT_ADDRESS\000"
 16971      4556454E 
 16971      545F4144 
 16971      44524553 
 16971      5300
 16972              	.LASF645:
 16973 1911 69327363 		.ascii	"i2scfgr\000"
 16973      66677200 
 16974              	.LASF328:
 16975 1919 52455350 		.ascii	"RESPCMD\000"
 16975      434D4400 
 16976              	.LASF530:
 16977 1921 72786675 		.ascii	"rxfull_event\000"
 16977      6C6C5F65 
 16977      76656E74 
 16977      00
 16978              	.LASF755:
 16979 192e 75736265 		.ascii	"usbevent_t\000"
 16979      76656E74 
 16979      5F7400
 16980              	.LASF96:
 16981 1939 5F636C6F 		.ascii	"_close\000"
 16981      736500
 16982              	.LASF35:
 16983 1940 63686172 		.ascii	"char\000"
 16983      00
 16984              	.LASF897:
 16985 1945 44434D49 		.ascii	"DCMI_ERR_OVERFLOW\000"
 16985      5F455252 
 16985      5F4F5645 
 16985      52464C4F 
 16985      5700
 16986              	.LASF312:
 16987 1957 45534352 		.ascii	"ESCR\000"
 16987      00
 16988              	.LASF527:
 16989 195c 43414E43 		.ascii	"CANConfig\000"
 16989      6F6E6669 
 16989      6700
 16990              	.LASF474:
 16991 1966 50454461 		.ascii	"PEData\000"
 16991      746100
 16992              	.LASF225:
 16993 196d 725F7175 		.ascii	"r_queue\000"
 16993      65756500 
 16994              	.LASF128:
 16995 1975 5F676C75 		.ascii	"_glue\000"
 16995      6500
 16996              	.LASF695:
 16997 197b 53444343 		.ascii	"SDCConfig\000"
 16997      6F6E6669 
ARM GAS  C:\Users\Moi\AppData\Local\Temp\ccAXdvuJ.s 			page 326


 16997      6700
 16998              	.LASF655:
 16999 1985 656E6162 		.ascii	"enabled\000"
 16999      6C656400 
 17000              	.LASF552:
 17001 198d 4441435F 		.ascii	"DAC_ERR_DMAFAILURE\000"
 17001      4552525F 
 17001      444D4146 
 17001      41494C55 
 17001      524500
 17002              	.LASF794:
 17003 19a0 47525846 		.ascii	"GRXFSIZ\000"
 17003      53495A00 
 17004              	.LASF881:
 17005 19a8 50495241 		.ascii	"PIRATES_OF_THE_CARIBBEAN\000"
 17005      5445535F 
 17005      4F465F54 
 17005      48455F43 
 17005      41524942 
 17006              	.LASF701:
 17007 19c1 73796E63 		.ascii	"sync\000"
 17007      00
 17008              	.LASF675:
 17009 19c6 75736172 		.ascii	"usart\000"
 17009      7400
 17010              	.LASF315:
 17011 19cc 43575349 		.ascii	"CWSIZER\000"
 17011      5A455200 
 17012              	.LASF687:
 17013 19d4 7364636D 		.ascii	"sdcmode_t\000"
 17013      6F64655F 
 17013      7400
 17014              	.LASF429:
 17015 19de 715F6C69 		.ascii	"q_link\000"
 17015      6E6B00
 17016              	.LASF904:
 17017 19e5 44434D49 		.ascii	"DCMI_COMPLETE\000"
 17017      5F434F4D 
 17017      504C4554 
 17017      4500
 17018              	.LASF911:
 17019 19f3 64636D69 		.ascii	"dcmierrorcallback_t\000"
 17019      6572726F 
 17019      7263616C 
 17019      6C626163 
 17019      6B5F7400 
 17020              	.LASF815:
 17021 1a07 44434647 		.ascii	"DCFG\000"
 17021      00
 17022              	.LASF62:
 17023 1a0c 5F426967 		.ascii	"_Bigint\000"
 17023      696E7400 
 17024              	.LASF825:
 17025 1a14 44564255 		.ascii	"DVBUSDIS\000"
 17025      53444953 
 17025      00
 17026              	.LASF791:
ARM GAS  C:\Users\Moi\AppData\Local\Temp\ccAXdvuJ.s 			page 327


 17027 1a1d 47494E54 		.ascii	"GINTMSK\000"
 17027      4D534B00 
 17028              	.LASF796:
 17029 1a25 484E5054 		.ascii	"HNPTXSTS\000"
 17029      58535453 
 17029      00
 17030              	.LASF728:
 17031 1a2e 636F6E66 		.ascii	"configuration\000"
 17031      69677572 
 17031      6174696F 
 17031      6E00
 17032              	.LASF123:
 17033 1a3c 5F617465 		.ascii	"_atexit0\000"
 17033      78697430 
 17033      00
 17034              	.LASF469:
 17035 1a45 73746D33 		.ascii	"stm32_gpio_setup_t\000"
 17035      325F6770 
 17035      696F5F73 
 17035      65747570 
 17035      5F7400
 17036              	.LASF889:
 17037 1a58 4D4C5F57 		.ascii	"ML_WAIT_AND_CHANGE\000"
 17037      4149545F 
 17037      414E445F 
 17037      4348414E 
 17037      474500
 17038              	.LASF439:
 17039 1a6b 5F73746D 		.ascii	"_stm32_dma_streams\000"
 17039      33325F64 
 17039      6D615F73 
 17039      74726561 
 17039      6D7300
 17040              	.LASF299:
 17041 1a7e 44485231 		.ascii	"DHR12L1\000"
 17041      324C3100 
 17042              	.LASF42:
 17043 1a86 62756666 		.ascii	"buffer\000"
 17043      657200
 17044              	.LASF147:
 17045 1a8d 5F676574 		.ascii	"_getdate_err\000"
 17045      64617465 
 17045      5F657272 
 17045      00
 17046              	.LASF686:
 17047 1a9a 73646362 		.ascii	"sdcbusmode_t\000"
 17047      75736D6F 
 17047      64655F74 
 17047      00
 17048              	.LASF305:
 17049 1aa7 44485231 		.ascii	"DHR12LD\000"
 17049      324C4400 
 17050              	.LASF916:
 17051 1aaf 655F6C61 		.ascii	"e_last_mic_scan_id\000"
 17051      73745F6D 
 17051      69635F73 
 17051      63616E5F 
ARM GAS  C:\Users\Moi\AppData\Local\Temp\ccAXdvuJ.s 			page 328


 17051      696400
 17052              	.LASF253:
 17053 1ac2 6B65726E 		.ascii	"kernel_stats\000"
 17053      656C5F73 
 17053      74617473 
 17053      00
 17054              	.LASF58:
 17055 1acf 6D657373 		.ascii	"messagebus_watchgroup_s\000"
 17055      61676562 
 17055      75735F77 
 17055      61746368 
 17055      67726F75 
 17056              	.LASF60:
 17057 1ae7 6D657373 		.ascii	"messagebus_watchgroup_t\000"
 17057      61676562 
 17057      75735F77 
 17057      61746368 
 17057      67726F75 
 17058              	.LASF204:
 17059 1aff 705F7374 		.ascii	"p_stklimit\000"
 17059      6B6C696D 
 17059      697400
 17060              	.LASF44:
 17061 1b0a 6C6F636B 		.ascii	"lock\000"
 17061      00
 17062              	.LASF570:
 17063 1b0f 65787473 		.ascii	"extstate_t\000"
 17063      74617465 
 17063      5F7400
 17064              	.LASF743:
 17065 1b1a 5553425F 		.ascii	"USB_EP0_WAITING_TX0\000"
 17065      4550305F 
 17065      57414954 
 17065      494E475F 
 17065      54583000 
 17066              	.LASF722:
 17067 1b2e 6570306E 		.ascii	"ep0next\000"
 17067      65787400 
 17068              	.LASF772:
 17069 1b36 73746D33 		.ascii	"stm32_otg_host_chn_t\000"
 17069      325F6F74 
 17069      675F686F 
 17069      73745F63 
 17069      686E5F74 
 17070              	.LASF461:
 17071 1b4b 41465248 		.ascii	"AFRH\000"
 17071      00
 17072              	.LASF460:
 17073 1b50 4146524C 		.ascii	"AFRL\000"
 17073      00
 17074              	.LASF159:
 17075 1b55 5F696D70 		.ascii	"_impure_ptr\000"
 17075      7572655F 
 17075      70747200 
 17076              	.LASF405:
 17077 1b61 63665F6F 		.ascii	"cf_off_preempt\000"
 17077      66665F70 
ARM GAS  C:\Users\Moi\AppData\Local\Temp\ccAXdvuJ.s 			page 329


 17077      7265656D 
 17077      707400
 17078              	.LASF541:
 17079 1b70 4441435F 		.ascii	"DAC_COMPLETE\000"
 17079      434F4D50 
 17079      4C455445 
 17079      00
 17080              	.LASF99:
 17081 1b7d 5F626C6B 		.ascii	"_blksize\000"
 17081      73697A65 
 17081      00
 17082              	.LASF767:
 17083 1b86 4843494E 		.ascii	"HCINTMSK\000"
 17083      544D534B 
 17083      00
 17084              	.LASF97:
 17085 1b8f 5F756275 		.ascii	"_ubuf\000"
 17085      6600
 17086              	.LASF496:
 17087 1b95 636F6E66 		.ascii	"config\000"
 17087      696700
 17088              	.LASF604:
 17089 1b9c 47505444 		.ascii	"GPTD11\000"
 17089      313100
 17090              	.LASF142:
 17091 1ba3 5F6D626C 		.ascii	"_mblen_state\000"
 17091      656E5F73 
 17091      74617465 
 17091      00
 17092              	.LASF125:
 17093 1bb0 5F5F7367 		.ascii	"__sglue\000"
 17093      6C756500 
 17094              	.LASF158:
 17095 1bb8 5F5F6C6F 		.ascii	"__locale_t\000"
 17095      63616C65 
 17095      5F7400
 17096              	.LASF443:
 17097 1bc3 424C4B5F 		.ascii	"BLK_CONNECTING\000"
 17097      434F4E4E 
 17097      45435449 
 17097      4E4700
 17098              	.LASF115:
 17099 1bd2 5F5F636C 		.ascii	"__cleanup\000"
 17099      65616E75 
 17099      7000
 17100              	.LASF537:
 17101 1bdc 4441435F 		.ascii	"DAC_UNINIT\000"
 17101      554E494E 
 17101      495400
 17102              	.LASF490:
 17103 1be7 6164635F 		.ascii	"adc_channels_num_t\000"
 17103      6368616E 
 17103      6E656C73 
 17103      5F6E756D 
 17103      5F7400
 17104              	.LASF231:
 17105 1bfa 76746675 		.ascii	"vtfunc_t\000"
ARM GAS  C:\Users\Moi\AppData\Local\Temp\ccAXdvuJ.s 			page 330


 17105      6E635F74 
 17105      00
 17106              	.LASF279:
 17107 1c03 43414E5F 		.ascii	"CAN_FIFOMailBox_TypeDef\000"
 17107      4649464F 
 17107      4D61696C 
 17107      426F785F 
 17107      54797065 
 17108              	.LASF309:
 17109 1c1b 4441435F 		.ascii	"DAC_TypeDef\000"
 17109      54797065 
 17109      44656600 
 17110              	.LASF376:
 17111 1c27 77746F62 		.ascii	"wtobjp\000"
 17111      6A7000
 17112              	.LASF20:
 17113 1c2e 5F66706F 		.ascii	"_fpos_t\000"
 17113      735F7400 
 17114              	.LASF557:
 17115 1c36 4441435F 		.ascii	"DAC_DHRM_12BIT_RIGHT\000"
 17115      4448524D 
 17115      5F313242 
 17115      49545F52 
 17115      49474854 
 17116              	.LASF90:
 17117 1c4b 5F66696C 		.ascii	"_file\000"
 17117      6500
 17118              	.LASF936:
 17119 1c51 63616D5F 		.ascii	"cam_heigth\000"
 17119      68656967 
 17119      746800
 17120              	.LASF895:
 17121 1c5c 54797065 		.ascii	"TypeAccSpheric\000"
 17121      41636353 
 17121      70686572 
 17121      696300
 17122              	.LASF215:
 17123 1c6b 705F7265 		.ascii	"p_realprio\000"
 17123      616C7072 
 17123      696F00
 17124              	.LASF690:
 17125 1c76 63617061 		.ascii	"capacity\000"
 17125      63697479 
 17125      00
 17126              	.LASF428:
 17127 1c7f 715F6E6F 		.ascii	"q_notify\000"
 17127      74696679 
 17127      00
 17128              	.LASF379:
 17129 1c88 77746D74 		.ascii	"wtmtxp\000"
 17129      787000
 17130              	.LASF88:
 17131 1c8f 5F5F7346 		.ascii	"__sFILE\000"
 17131      494C4500 
 17132              	.LASF84:
 17133 1c97 5F666E73 		.ascii	"_fns\000"
 17133      00
ARM GAS  C:\Users\Moi\AppData\Local\Temp\ccAXdvuJ.s 			page 331


 17134              	.LASF912:
 17135 1c9c 6672616D 		.ascii	"frame_end_cb\000"
 17135      655F656E 
 17135      645F6362 
 17135      00
 17136              	.LASF854:
 17137 1ca9 5553424F 		.ascii	"USBOutEndpointState\000"
 17137      7574456E 
 17137      64706F69 
 17137      6E745374 
 17137      61746500 
 17138              	.LASF811:
 17139 1cbd 72657376 		.ascii	"resvd41C\000"
 17139      64343143 
 17139      00
 17140              	.LASF170:
 17141 1cc6 6368616E 		.ascii	"changed\000"
 17141      67656400 
 17142              	.LASF26:
 17143 1cce 5F6D6273 		.ascii	"_mbstate_t\000"
 17143      74617465 
 17143      5F7400
 17144              	.LASF153:
 17145 1cd9 5F685F65 		.ascii	"_h_errno\000"
 17145      72726E6F 
 17145      00
 17146              	.LASF876:
 17147 1ce2 554E4445 		.ascii	"UNDERWORLD\000"
 17147      52574F52 
 17147      4C4400
 17148              	.LASF276:
 17149 1ced 52445452 		.ascii	"RDTR\000"
 17149      00
 17150              	.LASF451:
 17151 1cf2 626C6B5F 		.ascii	"blk_num\000"
 17151      6E756D00 
 17152              	.LASF949:
 17153 1cfa 474E5520 		.ascii	"GNU C11 7.2.1 20170904 (release) [ARM/embedded-7-br"
 17153      43313120 
 17153      372E322E 
 17153      31203230 
 17153      31373039 
 17154 1d2d 616E6368 		.ascii	"anch revision 255204] -mcpu=cortex-m4 -mfloat-abi=h"
 17154      20726576 
 17154      6973696F 
 17154      6E203235 
 17154      35323034 
 17155 1d60 61726420 		.ascii	"ard -mfpu=fpv4-sp-d16 -mno-thumb-interwork -mthumb "
 17155      2D6D6670 
 17155      753D6670 
 17155      76342D73 
 17155      702D6431 
 17156 1d93 2D676764 		.ascii	"-ggdb -fomit-frame-pointer -falign-functions=16 -fs"
 17156      62202D66 
 17156      6F6D6974 
 17156      2D667261 
 17156      6D652D70 
ARM GAS  C:\Users\Moi\AppData\Local\Temp\ccAXdvuJ.s 			page 332


 17157 1dc6 7461636B 		.ascii	"tack-protector-all -ffunction-sections -fdata-secti"
 17157      2D70726F 
 17157      74656374 
 17157      6F722D61 
 17157      6C6C202D 
 17158 1df9 6F6E7320 		.ascii	"ons -fno-common -fsingle-precision-constant\000"
 17158      2D666E6F 
 17158      2D636F6D 
 17158      6D6F6E20 
 17158      2D667369 
 17159              	.LASF749:
 17160 1e25 5553425F 		.ascii	"USB_EVENT_RESET\000"
 17160      4556454E 
 17160      545F5245 
 17160      53455400 
 17161              	.LASF224:
 17162 1e35 63685F72 		.ascii	"ch_ready_list\000"
 17162      65616479 
 17162      5F6C6973 
 17162      7400
 17163              	.LASF53:
 17164 1e43 67726F75 		.ascii	"group\000"
 17164      7000
 17165              	.LASF457:
 17166 1e49 50555044 		.ascii	"PUPDR\000"
 17166      5200
 17167              	.LASF8:
 17168 1e4f 5F5F696E 		.ascii	"__int32_t\000"
 17168      7433325F 
 17168      7400
 17169              	.LASF10:
 17170 1e59 5F5F7569 		.ascii	"__uint32_t\000"
 17170      6E743332 
 17170      5F7400
 17171              	.LASF879:
 17172 1e64 4D415249 		.ascii	"MARIO_FLAG\000"
 17172      4F5F464C 
 17172      414700
 17173              	.LASF243:
 17174 1e6f 63685F73 		.ascii	"ch_system_debug\000"
 17174      79737465 
 17174      6D5F6465 
 17174      62756700 
 17175              	.LASF211:
 17176 1e7f 705F6D73 		.ascii	"p_msgqueue\000"
 17176      67717565 
 17176      756500
 17177              	.LASF822:
 17178 1e8a 4441494E 		.ascii	"DAINTMSK\000"
 17178      544D534B 
 17178      00
 17179              	.LASF902:
 17180 1e93 44434D49 		.ascii	"DCMI_ACTIVE_STREAM\000"
 17180      5F414354 
 17180      4956455F 
 17180      53545245 
 17180      414D00
ARM GAS  C:\Users\Moi\AppData\Local\Temp\ccAXdvuJ.s 			page 333


 17181              	.LASF577:
 17182 1ea6 45585443 		.ascii	"EXTConfig\000"
 17182      6F6E6669 
 17182      6700
 17183              	.LASF25:
 17184 1eb0 5F5F7661 		.ascii	"__value\000"
 17184      6C756500 
 17185              	.LASF741:
 17186 1eb8 5553425F 		.ascii	"USB_EP0_WAITING_SETUP\000"
 17186      4550305F 
 17186      57414954 
 17186      494E475F 
 17186      53455455 
 17187              	.LASF81:
 17188 1ece 5F69735F 		.ascii	"_is_cxa\000"
 17188      63786100 
 17189              	.LASF55:
 17190 1ed6 68656164 		.ascii	"head\000"
 17190      00
 17191              	.LASF467:
 17192 1edb 6166726C 		.ascii	"afrl\000"
 17192      00
 17193              	.LASF844:
 17194 1ee0 71756575 		.ascii	"queue\000"
 17194      6500
 17195              	.LASF724:
 17196 1ee6 65703065 		.ascii	"ep0endcb\000"
 17196      6E646362 
 17196      00
 17197              	.LASF436:
 17198 1eef 73656C66 		.ascii	"selfindex\000"
 17198      696E6465 
 17198      7800
 17199              	.LASF409:
 17200 1ef9 6D757465 		.ascii	"mutex_t\000"
 17200      785F7400 
 17201              	.LASF118:
 17202 1f01 5F703573 		.ascii	"_p5s\000"
 17202      00
 17203              	.LASF213:
 17204 1f06 705F6570 		.ascii	"p_epending\000"
 17204      656E6469 
 17204      6E6700
 17205              	.LASF454:
 17206 1f11 4D4F4445 		.ascii	"MODER\000"
 17206      5200
 17207              	.LASF638:
 17208 1f17 4932535F 		.ascii	"I2S_COMPLETE\000"
 17208      434F4D50 
 17208      4C455445 
 17208      00
 17209              	.LASF48:
 17210 1f24 77617463 		.ascii	"watchers\000"
 17210      68657273 
 17210      00
 17211              	.LASF283:
 17212 1f2d 52455345 		.ascii	"RESERVED0\000"
ARM GAS  C:\Users\Moi\AppData\Local\Temp\ccAXdvuJ.s 			page 334


 17212      52564544 
 17212      3000
 17213              	.LASF286:
 17214 1f37 52455345 		.ascii	"RESERVED1\000"
 17214      52564544 
 17214      3100
 17215              	.LASF288:
 17216 1f41 52455345 		.ascii	"RESERVED2\000"
 17216      52564544 
 17216      3200
 17217              	.LASF290:
 17218 1f4b 52455345 		.ascii	"RESERVED3\000"
 17218      52564544 
 17218      3300
 17219              	.LASF292:
 17220 1f55 52455345 		.ascii	"RESERVED4\000"
 17220      52564544 
 17220      3400
 17221              	.LASF294:
 17222 1f5f 52455345 		.ascii	"RESERVED5\000"
 17222      52564544 
 17222      3500
 17223              	.LASF865:
 17224 1f69 55534245 		.ascii	"USBEndpointConfig\000"
 17224      6E64706F 
 17224      696E7443 
 17224      6F6E6669 
 17224      6700
 17225              	.LASF298:
 17226 1f7b 44485231 		.ascii	"DHR12R1\000"
 17226      32523100 
 17227              	.LASF301:
 17228 1f83 44485231 		.ascii	"DHR12R2\000"
 17228      32523200 
 17229              	.LASF573:
 17230 1f8b 65787463 		.ascii	"extcallback_t\000"
 17230      616C6C62 
 17230      61636B5F 
 17230      7400
 17231              	.LASF529:
 17232 1f99 72787175 		.ascii	"rxqueue\000"
 17232      65756500 
 17233              	.LASF353:
 17234 1fa1 73655F74 		.ascii	"se_time\000"
 17234      696D6500 
 17235              	.LASF813:
 17236 1fa9 72657376 		.ascii	"resvd444\000"
 17236      64343434 
 17236      00
 17237              	.LASF481:
 17238 1fb2 70616C5F 		.ascii	"pal_default_config\000"
 17238      64656661 
 17238      756C745F 
 17238      636F6E66 
 17238      696700
 17239              	.LASF499:
 17240 1fc5 67727070 		.ascii	"grpp\000"
ARM GAS  C:\Users\Moi\AppData\Local\Temp\ccAXdvuJ.s 			page 335


 17240      00
 17241              	.LASF304:
 17242 1fca 44485231 		.ascii	"DHR12RD\000"
 17242      32524400 
 17243              	.LASF413:
 17244 1fd2 656C5F6C 		.ascii	"el_listener\000"
 17244      69737465 
 17244      6E657200 
 17245              	.LASF843:
 17246 1fde 6C696E65 		.ascii	"linear\000"
 17246      617200
 17247              	.LASF901:
 17248 1fe5 44434D49 		.ascii	"DCMI_READY\000"
 17248      5F524541 
 17248      445900
 17249              	.LASF597:
 17250 1ff0 73746D33 		.ascii	"stm32_tim_t\000"
 17250      325F7469 
 17250      6D5F7400 
 17251              	.LASF226:
 17252 1ffc 725F7072 		.ascii	"r_prio\000"
 17252      696F00
 17253              	.LASF311:
 17254 2003 4D495352 		.ascii	"MISR\000"
 17254      00
 17255              	.LASF255:
 17256 2008 49544D5F 		.ascii	"ITM_RxBuffer\000"
 17256      52784275 
 17256      66666572 
 17256      00
 17257              	.LASF452:
 17258 2015 426C6F63 		.ascii	"BlockDeviceInfo\000"
 17258      6B446576 
 17258      69636549 
 17258      6E666F00 
 17259              	.LASF14:
 17260 2025 6C6F6E67 		.ascii	"long long unsigned int\000"
 17260      206C6F6E 
 17260      6720756E 
 17260      7369676E 
 17260      65642069 
 17261              	.LASF165:
 17262 203c 70617265 		.ascii	"parent\000"
 17262      6E7400
 17263              	.LASF362:
 17264 2043 6F666673 		.ascii	"offset\000"
 17264      657400
 17265              	.LASF715:
 17266 204a 53504944 		.ascii	"SPID1\000"
 17266      3100
 17267              	.LASF56:
 17268 2050 746F7069 		.ascii	"topics\000"
 17268      637300
 17269              	.LASF317:
 17270 2057 4E445452 		.ascii	"NDTR\000"
 17270      00
 17271              	.LASF418:
ARM GAS  C:\Users\Moi\AppData\Local\Temp\ccAXdvuJ.s 			page 336


 17272 205c 65735F6E 		.ascii	"es_next\000"
 17272      65787400 
 17273              	.LASF139:
 17274 2064 5F67616D 		.ascii	"_gamma_signgam\000"
 17274      6D615F73 
 17274      69676E67 
 17274      616D00
 17275              	.LASF779:
 17276 2073 72657376 		.ascii	"resvd1C\000"
 17276      64314300 
 17277              	.LASF254:
 17278 207b 69646C65 		.ascii	"idle_thread_wa\000"
 17278      5F746872 
 17278      6561645F 
 17278      776100
 17279              	.LASF950:
 17280 208a 2E2E2F2F 		.ascii	"..//src/epuck1x/Asercom.c\000"
 17280      7372632F 
 17280      65707563 
 17280      6B31782F 
 17280      41736572 
 17281              	.LASF775:
 17282 20a4 44494550 		.ascii	"DIEPINT\000"
 17282      494E5400 
 17283              	.LASF346:
 17284 20ac 5350495F 		.ascii	"SPI_TypeDef\000"
 17284      54797065 
 17284      44656600 
 17285              	.LASF237:
 17286 20b8 76745F66 		.ascii	"vt_func\000"
 17286      756E6300 
 17287              	.LASF588:
 17288 20c0 534D4352 		.ascii	"SMCR\000"
 17288      00
 17289              	.LASF820:
 17290 20c5 444F4550 		.ascii	"DOEPMSK\000"
 17290      4D534B00 
 17291              	.LASF233:
 17292 20cd 63685F76 		.ascii	"ch_virtual_timer\000"
 17292      69727475 
 17292      616C5F74 
 17292      696D6572 
 17292      00
 17293              	.LASF206:
 17294 20de 705F666C 		.ascii	"p_flags\000"
 17294      61677300 
 17295              	.LASF380:
 17296 20e6 65776D61 		.ascii	"ewmask\000"
 17296      736B00
 17297              	.LASF415:
 17298 20ed 656C5F66 		.ascii	"el_flags\000"
 17298      6C616773 
 17298      00
 17299              	.LASF417:
 17300 20f6 6576656E 		.ascii	"event_source\000"
 17300      745F736F 
 17300      75726365 
ARM GAS  C:\Users\Moi\AppData\Local\Temp\ccAXdvuJ.s 			page 337


 17300      00
 17301              	.LASF214:
 17302 2103 705F6D74 		.ascii	"p_mtxlist\000"
 17302      786C6973 
 17302      7400
 17303              	.LASF536:
 17304 210d 43414E44 		.ascii	"CAND1\000"
 17304      3100
 17305              	.LASF289:
 17306 2113 46533152 		.ascii	"FS1R\000"
 17306      00
 17307              	.LASF185:
 17308 2118 74737461 		.ascii	"tstate_t\000"
 17308      74655F74 
 17308      00
 17309              	.LASF160:
 17310 2121 5F676C6F 		.ascii	"_global_impure_ptr\000"
 17310      62616C5F 
 17310      696D7075 
 17310      72655F70 
 17310      747200
 17311              	.LASF821:
 17312 2134 4441494E 		.ascii	"DAINT\000"
 17312      5400
 17313              	.LASF714:
 17314 213a 53504943 		.ascii	"SPIConfig\000"
 17314      6F6E6669 
 17314      6700
 17315              	.LASF112:
 17316 2144 5F756E73 		.ascii	"_unspecified_locale_info\000"
 17316      70656369 
 17316      66696564 
 17316      5F6C6F63 
 17316      616C655F 
 17317              	.LASF466:
 17318 215d 70757064 		.ascii	"pupdr\000"
 17318      7200
 17319              	.LASF556:
 17320 2163 64616365 		.ascii	"dacerrorcallback_t\000"
 17320      72726F72 
 17320      63616C6C 
 17320      6261636B 
 17320      5F7400
 17321              	.LASF909:
 17322 2176 64636D69 		.ascii	"dcmi\000"
 17322      00
 17323              	.LASF717:
 17324 217b 7472616E 		.ascii	"transmitting\000"
 17324      736D6974 
 17324      74696E67 
 17324      00
 17325              	.LASF576:
 17326 2188 6368616E 		.ascii	"channels\000"
 17326      6E656C73 
 17326      00
 17327              	.LASF327:
 17328 2191 434C4B43 		.ascii	"CLKCR\000"
ARM GAS  C:\Users\Moi\AppData\Local\Temp\ccAXdvuJ.s 			page 338


 17328      5200
 17329              	.LASF689:
 17330 2197 53444344 		.ascii	"SDCDriver\000"
 17330      72697665 
 17330      7200
 17331              	.LASF203:
 17332 21a1 705F6E61 		.ascii	"p_name\000"
 17332      6D6500
 17333              	.LASF114:
 17334 21a8 5F5F7364 		.ascii	"__sdidinit\000"
 17334      6964696E 
 17334      697400
 17335              	.LASF671:
 17336 21b3 53657269 		.ascii	"SerialDriver\000"
 17336      616C4472 
 17336      69766572 
 17336      00
 17337              	.LASF267:
 17338 21c0 4A445231 		.ascii	"JDR1\000"
 17338      00
 17339              	.LASF268:
 17340 21c5 4A445232 		.ascii	"JDR2\000"
 17340      00
 17341              	.LASF269:
 17342 21ca 4A445233 		.ascii	"JDR3\000"
 17342      00
 17343              	.LASF270:
 17344 21cf 4A445234 		.ascii	"JDR4\000"
 17344      00
 17345              	.LASF783:
 17346 21d4 444F4550 		.ascii	"DOEPTSIZ\000"
 17346      5453495A 
 17346      00
 17347              	.LASF484:
 17348 21dd 4144435F 		.ascii	"ADC_READY\000"
 17348      52454144 
 17348      5900
 17349              	.LASF397:
 17350 21e7 63665F6F 		.ascii	"cf_off_ctx\000"
 17350      66665F63 
 17350      747800
 17351              	.LASF945:
 17352 21f2 61636365 		.ascii	"accelero\000"
 17352      6C65726F 
 17352      00
 17353              	.LASF27:
 17354 21fb 5F666C6F 		.ascii	"_flock_t\000"
 17354      636B5F74 
 17354      00
 17355              	.LASF239:
 17356 2204 76697274 		.ascii	"virtual_timers_list_t\000"
 17356      75616C5F 
 17356      74696D65 
 17356      72735F6C 
 17356      6973745F 
 17357              	.LASF807:
 17358 221a 72657376 		.ascii	"resvd40C\000"
ARM GAS  C:\Users\Moi\AppData\Local\Temp\ccAXdvuJ.s 			page 339


 17358      64343043 
 17358      00
 17359              	.LASF789:
 17360 2223 47525354 		.ascii	"GRSTCTL\000"
 17360      43544C00 
 17361              	.LASF506:
 17362 222b 63697263 		.ascii	"circular\000"
 17362      756C6172 
 17362      00
 17363              	.LASF639:
 17364 2234 69327373 		.ascii	"i2sstate_t\000"
 17364      74617465 
 17364      5F7400
 17365              	.LASF463:
 17366 223f 6D6F6465 		.ascii	"moder\000"
 17366      7200
 17367              	.LASF710:
 17368 2245 53504944 		.ascii	"SPIDriver\000"
 17368      72697665 
 17368      7200
 17369              	.LASF382:
 17370 224f 735F7175 		.ascii	"s_queue\000"
 17370      65756500 
 17371              	.LASF371:
 17372 2257 6D5F6372 		.ascii	"m_crit_thd\000"
 17372      69745F74 
 17372      686400
 17373              	.LASF538:
 17374 2262 4441435F 		.ascii	"DAC_STOP\000"
 17374      53544F50 
 17374      00
 17375              	.LASF814:
 17376 226b 72657376 		.ascii	"resvd700\000"
 17376      64373030 
 17376      00
 17377              	.LASF344:
 17378 2274 49325343 		.ascii	"I2SCFGR\000"
 17378      46475200 
 17379              	.LASF38:
 17380 227c 6F707469 		.ascii	"optind\000"
 17380      6E6400
 17381              	.LASF389:
 17382 2283 63685F69 		.ascii	"ch_identifier\000"
 17382      64656E74 
 17382      69666965 
 17382      7200
 17383              	.LASF681:
 17384 2291 77726974 		.ascii	"writet\000"
 17384      657400
 17385              	.LASF886:
 17386 2298 4E425F53 		.ascii	"NB_SONGS\000"
 17386      4F4E4753 
 17386      00
 17387              	.LASF12:
 17388 22a1 6C6F6E67 		.ascii	"long long int\000"
 17388      206C6F6E 
 17388      6720696E 
ARM GAS  C:\Users\Moi\AppData\Local\Temp\ccAXdvuJ.s 			page 340


 17388      7400
 17389              	.LASF801:
 17390 22af 48505458 		.ascii	"HPTXFSIZ\000"
 17390      4653495A 
 17390      00
 17391              	.LASF913:
 17392 22b8 7472616E 		.ascii	"transfer_complete_cb\000"
 17392      73666572 
 17392      5F636F6D 
 17392      706C6574 
 17392      655F6362 
 17393              	.LASF396:
 17394 22cd 63665F6F 		.ascii	"cf_off_prio\000"
 17394      66665F70 
 17394      72696F00 
 17395              	.LASF104:
 17396 22d9 5F666C61 		.ascii	"_flags2\000"
 17396      67733200 
 17397              	.LASF368:
 17398 22e1 74696D65 		.ascii	"time_measurement_t\000"
 17398      5F6D6561 
 17398      73757265 
 17398      6D656E74 
 17398      5F7400
 17399              	.LASF702:
 17400 22f4 6765745F 		.ascii	"get_info\000"
 17400      696E666F 
 17400      00
 17401              	.LASF493:
 17402 22fd 61646365 		.ascii	"adcerror_t\000"
 17402      72726F72 
 17402      5F7400
 17403              	.LASF867:
 17404 2308 6765745F 		.ascii	"get_descriptor_cb\000"
 17404      64657363 
 17404      72697074 
 17404      6F725F63 
 17404      6200
 17405              	.LASF113:
 17406 231a 5F6C6F63 		.ascii	"_locale\000"
 17406      616C6500 
 17407              	.LASF191:
 17408 2322 6576656E 		.ascii	"eventflags_t\000"
 17408      74666C61 
 17408      67735F74 
 17408      00
 17409              	.LASF706:
 17410 232f 5350495F 		.ascii	"SPI_READY\000"
 17410      52454144 
 17410      5900
 17411              	.LASF285:
 17412 2339 73464946 		.ascii	"sFIFOMailBox\000"
 17412      4F4D6169 
 17412      6C426F78 
 17412      00
 17413              	.LASF694:
 17414 2346 6275735F 		.ascii	"bus_width\000"
ARM GAS  C:\Users\Moi\AppData\Local\Temp\ccAXdvuJ.s 			page 341


 17414      77696474 
 17414      6800
 17415              	.LASF926:
 17416 2350 4C45445F 		.ascii	"LED_action\000"
 17416      61637469 
 17416      6F6E00
 17417              	.LASF306:
 17418 235b 44485238 		.ascii	"DHR8RD\000"
 17418      524400
 17419              	.LASF816:
 17420 2362 4443544C 		.ascii	"DCTL\000"
 17420      00
 17421              	.LASF696:
 17422 2367 53444344 		.ascii	"SDCDriverVMT\000"
 17422      72697665 
 17422      72564D54 
 17422      00
 17423              	.LASF842:
 17424 2374 74786275 		.ascii	"txbuf\000"
 17424      6600
 17425              	.LASF835:
 17426 237a 50434743 		.ascii	"PCGCCTL\000"
 17426      43544C00 
 17427              	.LASF753:
 17428 2382 5553425F 		.ascii	"USB_EVENT_WAKEUP\000"
 17428      4556454E 
 17428      545F5741 
 17428      4B455550 
 17428      00
 17429              	.LASF931:
 17430 2393 6779726F 		.ascii	"gyrox\000"
 17430      7800
 17431              	.LASF933:
 17432 2399 6779726F 		.ascii	"gyroz\000"
 17432      7A00
 17433              	.LASF202:
 17434 239f 705F6F6C 		.ascii	"p_older\000"
 17434      64657200 
 17435              	.LASF448:
 17436 23a7 424C4B5F 		.ascii	"BLK_SYNCING\000"
 17436      53594E43 
 17436      494E4700 
 17437              	.LASF478:
 17438 23b3 50494461 		.ascii	"PIData\000"
 17438      746100
 17439              	.LASF864:
 17440 23ba 73657475 		.ascii	"setup_buf\000"
 17440      705F6275 
 17440      6600
 17441              	.LASF798:
 17442 23c4 72657376 		.ascii	"resvd34\000"
 17442      64333400 
 17443              	.LASF603:
 17444 23cc 47505444 		.ascii	"GPTD6\000"
 17444      3600
 17445              	.LASF896:
 17446 23d2 44434D49 		.ascii	"DCMI_ERR_DMAFAILURE\000"
ARM GAS  C:\Users\Moi\AppData\Local\Temp\ccAXdvuJ.s 			page 342


 17446      5F455252 
 17446      5F444D41 
 17446      4641494C 
 17446      55524500 
 17447              	.LASF509:
 17448 23e6 6572726F 		.ascii	"error_cb\000"
 17448      725F6362 
 17448      00
 17449              	.LASF444:
 17450 23ef 424C4B5F 		.ascii	"BLK_DISCONNECTING\000"
 17450      44495343 
 17450      4F4E4E45 
 17450      4354494E 
 17450      4700
 17451              	.LASF712:
 17452 2401 7373706F 		.ascii	"ssport\000"
 17452      727400
 17453              	.LASF175:
 17454 2408 6275665F 		.ascii	"buf_len\000"
 17454      6C656E00 
 17455              	.LASF218:
 17456 2410 74687265 		.ascii	"thread_reference_t\000"
 17456      61645F72 
 17456      65666572 
 17456      656E6365 
 17456      5F7400
 17457              	.LASF898:
 17458 2423 64636D69 		.ascii	"dcmierror_t\000"
 17458      6572726F 
 17458      725F7400 
 17459              	.LASF572:
 17460 242f 65787063 		.ascii	"expchannel_t\000"
 17460      68616E6E 
 17460      656C5F74 
 17460      00
 17461              	.LASF718:
 17462 243c 72656365 		.ascii	"receiving\000"
 17462      6976696E 
 17462      6700
 17463              	.LASF167:
 17464 2446 70617261 		.ascii	"parameter_list\000"
 17464      6D657465 
 17464      725F6C69 
 17464      737400
 17465              	.LASF127:
 17466 2455 5F5F4649 		.ascii	"__FILE\000"
 17466      4C4500
 17467              	.LASF599:
 17468 245c 66726571 		.ascii	"frequency\000"
 17468      75656E63 
 17468      7900
 17469              	.LASF65:
 17470 2466 5F736967 		.ascii	"_sign\000"
 17470      6E00
 17471              	.LASF0:
 17472 246c 5F5F696E 		.ascii	"__int8_t\000"
 17472      74385F74 
ARM GAS  C:\Users\Moi\AppData\Local\Temp\ccAXdvuJ.s 			page 343


 17472      00
 17473              	.LASF861:
 17474 2475 696E5F73 		.ascii	"in_state\000"
 17474      74617465 
 17474      00
 17475              	.LASF69:
 17476 247e 5F5F746D 		.ascii	"__tm_min\000"
 17476      5F6D696E 
 17476      00
 17477              	.LASF948:
 17478 2487 48577665 		.ascii	"HWversion\000"
 17478      7273696F 
 17478      6E00
 17479              	.LASF390:
 17480 2491 63685F7A 		.ascii	"ch_zero\000"
 17480      65726F00 
 17481              	.LASF619:
 17482 2499 46415354 		.ascii	"FAST_DUTY_CYCLE_2\000"
 17482      5F445554 
 17482      595F4359 
 17482      434C455F 
 17482      3200
 17483              	.LASF335:
 17484 24ab 44435452 		.ascii	"DCTRL\000"
 17484      4C00
 17485              	.LASF395:
 17486 24b1 63685F74 		.ascii	"ch_threadsize\000"
 17486      68726561 
 17486      6473697A 
 17486      6500
 17487              	.LASF324:
 17488 24bf 464C5452 		.ascii	"FLTR\000"
 17488      00
 17489              	.LASF590:
 17490 24c4 43434D52 		.ascii	"CCMR1\000"
 17490      3100
 17491              	.LASF591:
 17492 24ca 43434D52 		.ascii	"CCMR2\000"
 17492      3200
 17493              	.LASF595:
 17494 24d0 43434D52 		.ascii	"CCMR3\000"
 17494      3300
 17495              	.LASF15:
 17496 24d6 756E7369 		.ascii	"unsigned int\000"
 17496      676E6564 
 17496      20696E74 
 17496      00
 17497              	.LASF513:
 17498 24e3 73717232 		.ascii	"sqr2\000"
 17498      00
 17499              	.LASF514:
 17500 24e8 73717233 		.ascii	"sqr3\000"
 17500      00
 17501              	.LASF141:
 17502 24ed 5F723438 		.ascii	"_r48\000"
 17502      00
 17503              	.LASF805:
ARM GAS  C:\Users\Moi\AppData\Local\Temp\ccAXdvuJ.s 			page 344


 17504 24f2 48464952 		.ascii	"HFIR\000"
 17504      00
 17505              	.LASF914:
 17506 24f7 44434D49 		.ascii	"DCMIConfig\000"
 17506      436F6E66 
 17506      696700
 17507              	.LASF735:
 17508 2502 5553425F 		.ascii	"USB_UNINIT\000"
 17508      554E494E 
 17508      495400
 17509              	.LASF433:
 17510 250d 73747265 		.ascii	"stream\000"
 17510      616D00
 17511              	.LASF516:
 17512 2514 64756D6D 		.ascii	"dummy\000"
 17512      7900
 17513              	.LASF882:
 17514 251a 53494D50 		.ascii	"SIMPSON\000"
 17514      534F4E00 
 17515              	.LASF617:
 17516 2522 6932636F 		.ascii	"i2copmode_t\000"
 17516      706D6F64 
 17516      655F7400 
 17517              	.LASF313:
 17518 252e 45535552 		.ascii	"ESUR\000"
 17518      00
 17519              	.LASF411:
 17520 2533 6576656E 		.ascii	"event_listener\000"
 17520      745F6C69 
 17520      7374656E 
 17520      657200
 17521              	.LASF5:
 17522 2542 73686F72 		.ascii	"short int\000"
 17522      7420696E 
 17522      7400
 17523              	.LASF759:
 17524 254c 75736263 		.ascii	"usbcallback_t\000"
 17524      616C6C62 
 17524      61636B5F 
 17524      7400
 17525              	.LASF93:
 17526 255a 5F726561 		.ascii	"_read\000"
 17526      6400
 17527              	.LASF788:
 17528 2560 47555342 		.ascii	"GUSBCFG\000"
 17528      43464700 
 17529              	.LASF348:
 17530 2568 55534152 		.ascii	"USART_TypeDef\000"
 17530      545F5479 
 17530      70654465 
 17530      6600
 17531              	.LASF432:
 17532 2576 6F757470 		.ascii	"output_queue_t\000"
 17532      75745F71 
 17532      75657565 
 17532      5F7400
 17533              	.LASF131:
ARM GAS  C:\Users\Moi\AppData\Local\Temp\ccAXdvuJ.s 			page 345


 17534 2585 5F72616E 		.ascii	"_rand48\000"
 17534      64343800 
 17535              	.LASF837:
 17536 258d 73746D33 		.ascii	"stm32_otg_t\000"
 17536      325F6F74 
 17536      675F7400 
 17537              	.LASF76:
 17538 2599 5F5F746D 		.ascii	"__tm_isdst\000"
 17538      5F697364 
 17538      737400
 17539              	.LASF640:
 17540 25a4 49325344 		.ascii	"I2SDriver\000"
 17540      72697665 
 17540      7200
 17541              	.LASF624:
 17542 25ae 64757479 		.ascii	"duty_cycle\000"
 17542      5F637963 
 17542      6C6500
 17543              	.LASF647:
 17544 25b9 49325343 		.ascii	"I2SConfig\000"
 17544      6F6E6669 
 17544      6700
 17545              	.LASF756:
 17546 25c3 75645F73 		.ascii	"ud_size\000"
 17546      697A6500 
 17547              	.LASF859:
 17548 25cb 696E5F6D 		.ascii	"in_maxsize\000"
 17548      61787369 
 17548      7A6500
 17549              	.LASF475:
 17550 25d6 50464461 		.ascii	"PFData\000"
 17550      746100
 17551              	.LASF568:
 17552 25dd 4558545F 		.ascii	"EXT_STOP\000"
 17552      53544F50 
 17552      00
 17553              	.LASF205:
 17554 25e6 705F7374 		.ascii	"p_state\000"
 17554      61746500 
 17555              	.LASF59:
 17556 25ee 7075626C 		.ascii	"published_topic\000"
 17556      69736865 
 17556      645F746F 
 17556      70696300 
 17557              	.LASF697:
 17558 25fe 69735F69 		.ascii	"is_inserted\000"
 17558      6E736572 
 17558      74656400 
 17559              	.LASF220:
 17560 260a 63685F74 		.ascii	"ch_threads_list\000"
 17560      68726561 
 17560      64735F6C 
 17560      69737400 
 17561              	.LASF930:
 17562 261a 736F756E 		.ascii	"sound\000"
 17562      6400
 17563              	.LASF336:
ARM GAS  C:\Users\Moi\AppData\Local\Temp\ccAXdvuJ.s 			page 346


 17564 2620 44434F55 		.ascii	"DCOUNT\000"
 17564      4E5400
 17565              	.LASF321:
 17566 2627 4F415231 		.ascii	"OAR1\000"
 17566      00
 17567              	.LASF322:
 17568 262c 4F415232 		.ascii	"OAR2\000"
 17568      00
 17569              	.LASF217:
 17570 2631 705F7374 		.ascii	"p_stats\000"
 17570      61747300 
 17571              	.LASF740:
 17572 2639 75736273 		.ascii	"usbstate_t\000"
 17572      74617465 
 17572      5F7400
 17573              		.ident	"GCC: (GNU Tools for Arm Embedded Processors 7-2017-q4-major) 7.2.1 20170904 (release) [ARM
ARM GAS  C:\Users\Moi\AppData\Local\Temp\ccAXdvuJ.s 			page 347


DEFINED SYMBOLS
                            *ABS*:00000000 Asercom.c
C:\Users\Moi\AppData\Local\Temp\ccAXdvuJ.s:22     .bss.buffer:00000000 buffer
C:\Users\Moi\AppData\Local\Temp\ccAXdvuJ.s:19     .bss.buffer:00000000 $d
C:\Users\Moi\AppData\Local\Temp\ccAXdvuJ.s:29     .bss.selector:00000000 selector
C:\Users\Moi\AppData\Local\Temp\ccAXdvuJ.s:26     .bss.selector:00000000 $d
C:\Users\Moi\AppData\Local\Temp\ccAXdvuJ.s:35     .bss.c:00000000 c
C:\Users\Moi\AppData\Local\Temp\ccAXdvuJ.s:36     .bss.c:00000000 $d
C:\Users\Moi\AppData\Local\Temp\ccAXdvuJ.s:42     .bss.e_ambient_ir:00000000 e_ambient_ir
C:\Users\Moi\AppData\Local\Temp\ccAXdvuJ.s:39     .bss.e_ambient_ir:00000000 $d
C:\Users\Moi\AppData\Local\Temp\ccAXdvuJ.s:49     .bss.e_ambient_and_reflected_ir:00000000 e_ambient_and_reflected_ir
C:\Users\Moi\AppData\Local\Temp\ccAXdvuJ.s:46     .bss.e_ambient_and_reflected_ir:00000000 $d
C:\Users\Moi\AppData\Local\Temp\ccAXdvuJ.s:52     .rodata:00000000 $d
C:\Users\Moi\AppData\Local\Temp\ccAXdvuJ.s:354    .text.run_asercom:00000000 $t
C:\Users\Moi\AppData\Local\Temp\ccAXdvuJ.s:362    .text.run_asercom:00000000 run_asercom
C:\Users\Moi\AppData\Local\Temp\ccAXdvuJ.s:591    .text.run_asercom:00000194 $d
C:\Users\Moi\AppData\Local\Temp\ccAXdvuJ.s:601    .text.run_asercom:000001bc $t
C:\Users\Moi\AppData\Local\Temp\ccAXdvuJ.s:754    .text.run_asercom:000002a4 $d
C:\Users\Moi\AppData\Local\Temp\ccAXdvuJ.s:6021   .data.HWversion.12697:00000000 HWversion.12697
C:\Users\Moi\AppData\Local\Temp\ccAXdvuJ.s:6027   .bss.cam_mode.12679:00000000 cam_mode.12679
C:\Users\Moi\AppData\Local\Temp\ccAXdvuJ.s:6033   .bss.cam_width.12680:00000000 cam_width.12680
C:\Users\Moi\AppData\Local\Temp\ccAXdvuJ.s:6039   .bss.cam_heigth.12681:00000000 cam_heigth.12681
C:\Users\Moi\AppData\Local\Temp\ccAXdvuJ.s:6045   .bss.cam_zoom.12682:00000000 cam_zoom.12682
C:\Users\Moi\AppData\Local\Temp\ccAXdvuJ.s:6051   .bss.cam_size.12683:00000000 cam_size.12683
C:\Users\Moi\AppData\Local\Temp\ccAXdvuJ.s:6057   .bss.speedr.12666:00000000 speedr.12666
C:\Users\Moi\AppData\Local\Temp\ccAXdvuJ.s:6063   .bss.speedl.12667:00000000 speedl.12667
C:\Users\Moi\AppData\Local\Temp\ccAXdvuJ.s:6068   .bss.first.12686:00000000 first.12686
C:\Users\Moi\AppData\Local\Temp\ccAXdvuJ.s:771    .text.run_asercom:000002e0 $t
C:\Users\Moi\AppData\Local\Temp\ccAXdvuJ.s:800    .text.run_asercom:00000324 $d
C:\Users\Moi\AppData\Local\Temp\ccAXdvuJ.s:810    .text.run_asercom:0000034c $t
C:\Users\Moi\AppData\Local\Temp\ccAXdvuJ.s:984    .text.run_asercom:0000045c $d
C:\Users\Moi\AppData\Local\Temp\ccAXdvuJ.s:1039   .text.run_asercom:00000538 $t
C:\Users\Moi\AppData\Local\Temp\ccAXdvuJ.s:1089   .text.run_asercom:00000588 $d
C:\Users\Moi\AppData\Local\Temp\ccAXdvuJ.s:6074   .bss.i.12663:00000000 i.12663
C:\Users\Moi\AppData\Local\Temp\ccAXdvuJ.s:6080   .bss.accx.12672:00000000 accx.12672
C:\Users\Moi\AppData\Local\Temp\ccAXdvuJ.s:6086   .bss.accy.12673:00000000 accy.12673
C:\Users\Moi\AppData\Local\Temp\ccAXdvuJ.s:6092   .bss.accz.12674:00000000 accz.12674
C:\Users\Moi\AppData\Local\Temp\ccAXdvuJ.s:1101   .text.run_asercom:000005b0 $t
C:\Users\Moi\AppData\Local\Temp\ccAXdvuJ.s:1440   .text.run_asercom:0000081c $d
C:\Users\Moi\AppData\Local\Temp\ccAXdvuJ.s:6098   .bss.accelero.12694:00000000 accelero.12694
C:\Users\Moi\AppData\Local\Temp\ccAXdvuJ.s:1450   .text.run_asercom:0000083c $t
C:\Users\Moi\AppData\Local\Temp\ccAXdvuJ.s:1785   .text.run_asercom:00000a74 $d
C:\Users\Moi\AppData\Local\Temp\ccAXdvuJ.s:6103   .bss.c1.12660:00000000 c1.12660
C:\Users\Moi\AppData\Local\Temp\ccAXdvuJ.s:6108   .bss.c2.12661:00000000 c2.12661
C:\Users\Moi\AppData\Local\Temp\ccAXdvuJ.s:6126   .bss.gyroz.12678:00000000 gyroz.12678
C:\Users\Moi\AppData\Local\Temp\ccAXdvuJ.s:6120   .bss.gyroy.12677:00000000 gyroy.12677
C:\Users\Moi\AppData\Local\Temp\ccAXdvuJ.s:6114   .bss.gyrox.12676:00000000 gyrox.12676
C:\Users\Moi\AppData\Local\Temp\ccAXdvuJ.s:1796   .text.run_asercom:00000a98 $t
C:\Users\Moi\AppData\Local\Temp\ccAXdvuJ.s:2156   .text.run_asercom:00000cec $d
C:\Users\Moi\AppData\Local\Temp\ccAXdvuJ.s:6131   .bss.wait_cam.12662:00000000 wait_cam.12662
C:\Users\Moi\AppData\Local\Temp\ccAXdvuJ.s:6137   .bss.j.12664:00000000 j.12664
C:\Users\Moi\AppData\Local\Temp\ccAXdvuJ.s:6143   .bss.n.12665:00000000 n.12665
C:\Users\Moi\AppData\Local\Temp\ccAXdvuJ.s:2169   .text.run_asercom:00000d18 $t
C:\Users\Moi\AppData\Local\Temp\ccAXdvuJ.s:2540   .text.run_asercom:00000f7c $d
C:\Users\Moi\AppData\Local\Temp\ccAXdvuJ.s:6149   .bss.positionl.12669:00000000 positionl.12669
C:\Users\Moi\AppData\Local\Temp\ccAXdvuJ.s:6155   .bss.positionr.12668:00000000 positionr.12668
C:\Users\Moi\AppData\Local\Temp\ccAXdvuJ.s:2550   .text.run_asercom:00000f9c $t
ARM GAS  C:\Users\Moi\AppData\Local\Temp\ccAXdvuJ.s 			page 348


C:\Users\Moi\AppData\Local\Temp\ccAXdvuJ.s:2925   .text.run_asercom:00001200 $d
C:\Users\Moi\AppData\Local\Temp\ccAXdvuJ.s:6161   .bss.mod.12688:00000000 mod.12688
C:\Users\Moi\AppData\Local\Temp\ccAXdvuJ.s:6167   .bss.reg.12689:00000000 reg.12689
C:\Users\Moi\AppData\Local\Temp\ccAXdvuJ.s:6173   .bss.val.12690:00000000 val.12690
C:\Users\Moi\AppData\Local\Temp\ccAXdvuJ.s:2935   .text.run_asercom:00001220 $t
C:\Users\Moi\AppData\Local\Temp\ccAXdvuJ.s:3198   .text.run_asercom:000013d8 $d
C:\Users\Moi\AppData\Local\Temp\ccAXdvuJ.s:3250   .text.run_asercom:000014a8 $t
C:\Users\Moi\AppData\Local\Temp\ccAXdvuJ.s:3293   .text.run_asercom:000014f4 $d
C:\Users\Moi\AppData\Local\Temp\ccAXdvuJ.s:3302   .text.run_asercom:00001510 $t
C:\Users\Moi\AppData\Local\Temp\ccAXdvuJ.s:3730   .text.run_asercom:00001840 $d
C:\Users\Moi\AppData\Local\Temp\ccAXdvuJ.s:6179   .bss.LED_action.12671:00000000 LED_action.12671
C:\Users\Moi\AppData\Local\Temp\ccAXdvuJ.s:3752   .text.run_asercom:00001890 $t
C:\Users\Moi\AppData\Local\Temp\ccAXdvuJ.s:4190   .text.run_asercom:00001ba4 $d
C:\Users\Moi\AppData\Local\Temp\ccAXdvuJ.s:4225   .text.run_asercom:00001c28 $t
C:\Users\Moi\AppData\Local\Temp\ccAXdvuJ.s:4498   .text.run_asercom:00001e1c $d
C:\Users\Moi\AppData\Local\Temp\ccAXdvuJ.s:6185   .bss.cam_x1.12684:00000000 cam_x1.12684
C:\Users\Moi\AppData\Local\Temp\ccAXdvuJ.s:6191   .bss.cam_y1.12685:00000000 cam_y1.12685
C:\Users\Moi\AppData\Local\Temp\ccAXdvuJ.s:4527   .text.run_asercom:00001e88 $t
C:\Users\Moi\AppData\Local\Temp\ccAXdvuJ.s:4901   .text.run_asercom:00002128 $d
C:\Users\Moi\AppData\Local\Temp\ccAXdvuJ.s:6197   .bss.LED_nbr.12670:00000000 LED_nbr.12670
C:\Users\Moi\AppData\Local\Temp\ccAXdvuJ.s:4920   .text.run_asercom:0000216c $t
C:\Users\Moi\AppData\Local\Temp\ccAXdvuJ.s:5271   .text.run_asercom:00002434 $d
C:\Users\Moi\AppData\Local\Temp\ccAXdvuJ.s:5280   .text.run_asercom:00002450 $t
C:\Users\Moi\AppData\Local\Temp\ccAXdvuJ.s:5447   .text.run_asercom:00002574 $d
C:\Users\Moi\AppData\Local\Temp\ccAXdvuJ.s:5452   .text.run_asercom:00002588 $t
C:\Users\Moi\AppData\Local\Temp\ccAXdvuJ.s:5725   .text.run_asercom:00002760 $d
C:\Users\Moi\AppData\Local\Temp\ccAXdvuJ.s:6203   .bss.sound.12675:00000000 sound.12675
C:\Users\Moi\AppData\Local\Temp\ccAXdvuJ.s:5744   .text.run_asercom:000027a4 $t
C:\Users\Moi\AppData\Local\Temp\ccAXdvuJ.s:6002   .text.run_asercom:00002960 $d
C:\Users\Moi\AppData\Local\Temp\ccAXdvuJ.s:6018   .data.HWversion.12697:00000000 $d
C:\Users\Moi\AppData\Local\Temp\ccAXdvuJ.s:6024   .bss.cam_mode.12679:00000000 $d
C:\Users\Moi\AppData\Local\Temp\ccAXdvuJ.s:6030   .bss.cam_width.12680:00000000 $d
C:\Users\Moi\AppData\Local\Temp\ccAXdvuJ.s:6036   .bss.cam_heigth.12681:00000000 $d
C:\Users\Moi\AppData\Local\Temp\ccAXdvuJ.s:6042   .bss.cam_zoom.12682:00000000 $d
C:\Users\Moi\AppData\Local\Temp\ccAXdvuJ.s:6048   .bss.cam_size.12683:00000000 $d
C:\Users\Moi\AppData\Local\Temp\ccAXdvuJ.s:6054   .bss.speedr.12666:00000000 $d
C:\Users\Moi\AppData\Local\Temp\ccAXdvuJ.s:6060   .bss.speedl.12667:00000000 $d
C:\Users\Moi\AppData\Local\Temp\ccAXdvuJ.s:6069   .bss.first.12686:00000000 $d
C:\Users\Moi\AppData\Local\Temp\ccAXdvuJ.s:6071   .bss.i.12663:00000000 $d
C:\Users\Moi\AppData\Local\Temp\ccAXdvuJ.s:6077   .bss.accx.12672:00000000 $d
C:\Users\Moi\AppData\Local\Temp\ccAXdvuJ.s:6083   .bss.accy.12673:00000000 $d
C:\Users\Moi\AppData\Local\Temp\ccAXdvuJ.s:6089   .bss.accz.12674:00000000 $d
C:\Users\Moi\AppData\Local\Temp\ccAXdvuJ.s:6095   .bss.accelero.12694:00000000 $d
C:\Users\Moi\AppData\Local\Temp\ccAXdvuJ.s:6104   .bss.c1.12660:00000000 $d
C:\Users\Moi\AppData\Local\Temp\ccAXdvuJ.s:6109   .bss.c2.12661:00000000 $d
C:\Users\Moi\AppData\Local\Temp\ccAXdvuJ.s:6111   .bss.gyrox.12676:00000000 $d
C:\Users\Moi\AppData\Local\Temp\ccAXdvuJ.s:6117   .bss.gyroy.12677:00000000 $d
C:\Users\Moi\AppData\Local\Temp\ccAXdvuJ.s:6123   .bss.gyroz.12678:00000000 $d
C:\Users\Moi\AppData\Local\Temp\ccAXdvuJ.s:6132   .bss.wait_cam.12662:00000000 $d
C:\Users\Moi\AppData\Local\Temp\ccAXdvuJ.s:6134   .bss.j.12664:00000000 $d
C:\Users\Moi\AppData\Local\Temp\ccAXdvuJ.s:6140   .bss.n.12665:00000000 $d
C:\Users\Moi\AppData\Local\Temp\ccAXdvuJ.s:6146   .bss.positionl.12669:00000000 $d
C:\Users\Moi\AppData\Local\Temp\ccAXdvuJ.s:6152   .bss.positionr.12668:00000000 $d
C:\Users\Moi\AppData\Local\Temp\ccAXdvuJ.s:6158   .bss.mod.12688:00000000 $d
C:\Users\Moi\AppData\Local\Temp\ccAXdvuJ.s:6164   .bss.reg.12689:00000000 $d
C:\Users\Moi\AppData\Local\Temp\ccAXdvuJ.s:6170   .bss.val.12690:00000000 $d
C:\Users\Moi\AppData\Local\Temp\ccAXdvuJ.s:6176   .bss.LED_action.12671:00000000 $d
ARM GAS  C:\Users\Moi\AppData\Local\Temp\ccAXdvuJ.s 			page 349


C:\Users\Moi\AppData\Local\Temp\ccAXdvuJ.s:6182   .bss.cam_x1.12684:00000000 $d
C:\Users\Moi\AppData\Local\Temp\ccAXdvuJ.s:6188   .bss.cam_y1.12685:00000000 $d
C:\Users\Moi\AppData\Local\Temp\ccAXdvuJ.s:6194   .bss.LED_nbr.12670:00000000 $d
C:\Users\Moi\AppData\Local\Temp\ccAXdvuJ.s:6200   .bss.sound.12675:00000000 $d

UNDEFINED SYMBOLS
e_init_motors
getselector
e_i2cp_init
e_init_remote_control
ReadEE
e_poxxxx_init_cam
e_poxxxx_config_cam
e_poxxxx_write_cam_registers
e_acc_calibr
e_send_uart1_char
e_uart1_sending
isEpuckVersion1_3
e_send_uart2_char
e_uart2_sending
e_get_data
e_get_address
e_init_sound
e_play_sound
e_set_speed_left
e_set_speed_right
e_getchar_uart1
__stack_chk_guard
e_getchar_uart2
e_get_acc_filtered
e_read_acc_spheric
getBatteryValueRaw
getAllAxesGyro
e_poxxxx_launch_capture
e_set_body_led
e_set_front_led
e_set_led
e_i2cp_enable
e_i2cp_read
e_i2cp_disable
e_get_calibrated_prox
e_get_ambient_light
e_set_steps_left
e_set_steps_right
e_get_steps_left
e_get_steps_right
getTemperature
e_get_micro_volume
e_i2cp_write
e_poxxxx_is_img_ready
dcmi_get_last_image_ptr
memcpy
__locale_ctype_ptr
sprintf
strlen
getBatteryValuePercentage
sscanf
ARM GAS  C:\Users\Moi\AppData\Local\Temp\ccAXdvuJ.s 			page 350


e_get_check
getXAxisGyro
getYAxisGyro
getZAxisGyro
chThdSleep
e_led_clear
e_calibrate_ir
playMelody
e_close_sound
stopCurrentMelody
