ARM GAS  C:\Users\Moi\AppData\Local\Temp\ccAXdvuJ.s 			page 1


   1              		.cpu cortex-m4
   2              		.eabi_attribute 27, 1
   3              		.eabi_attribute 28, 1
   4              		.eabi_attribute 20, 1
   5              		.eabi_attribute 21, 1
   6              		.eabi_attribute 23, 3
   7              		.eabi_attribute 24, 1
   8              		.eabi_attribute 25, 1
   9              		.eabi_attribute 26, 1
  10              		.eabi_attribute 30, 6
  11              		.eabi_attribute 34, 1
  12              		.eabi_attribute 18, 4
  13              		.file	"Asercom.c"
  14              		.text
  15              	.Ltext0:
  16              		.cfi_sections	.debug_frame
  17              		.global	buffer
  18              		.section	.bss.buffer,"aw",%nobits
  19              		.align	2
  20              		.type	buffer, %object
  21              		.size	buffer, 4139
  22              	buffer:
  23 0000 00000000 		.space	4139
  23      00000000 
  23      00000000 
  23      00000000 
  23      00000000 
  24              		.global	selector
  25              		.section	.bss.selector,"aw",%nobits
  26              		.align	2
  27              		.type	selector, %object
  28              		.size	selector, 4
  29              	selector:
  30 0000 00000000 		.space	4
  31              		.global	c
  32              		.section	.bss.c,"aw",%nobits
  33              		.type	c, %object
  34              		.size	c, 1
  35              	c:
  36 0000 00       		.space	1
  37              		.global	e_ambient_ir
  38              		.section	.bss.e_ambient_ir,"aw",%nobits
  39              		.align	2
  40              		.type	e_ambient_ir, %object
  41              		.size	e_ambient_ir, 40
  42              	e_ambient_ir:
  43 0000 00000000 		.space	40
  43      00000000 
  43      00000000 
  43      00000000 
  43      00000000 
  44              		.global	e_ambient_and_reflected_ir
  45              		.section	.bss.e_ambient_and_reflected_ir,"aw",%nobits
  46              		.align	2
  47              		.type	e_ambient_and_reflected_ir, %object
  48              		.size	e_ambient_and_reflected_ir, 40
  49              	e_ambient_and_reflected_ir:
ARM GAS  C:\Users\Moi\AppData\Local\Temp\ccAXdvuJ.s 			page 2


  50 0000 00000000 		.space	40
  50      00000000 
  50      00000000 
  50      00000000 
  50      00000000 
  51              		.section	.rodata
  52              		.align	2
  53              	.LC0:
  54 0000 0C075745 		.ascii	"\014\007WELCOME to the SerCom protocol on e-Puck\015"
  54      4C434F4D 
  54      4520746F 
  54      20746865 
  54      20536572 
  55 002b 0A746865 		.ascii	"\012the EPFL education robot type \"H\" for help\015"
  55      20455046 
  55      4C206564 
  55      75636174 
  55      696F6E20 
  56 0057 0A00     		.ascii	"\012\000"
  57 0059 000000   		.align	2
  58              	.LC1:
  59 005c 612C2564 		.ascii	"a,%d,%d,%d\015\012\000"
  59      2C25642C 
  59      25640D0A 
  59      00
  60 0069 000000   		.align	2
  61              	.LC2:
  62 006c 612C302C 		.ascii	"a,0,0,0\015\012\000"
  62      302C300D 
  62      0A00
  63 0076 0000     		.align	2
  64              	.LC3:
  65 0078 622C2564 		.ascii	"b,%d (%d%%)\015\012\000"
  65      20282564 
  65      2525290D 
  65      0A00
  66 0086 0000     		.align	2
  67              	.LC4:
  68 0088 622C2564 		.ascii	"b,%d\015\012\000"
  68      0D0A00
  69 008f 00       		.align	2
  70              	.LC5:
  71 0090 422C2564 		.ascii	"B,%d\015\000"
  71      0D00
  72 0096 0000     		.align	2
  73              	.LC6:
  74 0098 620D0A00 		.ascii	"b\015\012\000"
  75              		.align	2
  76              	.LC7:
  77 009c 632C2564 		.ascii	"c,%d\015\012\000"
  77      0D0A00
  78 00a3 00       		.align	2
  79              	.LC8:
  80 00a4 442C2564 		.ascii	"D,%d,%d\015\000"
  80      2C25640D 
  80      00
  81 00ad 000000   		.align	2
ARM GAS  C:\Users\Moi\AppData\Local\Temp\ccAXdvuJ.s 			page 3


  82              	.LC9:
  83 00b0 640D0A00 		.ascii	"d\015\012\000"
  84              		.align	2
  85              	.LC10:
  86 00b4 652C2564 		.ascii	"e,%d,%d\015\012\000"
  86      2C25640D 
  86      0A00
  87 00be 0000     		.align	2
  88              	.LC11:
  89 00c0 462C2564 		.ascii	"F,%d\015\000"
  89      0D00
  90 00c6 0000     		.align	2
  91              	.LC12:
  92 00c8 660D0A00 		.ascii	"f\015\012\000"
  93              		.align	2
  94              	.LC13:
  95 00cc 67204952 		.ascii	"g IR check : 0x%x, address : 0x%x, data : 0x%x\015\012"
  95      20636865 
  95      636B203A 
  95      20307825 
  95      782C2061 
  96 00fc 00       		.ascii	"\000"
  97 00fd 000000   		.align	2
  98              	.LC14:
  99 0100 672C2564 		.ascii	"g,%d,%d,%d\015\012\000"
  99      2C25642C 
  99      25640D0A 
  99      00
 100 010d 000000   		.align	2
 101              	.LC15:
 102 0110 672C302C 		.ascii	"g,0,0,0\015\012\000"
 102      302C300D 
 102      0A00
 103 011a 0000     		.align	2
 104              	.LC16:
 105 011c 0A00     		.ascii	"\012\000"
 106 011e 0000     		.align	2
 107              	.LC17:
 108 0120 22412220 		.ascii	"\"A\"               Accelerometer\015\012\000"
 108      20202020 
 108      20202020 
 108      20202020 
 108      20204163 
 109 0142 0000     		.align	2
 110              	.LC18:
 111 0144 22422C23 		.ascii	"\"B,#\"             Body led 0=off 1=on 2=inverse\015"
 111      22202020 
 111      20202020 
 111      20202020 
 111      2020426F 
 112 0174 0A00     		.ascii	"\012\000"
 113 0176 0000     		.align	2
 114              	.LC19:
 115 0178 22622220 		.ascii	"\"b\"               Battery value\015\012\000"
 115      20202020 
 115      20202020 
 115      20202020 
ARM GAS  C:\Users\Moi\AppData\Local\Temp\ccAXdvuJ.s 			page 4


 115      20204261 
 116 019a 0000     		.align	2
 117              	.LC20:
 118 019c 22622220 		.ascii	"\"b\"               Battery state (1=ok, 0=low)\015"
 118      20202020 
 118      20202020 
 118      20202020 
 118      20204261 
 119 01ca 0A00     		.ascii	"\012\000"
 120              		.align	2
 121              	.LC21:
 122 01cc 22432220 		.ascii	"\"C\"               Selector position\015\012\000"
 122      20202020 
 122      20202020 
 122      20202020 
 122      20205365 
 123 01f2 0000     		.align	2
 124              	.LC22:
 125 01f4 22442C23 		.ascii	"\"D,#,#\"           Set motor speed left,right\015\012"
 125      2C232220 
 125      20202020 
 125      20202020 
 125      20205365 
 126 0222 00       		.ascii	"\000"
 127 0223 00       		.align	2
 128              	.LC23:
 129 0224 22452220 		.ascii	"\"E\"               Get motor speed left,right\015\012"
 129      20202020 
 129      20202020 
 129      20202020 
 129      20204765 
 130 0252 00       		.ascii	"\000"
 131 0253 00       		.align	2
 132              	.LC24:
 133 0254 22462C23 		.ascii	"\"F,#\"             Front led 0=off 1=on 2=inverse\015"
 133      22202020 
 133      20202020 
 133      20202020 
 133      20204672 
 134 0285 0A00     		.ascii	"\012\000"
 135 0287 00       		.align	2
 136              	.LC25:
 137 0288 22472220 		.ascii	"\"G\"               IR receiver\015\012\000"
 137      20202020 
 137      20202020 
 137      20202020 
 137      20204952 
 138              		.align	2
 139              	.LC26:
 140 02a8 22672220 		.ascii	"\"g\"               Gyro\015\012\000"
 140      20202020 
 140      20202020 
 140      20202020 
 140      20204779 
 141 02c1 000000   		.align	2
 142              	.LC27:
 143 02c4 22482220 		.ascii	"\"H\"               Help\015\012\000"
ARM GAS  C:\Users\Moi\AppData\Local\Temp\ccAXdvuJ.s 			page 5


 143      20202020 
 143      20202020 
 143      20202020 
 143      20204865 
 144 02dd 000000   		.align	2
 145              	.LC28:
 146 02e0 22492220 		.ascii	"\"I\"               Get camera parameter\015\012\000"
 146      20202020 
 146      20202020 
 146      20202020 
 146      20204765 
 147 0309 000000   		.align	2
 148              	.LC29:
 149 030c 224A2C23 		.ascii	"\"J,#,#,#,#,#,#\"   Set camera parameter mode,width"
 149      2C232C23 
 149      2C232C23 
 149      2C232220 
 149      20205365 
 150 033d 2C686569 		.ascii	",heigth,zoom(1,4 or 8),x1,y1\015\012\000"
 150      6774682C 
 150      7A6F6F6D 
 150      28312C34 
 150      206F7220 
 151              		.align	2
 152              	.LC30:
 153 035c 224B2220 		.ascii	"\"K\"               Calibrate proximity sensors\015"
 153      20202020 
 153      20202020 
 153      20202020 
 153      20204361 
 154 038a 0A00     		.ascii	"\012\000"
 155              		.align	2
 156              	.LC31:
 157 038c 224C2C23 		.ascii	"\"L,#,#\"           Led number,0=off 1=on 2=inverse"
 157      2C232220 
 157      20202020 
 157      20202020 
 157      20204C65 
 158 03bd 0D0A00   		.ascii	"\015\012\000"
 159              		.align	2
 160              	.LC32:
 161 03c0 224D2220 		.ascii	"\"M\"               Floor sensors\015\012\000"
 161      20202020 
 161      20202020 
 161      20202020 
 161      2020466C 
 162 03e2 0000     		.align	2
 163              	.LC33:
 164 03e4 224E2220 		.ascii	"\"N\"               Proximity\015\012\000"
 164      20202020 
 164      20202020 
 164      20202020 
 164      20205072 
 165 0402 0000     		.align	2
 166              	.LC34:
 167 0404 224F2220 		.ascii	"\"O\"               Light sensors\015\012\000"
 167      20202020 
ARM GAS  C:\Users\Moi\AppData\Local\Temp\ccAXdvuJ.s 			page 6


 167      20202020 
 167      20202020 
 167      20204C69 
 168 0426 0000     		.align	2
 169              	.LC35:
 170 0428 22502C23 		.ascii	"\"P,#,#\"           Set motor position left,right\015"
 170      2C232220 
 170      20202020 
 170      20202020 
 170      20205365 
 171 0458 0A00     		.ascii	"\012\000"
 172 045a 0000     		.align	2
 173              	.LC36:
 174 045c 22512220 		.ascii	"\"Q\"               Get motor position left,right\015"
 174      20202020 
 174      20202020 
 174      20202020 
 174      20204765 
 175 048c 0A00     		.ascii	"\012\000"
 176 048e 0000     		.align	2
 177              	.LC37:
 178 0490 22522220 		.ascii	"\"R\"               Reset e-puck\015\012\000"
 178      20202020 
 178      20202020 
 178      20202020 
 178      20205265 
 179 04b1 000000   		.align	2
 180              	.LC38:
 181 04b4 22532220 		.ascii	"\"S\"               Stop e-puck and turn off leds\015"
 181      20202020 
 181      20202020 
 181      20202020 
 181      20205374 
 182 04e4 0A00     		.ascii	"\012\000"
 183 04e6 0000     		.align	2
 184              	.LC39:
 185 04e8 22542C23 		.ascii	"\"T,#\"             Play sound 1-5 else stop sound\015"
 185      22202020 
 185      20202020 
 185      20202020 
 185      2020506C 
 186 0519 0A00     		.ascii	"\012\000"
 187 051b 00       		.align	2
 188              	.LC40:
 189 051c 22742220 		.ascii	"\"t\"               Temperature\015\012\000"
 189      20202020 
 189      20202020 
 189      20202020 
 189      20205465 
 190              		.align	2
 191              	.LC41:
 192 053c 22552220 		.ascii	"\"U\"               Get microphone amplitude\015\012"
 192      20202020 
 192      20202020 
 192      20202020 
 192      20204765 
 193 0568 00       		.ascii	"\000"
ARM GAS  C:\Users\Moi\AppData\Local\Temp\ccAXdvuJ.s 			page 7


 194 0569 000000   		.align	2
 195              	.LC42:
 196 056c 22562220 		.ascii	"\"V\"               Version of SerCom\015\012\000"
 196      20202020 
 196      20202020 
 196      20202020 
 196      20205665 
 197 0592 0000     		.align	2
 198              	.LC43:
 199 0594 22572220 		.ascii	"\"W\"               Write I2C (mod,reg,val)\015\012"
 199      20202020 
 199      20202020 
 199      20202020 
 199      20205772 
 200 05bf 00       		.ascii	"\000"
 201              		.align	2
 202              	.LC44:
 203 05c0 22592220 		.ascii	"\"Y\"               Read I2C val=(mod,reg)\015\012\000"
 203      20202020 
 203      20202020 
 203      20202020 
 203      20205265 
 204 05eb 00       		.align	2
 205              	.LC45:
 206 05ec 22412220 		.ascii	"\"A\"       Accelerometer\015\012\000"
 206      20202020 
 206      20204163 
 206      63656C65 
 206      726F6D65 
 207 0606 0000     		.align	2
 208              	.LC46:
 209 0608 22622220 		.ascii	"\"b\"       Battery value\015\012\000"
 209      20202020 
 209      20204261 
 209      74746572 
 209      79207661 
 210 0622 0000     		.align	2
 211              	.LC47:
 212 0624 22622220 		.ascii	"\"b\"       Battery state (1=ok, 0=low)\015\012\000"
 212      20202020 
 212      20204261 
 212      74746572 
 212      79207374 
 213              		.align	2
 214              	.LC48:
 215 064c 22432220 		.ascii	"\"C\"       Selector position\015\012\000"
 215      20202020 
 215      20205365 
 215      6C656374 
 215      6F722070 
 216 066a 0000     		.align	2
 217              	.LC49:
 218 066c 22442C23 		.ascii	"\"D,#,#\"   Set motor speed left,right\015\012\000"
 218      2C232220 
 218      20205365 
 218      74206D6F 
 218      746F7220 
ARM GAS  C:\Users\Moi\AppData\Local\Temp\ccAXdvuJ.s 			page 8


 219 0693 00       		.align	2
 220              	.LC50:
 221 0694 22452220 		.ascii	"\"E\"       Get motor speed left,right\015\012\000"
 221      20202020 
 221      20204765 
 221      74206D6F 
 221      746F7220 
 222 06bb 00       		.align	2
 223              	.LC51:
 224 06bc 22472220 		.ascii	"\"G\"       IR receiver\015\012\000"
 224      20202020 
 224      20204952 
 224      20726563 
 224      65697665 
 225              		.align	2
 226              	.LC52:
 227 06d4 22482220 		.ascii	"\"H\"       Help\015\012\000"
 227      20202020 
 227      20204865 
 227      6C700D0A 
 227      00
 228 06e5 000000   		.align	2
 229              	.LC53:
 230 06e8 224B2220 		.ascii	"\"K\"       Calibrate proximity sensors\015\012\000"
 230      20202020 
 230      20204361 
 230      6C696272 
 230      61746520 
 231              		.align	2
 232              	.LC54:
 233 0710 224C2C23 		.ascii	"\"L,#,#\"   Led number,0=off 1=on 2=inverse\015\012"
 233      2C232220 
 233      20204C65 
 233      64206E75 
 233      6D626572 
 234 073b 00       		.ascii	"\000"
 235              		.align	2
 236              	.LC55:
 237 073c 224D2220 		.ascii	"\"M\"       Floor sensors\015\012\000"
 237      20202020 
 237      2020466C 
 237      6F6F7220 
 237      73656E73 
 238 0756 0000     		.align	2
 239              	.LC56:
 240 0758 224E2220 		.ascii	"\"N\"       Proximity\015\012\000"
 240      20202020 
 240      20205072 
 240      6F78696D 
 240      6974790D 
 241 076e 0000     		.align	2
 242              	.LC57:
 243 0770 224F2220 		.ascii	"\"O\"       Light sensors\015\012\000"
 243      20202020 
 243      20204C69 
 243      67687420 
 243      73656E73 
ARM GAS  C:\Users\Moi\AppData\Local\Temp\ccAXdvuJ.s 			page 9


 244 078a 0000     		.align	2
 245              	.LC58:
 246 078c 22502C23 		.ascii	"\"P,#,#\"   Set motor position left,right\015\012\000"
 246      2C232220 
 246      20205365 
 246      74206D6F 
 246      746F7220 
 247 07b6 0000     		.align	2
 248              	.LC59:
 249 07b8 22512220 		.ascii	"\"Q\"       Get motor position left,right\015\012\000"
 249      20202020 
 249      20204765 
 249      74206D6F 
 249      746F7220 
 250 07e2 0000     		.align	2
 251              	.LC60:
 252 07e4 22522220 		.ascii	"\"R\"       Reset e-puck\015\012\000"
 252      20202020 
 252      20205265 
 252      73657420 
 252      652D7075 
 253 07fd 000000   		.align	2
 254              	.LC61:
 255 0800 22532220 		.ascii	"\"S\"       Stop e-puck and turn off leds\015\012\000"
 255      20202020 
 255      20205374 
 255      6F702065 
 255      2D707563 
 256 082a 0000     		.align	2
 257              	.LC62:
 258 082c 22552220 		.ascii	"\"U\"       Get microphone amplitude\015\012\000"
 258      20202020 
 258      20204765 
 258      74206D69 
 258      63726F70 
 259 0851 000000   		.align	2
 260              	.LC63:
 261 0854 22562220 		.ascii	"\"V\"       Version of SerCom\015\012\000"
 261      20202020 
 261      20205665 
 261      7273696F 
 261      6E206F66 
 262 0872 0000     		.align	2
 263              	.LC64:
 264 0874 692C2564 		.ascii	"i,%d,%d,%d,%d,%d\015\012\000"
 264      2C25642C 
 264      25642C25 
 264      642C2564 
 264      0D0A00
 265 0887 00       		.align	2
 266              	.LC65:
 267 0888 4A2C2564 		.ascii	"J,%d,%d,%d,%d,%d,%d\015\000"
 267      2C25642C 
 267      25642C25 
 267      642C2564 
 267      2C25640D 
 268 089d 000000   		.align	2
ARM GAS  C:\Users\Moi\AppData\Local\Temp\ccAXdvuJ.s 			page 10


 269              	.LC66:
 270 08a0 6A0D0A00 		.ascii	"j\015\012\000"
 271              		.align	2
 272              	.LC67:
 273 08a4 6B2C2053 		.ascii	"k, Starting calibration - Remove any object in sens"
 273      74617274 
 273      696E6720 
 273      63616C69 
 273      62726174 
 274 08d7 6F727320 		.ascii	"ors range\015\012\000"
 274      72616E67 
 274      650D0A00 
 275 08e3 00       		.align	2
 276              	.LC68:
 277 08e4 6B2C2043 		.ascii	"k, Calibration finished\015\012\000"
 277      616C6962 
 277      72617469 
 277      6F6E2066 
 277      696E6973 
 278 08fe 0000     		.align	2
 279              	.LC69:
 280 0900 4C2C2564 		.ascii	"L,%d,%d\015\000"
 280      2C25640D 
 280      00
 281 0909 000000   		.align	2
 282              	.LC70:
 283 090c 6C0D0A00 		.ascii	"l\015\012\000"
 284              		.align	2
 285              	.LC71:
 286 0910 6D2C2564 		.ascii	"m,%d,%d,%d,%d,%d\015\012\000"
 286      2C25642C 
 286      25642C25 
 286      642C2564 
 286      0D0A00
 287 0923 00       		.align	2
 288              	.LC72:
 289 0924 6E2C2564 		.ascii	"n,%d,%d,%d,%d,%d,%d,%d,%d\015\012\000"
 289      2C25642C 
 289      25642C25 
 289      642C2564 
 289      2C25642C 
 290              		.align	2
 291              	.LC73:
 292 0940 6E2C2564 		.ascii	"n,%d,%d,%d,%d,%d,%d,%d,%d,%d,%d\015\012\000"
 292      2C25642C 
 292      25642C25 
 292      642C2564 
 292      2C25642C 
 293 0962 0000     		.align	2
 294              	.LC74:
 295 0964 6F2C2564 		.ascii	"o,%d,%d,%d,%d,%d,%d,%d,%d\015\012\000"
 295      2C25642C 
 295      25642C25 
 295      642C2564 
 295      2C25642C 
 296              		.align	2
 297              	.LC75:
ARM GAS  C:\Users\Moi\AppData\Local\Temp\ccAXdvuJ.s 			page 11


 298 0980 6F2C2564 		.ascii	"o,%d,%d,%d,%d,%d,%d,%d,%d,%d,%d\015\012\000"
 298      2C25642C 
 298      25642C25 
 298      642C2564 
 298      2C25642C 
 299 09a2 0000     		.align	2
 300              	.LC76:
 301 09a4 502C2564 		.ascii	"P,%d,%d\015\000"
 301      2C25640D 
 301      00
 302 09ad 000000   		.align	2
 303              	.LC77:
 304 09b0 700D0A00 		.ascii	"p\015\012\000"
 305              		.align	2
 306              	.LC78:
 307 09b4 712C2564 		.ascii	"q,%d,%d\015\012\000"
 307      2C25640D 
 307      0A00
 308 09be 0000     		.align	2
 309              	.LC79:
 310 09c0 730D0A00 		.ascii	"s\015\012\000"
 311              		.align	2
 312              	.LC80:
 313 09c4 542C2564 		.ascii	"T,%d\000"
 313      00
 314 09c9 000000   		.align	2
 315              	.LC81:
 316 09cc 740D0A00 		.ascii	"t\015\012\000"
 317              		.align	2
 318              	.LC82:
 319 09d0 742C2564 		.ascii	"t,%d\015\012\000"
 319      0D0A00
 320 09d7 00       		.align	2
 321              	.LC83:
 322 09d8 742C300D 		.ascii	"t,0\015\012\000"
 322      0A00
 323 09de 0000     		.align	2
 324              	.LC84:
 325 09e0 752C2564 		.ascii	"u,%d,%d,%d\015\012\000"
 325      2C25642C 
 325      25640D0A 
 325      00
 326 09ed 000000   		.align	2
 327              	.LC85:
 328 09f0 762C5665 		.ascii	"v,Version 1.2.2 August 2008 GCtronic\015\012\000"
 328      7273696F 
 328      6E20312E 
 328      322E3220 
 328      41756775 
 329 0a17 00       		.align	2
 330              	.LC86:
 331 0a18 48572076 		.ascii	"HW version: %X\015\012\000"
 331      65727369 
 331      6F6E3A20 
 331      25580D0A 
 331      00
 332 0a29 000000   		.align	2
ARM GAS  C:\Users\Moi\AppData\Local\Temp\ccAXdvuJ.s 			page 12


 333              	.LC87:
 334 0a2c 572C2564 		.ascii	"W,%d,%d,%d\015\000"
 334      2C25642C 
 334      25640D00 
 335              		.align	2
 336              	.LC88:
 337 0a38 770D0A00 		.ascii	"w\015\012\000"
 338              		.align	2
 339              	.LC89:
 340 0a3c 592C2564 		.ascii	"Y,%d,%d\015\000"
 340      2C25640D 
 340      00
 341 0a45 000000   		.align	2
 342              	.LC90:
 343 0a48 792C2564 		.ascii	"y,%d,%d\015\012\000"
 343      2C25640D 
 343      0A00
 344 0a52 0000     		.align	2
 345              	.LC91:
 346 0a54 792C2564 		.ascii	"y,%d\015\012\000"
 346      0D0A00
 347 0a5b 00       		.align	2
 348              	.LC92:
 349 0a5c 25643A20 		.ascii	"%d: %d\015\012\000"
 349      25640D0A 
 349      00
 350 0a65 000000   		.align	2
 351              	.LC93:
 352 0a68 7A2C436F 		.ascii	"z,Command not found\015\012\000"
 352      6D6D616E 
 352      64206E6F 
 352      7420666F 
 352      756E640D 
 353              		.section	.text.run_asercom,"ax",%progbits
 354              		.align	1
 355              		.p2align 4,,15
 356              		.global	run_asercom
 357              		.syntax unified
 358              		.thumb
 359              		.thumb_func
 360              		.fpu fpv4-sp-d16
 361              		.type	run_asercom, %function
 362              	run_asercom:
 363              	.LFB259:
 364              		.file 1 "..//src/epuck1x/Asercom.c"
 365              		.loc 1 60 0
 366              		.cfi_startproc
 367              		@ args = 0, pretend = 0, frame = 40
 368              		@ frame_needed = 0, uses_anonymous_args = 0
 369 0000 2DE9F043 		push	{r4, r5, r6, r7, r8, r9, lr}
 370              		.cfi_def_cfa_offset 28
 371              		.cfi_offset 4, -28
 372              		.cfi_offset 5, -24
 373              		.cfi_offset 6, -20
 374              		.cfi_offset 7, -16
 375              		.cfi_offset 8, -12
 376              		.cfi_offset 9, -8
ARM GAS  C:\Users\Moi\AppData\Local\Temp\ccAXdvuJ.s 			page 13


 377              		.cfi_offset 14, -4
 378 0004 93B0     		sub	sp, sp, #76
 379              		.cfi_def_cfa_offset 104
 380              		.loc 1 60 0
 381 0006 A74B     		ldr	r3, .L438
 382 0008 1B68     		ldr	r3, [r3]
 383 000a 1193     		str	r3, [sp, #68]
 384              		.loc 1 68 0
 385 000c 0023     		movs	r3, #0
 386 000e 8DF83130 		strb	r3, [sp, #49]
 387 0012 0023     		movs	r3, #0
 388 0014 8DF83230 		strb	r3, [sp, #50]
 389 0018 0023     		movs	r3, #0
 390 001a 8DF83030 		strb	r3, [sp, #48]
 391              		.loc 1 72 0
 392 001e 0023     		movs	r3, #0
 393 0020 0D93     		str	r3, [sp, #52]
 394              		.loc 1 73 0
 395 0022 0023     		movs	r3, #0
 396 0024 0F93     		str	r3, [sp, #60]
 397              		.loc 1 77 0
 398 0026 FFF7FEFF 		bl	e_init_motors
 399              		.loc 1 81 0
 400 002a FFF7FEFF 		bl	getselector
 401 002e 0246     		mov	r2, r0
 402 0030 9D4B     		ldr	r3, .L438+4
 403 0032 1A60     		str	r2, [r3]
 404              		.loc 1 82 0
 405 0034 9C4B     		ldr	r3, .L438+4
 406 0036 1B68     		ldr	r3, [r3]
 407 0038 0A2B     		cmp	r3, #10
 408 003a 02D1     		bne	.L2
 409              		.loc 1 83 0
 410 003c 0023     		movs	r3, #0
 411 003e 0D93     		str	r3, [sp, #52]
 412 0040 01E0     		b	.L3
 413              	.L2:
 414              		.loc 1 85 0
 415 0042 0123     		movs	r3, #1
 416 0044 0D93     		str	r3, [sp, #52]
 417              	.L3:
 418              		.loc 1 89 0
 419 0046 0D9B     		ldr	r3, [sp, #52]
 420 0048 002B     		cmp	r3, #0
 421 004a 01D0     		beq	.L4
 422              		.loc 1 90 0
 423 004c FFF7FEFF 		bl	e_i2cp_init
 424              	.L4:
 425              		.loc 1 95 0
 426 0050 FFF7FEFF 		bl	e_init_remote_control
 427              		.loc 1 103 0
 428 0054 0123     		movs	r3, #1
 429 0056 954A     		ldr	r2, .L438+8
 430 0058 4FF6FE71 		movw	r1, #65534
 431 005c 7F20     		movs	r0, #127
 432 005e FFF7FEFF 		bl	ReadEE
 433              		.loc 1 106 0
ARM GAS  C:\Users\Moi\AppData\Local\Temp\ccAXdvuJ.s 			page 14


 434 0062 934B     		ldr	r3, .L438+12
 435 0064 0122     		movs	r2, #1
 436 0066 1A60     		str	r2, [r3]
 437              		.loc 1 108 0
 438 0068 924B     		ldr	r3, .L438+16
 439 006a 2822     		movs	r2, #40
 440 006c 1A60     		str	r2, [r3]
 441              		.loc 1 109 0
 442 006e 924B     		ldr	r3, .L438+20
 443 0070 2822     		movs	r2, #40
 444 0072 1A60     		str	r2, [r3]
 445              		.loc 1 110 0
 446 0074 914B     		ldr	r3, .L438+24
 447 0076 0822     		movs	r2, #8
 448 0078 1A60     		str	r2, [r3]
 449              		.loc 1 111 0
 450 007a 8E4B     		ldr	r3, .L438+16
 451 007c 1B68     		ldr	r3, [r3]
 452 007e 8E4A     		ldr	r2, .L438+20
 453 0080 1268     		ldr	r2, [r2]
 454 0082 02FB03F3 		mul	r3, r2, r3
 455 0086 5B00     		lsls	r3, r3, #1
 456 0088 8D4A     		ldr	r2, .L438+28
 457 008a 1360     		str	r3, [r2]
 458              		.loc 1 113 0
 459 008c 0D9B     		ldr	r3, [sp, #52]
 460 008e 002B     		cmp	r3, #0
 461 0090 39D0     		beq	.L5
 462              		.loc 1 114 0
 463 0092 FFF7FEFF 		bl	e_poxxxx_init_cam
 464              		.loc 1 115 0
 465 0096 874B     		ldr	r3, .L438+16
 466 0098 1B68     		ldr	r3, [r3]
 467 009a 884A     		ldr	r2, .L438+24
 468 009c 1268     		ldr	r2, [r2]
 469 009e 02FB03F3 		mul	r3, r2, r3
 470 00a2 C3F52073 		rsb	r3, r3, #640
 471 00a6 DA0F     		lsrs	r2, r3, #31
 472 00a8 1344     		add	r3, r3, r2
 473 00aa 5B10     		asrs	r3, r3, #1
 474 00ac 1846     		mov	r0, r3
 475 00ae 824B     		ldr	r3, .L438+20
 476 00b0 1B68     		ldr	r3, [r3]
 477 00b2 824A     		ldr	r2, .L438+24
 478 00b4 1268     		ldr	r2, [r2]
 479 00b6 02FB03F3 		mul	r3, r2, r3
 480 00ba C3F5F073 		rsb	r3, r3, #480
 481 00be DA0F     		lsrs	r2, r3, #31
 482 00c0 1344     		add	r3, r3, r2
 483 00c2 5B10     		asrs	r3, r3, #1
 484 00c4 1C46     		mov	r4, r3
 485 00c6 7B4B     		ldr	r3, .L438+16
 486 00c8 1B68     		ldr	r3, [r3]
 487 00ca 7C4A     		ldr	r2, .L438+24
 488 00cc 1268     		ldr	r2, [r2]
 489 00ce 02FB03F3 		mul	r3, r2, r3
 490 00d2 1D46     		mov	r5, r3
ARM GAS  C:\Users\Moi\AppData\Local\Temp\ccAXdvuJ.s 			page 15


 491 00d4 784B     		ldr	r3, .L438+20
 492 00d6 1B68     		ldr	r3, [r3]
 493 00d8 784A     		ldr	r2, .L438+24
 494 00da 1268     		ldr	r2, [r2]
 495 00dc 02FB03F3 		mul	r3, r2, r3
 496 00e0 1E46     		mov	r6, r3
 497 00e2 764B     		ldr	r3, .L438+24
 498 00e4 1B68     		ldr	r3, [r3]
 499 00e6 1A46     		mov	r2, r3
 500 00e8 744B     		ldr	r3, .L438+24
 501 00ea 1B68     		ldr	r3, [r3]
 502 00ec 1946     		mov	r1, r3
 503 00ee 704B     		ldr	r3, .L438+12
 504 00f0 1B68     		ldr	r3, [r3]
 505 00f2 0293     		str	r3, [sp, #8]
 506 00f4 0191     		str	r1, [sp, #4]
 507 00f6 0092     		str	r2, [sp]
 508 00f8 3346     		mov	r3, r6
 509 00fa 2A46     		mov	r2, r5
 510 00fc 2146     		mov	r1, r4
 511 00fe FFF7FEFF 		bl	e_poxxxx_config_cam
 512              		.loc 1 116 0
 513 0102 FFF7FEFF 		bl	e_poxxxx_write_cam_registers
 514              	.L5:
 515              		.loc 1 119 0
 516 0106 0D9B     		ldr	r3, [sp, #52]
 517 0108 002B     		cmp	r3, #0
 518 010a 0CD0     		beq	.L6
 519              		.loc 1 120 0
 520 010c FFF7FEFF 		bl	e_acc_calibr
 521              		.loc 1 121 0
 522 0110 5821     		movs	r1, #88
 523 0112 6C48     		ldr	r0, .L438+32
 524 0114 FFF7FEFF 		bl	e_send_uart1_char
 525 0118 00BF     		nop
 526              	.L7:
 527              		.loc 1 121 0 is_stmt 0 discriminator 2
 528 011a FFF7FEFF 		bl	e_uart1_sending
 529 011e 0346     		mov	r3, r0
 530 0120 002B     		cmp	r3, #0
 531 0122 FAD1     		bne	.L7
 532 0124 10E0     		b	.L413
 533              	.L6:
 534              		.loc 1 125 0 is_stmt 1
 535 0126 FFF7FEFF 		bl	isEpuckVersion1_3
 536 012a 0346     		mov	r3, r0
 537 012c 002B     		cmp	r3, #0
 538 012e 01D1     		bne	.L9
 539              		.loc 1 126 0
 540 0130 FFF7FEFF 		bl	e_acc_calibr
 541              	.L9:
 542              		.loc 1 128 0
 543 0134 5821     		movs	r1, #88
 544 0136 6348     		ldr	r0, .L438+32
 545 0138 FFF7FEFF 		bl	e_send_uart2_char
 546 013c 00BF     		nop
 547              	.L10:
ARM GAS  C:\Users\Moi\AppData\Local\Temp\ccAXdvuJ.s 			page 16


 548              		.loc 1 128 0 is_stmt 0 discriminator 2
 549 013e FFF7FEFF 		bl	e_uart2_sending
 550 0142 0346     		mov	r3, r0
 551 0144 002B     		cmp	r3, #0
 552 0146 FAD1     		bne	.L10
 553              	.L413:
 554              		.loc 1 134 0 is_stmt 1
 555 0148 0D9B     		ldr	r3, [sp, #52]
 556 014a 002B     		cmp	r3, #0
 557 014c 00F06A81 		beq	.L30
 558              		.loc 1 135 0
 559 0150 A0E0     		b	.L12
 560              	.L28:
 561              		.loc 1 138 0
 562 0152 FFF7FEFF 		bl	e_get_data
 563 0156 0346     		mov	r3, r0
 564 0158 8DF83130 		strb	r3, [sp, #49]
 565              		.loc 1 139 0
 566 015c FFF7FEFF 		bl	e_get_address
 567 0160 0346     		mov	r3, r0
 568 0162 8DF83230 		strb	r3, [sp, #50]
 569              		.loc 1 140 0
 570 0166 9DF83230 		ldrb	r3, [sp, #50]	@ zero_extendqisi2
 571 016a 002B     		cmp	r3, #0
 572 016c 04D0     		beq	.L13
 573              		.loc 1 140 0 is_stmt 0 discriminator 2
 574 016e 9DF83230 		ldrb	r3, [sp, #50]	@ zero_extendqisi2
 575 0172 082B     		cmp	r3, #8
 576 0174 40F08E80 		bne	.L12
 577              	.L13:
 578              		.loc 1 140 0 discriminator 3
 579 0178 9DF83120 		ldrb	r2, [sp, #49]	@ zero_extendqisi2
 580 017c 9DF83030 		ldrb	r3, [sp, #48]	@ zero_extendqisi2
 581 0180 9A42     		cmp	r2, r3
 582 0182 00F08780 		beq	.L12
 583              		.loc 1 141 0 is_stmt 1
 584 0186 9DF83130 		ldrb	r3, [sp, #49]	@ zero_extendqisi2
 585 018a 092B     		cmp	r3, #9
 586 018c 6DD8     		bhi	.L14
 587 018e 01A2     		adr	r2, .L16
 588 0190 52F823F0 		ldr	pc, [r2, r3, lsl #2]
 589              		.p2align 2
 590              	.L16:
 591 0194 4B020000 		.word	.L15+1
 592 0198 BD010000 		.word	.L17+1
 593 019c CF010000 		.word	.L18+1
 594 01a0 E1010000 		.word	.L19+1
 595 01a4 F3010000 		.word	.L20+1
 596 01a8 03020000 		.word	.L21+1
 597 01ac 11020000 		.word	.L22+1
 598 01b0 21020000 		.word	.L23+1
 599 01b4 2F020000 		.word	.L24+1
 600 01b8 3D020000 		.word	.L25+1
 601              		.p2align 1
 602              	.L17:
 603              		.loc 1 143 0
 604 01bc 424B     		ldr	r3, .L438+36
ARM GAS  C:\Users\Moi\AppData\Local\Temp\ccAXdvuJ.s 			page 17


 605 01be 4FF41672 		mov	r2, #600
 606 01c2 1A60     		str	r2, [r3]
 607              		.loc 1 144 0
 608 01c4 414B     		ldr	r3, .L438+40
 609 01c6 4FF49672 		mov	r2, #300
 610 01ca 1A60     		str	r2, [r3]
 611              		.loc 1 145 0
 612 01cc 54E0     		b	.L26
 613              	.L18:
 614              		.loc 1 147 0
 615 01ce 3E4B     		ldr	r3, .L438+36
 616 01d0 4FF41672 		mov	r2, #600
 617 01d4 1A60     		str	r2, [r3]
 618              		.loc 1 148 0
 619 01d6 3D4B     		ldr	r3, .L438+40
 620 01d8 4FF41672 		mov	r2, #600
 621 01dc 1A60     		str	r2, [r3]
 622              		.loc 1 149 0
 623 01de 4BE0     		b	.L26
 624              	.L19:
 625              		.loc 1 151 0
 626 01e0 394B     		ldr	r3, .L438+36
 627 01e2 4FF49672 		mov	r2, #300
 628 01e6 1A60     		str	r2, [r3]
 629              		.loc 1 152 0
 630 01e8 384B     		ldr	r3, .L438+40
 631 01ea 4FF41672 		mov	r2, #600
 632 01ee 1A60     		str	r2, [r3]
 633              		.loc 1 153 0
 634 01f0 42E0     		b	.L26
 635              	.L20:
 636              		.loc 1 155 0
 637 01f2 354B     		ldr	r3, .L438+36
 638 01f4 4FF41672 		mov	r2, #600
 639 01f8 1A60     		str	r2, [r3]
 640              		.loc 1 156 0
 641 01fa 344B     		ldr	r3, .L438+40
 642 01fc 344A     		ldr	r2, .L438+44
 643 01fe 1A60     		str	r2, [r3]
 644              		.loc 1 157 0
 645 0200 3AE0     		b	.L26
 646              	.L21:
 647              		.loc 1 159 0
 648 0202 314B     		ldr	r3, .L438+36
 649 0204 0022     		movs	r2, #0
 650 0206 1A60     		str	r2, [r3]
 651              		.loc 1 160 0
 652 0208 304B     		ldr	r3, .L438+40
 653 020a 0022     		movs	r2, #0
 654 020c 1A60     		str	r2, [r3]
 655              		.loc 1 161 0
 656 020e 33E0     		b	.L26
 657              	.L22:
 658              		.loc 1 163 0
 659 0210 2D4B     		ldr	r3, .L438+36
 660 0212 2F4A     		ldr	r2, .L438+44
 661 0214 1A60     		str	r2, [r3]
ARM GAS  C:\Users\Moi\AppData\Local\Temp\ccAXdvuJ.s 			page 18


 662              		.loc 1 164 0
 663 0216 2D4B     		ldr	r3, .L438+40
 664 0218 4FF41672 		mov	r2, #600
 665 021c 1A60     		str	r2, [r3]
 666              		.loc 1 165 0
 667 021e 2BE0     		b	.L26
 668              	.L23:
 669              		.loc 1 167 0
 670 0220 294B     		ldr	r3, .L438+36
 671 0222 2B4A     		ldr	r2, .L438+44
 672 0224 1A60     		str	r2, [r3]
 673              		.loc 1 168 0
 674 0226 294B     		ldr	r3, .L438+40
 675 0228 2A4A     		ldr	r2, .L438+48
 676 022a 1A60     		str	r2, [r3]
 677              		.loc 1 169 0
 678 022c 24E0     		b	.L26
 679              	.L24:
 680              		.loc 1 171 0
 681 022e 264B     		ldr	r3, .L438+36
 682 0230 274A     		ldr	r2, .L438+44
 683 0232 1A60     		str	r2, [r3]
 684              		.loc 1 172 0
 685 0234 254B     		ldr	r3, .L438+40
 686 0236 264A     		ldr	r2, .L438+44
 687 0238 1A60     		str	r2, [r3]
 688              		.loc 1 173 0
 689 023a 1DE0     		b	.L26
 690              	.L25:
 691              		.loc 1 175 0
 692 023c 224B     		ldr	r3, .L438+36
 693 023e 254A     		ldr	r2, .L438+48
 694 0240 1A60     		str	r2, [r3]
 695              		.loc 1 176 0
 696 0242 224B     		ldr	r3, .L438+40
 697 0244 224A     		ldr	r2, .L438+44
 698 0246 1A60     		str	r2, [r3]
 699              		.loc 1 177 0
 700 0248 16E0     		b	.L26
 701              	.L15:
 702              		.loc 1 179 0
 703 024a 234B     		ldr	r3, .L438+52
 704 024c 1B78     		ldrb	r3, [r3]	@ zero_extendqisi2
 705 024e 002B     		cmp	r3, #0
 706 0250 04D1     		bne	.L27
 707              		.loc 1 180 0
 708 0252 FFF7FEFF 		bl	e_init_sound
 709              		.loc 1 181 0
 710 0256 204B     		ldr	r3, .L438+52
 711 0258 0122     		movs	r2, #1
 712 025a 1A70     		strb	r2, [r3]
 713              	.L27:
 714              		.loc 1 183 0
 715 025c 41F65071 		movw	r1, #8016
 716 0260 42F61430 		movw	r0, #11028
 717 0264 FFF7FEFF 		bl	e_play_sound
 718              		.loc 1 184 0
ARM GAS  C:\Users\Moi\AppData\Local\Temp\ccAXdvuJ.s 			page 19


 719 0268 06E0     		b	.L26
 720              	.L14:
 721              		.loc 1 186 0
 722 026a 184B     		ldr	r3, .L438+40
 723 026c 0022     		movs	r2, #0
 724 026e 1A60     		str	r2, [r3]
 725 0270 164B     		ldr	r3, .L438+40
 726 0272 1B68     		ldr	r3, [r3]
 727 0274 144A     		ldr	r2, .L438+36
 728 0276 1360     		str	r3, [r2]
 729              	.L26:
 730              		.loc 1 188 0
 731 0278 9DF83130 		ldrb	r3, [sp, #49]
 732 027c 8DF83030 		strb	r3, [sp, #48]
 733              		.loc 1 189 0
 734 0280 124B     		ldr	r3, .L438+40
 735 0282 1B68     		ldr	r3, [r3]
 736 0284 1846     		mov	r0, r3
 737 0286 FFF7FEFF 		bl	e_set_speed_left
 738              		.loc 1 190 0
 739 028a 0F4B     		ldr	r3, .L438+36
 740 028c 1B68     		ldr	r3, [r3]
 741 028e 1846     		mov	r0, r3
 742 0290 FFF7FEFF 		bl	e_set_speed_right
 743              	.L12:
 744              		.loc 1 135 0
 745 0294 1148     		ldr	r0, .L438+56
 746 0296 FFF7FEFF 		bl	e_getchar_uart1
 747 029a 0346     		mov	r3, r0
 748 029c 002B     		cmp	r3, #0
 749 029e 3FF458AF 		beq	.L28
 750 02a2 C6E0     		b	.L29
 751              	.L439:
 752              		.align	2
 753              	.L438:
 754 02a4 00000000 		.word	__stack_chk_guard
 755 02a8 00000000 		.word	selector
 756 02ac 00000000 		.word	HWversion.12697
 757 02b0 00000000 		.word	cam_mode.12679
 758 02b4 00000000 		.word	cam_width.12680
 759 02b8 00000000 		.word	cam_heigth.12681
 760 02bc 00000000 		.word	cam_zoom.12682
 761 02c0 00000000 		.word	cam_size.12683
 762 02c4 00000000 		.word	.LC0
 763 02c8 00000000 		.word	speedr.12666
 764 02cc 00000000 		.word	speedl.12667
 765 02d0 A8FDFFFF 		.word	-600
 766 02d4 D4FEFFFF 		.word	-300
 767 02d8 00000000 		.word	first.12686
 768 02dc 00000000 		.word	c
 769              	.L46:
 770              		.loc 1 200 0
 771 02e0 FFF7FEFF 		bl	e_get_data
 772 02e4 0346     		mov	r3, r0
 773 02e6 8DF83130 		strb	r3, [sp, #49]
 774              		.loc 1 201 0
 775 02ea FFF7FEFF 		bl	e_get_address
ARM GAS  C:\Users\Moi\AppData\Local\Temp\ccAXdvuJ.s 			page 20


 776 02ee 0346     		mov	r3, r0
 777 02f0 8DF83230 		strb	r3, [sp, #50]
 778              		.loc 1 202 0
 779 02f4 9DF83230 		ldrb	r3, [sp, #50]	@ zero_extendqisi2
 780 02f8 002B     		cmp	r3, #0
 781 02fa 04D0     		beq	.L31
 782              		.loc 1 202 0 is_stmt 0 discriminator 2
 783 02fc 9DF83230 		ldrb	r3, [sp, #50]	@ zero_extendqisi2
 784 0300 082B     		cmp	r3, #8
 785 0302 40F08F80 		bne	.L30
 786              	.L31:
 787              		.loc 1 202 0 discriminator 3
 788 0306 9DF83120 		ldrb	r2, [sp, #49]	@ zero_extendqisi2
 789 030a 9DF83030 		ldrb	r3, [sp, #48]	@ zero_extendqisi2
 790 030e 9A42     		cmp	r2, r3
 791 0310 00F08880 		beq	.L30
 792              		.loc 1 203 0 is_stmt 1
 793 0314 9DF83130 		ldrb	r3, [sp, #49]	@ zero_extendqisi2
 794 0318 092B     		cmp	r3, #9
 795 031a 6ED8     		bhi	.L32
 796 031c 01A2     		adr	r2, .L34
 797 031e 52F823F0 		ldr	pc, [r2, r3, lsl #2]
 798 0322 00BF     		.p2align 2
 799              	.L34:
 800 0324 DB030000 		.word	.L33+1
 801 0328 4D030000 		.word	.L35+1
 802 032c 5F030000 		.word	.L36+1
 803 0330 71030000 		.word	.L37+1
 804 0334 83030000 		.word	.L38+1
 805 0338 93030000 		.word	.L39+1
 806 033c A1030000 		.word	.L40+1
 807 0340 B1030000 		.word	.L41+1
 808 0344 BF030000 		.word	.L42+1
 809 0348 CD030000 		.word	.L43+1
 810              		.p2align 1
 811              	.L35:
 812              		.loc 1 205 0
 813 034c 8E4B     		ldr	r3, .L440
 814 034e 4FF41672 		mov	r2, #600
 815 0352 1A60     		str	r2, [r3]
 816              		.loc 1 206 0
 817 0354 8D4B     		ldr	r3, .L440+4
 818 0356 4FF49672 		mov	r2, #300
 819 035a 1A60     		str	r2, [r3]
 820              		.loc 1 207 0
 821 035c 54E0     		b	.L44
 822              	.L36:
 823              		.loc 1 209 0
 824 035e 8A4B     		ldr	r3, .L440
 825 0360 4FF41672 		mov	r2, #600
 826 0364 1A60     		str	r2, [r3]
 827              		.loc 1 210 0
 828 0366 894B     		ldr	r3, .L440+4
 829 0368 4FF41672 		mov	r2, #600
 830 036c 1A60     		str	r2, [r3]
 831              		.loc 1 211 0
 832 036e 4BE0     		b	.L44
ARM GAS  C:\Users\Moi\AppData\Local\Temp\ccAXdvuJ.s 			page 21


 833              	.L37:
 834              		.loc 1 213 0
 835 0370 854B     		ldr	r3, .L440
 836 0372 4FF49672 		mov	r2, #300
 837 0376 1A60     		str	r2, [r3]
 838              		.loc 1 214 0
 839 0378 844B     		ldr	r3, .L440+4
 840 037a 4FF41672 		mov	r2, #600
 841 037e 1A60     		str	r2, [r3]
 842              		.loc 1 215 0
 843 0380 42E0     		b	.L44
 844              	.L38:
 845              		.loc 1 217 0
 846 0382 814B     		ldr	r3, .L440
 847 0384 4FF41672 		mov	r2, #600
 848 0388 1A60     		str	r2, [r3]
 849              		.loc 1 218 0
 850 038a 804B     		ldr	r3, .L440+4
 851 038c 804A     		ldr	r2, .L440+8
 852 038e 1A60     		str	r2, [r3]
 853              		.loc 1 219 0
 854 0390 3AE0     		b	.L44
 855              	.L39:
 856              		.loc 1 221 0
 857 0392 7D4B     		ldr	r3, .L440
 858 0394 0022     		movs	r2, #0
 859 0396 1A60     		str	r2, [r3]
 860              		.loc 1 222 0
 861 0398 7C4B     		ldr	r3, .L440+4
 862 039a 0022     		movs	r2, #0
 863 039c 1A60     		str	r2, [r3]
 864              		.loc 1 223 0
 865 039e 33E0     		b	.L44
 866              	.L40:
 867              		.loc 1 225 0
 868 03a0 794B     		ldr	r3, .L440
 869 03a2 7B4A     		ldr	r2, .L440+8
 870 03a4 1A60     		str	r2, [r3]
 871              		.loc 1 226 0
 872 03a6 794B     		ldr	r3, .L440+4
 873 03a8 4FF41672 		mov	r2, #600
 874 03ac 1A60     		str	r2, [r3]
 875              		.loc 1 227 0
 876 03ae 2BE0     		b	.L44
 877              	.L41:
 878              		.loc 1 229 0
 879 03b0 754B     		ldr	r3, .L440
 880 03b2 774A     		ldr	r2, .L440+8
 881 03b4 1A60     		str	r2, [r3]
 882              		.loc 1 230 0
 883 03b6 754B     		ldr	r3, .L440+4
 884 03b8 764A     		ldr	r2, .L440+12
 885 03ba 1A60     		str	r2, [r3]
 886              		.loc 1 231 0
 887 03bc 24E0     		b	.L44
 888              	.L42:
 889              		.loc 1 233 0
ARM GAS  C:\Users\Moi\AppData\Local\Temp\ccAXdvuJ.s 			page 22


 890 03be 724B     		ldr	r3, .L440
 891 03c0 734A     		ldr	r2, .L440+8
 892 03c2 1A60     		str	r2, [r3]
 893              		.loc 1 234 0
 894 03c4 714B     		ldr	r3, .L440+4
 895 03c6 724A     		ldr	r2, .L440+8
 896 03c8 1A60     		str	r2, [r3]
 897              		.loc 1 235 0
 898 03ca 1DE0     		b	.L44
 899              	.L43:
 900              		.loc 1 237 0
 901 03cc 6E4B     		ldr	r3, .L440
 902 03ce 714A     		ldr	r2, .L440+12
 903 03d0 1A60     		str	r2, [r3]
 904              		.loc 1 238 0
 905 03d2 6E4B     		ldr	r3, .L440+4
 906 03d4 6E4A     		ldr	r2, .L440+8
 907 03d6 1A60     		str	r2, [r3]
 908              		.loc 1 239 0
 909 03d8 16E0     		b	.L44
 910              	.L33:
 911              		.loc 1 241 0
 912 03da 6F4B     		ldr	r3, .L440+16
 913 03dc 1B78     		ldrb	r3, [r3]	@ zero_extendqisi2
 914 03de 002B     		cmp	r3, #0
 915 03e0 04D1     		bne	.L45
 916              		.loc 1 242 0
 917 03e2 FFF7FEFF 		bl	e_init_sound
 918              		.loc 1 243 0
 919 03e6 6C4B     		ldr	r3, .L440+16
 920 03e8 0122     		movs	r2, #1
 921 03ea 1A70     		strb	r2, [r3]
 922              	.L45:
 923              		.loc 1 245 0
 924 03ec 41F65071 		movw	r1, #8016
 925 03f0 42F61430 		movw	r0, #11028
 926 03f4 FFF7FEFF 		bl	e_play_sound
 927              		.loc 1 246 0
 928 03f8 06E0     		b	.L44
 929              	.L32:
 930              		.loc 1 248 0
 931 03fa 644B     		ldr	r3, .L440+4
 932 03fc 0022     		movs	r2, #0
 933 03fe 1A60     		str	r2, [r3]
 934 0400 624B     		ldr	r3, .L440+4
 935 0402 1B68     		ldr	r3, [r3]
 936 0404 604A     		ldr	r2, .L440
 937 0406 1360     		str	r3, [r2]
 938              	.L44:
 939              		.loc 1 250 0
 940 0408 9DF83130 		ldrb	r3, [sp, #49]
 941 040c 8DF83030 		strb	r3, [sp, #48]
 942              		.loc 1 251 0
 943 0410 5E4B     		ldr	r3, .L440+4
 944 0412 1B68     		ldr	r3, [r3]
 945 0414 1846     		mov	r0, r3
 946 0416 FFF7FEFF 		bl	e_set_speed_left
ARM GAS  C:\Users\Moi\AppData\Local\Temp\ccAXdvuJ.s 			page 23


 947              		.loc 1 252 0
 948 041a 5B4B     		ldr	r3, .L440
 949 041c 1B68     		ldr	r3, [r3]
 950 041e 1846     		mov	r0, r3
 951 0420 FFF7FEFF 		bl	e_set_speed_right
 952              	.L30:
 953              		.loc 1 197 0
 954 0424 5D48     		ldr	r0, .L440+20
 955 0426 FFF7FEFF 		bl	e_getchar_uart2
 956 042a 0346     		mov	r3, r0
 957 042c 002B     		cmp	r3, #0
 958 042e 3FF457AF 		beq	.L46
 959              	.L29:
 960              		.loc 1 260 0
 961 0432 5A4B     		ldr	r3, .L440+20
 962 0434 1B78     		ldrb	r3, [r3]	@ zero_extendqisi2
 963 0436 5BB2     		sxtb	r3, r3
 964 0438 002B     		cmp	r3, #0
 965 043a 80F24187 		bge	.L47
 966              		.loc 1 261 0
 967 043e 584B     		ldr	r3, .L440+24
 968 0440 0022     		movs	r2, #0
 969 0442 1A60     		str	r2, [r3]
 970              	.L163:
 971              		.loc 1 263 0
 972 0444 554B     		ldr	r3, .L440+20
 973 0446 1B78     		ldrb	r3, [r3]	@ zero_extendqisi2
 974 0448 5B42     		negs	r3, r3
 975 044a DBB2     		uxtb	r3, r3
 976 044c 5BB2     		sxtb	r3, r3
 977 044e 413B     		subs	r3, r3, #65
 978 0450 362B     		cmp	r3, #54
 979 0452 00F2C186 		bhi	.L416
 980 0456 01A2     		adr	r2, .L50
 981 0458 52F823F0 		ldr	pc, [r2, r3, lsl #2]
 982              		.p2align 2
 983              	.L50:
 984 045c 5D060000 		.word	.L49+1
 985 0460 D9110000 		.word	.L416+1
 986 0464 D9110000 		.word	.L416+1
 987 0468 61080000 		.word	.L51+1
 988 046c 21090000 		.word	.L52+1
 989 0470 D9110000 		.word	.L416+1
 990 0474 D9110000 		.word	.L416+1
 991 0478 D9110000 		.word	.L416+1
 992 047c 990A0000 		.word	.L53+1
 993 0480 D9110000 		.word	.L416+1
 994 0484 D9110000 		.word	.L416+1
 995 0488 030B0000 		.word	.L54+1
 996 048c 910B0000 		.word	.L55+1
 997 0490 870C0000 		.word	.L56+1
 998 0494 670D0000 		.word	.L57+1
 999 0498 190E0000 		.word	.L58+1
 1000 049c D70E0000 		.word	.L59+1
 1001 04a0 D9110000 		.word	.L416+1
 1002 04a4 D9110000 		.word	.L416+1
 1003 04a8 D9110000 		.word	.L416+1
ARM GAS  C:\Users\Moi\AppData\Local\Temp\ccAXdvuJ.s 			page 24


 1004 04ac D9110000 		.word	.L416+1
 1005 04b0 D9110000 		.word	.L416+1
 1006 04b4 41100000 		.word	.L61+1
 1007 04b8 D9110000 		.word	.L416+1
 1008 04bc D9110000 		.word	.L416+1
 1009 04c0 D9110000 		.word	.L416+1
 1010 04c4 D9110000 		.word	.L416+1
 1011 04c8 D9110000 		.word	.L416+1
 1012 04cc D9110000 		.word	.L416+1
 1013 04d0 D9110000 		.word	.L416+1
 1014 04d4 D9110000 		.word	.L416+1
 1015 04d8 D9110000 		.word	.L416+1
 1016 04dc 39050000 		.word	.L62+1
 1017 04e0 E3070000 		.word	.L63+1
 1018 04e4 D9110000 		.word	.L416+1
 1019 04e8 D9110000 		.word	.L416+1
 1020 04ec D9110000 		.word	.L416+1
 1021 04f0 D9110000 		.word	.L416+1
 1022 04f4 79090000 		.word	.L64+1
 1023 04f8 D9110000 		.word	.L416+1
 1024 04fc D9110000 		.word	.L416+1
 1025 0500 D9110000 		.word	.L416+1
 1026 0504 D9110000 		.word	.L416+1
 1027 0508 D9110000 		.word	.L416+1
 1028 050c D9110000 		.word	.L416+1
 1029 0510 D9110000 		.word	.L416+1
 1030 0514 D9110000 		.word	.L416+1
 1031 0518 D9110000 		.word	.L416+1
 1032 051c D9110000 		.word	.L416+1
 1033 0520 D9110000 		.word	.L416+1
 1034 0524 D9110000 		.word	.L416+1
 1035 0528 410F0000 		.word	.L65+1
 1036 052c 9D0F0000 		.word	.L66+1
 1037 0530 D9110000 		.word	.L416+1
 1038 0534 95100000 		.word	.L67+1
 1039              		.p2align 1
 1040              	.L62:
 1041              		.loc 1 265 0
 1042 0538 0D9B     		ldr	r3, [sp, #52]
 1043 053a 002B     		cmp	r3, #0
 1044 053c 15D0     		beq	.L68
 1045              		.loc 1 266 0
 1046 053e 0121     		movs	r1, #1
 1047 0540 0020     		movs	r0, #0
 1048 0542 FFF7FEFF 		bl	e_get_acc_filtered
 1049 0546 0246     		mov	r2, r0
 1050 0548 164B     		ldr	r3, .L440+28
 1051 054a 1A60     		str	r2, [r3]
 1052              		.loc 1 267 0
 1053 054c 0121     		movs	r1, #1
 1054 054e 0120     		movs	r0, #1
 1055 0550 FFF7FEFF 		bl	e_get_acc_filtered
 1056 0554 0246     		mov	r2, r0
 1057 0556 144B     		ldr	r3, .L440+32
 1058 0558 1A60     		str	r2, [r3]
 1059              		.loc 1 268 0
 1060 055a 0121     		movs	r1, #1
ARM GAS  C:\Users\Moi\AppData\Local\Temp\ccAXdvuJ.s 			page 25


 1061 055c 0220     		movs	r0, #2
 1062 055e FFF7FEFF 		bl	e_get_acc_filtered
 1063 0562 0246     		mov	r2, r0
 1064 0564 114B     		ldr	r3, .L440+36
 1065 0566 1A60     		str	r2, [r3]
 1066 0568 37E0     		b	.L69
 1067              	.L68:
 1068              		.loc 1 273 0
 1069 056a FFF7FEFF 		bl	isEpuckVersion1_3
 1070 056e 0346     		mov	r3, r0
 1071 0570 002B     		cmp	r3, #0
 1072 0572 1DD0     		beq	.L70
 1073              		.loc 1 274 0
 1074 0574 0B4B     		ldr	r3, .L440+28
 1075 0576 0022     		movs	r2, #0
 1076 0578 1A60     		str	r2, [r3]
 1077              		.loc 1 275 0
 1078 057a 0B4B     		ldr	r3, .L440+32
 1079 057c 0022     		movs	r2, #0
 1080 057e 1A60     		str	r2, [r3]
 1081              		.loc 1 276 0
 1082 0580 0A4B     		ldr	r3, .L440+36
 1083 0582 0022     		movs	r2, #0
 1084 0584 1A60     		str	r2, [r3]
 1085 0586 28E0     		b	.L69
 1086              	.L441:
 1087              		.align	2
 1088              	.L440:
 1089 0588 00000000 		.word	speedr.12666
 1090 058c 00000000 		.word	speedl.12667
 1091 0590 A8FDFFFF 		.word	-600
 1092 0594 D4FEFFFF 		.word	-300
 1093 0598 00000000 		.word	first.12686
 1094 059c 00000000 		.word	c
 1095 05a0 00000000 		.word	i.12663
 1096 05a4 00000000 		.word	accx.12672
 1097 05a8 00000000 		.word	accy.12673
 1098 05ac 00000000 		.word	accz.12674
 1099              	.L70:
 1100              		.loc 1 278 0
 1101 05b0 0121     		movs	r1, #1
 1102 05b2 0020     		movs	r0, #0
 1103 05b4 FFF7FEFF 		bl	e_get_acc_filtered
 1104 05b8 0246     		mov	r2, r0
 1105 05ba 984B     		ldr	r3, .L442
 1106 05bc 1A60     		str	r2, [r3]
 1107              		.loc 1 279 0
 1108 05be 0121     		movs	r1, #1
 1109 05c0 0120     		movs	r0, #1
 1110 05c2 FFF7FEFF 		bl	e_get_acc_filtered
 1111 05c6 0246     		mov	r2, r0
 1112 05c8 954B     		ldr	r3, .L442+4
 1113 05ca 1A60     		str	r2, [r3]
 1114              		.loc 1 280 0
 1115 05cc 0121     		movs	r1, #1
 1116 05ce 0220     		movs	r0, #2
 1117 05d0 FFF7FEFF 		bl	e_get_acc_filtered
ARM GAS  C:\Users\Moi\AppData\Local\Temp\ccAXdvuJ.s 			page 26


 1118 05d4 0246     		mov	r2, r0
 1119 05d6 934B     		ldr	r3, .L442+8
 1120 05d8 1A60     		str	r2, [r3]
 1121              	.L69:
 1122              		.loc 1 283 0
 1123 05da 904B     		ldr	r3, .L442
 1124 05dc 1868     		ldr	r0, [r3]
 1125 05de 924B     		ldr	r3, .L442+12
 1126 05e0 1B68     		ldr	r3, [r3]
 1127 05e2 5A1C     		adds	r2, r3, #1
 1128 05e4 9049     		ldr	r1, .L442+12
 1129 05e6 0A60     		str	r2, [r1]
 1130 05e8 C1B2     		uxtb	r1, r0
 1131 05ea 904A     		ldr	r2, .L442+16
 1132 05ec D154     		strb	r1, [r2, r3]
 1133              		.loc 1 284 0
 1134 05ee 8B4B     		ldr	r3, .L442
 1135 05f0 1B68     		ldr	r3, [r3]
 1136 05f2 1812     		asrs	r0, r3, #8
 1137 05f4 8C4B     		ldr	r3, .L442+12
 1138 05f6 1B68     		ldr	r3, [r3]
 1139 05f8 5A1C     		adds	r2, r3, #1
 1140 05fa 8B49     		ldr	r1, .L442+12
 1141 05fc 0A60     		str	r2, [r1]
 1142 05fe C1B2     		uxtb	r1, r0
 1143 0600 8A4A     		ldr	r2, .L442+16
 1144 0602 D154     		strb	r1, [r2, r3]
 1145              		.loc 1 285 0
 1146 0604 864B     		ldr	r3, .L442+4
 1147 0606 1868     		ldr	r0, [r3]
 1148 0608 874B     		ldr	r3, .L442+12
 1149 060a 1B68     		ldr	r3, [r3]
 1150 060c 5A1C     		adds	r2, r3, #1
 1151 060e 8649     		ldr	r1, .L442+12
 1152 0610 0A60     		str	r2, [r1]
 1153 0612 C1B2     		uxtb	r1, r0
 1154 0614 854A     		ldr	r2, .L442+16
 1155 0616 D154     		strb	r1, [r2, r3]
 1156              		.loc 1 286 0
 1157 0618 814B     		ldr	r3, .L442+4
 1158 061a 1B68     		ldr	r3, [r3]
 1159 061c 1812     		asrs	r0, r3, #8
 1160 061e 824B     		ldr	r3, .L442+12
 1161 0620 1B68     		ldr	r3, [r3]
 1162 0622 5A1C     		adds	r2, r3, #1
 1163 0624 8049     		ldr	r1, .L442+12
 1164 0626 0A60     		str	r2, [r1]
 1165 0628 C1B2     		uxtb	r1, r0
 1166 062a 804A     		ldr	r2, .L442+16
 1167 062c D154     		strb	r1, [r2, r3]
 1168              		.loc 1 287 0
 1169 062e 7D4B     		ldr	r3, .L442+8
 1170 0630 1868     		ldr	r0, [r3]
 1171 0632 7D4B     		ldr	r3, .L442+12
 1172 0634 1B68     		ldr	r3, [r3]
 1173 0636 5A1C     		adds	r2, r3, #1
 1174 0638 7B49     		ldr	r1, .L442+12
ARM GAS  C:\Users\Moi\AppData\Local\Temp\ccAXdvuJ.s 			page 27


 1175 063a 0A60     		str	r2, [r1]
 1176 063c C1B2     		uxtb	r1, r0
 1177 063e 7B4A     		ldr	r2, .L442+16
 1178 0640 D154     		strb	r1, [r2, r3]
 1179              		.loc 1 288 0
 1180 0642 784B     		ldr	r3, .L442+8
 1181 0644 1B68     		ldr	r3, [r3]
 1182 0646 1812     		asrs	r0, r3, #8
 1183 0648 774B     		ldr	r3, .L442+12
 1184 064a 1B68     		ldr	r3, [r3]
 1185 064c 5A1C     		adds	r2, r3, #1
 1186 064e 7649     		ldr	r1, .L442+12
 1187 0650 0A60     		str	r2, [r1]
 1188 0652 C1B2     		uxtb	r1, r0
 1189 0654 754A     		ldr	r2, .L442+16
 1190 0656 D154     		strb	r1, [r2, r3]
 1191              		.loc 1 289 0
 1192 0658 00F0C7BD 		b	.L71
 1193              	.L49:
 1194              		.loc 1 292 0
 1195 065c 0D9B     		ldr	r3, [sp, #52]
 1196 065e 002B     		cmp	r3, #0
 1197 0660 0FD0     		beq	.L72
 1198              		.loc 1 293 0
 1199 0662 FFF7FEFF 		bl	e_read_acc_spheric
 1200 0666 F0EE406A 		vmov.f32	s13, s0
 1201 066a B0EE607A 		vmov.f32	s14, s1
 1202 066e F0EE417A 		vmov.f32	s15, s2
 1203 0672 6F4B     		ldr	r3, .L442+20
 1204 0674 C3ED006A 		vstr.32	s13, [r3]
 1205 0678 83ED017A 		vstr.32	s14, [r3, #4]
 1206 067c C3ED027A 		vstr.32	s15, [r3, #8]
 1207 0680 20E0     		b	.L73
 1208              	.L72:
 1209              		.loc 1 295 0
 1210 0682 FFF7FEFF 		bl	isEpuckVersion1_3
 1211 0686 0346     		mov	r3, r0
 1212 0688 002B     		cmp	r3, #0
 1213 068a 0CD0     		beq	.L74
 1214              		.loc 1 296 0
 1215 068c 684B     		ldr	r3, .L442+20
 1216 068e 4FF00002 		mov	r2, #0
 1217 0692 1A60     		str	r2, [r3]	@ float
 1218              		.loc 1 297 0
 1219 0694 664B     		ldr	r3, .L442+20
 1220 0696 4FF00002 		mov	r2, #0
 1221 069a 9A60     		str	r2, [r3, #8]	@ float
 1222              		.loc 1 298 0
 1223 069c 644B     		ldr	r3, .L442+20
 1224 069e 4FF00002 		mov	r2, #0
 1225 06a2 5A60     		str	r2, [r3, #4]	@ float
 1226 06a4 0EE0     		b	.L73
 1227              	.L74:
 1228              		.loc 1 300 0
 1229 06a6 FFF7FEFF 		bl	e_read_acc_spheric
 1230 06aa F0EE406A 		vmov.f32	s13, s0
 1231 06ae B0EE607A 		vmov.f32	s14, s1
ARM GAS  C:\Users\Moi\AppData\Local\Temp\ccAXdvuJ.s 			page 28


 1232 06b2 F0EE417A 		vmov.f32	s15, s2
 1233 06b6 5E4B     		ldr	r3, .L442+20
 1234 06b8 C3ED006A 		vstr.32	s13, [r3]
 1235 06bc 83ED017A 		vstr.32	s14, [r3, #4]
 1236 06c0 C3ED027A 		vstr.32	s15, [r3, #8]
 1237              	.L73:
 1238              		.loc 1 303 0
 1239 06c4 5A4B     		ldr	r3, .L442+20
 1240 06c6 1093     		str	r3, [sp, #64]
 1241              		.loc 1 304 0
 1242 06c8 574B     		ldr	r3, .L442+12
 1243 06ca 1B68     		ldr	r3, [r3]
 1244 06cc 5A1C     		adds	r2, r3, #1
 1245 06ce 5649     		ldr	r1, .L442+12
 1246 06d0 0A60     		str	r2, [r1]
 1247 06d2 109A     		ldr	r2, [sp, #64]
 1248 06d4 1178     		ldrb	r1, [r2]	@ zero_extendqisi2
 1249 06d6 554A     		ldr	r2, .L442+16
 1250 06d8 D154     		strb	r1, [r2, r3]
 1251              		.loc 1 305 0
 1252 06da 109B     		ldr	r3, [sp, #64]
 1253 06dc 0133     		adds	r3, r3, #1
 1254 06de 1093     		str	r3, [sp, #64]
 1255              		.loc 1 306 0
 1256 06e0 514B     		ldr	r3, .L442+12
 1257 06e2 1B68     		ldr	r3, [r3]
 1258 06e4 5A1C     		adds	r2, r3, #1
 1259 06e6 5049     		ldr	r1, .L442+12
 1260 06e8 0A60     		str	r2, [r1]
 1261 06ea 109A     		ldr	r2, [sp, #64]
 1262 06ec 1178     		ldrb	r1, [r2]	@ zero_extendqisi2
 1263 06ee 4F4A     		ldr	r2, .L442+16
 1264 06f0 D154     		strb	r1, [r2, r3]
 1265              		.loc 1 307 0
 1266 06f2 109B     		ldr	r3, [sp, #64]
 1267 06f4 0133     		adds	r3, r3, #1
 1268 06f6 1093     		str	r3, [sp, #64]
 1269              		.loc 1 308 0
 1270 06f8 4B4B     		ldr	r3, .L442+12
 1271 06fa 1B68     		ldr	r3, [r3]
 1272 06fc 5A1C     		adds	r2, r3, #1
 1273 06fe 4A49     		ldr	r1, .L442+12
 1274 0700 0A60     		str	r2, [r1]
 1275 0702 109A     		ldr	r2, [sp, #64]
 1276 0704 1178     		ldrb	r1, [r2]	@ zero_extendqisi2
 1277 0706 494A     		ldr	r2, .L442+16
 1278 0708 D154     		strb	r1, [r2, r3]
 1279              		.loc 1 309 0
 1280 070a 109B     		ldr	r3, [sp, #64]
 1281 070c 0133     		adds	r3, r3, #1
 1282 070e 1093     		str	r3, [sp, #64]
 1283              		.loc 1 310 0
 1284 0710 454B     		ldr	r3, .L442+12
 1285 0712 1B68     		ldr	r3, [r3]
 1286 0714 5A1C     		adds	r2, r3, #1
 1287 0716 4449     		ldr	r1, .L442+12
 1288 0718 0A60     		str	r2, [r1]
ARM GAS  C:\Users\Moi\AppData\Local\Temp\ccAXdvuJ.s 			page 29


 1289 071a 109A     		ldr	r2, [sp, #64]
 1290 071c 1178     		ldrb	r1, [r2]	@ zero_extendqisi2
 1291 071e 434A     		ldr	r2, .L442+16
 1292 0720 D154     		strb	r1, [r2, r3]
 1293              		.loc 1 312 0
 1294 0722 444B     		ldr	r3, .L442+24
 1295 0724 1093     		str	r3, [sp, #64]
 1296              		.loc 1 313 0
 1297 0726 404B     		ldr	r3, .L442+12
 1298 0728 1B68     		ldr	r3, [r3]
 1299 072a 5A1C     		adds	r2, r3, #1
 1300 072c 3E49     		ldr	r1, .L442+12
 1301 072e 0A60     		str	r2, [r1]
 1302 0730 109A     		ldr	r2, [sp, #64]
 1303 0732 1178     		ldrb	r1, [r2]	@ zero_extendqisi2
 1304 0734 3D4A     		ldr	r2, .L442+16
 1305 0736 D154     		strb	r1, [r2, r3]
 1306              		.loc 1 314 0
 1307 0738 109B     		ldr	r3, [sp, #64]
 1308 073a 0133     		adds	r3, r3, #1
 1309 073c 1093     		str	r3, [sp, #64]
 1310              		.loc 1 315 0
 1311 073e 3A4B     		ldr	r3, .L442+12
 1312 0740 1B68     		ldr	r3, [r3]
 1313 0742 5A1C     		adds	r2, r3, #1
 1314 0744 3849     		ldr	r1, .L442+12
 1315 0746 0A60     		str	r2, [r1]
 1316 0748 109A     		ldr	r2, [sp, #64]
 1317 074a 1178     		ldrb	r1, [r2]	@ zero_extendqisi2
 1318 074c 374A     		ldr	r2, .L442+16
 1319 074e D154     		strb	r1, [r2, r3]
 1320              		.loc 1 316 0
 1321 0750 109B     		ldr	r3, [sp, #64]
 1322 0752 0133     		adds	r3, r3, #1
 1323 0754 1093     		str	r3, [sp, #64]
 1324              		.loc 1 317 0
 1325 0756 344B     		ldr	r3, .L442+12
 1326 0758 1B68     		ldr	r3, [r3]
 1327 075a 5A1C     		adds	r2, r3, #1
 1328 075c 3249     		ldr	r1, .L442+12
 1329 075e 0A60     		str	r2, [r1]
 1330 0760 109A     		ldr	r2, [sp, #64]
 1331 0762 1178     		ldrb	r1, [r2]	@ zero_extendqisi2
 1332 0764 314A     		ldr	r2, .L442+16
 1333 0766 D154     		strb	r1, [r2, r3]
 1334              		.loc 1 318 0
 1335 0768 109B     		ldr	r3, [sp, #64]
 1336 076a 0133     		adds	r3, r3, #1
 1337 076c 1093     		str	r3, [sp, #64]
 1338              		.loc 1 319 0
 1339 076e 2E4B     		ldr	r3, .L442+12
 1340 0770 1B68     		ldr	r3, [r3]
 1341 0772 5A1C     		adds	r2, r3, #1
 1342 0774 2C49     		ldr	r1, .L442+12
 1343 0776 0A60     		str	r2, [r1]
 1344 0778 109A     		ldr	r2, [sp, #64]
 1345 077a 1178     		ldrb	r1, [r2]	@ zero_extendqisi2
ARM GAS  C:\Users\Moi\AppData\Local\Temp\ccAXdvuJ.s 			page 30


 1346 077c 2B4A     		ldr	r2, .L442+16
 1347 077e D154     		strb	r1, [r2, r3]
 1348              		.loc 1 321 0
 1349 0780 2D4B     		ldr	r3, .L442+28
 1350 0782 1093     		str	r3, [sp, #64]
 1351              		.loc 1 322 0
 1352 0784 284B     		ldr	r3, .L442+12
 1353 0786 1B68     		ldr	r3, [r3]
 1354 0788 5A1C     		adds	r2, r3, #1
 1355 078a 2749     		ldr	r1, .L442+12
 1356 078c 0A60     		str	r2, [r1]
 1357 078e 109A     		ldr	r2, [sp, #64]
 1358 0790 1178     		ldrb	r1, [r2]	@ zero_extendqisi2
 1359 0792 264A     		ldr	r2, .L442+16
 1360 0794 D154     		strb	r1, [r2, r3]
 1361              		.loc 1 323 0
 1362 0796 109B     		ldr	r3, [sp, #64]
 1363 0798 0133     		adds	r3, r3, #1
 1364 079a 1093     		str	r3, [sp, #64]
 1365              		.loc 1 324 0
 1366 079c 224B     		ldr	r3, .L442+12
 1367 079e 1B68     		ldr	r3, [r3]
 1368 07a0 5A1C     		adds	r2, r3, #1
 1369 07a2 2149     		ldr	r1, .L442+12
 1370 07a4 0A60     		str	r2, [r1]
 1371 07a6 109A     		ldr	r2, [sp, #64]
 1372 07a8 1178     		ldrb	r1, [r2]	@ zero_extendqisi2
 1373 07aa 204A     		ldr	r2, .L442+16
 1374 07ac D154     		strb	r1, [r2, r3]
 1375              		.loc 1 325 0
 1376 07ae 109B     		ldr	r3, [sp, #64]
 1377 07b0 0133     		adds	r3, r3, #1
 1378 07b2 1093     		str	r3, [sp, #64]
 1379              		.loc 1 326 0
 1380 07b4 1C4B     		ldr	r3, .L442+12
 1381 07b6 1B68     		ldr	r3, [r3]
 1382 07b8 5A1C     		adds	r2, r3, #1
 1383 07ba 1B49     		ldr	r1, .L442+12
 1384 07bc 0A60     		str	r2, [r1]
 1385 07be 109A     		ldr	r2, [sp, #64]
 1386 07c0 1178     		ldrb	r1, [r2]	@ zero_extendqisi2
 1387 07c2 1A4A     		ldr	r2, .L442+16
 1388 07c4 D154     		strb	r1, [r2, r3]
 1389              		.loc 1 327 0
 1390 07c6 109B     		ldr	r3, [sp, #64]
 1391 07c8 0133     		adds	r3, r3, #1
 1392 07ca 1093     		str	r3, [sp, #64]
 1393              		.loc 1 328 0
 1394 07cc 164B     		ldr	r3, .L442+12
 1395 07ce 1B68     		ldr	r3, [r3]
 1396 07d0 5A1C     		adds	r2, r3, #1
 1397 07d2 1549     		ldr	r1, .L442+12
 1398 07d4 0A60     		str	r2, [r1]
 1399 07d6 109A     		ldr	r2, [sp, #64]
 1400 07d8 1178     		ldrb	r1, [r2]	@ zero_extendqisi2
 1401 07da 144A     		ldr	r2, .L442+16
 1402 07dc D154     		strb	r1, [r2, r3]
ARM GAS  C:\Users\Moi\AppData\Local\Temp\ccAXdvuJ.s 			page 31


 1403              		.loc 1 329 0
 1404 07de 00F004BD 		b	.L71
 1405              	.L63:
 1406              		.loc 1 332 0
 1407 07e2 FFF7FEFF 		bl	isEpuckVersion1_3
 1408 07e6 0346     		mov	r3, r0
 1409 07e8 002B     		cmp	r3, #0
 1410 07ea 27D0     		beq	.L75
 1411              		.loc 1 334 0
 1412 07ec FFF7FEFF 		bl	getBatteryValueRaw
 1413 07f0 0F90     		str	r0, [sp, #60]
 1414              		.loc 1 335 0
 1415 07f2 0D4B     		ldr	r3, .L442+12
 1416 07f4 1B68     		ldr	r3, [r3]
 1417 07f6 5A1C     		adds	r2, r3, #1
 1418 07f8 0B49     		ldr	r1, .L442+12
 1419 07fa 0A60     		str	r2, [r1]
 1420 07fc 0F9A     		ldr	r2, [sp, #60]
 1421 07fe D1B2     		uxtb	r1, r2
 1422 0800 0A4A     		ldr	r2, .L442+16
 1423 0802 D154     		strb	r1, [r2, r3]
 1424              		.loc 1 336 0
 1425 0804 0F9B     		ldr	r3, [sp, #60]
 1426 0806 180A     		lsrs	r0, r3, #8
 1427 0808 074B     		ldr	r3, .L442+12
 1428 080a 1B68     		ldr	r3, [r3]
 1429 080c 5A1C     		adds	r2, r3, #1
 1430 080e 0649     		ldr	r1, .L442+12
 1431 0810 0A60     		str	r2, [r1]
 1432 0812 C1B2     		uxtb	r1, r0
 1433 0814 054A     		ldr	r2, .L442+16
 1434 0816 D154     		strb	r1, [r2, r3]
 1435              		.loc 1 341 0
 1436 0818 00F0E7BC 		b	.L71
 1437              	.L443:
 1438              		.align	2
 1439              	.L442:
 1440 081c 00000000 		.word	accx.12672
 1441 0820 00000000 		.word	accy.12673
 1442 0824 00000000 		.word	accz.12674
 1443 0828 00000000 		.word	i.12663
 1444 082c 00000000 		.word	buffer
 1445 0830 00000000 		.word	accelero.12694
 1446 0834 04000000 		.word	accelero.12694+4
 1447 0838 08000000 		.word	accelero.12694+8
 1448              	.L75:
 1449              		.loc 1 338 0
 1450 083c 8D4B     		ldr	r3, .L444
 1451 083e 1B68     		ldr	r3, [r3]
 1452 0840 5A1C     		adds	r2, r3, #1
 1453 0842 8C49     		ldr	r1, .L444
 1454 0844 0A60     		str	r2, [r1]
 1455 0846 8C4A     		ldr	r2, .L444+4
 1456 0848 0021     		movs	r1, #0
 1457 084a D154     		strb	r1, [r2, r3]
 1458              		.loc 1 339 0
 1459 084c 894B     		ldr	r3, .L444
ARM GAS  C:\Users\Moi\AppData\Local\Temp\ccAXdvuJ.s 			page 32


 1460 084e 1B68     		ldr	r3, [r3]
 1461 0850 5A1C     		adds	r2, r3, #1
 1462 0852 8849     		ldr	r1, .L444
 1463 0854 0A60     		str	r2, [r1]
 1464 0856 884A     		ldr	r2, .L444+4
 1465 0858 0021     		movs	r1, #0
 1466 085a D154     		strb	r1, [r2, r3]
 1467              		.loc 1 341 0
 1468 085c 00F0C5BC 		b	.L71
 1469              	.L51:
 1470              		.loc 1 344 0
 1471 0860 0D9B     		ldr	r3, [sp, #52]
 1472 0862 002B     		cmp	r3, #0
 1473 0864 0ED0     		beq	.L432
 1474              		.loc 1 345 0
 1475 0866 00BF     		nop
 1476              	.L78:
 1477              		.loc 1 345 0 is_stmt 0 discriminator 1
 1478 0868 8448     		ldr	r0, .L444+8
 1479 086a FFF7FEFF 		bl	e_getchar_uart1
 1480 086e 0346     		mov	r3, r0
 1481 0870 002B     		cmp	r3, #0
 1482 0872 F9D0     		beq	.L78
 1483              		.loc 1 346 0 is_stmt 1
 1484 0874 00BF     		nop
 1485              	.L79:
 1486              		.loc 1 346 0 is_stmt 0 discriminator 1
 1487 0876 8248     		ldr	r0, .L444+12
 1488 0878 FFF7FEFF 		bl	e_getchar_uart1
 1489 087c 0346     		mov	r3, r0
 1490 087e 002B     		cmp	r3, #0
 1491 0880 F9D0     		beq	.L79
 1492 0882 0DE0     		b	.L80
 1493              	.L432:
 1494              		.loc 1 348 0 is_stmt 1
 1495 0884 00BF     		nop
 1496              	.L81:
 1497              		.loc 1 348 0 is_stmt 0 discriminator 1
 1498 0886 7D48     		ldr	r0, .L444+8
 1499 0888 FFF7FEFF 		bl	e_getchar_uart2
 1500 088c 0346     		mov	r3, r0
 1501 088e 002B     		cmp	r3, #0
 1502 0890 F9D0     		beq	.L81
 1503              		.loc 1 349 0 is_stmt 1
 1504 0892 00BF     		nop
 1505              	.L82:
 1506              		.loc 1 349 0 is_stmt 0 discriminator 1
 1507 0894 7A48     		ldr	r0, .L444+12
 1508 0896 FFF7FEFF 		bl	e_getchar_uart2
 1509 089a 0346     		mov	r3, r0
 1510 089c 002B     		cmp	r3, #0
 1511 089e F9D0     		beq	.L82
 1512              	.L80:
 1513              		.loc 1 351 0 is_stmt 1
 1514 08a0 764B     		ldr	r3, .L444+8
 1515 08a2 1B78     		ldrb	r3, [r3]	@ zero_extendqisi2
 1516 08a4 1A46     		mov	r2, r3
ARM GAS  C:\Users\Moi\AppData\Local\Temp\ccAXdvuJ.s 			page 33


 1517 08a6 764B     		ldr	r3, .L444+12
 1518 08a8 1B78     		ldrb	r3, [r3]	@ zero_extendqisi2
 1519 08aa 1B02     		lsls	r3, r3, #8
 1520 08ac 1344     		add	r3, r3, r2
 1521 08ae 1A46     		mov	r2, r3
 1522 08b0 744B     		ldr	r3, .L444+16
 1523 08b2 1A60     		str	r2, [r3]
 1524              		.loc 1 352 0
 1525 08b4 0D9B     		ldr	r3, [sp, #52]
 1526 08b6 002B     		cmp	r3, #0
 1527 08b8 0ED0     		beq	.L433
 1528              		.loc 1 353 0
 1529 08ba 00BF     		nop
 1530              	.L84:
 1531              		.loc 1 353 0 is_stmt 0 discriminator 1
 1532 08bc 6F48     		ldr	r0, .L444+8
 1533 08be FFF7FEFF 		bl	e_getchar_uart1
 1534 08c2 0346     		mov	r3, r0
 1535 08c4 002B     		cmp	r3, #0
 1536 08c6 F9D0     		beq	.L84
 1537              		.loc 1 354 0 is_stmt 1
 1538 08c8 00BF     		nop
 1539              	.L85:
 1540              		.loc 1 354 0 is_stmt 0 discriminator 1
 1541 08ca 6D48     		ldr	r0, .L444+12
 1542 08cc FFF7FEFF 		bl	e_getchar_uart1
 1543 08d0 0346     		mov	r3, r0
 1544 08d2 002B     		cmp	r3, #0
 1545 08d4 F9D0     		beq	.L85
 1546 08d6 0DE0     		b	.L86
 1547              	.L433:
 1548              		.loc 1 356 0 is_stmt 1
 1549 08d8 00BF     		nop
 1550              	.L87:
 1551              		.loc 1 356 0 is_stmt 0 discriminator 1
 1552 08da 6848     		ldr	r0, .L444+8
 1553 08dc FFF7FEFF 		bl	e_getchar_uart2
 1554 08e0 0346     		mov	r3, r0
 1555 08e2 002B     		cmp	r3, #0
 1556 08e4 F9D0     		beq	.L87
 1557              		.loc 1 357 0 is_stmt 1
 1558 08e6 00BF     		nop
 1559              	.L88:
 1560              		.loc 1 357 0 is_stmt 0 discriminator 1
 1561 08e8 6548     		ldr	r0, .L444+12
 1562 08ea FFF7FEFF 		bl	e_getchar_uart2
 1563 08ee 0346     		mov	r3, r0
 1564 08f0 002B     		cmp	r3, #0
 1565 08f2 F9D0     		beq	.L88
 1566              	.L86:
 1567              		.loc 1 359 0 is_stmt 1
 1568 08f4 614B     		ldr	r3, .L444+8
 1569 08f6 1B78     		ldrb	r3, [r3]	@ zero_extendqisi2
 1570 08f8 1A46     		mov	r2, r3
 1571 08fa 614B     		ldr	r3, .L444+12
 1572 08fc 1B78     		ldrb	r3, [r3]	@ zero_extendqisi2
 1573 08fe 1B02     		lsls	r3, r3, #8
ARM GAS  C:\Users\Moi\AppData\Local\Temp\ccAXdvuJ.s 			page 34


 1574 0900 1344     		add	r3, r3, r2
 1575 0902 1A46     		mov	r2, r3
 1576 0904 604B     		ldr	r3, .L444+20
 1577 0906 1A60     		str	r2, [r3]
 1578              		.loc 1 360 0
 1579 0908 5E4B     		ldr	r3, .L444+16
 1580 090a 1B68     		ldr	r3, [r3]
 1581 090c 1846     		mov	r0, r3
 1582 090e FFF7FEFF 		bl	e_set_speed_left
 1583              		.loc 1 361 0
 1584 0912 5D4B     		ldr	r3, .L444+20
 1585 0914 1B68     		ldr	r3, [r3]
 1586 0916 1846     		mov	r0, r3
 1587 0918 FFF7FEFF 		bl	e_set_speed_right
 1588              		.loc 1 362 0
 1589 091c 00F065BC 		b	.L71
 1590              	.L52:
 1591              		.loc 1 364 0
 1592 0920 584B     		ldr	r3, .L444+16
 1593 0922 1868     		ldr	r0, [r3]
 1594 0924 534B     		ldr	r3, .L444
 1595 0926 1B68     		ldr	r3, [r3]
 1596 0928 5A1C     		adds	r2, r3, #1
 1597 092a 5249     		ldr	r1, .L444
 1598 092c 0A60     		str	r2, [r1]
 1599 092e C1B2     		uxtb	r1, r0
 1600 0930 514A     		ldr	r2, .L444+4
 1601 0932 D154     		strb	r1, [r2, r3]
 1602              		.loc 1 365 0
 1603 0934 534B     		ldr	r3, .L444+16
 1604 0936 1B68     		ldr	r3, [r3]
 1605 0938 1812     		asrs	r0, r3, #8
 1606 093a 4E4B     		ldr	r3, .L444
 1607 093c 1B68     		ldr	r3, [r3]
 1608 093e 5A1C     		adds	r2, r3, #1
 1609 0940 4C49     		ldr	r1, .L444
 1610 0942 0A60     		str	r2, [r1]
 1611 0944 C1B2     		uxtb	r1, r0
 1612 0946 4C4A     		ldr	r2, .L444+4
 1613 0948 D154     		strb	r1, [r2, r3]
 1614              		.loc 1 366 0
 1615 094a 4F4B     		ldr	r3, .L444+20
 1616 094c 1868     		ldr	r0, [r3]
 1617 094e 494B     		ldr	r3, .L444
 1618 0950 1B68     		ldr	r3, [r3]
 1619 0952 5A1C     		adds	r2, r3, #1
 1620 0954 4749     		ldr	r1, .L444
 1621 0956 0A60     		str	r2, [r1]
 1622 0958 C1B2     		uxtb	r1, r0
 1623 095a 474A     		ldr	r2, .L444+4
 1624 095c D154     		strb	r1, [r2, r3]
 1625              		.loc 1 367 0
 1626 095e 4A4B     		ldr	r3, .L444+20
 1627 0960 1B68     		ldr	r3, [r3]
 1628 0962 1812     		asrs	r0, r3, #8
 1629 0964 434B     		ldr	r3, .L444
 1630 0966 1B68     		ldr	r3, [r3]
ARM GAS  C:\Users\Moi\AppData\Local\Temp\ccAXdvuJ.s 			page 35


 1631 0968 5A1C     		adds	r2, r3, #1
 1632 096a 4249     		ldr	r1, .L444
 1633 096c 0A60     		str	r2, [r1]
 1634 096e C1B2     		uxtb	r1, r0
 1635 0970 414A     		ldr	r2, .L444+4
 1636 0972 D154     		strb	r1, [r2, r3]
 1637              		.loc 1 368 0
 1638 0974 00F039BC 		b	.L71
 1639              	.L64:
 1640              		.loc 1 371 0
 1641 0978 0D9B     		ldr	r3, [sp, #52]
 1642 097a 002B     		cmp	r3, #0
 1643 097c 49D0     		beq	.L89
 1644              		.loc 1 371 0 is_stmt 0 discriminator 1
 1645 097e FFF7FEFF 		bl	isEpuckVersion1_3
 1646 0982 0346     		mov	r3, r0
 1647 0984 002B     		cmp	r3, #0
 1648 0986 44D0     		beq	.L89
 1649              		.loc 1 372 0 is_stmt 1
 1650 0988 404A     		ldr	r2, .L444+24
 1651 098a 4149     		ldr	r1, .L444+28
 1652 098c 4148     		ldr	r0, .L444+32
 1653 098e FFF7FEFF 		bl	getAllAxesGyro
 1654              		.loc 1 373 0
 1655 0992 404B     		ldr	r3, .L444+32
 1656 0994 1868     		ldr	r0, [r3]
 1657 0996 374B     		ldr	r3, .L444
 1658 0998 1B68     		ldr	r3, [r3]
 1659 099a 5A1C     		adds	r2, r3, #1
 1660 099c 3549     		ldr	r1, .L444
 1661 099e 0A60     		str	r2, [r1]
 1662 09a0 C1B2     		uxtb	r1, r0
 1663 09a2 354A     		ldr	r2, .L444+4
 1664 09a4 D154     		strb	r1, [r2, r3]
 1665              		.loc 1 374 0
 1666 09a6 3B4B     		ldr	r3, .L444+32
 1667 09a8 1B68     		ldr	r3, [r3]
 1668 09aa 1812     		asrs	r0, r3, #8
 1669 09ac 314B     		ldr	r3, .L444
 1670 09ae 1B68     		ldr	r3, [r3]
 1671 09b0 5A1C     		adds	r2, r3, #1
 1672 09b2 3049     		ldr	r1, .L444
 1673 09b4 0A60     		str	r2, [r1]
 1674 09b6 C1B2     		uxtb	r1, r0
 1675 09b8 2F4A     		ldr	r2, .L444+4
 1676 09ba D154     		strb	r1, [r2, r3]
 1677              		.loc 1 375 0
 1678 09bc 344B     		ldr	r3, .L444+28
 1679 09be 1868     		ldr	r0, [r3]
 1680 09c0 2C4B     		ldr	r3, .L444
 1681 09c2 1B68     		ldr	r3, [r3]
 1682 09c4 5A1C     		adds	r2, r3, #1
 1683 09c6 2B49     		ldr	r1, .L444
 1684 09c8 0A60     		str	r2, [r1]
 1685 09ca C1B2     		uxtb	r1, r0
 1686 09cc 2A4A     		ldr	r2, .L444+4
 1687 09ce D154     		strb	r1, [r2, r3]
ARM GAS  C:\Users\Moi\AppData\Local\Temp\ccAXdvuJ.s 			page 36


 1688              		.loc 1 376 0
 1689 09d0 2F4B     		ldr	r3, .L444+28
 1690 09d2 1B68     		ldr	r3, [r3]
 1691 09d4 1812     		asrs	r0, r3, #8
 1692 09d6 274B     		ldr	r3, .L444
 1693 09d8 1B68     		ldr	r3, [r3]
 1694 09da 5A1C     		adds	r2, r3, #1
 1695 09dc 2549     		ldr	r1, .L444
 1696 09de 0A60     		str	r2, [r1]
 1697 09e0 C1B2     		uxtb	r1, r0
 1698 09e2 254A     		ldr	r2, .L444+4
 1699 09e4 D154     		strb	r1, [r2, r3]
 1700              		.loc 1 377 0
 1701 09e6 294B     		ldr	r3, .L444+24
 1702 09e8 1868     		ldr	r0, [r3]
 1703 09ea 224B     		ldr	r3, .L444
 1704 09ec 1B68     		ldr	r3, [r3]
 1705 09ee 5A1C     		adds	r2, r3, #1
 1706 09f0 2049     		ldr	r1, .L444
 1707 09f2 0A60     		str	r2, [r1]
 1708 09f4 C1B2     		uxtb	r1, r0
 1709 09f6 204A     		ldr	r2, .L444+4
 1710 09f8 D154     		strb	r1, [r2, r3]
 1711              		.loc 1 378 0
 1712 09fa 244B     		ldr	r3, .L444+24
 1713 09fc 1B68     		ldr	r3, [r3]
 1714 09fe 1812     		asrs	r0, r3, #8
 1715 0a00 1C4B     		ldr	r3, .L444
 1716 0a02 1B68     		ldr	r3, [r3]
 1717 0a04 5A1C     		adds	r2, r3, #1
 1718 0a06 1B49     		ldr	r1, .L444
 1719 0a08 0A60     		str	r2, [r1]
 1720 0a0a C1B2     		uxtb	r1, r0
 1721 0a0c 1A4A     		ldr	r2, .L444+4
 1722 0a0e D154     		strb	r1, [r2, r3]
 1723              		.loc 1 387 0
 1724 0a10 EBE3     		b	.L71
 1725              	.L89:
 1726              		.loc 1 380 0
 1727 0a12 184B     		ldr	r3, .L444
 1728 0a14 1B68     		ldr	r3, [r3]
 1729 0a16 5A1C     		adds	r2, r3, #1
 1730 0a18 1649     		ldr	r1, .L444
 1731 0a1a 0A60     		str	r2, [r1]
 1732 0a1c 164A     		ldr	r2, .L444+4
 1733 0a1e 0021     		movs	r1, #0
 1734 0a20 D154     		strb	r1, [r2, r3]
 1735              		.loc 1 381 0
 1736 0a22 144B     		ldr	r3, .L444
 1737 0a24 1B68     		ldr	r3, [r3]
 1738 0a26 5A1C     		adds	r2, r3, #1
 1739 0a28 1249     		ldr	r1, .L444
 1740 0a2a 0A60     		str	r2, [r1]
 1741 0a2c 124A     		ldr	r2, .L444+4
 1742 0a2e 0021     		movs	r1, #0
 1743 0a30 D154     		strb	r1, [r2, r3]
 1744              		.loc 1 382 0
ARM GAS  C:\Users\Moi\AppData\Local\Temp\ccAXdvuJ.s 			page 37


 1745 0a32 104B     		ldr	r3, .L444
 1746 0a34 1B68     		ldr	r3, [r3]
 1747 0a36 5A1C     		adds	r2, r3, #1
 1748 0a38 0E49     		ldr	r1, .L444
 1749 0a3a 0A60     		str	r2, [r1]
 1750 0a3c 0E4A     		ldr	r2, .L444+4
 1751 0a3e 0021     		movs	r1, #0
 1752 0a40 D154     		strb	r1, [r2, r3]
 1753              		.loc 1 383 0
 1754 0a42 0C4B     		ldr	r3, .L444
 1755 0a44 1B68     		ldr	r3, [r3]
 1756 0a46 5A1C     		adds	r2, r3, #1
 1757 0a48 0A49     		ldr	r1, .L444
 1758 0a4a 0A60     		str	r2, [r1]
 1759 0a4c 0A4A     		ldr	r2, .L444+4
 1760 0a4e 0021     		movs	r1, #0
 1761 0a50 D154     		strb	r1, [r2, r3]
 1762              		.loc 1 384 0
 1763 0a52 084B     		ldr	r3, .L444
 1764 0a54 1B68     		ldr	r3, [r3]
 1765 0a56 5A1C     		adds	r2, r3, #1
 1766 0a58 0649     		ldr	r1, .L444
 1767 0a5a 0A60     		str	r2, [r1]
 1768 0a5c 064A     		ldr	r2, .L444+4
 1769 0a5e 0021     		movs	r1, #0
 1770 0a60 D154     		strb	r1, [r2, r3]
 1771              		.loc 1 385 0
 1772 0a62 044B     		ldr	r3, .L444
 1773 0a64 1B68     		ldr	r3, [r3]
 1774 0a66 5A1C     		adds	r2, r3, #1
 1775 0a68 0249     		ldr	r1, .L444
 1776 0a6a 0A60     		str	r2, [r1]
 1777 0a6c 024A     		ldr	r2, .L444+4
 1778 0a6e 0021     		movs	r1, #0
 1779 0a70 D154     		strb	r1, [r2, r3]
 1780              		.loc 1 387 0
 1781 0a72 BAE3     		b	.L71
 1782              	.L445:
 1783              		.align	2
 1784              	.L444:
 1785 0a74 00000000 		.word	i.12663
 1786 0a78 00000000 		.word	buffer
 1787 0a7c 00000000 		.word	c1.12660
 1788 0a80 00000000 		.word	c2.12661
 1789 0a84 00000000 		.word	speedl.12667
 1790 0a88 00000000 		.word	speedr.12666
 1791 0a8c 00000000 		.word	gyroz.12678
 1792 0a90 00000000 		.word	gyroy.12677
 1793 0a94 00000000 		.word	gyrox.12676
 1794              	.L53:
 1795              		.loc 1 390 0
 1796 0a98 0D9B     		ldr	r3, [sp, #52]
 1797 0a9a 002B     		cmp	r3, #0
 1798 0a9c 00F09E83 		beq	.L417
 1799              		.loc 1 391 0
 1800 0aa0 924B     		ldr	r3, .L446
 1801 0aa2 1B68     		ldr	r3, [r3]
ARM GAS  C:\Users\Moi\AppData\Local\Temp\ccAXdvuJ.s 			page 38


 1802 0aa4 0333     		adds	r3, r3, #3
 1803 0aa6 924A     		ldr	r2, .L446+4
 1804 0aa8 1344     		add	r3, r3, r2
 1805 0aaa 1846     		mov	r0, r3
 1806 0aac FFF7FEFF 		bl	e_poxxxx_launch_capture
 1807              		.loc 1 392 0
 1808 0ab0 904B     		ldr	r3, .L446+8
 1809 0ab2 0122     		movs	r2, #1
 1810 0ab4 1A70     		strb	r2, [r3]
 1811              		.loc 1 393 0
 1812 0ab6 904B     		ldr	r3, .L446+12
 1813 0ab8 1868     		ldr	r0, [r3]
 1814 0aba 8C4B     		ldr	r3, .L446
 1815 0abc 1B68     		ldr	r3, [r3]
 1816 0abe 5A1C     		adds	r2, r3, #1
 1817 0ac0 8A49     		ldr	r1, .L446
 1818 0ac2 0A60     		str	r2, [r1]
 1819 0ac4 C1B2     		uxtb	r1, r0
 1820 0ac6 8A4A     		ldr	r2, .L446+4
 1821 0ac8 D154     		strb	r1, [r2, r3]
 1822              		.loc 1 394 0
 1823 0aca 8C4B     		ldr	r3, .L446+16
 1824 0acc 1868     		ldr	r0, [r3]
 1825 0ace 874B     		ldr	r3, .L446
 1826 0ad0 1B68     		ldr	r3, [r3]
 1827 0ad2 5A1C     		adds	r2, r3, #1
 1828 0ad4 8549     		ldr	r1, .L446
 1829 0ad6 0A60     		str	r2, [r1]
 1830 0ad8 C1B2     		uxtb	r1, r0
 1831 0ada 854A     		ldr	r2, .L446+4
 1832 0adc D154     		strb	r1, [r2, r3]
 1833              		.loc 1 395 0
 1834 0ade 884B     		ldr	r3, .L446+20
 1835 0ae0 1868     		ldr	r0, [r3]
 1836 0ae2 824B     		ldr	r3, .L446
 1837 0ae4 1B68     		ldr	r3, [r3]
 1838 0ae6 5A1C     		adds	r2, r3, #1
 1839 0ae8 8049     		ldr	r1, .L446
 1840 0aea 0A60     		str	r2, [r1]
 1841 0aec C1B2     		uxtb	r1, r0
 1842 0aee 804A     		ldr	r2, .L446+4
 1843 0af0 D154     		strb	r1, [r2, r3]
 1844              		.loc 1 396 0
 1845 0af2 7E4B     		ldr	r3, .L446
 1846 0af4 1A68     		ldr	r2, [r3]
 1847 0af6 834B     		ldr	r3, .L446+24
 1848 0af8 1B68     		ldr	r3, [r3]
 1849 0afa 1344     		add	r3, r3, r2
 1850 0afc 7B4A     		ldr	r2, .L446
 1851 0afe 1360     		str	r3, [r2]
 1852              		.loc 1 398 0
 1853 0b00 6CE3     		b	.L417
 1854              	.L54:
 1855              		.loc 1 400 0
 1856 0b02 0D9B     		ldr	r3, [sp, #52]
 1857 0b04 002B     		cmp	r3, #0
 1858 0b06 0ED0     		beq	.L434
ARM GAS  C:\Users\Moi\AppData\Local\Temp\ccAXdvuJ.s 			page 39


 1859              		.loc 1 401 0
 1860 0b08 00BF     		nop
 1861              	.L93:
 1862              		.loc 1 401 0 is_stmt 0 discriminator 1
 1863 0b0a 7F48     		ldr	r0, .L446+28
 1864 0b0c FFF7FEFF 		bl	e_getchar_uart1
 1865 0b10 0346     		mov	r3, r0
 1866 0b12 002B     		cmp	r3, #0
 1867 0b14 F9D0     		beq	.L93
 1868              		.loc 1 402 0 is_stmt 1
 1869 0b16 00BF     		nop
 1870              	.L94:
 1871              		.loc 1 402 0 is_stmt 0 discriminator 1
 1872 0b18 7C48     		ldr	r0, .L446+32
 1873 0b1a FFF7FEFF 		bl	e_getchar_uart1
 1874 0b1e 0346     		mov	r3, r0
 1875 0b20 002B     		cmp	r3, #0
 1876 0b22 F9D0     		beq	.L94
 1877 0b24 0DE0     		b	.L95
 1878              	.L434:
 1879              		.loc 1 404 0 is_stmt 1
 1880 0b26 00BF     		nop
 1881              	.L96:
 1882              		.loc 1 404 0 is_stmt 0 discriminator 1
 1883 0b28 7748     		ldr	r0, .L446+28
 1884 0b2a FFF7FEFF 		bl	e_getchar_uart2
 1885 0b2e 0346     		mov	r3, r0
 1886 0b30 002B     		cmp	r3, #0
 1887 0b32 F9D0     		beq	.L96
 1888              		.loc 1 405 0 is_stmt 1
 1889 0b34 00BF     		nop
 1890              	.L97:
 1891              		.loc 1 405 0 is_stmt 0 discriminator 1
 1892 0b36 7548     		ldr	r0, .L446+32
 1893 0b38 FFF7FEFF 		bl	e_getchar_uart2
 1894 0b3c 0346     		mov	r3, r0
 1895 0b3e 002B     		cmp	r3, #0
 1896 0b40 F9D0     		beq	.L97
 1897              	.L95:
 1898              		.loc 1 407 0 is_stmt 1
 1899 0b42 714B     		ldr	r3, .L446+28
 1900 0b44 1B78     		ldrb	r3, [r3]	@ zero_extendqisi2
 1901 0b46 082B     		cmp	r3, #8
 1902 0b48 02D0     		beq	.L99
 1903 0b4a 092B     		cmp	r3, #9
 1904 0b4c 09D0     		beq	.L100
 1905 0b4e 11E0     		b	.L415
 1906              	.L99:
 1907              		.loc 1 409 0
 1908 0b50 0D9B     		ldr	r3, [sp, #52]
 1909 0b52 002B     		cmp	r3, #0
 1910 0b54 18D0     		beq	.L418
 1911              		.loc 1 410 0
 1912 0b56 6D4B     		ldr	r3, .L446+32
 1913 0b58 1B78     		ldrb	r3, [r3]	@ zero_extendqisi2
 1914 0b5a 1846     		mov	r0, r3
 1915 0b5c FFF7FEFF 		bl	e_set_body_led
ARM GAS  C:\Users\Moi\AppData\Local\Temp\ccAXdvuJ.s 			page 40


 1916              		.loc 1 412 0
 1917 0b60 12E0     		b	.L418
 1918              	.L100:
 1919              		.loc 1 414 0
 1920 0b62 0D9B     		ldr	r3, [sp, #52]
 1921 0b64 002B     		cmp	r3, #0
 1922 0b66 11D0     		beq	.L419
 1923              		.loc 1 415 0
 1924 0b68 684B     		ldr	r3, .L446+32
 1925 0b6a 1B78     		ldrb	r3, [r3]	@ zero_extendqisi2
 1926 0b6c 1846     		mov	r0, r3
 1927 0b6e FFF7FEFF 		bl	e_set_front_led
 1928              		.loc 1 417 0
 1929 0b72 0BE0     		b	.L419
 1930              	.L415:
 1931              		.loc 1 419 0
 1932 0b74 644B     		ldr	r3, .L446+28
 1933 0b76 1B78     		ldrb	r3, [r3]	@ zero_extendqisi2
 1934 0b78 1A46     		mov	r2, r3
 1935 0b7a 644B     		ldr	r3, .L446+32
 1936 0b7c 1B78     		ldrb	r3, [r3]	@ zero_extendqisi2
 1937 0b7e 1946     		mov	r1, r3
 1938 0b80 1046     		mov	r0, r2
 1939 0b82 FFF7FEFF 		bl	e_set_led
 1940              		.loc 1 420 0
 1941 0b86 02E0     		b	.L102
 1942              	.L418:
 1943              		.loc 1 412 0
 1944 0b88 00BF     		nop
 1945 0b8a 2EE3     		b	.L71
 1946              	.L419:
 1947              		.loc 1 417 0
 1948 0b8c 00BF     		nop
 1949              	.L102:
 1950              		.loc 1 422 0
 1951 0b8e 2CE3     		b	.L71
 1952              	.L55:
 1953              		.loc 1 425 0
 1954 0b90 0D9B     		ldr	r3, [sp, #52]
 1955 0b92 002B     		cmp	r3, #0
 1956 0b94 00F02483 		beq	.L420
 1957              		.loc 1 426 0
 1958 0b98 FFF7FEFF 		bl	e_i2cp_init
 1959              		.loc 1 427 0
 1960 0b9c FFF7FEFF 		bl	e_i2cp_enable
 1961              		.loc 1 428 0
 1962 0ba0 0021     		movs	r1, #0
 1963 0ba2 C020     		movs	r0, #192
 1964 0ba4 FFF7FEFF 		bl	e_i2cp_read
 1965              		.loc 1 429 0
 1966 0ba8 594B     		ldr	r3, .L446+36
 1967 0baa 0022     		movs	r2, #0
 1968 0bac 1A60     		str	r2, [r3]
 1969 0bae 2DE0     		b	.L105
 1970              	.L108:
 1971              		.loc 1 430 0
 1972 0bb0 574B     		ldr	r3, .L446+36
ARM GAS  C:\Users\Moi\AppData\Local\Temp\ccAXdvuJ.s 			page 41


 1973 0bb2 1B68     		ldr	r3, [r3]
 1974 0bb4 03F00103 		and	r3, r3, #1
 1975 0bb8 002B     		cmp	r3, #0
 1976 0bba 11D1     		bne	.L106
 1977              		.loc 1 430 0 is_stmt 0 discriminator 1
 1978 0bbc 544B     		ldr	r3, .L446+36
 1979 0bbe 1B68     		ldr	r3, [r3]
 1980 0bc0 DBB2     		uxtb	r3, r3
 1981 0bc2 0133     		adds	r3, r3, #1
 1982 0bc4 D9B2     		uxtb	r1, r3
 1983 0bc6 494B     		ldr	r3, .L446
 1984 0bc8 1C68     		ldr	r4, [r3]
 1985 0bca 631C     		adds	r3, r4, #1
 1986 0bcc 474A     		ldr	r2, .L446
 1987 0bce 1360     		str	r3, [r2]
 1988 0bd0 C020     		movs	r0, #192
 1989 0bd2 FFF7FEFF 		bl	e_i2cp_read
 1990 0bd6 0346     		mov	r3, r0
 1991 0bd8 1A46     		mov	r2, r3
 1992 0bda 454B     		ldr	r3, .L446+4
 1993 0bdc 1A55     		strb	r2, [r3, r4]
 1994 0bde 10E0     		b	.L107
 1995              	.L106:
 1996              		.loc 1 431 0 is_stmt 1
 1997 0be0 4B4B     		ldr	r3, .L446+36
 1998 0be2 1B68     		ldr	r3, [r3]
 1999 0be4 DBB2     		uxtb	r3, r3
 2000 0be6 013B     		subs	r3, r3, #1
 2001 0be8 D9B2     		uxtb	r1, r3
 2002 0bea 404B     		ldr	r3, .L446
 2003 0bec 1C68     		ldr	r4, [r3]
 2004 0bee 631C     		adds	r3, r4, #1
 2005 0bf0 3E4A     		ldr	r2, .L446
 2006 0bf2 1360     		str	r3, [r2]
 2007 0bf4 C020     		movs	r0, #192
 2008 0bf6 FFF7FEFF 		bl	e_i2cp_read
 2009 0bfa 0346     		mov	r3, r0
 2010 0bfc 1A46     		mov	r2, r3
 2011 0bfe 3C4B     		ldr	r3, .L446+4
 2012 0c00 1A55     		strb	r2, [r3, r4]
 2013              	.L107:
 2014              		.loc 1 429 0 discriminator 2
 2015 0c02 434B     		ldr	r3, .L446+36
 2016 0c04 1B68     		ldr	r3, [r3]
 2017 0c06 0133     		adds	r3, r3, #1
 2018 0c08 414A     		ldr	r2, .L446+36
 2019 0c0a 1360     		str	r3, [r2]
 2020              	.L105:
 2021              		.loc 1 429 0 is_stmt 0 discriminator 1
 2022 0c0c 404B     		ldr	r3, .L446+36
 2023 0c0e 1B68     		ldr	r3, [r3]
 2024 0c10 052B     		cmp	r3, #5
 2025 0c12 CDDD     		ble	.L108
 2026              		.loc 1 434 0 is_stmt 1
 2027 0c14 3E4B     		ldr	r3, .L446+36
 2028 0c16 0D22     		movs	r2, #13
 2029 0c18 1A60     		str	r2, [r3]
ARM GAS  C:\Users\Moi\AppData\Local\Temp\ccAXdvuJ.s 			page 42


 2030 0c1a 2DE0     		b	.L109
 2031              	.L112:
 2032              		.loc 1 435 0
 2033 0c1c 3C4B     		ldr	r3, .L446+36
 2034 0c1e 1B68     		ldr	r3, [r3]
 2035 0c20 03F00103 		and	r3, r3, #1
 2036 0c24 002B     		cmp	r3, #0
 2037 0c26 11D1     		bne	.L110
 2038              		.loc 1 435 0 is_stmt 0 discriminator 1
 2039 0c28 394B     		ldr	r3, .L446+36
 2040 0c2a 1B68     		ldr	r3, [r3]
 2041 0c2c DBB2     		uxtb	r3, r3
 2042 0c2e 013B     		subs	r3, r3, #1
 2043 0c30 D9B2     		uxtb	r1, r3
 2044 0c32 2E4B     		ldr	r3, .L446
 2045 0c34 1C68     		ldr	r4, [r3]
 2046 0c36 631C     		adds	r3, r4, #1
 2047 0c38 2C4A     		ldr	r2, .L446
 2048 0c3a 1360     		str	r3, [r2]
 2049 0c3c C020     		movs	r0, #192
 2050 0c3e FFF7FEFF 		bl	e_i2cp_read
 2051 0c42 0346     		mov	r3, r0
 2052 0c44 1A46     		mov	r2, r3
 2053 0c46 2A4B     		ldr	r3, .L446+4
 2054 0c48 1A55     		strb	r2, [r3, r4]
 2055 0c4a 10E0     		b	.L111
 2056              	.L110:
 2057              		.loc 1 436 0 is_stmt 1
 2058 0c4c 304B     		ldr	r3, .L446+36
 2059 0c4e 1B68     		ldr	r3, [r3]
 2060 0c50 DBB2     		uxtb	r3, r3
 2061 0c52 0133     		adds	r3, r3, #1
 2062 0c54 D9B2     		uxtb	r1, r3
 2063 0c56 254B     		ldr	r3, .L446
 2064 0c58 1C68     		ldr	r4, [r3]
 2065 0c5a 631C     		adds	r3, r4, #1
 2066 0c5c 234A     		ldr	r2, .L446
 2067 0c5e 1360     		str	r3, [r2]
 2068 0c60 C020     		movs	r0, #192
 2069 0c62 FFF7FEFF 		bl	e_i2cp_read
 2070 0c66 0346     		mov	r3, r0
 2071 0c68 1A46     		mov	r2, r3
 2072 0c6a 214B     		ldr	r3, .L446+4
 2073 0c6c 1A55     		strb	r2, [r3, r4]
 2074              	.L111:
 2075              		.loc 1 434 0 discriminator 2
 2076 0c6e 284B     		ldr	r3, .L446+36
 2077 0c70 1B68     		ldr	r3, [r3]
 2078 0c72 0133     		adds	r3, r3, #1
 2079 0c74 264A     		ldr	r2, .L446+36
 2080 0c76 1360     		str	r3, [r2]
 2081              	.L109:
 2082              		.loc 1 434 0 is_stmt 0 discriminator 1
 2083 0c78 254B     		ldr	r3, .L446+36
 2084 0c7a 1B68     		ldr	r3, [r3]
 2085 0c7c 102B     		cmp	r3, #16
 2086 0c7e CDDD     		ble	.L112
ARM GAS  C:\Users\Moi\AppData\Local\Temp\ccAXdvuJ.s 			page 43


 2087              		.loc 1 439 0 is_stmt 1
 2088 0c80 FFF7FEFF 		bl	e_i2cp_disable
 2089              		.loc 1 444 0
 2090 0c84 ACE2     		b	.L420
 2091              	.L56:
 2092              		.loc 1 446 0
 2093 0c86 0D9B     		ldr	r3, [sp, #52]
 2094 0c88 002B     		cmp	r3, #0
 2095 0c8a 2AD0     		beq	.L113
 2096              		.loc 1 447 0
 2097 0c8c 204B     		ldr	r3, .L446+36
 2098 0c8e 0022     		movs	r2, #0
 2099 0c90 1A60     		str	r2, [r3]
 2100 0c92 21E0     		b	.L114
 2101              	.L115:
 2102              		.loc 1 448 0 discriminator 3
 2103 0c94 1E4B     		ldr	r3, .L446+36
 2104 0c96 1B68     		ldr	r3, [r3]
 2105 0c98 1846     		mov	r0, r3
 2106 0c9a FFF7FEFF 		bl	e_get_calibrated_prox
 2107 0c9e 0246     		mov	r2, r0
 2108 0ca0 1C4B     		ldr	r3, .L446+40
 2109 0ca2 1A60     		str	r2, [r3]
 2110              		.loc 1 449 0 discriminator 3
 2111 0ca4 1B4B     		ldr	r3, .L446+40
 2112 0ca6 1868     		ldr	r0, [r3]
 2113 0ca8 104B     		ldr	r3, .L446
 2114 0caa 1B68     		ldr	r3, [r3]
 2115 0cac 5A1C     		adds	r2, r3, #1
 2116 0cae 0F49     		ldr	r1, .L446
 2117 0cb0 0A60     		str	r2, [r1]
 2118 0cb2 C1B2     		uxtb	r1, r0
 2119 0cb4 0E4A     		ldr	r2, .L446+4
 2120 0cb6 D154     		strb	r1, [r2, r3]
 2121              		.loc 1 450 0 discriminator 3
 2122 0cb8 164B     		ldr	r3, .L446+40
 2123 0cba 1B68     		ldr	r3, [r3]
 2124 0cbc 1812     		asrs	r0, r3, #8
 2125 0cbe 0B4B     		ldr	r3, .L446
 2126 0cc0 1B68     		ldr	r3, [r3]
 2127 0cc2 5A1C     		adds	r2, r3, #1
 2128 0cc4 0949     		ldr	r1, .L446
 2129 0cc6 0A60     		str	r2, [r1]
 2130 0cc8 C1B2     		uxtb	r1, r0
 2131 0cca 094A     		ldr	r2, .L446+4
 2132 0ccc D154     		strb	r1, [r2, r3]
 2133              		.loc 1 447 0 discriminator 3
 2134 0cce 104B     		ldr	r3, .L446+36
 2135 0cd0 1B68     		ldr	r3, [r3]
 2136 0cd2 0133     		adds	r3, r3, #1
 2137 0cd4 0E4A     		ldr	r2, .L446+36
 2138 0cd6 1360     		str	r3, [r2]
 2139              	.L114:
 2140              		.loc 1 447 0 is_stmt 0 discriminator 1
 2141 0cd8 0D4B     		ldr	r3, .L446+36
 2142 0cda 1B68     		ldr	r3, [r3]
 2143 0cdc 072B     		cmp	r3, #7
ARM GAS  C:\Users\Moi\AppData\Local\Temp\ccAXdvuJ.s 			page 44


 2144 0cde D9DD     		ble	.L115
 2145              		.loc 1 459 0 is_stmt 1
 2146 0ce0 83E2     		b	.L71
 2147              	.L113:
 2148              		.loc 1 453 0
 2149 0ce2 0B4B     		ldr	r3, .L446+36
 2150 0ce4 0022     		movs	r2, #0
 2151 0ce6 1A60     		str	r2, [r3]
 2152 0ce8 38E0     		b	.L117
 2153              	.L447:
 2154 0cea 00BF     		.align	2
 2155              	.L446:
 2156 0cec 00000000 		.word	i.12663
 2157 0cf0 00000000 		.word	buffer
 2158 0cf4 00000000 		.word	wait_cam.12662
 2159 0cf8 00000000 		.word	cam_mode.12679
 2160 0cfc 00000000 		.word	cam_width.12680
 2161 0d00 00000000 		.word	cam_heigth.12681
 2162 0d04 00000000 		.word	cam_size.12683
 2163 0d08 00000000 		.word	c1.12660
 2164 0d0c 00000000 		.word	c2.12661
 2165 0d10 00000000 		.word	j.12664
 2166 0d14 00000000 		.word	n.12665
 2167              	.L118:
 2168              		.loc 1 454 0 discriminator 3
 2169 0d18 984B     		ldr	r3, .L448
 2170 0d1a 1B68     		ldr	r3, [r3]
 2171 0d1c 1846     		mov	r0, r3
 2172 0d1e FFF7FEFF 		bl	e_get_calibrated_prox
 2173 0d22 0246     		mov	r2, r0
 2174 0d24 964B     		ldr	r3, .L448+4
 2175 0d26 1A60     		str	r2, [r3]
 2176              		.loc 1 455 0 discriminator 3
 2177 0d28 954B     		ldr	r3, .L448+4
 2178 0d2a 1868     		ldr	r0, [r3]
 2179 0d2c 954B     		ldr	r3, .L448+8
 2180 0d2e 1B68     		ldr	r3, [r3]
 2181 0d30 5A1C     		adds	r2, r3, #1
 2182 0d32 9449     		ldr	r1, .L448+8
 2183 0d34 0A60     		str	r2, [r1]
 2184 0d36 C1B2     		uxtb	r1, r0
 2185 0d38 934A     		ldr	r2, .L448+12
 2186 0d3a D154     		strb	r1, [r2, r3]
 2187              		.loc 1 456 0 discriminator 3
 2188 0d3c 904B     		ldr	r3, .L448+4
 2189 0d3e 1B68     		ldr	r3, [r3]
 2190 0d40 1812     		asrs	r0, r3, #8
 2191 0d42 904B     		ldr	r3, .L448+8
 2192 0d44 1B68     		ldr	r3, [r3]
 2193 0d46 5A1C     		adds	r2, r3, #1
 2194 0d48 8E49     		ldr	r1, .L448+8
 2195 0d4a 0A60     		str	r2, [r1]
 2196 0d4c C1B2     		uxtb	r1, r0
 2197 0d4e 8E4A     		ldr	r2, .L448+12
 2198 0d50 D154     		strb	r1, [r2, r3]
 2199              		.loc 1 453 0 discriminator 3
 2200 0d52 8A4B     		ldr	r3, .L448
ARM GAS  C:\Users\Moi\AppData\Local\Temp\ccAXdvuJ.s 			page 45


 2201 0d54 1B68     		ldr	r3, [r3]
 2202 0d56 0133     		adds	r3, r3, #1
 2203 0d58 884A     		ldr	r2, .L448
 2204 0d5a 1360     		str	r3, [r2]
 2205              	.L117:
 2206              		.loc 1 453 0 is_stmt 0 discriminator 1
 2207 0d5c 874B     		ldr	r3, .L448
 2208 0d5e 1B68     		ldr	r3, [r3]
 2209 0d60 092B     		cmp	r3, #9
 2210 0d62 D9DD     		ble	.L118
 2211              		.loc 1 459 0 is_stmt 1
 2212 0d64 41E2     		b	.L71
 2213              	.L57:
 2214              		.loc 1 461 0
 2215 0d66 0D9B     		ldr	r3, [sp, #52]
 2216 0d68 002B     		cmp	r3, #0
 2217 0d6a 2AD0     		beq	.L119
 2218              		.loc 1 462 0
 2219 0d6c 834B     		ldr	r3, .L448
 2220 0d6e 0022     		movs	r2, #0
 2221 0d70 1A60     		str	r2, [r3]
 2222 0d72 21E0     		b	.L120
 2223              	.L121:
 2224              		.loc 1 464 0 discriminator 3
 2225 0d74 814B     		ldr	r3, .L448
 2226 0d76 1B68     		ldr	r3, [r3]
 2227 0d78 1846     		mov	r0, r3
 2228 0d7a FFF7FEFF 		bl	e_get_ambient_light
 2229 0d7e 0246     		mov	r2, r0
 2230 0d80 7F4B     		ldr	r3, .L448+4
 2231 0d82 1A60     		str	r2, [r3]
 2232              		.loc 1 465 0 discriminator 3
 2233 0d84 7E4B     		ldr	r3, .L448+4
 2234 0d86 1868     		ldr	r0, [r3]
 2235 0d88 7E4B     		ldr	r3, .L448+8
 2236 0d8a 1B68     		ldr	r3, [r3]
 2237 0d8c 5A1C     		adds	r2, r3, #1
 2238 0d8e 7D49     		ldr	r1, .L448+8
 2239 0d90 0A60     		str	r2, [r1]
 2240 0d92 C1B2     		uxtb	r1, r0
 2241 0d94 7C4A     		ldr	r2, .L448+12
 2242 0d96 D154     		strb	r1, [r2, r3]
 2243              		.loc 1 466 0 discriminator 3
 2244 0d98 794B     		ldr	r3, .L448+4
 2245 0d9a 1B68     		ldr	r3, [r3]
 2246 0d9c 1812     		asrs	r0, r3, #8
 2247 0d9e 794B     		ldr	r3, .L448+8
 2248 0da0 1B68     		ldr	r3, [r3]
 2249 0da2 5A1C     		adds	r2, r3, #1
 2250 0da4 7749     		ldr	r1, .L448+8
 2251 0da6 0A60     		str	r2, [r1]
 2252 0da8 C1B2     		uxtb	r1, r0
 2253 0daa 774A     		ldr	r2, .L448+12
 2254 0dac D154     		strb	r1, [r2, r3]
 2255              		.loc 1 462 0 discriminator 3
 2256 0dae 734B     		ldr	r3, .L448
 2257 0db0 1B68     		ldr	r3, [r3]
ARM GAS  C:\Users\Moi\AppData\Local\Temp\ccAXdvuJ.s 			page 46


 2258 0db2 0133     		adds	r3, r3, #1
 2259 0db4 714A     		ldr	r2, .L448
 2260 0db6 1360     		str	r3, [r2]
 2261              	.L120:
 2262              		.loc 1 462 0 is_stmt 0 discriminator 1
 2263 0db8 704B     		ldr	r3, .L448
 2264 0dba 1B68     		ldr	r3, [r3]
 2265 0dbc 072B     		cmp	r3, #7
 2266 0dbe D9DD     		ble	.L121
 2267              		.loc 1 475 0 is_stmt 1
 2268 0dc0 13E2     		b	.L71
 2269              	.L119:
 2270              		.loc 1 469 0
 2271 0dc2 6E4B     		ldr	r3, .L448
 2272 0dc4 0022     		movs	r2, #0
 2273 0dc6 1A60     		str	r2, [r3]
 2274 0dc8 21E0     		b	.L123
 2275              	.L124:
 2276              		.loc 1 470 0 discriminator 3
 2277 0dca 6C4B     		ldr	r3, .L448
 2278 0dcc 1B68     		ldr	r3, [r3]
 2279 0dce 1846     		mov	r0, r3
 2280 0dd0 FFF7FEFF 		bl	e_get_ambient_light
 2281 0dd4 0246     		mov	r2, r0
 2282 0dd6 6A4B     		ldr	r3, .L448+4
 2283 0dd8 1A60     		str	r2, [r3]
 2284              		.loc 1 471 0 discriminator 3
 2285 0dda 694B     		ldr	r3, .L448+4
 2286 0ddc 1868     		ldr	r0, [r3]
 2287 0dde 694B     		ldr	r3, .L448+8
 2288 0de0 1B68     		ldr	r3, [r3]
 2289 0de2 5A1C     		adds	r2, r3, #1
 2290 0de4 6749     		ldr	r1, .L448+8
 2291 0de6 0A60     		str	r2, [r1]
 2292 0de8 C1B2     		uxtb	r1, r0
 2293 0dea 674A     		ldr	r2, .L448+12
 2294 0dec D154     		strb	r1, [r2, r3]
 2295              		.loc 1 472 0 discriminator 3
 2296 0dee 644B     		ldr	r3, .L448+4
 2297 0df0 1B68     		ldr	r3, [r3]
 2298 0df2 1812     		asrs	r0, r3, #8
 2299 0df4 634B     		ldr	r3, .L448+8
 2300 0df6 1B68     		ldr	r3, [r3]
 2301 0df8 5A1C     		adds	r2, r3, #1
 2302 0dfa 6249     		ldr	r1, .L448+8
 2303 0dfc 0A60     		str	r2, [r1]
 2304 0dfe C1B2     		uxtb	r1, r0
 2305 0e00 614A     		ldr	r2, .L448+12
 2306 0e02 D154     		strb	r1, [r2, r3]
 2307              		.loc 1 469 0 discriminator 3
 2308 0e04 5D4B     		ldr	r3, .L448
 2309 0e06 1B68     		ldr	r3, [r3]
 2310 0e08 0133     		adds	r3, r3, #1
 2311 0e0a 5C4A     		ldr	r2, .L448
 2312 0e0c 1360     		str	r3, [r2]
 2313              	.L123:
 2314              		.loc 1 469 0 is_stmt 0 discriminator 1
ARM GAS  C:\Users\Moi\AppData\Local\Temp\ccAXdvuJ.s 			page 47


 2315 0e0e 5B4B     		ldr	r3, .L448
 2316 0e10 1B68     		ldr	r3, [r3]
 2317 0e12 092B     		cmp	r3, #9
 2318 0e14 D9DD     		ble	.L124
 2319              		.loc 1 475 0 is_stmt 1
 2320 0e16 E8E1     		b	.L71
 2321              	.L58:
 2322              		.loc 1 478 0
 2323 0e18 0D9B     		ldr	r3, [sp, #52]
 2324 0e1a 002B     		cmp	r3, #0
 2325 0e1c 0ED0     		beq	.L435
 2326              		.loc 1 479 0
 2327 0e1e 00BF     		nop
 2328              	.L126:
 2329              		.loc 1 479 0 is_stmt 0 discriminator 1
 2330 0e20 5A48     		ldr	r0, .L448+16
 2331 0e22 FFF7FEFF 		bl	e_getchar_uart1
 2332 0e26 0346     		mov	r3, r0
 2333 0e28 002B     		cmp	r3, #0
 2334 0e2a F9D0     		beq	.L126
 2335              		.loc 1 480 0 is_stmt 1
 2336 0e2c 00BF     		nop
 2337              	.L127:
 2338              		.loc 1 480 0 is_stmt 0 discriminator 1
 2339 0e2e 5848     		ldr	r0, .L448+20
 2340 0e30 FFF7FEFF 		bl	e_getchar_uart1
 2341 0e34 0346     		mov	r3, r0
 2342 0e36 002B     		cmp	r3, #0
 2343 0e38 F9D0     		beq	.L127
 2344 0e3a 0DE0     		b	.L128
 2345              	.L435:
 2346              		.loc 1 482 0 is_stmt 1
 2347 0e3c 00BF     		nop
 2348              	.L129:
 2349              		.loc 1 482 0 is_stmt 0 discriminator 1
 2350 0e3e 5348     		ldr	r0, .L448+16
 2351 0e40 FFF7FEFF 		bl	e_getchar_uart2
 2352 0e44 0346     		mov	r3, r0
 2353 0e46 002B     		cmp	r3, #0
 2354 0e48 F9D0     		beq	.L129
 2355              		.loc 1 483 0 is_stmt 1
 2356 0e4a 00BF     		nop
 2357              	.L130:
 2358              		.loc 1 483 0 is_stmt 0 discriminator 1
 2359 0e4c 5048     		ldr	r0, .L448+20
 2360 0e4e FFF7FEFF 		bl	e_getchar_uart2
 2361 0e52 0346     		mov	r3, r0
 2362 0e54 002B     		cmp	r3, #0
 2363 0e56 F9D0     		beq	.L130
 2364              	.L128:
 2365              		.loc 1 485 0 is_stmt 1
 2366 0e58 4C4B     		ldr	r3, .L448+16
 2367 0e5a 1B78     		ldrb	r3, [r3]	@ zero_extendqisi2
 2368 0e5c 1A46     		mov	r2, r3
 2369 0e5e 4C4B     		ldr	r3, .L448+20
 2370 0e60 1B78     		ldrb	r3, [r3]	@ zero_extendqisi2
 2371 0e62 1B02     		lsls	r3, r3, #8
ARM GAS  C:\Users\Moi\AppData\Local\Temp\ccAXdvuJ.s 			page 48


 2372 0e64 1344     		add	r3, r3, r2
 2373 0e66 1A46     		mov	r2, r3
 2374 0e68 4A4B     		ldr	r3, .L448+24
 2375 0e6a 1A60     		str	r2, [r3]
 2376              		.loc 1 486 0
 2377 0e6c 0D9B     		ldr	r3, [sp, #52]
 2378 0e6e 002B     		cmp	r3, #0
 2379 0e70 0ED0     		beq	.L436
 2380              		.loc 1 487 0
 2381 0e72 00BF     		nop
 2382              	.L132:
 2383              		.loc 1 487 0 is_stmt 0 discriminator 1
 2384 0e74 4548     		ldr	r0, .L448+16
 2385 0e76 FFF7FEFF 		bl	e_getchar_uart1
 2386 0e7a 0346     		mov	r3, r0
 2387 0e7c 002B     		cmp	r3, #0
 2388 0e7e F9D0     		beq	.L132
 2389              		.loc 1 488 0 is_stmt 1
 2390 0e80 00BF     		nop
 2391              	.L133:
 2392              		.loc 1 488 0 is_stmt 0 discriminator 1
 2393 0e82 4348     		ldr	r0, .L448+20
 2394 0e84 FFF7FEFF 		bl	e_getchar_uart1
 2395 0e88 0346     		mov	r3, r0
 2396 0e8a 002B     		cmp	r3, #0
 2397 0e8c F9D0     		beq	.L133
 2398 0e8e 0DE0     		b	.L134
 2399              	.L436:
 2400              		.loc 1 490 0 is_stmt 1
 2401 0e90 00BF     		nop
 2402              	.L135:
 2403              		.loc 1 490 0 is_stmt 0 discriminator 1
 2404 0e92 3E48     		ldr	r0, .L448+16
 2405 0e94 FFF7FEFF 		bl	e_getchar_uart2
 2406 0e98 0346     		mov	r3, r0
 2407 0e9a 002B     		cmp	r3, #0
 2408 0e9c F9D0     		beq	.L135
 2409              		.loc 1 491 0 is_stmt 1
 2410 0e9e 00BF     		nop
 2411              	.L136:
 2412              		.loc 1 491 0 is_stmt 0 discriminator 1
 2413 0ea0 3B48     		ldr	r0, .L448+20
 2414 0ea2 FFF7FEFF 		bl	e_getchar_uart2
 2415 0ea6 0346     		mov	r3, r0
 2416 0ea8 002B     		cmp	r3, #0
 2417 0eaa F9D0     		beq	.L136
 2418              	.L134:
 2419              		.loc 1 493 0 is_stmt 1
 2420 0eac 374B     		ldr	r3, .L448+16
 2421 0eae 1B78     		ldrb	r3, [r3]	@ zero_extendqisi2
 2422 0eb0 1A46     		mov	r2, r3
 2423 0eb2 374B     		ldr	r3, .L448+20
 2424 0eb4 1B78     		ldrb	r3, [r3]	@ zero_extendqisi2
 2425 0eb6 1B02     		lsls	r3, r3, #8
 2426 0eb8 1344     		add	r3, r3, r2
 2427 0eba 1A46     		mov	r2, r3
 2428 0ebc 364B     		ldr	r3, .L448+28
ARM GAS  C:\Users\Moi\AppData\Local\Temp\ccAXdvuJ.s 			page 49


 2429 0ebe 1A60     		str	r2, [r3]
 2430              		.loc 1 494 0
 2431 0ec0 344B     		ldr	r3, .L448+24
 2432 0ec2 1B68     		ldr	r3, [r3]
 2433 0ec4 1846     		mov	r0, r3
 2434 0ec6 FFF7FEFF 		bl	e_set_steps_left
 2435              		.loc 1 495 0
 2436 0eca 334B     		ldr	r3, .L448+28
 2437 0ecc 1B68     		ldr	r3, [r3]
 2438 0ece 1846     		mov	r0, r3
 2439 0ed0 FFF7FEFF 		bl	e_set_steps_right
 2440              		.loc 1 496 0
 2441 0ed4 89E1     		b	.L71
 2442              	.L59:
 2443              		.loc 1 498 0
 2444 0ed6 FFF7FEFF 		bl	e_get_steps_left
 2445 0eda 0246     		mov	r2, r0
 2446 0edc 284B     		ldr	r3, .L448+4
 2447 0ede 1A60     		str	r2, [r3]
 2448              		.loc 1 499 0
 2449 0ee0 274B     		ldr	r3, .L448+4
 2450 0ee2 1868     		ldr	r0, [r3]
 2451 0ee4 274B     		ldr	r3, .L448+8
 2452 0ee6 1B68     		ldr	r3, [r3]
 2453 0ee8 5A1C     		adds	r2, r3, #1
 2454 0eea 2649     		ldr	r1, .L448+8
 2455 0eec 0A60     		str	r2, [r1]
 2456 0eee C1B2     		uxtb	r1, r0
 2457 0ef0 254A     		ldr	r2, .L448+12
 2458 0ef2 D154     		strb	r1, [r2, r3]
 2459              		.loc 1 500 0
 2460 0ef4 224B     		ldr	r3, .L448+4
 2461 0ef6 1B68     		ldr	r3, [r3]
 2462 0ef8 1812     		asrs	r0, r3, #8
 2463 0efa 224B     		ldr	r3, .L448+8
 2464 0efc 1B68     		ldr	r3, [r3]
 2465 0efe 5A1C     		adds	r2, r3, #1
 2466 0f00 2049     		ldr	r1, .L448+8
 2467 0f02 0A60     		str	r2, [r1]
 2468 0f04 C1B2     		uxtb	r1, r0
 2469 0f06 204A     		ldr	r2, .L448+12
 2470 0f08 D154     		strb	r1, [r2, r3]
 2471              		.loc 1 501 0
 2472 0f0a FFF7FEFF 		bl	e_get_steps_right
 2473 0f0e 0246     		mov	r2, r0
 2474 0f10 1B4B     		ldr	r3, .L448+4
 2475 0f12 1A60     		str	r2, [r3]
 2476              		.loc 1 502 0
 2477 0f14 1A4B     		ldr	r3, .L448+4
 2478 0f16 1868     		ldr	r0, [r3]
 2479 0f18 1A4B     		ldr	r3, .L448+8
 2480 0f1a 1B68     		ldr	r3, [r3]
 2481 0f1c 5A1C     		adds	r2, r3, #1
 2482 0f1e 1949     		ldr	r1, .L448+8
 2483 0f20 0A60     		str	r2, [r1]
 2484 0f22 C1B2     		uxtb	r1, r0
 2485 0f24 184A     		ldr	r2, .L448+12
ARM GAS  C:\Users\Moi\AppData\Local\Temp\ccAXdvuJ.s 			page 50


 2486 0f26 D154     		strb	r1, [r2, r3]
 2487              		.loc 1 503 0
 2488 0f28 154B     		ldr	r3, .L448+4
 2489 0f2a 1B68     		ldr	r3, [r3]
 2490 0f2c 1812     		asrs	r0, r3, #8
 2491 0f2e 154B     		ldr	r3, .L448+8
 2492 0f30 1B68     		ldr	r3, [r3]
 2493 0f32 5A1C     		adds	r2, r3, #1
 2494 0f34 1349     		ldr	r1, .L448+8
 2495 0f36 0A60     		str	r2, [r1]
 2496 0f38 C1B2     		uxtb	r1, r0
 2497 0f3a 134A     		ldr	r2, .L448+12
 2498 0f3c D154     		strb	r1, [r2, r3]
 2499              		.loc 1 504 0
 2500 0f3e 54E1     		b	.L71
 2501              	.L65:
 2502              		.loc 1 507 0
 2503 0f40 0D9B     		ldr	r3, [sp, #52]
 2504 0f42 002B     		cmp	r3, #0
 2505 0f44 11D0     		beq	.L137
 2506              		.loc 1 507 0 is_stmt 0 discriminator 1
 2507 0f46 FFF7FEFF 		bl	isEpuckVersion1_3
 2508 0f4a 0346     		mov	r3, r0
 2509 0f4c 002B     		cmp	r3, #0
 2510 0f4e 0CD0     		beq	.L137
 2511              		.loc 1 508 0 is_stmt 1
 2512 0f50 FFF7FEFF 		bl	getTemperature
 2513 0f54 0346     		mov	r3, r0
 2514 0f56 1846     		mov	r0, r3
 2515 0f58 0A4B     		ldr	r3, .L448+8
 2516 0f5a 1B68     		ldr	r3, [r3]
 2517 0f5c 5A1C     		adds	r2, r3, #1
 2518 0f5e 0949     		ldr	r1, .L448+8
 2519 0f60 0A60     		str	r2, [r1]
 2520 0f62 C1B2     		uxtb	r1, r0
 2521 0f64 084A     		ldr	r2, .L448+12
 2522 0f66 D154     		strb	r1, [r2, r3]
 2523              		.loc 1 512 0
 2524 0f68 3FE1     		b	.L71
 2525              	.L137:
 2526              		.loc 1 510 0
 2527 0f6a 064B     		ldr	r3, .L448+8
 2528 0f6c 1B68     		ldr	r3, [r3]
 2529 0f6e 5A1C     		adds	r2, r3, #1
 2530 0f70 0449     		ldr	r1, .L448+8
 2531 0f72 0A60     		str	r2, [r1]
 2532 0f74 044A     		ldr	r2, .L448+12
 2533 0f76 0021     		movs	r1, #0
 2534 0f78 D154     		strb	r1, [r2, r3]
 2535              		.loc 1 512 0
 2536 0f7a 36E1     		b	.L71
 2537              	.L449:
 2538              		.align	2
 2539              	.L448:
 2540 0f7c 00000000 		.word	j.12664
 2541 0f80 00000000 		.word	n.12665
 2542 0f84 00000000 		.word	i.12663
ARM GAS  C:\Users\Moi\AppData\Local\Temp\ccAXdvuJ.s 			page 51


 2543 0f88 00000000 		.word	buffer
 2544 0f8c 00000000 		.word	c1.12660
 2545 0f90 00000000 		.word	c2.12661
 2546 0f94 00000000 		.word	positionl.12669
 2547 0f98 00000000 		.word	positionr.12668
 2548              	.L66:
 2549              		.loc 1 515 0
 2550 0f9c 0020     		movs	r0, #0
 2551 0f9e FFF7FEFF 		bl	e_get_micro_volume
 2552 0fa2 0246     		mov	r2, r0
 2553 0fa4 964B     		ldr	r3, .L450
 2554 0fa6 1A60     		str	r2, [r3]
 2555              		.loc 1 516 0
 2556 0fa8 954B     		ldr	r3, .L450
 2557 0faa 1868     		ldr	r0, [r3]
 2558 0fac 954B     		ldr	r3, .L450+4
 2559 0fae 1B68     		ldr	r3, [r3]
 2560 0fb0 5A1C     		adds	r2, r3, #1
 2561 0fb2 9449     		ldr	r1, .L450+4
 2562 0fb4 0A60     		str	r2, [r1]
 2563 0fb6 C1B2     		uxtb	r1, r0
 2564 0fb8 934A     		ldr	r2, .L450+8
 2565 0fba D154     		strb	r1, [r2, r3]
 2566              		.loc 1 517 0
 2567 0fbc 904B     		ldr	r3, .L450
 2568 0fbe 1B68     		ldr	r3, [r3]
 2569 0fc0 1812     		asrs	r0, r3, #8
 2570 0fc2 904B     		ldr	r3, .L450+4
 2571 0fc4 1B68     		ldr	r3, [r3]
 2572 0fc6 5A1C     		adds	r2, r3, #1
 2573 0fc8 8E49     		ldr	r1, .L450+4
 2574 0fca 0A60     		str	r2, [r1]
 2575 0fcc C1B2     		uxtb	r1, r0
 2576 0fce 8E4A     		ldr	r2, .L450+8
 2577 0fd0 D154     		strb	r1, [r2, r3]
 2578              		.loc 1 519 0
 2579 0fd2 0120     		movs	r0, #1
 2580 0fd4 FFF7FEFF 		bl	e_get_micro_volume
 2581 0fd8 0246     		mov	r2, r0
 2582 0fda 894B     		ldr	r3, .L450
 2583 0fdc 1A60     		str	r2, [r3]
 2584              		.loc 1 520 0
 2585 0fde 884B     		ldr	r3, .L450
 2586 0fe0 1868     		ldr	r0, [r3]
 2587 0fe2 884B     		ldr	r3, .L450+4
 2588 0fe4 1B68     		ldr	r3, [r3]
 2589 0fe6 5A1C     		adds	r2, r3, #1
 2590 0fe8 8649     		ldr	r1, .L450+4
 2591 0fea 0A60     		str	r2, [r1]
 2592 0fec C1B2     		uxtb	r1, r0
 2593 0fee 864A     		ldr	r2, .L450+8
 2594 0ff0 D154     		strb	r1, [r2, r3]
 2595              		.loc 1 521 0
 2596 0ff2 834B     		ldr	r3, .L450
 2597 0ff4 1B68     		ldr	r3, [r3]
 2598 0ff6 1812     		asrs	r0, r3, #8
 2599 0ff8 824B     		ldr	r3, .L450+4
ARM GAS  C:\Users\Moi\AppData\Local\Temp\ccAXdvuJ.s 			page 52


 2600 0ffa 1B68     		ldr	r3, [r3]
 2601 0ffc 5A1C     		adds	r2, r3, #1
 2602 0ffe 8149     		ldr	r1, .L450+4
 2603 1000 0A60     		str	r2, [r1]
 2604 1002 C1B2     		uxtb	r1, r0
 2605 1004 804A     		ldr	r2, .L450+8
 2606 1006 D154     		strb	r1, [r2, r3]
 2607              		.loc 1 523 0
 2608 1008 0220     		movs	r0, #2
 2609 100a FFF7FEFF 		bl	e_get_micro_volume
 2610 100e 0246     		mov	r2, r0
 2611 1010 7B4B     		ldr	r3, .L450
 2612 1012 1A60     		str	r2, [r3]
 2613              		.loc 1 524 0
 2614 1014 7A4B     		ldr	r3, .L450
 2615 1016 1868     		ldr	r0, [r3]
 2616 1018 7A4B     		ldr	r3, .L450+4
 2617 101a 1B68     		ldr	r3, [r3]
 2618 101c 5A1C     		adds	r2, r3, #1
 2619 101e 7949     		ldr	r1, .L450+4
 2620 1020 0A60     		str	r2, [r1]
 2621 1022 C1B2     		uxtb	r1, r0
 2622 1024 784A     		ldr	r2, .L450+8
 2623 1026 D154     		strb	r1, [r2, r3]
 2624              		.loc 1 525 0
 2625 1028 754B     		ldr	r3, .L450
 2626 102a 1B68     		ldr	r3, [r3]
 2627 102c 1812     		asrs	r0, r3, #8
 2628 102e 754B     		ldr	r3, .L450+4
 2629 1030 1B68     		ldr	r3, [r3]
 2630 1032 5A1C     		adds	r2, r3, #1
 2631 1034 7349     		ldr	r1, .L450+4
 2632 1036 0A60     		str	r2, [r1]
 2633 1038 C1B2     		uxtb	r1, r0
 2634 103a 734A     		ldr	r2, .L450+8
 2635 103c D154     		strb	r1, [r2, r3]
 2636              		.loc 1 526 0
 2637 103e D4E0     		b	.L71
 2638              	.L61:
 2639              		.loc 1 538 0
 2640 1040 0D9B     		ldr	r3, [sp, #52]
 2641 1042 002B     		cmp	r3, #0
 2642 1044 00F0CE80 		beq	.L421
 2643              		.loc 1 539 0
 2644 1048 00BF     		nop
 2645              	.L140:
 2646              		.loc 1 539 0 is_stmt 0 discriminator 1
 2647 104a 7048     		ldr	r0, .L450+12
 2648 104c FFF7FEFF 		bl	e_getchar_uart1
 2649 1050 0346     		mov	r3, r0
 2650 1052 002B     		cmp	r3, #0
 2651 1054 F9D0     		beq	.L140
 2652              		.loc 1 540 0 is_stmt 1
 2653 1056 00BF     		nop
 2654              	.L141:
 2655              		.loc 1 540 0 is_stmt 0 discriminator 1
 2656 1058 6D48     		ldr	r0, .L450+16
ARM GAS  C:\Users\Moi\AppData\Local\Temp\ccAXdvuJ.s 			page 53


 2657 105a FFF7FEFF 		bl	e_getchar_uart1
 2658 105e 0346     		mov	r3, r0
 2659 1060 002B     		cmp	r3, #0
 2660 1062 F9D0     		beq	.L141
 2661              		.loc 1 541 0 is_stmt 1
 2662 1064 00BF     		nop
 2663              	.L142:
 2664              		.loc 1 541 0 is_stmt 0 discriminator 1
 2665 1066 6B48     		ldr	r0, .L450+20
 2666 1068 FFF7FEFF 		bl	e_getchar_uart1
 2667 106c 0346     		mov	r3, r0
 2668 106e 002B     		cmp	r3, #0
 2669 1070 F9D0     		beq	.L142
 2670              		.loc 1 542 0 is_stmt 1
 2671 1072 FFF7FEFF 		bl	e_i2cp_enable
 2672              		.loc 1 543 0
 2673 1076 654B     		ldr	r3, .L450+12
 2674 1078 1B68     		ldr	r3, [r3]
 2675 107a D8B2     		uxtb	r0, r3
 2676 107c 644B     		ldr	r3, .L450+16
 2677 107e 1B68     		ldr	r3, [r3]
 2678 1080 D9B2     		uxtb	r1, r3
 2679 1082 644B     		ldr	r3, .L450+20
 2680 1084 1B68     		ldr	r3, [r3]
 2681 1086 DBB2     		uxtb	r3, r3
 2682 1088 1A46     		mov	r2, r3
 2683 108a FFF7FEFF 		bl	e_i2cp_write
 2684              		.loc 1 544 0
 2685 108e FFF7FEFF 		bl	e_i2cp_disable
 2686              		.loc 1 546 0
 2687 1092 A7E0     		b	.L421
 2688              	.L67:
 2689              		.loc 1 548 0
 2690 1094 0D9B     		ldr	r3, [sp, #52]
 2691 1096 002B     		cmp	r3, #0
 2692 1098 00F0A680 		beq	.L422
 2693              		.loc 1 549 0
 2694 109c FFF7FEFF 		bl	e_i2cp_enable
 2695              		.loc 1 550 0
 2696 10a0 5D4B     		ldr	r3, .L450+24
 2697 10a2 0022     		movs	r2, #0
 2698 10a4 1A60     		str	r2, [r3]
 2699 10a6 0FE0     		b	.L144
 2700              	.L146:
 2701              		.loc 1 551 0
 2702 10a8 00BF     		nop
 2703              	.L145:
 2704              		.loc 1 551 0 is_stmt 0 discriminator 1
 2705 10aa 5B4B     		ldr	r3, .L450+24
 2706 10ac 1B68     		ldr	r3, [r3]
 2707 10ae 564A     		ldr	r2, .L450+8
 2708 10b0 1344     		add	r3, r3, r2
 2709 10b2 1846     		mov	r0, r3
 2710 10b4 FFF7FEFF 		bl	e_getchar_uart1
 2711 10b8 0346     		mov	r3, r0
 2712 10ba 002B     		cmp	r3, #0
 2713 10bc F5D0     		beq	.L145
ARM GAS  C:\Users\Moi\AppData\Local\Temp\ccAXdvuJ.s 			page 54


 2714              		.loc 1 550 0 is_stmt 1 discriminator 2
 2715 10be 564B     		ldr	r3, .L450+24
 2716 10c0 1B68     		ldr	r3, [r3]
 2717 10c2 0133     		adds	r3, r3, #1
 2718 10c4 544A     		ldr	r2, .L450+24
 2719 10c6 1360     		str	r3, [r2]
 2720              	.L144:
 2721              		.loc 1 550 0 is_stmt 0 discriminator 1
 2722 10c8 534B     		ldr	r3, .L450+24
 2723 10ca 1B68     		ldr	r3, [r3]
 2724 10cc 172B     		cmp	r3, #23
 2725 10ce EBDD     		ble	.L146
 2726              		.loc 1 553 0 is_stmt 1
 2727 10d0 514B     		ldr	r3, .L450+24
 2728 10d2 9222     		movs	r2, #146
 2729 10d4 1A60     		str	r2, [r3]
 2730 10d6 10E0     		b	.L147
 2731              	.L149:
 2732              		.loc 1 554 0
 2733 10d8 00BF     		nop
 2734              	.L148:
 2735              		.loc 1 554 0 is_stmt 0 discriminator 1
 2736 10da 4F4B     		ldr	r3, .L450+24
 2737 10dc 1B68     		ldr	r3, [r3]
 2738 10de 7A3B     		subs	r3, r3, #122
 2739 10e0 494A     		ldr	r2, .L450+8
 2740 10e2 1344     		add	r3, r3, r2
 2741 10e4 1846     		mov	r0, r3
 2742 10e6 FFF7FEFF 		bl	e_getchar_uart1
 2743 10ea 0346     		mov	r3, r0
 2744 10ec 002B     		cmp	r3, #0
 2745 10ee F4D0     		beq	.L148
 2746              		.loc 1 553 0 is_stmt 1 discriminator 2
 2747 10f0 494B     		ldr	r3, .L450+24
 2748 10f2 1B68     		ldr	r3, [r3]
 2749 10f4 0133     		adds	r3, r3, #1
 2750 10f6 484A     		ldr	r2, .L450+24
 2751 10f8 1360     		str	r3, [r2]
 2752              	.L147:
 2753              		.loc 1 553 0 is_stmt 0 discriminator 1
 2754 10fa 474B     		ldr	r3, .L450+24
 2755 10fc 1B68     		ldr	r3, [r3]
 2756 10fe 942B     		cmp	r3, #148
 2757 1100 EADD     		ble	.L149
 2758              		.loc 1 556 0 is_stmt 1
 2759 1102 454B     		ldr	r3, .L450+24
 2760 1104 A422     		movs	r2, #164
 2761 1106 1A60     		str	r2, [r3]
 2762 1108 10E0     		b	.L150
 2763              	.L152:
 2764              		.loc 1 557 0
 2765 110a 00BF     		nop
 2766              	.L151:
 2767              		.loc 1 557 0 is_stmt 0 discriminator 1
 2768 110c 424B     		ldr	r3, .L450+24
 2769 110e 1B68     		ldr	r3, [r3]
 2770 1110 893B     		subs	r3, r3, #137
ARM GAS  C:\Users\Moi\AppData\Local\Temp\ccAXdvuJ.s 			page 55


 2771 1112 3D4A     		ldr	r2, .L450+8
 2772 1114 1344     		add	r3, r3, r2
 2773 1116 1846     		mov	r0, r3
 2774 1118 FFF7FEFF 		bl	e_getchar_uart1
 2775 111c 0346     		mov	r3, r0
 2776 111e 002B     		cmp	r3, #0
 2777 1120 F4D0     		beq	.L151
 2778              		.loc 1 556 0 is_stmt 1 discriminator 2
 2779 1122 3D4B     		ldr	r3, .L450+24
 2780 1124 1B68     		ldr	r3, [r3]
 2781 1126 0133     		adds	r3, r3, #1
 2782 1128 3B4A     		ldr	r2, .L450+24
 2783 112a 1360     		str	r3, [r2]
 2784              	.L150:
 2785              		.loc 1 556 0 is_stmt 0 discriminator 1
 2786 112c 3A4B     		ldr	r3, .L450+24
 2787 112e 1B68     		ldr	r3, [r3]
 2788 1130 AB2B     		cmp	r3, #171
 2789 1132 EADD     		ble	.L152
 2790              		.loc 1 559 0 is_stmt 1
 2791 1134 384B     		ldr	r3, .L450+24
 2792 1136 0022     		movs	r2, #0
 2793 1138 1A60     		str	r2, [r3]
 2794 113a 0FE0     		b	.L153
 2795              	.L154:
 2796              		.loc 1 560 0 discriminator 3
 2797 113c 364B     		ldr	r3, .L450+24
 2798 113e 1B68     		ldr	r3, [r3]
 2799 1140 D9B2     		uxtb	r1, r3
 2800 1142 354B     		ldr	r3, .L450+24
 2801 1144 1B68     		ldr	r3, [r3]
 2802 1146 304A     		ldr	r2, .L450+8
 2803 1148 D35C     		ldrb	r3, [r2, r3]	@ zero_extendqisi2
 2804 114a 1A46     		mov	r2, r3
 2805 114c B020     		movs	r0, #176
 2806 114e FFF7FEFF 		bl	e_i2cp_write
 2807              		.loc 1 559 0 discriminator 3
 2808 1152 314B     		ldr	r3, .L450+24
 2809 1154 1B68     		ldr	r3, [r3]
 2810 1156 0133     		adds	r3, r3, #1
 2811 1158 2F4A     		ldr	r2, .L450+24
 2812 115a 1360     		str	r3, [r2]
 2813              	.L153:
 2814              		.loc 1 559 0 is_stmt 0 discriminator 1
 2815 115c 2E4B     		ldr	r3, .L450+24
 2816 115e 1B68     		ldr	r3, [r3]
 2817 1160 172B     		cmp	r3, #23
 2818 1162 EBDD     		ble	.L154
 2819              		.loc 1 562 0 is_stmt 1
 2820 1164 2C4B     		ldr	r3, .L450+24
 2821 1166 9222     		movs	r2, #146
 2822 1168 1A60     		str	r2, [r3]
 2823 116a 10E0     		b	.L155
 2824              	.L156:
 2825              		.loc 1 563 0 discriminator 3
 2826 116c 2A4B     		ldr	r3, .L450+24
 2827 116e 1B68     		ldr	r3, [r3]
ARM GAS  C:\Users\Moi\AppData\Local\Temp\ccAXdvuJ.s 			page 56


 2828 1170 D9B2     		uxtb	r1, r3
 2829 1172 294B     		ldr	r3, .L450+24
 2830 1174 1B68     		ldr	r3, [r3]
 2831 1176 7A3B     		subs	r3, r3, #122
 2832 1178 234A     		ldr	r2, .L450+8
 2833 117a D35C     		ldrb	r3, [r2, r3]	@ zero_extendqisi2
 2834 117c 1A46     		mov	r2, r3
 2835 117e B020     		movs	r0, #176
 2836 1180 FFF7FEFF 		bl	e_i2cp_write
 2837              		.loc 1 562 0 discriminator 3
 2838 1184 244B     		ldr	r3, .L450+24
 2839 1186 1B68     		ldr	r3, [r3]
 2840 1188 0133     		adds	r3, r3, #1
 2841 118a 234A     		ldr	r2, .L450+24
 2842 118c 1360     		str	r3, [r2]
 2843              	.L155:
 2844              		.loc 1 562 0 is_stmt 0 discriminator 1
 2845 118e 224B     		ldr	r3, .L450+24
 2846 1190 1B68     		ldr	r3, [r3]
 2847 1192 942B     		cmp	r3, #148
 2848 1194 EADD     		ble	.L156
 2849              		.loc 1 565 0 is_stmt 1
 2850 1196 204B     		ldr	r3, .L450+24
 2851 1198 A422     		movs	r2, #164
 2852 119a 1A60     		str	r2, [r3]
 2853 119c 10E0     		b	.L157
 2854              	.L158:
 2855              		.loc 1 566 0 discriminator 3
 2856 119e 1E4B     		ldr	r3, .L450+24
 2857 11a0 1B68     		ldr	r3, [r3]
 2858 11a2 D9B2     		uxtb	r1, r3
 2859 11a4 1C4B     		ldr	r3, .L450+24
 2860 11a6 1B68     		ldr	r3, [r3]
 2861 11a8 893B     		subs	r3, r3, #137
 2862 11aa 174A     		ldr	r2, .L450+8
 2863 11ac D35C     		ldrb	r3, [r2, r3]	@ zero_extendqisi2
 2864 11ae 1A46     		mov	r2, r3
 2865 11b0 B020     		movs	r0, #176
 2866 11b2 FFF7FEFF 		bl	e_i2cp_write
 2867              		.loc 1 565 0 discriminator 3
 2868 11b6 184B     		ldr	r3, .L450+24
 2869 11b8 1B68     		ldr	r3, [r3]
 2870 11ba 0133     		adds	r3, r3, #1
 2871 11bc 164A     		ldr	r2, .L450+24
 2872 11be 1360     		str	r3, [r2]
 2873              	.L157:
 2874              		.loc 1 565 0 is_stmt 0 discriminator 1
 2875 11c0 154B     		ldr	r3, .L450+24
 2876 11c2 1B68     		ldr	r3, [r3]
 2877 11c4 AB2B     		cmp	r3, #171
 2878 11c6 EADD     		ble	.L158
 2879              		.loc 1 568 0 is_stmt 1
 2880 11c8 0122     		movs	r2, #1
 2881 11ca 9121     		movs	r1, #145
 2882 11cc B020     		movs	r0, #176
 2883 11ce FFF7FEFF 		bl	e_i2cp_write
 2884              		.loc 1 569 0
ARM GAS  C:\Users\Moi\AppData\Local\Temp\ccAXdvuJ.s 			page 57


 2885 11d2 FFF7FEFF 		bl	e_i2cp_disable
 2886              		.loc 1 571 0
 2887 11d6 07E0     		b	.L422
 2888              	.L416:
 2889              		.loc 1 573 0
 2890 11d8 00BF     		nop
 2891 11da 06E0     		b	.L71
 2892              	.L417:
 2893              		.loc 1 398 0
 2894 11dc 00BF     		nop
 2895 11de 04E0     		b	.L71
 2896              	.L420:
 2897              		.loc 1 444 0
 2898 11e0 00BF     		nop
 2899 11e2 02E0     		b	.L71
 2900              	.L421:
 2901              		.loc 1 546 0
 2902 11e4 00BF     		nop
 2903 11e6 00E0     		b	.L71
 2904              	.L422:
 2905              		.loc 1 571 0
 2906 11e8 00BF     		nop
 2907              	.L71:
 2908              		.loc 1 575 0
 2909 11ea 0D9B     		ldr	r3, [sp, #52]
 2910 11ec 002B     		cmp	r3, #0
 2911 11ee 17D0     		beq	.L437
 2912              		.loc 1 576 0
 2913 11f0 00BF     		nop
 2914              	.L160:
 2915              		.loc 1 576 0 is_stmt 0 discriminator 1
 2916 11f2 0A48     		ldr	r0, .L450+28
 2917 11f4 FFF7FEFF 		bl	e_getchar_uart1
 2918 11f8 0346     		mov	r3, r0
 2919 11fa 002B     		cmp	r3, #0
 2920 11fc F9D0     		beq	.L160
 2921 11fe 16E0     		b	.L161
 2922              	.L451:
 2923              		.align	2
 2924              	.L450:
 2925 1200 00000000 		.word	n.12665
 2926 1204 00000000 		.word	i.12663
 2927 1208 00000000 		.word	buffer
 2928 120c 00000000 		.word	mod.12688
 2929 1210 00000000 		.word	reg.12689
 2930 1214 00000000 		.word	val.12690
 2931 1218 00000000 		.word	j.12664
 2932 121c 00000000 		.word	c
 2933              	.L437:
 2934              		.loc 1 578 0 is_stmt 1
 2935 1220 00BF     		nop
 2936              	.L162:
 2937              		.loc 1 578 0 is_stmt 0 discriminator 1
 2938 1222 B448     		ldr	r0, .L452
 2939 1224 FFF7FEFF 		bl	e_getchar_uart2
 2940 1228 0346     		mov	r3, r0
 2941 122a 002B     		cmp	r3, #0
ARM GAS  C:\Users\Moi\AppData\Local\Temp\ccAXdvuJ.s 			page 58


 2942 122c F9D0     		beq	.L162
 2943              	.L161:
 2944              		.loc 1 580 0 is_stmt 1
 2945 122e B14B     		ldr	r3, .L452
 2946 1230 1B78     		ldrb	r3, [r3]	@ zero_extendqisi2
 2947 1232 002B     		cmp	r3, #0
 2948 1234 7FF406A9 		bne	.L163
 2949              		.loc 1 581 0
 2950 1238 AF4B     		ldr	r3, .L452+4
 2951 123a 1B68     		ldr	r3, [r3]
 2952 123c 002B     		cmp	r3, #0
 2953 123e 3EF483AF 		beq	.L413
 2954              		.loc 1 582 0
 2955 1242 0D9B     		ldr	r3, [sp, #52]
 2956 1244 002B     		cmp	r3, #0
 2957 1246 1CD0     		beq	.L165
 2958              		.loc 1 583 0
 2959 1248 AC4B     		ldr	r3, .L452+8
 2960 124a 1B78     		ldrb	r3, [r3]	@ zero_extendqisi2
 2961 124c 002B     		cmp	r3, #0
 2962 124e 18D0     		beq	.L165
 2963              		.loc 1 584 0
 2964 1250 AA4B     		ldr	r3, .L452+8
 2965 1252 0022     		movs	r2, #0
 2966 1254 1A70     		strb	r2, [r3]
 2967              		.loc 1 585 0
 2968 1256 00BF     		nop
 2969              	.L166:
 2970              		.loc 1 585 0 is_stmt 0 discriminator 1
 2971 1258 FFF7FEFF 		bl	e_poxxxx_is_img_ready
 2972 125c 0346     		mov	r3, r0
 2973 125e 002B     		cmp	r3, #0
 2974 1260 FAD0     		beq	.L166
 2975              		.loc 1 586 0 is_stmt 1
 2976 1262 A54B     		ldr	r3, .L452+4
 2977 1264 1A68     		ldr	r2, [r3]
 2978 1266 A64B     		ldr	r3, .L452+12
 2979 1268 1B68     		ldr	r3, [r3]
 2980 126a D31A     		subs	r3, r2, r3
 2981 126c A54A     		ldr	r2, .L452+16
 2982 126e 9C18     		adds	r4, r3, r2
 2983 1270 FFF7FEFF 		bl	dcmi_get_last_image_ptr
 2984 1274 0146     		mov	r1, r0
 2985 1276 A24B     		ldr	r3, .L452+12
 2986 1278 1B68     		ldr	r3, [r3]
 2987 127a 1A46     		mov	r2, r3
 2988 127c 2046     		mov	r0, r4
 2989 127e FFF7FEFF 		bl	memcpy
 2990              	.L165:
 2991              		.loc 1 590 0
 2992 1282 0D9B     		ldr	r3, [sp, #52]
 2993 1284 002B     		cmp	r3, #0
 2994 1286 0DD0     		beq	.L167
 2995              		.loc 1 591 0
 2996 1288 9B4B     		ldr	r3, .L452+4
 2997 128a 1B68     		ldr	r3, [r3]
 2998 128c 1946     		mov	r1, r3
ARM GAS  C:\Users\Moi\AppData\Local\Temp\ccAXdvuJ.s 			page 59


 2999 128e 9D48     		ldr	r0, .L452+16
 3000 1290 FFF7FEFF 		bl	e_send_uart1_char
 3001              		.loc 1 592 0
 3002 1294 00BF     		nop
 3003              	.L168:
 3004              		.loc 1 592 0 is_stmt 0 discriminator 1
 3005 1296 FFF7FEFF 		bl	e_uart1_sending
 3006 129a 0346     		mov	r3, r0
 3007 129c 002B     		cmp	r3, #0
 3008 129e FAD1     		bne	.L168
 3009 12a0 FEF752BF 		b	.L413
 3010              	.L167:
 3011              		.loc 1 594 0 is_stmt 1
 3012 12a4 944B     		ldr	r3, .L452+4
 3013 12a6 1B68     		ldr	r3, [r3]
 3014 12a8 1946     		mov	r1, r3
 3015 12aa 9648     		ldr	r0, .L452+16
 3016 12ac FFF7FEFF 		bl	e_send_uart2_char
 3017              		.loc 1 595 0
 3018 12b0 00BF     		nop
 3019              	.L169:
 3020              		.loc 1 595 0 is_stmt 0 discriminator 1
 3021 12b2 FFF7FEFF 		bl	e_uart2_sending
 3022 12b6 0346     		mov	r3, r0
 3023 12b8 002B     		cmp	r3, #0
 3024 12ba FAD1     		bne	.L169
 3025 12bc FEF744BF 		b	.L413
 3026              	.L47:
 3027              		.loc 1 599 0 is_stmt 1
 3028 12c0 8C4B     		ldr	r3, .L452
 3029 12c2 1B78     		ldrb	r3, [r3]	@ zero_extendqisi2
 3030 12c4 002B     		cmp	r3, #0
 3031 12c6 01F02F83 		beq	.L423
 3032              		.loc 1 600 0
 3033 12ca 0D9B     		ldr	r3, [sp, #52]
 3034 12cc 002B     		cmp	r3, #0
 3035 12ce 0FD0     		beq	.L174
 3036              		.loc 1 601 0
 3037 12d0 02E0     		b	.L171
 3038              	.L172:
 3039              		.loc 1 601 0 is_stmt 0 discriminator 4
 3040 12d2 8848     		ldr	r0, .L452
 3041 12d4 FFF7FEFF 		bl	e_getchar_uart1
 3042              	.L171:
 3043              		.loc 1 601 0 discriminator 1
 3044 12d8 864B     		ldr	r3, .L452
 3045 12da 1B78     		ldrb	r3, [r3]	@ zero_extendqisi2
 3046 12dc 0A2B     		cmp	r3, #10
 3047 12de F8D0     		beq	.L172
 3048              		.loc 1 601 0 discriminator 3
 3049 12e0 844B     		ldr	r3, .L452
 3050 12e2 1B78     		ldrb	r3, [r3]	@ zero_extendqisi2
 3051 12e4 0D2B     		cmp	r3, #13
 3052 12e6 F4D0     		beq	.L172
 3053 12e8 0AE0     		b	.L173
 3054              	.L175:
 3055              		.loc 1 603 0 is_stmt 1 discriminator 4
ARM GAS  C:\Users\Moi\AppData\Local\Temp\ccAXdvuJ.s 			page 60


 3056 12ea 8248     		ldr	r0, .L452
 3057 12ec FFF7FEFF 		bl	e_getchar_uart2
 3058              	.L174:
 3059              		.loc 1 603 0 is_stmt 0 discriminator 1
 3060 12f0 804B     		ldr	r3, .L452
 3061 12f2 1B78     		ldrb	r3, [r3]	@ zero_extendqisi2
 3062 12f4 0A2B     		cmp	r3, #10
 3063 12f6 F8D0     		beq	.L175
 3064              		.loc 1 603 0 discriminator 3
 3065 12f8 7E4B     		ldr	r3, .L452
 3066 12fa 1B78     		ldrb	r3, [r3]	@ zero_extendqisi2
 3067 12fc 0D2B     		cmp	r3, #13
 3068 12fe F4D0     		beq	.L175
 3069              	.L173:
 3070              		.loc 1 605 0 is_stmt 1
 3071 1300 7C4B     		ldr	r3, .L452
 3072 1302 1A78     		ldrb	r2, [r3]	@ zero_extendqisi2
 3073 1304 7F4B     		ldr	r3, .L452+16
 3074 1306 1A70     		strb	r2, [r3]
 3075              		.loc 1 606 0
 3076 1308 7B4B     		ldr	r3, .L452+4
 3077 130a 0122     		movs	r2, #1
 3078 130c 1A60     		str	r2, [r3]
 3079              		.loc 1 607 0
 3080 130e 0D9B     		ldr	r3, [sp, #52]
 3081 1310 002B     		cmp	r3, #0
 3082 1312 17D0     		beq	.L176
 3083              	.L179:
 3084              		.loc 1 608 0
 3085 1314 7748     		ldr	r0, .L452
 3086 1316 FFF7FEFF 		bl	e_getchar_uart1
 3087 131a 0346     		mov	r3, r0
 3088 131c 002B     		cmp	r3, #0
 3089 131e 08D0     		beq	.L177
 3090              		.loc 1 608 0 is_stmt 0 discriminator 1
 3091 1320 754B     		ldr	r3, .L452+4
 3092 1322 1B68     		ldr	r3, [r3]
 3093 1324 5A1C     		adds	r2, r3, #1
 3094 1326 7449     		ldr	r1, .L452+4
 3095 1328 0A60     		str	r2, [r1]
 3096 132a 724A     		ldr	r2, .L452
 3097 132c 1178     		ldrb	r1, [r2]	@ zero_extendqisi2
 3098 132e 754A     		ldr	r2, .L452+16
 3099 1330 D154     		strb	r1, [r2, r3]
 3100              	.L177:
 3101              		.loc 1 609 0 is_stmt 1
 3102 1332 704B     		ldr	r3, .L452
 3103 1334 1B78     		ldrb	r3, [r3]	@ zero_extendqisi2
 3104 1336 0A2B     		cmp	r3, #10
 3105 1338 1BD0     		beq	.L178
 3106              		.loc 1 609 0 is_stmt 0 discriminator 1
 3107 133a 6E4B     		ldr	r3, .L452
 3108 133c 1B78     		ldrb	r3, [r3]	@ zero_extendqisi2
 3109 133e 0D2B     		cmp	r3, #13
 3110 1340 E8D1     		bne	.L179
 3111 1342 16E0     		b	.L178
 3112              	.L176:
ARM GAS  C:\Users\Moi\AppData\Local\Temp\ccAXdvuJ.s 			page 61


 3113              		.loc 1 611 0 is_stmt 1
 3114 1344 6B48     		ldr	r0, .L452
 3115 1346 FFF7FEFF 		bl	e_getchar_uart2
 3116 134a 0346     		mov	r3, r0
 3117 134c 002B     		cmp	r3, #0
 3118 134e 08D0     		beq	.L180
 3119              		.loc 1 611 0 is_stmt 0 discriminator 1
 3120 1350 694B     		ldr	r3, .L452+4
 3121 1352 1B68     		ldr	r3, [r3]
 3122 1354 5A1C     		adds	r2, r3, #1
 3123 1356 6849     		ldr	r1, .L452+4
 3124 1358 0A60     		str	r2, [r1]
 3125 135a 664A     		ldr	r2, .L452
 3126 135c 1178     		ldrb	r1, [r2]	@ zero_extendqisi2
 3127 135e 694A     		ldr	r2, .L452+16
 3128 1360 D154     		strb	r1, [r2, r3]
 3129              	.L180:
 3130              		.loc 1 612 0 is_stmt 1
 3131 1362 644B     		ldr	r3, .L452
 3132 1364 1B78     		ldrb	r3, [r3]	@ zero_extendqisi2
 3133 1366 0A2B     		cmp	r3, #10
 3134 1368 03D0     		beq	.L178
 3135              		.loc 1 612 0 is_stmt 0 discriminator 1
 3136 136a 624B     		ldr	r3, .L452
 3137 136c 1B78     		ldrb	r3, [r3]	@ zero_extendqisi2
 3138 136e 0D2B     		cmp	r3, #13
 3139 1370 E8D1     		bne	.L176
 3140              	.L178:
 3141              		.loc 1 614 0 is_stmt 1
 3142 1372 614B     		ldr	r3, .L452+4
 3143 1374 1B68     		ldr	r3, [r3]
 3144 1376 5A1C     		adds	r2, r3, #1
 3145 1378 5F49     		ldr	r1, .L452+4
 3146 137a 0A60     		str	r2, [r1]
 3147 137c 614A     		ldr	r2, .L452+16
 3148 137e 0021     		movs	r1, #0
 3149 1380 D154     		strb	r1, [r2, r3]
 3150              		.loc 1 616 0
 3151 1382 604B     		ldr	r3, .L452+16
 3152 1384 1B78     		ldrb	r3, [r3]	@ zero_extendqisi2
 3153 1386 622B     		cmp	r3, #98
 3154 1388 1CD0     		beq	.L181
 3155              		.loc 1 616 0 is_stmt 0 discriminator 1
 3156 138a 5E4B     		ldr	r3, .L452+16
 3157 138c 1B78     		ldrb	r3, [r3]	@ zero_extendqisi2
 3158 138e 672B     		cmp	r3, #103
 3159 1390 18D0     		beq	.L181
 3160              	.LBB2:
 3161              		.loc 1 617 0 is_stmt 1
 3162 1392 5C4B     		ldr	r3, .L452+16
 3163 1394 1B78     		ldrb	r3, [r3]
 3164 1396 8DF83330 		strb	r3, [sp, #51]
 3165 139a FFF7FEFF 		bl	__locale_ctype_ptr
 3166 139e 0246     		mov	r2, r0
 3167 13a0 9DF83330 		ldrb	r3, [sp, #51]	@ zero_extendqisi2
 3168 13a4 0133     		adds	r3, r3, #1
 3169 13a6 1344     		add	r3, r3, r2
ARM GAS  C:\Users\Moi\AppData\Local\Temp\ccAXdvuJ.s 			page 62


 3170 13a8 1B78     		ldrb	r3, [r3]	@ zero_extendqisi2
 3171 13aa 03F00303 		and	r3, r3, #3
 3172 13ae 022B     		cmp	r3, #2
 3173 13b0 03D1     		bne	.L182
 3174              		.loc 1 617 0 is_stmt 0 discriminator 1
 3175 13b2 9DF83330 		ldrb	r3, [sp, #51]	@ zero_extendqisi2
 3176 13b6 203B     		subs	r3, r3, #32
 3177 13b8 01E0     		b	.L183
 3178              	.L182:
 3179              		.loc 1 617 0 discriminator 2
 3180 13ba 9DF83330 		ldrb	r3, [sp, #51]	@ zero_extendqisi2
 3181              	.L183:
 3182              	.LBE2:
 3183              		.loc 1 617 0 discriminator 4
 3184 13be DAB2     		uxtb	r2, r3
 3185 13c0 504B     		ldr	r3, .L452+16
 3186 13c2 1A70     		strb	r2, [r3]
 3187              	.L181:
 3188              		.loc 1 619 0 is_stmt 1
 3189 13c4 4F4B     		ldr	r3, .L452+16
 3190 13c6 1B78     		ldrb	r3, [r3]	@ zero_extendqisi2
 3191 13c8 413B     		subs	r3, r3, #65
 3192 13ca 332B     		cmp	r3, #51
 3193 13cc 01F29382 		bhi	.L184
 3194 13d0 01A2     		adr	r2, .L186
 3195 13d2 52F823F0 		ldr	pc, [r2, r3, lsl #2]
 3196 13d6 00BF     		.p2align 2
 3197              	.L186:
 3198 13d8 A9140000 		.word	.L185+1
 3199 13dc F5150000 		.word	.L187+1
 3200 13e0 3F160000 		.word	.L188+1
 3201 13e4 CD160000 		.word	.L189+1
 3202 13e8 23170000 		.word	.L190+1
 3203 13ec 79170000 		.word	.L191+1
 3204 13f0 C3170000 		.word	.L192+1
 3205 13f4 E1180000 		.word	.L193+1
 3206 13f8 811D0000 		.word	.L194+1
 3207 13fc CF1D0000 		.word	.L195+1
 3208 1400 7F1F0000 		.word	.L196+1
 3209 1404 2D200000 		.word	.L197+1
 3210 1408 81200000 		.word	.L198+1
 3211 140c 19220000 		.word	.L199+1
 3212 1410 27230000 		.word	.L200+1
 3213 1414 51240000 		.word	.L201+1
 3214 1418 A3240000 		.word	.L202+1
 3215 141c 2F290000 		.word	.L424+1
 3216 1420 FB240000 		.word	.L204+1
 3217 1424 41250000 		.word	.L205+1
 3218 1428 77260000 		.word	.L206+1
 3219 142c DF260000 		.word	.L207+1
 3220 1430 A5270000 		.word	.L208+1
 3221 1434 F7280000 		.word	.L184+1
 3222 1438 F3270000 		.word	.L209+1
 3223 143c 83280000 		.word	.L210+1
 3224 1440 F7280000 		.word	.L184+1
 3225 1444 F7280000 		.word	.L184+1
 3226 1448 F7280000 		.word	.L184+1
ARM GAS  C:\Users\Moi\AppData\Local\Temp\ccAXdvuJ.s 			page 63


 3227 144c F7280000 		.word	.L184+1
 3228 1450 F7280000 		.word	.L184+1
 3229 1454 F7280000 		.word	.L184+1
 3230 1458 F7280000 		.word	.L184+1
 3231 145c 83150000 		.word	.L211+1
 3232 1460 F7280000 		.word	.L184+1
 3233 1464 F7280000 		.word	.L184+1
 3234 1468 F7280000 		.word	.L184+1
 3235 146c F7280000 		.word	.L184+1
 3236 1470 0F180000 		.word	.L212+1
 3237 1474 F7280000 		.word	.L184+1
 3238 1478 F7280000 		.word	.L184+1
 3239 147c F7280000 		.word	.L184+1
 3240 1480 F7280000 		.word	.L184+1
 3241 1484 F7280000 		.word	.L184+1
 3242 1488 F7280000 		.word	.L184+1
 3243 148c F7280000 		.word	.L184+1
 3244 1490 F7280000 		.word	.L184+1
 3245 1494 F7280000 		.word	.L184+1
 3246 1498 F7280000 		.word	.L184+1
 3247 149c F7280000 		.word	.L184+1
 3248 14a0 F7280000 		.word	.L184+1
 3249 14a4 05260000 		.word	.L213+1
 3250              		.p2align 1
 3251              	.L185:
 3252              	.LBB3:
 3253              		.loc 1 621 0
 3254 14a8 0D9B     		ldr	r3, [sp, #52]
 3255 14aa 002B     		cmp	r3, #0
 3256 14ac 16D0     		beq	.L214
 3257              		.loc 1 622 0
 3258 14ae 0121     		movs	r1, #1
 3259 14b0 0020     		movs	r0, #0
 3260 14b2 FFF7FEFF 		bl	e_get_acc_filtered
 3261 14b6 0446     		mov	r4, r0
 3262 14b8 0121     		movs	r1, #1
 3263 14ba 0120     		movs	r0, #1
 3264 14bc FFF7FEFF 		bl	e_get_acc_filtered
 3265 14c0 0546     		mov	r5, r0
 3266 14c2 0121     		movs	r1, #1
 3267 14c4 0220     		movs	r0, #2
 3268 14c6 FFF7FEFF 		bl	e_get_acc_filtered
 3269 14ca 0346     		mov	r3, r0
 3270 14cc 0093     		str	r3, [sp]
 3271 14ce 2B46     		mov	r3, r5
 3272 14d0 2246     		mov	r2, r4
 3273 14d2 0D49     		ldr	r1, .L452+20
 3274 14d4 0B48     		ldr	r0, .L452+16
 3275 14d6 FFF7FEFF 		bl	sprintf
 3276 14da 2FE0     		b	.L215
 3277              	.L214:
 3278              		.loc 1 624 0
 3279 14dc FFF7FEFF 		bl	isEpuckVersion1_3
 3280 14e0 0346     		mov	r3, r0
 3281 14e2 002B     		cmp	r3, #0
 3282 14e4 14D0     		beq	.L216
 3283              		.loc 1 625 0
ARM GAS  C:\Users\Moi\AppData\Local\Temp\ccAXdvuJ.s 			page 64


 3284 14e6 074B     		ldr	r3, .L452+16
 3285 14e8 084A     		ldr	r2, .L452+24
 3286 14ea 07CA     		ldm	r2, {r0, r1, r2}
 3287 14ec 03C3     		stmia	r3!, {r0, r1}
 3288 14ee 1A80     		strh	r2, [r3]	@ movhi
 3289 14f0 24E0     		b	.L215
 3290              	.L453:
 3291 14f2 00BF     		.align	2
 3292              	.L452:
 3293 14f4 00000000 		.word	c
 3294 14f8 00000000 		.word	i.12663
 3295 14fc 00000000 		.word	wait_cam.12662
 3296 1500 00000000 		.word	cam_size.12683
 3297 1504 00000000 		.word	buffer
 3298 1508 5C000000 		.word	.LC1
 3299 150c 6C000000 		.word	.LC2
 3300              	.L216:
 3301              		.loc 1 627 0
 3302 1510 0121     		movs	r1, #1
 3303 1512 0020     		movs	r0, #0
 3304 1514 FFF7FEFF 		bl	e_get_acc_filtered
 3305 1518 0446     		mov	r4, r0
 3306 151a 0121     		movs	r1, #1
 3307 151c 0120     		movs	r0, #1
 3308 151e FFF7FEFF 		bl	e_get_acc_filtered
 3309 1522 0546     		mov	r5, r0
 3310 1524 0121     		movs	r1, #1
 3311 1526 0220     		movs	r0, #2
 3312 1528 FFF7FEFF 		bl	e_get_acc_filtered
 3313 152c 0346     		mov	r3, r0
 3314 152e 0093     		str	r3, [sp]
 3315 1530 2B46     		mov	r3, r5
 3316 1532 2246     		mov	r2, r4
 3317 1534 C249     		ldr	r1, .L454
 3318 1536 C348     		ldr	r0, .L454+4
 3319 1538 FFF7FEFF 		bl	sprintf
 3320              	.L215:
 3321              		.loc 1 630 0
 3322 153c 0D9B     		ldr	r3, [sp, #52]
 3323 153e 002B     		cmp	r3, #0
 3324 1540 0FD0     		beq	.L217
 3325              		.loc 1 631 0
 3326 1542 C048     		ldr	r0, .L454+4
 3327 1544 FFF7FEFF 		bl	strlen
 3328 1548 0346     		mov	r3, r0
 3329 154a 1946     		mov	r1, r3
 3330 154c BD48     		ldr	r0, .L454+4
 3331 154e FFF7FEFF 		bl	e_send_uart1_char
 3332 1552 00BF     		nop
 3333              	.L218:
 3334              		.loc 1 631 0 is_stmt 0 discriminator 2
 3335 1554 FFF7FEFF 		bl	e_uart1_sending
 3336 1558 0346     		mov	r3, r0
 3337 155a 002B     		cmp	r3, #0
 3338 155c FAD1     		bne	.L218
 3339              		.loc 1 635 0 is_stmt 1
 3340 155e 01F0FCB9 		b	.L164
ARM GAS  C:\Users\Moi\AppData\Local\Temp\ccAXdvuJ.s 			page 65


 3341              	.L217:
 3342              		.loc 1 633 0
 3343 1562 B848     		ldr	r0, .L454+4
 3344 1564 FFF7FEFF 		bl	strlen
 3345 1568 0346     		mov	r3, r0
 3346 156a 1946     		mov	r1, r3
 3347 156c B548     		ldr	r0, .L454+4
 3348 156e FFF7FEFF 		bl	e_send_uart2_char
 3349 1572 00BF     		nop
 3350              	.L220:
 3351              		.loc 1 633 0 is_stmt 0 discriminator 2
 3352 1574 FFF7FEFF 		bl	e_uart2_sending
 3353 1578 0346     		mov	r3, r0
 3354 157a 002B     		cmp	r3, #0
 3355 157c FAD1     		bne	.L220
 3356              		.loc 1 635 0 is_stmt 1
 3357 157e 01F0ECB9 		b	.L164
 3358              	.L211:
 3359              		.loc 1 637 0
 3360 1582 FFF7FEFF 		bl	isEpuckVersion1_3
 3361 1586 0346     		mov	r3, r0
 3362 1588 002B     		cmp	r3, #0
 3363 158a 0BD0     		beq	.L221
 3364              		.loc 1 638 0
 3365 158c FFF7FEFF 		bl	getBatteryValueRaw
 3366 1590 0446     		mov	r4, r0
 3367 1592 FFF7FEFF 		bl	getBatteryValuePercentage
 3368 1596 0346     		mov	r3, r0
 3369 1598 2246     		mov	r2, r4
 3370 159a AB49     		ldr	r1, .L454+8
 3371 159c A948     		ldr	r0, .L454+4
 3372 159e FFF7FEFF 		bl	sprintf
 3373 15a2 04E0     		b	.L222
 3374              	.L221:
 3375              		.loc 1 640 0
 3376 15a4 0022     		movs	r2, #0
 3377 15a6 A949     		ldr	r1, .L454+12
 3378 15a8 A648     		ldr	r0, .L454+4
 3379 15aa FFF7FEFF 		bl	sprintf
 3380              	.L222:
 3381              		.loc 1 642 0
 3382 15ae 0D9B     		ldr	r3, [sp, #52]
 3383 15b0 002B     		cmp	r3, #0
 3384 15b2 0FD0     		beq	.L223
 3385              		.loc 1 643 0
 3386 15b4 A348     		ldr	r0, .L454+4
 3387 15b6 FFF7FEFF 		bl	strlen
 3388 15ba 0346     		mov	r3, r0
 3389 15bc 1946     		mov	r1, r3
 3390 15be A148     		ldr	r0, .L454+4
 3391 15c0 FFF7FEFF 		bl	e_send_uart1_char
 3392 15c4 00BF     		nop
 3393              	.L224:
 3394              		.loc 1 643 0 is_stmt 0 discriminator 2
 3395 15c6 FFF7FEFF 		bl	e_uart1_sending
 3396 15ca 0346     		mov	r3, r0
 3397 15cc 002B     		cmp	r3, #0
ARM GAS  C:\Users\Moi\AppData\Local\Temp\ccAXdvuJ.s 			page 66


 3398 15ce FAD1     		bne	.L224
 3399              		.loc 1 647 0 is_stmt 1
 3400 15d0 01F0C3B9 		b	.L164
 3401              	.L223:
 3402              		.loc 1 645 0
 3403 15d4 9B48     		ldr	r0, .L454+4
 3404 15d6 FFF7FEFF 		bl	strlen
 3405 15da 0346     		mov	r3, r0
 3406 15dc 1946     		mov	r1, r3
 3407 15de 9948     		ldr	r0, .L454+4
 3408 15e0 FFF7FEFF 		bl	e_send_uart2_char
 3409 15e4 00BF     		nop
 3410              	.L226:
 3411              		.loc 1 645 0 is_stmt 0 discriminator 2
 3412 15e6 FFF7FEFF 		bl	e_uart2_sending
 3413 15ea 0346     		mov	r3, r0
 3414 15ec 002B     		cmp	r3, #0
 3415 15ee FAD1     		bne	.L226
 3416              		.loc 1 647 0 is_stmt 1
 3417 15f0 01F0B3B9 		b	.L164
 3418              	.L187:
 3419              		.loc 1 649 0
 3420 15f4 964A     		ldr	r2, .L454+16
 3421 15f6 9749     		ldr	r1, .L454+20
 3422 15f8 9248     		ldr	r0, .L454+4
 3423 15fa FFF7FEFF 		bl	sscanf
 3424              		.loc 1 650 0
 3425 15fe 0D9B     		ldr	r3, [sp, #52]
 3426 1600 002B     		cmp	r3, #0
 3427 1602 10D0     		beq	.L227
 3428              		.loc 1 651 0
 3429 1604 924B     		ldr	r3, .L454+16
 3430 1606 1B68     		ldr	r3, [r3]
 3431 1608 1846     		mov	r0, r3
 3432 160a FFF7FEFF 		bl	e_set_body_led
 3433              		.loc 1 652 0
 3434 160e 0321     		movs	r1, #3
 3435 1610 9148     		ldr	r0, .L454+24
 3436 1612 FFF7FEFF 		bl	e_send_uart1_char
 3437 1616 00BF     		nop
 3438              	.L228:
 3439              		.loc 1 652 0 is_stmt 0 discriminator 2
 3440 1618 FFF7FEFF 		bl	e_uart1_sending
 3441 161c 0346     		mov	r3, r0
 3442 161e 002B     		cmp	r3, #0
 3443 1620 FAD1     		bne	.L228
 3444              		.loc 1 656 0 is_stmt 1
 3445 1622 01F09AB9 		b	.L164
 3446              	.L227:
 3447              		.loc 1 654 0
 3448 1626 0321     		movs	r1, #3
 3449 1628 8B48     		ldr	r0, .L454+24
 3450 162a FFF7FEFF 		bl	e_send_uart2_char
 3451 162e 00BF     		nop
 3452              	.L230:
 3453              		.loc 1 654 0 is_stmt 0 discriminator 2
 3454 1630 FFF7FEFF 		bl	e_uart2_sending
ARM GAS  C:\Users\Moi\AppData\Local\Temp\ccAXdvuJ.s 			page 67


 3455 1634 0346     		mov	r3, r0
 3456 1636 002B     		cmp	r3, #0
 3457 1638 FAD1     		bne	.L230
 3458              		.loc 1 656 0 is_stmt 1
 3459 163a 01F08EB9 		b	.L164
 3460              	.L188:
 3461              		.loc 1 658 0
 3462 163e 874B     		ldr	r3, .L454+28
 3463 1640 1B69     		ldr	r3, [r3, #16]
 3464 1642 5B0B     		lsrs	r3, r3, #13
 3465 1644 03F00102 		and	r2, r3, #1
 3466 1648 844B     		ldr	r3, .L454+28
 3467 164a 1B69     		ldr	r3, [r3, #16]
 3468 164c DB0B     		lsrs	r3, r3, #15
 3469 164e 03F00101 		and	r1, r3, #1
 3470 1652 834B     		ldr	r3, .L454+32
 3471 1654 1B69     		ldr	r3, [r3, #16]
 3472 1656 1B09     		lsrs	r3, r3, #4
 3473 1658 03F00103 		and	r3, r3, #1
 3474 165c 5B00     		lsls	r3, r3, #1
 3475 165e 0B44     		add	r3, r3, r1
 3476 1660 5900     		lsls	r1, r3, #1
 3477 1662 7E4B     		ldr	r3, .L454+28
 3478 1664 1B69     		ldr	r3, [r3, #16]
 3479 1666 9B0B     		lsrs	r3, r3, #14
 3480 1668 03F00103 		and	r3, r3, #1
 3481 166c 0B44     		add	r3, r3, r1
 3482 166e 5B00     		lsls	r3, r3, #1
 3483 1670 1344     		add	r3, r3, r2
 3484 1672 1A46     		mov	r2, r3
 3485 1674 7B4B     		ldr	r3, .L454+36
 3486 1676 1A60     		str	r2, [r3]
 3487              		.loc 1 659 0
 3488 1678 7A4B     		ldr	r3, .L454+36
 3489 167a 1B68     		ldr	r3, [r3]
 3490 167c 1A46     		mov	r2, r3
 3491 167e 7A49     		ldr	r1, .L454+40
 3492 1680 7048     		ldr	r0, .L454+4
 3493 1682 FFF7FEFF 		bl	sprintf
 3494              		.loc 1 660 0
 3495 1686 0D9B     		ldr	r3, [sp, #52]
 3496 1688 002B     		cmp	r3, #0
 3497 168a 0FD0     		beq	.L231
 3498              		.loc 1 661 0
 3499 168c 6D48     		ldr	r0, .L454+4
 3500 168e FFF7FEFF 		bl	strlen
 3501 1692 0346     		mov	r3, r0
 3502 1694 1946     		mov	r1, r3
 3503 1696 6B48     		ldr	r0, .L454+4
 3504 1698 FFF7FEFF 		bl	e_send_uart1_char
 3505 169c 00BF     		nop
 3506              	.L232:
 3507              		.loc 1 661 0 is_stmt 0 discriminator 2
 3508 169e FFF7FEFF 		bl	e_uart1_sending
 3509 16a2 0346     		mov	r3, r0
 3510 16a4 002B     		cmp	r3, #0
 3511 16a6 FAD1     		bne	.L232
ARM GAS  C:\Users\Moi\AppData\Local\Temp\ccAXdvuJ.s 			page 68


 3512              		.loc 1 665 0 is_stmt 1
 3513 16a8 01F057B9 		b	.L164
 3514              	.L231:
 3515              		.loc 1 663 0
 3516 16ac 6548     		ldr	r0, .L454+4
 3517 16ae FFF7FEFF 		bl	strlen
 3518 16b2 0346     		mov	r3, r0
 3519 16b4 1946     		mov	r1, r3
 3520 16b6 6348     		ldr	r0, .L454+4
 3521 16b8 FFF7FEFF 		bl	e_send_uart2_char
 3522 16bc 00BF     		nop
 3523              	.L234:
 3524              		.loc 1 663 0 is_stmt 0 discriminator 2
 3525 16be FFF7FEFF 		bl	e_uart2_sending
 3526 16c2 0346     		mov	r3, r0
 3527 16c4 002B     		cmp	r3, #0
 3528 16c6 FAD1     		bne	.L234
 3529              		.loc 1 665 0 is_stmt 1
 3530 16c8 01F047B9 		b	.L164
 3531              	.L189:
 3532              		.loc 1 667 0
 3533 16cc 674B     		ldr	r3, .L454+44
 3534 16ce 684A     		ldr	r2, .L454+48
 3535 16d0 6849     		ldr	r1, .L454+52
 3536 16d2 5C48     		ldr	r0, .L454+4
 3537 16d4 FFF7FEFF 		bl	sscanf
 3538              		.loc 1 668 0
 3539 16d8 654B     		ldr	r3, .L454+48
 3540 16da 1B68     		ldr	r3, [r3]
 3541 16dc 1846     		mov	r0, r3
 3542 16de FFF7FEFF 		bl	e_set_speed_left
 3543              		.loc 1 669 0
 3544 16e2 624B     		ldr	r3, .L454+44
 3545 16e4 1B68     		ldr	r3, [r3]
 3546 16e6 1846     		mov	r0, r3
 3547 16e8 FFF7FEFF 		bl	e_set_speed_right
 3548              		.loc 1 670 0
 3549 16ec 0D9B     		ldr	r3, [sp, #52]
 3550 16ee 002B     		cmp	r3, #0
 3551 16f0 0BD0     		beq	.L235
 3552              		.loc 1 671 0
 3553 16f2 0321     		movs	r1, #3
 3554 16f4 6048     		ldr	r0, .L454+56
 3555 16f6 FFF7FEFF 		bl	e_send_uart1_char
 3556 16fa 00BF     		nop
 3557              	.L236:
 3558              		.loc 1 671 0 is_stmt 0 discriminator 2
 3559 16fc FFF7FEFF 		bl	e_uart1_sending
 3560 1700 0346     		mov	r3, r0
 3561 1702 002B     		cmp	r3, #0
 3562 1704 FAD1     		bne	.L236
 3563              		.loc 1 675 0 is_stmt 1
 3564 1706 01F028B9 		b	.L164
 3565              	.L235:
 3566              		.loc 1 673 0
 3567 170a 0321     		movs	r1, #3
 3568 170c 5A48     		ldr	r0, .L454+56
ARM GAS  C:\Users\Moi\AppData\Local\Temp\ccAXdvuJ.s 			page 69


 3569 170e FFF7FEFF 		bl	e_send_uart2_char
 3570 1712 00BF     		nop
 3571              	.L238:
 3572              		.loc 1 673 0 is_stmt 0 discriminator 2
 3573 1714 FFF7FEFF 		bl	e_uart2_sending
 3574 1718 0346     		mov	r3, r0
 3575 171a 002B     		cmp	r3, #0
 3576 171c FAD1     		bne	.L238
 3577              		.loc 1 675 0 is_stmt 1
 3578 171e 01F01CB9 		b	.L164
 3579              	.L190:
 3580              		.loc 1 677 0
 3581 1722 534B     		ldr	r3, .L454+48
 3582 1724 1A68     		ldr	r2, [r3]
 3583 1726 514B     		ldr	r3, .L454+44
 3584 1728 1B68     		ldr	r3, [r3]
 3585 172a 5449     		ldr	r1, .L454+60
 3586 172c 4548     		ldr	r0, .L454+4
 3587 172e FFF7FEFF 		bl	sprintf
 3588              		.loc 1 678 0
 3589 1732 0D9B     		ldr	r3, [sp, #52]
 3590 1734 002B     		cmp	r3, #0
 3591 1736 0FD0     		beq	.L239
 3592              		.loc 1 679 0
 3593 1738 4248     		ldr	r0, .L454+4
 3594 173a FFF7FEFF 		bl	strlen
 3595 173e 0346     		mov	r3, r0
 3596 1740 1946     		mov	r1, r3
 3597 1742 4048     		ldr	r0, .L454+4
 3598 1744 FFF7FEFF 		bl	e_send_uart1_char
 3599 1748 00BF     		nop
 3600              	.L240:
 3601              		.loc 1 679 0 is_stmt 0 discriminator 2
 3602 174a FFF7FEFF 		bl	e_uart1_sending
 3603 174e 0346     		mov	r3, r0
 3604 1750 002B     		cmp	r3, #0
 3605 1752 FAD1     		bne	.L240
 3606              		.loc 1 683 0 is_stmt 1
 3607 1754 01F001B9 		b	.L164
 3608              	.L239:
 3609              		.loc 1 681 0
 3610 1758 3A48     		ldr	r0, .L454+4
 3611 175a FFF7FEFF 		bl	strlen
 3612 175e 0346     		mov	r3, r0
 3613 1760 1946     		mov	r1, r3
 3614 1762 3848     		ldr	r0, .L454+4
 3615 1764 FFF7FEFF 		bl	e_send_uart2_char
 3616 1768 00BF     		nop
 3617              	.L242:
 3618              		.loc 1 681 0 is_stmt 0 discriminator 2
 3619 176a FFF7FEFF 		bl	e_uart2_sending
 3620 176e 0346     		mov	r3, r0
 3621 1770 002B     		cmp	r3, #0
 3622 1772 FAD1     		bne	.L242
 3623              		.loc 1 683 0 is_stmt 1
 3624 1774 01F0F1B8 		b	.L164
 3625              	.L191:
ARM GAS  C:\Users\Moi\AppData\Local\Temp\ccAXdvuJ.s 			page 70


 3626              		.loc 1 685 0
 3627 1778 354A     		ldr	r2, .L454+16
 3628 177a 4149     		ldr	r1, .L454+64
 3629 177c 3148     		ldr	r0, .L454+4
 3630 177e FFF7FEFF 		bl	sscanf
 3631              		.loc 1 686 0
 3632 1782 0D9B     		ldr	r3, [sp, #52]
 3633 1784 002B     		cmp	r3, #0
 3634 1786 10D0     		beq	.L243
 3635              		.loc 1 687 0
 3636 1788 314B     		ldr	r3, .L454+16
 3637 178a 1B68     		ldr	r3, [r3]
 3638 178c 1846     		mov	r0, r3
 3639 178e FFF7FEFF 		bl	e_set_front_led
 3640              		.loc 1 688 0
 3641 1792 0321     		movs	r1, #3
 3642 1794 3B48     		ldr	r0, .L454+68
 3643 1796 FFF7FEFF 		bl	e_send_uart1_char
 3644 179a 00BF     		nop
 3645              	.L244:
 3646              		.loc 1 688 0 is_stmt 0 discriminator 2
 3647 179c FFF7FEFF 		bl	e_uart1_sending
 3648 17a0 0346     		mov	r3, r0
 3649 17a2 002B     		cmp	r3, #0
 3650 17a4 FAD1     		bne	.L244
 3651              		.loc 1 692 0 is_stmt 1
 3652 17a6 01F0D8B8 		b	.L164
 3653              	.L243:
 3654              		.loc 1 690 0
 3655 17aa 0321     		movs	r1, #3
 3656 17ac 3548     		ldr	r0, .L454+68
 3657 17ae FFF7FEFF 		bl	e_send_uart2_char
 3658 17b2 00BF     		nop
 3659              	.L246:
 3660              		.loc 1 690 0 is_stmt 0 discriminator 2
 3661 17b4 FFF7FEFF 		bl	e_uart2_sending
 3662 17b8 0346     		mov	r3, r0
 3663 17ba 002B     		cmp	r3, #0
 3664 17bc FAD1     		bne	.L246
 3665              		.loc 1 692 0 is_stmt 1
 3666 17be 01F0CCB8 		b	.L164
 3667              	.L192:
 3668              		.loc 1 695 0
 3669 17c2 0D9B     		ldr	r3, [sp, #52]
 3670 17c4 002B     		cmp	r3, #0
 3671 17c6 01F0B580 		beq	.L425
 3672              		.loc 1 696 0
 3673 17ca FFF7FEFF 		bl	e_get_check
 3674 17ce 0346     		mov	r3, r0
 3675 17d0 1C46     		mov	r4, r3
 3676 17d2 FFF7FEFF 		bl	e_get_address
 3677 17d6 0346     		mov	r3, r0
 3678 17d8 1D46     		mov	r5, r3
 3679 17da FFF7FEFF 		bl	e_get_data
 3680 17de 0346     		mov	r3, r0
 3681 17e0 0093     		str	r3, [sp]
 3682 17e2 2B46     		mov	r3, r5
ARM GAS  C:\Users\Moi\AppData\Local\Temp\ccAXdvuJ.s 			page 71


 3683 17e4 2246     		mov	r2, r4
 3684 17e6 2849     		ldr	r1, .L454+72
 3685 17e8 1648     		ldr	r0, .L454+4
 3686 17ea FFF7FEFF 		bl	sprintf
 3687              		.loc 1 697 0
 3688 17ee 1548     		ldr	r0, .L454+4
 3689 17f0 FFF7FEFF 		bl	strlen
 3690 17f4 0346     		mov	r3, r0
 3691 17f6 1946     		mov	r1, r3
 3692 17f8 1248     		ldr	r0, .L454+4
 3693 17fa FFF7FEFF 		bl	e_send_uart1_char
 3694 17fe 00BF     		nop
 3695              	.L248:
 3696              		.loc 1 697 0 is_stmt 0 discriminator 2
 3697 1800 FFF7FEFF 		bl	e_uart1_sending
 3698 1804 0346     		mov	r3, r0
 3699 1806 002B     		cmp	r3, #0
 3700 1808 FAD1     		bne	.L248
 3701              		.loc 1 699 0 is_stmt 1
 3702 180a 01F093B8 		b	.L425
 3703              	.L212:
 3704              		.loc 1 702 0
 3705 180e 0D9B     		ldr	r3, [sp, #52]
 3706 1810 002B     		cmp	r3, #0
 3707 1812 3DD0     		beq	.L249
 3708              		.loc 1 702 0 is_stmt 0 discriminator 1
 3709 1814 FFF7FEFF 		bl	isEpuckVersion1_3
 3710 1818 0346     		mov	r3, r0
 3711 181a 002B     		cmp	r3, #0
 3712 181c 38D0     		beq	.L249
 3713              		.loc 1 703 0 is_stmt 1
 3714 181e FFF7FEFF 		bl	getXAxisGyro
 3715 1822 0446     		mov	r4, r0
 3716 1824 FFF7FEFF 		bl	getYAxisGyro
 3717 1828 0546     		mov	r5, r0
 3718 182a FFF7FEFF 		bl	getZAxisGyro
 3719 182e 0346     		mov	r3, r0
 3720 1830 0093     		str	r3, [sp]
 3721 1832 2B46     		mov	r3, r5
 3722 1834 2246     		mov	r2, r4
 3723 1836 1549     		ldr	r1, .L454+76
 3724 1838 0248     		ldr	r0, .L454+4
 3725 183a FFF7FEFF 		bl	sprintf
 3726 183e 2CE0     		b	.L250
 3727              	.L455:
 3728              		.align	2
 3729              	.L454:
 3730 1840 5C000000 		.word	.LC1
 3731 1844 00000000 		.word	buffer
 3732 1848 78000000 		.word	.LC3
 3733 184c 88000000 		.word	.LC4
 3734 1850 00000000 		.word	LED_action.12671
 3735 1854 90000000 		.word	.LC5
 3736 1858 98000000 		.word	.LC6
 3737 185c 00080240 		.word	1073874944
 3738 1860 000C0240 		.word	1073875968
 3739 1864 00000000 		.word	selector
ARM GAS  C:\Users\Moi\AppData\Local\Temp\ccAXdvuJ.s 			page 72


 3740 1868 9C000000 		.word	.LC7
 3741 186c 00000000 		.word	speedr.12666
 3742 1870 00000000 		.word	speedl.12667
 3743 1874 A4000000 		.word	.LC8
 3744 1878 B0000000 		.word	.LC9
 3745 187c B4000000 		.word	.LC10
 3746 1880 C0000000 		.word	.LC11
 3747 1884 C8000000 		.word	.LC12
 3748 1888 CC000000 		.word	.LC13
 3749 188c 00010000 		.word	.LC14
 3750              	.L249:
 3751              		.loc 1 705 0
 3752 1890 C44B     		ldr	r3, .L456
 3753 1892 C54A     		ldr	r2, .L456+4
 3754 1894 07CA     		ldm	r2, {r0, r1, r2}
 3755 1896 03C3     		stmia	r3!, {r0, r1}
 3756 1898 1A80     		strh	r2, [r3]	@ movhi
 3757              	.L250:
 3758              		.loc 1 707 0
 3759 189a 0D9B     		ldr	r3, [sp, #52]
 3760 189c 002B     		cmp	r3, #0
 3761 189e 0FD0     		beq	.L251
 3762              		.loc 1 708 0
 3763 18a0 C048     		ldr	r0, .L456
 3764 18a2 FFF7FEFF 		bl	strlen
 3765 18a6 0346     		mov	r3, r0
 3766 18a8 1946     		mov	r1, r3
 3767 18aa BE48     		ldr	r0, .L456
 3768 18ac FFF7FEFF 		bl	e_send_uart1_char
 3769 18b0 00BF     		nop
 3770              	.L252:
 3771              		.loc 1 708 0 is_stmt 0 discriminator 2
 3772 18b2 FFF7FEFF 		bl	e_uart1_sending
 3773 18b6 0346     		mov	r3, r0
 3774 18b8 002B     		cmp	r3, #0
 3775 18ba FAD1     		bne	.L252
 3776              		.loc 1 712 0 is_stmt 1
 3777 18bc 01F04DB8 		b	.L164
 3778              	.L251:
 3779              		.loc 1 710 0
 3780 18c0 B848     		ldr	r0, .L456
 3781 18c2 FFF7FEFF 		bl	strlen
 3782 18c6 0346     		mov	r3, r0
 3783 18c8 1946     		mov	r1, r3
 3784 18ca B648     		ldr	r0, .L456
 3785 18cc FFF7FEFF 		bl	e_send_uart2_char
 3786 18d0 00BF     		nop
 3787              	.L254:
 3788              		.loc 1 710 0 is_stmt 0 discriminator 2
 3789 18d2 FFF7FEFF 		bl	e_uart2_sending
 3790 18d6 0346     		mov	r3, r0
 3791 18d8 002B     		cmp	r3, #0
 3792 18da FAD1     		bne	.L254
 3793              		.loc 1 712 0 is_stmt 1
 3794 18dc 01F03DB8 		b	.L164
 3795              	.L193:
 3796              		.loc 1 715 0
ARM GAS  C:\Users\Moi\AppData\Local\Temp\ccAXdvuJ.s 			page 73


 3797 18e0 0D9B     		ldr	r3, [sp, #52]
 3798 18e2 002B     		cmp	r3, #0
 3799 18e4 00F03481 		beq	.L255
 3800              		.loc 1 716 0
 3801 18e8 0121     		movs	r1, #1
 3802 18ea B048     		ldr	r0, .L456+8
 3803 18ec FFF7FEFF 		bl	e_send_uart1_char
 3804 18f0 00BF     		nop
 3805              	.L256:
 3806              		.loc 1 716 0 is_stmt 0 discriminator 2
 3807 18f2 FFF7FEFF 		bl	e_uart1_sending
 3808 18f6 0346     		mov	r3, r0
 3809 18f8 002B     		cmp	r3, #0
 3810 18fa FAD1     		bne	.L256
 3811              		.loc 1 717 0 is_stmt 1
 3812 18fc 2121     		movs	r1, #33
 3813 18fe AC48     		ldr	r0, .L456+12
 3814 1900 FFF7FEFF 		bl	e_send_uart1_char
 3815 1904 00BF     		nop
 3816              	.L257:
 3817              		.loc 1 717 0 is_stmt 0 discriminator 2
 3818 1906 FFF7FEFF 		bl	e_uart1_sending
 3819 190a 0346     		mov	r3, r0
 3820 190c 002B     		cmp	r3, #0
 3821 190e FAD1     		bne	.L257
 3822              		.loc 1 718 0 is_stmt 1
 3823 1910 3121     		movs	r1, #49
 3824 1912 A848     		ldr	r0, .L456+16
 3825 1914 FFF7FEFF 		bl	e_send_uart1_char
 3826 1918 00BF     		nop
 3827              	.L258:
 3828              		.loc 1 718 0 is_stmt 0 discriminator 2
 3829 191a FFF7FEFF 		bl	e_uart1_sending
 3830 191e 0346     		mov	r3, r0
 3831 1920 002B     		cmp	r3, #0
 3832 1922 FAD1     		bne	.L258
 3833              		.loc 1 719 0 is_stmt 1
 3834 1924 FFF7FEFF 		bl	isEpuckVersion1_3
 3835 1928 0346     		mov	r3, r0
 3836 192a 002B     		cmp	r3, #0
 3837 192c 0AD0     		beq	.L259
 3838              		.loc 1 720 0
 3839 192e 2121     		movs	r1, #33
 3840 1930 A148     		ldr	r0, .L456+20
 3841 1932 FFF7FEFF 		bl	e_send_uart1_char
 3842 1936 00BF     		nop
 3843              	.L260:
 3844              		.loc 1 720 0 is_stmt 0 discriminator 2
 3845 1938 FFF7FEFF 		bl	e_uart1_sending
 3846 193c 0346     		mov	r3, r0
 3847 193e 002B     		cmp	r3, #0
 3848 1940 FAD1     		bne	.L260
 3849 1942 09E0     		b	.L261
 3850              	.L259:
 3851              		.loc 1 722 0 is_stmt 1
 3852 1944 2F21     		movs	r1, #47
 3853 1946 9D48     		ldr	r0, .L456+24
ARM GAS  C:\Users\Moi\AppData\Local\Temp\ccAXdvuJ.s 			page 74


 3854 1948 FFF7FEFF 		bl	e_send_uart1_char
 3855 194c 00BF     		nop
 3856              	.L262:
 3857              		.loc 1 722 0 is_stmt 0 discriminator 2
 3858 194e FFF7FEFF 		bl	e_uart1_sending
 3859 1952 0346     		mov	r3, r0
 3860 1954 002B     		cmp	r3, #0
 3861 1956 FAD1     		bne	.L262
 3862              	.L261:
 3863              		.loc 1 724 0 is_stmt 1
 3864 1958 2521     		movs	r1, #37
 3865 195a 9948     		ldr	r0, .L456+28
 3866 195c FFF7FEFF 		bl	e_send_uart1_char
 3867 1960 00BF     		nop
 3868              	.L263:
 3869              		.loc 1 724 0 is_stmt 0 discriminator 2
 3870 1962 FFF7FEFF 		bl	e_uart1_sending
 3871 1966 0346     		mov	r3, r0
 3872 1968 002B     		cmp	r3, #0
 3873 196a FAD1     		bne	.L263
 3874              		.loc 1 725 0 is_stmt 1
 3875 196c 2E21     		movs	r1, #46
 3876 196e 9548     		ldr	r0, .L456+32
 3877 1970 FFF7FEFF 		bl	e_send_uart1_char
 3878 1974 00BF     		nop
 3879              	.L264:
 3880              		.loc 1 725 0 is_stmt 0 discriminator 2
 3881 1976 FFF7FEFF 		bl	e_uart1_sending
 3882 197a 0346     		mov	r3, r0
 3883 197c 002B     		cmp	r3, #0
 3884 197e FAD1     		bne	.L264
 3885              		.loc 1 726 0 is_stmt 1
 3886 1980 2E21     		movs	r1, #46
 3887 1982 9148     		ldr	r0, .L456+36
 3888 1984 FFF7FEFF 		bl	e_send_uart1_char
 3889 1988 00BF     		nop
 3890              	.L265:
 3891              		.loc 1 726 0 is_stmt 0 discriminator 2
 3892 198a FFF7FEFF 		bl	e_uart1_sending
 3893 198e 0346     		mov	r3, r0
 3894 1990 002B     		cmp	r3, #0
 3895 1992 FAD1     		bne	.L265
 3896              		.loc 1 727 0 is_stmt 1
 3897 1994 3221     		movs	r1, #50
 3898 1996 8D48     		ldr	r0, .L456+40
 3899 1998 FFF7FEFF 		bl	e_send_uart1_char
 3900 199c 00BF     		nop
 3901              	.L266:
 3902              		.loc 1 727 0 is_stmt 0 discriminator 2
 3903 199e FFF7FEFF 		bl	e_uart1_sending
 3904 19a2 0346     		mov	r3, r0
 3905 19a4 002B     		cmp	r3, #0
 3906 19a6 FAD1     		bne	.L266
 3907              		.loc 1 729 0 is_stmt 1
 3908 19a8 1F21     		movs	r1, #31
 3909 19aa 8948     		ldr	r0, .L456+44
 3910 19ac FFF7FEFF 		bl	e_send_uart1_char
ARM GAS  C:\Users\Moi\AppData\Local\Temp\ccAXdvuJ.s 			page 75


 3911 19b0 00BF     		nop
 3912              	.L267:
 3913              		.loc 1 729 0 is_stmt 0 discriminator 2
 3914 19b2 FFF7FEFF 		bl	e_uart1_sending
 3915 19b6 0346     		mov	r3, r0
 3916 19b8 002B     		cmp	r3, #0
 3917 19ba FAD1     		bne	.L267
 3918              		.loc 1 731 0 is_stmt 1
 3919 19bc FFF7FEFF 		bl	isEpuckVersion1_3
 3920 19c0 0346     		mov	r3, r0
 3921 19c2 002B     		cmp	r3, #0
 3922 19c4 09D0     		beq	.L268
 3923              		.loc 1 732 0
 3924 19c6 1821     		movs	r1, #24
 3925 19c8 8248     		ldr	r0, .L456+48
 3926 19ca FFF7FEFF 		bl	e_send_uart1_char
 3927 19ce 00BF     		nop
 3928              	.L269:
 3929              		.loc 1 732 0 is_stmt 0 discriminator 2
 3930 19d0 FFF7FEFF 		bl	e_uart1_sending
 3931 19d4 0346     		mov	r3, r0
 3932 19d6 002B     		cmp	r3, #0
 3933 19d8 FAD1     		bne	.L269
 3934              	.L268:
 3935              		.loc 1 734 0 is_stmt 1
 3936 19da 1821     		movs	r1, #24
 3937 19dc 7E48     		ldr	r0, .L456+52
 3938 19de FFF7FEFF 		bl	e_send_uart1_char
 3939 19e2 00BF     		nop
 3940              	.L270:
 3941              		.loc 1 734 0 is_stmt 0 discriminator 2
 3942 19e4 FFF7FEFF 		bl	e_uart1_sending
 3943 19e8 0346     		mov	r3, r0
 3944 19ea 002B     		cmp	r3, #0
 3945 19ec FAD1     		bne	.L270
 3946              		.loc 1 735 0 is_stmt 1
 3947 19ee 2821     		movs	r1, #40
 3948 19f0 7A48     		ldr	r0, .L456+56
 3949 19f2 FFF7FEFF 		bl	e_send_uart1_char
 3950 19f6 00BF     		nop
 3951              	.L271:
 3952              		.loc 1 735 0 is_stmt 0 discriminator 2
 3953 19f8 FFF7FEFF 		bl	e_uart1_sending
 3954 19fc 0346     		mov	r3, r0
 3955 19fe 002B     		cmp	r3, #0
 3956 1a00 FAD1     		bne	.L271
 3957              		.loc 1 736 0 is_stmt 1
 3958 1a02 4F21     		movs	r1, #79
 3959 1a04 7648     		ldr	r0, .L456+60
 3960 1a06 FFF7FEFF 		bl	e_send_uart1_char
 3961 1a0a 00BF     		nop
 3962              	.L272:
 3963              		.loc 1 736 0 is_stmt 0 discriminator 2
 3964 1a0c FFF7FEFF 		bl	e_uart1_sending
 3965 1a10 0346     		mov	r3, r0
 3966 1a12 002B     		cmp	r3, #0
 3967 1a14 FAD1     		bne	.L272
ARM GAS  C:\Users\Moi\AppData\Local\Temp\ccAXdvuJ.s 			page 76


 3968              		.loc 1 737 0 is_stmt 1
 3969 1a16 2F21     		movs	r1, #47
 3970 1a18 7248     		ldr	r0, .L456+64
 3971 1a1a FFF7FEFF 		bl	e_send_uart1_char
 3972 1a1e 00BF     		nop
 3973              	.L273:
 3974              		.loc 1 737 0 is_stmt 0 discriminator 2
 3975 1a20 FFF7FEFF 		bl	e_uart1_sending
 3976 1a24 0346     		mov	r3, r0
 3977 1a26 002B     		cmp	r3, #0
 3978 1a28 FAD1     		bne	.L273
 3979              		.loc 1 738 0 is_stmt 1
 3980 1a2a 3321     		movs	r1, #51
 3981 1a2c 6E48     		ldr	r0, .L456+68
 3982 1a2e FFF7FEFF 		bl	e_send_uart1_char
 3983 1a32 00BF     		nop
 3984              	.L274:
 3985              		.loc 1 738 0 is_stmt 0 discriminator 2
 3986 1a34 FFF7FEFF 		bl	e_uart1_sending
 3987 1a38 0346     		mov	r3, r0
 3988 1a3a 002B     		cmp	r3, #0
 3989 1a3c FAD1     		bne	.L274
 3990              		.loc 1 740 0 is_stmt 1
 3991 1a3e 2121     		movs	r1, #33
 3992 1a40 6A48     		ldr	r0, .L456+72
 3993 1a42 FFF7FEFF 		bl	e_send_uart1_char
 3994 1a46 00BF     		nop
 3995              	.L275:
 3996              		.loc 1 740 0 is_stmt 0 discriminator 2
 3997 1a48 FFF7FEFF 		bl	e_uart1_sending
 3998 1a4c 0346     		mov	r3, r0
 3999 1a4e 002B     		cmp	r3, #0
 4000 1a50 FAD1     		bne	.L275
 4001              		.loc 1 742 0 is_stmt 1
 4002 1a52 1D21     		movs	r1, #29
 4003 1a54 6648     		ldr	r0, .L456+76
 4004 1a56 FFF7FEFF 		bl	e_send_uart1_char
 4005 1a5a 00BF     		nop
 4006              	.L276:
 4007              		.loc 1 742 0 is_stmt 0 discriminator 2
 4008 1a5c FFF7FEFF 		bl	e_uart1_sending
 4009 1a60 0346     		mov	r3, r0
 4010 1a62 002B     		cmp	r3, #0
 4011 1a64 FAD1     		bne	.L276
 4012              		.loc 1 743 0 is_stmt 1
 4013 1a66 2121     		movs	r1, #33
 4014 1a68 6248     		ldr	r0, .L456+80
 4015 1a6a FFF7FEFF 		bl	e_send_uart1_char
 4016 1a6e 00BF     		nop
 4017              	.L277:
 4018              		.loc 1 743 0 is_stmt 0 discriminator 2
 4019 1a70 FFF7FEFF 		bl	e_uart1_sending
 4020 1a74 0346     		mov	r3, r0
 4021 1a76 002B     		cmp	r3, #0
 4022 1a78 FAD1     		bne	.L277
 4023              		.loc 1 744 0 is_stmt 1
 4024 1a7a 3121     		movs	r1, #49
ARM GAS  C:\Users\Moi\AppData\Local\Temp\ccAXdvuJ.s 			page 77


 4025 1a7c 5E48     		ldr	r0, .L456+84
 4026 1a7e FFF7FEFF 		bl	e_send_uart1_char
 4027 1a82 00BF     		nop
 4028              	.L278:
 4029              		.loc 1 744 0 is_stmt 0 discriminator 2
 4030 1a84 FFF7FEFF 		bl	e_uart1_sending
 4031 1a88 0346     		mov	r3, r0
 4032 1a8a 002B     		cmp	r3, #0
 4033 1a8c FAD1     		bne	.L278
 4034              		.loc 1 745 0 is_stmt 1
 4035 1a8e 3121     		movs	r1, #49
 4036 1a90 5A48     		ldr	r0, .L456+88
 4037 1a92 FFF7FEFF 		bl	e_send_uart1_char
 4038 1a96 00BF     		nop
 4039              	.L279:
 4040              		.loc 1 745 0 is_stmt 0 discriminator 2
 4041 1a98 FFF7FEFF 		bl	e_uart1_sending
 4042 1a9c 0346     		mov	r3, r0
 4043 1a9e 002B     		cmp	r3, #0
 4044 1aa0 FAD1     		bne	.L279
 4045              		.loc 1 746 0 is_stmt 1
 4046 1aa2 2021     		movs	r1, #32
 4047 1aa4 5648     		ldr	r0, .L456+92
 4048 1aa6 FFF7FEFF 		bl	e_send_uart1_char
 4049 1aaa 00BF     		nop
 4050              	.L280:
 4051              		.loc 1 746 0 is_stmt 0 discriminator 2
 4052 1aac FFF7FEFF 		bl	e_uart1_sending
 4053 1ab0 0346     		mov	r3, r0
 4054 1ab2 002B     		cmp	r3, #0
 4055 1ab4 FAD1     		bne	.L280
 4056              		.loc 1 747 0 is_stmt 1
 4057 1ab6 3121     		movs	r1, #49
 4058 1ab8 5248     		ldr	r0, .L456+96
 4059 1aba FFF7FEFF 		bl	e_send_uart1_char
 4060 1abe 00BF     		nop
 4061              	.L281:
 4062              		.loc 1 747 0 is_stmt 0 discriminator 2
 4063 1ac0 FFF7FEFF 		bl	e_uart1_sending
 4064 1ac4 0346     		mov	r3, r0
 4065 1ac6 002B     		cmp	r3, #0
 4066 1ac8 FAD1     		bne	.L281
 4067              		.loc 1 748 0 is_stmt 1
 4068 1aca 3221     		movs	r1, #50
 4069 1acc 4E48     		ldr	r0, .L456+100
 4070 1ace FFF7FEFF 		bl	e_send_uart1_char
 4071 1ad2 00BF     		nop
 4072              	.L282:
 4073              		.loc 1 748 0 is_stmt 0 discriminator 2
 4074 1ad4 FFF7FEFF 		bl	e_uart1_sending
 4075 1ad8 0346     		mov	r3, r0
 4076 1ada 002B     		cmp	r3, #0
 4077 1adc FAD1     		bne	.L282
 4078              		.loc 1 749 0 is_stmt 1
 4079 1ade FFF7FEFF 		bl	isEpuckVersion1_3
 4080 1ae2 0346     		mov	r3, r0
 4081 1ae4 002B     		cmp	r3, #0
ARM GAS  C:\Users\Moi\AppData\Local\Temp\ccAXdvuJ.s 			page 78


 4082 1ae6 09D0     		beq	.L283
 4083              		.loc 1 750 0
 4084 1ae8 1F21     		movs	r1, #31
 4085 1aea 4848     		ldr	r0, .L456+104
 4086 1aec FFF7FEFF 		bl	e_send_uart1_char
 4087 1af0 00BF     		nop
 4088              	.L284:
 4089              		.loc 1 750 0 is_stmt 0 discriminator 2
 4090 1af2 FFF7FEFF 		bl	e_uart1_sending
 4091 1af6 0346     		mov	r3, r0
 4092 1af8 002B     		cmp	r3, #0
 4093 1afa FAD1     		bne	.L284
 4094              	.L283:
 4095              		.loc 1 752 0 is_stmt 1
 4096 1afc 2C21     		movs	r1, #44
 4097 1afe 4448     		ldr	r0, .L456+108
 4098 1b00 FFF7FEFF 		bl	e_send_uart1_char
 4099 1b04 00BF     		nop
 4100              	.L285:
 4101              		.loc 1 752 0 is_stmt 0 discriminator 2
 4102 1b06 FFF7FEFF 		bl	e_uart1_sending
 4103 1b0a 0346     		mov	r3, r0
 4104 1b0c 002B     		cmp	r3, #0
 4105 1b0e FAD1     		bne	.L285
 4106              		.loc 1 753 0 is_stmt 1
 4107 1b10 2521     		movs	r1, #37
 4108 1b12 4048     		ldr	r0, .L456+112
 4109 1b14 FFF7FEFF 		bl	e_send_uart1_char
 4110 1b18 00BF     		nop
 4111              	.L286:
 4112              		.loc 1 753 0 is_stmt 0 discriminator 2
 4113 1b1a FFF7FEFF 		bl	e_uart1_sending
 4114 1b1e 0346     		mov	r3, r0
 4115 1b20 002B     		cmp	r3, #0
 4116 1b22 FAD1     		bne	.L286
 4117              		.loc 1 754 0 is_stmt 1
 4118 1b24 2B21     		movs	r1, #43
 4119 1b26 3C48     		ldr	r0, .L456+116
 4120 1b28 FFF7FEFF 		bl	e_send_uart1_char
 4121 1b2c 00BF     		nop
 4122              	.L287:
 4123              		.loc 1 754 0 is_stmt 0 discriminator 2
 4124 1b2e FFF7FEFF 		bl	e_uart1_sending
 4125 1b32 0346     		mov	r3, r0
 4126 1b34 002B     		cmp	r3, #0
 4127 1b36 FAD1     		bne	.L287
 4128              		.loc 1 755 0 is_stmt 1
 4129 1b38 2A21     		movs	r1, #42
 4130 1b3a 3848     		ldr	r0, .L456+120
 4131 1b3c FFF7FEFF 		bl	e_send_uart1_char
 4132 1b40 00BF     		nop
 4133              	.L288:
 4134              		.loc 1 755 0 is_stmt 0 discriminator 2
 4135 1b42 FFF7FEFF 		bl	e_uart1_sending
 4136 1b46 0346     		mov	r3, r0
 4137 1b48 002B     		cmp	r3, #0
 4138 1b4a FAD1     		bne	.L288
ARM GAS  C:\Users\Moi\AppData\Local\Temp\ccAXdvuJ.s 			page 79


 4139              		.loc 1 794 0 is_stmt 1
 4140 1b4c 00F005BF 		b	.L164
 4141              	.L255:
 4142              		.loc 1 757 0
 4143 1b50 0121     		movs	r1, #1
 4144 1b52 1648     		ldr	r0, .L456+8
 4145 1b54 FFF7FEFF 		bl	e_send_uart2_char
 4146 1b58 00BF     		nop
 4147              	.L290:
 4148              		.loc 1 757 0 is_stmt 0 discriminator 2
 4149 1b5a FFF7FEFF 		bl	e_uart2_sending
 4150 1b5e 0346     		mov	r3, r0
 4151 1b60 002B     		cmp	r3, #0
 4152 1b62 FAD1     		bne	.L290
 4153              		.loc 1 758 0 is_stmt 1
 4154 1b64 FFF7FEFF 		bl	isEpuckVersion1_3
 4155 1b68 0346     		mov	r3, r0
 4156 1b6a 002B     		cmp	r3, #0
 4157 1b6c 09D1     		bne	.L291
 4158              		.loc 1 759 0
 4159 1b6e 1921     		movs	r1, #25
 4160 1b70 2B48     		ldr	r0, .L456+124
 4161 1b72 FFF7FEFF 		bl	e_send_uart2_char
 4162 1b76 00BF     		nop
 4163              	.L292:
 4164              		.loc 1 759 0 is_stmt 0 discriminator 2
 4165 1b78 FFF7FEFF 		bl	e_uart2_sending
 4166 1b7c 0346     		mov	r3, r0
 4167 1b7e 002B     		cmp	r3, #0
 4168 1b80 FAD1     		bne	.L292
 4169              	.L291:
 4170              		.loc 1 761 0 is_stmt 1
 4171 1b82 FFF7FEFF 		bl	isEpuckVersion1_3
 4172 1b86 0346     		mov	r3, r0
 4173 1b88 002B     		cmp	r3, #0
 4174 1b8a 4DD0     		beq	.L293
 4175              		.loc 1 762 0
 4176 1b8c 1921     		movs	r1, #25
 4177 1b8e 2548     		ldr	r0, .L456+128
 4178 1b90 FFF7FEFF 		bl	e_send_uart2_char
 4179 1b94 00BF     		nop
 4180              	.L294:
 4181              		.loc 1 762 0 is_stmt 0 discriminator 2
 4182 1b96 FFF7FEFF 		bl	e_uart2_sending
 4183 1b9a 0346     		mov	r3, r0
 4184 1b9c 002B     		cmp	r3, #0
 4185 1b9e FAD1     		bne	.L294
 4186 1ba0 4CE0     		b	.L295
 4187              	.L457:
 4188 1ba2 00BF     		.align	2
 4189              	.L456:
 4190 1ba4 00000000 		.word	buffer
 4191 1ba8 10010000 		.word	.LC15
 4192 1bac 1C010000 		.word	.LC16
 4193 1bb0 20010000 		.word	.LC17
 4194 1bb4 44010000 		.word	.LC18
 4195 1bb8 78010000 		.word	.LC19
ARM GAS  C:\Users\Moi\AppData\Local\Temp\ccAXdvuJ.s 			page 80


 4196 1bbc 9C010000 		.word	.LC20
 4197 1bc0 CC010000 		.word	.LC21
 4198 1bc4 F4010000 		.word	.LC22
 4199 1bc8 24020000 		.word	.LC23
 4200 1bcc 54020000 		.word	.LC24
 4201 1bd0 88020000 		.word	.LC25
 4202 1bd4 A8020000 		.word	.LC26
 4203 1bd8 C4020000 		.word	.LC27
 4204 1bdc E0020000 		.word	.LC28
 4205 1be0 0C030000 		.word	.LC29
 4206 1be4 5C030000 		.word	.LC30
 4207 1be8 8C030000 		.word	.LC31
 4208 1bec C0030000 		.word	.LC32
 4209 1bf0 E4030000 		.word	.LC33
 4210 1bf4 04040000 		.word	.LC34
 4211 1bf8 28040000 		.word	.LC35
 4212 1bfc 5C040000 		.word	.LC36
 4213 1c00 90040000 		.word	.LC37
 4214 1c04 B4040000 		.word	.LC38
 4215 1c08 E8040000 		.word	.LC39
 4216 1c0c 1C050000 		.word	.LC40
 4217 1c10 3C050000 		.word	.LC41
 4218 1c14 6C050000 		.word	.LC42
 4219 1c18 94050000 		.word	.LC43
 4220 1c1c C0050000 		.word	.LC44
 4221 1c20 EC050000 		.word	.LC45
 4222 1c24 08060000 		.word	.LC46
 4223              	.L293:
 4224              		.loc 1 764 0 is_stmt 1
 4225 1c28 2721     		movs	r1, #39
 4226 1c2a 7C48     		ldr	r0, .L458
 4227 1c2c FFF7FEFF 		bl	e_send_uart2_char
 4228 1c30 00BF     		nop
 4229              	.L296:
 4230              		.loc 1 764 0 is_stmt 0 discriminator 2
 4231 1c32 FFF7FEFF 		bl	e_uart2_sending
 4232 1c36 0346     		mov	r3, r0
 4233 1c38 002B     		cmp	r3, #0
 4234 1c3a FAD1     		bne	.L296
 4235              	.L295:
 4236              		.loc 1 767 0 is_stmt 1
 4237 1c3c 1D21     		movs	r1, #29
 4238 1c3e 7848     		ldr	r0, .L458+4
 4239 1c40 FFF7FEFF 		bl	e_send_uart2_char
 4240 1c44 00BF     		nop
 4241              	.L297:
 4242              		.loc 1 767 0 is_stmt 0 discriminator 2
 4243 1c46 FFF7FEFF 		bl	e_uart2_sending
 4244 1c4a 0346     		mov	r3, r0
 4245 1c4c 002B     		cmp	r3, #0
 4246 1c4e FAD1     		bne	.L297
 4247              		.loc 1 768 0 is_stmt 1
 4248 1c50 2621     		movs	r1, #38
 4249 1c52 7448     		ldr	r0, .L458+8
 4250 1c54 FFF7FEFF 		bl	e_send_uart2_char
 4251 1c58 00BF     		nop
 4252              	.L298:
ARM GAS  C:\Users\Moi\AppData\Local\Temp\ccAXdvuJ.s 			page 81


 4253              		.loc 1 768 0 is_stmt 0 discriminator 2
 4254 1c5a FFF7FEFF 		bl	e_uart2_sending
 4255 1c5e 0346     		mov	r3, r0
 4256 1c60 002B     		cmp	r3, #0
 4257 1c62 FAD1     		bne	.L298
 4258              		.loc 1 769 0 is_stmt 1
 4259 1c64 2621     		movs	r1, #38
 4260 1c66 7048     		ldr	r0, .L458+12
 4261 1c68 FFF7FEFF 		bl	e_send_uart2_char
 4262 1c6c 00BF     		nop
 4263              	.L299:
 4264              		.loc 1 769 0 is_stmt 0 discriminator 2
 4265 1c6e FFF7FEFF 		bl	e_uart2_sending
 4266 1c72 0346     		mov	r3, r0
 4267 1c74 002B     		cmp	r3, #0
 4268 1c76 FAD1     		bne	.L299
 4269              		.loc 1 772 0 is_stmt 1
 4270 1c78 1721     		movs	r1, #23
 4271 1c7a 6C48     		ldr	r0, .L458+16
 4272 1c7c FFF7FEFF 		bl	e_send_uart2_char
 4273 1c80 00BF     		nop
 4274              	.L300:
 4275              		.loc 1 772 0 is_stmt 0 discriminator 2
 4276 1c82 FFF7FEFF 		bl	e_uart2_sending
 4277 1c86 0346     		mov	r3, r0
 4278 1c88 002B     		cmp	r3, #0
 4279 1c8a FAD1     		bne	.L300
 4280              		.loc 1 774 0 is_stmt 1
 4281 1c8c 1021     		movs	r1, #16
 4282 1c8e 6848     		ldr	r0, .L458+20
 4283 1c90 FFF7FEFF 		bl	e_send_uart2_char
 4284 1c94 00BF     		nop
 4285              	.L301:
 4286              		.loc 1 774 0 is_stmt 0 discriminator 2
 4287 1c96 FFF7FEFF 		bl	e_uart2_sending
 4288 1c9a 0346     		mov	r3, r0
 4289 1c9c 002B     		cmp	r3, #0
 4290 1c9e FAD1     		bne	.L301
 4291              		.loc 1 777 0 is_stmt 1
 4292 1ca0 2721     		movs	r1, #39
 4293 1ca2 6448     		ldr	r0, .L458+24
 4294 1ca4 FFF7FEFF 		bl	e_send_uart2_char
 4295 1ca8 00BF     		nop
 4296              	.L302:
 4297              		.loc 1 777 0 is_stmt 0 discriminator 2
 4298 1caa FFF7FEFF 		bl	e_uart2_sending
 4299 1cae 0346     		mov	r3, r0
 4300 1cb0 002B     		cmp	r3, #0
 4301 1cb2 FAD1     		bne	.L302
 4302              		.loc 1 778 0 is_stmt 1
 4303 1cb4 2B21     		movs	r1, #43
 4304 1cb6 6048     		ldr	r0, .L458+28
 4305 1cb8 FFF7FEFF 		bl	e_send_uart2_char
 4306 1cbc 00BF     		nop
 4307              	.L303:
 4308              		.loc 1 778 0 is_stmt 0 discriminator 2
 4309 1cbe FFF7FEFF 		bl	e_uart2_sending
ARM GAS  C:\Users\Moi\AppData\Local\Temp\ccAXdvuJ.s 			page 82


 4310 1cc2 0346     		mov	r3, r0
 4311 1cc4 002B     		cmp	r3, #0
 4312 1cc6 FAD1     		bne	.L303
 4313              		.loc 1 780 0 is_stmt 1
 4314 1cc8 1921     		movs	r1, #25
 4315 1cca 5C48     		ldr	r0, .L458+32
 4316 1ccc FFF7FEFF 		bl	e_send_uart2_char
 4317 1cd0 00BF     		nop
 4318              	.L304:
 4319              		.loc 1 780 0 is_stmt 0 discriminator 2
 4320 1cd2 FFF7FEFF 		bl	e_uart2_sending
 4321 1cd6 0346     		mov	r3, r0
 4322 1cd8 002B     		cmp	r3, #0
 4323 1cda FAD1     		bne	.L304
 4324              		.loc 1 782 0 is_stmt 1
 4325 1cdc 1521     		movs	r1, #21
 4326 1cde 5848     		ldr	r0, .L458+36
 4327 1ce0 FFF7FEFF 		bl	e_send_uart2_char
 4328 1ce4 00BF     		nop
 4329              	.L305:
 4330              		.loc 1 782 0 is_stmt 0 discriminator 2
 4331 1ce6 FFF7FEFF 		bl	e_uart2_sending
 4332 1cea 0346     		mov	r3, r0
 4333 1cec 002B     		cmp	r3, #0
 4334 1cee FAD1     		bne	.L305
 4335              		.loc 1 783 0 is_stmt 1
 4336 1cf0 1921     		movs	r1, #25
 4337 1cf2 5448     		ldr	r0, .L458+40
 4338 1cf4 FFF7FEFF 		bl	e_send_uart2_char
 4339 1cf8 00BF     		nop
 4340              	.L306:
 4341              		.loc 1 783 0 is_stmt 0 discriminator 2
 4342 1cfa FFF7FEFF 		bl	e_uart2_sending
 4343 1cfe 0346     		mov	r3, r0
 4344 1d00 002B     		cmp	r3, #0
 4345 1d02 FAD1     		bne	.L306
 4346              		.loc 1 784 0 is_stmt 1
 4347 1d04 2921     		movs	r1, #41
 4348 1d06 5048     		ldr	r0, .L458+44
 4349 1d08 FFF7FEFF 		bl	e_send_uart2_char
 4350 1d0c 00BF     		nop
 4351              	.L307:
 4352              		.loc 1 784 0 is_stmt 0 discriminator 2
 4353 1d0e FFF7FEFF 		bl	e_uart2_sending
 4354 1d12 0346     		mov	r3, r0
 4355 1d14 002B     		cmp	r3, #0
 4356 1d16 FAD1     		bne	.L307
 4357              		.loc 1 785 0 is_stmt 1
 4358 1d18 2921     		movs	r1, #41
 4359 1d1a 4C48     		ldr	r0, .L458+48
 4360 1d1c FFF7FEFF 		bl	e_send_uart2_char
 4361 1d20 00BF     		nop
 4362              	.L308:
 4363              		.loc 1 785 0 is_stmt 0 discriminator 2
 4364 1d22 FFF7FEFF 		bl	e_uart2_sending
 4365 1d26 0346     		mov	r3, r0
 4366 1d28 002B     		cmp	r3, #0
ARM GAS  C:\Users\Moi\AppData\Local\Temp\ccAXdvuJ.s 			page 83


 4367 1d2a FAD1     		bne	.L308
 4368              		.loc 1 786 0 is_stmt 1
 4369 1d2c 1821     		movs	r1, #24
 4370 1d2e 4848     		ldr	r0, .L458+52
 4371 1d30 FFF7FEFF 		bl	e_send_uart2_char
 4372 1d34 00BF     		nop
 4373              	.L309:
 4374              		.loc 1 786 0 is_stmt 0 discriminator 2
 4375 1d36 FFF7FEFF 		bl	e_uart2_sending
 4376 1d3a 0346     		mov	r3, r0
 4377 1d3c 002B     		cmp	r3, #0
 4378 1d3e FAD1     		bne	.L309
 4379              		.loc 1 787 0 is_stmt 1
 4380 1d40 2921     		movs	r1, #41
 4381 1d42 4448     		ldr	r0, .L458+56
 4382 1d44 FFF7FEFF 		bl	e_send_uart2_char
 4383 1d48 00BF     		nop
 4384              	.L310:
 4385              		.loc 1 787 0 is_stmt 0 discriminator 2
 4386 1d4a FFF7FEFF 		bl	e_uart2_sending
 4387 1d4e 0346     		mov	r3, r0
 4388 1d50 002B     		cmp	r3, #0
 4389 1d52 FAD1     		bne	.L310
 4390              		.loc 1 789 0 is_stmt 1
 4391 1d54 2421     		movs	r1, #36
 4392 1d56 4048     		ldr	r0, .L458+60
 4393 1d58 FFF7FEFF 		bl	e_send_uart2_char
 4394 1d5c 00BF     		nop
 4395              	.L311:
 4396              		.loc 1 789 0 is_stmt 0 discriminator 2
 4397 1d5e FFF7FEFF 		bl	e_uart2_sending
 4398 1d62 0346     		mov	r3, r0
 4399 1d64 002B     		cmp	r3, #0
 4400 1d66 FAD1     		bne	.L311
 4401              		.loc 1 790 0 is_stmt 1
 4402 1d68 1D21     		movs	r1, #29
 4403 1d6a 3C48     		ldr	r0, .L458+64
 4404 1d6c FFF7FEFF 		bl	e_send_uart2_char
 4405 1d70 00BF     		nop
 4406              	.L312:
 4407              		.loc 1 790 0 is_stmt 0 discriminator 2
 4408 1d72 FFF7FEFF 		bl	e_uart2_sending
 4409 1d76 0346     		mov	r3, r0
 4410 1d78 002B     		cmp	r3, #0
 4411 1d7a FAD1     		bne	.L312
 4412              		.loc 1 794 0 is_stmt 1
 4413 1d7c 00F0EDBD 		b	.L164
 4414              	.L194:
 4415              		.loc 1 796 0
 4416 1d80 0D9B     		ldr	r3, [sp, #52]
 4417 1d82 002B     		cmp	r3, #0
 4418 1d84 00F0D985 		beq	.L426
 4419              		.loc 1 797 0
 4420 1d88 354B     		ldr	r3, .L458+68
 4421 1d8a 1868     		ldr	r0, [r3]
 4422 1d8c 354B     		ldr	r3, .L458+72
 4423 1d8e 1C68     		ldr	r4, [r3]
ARM GAS  C:\Users\Moi\AppData\Local\Temp\ccAXdvuJ.s 			page 84


 4424 1d90 354B     		ldr	r3, .L458+76
 4425 1d92 1B68     		ldr	r3, [r3]
 4426 1d94 354A     		ldr	r2, .L458+80
 4427 1d96 1268     		ldr	r2, [r2]
 4428 1d98 3549     		ldr	r1, .L458+84
 4429 1d9a 0968     		ldr	r1, [r1]
 4430 1d9c 0291     		str	r1, [sp, #8]
 4431 1d9e 0192     		str	r2, [sp, #4]
 4432 1da0 0093     		str	r3, [sp]
 4433 1da2 2346     		mov	r3, r4
 4434 1da4 0246     		mov	r2, r0
 4435 1da6 3349     		ldr	r1, .L458+88
 4436 1da8 3348     		ldr	r0, .L458+92
 4437 1daa FFF7FEFF 		bl	sprintf
 4438              		.loc 1 798 0
 4439 1dae 3248     		ldr	r0, .L458+92
 4440 1db0 FFF7FEFF 		bl	strlen
 4441 1db4 0346     		mov	r3, r0
 4442 1db6 1946     		mov	r1, r3
 4443 1db8 2F48     		ldr	r0, .L458+92
 4444 1dba FFF7FEFF 		bl	e_send_uart1_char
 4445 1dbe 00BF     		nop
 4446              	.L314:
 4447              		.loc 1 798 0 is_stmt 0 discriminator 2
 4448 1dc0 FFF7FEFF 		bl	e_uart1_sending
 4449 1dc4 0346     		mov	r3, r0
 4450 1dc6 002B     		cmp	r3, #0
 4451 1dc8 FAD1     		bne	.L314
 4452              		.loc 1 800 0 is_stmt 1
 4453 1dca 00F0B6BD 		b	.L426
 4454              	.L195:
 4455              		.loc 1 802 0
 4456 1dce 0D9B     		ldr	r3, [sp, #52]
 4457 1dd0 002B     		cmp	r3, #0
 4458 1dd2 00F0B585 		beq	.L427
 4459              		.loc 1 803 0
 4460 1dd6 294B     		ldr	r3, .L458+96
 4461 1dd8 4FF0FF32 		mov	r2, #-1
 4462 1ddc 1A60     		str	r2, [r3]
 4463              		.loc 1 804 0
 4464 1dde 284B     		ldr	r3, .L458+100
 4465 1de0 4FF0FF32 		mov	r2, #-1
 4466 1de4 1A60     		str	r2, [r3]
 4467              		.loc 1 805 0
 4468 1de6 264B     		ldr	r3, .L458+100
 4469 1de8 0393     		str	r3, [sp, #12]
 4470 1dea 244B     		ldr	r3, .L458+96
 4471 1dec 0293     		str	r3, [sp, #8]
 4472 1dee 1F4B     		ldr	r3, .L458+80
 4473 1df0 0193     		str	r3, [sp, #4]
 4474 1df2 1D4B     		ldr	r3, .L458+76
 4475 1df4 0093     		str	r3, [sp]
 4476 1df6 1B4B     		ldr	r3, .L458+72
 4477 1df8 194A     		ldr	r2, .L458+68
 4478 1dfa 2249     		ldr	r1, .L458+104
 4479 1dfc 1E48     		ldr	r0, .L458+92
 4480 1dfe FFF7FEFF 		bl	sscanf
ARM GAS  C:\Users\Moi\AppData\Local\Temp\ccAXdvuJ.s 			page 85


 4481              		.loc 1 806 0
 4482 1e02 174B     		ldr	r3, .L458+68
 4483 1e04 1B68     		ldr	r3, [r3]
 4484 1e06 002B     		cmp	r3, #0
 4485 1e08 3ED1     		bne	.L316
 4486              		.loc 1 807 0
 4487 1e0a 164B     		ldr	r3, .L458+72
 4488 1e0c 1B68     		ldr	r3, [r3]
 4489 1e0e 164A     		ldr	r2, .L458+76
 4490 1e10 1268     		ldr	r2, [r2]
 4491 1e12 02FB03F3 		mul	r3, r2, r3
 4492 1e16 164A     		ldr	r2, .L458+84
 4493 1e18 1360     		str	r3, [r2]
 4494 1e1a 3EE0     		b	.L317
 4495              	.L459:
 4496              		.align	2
 4497              	.L458:
 4498 1e1c 24060000 		.word	.LC47
 4499 1e20 4C060000 		.word	.LC48
 4500 1e24 6C060000 		.word	.LC49
 4501 1e28 94060000 		.word	.LC50
 4502 1e2c BC060000 		.word	.LC51
 4503 1e30 D4060000 		.word	.LC52
 4504 1e34 E8060000 		.word	.LC53
 4505 1e38 10070000 		.word	.LC54
 4506 1e3c 3C070000 		.word	.LC55
 4507 1e40 58070000 		.word	.LC56
 4508 1e44 70070000 		.word	.LC57
 4509 1e48 8C070000 		.word	.LC58
 4510 1e4c B8070000 		.word	.LC59
 4511 1e50 E4070000 		.word	.LC60
 4512 1e54 00080000 		.word	.LC61
 4513 1e58 2C080000 		.word	.LC62
 4514 1e5c 54080000 		.word	.LC63
 4515 1e60 00000000 		.word	cam_mode.12679
 4516 1e64 00000000 		.word	cam_width.12680
 4517 1e68 00000000 		.word	cam_heigth.12681
 4518 1e6c 00000000 		.word	cam_zoom.12682
 4519 1e70 00000000 		.word	cam_size.12683
 4520 1e74 74080000 		.word	.LC64
 4521 1e78 00000000 		.word	buffer
 4522 1e7c 00000000 		.word	cam_x1.12684
 4523 1e80 00000000 		.word	cam_y1.12685
 4524 1e84 88080000 		.word	.LC65
 4525              	.L316:
 4526              		.loc 1 809 0
 4527 1e88 A74B     		ldr	r3, .L460
 4528 1e8a 1B68     		ldr	r3, [r3]
 4529 1e8c A74A     		ldr	r2, .L460+4
 4530 1e8e 1268     		ldr	r2, [r2]
 4531 1e90 02FB03F3 		mul	r3, r2, r3
 4532 1e94 5B00     		lsls	r3, r3, #1
 4533 1e96 A64A     		ldr	r2, .L460+8
 4534 1e98 1360     		str	r3, [r2]
 4535              	.L317:
 4536              		.loc 1 810 0
 4537 1e9a A54B     		ldr	r3, .L460+8
ARM GAS  C:\Users\Moi\AppData\Local\Temp\ccAXdvuJ.s 			page 86


 4538 1e9c 1B68     		ldr	r3, [r3]
 4539 1e9e 41F22B02 		movw	r2, #4139
 4540 1ea2 9342     		cmp	r3, r2
 4541 1ea4 11DD     		ble	.L318
 4542              		.loc 1 811 0
 4543 1ea6 A34B     		ldr	r3, .L460+12
 4544 1ea8 0122     		movs	r2, #1
 4545 1eaa 1A60     		str	r2, [r3]
 4546              		.loc 1 812 0
 4547 1eac 9E4B     		ldr	r3, .L460
 4548 1eae 2822     		movs	r2, #40
 4549 1eb0 1A60     		str	r2, [r3]
 4550              		.loc 1 813 0
 4551 1eb2 9E4B     		ldr	r3, .L460+4
 4552 1eb4 2822     		movs	r2, #40
 4553 1eb6 1A60     		str	r2, [r3]
 4554              		.loc 1 814 0
 4555 1eb8 9B4B     		ldr	r3, .L460
 4556 1eba 1B68     		ldr	r3, [r3]
 4557 1ebc 9B4A     		ldr	r2, .L460+4
 4558 1ebe 1268     		ldr	r2, [r2]
 4559 1ec0 02FB03F3 		mul	r3, r2, r3
 4560 1ec4 5B00     		lsls	r3, r3, #1
 4561 1ec6 9A4A     		ldr	r2, .L460+8
 4562 1ec8 1360     		str	r3, [r2]
 4563              	.L318:
 4564              		.loc 1 816 0
 4565 1eca FFF7FEFF 		bl	e_poxxxx_init_cam
 4566              		.loc 1 817 0
 4567 1ece 9A4B     		ldr	r3, .L460+16
 4568 1ed0 1B68     		ldr	r3, [r3]
 4569 1ed2 B3F1FF3F 		cmp	r3, #-1
 4570 1ed6 0DD1     		bne	.L319
 4571              		.loc 1 818 0
 4572 1ed8 934B     		ldr	r3, .L460
 4573 1eda 1B68     		ldr	r3, [r3]
 4574 1edc 974A     		ldr	r2, .L460+20
 4575 1ede 1268     		ldr	r2, [r2]
 4576 1ee0 02FB03F3 		mul	r3, r2, r3
 4577 1ee4 C3F52073 		rsb	r3, r3, #640
 4578 1ee8 DA0F     		lsrs	r2, r3, #31
 4579 1eea 1344     		add	r3, r3, r2
 4580 1eec 5B10     		asrs	r3, r3, #1
 4581 1eee 1A46     		mov	r2, r3
 4582 1ef0 914B     		ldr	r3, .L460+16
 4583 1ef2 1A60     		str	r2, [r3]
 4584              	.L319:
 4585              		.loc 1 820 0
 4586 1ef4 924B     		ldr	r3, .L460+24
 4587 1ef6 1B68     		ldr	r3, [r3]
 4588 1ef8 B3F1FF3F 		cmp	r3, #-1
 4589 1efc 0DD1     		bne	.L320
 4590              		.loc 1 821 0
 4591 1efe 8B4B     		ldr	r3, .L460+4
 4592 1f00 1B68     		ldr	r3, [r3]
 4593 1f02 8E4A     		ldr	r2, .L460+20
 4594 1f04 1268     		ldr	r2, [r2]
ARM GAS  C:\Users\Moi\AppData\Local\Temp\ccAXdvuJ.s 			page 87


 4595 1f06 02FB03F3 		mul	r3, r2, r3
 4596 1f0a C3F5F073 		rsb	r3, r3, #480
 4597 1f0e DA0F     		lsrs	r2, r3, #31
 4598 1f10 1344     		add	r3, r3, r2
 4599 1f12 5B10     		asrs	r3, r3, #1
 4600 1f14 1A46     		mov	r2, r3
 4601 1f16 8A4B     		ldr	r3, .L460+24
 4602 1f18 1A60     		str	r2, [r3]
 4603              	.L320:
 4604              		.loc 1 823 0
 4605 1f1a 874B     		ldr	r3, .L460+16
 4606 1f1c 1B68     		ldr	r3, [r3]
 4607 1f1e 1846     		mov	r0, r3
 4608 1f20 874B     		ldr	r3, .L460+24
 4609 1f22 1B68     		ldr	r3, [r3]
 4610 1f24 1C46     		mov	r4, r3
 4611 1f26 804B     		ldr	r3, .L460
 4612 1f28 1B68     		ldr	r3, [r3]
 4613 1f2a 844A     		ldr	r2, .L460+20
 4614 1f2c 1268     		ldr	r2, [r2]
 4615 1f2e 02FB03F3 		mul	r3, r2, r3
 4616 1f32 1D46     		mov	r5, r3
 4617 1f34 7D4B     		ldr	r3, .L460+4
 4618 1f36 1B68     		ldr	r3, [r3]
 4619 1f38 804A     		ldr	r2, .L460+20
 4620 1f3a 1268     		ldr	r2, [r2]
 4621 1f3c 02FB03F3 		mul	r3, r2, r3
 4622 1f40 1E46     		mov	r6, r3
 4623 1f42 7E4B     		ldr	r3, .L460+20
 4624 1f44 1B68     		ldr	r3, [r3]
 4625 1f46 1A46     		mov	r2, r3
 4626 1f48 7C4B     		ldr	r3, .L460+20
 4627 1f4a 1B68     		ldr	r3, [r3]
 4628 1f4c 1946     		mov	r1, r3
 4629 1f4e 794B     		ldr	r3, .L460+12
 4630 1f50 1B68     		ldr	r3, [r3]
 4631 1f52 0293     		str	r3, [sp, #8]
 4632 1f54 0191     		str	r1, [sp, #4]
 4633 1f56 0092     		str	r2, [sp]
 4634 1f58 3346     		mov	r3, r6
 4635 1f5a 2A46     		mov	r2, r5
 4636 1f5c 2146     		mov	r1, r4
 4637 1f5e FFF7FEFF 		bl	e_poxxxx_config_cam
 4638              		.loc 1 824 0
 4639 1f62 FFF7FEFF 		bl	e_poxxxx_write_cam_registers
 4640              		.loc 1 825 0
 4641 1f66 0321     		movs	r1, #3
 4642 1f68 7648     		ldr	r0, .L460+28
 4643 1f6a FFF7FEFF 		bl	e_send_uart1_char
 4644 1f6e 00BF     		nop
 4645              	.L321:
 4646              		.loc 1 825 0 is_stmt 0 discriminator 2
 4647 1f70 FFF7FEFF 		bl	e_uart1_sending
 4648 1f74 0346     		mov	r3, r0
 4649 1f76 002B     		cmp	r3, #0
 4650 1f78 FAD1     		bne	.L321
 4651              		.loc 1 827 0 is_stmt 1
ARM GAS  C:\Users\Moi\AppData\Local\Temp\ccAXdvuJ.s 			page 88


 4652 1f7a 00F0E1BC 		b	.L427
 4653              	.L196:
 4654              		.loc 1 829 0
 4655 1f7e 0D9B     		ldr	r3, [sp, #52]
 4656 1f80 002B     		cmp	r3, #0
 4657 1f82 0AD0     		beq	.L322
 4658              		.loc 1 830 0
 4659 1f84 3E21     		movs	r1, #62
 4660 1f86 7048     		ldr	r0, .L460+32
 4661 1f88 FFF7FEFF 		bl	e_send_uart1_char
 4662 1f8c 00BF     		nop
 4663              	.L323:
 4664              		.loc 1 830 0 is_stmt 0 discriminator 2
 4665 1f8e FFF7FEFF 		bl	e_uart1_sending
 4666 1f92 0346     		mov	r3, r0
 4667 1f94 002B     		cmp	r3, #0
 4668 1f96 FAD1     		bne	.L323
 4669 1f98 09E0     		b	.L324
 4670              	.L322:
 4671              		.loc 1 832 0 is_stmt 1
 4672 1f9a 3E21     		movs	r1, #62
 4673 1f9c 6A48     		ldr	r0, .L460+32
 4674 1f9e FFF7FEFF 		bl	e_send_uart2_char
 4675 1fa2 00BF     		nop
 4676              	.L325:
 4677              		.loc 1 832 0 is_stmt 0 discriminator 2
 4678 1fa4 FFF7FEFF 		bl	e_uart2_sending
 4679 1fa8 0346     		mov	r3, r0
 4680 1faa 002B     		cmp	r3, #0
 4681 1fac FAD1     		bne	.L325
 4682              	.L324:
 4683              		.loc 1 835 0 is_stmt 1
 4684 1fae 0121     		movs	r1, #1
 4685 1fb0 0820     		movs	r0, #8
 4686 1fb2 FFF7FEFF 		bl	e_set_led
 4687              		.loc 1 836 0
 4688 1fb6 0023     		movs	r3, #0
 4689 1fb8 0E93     		str	r3, [sp, #56]
 4690 1fba 02E0     		b	.L326
 4691              	.L327:
 4692              		.loc 1 836 0 is_stmt 0 discriminator 3
 4693 1fbc 0E9B     		ldr	r3, [sp, #56]
 4694 1fbe 0133     		adds	r3, r3, #1
 4695 1fc0 0E93     		str	r3, [sp, #56]
 4696              	.L326:
 4697              		.loc 1 836 0 discriminator 1
 4698 1fc2 0E9B     		ldr	r3, [sp, #56]
 4699 1fc4 614A     		ldr	r2, .L460+36
 4700 1fc6 9342     		cmp	r3, r2
 4701 1fc8 F8DD     		ble	.L327
 4702              		.loc 1 837 0 is_stmt 1
 4703 1fca 4FF4C870 		mov	r0, #400
 4704 1fce FFF7FEFF 		bl	chThdSleep
 4705              		.loc 1 838 0
 4706 1fd2 FFF7FEFF 		bl	e_led_clear
 4707              		.loc 1 839 0
 4708 1fd6 0023     		movs	r3, #0
ARM GAS  C:\Users\Moi\AppData\Local\Temp\ccAXdvuJ.s 			page 89


 4709 1fd8 0E93     		str	r3, [sp, #56]
 4710 1fda 02E0     		b	.L328
 4711              	.L329:
 4712              		.loc 1 839 0 is_stmt 0 discriminator 3
 4713 1fdc 0E9B     		ldr	r3, [sp, #56]
 4714 1fde 0133     		adds	r3, r3, #1
 4715 1fe0 0E93     		str	r3, [sp, #56]
 4716              	.L328:
 4717              		.loc 1 839 0 discriminator 1
 4718 1fe2 0E9B     		ldr	r3, [sp, #56]
 4719 1fe4 42F20F72 		movw	r2, #9999
 4720 1fe8 9342     		cmp	r3, r2
 4721 1fea F7DD     		ble	.L329
 4722              		.loc 1 840 0 is_stmt 1
 4723 1fec 6420     		movs	r0, #100
 4724 1fee FFF7FEFF 		bl	chThdSleep
 4725              		.loc 1 841 0
 4726 1ff2 FFF7FEFF 		bl	e_calibrate_ir
 4727              		.loc 1 842 0
 4728 1ff6 0D9B     		ldr	r3, [sp, #52]
 4729 1ff8 002B     		cmp	r3, #0
 4730 1ffa 0BD0     		beq	.L330
 4731              		.loc 1 843 0
 4732 1ffc 1921     		movs	r1, #25
 4733 1ffe 5448     		ldr	r0, .L460+40
 4734 2000 FFF7FEFF 		bl	e_send_uart1_char
 4735 2004 00BF     		nop
 4736              	.L331:
 4737              		.loc 1 843 0 is_stmt 0 discriminator 2
 4738 2006 FFF7FEFF 		bl	e_uart1_sending
 4739 200a 0346     		mov	r3, r0
 4740 200c 002B     		cmp	r3, #0
 4741 200e FAD1     		bne	.L331
 4742              		.loc 1 847 0 is_stmt 1
 4743 2010 00F0A3BC 		b	.L164
 4744              	.L330:
 4745              		.loc 1 845 0
 4746 2014 1921     		movs	r1, #25
 4747 2016 4E48     		ldr	r0, .L460+40
 4748 2018 FFF7FEFF 		bl	e_send_uart2_char
 4749 201c 00BF     		nop
 4750              	.L333:
 4751              		.loc 1 845 0 is_stmt 0 discriminator 2
 4752 201e FFF7FEFF 		bl	e_uart2_sending
 4753 2022 0346     		mov	r3, r0
 4754 2024 002B     		cmp	r3, #0
 4755 2026 FAD1     		bne	.L333
 4756              		.loc 1 847 0 is_stmt 1
 4757 2028 00F097BC 		b	.L164
 4758              	.L197:
 4759              		.loc 1 849 0
 4760 202c 494B     		ldr	r3, .L460+44
 4761 202e 4A4A     		ldr	r2, .L460+48
 4762 2030 4A49     		ldr	r1, .L460+52
 4763 2032 4B48     		ldr	r0, .L460+56
 4764 2034 FFF7FEFF 		bl	sscanf
 4765              		.loc 1 850 0
ARM GAS  C:\Users\Moi\AppData\Local\Temp\ccAXdvuJ.s 			page 90


 4766 2038 474B     		ldr	r3, .L460+48
 4767 203a 1B68     		ldr	r3, [r3]
 4768 203c 1A46     		mov	r2, r3
 4769 203e 454B     		ldr	r3, .L460+44
 4770 2040 1B68     		ldr	r3, [r3]
 4771 2042 1946     		mov	r1, r3
 4772 2044 1046     		mov	r0, r2
 4773 2046 FFF7FEFF 		bl	e_set_led
 4774              		.loc 1 851 0
 4775 204a 0D9B     		ldr	r3, [sp, #52]
 4776 204c 002B     		cmp	r3, #0
 4777 204e 0BD0     		beq	.L334
 4778              		.loc 1 852 0
 4779 2050 0321     		movs	r1, #3
 4780 2052 4448     		ldr	r0, .L460+60
 4781 2054 FFF7FEFF 		bl	e_send_uart1_char
 4782 2058 00BF     		nop
 4783              	.L335:
 4784              		.loc 1 852 0 is_stmt 0 discriminator 2
 4785 205a FFF7FEFF 		bl	e_uart1_sending
 4786 205e 0346     		mov	r3, r0
 4787 2060 002B     		cmp	r3, #0
 4788 2062 FAD1     		bne	.L335
 4789              		.loc 1 856 0 is_stmt 1
 4790 2064 00F079BC 		b	.L164
 4791              	.L334:
 4792              		.loc 1 854 0
 4793 2068 0321     		movs	r1, #3
 4794 206a 3E48     		ldr	r0, .L460+60
 4795 206c FFF7FEFF 		bl	e_send_uart2_char
 4796 2070 00BF     		nop
 4797              	.L337:
 4798              		.loc 1 854 0 is_stmt 0 discriminator 2
 4799 2072 FFF7FEFF 		bl	e_uart2_sending
 4800 2076 0346     		mov	r3, r0
 4801 2078 002B     		cmp	r3, #0
 4802 207a FAD1     		bne	.L337
 4803              		.loc 1 856 0 is_stmt 1
 4804 207c 00F06DBC 		b	.L164
 4805              	.L198:
 4806              		.loc 1 859 0
 4807 2080 0D9B     		ldr	r3, [sp, #52]
 4808 2082 002B     		cmp	r3, #0
 4809 2084 00F05F84 		beq	.L428
 4810              		.loc 1 860 0
 4811 2088 FFF7FEFF 		bl	e_i2cp_enable
 4812              		.loc 1 861 0
 4813 208c 364B     		ldr	r3, .L460+64
 4814 208e 0022     		movs	r2, #0
 4815 2090 1A60     		str	r2, [r3]
 4816 2092 29E0     		b	.L339
 4817              	.L342:
 4818              		.loc 1 862 0
 4819 2094 344B     		ldr	r3, .L460+64
 4820 2096 1B68     		ldr	r3, [r3]
 4821 2098 03F00103 		and	r3, r3, #1
 4822 209c 002B     		cmp	r3, #0
ARM GAS  C:\Users\Moi\AppData\Local\Temp\ccAXdvuJ.s 			page 91


 4823 209e 0FD1     		bne	.L340
 4824              		.loc 1 862 0 is_stmt 0 discriminator 1
 4825 20a0 314B     		ldr	r3, .L460+64
 4826 20a2 1B68     		ldr	r3, [r3]
 4827 20a4 DBB2     		uxtb	r3, r3
 4828 20a6 0133     		adds	r3, r3, #1
 4829 20a8 DAB2     		uxtb	r2, r3
 4830 20aa 2F4B     		ldr	r3, .L460+64
 4831 20ac 1C68     		ldr	r4, [r3]
 4832 20ae 1146     		mov	r1, r2
 4833 20b0 C020     		movs	r0, #192
 4834 20b2 FFF7FEFF 		bl	e_i2cp_read
 4835 20b6 0346     		mov	r3, r0
 4836 20b8 1A46     		mov	r2, r3
 4837 20ba 294B     		ldr	r3, .L460+56
 4838 20bc 1A55     		strb	r2, [r3, r4]
 4839 20be 0EE0     		b	.L341
 4840              	.L340:
 4841              		.loc 1 863 0 is_stmt 1
 4842 20c0 294B     		ldr	r3, .L460+64
 4843 20c2 1B68     		ldr	r3, [r3]
 4844 20c4 DBB2     		uxtb	r3, r3
 4845 20c6 013B     		subs	r3, r3, #1
 4846 20c8 DAB2     		uxtb	r2, r3
 4847 20ca 274B     		ldr	r3, .L460+64
 4848 20cc 1C68     		ldr	r4, [r3]
 4849 20ce 1146     		mov	r1, r2
 4850 20d0 C020     		movs	r0, #192
 4851 20d2 FFF7FEFF 		bl	e_i2cp_read
 4852 20d6 0346     		mov	r3, r0
 4853 20d8 1A46     		mov	r2, r3
 4854 20da 214B     		ldr	r3, .L460+56
 4855 20dc 1A55     		strb	r2, [r3, r4]
 4856              	.L341:
 4857              		.loc 1 861 0 discriminator 2
 4858 20de 224B     		ldr	r3, .L460+64
 4859 20e0 1B68     		ldr	r3, [r3]
 4860 20e2 0133     		adds	r3, r3, #1
 4861 20e4 204A     		ldr	r2, .L460+64
 4862 20e6 1360     		str	r3, [r2]
 4863              	.L339:
 4864              		.loc 1 861 0 is_stmt 0 discriminator 1
 4865 20e8 1F4B     		ldr	r3, .L460+64
 4866 20ea 1B68     		ldr	r3, [r3]
 4867 20ec 052B     		cmp	r3, #5
 4868 20ee D1DD     		ble	.L342
 4869              		.loc 1 866 0 is_stmt 1
 4870 20f0 1D4B     		ldr	r3, .L460+64
 4871 20f2 0D22     		movs	r2, #13
 4872 20f4 1A60     		str	r2, [r3]
 4873 20f6 4EE0     		b	.L343
 4874              	.L346:
 4875              		.loc 1 867 0
 4876 20f8 1B4B     		ldr	r3, .L460+64
 4877 20fa 1B68     		ldr	r3, [r3]
 4878 20fc 03F00103 		and	r3, r3, #1
 4879 2100 002B     		cmp	r3, #0
ARM GAS  C:\Users\Moi\AppData\Local\Temp\ccAXdvuJ.s 			page 92


 4880 2102 33D1     		bne	.L344
 4881              		.loc 1 867 0 is_stmt 0 discriminator 1
 4882 2104 184B     		ldr	r3, .L460+64
 4883 2106 1B68     		ldr	r3, [r3]
 4884 2108 DBB2     		uxtb	r3, r3
 4885 210a 013B     		subs	r3, r3, #1
 4886 210c DAB2     		uxtb	r2, r3
 4887 210e 164B     		ldr	r3, .L460+64
 4888 2110 1B68     		ldr	r3, [r3]
 4889 2112 DC1F     		subs	r4, r3, #7
 4890 2114 1146     		mov	r1, r2
 4891 2116 C020     		movs	r0, #192
 4892 2118 FFF7FEFF 		bl	e_i2cp_read
 4893 211c 0346     		mov	r3, r0
 4894 211e 1A46     		mov	r2, r3
 4895 2120 0F4B     		ldr	r3, .L460+56
 4896 2122 1A55     		strb	r2, [r3, r4]
 4897 2124 32E0     		b	.L345
 4898              	.L461:
 4899 2126 00BF     		.align	2
 4900              	.L460:
 4901 2128 00000000 		.word	cam_width.12680
 4902 212c 00000000 		.word	cam_heigth.12681
 4903 2130 00000000 		.word	cam_size.12683
 4904 2134 00000000 		.word	cam_mode.12679
 4905 2138 00000000 		.word	cam_x1.12684
 4906 213c 00000000 		.word	cam_zoom.12682
 4907 2140 00000000 		.word	cam_y1.12685
 4908 2144 A0080000 		.word	.LC66
 4909 2148 A4080000 		.word	.LC67
 4910 214c 3F420F00 		.word	999999
 4911 2150 E4080000 		.word	.LC68
 4912 2154 00000000 		.word	LED_action.12671
 4913 2158 00000000 		.word	LED_nbr.12670
 4914 215c 00090000 		.word	.LC69
 4915 2160 00000000 		.word	buffer
 4916 2164 0C090000 		.word	.LC70
 4917 2168 00000000 		.word	j.12664
 4918              	.L344:
 4919              		.loc 1 868 0 is_stmt 1
 4920 216c B14B     		ldr	r3, .L462
 4921 216e 1B68     		ldr	r3, [r3]
 4922 2170 DBB2     		uxtb	r3, r3
 4923 2172 0133     		adds	r3, r3, #1
 4924 2174 DAB2     		uxtb	r2, r3
 4925 2176 AF4B     		ldr	r3, .L462
 4926 2178 1B68     		ldr	r3, [r3]
 4927 217a DC1F     		subs	r4, r3, #7
 4928 217c 1146     		mov	r1, r2
 4929 217e C020     		movs	r0, #192
 4930 2180 FFF7FEFF 		bl	e_i2cp_read
 4931 2184 0346     		mov	r3, r0
 4932 2186 1A46     		mov	r2, r3
 4933 2188 AB4B     		ldr	r3, .L462+4
 4934 218a 1A55     		strb	r2, [r3, r4]
 4935              	.L345:
 4936              		.loc 1 866 0 discriminator 2
ARM GAS  C:\Users\Moi\AppData\Local\Temp\ccAXdvuJ.s 			page 93


 4937 218c A94B     		ldr	r3, .L462
 4938 218e 1B68     		ldr	r3, [r3]
 4939 2190 0133     		adds	r3, r3, #1
 4940 2192 A84A     		ldr	r2, .L462
 4941 2194 1360     		str	r3, [r2]
 4942              	.L343:
 4943              		.loc 1 866 0 is_stmt 0 discriminator 1
 4944 2196 A74B     		ldr	r3, .L462
 4945 2198 1B68     		ldr	r3, [r3]
 4946 219a 102B     		cmp	r3, #16
 4947 219c ACDD     		ble	.L346
 4948              		.loc 1 871 0 is_stmt 1
 4949 219e FFF7FEFF 		bl	e_i2cp_disable
 4950              		.loc 1 875 0
 4951 21a2 A54B     		ldr	r3, .L462+4
 4952 21a4 1B78     		ldrb	r3, [r3]	@ zero_extendqisi2
 4953 21a6 1A46     		mov	r2, r3
 4954              		.loc 1 876 0
 4955 21a8 A34B     		ldr	r3, .L462+4
 4956 21aa 5B78     		ldrb	r3, [r3, #1]	@ zero_extendqisi2
 4957 21ac 1B02     		lsls	r3, r3, #8
 4958              		.loc 1 874 0
 4959 21ae D018     		adds	r0, r2, r3
 4960              		.loc 1 877 0
 4961 21b0 A14B     		ldr	r3, .L462+4
 4962 21b2 9B78     		ldrb	r3, [r3, #2]	@ zero_extendqisi2
 4963 21b4 1A46     		mov	r2, r3
 4964              		.loc 1 878 0
 4965 21b6 A04B     		ldr	r3, .L462+4
 4966 21b8 DB78     		ldrb	r3, [r3, #3]	@ zero_extendqisi2
 4967 21ba 1B02     		lsls	r3, r3, #8
 4968              		.loc 1 874 0
 4969 21bc D418     		adds	r4, r2, r3
 4970              		.loc 1 879 0
 4971 21be 9E4B     		ldr	r3, .L462+4
 4972 21c0 1B79     		ldrb	r3, [r3, #4]	@ zero_extendqisi2
 4973 21c2 1A46     		mov	r2, r3
 4974              		.loc 1 880 0
 4975 21c4 9C4B     		ldr	r3, .L462+4
 4976 21c6 5B79     		ldrb	r3, [r3, #5]	@ zero_extendqisi2
 4977 21c8 1B02     		lsls	r3, r3, #8
 4978              		.loc 1 874 0
 4979 21ca 1344     		add	r3, r3, r2
 4980              		.loc 1 881 0
 4981 21cc 9A4A     		ldr	r2, .L462+4
 4982 21ce 9279     		ldrb	r2, [r2, #6]	@ zero_extendqisi2
 4983 21d0 1146     		mov	r1, r2
 4984              		.loc 1 882 0
 4985 21d2 994A     		ldr	r2, .L462+4
 4986 21d4 D279     		ldrb	r2, [r2, #7]	@ zero_extendqisi2
 4987 21d6 1202     		lsls	r2, r2, #8
 4988              		.loc 1 874 0
 4989 21d8 0A44     		add	r2, r2, r1
 4990              		.loc 1 883 0
 4991 21da 9749     		ldr	r1, .L462+4
 4992 21dc 097A     		ldrb	r1, [r1, #8]	@ zero_extendqisi2
 4993 21de 0D46     		mov	r5, r1
ARM GAS  C:\Users\Moi\AppData\Local\Temp\ccAXdvuJ.s 			page 94


 4994              		.loc 1 884 0
 4995 21e0 9549     		ldr	r1, .L462+4
 4996 21e2 497A     		ldrb	r1, [r1, #9]	@ zero_extendqisi2
 4997 21e4 0902     		lsls	r1, r1, #8
 4998              		.loc 1 874 0
 4999 21e6 2944     		add	r1, r1, r5
 5000 21e8 0291     		str	r1, [sp, #8]
 5001 21ea 0192     		str	r2, [sp, #4]
 5002 21ec 0093     		str	r3, [sp]
 5003 21ee 2346     		mov	r3, r4
 5004 21f0 0246     		mov	r2, r0
 5005 21f2 9249     		ldr	r1, .L462+8
 5006 21f4 9048     		ldr	r0, .L462+4
 5007 21f6 FFF7FEFF 		bl	sprintf
 5008              		.loc 1 894 0
 5009 21fa 8F48     		ldr	r0, .L462+4
 5010 21fc FFF7FEFF 		bl	strlen
 5011 2200 0346     		mov	r3, r0
 5012 2202 1946     		mov	r1, r3
 5013 2204 8C48     		ldr	r0, .L462+4
 5014 2206 FFF7FEFF 		bl	e_send_uart1_char
 5015 220a 00BF     		nop
 5016              	.L347:
 5017              		.loc 1 894 0 is_stmt 0 discriminator 2
 5018 220c FFF7FEFF 		bl	e_uart1_sending
 5019 2210 0346     		mov	r3, r0
 5020 2212 002B     		cmp	r3, #0
 5021 2214 FAD1     		bne	.L347
 5022              		.loc 1 903 0 is_stmt 1
 5023 2216 96E3     		b	.L428
 5024              	.L199:
 5025              		.loc 1 905 0
 5026 2218 0D9B     		ldr	r3, [sp, #52]
 5027 221a 002B     		cmp	r3, #0
 5028 221c 3BD0     		beq	.L348
 5029              		.loc 1 906 0
 5030 221e 0020     		movs	r0, #0
 5031 2220 FFF7FEFF 		bl	e_get_calibrated_prox
 5032 2224 8046     		mov	r8, r0
 5033 2226 0120     		movs	r0, #1
 5034 2228 FFF7FEFF 		bl	e_get_calibrated_prox
 5035 222c 8146     		mov	r9, r0
 5036 222e 0220     		movs	r0, #2
 5037 2230 FFF7FEFF 		bl	e_get_calibrated_prox
 5038 2234 0446     		mov	r4, r0
 5039 2236 0320     		movs	r0, #3
 5040 2238 FFF7FEFF 		bl	e_get_calibrated_prox
 5041 223c 0546     		mov	r5, r0
 5042 223e 0420     		movs	r0, #4
 5043 2240 FFF7FEFF 		bl	e_get_calibrated_prox
 5044 2244 0646     		mov	r6, r0
 5045 2246 0520     		movs	r0, #5
 5046 2248 FFF7FEFF 		bl	e_get_calibrated_prox
 5047 224c 0746     		mov	r7, r0
 5048 224e 0620     		movs	r0, #6
 5049 2250 FFF7FEFF 		bl	e_get_calibrated_prox
 5050 2254 0990     		str	r0, [sp, #36]
ARM GAS  C:\Users\Moi\AppData\Local\Temp\ccAXdvuJ.s 			page 95


 5051 2256 0720     		movs	r0, #7
 5052 2258 FFF7FEFF 		bl	e_get_calibrated_prox
 5053 225c 0346     		mov	r3, r0
 5054 225e 0593     		str	r3, [sp, #20]
 5055 2260 099B     		ldr	r3, [sp, #36]
 5056 2262 0493     		str	r3, [sp, #16]
 5057 2264 0397     		str	r7, [sp, #12]
 5058 2266 0296     		str	r6, [sp, #8]
 5059 2268 0195     		str	r5, [sp, #4]
 5060 226a 0094     		str	r4, [sp]
 5061 226c 4B46     		mov	r3, r9
 5062 226e 4246     		mov	r2, r8
 5063 2270 7349     		ldr	r1, .L462+12
 5064 2272 7148     		ldr	r0, .L462+4
 5065 2274 FFF7FEFF 		bl	sprintf
 5066              		.loc 1 909 0
 5067 2278 6F48     		ldr	r0, .L462+4
 5068 227a FFF7FEFF 		bl	strlen
 5069 227e 0346     		mov	r3, r0
 5070 2280 1946     		mov	r1, r3
 5071 2282 6D48     		ldr	r0, .L462+4
 5072 2284 FFF7FEFF 		bl	e_send_uart1_char
 5073 2288 00BF     		nop
 5074              	.L349:
 5075              		.loc 1 909 0 is_stmt 0 discriminator 2
 5076 228a FFF7FEFF 		bl	e_uart1_sending
 5077 228e 0346     		mov	r3, r0
 5078 2290 002B     		cmp	r3, #0
 5079 2292 FAD1     		bne	.L349
 5080              		.loc 1 917 0 is_stmt 1
 5081 2294 61E3     		b	.L164
 5082              	.L348:
 5083              		.loc 1 911 0
 5084 2296 0020     		movs	r0, #0
 5085 2298 FFF7FEFF 		bl	e_get_calibrated_prox
 5086 229c 8046     		mov	r8, r0
 5087 229e 0120     		movs	r0, #1
 5088 22a0 FFF7FEFF 		bl	e_get_calibrated_prox
 5089 22a4 8146     		mov	r9, r0
 5090 22a6 0220     		movs	r0, #2
 5091 22a8 FFF7FEFF 		bl	e_get_calibrated_prox
 5092 22ac 0446     		mov	r4, r0
 5093 22ae 0320     		movs	r0, #3
 5094 22b0 FFF7FEFF 		bl	e_get_calibrated_prox
 5095 22b4 0546     		mov	r5, r0
 5096 22b6 0420     		movs	r0, #4
 5097 22b8 FFF7FEFF 		bl	e_get_calibrated_prox
 5098 22bc 0646     		mov	r6, r0
 5099 22be 0520     		movs	r0, #5
 5100 22c0 FFF7FEFF 		bl	e_get_calibrated_prox
 5101 22c4 0746     		mov	r7, r0
 5102 22c6 0620     		movs	r0, #6
 5103 22c8 FFF7FEFF 		bl	e_get_calibrated_prox
 5104 22cc 0990     		str	r0, [sp, #36]
 5105 22ce 0720     		movs	r0, #7
 5106 22d0 FFF7FEFF 		bl	e_get_calibrated_prox
 5107 22d4 0A90     		str	r0, [sp, #40]
ARM GAS  C:\Users\Moi\AppData\Local\Temp\ccAXdvuJ.s 			page 96


 5108 22d6 0820     		movs	r0, #8
 5109 22d8 FFF7FEFF 		bl	e_get_calibrated_prox
 5110 22dc 0B90     		str	r0, [sp, #44]
 5111 22de 0920     		movs	r0, #9
 5112 22e0 FFF7FEFF 		bl	e_get_calibrated_prox
 5113 22e4 0346     		mov	r3, r0
 5114 22e6 0793     		str	r3, [sp, #28]
 5115 22e8 0B9B     		ldr	r3, [sp, #44]
 5116 22ea 0693     		str	r3, [sp, #24]
 5117 22ec 0A9B     		ldr	r3, [sp, #40]
 5118 22ee 0593     		str	r3, [sp, #20]
 5119 22f0 099B     		ldr	r3, [sp, #36]
 5120 22f2 0493     		str	r3, [sp, #16]
 5121 22f4 0397     		str	r7, [sp, #12]
 5122 22f6 0296     		str	r6, [sp, #8]
 5123 22f8 0195     		str	r5, [sp, #4]
 5124 22fa 0094     		str	r4, [sp]
 5125 22fc 4B46     		mov	r3, r9
 5126 22fe 4246     		mov	r2, r8
 5127 2300 5049     		ldr	r1, .L462+16
 5128 2302 4D48     		ldr	r0, .L462+4
 5129 2304 FFF7FEFF 		bl	sprintf
 5130              		.loc 1 915 0
 5131 2308 4B48     		ldr	r0, .L462+4
 5132 230a FFF7FEFF 		bl	strlen
 5133 230e 0346     		mov	r3, r0
 5134 2310 1946     		mov	r1, r3
 5135 2312 4948     		ldr	r0, .L462+4
 5136 2314 FFF7FEFF 		bl	e_send_uart2_char
 5137 2318 00BF     		nop
 5138              	.L351:
 5139              		.loc 1 915 0 is_stmt 0 discriminator 2
 5140 231a FFF7FEFF 		bl	e_uart2_sending
 5141 231e 0346     		mov	r3, r0
 5142 2320 002B     		cmp	r3, #0
 5143 2322 FAD1     		bne	.L351
 5144              		.loc 1 917 0 is_stmt 1
 5145 2324 19E3     		b	.L164
 5146              	.L200:
 5147              		.loc 1 919 0
 5148 2326 0D9B     		ldr	r3, [sp, #52]
 5149 2328 002B     		cmp	r3, #0
 5150 232a 3BD0     		beq	.L352
 5151              		.loc 1 920 0
 5152 232c 0020     		movs	r0, #0
 5153 232e FFF7FEFF 		bl	e_get_ambient_light
 5154 2332 8046     		mov	r8, r0
 5155 2334 0120     		movs	r0, #1
 5156 2336 FFF7FEFF 		bl	e_get_ambient_light
 5157 233a 8146     		mov	r9, r0
 5158 233c 0220     		movs	r0, #2
 5159 233e FFF7FEFF 		bl	e_get_ambient_light
 5160 2342 0446     		mov	r4, r0
 5161 2344 0320     		movs	r0, #3
 5162 2346 FFF7FEFF 		bl	e_get_ambient_light
 5163 234a 0546     		mov	r5, r0
 5164 234c 0420     		movs	r0, #4
ARM GAS  C:\Users\Moi\AppData\Local\Temp\ccAXdvuJ.s 			page 97


 5165 234e FFF7FEFF 		bl	e_get_ambient_light
 5166 2352 0646     		mov	r6, r0
 5167 2354 0520     		movs	r0, #5
 5168 2356 FFF7FEFF 		bl	e_get_ambient_light
 5169 235a 0746     		mov	r7, r0
 5170 235c 0620     		movs	r0, #6
 5171 235e FFF7FEFF 		bl	e_get_ambient_light
 5172 2362 0990     		str	r0, [sp, #36]
 5173 2364 0720     		movs	r0, #7
 5174 2366 FFF7FEFF 		bl	e_get_ambient_light
 5175 236a 0346     		mov	r3, r0
 5176 236c 0593     		str	r3, [sp, #20]
 5177 236e 099B     		ldr	r3, [sp, #36]
 5178 2370 0493     		str	r3, [sp, #16]
 5179 2372 0397     		str	r7, [sp, #12]
 5180 2374 0296     		str	r6, [sp, #8]
 5181 2376 0195     		str	r5, [sp, #4]
 5182 2378 0094     		str	r4, [sp]
 5183 237a 4B46     		mov	r3, r9
 5184 237c 4246     		mov	r2, r8
 5185 237e 3249     		ldr	r1, .L462+20
 5186 2380 2D48     		ldr	r0, .L462+4
 5187 2382 FFF7FEFF 		bl	sprintf
 5188              		.loc 1 923 0
 5189 2386 2C48     		ldr	r0, .L462+4
 5190 2388 FFF7FEFF 		bl	strlen
 5191 238c 0346     		mov	r3, r0
 5192 238e 1946     		mov	r1, r3
 5193 2390 2948     		ldr	r0, .L462+4
 5194 2392 FFF7FEFF 		bl	e_send_uart1_char
 5195 2396 00BF     		nop
 5196              	.L353:
 5197              		.loc 1 923 0 is_stmt 0 discriminator 2
 5198 2398 FFF7FEFF 		bl	e_uart1_sending
 5199 239c 0346     		mov	r3, r0
 5200 239e 002B     		cmp	r3, #0
 5201 23a0 FAD1     		bne	.L353
 5202              		.loc 1 931 0 is_stmt 1
 5203 23a2 DAE2     		b	.L164
 5204              	.L352:
 5205              		.loc 1 925 0
 5206 23a4 0020     		movs	r0, #0
 5207 23a6 FFF7FEFF 		bl	e_get_ambient_light
 5208 23aa 8046     		mov	r8, r0
 5209 23ac 0120     		movs	r0, #1
 5210 23ae FFF7FEFF 		bl	e_get_ambient_light
 5211 23b2 8146     		mov	r9, r0
 5212 23b4 0220     		movs	r0, #2
 5213 23b6 FFF7FEFF 		bl	e_get_ambient_light
 5214 23ba 0446     		mov	r4, r0
 5215 23bc 0320     		movs	r0, #3
 5216 23be FFF7FEFF 		bl	e_get_ambient_light
 5217 23c2 0546     		mov	r5, r0
 5218 23c4 0420     		movs	r0, #4
 5219 23c6 FFF7FEFF 		bl	e_get_ambient_light
 5220 23ca 0646     		mov	r6, r0
 5221 23cc 0520     		movs	r0, #5
ARM GAS  C:\Users\Moi\AppData\Local\Temp\ccAXdvuJ.s 			page 98


 5222 23ce FFF7FEFF 		bl	e_get_ambient_light
 5223 23d2 0746     		mov	r7, r0
 5224 23d4 0620     		movs	r0, #6
 5225 23d6 FFF7FEFF 		bl	e_get_ambient_light
 5226 23da 0990     		str	r0, [sp, #36]
 5227 23dc 0720     		movs	r0, #7
 5228 23de FFF7FEFF 		bl	e_get_ambient_light
 5229 23e2 0A90     		str	r0, [sp, #40]
 5230 23e4 0820     		movs	r0, #8
 5231 23e6 FFF7FEFF 		bl	e_get_ambient_light
 5232 23ea 0B90     		str	r0, [sp, #44]
 5233 23ec 0920     		movs	r0, #9
 5234 23ee FFF7FEFF 		bl	e_get_ambient_light
 5235 23f2 0346     		mov	r3, r0
 5236 23f4 0793     		str	r3, [sp, #28]
 5237 23f6 0B9B     		ldr	r3, [sp, #44]
 5238 23f8 0693     		str	r3, [sp, #24]
 5239 23fa 0A9B     		ldr	r3, [sp, #40]
 5240 23fc 0593     		str	r3, [sp, #20]
 5241 23fe 099B     		ldr	r3, [sp, #36]
 5242 2400 0493     		str	r3, [sp, #16]
 5243 2402 0397     		str	r7, [sp, #12]
 5244 2404 0296     		str	r6, [sp, #8]
 5245 2406 0195     		str	r5, [sp, #4]
 5246 2408 0094     		str	r4, [sp]
 5247 240a 4B46     		mov	r3, r9
 5248 240c 4246     		mov	r2, r8
 5249 240e 0F49     		ldr	r1, .L462+24
 5250 2410 0948     		ldr	r0, .L462+4
 5251 2412 FFF7FEFF 		bl	sprintf
 5252              		.loc 1 929 0
 5253 2416 0848     		ldr	r0, .L462+4
 5254 2418 FFF7FEFF 		bl	strlen
 5255 241c 0346     		mov	r3, r0
 5256 241e 1946     		mov	r1, r3
 5257 2420 0548     		ldr	r0, .L462+4
 5258 2422 FFF7FEFF 		bl	e_send_uart2_char
 5259 2426 00BF     		nop
 5260              	.L355:
 5261              		.loc 1 929 0 is_stmt 0 discriminator 2
 5262 2428 FFF7FEFF 		bl	e_uart2_sending
 5263 242c 0346     		mov	r3, r0
 5264 242e 002B     		cmp	r3, #0
 5265 2430 FAD1     		bne	.L355
 5266              		.loc 1 931 0 is_stmt 1
 5267 2432 92E2     		b	.L164
 5268              	.L463:
 5269              		.align	2
 5270              	.L462:
 5271 2434 00000000 		.word	j.12664
 5272 2438 00000000 		.word	buffer
 5273 243c 10090000 		.word	.LC71
 5274 2440 24090000 		.word	.LC72
 5275 2444 40090000 		.word	.LC73
 5276 2448 64090000 		.word	.LC74
 5277 244c 80090000 		.word	.LC75
 5278              	.L201:
ARM GAS  C:\Users\Moi\AppData\Local\Temp\ccAXdvuJ.s 			page 99


 5279              		.loc 1 933 0
 5280 2450 C34B     		ldr	r3, .L464
 5281 2452 C44A     		ldr	r2, .L464+4
 5282 2454 C449     		ldr	r1, .L464+8
 5283 2456 C548     		ldr	r0, .L464+12
 5284 2458 FFF7FEFF 		bl	sscanf
 5285              		.loc 1 934 0
 5286 245c C14B     		ldr	r3, .L464+4
 5287 245e 1B68     		ldr	r3, [r3]
 5288 2460 1846     		mov	r0, r3
 5289 2462 FFF7FEFF 		bl	e_set_steps_left
 5290              		.loc 1 935 0
 5291 2466 BE4B     		ldr	r3, .L464
 5292 2468 1B68     		ldr	r3, [r3]
 5293 246a 1846     		mov	r0, r3
 5294 246c FFF7FEFF 		bl	e_set_steps_right
 5295              		.loc 1 936 0
 5296 2470 0D9B     		ldr	r3, [sp, #52]
 5297 2472 002B     		cmp	r3, #0
 5298 2474 0AD0     		beq	.L356
 5299              		.loc 1 937 0
 5300 2476 0321     		movs	r1, #3
 5301 2478 BD48     		ldr	r0, .L464+16
 5302 247a FFF7FEFF 		bl	e_send_uart1_char
 5303 247e 00BF     		nop
 5304              	.L357:
 5305              		.loc 1 937 0 is_stmt 0 discriminator 2
 5306 2480 FFF7FEFF 		bl	e_uart1_sending
 5307 2484 0346     		mov	r3, r0
 5308 2486 002B     		cmp	r3, #0
 5309 2488 FAD1     		bne	.L357
 5310              		.loc 1 941 0 is_stmt 1
 5311 248a 66E2     		b	.L164
 5312              	.L356:
 5313              		.loc 1 939 0
 5314 248c 0321     		movs	r1, #3
 5315 248e B848     		ldr	r0, .L464+16
 5316 2490 FFF7FEFF 		bl	e_send_uart2_char
 5317 2494 00BF     		nop
 5318              	.L359:
 5319              		.loc 1 939 0 is_stmt 0 discriminator 2
 5320 2496 FFF7FEFF 		bl	e_uart2_sending
 5321 249a 0346     		mov	r3, r0
 5322 249c 002B     		cmp	r3, #0
 5323 249e FAD1     		bne	.L359
 5324              		.loc 1 941 0 is_stmt 1
 5325 24a0 5BE2     		b	.L164
 5326              	.L202:
 5327              		.loc 1 943 0
 5328 24a2 FFF7FEFF 		bl	e_get_steps_left
 5329 24a6 0446     		mov	r4, r0
 5330 24a8 FFF7FEFF 		bl	e_get_steps_right
 5331 24ac 0346     		mov	r3, r0
 5332 24ae 2246     		mov	r2, r4
 5333 24b0 B049     		ldr	r1, .L464+20
 5334 24b2 AE48     		ldr	r0, .L464+12
 5335 24b4 FFF7FEFF 		bl	sprintf
ARM GAS  C:\Users\Moi\AppData\Local\Temp\ccAXdvuJ.s 			page 100


 5336              		.loc 1 944 0
 5337 24b8 0D9B     		ldr	r3, [sp, #52]
 5338 24ba 002B     		cmp	r3, #0
 5339 24bc 0ED0     		beq	.L360
 5340              		.loc 1 945 0
 5341 24be AB48     		ldr	r0, .L464+12
 5342 24c0 FFF7FEFF 		bl	strlen
 5343 24c4 0346     		mov	r3, r0
 5344 24c6 1946     		mov	r1, r3
 5345 24c8 A848     		ldr	r0, .L464+12
 5346 24ca FFF7FEFF 		bl	e_send_uart1_char
 5347 24ce 00BF     		nop
 5348              	.L361:
 5349              		.loc 1 945 0 is_stmt 0 discriminator 2
 5350 24d0 FFF7FEFF 		bl	e_uart1_sending
 5351 24d4 0346     		mov	r3, r0
 5352 24d6 002B     		cmp	r3, #0
 5353 24d8 FAD1     		bne	.L361
 5354              		.loc 1 949 0 is_stmt 1
 5355 24da 3EE2     		b	.L164
 5356              	.L360:
 5357              		.loc 1 947 0
 5358 24dc A348     		ldr	r0, .L464+12
 5359 24de FFF7FEFF 		bl	strlen
 5360 24e2 0346     		mov	r3, r0
 5361 24e4 1946     		mov	r1, r3
 5362 24e6 A148     		ldr	r0, .L464+12
 5363 24e8 FFF7FEFF 		bl	e_send_uart2_char
 5364 24ec 00BF     		nop
 5365              	.L363:
 5366              		.loc 1 947 0 is_stmt 0 discriminator 2
 5367 24ee FFF7FEFF 		bl	e_uart2_sending
 5368 24f2 0346     		mov	r3, r0
 5369 24f4 002B     		cmp	r3, #0
 5370 24f6 FAD1     		bne	.L363
 5371              		.loc 1 949 0 is_stmt 1
 5372 24f8 2FE2     		b	.L164
 5373              	.L204:
 5374              		.loc 1 959 0
 5375 24fa 0020     		movs	r0, #0
 5376 24fc FFF7FEFF 		bl	e_set_speed_left
 5377              		.loc 1 960 0
 5378 2500 0020     		movs	r0, #0
 5379 2502 FFF7FEFF 		bl	e_set_speed_right
 5380              		.loc 1 961 0
 5381 2506 0021     		movs	r1, #0
 5382 2508 0820     		movs	r0, #8
 5383 250a FFF7FEFF 		bl	e_set_led
 5384              		.loc 1 962 0
 5385 250e 0D9B     		ldr	r3, [sp, #52]
 5386 2510 002B     		cmp	r3, #0
 5387 2512 0AD0     		beq	.L364
 5388              		.loc 1 963 0
 5389 2514 0321     		movs	r1, #3
 5390 2516 9848     		ldr	r0, .L464+24
 5391 2518 FFF7FEFF 		bl	e_send_uart1_char
 5392 251c 00BF     		nop
ARM GAS  C:\Users\Moi\AppData\Local\Temp\ccAXdvuJ.s 			page 101


 5393              	.L365:
 5394              		.loc 1 963 0 is_stmt 0 discriminator 2
 5395 251e FFF7FEFF 		bl	e_uart1_sending
 5396 2522 0346     		mov	r3, r0
 5397 2524 002B     		cmp	r3, #0
 5398 2526 FAD1     		bne	.L365
 5399              		.loc 1 967 0 is_stmt 1
 5400 2528 17E2     		b	.L164
 5401              	.L364:
 5402              		.loc 1 965 0
 5403 252a 0321     		movs	r1, #3
 5404 252c 9248     		ldr	r0, .L464+24
 5405 252e FFF7FEFF 		bl	e_send_uart2_char
 5406 2532 00BF     		nop
 5407              	.L367:
 5408              		.loc 1 965 0 is_stmt 0 discriminator 2
 5409 2534 FFF7FEFF 		bl	e_uart2_sending
 5410 2538 0346     		mov	r3, r0
 5411 253a 002B     		cmp	r3, #0
 5412 253c FAD1     		bne	.L367
 5413              		.loc 1 967 0 is_stmt 1
 5414 253e 0CE2     		b	.L164
 5415              	.L205:
 5416              		.loc 1 969 0
 5417 2540 0D9B     		ldr	r3, [sp, #52]
 5418 2542 002B     		cmp	r3, #0
 5419 2544 53D0     		beq	.L368
 5420              		.loc 1 970 0
 5421 2546 8D4A     		ldr	r2, .L464+28
 5422 2548 8D49     		ldr	r1, .L464+32
 5423 254a 8848     		ldr	r0, .L464+12
 5424 254c FFF7FEFF 		bl	sscanf
 5425              		.loc 1 971 0
 5426 2550 8C4B     		ldr	r3, .L464+36
 5427 2552 1B78     		ldrb	r3, [r3]	@ zero_extendqisi2
 5428 2554 002B     		cmp	r3, #0
 5429 2556 04D1     		bne	.L369
 5430              		.loc 1 972 0
 5431 2558 FFF7FEFF 		bl	e_init_sound
 5432              		.loc 1 973 0
 5433 255c 894B     		ldr	r3, .L464+36
 5434 255e 0122     		movs	r2, #1
 5435 2560 1A70     		strb	r2, [r3]
 5436              	.L369:
 5437              		.loc 1 975 0
 5438 2562 864B     		ldr	r3, .L464+28
 5439 2564 1B68     		ldr	r3, [r3]
 5440 2566 013B     		subs	r3, r3, #1
 5441 2568 042B     		cmp	r3, #4
 5442 256a 2DD8     		bhi	.L370
 5443 256c 01A2     		adr	r2, .L372
 5444 256e 52F823F0 		ldr	pc, [r2, r3, lsl #2]
 5445 2572 00BF     		.p2align 2
 5446              	.L372:
 5447 2574 89250000 		.word	.L371+1
 5448 2578 95250000 		.word	.L373+1
 5449 257c A1250000 		.word	.L374+1
ARM GAS  C:\Users\Moi\AppData\Local\Temp\ccAXdvuJ.s 			page 102


 5450 2580 AD250000 		.word	.L375+1
 5451 2584 BB250000 		.word	.L376+1
 5452              		.p2align 1
 5453              	.L371:
 5454              		.loc 1 976 0
 5455 2588 0022     		movs	r2, #0
 5456 258a 0221     		movs	r1, #2
 5457 258c 0320     		movs	r0, #3
 5458 258e FFF7FEFF 		bl	playMelody
 5459              		.loc 1 977 0
 5460 2592 21E0     		b	.L377
 5461              	.L373:
 5462              		.loc 1 978 0
 5463 2594 0022     		movs	r2, #0
 5464 2596 0221     		movs	r1, #2
 5465 2598 0420     		movs	r0, #4
 5466 259a FFF7FEFF 		bl	playMelody
 5467              		.loc 1 979 0
 5468 259e 1BE0     		b	.L377
 5469              	.L374:
 5470              		.loc 1 980 0
 5471 25a0 0022     		movs	r2, #0
 5472 25a2 0221     		movs	r1, #2
 5473 25a4 0B20     		movs	r0, #11
 5474 25a6 FFF7FEFF 		bl	playMelody
 5475              		.loc 1 981 0
 5476 25aa 15E0     		b	.L377
 5477              	.L375:
 5478              		.loc 1 982 0
 5479 25ac 40F69461 		movw	r1, #3732
 5480 25b0 41F67E40 		movw	r0, #7294
 5481 25b4 FFF7FEFF 		bl	e_play_sound
 5482              		.loc 1 983 0
 5483 25b8 0EE0     		b	.L377
 5484              	.L376:
 5485              		.loc 1 984 0
 5486 25ba 41F65071 		movw	r1, #8016
 5487 25be 42F61430 		movw	r0, #11028
 5488 25c2 FFF7FEFF 		bl	e_play_sound
 5489              		.loc 1 985 0
 5490 25c6 07E0     		b	.L377
 5491              	.L370:
 5492              		.loc 1 987 0
 5493 25c8 FFF7FEFF 		bl	e_close_sound
 5494              		.loc 1 988 0
 5495 25cc FFF7FEFF 		bl	stopCurrentMelody
 5496              		.loc 1 989 0
 5497 25d0 6C4B     		ldr	r3, .L464+36
 5498 25d2 0022     		movs	r2, #0
 5499 25d4 1A70     		strb	r2, [r3]
 5500              		.loc 1 990 0
 5501 25d6 00BF     		nop
 5502              	.L377:
 5503              		.loc 1 992 0
 5504 25d8 0321     		movs	r1, #3
 5505 25da 6B48     		ldr	r0, .L464+40
 5506 25dc FFF7FEFF 		bl	e_send_uart1_char
ARM GAS  C:\Users\Moi\AppData\Local\Temp\ccAXdvuJ.s 			page 103


 5507 25e0 00BF     		nop
 5508              	.L378:
 5509              		.loc 1 992 0 is_stmt 0 discriminator 2
 5510 25e2 FFF7FEFF 		bl	e_uart1_sending
 5511 25e6 0346     		mov	r3, r0
 5512 25e8 002B     		cmp	r3, #0
 5513 25ea FAD1     		bne	.L378
 5514              		.loc 1 996 0 is_stmt 1
 5515 25ec B5E1     		b	.L164
 5516              	.L368:
 5517              		.loc 1 994 0
 5518 25ee 0321     		movs	r1, #3
 5519 25f0 6548     		ldr	r0, .L464+40
 5520 25f2 FFF7FEFF 		bl	e_send_uart2_char
 5521 25f6 00BF     		nop
 5522              	.L380:
 5523              		.loc 1 994 0 is_stmt 0 discriminator 2
 5524 25f8 FFF7FEFF 		bl	e_uart2_sending
 5525 25fc 0346     		mov	r3, r0
 5526 25fe 002B     		cmp	r3, #0
 5527 2600 FAD1     		bne	.L380
 5528              		.loc 1 996 0 is_stmt 1
 5529 2602 AAE1     		b	.L164
 5530              	.L213:
 5531              		.loc 1 999 0
 5532 2604 0D9B     		ldr	r3, [sp, #52]
 5533 2606 002B     		cmp	r3, #0
 5534 2608 0DD0     		beq	.L381
 5535              		.loc 1 999 0 is_stmt 0 discriminator 1
 5536 260a FFF7FEFF 		bl	isEpuckVersion1_3
 5537 260e 0346     		mov	r3, r0
 5538 2610 002B     		cmp	r3, #0
 5539 2612 08D0     		beq	.L381
 5540              		.loc 1 1000 0 is_stmt 1
 5541 2614 FFF7FEFF 		bl	getTemperature
 5542 2618 0346     		mov	r3, r0
 5543 261a 1A46     		mov	r2, r3
 5544 261c 5B49     		ldr	r1, .L464+44
 5545 261e 5348     		ldr	r0, .L464+12
 5546 2620 FFF7FEFF 		bl	sprintf
 5547 2624 06E0     		b	.L382
 5548              	.L381:
 5549              		.loc 1 1002 0
 5550 2626 514B     		ldr	r3, .L464+12
 5551 2628 594A     		ldr	r2, .L464+48
 5552 262a 92E80300 		ldm	r2, {r0, r1}
 5553 262e 1860     		str	r0, [r3]
 5554 2630 0433     		adds	r3, r3, #4
 5555 2632 1980     		strh	r1, [r3]	@ movhi
 5556              	.L382:
 5557              		.loc 1 1004 0
 5558 2634 0D9B     		ldr	r3, [sp, #52]
 5559 2636 002B     		cmp	r3, #0
 5560 2638 0ED0     		beq	.L383
 5561              		.loc 1 1005 0
 5562 263a 4C48     		ldr	r0, .L464+12
 5563 263c FFF7FEFF 		bl	strlen
ARM GAS  C:\Users\Moi\AppData\Local\Temp\ccAXdvuJ.s 			page 104


 5564 2640 0346     		mov	r3, r0
 5565 2642 1946     		mov	r1, r3
 5566 2644 4948     		ldr	r0, .L464+12
 5567 2646 FFF7FEFF 		bl	e_send_uart1_char
 5568 264a 00BF     		nop
 5569              	.L384:
 5570              		.loc 1 1005 0 is_stmt 0 discriminator 2
 5571 264c FFF7FEFF 		bl	e_uart1_sending
 5572 2650 0346     		mov	r3, r0
 5573 2652 002B     		cmp	r3, #0
 5574 2654 FAD1     		bne	.L384
 5575              		.loc 1 1009 0 is_stmt 1
 5576 2656 80E1     		b	.L164
 5577              	.L383:
 5578              		.loc 1 1007 0
 5579 2658 4448     		ldr	r0, .L464+12
 5580 265a FFF7FEFF 		bl	strlen
 5581 265e 0346     		mov	r3, r0
 5582 2660 1946     		mov	r1, r3
 5583 2662 4248     		ldr	r0, .L464+12
 5584 2664 FFF7FEFF 		bl	e_send_uart2_char
 5585 2668 00BF     		nop
 5586              	.L386:
 5587              		.loc 1 1007 0 is_stmt 0 discriminator 2
 5588 266a FFF7FEFF 		bl	e_uart2_sending
 5589 266e 0346     		mov	r3, r0
 5590 2670 002B     		cmp	r3, #0
 5591 2672 FAD1     		bne	.L386
 5592              		.loc 1 1009 0 is_stmt 1
 5593 2674 71E1     		b	.L164
 5594              	.L206:
 5595              		.loc 1 1012 0
 5596 2676 0020     		movs	r0, #0
 5597 2678 FFF7FEFF 		bl	e_get_micro_volume
 5598 267c 0446     		mov	r4, r0
 5599 267e 0120     		movs	r0, #1
 5600 2680 FFF7FEFF 		bl	e_get_micro_volume
 5601 2684 0546     		mov	r5, r0
 5602 2686 0220     		movs	r0, #2
 5603 2688 FFF7FEFF 		bl	e_get_micro_volume
 5604 268c 0346     		mov	r3, r0
 5605 268e 0093     		str	r3, [sp]
 5606 2690 2B46     		mov	r3, r5
 5607 2692 2246     		mov	r2, r4
 5608 2694 3F49     		ldr	r1, .L464+52
 5609 2696 3548     		ldr	r0, .L464+12
 5610 2698 FFF7FEFF 		bl	sprintf
 5611              		.loc 1 1013 0
 5612 269c 0D9B     		ldr	r3, [sp, #52]
 5613 269e 002B     		cmp	r3, #0
 5614 26a0 0ED0     		beq	.L387
 5615              		.loc 1 1014 0
 5616 26a2 3248     		ldr	r0, .L464+12
 5617 26a4 FFF7FEFF 		bl	strlen
 5618 26a8 0346     		mov	r3, r0
 5619 26aa 1946     		mov	r1, r3
 5620 26ac 2F48     		ldr	r0, .L464+12
ARM GAS  C:\Users\Moi\AppData\Local\Temp\ccAXdvuJ.s 			page 105


 5621 26ae FFF7FEFF 		bl	e_send_uart1_char
 5622 26b2 00BF     		nop
 5623              	.L388:
 5624              		.loc 1 1014 0 is_stmt 0 discriminator 2
 5625 26b4 FFF7FEFF 		bl	e_uart1_sending
 5626 26b8 0346     		mov	r3, r0
 5627 26ba 002B     		cmp	r3, #0
 5628 26bc FAD1     		bne	.L388
 5629              		.loc 1 1018 0 is_stmt 1
 5630 26be 4CE1     		b	.L164
 5631              	.L387:
 5632              		.loc 1 1016 0
 5633 26c0 2A48     		ldr	r0, .L464+12
 5634 26c2 FFF7FEFF 		bl	strlen
 5635 26c6 0346     		mov	r3, r0
 5636 26c8 1946     		mov	r1, r3
 5637 26ca 2848     		ldr	r0, .L464+12
 5638 26cc FFF7FEFF 		bl	e_send_uart2_char
 5639 26d0 00BF     		nop
 5640              	.L390:
 5641              		.loc 1 1016 0 is_stmt 0 discriminator 2
 5642 26d2 FFF7FEFF 		bl	e_uart2_sending
 5643 26d6 0346     		mov	r3, r0
 5644 26d8 002B     		cmp	r3, #0
 5645 26da FAD1     		bne	.L390
 5646              		.loc 1 1018 0 is_stmt 1
 5647 26dc 3DE1     		b	.L164
 5648              	.L207:
 5649              		.loc 1 1020 0
 5650 26de 0D9B     		ldr	r3, [sp, #52]
 5651 26e0 002B     		cmp	r3, #0
 5652 26e2 0AD0     		beq	.L391
 5653              		.loc 1 1021 0
 5654 26e4 2621     		movs	r1, #38
 5655 26e6 2C48     		ldr	r0, .L464+56
 5656 26e8 FFF7FEFF 		bl	e_send_uart1_char
 5657 26ec 00BF     		nop
 5658              	.L392:
 5659              		.loc 1 1021 0 is_stmt 0 discriminator 2
 5660 26ee FFF7FEFF 		bl	e_uart1_sending
 5661 26f2 0346     		mov	r3, r0
 5662 26f4 002B     		cmp	r3, #0
 5663 26f6 FAD1     		bne	.L392
 5664 26f8 09E0     		b	.L393
 5665              	.L391:
 5666              		.loc 1 1023 0 is_stmt 1
 5667 26fa 2621     		movs	r1, #38
 5668 26fc 2648     		ldr	r0, .L464+56
 5669 26fe FFF7FEFF 		bl	e_send_uart2_char
 5670 2702 00BF     		nop
 5671              	.L394:
 5672              		.loc 1 1023 0 is_stmt 0 discriminator 2
 5673 2704 FFF7FEFF 		bl	e_uart2_sending
 5674 2708 0346     		mov	r3, r0
 5675 270a 002B     		cmp	r3, #0
 5676 270c FAD1     		bne	.L394
 5677              	.L393:
ARM GAS  C:\Users\Moi\AppData\Local\Temp\ccAXdvuJ.s 			page 106


 5678              		.loc 1 1025 0 is_stmt 1
 5679 270e 234B     		ldr	r3, .L464+60
 5680 2710 1B68     		ldr	r3, [r3]
 5681 2712 1A46     		mov	r2, r3
 5682 2714 2249     		ldr	r1, .L464+64
 5683 2716 1548     		ldr	r0, .L464+12
 5684 2718 FFF7FEFF 		bl	sprintf
 5685              		.loc 1 1026 0
 5686 271c 0D9B     		ldr	r3, [sp, #52]
 5687 271e 002B     		cmp	r3, #0
 5688 2720 0ED0     		beq	.L395
 5689              		.loc 1 1027 0
 5690 2722 1248     		ldr	r0, .L464+12
 5691 2724 FFF7FEFF 		bl	strlen
 5692 2728 0346     		mov	r3, r0
 5693 272a 1946     		mov	r1, r3
 5694 272c 0F48     		ldr	r0, .L464+12
 5695 272e FFF7FEFF 		bl	e_send_uart1_char
 5696 2732 00BF     		nop
 5697              	.L396:
 5698              		.loc 1 1027 0 is_stmt 0 discriminator 2
 5699 2734 FFF7FEFF 		bl	e_uart1_sending
 5700 2738 0346     		mov	r3, r0
 5701 273a 002B     		cmp	r3, #0
 5702 273c FAD1     		bne	.L396
 5703              		.loc 1 1031 0 is_stmt 1
 5704 273e 0CE1     		b	.L164
 5705              	.L395:
 5706              		.loc 1 1029 0
 5707 2740 0A48     		ldr	r0, .L464+12
 5708 2742 FFF7FEFF 		bl	strlen
 5709 2746 0346     		mov	r3, r0
 5710 2748 1946     		mov	r1, r3
 5711 274a 0848     		ldr	r0, .L464+12
 5712 274c FFF7FEFF 		bl	e_send_uart2_char
 5713 2750 00BF     		nop
 5714              	.L398:
 5715              		.loc 1 1029 0 is_stmt 0 discriminator 2
 5716 2752 FFF7FEFF 		bl	e_uart2_sending
 5717 2756 0346     		mov	r3, r0
 5718 2758 002B     		cmp	r3, #0
 5719 275a FAD1     		bne	.L398
 5720              		.loc 1 1031 0 is_stmt 1
 5721 275c FDE0     		b	.L164
 5722              	.L465:
 5723 275e 00BF     		.align	2
 5724              	.L464:
 5725 2760 00000000 		.word	positionr.12668
 5726 2764 00000000 		.word	positionl.12669
 5727 2768 A4090000 		.word	.LC76
 5728 276c 00000000 		.word	buffer
 5729 2770 B0090000 		.word	.LC77
 5730 2774 B4090000 		.word	.LC78
 5731 2778 C0090000 		.word	.LC79
 5732 277c 00000000 		.word	sound.12675
 5733 2780 C4090000 		.word	.LC80
 5734 2784 00000000 		.word	first.12686
ARM GAS  C:\Users\Moi\AppData\Local\Temp\ccAXdvuJ.s 			page 107


 5735 2788 CC090000 		.word	.LC81
 5736 278c D0090000 		.word	.LC82
 5737 2790 D8090000 		.word	.LC83
 5738 2794 E0090000 		.word	.LC84
 5739 2798 F0090000 		.word	.LC85
 5740 279c 00000000 		.word	HWversion.12697
 5741 27a0 180A0000 		.word	.LC86
 5742              	.L208:
 5743              		.loc 1 1033 0
 5744 27a4 0D9B     		ldr	r3, [sp, #52]
 5745 27a6 002B     		cmp	r3, #0
 5746 27a8 00F0D080 		beq	.L429
 5747              		.loc 1 1034 0
 5748 27ac 6C4B     		ldr	r3, .L466
 5749 27ae 0093     		str	r3, [sp]
 5750 27b0 6C4B     		ldr	r3, .L466+4
 5751 27b2 6D4A     		ldr	r2, .L466+8
 5752 27b4 6D49     		ldr	r1, .L466+12
 5753 27b6 6E48     		ldr	r0, .L466+16
 5754 27b8 FFF7FEFF 		bl	sscanf
 5755              		.loc 1 1035 0
 5756 27bc FFF7FEFF 		bl	e_i2cp_enable
 5757              		.loc 1 1036 0
 5758 27c0 694B     		ldr	r3, .L466+8
 5759 27c2 1B68     		ldr	r3, [r3]
 5760 27c4 D8B2     		uxtb	r0, r3
 5761 27c6 674B     		ldr	r3, .L466+4
 5762 27c8 1B68     		ldr	r3, [r3]
 5763 27ca D9B2     		uxtb	r1, r3
 5764 27cc 644B     		ldr	r3, .L466
 5765 27ce 1B68     		ldr	r3, [r3]
 5766 27d0 DBB2     		uxtb	r3, r3
 5767 27d2 1A46     		mov	r2, r3
 5768 27d4 FFF7FEFF 		bl	e_i2cp_write
 5769              		.loc 1 1037 0
 5770 27d8 FFF7FEFF 		bl	e_i2cp_disable
 5771              		.loc 1 1038 0
 5772 27dc 0321     		movs	r1, #3
 5773 27de 6548     		ldr	r0, .L466+20
 5774 27e0 FFF7FEFF 		bl	e_send_uart1_char
 5775 27e4 00BF     		nop
 5776              	.L400:
 5777              		.loc 1 1038 0 is_stmt 0 discriminator 2
 5778 27e6 FFF7FEFF 		bl	e_uart1_sending
 5779 27ea 0346     		mov	r3, r0
 5780 27ec 002B     		cmp	r3, #0
 5781 27ee FAD1     		bne	.L400
 5782              		.loc 1 1040 0 is_stmt 1
 5783 27f0 ACE0     		b	.L429
 5784              	.L209:
 5785              		.loc 1 1042 0
 5786 27f2 0D9B     		ldr	r3, [sp, #52]
 5787 27f4 002B     		cmp	r3, #0
 5788 27f6 00F0AC80 		beq	.L430
 5789              		.loc 1 1043 0
 5790 27fa 5A4B     		ldr	r3, .L466+4
 5791 27fc 5A4A     		ldr	r2, .L466+8
ARM GAS  C:\Users\Moi\AppData\Local\Temp\ccAXdvuJ.s 			page 108


 5792 27fe 5E49     		ldr	r1, .L466+24
 5793 2800 5B48     		ldr	r0, .L466+16
 5794 2802 FFF7FEFF 		bl	sscanf
 5795              		.loc 1 1045 0
 5796 2806 584B     		ldr	r3, .L466+8
 5797 2808 1A68     		ldr	r2, [r3]
 5798 280a 564B     		ldr	r3, .L466+4
 5799 280c 1B68     		ldr	r3, [r3]
 5800 280e 5B49     		ldr	r1, .L466+28
 5801 2810 5748     		ldr	r0, .L466+16
 5802 2812 FFF7FEFF 		bl	sprintf
 5803              		.loc 1 1046 0
 5804 2816 5648     		ldr	r0, .L466+16
 5805 2818 FFF7FEFF 		bl	strlen
 5806 281c 0346     		mov	r3, r0
 5807 281e 1946     		mov	r1, r3
 5808 2820 5348     		ldr	r0, .L466+16
 5809 2822 FFF7FEFF 		bl	e_send_uart1_char
 5810 2826 00BF     		nop
 5811              	.L402:
 5812              		.loc 1 1046 0 is_stmt 0 discriminator 2
 5813 2828 FFF7FEFF 		bl	e_uart1_sending
 5814 282c 0346     		mov	r3, r0
 5815 282e 002B     		cmp	r3, #0
 5816 2830 FAD1     		bne	.L402
 5817              		.loc 1 1051 0 is_stmt 1
 5818 2832 FFF7FEFF 		bl	e_i2cp_enable
 5819              		.loc 1 1052 0
 5820 2836 4C4B     		ldr	r3, .L466+8
 5821 2838 1B68     		ldr	r3, [r3]
 5822 283a DAB2     		uxtb	r2, r3
 5823 283c 494B     		ldr	r3, .L466+4
 5824 283e 1B68     		ldr	r3, [r3]
 5825 2840 DBB2     		uxtb	r3, r3
 5826 2842 1946     		mov	r1, r3
 5827 2844 1046     		mov	r0, r2
 5828 2846 FFF7FEFF 		bl	e_i2cp_read
 5829 284a 0346     		mov	r3, r0
 5830 284c 1A46     		mov	r2, r3
 5831 284e 444B     		ldr	r3, .L466
 5832 2850 1A60     		str	r2, [r3]
 5833              		.loc 1 1053 0
 5834 2852 FFF7FEFF 		bl	e_i2cp_disable
 5835              		.loc 1 1054 0
 5836 2856 424B     		ldr	r3, .L466
 5837 2858 1B68     		ldr	r3, [r3]
 5838 285a 1A46     		mov	r2, r3
 5839 285c 4849     		ldr	r1, .L466+32
 5840 285e 4448     		ldr	r0, .L466+16
 5841 2860 FFF7FEFF 		bl	sprintf
 5842              		.loc 1 1055 0
 5843 2864 4248     		ldr	r0, .L466+16
 5844 2866 FFF7FEFF 		bl	strlen
 5845 286a 0346     		mov	r3, r0
 5846 286c 1946     		mov	r1, r3
 5847 286e 4048     		ldr	r0, .L466+16
 5848 2870 FFF7FEFF 		bl	e_send_uart1_char
ARM GAS  C:\Users\Moi\AppData\Local\Temp\ccAXdvuJ.s 			page 109


 5849 2874 00BF     		nop
 5850              	.L403:
 5851              		.loc 1 1055 0 is_stmt 0 discriminator 2
 5852 2876 FFF7FEFF 		bl	e_uart1_sending
 5853 287a 0346     		mov	r3, r0
 5854 287c 002B     		cmp	r3, #0
 5855 287e FAD1     		bne	.L403
 5856              		.loc 1 1057 0 is_stmt 1
 5857 2880 67E0     		b	.L430
 5858              	.L210:
 5859              		.loc 1 1059 0
 5860 2882 0D9B     		ldr	r3, [sp, #52]
 5861 2884 002B     		cmp	r3, #0
 5862 2886 67D0     		beq	.L431
 5863              		.loc 1 1060 0
 5864 2888 3E4B     		ldr	r3, .L466+36
 5865 288a 0222     		movs	r2, #2
 5866 288c 1A60     		str	r2, [r3]
 5867 288e 2DE0     		b	.L405
 5868              	.L408:
 5869              		.loc 1 1061 0
 5870 2890 FFF7FEFF 		bl	e_i2cp_enable
 5871              		.loc 1 1062 0
 5872 2894 3B4B     		ldr	r3, .L466+36
 5873 2896 1B68     		ldr	r3, [r3]
 5874 2898 DBB2     		uxtb	r3, r3
 5875 289a 0021     		movs	r1, #0
 5876 289c 1846     		mov	r0, r3
 5877 289e FFF7FEFF 		bl	e_i2cp_read
 5878 28a2 0346     		mov	r3, r0
 5879 28a4 1A46     		mov	r2, r3
 5880 28a6 2E4B     		ldr	r3, .L466
 5881 28a8 1A60     		str	r2, [r3]
 5882              		.loc 1 1063 0
 5883 28aa FFF7FEFF 		bl	e_i2cp_disable
 5884              		.loc 1 1064 0
 5885 28ae 2C4B     		ldr	r3, .L466
 5886 28b0 1B68     		ldr	r3, [r3]
 5887 28b2 002B     		cmp	r3, #0
 5888 28b4 15DB     		blt	.L406
 5889              		.loc 1 1065 0
 5890 28b6 334B     		ldr	r3, .L466+36
 5891 28b8 1A68     		ldr	r2, [r3]
 5892 28ba 294B     		ldr	r3, .L466
 5893 28bc 1B68     		ldr	r3, [r3]
 5894 28be 3249     		ldr	r1, .L466+40
 5895 28c0 2B48     		ldr	r0, .L466+16
 5896 28c2 FFF7FEFF 		bl	sprintf
 5897              		.loc 1 1066 0
 5898 28c6 2A48     		ldr	r0, .L466+16
 5899 28c8 FFF7FEFF 		bl	strlen
 5900 28cc 0346     		mov	r3, r0
 5901 28ce 1946     		mov	r1, r3
 5902 28d0 2748     		ldr	r0, .L466+16
 5903 28d2 FFF7FEFF 		bl	e_send_uart1_char
 5904 28d6 00BF     		nop
 5905              	.L407:
ARM GAS  C:\Users\Moi\AppData\Local\Temp\ccAXdvuJ.s 			page 110


 5906              		.loc 1 1066 0 is_stmt 0 discriminator 2
 5907 28d8 FFF7FEFF 		bl	e_uart1_sending
 5908 28dc 0346     		mov	r3, r0
 5909 28de 002B     		cmp	r3, #0
 5910 28e0 FAD1     		bne	.L407
 5911              	.L406:
 5912              		.loc 1 1060 0 is_stmt 1 discriminator 2
 5913 28e2 284B     		ldr	r3, .L466+36
 5914 28e4 1B68     		ldr	r3, [r3]
 5915 28e6 0233     		adds	r3, r3, #2
 5916 28e8 264A     		ldr	r2, .L466+36
 5917 28ea 1360     		str	r3, [r2]
 5918              	.L405:
 5919              		.loc 1 1060 0 is_stmt 0 discriminator 1
 5920 28ec 254B     		ldr	r3, .L466+36
 5921 28ee 1B68     		ldr	r3, [r3]
 5922 28f0 FE2B     		cmp	r3, #254
 5923 28f2 CDDD     		ble	.L408
 5924              		.loc 1 1070 0 is_stmt 1
 5925 28f4 30E0     		b	.L431
 5926              	.L184:
 5927              		.loc 1 1072 0
 5928 28f6 0D9B     		ldr	r3, [sp, #52]
 5929 28f8 002B     		cmp	r3, #0
 5930 28fa 0AD0     		beq	.L409
 5931              		.loc 1 1073 0
 5932 28fc 1521     		movs	r1, #21
 5933 28fe 2348     		ldr	r0, .L466+44
 5934 2900 FFF7FEFF 		bl	e_send_uart1_char
 5935 2904 00BF     		nop
 5936              	.L410:
 5937              		.loc 1 1073 0 is_stmt 0 discriminator 2
 5938 2906 FFF7FEFF 		bl	e_uart1_sending
 5939 290a 0346     		mov	r3, r0
 5940 290c 002B     		cmp	r3, #0
 5941 290e FAD1     		bne	.L410
 5942              		.loc 1 1077 0 is_stmt 1
 5943 2910 23E0     		b	.L164
 5944              	.L409:
 5945              		.loc 1 1075 0
 5946 2912 1521     		movs	r1, #21
 5947 2914 1D48     		ldr	r0, .L466+44
 5948 2916 FFF7FEFF 		bl	e_send_uart2_char
 5949 291a 00BF     		nop
 5950              	.L412:
 5951              		.loc 1 1075 0 is_stmt 0 discriminator 2
 5952 291c FFF7FEFF 		bl	e_uart2_sending
 5953 2920 0346     		mov	r3, r0
 5954 2922 002B     		cmp	r3, #0
 5955 2924 FAD1     		bne	.L412
 5956              		.loc 1 1077 0 is_stmt 1
 5957 2926 18E0     		b	.L164
 5958              	.L423:
 5959              	.LBE3:
 5960              		.loc 1 1079 0
 5961 2928 00BF     		nop
 5962 292a FDF70DBC 		b	.L413
ARM GAS  C:\Users\Moi\AppData\Local\Temp\ccAXdvuJ.s 			page 111


 5963              	.L424:
 5964              	.LBB4:
 5965              		.loc 1 957 0
 5966 292e 00BF     		nop
 5967 2930 FDF70ABC 		b	.L413
 5968              	.L425:
 5969              		.loc 1 699 0
 5970 2934 00BF     		nop
 5971 2936 FDF707BC 		b	.L413
 5972              	.L426:
 5973              		.loc 1 800 0
 5974 293a 00BF     		nop
 5975 293c FDF704BC 		b	.L413
 5976              	.L427:
 5977              		.loc 1 827 0
 5978 2940 00BF     		nop
 5979 2942 FDF701BC 		b	.L413
 5980              	.L428:
 5981              		.loc 1 903 0
 5982 2946 00BF     		nop
 5983 2948 FDF7FEBB 		b	.L413
 5984              	.L429:
 5985              		.loc 1 1040 0
 5986 294c 00BF     		nop
 5987 294e FDF7FBBB 		b	.L413
 5988              	.L430:
 5989              		.loc 1 1057 0
 5990 2952 00BF     		nop
 5991 2954 FDF7F8BB 		b	.L413
 5992              	.L431:
 5993              		.loc 1 1070 0
 5994 2958 00BF     		nop
 5995              	.L164:
 5996              	.LBE4:
 5997              		.loc 1 134 0
 5998 295a FDF7F5BB 		b	.L413
 5999              	.L467:
 6000 295e 00BF     		.align	2
 6001              	.L466:
 6002 2960 00000000 		.word	val.12690
 6003 2964 00000000 		.word	reg.12689
 6004 2968 00000000 		.word	mod.12688
 6005 296c 2C0A0000 		.word	.LC87
 6006 2970 00000000 		.word	buffer
 6007 2974 380A0000 		.word	.LC88
 6008 2978 3C0A0000 		.word	.LC89
 6009 297c 480A0000 		.word	.LC90
 6010 2980 540A0000 		.word	.LC91
 6011 2984 00000000 		.word	j.12664
 6012 2988 5C0A0000 		.word	.LC92
 6013 298c 680A0000 		.word	.LC93
 6014              		.cfi_endproc
 6015              	.LFE259:
 6016              		.size	run_asercom, .-run_asercom
 6017              		.section	.data.HWversion.12697,"aw",%progbits
 6018              		.align	2
 6019              		.type	HWversion.12697, %object
ARM GAS  C:\Users\Moi\AppData\Local\Temp\ccAXdvuJ.s 			page 112


 6020              		.size	HWversion.12697, 4
 6021              	HWversion.12697:
 6022 0000 FFFF0000 		.word	65535
 6023              		.section	.bss.cam_mode.12679,"aw",%nobits
 6024              		.align	2
 6025              		.type	cam_mode.12679, %object
 6026              		.size	cam_mode.12679, 4
 6027              	cam_mode.12679:
 6028 0000 00000000 		.space	4
 6029              		.section	.bss.cam_width.12680,"aw",%nobits
 6030              		.align	2
 6031              		.type	cam_width.12680, %object
 6032              		.size	cam_width.12680, 4
 6033              	cam_width.12680:
 6034 0000 00000000 		.space	4
 6035              		.section	.bss.cam_heigth.12681,"aw",%nobits
 6036              		.align	2
 6037              		.type	cam_heigth.12681, %object
 6038              		.size	cam_heigth.12681, 4
 6039              	cam_heigth.12681:
 6040 0000 00000000 		.space	4
 6041              		.section	.bss.cam_zoom.12682,"aw",%nobits
 6042              		.align	2
 6043              		.type	cam_zoom.12682, %object
 6044              		.size	cam_zoom.12682, 4
 6045              	cam_zoom.12682:
 6046 0000 00000000 		.space	4
 6047              		.section	.bss.cam_size.12683,"aw",%nobits
 6048              		.align	2
 6049              		.type	cam_size.12683, %object
 6050              		.size	cam_size.12683, 4
 6051              	cam_size.12683:
 6052 0000 00000000 		.space	4
 6053              		.section	.bss.speedr.12666,"aw",%nobits
 6054              		.align	2
 6055              		.type	speedr.12666, %object
 6056              		.size	speedr.12666, 4
 6057              	speedr.12666:
 6058 0000 00000000 		.space	4
 6059              		.section	.bss.speedl.12667,"aw",%nobits
 6060              		.align	2
 6061              		.type	speedl.12667, %object
 6062              		.size	speedl.12667, 4
 6063              	speedl.12667:
 6064 0000 00000000 		.space	4
 6065              		.section	.bss.first.12686,"aw",%nobits
 6066              		.type	first.12686, %object
 6067              		.size	first.12686, 1
 6068              	first.12686:
 6069 0000 00       		.space	1
 6070              		.section	.bss.i.12663,"aw",%nobits
 6071              		.align	2
 6072              		.type	i.12663, %object
 6073              		.size	i.12663, 4
 6074              	i.12663:
 6075 0000 00000000 		.space	4
 6076              		.section	.bss.accx.12672,"aw",%nobits
ARM GAS  C:\Users\Moi\AppData\Local\Temp\ccAXdvuJ.s 			page 113


 6077              		.align	2
 6078              		.type	accx.12672, %object
 6079              		.size	accx.12672, 4
 6080              	accx.12672:
 6081 0000 00000000 		.space	4
 6082              		.section	.bss.accy.12673,"aw",%nobits
 6083              		.align	2
 6084              		.type	accy.12673, %object
 6085              		.size	accy.12673, 4
 6086              	accy.12673:
 6087 0000 00000000 		.space	4
 6088              		.section	.bss.accz.12674,"aw",%nobits
 6089              		.align	2
 6090              		.type	accz.12674, %object
 6091              		.size	accz.12674, 4
 6092              	accz.12674:
 6093 0000 00000000 		.space	4
 6094              		.section	.bss.accelero.12694,"aw",%nobits
 6095              		.align	2
 6096              		.type	accelero.12694, %object
 6097              		.size	accelero.12694, 12
 6098              	accelero.12694:
 6099 0000 00000000 		.space	12
 6099      00000000 
 6099      00000000 
 6100              		.section	.bss.c1.12660,"aw",%nobits
 6101              		.type	c1.12660, %object
 6102              		.size	c1.12660, 1
 6103              	c1.12660:
 6104 0000 00       		.space	1
 6105              		.section	.bss.c2.12661,"aw",%nobits
 6106              		.type	c2.12661, %object
 6107              		.size	c2.12661, 1
 6108              	c2.12661:
 6109 0000 00       		.space	1
 6110              		.section	.bss.gyrox.12676,"aw",%nobits
 6111              		.align	2
 6112              		.type	gyrox.12676, %object
 6113              		.size	gyrox.12676, 4
 6114              	gyrox.12676:
 6115 0000 00000000 		.space	4
 6116              		.section	.bss.gyroy.12677,"aw",%nobits
 6117              		.align	2
 6118              		.type	gyroy.12677, %object
 6119              		.size	gyroy.12677, 4
 6120              	gyroy.12677:
 6121 0000 00000000 		.space	4
 6122              		.section	.bss.gyroz.12678,"aw",%nobits
 6123              		.align	2
 6124              		.type	gyroz.12678, %object
 6125              		.size	gyroz.12678, 4
 6126              	gyroz.12678:
 6127 0000 00000000 		.space	4
 6128              		.section	.bss.wait_cam.12662,"aw",%nobits
 6129              		.type	wait_cam.12662, %object
 6130              		.size	wait_cam.12662, 1
 6131              	wait_cam.12662:
ARM GAS  C:\Users\Moi\AppData\Local\Temp\ccAXdvuJ.s 			page 114


 6132 0000 00       		.space	1
 6133              		.section	.bss.j.12664,"aw",%nobits
 6134              		.align	2
 6135              		.type	j.12664, %object
 6136              		.size	j.12664, 4
 6137              	j.12664:
 6138 0000 00000000 		.space	4
 6139              		.section	.bss.n.12665,"aw",%nobits
 6140              		.align	2
 6141              		.type	n.12665, %object
 6142              		.size	n.12665, 4
 6143              	n.12665:
 6144 0000 00000000 		.space	4
 6145              		.section	.bss.positionl.12669,"aw",%nobits
 6146              		.align	2
 6147              		.type	positionl.12669, %object
 6148              		.size	positionl.12669, 4
 6149              	positionl.12669:
 6150 0000 00000000 		.space	4
 6151              		.section	.bss.positionr.12668,"aw",%nobits
 6152              		.align	2
 6153              		.type	positionr.12668, %object
 6154              		.size	positionr.12668, 4
 6155              	positionr.12668:
 6156 0000 00000000 		.space	4
 6157              		.section	.bss.mod.12688,"aw",%nobits
 6158              		.align	2
 6159              		.type	mod.12688, %object
 6160              		.size	mod.12688, 4
 6161              	mod.12688:
 6162 0000 00000000 		.space	4
 6163              		.section	.bss.reg.12689,"aw",%nobits
 6164              		.align	2
 6165              		.type	reg.12689, %object
 6166              		.size	reg.12689, 4
 6167              	reg.12689:
 6168 0000 00000000 		.space	4
 6169              		.section	.bss.val.12690,"aw",%nobits
 6170              		.align	2
 6171              		.type	val.12690, %object
 6172              		.size	val.12690, 4
 6173              	val.12690:
 6174 0000 00000000 		.space	4
 6175              		.section	.bss.LED_action.12671,"aw",%nobits
 6176              		.align	2
 6177              		.type	LED_action.12671, %object
 6178              		.size	LED_action.12671, 4
 6179              	LED_action.12671:
 6180 0000 00000000 		.space	4
 6181              		.section	.bss.cam_x1.12684,"aw",%nobits
 6182              		.align	2
 6183              		.type	cam_x1.12684, %object
 6184              		.size	cam_x1.12684, 4
 6185              	cam_x1.12684:
 6186 0000 00000000 		.space	4
 6187              		.section	.bss.cam_y1.12685,"aw",%nobits
 6188              		.align	2
ARM GAS  C:\Users\Moi\AppData\Local\Temp\ccAXdvuJ.s 			page 115


 6189              		.type	cam_y1.12685, %object
 6190              		.size	cam_y1.12685, 4
 6191              	cam_y1.12685:
 6192 0000 00000000 		.space	4
 6193              		.section	.bss.LED_nbr.12670,"aw",%nobits
 6194              		.align	2
 6195              		.type	LED_nbr.12670, %object
 6196              		.size	LED_nbr.12670, 4
 6197              	LED_nbr.12670:
 6198 0000 00000000 		.space	4
 6199              		.section	.bss.sound.12675,"aw",%nobits
 6200              		.align	2
 6201              		.type	sound.12675, %object
 6202              		.size	sound.12675, 4
 6203              	sound.12675:
 6204 0000 00000000 		.space	4
 6205              		.text
 6206              	.Letext0:
 6207              		.file 2 "c:\\users\\moi\\documents\\_microinfo\\epuck-eclipse\\tools\\gcc-arm-none-eabi-7-2017-q4-
 6208              		.file 3 "c:\\users\\moi\\documents\\_microinfo\\epuck-eclipse\\tools\\gcc-arm-none-eabi-7-2017-q4-
 6209              		.file 4 "c:\\users\\moi\\documents\\_microinfo\\epuck-eclipse\\tools\\gcc-arm-none-eabi-7-2017-q4-
 6210              		.file 5 "c:\\users\\moi\\documents\\_microinfo\\epuck-eclipse\\tools\\gcc-arm-none-eabi-7-2017-q4-
 6211              		.file 6 "c:\\users\\moi\\documents\\_microinfo\\epuck-eclipse\\tools\\gcc-arm-none-eabi-7-2017-q4-
 6212              		.file 7 "c:\\users\\moi\\documents\\_microinfo\\epuck-eclipse\\tools\\gcc-arm-none-eabi-7-2017-q4-
 6213              		.file 8 "..//src/msgbus/messagebus.h"
 6214              		.file 9 "c:\\users\\moi\\documents\\_microinfo\\epuck-eclipse\\tools\\gcc-arm-none-eabi-7-2017-q4-
 6215              		.file 10 "c:\\users\\moi\\documents\\_microinfo\\epuck-eclipse\\tools\\gcc-arm-none-eabi-7-2017-q4
 6216              		.file 11 "..//src/parameter/parameter.h"
 6217              		.file 12 "./main.h"
 6218              		.file 13 "..//ChibiOS//os/rt/ports/ARMCMx/compilers/GCC/chtypes.h"
 6219              		.file 14 "..//ChibiOS//os/rt/include/chsystypes.h"
 6220              		.file 15 "..//ChibiOS//os/rt/include/chschd.h"
 6221              		.file 16 "..//ChibiOS//os/ext/CMSIS/include/core_cm4.h"
 6222              		.file 17 "..//ChibiOS//os/ext/CMSIS/ST/system_stm32f4xx.h"
 6223              		.file 18 "..//ChibiOS//os/ext/CMSIS/ST/stm32f407xx.h"
 6224              		.file 19 "..//ChibiOS//os/rt/ports/ARMCMx/chcore.h"
 6225              		.file 20 "..//ChibiOS//os/rt/ports/ARMCMx/chcore_v7m.h"
 6226              		.file 21 "..//ChibiOS//os/rt/include/chdebug.h"
 6227              		.file 22 "..//ChibiOS//os/rt/include/chtm.h"
 6228              		.file 23 "..//ChibiOS//os/rt/include/chstats.h"
 6229              		.file 24 "..//ChibiOS//os/rt/include/chsem.h"
 6230              		.file 25 "..//ChibiOS//os/rt/include/chmtx.h"
 6231              		.file 26 "..//ChibiOS//os/rt/include/chregistry.h"
 6232              		.file 27 "..//ChibiOS//os/rt/include/chevents.h"
 6233              		.file 28 "..//ChibiOS//os/rt/include/chqueues.h"
 6234              		.file 29 "..//ChibiOS//os/hal/ports/STM32/STM32F4xx/stm32_dma.h"
 6235              		.file 30 "..//ChibiOS//os/hal/include/hal_ioblock.h"
 6236              		.file 31 "..//ChibiOS//os/hal/ports/STM32/LLD/GPIOv2/pal_lld.h"
 6237              		.file 32 "..//ChibiOS//os/hal/include/adc.h"
 6238              		.file 33 "..//ChibiOS//os/hal/ports/STM32/STM32F4xx/adc_lld.h"
 6239              		.file 34 "..//ChibiOS//os/hal/include/can.h"
 6240              		.file 35 "..//ChibiOS//os/hal/ports/STM32/LLD/can_lld.h"
 6241              		.file 36 "..//ChibiOS//os/hal/include/dac.h"
 6242              		.file 37 "..//ChibiOS//os/hal/ports/STM32/LLD/DACv1/dac_lld.h"
 6243              		.file 38 "..//ChibiOS//os/hal/include/ext.h"
 6244              		.file 39 "..//ChibiOS//os/hal/ports/STM32/LLD/ext_lld.h"
 6245              		.file 40 "..//ChibiOS//os/hal/include/gpt.h"
ARM GAS  C:\Users\Moi\AppData\Local\Temp\ccAXdvuJ.s 			page 116


 6246              		.file 41 "..//ChibiOS//os/hal/ports/STM32/LLD/TIMv1/gpt_lld.h"
 6247              		.file 42 "..//ChibiOS//os/hal/ports/STM32/LLD/TIMv1/stm32_tim.h"
 6248              		.file 43 "..//ChibiOS//os/hal/include/i2c.h"
 6249              		.file 44 "..//ChibiOS//os/hal/ports/STM32/LLD/I2Cv1/i2c_lld.h"
 6250              		.file 45 "..//ChibiOS//os/hal/include/i2s.h"
 6251              		.file 46 "..//ChibiOS//os/hal/ports/STM32/LLD/SPIv1/i2s_lld.h"
 6252              		.file 47 "..//ChibiOS//os/hal/include/pwm.h"
 6253              		.file 48 "..//ChibiOS//os/hal/ports/STM32/LLD/TIMv1/pwm_lld.h"
 6254              		.file 49 "..//ChibiOS//os/hal/include/serial.h"
 6255              		.file 50 "..//ChibiOS//os/hal/ports/STM32/LLD/USARTv1/serial_lld.h"
 6256              		.file 51 "..//ChibiOS//os/hal/include/sdc.h"
 6257              		.file 52 "..//ChibiOS//os/hal/ports/STM32/LLD/sdc_lld.h"
 6258              		.file 53 "..//ChibiOS//os/hal/include/spi.h"
 6259              		.file 54 "..//ChibiOS//os/hal/ports/STM32/LLD/SPIv1/spi_lld.h"
 6260              		.file 55 "..//ChibiOS//os/hal/include/usb.h"
 6261              		.file 56 "..//ChibiOS//os/hal/ports/STM32/LLD/OTGv1/usb_lld.h"
 6262              		.file 57 "..//ChibiOS//os/hal/ports/STM32/LLD/OTGv1/stm32_otg.h"
 6263              		.file 58 "..//src/audio/play_melody.h"
 6264              		.file 59 "c:\\users\\moi\\documents\\_microinfo\\epuck-eclipse\\tools\\gcc-arm-none-eabi-7-2017-q4
 6265              		.file 60 "..//src/epuck1x/a_d/advance_ad_scan/e_acc.h"
 6266              		.file 61 "..//ChibiOS_ext/os/hal/include/../ports/STM32/STM32F4xx/dcmi_lld.h"