ARM GAS  C:\Users\Moi\AppData\Local\Temp\ccF5N8ze.s 			page 1


   1              		.cpu cortex-m4
   2              		.eabi_attribute 27, 1
   3              		.eabi_attribute 28, 1
   4              		.eabi_attribute 20, 1
   5              		.eabi_attribute 21, 1
   6              		.eabi_attribute 23, 3
   7              		.eabi_attribute 24, 1
   8              		.eabi_attribute 25, 1
   9              		.eabi_attribute 26, 1
  10              		.eabi_attribute 30, 6
  11              		.eabi_attribute 34, 1
  12              		.eabi_attribute 18, 4
  13              		.file	"Asercom2.c"
  14              		.text
  15              	.Ltext0:
  16              		.cfi_sections	.debug_frame
  17              		.section	.rodata
  18              		.align	2
  19              	.LC0:
  20 0000 0C075745 		.ascii	"\014\007WELCOME to the SerCom protocol on e-Puck\015"
  20      4C434F4D 
  20      4520746F 
  20      20746865 
  20      20536572 
  21 002b 0A746865 		.ascii	"\012the EPFL education robot type \"H\" for help\015"
  21      20455046 
  21      4C206564 
  21      75636174 
  21      696F6E20 
  22 0057 0A00     		.ascii	"\012\000"
  23 0059 000000   		.align	2
  24              	.LC1:
  25 005c 612C2564 		.ascii	"a,%d,%d,%d\015\012\000"
  25      2C25642C 
  25      25640D0A 
  25      00
  26 0069 000000   		.align	2
  27              	.LC2:
  28 006c 612C302C 		.ascii	"a,0,0,0\015\012\000"
  28      302C300D 
  28      0A00
  29 0076 0000     		.align	2
  30              	.LC3:
  31 0078 622C2564 		.ascii	"b,%d (%d%%)\015\012\000"
  31      20282564 
  31      2525290D 
  31      0A00
  32 0086 0000     		.align	2
  33              	.LC4:
  34 0088 422C2564 		.ascii	"B,%d\015\000"
  34      0D00
  35 008e 0000     		.align	2
  36              	.LC5:
  37 0090 620D0A00 		.ascii	"b\015\012\000"
  38              		.align	2
  39              	.LC6:
  40 0094 632C2564 		.ascii	"c,%d\015\012\000"
ARM GAS  C:\Users\Moi\AppData\Local\Temp\ccF5N8ze.s 			page 2


  40      0D0A00
  41 009b 00       		.align	2
  42              	.LC7:
  43 009c 442C2564 		.ascii	"D,%d,%d\015\000"
  43      2C25640D 
  43      00
  44 00a5 000000   		.align	2
  45              	.LC8:
  46 00a8 640D0A00 		.ascii	"d\015\012\000"
  47              		.align	2
  48              	.LC9:
  49 00ac 652C2564 		.ascii	"e,%d,%d\015\012\000"
  49      2C25640D 
  49      0A00
  50 00b6 0000     		.align	2
  51              	.LC10:
  52 00b8 462C2564 		.ascii	"F,%d\015\000"
  52      0D00
  53 00be 0000     		.align	2
  54              	.LC11:
  55 00c0 660D0A00 		.ascii	"f\015\012\000"
  56              		.align	2
  57              	.LC12:
  58 00c4 67204952 		.ascii	"g IR check : 0x%x, address : 0x%x, data : 0x%x\015\012"
  58      20636865 
  58      636B203A 
  58      20307825 
  58      782C2061 
  59 00f4 00       		.ascii	"\000"
  60 00f5 000000   		.align	2
  61              	.LC13:
  62 00f8 672C2564 		.ascii	"g,%d,%d,%d\015\012\000"
  62      2C25642C 
  62      25640D0A 
  62      00
  63 0105 000000   		.align	2
  64              	.LC14:
  65 0108 672C302C 		.ascii	"g,0,0,0\015\012\000"
  65      302C300D 
  65      0A00
  66 0112 0000     		.align	2
  67              	.LC15:
  68 0114 0A00     		.ascii	"\012\000"
  69 0116 0000     		.align	2
  70              	.LC16:
  71 0118 22412220 		.ascii	"\"A\"               Accelerometer\015\012\000"
  71      20202020 
  71      20202020 
  71      20202020 
  71      20204163 
  72 013a 0000     		.align	2
  73              	.LC17:
  74 013c 22422C23 		.ascii	"\"B,#\"             Body led 0=off 1=on 2=inverse\015"
  74      22202020 
  74      20202020 
  74      20202020 
  74      2020426F 
ARM GAS  C:\Users\Moi\AppData\Local\Temp\ccF5N8ze.s 			page 3


  75 016c 0A00     		.ascii	"\012\000"
  76 016e 0000     		.align	2
  77              	.LC18:
  78 0170 22622220 		.ascii	"\"b\"               Battery value\015\012\000"
  78      20202020 
  78      20202020 
  78      20202020 
  78      20204261 
  79 0192 0000     		.align	2
  80              	.LC19:
  81 0194 22622220 		.ascii	"\"b\"               Battery state (1=ok, 0=low)\015"
  81      20202020 
  81      20202020 
  81      20202020 
  81      20204261 
  82 01c2 0A00     		.ascii	"\012\000"
  83              		.align	2
  84              	.LC20:
  85 01c4 22432220 		.ascii	"\"C\"               Selector position\015\012\000"
  85      20202020 
  85      20202020 
  85      20202020 
  85      20205365 
  86 01ea 0000     		.align	2
  87              	.LC21:
  88 01ec 22442C23 		.ascii	"\"D,#,#\"           Set motor speed left,right\015\012"
  88      2C232220 
  88      20202020 
  88      20202020 
  88      20205365 
  89 021a 00       		.ascii	"\000"
  90 021b 00       		.align	2
  91              	.LC22:
  92 021c 22452220 		.ascii	"\"E\"               Get motor speed left,right\015\012"
  92      20202020 
  92      20202020 
  92      20202020 
  92      20204765 
  93 024a 00       		.ascii	"\000"
  94 024b 00       		.align	2
  95              	.LC23:
  96 024c 22462C23 		.ascii	"\"F,#\"             Front led 0=off 1=on 2=inverse\015"
  96      22202020 
  96      20202020 
  96      20202020 
  96      20204672 
  97 027d 0A00     		.ascii	"\012\000"
  98 027f 00       		.align	2
  99              	.LC24:
 100 0280 22472220 		.ascii	"\"G\"               IR receiver\015\012\000"
 100      20202020 
 100      20202020 
 100      20202020 
 100      20204952 
 101              		.align	2
 102              	.LC25:
 103 02a0 22672220 		.ascii	"\"g\"               Gyro\015\012\000"
ARM GAS  C:\Users\Moi\AppData\Local\Temp\ccF5N8ze.s 			page 4


 103      20202020 
 103      20202020 
 103      20202020 
 103      20204779 
 104 02b9 000000   		.align	2
 105              	.LC26:
 106 02bc 22482220 		.ascii	"\"H\"               Help\015\012\000"
 106      20202020 
 106      20202020 
 106      20202020 
 106      20204865 
 107 02d5 000000   		.align	2
 108              	.LC27:
 109 02d8 22492220 		.ascii	"\"I\"               Get camera parameter\015\012\000"
 109      20202020 
 109      20202020 
 109      20202020 
 109      20204765 
 110 0301 000000   		.align	2
 111              	.LC28:
 112 0304 224A2C23 		.ascii	"\"J,#,#,#,#,#,#\"   Set camera parameter mode,width"
 112      2C232C23 
 112      2C232C23 
 112      2C232220 
 112      20205365 
 113 0335 2C686569 		.ascii	",heigth,zoom(1,4 or 8),x1,y1\015\012\000"
 113      6774682C 
 113      7A6F6F6D 
 113      28312C34 
 113      206F7220 
 114              		.align	2
 115              	.LC29:
 116 0354 224B2220 		.ascii	"\"K\"               Calibrate proximity sensors\015"
 116      20202020 
 116      20202020 
 116      20202020 
 116      20204361 
 117 0382 0A00     		.ascii	"\012\000"
 118              		.align	2
 119              	.LC30:
 120 0384 224C2C23 		.ascii	"\"L,#,#\"           Led number,0=off 1=on 2=inverse"
 120      2C232220 
 120      20202020 
 120      20202020 
 120      20204C65 
 121 03b5 0D0A00   		.ascii	"\015\012\000"
 122              		.align	2
 123              	.LC31:
 124 03b8 224D2220 		.ascii	"\"M\"               Floor sensors\015\012\000"
 124      20202020 
 124      20202020 
 124      20202020 
 124      2020466C 
 125 03da 0000     		.align	2
 126              	.LC32:
 127 03dc 224E2220 		.ascii	"\"N\"               Proximity\015\012\000"
 127      20202020 
ARM GAS  C:\Users\Moi\AppData\Local\Temp\ccF5N8ze.s 			page 5


 127      20202020 
 127      20202020 
 127      20205072 
 128 03fa 0000     		.align	2
 129              	.LC33:
 130 03fc 224F2220 		.ascii	"\"O\"               Light sensors\015\012\000"
 130      20202020 
 130      20202020 
 130      20202020 
 130      20204C69 
 131 041e 0000     		.align	2
 132              	.LC34:
 133 0420 22502C23 		.ascii	"\"P,#,#\"           Set motor position left,right\015"
 133      2C232220 
 133      20202020 
 133      20202020 
 133      20205365 
 134 0450 0A00     		.ascii	"\012\000"
 135 0452 0000     		.align	2
 136              	.LC35:
 137 0454 22512220 		.ascii	"\"Q\"               Get motor position left,right\015"
 137      20202020 
 137      20202020 
 137      20202020 
 137      20204765 
 138 0484 0A00     		.ascii	"\012\000"
 139 0486 0000     		.align	2
 140              	.LC36:
 141 0488 22522220 		.ascii	"\"R\"               Reset e-puck\015\012\000"
 141      20202020 
 141      20202020 
 141      20202020 
 141      20205265 
 142 04a9 000000   		.align	2
 143              	.LC37:
 144 04ac 22532220 		.ascii	"\"S\"               Stop e-puck and turn off leds\015"
 144      20202020 
 144      20202020 
 144      20202020 
 144      20205374 
 145 04dc 0A00     		.ascii	"\012\000"
 146 04de 0000     		.align	2
 147              	.LC38:
 148 04e0 22542C23 		.ascii	"\"T,#\"             Play sound 1-5 else stop sound\015"
 148      22202020 
 148      20202020 
 148      20202020 
 148      2020506C 
 149 0511 0A00     		.ascii	"\012\000"
 150 0513 00       		.align	2
 151              	.LC39:
 152 0514 22742220 		.ascii	"\"t\"               Temperature\015\012\000"
 152      20202020 
 152      20202020 
 152      20202020 
 152      20205465 
 153              		.align	2
ARM GAS  C:\Users\Moi\AppData\Local\Temp\ccF5N8ze.s 			page 6


 154              	.LC40:
 155 0534 22552220 		.ascii	"\"U\"               Get microphone amplitude\015\012"
 155      20202020 
 155      20202020 
 155      20202020 
 155      20204765 
 156 0560 00       		.ascii	"\000"
 157 0561 000000   		.align	2
 158              	.LC41:
 159 0564 22562220 		.ascii	"\"V\"               Version of SerCom\015\012\000"
 159      20202020 
 159      20202020 
 159      20202020 
 159      20205665 
 160 058a 0000     		.align	2
 161              	.LC42:
 162 058c 22572220 		.ascii	"\"W\"               Write I2C (mod,reg,val)\015\012"
 162      20202020 
 162      20202020 
 162      20202020 
 162      20205772 
 163 05b7 00       		.ascii	"\000"
 164              		.align	2
 165              	.LC43:
 166 05b8 22592220 		.ascii	"\"Y\"               Read I2C val=(mod,reg)\015\012\000"
 166      20202020 
 166      20202020 
 166      20202020 
 166      20205265 
 167 05e3 00       		.align	2
 168              	.LC44:
 169 05e4 22412220 		.ascii	"\"A\"       Accelerometer\015\012\000"
 169      20202020 
 169      20204163 
 169      63656C65 
 169      726F6D65 
 170 05fe 0000     		.align	2
 171              	.LC45:
 172 0600 22622220 		.ascii	"\"b\"       Battery value\015\012\000"
 172      20202020 
 172      20204261 
 172      74746572 
 172      79207661 
 173 061a 0000     		.align	2
 174              	.LC46:
 175 061c 22622220 		.ascii	"\"b\"       Battery state (1=ok, 0=low)\015\012\000"
 175      20202020 
 175      20204261 
 175      74746572 
 175      79207374 
 176              		.align	2
 177              	.LC47:
 178 0644 22422C23 		.ascii	"\"B,#\"       Body led 0=off 1=on 2=inverse\015\012"
 178      22202020 
 178      20202020 
 178      426F6479 
 178      206C6564 
ARM GAS  C:\Users\Moi\AppData\Local\Temp\ccF5N8ze.s 			page 7


 179 066f 00       		.ascii	"\000"
 180              		.align	2
 181              	.LC48:
 182 0670 22432220 		.ascii	"\"C\"       Selector position\015\012\000"
 182      20202020 
 182      20205365 
 182      6C656374 
 182      6F722070 
 183 068e 0000     		.align	2
 184              	.LC49:
 185 0690 22442C23 		.ascii	"\"D,#,#\"   Set motor speed left,right\015\012\000"
 185      2C232220 
 185      20205365 
 185      74206D6F 
 185      746F7220 
 186 06b7 00       		.align	2
 187              	.LC50:
 188 06b8 22452220 		.ascii	"\"E\"       Get motor speed left,right\015\012\000"
 188      20202020 
 188      20204765 
 188      74206D6F 
 188      746F7220 
 189 06df 00       		.align	2
 190              	.LC51:
 191 06e0 22462C23 		.ascii	"\"F,#\"       Front led 0=off 1=on 2=inverse\015\012"
 191      22202020 
 191      20202020 
 191      46726F6E 
 191      74206C65 
 192 070c 00       		.ascii	"\000"
 193 070d 000000   		.align	2
 194              	.LC52:
 195 0710 22472220 		.ascii	"\"G\"       IR receiver\015\012\000"
 195      20202020 
 195      20204952 
 195      20726563 
 195      65697665 
 196              		.align	2
 197              	.LC53:
 198 0728 22482220 		.ascii	"\"H\"       Help\015\012\000"
 198      20202020 
 198      20204865 
 198      6C700D0A 
 198      00
 199 0739 000000   		.align	2
 200              	.LC54:
 201 073c 22492220 		.ascii	"\"I\"         Get camera parameter\015\012\000"
 201      20202020 
 201      20202020 
 201      47657420 
 201      63616D65 
 202 075f 00       		.align	2
 203              	.LC55:
 204 0760 224A2C23 		.ascii	"\"J,#,#,#,#,#,#\" Set camera parameter mode,width,h"
 204      2C232C23 
 204      2C232C23 
 204      2C232220 
ARM GAS  C:\Users\Moi\AppData\Local\Temp\ccF5N8ze.s 			page 8


 204      53657420 
 205 0791 65696774 		.ascii	"eigth,zoom(1,4 or 8),x1,y1\015\012\000"
 205      682C7A6F 
 205      6F6D2831 
 205      2C34206F 
 205      72203829 
 206 07ae 0000     		.align	2
 207              	.LC56:
 208 07b0 224B2220 		.ascii	"\"K\"       Calibrate proximity sensors\015\012\000"
 208      20202020 
 208      20204361 
 208      6C696272 
 208      61746520 
 209              		.align	2
 210              	.LC57:
 211 07d8 224C2C23 		.ascii	"\"L,#,#\"   Led number,0=off 1=on 2=inverse\015\012"
 211      2C232220 
 211      20204C65 
 211      64206E75 
 211      6D626572 
 212 0803 00       		.ascii	"\000"
 213              		.align	2
 214              	.LC58:
 215 0804 224D2220 		.ascii	"\"M\"       Floor sensors\015\012\000"
 215      20202020 
 215      2020466C 
 215      6F6F7220 
 215      73656E73 
 216 081e 0000     		.align	2
 217              	.LC59:
 218 0820 224E2220 		.ascii	"\"N\"       Proximity\015\012\000"
 218      20202020 
 218      20205072 
 218      6F78696D 
 218      6974790D 
 219 0836 0000     		.align	2
 220              	.LC60:
 221 0838 224F2220 		.ascii	"\"O\"       Light sensors\015\012\000"
 221      20202020 
 221      20204C69 
 221      67687420 
 221      73656E73 
 222 0852 0000     		.align	2
 223              	.LC61:
 224 0854 22502C23 		.ascii	"\"P,#,#\"   Set motor position left,right\015\012\000"
 224      2C232220 
 224      20205365 
 224      74206D6F 
 224      746F7220 
 225 087e 0000     		.align	2
 226              	.LC62:
 227 0880 22512220 		.ascii	"\"Q\"       Get motor position left,right\015\012\000"
 227      20202020 
 227      20204765 
 227      74206D6F 
 227      746F7220 
 228 08aa 0000     		.align	2
ARM GAS  C:\Users\Moi\AppData\Local\Temp\ccF5N8ze.s 			page 9


 229              	.LC63:
 230 08ac 22522220 		.ascii	"\"R\"       Reset e-puck\015\012\000"
 230      20202020 
 230      20205265 
 230      73657420 
 230      652D7075 
 231 08c5 000000   		.align	2
 232              	.LC64:
 233 08c8 22532220 		.ascii	"\"S\"       Stop e-puck and turn off leds\015\012\000"
 233      20202020 
 233      20205374 
 233      6F702065 
 233      2D707563 
 234 08f2 0000     		.align	2
 235              	.LC65:
 236 08f4 22542C23 		.ascii	"\"T,#\"       Play sound 1-5 else stop sound\015\012"
 236      22202020 
 236      20202020 
 236      506C6179 
 236      20736F75 
 237 0920 00       		.ascii	"\000"
 238 0921 000000   		.align	2
 239              	.LC66:
 240 0924 22552220 		.ascii	"\"U\"       Get microphone amplitude\015\012\000"
 240      20202020 
 240      20204765 
 240      74206D69 
 240      63726F70 
 241 0949 000000   		.align	2
 242              	.LC67:
 243 094c 22562220 		.ascii	"\"V\"       Version of SerCom\015\012\000"
 243      20202020 
 243      20205665 
 243      7273696F 
 243      6E206F66 
 244 096a 0000     		.align	2
 245              	.LC68:
 246 096c 22572220 		.ascii	"\"W\"         Write I2C (mod,reg,val)\015\012\000"
 246      20202020 
 246      20202020 
 246      57726974 
 246      65204932 
 247 0992 0000     		.align	2
 248              	.LC69:
 249 0994 22592220 		.ascii	"\"Y\"         Read I2C val=(mod,reg)\015\012\000"
 249      20202020 
 249      20202020 
 249      52656164 
 249      20493243 
 250 09b9 000000   		.align	2
 251              	.LC70:
 252 09bc 692C2564 		.ascii	"i,%d,%d,%d,%d,%d\015\012\000"
 252      2C25642C 
 252      25642C25 
 252      642C2564 
 252      0D0A00
 253 09cf 00       		.align	2
ARM GAS  C:\Users\Moi\AppData\Local\Temp\ccF5N8ze.s 			page 10


 254              	.LC71:
 255 09d0 4A2C2564 		.ascii	"J,%d,%d,%d,%d,%d,%d\015\000"
 255      2C25642C 
 255      25642C25 
 255      642C2564 
 255      2C25640D 
 256 09e5 000000   		.align	2
 257              	.LC72:
 258 09e8 6A0D0A00 		.ascii	"j\015\012\000"
 259              		.align	2
 260              	.LC73:
 261 09ec 6B2C2053 		.ascii	"k, Starting calibration - Remove any object in sens"
 261      74617274 
 261      696E6720 
 261      63616C69 
 261      62726174 
 262 0a1f 6F727320 		.ascii	"ors range\015\012\000"
 262      72616E67 
 262      650D0A00 
 263 0a2b 00       		.align	2
 264              	.LC74:
 265 0a2c 6B2C2043 		.ascii	"k, Calibration finished\015\012\000"
 265      616C6962 
 265      72617469 
 265      6F6E2066 
 265      696E6973 
 266 0a46 0000     		.align	2
 267              	.LC75:
 268 0a48 4C2C2564 		.ascii	"L,%d,%d\015\000"
 268      2C25640D 
 268      00
 269 0a51 000000   		.align	2
 270              	.LC76:
 271 0a54 6C0D0A00 		.ascii	"l\015\012\000"
 272              		.align	2
 273              	.LC77:
 274 0a58 6D2C2564 		.ascii	"m,%d,%d,%d,%d,%d\015\012\000"
 274      2C25642C 
 274      25642C25 
 274      642C2564 
 274      0D0A00
 275 0a6b 00       		.align	2
 276              	.LC78:
 277 0a6c 6E2C2564 		.ascii	"n,%d,%d,%d,%d,%d,%d,%d,%d\015\012\000"
 277      2C25642C 
 277      25642C25 
 277      642C2564 
 277      2C25642C 
 278              		.align	2
 279              	.LC79:
 280 0a88 6F2C2564 		.ascii	"o,%d,%d,%d,%d,%d,%d,%d,%d\015\012\000"
 280      2C25642C 
 280      25642C25 
 280      642C2564 
 280      2C25642C 
 281              		.align	2
 282              	.LC80:
ARM GAS  C:\Users\Moi\AppData\Local\Temp\ccF5N8ze.s 			page 11


 283 0aa4 502C2564 		.ascii	"P,%d,%d\015\000"
 283      2C25640D 
 283      00
 284 0aad 000000   		.align	2
 285              	.LC81:
 286 0ab0 700D0A00 		.ascii	"p\015\012\000"
 287              		.align	2
 288              	.LC82:
 289 0ab4 712C2564 		.ascii	"q,%d,%d\015\012\000"
 289      2C25640D 
 289      0A00
 290 0abe 0000     		.align	2
 291              	.LC83:
 292 0ac0 730D0A00 		.ascii	"s\015\012\000"
 293              		.align	2
 294              	.LC84:
 295 0ac4 542C2564 		.ascii	"T,%d\000"
 295      00
 296 0ac9 000000   		.align	2
 297              	.LC85:
 298 0acc 740D0A00 		.ascii	"t\015\012\000"
 299              		.align	2
 300              	.LC86:
 301 0ad0 742C2564 		.ascii	"t,%d\015\012\000"
 301      0D0A00
 302 0ad7 00       		.align	2
 303              	.LC87:
 304 0ad8 742C300D 		.ascii	"t,0\015\012\000"
 304      0A00
 305 0ade 0000     		.align	2
 306              	.LC88:
 307 0ae0 752C2564 		.ascii	"u,%d,%d,%d\015\012\000"
 307      2C25642C 
 307      25640D0A 
 307      00
 308 0aed 000000   		.align	2
 309              	.LC89:
 310 0af0 762C5665 		.ascii	"v,Version 2.0 January 2018 GCtronic\015\012\000"
 310      7273696F 
 310      6E20322E 
 310      30204A61 
 310      6E756172 
 311 0b16 0000     		.align	2
 312              	.LC90:
 313 0b18 48572076 		.ascii	"HW version: %X\015\012\000"
 313      65727369 
 313      6F6E3A20 
 313      25580D0A 
 313      00
 314 0b29 000000   		.align	2
 315              	.LC91:
 316 0b2c 572C2564 		.ascii	"W,%d,%d,%d\015\000"
 316      2C25642C 
 316      25640D00 
 317              		.align	2
 318              	.LC92:
 319 0b38 770D0A00 		.ascii	"w\015\012\000"
ARM GAS  C:\Users\Moi\AppData\Local\Temp\ccF5N8ze.s 			page 12


 320              		.align	2
 321              	.LC93:
 322 0b3c 592C2564 		.ascii	"Y,%d,%d\015\000"
 322      2C25640D 
 322      00
 323 0b45 000000   		.align	2
 324              	.LC94:
 325 0b48 792C2564 		.ascii	"y,%d,%d\015\012\000"
 325      2C25640D 
 325      0A00
 326 0b52 0000     		.align	2
 327              	.LC95:
 328 0b54 792C2564 		.ascii	"y,%d\015\012\000"
 328      0D0A00
 329 0b5b 00       		.align	2
 330              	.LC96:
 331 0b5c 25643A20 		.ascii	"%d: %d\015\012\000"
 331      25640D0A 
 331      00
 332 0b65 000000   		.align	2
 333              	.LC97:
 334 0b68 7A2C436F 		.ascii	"z,Command not found\015\012\000"
 334      6D6D616E 
 334      64206E6F 
 334      7420666F 
 334      756E640D 
 335              		.section	.text.run_asercom2,"ax",%progbits
 336              		.align	1
 337              		.p2align 4,,15
 338              		.global	run_asercom2
 339              		.syntax unified
 340              		.thumb
 341              		.thumb_func
 342              		.fpu fpv4-sp-d16
 343              		.type	run_asercom2, %function
 344              	run_asercom2:
 345              	.LFB260:
 346              		.file 1 "..//src/epuck1x/Asercom2.c"
 347              		.loc 1 68 0
 348              		.cfi_startproc
 349              		@ args = 0, pretend = 0, frame = 40
 350              		@ frame_needed = 0, uses_anonymous_args = 0
 351 0000 2DE9F043 		push	{r4, r5, r6, r7, r8, r9, lr}
 352              		.cfi_def_cfa_offset 28
 353              		.cfi_offset 4, -28
 354              		.cfi_offset 5, -24
 355              		.cfi_offset 6, -20
 356              		.cfi_offset 7, -16
 357              		.cfi_offset 8, -12
 358              		.cfi_offset 9, -8
 359              		.cfi_offset 14, -4
 360 0004 91B0     		sub	sp, sp, #68
 361              		.cfi_def_cfa_offset 96
 362              		.loc 1 68 0
 363 0006 B44B     		ldr	r3, .L487
 364 0008 1B68     		ldr	r3, [r3]
 365 000a 0F93     		str	r3, [sp, #60]
ARM GAS  C:\Users\Moi\AppData\Local\Temp\ccF5N8ze.s 			page 13


 366              		.loc 1 77 0
 367 000c 0023     		movs	r3, #0
 368 000e 8DF82730 		strb	r3, [sp, #39]
 369 0012 0023     		movs	r3, #0
 370 0014 8DF82830 		strb	r3, [sp, #40]
 371 0018 0023     		movs	r3, #0
 372 001a 8DF82530 		strb	r3, [sp, #37]
 373              		.loc 1 81 0
 374 001e 0023     		movs	r3, #0
 375 0020 0B93     		str	r3, [sp, #44]
 376              		.loc 1 82 0
 377 0022 0023     		movs	r3, #0
 378 0024 0D93     		str	r3, [sp, #52]
 379              		.loc 1 83 0
 380 0026 0023     		movs	r3, #0
 381 0028 8DF82630 		strb	r3, [sp, #38]
 382              		.loc 1 84 0
 383 002c 0023     		movs	r3, #0
 384 002e ADF82A30 		strh	r3, [sp, #42]	@ movhi
 385              		.loc 1 88 0
 386 0032 FFF7FEFF 		bl	e_init_motors
 387              		.loc 1 92 0
 388 0036 FFF7FEFF 		bl	getselector
 389 003a 0246     		mov	r2, r0
 390 003c A74B     		ldr	r3, .L487+4
 391 003e 1A60     		str	r2, [r3]
 392              		.loc 1 93 0
 393 0040 A64B     		ldr	r3, .L487+4
 394 0042 1B68     		ldr	r3, [r3]
 395 0044 032B     		cmp	r3, #3
 396 0046 02D1     		bne	.L2
 397              		.loc 1 94 0
 398 0048 0123     		movs	r3, #1
 399 004a 0B93     		str	r3, [sp, #44]
 400 004c 01E0     		b	.L3
 401              	.L2:
 402              		.loc 1 96 0
 403 004e 0023     		movs	r3, #0
 404 0050 0B93     		str	r3, [sp, #44]
 405              	.L3:
 406              		.loc 1 98 0
 407 0052 A24B     		ldr	r3, .L487+4
 408 0054 1B68     		ldr	r3, [r3]
 409 0056 0A2B     		cmp	r3, #10
 410 0058 03D1     		bne	.L4
 411              		.loc 1 99 0
 412 005a 0123     		movs	r3, #1
 413 005c 8DF82630 		strb	r3, [sp, #38]
 414 0060 02E0     		b	.L5
 415              	.L4:
 416              		.loc 1 101 0
 417 0062 0023     		movs	r3, #0
 418 0064 8DF82630 		strb	r3, [sp, #38]
 419              	.L5:
 420              		.loc 1 104 0
 421 0068 FFF7FEFF 		bl	mountSDCard
 422              		.loc 1 107 0
ARM GAS  C:\Users\Moi\AppData\Local\Temp\ccF5N8ze.s 			page 14


 423 006c 9DF82630 		ldrb	r3, [sp, #38]	@ zero_extendqisi2
 424 0070 002B     		cmp	r3, #0
 425 0072 01D1     		bne	.L6
 426              		.loc 1 108 0
 427 0074 FFF7FEFF 		bl	e_i2cp_init
 428              	.L6:
 429              		.loc 1 113 0
 430 0078 FFF7FEFF 		bl	e_init_remote_control
 431              		.loc 1 121 0
 432 007c 0123     		movs	r3, #1
 433 007e 984A     		ldr	r2, .L487+8
 434 0080 4FF6FE71 		movw	r1, #65534
 435 0084 7F20     		movs	r0, #127
 436 0086 FFF7FEFF 		bl	ReadEE
 437              		.loc 1 124 0
 438 008a 964B     		ldr	r3, .L487+12
 439 008c 0122     		movs	r2, #1
 440 008e 1A60     		str	r2, [r3]
 441              		.loc 1 126 0
 442 0090 954B     		ldr	r3, .L487+16
 443 0092 2822     		movs	r2, #40
 444 0094 1A60     		str	r2, [r3]
 445              		.loc 1 127 0
 446 0096 954B     		ldr	r3, .L487+20
 447 0098 2822     		movs	r2, #40
 448 009a 1A60     		str	r2, [r3]
 449              		.loc 1 128 0
 450 009c 944B     		ldr	r3, .L487+24
 451 009e 0822     		movs	r2, #8
 452 00a0 1A60     		str	r2, [r3]
 453              		.loc 1 129 0
 454 00a2 914B     		ldr	r3, .L487+16
 455 00a4 1B68     		ldr	r3, [r3]
 456 00a6 914A     		ldr	r2, .L487+20
 457 00a8 1268     		ldr	r2, [r2]
 458 00aa 02FB03F3 		mul	r3, r2, r3
 459 00ae 5B00     		lsls	r3, r3, #1
 460 00b0 904A     		ldr	r2, .L487+28
 461 00b2 1360     		str	r3, [r2]
 462              		.loc 1 131 0
 463 00b4 9DF82630 		ldrb	r3, [sp, #38]	@ zero_extendqisi2
 464 00b8 002B     		cmp	r3, #0
 465 00ba 39D1     		bne	.L7
 466              		.loc 1 132 0
 467 00bc FFF7FEFF 		bl	e_poxxxx_init_cam
 468              		.loc 1 133 0
 469 00c0 894B     		ldr	r3, .L487+16
 470 00c2 1B68     		ldr	r3, [r3]
 471 00c4 8A4A     		ldr	r2, .L487+24
 472 00c6 1268     		ldr	r2, [r2]
 473 00c8 02FB03F3 		mul	r3, r2, r3
 474 00cc C3F52073 		rsb	r3, r3, #640
 475 00d0 DA0F     		lsrs	r2, r3, #31
 476 00d2 1344     		add	r3, r3, r2
 477 00d4 5B10     		asrs	r3, r3, #1
 478 00d6 1846     		mov	r0, r3
 479 00d8 844B     		ldr	r3, .L487+20
ARM GAS  C:\Users\Moi\AppData\Local\Temp\ccF5N8ze.s 			page 15


 480 00da 1B68     		ldr	r3, [r3]
 481 00dc 844A     		ldr	r2, .L487+24
 482 00de 1268     		ldr	r2, [r2]
 483 00e0 02FB03F3 		mul	r3, r2, r3
 484 00e4 C3F5F073 		rsb	r3, r3, #480
 485 00e8 DA0F     		lsrs	r2, r3, #31
 486 00ea 1344     		add	r3, r3, r2
 487 00ec 5B10     		asrs	r3, r3, #1
 488 00ee 1C46     		mov	r4, r3
 489 00f0 7D4B     		ldr	r3, .L487+16
 490 00f2 1B68     		ldr	r3, [r3]
 491 00f4 7E4A     		ldr	r2, .L487+24
 492 00f6 1268     		ldr	r2, [r2]
 493 00f8 02FB03F3 		mul	r3, r2, r3
 494 00fc 1D46     		mov	r5, r3
 495 00fe 7B4B     		ldr	r3, .L487+20
 496 0100 1B68     		ldr	r3, [r3]
 497 0102 7B4A     		ldr	r2, .L487+24
 498 0104 1268     		ldr	r2, [r2]
 499 0106 02FB03F3 		mul	r3, r2, r3
 500 010a 1E46     		mov	r6, r3
 501 010c 784B     		ldr	r3, .L487+24
 502 010e 1B68     		ldr	r3, [r3]
 503 0110 1A46     		mov	r2, r3
 504 0112 774B     		ldr	r3, .L487+24
 505 0114 1B68     		ldr	r3, [r3]
 506 0116 1946     		mov	r1, r3
 507 0118 724B     		ldr	r3, .L487+12
 508 011a 1B68     		ldr	r3, [r3]
 509 011c 0293     		str	r3, [sp, #8]
 510 011e 0191     		str	r1, [sp, #4]
 511 0120 0092     		str	r2, [sp]
 512 0122 3346     		mov	r3, r6
 513 0124 2A46     		mov	r2, r5
 514 0126 2146     		mov	r1, r4
 515 0128 FFF7FEFF 		bl	e_poxxxx_config_cam
 516              		.loc 1 134 0
 517 012c FFF7FEFF 		bl	e_poxxxx_write_cam_registers
 518              	.L7:
 519              		.loc 1 137 0
 520 0130 9DF82630 		ldrb	r3, [sp, #38]	@ zero_extendqisi2
 521 0134 002B     		cmp	r3, #0
 522 0136 1BD1     		bne	.L441
 523              		.loc 1 142 0
 524 0138 0B9B     		ldr	r3, [sp, #44]
 525 013a 002B     		cmp	r3, #0
 526 013c 0CD0     		beq	.L9
 527              		.loc 1 143 0
 528 013e FFF7FEFF 		bl	e_acc_calibr
 529              		.loc 1 144 0
 530 0142 5821     		movs	r1, #88
 531 0144 6C48     		ldr	r0, .L487+32
 532 0146 FFF7FEFF 		bl	e_send_uart1_char
 533 014a 00BF     		nop
 534              	.L10:
 535              		.loc 1 144 0 is_stmt 0 discriminator 2
 536 014c FFF7FEFF 		bl	e_uart1_sending
ARM GAS  C:\Users\Moi\AppData\Local\Temp\ccF5N8ze.s 			page 16


 537 0150 0346     		mov	r3, r0
 538 0152 002B     		cmp	r3, #0
 539 0154 FAD1     		bne	.L10
 540 0156 0BE0     		b	.L441
 541              	.L9:
 542              		.loc 1 148 0 is_stmt 1
 543 0158 FFF7FEFF 		bl	e_acc_calibr
 544              		.loc 1 149 0
 545 015c 5821     		movs	r1, #88
 546 015e 6648     		ldr	r0, .L487+32
 547 0160 FFF7FEFF 		bl	e_send_uart2_char
 548 0164 00BF     		nop
 549              	.L11:
 550              		.loc 1 149 0 is_stmt 0 discriminator 2
 551 0166 FFF7FEFF 		bl	e_uart2_sending
 552 016a 0346     		mov	r3, r0
 553 016c 002B     		cmp	r3, #0
 554 016e FAD1     		bne	.L11
 555              	.L441:
 556              		.loc 1 155 0 is_stmt 1
 557 0170 9DF82630 		ldrb	r3, [sp, #38]	@ zero_extendqisi2
 558 0174 002B     		cmp	r3, #0
 559 0176 40F07681 		bne	.L12
 560              		.loc 1 157 0
 561 017a 0B9B     		ldr	r3, [sp, #44]
 562 017c 002B     		cmp	r3, #0
 563 017e 00F06B81 		beq	.L31
 564              		.loc 1 158 0
 565 0182 A1E0     		b	.L14
 566              	.L30:
 567              		.loc 1 161 0
 568 0184 FFF7FEFF 		bl	e_get_data
 569 0188 0346     		mov	r3, r0
 570 018a 8DF82730 		strb	r3, [sp, #39]
 571              		.loc 1 162 0
 572 018e FFF7FEFF 		bl	e_get_address
 573 0192 0346     		mov	r3, r0
 574 0194 8DF82830 		strb	r3, [sp, #40]
 575              		.loc 1 163 0
 576 0198 9DF82830 		ldrb	r3, [sp, #40]	@ zero_extendqisi2
 577 019c 002B     		cmp	r3, #0
 578 019e 04D0     		beq	.L15
 579              		.loc 1 163 0 is_stmt 0 discriminator 2
 580 01a0 9DF82830 		ldrb	r3, [sp, #40]	@ zero_extendqisi2
 581 01a4 082B     		cmp	r3, #8
 582 01a6 40F08F80 		bne	.L14
 583              	.L15:
 584              		.loc 1 163 0 discriminator 3
 585 01aa 9DF82720 		ldrb	r2, [sp, #39]	@ zero_extendqisi2
 586 01ae 9DF82530 		ldrb	r3, [sp, #37]	@ zero_extendqisi2
 587 01b2 9A42     		cmp	r2, r3
 588 01b4 00F08880 		beq	.L14
 589              		.loc 1 164 0 is_stmt 1
 590 01b8 9DF82730 		ldrb	r3, [sp, #39]	@ zero_extendqisi2
 591 01bc 092B     		cmp	r3, #9
 592 01be 6ED8     		bhi	.L16
 593 01c0 01A2     		adr	r2, .L18
ARM GAS  C:\Users\Moi\AppData\Local\Temp\ccF5N8ze.s 			page 17


 594 01c2 52F823F0 		ldr	pc, [r2, r3, lsl #2]
 595 01c6 00BF     		.p2align 2
 596              	.L18:
 597 01c8 7F020000 		.word	.L17+1
 598 01cc F1010000 		.word	.L19+1
 599 01d0 03020000 		.word	.L20+1
 600 01d4 15020000 		.word	.L21+1
 601 01d8 27020000 		.word	.L22+1
 602 01dc 37020000 		.word	.L23+1
 603 01e0 45020000 		.word	.L24+1
 604 01e4 55020000 		.word	.L25+1
 605 01e8 63020000 		.word	.L26+1
 606 01ec 71020000 		.word	.L27+1
 607              		.p2align 1
 608              	.L19:
 609              		.loc 1 166 0
 610 01f0 424B     		ldr	r3, .L487+36
 611 01f2 4FF41672 		mov	r2, #600
 612 01f6 1A60     		str	r2, [r3]
 613              		.loc 1 167 0
 614 01f8 414B     		ldr	r3, .L487+40
 615 01fa 4FF49672 		mov	r2, #300
 616 01fe 1A60     		str	r2, [r3]
 617              		.loc 1 168 0
 618 0200 54E0     		b	.L28
 619              	.L20:
 620              		.loc 1 170 0
 621 0202 3E4B     		ldr	r3, .L487+36
 622 0204 4FF41672 		mov	r2, #600
 623 0208 1A60     		str	r2, [r3]
 624              		.loc 1 171 0
 625 020a 3D4B     		ldr	r3, .L487+40
 626 020c 4FF41672 		mov	r2, #600
 627 0210 1A60     		str	r2, [r3]
 628              		.loc 1 172 0
 629 0212 4BE0     		b	.L28
 630              	.L21:
 631              		.loc 1 174 0
 632 0214 394B     		ldr	r3, .L487+36
 633 0216 4FF49672 		mov	r2, #300
 634 021a 1A60     		str	r2, [r3]
 635              		.loc 1 175 0
 636 021c 384B     		ldr	r3, .L487+40
 637 021e 4FF41672 		mov	r2, #600
 638 0222 1A60     		str	r2, [r3]
 639              		.loc 1 176 0
 640 0224 42E0     		b	.L28
 641              	.L22:
 642              		.loc 1 178 0
 643 0226 354B     		ldr	r3, .L487+36
 644 0228 4FF41672 		mov	r2, #600
 645 022c 1A60     		str	r2, [r3]
 646              		.loc 1 179 0
 647 022e 344B     		ldr	r3, .L487+40
 648 0230 344A     		ldr	r2, .L487+44
 649 0232 1A60     		str	r2, [r3]
 650              		.loc 1 180 0
ARM GAS  C:\Users\Moi\AppData\Local\Temp\ccF5N8ze.s 			page 18


 651 0234 3AE0     		b	.L28
 652              	.L23:
 653              		.loc 1 182 0
 654 0236 314B     		ldr	r3, .L487+36
 655 0238 0022     		movs	r2, #0
 656 023a 1A60     		str	r2, [r3]
 657              		.loc 1 183 0
 658 023c 304B     		ldr	r3, .L487+40
 659 023e 0022     		movs	r2, #0
 660 0240 1A60     		str	r2, [r3]
 661              		.loc 1 184 0
 662 0242 33E0     		b	.L28
 663              	.L24:
 664              		.loc 1 186 0
 665 0244 2D4B     		ldr	r3, .L487+36
 666 0246 2F4A     		ldr	r2, .L487+44
 667 0248 1A60     		str	r2, [r3]
 668              		.loc 1 187 0
 669 024a 2D4B     		ldr	r3, .L487+40
 670 024c 4FF41672 		mov	r2, #600
 671 0250 1A60     		str	r2, [r3]
 672              		.loc 1 188 0
 673 0252 2BE0     		b	.L28
 674              	.L25:
 675              		.loc 1 190 0
 676 0254 294B     		ldr	r3, .L487+36
 677 0256 2B4A     		ldr	r2, .L487+44
 678 0258 1A60     		str	r2, [r3]
 679              		.loc 1 191 0
 680 025a 294B     		ldr	r3, .L487+40
 681 025c 2A4A     		ldr	r2, .L487+48
 682 025e 1A60     		str	r2, [r3]
 683              		.loc 1 192 0
 684 0260 24E0     		b	.L28
 685              	.L26:
 686              		.loc 1 194 0
 687 0262 264B     		ldr	r3, .L487+36
 688 0264 274A     		ldr	r2, .L487+44
 689 0266 1A60     		str	r2, [r3]
 690              		.loc 1 195 0
 691 0268 254B     		ldr	r3, .L487+40
 692 026a 264A     		ldr	r2, .L487+44
 693 026c 1A60     		str	r2, [r3]
 694              		.loc 1 196 0
 695 026e 1DE0     		b	.L28
 696              	.L27:
 697              		.loc 1 198 0
 698 0270 224B     		ldr	r3, .L487+36
 699 0272 254A     		ldr	r2, .L487+48
 700 0274 1A60     		str	r2, [r3]
 701              		.loc 1 199 0
 702 0276 224B     		ldr	r3, .L487+40
 703 0278 224A     		ldr	r2, .L487+44
 704 027a 1A60     		str	r2, [r3]
 705              		.loc 1 200 0
 706 027c 16E0     		b	.L28
 707              	.L17:
ARM GAS  C:\Users\Moi\AppData\Local\Temp\ccF5N8ze.s 			page 19


 708              		.loc 1 202 0
 709 027e 234B     		ldr	r3, .L487+52
 710 0280 1B78     		ldrb	r3, [r3]	@ zero_extendqisi2
 711 0282 002B     		cmp	r3, #0
 712 0284 04D1     		bne	.L29
 713              		.loc 1 203 0
 714 0286 FFF7FEFF 		bl	e_init_sound
 715              		.loc 1 204 0
 716 028a 204B     		ldr	r3, .L487+52
 717 028c 0122     		movs	r2, #1
 718 028e 1A70     		strb	r2, [r3]
 719              	.L29:
 720              		.loc 1 206 0
 721 0290 41F65071 		movw	r1, #8016
 722 0294 42F61430 		movw	r0, #11028
 723 0298 FFF7FEFF 		bl	e_play_sound
 724              		.loc 1 207 0
 725 029c 06E0     		b	.L28
 726              	.L16:
 727              		.loc 1 209 0
 728 029e 184B     		ldr	r3, .L487+40
 729 02a0 0022     		movs	r2, #0
 730 02a2 1A60     		str	r2, [r3]
 731 02a4 164B     		ldr	r3, .L487+40
 732 02a6 1B68     		ldr	r3, [r3]
 733 02a8 144A     		ldr	r2, .L487+36
 734 02aa 1360     		str	r3, [r2]
 735              	.L28:
 736              		.loc 1 211 0
 737 02ac 9DF82730 		ldrb	r3, [sp, #39]
 738 02b0 8DF82530 		strb	r3, [sp, #37]
 739              		.loc 1 212 0
 740 02b4 124B     		ldr	r3, .L487+40
 741 02b6 1B68     		ldr	r3, [r3]
 742 02b8 1846     		mov	r0, r3
 743 02ba FFF7FEFF 		bl	e_set_speed_left
 744              		.loc 1 213 0
 745 02be 0F4B     		ldr	r3, .L487+36
 746 02c0 1B68     		ldr	r3, [r3]
 747 02c2 1846     		mov	r0, r3
 748 02c4 FFF7FEFF 		bl	e_set_speed_right
 749              	.L14:
 750              		.loc 1 158 0
 751 02c8 1148     		ldr	r0, .L487+56
 752 02ca FFF7FEFF 		bl	e_getchar_uart1
 753 02ce 0346     		mov	r3, r0
 754 02d0 002B     		cmp	r3, #0
 755 02d2 3FF457AF 		beq	.L30
 756 02d6 C6E0     		b	.L12
 757              	.L488:
 758              		.align	2
 759              	.L487:
 760 02d8 00000000 		.word	__stack_chk_guard
 761 02dc 00000000 		.word	selector
 762 02e0 00000000 		.word	HWversion.13569
 763 02e4 00000000 		.word	cam_mode.13548
 764 02e8 00000000 		.word	cam_width.13549
ARM GAS  C:\Users\Moi\AppData\Local\Temp\ccF5N8ze.s 			page 20


 765 02ec 00000000 		.word	cam_heigth.13550
 766 02f0 00000000 		.word	cam_zoom.13551
 767 02f4 00000000 		.word	cam_size.13552
 768 02f8 00000000 		.word	.LC0
 769 02fc 00000000 		.word	speedr.13535
 770 0300 00000000 		.word	speedl.13536
 771 0304 A8FDFFFF 		.word	-600
 772 0308 D4FEFFFF 		.word	-300
 773 030c 00000000 		.word	first.13555
 774 0310 00000000 		.word	c
 775              	.L47:
 776              		.loc 1 223 0
 777 0314 FFF7FEFF 		bl	e_get_data
 778 0318 0346     		mov	r3, r0
 779 031a 8DF82730 		strb	r3, [sp, #39]
 780              		.loc 1 224 0
 781 031e FFF7FEFF 		bl	e_get_address
 782 0322 0346     		mov	r3, r0
 783 0324 8DF82830 		strb	r3, [sp, #40]
 784              		.loc 1 225 0
 785 0328 9DF82830 		ldrb	r3, [sp, #40]	@ zero_extendqisi2
 786 032c 002B     		cmp	r3, #0
 787 032e 04D0     		beq	.L32
 788              		.loc 1 225 0 is_stmt 0 discriminator 2
 789 0330 9DF82830 		ldrb	r3, [sp, #40]	@ zero_extendqisi2
 790 0334 082B     		cmp	r3, #8
 791 0336 40F08F80 		bne	.L31
 792              	.L32:
 793              		.loc 1 225 0 discriminator 3
 794 033a 9DF82720 		ldrb	r2, [sp, #39]	@ zero_extendqisi2
 795 033e 9DF82530 		ldrb	r3, [sp, #37]	@ zero_extendqisi2
 796 0342 9A42     		cmp	r2, r3
 797 0344 00F08880 		beq	.L31
 798              		.loc 1 226 0 is_stmt 1
 799 0348 9DF82730 		ldrb	r3, [sp, #39]	@ zero_extendqisi2
 800 034c 092B     		cmp	r3, #9
 801 034e 6ED8     		bhi	.L33
 802 0350 01A2     		adr	r2, .L35
 803 0352 52F823F0 		ldr	pc, [r2, r3, lsl #2]
 804 0356 00BF     		.p2align 2
 805              	.L35:
 806 0358 0F040000 		.word	.L34+1
 807 035c 81030000 		.word	.L36+1
 808 0360 93030000 		.word	.L37+1
 809 0364 A5030000 		.word	.L38+1
 810 0368 B7030000 		.word	.L39+1
 811 036c C7030000 		.word	.L40+1
 812 0370 D5030000 		.word	.L41+1
 813 0374 E5030000 		.word	.L42+1
 814 0378 F3030000 		.word	.L43+1
 815 037c 01040000 		.word	.L44+1
 816              		.p2align 1
 817              	.L36:
 818              		.loc 1 228 0
 819 0380 BD4B     		ldr	r3, .L489
 820 0382 4FF41672 		mov	r2, #600
 821 0386 1A60     		str	r2, [r3]
ARM GAS  C:\Users\Moi\AppData\Local\Temp\ccF5N8ze.s 			page 21


 822              		.loc 1 229 0
 823 0388 BC4B     		ldr	r3, .L489+4
 824 038a 4FF49672 		mov	r2, #300
 825 038e 1A60     		str	r2, [r3]
 826              		.loc 1 230 0
 827 0390 54E0     		b	.L45
 828              	.L37:
 829              		.loc 1 232 0
 830 0392 B94B     		ldr	r3, .L489
 831 0394 4FF41672 		mov	r2, #600
 832 0398 1A60     		str	r2, [r3]
 833              		.loc 1 233 0
 834 039a B84B     		ldr	r3, .L489+4
 835 039c 4FF41672 		mov	r2, #600
 836 03a0 1A60     		str	r2, [r3]
 837              		.loc 1 234 0
 838 03a2 4BE0     		b	.L45
 839              	.L38:
 840              		.loc 1 236 0
 841 03a4 B44B     		ldr	r3, .L489
 842 03a6 4FF49672 		mov	r2, #300
 843 03aa 1A60     		str	r2, [r3]
 844              		.loc 1 237 0
 845 03ac B34B     		ldr	r3, .L489+4
 846 03ae 4FF41672 		mov	r2, #600
 847 03b2 1A60     		str	r2, [r3]
 848              		.loc 1 238 0
 849 03b4 42E0     		b	.L45
 850              	.L39:
 851              		.loc 1 240 0
 852 03b6 B04B     		ldr	r3, .L489
 853 03b8 4FF41672 		mov	r2, #600
 854 03bc 1A60     		str	r2, [r3]
 855              		.loc 1 241 0
 856 03be AF4B     		ldr	r3, .L489+4
 857 03c0 AF4A     		ldr	r2, .L489+8
 858 03c2 1A60     		str	r2, [r3]
 859              		.loc 1 242 0
 860 03c4 3AE0     		b	.L45
 861              	.L40:
 862              		.loc 1 244 0
 863 03c6 AC4B     		ldr	r3, .L489
 864 03c8 0022     		movs	r2, #0
 865 03ca 1A60     		str	r2, [r3]
 866              		.loc 1 245 0
 867 03cc AB4B     		ldr	r3, .L489+4
 868 03ce 0022     		movs	r2, #0
 869 03d0 1A60     		str	r2, [r3]
 870              		.loc 1 246 0
 871 03d2 33E0     		b	.L45
 872              	.L41:
 873              		.loc 1 248 0
 874 03d4 A84B     		ldr	r3, .L489
 875 03d6 AA4A     		ldr	r2, .L489+8
 876 03d8 1A60     		str	r2, [r3]
 877              		.loc 1 249 0
 878 03da A84B     		ldr	r3, .L489+4
ARM GAS  C:\Users\Moi\AppData\Local\Temp\ccF5N8ze.s 			page 22


 879 03dc 4FF41672 		mov	r2, #600
 880 03e0 1A60     		str	r2, [r3]
 881              		.loc 1 250 0
 882 03e2 2BE0     		b	.L45
 883              	.L42:
 884              		.loc 1 252 0
 885 03e4 A44B     		ldr	r3, .L489
 886 03e6 A64A     		ldr	r2, .L489+8
 887 03e8 1A60     		str	r2, [r3]
 888              		.loc 1 253 0
 889 03ea A44B     		ldr	r3, .L489+4
 890 03ec A54A     		ldr	r2, .L489+12
 891 03ee 1A60     		str	r2, [r3]
 892              		.loc 1 254 0
 893 03f0 24E0     		b	.L45
 894              	.L43:
 895              		.loc 1 256 0
 896 03f2 A14B     		ldr	r3, .L489
 897 03f4 A24A     		ldr	r2, .L489+8
 898 03f6 1A60     		str	r2, [r3]
 899              		.loc 1 257 0
 900 03f8 A04B     		ldr	r3, .L489+4
 901 03fa A14A     		ldr	r2, .L489+8
 902 03fc 1A60     		str	r2, [r3]
 903              		.loc 1 258 0
 904 03fe 1DE0     		b	.L45
 905              	.L44:
 906              		.loc 1 260 0
 907 0400 9D4B     		ldr	r3, .L489
 908 0402 A04A     		ldr	r2, .L489+12
 909 0404 1A60     		str	r2, [r3]
 910              		.loc 1 261 0
 911 0406 9D4B     		ldr	r3, .L489+4
 912 0408 9D4A     		ldr	r2, .L489+8
 913 040a 1A60     		str	r2, [r3]
 914              		.loc 1 262 0
 915 040c 16E0     		b	.L45
 916              	.L34:
 917              		.loc 1 264 0
 918 040e 9E4B     		ldr	r3, .L489+16
 919 0410 1B78     		ldrb	r3, [r3]	@ zero_extendqisi2
 920 0412 002B     		cmp	r3, #0
 921 0414 04D1     		bne	.L46
 922              		.loc 1 265 0
 923 0416 FFF7FEFF 		bl	e_init_sound
 924              		.loc 1 266 0
 925 041a 9B4B     		ldr	r3, .L489+16
 926 041c 0122     		movs	r2, #1
 927 041e 1A70     		strb	r2, [r3]
 928              	.L46:
 929              		.loc 1 268 0
 930 0420 41F65071 		movw	r1, #8016
 931 0424 42F61430 		movw	r0, #11028
 932 0428 FFF7FEFF 		bl	e_play_sound
 933              		.loc 1 269 0
 934 042c 06E0     		b	.L45
 935              	.L33:
ARM GAS  C:\Users\Moi\AppData\Local\Temp\ccF5N8ze.s 			page 23


 936              		.loc 1 271 0
 937 042e 934B     		ldr	r3, .L489+4
 938 0430 0022     		movs	r2, #0
 939 0432 1A60     		str	r2, [r3]
 940 0434 914B     		ldr	r3, .L489+4
 941 0436 1B68     		ldr	r3, [r3]
 942 0438 8F4A     		ldr	r2, .L489
 943 043a 1360     		str	r3, [r2]
 944              	.L45:
 945              		.loc 1 273 0
 946 043c 9DF82730 		ldrb	r3, [sp, #39]
 947 0440 8DF82530 		strb	r3, [sp, #37]
 948              		.loc 1 274 0
 949 0444 8D4B     		ldr	r3, .L489+4
 950 0446 1B68     		ldr	r3, [r3]
 951 0448 1846     		mov	r0, r3
 952 044a FFF7FEFF 		bl	e_set_speed_left
 953              		.loc 1 275 0
 954 044e 8A4B     		ldr	r3, .L489
 955 0450 1B68     		ldr	r3, [r3]
 956 0452 1846     		mov	r0, r3
 957 0454 FFF7FEFF 		bl	e_set_speed_right
 958              	.L31:
 959              		.loc 1 220 0
 960 0458 8C48     		ldr	r0, .L489+20
 961 045a FFF7FEFF 		bl	e_getchar_uart2
 962 045e 0346     		mov	r3, r0
 963 0460 002B     		cmp	r3, #0
 964 0462 3FF457AF 		beq	.L47
 965              	.L12:
 966              		.loc 1 283 0
 967 0466 894B     		ldr	r3, .L489+20
 968 0468 1B78     		ldrb	r3, [r3]	@ zero_extendqisi2
 969 046a 5BB2     		sxtb	r3, r3
 970 046c 002B     		cmp	r3, #0
 971 046e 81F25880 		bge	.L48
 972              		.loc 1 284 0
 973 0472 874B     		ldr	r3, .L489+24
 974 0474 0022     		movs	r2, #0
 975 0476 1A60     		str	r2, [r3]
 976              	.L170:
 977              		.loc 1 286 0
 978 0478 844B     		ldr	r3, .L489+20
 979 047a 1B78     		ldrb	r3, [r3]	@ zero_extendqisi2
 980 047c 5B42     		negs	r3, r3
 981 047e DBB2     		uxtb	r3, r3
 982 0480 5BB2     		sxtb	r3, r3
 983 0482 0A3B     		subs	r3, r3, #10
 984 0484 6D2B     		cmp	r3, #109
 985 0486 00F2E587 		bhi	.L444
 986 048a 01A2     		adr	r2, .L51
 987 048c 52F823F0 		ldr	pc, [r2, r3, lsl #2]
 988              		.p2align 2
 989              	.L51:
 990 0490 49060000 		.word	.L50+1
 991 0494 11070000 		.word	.L52+1
 992 0498 2B070000 		.word	.L53+1
ARM GAS  C:\Users\Moi\AppData\Local\Temp\ccF5N8ze.s 			page 24


 993 049c 07080000 		.word	.L54+1
 994 04a0 6D080000 		.word	.L55+1
 995 04a4 55140000 		.word	.L444+1
 996 04a8 55140000 		.word	.L444+1
 997 04ac 55140000 		.word	.L444+1
 998 04b0 55140000 		.word	.L444+1
 999 04b4 55140000 		.word	.L444+1
 1000 04b8 55140000 		.word	.L444+1
 1001 04bc 55140000 		.word	.L444+1
 1002 04c0 55140000 		.word	.L444+1
 1003 04c4 55140000 		.word	.L444+1
 1004 04c8 55140000 		.word	.L444+1
 1005 04cc 55140000 		.word	.L444+1
 1006 04d0 55140000 		.word	.L444+1
 1007 04d4 55140000 		.word	.L444+1
 1008 04d8 55140000 		.word	.L444+1
 1009 04dc 55140000 		.word	.L444+1
 1010 04e0 55140000 		.word	.L444+1
 1011 04e4 55140000 		.word	.L444+1
 1012 04e8 55140000 		.word	.L444+1
 1013 04ec 55140000 		.word	.L444+1
 1014 04f0 55140000 		.word	.L444+1
 1015 04f4 55140000 		.word	.L444+1
 1016 04f8 55140000 		.word	.L444+1
 1017 04fc 55140000 		.word	.L444+1
 1018 0500 55140000 		.word	.L444+1
 1019 0504 55140000 		.word	.L444+1
 1020 0508 55140000 		.word	.L444+1
 1021 050c 55140000 		.word	.L444+1
 1022 0510 55140000 		.word	.L444+1
 1023 0514 55140000 		.word	.L444+1
 1024 0518 55140000 		.word	.L444+1
 1025 051c 55140000 		.word	.L444+1
 1026 0520 55140000 		.word	.L444+1
 1027 0524 55140000 		.word	.L444+1
 1028 0528 55140000 		.word	.L444+1
 1029 052c 55140000 		.word	.L444+1
 1030 0530 55140000 		.word	.L444+1
 1031 0534 55140000 		.word	.L444+1
 1032 0538 55140000 		.word	.L444+1
 1033 053c 55140000 		.word	.L444+1
 1034 0540 55140000 		.word	.L444+1
 1035 0544 55140000 		.word	.L444+1
 1036 0548 55140000 		.word	.L444+1
 1037 054c 55140000 		.word	.L444+1
 1038 0550 55140000 		.word	.L444+1
 1039 0554 55140000 		.word	.L444+1
 1040 0558 55140000 		.word	.L444+1
 1041 055c 55140000 		.word	.L444+1
 1042 0560 55140000 		.word	.L444+1
 1043 0564 55140000 		.word	.L444+1
 1044 0568 55140000 		.word	.L444+1
 1045 056c 89090000 		.word	.L56+1
 1046 0570 55140000 		.word	.L444+1
 1047 0574 55140000 		.word	.L444+1
 1048 0578 170B0000 		.word	.L57+1
 1049 057c 110C0000 		.word	.L58+1
ARM GAS  C:\Users\Moi\AppData\Local\Temp\ccF5N8ze.s 			page 25


 1050 0580 55140000 		.word	.L444+1
 1051 0584 55140000 		.word	.L444+1
 1052 0588 55140000 		.word	.L444+1
 1053 058c 5B0D0000 		.word	.L59+1
 1054 0590 55140000 		.word	.L444+1
 1055 0594 55140000 		.word	.L444+1
 1056 0598 090E0000 		.word	.L60+1
 1057 059c 8D0E0000 		.word	.L61+1
 1058 05a0 850F0000 		.word	.L62+1
 1059 05a4 DB0F0000 		.word	.L63+1
 1060 05a8 31100000 		.word	.L64+1
 1061 05ac 17110000 		.word	.L65+1
 1062 05b0 55140000 		.word	.L444+1
 1063 05b4 55140000 		.word	.L444+1
 1064 05b8 55140000 		.word	.L444+1
 1065 05bc 55140000 		.word	.L444+1
 1066 05c0 55140000 		.word	.L444+1
 1067 05c4 59120000 		.word	.L67+1
 1068 05c8 55140000 		.word	.L444+1
 1069 05cc 55140000 		.word	.L444+1
 1070 05d0 55140000 		.word	.L444+1
 1071 05d4 55140000 		.word	.L444+1
 1072 05d8 55140000 		.word	.L444+1
 1073 05dc 55140000 		.word	.L444+1
 1074 05e0 55140000 		.word	.L444+1
 1075 05e4 55140000 		.word	.L444+1
 1076 05e8 55140000 		.word	.L444+1
 1077 05ec 9F080000 		.word	.L68+1
 1078 05f0 E70A0000 		.word	.L69+1
 1079 05f4 55140000 		.word	.L444+1
 1080 05f8 55140000 		.word	.L444+1
 1081 05fc 55140000 		.word	.L444+1
 1082 0600 55140000 		.word	.L444+1
 1083 0604 670C0000 		.word	.L70+1
 1084 0608 55140000 		.word	.L444+1
 1085 060c 55140000 		.word	.L444+1
 1086 0610 55140000 		.word	.L444+1
 1087 0614 55140000 		.word	.L444+1
 1088 0618 55140000 		.word	.L444+1
 1089 061c 55140000 		.word	.L444+1
 1090 0620 55140000 		.word	.L444+1
 1091 0624 55140000 		.word	.L444+1
 1092 0628 55140000 		.word	.L444+1
 1093 062c 55140000 		.word	.L444+1
 1094 0630 55140000 		.word	.L444+1
 1095 0634 55140000 		.word	.L444+1
 1096 0638 81110000 		.word	.L71+1
 1097 063c B5110000 		.word	.L72+1
 1098 0640 55140000 		.word	.L444+1
 1099 0644 E1120000 		.word	.L73+1
 1100              		.p2align 1
 1101              	.L50:
 1102              		.loc 1 288 0
 1103 0648 124B     		ldr	r3, .L489+28
 1104 064a 0022     		movs	r2, #0
 1105 064c 1A60     		str	r2, [r3]
 1106 064e 35E0     		b	.L74
ARM GAS  C:\Users\Moi\AppData\Local\Temp\ccF5N8ze.s 			page 26


 1107              	.L79:
 1108              		.loc 1 289 0
 1109 0650 9DF82630 		ldrb	r3, [sp, #38]	@ zero_extendqisi2
 1110 0654 002B     		cmp	r3, #0
 1111 0656 2CD1     		bne	.L75
 1112              		.loc 1 291 0
 1113 0658 0B9B     		ldr	r3, [sp, #44]
 1114 065a 002B     		cmp	r3, #0
 1115 065c 1ED0     		beq	.L479
 1116              		.loc 1 292 0
 1117 065e 00BF     		nop
 1118              	.L77:
 1119              		.loc 1 292 0 is_stmt 0 discriminator 1
 1120 0660 0C4B     		ldr	r3, .L489+28
 1121 0662 1B68     		ldr	r3, [r3]
 1122 0664 0C4A     		ldr	r2, .L489+32
 1123 0666 1344     		add	r3, r3, r2
 1124 0668 1846     		mov	r0, r3
 1125 066a FFF7FEFF 		bl	e_getchar_uart1
 1126 066e 0346     		mov	r3, r0
 1127 0670 002B     		cmp	r3, #0
 1128 0672 F5D0     		beq	.L77
 1129 0674 1DE0     		b	.L75
 1130              	.L490:
 1131 0676 00BF     		.align	2
 1132              	.L489:
 1133 0678 00000000 		.word	speedr.13535
 1134 067c 00000000 		.word	speedl.13536
 1135 0680 A8FDFFFF 		.word	-600
 1136 0684 D4FEFFFF 		.word	-300
 1137 0688 00000000 		.word	first.13555
 1138 068c 00000000 		.word	c
 1139 0690 00000000 		.word	i.13532
 1140 0694 00000000 		.word	j.13533
 1141 0698 00000000 		.word	rgb_value.13556
 1142              	.L479:
 1143              		.loc 1 294 0 is_stmt 1
 1144 069c 00BF     		nop
 1145              	.L78:
 1146              		.loc 1 294 0 is_stmt 0 discriminator 1
 1147 069e 8D4B     		ldr	r3, .L491
 1148 06a0 1B68     		ldr	r3, [r3]
 1149 06a2 8D4A     		ldr	r2, .L491+4
 1150 06a4 1344     		add	r3, r3, r2
 1151 06a6 1846     		mov	r0, r3
 1152 06a8 FFF7FEFF 		bl	e_getchar_uart2
 1153 06ac 0346     		mov	r3, r0
 1154 06ae 002B     		cmp	r3, #0
 1155 06b0 F5D0     		beq	.L78
 1156              	.L75:
 1157              		.loc 1 288 0 is_stmt 1 discriminator 2
 1158 06b2 884B     		ldr	r3, .L491
 1159 06b4 1B68     		ldr	r3, [r3]
 1160 06b6 0133     		adds	r3, r3, #1
 1161 06b8 864A     		ldr	r2, .L491
 1162 06ba 1360     		str	r3, [r2]
 1163              	.L74:
ARM GAS  C:\Users\Moi\AppData\Local\Temp\ccF5N8ze.s 			page 27


 1164              		.loc 1 288 0 is_stmt 0 discriminator 1
 1165 06bc 854B     		ldr	r3, .L491
 1166 06be 1B68     		ldr	r3, [r3]
 1167 06c0 0B2B     		cmp	r3, #11
 1168 06c2 C5DD     		ble	.L79
 1169              		.loc 1 297 0 is_stmt 1
 1170 06c4 844B     		ldr	r3, .L491+4
 1171 06c6 1978     		ldrb	r1, [r3]	@ zero_extendqisi2
 1172 06c8 834B     		ldr	r3, .L491+4
 1173 06ca 5A78     		ldrb	r2, [r3, #1]	@ zero_extendqisi2
 1174 06cc 824B     		ldr	r3, .L491+4
 1175 06ce 9B78     		ldrb	r3, [r3, #2]	@ zero_extendqisi2
 1176 06d0 0020     		movs	r0, #0
 1177 06d2 FFF7FEFF 		bl	set_rgb_led
 1178              		.loc 1 298 0
 1179 06d6 804B     		ldr	r3, .L491+4
 1180 06d8 D978     		ldrb	r1, [r3, #3]	@ zero_extendqisi2
 1181 06da 7F4B     		ldr	r3, .L491+4
 1182 06dc 1A79     		ldrb	r2, [r3, #4]	@ zero_extendqisi2
 1183 06de 7E4B     		ldr	r3, .L491+4
 1184 06e0 5B79     		ldrb	r3, [r3, #5]	@ zero_extendqisi2
 1185 06e2 0120     		movs	r0, #1
 1186 06e4 FFF7FEFF 		bl	set_rgb_led
 1187              		.loc 1 299 0
 1188 06e8 7B4B     		ldr	r3, .L491+4
 1189 06ea 9979     		ldrb	r1, [r3, #6]	@ zero_extendqisi2
 1190 06ec 7A4B     		ldr	r3, .L491+4
 1191 06ee DA79     		ldrb	r2, [r3, #7]	@ zero_extendqisi2
 1192 06f0 794B     		ldr	r3, .L491+4
 1193 06f2 1B7A     		ldrb	r3, [r3, #8]	@ zero_extendqisi2
 1194 06f4 0220     		movs	r0, #2
 1195 06f6 FFF7FEFF 		bl	set_rgb_led
 1196              		.loc 1 300 0
 1197 06fa 774B     		ldr	r3, .L491+4
 1198 06fc 597A     		ldrb	r1, [r3, #9]	@ zero_extendqisi2
 1199 06fe 764B     		ldr	r3, .L491+4
 1200 0700 9A7A     		ldrb	r2, [r3, #10]	@ zero_extendqisi2
 1201 0702 754B     		ldr	r3, .L491+4
 1202 0704 DB7A     		ldrb	r3, [r3, #11]	@ zero_extendqisi2
 1203 0706 0320     		movs	r0, #3
 1204 0708 FFF7FEFF 		bl	set_rgb_led
 1205              		.loc 1 301 0
 1206 070c 00F0ABBE 		b	.L80
 1207              	.L52:
 1208              		.loc 1 304 0
 1209 0710 724B     		ldr	r3, .L491+8
 1210 0712 1C68     		ldr	r4, [r3]
 1211 0714 631C     		adds	r3, r4, #1
 1212 0716 714A     		ldr	r2, .L491+8
 1213 0718 1360     		str	r3, [r2]
 1214 071a FFF7FEFF 		bl	button_get_state
 1215 071e 0346     		mov	r3, r0
 1216 0720 1A46     		mov	r2, r3
 1217 0722 6F4B     		ldr	r3, .L491+12
 1218 0724 1A55     		strb	r2, [r3, r4]
 1219              		.loc 1 305 0
 1220 0726 00F09EBE 		b	.L80
ARM GAS  C:\Users\Moi\AppData\Local\Temp\ccF5N8ze.s 			page 28


 1221              	.L53:
 1222              		.loc 1 308 0
 1223 072a 0020     		movs	r0, #0
 1224 072c FFF7FEFF 		bl	e_get_micro_volume
 1225 0730 0246     		mov	r2, r0
 1226 0732 6C4B     		ldr	r3, .L491+16
 1227 0734 1A60     		str	r2, [r3]
 1228              		.loc 1 309 0
 1229 0736 6B4B     		ldr	r3, .L491+16
 1230 0738 1868     		ldr	r0, [r3]
 1231 073a 684B     		ldr	r3, .L491+8
 1232 073c 1B68     		ldr	r3, [r3]
 1233 073e 5A1C     		adds	r2, r3, #1
 1234 0740 6649     		ldr	r1, .L491+8
 1235 0742 0A60     		str	r2, [r1]
 1236 0744 C1B2     		uxtb	r1, r0
 1237 0746 664A     		ldr	r2, .L491+12
 1238 0748 D154     		strb	r1, [r2, r3]
 1239              		.loc 1 310 0
 1240 074a 664B     		ldr	r3, .L491+16
 1241 074c 1B68     		ldr	r3, [r3]
 1242 074e 1812     		asrs	r0, r3, #8
 1243 0750 624B     		ldr	r3, .L491+8
 1244 0752 1B68     		ldr	r3, [r3]
 1245 0754 5A1C     		adds	r2, r3, #1
 1246 0756 6149     		ldr	r1, .L491+8
 1247 0758 0A60     		str	r2, [r1]
 1248 075a C1B2     		uxtb	r1, r0
 1249 075c 604A     		ldr	r2, .L491+12
 1250 075e D154     		strb	r1, [r2, r3]
 1251              		.loc 1 312 0
 1252 0760 0120     		movs	r0, #1
 1253 0762 FFF7FEFF 		bl	e_get_micro_volume
 1254 0766 0246     		mov	r2, r0
 1255 0768 5E4B     		ldr	r3, .L491+16
 1256 076a 1A60     		str	r2, [r3]
 1257              		.loc 1 313 0
 1258 076c 5D4B     		ldr	r3, .L491+16
 1259 076e 1868     		ldr	r0, [r3]
 1260 0770 5A4B     		ldr	r3, .L491+8
 1261 0772 1B68     		ldr	r3, [r3]
 1262 0774 5A1C     		adds	r2, r3, #1
 1263 0776 5949     		ldr	r1, .L491+8
 1264 0778 0A60     		str	r2, [r1]
 1265 077a C1B2     		uxtb	r1, r0
 1266 077c 584A     		ldr	r2, .L491+12
 1267 077e D154     		strb	r1, [r2, r3]
 1268              		.loc 1 314 0
 1269 0780 584B     		ldr	r3, .L491+16
 1270 0782 1B68     		ldr	r3, [r3]
 1271 0784 1812     		asrs	r0, r3, #8
 1272 0786 554B     		ldr	r3, .L491+8
 1273 0788 1B68     		ldr	r3, [r3]
 1274 078a 5A1C     		adds	r2, r3, #1
 1275 078c 5349     		ldr	r1, .L491+8
 1276 078e 0A60     		str	r2, [r1]
 1277 0790 C1B2     		uxtb	r1, r0
ARM GAS  C:\Users\Moi\AppData\Local\Temp\ccF5N8ze.s 			page 29


 1278 0792 534A     		ldr	r2, .L491+12
 1279 0794 D154     		strb	r1, [r2, r3]
 1280              		.loc 1 316 0
 1281 0796 0220     		movs	r0, #2
 1282 0798 FFF7FEFF 		bl	e_get_micro_volume
 1283 079c 0246     		mov	r2, r0
 1284 079e 514B     		ldr	r3, .L491+16
 1285 07a0 1A60     		str	r2, [r3]
 1286              		.loc 1 317 0
 1287 07a2 504B     		ldr	r3, .L491+16
 1288 07a4 1868     		ldr	r0, [r3]
 1289 07a6 4D4B     		ldr	r3, .L491+8
 1290 07a8 1B68     		ldr	r3, [r3]
 1291 07aa 5A1C     		adds	r2, r3, #1
 1292 07ac 4B49     		ldr	r1, .L491+8
 1293 07ae 0A60     		str	r2, [r1]
 1294 07b0 C1B2     		uxtb	r1, r0
 1295 07b2 4B4A     		ldr	r2, .L491+12
 1296 07b4 D154     		strb	r1, [r2, r3]
 1297              		.loc 1 318 0
 1298 07b6 4B4B     		ldr	r3, .L491+16
 1299 07b8 1B68     		ldr	r3, [r3]
 1300 07ba 1812     		asrs	r0, r3, #8
 1301 07bc 474B     		ldr	r3, .L491+8
 1302 07be 1B68     		ldr	r3, [r3]
 1303 07c0 5A1C     		adds	r2, r3, #1
 1304 07c2 4649     		ldr	r1, .L491+8
 1305 07c4 0A60     		str	r2, [r1]
 1306 07c6 C1B2     		uxtb	r1, r0
 1307 07c8 454A     		ldr	r2, .L491+12
 1308 07ca D154     		strb	r1, [r2, r3]
 1309              		.loc 1 320 0
 1310 07cc 0320     		movs	r0, #3
 1311 07ce FFF7FEFF 		bl	e_get_micro_volume
 1312 07d2 0246     		mov	r2, r0
 1313 07d4 434B     		ldr	r3, .L491+16
 1314 07d6 1A60     		str	r2, [r3]
 1315              		.loc 1 321 0
 1316 07d8 424B     		ldr	r3, .L491+16
 1317 07da 1868     		ldr	r0, [r3]
 1318 07dc 3F4B     		ldr	r3, .L491+8
 1319 07de 1B68     		ldr	r3, [r3]
 1320 07e0 5A1C     		adds	r2, r3, #1
 1321 07e2 3E49     		ldr	r1, .L491+8
 1322 07e4 0A60     		str	r2, [r1]
 1323 07e6 C1B2     		uxtb	r1, r0
 1324 07e8 3D4A     		ldr	r2, .L491+12
 1325 07ea D154     		strb	r1, [r2, r3]
 1326              		.loc 1 322 0
 1327 07ec 3D4B     		ldr	r3, .L491+16
 1328 07ee 1B68     		ldr	r3, [r3]
 1329 07f0 1812     		asrs	r0, r3, #8
 1330 07f2 3A4B     		ldr	r3, .L491+8
 1331 07f4 1B68     		ldr	r3, [r3]
 1332 07f6 5A1C     		adds	r2, r3, #1
 1333 07f8 3849     		ldr	r1, .L491+8
 1334 07fa 0A60     		str	r2, [r1]
ARM GAS  C:\Users\Moi\AppData\Local\Temp\ccF5N8ze.s 			page 30


 1335 07fc C1B2     		uxtb	r1, r0
 1336 07fe 384A     		ldr	r2, .L491+12
 1337 0800 D154     		strb	r1, [r2, r3]
 1338              		.loc 1 323 0
 1339 0802 00F030BE 		b	.L80
 1340              	.L54:
 1341              		.loc 1 326 0
 1342 0806 9DF82630 		ldrb	r3, [sp, #38]	@ zero_extendqisi2
 1343 080a 002B     		cmp	r3, #0
 1344 080c 1CD1     		bne	.L81
 1345              		.loc 1 327 0
 1346 080e FFF7FEFF 		bl	VL53L0X_get_dist_mm
 1347 0812 0346     		mov	r3, r0
 1348 0814 1A46     		mov	r2, r3
 1349 0816 334B     		ldr	r3, .L491+16
 1350 0818 1A60     		str	r2, [r3]
 1351              		.loc 1 328 0
 1352 081a 324B     		ldr	r3, .L491+16
 1353 081c 1868     		ldr	r0, [r3]
 1354 081e 2F4B     		ldr	r3, .L491+8
 1355 0820 1B68     		ldr	r3, [r3]
 1356 0822 5A1C     		adds	r2, r3, #1
 1357 0824 2D49     		ldr	r1, .L491+8
 1358 0826 0A60     		str	r2, [r1]
 1359 0828 C1B2     		uxtb	r1, r0
 1360 082a 2D4A     		ldr	r2, .L491+12
 1361 082c D154     		strb	r1, [r2, r3]
 1362              		.loc 1 329 0
 1363 082e 2D4B     		ldr	r3, .L491+16
 1364 0830 1B68     		ldr	r3, [r3]
 1365 0832 1812     		asrs	r0, r3, #8
 1366 0834 294B     		ldr	r3, .L491+8
 1367 0836 1B68     		ldr	r3, [r3]
 1368 0838 5A1C     		adds	r2, r3, #1
 1369 083a 2849     		ldr	r1, .L491+8
 1370 083c 0A60     		str	r2, [r1]
 1371 083e C1B2     		uxtb	r1, r0
 1372 0840 274A     		ldr	r2, .L491+12
 1373 0842 D154     		strb	r1, [r2, r3]
 1374              		.loc 1 334 0
 1375 0844 00F00FBE 		b	.L80
 1376              	.L81:
 1377              		.loc 1 331 0
 1378 0848 244B     		ldr	r3, .L491+8
 1379 084a 1B68     		ldr	r3, [r3]
 1380 084c 5A1C     		adds	r2, r3, #1
 1381 084e 2349     		ldr	r1, .L491+8
 1382 0850 0A60     		str	r2, [r1]
 1383 0852 234A     		ldr	r2, .L491+12
 1384 0854 0021     		movs	r1, #0
 1385 0856 D154     		strb	r1, [r2, r3]
 1386              		.loc 1 332 0
 1387 0858 204B     		ldr	r3, .L491+8
 1388 085a 1B68     		ldr	r3, [r3]
 1389 085c 5A1C     		adds	r2, r3, #1
 1390 085e 1F49     		ldr	r1, .L491+8
 1391 0860 0A60     		str	r2, [r1]
ARM GAS  C:\Users\Moi\AppData\Local\Temp\ccF5N8ze.s 			page 31


 1392 0862 1F4A     		ldr	r2, .L491+12
 1393 0864 0021     		movs	r1, #0
 1394 0866 D154     		strb	r1, [r2, r3]
 1395              		.loc 1 334 0
 1396 0868 00F0FDBD 		b	.L80
 1397              	.L55:
 1398              		.loc 1 337 0
 1399 086c FFF7FEFF 		bl	isSDCardMounted
 1400 0870 0346     		mov	r3, r0
 1401 0872 002B     		cmp	r3, #0
 1402 0874 09D0     		beq	.L83
 1403              		.loc 1 338 0
 1404 0876 194B     		ldr	r3, .L491+8
 1405 0878 1B68     		ldr	r3, [r3]
 1406 087a 5A1C     		adds	r2, r3, #1
 1407 087c 1749     		ldr	r1, .L491+8
 1408 087e 0A60     		str	r2, [r1]
 1409 0880 174A     		ldr	r2, .L491+12
 1410 0882 0121     		movs	r1, #1
 1411 0884 D154     		strb	r1, [r2, r3]
 1412              		.loc 1 342 0
 1413 0886 00F0EEBD 		b	.L80
 1414              	.L83:
 1415              		.loc 1 340 0
 1416 088a 144B     		ldr	r3, .L491+8
 1417 088c 1B68     		ldr	r3, [r3]
 1418 088e 5A1C     		adds	r2, r3, #1
 1419 0890 1249     		ldr	r1, .L491+8
 1420 0892 0A60     		str	r2, [r1]
 1421 0894 124A     		ldr	r2, .L491+12
 1422 0896 0021     		movs	r1, #0
 1423 0898 D154     		strb	r1, [r2, r3]
 1424              		.loc 1 342 0
 1425 089a 00F0E4BD 		b	.L80
 1426              	.L68:
 1427              		.loc 1 345 0
 1428 089e 9DF82630 		ldrb	r3, [sp, #38]	@ zero_extendqisi2
 1429 08a2 002B     		cmp	r3, #0
 1430 08a4 26D1     		bne	.L85
 1431              		.loc 1 346 0
 1432 08a6 0121     		movs	r1, #1
 1433 08a8 0020     		movs	r0, #0
 1434 08aa FFF7FEFF 		bl	e_get_acc_filtered
 1435 08ae 0246     		mov	r2, r0
 1436 08b0 0D4B     		ldr	r3, .L491+20
 1437 08b2 1A60     		str	r2, [r3]
 1438              		.loc 1 347 0
 1439 08b4 0121     		movs	r1, #1
 1440 08b6 0120     		movs	r0, #1
 1441 08b8 FFF7FEFF 		bl	e_get_acc_filtered
 1442 08bc 0246     		mov	r2, r0
 1443 08be 0B4B     		ldr	r3, .L491+24
 1444 08c0 1A60     		str	r2, [r3]
 1445              		.loc 1 348 0
 1446 08c2 0121     		movs	r1, #1
 1447 08c4 0220     		movs	r0, #2
 1448 08c6 FFF7FEFF 		bl	e_get_acc_filtered
ARM GAS  C:\Users\Moi\AppData\Local\Temp\ccF5N8ze.s 			page 32


 1449 08ca 0246     		mov	r2, r0
 1450 08cc 084B     		ldr	r3, .L491+28
 1451 08ce 1A60     		str	r2, [r3]
 1452 08d0 19E0     		b	.L86
 1453              	.L492:
 1454 08d2 00BF     		.align	2
 1455              	.L491:
 1456 08d4 00000000 		.word	j.13533
 1457 08d8 00000000 		.word	rgb_value.13556
 1458 08dc 00000000 		.word	i.13532
 1459 08e0 00000000 		.word	buffer
 1460 08e4 00000000 		.word	n.13534
 1461 08e8 00000000 		.word	accx.13541
 1462 08ec 00000000 		.word	accy.13542
 1463 08f0 00000000 		.word	accz.13543
 1464              	.L85:
 1465              		.loc 1 353 0
 1466 08f4 934B     		ldr	r3, .L493
 1467 08f6 0022     		movs	r2, #0
 1468 08f8 1A60     		str	r2, [r3]
 1469              		.loc 1 354 0
 1470 08fa 934B     		ldr	r3, .L493+4
 1471 08fc 0022     		movs	r2, #0
 1472 08fe 1A60     		str	r2, [r3]
 1473              		.loc 1 355 0
 1474 0900 924B     		ldr	r3, .L493+8
 1475 0902 0022     		movs	r2, #0
 1476 0904 1A60     		str	r2, [r3]
 1477              	.L86:
 1478              		.loc 1 357 0
 1479 0906 8F4B     		ldr	r3, .L493
 1480 0908 1868     		ldr	r0, [r3]
 1481 090a 914B     		ldr	r3, .L493+12
 1482 090c 1B68     		ldr	r3, [r3]
 1483 090e 5A1C     		adds	r2, r3, #1
 1484 0910 8F49     		ldr	r1, .L493+12
 1485 0912 0A60     		str	r2, [r1]
 1486 0914 C1B2     		uxtb	r1, r0
 1487 0916 8F4A     		ldr	r2, .L493+16
 1488 0918 D154     		strb	r1, [r2, r3]
 1489              		.loc 1 358 0
 1490 091a 8A4B     		ldr	r3, .L493
 1491 091c 1B68     		ldr	r3, [r3]
 1492 091e 1812     		asrs	r0, r3, #8
 1493 0920 8B4B     		ldr	r3, .L493+12
 1494 0922 1B68     		ldr	r3, [r3]
 1495 0924 5A1C     		adds	r2, r3, #1
 1496 0926 8A49     		ldr	r1, .L493+12
 1497 0928 0A60     		str	r2, [r1]
 1498 092a C1B2     		uxtb	r1, r0
 1499 092c 894A     		ldr	r2, .L493+16
 1500 092e D154     		strb	r1, [r2, r3]
 1501              		.loc 1 359 0
 1502 0930 854B     		ldr	r3, .L493+4
 1503 0932 1868     		ldr	r0, [r3]
 1504 0934 864B     		ldr	r3, .L493+12
 1505 0936 1B68     		ldr	r3, [r3]
ARM GAS  C:\Users\Moi\AppData\Local\Temp\ccF5N8ze.s 			page 33


 1506 0938 5A1C     		adds	r2, r3, #1
 1507 093a 8549     		ldr	r1, .L493+12
 1508 093c 0A60     		str	r2, [r1]
 1509 093e C1B2     		uxtb	r1, r0
 1510 0940 844A     		ldr	r2, .L493+16
 1511 0942 D154     		strb	r1, [r2, r3]
 1512              		.loc 1 360 0
 1513 0944 804B     		ldr	r3, .L493+4
 1514 0946 1B68     		ldr	r3, [r3]
 1515 0948 1812     		asrs	r0, r3, #8
 1516 094a 814B     		ldr	r3, .L493+12
 1517 094c 1B68     		ldr	r3, [r3]
 1518 094e 5A1C     		adds	r2, r3, #1
 1519 0950 7F49     		ldr	r1, .L493+12
 1520 0952 0A60     		str	r2, [r1]
 1521 0954 C1B2     		uxtb	r1, r0
 1522 0956 7F4A     		ldr	r2, .L493+16
 1523 0958 D154     		strb	r1, [r2, r3]
 1524              		.loc 1 361 0
 1525 095a 7C4B     		ldr	r3, .L493+8
 1526 095c 1868     		ldr	r0, [r3]
 1527 095e 7C4B     		ldr	r3, .L493+12
 1528 0960 1B68     		ldr	r3, [r3]
 1529 0962 5A1C     		adds	r2, r3, #1
 1530 0964 7A49     		ldr	r1, .L493+12
 1531 0966 0A60     		str	r2, [r1]
 1532 0968 C1B2     		uxtb	r1, r0
 1533 096a 7A4A     		ldr	r2, .L493+16
 1534 096c D154     		strb	r1, [r2, r3]
 1535              		.loc 1 362 0
 1536 096e 774B     		ldr	r3, .L493+8
 1537 0970 1B68     		ldr	r3, [r3]
 1538 0972 1812     		asrs	r0, r3, #8
 1539 0974 764B     		ldr	r3, .L493+12
 1540 0976 1B68     		ldr	r3, [r3]
 1541 0978 5A1C     		adds	r2, r3, #1
 1542 097a 7549     		ldr	r1, .L493+12
 1543 097c 0A60     		str	r2, [r1]
 1544 097e C1B2     		uxtb	r1, r0
 1545 0980 744A     		ldr	r2, .L493+16
 1546 0982 D154     		strb	r1, [r2, r3]
 1547              		.loc 1 363 0
 1548 0984 00F06FBD 		b	.L80
 1549              	.L56:
 1550              		.loc 1 366 0
 1551 0988 9DF82630 		ldrb	r3, [sp, #38]	@ zero_extendqisi2
 1552 098c 002B     		cmp	r3, #0
 1553 098e 0FD1     		bne	.L87
 1554              		.loc 1 367 0
 1555 0990 FFF7FEFF 		bl	e_read_acc_spheric
 1556 0994 F0EE406A 		vmov.f32	s13, s0
 1557 0998 B0EE607A 		vmov.f32	s14, s1
 1558 099c F0EE417A 		vmov.f32	s15, s2
 1559 09a0 6D4B     		ldr	r3, .L493+20
 1560 09a2 C3ED006A 		vstr.32	s13, [r3]
 1561 09a6 83ED017A 		vstr.32	s14, [r3, #4]
 1562 09aa C3ED027A 		vstr.32	s15, [r3, #8]
ARM GAS  C:\Users\Moi\AppData\Local\Temp\ccF5N8ze.s 			page 34


 1563 09ae 0BE0     		b	.L88
 1564              	.L87:
 1565              		.loc 1 369 0
 1566 09b0 694B     		ldr	r3, .L493+20
 1567 09b2 4FF00002 		mov	r2, #0
 1568 09b6 1A60     		str	r2, [r3]	@ float
 1569              		.loc 1 370 0
 1570 09b8 674B     		ldr	r3, .L493+20
 1571 09ba 4FF00002 		mov	r2, #0
 1572 09be 9A60     		str	r2, [r3, #8]	@ float
 1573              		.loc 1 371 0
 1574 09c0 654B     		ldr	r3, .L493+20
 1575 09c2 4FF00002 		mov	r2, #0
 1576 09c6 5A60     		str	r2, [r3, #4]	@ float
 1577              	.L88:
 1578              		.loc 1 373 0
 1579 09c8 634B     		ldr	r3, .L493+20
 1580 09ca 0E93     		str	r3, [sp, #56]
 1581              		.loc 1 374 0
 1582 09cc 604B     		ldr	r3, .L493+12
 1583 09ce 1B68     		ldr	r3, [r3]
 1584 09d0 5A1C     		adds	r2, r3, #1
 1585 09d2 5F49     		ldr	r1, .L493+12
 1586 09d4 0A60     		str	r2, [r1]
 1587 09d6 0E9A     		ldr	r2, [sp, #56]
 1588 09d8 1178     		ldrb	r1, [r2]	@ zero_extendqisi2
 1589 09da 5E4A     		ldr	r2, .L493+16
 1590 09dc D154     		strb	r1, [r2, r3]
 1591              		.loc 1 375 0
 1592 09de 0E9B     		ldr	r3, [sp, #56]
 1593 09e0 0133     		adds	r3, r3, #1
 1594 09e2 0E93     		str	r3, [sp, #56]
 1595              		.loc 1 376 0
 1596 09e4 5A4B     		ldr	r3, .L493+12
 1597 09e6 1B68     		ldr	r3, [r3]
 1598 09e8 5A1C     		adds	r2, r3, #1
 1599 09ea 5949     		ldr	r1, .L493+12
 1600 09ec 0A60     		str	r2, [r1]
 1601 09ee 0E9A     		ldr	r2, [sp, #56]
 1602 09f0 1178     		ldrb	r1, [r2]	@ zero_extendqisi2
 1603 09f2 584A     		ldr	r2, .L493+16
 1604 09f4 D154     		strb	r1, [r2, r3]
 1605              		.loc 1 377 0
 1606 09f6 0E9B     		ldr	r3, [sp, #56]
 1607 09f8 0133     		adds	r3, r3, #1
 1608 09fa 0E93     		str	r3, [sp, #56]
 1609              		.loc 1 378 0
 1610 09fc 544B     		ldr	r3, .L493+12
 1611 09fe 1B68     		ldr	r3, [r3]
 1612 0a00 5A1C     		adds	r2, r3, #1
 1613 0a02 5349     		ldr	r1, .L493+12
 1614 0a04 0A60     		str	r2, [r1]
 1615 0a06 0E9A     		ldr	r2, [sp, #56]
 1616 0a08 1178     		ldrb	r1, [r2]	@ zero_extendqisi2
 1617 0a0a 524A     		ldr	r2, .L493+16
 1618 0a0c D154     		strb	r1, [r2, r3]
 1619              		.loc 1 379 0
ARM GAS  C:\Users\Moi\AppData\Local\Temp\ccF5N8ze.s 			page 35


 1620 0a0e 0E9B     		ldr	r3, [sp, #56]
 1621 0a10 0133     		adds	r3, r3, #1
 1622 0a12 0E93     		str	r3, [sp, #56]
 1623              		.loc 1 380 0
 1624 0a14 4E4B     		ldr	r3, .L493+12
 1625 0a16 1B68     		ldr	r3, [r3]
 1626 0a18 5A1C     		adds	r2, r3, #1
 1627 0a1a 4D49     		ldr	r1, .L493+12
 1628 0a1c 0A60     		str	r2, [r1]
 1629 0a1e 0E9A     		ldr	r2, [sp, #56]
 1630 0a20 1178     		ldrb	r1, [r2]	@ zero_extendqisi2
 1631 0a22 4C4A     		ldr	r2, .L493+16
 1632 0a24 D154     		strb	r1, [r2, r3]
 1633              		.loc 1 382 0
 1634 0a26 4D4B     		ldr	r3, .L493+24
 1635 0a28 0E93     		str	r3, [sp, #56]
 1636              		.loc 1 383 0
 1637 0a2a 494B     		ldr	r3, .L493+12
 1638 0a2c 1B68     		ldr	r3, [r3]
 1639 0a2e 5A1C     		adds	r2, r3, #1
 1640 0a30 4749     		ldr	r1, .L493+12
 1641 0a32 0A60     		str	r2, [r1]
 1642 0a34 0E9A     		ldr	r2, [sp, #56]
 1643 0a36 1178     		ldrb	r1, [r2]	@ zero_extendqisi2
 1644 0a38 464A     		ldr	r2, .L493+16
 1645 0a3a D154     		strb	r1, [r2, r3]
 1646              		.loc 1 384 0
 1647 0a3c 0E9B     		ldr	r3, [sp, #56]
 1648 0a3e 0133     		adds	r3, r3, #1
 1649 0a40 0E93     		str	r3, [sp, #56]
 1650              		.loc 1 385 0
 1651 0a42 434B     		ldr	r3, .L493+12
 1652 0a44 1B68     		ldr	r3, [r3]
 1653 0a46 5A1C     		adds	r2, r3, #1
 1654 0a48 4149     		ldr	r1, .L493+12
 1655 0a4a 0A60     		str	r2, [r1]
 1656 0a4c 0E9A     		ldr	r2, [sp, #56]
 1657 0a4e 1178     		ldrb	r1, [r2]	@ zero_extendqisi2
 1658 0a50 404A     		ldr	r2, .L493+16
 1659 0a52 D154     		strb	r1, [r2, r3]
 1660              		.loc 1 386 0
 1661 0a54 0E9B     		ldr	r3, [sp, #56]
 1662 0a56 0133     		adds	r3, r3, #1
 1663 0a58 0E93     		str	r3, [sp, #56]
 1664              		.loc 1 387 0
 1665 0a5a 3D4B     		ldr	r3, .L493+12
 1666 0a5c 1B68     		ldr	r3, [r3]
 1667 0a5e 5A1C     		adds	r2, r3, #1
 1668 0a60 3B49     		ldr	r1, .L493+12
 1669 0a62 0A60     		str	r2, [r1]
 1670 0a64 0E9A     		ldr	r2, [sp, #56]
 1671 0a66 1178     		ldrb	r1, [r2]	@ zero_extendqisi2
 1672 0a68 3A4A     		ldr	r2, .L493+16
 1673 0a6a D154     		strb	r1, [r2, r3]
 1674              		.loc 1 388 0
 1675 0a6c 0E9B     		ldr	r3, [sp, #56]
 1676 0a6e 0133     		adds	r3, r3, #1
ARM GAS  C:\Users\Moi\AppData\Local\Temp\ccF5N8ze.s 			page 36


 1677 0a70 0E93     		str	r3, [sp, #56]
 1678              		.loc 1 389 0
 1679 0a72 374B     		ldr	r3, .L493+12
 1680 0a74 1B68     		ldr	r3, [r3]
 1681 0a76 5A1C     		adds	r2, r3, #1
 1682 0a78 3549     		ldr	r1, .L493+12
 1683 0a7a 0A60     		str	r2, [r1]
 1684 0a7c 0E9A     		ldr	r2, [sp, #56]
 1685 0a7e 1178     		ldrb	r1, [r2]	@ zero_extendqisi2
 1686 0a80 344A     		ldr	r2, .L493+16
 1687 0a82 D154     		strb	r1, [r2, r3]
 1688              		.loc 1 391 0
 1689 0a84 364B     		ldr	r3, .L493+28
 1690 0a86 0E93     		str	r3, [sp, #56]
 1691              		.loc 1 392 0
 1692 0a88 314B     		ldr	r3, .L493+12
 1693 0a8a 1B68     		ldr	r3, [r3]
 1694 0a8c 5A1C     		adds	r2, r3, #1
 1695 0a8e 3049     		ldr	r1, .L493+12
 1696 0a90 0A60     		str	r2, [r1]
 1697 0a92 0E9A     		ldr	r2, [sp, #56]
 1698 0a94 1178     		ldrb	r1, [r2]	@ zero_extendqisi2
 1699 0a96 2F4A     		ldr	r2, .L493+16
 1700 0a98 D154     		strb	r1, [r2, r3]
 1701              		.loc 1 393 0
 1702 0a9a 0E9B     		ldr	r3, [sp, #56]
 1703 0a9c 0133     		adds	r3, r3, #1
 1704 0a9e 0E93     		str	r3, [sp, #56]
 1705              		.loc 1 394 0
 1706 0aa0 2B4B     		ldr	r3, .L493+12
 1707 0aa2 1B68     		ldr	r3, [r3]
 1708 0aa4 5A1C     		adds	r2, r3, #1
 1709 0aa6 2A49     		ldr	r1, .L493+12
 1710 0aa8 0A60     		str	r2, [r1]
 1711 0aaa 0E9A     		ldr	r2, [sp, #56]
 1712 0aac 1178     		ldrb	r1, [r2]	@ zero_extendqisi2
 1713 0aae 294A     		ldr	r2, .L493+16
 1714 0ab0 D154     		strb	r1, [r2, r3]
 1715              		.loc 1 395 0
 1716 0ab2 0E9B     		ldr	r3, [sp, #56]
 1717 0ab4 0133     		adds	r3, r3, #1
 1718 0ab6 0E93     		str	r3, [sp, #56]
 1719              		.loc 1 396 0
 1720 0ab8 254B     		ldr	r3, .L493+12
 1721 0aba 1B68     		ldr	r3, [r3]
 1722 0abc 5A1C     		adds	r2, r3, #1
 1723 0abe 2449     		ldr	r1, .L493+12
 1724 0ac0 0A60     		str	r2, [r1]
 1725 0ac2 0E9A     		ldr	r2, [sp, #56]
 1726 0ac4 1178     		ldrb	r1, [r2]	@ zero_extendqisi2
 1727 0ac6 234A     		ldr	r2, .L493+16
 1728 0ac8 D154     		strb	r1, [r2, r3]
 1729              		.loc 1 397 0
 1730 0aca 0E9B     		ldr	r3, [sp, #56]
 1731 0acc 0133     		adds	r3, r3, #1
 1732 0ace 0E93     		str	r3, [sp, #56]
 1733              		.loc 1 398 0
ARM GAS  C:\Users\Moi\AppData\Local\Temp\ccF5N8ze.s 			page 37


 1734 0ad0 1F4B     		ldr	r3, .L493+12
 1735 0ad2 1B68     		ldr	r3, [r3]
 1736 0ad4 5A1C     		adds	r2, r3, #1
 1737 0ad6 1E49     		ldr	r1, .L493+12
 1738 0ad8 0A60     		str	r2, [r1]
 1739 0ada 0E9A     		ldr	r2, [sp, #56]
 1740 0adc 1178     		ldrb	r1, [r2]	@ zero_extendqisi2
 1741 0ade 1D4A     		ldr	r2, .L493+16
 1742 0ae0 D154     		strb	r1, [r2, r3]
 1743              		.loc 1 399 0
 1744 0ae2 00F0C0BC 		b	.L80
 1745              	.L69:
 1746              		.loc 1 403 0
 1747 0ae6 FFF7FEFF 		bl	getBatteryValueRaw
 1748 0aea 0D90     		str	r0, [sp, #52]
 1749              		.loc 1 404 0
 1750 0aec 184B     		ldr	r3, .L493+12
 1751 0aee 1B68     		ldr	r3, [r3]
 1752 0af0 5A1C     		adds	r2, r3, #1
 1753 0af2 1749     		ldr	r1, .L493+12
 1754 0af4 0A60     		str	r2, [r1]
 1755 0af6 0D9A     		ldr	r2, [sp, #52]
 1756 0af8 D1B2     		uxtb	r1, r2
 1757 0afa 164A     		ldr	r2, .L493+16
 1758 0afc D154     		strb	r1, [r2, r3]
 1759              		.loc 1 405 0
 1760 0afe 0D9B     		ldr	r3, [sp, #52]
 1761 0b00 180A     		lsrs	r0, r3, #8
 1762 0b02 134B     		ldr	r3, .L493+12
 1763 0b04 1B68     		ldr	r3, [r3]
 1764 0b06 5A1C     		adds	r2, r3, #1
 1765 0b08 1149     		ldr	r1, .L493+12
 1766 0b0a 0A60     		str	r2, [r1]
 1767 0b0c C1B2     		uxtb	r1, r0
 1768 0b0e 114A     		ldr	r2, .L493+16
 1769 0b10 D154     		strb	r1, [r2, r3]
 1770              		.loc 1 406 0
 1771 0b12 00F0A8BC 		b	.L80
 1772              	.L57:
 1773              		.loc 1 409 0
 1774 0b16 9DF82630 		ldrb	r3, [sp, #38]	@ zero_extendqisi2
 1775 0b1a 002B     		cmp	r3, #0
 1776 0b1c 34D1     		bne	.L89
 1777              		.loc 1 411 0
 1778 0b1e 0B9B     		ldr	r3, [sp, #44]
 1779 0b20 002B     		cmp	r3, #0
 1780 0b22 23D0     		beq	.L480
 1781              		.loc 1 412 0
 1782 0b24 00BF     		nop
 1783              	.L91:
 1784              		.loc 1 412 0 is_stmt 0 discriminator 1
 1785 0b26 0F48     		ldr	r0, .L493+32
 1786 0b28 FFF7FEFF 		bl	e_getchar_uart1
 1787 0b2c 0346     		mov	r3, r0
 1788 0b2e 002B     		cmp	r3, #0
 1789 0b30 F9D0     		beq	.L91
 1790              		.loc 1 413 0 is_stmt 1
ARM GAS  C:\Users\Moi\AppData\Local\Temp\ccF5N8ze.s 			page 38


 1791 0b32 00BF     		nop
 1792              	.L92:
 1793              		.loc 1 413 0 is_stmt 0 discriminator 1
 1794 0b34 0C48     		ldr	r0, .L493+36
 1795 0b36 FFF7FEFF 		bl	e_getchar_uart1
 1796 0b3a 0346     		mov	r3, r0
 1797 0b3c 002B     		cmp	r3, #0
 1798 0b3e F9D0     		beq	.L92
 1799 0b40 22E0     		b	.L89
 1800              	.L494:
 1801 0b42 00BF     		.align	2
 1802              	.L493:
 1803 0b44 00000000 		.word	accx.13541
 1804 0b48 00000000 		.word	accy.13542
 1805 0b4c 00000000 		.word	accz.13543
 1806 0b50 00000000 		.word	i.13532
 1807 0b54 00000000 		.word	buffer
 1808 0b58 00000000 		.word	accelero.13564
 1809 0b5c 04000000 		.word	accelero.13564+4
 1810 0b60 08000000 		.word	accelero.13564+8
 1811 0b64 00000000 		.word	c1.13529
 1812 0b68 00000000 		.word	c2.13530
 1813              	.L480:
 1814              		.loc 1 415 0 is_stmt 1
 1815 0b6c 00BF     		nop
 1816              	.L93:
 1817              		.loc 1 415 0 is_stmt 0 discriminator 1
 1818 0b6e 9848     		ldr	r0, .L495
 1819 0b70 FFF7FEFF 		bl	e_getchar_uart2
 1820 0b74 0346     		mov	r3, r0
 1821 0b76 002B     		cmp	r3, #0
 1822 0b78 F9D0     		beq	.L93
 1823              		.loc 1 416 0 is_stmt 1
 1824 0b7a 00BF     		nop
 1825              	.L94:
 1826              		.loc 1 416 0 is_stmt 0 discriminator 1
 1827 0b7c 9548     		ldr	r0, .L495+4
 1828 0b7e FFF7FEFF 		bl	e_getchar_uart2
 1829 0b82 0346     		mov	r3, r0
 1830 0b84 002B     		cmp	r3, #0
 1831 0b86 F9D0     		beq	.L94
 1832              	.L89:
 1833              		.loc 1 418 0 is_stmt 1
 1834 0b88 914B     		ldr	r3, .L495
 1835 0b8a 1B78     		ldrb	r3, [r3]	@ zero_extendqisi2
 1836 0b8c 1A46     		mov	r2, r3
 1837 0b8e 914B     		ldr	r3, .L495+4
 1838 0b90 1B78     		ldrb	r3, [r3]	@ zero_extendqisi2
 1839 0b92 1B02     		lsls	r3, r3, #8
 1840 0b94 1344     		add	r3, r3, r2
 1841 0b96 1A46     		mov	r2, r3
 1842 0b98 8F4B     		ldr	r3, .L495+8
 1843 0b9a 1A60     		str	r2, [r3]
 1844              		.loc 1 419 0
 1845 0b9c 9DF82630 		ldrb	r3, [sp, #38]	@ zero_extendqisi2
 1846 0ba0 002B     		cmp	r3, #0
 1847 0ba2 1FD1     		bne	.L95
ARM GAS  C:\Users\Moi\AppData\Local\Temp\ccF5N8ze.s 			page 39


 1848              		.loc 1 421 0
 1849 0ba4 0B9B     		ldr	r3, [sp, #44]
 1850 0ba6 002B     		cmp	r3, #0
 1851 0ba8 0ED0     		beq	.L481
 1852              		.loc 1 422 0
 1853 0baa 00BF     		nop
 1854              	.L97:
 1855              		.loc 1 422 0 is_stmt 0 discriminator 1
 1856 0bac 8848     		ldr	r0, .L495
 1857 0bae FFF7FEFF 		bl	e_getchar_uart1
 1858 0bb2 0346     		mov	r3, r0
 1859 0bb4 002B     		cmp	r3, #0
 1860 0bb6 F9D0     		beq	.L97
 1861              		.loc 1 423 0 is_stmt 1
 1862 0bb8 00BF     		nop
 1863              	.L98:
 1864              		.loc 1 423 0 is_stmt 0 discriminator 1
 1865 0bba 8648     		ldr	r0, .L495+4
 1866 0bbc FFF7FEFF 		bl	e_getchar_uart1
 1867 0bc0 0346     		mov	r3, r0
 1868 0bc2 002B     		cmp	r3, #0
 1869 0bc4 F9D0     		beq	.L98
 1870 0bc6 0DE0     		b	.L95
 1871              	.L481:
 1872              		.loc 1 425 0 is_stmt 1
 1873 0bc8 00BF     		nop
 1874              	.L99:
 1875              		.loc 1 425 0 is_stmt 0 discriminator 1
 1876 0bca 8148     		ldr	r0, .L495
 1877 0bcc FFF7FEFF 		bl	e_getchar_uart2
 1878 0bd0 0346     		mov	r3, r0
 1879 0bd2 002B     		cmp	r3, #0
 1880 0bd4 F9D0     		beq	.L99
 1881              		.loc 1 426 0 is_stmt 1
 1882 0bd6 00BF     		nop
 1883              	.L100:
 1884              		.loc 1 426 0 is_stmt 0 discriminator 1
 1885 0bd8 7E48     		ldr	r0, .L495+4
 1886 0bda FFF7FEFF 		bl	e_getchar_uart2
 1887 0bde 0346     		mov	r3, r0
 1888 0be0 002B     		cmp	r3, #0
 1889 0be2 F9D0     		beq	.L100
 1890              	.L95:
 1891              		.loc 1 428 0 is_stmt 1
 1892 0be4 7A4B     		ldr	r3, .L495
 1893 0be6 1B78     		ldrb	r3, [r3]	@ zero_extendqisi2
 1894 0be8 1A46     		mov	r2, r3
 1895 0bea 7A4B     		ldr	r3, .L495+4
 1896 0bec 1B78     		ldrb	r3, [r3]	@ zero_extendqisi2
 1897 0bee 1B02     		lsls	r3, r3, #8
 1898 0bf0 1344     		add	r3, r3, r2
 1899 0bf2 1A46     		mov	r2, r3
 1900 0bf4 794B     		ldr	r3, .L495+12
 1901 0bf6 1A60     		str	r2, [r3]
 1902              		.loc 1 429 0
 1903 0bf8 774B     		ldr	r3, .L495+8
 1904 0bfa 1B68     		ldr	r3, [r3]
ARM GAS  C:\Users\Moi\AppData\Local\Temp\ccF5N8ze.s 			page 40


 1905 0bfc 1846     		mov	r0, r3
 1906 0bfe FFF7FEFF 		bl	e_set_speed_left
 1907              		.loc 1 430 0
 1908 0c02 764B     		ldr	r3, .L495+12
 1909 0c04 1B68     		ldr	r3, [r3]
 1910 0c06 1846     		mov	r0, r3
 1911 0c08 FFF7FEFF 		bl	e_set_speed_right
 1912              		.loc 1 431 0
 1913 0c0c 00F02BBC 		b	.L80
 1914              	.L58:
 1915              		.loc 1 433 0
 1916 0c10 714B     		ldr	r3, .L495+8
 1917 0c12 1868     		ldr	r0, [r3]
 1918 0c14 724B     		ldr	r3, .L495+16
 1919 0c16 1B68     		ldr	r3, [r3]
 1920 0c18 5A1C     		adds	r2, r3, #1
 1921 0c1a 7149     		ldr	r1, .L495+16
 1922 0c1c 0A60     		str	r2, [r1]
 1923 0c1e C1B2     		uxtb	r1, r0
 1924 0c20 704A     		ldr	r2, .L495+20
 1925 0c22 D154     		strb	r1, [r2, r3]
 1926              		.loc 1 434 0
 1927 0c24 6C4B     		ldr	r3, .L495+8
 1928 0c26 1B68     		ldr	r3, [r3]
 1929 0c28 1812     		asrs	r0, r3, #8
 1930 0c2a 6D4B     		ldr	r3, .L495+16
 1931 0c2c 1B68     		ldr	r3, [r3]
 1932 0c2e 5A1C     		adds	r2, r3, #1
 1933 0c30 6B49     		ldr	r1, .L495+16
 1934 0c32 0A60     		str	r2, [r1]
 1935 0c34 C1B2     		uxtb	r1, r0
 1936 0c36 6B4A     		ldr	r2, .L495+20
 1937 0c38 D154     		strb	r1, [r2, r3]
 1938              		.loc 1 435 0
 1939 0c3a 684B     		ldr	r3, .L495+12
 1940 0c3c 1868     		ldr	r0, [r3]
 1941 0c3e 684B     		ldr	r3, .L495+16
 1942 0c40 1B68     		ldr	r3, [r3]
 1943 0c42 5A1C     		adds	r2, r3, #1
 1944 0c44 6649     		ldr	r1, .L495+16
 1945 0c46 0A60     		str	r2, [r1]
 1946 0c48 C1B2     		uxtb	r1, r0
 1947 0c4a 664A     		ldr	r2, .L495+20
 1948 0c4c D154     		strb	r1, [r2, r3]
 1949              		.loc 1 436 0
 1950 0c4e 634B     		ldr	r3, .L495+12
 1951 0c50 1B68     		ldr	r3, [r3]
 1952 0c52 1812     		asrs	r0, r3, #8
 1953 0c54 624B     		ldr	r3, .L495+16
 1954 0c56 1B68     		ldr	r3, [r3]
 1955 0c58 5A1C     		adds	r2, r3, #1
 1956 0c5a 6149     		ldr	r1, .L495+16
 1957 0c5c 0A60     		str	r2, [r1]
 1958 0c5e C1B2     		uxtb	r1, r0
 1959 0c60 604A     		ldr	r2, .L495+20
 1960 0c62 D154     		strb	r1, [r2, r3]
 1961              		.loc 1 437 0
ARM GAS  C:\Users\Moi\AppData\Local\Temp\ccF5N8ze.s 			page 41


 1962 0c64 FFE3     		b	.L80
 1963              	.L70:
 1964              		.loc 1 440 0
 1965 0c66 9DF82630 		ldrb	r3, [sp, #38]	@ zero_extendqisi2
 1966 0c6a 002B     		cmp	r3, #0
 1967 0c6c 44D1     		bne	.L101
 1968              		.loc 1 441 0
 1969 0c6e 5E4A     		ldr	r2, .L495+24
 1970 0c70 5E49     		ldr	r1, .L495+28
 1971 0c72 5F48     		ldr	r0, .L495+32
 1972 0c74 FFF7FEFF 		bl	getAllAxesGyro
 1973              		.loc 1 442 0
 1974 0c78 5D4B     		ldr	r3, .L495+32
 1975 0c7a 1868     		ldr	r0, [r3]
 1976 0c7c 584B     		ldr	r3, .L495+16
 1977 0c7e 1B68     		ldr	r3, [r3]
 1978 0c80 5A1C     		adds	r2, r3, #1
 1979 0c82 5749     		ldr	r1, .L495+16
 1980 0c84 0A60     		str	r2, [r1]
 1981 0c86 C1B2     		uxtb	r1, r0
 1982 0c88 564A     		ldr	r2, .L495+20
 1983 0c8a D154     		strb	r1, [r2, r3]
 1984              		.loc 1 443 0
 1985 0c8c 584B     		ldr	r3, .L495+32
 1986 0c8e 1B68     		ldr	r3, [r3]
 1987 0c90 1812     		asrs	r0, r3, #8
 1988 0c92 534B     		ldr	r3, .L495+16
 1989 0c94 1B68     		ldr	r3, [r3]
 1990 0c96 5A1C     		adds	r2, r3, #1
 1991 0c98 5149     		ldr	r1, .L495+16
 1992 0c9a 0A60     		str	r2, [r1]
 1993 0c9c C1B2     		uxtb	r1, r0
 1994 0c9e 514A     		ldr	r2, .L495+20
 1995 0ca0 D154     		strb	r1, [r2, r3]
 1996              		.loc 1 444 0
 1997 0ca2 524B     		ldr	r3, .L495+28
 1998 0ca4 1868     		ldr	r0, [r3]
 1999 0ca6 4E4B     		ldr	r3, .L495+16
 2000 0ca8 1B68     		ldr	r3, [r3]
 2001 0caa 5A1C     		adds	r2, r3, #1
 2002 0cac 4C49     		ldr	r1, .L495+16
 2003 0cae 0A60     		str	r2, [r1]
 2004 0cb0 C1B2     		uxtb	r1, r0
 2005 0cb2 4C4A     		ldr	r2, .L495+20
 2006 0cb4 D154     		strb	r1, [r2, r3]
 2007              		.loc 1 445 0
 2008 0cb6 4D4B     		ldr	r3, .L495+28
 2009 0cb8 1B68     		ldr	r3, [r3]
 2010 0cba 1812     		asrs	r0, r3, #8
 2011 0cbc 484B     		ldr	r3, .L495+16
 2012 0cbe 1B68     		ldr	r3, [r3]
 2013 0cc0 5A1C     		adds	r2, r3, #1
 2014 0cc2 4749     		ldr	r1, .L495+16
 2015 0cc4 0A60     		str	r2, [r1]
 2016 0cc6 C1B2     		uxtb	r1, r0
 2017 0cc8 464A     		ldr	r2, .L495+20
 2018 0cca D154     		strb	r1, [r2, r3]
ARM GAS  C:\Users\Moi\AppData\Local\Temp\ccF5N8ze.s 			page 42


 2019              		.loc 1 446 0
 2020 0ccc 464B     		ldr	r3, .L495+24
 2021 0cce 1868     		ldr	r0, [r3]
 2022 0cd0 434B     		ldr	r3, .L495+16
 2023 0cd2 1B68     		ldr	r3, [r3]
 2024 0cd4 5A1C     		adds	r2, r3, #1
 2025 0cd6 4249     		ldr	r1, .L495+16
 2026 0cd8 0A60     		str	r2, [r1]
 2027 0cda C1B2     		uxtb	r1, r0
 2028 0cdc 414A     		ldr	r2, .L495+20
 2029 0cde D154     		strb	r1, [r2, r3]
 2030              		.loc 1 447 0
 2031 0ce0 414B     		ldr	r3, .L495+24
 2032 0ce2 1B68     		ldr	r3, [r3]
 2033 0ce4 1812     		asrs	r0, r3, #8
 2034 0ce6 3E4B     		ldr	r3, .L495+16
 2035 0ce8 1B68     		ldr	r3, [r3]
 2036 0cea 5A1C     		adds	r2, r3, #1
 2037 0cec 3C49     		ldr	r1, .L495+16
 2038 0cee 0A60     		str	r2, [r1]
 2039 0cf0 C1B2     		uxtb	r1, r0
 2040 0cf2 3C4A     		ldr	r2, .L495+20
 2041 0cf4 D154     		strb	r1, [r2, r3]
 2042              		.loc 1 456 0
 2043 0cf6 B6E3     		b	.L80
 2044              	.L101:
 2045              		.loc 1 449 0
 2046 0cf8 394B     		ldr	r3, .L495+16
 2047 0cfa 1B68     		ldr	r3, [r3]
 2048 0cfc 5A1C     		adds	r2, r3, #1
 2049 0cfe 3849     		ldr	r1, .L495+16
 2050 0d00 0A60     		str	r2, [r1]
 2051 0d02 384A     		ldr	r2, .L495+20
 2052 0d04 0021     		movs	r1, #0
 2053 0d06 D154     		strb	r1, [r2, r3]
 2054              		.loc 1 450 0
 2055 0d08 354B     		ldr	r3, .L495+16
 2056 0d0a 1B68     		ldr	r3, [r3]
 2057 0d0c 5A1C     		adds	r2, r3, #1
 2058 0d0e 3449     		ldr	r1, .L495+16
 2059 0d10 0A60     		str	r2, [r1]
 2060 0d12 344A     		ldr	r2, .L495+20
 2061 0d14 0021     		movs	r1, #0
 2062 0d16 D154     		strb	r1, [r2, r3]
 2063              		.loc 1 451 0
 2064 0d18 314B     		ldr	r3, .L495+16
 2065 0d1a 1B68     		ldr	r3, [r3]
 2066 0d1c 5A1C     		adds	r2, r3, #1
 2067 0d1e 3049     		ldr	r1, .L495+16
 2068 0d20 0A60     		str	r2, [r1]
 2069 0d22 304A     		ldr	r2, .L495+20
 2070 0d24 0021     		movs	r1, #0
 2071 0d26 D154     		strb	r1, [r2, r3]
 2072              		.loc 1 452 0
 2073 0d28 2D4B     		ldr	r3, .L495+16
 2074 0d2a 1B68     		ldr	r3, [r3]
 2075 0d2c 5A1C     		adds	r2, r3, #1
ARM GAS  C:\Users\Moi\AppData\Local\Temp\ccF5N8ze.s 			page 43


 2076 0d2e 2C49     		ldr	r1, .L495+16
 2077 0d30 0A60     		str	r2, [r1]
 2078 0d32 2C4A     		ldr	r2, .L495+20
 2079 0d34 0021     		movs	r1, #0
 2080 0d36 D154     		strb	r1, [r2, r3]
 2081              		.loc 1 453 0
 2082 0d38 294B     		ldr	r3, .L495+16
 2083 0d3a 1B68     		ldr	r3, [r3]
 2084 0d3c 5A1C     		adds	r2, r3, #1
 2085 0d3e 2849     		ldr	r1, .L495+16
 2086 0d40 0A60     		str	r2, [r1]
 2087 0d42 284A     		ldr	r2, .L495+20
 2088 0d44 0021     		movs	r1, #0
 2089 0d46 D154     		strb	r1, [r2, r3]
 2090              		.loc 1 454 0
 2091 0d48 254B     		ldr	r3, .L495+16
 2092 0d4a 1B68     		ldr	r3, [r3]
 2093 0d4c 5A1C     		adds	r2, r3, #1
 2094 0d4e 2449     		ldr	r1, .L495+16
 2095 0d50 0A60     		str	r2, [r1]
 2096 0d52 244A     		ldr	r2, .L495+20
 2097 0d54 0021     		movs	r1, #0
 2098 0d56 D154     		strb	r1, [r2, r3]
 2099              		.loc 1 456 0
 2100 0d58 85E3     		b	.L80
 2101              	.L59:
 2102              		.loc 1 459 0
 2103 0d5a 9DF82630 		ldrb	r3, [sp, #38]	@ zero_extendqisi2
 2104 0d5e 002B     		cmp	r3, #0
 2105 0d60 40F07A83 		bne	.L445
 2106              		.loc 1 460 0
 2107 0d64 1E4B     		ldr	r3, .L495+16
 2108 0d66 1B68     		ldr	r3, [r3]
 2109 0d68 0333     		adds	r3, r3, #3
 2110 0d6a 1E4A     		ldr	r2, .L495+20
 2111 0d6c 1344     		add	r3, r3, r2
 2112 0d6e 1846     		mov	r0, r3
 2113 0d70 FFF7FEFF 		bl	e_poxxxx_launch_capture
 2114              		.loc 1 461 0
 2115 0d74 1F4B     		ldr	r3, .L495+36
 2116 0d76 0122     		movs	r2, #1
 2117 0d78 1A70     		strb	r2, [r3]
 2118              		.loc 1 462 0
 2119 0d7a 1F4B     		ldr	r3, .L495+40
 2120 0d7c 1868     		ldr	r0, [r3]
 2121 0d7e 184B     		ldr	r3, .L495+16
 2122 0d80 1B68     		ldr	r3, [r3]
 2123 0d82 5A1C     		adds	r2, r3, #1
 2124 0d84 1649     		ldr	r1, .L495+16
 2125 0d86 0A60     		str	r2, [r1]
 2126 0d88 C1B2     		uxtb	r1, r0
 2127 0d8a 164A     		ldr	r2, .L495+20
 2128 0d8c D154     		strb	r1, [r2, r3]
 2129              		.loc 1 463 0
 2130 0d8e 1B4B     		ldr	r3, .L495+44
 2131 0d90 1868     		ldr	r0, [r3]
 2132 0d92 134B     		ldr	r3, .L495+16
ARM GAS  C:\Users\Moi\AppData\Local\Temp\ccF5N8ze.s 			page 44


 2133 0d94 1B68     		ldr	r3, [r3]
 2134 0d96 5A1C     		adds	r2, r3, #1
 2135 0d98 1149     		ldr	r1, .L495+16
 2136 0d9a 0A60     		str	r2, [r1]
 2137 0d9c C1B2     		uxtb	r1, r0
 2138 0d9e 114A     		ldr	r2, .L495+20
 2139 0da0 D154     		strb	r1, [r2, r3]
 2140              		.loc 1 464 0
 2141 0da2 174B     		ldr	r3, .L495+48
 2142 0da4 1868     		ldr	r0, [r3]
 2143 0da6 0E4B     		ldr	r3, .L495+16
 2144 0da8 1B68     		ldr	r3, [r3]
 2145 0daa 5A1C     		adds	r2, r3, #1
 2146 0dac 0C49     		ldr	r1, .L495+16
 2147 0dae 0A60     		str	r2, [r1]
 2148 0db0 C1B2     		uxtb	r1, r0
 2149 0db2 0C4A     		ldr	r2, .L495+20
 2150 0db4 D154     		strb	r1, [r2, r3]
 2151              		.loc 1 465 0
 2152 0db6 0A4B     		ldr	r3, .L495+16
 2153 0db8 1B68     		ldr	r3, [r3]
 2154 0dba ADF82A30 		strh	r3, [sp, #42]	@ movhi
 2155              		.loc 1 466 0
 2156 0dbe 084B     		ldr	r3, .L495+16
 2157 0dc0 1A68     		ldr	r2, [r3]
 2158 0dc2 104B     		ldr	r3, .L495+52
 2159 0dc4 1B68     		ldr	r3, [r3]
 2160 0dc6 1344     		add	r3, r3, r2
 2161 0dc8 054A     		ldr	r2, .L495+16
 2162 0dca 1360     		str	r3, [r2]
 2163              		.loc 1 468 0
 2164 0dcc 44E3     		b	.L445
 2165              	.L496:
 2166 0dce 00BF     		.align	2
 2167              	.L495:
 2168 0dd0 00000000 		.word	c1.13529
 2169 0dd4 00000000 		.word	c2.13530
 2170 0dd8 00000000 		.word	speedl.13536
 2171 0ddc 00000000 		.word	speedr.13535
 2172 0de0 00000000 		.word	i.13532
 2173 0de4 00000000 		.word	buffer
 2174 0de8 00000000 		.word	gyroz.13547
 2175 0dec 00000000 		.word	gyroy.13546
 2176 0df0 00000000 		.word	gyrox.13545
 2177 0df4 00000000 		.word	wait_cam.13531
 2178 0df8 00000000 		.word	cam_mode.13548
 2179 0dfc 00000000 		.word	cam_width.13549
 2180 0e00 00000000 		.word	cam_heigth.13550
 2181 0e04 00000000 		.word	cam_size.13552
 2182              	.L60:
 2183              		.loc 1 470 0
 2184 0e08 9DF82630 		ldrb	r3, [sp, #38]	@ zero_extendqisi2
 2185 0e0c 002B     		cmp	r3, #0
 2186 0e0e 1FD1     		bne	.L104
 2187              		.loc 1 472 0
 2188 0e10 0B9B     		ldr	r3, [sp, #44]
 2189 0e12 002B     		cmp	r3, #0
ARM GAS  C:\Users\Moi\AppData\Local\Temp\ccF5N8ze.s 			page 45


 2190 0e14 0ED0     		beq	.L482
 2191              		.loc 1 473 0
 2192 0e16 00BF     		nop
 2193              	.L106:
 2194              		.loc 1 473 0 is_stmt 0 discriminator 1
 2195 0e18 9048     		ldr	r0, .L497
 2196 0e1a FFF7FEFF 		bl	e_getchar_uart1
 2197 0e1e 0346     		mov	r3, r0
 2198 0e20 002B     		cmp	r3, #0
 2199 0e22 F9D0     		beq	.L106
 2200              		.loc 1 474 0 is_stmt 1
 2201 0e24 00BF     		nop
 2202              	.L107:
 2203              		.loc 1 474 0 is_stmt 0 discriminator 1
 2204 0e26 8E48     		ldr	r0, .L497+4
 2205 0e28 FFF7FEFF 		bl	e_getchar_uart1
 2206 0e2c 0346     		mov	r3, r0
 2207 0e2e 002B     		cmp	r3, #0
 2208 0e30 F9D0     		beq	.L107
 2209 0e32 0DE0     		b	.L104
 2210              	.L482:
 2211              		.loc 1 476 0 is_stmt 1
 2212 0e34 00BF     		nop
 2213              	.L108:
 2214              		.loc 1 476 0 is_stmt 0 discriminator 1
 2215 0e36 8948     		ldr	r0, .L497
 2216 0e38 FFF7FEFF 		bl	e_getchar_uart2
 2217 0e3c 0346     		mov	r3, r0
 2218 0e3e 002B     		cmp	r3, #0
 2219 0e40 F9D0     		beq	.L108
 2220              		.loc 1 477 0 is_stmt 1
 2221 0e42 00BF     		nop
 2222              	.L109:
 2223              		.loc 1 477 0 is_stmt 0 discriminator 1
 2224 0e44 8648     		ldr	r0, .L497+4
 2225 0e46 FFF7FEFF 		bl	e_getchar_uart2
 2226 0e4a 0346     		mov	r3, r0
 2227 0e4c 002B     		cmp	r3, #0
 2228 0e4e F9D0     		beq	.L109
 2229              	.L104:
 2230              		.loc 1 479 0 is_stmt 1
 2231 0e50 824B     		ldr	r3, .L497
 2232 0e52 1B78     		ldrb	r3, [r3]	@ zero_extendqisi2
 2233 0e54 082B     		cmp	r3, #8
 2234 0e56 02D0     		beq	.L111
 2235 0e58 092B     		cmp	r3, #9
 2236 0e5a 06D0     		beq	.L112
 2237 0e5c 0BE0     		b	.L443
 2238              	.L111:
 2239              		.loc 1 481 0
 2240 0e5e 804B     		ldr	r3, .L497+4
 2241 0e60 1B78     		ldrb	r3, [r3]	@ zero_extendqisi2
 2242 0e62 1846     		mov	r0, r3
 2243 0e64 FFF7FEFF 		bl	e_set_body_led
 2244              		.loc 1 482 0
 2245 0e68 0FE0     		b	.L113
 2246              	.L112:
ARM GAS  C:\Users\Moi\AppData\Local\Temp\ccF5N8ze.s 			page 46


 2247              		.loc 1 484 0
 2248 0e6a 7D4B     		ldr	r3, .L497+4
 2249 0e6c 1B78     		ldrb	r3, [r3]	@ zero_extendqisi2
 2250 0e6e 1846     		mov	r0, r3
 2251 0e70 FFF7FEFF 		bl	e_set_front_led
 2252              		.loc 1 485 0
 2253 0e74 09E0     		b	.L113
 2254              	.L443:
 2255              		.loc 1 487 0
 2256 0e76 794B     		ldr	r3, .L497
 2257 0e78 1B78     		ldrb	r3, [r3]	@ zero_extendqisi2
 2258 0e7a 1A46     		mov	r2, r3
 2259 0e7c 784B     		ldr	r3, .L497+4
 2260 0e7e 1B78     		ldrb	r3, [r3]	@ zero_extendqisi2
 2261 0e80 1946     		mov	r1, r3
 2262 0e82 1046     		mov	r0, r2
 2263 0e84 FFF7FEFF 		bl	e_set_led
 2264              		.loc 1 488 0
 2265 0e88 00BF     		nop
 2266              	.L113:
 2267              		.loc 1 490 0
 2268 0e8a ECE2     		b	.L80
 2269              	.L61:
 2270              		.loc 1 493 0
 2271 0e8c 9DF82630 		ldrb	r3, [sp, #38]	@ zero_extendqisi2
 2272 0e90 002B     		cmp	r3, #0
 2273 0e92 40F0E382 		bne	.L446
 2274              		.loc 1 494 0
 2275 0e96 FFF7FEFF 		bl	e_i2cp_init
 2276              		.loc 1 495 0
 2277 0e9a FFF7FEFF 		bl	e_i2cp_enable
 2278              		.loc 1 496 0
 2279 0e9e 0021     		movs	r1, #0
 2280 0ea0 C020     		movs	r0, #192
 2281 0ea2 FFF7FEFF 		bl	e_i2cp_read
 2282              		.loc 1 497 0
 2283 0ea6 6F4B     		ldr	r3, .L497+8
 2284 0ea8 0022     		movs	r2, #0
 2285 0eaa 1A60     		str	r2, [r3]
 2286 0eac 2DE0     		b	.L115
 2287              	.L118:
 2288              		.loc 1 498 0
 2289 0eae 6D4B     		ldr	r3, .L497+8
 2290 0eb0 1B68     		ldr	r3, [r3]
 2291 0eb2 03F00103 		and	r3, r3, #1
 2292 0eb6 002B     		cmp	r3, #0
 2293 0eb8 11D1     		bne	.L116
 2294              		.loc 1 498 0 is_stmt 0 discriminator 1
 2295 0eba 6A4B     		ldr	r3, .L497+8
 2296 0ebc 1B68     		ldr	r3, [r3]
 2297 0ebe DBB2     		uxtb	r3, r3
 2298 0ec0 0133     		adds	r3, r3, #1
 2299 0ec2 D9B2     		uxtb	r1, r3
 2300 0ec4 684B     		ldr	r3, .L497+12
 2301 0ec6 1C68     		ldr	r4, [r3]
 2302 0ec8 631C     		adds	r3, r4, #1
 2303 0eca 674A     		ldr	r2, .L497+12
ARM GAS  C:\Users\Moi\AppData\Local\Temp\ccF5N8ze.s 			page 47


 2304 0ecc 1360     		str	r3, [r2]
 2305 0ece C020     		movs	r0, #192
 2306 0ed0 FFF7FEFF 		bl	e_i2cp_read
 2307 0ed4 0346     		mov	r3, r0
 2308 0ed6 1A46     		mov	r2, r3
 2309 0ed8 644B     		ldr	r3, .L497+16
 2310 0eda 1A55     		strb	r2, [r3, r4]
 2311 0edc 10E0     		b	.L117
 2312              	.L116:
 2313              		.loc 1 499 0 is_stmt 1
 2314 0ede 614B     		ldr	r3, .L497+8
 2315 0ee0 1B68     		ldr	r3, [r3]
 2316 0ee2 DBB2     		uxtb	r3, r3
 2317 0ee4 013B     		subs	r3, r3, #1
 2318 0ee6 D9B2     		uxtb	r1, r3
 2319 0ee8 5F4B     		ldr	r3, .L497+12
 2320 0eea 1C68     		ldr	r4, [r3]
 2321 0eec 631C     		adds	r3, r4, #1
 2322 0eee 5E4A     		ldr	r2, .L497+12
 2323 0ef0 1360     		str	r3, [r2]
 2324 0ef2 C020     		movs	r0, #192
 2325 0ef4 FFF7FEFF 		bl	e_i2cp_read
 2326 0ef8 0346     		mov	r3, r0
 2327 0efa 1A46     		mov	r2, r3
 2328 0efc 5B4B     		ldr	r3, .L497+16
 2329 0efe 1A55     		strb	r2, [r3, r4]
 2330              	.L117:
 2331              		.loc 1 497 0 discriminator 2
 2332 0f00 584B     		ldr	r3, .L497+8
 2333 0f02 1B68     		ldr	r3, [r3]
 2334 0f04 0133     		adds	r3, r3, #1
 2335 0f06 574A     		ldr	r2, .L497+8
 2336 0f08 1360     		str	r3, [r2]
 2337              	.L115:
 2338              		.loc 1 497 0 is_stmt 0 discriminator 1
 2339 0f0a 564B     		ldr	r3, .L497+8
 2340 0f0c 1B68     		ldr	r3, [r3]
 2341 0f0e 052B     		cmp	r3, #5
 2342 0f10 CDDD     		ble	.L118
 2343              		.loc 1 502 0 is_stmt 1
 2344 0f12 544B     		ldr	r3, .L497+8
 2345 0f14 0D22     		movs	r2, #13
 2346 0f16 1A60     		str	r2, [r3]
 2347 0f18 2DE0     		b	.L119
 2348              	.L122:
 2349              		.loc 1 503 0
 2350 0f1a 524B     		ldr	r3, .L497+8
 2351 0f1c 1B68     		ldr	r3, [r3]
 2352 0f1e 03F00103 		and	r3, r3, #1
 2353 0f22 002B     		cmp	r3, #0
 2354 0f24 11D1     		bne	.L120
 2355              		.loc 1 503 0 is_stmt 0 discriminator 1
 2356 0f26 4F4B     		ldr	r3, .L497+8
 2357 0f28 1B68     		ldr	r3, [r3]
 2358 0f2a DBB2     		uxtb	r3, r3
 2359 0f2c 013B     		subs	r3, r3, #1
 2360 0f2e D9B2     		uxtb	r1, r3
ARM GAS  C:\Users\Moi\AppData\Local\Temp\ccF5N8ze.s 			page 48


 2361 0f30 4D4B     		ldr	r3, .L497+12
 2362 0f32 1C68     		ldr	r4, [r3]
 2363 0f34 631C     		adds	r3, r4, #1
 2364 0f36 4C4A     		ldr	r2, .L497+12
 2365 0f38 1360     		str	r3, [r2]
 2366 0f3a C020     		movs	r0, #192
 2367 0f3c FFF7FEFF 		bl	e_i2cp_read
 2368 0f40 0346     		mov	r3, r0
 2369 0f42 1A46     		mov	r2, r3
 2370 0f44 494B     		ldr	r3, .L497+16
 2371 0f46 1A55     		strb	r2, [r3, r4]
 2372 0f48 10E0     		b	.L121
 2373              	.L120:
 2374              		.loc 1 504 0 is_stmt 1
 2375 0f4a 464B     		ldr	r3, .L497+8
 2376 0f4c 1B68     		ldr	r3, [r3]
 2377 0f4e DBB2     		uxtb	r3, r3
 2378 0f50 0133     		adds	r3, r3, #1
 2379 0f52 D9B2     		uxtb	r1, r3
 2380 0f54 444B     		ldr	r3, .L497+12
 2381 0f56 1C68     		ldr	r4, [r3]
 2382 0f58 631C     		adds	r3, r4, #1
 2383 0f5a 434A     		ldr	r2, .L497+12
 2384 0f5c 1360     		str	r3, [r2]
 2385 0f5e C020     		movs	r0, #192
 2386 0f60 FFF7FEFF 		bl	e_i2cp_read
 2387 0f64 0346     		mov	r3, r0
 2388 0f66 1A46     		mov	r2, r3
 2389 0f68 404B     		ldr	r3, .L497+16
 2390 0f6a 1A55     		strb	r2, [r3, r4]
 2391              	.L121:
 2392              		.loc 1 502 0 discriminator 2
 2393 0f6c 3D4B     		ldr	r3, .L497+8
 2394 0f6e 1B68     		ldr	r3, [r3]
 2395 0f70 0133     		adds	r3, r3, #1
 2396 0f72 3C4A     		ldr	r2, .L497+8
 2397 0f74 1360     		str	r3, [r2]
 2398              	.L119:
 2399              		.loc 1 502 0 is_stmt 0 discriminator 1
 2400 0f76 3B4B     		ldr	r3, .L497+8
 2401 0f78 1B68     		ldr	r3, [r3]
 2402 0f7a 102B     		cmp	r3, #16
 2403 0f7c CDDD     		ble	.L122
 2404              		.loc 1 507 0 is_stmt 1
 2405 0f7e FFF7FEFF 		bl	e_i2cp_disable
 2406              		.loc 1 515 0
 2407 0f82 6BE2     		b	.L446
 2408              	.L62:
 2409              		.loc 1 517 0
 2410 0f84 374B     		ldr	r3, .L497+8
 2411 0f86 0022     		movs	r2, #0
 2412 0f88 1A60     		str	r2, [r3]
 2413 0f8a 21E0     		b	.L123
 2414              	.L124:
 2415              		.loc 1 518 0 discriminator 3
 2416 0f8c 354B     		ldr	r3, .L497+8
 2417 0f8e 1B68     		ldr	r3, [r3]
ARM GAS  C:\Users\Moi\AppData\Local\Temp\ccF5N8ze.s 			page 49


 2418 0f90 1846     		mov	r0, r3
 2419 0f92 FFF7FEFF 		bl	e_get_calibrated_prox
 2420 0f96 0246     		mov	r2, r0
 2421 0f98 354B     		ldr	r3, .L497+20
 2422 0f9a 1A60     		str	r2, [r3]
 2423              		.loc 1 519 0 discriminator 3
 2424 0f9c 344B     		ldr	r3, .L497+20
 2425 0f9e 1868     		ldr	r0, [r3]
 2426 0fa0 314B     		ldr	r3, .L497+12
 2427 0fa2 1B68     		ldr	r3, [r3]
 2428 0fa4 5A1C     		adds	r2, r3, #1
 2429 0fa6 3049     		ldr	r1, .L497+12
 2430 0fa8 0A60     		str	r2, [r1]
 2431 0faa C1B2     		uxtb	r1, r0
 2432 0fac 2F4A     		ldr	r2, .L497+16
 2433 0fae D154     		strb	r1, [r2, r3]
 2434              		.loc 1 520 0 discriminator 3
 2435 0fb0 2F4B     		ldr	r3, .L497+20
 2436 0fb2 1B68     		ldr	r3, [r3]
 2437 0fb4 1812     		asrs	r0, r3, #8
 2438 0fb6 2C4B     		ldr	r3, .L497+12
 2439 0fb8 1B68     		ldr	r3, [r3]
 2440 0fba 5A1C     		adds	r2, r3, #1
 2441 0fbc 2A49     		ldr	r1, .L497+12
 2442 0fbe 0A60     		str	r2, [r1]
 2443 0fc0 C1B2     		uxtb	r1, r0
 2444 0fc2 2A4A     		ldr	r2, .L497+16
 2445 0fc4 D154     		strb	r1, [r2, r3]
 2446              		.loc 1 517 0 discriminator 3
 2447 0fc6 274B     		ldr	r3, .L497+8
 2448 0fc8 1B68     		ldr	r3, [r3]
 2449 0fca 0133     		adds	r3, r3, #1
 2450 0fcc 254A     		ldr	r2, .L497+8
 2451 0fce 1360     		str	r3, [r2]
 2452              	.L123:
 2453              		.loc 1 517 0 is_stmt 0 discriminator 1
 2454 0fd0 244B     		ldr	r3, .L497+8
 2455 0fd2 1B68     		ldr	r3, [r3]
 2456 0fd4 072B     		cmp	r3, #7
 2457 0fd6 D9DD     		ble	.L124
 2458              		.loc 1 522 0 is_stmt 1
 2459 0fd8 45E2     		b	.L80
 2460              	.L63:
 2461              		.loc 1 524 0
 2462 0fda 224B     		ldr	r3, .L497+8
 2463 0fdc 0022     		movs	r2, #0
 2464 0fde 1A60     		str	r2, [r3]
 2465 0fe0 21E0     		b	.L125
 2466              	.L126:
 2467              		.loc 1 525 0 discriminator 3
 2468 0fe2 204B     		ldr	r3, .L497+8
 2469 0fe4 1B68     		ldr	r3, [r3]
 2470 0fe6 1846     		mov	r0, r3
 2471 0fe8 FFF7FEFF 		bl	e_get_ambient_light
 2472 0fec 0246     		mov	r2, r0
 2473 0fee 204B     		ldr	r3, .L497+20
 2474 0ff0 1A60     		str	r2, [r3]
ARM GAS  C:\Users\Moi\AppData\Local\Temp\ccF5N8ze.s 			page 50


 2475              		.loc 1 526 0 discriminator 3
 2476 0ff2 1F4B     		ldr	r3, .L497+20
 2477 0ff4 1868     		ldr	r0, [r3]
 2478 0ff6 1C4B     		ldr	r3, .L497+12
 2479 0ff8 1B68     		ldr	r3, [r3]
 2480 0ffa 5A1C     		adds	r2, r3, #1
 2481 0ffc 1A49     		ldr	r1, .L497+12
 2482 0ffe 0A60     		str	r2, [r1]
 2483 1000 C1B2     		uxtb	r1, r0
 2484 1002 1A4A     		ldr	r2, .L497+16
 2485 1004 D154     		strb	r1, [r2, r3]
 2486              		.loc 1 527 0 discriminator 3
 2487 1006 1A4B     		ldr	r3, .L497+20
 2488 1008 1B68     		ldr	r3, [r3]
 2489 100a 1812     		asrs	r0, r3, #8
 2490 100c 164B     		ldr	r3, .L497+12
 2491 100e 1B68     		ldr	r3, [r3]
 2492 1010 5A1C     		adds	r2, r3, #1
 2493 1012 1549     		ldr	r1, .L497+12
 2494 1014 0A60     		str	r2, [r1]
 2495 1016 C1B2     		uxtb	r1, r0
 2496 1018 144A     		ldr	r2, .L497+16
 2497 101a D154     		strb	r1, [r2, r3]
 2498              		.loc 1 524 0 discriminator 3
 2499 101c 114B     		ldr	r3, .L497+8
 2500 101e 1B68     		ldr	r3, [r3]
 2501 1020 0133     		adds	r3, r3, #1
 2502 1022 104A     		ldr	r2, .L497+8
 2503 1024 1360     		str	r3, [r2]
 2504              	.L125:
 2505              		.loc 1 524 0 is_stmt 0 discriminator 1
 2506 1026 0F4B     		ldr	r3, .L497+8
 2507 1028 1B68     		ldr	r3, [r3]
 2508 102a 072B     		cmp	r3, #7
 2509 102c D9DD     		ble	.L126
 2510              		.loc 1 529 0 is_stmt 1
 2511 102e 1AE2     		b	.L80
 2512              	.L64:
 2513              		.loc 1 532 0
 2514 1030 9DF82630 		ldrb	r3, [sp, #38]	@ zero_extendqisi2
 2515 1034 002B     		cmp	r3, #0
 2516 1036 2BD1     		bne	.L127
 2517              		.loc 1 534 0
 2518 1038 0B9B     		ldr	r3, [sp, #44]
 2519 103a 002B     		cmp	r3, #0
 2520 103c 1AD0     		beq	.L483
 2521              		.loc 1 535 0
 2522 103e 00BF     		nop
 2523              	.L129:
 2524              		.loc 1 535 0 is_stmt 0 discriminator 1
 2525 1040 0648     		ldr	r0, .L497
 2526 1042 FFF7FEFF 		bl	e_getchar_uart1
 2527 1046 0346     		mov	r3, r0
 2528 1048 002B     		cmp	r3, #0
 2529 104a F9D0     		beq	.L129
 2530              		.loc 1 536 0 is_stmt 1
 2531 104c 00BF     		nop
ARM GAS  C:\Users\Moi\AppData\Local\Temp\ccF5N8ze.s 			page 51


 2532              	.L130:
 2533              		.loc 1 536 0 is_stmt 0 discriminator 1
 2534 104e 0448     		ldr	r0, .L497+4
 2535 1050 FFF7FEFF 		bl	e_getchar_uart1
 2536 1054 0346     		mov	r3, r0
 2537 1056 002B     		cmp	r3, #0
 2538 1058 F9D0     		beq	.L130
 2539 105a 19E0     		b	.L127
 2540              	.L498:
 2541              		.align	2
 2542              	.L497:
 2543 105c 00000000 		.word	c1.13529
 2544 1060 00000000 		.word	c2.13530
 2545 1064 00000000 		.word	j.13533
 2546 1068 00000000 		.word	i.13532
 2547 106c 00000000 		.word	buffer
 2548 1070 00000000 		.word	n.13534
 2549              	.L483:
 2550              		.loc 1 538 0 is_stmt 1
 2551 1074 00BF     		nop
 2552              	.L131:
 2553              		.loc 1 538 0 is_stmt 0 discriminator 1
 2554 1076 A048     		ldr	r0, .L499
 2555 1078 FFF7FEFF 		bl	e_getchar_uart2
 2556 107c 0346     		mov	r3, r0
 2557 107e 002B     		cmp	r3, #0
 2558 1080 F9D0     		beq	.L131
 2559              		.loc 1 539 0 is_stmt 1
 2560 1082 00BF     		nop
 2561              	.L132:
 2562              		.loc 1 539 0 is_stmt 0 discriminator 1
 2563 1084 9D48     		ldr	r0, .L499+4
 2564 1086 FFF7FEFF 		bl	e_getchar_uart2
 2565 108a 0346     		mov	r3, r0
 2566 108c 002B     		cmp	r3, #0
 2567 108e F9D0     		beq	.L132
 2568              	.L127:
 2569              		.loc 1 541 0 is_stmt 1
 2570 1090 994B     		ldr	r3, .L499
 2571 1092 1B78     		ldrb	r3, [r3]	@ zero_extendqisi2
 2572 1094 1A46     		mov	r2, r3
 2573 1096 994B     		ldr	r3, .L499+4
 2574 1098 1B78     		ldrb	r3, [r3]	@ zero_extendqisi2
 2575 109a 1B02     		lsls	r3, r3, #8
 2576 109c 1344     		add	r3, r3, r2
 2577 109e 1A46     		mov	r2, r3
 2578 10a0 974B     		ldr	r3, .L499+8
 2579 10a2 1A60     		str	r2, [r3]
 2580              		.loc 1 542 0
 2581 10a4 9DF82630 		ldrb	r3, [sp, #38]	@ zero_extendqisi2
 2582 10a8 002B     		cmp	r3, #0
 2583 10aa 1FD1     		bne	.L133
 2584              		.loc 1 544 0
 2585 10ac 0B9B     		ldr	r3, [sp, #44]
 2586 10ae 002B     		cmp	r3, #0
 2587 10b0 0ED0     		beq	.L484
 2588              		.loc 1 545 0
ARM GAS  C:\Users\Moi\AppData\Local\Temp\ccF5N8ze.s 			page 52


 2589 10b2 00BF     		nop
 2590              	.L135:
 2591              		.loc 1 545 0 is_stmt 0 discriminator 1
 2592 10b4 9048     		ldr	r0, .L499
 2593 10b6 FFF7FEFF 		bl	e_getchar_uart1
 2594 10ba 0346     		mov	r3, r0
 2595 10bc 002B     		cmp	r3, #0
 2596 10be F9D0     		beq	.L135
 2597              		.loc 1 546 0 is_stmt 1
 2598 10c0 00BF     		nop
 2599              	.L136:
 2600              		.loc 1 546 0 is_stmt 0 discriminator 1
 2601 10c2 8E48     		ldr	r0, .L499+4
 2602 10c4 FFF7FEFF 		bl	e_getchar_uart1
 2603 10c8 0346     		mov	r3, r0
 2604 10ca 002B     		cmp	r3, #0
 2605 10cc F9D0     		beq	.L136
 2606 10ce 0DE0     		b	.L133
 2607              	.L484:
 2608              		.loc 1 548 0 is_stmt 1
 2609 10d0 00BF     		nop
 2610              	.L137:
 2611              		.loc 1 548 0 is_stmt 0 discriminator 1
 2612 10d2 8948     		ldr	r0, .L499
 2613 10d4 FFF7FEFF 		bl	e_getchar_uart2
 2614 10d8 0346     		mov	r3, r0
 2615 10da 002B     		cmp	r3, #0
 2616 10dc F9D0     		beq	.L137
 2617              		.loc 1 549 0 is_stmt 1
 2618 10de 00BF     		nop
 2619              	.L138:
 2620              		.loc 1 549 0 is_stmt 0 discriminator 1
 2621 10e0 8648     		ldr	r0, .L499+4
 2622 10e2 FFF7FEFF 		bl	e_getchar_uart2
 2623 10e6 0346     		mov	r3, r0
 2624 10e8 002B     		cmp	r3, #0
 2625 10ea F9D0     		beq	.L138
 2626              	.L133:
 2627              		.loc 1 551 0 is_stmt 1
 2628 10ec 824B     		ldr	r3, .L499
 2629 10ee 1B78     		ldrb	r3, [r3]	@ zero_extendqisi2
 2630 10f0 1A46     		mov	r2, r3
 2631 10f2 824B     		ldr	r3, .L499+4
 2632 10f4 1B78     		ldrb	r3, [r3]	@ zero_extendqisi2
 2633 10f6 1B02     		lsls	r3, r3, #8
 2634 10f8 1344     		add	r3, r3, r2
 2635 10fa 1A46     		mov	r2, r3
 2636 10fc 814B     		ldr	r3, .L499+12
 2637 10fe 1A60     		str	r2, [r3]
 2638              		.loc 1 552 0
 2639 1100 7F4B     		ldr	r3, .L499+8
 2640 1102 1B68     		ldr	r3, [r3]
 2641 1104 1846     		mov	r0, r3
 2642 1106 FFF7FEFF 		bl	e_set_steps_left
 2643              		.loc 1 553 0
 2644 110a 7E4B     		ldr	r3, .L499+12
 2645 110c 1B68     		ldr	r3, [r3]
ARM GAS  C:\Users\Moi\AppData\Local\Temp\ccF5N8ze.s 			page 53


 2646 110e 1846     		mov	r0, r3
 2647 1110 FFF7FEFF 		bl	e_set_steps_right
 2648              		.loc 1 554 0
 2649 1114 A7E1     		b	.L80
 2650              	.L65:
 2651              		.loc 1 556 0
 2652 1116 FFF7FEFF 		bl	e_get_steps_left
 2653 111a 0246     		mov	r2, r0
 2654 111c 7A4B     		ldr	r3, .L499+16
 2655 111e 1A60     		str	r2, [r3]
 2656              		.loc 1 557 0
 2657 1120 794B     		ldr	r3, .L499+16
 2658 1122 1868     		ldr	r0, [r3]
 2659 1124 794B     		ldr	r3, .L499+20
 2660 1126 1B68     		ldr	r3, [r3]
 2661 1128 5A1C     		adds	r2, r3, #1
 2662 112a 7849     		ldr	r1, .L499+20
 2663 112c 0A60     		str	r2, [r1]
 2664 112e C1B2     		uxtb	r1, r0
 2665 1130 774A     		ldr	r2, .L499+24
 2666 1132 D154     		strb	r1, [r2, r3]
 2667              		.loc 1 558 0
 2668 1134 744B     		ldr	r3, .L499+16
 2669 1136 1B68     		ldr	r3, [r3]
 2670 1138 1812     		asrs	r0, r3, #8
 2671 113a 744B     		ldr	r3, .L499+20
 2672 113c 1B68     		ldr	r3, [r3]
 2673 113e 5A1C     		adds	r2, r3, #1
 2674 1140 7249     		ldr	r1, .L499+20
 2675 1142 0A60     		str	r2, [r1]
 2676 1144 C1B2     		uxtb	r1, r0
 2677 1146 724A     		ldr	r2, .L499+24
 2678 1148 D154     		strb	r1, [r2, r3]
 2679              		.loc 1 559 0
 2680 114a FFF7FEFF 		bl	e_get_steps_right
 2681 114e 0246     		mov	r2, r0
 2682 1150 6D4B     		ldr	r3, .L499+16
 2683 1152 1A60     		str	r2, [r3]
 2684              		.loc 1 560 0
 2685 1154 6C4B     		ldr	r3, .L499+16
 2686 1156 1868     		ldr	r0, [r3]
 2687 1158 6C4B     		ldr	r3, .L499+20
 2688 115a 1B68     		ldr	r3, [r3]
 2689 115c 5A1C     		adds	r2, r3, #1
 2690 115e 6B49     		ldr	r1, .L499+20
 2691 1160 0A60     		str	r2, [r1]
 2692 1162 C1B2     		uxtb	r1, r0
 2693 1164 6A4A     		ldr	r2, .L499+24
 2694 1166 D154     		strb	r1, [r2, r3]
 2695              		.loc 1 561 0
 2696 1168 674B     		ldr	r3, .L499+16
 2697 116a 1B68     		ldr	r3, [r3]
 2698 116c 1812     		asrs	r0, r3, #8
 2699 116e 674B     		ldr	r3, .L499+20
 2700 1170 1B68     		ldr	r3, [r3]
 2701 1172 5A1C     		adds	r2, r3, #1
 2702 1174 6549     		ldr	r1, .L499+20
ARM GAS  C:\Users\Moi\AppData\Local\Temp\ccF5N8ze.s 			page 54


 2703 1176 0A60     		str	r2, [r1]
 2704 1178 C1B2     		uxtb	r1, r0
 2705 117a 654A     		ldr	r2, .L499+24
 2706 117c D154     		strb	r1, [r2, r3]
 2707              		.loc 1 562 0
 2708 117e 72E1     		b	.L80
 2709              	.L71:
 2710              		.loc 1 565 0
 2711 1180 9DF82630 		ldrb	r3, [sp, #38]	@ zero_extendqisi2
 2712 1184 002B     		cmp	r3, #0
 2713 1186 08D1     		bne	.L139
 2714              		.loc 1 566 0
 2715 1188 604B     		ldr	r3, .L499+20
 2716 118a 1B68     		ldr	r3, [r3]
 2717 118c 5A1C     		adds	r2, r3, #1
 2718 118e 5F49     		ldr	r1, .L499+20
 2719 1190 0A60     		str	r2, [r1]
 2720 1192 5F4A     		ldr	r2, .L499+24
 2721 1194 0021     		movs	r1, #0
 2722 1196 D154     		strb	r1, [r2, r3]
 2723              		.loc 1 570 0
 2724 1198 65E1     		b	.L80
 2725              	.L139:
 2726              		.loc 1 568 0
 2727 119a FFF7FEFF 		bl	getTemperature
 2728 119e 0346     		mov	r3, r0
 2729 11a0 1846     		mov	r0, r3
 2730 11a2 5A4B     		ldr	r3, .L499+20
 2731 11a4 1B68     		ldr	r3, [r3]
 2732 11a6 5A1C     		adds	r2, r3, #1
 2733 11a8 5849     		ldr	r1, .L499+20
 2734 11aa 0A60     		str	r2, [r1]
 2735 11ac C1B2     		uxtb	r1, r0
 2736 11ae 584A     		ldr	r2, .L499+24
 2737 11b0 D154     		strb	r1, [r2, r3]
 2738              		.loc 1 570 0
 2739 11b2 58E1     		b	.L80
 2740              	.L72:
 2741              		.loc 1 573 0
 2742 11b4 0020     		movs	r0, #0
 2743 11b6 FFF7FEFF 		bl	e_get_micro_volume
 2744 11ba 0246     		mov	r2, r0
 2745 11bc 524B     		ldr	r3, .L499+16
 2746 11be 1A60     		str	r2, [r3]
 2747              		.loc 1 574 0
 2748 11c0 514B     		ldr	r3, .L499+16
 2749 11c2 1868     		ldr	r0, [r3]
 2750 11c4 514B     		ldr	r3, .L499+20
 2751 11c6 1B68     		ldr	r3, [r3]
 2752 11c8 5A1C     		adds	r2, r3, #1
 2753 11ca 5049     		ldr	r1, .L499+20
 2754 11cc 0A60     		str	r2, [r1]
 2755 11ce C1B2     		uxtb	r1, r0
 2756 11d0 4F4A     		ldr	r2, .L499+24
 2757 11d2 D154     		strb	r1, [r2, r3]
 2758              		.loc 1 575 0
 2759 11d4 4C4B     		ldr	r3, .L499+16
ARM GAS  C:\Users\Moi\AppData\Local\Temp\ccF5N8ze.s 			page 55


 2760 11d6 1B68     		ldr	r3, [r3]
 2761 11d8 1812     		asrs	r0, r3, #8
 2762 11da 4C4B     		ldr	r3, .L499+20
 2763 11dc 1B68     		ldr	r3, [r3]
 2764 11de 5A1C     		adds	r2, r3, #1
 2765 11e0 4A49     		ldr	r1, .L499+20
 2766 11e2 0A60     		str	r2, [r1]
 2767 11e4 C1B2     		uxtb	r1, r0
 2768 11e6 4A4A     		ldr	r2, .L499+24
 2769 11e8 D154     		strb	r1, [r2, r3]
 2770              		.loc 1 577 0
 2771 11ea 0120     		movs	r0, #1
 2772 11ec FFF7FEFF 		bl	e_get_micro_volume
 2773 11f0 0246     		mov	r2, r0
 2774 11f2 454B     		ldr	r3, .L499+16
 2775 11f4 1A60     		str	r2, [r3]
 2776              		.loc 1 578 0
 2777 11f6 444B     		ldr	r3, .L499+16
 2778 11f8 1868     		ldr	r0, [r3]
 2779 11fa 444B     		ldr	r3, .L499+20
 2780 11fc 1B68     		ldr	r3, [r3]
 2781 11fe 5A1C     		adds	r2, r3, #1
 2782 1200 4249     		ldr	r1, .L499+20
 2783 1202 0A60     		str	r2, [r1]
 2784 1204 C1B2     		uxtb	r1, r0
 2785 1206 424A     		ldr	r2, .L499+24
 2786 1208 D154     		strb	r1, [r2, r3]
 2787              		.loc 1 579 0
 2788 120a 3F4B     		ldr	r3, .L499+16
 2789 120c 1B68     		ldr	r3, [r3]
 2790 120e 1812     		asrs	r0, r3, #8
 2791 1210 3E4B     		ldr	r3, .L499+20
 2792 1212 1B68     		ldr	r3, [r3]
 2793 1214 5A1C     		adds	r2, r3, #1
 2794 1216 3D49     		ldr	r1, .L499+20
 2795 1218 0A60     		str	r2, [r1]
 2796 121a C1B2     		uxtb	r1, r0
 2797 121c 3C4A     		ldr	r2, .L499+24
 2798 121e D154     		strb	r1, [r2, r3]
 2799              		.loc 1 581 0
 2800 1220 0220     		movs	r0, #2
 2801 1222 FFF7FEFF 		bl	e_get_micro_volume
 2802 1226 0246     		mov	r2, r0
 2803 1228 374B     		ldr	r3, .L499+16
 2804 122a 1A60     		str	r2, [r3]
 2805              		.loc 1 582 0
 2806 122c 364B     		ldr	r3, .L499+16
 2807 122e 1868     		ldr	r0, [r3]
 2808 1230 364B     		ldr	r3, .L499+20
 2809 1232 1B68     		ldr	r3, [r3]
 2810 1234 5A1C     		adds	r2, r3, #1
 2811 1236 3549     		ldr	r1, .L499+20
 2812 1238 0A60     		str	r2, [r1]
 2813 123a C1B2     		uxtb	r1, r0
 2814 123c 344A     		ldr	r2, .L499+24
 2815 123e D154     		strb	r1, [r2, r3]
 2816              		.loc 1 583 0
ARM GAS  C:\Users\Moi\AppData\Local\Temp\ccF5N8ze.s 			page 56


 2817 1240 314B     		ldr	r3, .L499+16
 2818 1242 1B68     		ldr	r3, [r3]
 2819 1244 1812     		asrs	r0, r3, #8
 2820 1246 314B     		ldr	r3, .L499+20
 2821 1248 1B68     		ldr	r3, [r3]
 2822 124a 5A1C     		adds	r2, r3, #1
 2823 124c 2F49     		ldr	r1, .L499+20
 2824 124e 0A60     		str	r2, [r1]
 2825 1250 C1B2     		uxtb	r1, r0
 2826 1252 2F4A     		ldr	r2, .L499+24
 2827 1254 D154     		strb	r1, [r2, r3]
 2828              		.loc 1 584 0
 2829 1256 06E1     		b	.L80
 2830              	.L67:
 2831              		.loc 1 598 0
 2832 1258 9DF82630 		ldrb	r3, [sp, #38]	@ zero_extendqisi2
 2833 125c 002B     		cmp	r3, #0
 2834 125e 40F0FF80 		bne	.L447
 2835              		.loc 1 599 0
 2836 1262 0B9B     		ldr	r3, [sp, #44]
 2837 1264 002B     		cmp	r3, #0
 2838 1266 15D0     		beq	.L485
 2839              		.loc 1 600 0
 2840 1268 00BF     		nop
 2841              	.L143:
 2842              		.loc 1 600 0 is_stmt 0 discriminator 1
 2843 126a 2A48     		ldr	r0, .L499+28
 2844 126c FFF7FEFF 		bl	e_getchar_uart1
 2845 1270 0346     		mov	r3, r0
 2846 1272 002B     		cmp	r3, #0
 2847 1274 F9D0     		beq	.L143
 2848              		.loc 1 601 0 is_stmt 1
 2849 1276 00BF     		nop
 2850              	.L144:
 2851              		.loc 1 601 0 is_stmt 0 discriminator 1
 2852 1278 2748     		ldr	r0, .L499+32
 2853 127a FFF7FEFF 		bl	e_getchar_uart1
 2854 127e 0346     		mov	r3, r0
 2855 1280 002B     		cmp	r3, #0
 2856 1282 F9D0     		beq	.L144
 2857              		.loc 1 602 0 is_stmt 1
 2858 1284 00BF     		nop
 2859              	.L145:
 2860              		.loc 1 602 0 is_stmt 0 discriminator 1
 2861 1286 2548     		ldr	r0, .L499+36
 2862 1288 FFF7FEFF 		bl	e_getchar_uart1
 2863 128c 0346     		mov	r3, r0
 2864 128e 002B     		cmp	r3, #0
 2865 1290 F9D0     		beq	.L145
 2866 1292 14E0     		b	.L146
 2867              	.L485:
 2868              		.loc 1 604 0 is_stmt 1
 2869 1294 00BF     		nop
 2870              	.L147:
 2871              		.loc 1 604 0 is_stmt 0 discriminator 1
 2872 1296 1F48     		ldr	r0, .L499+28
 2873 1298 FFF7FEFF 		bl	e_getchar_uart2
ARM GAS  C:\Users\Moi\AppData\Local\Temp\ccF5N8ze.s 			page 57


 2874 129c 0346     		mov	r3, r0
 2875 129e 002B     		cmp	r3, #0
 2876 12a0 F9D0     		beq	.L147
 2877              		.loc 1 605 0 is_stmt 1
 2878 12a2 00BF     		nop
 2879              	.L148:
 2880              		.loc 1 605 0 is_stmt 0 discriminator 1
 2881 12a4 1C48     		ldr	r0, .L499+32
 2882 12a6 FFF7FEFF 		bl	e_getchar_uart2
 2883 12aa 0346     		mov	r3, r0
 2884 12ac 002B     		cmp	r3, #0
 2885 12ae F9D0     		beq	.L148
 2886              		.loc 1 606 0 is_stmt 1
 2887 12b0 00BF     		nop
 2888              	.L149:
 2889              		.loc 1 606 0 is_stmt 0 discriminator 1
 2890 12b2 1A48     		ldr	r0, .L499+36
 2891 12b4 FFF7FEFF 		bl	e_getchar_uart2
 2892 12b8 0346     		mov	r3, r0
 2893 12ba 002B     		cmp	r3, #0
 2894 12bc F9D0     		beq	.L149
 2895              	.L146:
 2896              		.loc 1 608 0 is_stmt 1
 2897 12be FFF7FEFF 		bl	e_i2cp_enable
 2898              		.loc 1 609 0
 2899 12c2 144B     		ldr	r3, .L499+28
 2900 12c4 1B68     		ldr	r3, [r3]
 2901 12c6 D8B2     		uxtb	r0, r3
 2902 12c8 134B     		ldr	r3, .L499+32
 2903 12ca 1B68     		ldr	r3, [r3]
 2904 12cc D9B2     		uxtb	r1, r3
 2905 12ce 134B     		ldr	r3, .L499+36
 2906 12d0 1B68     		ldr	r3, [r3]
 2907 12d2 DBB2     		uxtb	r3, r3
 2908 12d4 1A46     		mov	r2, r3
 2909 12d6 FFF7FEFF 		bl	e_i2cp_write
 2910              		.loc 1 610 0
 2911 12da FFF7FEFF 		bl	e_i2cp_disable
 2912              		.loc 1 612 0
 2913 12de BFE0     		b	.L447
 2914              	.L73:
 2915              		.loc 1 614 0
 2916 12e0 9DF82630 		ldrb	r3, [sp, #38]	@ zero_extendqisi2
 2917 12e4 002B     		cmp	r3, #0
 2918 12e6 40F0BD80 		bne	.L448
 2919              		.loc 1 615 0
 2920 12ea FFF7FEFF 		bl	e_i2cp_enable
 2921              		.loc 1 616 0
 2922 12ee 0C4B     		ldr	r3, .L499+40
 2923 12f0 0022     		movs	r2, #0
 2924 12f2 1A60     		str	r2, [r3]
 2925 12f4 26E0     		b	.L151
 2926              	.L500:
 2927 12f6 00BF     		.align	2
 2928              	.L499:
 2929 12f8 00000000 		.word	c1.13529
 2930 12fc 00000000 		.word	c2.13530
ARM GAS  C:\Users\Moi\AppData\Local\Temp\ccF5N8ze.s 			page 58


 2931 1300 00000000 		.word	positionl.13538
 2932 1304 00000000 		.word	positionr.13537
 2933 1308 00000000 		.word	n.13534
 2934 130c 00000000 		.word	i.13532
 2935 1310 00000000 		.word	buffer
 2936 1314 00000000 		.word	mod.13558
 2937 1318 00000000 		.word	reg.13559
 2938 131c 00000000 		.word	val.13560
 2939 1320 00000000 		.word	j.13533
 2940              	.L153:
 2941              		.loc 1 617 0
 2942 1324 00BF     		nop
 2943              	.L152:
 2944              		.loc 1 617 0 is_stmt 0 discriminator 1
 2945 1326 A44B     		ldr	r3, .L501
 2946 1328 1B68     		ldr	r3, [r3]
 2947 132a A44A     		ldr	r2, .L501+4
 2948 132c 1344     		add	r3, r3, r2
 2949 132e 1846     		mov	r0, r3
 2950 1330 FFF7FEFF 		bl	e_getchar_uart1
 2951 1334 0346     		mov	r3, r0
 2952 1336 002B     		cmp	r3, #0
 2953 1338 F5D0     		beq	.L152
 2954              		.loc 1 616 0 is_stmt 1 discriminator 2
 2955 133a 9F4B     		ldr	r3, .L501
 2956 133c 1B68     		ldr	r3, [r3]
 2957 133e 0133     		adds	r3, r3, #1
 2958 1340 9D4A     		ldr	r2, .L501
 2959 1342 1360     		str	r3, [r2]
 2960              	.L151:
 2961              		.loc 1 616 0 is_stmt 0 discriminator 1
 2962 1344 9C4B     		ldr	r3, .L501
 2963 1346 1B68     		ldr	r3, [r3]
 2964 1348 172B     		cmp	r3, #23
 2965 134a EBDD     		ble	.L153
 2966              		.loc 1 619 0 is_stmt 1
 2967 134c 9A4B     		ldr	r3, .L501
 2968 134e 9222     		movs	r2, #146
 2969 1350 1A60     		str	r2, [r3]
 2970 1352 10E0     		b	.L154
 2971              	.L156:
 2972              		.loc 1 620 0
 2973 1354 00BF     		nop
 2974              	.L155:
 2975              		.loc 1 620 0 is_stmt 0 discriminator 1
 2976 1356 984B     		ldr	r3, .L501
 2977 1358 1B68     		ldr	r3, [r3]
 2978 135a 7A3B     		subs	r3, r3, #122
 2979 135c 974A     		ldr	r2, .L501+4
 2980 135e 1344     		add	r3, r3, r2
 2981 1360 1846     		mov	r0, r3
 2982 1362 FFF7FEFF 		bl	e_getchar_uart1
 2983 1366 0346     		mov	r3, r0
 2984 1368 002B     		cmp	r3, #0
 2985 136a F4D0     		beq	.L155
 2986              		.loc 1 619 0 is_stmt 1 discriminator 2
 2987 136c 924B     		ldr	r3, .L501
ARM GAS  C:\Users\Moi\AppData\Local\Temp\ccF5N8ze.s 			page 59


 2988 136e 1B68     		ldr	r3, [r3]
 2989 1370 0133     		adds	r3, r3, #1
 2990 1372 914A     		ldr	r2, .L501
 2991 1374 1360     		str	r3, [r2]
 2992              	.L154:
 2993              		.loc 1 619 0 is_stmt 0 discriminator 1
 2994 1376 904B     		ldr	r3, .L501
 2995 1378 1B68     		ldr	r3, [r3]
 2996 137a 942B     		cmp	r3, #148
 2997 137c EADD     		ble	.L156
 2998              		.loc 1 622 0 is_stmt 1
 2999 137e 8E4B     		ldr	r3, .L501
 3000 1380 A422     		movs	r2, #164
 3001 1382 1A60     		str	r2, [r3]
 3002 1384 10E0     		b	.L157
 3003              	.L159:
 3004              		.loc 1 623 0
 3005 1386 00BF     		nop
 3006              	.L158:
 3007              		.loc 1 623 0 is_stmt 0 discriminator 1
 3008 1388 8B4B     		ldr	r3, .L501
 3009 138a 1B68     		ldr	r3, [r3]
 3010 138c 893B     		subs	r3, r3, #137
 3011 138e 8B4A     		ldr	r2, .L501+4
 3012 1390 1344     		add	r3, r3, r2
 3013 1392 1846     		mov	r0, r3
 3014 1394 FFF7FEFF 		bl	e_getchar_uart1
 3015 1398 0346     		mov	r3, r0
 3016 139a 002B     		cmp	r3, #0
 3017 139c F4D0     		beq	.L158
 3018              		.loc 1 622 0 is_stmt 1 discriminator 2
 3019 139e 864B     		ldr	r3, .L501
 3020 13a0 1B68     		ldr	r3, [r3]
 3021 13a2 0133     		adds	r3, r3, #1
 3022 13a4 844A     		ldr	r2, .L501
 3023 13a6 1360     		str	r3, [r2]
 3024              	.L157:
 3025              		.loc 1 622 0 is_stmt 0 discriminator 1
 3026 13a8 834B     		ldr	r3, .L501
 3027 13aa 1B68     		ldr	r3, [r3]
 3028 13ac AB2B     		cmp	r3, #171
 3029 13ae EADD     		ble	.L159
 3030              		.loc 1 625 0 is_stmt 1
 3031 13b0 814B     		ldr	r3, .L501
 3032 13b2 0022     		movs	r2, #0
 3033 13b4 1A60     		str	r2, [r3]
 3034 13b6 0FE0     		b	.L160
 3035              	.L161:
 3036              		.loc 1 626 0 discriminator 3
 3037 13b8 7F4B     		ldr	r3, .L501
 3038 13ba 1B68     		ldr	r3, [r3]
 3039 13bc D9B2     		uxtb	r1, r3
 3040 13be 7E4B     		ldr	r3, .L501
 3041 13c0 1B68     		ldr	r3, [r3]
 3042 13c2 7E4A     		ldr	r2, .L501+4
 3043 13c4 D35C     		ldrb	r3, [r2, r3]	@ zero_extendqisi2
 3044 13c6 1A46     		mov	r2, r3
ARM GAS  C:\Users\Moi\AppData\Local\Temp\ccF5N8ze.s 			page 60


 3045 13c8 B020     		movs	r0, #176
 3046 13ca FFF7FEFF 		bl	e_i2cp_write
 3047              		.loc 1 625 0 discriminator 3
 3048 13ce 7A4B     		ldr	r3, .L501
 3049 13d0 1B68     		ldr	r3, [r3]
 3050 13d2 0133     		adds	r3, r3, #1
 3051 13d4 784A     		ldr	r2, .L501
 3052 13d6 1360     		str	r3, [r2]
 3053              	.L160:
 3054              		.loc 1 625 0 is_stmt 0 discriminator 1
 3055 13d8 774B     		ldr	r3, .L501
 3056 13da 1B68     		ldr	r3, [r3]
 3057 13dc 172B     		cmp	r3, #23
 3058 13de EBDD     		ble	.L161
 3059              		.loc 1 628 0 is_stmt 1
 3060 13e0 754B     		ldr	r3, .L501
 3061 13e2 9222     		movs	r2, #146
 3062 13e4 1A60     		str	r2, [r3]
 3063 13e6 10E0     		b	.L162
 3064              	.L163:
 3065              		.loc 1 629 0 discriminator 3
 3066 13e8 734B     		ldr	r3, .L501
 3067 13ea 1B68     		ldr	r3, [r3]
 3068 13ec D9B2     		uxtb	r1, r3
 3069 13ee 724B     		ldr	r3, .L501
 3070 13f0 1B68     		ldr	r3, [r3]
 3071 13f2 7A3B     		subs	r3, r3, #122
 3072 13f4 714A     		ldr	r2, .L501+4
 3073 13f6 D35C     		ldrb	r3, [r2, r3]	@ zero_extendqisi2
 3074 13f8 1A46     		mov	r2, r3
 3075 13fa B020     		movs	r0, #176
 3076 13fc FFF7FEFF 		bl	e_i2cp_write
 3077              		.loc 1 628 0 discriminator 3
 3078 1400 6D4B     		ldr	r3, .L501
 3079 1402 1B68     		ldr	r3, [r3]
 3080 1404 0133     		adds	r3, r3, #1
 3081 1406 6C4A     		ldr	r2, .L501
 3082 1408 1360     		str	r3, [r2]
 3083              	.L162:
 3084              		.loc 1 628 0 is_stmt 0 discriminator 1
 3085 140a 6B4B     		ldr	r3, .L501
 3086 140c 1B68     		ldr	r3, [r3]
 3087 140e 942B     		cmp	r3, #148
 3088 1410 EADD     		ble	.L163
 3089              		.loc 1 631 0 is_stmt 1
 3090 1412 694B     		ldr	r3, .L501
 3091 1414 A422     		movs	r2, #164
 3092 1416 1A60     		str	r2, [r3]
 3093 1418 10E0     		b	.L164
 3094              	.L165:
 3095              		.loc 1 632 0 discriminator 3
 3096 141a 674B     		ldr	r3, .L501
 3097 141c 1B68     		ldr	r3, [r3]
 3098 141e D9B2     		uxtb	r1, r3
 3099 1420 654B     		ldr	r3, .L501
 3100 1422 1B68     		ldr	r3, [r3]
 3101 1424 893B     		subs	r3, r3, #137
ARM GAS  C:\Users\Moi\AppData\Local\Temp\ccF5N8ze.s 			page 61


 3102 1426 654A     		ldr	r2, .L501+4
 3103 1428 D35C     		ldrb	r3, [r2, r3]	@ zero_extendqisi2
 3104 142a 1A46     		mov	r2, r3
 3105 142c B020     		movs	r0, #176
 3106 142e FFF7FEFF 		bl	e_i2cp_write
 3107              		.loc 1 631 0 discriminator 3
 3108 1432 614B     		ldr	r3, .L501
 3109 1434 1B68     		ldr	r3, [r3]
 3110 1436 0133     		adds	r3, r3, #1
 3111 1438 5F4A     		ldr	r2, .L501
 3112 143a 1360     		str	r3, [r2]
 3113              	.L164:
 3114              		.loc 1 631 0 is_stmt 0 discriminator 1
 3115 143c 5E4B     		ldr	r3, .L501
 3116 143e 1B68     		ldr	r3, [r3]
 3117 1440 AB2B     		cmp	r3, #171
 3118 1442 EADD     		ble	.L165
 3119              		.loc 1 634 0 is_stmt 1
 3120 1444 0122     		movs	r2, #1
 3121 1446 9121     		movs	r1, #145
 3122 1448 B020     		movs	r0, #176
 3123 144a FFF7FEFF 		bl	e_i2cp_write
 3124              		.loc 1 635 0
 3125 144e FFF7FEFF 		bl	e_i2cp_disable
 3126              		.loc 1 637 0
 3127 1452 07E0     		b	.L448
 3128              	.L444:
 3129              		.loc 1 639 0
 3130 1454 00BF     		nop
 3131 1456 06E0     		b	.L80
 3132              	.L445:
 3133              		.loc 1 468 0
 3134 1458 00BF     		nop
 3135 145a 04E0     		b	.L80
 3136              	.L446:
 3137              		.loc 1 515 0
 3138 145c 00BF     		nop
 3139 145e 02E0     		b	.L80
 3140              	.L447:
 3141              		.loc 1 612 0
 3142 1460 00BF     		nop
 3143 1462 00E0     		b	.L80
 3144              	.L448:
 3145              		.loc 1 637 0
 3146 1464 00BF     		nop
 3147              	.L80:
 3148              		.loc 1 641 0
 3149 1466 9DF82630 		ldrb	r3, [sp, #38]	@ zero_extendqisi2
 3150 146a 002B     		cmp	r3, #0
 3151 146c 11D1     		bne	.L166
 3152              		.loc 1 643 0
 3153 146e 0B9B     		ldr	r3, [sp, #44]
 3154 1470 002B     		cmp	r3, #0
 3155 1472 07D0     		beq	.L486
 3156              		.loc 1 644 0
 3157 1474 00BF     		nop
 3158              	.L168:
ARM GAS  C:\Users\Moi\AppData\Local\Temp\ccF5N8ze.s 			page 62


 3159              		.loc 1 644 0 is_stmt 0 discriminator 1
 3160 1476 5248     		ldr	r0, .L501+8
 3161 1478 FFF7FEFF 		bl	e_getchar_uart1
 3162 147c 0346     		mov	r3, r0
 3163 147e 002B     		cmp	r3, #0
 3164 1480 F9D0     		beq	.L168
 3165 1482 06E0     		b	.L166
 3166              	.L486:
 3167              		.loc 1 646 0 is_stmt 1
 3168 1484 00BF     		nop
 3169              	.L169:
 3170              		.loc 1 646 0 is_stmt 0 discriminator 1
 3171 1486 4E48     		ldr	r0, .L501+8
 3172 1488 FFF7FEFF 		bl	e_getchar_uart2
 3173 148c 0346     		mov	r3, r0
 3174 148e 002B     		cmp	r3, #0
 3175 1490 F9D0     		beq	.L169
 3176              	.L166:
 3177              		.loc 1 648 0 is_stmt 1
 3178 1492 4B4B     		ldr	r3, .L501+8
 3179 1494 1B78     		ldrb	r3, [r3]	@ zero_extendqisi2
 3180 1496 002B     		cmp	r3, #0
 3181 1498 7EF4EEAF 		bne	.L170
 3182              		.loc 1 649 0
 3183 149c 494B     		ldr	r3, .L501+12
 3184 149e 1B68     		ldr	r3, [r3]
 3185 14a0 002B     		cmp	r3, #0
 3186 14a2 3EF465AE 		beq	.L441
 3187              		.loc 1 650 0
 3188 14a6 9DF82630 		ldrb	r3, [sp, #38]	@ zero_extendqisi2
 3189 14aa 002B     		cmp	r3, #0
 3190 14ac 15D1     		bne	.L172
 3191              		.loc 1 651 0
 3192 14ae 464B     		ldr	r3, .L501+16
 3193 14b0 1B78     		ldrb	r3, [r3]	@ zero_extendqisi2
 3194 14b2 002B     		cmp	r3, #0
 3195 14b4 11D0     		beq	.L172
 3196              		.loc 1 652 0
 3197 14b6 444B     		ldr	r3, .L501+16
 3198 14b8 0022     		movs	r2, #0
 3199 14ba 1A70     		strb	r2, [r3]
 3200              		.loc 1 653 0
 3201 14bc FFF7FEFF 		bl	e_poxxxx_wait_img_ready
 3202              		.loc 1 654 0
 3203 14c0 BDF82A30 		ldrh	r3, [sp, #42]
 3204 14c4 3D4A     		ldr	r2, .L501+4
 3205 14c6 9C18     		adds	r4, r3, r2
 3206 14c8 FFF7FEFF 		bl	dcmi_get_last_image_ptr
 3207 14cc 0146     		mov	r1, r0
 3208 14ce 3F4B     		ldr	r3, .L501+20
 3209 14d0 1B68     		ldr	r3, [r3]
 3210 14d2 1A46     		mov	r2, r3
 3211 14d4 2046     		mov	r0, r4
 3212 14d6 FFF7FEFF 		bl	memcpy
 3213              	.L172:
 3214              		.loc 1 658 0
 3215 14da 9DF82630 		ldrb	r3, [sp, #38]	@ zero_extendqisi2
ARM GAS  C:\Users\Moi\AppData\Local\Temp\ccF5N8ze.s 			page 63


 3216 14de 002B     		cmp	r3, #0
 3217 14e0 7EF446AE 		bne	.L441
 3218              		.loc 1 660 0
 3219 14e4 0B9B     		ldr	r3, [sp, #44]
 3220 14e6 002B     		cmp	r3, #0
 3221 14e8 0DD0     		beq	.L173
 3222              		.loc 1 661 0
 3223 14ea 364B     		ldr	r3, .L501+12
 3224 14ec 1B68     		ldr	r3, [r3]
 3225 14ee 1946     		mov	r1, r3
 3226 14f0 3248     		ldr	r0, .L501+4
 3227 14f2 FFF7FEFF 		bl	e_send_uart1_char
 3228              		.loc 1 662 0
 3229 14f6 00BF     		nop
 3230              	.L174:
 3231              		.loc 1 662 0 is_stmt 0 discriminator 1
 3232 14f8 FFF7FEFF 		bl	e_uart1_sending
 3233 14fc 0346     		mov	r3, r0
 3234 14fe 002B     		cmp	r3, #0
 3235 1500 FAD1     		bne	.L174
 3236 1502 FEF735BE 		b	.L441
 3237              	.L173:
 3238              		.loc 1 664 0 is_stmt 1
 3239 1506 2F4B     		ldr	r3, .L501+12
 3240 1508 1B68     		ldr	r3, [r3]
 3241 150a 1946     		mov	r1, r3
 3242 150c 2B48     		ldr	r0, .L501+4
 3243 150e FFF7FEFF 		bl	e_send_uart2_char
 3244              		.loc 1 665 0
 3245 1512 00BF     		nop
 3246              	.L175:
 3247              		.loc 1 665 0 is_stmt 0 discriminator 1
 3248 1514 FFF7FEFF 		bl	e_uart2_sending
 3249 1518 0346     		mov	r3, r0
 3250 151a 002B     		cmp	r3, #0
 3251 151c FAD1     		bne	.L175
 3252 151e FEF727BE 		b	.L441
 3253              	.L48:
 3254              		.loc 1 669 0 is_stmt 1
 3255 1522 274B     		ldr	r3, .L501+8
 3256 1524 1B78     		ldrb	r3, [r3]	@ zero_extendqisi2
 3257 1526 002B     		cmp	r3, #0
 3258 1528 01F00D84 		beq	.L449
 3259              		.loc 1 670 0
 3260 152c 9DF82630 		ldrb	r3, [sp, #38]	@ zero_extendqisi2
 3261 1530 002B     		cmp	r3, #0
 3262 1532 1AD1     		bne	.L176
 3263              		.loc 1 672 0
 3264 1534 0B9B     		ldr	r3, [sp, #44]
 3265 1536 002B     		cmp	r3, #0
 3266 1538 0FD0     		beq	.L180
 3267              		.loc 1 673 0
 3268 153a 02E0     		b	.L178
 3269              	.L179:
 3270              		.loc 1 673 0 is_stmt 0 discriminator 4
 3271 153c 2048     		ldr	r0, .L501+8
 3272 153e FFF7FEFF 		bl	e_getchar_uart1
ARM GAS  C:\Users\Moi\AppData\Local\Temp\ccF5N8ze.s 			page 64


 3273              	.L178:
 3274              		.loc 1 673 0 discriminator 1
 3275 1542 1F4B     		ldr	r3, .L501+8
 3276 1544 1B78     		ldrb	r3, [r3]	@ zero_extendqisi2
 3277 1546 0A2B     		cmp	r3, #10
 3278 1548 F8D0     		beq	.L179
 3279              		.loc 1 673 0 discriminator 3
 3280 154a 1D4B     		ldr	r3, .L501+8
 3281 154c 1B78     		ldrb	r3, [r3]	@ zero_extendqisi2
 3282 154e 0D2B     		cmp	r3, #13
 3283 1550 F4D0     		beq	.L179
 3284 1552 0AE0     		b	.L176
 3285              	.L181:
 3286              		.loc 1 675 0 is_stmt 1 discriminator 4
 3287 1554 1A48     		ldr	r0, .L501+8
 3288 1556 FFF7FEFF 		bl	e_getchar_uart2
 3289              	.L180:
 3290              		.loc 1 675 0 is_stmt 0 discriminator 1
 3291 155a 194B     		ldr	r3, .L501+8
 3292 155c 1B78     		ldrb	r3, [r3]	@ zero_extendqisi2
 3293 155e 0A2B     		cmp	r3, #10
 3294 1560 F8D0     		beq	.L181
 3295              		.loc 1 675 0 discriminator 3
 3296 1562 174B     		ldr	r3, .L501+8
 3297 1564 1B78     		ldrb	r3, [r3]	@ zero_extendqisi2
 3298 1566 0D2B     		cmp	r3, #13
 3299 1568 F4D0     		beq	.L181
 3300              	.L176:
 3301              		.loc 1 677 0 is_stmt 1
 3302 156a 154B     		ldr	r3, .L501+8
 3303 156c 1A78     		ldrb	r2, [r3]	@ zero_extendqisi2
 3304 156e 134B     		ldr	r3, .L501+4
 3305 1570 1A70     		strb	r2, [r3]
 3306              		.loc 1 678 0
 3307 1572 144B     		ldr	r3, .L501+12
 3308 1574 0122     		movs	r2, #1
 3309 1576 1A60     		str	r2, [r3]
 3310              		.loc 1 679 0
 3311 1578 9DF82630 		ldrb	r3, [sp, #38]	@ zero_extendqisi2
 3312 157c 002B     		cmp	r3, #0
 3313 157e 3ED1     		bne	.L182
 3314              		.loc 1 681 0
 3315 1580 0B9B     		ldr	r3, [sp, #44]
 3316 1582 002B     		cmp	r3, #0
 3317 1584 24D0     		beq	.L183
 3318              	.L185:
 3319              		.loc 1 682 0
 3320 1586 0E48     		ldr	r0, .L501+8
 3321 1588 FFF7FEFF 		bl	e_getchar_uart1
 3322 158c 0346     		mov	r3, r0
 3323 158e 002B     		cmp	r3, #0
 3324 1590 08D0     		beq	.L184
 3325              		.loc 1 682 0 is_stmt 0 discriminator 1
 3326 1592 0C4B     		ldr	r3, .L501+12
 3327 1594 1B68     		ldr	r3, [r3]
 3328 1596 5A1C     		adds	r2, r3, #1
 3329 1598 0A49     		ldr	r1, .L501+12
ARM GAS  C:\Users\Moi\AppData\Local\Temp\ccF5N8ze.s 			page 65


 3330 159a 0A60     		str	r2, [r1]
 3331 159c 084A     		ldr	r2, .L501+8
 3332 159e 1178     		ldrb	r1, [r2]	@ zero_extendqisi2
 3333 15a0 064A     		ldr	r2, .L501+4
 3334 15a2 D154     		strb	r1, [r2, r3]
 3335              	.L184:
 3336              		.loc 1 683 0 is_stmt 1
 3337 15a4 064B     		ldr	r3, .L501+8
 3338 15a6 1B78     		ldrb	r3, [r3]	@ zero_extendqisi2
 3339 15a8 0A2B     		cmp	r3, #10
 3340 15aa 28D0     		beq	.L182
 3341              		.loc 1 683 0 is_stmt 0 discriminator 1
 3342 15ac 044B     		ldr	r3, .L501+8
 3343 15ae 1B78     		ldrb	r3, [r3]	@ zero_extendqisi2
 3344 15b0 0D2B     		cmp	r3, #13
 3345 15b2 E8D1     		bne	.L185
 3346 15b4 23E0     		b	.L182
 3347              	.L502:
 3348 15b6 00BF     		.align	2
 3349              	.L501:
 3350 15b8 00000000 		.word	j.13533
 3351 15bc 00000000 		.word	buffer
 3352 15c0 00000000 		.word	c
 3353 15c4 00000000 		.word	i.13532
 3354 15c8 00000000 		.word	wait_cam.13531
 3355 15cc 00000000 		.word	cam_size.13552
 3356              	.L183:
 3357              		.loc 1 685 0 is_stmt 1
 3358 15d0 CA48     		ldr	r0, .L503
 3359 15d2 FFF7FEFF 		bl	e_getchar_uart2
 3360 15d6 0346     		mov	r3, r0
 3361 15d8 002B     		cmp	r3, #0
 3362 15da 08D0     		beq	.L186
 3363              		.loc 1 685 0 is_stmt 0 discriminator 1
 3364 15dc C84B     		ldr	r3, .L503+4
 3365 15de 1B68     		ldr	r3, [r3]
 3366 15e0 5A1C     		adds	r2, r3, #1
 3367 15e2 C749     		ldr	r1, .L503+4
 3368 15e4 0A60     		str	r2, [r1]
 3369 15e6 C54A     		ldr	r2, .L503
 3370 15e8 1178     		ldrb	r1, [r2]	@ zero_extendqisi2
 3371 15ea C64A     		ldr	r2, .L503+8
 3372 15ec D154     		strb	r1, [r2, r3]
 3373              	.L186:
 3374              		.loc 1 686 0 is_stmt 1
 3375 15ee C34B     		ldr	r3, .L503
 3376 15f0 1B78     		ldrb	r3, [r3]	@ zero_extendqisi2
 3377 15f2 0A2B     		cmp	r3, #10
 3378 15f4 03D0     		beq	.L182
 3379              		.loc 1 686 0 is_stmt 0 discriminator 1
 3380 15f6 C14B     		ldr	r3, .L503
 3381 15f8 1B78     		ldrb	r3, [r3]	@ zero_extendqisi2
 3382 15fa 0D2B     		cmp	r3, #13
 3383 15fc E8D1     		bne	.L183
 3384              	.L182:
 3385              		.loc 1 688 0 is_stmt 1
 3386 15fe C04B     		ldr	r3, .L503+4
ARM GAS  C:\Users\Moi\AppData\Local\Temp\ccF5N8ze.s 			page 66


 3387 1600 1B68     		ldr	r3, [r3]
 3388 1602 5A1C     		adds	r2, r3, #1
 3389 1604 BE49     		ldr	r1, .L503+4
 3390 1606 0A60     		str	r2, [r1]
 3391 1608 BE4A     		ldr	r2, .L503+8
 3392 160a 0021     		movs	r1, #0
 3393 160c D154     		strb	r1, [r2, r3]
 3394              		.loc 1 690 0
 3395 160e BD4B     		ldr	r3, .L503+8
 3396 1610 1B78     		ldrb	r3, [r3]	@ zero_extendqisi2
 3397 1612 622B     		cmp	r3, #98
 3398 1614 1CD0     		beq	.L187
 3399              		.loc 1 690 0 is_stmt 0 discriminator 1
 3400 1616 BB4B     		ldr	r3, .L503+8
 3401 1618 1B78     		ldrb	r3, [r3]	@ zero_extendqisi2
 3402 161a 672B     		cmp	r3, #103
 3403 161c 18D0     		beq	.L187
 3404              	.LBB2:
 3405              		.loc 1 691 0 is_stmt 1
 3406 161e B94B     		ldr	r3, .L503+8
 3407 1620 1B78     		ldrb	r3, [r3]
 3408 1622 8DF82930 		strb	r3, [sp, #41]
 3409 1626 FFF7FEFF 		bl	__locale_ctype_ptr
 3410 162a 0246     		mov	r2, r0
 3411 162c 9DF82930 		ldrb	r3, [sp, #41]	@ zero_extendqisi2
 3412 1630 0133     		adds	r3, r3, #1
 3413 1632 1344     		add	r3, r3, r2
 3414 1634 1B78     		ldrb	r3, [r3]	@ zero_extendqisi2
 3415 1636 03F00303 		and	r3, r3, #3
 3416 163a 022B     		cmp	r3, #2
 3417 163c 03D1     		bne	.L188
 3418              		.loc 1 691 0 is_stmt 0 discriminator 1
 3419 163e 9DF82930 		ldrb	r3, [sp, #41]	@ zero_extendqisi2
 3420 1642 203B     		subs	r3, r3, #32
 3421 1644 01E0     		b	.L189
 3422              	.L188:
 3423              		.loc 1 691 0 discriminator 2
 3424 1646 9DF82930 		ldrb	r3, [sp, #41]	@ zero_extendqisi2
 3425              	.L189:
 3426              	.LBE2:
 3427              		.loc 1 691 0 discriminator 4
 3428 164a DAB2     		uxtb	r2, r3
 3429 164c AD4B     		ldr	r3, .L503+8
 3430 164e 1A70     		strb	r2, [r3]
 3431              	.L187:
 3432              		.loc 1 693 0 is_stmt 1
 3433 1650 AC4B     		ldr	r3, .L503+8
 3434 1652 1B78     		ldrb	r3, [r3]	@ zero_extendqisi2
 3435 1654 413B     		subs	r3, r3, #65
 3436 1656 332B     		cmp	r3, #51
 3437 1658 01F25883 		bhi	.L190
 3438 165c 01A2     		adr	r2, .L192
 3439 165e 52F823F0 		ldr	pc, [r2, r3, lsl #2]
 3440 1662 00BF     		.p2align 2
 3441              	.L192:
 3442 1664 35170000 		.word	.L191+1
 3443 1668 2F180000 		.word	.L193+1
ARM GAS  C:\Users\Moi\AppData\Local\Temp\ccF5N8ze.s 			page 67


 3444 166c 83180000 		.word	.L194+1
 3445 1670 51190000 		.word	.L195+1
 3446 1674 B1190000 		.word	.L196+1
 3447 1678 111A0000 		.word	.L197+1
 3448 167c 651A0000 		.word	.L198+1
 3449 1680 611B0000 		.word	.L199+1
 3450 1684 C5200000 		.word	.L200+1
 3451 1688 3B210000 		.word	.L201+1
 3452 168c 29230000 		.word	.L202+1
 3453 1690 E9230000 		.word	.L203+1
 3454 1694 47240000 		.word	.L204+1
 3455 1698 03260000 		.word	.L205+1
 3456 169c A9260000 		.word	.L206+1
 3457 16a0 4F270000 		.word	.L207+1
 3458 16a4 AB270000 		.word	.L208+1
 3459 16a8 4D2D0000 		.word	.L450+1
 3460 16ac 37280000 		.word	.L210+1
 3461 16b0 87280000 		.word	.L211+1
 3462 16b4 C7290000 		.word	.L212+1
 3463 16b8 392A0000 		.word	.L213+1
 3464 16bc CB2A0000 		.word	.L214+1
 3465 16c0 0D2D0000 		.word	.L190+1
 3466 16c4 7B2B0000 		.word	.L215+1
 3467 16c8 712C0000 		.word	.L216+1
 3468 16cc 0D2D0000 		.word	.L190+1
 3469 16d0 0D2D0000 		.word	.L190+1
 3470 16d4 0D2D0000 		.word	.L190+1
 3471 16d8 0D2D0000 		.word	.L190+1
 3472 16dc 0D2D0000 		.word	.L190+1
 3473 16e0 0D2D0000 		.word	.L190+1
 3474 16e4 0D2D0000 		.word	.L190+1
 3475 16e8 C9170000 		.word	.L217+1
 3476 16ec 0D2D0000 		.word	.L190+1
 3477 16f0 0D2D0000 		.word	.L190+1
 3478 16f4 0D2D0000 		.word	.L190+1
 3479 16f8 0D2D0000 		.word	.L190+1
 3480 16fc D91A0000 		.word	.L218+1
 3481 1700 0D2D0000 		.word	.L190+1
 3482 1704 0D2D0000 		.word	.L190+1
 3483 1708 0D2D0000 		.word	.L190+1
 3484 170c 0D2D0000 		.word	.L190+1
 3485 1710 0D2D0000 		.word	.L190+1
 3486 1714 0D2D0000 		.word	.L190+1
 3487 1718 0D2D0000 		.word	.L190+1
 3488 171c 0D2D0000 		.word	.L190+1
 3489 1720 0D2D0000 		.word	.L190+1
 3490 1724 0D2D0000 		.word	.L190+1
 3491 1728 0D2D0000 		.word	.L190+1
 3492 172c 0D2D0000 		.word	.L190+1
 3493 1730 55290000 		.word	.L219+1
 3494              		.p2align 1
 3495              	.L191:
 3496              	.LBB3:
 3497              		.loc 1 695 0
 3498 1734 9DF82630 		ldrb	r3, [sp, #38]	@ zero_extendqisi2
 3499 1738 002B     		cmp	r3, #0
 3500 173a 16D1     		bne	.L220
ARM GAS  C:\Users\Moi\AppData\Local\Temp\ccF5N8ze.s 			page 68


 3501              		.loc 1 696 0
 3502 173c 0121     		movs	r1, #1
 3503 173e 0020     		movs	r0, #0
 3504 1740 FFF7FEFF 		bl	e_get_acc_filtered
 3505 1744 0446     		mov	r4, r0
 3506 1746 0121     		movs	r1, #1
 3507 1748 0120     		movs	r0, #1
 3508 174a FFF7FEFF 		bl	e_get_acc_filtered
 3509 174e 0546     		mov	r5, r0
 3510 1750 0121     		movs	r1, #1
 3511 1752 0220     		movs	r0, #2
 3512 1754 FFF7FEFF 		bl	e_get_acc_filtered
 3513 1758 0346     		mov	r3, r0
 3514 175a 0093     		str	r3, [sp]
 3515 175c 2B46     		mov	r3, r5
 3516 175e 2246     		mov	r2, r4
 3517 1760 6949     		ldr	r1, .L503+12
 3518 1762 6848     		ldr	r0, .L503+8
 3519 1764 FFF7FEFF 		bl	sprintf
 3520 1768 06E0     		b	.L221
 3521              	.L220:
 3522              		.loc 1 698 0
 3523 176a 664A     		ldr	r2, .L503+8
 3524 176c 674B     		ldr	r3, .L503+16
 3525 176e 03CB     		ldmia	r3!, {r0, r1}
 3526 1770 1060     		str	r0, [r2]	@ unaligned
 3527 1772 5160     		str	r1, [r2, #4]	@ unaligned
 3528 1774 1B88     		ldrh	r3, [r3]	@ unaligned
 3529 1776 1381     		strh	r3, [r2, #8]	@ unaligned
 3530              	.L221:
 3531              		.loc 1 700 0
 3532 1778 9DF82630 		ldrb	r3, [sp, #38]	@ zero_extendqisi2
 3533 177c 002B     		cmp	r3, #0
 3534 177e 41F0E882 		bne	.L451
 3535              		.loc 1 702 0
 3536 1782 0B9B     		ldr	r3, [sp, #44]
 3537 1784 002B     		cmp	r3, #0
 3538 1786 0FD0     		beq	.L223
 3539              		.loc 1 703 0
 3540 1788 5E48     		ldr	r0, .L503+8
 3541 178a FFF7FEFF 		bl	strlen
 3542 178e 0346     		mov	r3, r0
 3543 1790 1946     		mov	r1, r3
 3544 1792 5C48     		ldr	r0, .L503+8
 3545 1794 FFF7FEFF 		bl	e_send_uart1_char
 3546 1798 00BF     		nop
 3547              	.L224:
 3548              		.loc 1 703 0 is_stmt 0 discriminator 2
 3549 179a FFF7FEFF 		bl	e_uart1_sending
 3550 179e 0346     		mov	r3, r0
 3551 17a0 002B     		cmp	r3, #0
 3552 17a2 FAD1     		bne	.L224
 3553              		.loc 1 707 0 is_stmt 1
 3554 17a4 01F0D5BA 		b	.L451
 3555              	.L223:
 3556              		.loc 1 705 0
 3557 17a8 5648     		ldr	r0, .L503+8
ARM GAS  C:\Users\Moi\AppData\Local\Temp\ccF5N8ze.s 			page 69


 3558 17aa FFF7FEFF 		bl	strlen
 3559 17ae 0346     		mov	r3, r0
 3560 17b0 1946     		mov	r1, r3
 3561 17b2 5448     		ldr	r0, .L503+8
 3562 17b4 FFF7FEFF 		bl	e_send_uart2_char
 3563 17b8 00BF     		nop
 3564              	.L225:
 3565              		.loc 1 705 0 is_stmt 0 discriminator 2
 3566 17ba FFF7FEFF 		bl	e_uart2_sending
 3567 17be 0346     		mov	r3, r0
 3568 17c0 002B     		cmp	r3, #0
 3569 17c2 FAD1     		bne	.L225
 3570              		.loc 1 707 0 is_stmt 1
 3571 17c4 01F0C5BA 		b	.L451
 3572              	.L217:
 3573              		.loc 1 709 0
 3574 17c8 FFF7FEFF 		bl	getBatteryValueRaw
 3575 17cc 0446     		mov	r4, r0
 3576 17ce FFF7FEFF 		bl	getBatteryValuePercentage
 3577 17d2 0346     		mov	r3, r0
 3578 17d4 2246     		mov	r2, r4
 3579 17d6 4E49     		ldr	r1, .L503+20
 3580 17d8 4A48     		ldr	r0, .L503+8
 3581 17da FFF7FEFF 		bl	sprintf
 3582              		.loc 1 710 0
 3583 17de 9DF82630 		ldrb	r3, [sp, #38]	@ zero_extendqisi2
 3584 17e2 002B     		cmp	r3, #0
 3585 17e4 41F0B882 		bne	.L452
 3586              		.loc 1 712 0
 3587 17e8 0B9B     		ldr	r3, [sp, #44]
 3588 17ea 002B     		cmp	r3, #0
 3589 17ec 0FD0     		beq	.L227
 3590              		.loc 1 713 0
 3591 17ee 4548     		ldr	r0, .L503+8
 3592 17f0 FFF7FEFF 		bl	strlen
 3593 17f4 0346     		mov	r3, r0
 3594 17f6 1946     		mov	r1, r3
 3595 17f8 4248     		ldr	r0, .L503+8
 3596 17fa FFF7FEFF 		bl	e_send_uart1_char
 3597 17fe 00BF     		nop
 3598              	.L228:
 3599              		.loc 1 713 0 is_stmt 0 discriminator 2
 3600 1800 FFF7FEFF 		bl	e_uart1_sending
 3601 1804 0346     		mov	r3, r0
 3602 1806 002B     		cmp	r3, #0
 3603 1808 FAD1     		bne	.L228
 3604              		.loc 1 717 0 is_stmt 1
 3605 180a 01F0A5BA 		b	.L452
 3606              	.L227:
 3607              		.loc 1 715 0
 3608 180e 3D48     		ldr	r0, .L503+8
 3609 1810 FFF7FEFF 		bl	strlen
 3610 1814 0346     		mov	r3, r0
 3611 1816 1946     		mov	r1, r3
 3612 1818 3A48     		ldr	r0, .L503+8
 3613 181a FFF7FEFF 		bl	e_send_uart2_char
 3614 181e 00BF     		nop
ARM GAS  C:\Users\Moi\AppData\Local\Temp\ccF5N8ze.s 			page 70


 3615              	.L229:
 3616              		.loc 1 715 0 is_stmt 0 discriminator 2
 3617 1820 FFF7FEFF 		bl	e_uart2_sending
 3618 1824 0346     		mov	r3, r0
 3619 1826 002B     		cmp	r3, #0
 3620 1828 FAD1     		bne	.L229
 3621              		.loc 1 717 0 is_stmt 1
 3622 182a 01F095BA 		b	.L452
 3623              	.L193:
 3624              		.loc 1 719 0
 3625 182e 394A     		ldr	r2, .L503+24
 3626 1830 3949     		ldr	r1, .L503+28
 3627 1832 3448     		ldr	r0, .L503+8
 3628 1834 FFF7FEFF 		bl	sscanf
 3629              		.loc 1 720 0
 3630 1838 364B     		ldr	r3, .L503+24
 3631 183a 1B68     		ldr	r3, [r3]
 3632 183c 1846     		mov	r0, r3
 3633 183e FFF7FEFF 		bl	e_set_body_led
 3634              		.loc 1 721 0
 3635 1842 9DF82630 		ldrb	r3, [sp, #38]	@ zero_extendqisi2
 3636 1846 002B     		cmp	r3, #0
 3637 1848 41F08982 		bne	.L453
 3638              		.loc 1 723 0
 3639 184c 0B9B     		ldr	r3, [sp, #44]
 3640 184e 002B     		cmp	r3, #0
 3641 1850 0BD0     		beq	.L231
 3642              		.loc 1 724 0
 3643 1852 0321     		movs	r1, #3
 3644 1854 3148     		ldr	r0, .L503+32
 3645 1856 FFF7FEFF 		bl	e_send_uart1_char
 3646 185a 00BF     		nop
 3647              	.L232:
 3648              		.loc 1 724 0 is_stmt 0 discriminator 2
 3649 185c FFF7FEFF 		bl	e_uart1_sending
 3650 1860 0346     		mov	r3, r0
 3651 1862 002B     		cmp	r3, #0
 3652 1864 FAD1     		bne	.L232
 3653              		.loc 1 728 0 is_stmt 1
 3654 1866 01F07ABA 		b	.L453
 3655              	.L231:
 3656              		.loc 1 726 0
 3657 186a 0321     		movs	r1, #3
 3658 186c 2B48     		ldr	r0, .L503+32
 3659 186e FFF7FEFF 		bl	e_send_uart2_char
 3660 1872 00BF     		nop
 3661              	.L233:
 3662              		.loc 1 726 0 is_stmt 0 discriminator 2
 3663 1874 FFF7FEFF 		bl	e_uart2_sending
 3664 1878 0346     		mov	r3, r0
 3665 187a 002B     		cmp	r3, #0
 3666 187c FAD1     		bne	.L233
 3667              		.loc 1 728 0 is_stmt 1
 3668 187e 01F06EBA 		b	.L453
 3669              	.L194:
 3670              		.loc 1 730 0
 3671 1882 274B     		ldr	r3, .L503+36
ARM GAS  C:\Users\Moi\AppData\Local\Temp\ccF5N8ze.s 			page 71


 3672 1884 1B69     		ldr	r3, [r3, #16]
 3673 1886 5B0B     		lsrs	r3, r3, #13
 3674 1888 03F00102 		and	r2, r3, #1
 3675 188c 244B     		ldr	r3, .L503+36
 3676 188e 1B69     		ldr	r3, [r3, #16]
 3677 1890 DB0B     		lsrs	r3, r3, #15
 3678 1892 03F00101 		and	r1, r3, #1
 3679 1896 234B     		ldr	r3, .L503+40
 3680 1898 1B69     		ldr	r3, [r3, #16]
 3681 189a 1B09     		lsrs	r3, r3, #4
 3682 189c 03F00103 		and	r3, r3, #1
 3683 18a0 5B00     		lsls	r3, r3, #1
 3684 18a2 0B44     		add	r3, r3, r1
 3685 18a4 5900     		lsls	r1, r3, #1
 3686 18a6 1E4B     		ldr	r3, .L503+36
 3687 18a8 1B69     		ldr	r3, [r3, #16]
 3688 18aa 9B0B     		lsrs	r3, r3, #14
 3689 18ac 03F00103 		and	r3, r3, #1
 3690 18b0 0B44     		add	r3, r3, r1
 3691 18b2 5B00     		lsls	r3, r3, #1
 3692 18b4 1344     		add	r3, r3, r2
 3693 18b6 1A46     		mov	r2, r3
 3694 18b8 1B4B     		ldr	r3, .L503+44
 3695 18ba 1A60     		str	r2, [r3]
 3696              		.loc 1 731 0
 3697 18bc 1A4B     		ldr	r3, .L503+44
 3698 18be 1B68     		ldr	r3, [r3]
 3699 18c0 1A46     		mov	r2, r3
 3700 18c2 1A49     		ldr	r1, .L503+48
 3701 18c4 0F48     		ldr	r0, .L503+8
 3702 18c6 FFF7FEFF 		bl	sprintf
 3703              		.loc 1 732 0
 3704 18ca 9DF82630 		ldrb	r3, [sp, #38]	@ zero_extendqisi2
 3705 18ce 002B     		cmp	r3, #0
 3706 18d0 41F04882 		bne	.L454
 3707              		.loc 1 734 0
 3708 18d4 0B9B     		ldr	r3, [sp, #44]
 3709 18d6 002B     		cmp	r3, #0
 3710 18d8 2AD0     		beq	.L235
 3711              		.loc 1 735 0
 3712 18da 0A48     		ldr	r0, .L503+8
 3713 18dc FFF7FEFF 		bl	strlen
 3714 18e0 0346     		mov	r3, r0
 3715 18e2 1946     		mov	r1, r3
 3716 18e4 0748     		ldr	r0, .L503+8
 3717 18e6 FFF7FEFF 		bl	e_send_uart1_char
 3718 18ea 00BF     		nop
 3719              	.L236:
 3720              		.loc 1 735 0 is_stmt 0 discriminator 2
 3721 18ec FFF7FEFF 		bl	e_uart1_sending
 3722 18f0 0346     		mov	r3, r0
 3723 18f2 002B     		cmp	r3, #0
 3724 18f4 FAD1     		bne	.L236
 3725              		.loc 1 739 0 is_stmt 1
 3726 18f6 01F035BA 		b	.L454
 3727              	.L504:
 3728 18fa 00BF     		.align	2
ARM GAS  C:\Users\Moi\AppData\Local\Temp\ccF5N8ze.s 			page 72


 3729              	.L503:
 3730 18fc 00000000 		.word	c
 3731 1900 00000000 		.word	i.13532
 3732 1904 00000000 		.word	buffer
 3733 1908 5C000000 		.word	.LC1
 3734 190c 6C000000 		.word	.LC2
 3735 1910 78000000 		.word	.LC3
 3736 1914 00000000 		.word	LED_action.13540
 3737 1918 88000000 		.word	.LC4
 3738 191c 90000000 		.word	.LC5
 3739 1920 00080240 		.word	1073874944
 3740 1924 000C0240 		.word	1073875968
 3741 1928 00000000 		.word	selector
 3742 192c 94000000 		.word	.LC6
 3743              	.L235:
 3744              		.loc 1 737 0
 3745 1930 A748     		ldr	r0, .L505
 3746 1932 FFF7FEFF 		bl	strlen
 3747 1936 0346     		mov	r3, r0
 3748 1938 1946     		mov	r1, r3
 3749 193a A548     		ldr	r0, .L505
 3750 193c FFF7FEFF 		bl	e_send_uart2_char
 3751 1940 00BF     		nop
 3752              	.L237:
 3753              		.loc 1 737 0 is_stmt 0 discriminator 2
 3754 1942 FFF7FEFF 		bl	e_uart2_sending
 3755 1946 0346     		mov	r3, r0
 3756 1948 002B     		cmp	r3, #0
 3757 194a FAD1     		bne	.L237
 3758              		.loc 1 739 0 is_stmt 1
 3759 194c 01F00ABA 		b	.L454
 3760              	.L195:
 3761              		.loc 1 741 0
 3762 1950 A04B     		ldr	r3, .L505+4
 3763 1952 A14A     		ldr	r2, .L505+8
 3764 1954 A149     		ldr	r1, .L505+12
 3765 1956 9E48     		ldr	r0, .L505
 3766 1958 FFF7FEFF 		bl	sscanf
 3767              		.loc 1 742 0
 3768 195c 9E4B     		ldr	r3, .L505+8
 3769 195e 1B68     		ldr	r3, [r3]
 3770 1960 1846     		mov	r0, r3
 3771 1962 FFF7FEFF 		bl	e_set_speed_left
 3772              		.loc 1 743 0
 3773 1966 9B4B     		ldr	r3, .L505+4
 3774 1968 1B68     		ldr	r3, [r3]
 3775 196a 1846     		mov	r0, r3
 3776 196c FFF7FEFF 		bl	e_set_speed_right
 3777              		.loc 1 744 0
 3778 1970 9DF82630 		ldrb	r3, [sp, #38]	@ zero_extendqisi2
 3779 1974 002B     		cmp	r3, #0
 3780 1976 41F0F881 		bne	.L455
 3781              		.loc 1 746 0
 3782 197a 0B9B     		ldr	r3, [sp, #44]
 3783 197c 002B     		cmp	r3, #0
 3784 197e 0BD0     		beq	.L239
 3785              		.loc 1 747 0
ARM GAS  C:\Users\Moi\AppData\Local\Temp\ccF5N8ze.s 			page 73


 3786 1980 0321     		movs	r1, #3
 3787 1982 9748     		ldr	r0, .L505+16
 3788 1984 FFF7FEFF 		bl	e_send_uart1_char
 3789 1988 00BF     		nop
 3790              	.L240:
 3791              		.loc 1 747 0 is_stmt 0 discriminator 2
 3792 198a FFF7FEFF 		bl	e_uart1_sending
 3793 198e 0346     		mov	r3, r0
 3794 1990 002B     		cmp	r3, #0
 3795 1992 FAD1     		bne	.L240
 3796              		.loc 1 751 0 is_stmt 1
 3797 1994 01F0E9B9 		b	.L455
 3798              	.L239:
 3799              		.loc 1 749 0
 3800 1998 0321     		movs	r1, #3
 3801 199a 9148     		ldr	r0, .L505+16
 3802 199c FFF7FEFF 		bl	e_send_uart2_char
 3803 19a0 00BF     		nop
 3804              	.L241:
 3805              		.loc 1 749 0 is_stmt 0 discriminator 2
 3806 19a2 FFF7FEFF 		bl	e_uart2_sending
 3807 19a6 0346     		mov	r3, r0
 3808 19a8 002B     		cmp	r3, #0
 3809 19aa FAD1     		bne	.L241
 3810              		.loc 1 751 0 is_stmt 1
 3811 19ac 01F0DDB9 		b	.L455
 3812              	.L196:
 3813              		.loc 1 753 0
 3814 19b0 894B     		ldr	r3, .L505+8
 3815 19b2 1A68     		ldr	r2, [r3]
 3816 19b4 874B     		ldr	r3, .L505+4
 3817 19b6 1B68     		ldr	r3, [r3]
 3818 19b8 8A49     		ldr	r1, .L505+20
 3819 19ba 8548     		ldr	r0, .L505
 3820 19bc FFF7FEFF 		bl	sprintf
 3821              		.loc 1 754 0
 3822 19c0 9DF82630 		ldrb	r3, [sp, #38]	@ zero_extendqisi2
 3823 19c4 002B     		cmp	r3, #0
 3824 19c6 41F0D381 		bne	.L456
 3825              		.loc 1 756 0
 3826 19ca 0B9B     		ldr	r3, [sp, #44]
 3827 19cc 002B     		cmp	r3, #0
 3828 19ce 0FD0     		beq	.L243
 3829              		.loc 1 757 0
 3830 19d0 7F48     		ldr	r0, .L505
 3831 19d2 FFF7FEFF 		bl	strlen
 3832 19d6 0346     		mov	r3, r0
 3833 19d8 1946     		mov	r1, r3
 3834 19da 7D48     		ldr	r0, .L505
 3835 19dc FFF7FEFF 		bl	e_send_uart1_char
 3836 19e0 00BF     		nop
 3837              	.L244:
 3838              		.loc 1 757 0 is_stmt 0 discriminator 2
 3839 19e2 FFF7FEFF 		bl	e_uart1_sending
 3840 19e6 0346     		mov	r3, r0
 3841 19e8 002B     		cmp	r3, #0
 3842 19ea FAD1     		bne	.L244
ARM GAS  C:\Users\Moi\AppData\Local\Temp\ccF5N8ze.s 			page 74


 3843              		.loc 1 761 0 is_stmt 1
 3844 19ec 01F0C0B9 		b	.L456
 3845              	.L243:
 3846              		.loc 1 759 0
 3847 19f0 7748     		ldr	r0, .L505
 3848 19f2 FFF7FEFF 		bl	strlen
 3849 19f6 0346     		mov	r3, r0
 3850 19f8 1946     		mov	r1, r3
 3851 19fa 7548     		ldr	r0, .L505
 3852 19fc FFF7FEFF 		bl	e_send_uart2_char
 3853 1a00 00BF     		nop
 3854              	.L245:
 3855              		.loc 1 759 0 is_stmt 0 discriminator 2
 3856 1a02 FFF7FEFF 		bl	e_uart2_sending
 3857 1a06 0346     		mov	r3, r0
 3858 1a08 002B     		cmp	r3, #0
 3859 1a0a FAD1     		bne	.L245
 3860              		.loc 1 761 0 is_stmt 1
 3861 1a0c 01F0B0B9 		b	.L456
 3862              	.L197:
 3863              		.loc 1 763 0
 3864 1a10 754A     		ldr	r2, .L505+24
 3865 1a12 7649     		ldr	r1, .L505+28
 3866 1a14 6E48     		ldr	r0, .L505
 3867 1a16 FFF7FEFF 		bl	sscanf
 3868              		.loc 1 764 0
 3869 1a1a 734B     		ldr	r3, .L505+24
 3870 1a1c 1B68     		ldr	r3, [r3]
 3871 1a1e 1846     		mov	r0, r3
 3872 1a20 FFF7FEFF 		bl	e_set_front_led
 3873              		.loc 1 765 0
 3874 1a24 9DF82630 		ldrb	r3, [sp, #38]	@ zero_extendqisi2
 3875 1a28 002B     		cmp	r3, #0
 3876 1a2a 41F0A481 		bne	.L457
 3877              		.loc 1 767 0
 3878 1a2e 0B9B     		ldr	r3, [sp, #44]
 3879 1a30 002B     		cmp	r3, #0
 3880 1a32 0BD0     		beq	.L247
 3881              		.loc 1 768 0
 3882 1a34 0321     		movs	r1, #3
 3883 1a36 6E48     		ldr	r0, .L505+32
 3884 1a38 FFF7FEFF 		bl	e_send_uart1_char
 3885 1a3c 00BF     		nop
 3886              	.L248:
 3887              		.loc 1 768 0 is_stmt 0 discriminator 2
 3888 1a3e FFF7FEFF 		bl	e_uart1_sending
 3889 1a42 0346     		mov	r3, r0
 3890 1a44 002B     		cmp	r3, #0
 3891 1a46 FAD1     		bne	.L248
 3892              		.loc 1 772 0 is_stmt 1
 3893 1a48 01F095B9 		b	.L457
 3894              	.L247:
 3895              		.loc 1 770 0
 3896 1a4c 0321     		movs	r1, #3
 3897 1a4e 6848     		ldr	r0, .L505+32
 3898 1a50 FFF7FEFF 		bl	e_send_uart2_char
 3899 1a54 00BF     		nop
ARM GAS  C:\Users\Moi\AppData\Local\Temp\ccF5N8ze.s 			page 75


 3900              	.L249:
 3901              		.loc 1 770 0 is_stmt 0 discriminator 2
 3902 1a56 FFF7FEFF 		bl	e_uart2_sending
 3903 1a5a 0346     		mov	r3, r0
 3904 1a5c 002B     		cmp	r3, #0
 3905 1a5e FAD1     		bne	.L249
 3906              		.loc 1 772 0 is_stmt 1
 3907 1a60 01F089B9 		b	.L457
 3908              	.L198:
 3909              		.loc 1 775 0
 3910 1a64 FFF7FEFF 		bl	e_get_check
 3911 1a68 0346     		mov	r3, r0
 3912 1a6a 1C46     		mov	r4, r3
 3913 1a6c FFF7FEFF 		bl	e_get_address
 3914 1a70 0346     		mov	r3, r0
 3915 1a72 1D46     		mov	r5, r3
 3916 1a74 FFF7FEFF 		bl	e_get_data
 3917 1a78 0346     		mov	r3, r0
 3918 1a7a 0093     		str	r3, [sp]
 3919 1a7c 2B46     		mov	r3, r5
 3920 1a7e 2246     		mov	r2, r4
 3921 1a80 5C49     		ldr	r1, .L505+36
 3922 1a82 5348     		ldr	r0, .L505
 3923 1a84 FFF7FEFF 		bl	sprintf
 3924              		.loc 1 776 0
 3925 1a88 9DF82630 		ldrb	r3, [sp, #38]	@ zero_extendqisi2
 3926 1a8c 002B     		cmp	r3, #0
 3927 1a8e 41F07581 		bne	.L458
 3928              		.loc 1 778 0
 3929 1a92 0B9B     		ldr	r3, [sp, #44]
 3930 1a94 002B     		cmp	r3, #0
 3931 1a96 0FD0     		beq	.L251
 3932              		.loc 1 779 0
 3933 1a98 4D48     		ldr	r0, .L505
 3934 1a9a FFF7FEFF 		bl	strlen
 3935 1a9e 0346     		mov	r3, r0
 3936 1aa0 1946     		mov	r1, r3
 3937 1aa2 4B48     		ldr	r0, .L505
 3938 1aa4 FFF7FEFF 		bl	e_send_uart1_char
 3939 1aa8 00BF     		nop
 3940              	.L252:
 3941              		.loc 1 779 0 is_stmt 0 discriminator 2
 3942 1aaa FFF7FEFF 		bl	e_uart1_sending
 3943 1aae 0346     		mov	r3, r0
 3944 1ab0 002B     		cmp	r3, #0
 3945 1ab2 FAD1     		bne	.L252
 3946              		.loc 1 783 0 is_stmt 1
 3947 1ab4 01F062B9 		b	.L458
 3948              	.L251:
 3949              		.loc 1 781 0
 3950 1ab8 4548     		ldr	r0, .L505
 3951 1aba FFF7FEFF 		bl	strlen
 3952 1abe 0346     		mov	r3, r0
 3953 1ac0 1946     		mov	r1, r3
 3954 1ac2 4348     		ldr	r0, .L505
 3955 1ac4 FFF7FEFF 		bl	e_send_uart2_char
 3956 1ac8 00BF     		nop
ARM GAS  C:\Users\Moi\AppData\Local\Temp\ccF5N8ze.s 			page 76


 3957              	.L253:
 3958              		.loc 1 781 0 is_stmt 0 discriminator 2
 3959 1aca FFF7FEFF 		bl	e_uart2_sending
 3960 1ace 0346     		mov	r3, r0
 3961 1ad0 002B     		cmp	r3, #0
 3962 1ad2 FAD1     		bne	.L253
 3963              		.loc 1 783 0 is_stmt 1
 3964 1ad4 01F052B9 		b	.L458
 3965              	.L218:
 3966              		.loc 1 786 0
 3967 1ad8 9DF82630 		ldrb	r3, [sp, #38]	@ zero_extendqisi2
 3968 1adc 002B     		cmp	r3, #0
 3969 1ade 10D1     		bne	.L254
 3970              		.loc 1 787 0
 3971 1ae0 FFF7FEFF 		bl	getXAxisGyro
 3972 1ae4 0446     		mov	r4, r0
 3973 1ae6 FFF7FEFF 		bl	getYAxisGyro
 3974 1aea 0546     		mov	r5, r0
 3975 1aec FFF7FEFF 		bl	getZAxisGyro
 3976 1af0 0346     		mov	r3, r0
 3977 1af2 0093     		str	r3, [sp]
 3978 1af4 2B46     		mov	r3, r5
 3979 1af6 2246     		mov	r2, r4
 3980 1af8 3F49     		ldr	r1, .L505+40
 3981 1afa 3548     		ldr	r0, .L505
 3982 1afc FFF7FEFF 		bl	sprintf
 3983 1b00 06E0     		b	.L255
 3984              	.L254:
 3985              		.loc 1 789 0
 3986 1b02 334A     		ldr	r2, .L505
 3987 1b04 3D4B     		ldr	r3, .L505+44
 3988 1b06 03CB     		ldmia	r3!, {r0, r1}
 3989 1b08 1060     		str	r0, [r2]	@ unaligned
 3990 1b0a 5160     		str	r1, [r2, #4]	@ unaligned
 3991 1b0c 1B88     		ldrh	r3, [r3]	@ unaligned
 3992 1b0e 1381     		strh	r3, [r2, #8]	@ unaligned
 3993              	.L255:
 3994              		.loc 1 791 0
 3995 1b10 9DF82630 		ldrb	r3, [sp, #38]	@ zero_extendqisi2
 3996 1b14 002B     		cmp	r3, #0
 3997 1b16 41F03481 		bne	.L459
 3998              		.loc 1 793 0
 3999 1b1a 0B9B     		ldr	r3, [sp, #44]
 4000 1b1c 002B     		cmp	r3, #0
 4001 1b1e 0FD0     		beq	.L257
 4002              		.loc 1 794 0
 4003 1b20 2B48     		ldr	r0, .L505
 4004 1b22 FFF7FEFF 		bl	strlen
 4005 1b26 0346     		mov	r3, r0
 4006 1b28 1946     		mov	r1, r3
 4007 1b2a 2948     		ldr	r0, .L505
 4008 1b2c FFF7FEFF 		bl	e_send_uart1_char
 4009 1b30 00BF     		nop
 4010              	.L258:
 4011              		.loc 1 794 0 is_stmt 0 discriminator 2
 4012 1b32 FFF7FEFF 		bl	e_uart1_sending
 4013 1b36 0346     		mov	r3, r0
ARM GAS  C:\Users\Moi\AppData\Local\Temp\ccF5N8ze.s 			page 77


 4014 1b38 002B     		cmp	r3, #0
 4015 1b3a FAD1     		bne	.L258
 4016              		.loc 1 798 0 is_stmt 1
 4017 1b3c 01F021B9 		b	.L459
 4018              	.L257:
 4019              		.loc 1 796 0
 4020 1b40 2348     		ldr	r0, .L505
 4021 1b42 FFF7FEFF 		bl	strlen
 4022 1b46 0346     		mov	r3, r0
 4023 1b48 1946     		mov	r1, r3
 4024 1b4a 2148     		ldr	r0, .L505
 4025 1b4c FFF7FEFF 		bl	e_send_uart2_char
 4026 1b50 00BF     		nop
 4027              	.L259:
 4028              		.loc 1 796 0 is_stmt 0 discriminator 2
 4029 1b52 FFF7FEFF 		bl	e_uart2_sending
 4030 1b56 0346     		mov	r3, r0
 4031 1b58 002B     		cmp	r3, #0
 4032 1b5a FAD1     		bne	.L259
 4033              		.loc 1 798 0 is_stmt 1
 4034 1b5c 01F011B9 		b	.L459
 4035              	.L199:
 4036              		.loc 1 801 0
 4037 1b60 9DF82630 		ldrb	r3, [sp, #38]	@ zero_extendqisi2
 4038 1b64 002B     		cmp	r3, #0
 4039 1b66 41F00F81 		bne	.L460
 4040              		.loc 1 839 0
 4041 1b6a 0B9B     		ldr	r3, [sp, #44]
 4042 1b6c 002B     		cmp	r3, #0
 4043 1b6e 00F05581 		beq	.L261
 4044              		.loc 1 840 0
 4045 1b72 0121     		movs	r1, #1
 4046 1b74 2248     		ldr	r0, .L505+48
 4047 1b76 FFF7FEFF 		bl	e_send_uart1_char
 4048 1b7a 00BF     		nop
 4049              	.L262:
 4050              		.loc 1 840 0 is_stmt 0 discriminator 2
 4051 1b7c FFF7FEFF 		bl	e_uart1_sending
 4052 1b80 0346     		mov	r3, r0
 4053 1b82 002B     		cmp	r3, #0
 4054 1b84 FAD1     		bne	.L262
 4055              		.loc 1 841 0 is_stmt 1
 4056 1b86 2121     		movs	r1, #33
 4057 1b88 1E48     		ldr	r0, .L505+52
 4058 1b8a FFF7FEFF 		bl	e_send_uart1_char
 4059 1b8e 00BF     		nop
 4060              	.L263:
 4061              		.loc 1 841 0 is_stmt 0 discriminator 2
 4062 1b90 FFF7FEFF 		bl	e_uart1_sending
 4063 1b94 0346     		mov	r3, r0
 4064 1b96 002B     		cmp	r3, #0
 4065 1b98 FAD1     		bne	.L263
 4066              		.loc 1 842 0 is_stmt 1
 4067 1b9a 3121     		movs	r1, #49
 4068 1b9c 1A48     		ldr	r0, .L505+56
 4069 1b9e FFF7FEFF 		bl	e_send_uart1_char
 4070 1ba2 00BF     		nop
ARM GAS  C:\Users\Moi\AppData\Local\Temp\ccF5N8ze.s 			page 78


 4071              	.L264:
 4072              		.loc 1 842 0 is_stmt 0 discriminator 2
 4073 1ba4 FFF7FEFF 		bl	e_uart1_sending
 4074 1ba8 0346     		mov	r3, r0
 4075 1baa 002B     		cmp	r3, #0
 4076 1bac FAD1     		bne	.L264
 4077              		.loc 1 843 0 is_stmt 1
 4078 1bae FFF7FEFF 		bl	isEpuckVersion1_3
 4079 1bb2 0346     		mov	r3, r0
 4080 1bb4 002B     		cmp	r3, #0
 4081 1bb6 2BD0     		beq	.L265
 4082              		.loc 1 844 0
 4083 1bb8 2121     		movs	r1, #33
 4084 1bba 1448     		ldr	r0, .L505+60
 4085 1bbc FFF7FEFF 		bl	e_send_uart1_char
 4086 1bc0 00BF     		nop
 4087              	.L266:
 4088              		.loc 1 844 0 is_stmt 0 discriminator 2
 4089 1bc2 FFF7FEFF 		bl	e_uart1_sending
 4090 1bc6 0346     		mov	r3, r0
 4091 1bc8 002B     		cmp	r3, #0
 4092 1bca FAD1     		bne	.L266
 4093 1bcc 2AE0     		b	.L267
 4094              	.L506:
 4095 1bce 00BF     		.align	2
 4096              	.L505:
 4097 1bd0 00000000 		.word	buffer
 4098 1bd4 00000000 		.word	speedr.13535
 4099 1bd8 00000000 		.word	speedl.13536
 4100 1bdc 9C000000 		.word	.LC7
 4101 1be0 A8000000 		.word	.LC8
 4102 1be4 AC000000 		.word	.LC9
 4103 1be8 00000000 		.word	LED_action.13540
 4104 1bec B8000000 		.word	.LC10
 4105 1bf0 C0000000 		.word	.LC11
 4106 1bf4 C4000000 		.word	.LC12
 4107 1bf8 F8000000 		.word	.LC13
 4108 1bfc 08010000 		.word	.LC14
 4109 1c00 14010000 		.word	.LC15
 4110 1c04 18010000 		.word	.LC16
 4111 1c08 3C010000 		.word	.LC17
 4112 1c0c 70010000 		.word	.LC18
 4113              	.L265:
 4114              		.loc 1 846 0 is_stmt 1
 4115 1c10 2F21     		movs	r1, #47
 4116 1c12 9748     		ldr	r0, .L507
 4117 1c14 FFF7FEFF 		bl	e_send_uart1_char
 4118 1c18 00BF     		nop
 4119              	.L268:
 4120              		.loc 1 846 0 is_stmt 0 discriminator 2
 4121 1c1a FFF7FEFF 		bl	e_uart1_sending
 4122 1c1e 0346     		mov	r3, r0
 4123 1c20 002B     		cmp	r3, #0
 4124 1c22 FAD1     		bne	.L268
 4125              	.L267:
 4126              		.loc 1 848 0 is_stmt 1
 4127 1c24 2521     		movs	r1, #37
ARM GAS  C:\Users\Moi\AppData\Local\Temp\ccF5N8ze.s 			page 79


 4128 1c26 9348     		ldr	r0, .L507+4
 4129 1c28 FFF7FEFF 		bl	e_send_uart1_char
 4130 1c2c 00BF     		nop
 4131              	.L269:
 4132              		.loc 1 848 0 is_stmt 0 discriminator 2
 4133 1c2e FFF7FEFF 		bl	e_uart1_sending
 4134 1c32 0346     		mov	r3, r0
 4135 1c34 002B     		cmp	r3, #0
 4136 1c36 FAD1     		bne	.L269
 4137              		.loc 1 849 0 is_stmt 1
 4138 1c38 2E21     		movs	r1, #46
 4139 1c3a 8F48     		ldr	r0, .L507+8
 4140 1c3c FFF7FEFF 		bl	e_send_uart1_char
 4141 1c40 00BF     		nop
 4142              	.L270:
 4143              		.loc 1 849 0 is_stmt 0 discriminator 2
 4144 1c42 FFF7FEFF 		bl	e_uart1_sending
 4145 1c46 0346     		mov	r3, r0
 4146 1c48 002B     		cmp	r3, #0
 4147 1c4a FAD1     		bne	.L270
 4148              		.loc 1 850 0 is_stmt 1
 4149 1c4c 2E21     		movs	r1, #46
 4150 1c4e 8B48     		ldr	r0, .L507+12
 4151 1c50 FFF7FEFF 		bl	e_send_uart1_char
 4152 1c54 00BF     		nop
 4153              	.L271:
 4154              		.loc 1 850 0 is_stmt 0 discriminator 2
 4155 1c56 FFF7FEFF 		bl	e_uart1_sending
 4156 1c5a 0346     		mov	r3, r0
 4157 1c5c 002B     		cmp	r3, #0
 4158 1c5e FAD1     		bne	.L271
 4159              		.loc 1 851 0 is_stmt 1
 4160 1c60 3221     		movs	r1, #50
 4161 1c62 8748     		ldr	r0, .L507+16
 4162 1c64 FFF7FEFF 		bl	e_send_uart1_char
 4163 1c68 00BF     		nop
 4164              	.L272:
 4165              		.loc 1 851 0 is_stmt 0 discriminator 2
 4166 1c6a FFF7FEFF 		bl	e_uart1_sending
 4167 1c6e 0346     		mov	r3, r0
 4168 1c70 002B     		cmp	r3, #0
 4169 1c72 FAD1     		bne	.L272
 4170              		.loc 1 853 0 is_stmt 1
 4171 1c74 1F21     		movs	r1, #31
 4172 1c76 8348     		ldr	r0, .L507+20
 4173 1c78 FFF7FEFF 		bl	e_send_uart1_char
 4174 1c7c 00BF     		nop
 4175              	.L273:
 4176              		.loc 1 853 0 is_stmt 0 discriminator 2
 4177 1c7e FFF7FEFF 		bl	e_uart1_sending
 4178 1c82 0346     		mov	r3, r0
 4179 1c84 002B     		cmp	r3, #0
 4180 1c86 FAD1     		bne	.L273
 4181              		.loc 1 855 0 is_stmt 1
 4182 1c88 FFF7FEFF 		bl	isEpuckVersion1_3
 4183 1c8c 0346     		mov	r3, r0
 4184 1c8e 002B     		cmp	r3, #0
ARM GAS  C:\Users\Moi\AppData\Local\Temp\ccF5N8ze.s 			page 80


 4185 1c90 09D0     		beq	.L274
 4186              		.loc 1 856 0
 4187 1c92 1821     		movs	r1, #24
 4188 1c94 7C48     		ldr	r0, .L507+24
 4189 1c96 FFF7FEFF 		bl	e_send_uart1_char
 4190 1c9a 00BF     		nop
 4191              	.L275:
 4192              		.loc 1 856 0 is_stmt 0 discriminator 2
 4193 1c9c FFF7FEFF 		bl	e_uart1_sending
 4194 1ca0 0346     		mov	r3, r0
 4195 1ca2 002B     		cmp	r3, #0
 4196 1ca4 FAD1     		bne	.L275
 4197              	.L274:
 4198              		.loc 1 858 0 is_stmt 1
 4199 1ca6 1821     		movs	r1, #24
 4200 1ca8 7848     		ldr	r0, .L507+28
 4201 1caa FFF7FEFF 		bl	e_send_uart1_char
 4202 1cae 00BF     		nop
 4203              	.L276:
 4204              		.loc 1 858 0 is_stmt 0 discriminator 2
 4205 1cb0 FFF7FEFF 		bl	e_uart1_sending
 4206 1cb4 0346     		mov	r3, r0
 4207 1cb6 002B     		cmp	r3, #0
 4208 1cb8 FAD1     		bne	.L276
 4209              		.loc 1 859 0 is_stmt 1
 4210 1cba 2821     		movs	r1, #40
 4211 1cbc 7448     		ldr	r0, .L507+32
 4212 1cbe FFF7FEFF 		bl	e_send_uart1_char
 4213 1cc2 00BF     		nop
 4214              	.L277:
 4215              		.loc 1 859 0 is_stmt 0 discriminator 2
 4216 1cc4 FFF7FEFF 		bl	e_uart1_sending
 4217 1cc8 0346     		mov	r3, r0
 4218 1cca 002B     		cmp	r3, #0
 4219 1ccc FAD1     		bne	.L277
 4220              		.loc 1 860 0 is_stmt 1
 4221 1cce 4F21     		movs	r1, #79
 4222 1cd0 7048     		ldr	r0, .L507+36
 4223 1cd2 FFF7FEFF 		bl	e_send_uart1_char
 4224 1cd6 00BF     		nop
 4225              	.L278:
 4226              		.loc 1 860 0 is_stmt 0 discriminator 2
 4227 1cd8 FFF7FEFF 		bl	e_uart1_sending
 4228 1cdc 0346     		mov	r3, r0
 4229 1cde 002B     		cmp	r3, #0
 4230 1ce0 FAD1     		bne	.L278
 4231              		.loc 1 861 0 is_stmt 1
 4232 1ce2 2F21     		movs	r1, #47
 4233 1ce4 6C48     		ldr	r0, .L507+40
 4234 1ce6 FFF7FEFF 		bl	e_send_uart1_char
 4235 1cea 00BF     		nop
 4236              	.L279:
 4237              		.loc 1 861 0 is_stmt 0 discriminator 2
 4238 1cec FFF7FEFF 		bl	e_uart1_sending
 4239 1cf0 0346     		mov	r3, r0
 4240 1cf2 002B     		cmp	r3, #0
 4241 1cf4 FAD1     		bne	.L279
ARM GAS  C:\Users\Moi\AppData\Local\Temp\ccF5N8ze.s 			page 81


 4242              		.loc 1 862 0 is_stmt 1
 4243 1cf6 3321     		movs	r1, #51
 4244 1cf8 6848     		ldr	r0, .L507+44
 4245 1cfa FFF7FEFF 		bl	e_send_uart1_char
 4246 1cfe 00BF     		nop
 4247              	.L280:
 4248              		.loc 1 862 0 is_stmt 0 discriminator 2
 4249 1d00 FFF7FEFF 		bl	e_uart1_sending
 4250 1d04 0346     		mov	r3, r0
 4251 1d06 002B     		cmp	r3, #0
 4252 1d08 FAD1     		bne	.L280
 4253              		.loc 1 864 0 is_stmt 1
 4254 1d0a 2121     		movs	r1, #33
 4255 1d0c 6448     		ldr	r0, .L507+48
 4256 1d0e FFF7FEFF 		bl	e_send_uart1_char
 4257 1d12 00BF     		nop
 4258              	.L281:
 4259              		.loc 1 864 0 is_stmt 0 discriminator 2
 4260 1d14 FFF7FEFF 		bl	e_uart1_sending
 4261 1d18 0346     		mov	r3, r0
 4262 1d1a 002B     		cmp	r3, #0
 4263 1d1c FAD1     		bne	.L281
 4264              		.loc 1 866 0 is_stmt 1
 4265 1d1e 1D21     		movs	r1, #29
 4266 1d20 6048     		ldr	r0, .L507+52
 4267 1d22 FFF7FEFF 		bl	e_send_uart1_char
 4268 1d26 00BF     		nop
 4269              	.L282:
 4270              		.loc 1 866 0 is_stmt 0 discriminator 2
 4271 1d28 FFF7FEFF 		bl	e_uart1_sending
 4272 1d2c 0346     		mov	r3, r0
 4273 1d2e 002B     		cmp	r3, #0
 4274 1d30 FAD1     		bne	.L282
 4275              		.loc 1 867 0 is_stmt 1
 4276 1d32 2121     		movs	r1, #33
 4277 1d34 5C48     		ldr	r0, .L507+56
 4278 1d36 FFF7FEFF 		bl	e_send_uart1_char
 4279 1d3a 00BF     		nop
 4280              	.L283:
 4281              		.loc 1 867 0 is_stmt 0 discriminator 2
 4282 1d3c FFF7FEFF 		bl	e_uart1_sending
 4283 1d40 0346     		mov	r3, r0
 4284 1d42 002B     		cmp	r3, #0
 4285 1d44 FAD1     		bne	.L283
 4286              		.loc 1 868 0 is_stmt 1
 4287 1d46 3121     		movs	r1, #49
 4288 1d48 5848     		ldr	r0, .L507+60
 4289 1d4a FFF7FEFF 		bl	e_send_uart1_char
 4290 1d4e 00BF     		nop
 4291              	.L284:
 4292              		.loc 1 868 0 is_stmt 0 discriminator 2
 4293 1d50 FFF7FEFF 		bl	e_uart1_sending
 4294 1d54 0346     		mov	r3, r0
 4295 1d56 002B     		cmp	r3, #0
 4296 1d58 FAD1     		bne	.L284
 4297              		.loc 1 869 0 is_stmt 1
 4298 1d5a 3121     		movs	r1, #49
ARM GAS  C:\Users\Moi\AppData\Local\Temp\ccF5N8ze.s 			page 82


 4299 1d5c 5448     		ldr	r0, .L507+64
 4300 1d5e FFF7FEFF 		bl	e_send_uart1_char
 4301 1d62 00BF     		nop
 4302              	.L285:
 4303              		.loc 1 869 0 is_stmt 0 discriminator 2
 4304 1d64 FFF7FEFF 		bl	e_uart1_sending
 4305 1d68 0346     		mov	r3, r0
 4306 1d6a 002B     		cmp	r3, #0
 4307 1d6c FAD1     		bne	.L285
 4308              		.loc 1 870 0 is_stmt 1
 4309 1d6e 2021     		movs	r1, #32
 4310 1d70 5048     		ldr	r0, .L507+68
 4311 1d72 FFF7FEFF 		bl	e_send_uart1_char
 4312 1d76 00BF     		nop
 4313              	.L286:
 4314              		.loc 1 870 0 is_stmt 0 discriminator 2
 4315 1d78 FFF7FEFF 		bl	e_uart1_sending
 4316 1d7c 0346     		mov	r3, r0
 4317 1d7e 002B     		cmp	r3, #0
 4318 1d80 FAD1     		bne	.L286
 4319              		.loc 1 871 0 is_stmt 1
 4320 1d82 3121     		movs	r1, #49
 4321 1d84 4C48     		ldr	r0, .L507+72
 4322 1d86 FFF7FEFF 		bl	e_send_uart1_char
 4323 1d8a 00BF     		nop
 4324              	.L287:
 4325              		.loc 1 871 0 is_stmt 0 discriminator 2
 4326 1d8c FFF7FEFF 		bl	e_uart1_sending
 4327 1d90 0346     		mov	r3, r0
 4328 1d92 002B     		cmp	r3, #0
 4329 1d94 FAD1     		bne	.L287
 4330              		.loc 1 872 0 is_stmt 1
 4331 1d96 3221     		movs	r1, #50
 4332 1d98 4848     		ldr	r0, .L507+76
 4333 1d9a FFF7FEFF 		bl	e_send_uart1_char
 4334 1d9e 00BF     		nop
 4335              	.L288:
 4336              		.loc 1 872 0 is_stmt 0 discriminator 2
 4337 1da0 FFF7FEFF 		bl	e_uart1_sending
 4338 1da4 0346     		mov	r3, r0
 4339 1da6 002B     		cmp	r3, #0
 4340 1da8 FAD1     		bne	.L288
 4341              		.loc 1 873 0 is_stmt 1
 4342 1daa FFF7FEFF 		bl	isEpuckVersion1_3
 4343 1dae 0346     		mov	r3, r0
 4344 1db0 002B     		cmp	r3, #0
 4345 1db2 09D0     		beq	.L289
 4346              		.loc 1 874 0
 4347 1db4 1F21     		movs	r1, #31
 4348 1db6 4248     		ldr	r0, .L507+80
 4349 1db8 FFF7FEFF 		bl	e_send_uart1_char
 4350 1dbc 00BF     		nop
 4351              	.L290:
 4352              		.loc 1 874 0 is_stmt 0 discriminator 2
 4353 1dbe FFF7FEFF 		bl	e_uart1_sending
 4354 1dc2 0346     		mov	r3, r0
 4355 1dc4 002B     		cmp	r3, #0
ARM GAS  C:\Users\Moi\AppData\Local\Temp\ccF5N8ze.s 			page 83


 4356 1dc6 FAD1     		bne	.L290
 4357              	.L289:
 4358              		.loc 1 876 0 is_stmt 1
 4359 1dc8 2C21     		movs	r1, #44
 4360 1dca 3E48     		ldr	r0, .L507+84
 4361 1dcc FFF7FEFF 		bl	e_send_uart1_char
 4362 1dd0 00BF     		nop
 4363              	.L291:
 4364              		.loc 1 876 0 is_stmt 0 discriminator 2
 4365 1dd2 FFF7FEFF 		bl	e_uart1_sending
 4366 1dd6 0346     		mov	r3, r0
 4367 1dd8 002B     		cmp	r3, #0
 4368 1dda FAD1     		bne	.L291
 4369              		.loc 1 877 0 is_stmt 1
 4370 1ddc 2521     		movs	r1, #37
 4371 1dde 3A48     		ldr	r0, .L507+88
 4372 1de0 FFF7FEFF 		bl	e_send_uart1_char
 4373 1de4 00BF     		nop
 4374              	.L292:
 4375              		.loc 1 877 0 is_stmt 0 discriminator 2
 4376 1de6 FFF7FEFF 		bl	e_uart1_sending
 4377 1dea 0346     		mov	r3, r0
 4378 1dec 002B     		cmp	r3, #0
 4379 1dee FAD1     		bne	.L292
 4380              		.loc 1 878 0 is_stmt 1
 4381 1df0 2B21     		movs	r1, #43
 4382 1df2 3648     		ldr	r0, .L507+92
 4383 1df4 FFF7FEFF 		bl	e_send_uart1_char
 4384 1df8 00BF     		nop
 4385              	.L293:
 4386              		.loc 1 878 0 is_stmt 0 discriminator 2
 4387 1dfa FFF7FEFF 		bl	e_uart1_sending
 4388 1dfe 0346     		mov	r3, r0
 4389 1e00 002B     		cmp	r3, #0
 4390 1e02 FAD1     		bne	.L293
 4391              		.loc 1 879 0 is_stmt 1
 4392 1e04 2A21     		movs	r1, #42
 4393 1e06 3248     		ldr	r0, .L507+96
 4394 1e08 FFF7FEFF 		bl	e_send_uart1_char
 4395 1e0c 00BF     		nop
 4396              	.L294:
 4397              		.loc 1 879 0 is_stmt 0 discriminator 2
 4398 1e0e FFF7FEFF 		bl	e_uart1_sending
 4399 1e12 0346     		mov	r3, r0
 4400 1e14 002B     		cmp	r3, #0
 4401 1e16 FAD1     		bne	.L294
 4402              		.loc 1 918 0 is_stmt 1
 4403 1e18 00F0B6BF 		b	.L460
 4404              	.L261:
 4405              		.loc 1 881 0
 4406 1e1c 0121     		movs	r1, #1
 4407 1e1e 2D48     		ldr	r0, .L507+100
 4408 1e20 FFF7FEFF 		bl	e_send_uart2_char
 4409 1e24 00BF     		nop
 4410              	.L295:
 4411              		.loc 1 881 0 is_stmt 0 discriminator 2
 4412 1e26 FFF7FEFF 		bl	e_uart2_sending
ARM GAS  C:\Users\Moi\AppData\Local\Temp\ccF5N8ze.s 			page 84


 4413 1e2a 0346     		mov	r3, r0
 4414 1e2c 002B     		cmp	r3, #0
 4415 1e2e FAD1     		bne	.L295
 4416              		.loc 1 882 0 is_stmt 1
 4417 1e30 FFF7FEFF 		bl	isEpuckVersion1_3
 4418 1e34 0346     		mov	r3, r0
 4419 1e36 002B     		cmp	r3, #0
 4420 1e38 09D1     		bne	.L296
 4421              		.loc 1 883 0
 4422 1e3a 1921     		movs	r1, #25
 4423 1e3c 2648     		ldr	r0, .L507+104
 4424 1e3e FFF7FEFF 		bl	e_send_uart2_char
 4425 1e42 00BF     		nop
 4426              	.L297:
 4427              		.loc 1 883 0 is_stmt 0 discriminator 2
 4428 1e44 FFF7FEFF 		bl	e_uart2_sending
 4429 1e48 0346     		mov	r3, r0
 4430 1e4a 002B     		cmp	r3, #0
 4431 1e4c FAD1     		bne	.L297
 4432              	.L296:
 4433              		.loc 1 885 0 is_stmt 1
 4434 1e4e FFF7FEFF 		bl	isEpuckVersion1_3
 4435 1e52 0346     		mov	r3, r0
 4436 1e54 002B     		cmp	r3, #0
 4437 1e56 43D0     		beq	.L298
 4438              		.loc 1 886 0
 4439 1e58 1921     		movs	r1, #25
 4440 1e5a 2048     		ldr	r0, .L507+108
 4441 1e5c FFF7FEFF 		bl	e_send_uart2_char
 4442 1e60 00BF     		nop
 4443              	.L299:
 4444              		.loc 1 886 0 is_stmt 0 discriminator 2
 4445 1e62 FFF7FEFF 		bl	e_uart2_sending
 4446 1e66 0346     		mov	r3, r0
 4447 1e68 002B     		cmp	r3, #0
 4448 1e6a FAD1     		bne	.L299
 4449 1e6c 42E0     		b	.L300
 4450              	.L508:
 4451 1e6e 00BF     		.align	2
 4452              	.L507:
 4453 1e70 94010000 		.word	.LC19
 4454 1e74 C4010000 		.word	.LC20
 4455 1e78 EC010000 		.word	.LC21
 4456 1e7c 1C020000 		.word	.LC22
 4457 1e80 4C020000 		.word	.LC23
 4458 1e84 80020000 		.word	.LC24
 4459 1e88 A0020000 		.word	.LC25
 4460 1e8c BC020000 		.word	.LC26
 4461 1e90 D8020000 		.word	.LC27
 4462 1e94 04030000 		.word	.LC28
 4463 1e98 54030000 		.word	.LC29
 4464 1e9c 84030000 		.word	.LC30
 4465 1ea0 B8030000 		.word	.LC31
 4466 1ea4 DC030000 		.word	.LC32
 4467 1ea8 FC030000 		.word	.LC33
 4468 1eac 20040000 		.word	.LC34
 4469 1eb0 54040000 		.word	.LC35
ARM GAS  C:\Users\Moi\AppData\Local\Temp\ccF5N8ze.s 			page 85


 4470 1eb4 88040000 		.word	.LC36
 4471 1eb8 AC040000 		.word	.LC37
 4472 1ebc E0040000 		.word	.LC38
 4473 1ec0 14050000 		.word	.LC39
 4474 1ec4 34050000 		.word	.LC40
 4475 1ec8 64050000 		.word	.LC41
 4476 1ecc 8C050000 		.word	.LC42
 4477 1ed0 B8050000 		.word	.LC43
 4478 1ed4 14010000 		.word	.LC15
 4479 1ed8 E4050000 		.word	.LC44
 4480 1edc 00060000 		.word	.LC45
 4481              	.L298:
 4482              		.loc 1 888 0 is_stmt 1
 4483 1ee0 2721     		movs	r1, #39
 4484 1ee2 AA48     		ldr	r0, .L509
 4485 1ee4 FFF7FEFF 		bl	e_send_uart2_char
 4486 1ee8 00BF     		nop
 4487              	.L301:
 4488              		.loc 1 888 0 is_stmt 0 discriminator 2
 4489 1eea FFF7FEFF 		bl	e_uart2_sending
 4490 1eee 0346     		mov	r3, r0
 4491 1ef0 002B     		cmp	r3, #0
 4492 1ef2 FAD1     		bne	.L301
 4493              	.L300:
 4494              		.loc 1 890 0 is_stmt 1
 4495 1ef4 2B21     		movs	r1, #43
 4496 1ef6 A648     		ldr	r0, .L509+4
 4497 1ef8 FFF7FEFF 		bl	e_send_uart2_char
 4498 1efc 00BF     		nop
 4499              	.L302:
 4500              		.loc 1 890 0 is_stmt 0 discriminator 2
 4501 1efe FFF7FEFF 		bl	e_uart2_sending
 4502 1f02 0346     		mov	r3, r0
 4503 1f04 002B     		cmp	r3, #0
 4504 1f06 FAD1     		bne	.L302
 4505              		.loc 1 891 0 is_stmt 1
 4506 1f08 1D21     		movs	r1, #29
 4507 1f0a A248     		ldr	r0, .L509+8
 4508 1f0c FFF7FEFF 		bl	e_send_uart2_char
 4509 1f10 00BF     		nop
 4510              	.L303:
 4511              		.loc 1 891 0 is_stmt 0 discriminator 2
 4512 1f12 FFF7FEFF 		bl	e_uart2_sending
 4513 1f16 0346     		mov	r3, r0
 4514 1f18 002B     		cmp	r3, #0
 4515 1f1a FAD1     		bne	.L303
 4516              		.loc 1 892 0 is_stmt 1
 4517 1f1c 2621     		movs	r1, #38
 4518 1f1e 9E48     		ldr	r0, .L509+12
 4519 1f20 FFF7FEFF 		bl	e_send_uart2_char
 4520 1f24 00BF     		nop
 4521              	.L304:
 4522              		.loc 1 892 0 is_stmt 0 discriminator 2
 4523 1f26 FFF7FEFF 		bl	e_uart2_sending
 4524 1f2a 0346     		mov	r3, r0
 4525 1f2c 002B     		cmp	r3, #0
 4526 1f2e FAD1     		bne	.L304
ARM GAS  C:\Users\Moi\AppData\Local\Temp\ccF5N8ze.s 			page 86


 4527              		.loc 1 893 0 is_stmt 1
 4528 1f30 2621     		movs	r1, #38
 4529 1f32 9A48     		ldr	r0, .L509+16
 4530 1f34 FFF7FEFF 		bl	e_send_uart2_char
 4531 1f38 00BF     		nop
 4532              	.L305:
 4533              		.loc 1 893 0 is_stmt 0 discriminator 2
 4534 1f3a FFF7FEFF 		bl	e_uart2_sending
 4535 1f3e 0346     		mov	r3, r0
 4536 1f40 002B     		cmp	r3, #0
 4537 1f42 FAD1     		bne	.L305
 4538              		.loc 1 894 0 is_stmt 1
 4539 1f44 2C21     		movs	r1, #44
 4540 1f46 9648     		ldr	r0, .L509+20
 4541 1f48 FFF7FEFF 		bl	e_send_uart2_char
 4542 1f4c 00BF     		nop
 4543              	.L306:
 4544              		.loc 1 894 0 is_stmt 0 discriminator 2
 4545 1f4e FFF7FEFF 		bl	e_uart2_sending
 4546 1f52 0346     		mov	r3, r0
 4547 1f54 002B     		cmp	r3, #0
 4548 1f56 FAD1     		bne	.L306
 4549              		.loc 1 896 0 is_stmt 1
 4550 1f58 1721     		movs	r1, #23
 4551 1f5a 9248     		ldr	r0, .L509+24
 4552 1f5c FFF7FEFF 		bl	e_send_uart2_char
 4553 1f60 00BF     		nop
 4554              	.L307:
 4555              		.loc 1 896 0 is_stmt 0 discriminator 2
 4556 1f62 FFF7FEFF 		bl	e_uart2_sending
 4557 1f66 0346     		mov	r3, r0
 4558 1f68 002B     		cmp	r3, #0
 4559 1f6a FAD1     		bne	.L307
 4560              		.loc 1 898 0 is_stmt 1
 4561 1f6c 1021     		movs	r1, #16
 4562 1f6e 8E48     		ldr	r0, .L509+28
 4563 1f70 FFF7FEFF 		bl	e_send_uart2_char
 4564 1f74 00BF     		nop
 4565              	.L308:
 4566              		.loc 1 898 0 is_stmt 0 discriminator 2
 4567 1f76 FFF7FEFF 		bl	e_uart2_sending
 4568 1f7a 0346     		mov	r3, r0
 4569 1f7c 002B     		cmp	r3, #0
 4570 1f7e FAD1     		bne	.L308
 4571              		.loc 1 899 0 is_stmt 1
 4572 1f80 2221     		movs	r1, #34
 4573 1f82 8A48     		ldr	r0, .L509+32
 4574 1f84 FFF7FEFF 		bl	e_send_uart2_char
 4575 1f88 00BF     		nop
 4576              	.L309:
 4577              		.loc 1 899 0 is_stmt 0 discriminator 2
 4578 1f8a FFF7FEFF 		bl	e_uart2_sending
 4579 1f8e 0346     		mov	r3, r0
 4580 1f90 002B     		cmp	r3, #0
 4581 1f92 FAD1     		bne	.L309
 4582              		.loc 1 900 0 is_stmt 1
 4583 1f94 4D21     		movs	r1, #77
ARM GAS  C:\Users\Moi\AppData\Local\Temp\ccF5N8ze.s 			page 87


 4584 1f96 8648     		ldr	r0, .L509+36
 4585 1f98 FFF7FEFF 		bl	e_send_uart2_char
 4586 1f9c 00BF     		nop
 4587              	.L310:
 4588              		.loc 1 900 0 is_stmt 0 discriminator 2
 4589 1f9e FFF7FEFF 		bl	e_uart2_sending
 4590 1fa2 0346     		mov	r3, r0
 4591 1fa4 002B     		cmp	r3, #0
 4592 1fa6 FAD1     		bne	.L310
 4593              		.loc 1 901 0 is_stmt 1
 4594 1fa8 2721     		movs	r1, #39
 4595 1faa 8248     		ldr	r0, .L509+40
 4596 1fac FFF7FEFF 		bl	e_send_uart2_char
 4597 1fb0 00BF     		nop
 4598              	.L311:
 4599              		.loc 1 901 0 is_stmt 0 discriminator 2
 4600 1fb2 FFF7FEFF 		bl	e_uart2_sending
 4601 1fb6 0346     		mov	r3, r0
 4602 1fb8 002B     		cmp	r3, #0
 4603 1fba FAD1     		bne	.L311
 4604              		.loc 1 902 0 is_stmt 1
 4605 1fbc 2B21     		movs	r1, #43
 4606 1fbe 7E48     		ldr	r0, .L509+44
 4607 1fc0 FFF7FEFF 		bl	e_send_uart2_char
 4608 1fc4 00BF     		nop
 4609              	.L312:
 4610              		.loc 1 902 0 is_stmt 0 discriminator 2
 4611 1fc6 FFF7FEFF 		bl	e_uart2_sending
 4612 1fca 0346     		mov	r3, r0
 4613 1fcc 002B     		cmp	r3, #0
 4614 1fce FAD1     		bne	.L312
 4615              		.loc 1 904 0 is_stmt 1
 4616 1fd0 1921     		movs	r1, #25
 4617 1fd2 7A48     		ldr	r0, .L509+48
 4618 1fd4 FFF7FEFF 		bl	e_send_uart2_char
 4619 1fd8 00BF     		nop
 4620              	.L313:
 4621              		.loc 1 904 0 is_stmt 0 discriminator 2
 4622 1fda FFF7FEFF 		bl	e_uart2_sending
 4623 1fde 0346     		mov	r3, r0
 4624 1fe0 002B     		cmp	r3, #0
 4625 1fe2 FAD1     		bne	.L313
 4626              		.loc 1 906 0 is_stmt 1
 4627 1fe4 1521     		movs	r1, #21
 4628 1fe6 7648     		ldr	r0, .L509+52
 4629 1fe8 FFF7FEFF 		bl	e_send_uart2_char
 4630 1fec 00BF     		nop
 4631              	.L314:
 4632              		.loc 1 906 0 is_stmt 0 discriminator 2
 4633 1fee FFF7FEFF 		bl	e_uart2_sending
 4634 1ff2 0346     		mov	r3, r0
 4635 1ff4 002B     		cmp	r3, #0
 4636 1ff6 FAD1     		bne	.L314
 4637              		.loc 1 907 0 is_stmt 1
 4638 1ff8 1921     		movs	r1, #25
 4639 1ffa 7248     		ldr	r0, .L509+56
 4640 1ffc FFF7FEFF 		bl	e_send_uart2_char
ARM GAS  C:\Users\Moi\AppData\Local\Temp\ccF5N8ze.s 			page 88


 4641 2000 00BF     		nop
 4642              	.L315:
 4643              		.loc 1 907 0 is_stmt 0 discriminator 2
 4644 2002 FFF7FEFF 		bl	e_uart2_sending
 4645 2006 0346     		mov	r3, r0
 4646 2008 002B     		cmp	r3, #0
 4647 200a FAD1     		bne	.L315
 4648              		.loc 1 908 0 is_stmt 1
 4649 200c 2921     		movs	r1, #41
 4650 200e 6E48     		ldr	r0, .L509+60
 4651 2010 FFF7FEFF 		bl	e_send_uart2_char
 4652 2014 00BF     		nop
 4653              	.L316:
 4654              		.loc 1 908 0 is_stmt 0 discriminator 2
 4655 2016 FFF7FEFF 		bl	e_uart2_sending
 4656 201a 0346     		mov	r3, r0
 4657 201c 002B     		cmp	r3, #0
 4658 201e FAD1     		bne	.L316
 4659              		.loc 1 909 0 is_stmt 1
 4660 2020 2921     		movs	r1, #41
 4661 2022 6A48     		ldr	r0, .L509+64
 4662 2024 FFF7FEFF 		bl	e_send_uart2_char
 4663 2028 00BF     		nop
 4664              	.L317:
 4665              		.loc 1 909 0 is_stmt 0 discriminator 2
 4666 202a FFF7FEFF 		bl	e_uart2_sending
 4667 202e 0346     		mov	r3, r0
 4668 2030 002B     		cmp	r3, #0
 4669 2032 FAD1     		bne	.L317
 4670              		.loc 1 910 0 is_stmt 1
 4671 2034 1821     		movs	r1, #24
 4672 2036 6648     		ldr	r0, .L509+68
 4673 2038 FFF7FEFF 		bl	e_send_uart2_char
 4674 203c 00BF     		nop
 4675              	.L318:
 4676              		.loc 1 910 0 is_stmt 0 discriminator 2
 4677 203e FFF7FEFF 		bl	e_uart2_sending
 4678 2042 0346     		mov	r3, r0
 4679 2044 002B     		cmp	r3, #0
 4680 2046 FAD1     		bne	.L318
 4681              		.loc 1 911 0 is_stmt 1
 4682 2048 2921     		movs	r1, #41
 4683 204a 6248     		ldr	r0, .L509+72
 4684 204c FFF7FEFF 		bl	e_send_uart2_char
 4685 2050 00BF     		nop
 4686              	.L319:
 4687              		.loc 1 911 0 is_stmt 0 discriminator 2
 4688 2052 FFF7FEFF 		bl	e_uart2_sending
 4689 2056 0346     		mov	r3, r0
 4690 2058 002B     		cmp	r3, #0
 4691 205a FAD1     		bne	.L319
 4692              		.loc 1 912 0 is_stmt 1
 4693 205c 2C21     		movs	r1, #44
 4694 205e 5E48     		ldr	r0, .L509+76
 4695 2060 FFF7FEFF 		bl	e_send_uart2_char
 4696 2064 00BF     		nop
 4697              	.L320:
ARM GAS  C:\Users\Moi\AppData\Local\Temp\ccF5N8ze.s 			page 89


 4698              		.loc 1 912 0 is_stmt 0 discriminator 2
 4699 2066 FFF7FEFF 		bl	e_uart2_sending
 4700 206a 0346     		mov	r3, r0
 4701 206c 002B     		cmp	r3, #0
 4702 206e FAD1     		bne	.L320
 4703              		.loc 1 913 0 is_stmt 1
 4704 2070 2421     		movs	r1, #36
 4705 2072 5A48     		ldr	r0, .L509+80
 4706 2074 FFF7FEFF 		bl	e_send_uart2_char
 4707 2078 00BF     		nop
 4708              	.L321:
 4709              		.loc 1 913 0 is_stmt 0 discriminator 2
 4710 207a FFF7FEFF 		bl	e_uart2_sending
 4711 207e 0346     		mov	r3, r0
 4712 2080 002B     		cmp	r3, #0
 4713 2082 FAD1     		bne	.L321
 4714              		.loc 1 914 0 is_stmt 1
 4715 2084 1D21     		movs	r1, #29
 4716 2086 5648     		ldr	r0, .L509+84
 4717 2088 FFF7FEFF 		bl	e_send_uart2_char
 4718 208c 00BF     		nop
 4719              	.L322:
 4720              		.loc 1 914 0 is_stmt 0 discriminator 2
 4721 208e FFF7FEFF 		bl	e_uart2_sending
 4722 2092 0346     		mov	r3, r0
 4723 2094 002B     		cmp	r3, #0
 4724 2096 FAD1     		bne	.L322
 4725              		.loc 1 915 0 is_stmt 1
 4726 2098 2521     		movs	r1, #37
 4727 209a 5248     		ldr	r0, .L509+88
 4728 209c FFF7FEFF 		bl	e_send_uart2_char
 4729 20a0 00BF     		nop
 4730              	.L323:
 4731              		.loc 1 915 0 is_stmt 0 discriminator 2
 4732 20a2 FFF7FEFF 		bl	e_uart2_sending
 4733 20a6 0346     		mov	r3, r0
 4734 20a8 002B     		cmp	r3, #0
 4735 20aa FAD1     		bne	.L323
 4736              		.loc 1 916 0 is_stmt 1
 4737 20ac 2421     		movs	r1, #36
 4738 20ae 4E48     		ldr	r0, .L509+92
 4739 20b0 FFF7FEFF 		bl	e_send_uart2_char
 4740 20b4 00BF     		nop
 4741              	.L324:
 4742              		.loc 1 916 0 is_stmt 0 discriminator 2
 4743 20b6 FFF7FEFF 		bl	e_uart2_sending
 4744 20ba 0346     		mov	r3, r0
 4745 20bc 002B     		cmp	r3, #0
 4746 20be FAD1     		bne	.L324
 4747              		.loc 1 918 0 is_stmt 1
 4748 20c0 00F062BE 		b	.L460
 4749              	.L200:
 4750              		.loc 1 920 0
 4751 20c4 9DF82630 		ldrb	r3, [sp, #38]	@ zero_extendqisi2
 4752 20c8 002B     		cmp	r3, #0
 4753 20ca 40F06086 		bne	.L461
 4754              		.loc 1 921 0
ARM GAS  C:\Users\Moi\AppData\Local\Temp\ccF5N8ze.s 			page 90


 4755 20ce 474B     		ldr	r3, .L509+96
 4756 20d0 1868     		ldr	r0, [r3]
 4757 20d2 474B     		ldr	r3, .L509+100
 4758 20d4 1C68     		ldr	r4, [r3]
 4759 20d6 474B     		ldr	r3, .L509+104
 4760 20d8 1B68     		ldr	r3, [r3]
 4761 20da 474A     		ldr	r2, .L509+108
 4762 20dc 1268     		ldr	r2, [r2]
 4763 20de 4749     		ldr	r1, .L509+112
 4764 20e0 0968     		ldr	r1, [r1]
 4765 20e2 0291     		str	r1, [sp, #8]
 4766 20e4 0192     		str	r2, [sp, #4]
 4767 20e6 0093     		str	r3, [sp]
 4768 20e8 2346     		mov	r3, r4
 4769 20ea 0246     		mov	r2, r0
 4770 20ec 4449     		ldr	r1, .L509+116
 4771 20ee 4548     		ldr	r0, .L509+120
 4772 20f0 FFF7FEFF 		bl	sprintf
 4773              		.loc 1 922 0
 4774 20f4 0B9B     		ldr	r3, [sp, #44]
 4775 20f6 002B     		cmp	r3, #0
 4776 20f8 0FD0     		beq	.L326
 4777              		.loc 1 923 0
 4778 20fa 4248     		ldr	r0, .L509+120
 4779 20fc FFF7FEFF 		bl	strlen
 4780 2100 0346     		mov	r3, r0
 4781 2102 1946     		mov	r1, r3
 4782 2104 3F48     		ldr	r0, .L509+120
 4783 2106 FFF7FEFF 		bl	e_send_uart1_char
 4784 210a 00BF     		nop
 4785              	.L327:
 4786              		.loc 1 923 0 is_stmt 0 discriminator 2
 4787 210c FFF7FEFF 		bl	e_uart1_sending
 4788 2110 0346     		mov	r3, r0
 4789 2112 002B     		cmp	r3, #0
 4790 2114 FAD1     		bne	.L327
 4791              		.loc 1 928 0 is_stmt 1
 4792 2116 00F03ABE 		b	.L461
 4793              	.L326:
 4794              		.loc 1 925 0
 4795 211a 3A48     		ldr	r0, .L509+120
 4796 211c FFF7FEFF 		bl	strlen
 4797 2120 0346     		mov	r3, r0
 4798 2122 1946     		mov	r1, r3
 4799 2124 3748     		ldr	r0, .L509+120
 4800 2126 FFF7FEFF 		bl	e_send_uart2_char
 4801 212a 00BF     		nop
 4802              	.L328:
 4803              		.loc 1 925 0 is_stmt 0 discriminator 2
 4804 212c FFF7FEFF 		bl	e_uart2_sending
 4805 2130 0346     		mov	r3, r0
 4806 2132 002B     		cmp	r3, #0
 4807 2134 FAD1     		bne	.L328
 4808              		.loc 1 928 0 is_stmt 1
 4809 2136 00F02ABE 		b	.L461
 4810              	.L201:
 4811              		.loc 1 930 0
ARM GAS  C:\Users\Moi\AppData\Local\Temp\ccF5N8ze.s 			page 91


 4812 213a 9DF82630 		ldrb	r3, [sp, #38]	@ zero_extendqisi2
 4813 213e 002B     		cmp	r3, #0
 4814 2140 40F02886 		bne	.L462
 4815              		.loc 1 931 0
 4816 2144 304B     		ldr	r3, .L509+124
 4817 2146 4FF0FF32 		mov	r2, #-1
 4818 214a 1A60     		str	r2, [r3]
 4819              		.loc 1 932 0
 4820 214c 2F4B     		ldr	r3, .L509+128
 4821 214e 4FF0FF32 		mov	r2, #-1
 4822 2152 1A60     		str	r2, [r3]
 4823              		.loc 1 933 0
 4824 2154 2D4B     		ldr	r3, .L509+128
 4825 2156 0393     		str	r3, [sp, #12]
 4826 2158 2B4B     		ldr	r3, .L509+124
 4827 215a 0293     		str	r3, [sp, #8]
 4828 215c 264B     		ldr	r3, .L509+108
 4829 215e 0193     		str	r3, [sp, #4]
 4830 2160 244B     		ldr	r3, .L509+104
 4831 2162 0093     		str	r3, [sp]
 4832 2164 224B     		ldr	r3, .L509+100
 4833 2166 214A     		ldr	r2, .L509+96
 4834 2168 2949     		ldr	r1, .L509+132
 4835 216a 2648     		ldr	r0, .L509+120
 4836 216c FFF7FEFF 		bl	sscanf
 4837              		.loc 1 934 0
 4838 2170 1E4B     		ldr	r3, .L509+96
 4839 2172 1B68     		ldr	r3, [r3]
 4840 2174 002B     		cmp	r3, #0
 4841 2176 4DD1     		bne	.L330
 4842              		.loc 1 935 0
 4843 2178 1D4B     		ldr	r3, .L509+100
 4844 217a 1B68     		ldr	r3, [r3]
 4845 217c 1D4A     		ldr	r2, .L509+104
 4846 217e 1268     		ldr	r2, [r2]
 4847 2180 02FB03F3 		mul	r3, r2, r3
 4848 2184 1D4A     		ldr	r2, .L509+112
 4849 2186 1360     		str	r3, [r2]
 4850 2188 4DE0     		b	.L331
 4851              	.L510:
 4852 218a 00BF     		.align	2
 4853              	.L509:
 4854 218c 1C060000 		.word	.LC46
 4855 2190 44060000 		.word	.LC47
 4856 2194 70060000 		.word	.LC48
 4857 2198 90060000 		.word	.LC49
 4858 219c B8060000 		.word	.LC50
 4859 21a0 E0060000 		.word	.LC51
 4860 21a4 10070000 		.word	.LC52
 4861 21a8 28070000 		.word	.LC53
 4862 21ac 3C070000 		.word	.LC54
 4863 21b0 60070000 		.word	.LC55
 4864 21b4 B0070000 		.word	.LC56
 4865 21b8 D8070000 		.word	.LC57
 4866 21bc 04080000 		.word	.LC58
 4867 21c0 20080000 		.word	.LC59
 4868 21c4 38080000 		.word	.LC60
ARM GAS  C:\Users\Moi\AppData\Local\Temp\ccF5N8ze.s 			page 92


 4869 21c8 54080000 		.word	.LC61
 4870 21cc 80080000 		.word	.LC62
 4871 21d0 AC080000 		.word	.LC63
 4872 21d4 C8080000 		.word	.LC64
 4873 21d8 F4080000 		.word	.LC65
 4874 21dc 24090000 		.word	.LC66
 4875 21e0 4C090000 		.word	.LC67
 4876 21e4 6C090000 		.word	.LC68
 4877 21e8 94090000 		.word	.LC69
 4878 21ec 00000000 		.word	cam_mode.13548
 4879 21f0 00000000 		.word	cam_width.13549
 4880 21f4 00000000 		.word	cam_heigth.13550
 4881 21f8 00000000 		.word	cam_zoom.13551
 4882 21fc 00000000 		.word	cam_size.13552
 4883 2200 BC090000 		.word	.LC70
 4884 2204 00000000 		.word	buffer
 4885 2208 00000000 		.word	cam_x1.13553
 4886 220c 00000000 		.word	cam_y1.13554
 4887 2210 D0090000 		.word	.LC71
 4888              	.L330:
 4889              		.loc 1 937 0
 4890 2214 AA4B     		ldr	r3, .L511
 4891 2216 1B68     		ldr	r3, [r3]
 4892 2218 AA4A     		ldr	r2, .L511+4
 4893 221a 1268     		ldr	r2, [r2]
 4894 221c 02FB03F3 		mul	r3, r2, r3
 4895 2220 5B00     		lsls	r3, r3, #1
 4896 2222 A94A     		ldr	r2, .L511+8
 4897 2224 1360     		str	r3, [r2]
 4898              	.L331:
 4899              		.loc 1 938 0
 4900 2226 A84B     		ldr	r3, .L511+8
 4901 2228 1B68     		ldr	r3, [r3]
 4902 222a 41F22802 		movw	r2, #4136
 4903 222e 9342     		cmp	r3, r2
 4904 2230 11DD     		ble	.L332
 4905              		.loc 1 939 0
 4906 2232 A64B     		ldr	r3, .L511+12
 4907 2234 0122     		movs	r2, #1
 4908 2236 1A60     		str	r2, [r3]
 4909              		.loc 1 940 0
 4910 2238 A14B     		ldr	r3, .L511
 4911 223a 2822     		movs	r2, #40
 4912 223c 1A60     		str	r2, [r3]
 4913              		.loc 1 941 0
 4914 223e A14B     		ldr	r3, .L511+4
 4915 2240 2822     		movs	r2, #40
 4916 2242 1A60     		str	r2, [r3]
 4917              		.loc 1 942 0
 4918 2244 9E4B     		ldr	r3, .L511
 4919 2246 1B68     		ldr	r3, [r3]
 4920 2248 9E4A     		ldr	r2, .L511+4
 4921 224a 1268     		ldr	r2, [r2]
 4922 224c 02FB03F3 		mul	r3, r2, r3
 4923 2250 5B00     		lsls	r3, r3, #1
 4924 2252 9D4A     		ldr	r2, .L511+8
 4925 2254 1360     		str	r3, [r2]
ARM GAS  C:\Users\Moi\AppData\Local\Temp\ccF5N8ze.s 			page 93


 4926              	.L332:
 4927              		.loc 1 944 0
 4928 2256 FFF7FEFF 		bl	e_poxxxx_init_cam
 4929              		.loc 1 945 0
 4930 225a 9D4B     		ldr	r3, .L511+16
 4931 225c 1B68     		ldr	r3, [r3]
 4932 225e B3F1FF3F 		cmp	r3, #-1
 4933 2262 0DD1     		bne	.L333
 4934              		.loc 1 946 0
 4935 2264 964B     		ldr	r3, .L511
 4936 2266 1B68     		ldr	r3, [r3]
 4937 2268 9A4A     		ldr	r2, .L511+20
 4938 226a 1268     		ldr	r2, [r2]
 4939 226c 02FB03F3 		mul	r3, r2, r3
 4940 2270 C3F52073 		rsb	r3, r3, #640
 4941 2274 DA0F     		lsrs	r2, r3, #31
 4942 2276 1344     		add	r3, r3, r2
 4943 2278 5B10     		asrs	r3, r3, #1
 4944 227a 1A46     		mov	r2, r3
 4945 227c 944B     		ldr	r3, .L511+16
 4946 227e 1A60     		str	r2, [r3]
 4947              	.L333:
 4948              		.loc 1 948 0
 4949 2280 954B     		ldr	r3, .L511+24
 4950 2282 1B68     		ldr	r3, [r3]
 4951 2284 B3F1FF3F 		cmp	r3, #-1
 4952 2288 0DD1     		bne	.L334
 4953              		.loc 1 949 0
 4954 228a 8E4B     		ldr	r3, .L511+4
 4955 228c 1B68     		ldr	r3, [r3]
 4956 228e 914A     		ldr	r2, .L511+20
 4957 2290 1268     		ldr	r2, [r2]
 4958 2292 02FB03F3 		mul	r3, r2, r3
 4959 2296 C3F5F073 		rsb	r3, r3, #480
 4960 229a DA0F     		lsrs	r2, r3, #31
 4961 229c 1344     		add	r3, r3, r2
 4962 229e 5B10     		asrs	r3, r3, #1
 4963 22a0 1A46     		mov	r2, r3
 4964 22a2 8D4B     		ldr	r3, .L511+24
 4965 22a4 1A60     		str	r2, [r3]
 4966              	.L334:
 4967              		.loc 1 951 0
 4968 22a6 8A4B     		ldr	r3, .L511+16
 4969 22a8 1B68     		ldr	r3, [r3]
 4970 22aa 1846     		mov	r0, r3
 4971 22ac 8A4B     		ldr	r3, .L511+24
 4972 22ae 1B68     		ldr	r3, [r3]
 4973 22b0 1C46     		mov	r4, r3
 4974 22b2 834B     		ldr	r3, .L511
 4975 22b4 1B68     		ldr	r3, [r3]
 4976 22b6 874A     		ldr	r2, .L511+20
 4977 22b8 1268     		ldr	r2, [r2]
 4978 22ba 02FB03F3 		mul	r3, r2, r3
 4979 22be 1D46     		mov	r5, r3
 4980 22c0 804B     		ldr	r3, .L511+4
 4981 22c2 1B68     		ldr	r3, [r3]
 4982 22c4 834A     		ldr	r2, .L511+20
ARM GAS  C:\Users\Moi\AppData\Local\Temp\ccF5N8ze.s 			page 94


 4983 22c6 1268     		ldr	r2, [r2]
 4984 22c8 02FB03F3 		mul	r3, r2, r3
 4985 22cc 1E46     		mov	r6, r3
 4986 22ce 814B     		ldr	r3, .L511+20
 4987 22d0 1B68     		ldr	r3, [r3]
 4988 22d2 1A46     		mov	r2, r3
 4989 22d4 7F4B     		ldr	r3, .L511+20
 4990 22d6 1B68     		ldr	r3, [r3]
 4991 22d8 1946     		mov	r1, r3
 4992 22da 7C4B     		ldr	r3, .L511+12
 4993 22dc 1B68     		ldr	r3, [r3]
 4994 22de 0293     		str	r3, [sp, #8]
 4995 22e0 0191     		str	r1, [sp, #4]
 4996 22e2 0092     		str	r2, [sp]
 4997 22e4 3346     		mov	r3, r6
 4998 22e6 2A46     		mov	r2, r5
 4999 22e8 2146     		mov	r1, r4
 5000 22ea FFF7FEFF 		bl	e_poxxxx_config_cam
 5001              		.loc 1 952 0
 5002 22ee FFF7FEFF 		bl	e_poxxxx_write_cam_registers
 5003              		.loc 1 953 0
 5004 22f2 0B9B     		ldr	r3, [sp, #44]
 5005 22f4 002B     		cmp	r3, #0
 5006 22f6 0BD0     		beq	.L335
 5007              		.loc 1 954 0
 5008 22f8 0321     		movs	r1, #3
 5009 22fa 7848     		ldr	r0, .L511+28
 5010 22fc FFF7FEFF 		bl	e_send_uart1_char
 5011 2300 00BF     		nop
 5012              	.L336:
 5013              		.loc 1 954 0 is_stmt 0 discriminator 2
 5014 2302 FFF7FEFF 		bl	e_uart1_sending
 5015 2306 0346     		mov	r3, r0
 5016 2308 002B     		cmp	r3, #0
 5017 230a FAD1     		bne	.L336
 5018              		.loc 1 959 0 is_stmt 1
 5019 230c 00F042BD 		b	.L462
 5020              	.L335:
 5021              		.loc 1 956 0
 5022 2310 0321     		movs	r1, #3
 5023 2312 7248     		ldr	r0, .L511+28
 5024 2314 FFF7FEFF 		bl	e_send_uart2_char
 5025 2318 00BF     		nop
 5026              	.L337:
 5027              		.loc 1 956 0 is_stmt 0 discriminator 2
 5028 231a FFF7FEFF 		bl	e_uart2_sending
 5029 231e 0346     		mov	r3, r0
 5030 2320 002B     		cmp	r3, #0
 5031 2322 FAD1     		bne	.L337
 5032              		.loc 1 959 0 is_stmt 1
 5033 2324 00F036BD 		b	.L462
 5034              	.L202:
 5035              		.loc 1 961 0
 5036 2328 9DF82630 		ldrb	r3, [sp, #38]	@ zero_extendqisi2
 5037 232c 002B     		cmp	r3, #0
 5038 232e 17D1     		bne	.L338
 5039              		.loc 1 963 0
ARM GAS  C:\Users\Moi\AppData\Local\Temp\ccF5N8ze.s 			page 95


 5040 2330 0B9B     		ldr	r3, [sp, #44]
 5041 2332 002B     		cmp	r3, #0
 5042 2334 0AD0     		beq	.L339
 5043              		.loc 1 964 0
 5044 2336 3E21     		movs	r1, #62
 5045 2338 6948     		ldr	r0, .L511+32
 5046 233a FFF7FEFF 		bl	e_send_uart1_char
 5047 233e 00BF     		nop
 5048              	.L340:
 5049              		.loc 1 964 0 is_stmt 0 discriminator 2
 5050 2340 FFF7FEFF 		bl	e_uart1_sending
 5051 2344 0346     		mov	r3, r0
 5052 2346 002B     		cmp	r3, #0
 5053 2348 FAD1     		bne	.L340
 5054 234a 09E0     		b	.L338
 5055              	.L339:
 5056              		.loc 1 966 0 is_stmt 1
 5057 234c 3E21     		movs	r1, #62
 5058 234e 6448     		ldr	r0, .L511+32
 5059 2350 FFF7FEFF 		bl	e_send_uart2_char
 5060 2354 00BF     		nop
 5061              	.L341:
 5062              		.loc 1 966 0 is_stmt 0 discriminator 2
 5063 2356 FFF7FEFF 		bl	e_uart2_sending
 5064 235a 0346     		mov	r3, r0
 5065 235c 002B     		cmp	r3, #0
 5066 235e FAD1     		bne	.L341
 5067              	.L338:
 5068              		.loc 1 969 0 is_stmt 1
 5069 2360 0121     		movs	r1, #1
 5070 2362 0820     		movs	r0, #8
 5071 2364 FFF7FEFF 		bl	e_set_led
 5072              		.loc 1 970 0
 5073 2368 0023     		movs	r3, #0
 5074 236a 0C93     		str	r3, [sp, #48]
 5075 236c 02E0     		b	.L342
 5076              	.L343:
 5077              		.loc 1 970 0 is_stmt 0 discriminator 3
 5078 236e 0C9B     		ldr	r3, [sp, #48]
 5079 2370 0133     		adds	r3, r3, #1
 5080 2372 0C93     		str	r3, [sp, #48]
 5081              	.L342:
 5082              		.loc 1 970 0 discriminator 1
 5083 2374 0C9B     		ldr	r3, [sp, #48]
 5084 2376 5B4A     		ldr	r2, .L511+36
 5085 2378 9342     		cmp	r3, r2
 5086 237a F8DD     		ble	.L343
 5087              		.loc 1 971 0 is_stmt 1
 5088 237c 4FF4C870 		mov	r0, #400
 5089 2380 FFF7FEFF 		bl	chThdSleep
 5090              		.loc 1 972 0
 5091 2384 FFF7FEFF 		bl	e_led_clear
 5092              		.loc 1 973 0
 5093 2388 0023     		movs	r3, #0
 5094 238a 0C93     		str	r3, [sp, #48]
 5095 238c 02E0     		b	.L344
 5096              	.L345:
ARM GAS  C:\Users\Moi\AppData\Local\Temp\ccF5N8ze.s 			page 96


 5097              		.loc 1 973 0 is_stmt 0 discriminator 3
 5098 238e 0C9B     		ldr	r3, [sp, #48]
 5099 2390 0133     		adds	r3, r3, #1
 5100 2392 0C93     		str	r3, [sp, #48]
 5101              	.L344:
 5102              		.loc 1 973 0 discriminator 1
 5103 2394 0C9B     		ldr	r3, [sp, #48]
 5104 2396 42F20F72 		movw	r2, #9999
 5105 239a 9342     		cmp	r3, r2
 5106 239c F7DD     		ble	.L345
 5107              		.loc 1 974 0 is_stmt 1
 5108 239e 6420     		movs	r0, #100
 5109 23a0 FFF7FEFF 		bl	chThdSleep
 5110              		.loc 1 975 0
 5111 23a4 FFF7FEFF 		bl	e_calibrate_ir
 5112              		.loc 1 976 0
 5113 23a8 9DF82630 		ldrb	r3, [sp, #38]	@ zero_extendqisi2
 5114 23ac 002B     		cmp	r3, #0
 5115 23ae 40F0F484 		bne	.L463
 5116              		.loc 1 978 0
 5117 23b2 0B9B     		ldr	r3, [sp, #44]
 5118 23b4 002B     		cmp	r3, #0
 5119 23b6 0BD0     		beq	.L347
 5120              		.loc 1 979 0
 5121 23b8 1921     		movs	r1, #25
 5122 23ba 4B48     		ldr	r0, .L511+40
 5123 23bc FFF7FEFF 		bl	e_send_uart1_char
 5124 23c0 00BF     		nop
 5125              	.L348:
 5126              		.loc 1 979 0 is_stmt 0 discriminator 2
 5127 23c2 FFF7FEFF 		bl	e_uart1_sending
 5128 23c6 0346     		mov	r3, r0
 5129 23c8 002B     		cmp	r3, #0
 5130 23ca FAD1     		bne	.L348
 5131              		.loc 1 983 0 is_stmt 1
 5132 23cc 00F0E5BC 		b	.L463
 5133              	.L347:
 5134              		.loc 1 981 0
 5135 23d0 1921     		movs	r1, #25
 5136 23d2 4548     		ldr	r0, .L511+40
 5137 23d4 FFF7FEFF 		bl	e_send_uart2_char
 5138 23d8 00BF     		nop
 5139              	.L349:
 5140              		.loc 1 981 0 is_stmt 0 discriminator 2
 5141 23da FFF7FEFF 		bl	e_uart2_sending
 5142 23de 0346     		mov	r3, r0
 5143 23e0 002B     		cmp	r3, #0
 5144 23e2 FAD1     		bne	.L349
 5145              		.loc 1 983 0 is_stmt 1
 5146 23e4 00F0D9BC 		b	.L463
 5147              	.L203:
 5148              		.loc 1 985 0
 5149 23e8 404B     		ldr	r3, .L511+44
 5150 23ea 414A     		ldr	r2, .L511+48
 5151 23ec 4149     		ldr	r1, .L511+52
 5152 23ee 4248     		ldr	r0, .L511+56
 5153 23f0 FFF7FEFF 		bl	sscanf
ARM GAS  C:\Users\Moi\AppData\Local\Temp\ccF5N8ze.s 			page 97


 5154              		.loc 1 986 0
 5155 23f4 3E4B     		ldr	r3, .L511+48
 5156 23f6 1B68     		ldr	r3, [r3]
 5157 23f8 1A46     		mov	r2, r3
 5158 23fa 3C4B     		ldr	r3, .L511+44
 5159 23fc 1B68     		ldr	r3, [r3]
 5160 23fe 1946     		mov	r1, r3
 5161 2400 1046     		mov	r0, r2
 5162 2402 FFF7FEFF 		bl	e_set_led
 5163              		.loc 1 987 0
 5164 2406 9DF82630 		ldrb	r3, [sp, #38]	@ zero_extendqisi2
 5165 240a 002B     		cmp	r3, #0
 5166 240c 40F0C884 		bne	.L464
 5167              		.loc 1 989 0
 5168 2410 0B9B     		ldr	r3, [sp, #44]
 5169 2412 002B     		cmp	r3, #0
 5170 2414 0BD0     		beq	.L351
 5171              		.loc 1 990 0
 5172 2416 0321     		movs	r1, #3
 5173 2418 3848     		ldr	r0, .L511+60
 5174 241a FFF7FEFF 		bl	e_send_uart1_char
 5175 241e 00BF     		nop
 5176              	.L352:
 5177              		.loc 1 990 0 is_stmt 0 discriminator 2
 5178 2420 FFF7FEFF 		bl	e_uart1_sending
 5179 2424 0346     		mov	r3, r0
 5180 2426 002B     		cmp	r3, #0
 5181 2428 FAD1     		bne	.L352
 5182              		.loc 1 994 0 is_stmt 1
 5183 242a 00F0B9BC 		b	.L464
 5184              	.L351:
 5185              		.loc 1 992 0
 5186 242e 0321     		movs	r1, #3
 5187 2430 3248     		ldr	r0, .L511+60
 5188 2432 FFF7FEFF 		bl	e_send_uart2_char
 5189 2436 00BF     		nop
 5190              	.L353:
 5191              		.loc 1 992 0 is_stmt 0 discriminator 2
 5192 2438 FFF7FEFF 		bl	e_uart2_sending
 5193 243c 0346     		mov	r3, r0
 5194 243e 002B     		cmp	r3, #0
 5195 2440 FAD1     		bne	.L353
 5196              		.loc 1 994 0 is_stmt 1
 5197 2442 00F0ADBC 		b	.L464
 5198              	.L204:
 5199              		.loc 1 997 0
 5200 2446 9DF82630 		ldrb	r3, [sp, #38]	@ zero_extendqisi2
 5201 244a 002B     		cmp	r3, #0
 5202 244c 40F0AB84 		bne	.L465
 5203              		.loc 1 998 0
 5204 2450 FFF7FEFF 		bl	e_i2cp_enable
 5205              		.loc 1 999 0
 5206 2454 2A4B     		ldr	r3, .L511+64
 5207 2456 0022     		movs	r2, #0
 5208 2458 1A60     		str	r2, [r3]
 5209 245a 29E0     		b	.L355
 5210              	.L358:
ARM GAS  C:\Users\Moi\AppData\Local\Temp\ccF5N8ze.s 			page 98


 5211              		.loc 1 1000 0
 5212 245c 284B     		ldr	r3, .L511+64
 5213 245e 1B68     		ldr	r3, [r3]
 5214 2460 03F00103 		and	r3, r3, #1
 5215 2464 002B     		cmp	r3, #0
 5216 2466 0FD1     		bne	.L356
 5217              		.loc 1 1000 0 is_stmt 0 discriminator 1
 5218 2468 254B     		ldr	r3, .L511+64
 5219 246a 1B68     		ldr	r3, [r3]
 5220 246c DBB2     		uxtb	r3, r3
 5221 246e 0133     		adds	r3, r3, #1
 5222 2470 DAB2     		uxtb	r2, r3
 5223 2472 234B     		ldr	r3, .L511+64
 5224 2474 1C68     		ldr	r4, [r3]
 5225 2476 1146     		mov	r1, r2
 5226 2478 C020     		movs	r0, #192
 5227 247a FFF7FEFF 		bl	e_i2cp_read
 5228 247e 0346     		mov	r3, r0
 5229 2480 1A46     		mov	r2, r3
 5230 2482 1D4B     		ldr	r3, .L511+56
 5231 2484 1A55     		strb	r2, [r3, r4]
 5232 2486 0EE0     		b	.L357
 5233              	.L356:
 5234              		.loc 1 1001 0 is_stmt 1
 5235 2488 1D4B     		ldr	r3, .L511+64
 5236 248a 1B68     		ldr	r3, [r3]
 5237 248c DBB2     		uxtb	r3, r3
 5238 248e 013B     		subs	r3, r3, #1
 5239 2490 DAB2     		uxtb	r2, r3
 5240 2492 1B4B     		ldr	r3, .L511+64
 5241 2494 1C68     		ldr	r4, [r3]
 5242 2496 1146     		mov	r1, r2
 5243 2498 C020     		movs	r0, #192
 5244 249a FFF7FEFF 		bl	e_i2cp_read
 5245 249e 0346     		mov	r3, r0
 5246 24a0 1A46     		mov	r2, r3
 5247 24a2 154B     		ldr	r3, .L511+56
 5248 24a4 1A55     		strb	r2, [r3, r4]
 5249              	.L357:
 5250              		.loc 1 999 0 discriminator 2
 5251 24a6 164B     		ldr	r3, .L511+64
 5252 24a8 1B68     		ldr	r3, [r3]
 5253 24aa 0133     		adds	r3, r3, #1
 5254 24ac 144A     		ldr	r2, .L511+64
 5255 24ae 1360     		str	r3, [r2]
 5256              	.L355:
 5257              		.loc 1 999 0 is_stmt 0 discriminator 1
 5258 24b0 134B     		ldr	r3, .L511+64
 5259 24b2 1B68     		ldr	r3, [r3]
 5260 24b4 052B     		cmp	r3, #5
 5261 24b6 D1DD     		ble	.L358
 5262              		.loc 1 1004 0 is_stmt 1
 5263 24b8 114B     		ldr	r3, .L511+64
 5264 24ba 0D22     		movs	r2, #13
 5265 24bc 1A60     		str	r2, [r3]
 5266 24be 4DE0     		b	.L359
 5267              	.L512:
ARM GAS  C:\Users\Moi\AppData\Local\Temp\ccF5N8ze.s 			page 99


 5268              		.align	2
 5269              	.L511:
 5270 24c0 00000000 		.word	cam_width.13549
 5271 24c4 00000000 		.word	cam_heigth.13550
 5272 24c8 00000000 		.word	cam_size.13552
 5273 24cc 00000000 		.word	cam_mode.13548
 5274 24d0 00000000 		.word	cam_x1.13553
 5275 24d4 00000000 		.word	cam_zoom.13551
 5276 24d8 00000000 		.word	cam_y1.13554
 5277 24dc E8090000 		.word	.LC72
 5278 24e0 EC090000 		.word	.LC73
 5279 24e4 3F420F00 		.word	999999
 5280 24e8 2C0A0000 		.word	.LC74
 5281 24ec 00000000 		.word	LED_action.13540
 5282 24f0 00000000 		.word	LED_nbr.13539
 5283 24f4 480A0000 		.word	.LC75
 5284 24f8 00000000 		.word	buffer
 5285 24fc 540A0000 		.word	.LC76
 5286 2500 00000000 		.word	j.13533
 5287              	.L362:
 5288              		.loc 1 1005 0
 5289 2504 BA4B     		ldr	r3, .L513
 5290 2506 1B68     		ldr	r3, [r3]
 5291 2508 03F00103 		and	r3, r3, #1
 5292 250c 002B     		cmp	r3, #0
 5293 250e 10D1     		bne	.L360
 5294              		.loc 1 1005 0 is_stmt 0 discriminator 1
 5295 2510 B74B     		ldr	r3, .L513
 5296 2512 1B68     		ldr	r3, [r3]
 5297 2514 DBB2     		uxtb	r3, r3
 5298 2516 013B     		subs	r3, r3, #1
 5299 2518 DAB2     		uxtb	r2, r3
 5300 251a B54B     		ldr	r3, .L513
 5301 251c 1B68     		ldr	r3, [r3]
 5302 251e DC1F     		subs	r4, r3, #7
 5303 2520 1146     		mov	r1, r2
 5304 2522 C020     		movs	r0, #192
 5305 2524 FFF7FEFF 		bl	e_i2cp_read
 5306 2528 0346     		mov	r3, r0
 5307 252a 1A46     		mov	r2, r3
 5308 252c B14B     		ldr	r3, .L513+4
 5309 252e 1A55     		strb	r2, [r3, r4]
 5310 2530 0FE0     		b	.L361
 5311              	.L360:
 5312              		.loc 1 1006 0 is_stmt 1
 5313 2532 AF4B     		ldr	r3, .L513
 5314 2534 1B68     		ldr	r3, [r3]
 5315 2536 DBB2     		uxtb	r3, r3
 5316 2538 0133     		adds	r3, r3, #1
 5317 253a DAB2     		uxtb	r2, r3
 5318 253c AC4B     		ldr	r3, .L513
 5319 253e 1B68     		ldr	r3, [r3]
 5320 2540 DC1F     		subs	r4, r3, #7
 5321 2542 1146     		mov	r1, r2
 5322 2544 C020     		movs	r0, #192
 5323 2546 FFF7FEFF 		bl	e_i2cp_read
 5324 254a 0346     		mov	r3, r0
ARM GAS  C:\Users\Moi\AppData\Local\Temp\ccF5N8ze.s 			page 100


 5325 254c 1A46     		mov	r2, r3
 5326 254e A94B     		ldr	r3, .L513+4
 5327 2550 1A55     		strb	r2, [r3, r4]
 5328              	.L361:
 5329              		.loc 1 1004 0 discriminator 2
 5330 2552 A74B     		ldr	r3, .L513
 5331 2554 1B68     		ldr	r3, [r3]
 5332 2556 0133     		adds	r3, r3, #1
 5333 2558 A54A     		ldr	r2, .L513
 5334 255a 1360     		str	r3, [r2]
 5335              	.L359:
 5336              		.loc 1 1004 0 is_stmt 0 discriminator 1
 5337 255c A44B     		ldr	r3, .L513
 5338 255e 1B68     		ldr	r3, [r3]
 5339 2560 102B     		cmp	r3, #16
 5340 2562 CFDD     		ble	.L362
 5341              		.loc 1 1009 0 is_stmt 1
 5342 2564 FFF7FEFF 		bl	e_i2cp_disable
 5343              		.loc 1 1013 0
 5344 2568 A24B     		ldr	r3, .L513+4
 5345 256a 1B78     		ldrb	r3, [r3]	@ zero_extendqisi2
 5346 256c 1A46     		mov	r2, r3
 5347              		.loc 1 1014 0
 5348 256e A14B     		ldr	r3, .L513+4
 5349 2570 5B78     		ldrb	r3, [r3, #1]	@ zero_extendqisi2
 5350 2572 1B02     		lsls	r3, r3, #8
 5351              		.loc 1 1012 0
 5352 2574 D018     		adds	r0, r2, r3
 5353              		.loc 1 1015 0
 5354 2576 9F4B     		ldr	r3, .L513+4
 5355 2578 9B78     		ldrb	r3, [r3, #2]	@ zero_extendqisi2
 5356 257a 1A46     		mov	r2, r3
 5357              		.loc 1 1016 0
 5358 257c 9D4B     		ldr	r3, .L513+4
 5359 257e DB78     		ldrb	r3, [r3, #3]	@ zero_extendqisi2
 5360 2580 1B02     		lsls	r3, r3, #8
 5361              		.loc 1 1012 0
 5362 2582 D418     		adds	r4, r2, r3
 5363              		.loc 1 1017 0
 5364 2584 9B4B     		ldr	r3, .L513+4
 5365 2586 1B79     		ldrb	r3, [r3, #4]	@ zero_extendqisi2
 5366 2588 1A46     		mov	r2, r3
 5367              		.loc 1 1018 0
 5368 258a 9A4B     		ldr	r3, .L513+4
 5369 258c 5B79     		ldrb	r3, [r3, #5]	@ zero_extendqisi2
 5370 258e 1B02     		lsls	r3, r3, #8
 5371              		.loc 1 1012 0
 5372 2590 1344     		add	r3, r3, r2
 5373              		.loc 1 1019 0
 5374 2592 984A     		ldr	r2, .L513+4
 5375 2594 9279     		ldrb	r2, [r2, #6]	@ zero_extendqisi2
 5376 2596 1146     		mov	r1, r2
 5377              		.loc 1 1020 0
 5378 2598 964A     		ldr	r2, .L513+4
 5379 259a D279     		ldrb	r2, [r2, #7]	@ zero_extendqisi2
 5380 259c 1202     		lsls	r2, r2, #8
 5381              		.loc 1 1012 0
ARM GAS  C:\Users\Moi\AppData\Local\Temp\ccF5N8ze.s 			page 101


 5382 259e 0A44     		add	r2, r2, r1
 5383              		.loc 1 1021 0
 5384 25a0 9449     		ldr	r1, .L513+4
 5385 25a2 097A     		ldrb	r1, [r1, #8]	@ zero_extendqisi2
 5386 25a4 0D46     		mov	r5, r1
 5387              		.loc 1 1022 0
 5388 25a6 9349     		ldr	r1, .L513+4
 5389 25a8 497A     		ldrb	r1, [r1, #9]	@ zero_extendqisi2
 5390 25aa 0902     		lsls	r1, r1, #8
 5391              		.loc 1 1012 0
 5392 25ac 2944     		add	r1, r1, r5
 5393 25ae 0291     		str	r1, [sp, #8]
 5394 25b0 0192     		str	r2, [sp, #4]
 5395 25b2 0093     		str	r3, [sp]
 5396 25b4 2346     		mov	r3, r4
 5397 25b6 0246     		mov	r2, r0
 5398 25b8 8F49     		ldr	r1, .L513+8
 5399 25ba 8E48     		ldr	r0, .L513+4
 5400 25bc FFF7FEFF 		bl	sprintf
 5401              		.loc 1 1032 0
 5402 25c0 0B9B     		ldr	r3, [sp, #44]
 5403 25c2 002B     		cmp	r3, #0
 5404 25c4 0ED0     		beq	.L363
 5405              		.loc 1 1033 0
 5406 25c6 8B48     		ldr	r0, .L513+4
 5407 25c8 FFF7FEFF 		bl	strlen
 5408 25cc 0346     		mov	r3, r0
 5409 25ce 1946     		mov	r1, r3
 5410 25d0 8848     		ldr	r0, .L513+4
 5411 25d2 FFF7FEFF 		bl	e_send_uart1_char
 5412 25d6 00BF     		nop
 5413              	.L364:
 5414              		.loc 1 1033 0 is_stmt 0 discriminator 2
 5415 25d8 FFF7FEFF 		bl	e_uart1_sending
 5416 25dc 0346     		mov	r3, r0
 5417 25de 002B     		cmp	r3, #0
 5418 25e0 FAD1     		bne	.L364
 5419              		.loc 1 1047 0 is_stmt 1
 5420 25e2 E0E3     		b	.L465
 5421              	.L363:
 5422              		.loc 1 1035 0
 5423 25e4 8348     		ldr	r0, .L513+4
 5424 25e6 FFF7FEFF 		bl	strlen
 5425 25ea 0346     		mov	r3, r0
 5426 25ec 1946     		mov	r1, r3
 5427 25ee 8148     		ldr	r0, .L513+4
 5428 25f0 FFF7FEFF 		bl	e_send_uart2_char
 5429 25f4 00BF     		nop
 5430              	.L365:
 5431              		.loc 1 1035 0 is_stmt 0 discriminator 2
 5432 25f6 FFF7FEFF 		bl	e_uart2_sending
 5433 25fa 0346     		mov	r3, r0
 5434 25fc 002B     		cmp	r3, #0
 5435 25fe FAD1     		bne	.L365
 5436              		.loc 1 1047 0 is_stmt 1
 5437 2600 D1E3     		b	.L465
 5438              	.L205:
ARM GAS  C:\Users\Moi\AppData\Local\Temp\ccF5N8ze.s 			page 102


 5439              		.loc 1 1049 0
 5440 2602 0020     		movs	r0, #0
 5441 2604 FFF7FEFF 		bl	e_get_calibrated_prox
 5442 2608 8046     		mov	r8, r0
 5443 260a 0120     		movs	r0, #1
 5444 260c FFF7FEFF 		bl	e_get_calibrated_prox
 5445 2610 8146     		mov	r9, r0
 5446 2612 0220     		movs	r0, #2
 5447 2614 FFF7FEFF 		bl	e_get_calibrated_prox
 5448 2618 0446     		mov	r4, r0
 5449 261a 0320     		movs	r0, #3
 5450 261c FFF7FEFF 		bl	e_get_calibrated_prox
 5451 2620 0546     		mov	r5, r0
 5452 2622 0420     		movs	r0, #4
 5453 2624 FFF7FEFF 		bl	e_get_calibrated_prox
 5454 2628 0646     		mov	r6, r0
 5455 262a 0520     		movs	r0, #5
 5456 262c FFF7FEFF 		bl	e_get_calibrated_prox
 5457 2630 0746     		mov	r7, r0
 5458 2632 0620     		movs	r0, #6
 5459 2634 FFF7FEFF 		bl	e_get_calibrated_prox
 5460 2638 0790     		str	r0, [sp, #28]
 5461 263a 0720     		movs	r0, #7
 5462 263c FFF7FEFF 		bl	e_get_calibrated_prox
 5463 2640 0346     		mov	r3, r0
 5464 2642 0593     		str	r3, [sp, #20]
 5465 2644 079B     		ldr	r3, [sp, #28]
 5466 2646 0493     		str	r3, [sp, #16]
 5467 2648 0397     		str	r7, [sp, #12]
 5468 264a 0296     		str	r6, [sp, #8]
 5469 264c 0195     		str	r5, [sp, #4]
 5470 264e 0094     		str	r4, [sp]
 5471 2650 4B46     		mov	r3, r9
 5472 2652 4246     		mov	r2, r8
 5473 2654 6949     		ldr	r1, .L513+12
 5474 2656 6748     		ldr	r0, .L513+4
 5475 2658 FFF7FEFF 		bl	sprintf
 5476              		.loc 1 1052 0
 5477 265c 9DF82630 		ldrb	r3, [sp, #38]	@ zero_extendqisi2
 5478 2660 002B     		cmp	r3, #0
 5479 2662 40F0A383 		bne	.L466
 5480              		.loc 1 1054 0
 5481 2666 0B9B     		ldr	r3, [sp, #44]
 5482 2668 002B     		cmp	r3, #0
 5483 266a 0ED0     		beq	.L367
 5484              		.loc 1 1055 0
 5485 266c 6148     		ldr	r0, .L513+4
 5486 266e FFF7FEFF 		bl	strlen
 5487 2672 0346     		mov	r3, r0
 5488 2674 1946     		mov	r1, r3
 5489 2676 5F48     		ldr	r0, .L513+4
 5490 2678 FFF7FEFF 		bl	e_send_uart1_char
 5491 267c 00BF     		nop
 5492              	.L368:
 5493              		.loc 1 1055 0 is_stmt 0 discriminator 2
 5494 267e FFF7FEFF 		bl	e_uart1_sending
 5495 2682 0346     		mov	r3, r0
ARM GAS  C:\Users\Moi\AppData\Local\Temp\ccF5N8ze.s 			page 103


 5496 2684 002B     		cmp	r3, #0
 5497 2686 FAD1     		bne	.L368
 5498              		.loc 1 1059 0 is_stmt 1
 5499 2688 90E3     		b	.L466
 5500              	.L367:
 5501              		.loc 1 1057 0
 5502 268a 5A48     		ldr	r0, .L513+4
 5503 268c FFF7FEFF 		bl	strlen
 5504 2690 0346     		mov	r3, r0
 5505 2692 1946     		mov	r1, r3
 5506 2694 5748     		ldr	r0, .L513+4
 5507 2696 FFF7FEFF 		bl	e_send_uart2_char
 5508 269a 00BF     		nop
 5509              	.L369:
 5510              		.loc 1 1057 0 is_stmt 0 discriminator 2
 5511 269c FFF7FEFF 		bl	e_uart2_sending
 5512 26a0 0346     		mov	r3, r0
 5513 26a2 002B     		cmp	r3, #0
 5514 26a4 FAD1     		bne	.L369
 5515              		.loc 1 1059 0 is_stmt 1
 5516 26a6 81E3     		b	.L466
 5517              	.L206:
 5518              		.loc 1 1061 0
 5519 26a8 0020     		movs	r0, #0
 5520 26aa FFF7FEFF 		bl	e_get_ambient_light
 5521 26ae 8046     		mov	r8, r0
 5522 26b0 0120     		movs	r0, #1
 5523 26b2 FFF7FEFF 		bl	e_get_ambient_light
 5524 26b6 8146     		mov	r9, r0
 5525 26b8 0220     		movs	r0, #2
 5526 26ba FFF7FEFF 		bl	e_get_ambient_light
 5527 26be 0446     		mov	r4, r0
 5528 26c0 0320     		movs	r0, #3
 5529 26c2 FFF7FEFF 		bl	e_get_ambient_light
 5530 26c6 0546     		mov	r5, r0
 5531 26c8 0420     		movs	r0, #4
 5532 26ca FFF7FEFF 		bl	e_get_ambient_light
 5533 26ce 0646     		mov	r6, r0
 5534 26d0 0520     		movs	r0, #5
 5535 26d2 FFF7FEFF 		bl	e_get_ambient_light
 5536 26d6 0746     		mov	r7, r0
 5537 26d8 0620     		movs	r0, #6
 5538 26da FFF7FEFF 		bl	e_get_ambient_light
 5539 26de 0790     		str	r0, [sp, #28]
 5540 26e0 0720     		movs	r0, #7
 5541 26e2 FFF7FEFF 		bl	e_get_ambient_light
 5542 26e6 0346     		mov	r3, r0
 5543 26e8 0593     		str	r3, [sp, #20]
 5544 26ea 079B     		ldr	r3, [sp, #28]
 5545 26ec 0493     		str	r3, [sp, #16]
 5546 26ee 0397     		str	r7, [sp, #12]
 5547 26f0 0296     		str	r6, [sp, #8]
 5548 26f2 0195     		str	r5, [sp, #4]
 5549 26f4 0094     		str	r4, [sp]
 5550 26f6 4B46     		mov	r3, r9
 5551 26f8 4246     		mov	r2, r8
 5552 26fa 4149     		ldr	r1, .L513+16
ARM GAS  C:\Users\Moi\AppData\Local\Temp\ccF5N8ze.s 			page 104


 5553 26fc 3D48     		ldr	r0, .L513+4
 5554 26fe FFF7FEFF 		bl	sprintf
 5555              		.loc 1 1064 0
 5556 2702 9DF82630 		ldrb	r3, [sp, #38]	@ zero_extendqisi2
 5557 2706 002B     		cmp	r3, #0
 5558 2708 40F05383 		bne	.L467
 5559              		.loc 1 1066 0
 5560 270c 0B9B     		ldr	r3, [sp, #44]
 5561 270e 002B     		cmp	r3, #0
 5562 2710 0ED0     		beq	.L371
 5563              		.loc 1 1067 0
 5564 2712 3848     		ldr	r0, .L513+4
 5565 2714 FFF7FEFF 		bl	strlen
 5566 2718 0346     		mov	r3, r0
 5567 271a 1946     		mov	r1, r3
 5568 271c 3548     		ldr	r0, .L513+4
 5569 271e FFF7FEFF 		bl	e_send_uart1_char
 5570 2722 00BF     		nop
 5571              	.L372:
 5572              		.loc 1 1067 0 is_stmt 0 discriminator 2
 5573 2724 FFF7FEFF 		bl	e_uart1_sending
 5574 2728 0346     		mov	r3, r0
 5575 272a 002B     		cmp	r3, #0
 5576 272c FAD1     		bne	.L372
 5577              		.loc 1 1071 0 is_stmt 1
 5578 272e 40E3     		b	.L467
 5579              	.L371:
 5580              		.loc 1 1069 0
 5581 2730 3048     		ldr	r0, .L513+4
 5582 2732 FFF7FEFF 		bl	strlen
 5583 2736 0346     		mov	r3, r0
 5584 2738 1946     		mov	r1, r3
 5585 273a 2E48     		ldr	r0, .L513+4
 5586 273c FFF7FEFF 		bl	e_send_uart2_char
 5587 2740 00BF     		nop
 5588              	.L373:
 5589              		.loc 1 1069 0 is_stmt 0 discriminator 2
 5590 2742 FFF7FEFF 		bl	e_uart2_sending
 5591 2746 0346     		mov	r3, r0
 5592 2748 002B     		cmp	r3, #0
 5593 274a FAD1     		bne	.L373
 5594              		.loc 1 1071 0 is_stmt 1
 5595 274c 31E3     		b	.L467
 5596              	.L207:
 5597              		.loc 1 1073 0
 5598 274e 2D4B     		ldr	r3, .L513+20
 5599 2750 2D4A     		ldr	r2, .L513+24
 5600 2752 2E49     		ldr	r1, .L513+28
 5601 2754 2748     		ldr	r0, .L513+4
 5602 2756 FFF7FEFF 		bl	sscanf
 5603              		.loc 1 1074 0
 5604 275a 2B4B     		ldr	r3, .L513+24
 5605 275c 1B68     		ldr	r3, [r3]
 5606 275e 1846     		mov	r0, r3
 5607 2760 FFF7FEFF 		bl	e_set_steps_left
 5608              		.loc 1 1075 0
 5609 2764 274B     		ldr	r3, .L513+20
ARM GAS  C:\Users\Moi\AppData\Local\Temp\ccF5N8ze.s 			page 105


 5610 2766 1B68     		ldr	r3, [r3]
 5611 2768 1846     		mov	r0, r3
 5612 276a FFF7FEFF 		bl	e_set_steps_right
 5613              		.loc 1 1076 0
 5614 276e 9DF82630 		ldrb	r3, [sp, #38]	@ zero_extendqisi2
 5615 2772 002B     		cmp	r3, #0
 5616 2774 40F02083 		bne	.L468
 5617              		.loc 1 1078 0
 5618 2778 0B9B     		ldr	r3, [sp, #44]
 5619 277a 002B     		cmp	r3, #0
 5620 277c 0AD0     		beq	.L375
 5621              		.loc 1 1079 0
 5622 277e 0321     		movs	r1, #3
 5623 2780 2348     		ldr	r0, .L513+32
 5624 2782 FFF7FEFF 		bl	e_send_uart1_char
 5625 2786 00BF     		nop
 5626              	.L376:
 5627              		.loc 1 1079 0 is_stmt 0 discriminator 2
 5628 2788 FFF7FEFF 		bl	e_uart1_sending
 5629 278c 0346     		mov	r3, r0
 5630 278e 002B     		cmp	r3, #0
 5631 2790 FAD1     		bne	.L376
 5632              		.loc 1 1083 0 is_stmt 1
 5633 2792 11E3     		b	.L468
 5634              	.L375:
 5635              		.loc 1 1081 0
 5636 2794 0321     		movs	r1, #3
 5637 2796 1E48     		ldr	r0, .L513+32
 5638 2798 FFF7FEFF 		bl	e_send_uart2_char
 5639 279c 00BF     		nop
 5640              	.L377:
 5641              		.loc 1 1081 0 is_stmt 0 discriminator 2
 5642 279e FFF7FEFF 		bl	e_uart2_sending
 5643 27a2 0346     		mov	r3, r0
 5644 27a4 002B     		cmp	r3, #0
 5645 27a6 FAD1     		bne	.L377
 5646              		.loc 1 1083 0 is_stmt 1
 5647 27a8 06E3     		b	.L468
 5648              	.L208:
 5649              		.loc 1 1085 0
 5650 27aa FFF7FEFF 		bl	e_get_steps_left
 5651 27ae 0446     		mov	r4, r0
 5652 27b0 FFF7FEFF 		bl	e_get_steps_right
 5653 27b4 0346     		mov	r3, r0
 5654 27b6 2246     		mov	r2, r4
 5655 27b8 1649     		ldr	r1, .L513+36
 5656 27ba 0E48     		ldr	r0, .L513+4
 5657 27bc FFF7FEFF 		bl	sprintf
 5658              		.loc 1 1086 0
 5659 27c0 9DF82630 		ldrb	r3, [sp, #38]	@ zero_extendqisi2
 5660 27c4 002B     		cmp	r3, #0
 5661 27c6 40F0FA82 		bne	.L469
 5662              		.loc 1 1088 0
 5663 27ca 0B9B     		ldr	r3, [sp, #44]
 5664 27cc 002B     		cmp	r3, #0
 5665 27ce 23D0     		beq	.L379
 5666              		.loc 1 1089 0
ARM GAS  C:\Users\Moi\AppData\Local\Temp\ccF5N8ze.s 			page 106


 5667 27d0 0848     		ldr	r0, .L513+4
 5668 27d2 FFF7FEFF 		bl	strlen
 5669 27d6 0346     		mov	r3, r0
 5670 27d8 1946     		mov	r1, r3
 5671 27da 0648     		ldr	r0, .L513+4
 5672 27dc FFF7FEFF 		bl	e_send_uart1_char
 5673 27e0 00BF     		nop
 5674              	.L380:
 5675              		.loc 1 1089 0 is_stmt 0 discriminator 2
 5676 27e2 FFF7FEFF 		bl	e_uart1_sending
 5677 27e6 0346     		mov	r3, r0
 5678 27e8 002B     		cmp	r3, #0
 5679 27ea FAD1     		bne	.L380
 5680              		.loc 1 1093 0 is_stmt 1
 5681 27ec E7E2     		b	.L469
 5682              	.L514:
 5683 27ee 00BF     		.align	2
 5684              	.L513:
 5685 27f0 00000000 		.word	j.13533
 5686 27f4 00000000 		.word	buffer
 5687 27f8 580A0000 		.word	.LC77
 5688 27fc 6C0A0000 		.word	.LC78
 5689 2800 880A0000 		.word	.LC79
 5690 2804 00000000 		.word	positionr.13537
 5691 2808 00000000 		.word	positionl.13538
 5692 280c A40A0000 		.word	.LC80
 5693 2810 B00A0000 		.word	.LC81
 5694 2814 B40A0000 		.word	.LC82
 5695              	.L379:
 5696              		.loc 1 1091 0
 5697 2818 C148     		ldr	r0, .L515
 5698 281a FFF7FEFF 		bl	strlen
 5699 281e 0346     		mov	r3, r0
 5700 2820 1946     		mov	r1, r3
 5701 2822 BF48     		ldr	r0, .L515
 5702 2824 FFF7FEFF 		bl	e_send_uart2_char
 5703 2828 00BF     		nop
 5704              	.L381:
 5705              		.loc 1 1091 0 is_stmt 0 discriminator 2
 5706 282a FFF7FEFF 		bl	e_uart2_sending
 5707 282e 0346     		mov	r3, r0
 5708 2830 002B     		cmp	r3, #0
 5709 2832 FAD1     		bne	.L381
 5710              		.loc 1 1093 0 is_stmt 1
 5711 2834 C3E2     		b	.L469
 5712              	.L210:
 5713              		.loc 1 1103 0
 5714 2836 0020     		movs	r0, #0
 5715 2838 FFF7FEFF 		bl	e_set_speed_left
 5716              		.loc 1 1104 0
 5717 283c 0020     		movs	r0, #0
 5718 283e FFF7FEFF 		bl	e_set_speed_right
 5719              		.loc 1 1105 0
 5720 2842 0021     		movs	r1, #0
 5721 2844 0820     		movs	r0, #8
 5722 2846 FFF7FEFF 		bl	e_set_led
 5723              		.loc 1 1106 0
ARM GAS  C:\Users\Moi\AppData\Local\Temp\ccF5N8ze.s 			page 107


 5724 284a 9DF82630 		ldrb	r3, [sp, #38]	@ zero_extendqisi2
 5725 284e 002B     		cmp	r3, #0
 5726 2850 40F0B882 		bne	.L470
 5727              		.loc 1 1108 0
 5728 2854 0B9B     		ldr	r3, [sp, #44]
 5729 2856 002B     		cmp	r3, #0
 5730 2858 0AD0     		beq	.L383
 5731              		.loc 1 1109 0
 5732 285a 0321     		movs	r1, #3
 5733 285c B148     		ldr	r0, .L515+4
 5734 285e FFF7FEFF 		bl	e_send_uart1_char
 5735 2862 00BF     		nop
 5736              	.L384:
 5737              		.loc 1 1109 0 is_stmt 0 discriminator 2
 5738 2864 FFF7FEFF 		bl	e_uart1_sending
 5739 2868 0346     		mov	r3, r0
 5740 286a 002B     		cmp	r3, #0
 5741 286c FAD1     		bne	.L384
 5742              		.loc 1 1113 0 is_stmt 1
 5743 286e A9E2     		b	.L470
 5744              	.L383:
 5745              		.loc 1 1111 0
 5746 2870 0321     		movs	r1, #3
 5747 2872 AC48     		ldr	r0, .L515+4
 5748 2874 FFF7FEFF 		bl	e_send_uart2_char
 5749 2878 00BF     		nop
 5750              	.L385:
 5751              		.loc 1 1111 0 is_stmt 0 discriminator 2
 5752 287a FFF7FEFF 		bl	e_uart2_sending
 5753 287e 0346     		mov	r3, r0
 5754 2880 002B     		cmp	r3, #0
 5755 2882 FAD1     		bne	.L385
 5756              		.loc 1 1113 0 is_stmt 1
 5757 2884 9EE2     		b	.L470
 5758              	.L211:
 5759              		.loc 1 1115 0
 5760 2886 A84A     		ldr	r2, .L515+8
 5761 2888 A849     		ldr	r1, .L515+12
 5762 288a A548     		ldr	r0, .L515
 5763 288c FFF7FEFF 		bl	sscanf
 5764              		.loc 1 1116 0
 5765 2890 A74B     		ldr	r3, .L515+16
 5766 2892 1B78     		ldrb	r3, [r3]	@ zero_extendqisi2
 5767 2894 002B     		cmp	r3, #0
 5768 2896 04D1     		bne	.L386
 5769              		.loc 1 1117 0
 5770 2898 FFF7FEFF 		bl	e_init_sound
 5771              		.loc 1 1118 0
 5772 289c A44B     		ldr	r3, .L515+16
 5773 289e 0122     		movs	r2, #1
 5774 28a0 1A70     		strb	r2, [r3]
 5775              	.L386:
 5776              		.loc 1 1120 0
 5777 28a2 A14B     		ldr	r3, .L515+8
 5778 28a4 1B68     		ldr	r3, [r3]
 5779 28a6 013B     		subs	r3, r3, #1
 5780 28a8 042B     		cmp	r3, #4
ARM GAS  C:\Users\Moi\AppData\Local\Temp\ccF5N8ze.s 			page 108


 5781 28aa 2DD8     		bhi	.L387
 5782 28ac 01A2     		adr	r2, .L389
 5783 28ae 52F823F0 		ldr	pc, [r2, r3, lsl #2]
 5784 28b2 00BF     		.p2align 2
 5785              	.L389:
 5786 28b4 C9280000 		.word	.L388+1
 5787 28b8 D5280000 		.word	.L390+1
 5788 28bc E1280000 		.word	.L391+1
 5789 28c0 ED280000 		.word	.L392+1
 5790 28c4 FB280000 		.word	.L393+1
 5791              		.p2align 1
 5792              	.L388:
 5793              		.loc 1 1121 0
 5794 28c8 0022     		movs	r2, #0
 5795 28ca 0221     		movs	r1, #2
 5796 28cc 0320     		movs	r0, #3
 5797 28ce FFF7FEFF 		bl	playMelody
 5798              		.loc 1 1122 0
 5799 28d2 21E0     		b	.L394
 5800              	.L390:
 5801              		.loc 1 1123 0
 5802 28d4 0022     		movs	r2, #0
 5803 28d6 0221     		movs	r1, #2
 5804 28d8 0420     		movs	r0, #4
 5805 28da FFF7FEFF 		bl	playMelody
 5806              		.loc 1 1124 0
 5807 28de 1BE0     		b	.L394
 5808              	.L391:
 5809              		.loc 1 1125 0
 5810 28e0 0022     		movs	r2, #0
 5811 28e2 0221     		movs	r1, #2
 5812 28e4 0B20     		movs	r0, #11
 5813 28e6 FFF7FEFF 		bl	playMelody
 5814              		.loc 1 1126 0
 5815 28ea 15E0     		b	.L394
 5816              	.L392:
 5817              		.loc 1 1127 0
 5818 28ec 40F69461 		movw	r1, #3732
 5819 28f0 41F67E40 		movw	r0, #7294
 5820 28f4 FFF7FEFF 		bl	e_play_sound
 5821              		.loc 1 1128 0
 5822 28f8 0EE0     		b	.L394
 5823              	.L393:
 5824              		.loc 1 1129 0
 5825 28fa 41F65071 		movw	r1, #8016
 5826 28fe 42F61430 		movw	r0, #11028
 5827 2902 FFF7FEFF 		bl	e_play_sound
 5828              		.loc 1 1130 0
 5829 2906 07E0     		b	.L394
 5830              	.L387:
 5831              		.loc 1 1132 0
 5832 2908 FFF7FEFF 		bl	e_close_sound
 5833              		.loc 1 1133 0
 5834 290c FFF7FEFF 		bl	stopCurrentMelody
 5835              		.loc 1 1134 0
 5836 2910 874B     		ldr	r3, .L515+16
 5837 2912 0022     		movs	r2, #0
ARM GAS  C:\Users\Moi\AppData\Local\Temp\ccF5N8ze.s 			page 109


 5838 2914 1A70     		strb	r2, [r3]
 5839              		.loc 1 1135 0
 5840 2916 00BF     		nop
 5841              	.L394:
 5842              		.loc 1 1137 0
 5843 2918 9DF82630 		ldrb	r3, [sp, #38]	@ zero_extendqisi2
 5844 291c 002B     		cmp	r3, #0
 5845 291e 40F05482 		bne	.L471
 5846              		.loc 1 1139 0
 5847 2922 0B9B     		ldr	r3, [sp, #44]
 5848 2924 002B     		cmp	r3, #0
 5849 2926 0AD0     		beq	.L396
 5850              		.loc 1 1140 0
 5851 2928 0321     		movs	r1, #3
 5852 292a 8248     		ldr	r0, .L515+20
 5853 292c FFF7FEFF 		bl	e_send_uart1_char
 5854 2930 00BF     		nop
 5855              	.L397:
 5856              		.loc 1 1140 0 is_stmt 0 discriminator 2
 5857 2932 FFF7FEFF 		bl	e_uart1_sending
 5858 2936 0346     		mov	r3, r0
 5859 2938 002B     		cmp	r3, #0
 5860 293a FAD1     		bne	.L397
 5861              		.loc 1 1144 0 is_stmt 1
 5862 293c 45E2     		b	.L471
 5863              	.L396:
 5864              		.loc 1 1142 0
 5865 293e 0321     		movs	r1, #3
 5866 2940 7C48     		ldr	r0, .L515+20
 5867 2942 FFF7FEFF 		bl	e_send_uart2_char
 5868 2946 00BF     		nop
 5869              	.L398:
 5870              		.loc 1 1142 0 is_stmt 0 discriminator 2
 5871 2948 FFF7FEFF 		bl	e_uart2_sending
 5872 294c 0346     		mov	r3, r0
 5873 294e 002B     		cmp	r3, #0
 5874 2950 FAD1     		bne	.L398
 5875              		.loc 1 1144 0 is_stmt 1
 5876 2952 3AE2     		b	.L471
 5877              	.L219:
 5878              		.loc 1 1147 0
 5879 2954 9DF82630 		ldrb	r3, [sp, #38]	@ zero_extendqisi2
 5880 2958 002B     		cmp	r3, #0
 5881 295a 08D1     		bne	.L399
 5882              		.loc 1 1148 0
 5883 295c FFF7FEFF 		bl	getTemperature
 5884 2960 0346     		mov	r3, r0
 5885 2962 1A46     		mov	r2, r3
 5886 2964 7449     		ldr	r1, .L515+24
 5887 2966 6E48     		ldr	r0, .L515
 5888 2968 FFF7FEFF 		bl	sprintf
 5889 296c 05E0     		b	.L400
 5890              	.L399:
 5891              		.loc 1 1150 0
 5892 296e 6C4B     		ldr	r3, .L515
 5893 2970 724A     		ldr	r2, .L515+28
 5894 2972 1068     		ldr	r0, [r2]
ARM GAS  C:\Users\Moi\AppData\Local\Temp\ccF5N8ze.s 			page 110


 5895 2974 1860     		str	r0, [r3]	@ unaligned
 5896 2976 9288     		ldrh	r2, [r2, #4]	@ unaligned
 5897 2978 9A80     		strh	r2, [r3, #4]	@ unaligned
 5898              	.L400:
 5899              		.loc 1 1152 0
 5900 297a 9DF82630 		ldrb	r3, [sp, #38]	@ zero_extendqisi2
 5901 297e 002B     		cmp	r3, #0
 5902 2980 40F02682 		bne	.L472
 5903              		.loc 1 1154 0
 5904 2984 0B9B     		ldr	r3, [sp, #44]
 5905 2986 002B     		cmp	r3, #0
 5906 2988 0ED0     		beq	.L402
 5907              		.loc 1 1155 0
 5908 298a 6548     		ldr	r0, .L515
 5909 298c FFF7FEFF 		bl	strlen
 5910 2990 0346     		mov	r3, r0
 5911 2992 1946     		mov	r1, r3
 5912 2994 6248     		ldr	r0, .L515
 5913 2996 FFF7FEFF 		bl	e_send_uart1_char
 5914 299a 00BF     		nop
 5915              	.L403:
 5916              		.loc 1 1155 0 is_stmt 0 discriminator 2
 5917 299c FFF7FEFF 		bl	e_uart1_sending
 5918 29a0 0346     		mov	r3, r0
 5919 29a2 002B     		cmp	r3, #0
 5920 29a4 FAD1     		bne	.L403
 5921              		.loc 1 1159 0 is_stmt 1
 5922 29a6 13E2     		b	.L472
 5923              	.L402:
 5924              		.loc 1 1157 0
 5925 29a8 5D48     		ldr	r0, .L515
 5926 29aa FFF7FEFF 		bl	strlen
 5927 29ae 0346     		mov	r3, r0
 5928 29b0 1946     		mov	r1, r3
 5929 29b2 5B48     		ldr	r0, .L515
 5930 29b4 FFF7FEFF 		bl	e_send_uart2_char
 5931 29b8 00BF     		nop
 5932              	.L404:
 5933              		.loc 1 1157 0 is_stmt 0 discriminator 2
 5934 29ba FFF7FEFF 		bl	e_uart2_sending
 5935 29be 0346     		mov	r3, r0
 5936 29c0 002B     		cmp	r3, #0
 5937 29c2 FAD1     		bne	.L404
 5938              		.loc 1 1159 0 is_stmt 1
 5939 29c4 04E2     		b	.L472
 5940              	.L212:
 5941              		.loc 1 1162 0
 5942 29c6 0020     		movs	r0, #0
 5943 29c8 FFF7FEFF 		bl	e_get_micro_volume
 5944 29cc 0446     		mov	r4, r0
 5945 29ce 0120     		movs	r0, #1
 5946 29d0 FFF7FEFF 		bl	e_get_micro_volume
 5947 29d4 0546     		mov	r5, r0
 5948 29d6 0220     		movs	r0, #2
 5949 29d8 FFF7FEFF 		bl	e_get_micro_volume
 5950 29dc 0346     		mov	r3, r0
 5951 29de 0093     		str	r3, [sp]
ARM GAS  C:\Users\Moi\AppData\Local\Temp\ccF5N8ze.s 			page 111


 5952 29e0 2B46     		mov	r3, r5
 5953 29e2 2246     		mov	r2, r4
 5954 29e4 5649     		ldr	r1, .L515+32
 5955 29e6 4E48     		ldr	r0, .L515
 5956 29e8 FFF7FEFF 		bl	sprintf
 5957              		.loc 1 1163 0
 5958 29ec 9DF82630 		ldrb	r3, [sp, #38]	@ zero_extendqisi2
 5959 29f0 002B     		cmp	r3, #0
 5960 29f2 40F0F081 		bne	.L473
 5961              		.loc 1 1165 0
 5962 29f6 0B9B     		ldr	r3, [sp, #44]
 5963 29f8 002B     		cmp	r3, #0
 5964 29fa 0ED0     		beq	.L406
 5965              		.loc 1 1166 0
 5966 29fc 4848     		ldr	r0, .L515
 5967 29fe FFF7FEFF 		bl	strlen
 5968 2a02 0346     		mov	r3, r0
 5969 2a04 1946     		mov	r1, r3
 5970 2a06 4648     		ldr	r0, .L515
 5971 2a08 FFF7FEFF 		bl	e_send_uart1_char
 5972 2a0c 00BF     		nop
 5973              	.L407:
 5974              		.loc 1 1166 0 is_stmt 0 discriminator 2
 5975 2a0e FFF7FEFF 		bl	e_uart1_sending
 5976 2a12 0346     		mov	r3, r0
 5977 2a14 002B     		cmp	r3, #0
 5978 2a16 FAD1     		bne	.L407
 5979              		.loc 1 1170 0 is_stmt 1
 5980 2a18 DDE1     		b	.L473
 5981              	.L406:
 5982              		.loc 1 1168 0
 5983 2a1a 4148     		ldr	r0, .L515
 5984 2a1c FFF7FEFF 		bl	strlen
 5985 2a20 0346     		mov	r3, r0
 5986 2a22 1946     		mov	r1, r3
 5987 2a24 3E48     		ldr	r0, .L515
 5988 2a26 FFF7FEFF 		bl	e_send_uart2_char
 5989 2a2a 00BF     		nop
 5990              	.L408:
 5991              		.loc 1 1168 0 is_stmt 0 discriminator 2
 5992 2a2c FFF7FEFF 		bl	e_uart2_sending
 5993 2a30 0346     		mov	r3, r0
 5994 2a32 002B     		cmp	r3, #0
 5995 2a34 FAD1     		bne	.L408
 5996              		.loc 1 1170 0 is_stmt 1
 5997 2a36 CEE1     		b	.L473
 5998              	.L213:
 5999              		.loc 1 1172 0
 6000 2a38 9DF82630 		ldrb	r3, [sp, #38]	@ zero_extendqisi2
 6001 2a3c 002B     		cmp	r3, #0
 6002 2a3e 17D1     		bne	.L409
 6003              		.loc 1 1174 0
 6004 2a40 0B9B     		ldr	r3, [sp, #44]
 6005 2a42 002B     		cmp	r3, #0
 6006 2a44 0AD0     		beq	.L410
 6007              		.loc 1 1175 0
 6008 2a46 2521     		movs	r1, #37
ARM GAS  C:\Users\Moi\AppData\Local\Temp\ccF5N8ze.s 			page 112


 6009 2a48 3E48     		ldr	r0, .L515+36
 6010 2a4a FFF7FEFF 		bl	e_send_uart1_char
 6011 2a4e 00BF     		nop
 6012              	.L411:
 6013              		.loc 1 1175 0 is_stmt 0 discriminator 2
 6014 2a50 FFF7FEFF 		bl	e_uart1_sending
 6015 2a54 0346     		mov	r3, r0
 6016 2a56 002B     		cmp	r3, #0
 6017 2a58 FAD1     		bne	.L411
 6018 2a5a 09E0     		b	.L409
 6019              	.L410:
 6020              		.loc 1 1177 0 is_stmt 1
 6021 2a5c 2521     		movs	r1, #37
 6022 2a5e 3948     		ldr	r0, .L515+36
 6023 2a60 FFF7FEFF 		bl	e_send_uart2_char
 6024 2a64 00BF     		nop
 6025              	.L412:
 6026              		.loc 1 1177 0 is_stmt 0 discriminator 2
 6027 2a66 FFF7FEFF 		bl	e_uart2_sending
 6028 2a6a 0346     		mov	r3, r0
 6029 2a6c 002B     		cmp	r3, #0
 6030 2a6e FAD1     		bne	.L412
 6031              	.L409:
 6032              		.loc 1 1179 0 is_stmt 1
 6033 2a70 354B     		ldr	r3, .L515+40
 6034 2a72 1B68     		ldr	r3, [r3]
 6035 2a74 1A46     		mov	r2, r3
 6036 2a76 3549     		ldr	r1, .L515+44
 6037 2a78 2948     		ldr	r0, .L515
 6038 2a7a FFF7FEFF 		bl	sprintf
 6039              		.loc 1 1180 0
 6040 2a7e 9DF82630 		ldrb	r3, [sp, #38]	@ zero_extendqisi2
 6041 2a82 002B     		cmp	r3, #0
 6042 2a84 40F0AA81 		bne	.L474
 6043              		.loc 1 1182 0
 6044 2a88 0B9B     		ldr	r3, [sp, #44]
 6045 2a8a 002B     		cmp	r3, #0
 6046 2a8c 0ED0     		beq	.L414
 6047              		.loc 1 1183 0
 6048 2a8e 2448     		ldr	r0, .L515
 6049 2a90 FFF7FEFF 		bl	strlen
 6050 2a94 0346     		mov	r3, r0
 6051 2a96 1946     		mov	r1, r3
 6052 2a98 2148     		ldr	r0, .L515
 6053 2a9a FFF7FEFF 		bl	e_send_uart1_char
 6054 2a9e 00BF     		nop
 6055              	.L415:
 6056              		.loc 1 1183 0 is_stmt 0 discriminator 2
 6057 2aa0 FFF7FEFF 		bl	e_uart1_sending
 6058 2aa4 0346     		mov	r3, r0
 6059 2aa6 002B     		cmp	r3, #0
 6060 2aa8 FAD1     		bne	.L415
 6061              		.loc 1 1187 0 is_stmt 1
 6062 2aaa 97E1     		b	.L474
 6063              	.L414:
 6064              		.loc 1 1185 0
 6065 2aac 1C48     		ldr	r0, .L515
ARM GAS  C:\Users\Moi\AppData\Local\Temp\ccF5N8ze.s 			page 113


 6066 2aae FFF7FEFF 		bl	strlen
 6067 2ab2 0346     		mov	r3, r0
 6068 2ab4 1946     		mov	r1, r3
 6069 2ab6 1A48     		ldr	r0, .L515
 6070 2ab8 FFF7FEFF 		bl	e_send_uart2_char
 6071 2abc 00BF     		nop
 6072              	.L416:
 6073              		.loc 1 1185 0 is_stmt 0 discriminator 2
 6074 2abe FFF7FEFF 		bl	e_uart2_sending
 6075 2ac2 0346     		mov	r3, r0
 6076 2ac4 002B     		cmp	r3, #0
 6077 2ac6 FAD1     		bne	.L416
 6078              		.loc 1 1187 0 is_stmt 1
 6079 2ac8 88E1     		b	.L474
 6080              	.L214:
 6081              		.loc 1 1189 0
 6082 2aca 9DF82630 		ldrb	r3, [sp, #38]	@ zero_extendqisi2
 6083 2ace 002B     		cmp	r3, #0
 6084 2ad0 40F08781 		bne	.L475
 6085              		.loc 1 1190 0
 6086 2ad4 1E4B     		ldr	r3, .L515+48
 6087 2ad6 0093     		str	r3, [sp]
 6088 2ad8 1E4B     		ldr	r3, .L515+52
 6089 2ada 1F4A     		ldr	r2, .L515+56
 6090 2adc 1F49     		ldr	r1, .L515+60
 6091 2ade 1048     		ldr	r0, .L515
 6092 2ae0 FFF7FEFF 		bl	sscanf
 6093              		.loc 1 1191 0
 6094 2ae4 FFF7FEFF 		bl	e_i2cp_enable
 6095              		.loc 1 1192 0
 6096 2ae8 1B4B     		ldr	r3, .L515+56
 6097 2aea 1B68     		ldr	r3, [r3]
 6098 2aec D8B2     		uxtb	r0, r3
 6099 2aee 194B     		ldr	r3, .L515+52
 6100 2af0 1B68     		ldr	r3, [r3]
 6101 2af2 D9B2     		uxtb	r1, r3
 6102 2af4 164B     		ldr	r3, .L515+48
 6103 2af6 1B68     		ldr	r3, [r3]
 6104 2af8 DBB2     		uxtb	r3, r3
 6105 2afa 1A46     		mov	r2, r3
 6106 2afc FFF7FEFF 		bl	e_i2cp_write
 6107              		.loc 1 1193 0
 6108 2b00 FFF7FEFF 		bl	e_i2cp_disable
 6109              		.loc 1 1194 0
 6110 2b04 0B9B     		ldr	r3, [sp, #44]
 6111 2b06 002B     		cmp	r3, #0
 6112 2b08 2CD0     		beq	.L418
 6113              		.loc 1 1195 0
 6114 2b0a 0321     		movs	r1, #3
 6115 2b0c 1448     		ldr	r0, .L515+64
 6116 2b0e FFF7FEFF 		bl	e_send_uart1_char
 6117 2b12 00BF     		nop
 6118              	.L419:
 6119              		.loc 1 1195 0 is_stmt 0 discriminator 2
 6120 2b14 FFF7FEFF 		bl	e_uart1_sending
 6121 2b18 0346     		mov	r3, r0
 6122 2b1a 002B     		cmp	r3, #0
ARM GAS  C:\Users\Moi\AppData\Local\Temp\ccF5N8ze.s 			page 114


 6123 2b1c FAD1     		bne	.L419
 6124              		.loc 1 1200 0 is_stmt 1
 6125 2b1e 60E1     		b	.L475
 6126              	.L516:
 6127              		.align	2
 6128              	.L515:
 6129 2b20 00000000 		.word	buffer
 6130 2b24 C00A0000 		.word	.LC83
 6131 2b28 00000000 		.word	sound.13544
 6132 2b2c C40A0000 		.word	.LC84
 6133 2b30 00000000 		.word	first.13555
 6134 2b34 CC0A0000 		.word	.LC85
 6135 2b38 D00A0000 		.word	.LC86
 6136 2b3c D80A0000 		.word	.LC87
 6137 2b40 E00A0000 		.word	.LC88
 6138 2b44 F00A0000 		.word	.LC89
 6139 2b48 00000000 		.word	HWversion.13569
 6140 2b4c 180B0000 		.word	.LC90
 6141 2b50 00000000 		.word	val.13560
 6142 2b54 00000000 		.word	reg.13559
 6143 2b58 00000000 		.word	mod.13558
 6144 2b5c 2C0B0000 		.word	.LC91
 6145 2b60 380B0000 		.word	.LC92
 6146              	.L418:
 6147              		.loc 1 1197 0
 6148 2b64 0321     		movs	r1, #3
 6149 2b66 A548     		ldr	r0, .L517
 6150 2b68 FFF7FEFF 		bl	e_send_uart2_char
 6151 2b6c 00BF     		nop
 6152              	.L420:
 6153              		.loc 1 1197 0 is_stmt 0 discriminator 2
 6154 2b6e FFF7FEFF 		bl	e_uart2_sending
 6155 2b72 0346     		mov	r3, r0
 6156 2b74 002B     		cmp	r3, #0
 6157 2b76 FAD1     		bne	.L420
 6158              		.loc 1 1200 0 is_stmt 1
 6159 2b78 33E1     		b	.L475
 6160              	.L215:
 6161              		.loc 1 1202 0
 6162 2b7a 9DF82630 		ldrb	r3, [sp, #38]	@ zero_extendqisi2
 6163 2b7e 002B     		cmp	r3, #0
 6164 2b80 40F03281 		bne	.L476
 6165              		.loc 1 1203 0
 6166 2b84 9E4B     		ldr	r3, .L517+4
 6167 2b86 9F4A     		ldr	r2, .L517+8
 6168 2b88 9F49     		ldr	r1, .L517+12
 6169 2b8a A048     		ldr	r0, .L517+16
 6170 2b8c FFF7FEFF 		bl	sscanf
 6171              		.loc 1 1204 0
 6172 2b90 9C4B     		ldr	r3, .L517+8
 6173 2b92 1A68     		ldr	r2, [r3]
 6174 2b94 9A4B     		ldr	r3, .L517+4
 6175 2b96 1B68     		ldr	r3, [r3]
 6176 2b98 9D49     		ldr	r1, .L517+20
 6177 2b9a 9C48     		ldr	r0, .L517+16
 6178 2b9c FFF7FEFF 		bl	sprintf
 6179              		.loc 1 1205 0
ARM GAS  C:\Users\Moi\AppData\Local\Temp\ccF5N8ze.s 			page 115


 6180 2ba0 0B9B     		ldr	r3, [sp, #44]
 6181 2ba2 002B     		cmp	r3, #0
 6182 2ba4 0ED0     		beq	.L422
 6183              		.loc 1 1206 0
 6184 2ba6 9948     		ldr	r0, .L517+16
 6185 2ba8 FFF7FEFF 		bl	strlen
 6186 2bac 0346     		mov	r3, r0
 6187 2bae 1946     		mov	r1, r3
 6188 2bb0 9648     		ldr	r0, .L517+16
 6189 2bb2 FFF7FEFF 		bl	e_send_uart1_char
 6190 2bb6 00BF     		nop
 6191              	.L423:
 6192              		.loc 1 1206 0 is_stmt 0 discriminator 2
 6193 2bb8 FFF7FEFF 		bl	e_uart1_sending
 6194 2bbc 0346     		mov	r3, r0
 6195 2bbe 002B     		cmp	r3, #0
 6196 2bc0 FAD1     		bne	.L423
 6197 2bc2 0DE0     		b	.L424
 6198              	.L422:
 6199              		.loc 1 1208 0 is_stmt 1
 6200 2bc4 9148     		ldr	r0, .L517+16
 6201 2bc6 FFF7FEFF 		bl	strlen
 6202 2bca 0346     		mov	r3, r0
 6203 2bcc 1946     		mov	r1, r3
 6204 2bce 8F48     		ldr	r0, .L517+16
 6205 2bd0 FFF7FEFF 		bl	e_send_uart2_char
 6206 2bd4 00BF     		nop
 6207              	.L425:
 6208              		.loc 1 1208 0 is_stmt 0 discriminator 2
 6209 2bd6 FFF7FEFF 		bl	e_uart2_sending
 6210 2bda 0346     		mov	r3, r0
 6211 2bdc 002B     		cmp	r3, #0
 6212 2bde FAD1     		bne	.L425
 6213              	.L424:
 6214              		.loc 1 1210 0 is_stmt 1
 6215 2be0 FFF7FEFF 		bl	e_i2cp_enable
 6216              		.loc 1 1211 0
 6217 2be4 874B     		ldr	r3, .L517+8
 6218 2be6 1B68     		ldr	r3, [r3]
 6219 2be8 DAB2     		uxtb	r2, r3
 6220 2bea 854B     		ldr	r3, .L517+4
 6221 2bec 1B68     		ldr	r3, [r3]
 6222 2bee DBB2     		uxtb	r3, r3
 6223 2bf0 1946     		mov	r1, r3
 6224 2bf2 1046     		mov	r0, r2
 6225 2bf4 FFF7FEFF 		bl	e_i2cp_read
 6226 2bf8 0346     		mov	r3, r0
 6227 2bfa 1A46     		mov	r2, r3
 6228 2bfc 854B     		ldr	r3, .L517+24
 6229 2bfe 1A60     		str	r2, [r3]
 6230              		.loc 1 1212 0
 6231 2c00 FFF7FEFF 		bl	e_i2cp_disable
 6232              		.loc 1 1213 0
 6233 2c04 834B     		ldr	r3, .L517+24
 6234 2c06 1B68     		ldr	r3, [r3]
 6235 2c08 1A46     		mov	r2, r3
 6236 2c0a 8349     		ldr	r1, .L517+28
ARM GAS  C:\Users\Moi\AppData\Local\Temp\ccF5N8ze.s 			page 116


 6237 2c0c 7F48     		ldr	r0, .L517+16
 6238 2c0e FFF7FEFF 		bl	sprintf
 6239              		.loc 1 1214 0
 6240 2c12 7E48     		ldr	r0, .L517+16
 6241 2c14 FFF7FEFF 		bl	strlen
 6242 2c18 0346     		mov	r3, r0
 6243 2c1a 1946     		mov	r1, r3
 6244 2c1c 7B48     		ldr	r0, .L517+16
 6245 2c1e FFF7FEFF 		bl	e_send_uart1_char
 6246 2c22 00BF     		nop
 6247              	.L426:
 6248              		.loc 1 1214 0 is_stmt 0 discriminator 2
 6249 2c24 FFF7FEFF 		bl	e_uart1_sending
 6250 2c28 0346     		mov	r3, r0
 6251 2c2a 002B     		cmp	r3, #0
 6252 2c2c FAD1     		bne	.L426
 6253              		.loc 1 1215 0 is_stmt 1
 6254 2c2e 0B9B     		ldr	r3, [sp, #44]
 6255 2c30 002B     		cmp	r3, #0
 6256 2c32 0ED0     		beq	.L427
 6257              		.loc 1 1216 0
 6258 2c34 7548     		ldr	r0, .L517+16
 6259 2c36 FFF7FEFF 		bl	strlen
 6260 2c3a 0346     		mov	r3, r0
 6261 2c3c 1946     		mov	r1, r3
 6262 2c3e 7348     		ldr	r0, .L517+16
 6263 2c40 FFF7FEFF 		bl	e_send_uart1_char
 6264 2c44 00BF     		nop
 6265              	.L428:
 6266              		.loc 1 1216 0 is_stmt 0 discriminator 2
 6267 2c46 FFF7FEFF 		bl	e_uart1_sending
 6268 2c4a 0346     		mov	r3, r0
 6269 2c4c 002B     		cmp	r3, #0
 6270 2c4e FAD1     		bne	.L428
 6271              		.loc 1 1221 0 is_stmt 1
 6272 2c50 CAE0     		b	.L476
 6273              	.L427:
 6274              		.loc 1 1218 0
 6275 2c52 6E48     		ldr	r0, .L517+16
 6276 2c54 FFF7FEFF 		bl	strlen
 6277 2c58 0346     		mov	r3, r0
 6278 2c5a 1946     		mov	r1, r3
 6279 2c5c 6B48     		ldr	r0, .L517+16
 6280 2c5e FFF7FEFF 		bl	e_send_uart2_char
 6281 2c62 00BF     		nop
 6282              	.L429:
 6283              		.loc 1 1218 0 is_stmt 0 discriminator 2
 6284 2c64 FFF7FEFF 		bl	e_uart2_sending
 6285 2c68 0346     		mov	r3, r0
 6286 2c6a 002B     		cmp	r3, #0
 6287 2c6c FAD1     		bne	.L429
 6288              		.loc 1 1221 0 is_stmt 1
 6289 2c6e BBE0     		b	.L476
 6290              	.L216:
 6291              		.loc 1 1223 0
 6292 2c70 9DF82630 		ldrb	r3, [sp, #38]	@ zero_extendqisi2
 6293 2c74 002B     		cmp	r3, #0
ARM GAS  C:\Users\Moi\AppData\Local\Temp\ccF5N8ze.s 			page 117


 6294 2c76 40F0BA80 		bne	.L477
 6295              		.loc 1 1224 0
 6296 2c7a 684B     		ldr	r3, .L517+32
 6297 2c7c 0222     		movs	r2, #2
 6298 2c7e 1A60     		str	r2, [r3]
 6299 2c80 3FE0     		b	.L431
 6300              	.L436:
 6301              		.loc 1 1225 0
 6302 2c82 FFF7FEFF 		bl	e_i2cp_enable
 6303              		.loc 1 1226 0
 6304 2c86 654B     		ldr	r3, .L517+32
 6305 2c88 1B68     		ldr	r3, [r3]
 6306 2c8a DBB2     		uxtb	r3, r3
 6307 2c8c 0021     		movs	r1, #0
 6308 2c8e 1846     		mov	r0, r3
 6309 2c90 FFF7FEFF 		bl	e_i2cp_read
 6310 2c94 0346     		mov	r3, r0
 6311 2c96 1A46     		mov	r2, r3
 6312 2c98 5E4B     		ldr	r3, .L517+24
 6313 2c9a 1A60     		str	r2, [r3]
 6314              		.loc 1 1227 0
 6315 2c9c FFF7FEFF 		bl	e_i2cp_disable
 6316              		.loc 1 1228 0
 6317 2ca0 5C4B     		ldr	r3, .L517+24
 6318 2ca2 1B68     		ldr	r3, [r3]
 6319 2ca4 002B     		cmp	r3, #0
 6320 2ca6 27DB     		blt	.L432
 6321              		.loc 1 1229 0
 6322 2ca8 5C4B     		ldr	r3, .L517+32
 6323 2caa 1A68     		ldr	r2, [r3]
 6324 2cac 594B     		ldr	r3, .L517+24
 6325 2cae 1B68     		ldr	r3, [r3]
 6326 2cb0 5B49     		ldr	r1, .L517+36
 6327 2cb2 5648     		ldr	r0, .L517+16
 6328 2cb4 FFF7FEFF 		bl	sprintf
 6329              		.loc 1 1230 0
 6330 2cb8 0B9B     		ldr	r3, [sp, #44]
 6331 2cba 002B     		cmp	r3, #0
 6332 2cbc 0ED0     		beq	.L433
 6333              		.loc 1 1231 0
 6334 2cbe 5348     		ldr	r0, .L517+16
 6335 2cc0 FFF7FEFF 		bl	strlen
 6336 2cc4 0346     		mov	r3, r0
 6337 2cc6 1946     		mov	r1, r3
 6338 2cc8 5048     		ldr	r0, .L517+16
 6339 2cca FFF7FEFF 		bl	e_send_uart1_char
 6340 2cce 00BF     		nop
 6341              	.L434:
 6342              		.loc 1 1231 0 is_stmt 0 discriminator 2
 6343 2cd0 FFF7FEFF 		bl	e_uart1_sending
 6344 2cd4 0346     		mov	r3, r0
 6345 2cd6 002B     		cmp	r3, #0
 6346 2cd8 FAD1     		bne	.L434
 6347 2cda 0DE0     		b	.L432
 6348              	.L433:
 6349              		.loc 1 1233 0 is_stmt 1
 6350 2cdc 4B48     		ldr	r0, .L517+16
ARM GAS  C:\Users\Moi\AppData\Local\Temp\ccF5N8ze.s 			page 118


 6351 2cde FFF7FEFF 		bl	strlen
 6352 2ce2 0346     		mov	r3, r0
 6353 2ce4 1946     		mov	r1, r3
 6354 2ce6 4948     		ldr	r0, .L517+16
 6355 2ce8 FFF7FEFF 		bl	e_send_uart2_char
 6356 2cec 00BF     		nop
 6357              	.L435:
 6358              		.loc 1 1233 0 is_stmt 0 discriminator 2
 6359 2cee FFF7FEFF 		bl	e_uart2_sending
 6360 2cf2 0346     		mov	r3, r0
 6361 2cf4 002B     		cmp	r3, #0
 6362 2cf6 FAD1     		bne	.L435
 6363              	.L432:
 6364              		.loc 1 1224 0 is_stmt 1 discriminator 2
 6365 2cf8 484B     		ldr	r3, .L517+32
 6366 2cfa 1B68     		ldr	r3, [r3]
 6367 2cfc 0233     		adds	r3, r3, #2
 6368 2cfe 474A     		ldr	r2, .L517+32
 6369 2d00 1360     		str	r3, [r2]
 6370              	.L431:
 6371              		.loc 1 1224 0 is_stmt 0 discriminator 1
 6372 2d02 464B     		ldr	r3, .L517+32
 6373 2d04 1B68     		ldr	r3, [r3]
 6374 2d06 FE2B     		cmp	r3, #254
 6375 2d08 BBDD     		ble	.L436
 6376              		.loc 1 1238 0 is_stmt 1
 6377 2d0a 70E0     		b	.L477
 6378              	.L190:
 6379              		.loc 1 1240 0
 6380 2d0c 9DF82630 		ldrb	r3, [sp, #38]	@ zero_extendqisi2
 6381 2d10 002B     		cmp	r3, #0
 6382 2d12 6FD1     		bne	.L478
 6383              		.loc 1 1242 0
 6384 2d14 0B9B     		ldr	r3, [sp, #44]
 6385 2d16 002B     		cmp	r3, #0
 6386 2d18 0AD0     		beq	.L438
 6387              		.loc 1 1243 0
 6388 2d1a 1521     		movs	r1, #21
 6389 2d1c 4148     		ldr	r0, .L517+40
 6390 2d1e FFF7FEFF 		bl	e_send_uart1_char
 6391 2d22 00BF     		nop
 6392              	.L439:
 6393              		.loc 1 1243 0 is_stmt 0 discriminator 2
 6394 2d24 FFF7FEFF 		bl	e_uart1_sending
 6395 2d28 0346     		mov	r3, r0
 6396 2d2a 002B     		cmp	r3, #0
 6397 2d2c FAD1     		bne	.L439
 6398              		.loc 1 1247 0 is_stmt 1
 6399 2d2e 61E0     		b	.L478
 6400              	.L438:
 6401              		.loc 1 1245 0
 6402 2d30 1521     		movs	r1, #21
 6403 2d32 3C48     		ldr	r0, .L517+40
 6404 2d34 FFF7FEFF 		bl	e_send_uart2_char
 6405 2d38 00BF     		nop
 6406              	.L440:
 6407              		.loc 1 1245 0 is_stmt 0 discriminator 2
ARM GAS  C:\Users\Moi\AppData\Local\Temp\ccF5N8ze.s 			page 119


 6408 2d3a FFF7FEFF 		bl	e_uart2_sending
 6409 2d3e 0346     		mov	r3, r0
 6410 2d40 002B     		cmp	r3, #0
 6411 2d42 FAD1     		bne	.L440
 6412              		.loc 1 1247 0 is_stmt 1
 6413 2d44 56E0     		b	.L478
 6414              	.L449:
 6415              	.LBE3:
 6416              		.loc 1 1249 0
 6417 2d46 00BF     		nop
 6418 2d48 FDF712BA 		b	.L441
 6419              	.L450:
 6420              	.LBB4:
 6421              		.loc 1 1101 0
 6422 2d4c 00BF     		nop
 6423 2d4e FDF70FBA 		b	.L441
 6424              	.L451:
 6425              		.loc 1 707 0
 6426 2d52 00BF     		nop
 6427 2d54 FDF70CBA 		b	.L441
 6428              	.L452:
 6429              		.loc 1 717 0
 6430 2d58 00BF     		nop
 6431 2d5a FDF709BA 		b	.L441
 6432              	.L453:
 6433              		.loc 1 728 0
 6434 2d5e 00BF     		nop
 6435 2d60 FDF706BA 		b	.L441
 6436              	.L454:
 6437              		.loc 1 739 0
 6438 2d64 00BF     		nop
 6439 2d66 FDF703BA 		b	.L441
 6440              	.L455:
 6441              		.loc 1 751 0
 6442 2d6a 00BF     		nop
 6443 2d6c FDF700BA 		b	.L441
 6444              	.L456:
 6445              		.loc 1 761 0
 6446 2d70 00BF     		nop
 6447 2d72 FDF7FDB9 		b	.L441
 6448              	.L457:
 6449              		.loc 1 772 0
 6450 2d76 00BF     		nop
 6451 2d78 FDF7FAB9 		b	.L441
 6452              	.L458:
 6453              		.loc 1 783 0
 6454 2d7c 00BF     		nop
 6455 2d7e FDF7F7B9 		b	.L441
 6456              	.L459:
 6457              		.loc 1 798 0
 6458 2d82 00BF     		nop
 6459 2d84 FDF7F4B9 		b	.L441
 6460              	.L460:
 6461              		.loc 1 918 0
 6462 2d88 00BF     		nop
 6463 2d8a FDF7F1B9 		b	.L441
 6464              	.L461:
ARM GAS  C:\Users\Moi\AppData\Local\Temp\ccF5N8ze.s 			page 120


 6465              		.loc 1 928 0
 6466 2d8e 00BF     		nop
 6467 2d90 FDF7EEB9 		b	.L441
 6468              	.L462:
 6469              		.loc 1 959 0
 6470 2d94 00BF     		nop
 6471 2d96 FDF7EBB9 		b	.L441
 6472              	.L463:
 6473              		.loc 1 983 0
 6474 2d9a 00BF     		nop
 6475 2d9c FDF7E8B9 		b	.L441
 6476              	.L464:
 6477              		.loc 1 994 0
 6478 2da0 00BF     		nop
 6479 2da2 FDF7E5B9 		b	.L441
 6480              	.L465:
 6481              		.loc 1 1047 0
 6482 2da6 00BF     		nop
 6483 2da8 FDF7E2B9 		b	.L441
 6484              	.L466:
 6485              		.loc 1 1059 0
 6486 2dac 00BF     		nop
 6487 2dae FDF7DFB9 		b	.L441
 6488              	.L467:
 6489              		.loc 1 1071 0
 6490 2db2 00BF     		nop
 6491 2db4 FDF7DCB9 		b	.L441
 6492              	.L468:
 6493              		.loc 1 1083 0
 6494 2db8 00BF     		nop
 6495 2dba FDF7D9B9 		b	.L441
 6496              	.L469:
 6497              		.loc 1 1093 0
 6498 2dbe 00BF     		nop
 6499 2dc0 FDF7D6B9 		b	.L441
 6500              	.L470:
 6501              		.loc 1 1113 0
 6502 2dc4 00BF     		nop
 6503 2dc6 FDF7D3B9 		b	.L441
 6504              	.L471:
 6505              		.loc 1 1144 0
 6506 2dca 00BF     		nop
 6507 2dcc FDF7D0B9 		b	.L441
 6508              	.L472:
 6509              		.loc 1 1159 0
 6510 2dd0 00BF     		nop
 6511 2dd2 FDF7CDB9 		b	.L441
 6512              	.L473:
 6513              		.loc 1 1170 0
 6514 2dd6 00BF     		nop
 6515 2dd8 FDF7CAB9 		b	.L441
 6516              	.L474:
 6517              		.loc 1 1187 0
 6518 2ddc 00BF     		nop
 6519 2dde FDF7C7B9 		b	.L441
 6520              	.L475:
 6521              		.loc 1 1200 0
ARM GAS  C:\Users\Moi\AppData\Local\Temp\ccF5N8ze.s 			page 121


 6522 2de2 00BF     		nop
 6523 2de4 FDF7C4B9 		b	.L441
 6524              	.L476:
 6525              		.loc 1 1221 0
 6526 2de8 00BF     		nop
 6527 2dea FDF7C1B9 		b	.L441
 6528              	.L477:
 6529              		.loc 1 1238 0
 6530 2dee 00BF     		nop
 6531 2df0 FDF7BEB9 		b	.L441
 6532              	.L478:
 6533              		.loc 1 1247 0
 6534 2df4 00BF     		nop
 6535              	.LBE4:
 6536              		.loc 1 155 0
 6537 2df6 FDF7BBB9 		b	.L441
 6538              	.L518:
 6539 2dfa 00BF     		.align	2
 6540              	.L517:
 6541 2dfc 380B0000 		.word	.LC92
 6542 2e00 00000000 		.word	reg.13559
 6543 2e04 00000000 		.word	mod.13558
 6544 2e08 3C0B0000 		.word	.LC93
 6545 2e0c 00000000 		.word	buffer
 6546 2e10 480B0000 		.word	.LC94
 6547 2e14 00000000 		.word	val.13560
 6548 2e18 540B0000 		.word	.LC95
 6549 2e1c 00000000 		.word	j.13533
 6550 2e20 5C0B0000 		.word	.LC96
 6551 2e24 680B0000 		.word	.LC97
 6552              		.cfi_endproc
 6553              	.LFE260:
 6554              		.size	run_asercom2, .-run_asercom2
 6555              		.section	.data.HWversion.13569,"aw",%progbits
 6556              		.align	2
 6557              		.type	HWversion.13569, %object
 6558              		.size	HWversion.13569, 4
 6559              	HWversion.13569:
 6560 0000 FFFF0000 		.word	65535
 6561              		.section	.bss.cam_mode.13548,"aw",%nobits
 6562              		.align	2
 6563              		.type	cam_mode.13548, %object
 6564              		.size	cam_mode.13548, 4
 6565              	cam_mode.13548:
 6566 0000 00000000 		.space	4
 6567              		.section	.bss.cam_width.13549,"aw",%nobits
 6568              		.align	2
 6569              		.type	cam_width.13549, %object
 6570              		.size	cam_width.13549, 4
 6571              	cam_width.13549:
 6572 0000 00000000 		.space	4
 6573              		.section	.bss.cam_heigth.13550,"aw",%nobits
 6574              		.align	2
 6575              		.type	cam_heigth.13550, %object
 6576              		.size	cam_heigth.13550, 4
 6577              	cam_heigth.13550:
 6578 0000 00000000 		.space	4
ARM GAS  C:\Users\Moi\AppData\Local\Temp\ccF5N8ze.s 			page 122


 6579              		.section	.bss.cam_zoom.13551,"aw",%nobits
 6580              		.align	2
 6581              		.type	cam_zoom.13551, %object
 6582              		.size	cam_zoom.13551, 4
 6583              	cam_zoom.13551:
 6584 0000 00000000 		.space	4
 6585              		.section	.bss.cam_size.13552,"aw",%nobits
 6586              		.align	2
 6587              		.type	cam_size.13552, %object
 6588              		.size	cam_size.13552, 4
 6589              	cam_size.13552:
 6590 0000 00000000 		.space	4
 6591              		.section	.bss.speedr.13535,"aw",%nobits
 6592              		.align	2
 6593              		.type	speedr.13535, %object
 6594              		.size	speedr.13535, 4
 6595              	speedr.13535:
 6596 0000 00000000 		.space	4
 6597              		.section	.bss.speedl.13536,"aw",%nobits
 6598              		.align	2
 6599              		.type	speedl.13536, %object
 6600              		.size	speedl.13536, 4
 6601              	speedl.13536:
 6602 0000 00000000 		.space	4
 6603              		.section	.bss.first.13555,"aw",%nobits
 6604              		.type	first.13555, %object
 6605              		.size	first.13555, 1
 6606              	first.13555:
 6607 0000 00       		.space	1
 6608              		.section	.bss.i.13532,"aw",%nobits
 6609              		.align	2
 6610              		.type	i.13532, %object
 6611              		.size	i.13532, 4
 6612              	i.13532:
 6613 0000 00000000 		.space	4
 6614              		.section	.bss.j.13533,"aw",%nobits
 6615              		.align	2
 6616              		.type	j.13533, %object
 6617              		.size	j.13533, 4
 6618              	j.13533:
 6619 0000 00000000 		.space	4
 6620              		.section	.bss.rgb_value.13556,"aw",%nobits
 6621              		.align	2
 6622              		.type	rgb_value.13556, %object
 6623              		.size	rgb_value.13556, 12
 6624              	rgb_value.13556:
 6625 0000 00000000 		.space	12
 6625      00000000 
 6625      00000000 
 6626              		.section	.bss.n.13534,"aw",%nobits
 6627              		.align	2
 6628              		.type	n.13534, %object
 6629              		.size	n.13534, 4
 6630              	n.13534:
 6631 0000 00000000 		.space	4
 6632              		.section	.bss.accx.13541,"aw",%nobits
 6633              		.align	2
ARM GAS  C:\Users\Moi\AppData\Local\Temp\ccF5N8ze.s 			page 123


 6634              		.type	accx.13541, %object
 6635              		.size	accx.13541, 4
 6636              	accx.13541:
 6637 0000 00000000 		.space	4
 6638              		.section	.bss.accy.13542,"aw",%nobits
 6639              		.align	2
 6640              		.type	accy.13542, %object
 6641              		.size	accy.13542, 4
 6642              	accy.13542:
 6643 0000 00000000 		.space	4
 6644              		.section	.bss.accz.13543,"aw",%nobits
 6645              		.align	2
 6646              		.type	accz.13543, %object
 6647              		.size	accz.13543, 4
 6648              	accz.13543:
 6649 0000 00000000 		.space	4
 6650              		.section	.bss.accelero.13564,"aw",%nobits
 6651              		.align	2
 6652              		.type	accelero.13564, %object
 6653              		.size	accelero.13564, 12
 6654              	accelero.13564:
 6655 0000 00000000 		.space	12
 6655      00000000 
 6655      00000000 
 6656              		.section	.bss.c1.13529,"aw",%nobits
 6657              		.type	c1.13529, %object
 6658              		.size	c1.13529, 1
 6659              	c1.13529:
 6660 0000 00       		.space	1
 6661              		.section	.bss.c2.13530,"aw",%nobits
 6662              		.type	c2.13530, %object
 6663              		.size	c2.13530, 1
 6664              	c2.13530:
 6665 0000 00       		.space	1
 6666              		.section	.bss.gyrox.13545,"aw",%nobits
 6667              		.align	2
 6668              		.type	gyrox.13545, %object
 6669              		.size	gyrox.13545, 4
 6670              	gyrox.13545:
 6671 0000 00000000 		.space	4
 6672              		.section	.bss.gyroy.13546,"aw",%nobits
 6673              		.align	2
 6674              		.type	gyroy.13546, %object
 6675              		.size	gyroy.13546, 4
 6676              	gyroy.13546:
 6677 0000 00000000 		.space	4
 6678              		.section	.bss.gyroz.13547,"aw",%nobits
 6679              		.align	2
 6680              		.type	gyroz.13547, %object
 6681              		.size	gyroz.13547, 4
 6682              	gyroz.13547:
 6683 0000 00000000 		.space	4
 6684              		.section	.bss.wait_cam.13531,"aw",%nobits
 6685              		.type	wait_cam.13531, %object
 6686              		.size	wait_cam.13531, 1
 6687              	wait_cam.13531:
 6688 0000 00       		.space	1
ARM GAS  C:\Users\Moi\AppData\Local\Temp\ccF5N8ze.s 			page 124


 6689              		.section	.bss.positionl.13538,"aw",%nobits
 6690              		.align	2
 6691              		.type	positionl.13538, %object
 6692              		.size	positionl.13538, 4
 6693              	positionl.13538:
 6694 0000 00000000 		.space	4
 6695              		.section	.bss.positionr.13537,"aw",%nobits
 6696              		.align	2
 6697              		.type	positionr.13537, %object
 6698              		.size	positionr.13537, 4
 6699              	positionr.13537:
 6700 0000 00000000 		.space	4
 6701              		.section	.bss.mod.13558,"aw",%nobits
 6702              		.align	2
 6703              		.type	mod.13558, %object
 6704              		.size	mod.13558, 4
 6705              	mod.13558:
 6706 0000 00000000 		.space	4
 6707              		.section	.bss.reg.13559,"aw",%nobits
 6708              		.align	2
 6709              		.type	reg.13559, %object
 6710              		.size	reg.13559, 4
 6711              	reg.13559:
 6712 0000 00000000 		.space	4
 6713              		.section	.bss.val.13560,"aw",%nobits
 6714              		.align	2
 6715              		.type	val.13560, %object
 6716              		.size	val.13560, 4
 6717              	val.13560:
 6718 0000 00000000 		.space	4
 6719              		.section	.bss.LED_action.13540,"aw",%nobits
 6720              		.align	2
 6721              		.type	LED_action.13540, %object
 6722              		.size	LED_action.13540, 4
 6723              	LED_action.13540:
 6724 0000 00000000 		.space	4
 6725              		.section	.bss.cam_x1.13553,"aw",%nobits
 6726              		.align	2
 6727              		.type	cam_x1.13553, %object
 6728              		.size	cam_x1.13553, 4
 6729              	cam_x1.13553:
 6730 0000 00000000 		.space	4
 6731              		.section	.bss.cam_y1.13554,"aw",%nobits
 6732              		.align	2
 6733              		.type	cam_y1.13554, %object
 6734              		.size	cam_y1.13554, 4
 6735              	cam_y1.13554:
 6736 0000 00000000 		.space	4
 6737              		.section	.bss.LED_nbr.13539,"aw",%nobits
 6738              		.align	2
 6739              		.type	LED_nbr.13539, %object
 6740              		.size	LED_nbr.13539, 4
 6741              	LED_nbr.13539:
 6742 0000 00000000 		.space	4
 6743              		.section	.bss.sound.13544,"aw",%nobits
 6744              		.align	2
 6745              		.type	sound.13544, %object
ARM GAS  C:\Users\Moi\AppData\Local\Temp\ccF5N8ze.s 			page 125


 6746              		.size	sound.13544, 4
 6747              	sound.13544:
 6748 0000 00000000 		.space	4
 6749              		.text
 6750              	.Letext0:
 6751              		.file 2 "c:\\users\\moi\\documents\\_microinfo\\epuck-eclipse\\tools\\gcc-arm-none-eabi-7-2017-q4-
 6752              		.file 3 "c:\\users\\moi\\documents\\_microinfo\\epuck-eclipse\\tools\\gcc-arm-none-eabi-7-2017-q4-
 6753              		.file 4 "c:\\users\\moi\\documents\\_microinfo\\epuck-eclipse\\tools\\gcc-arm-none-eabi-7-2017-q4-
 6754              		.file 5 "c:\\users\\moi\\documents\\_microinfo\\epuck-eclipse\\tools\\gcc-arm-none-eabi-7-2017-q4-
 6755              		.file 6 "c:\\users\\moi\\documents\\_microinfo\\epuck-eclipse\\tools\\gcc-arm-none-eabi-7-2017-q4-
 6756              		.file 7 "c:\\users\\moi\\documents\\_microinfo\\epuck-eclipse\\tools\\gcc-arm-none-eabi-7-2017-q4-
 6757              		.file 8 "..//src/msgbus/messagebus.h"
 6758              		.file 9 "c:\\users\\moi\\documents\\_microinfo\\epuck-eclipse\\tools\\gcc-arm-none-eabi-7-2017-q4-
 6759              		.file 10 "c:\\users\\moi\\documents\\_microinfo\\epuck-eclipse\\tools\\gcc-arm-none-eabi-7-2017-q4
 6760              		.file 11 "..//src/parameter/parameter.h"
 6761              		.file 12 "./main.h"
 6762              		.file 13 "..//ChibiOS//os/rt/ports/ARMCMx/compilers/GCC/chtypes.h"
 6763              		.file 14 "..//ChibiOS//os/rt/include/chsystypes.h"
 6764              		.file 15 "..//ChibiOS//os/rt/include/chschd.h"
 6765              		.file 16 "..//ChibiOS//os/ext/CMSIS/include/core_cm4.h"
 6766              		.file 17 "..//ChibiOS//os/ext/CMSIS/ST/system_stm32f4xx.h"
 6767              		.file 18 "..//ChibiOS//os/ext/CMSIS/ST/stm32f407xx.h"
 6768              		.file 19 "..//ChibiOS//os/rt/ports/ARMCMx/chcore.h"
 6769              		.file 20 "..//ChibiOS//os/rt/ports/ARMCMx/chcore_v7m.h"
 6770              		.file 21 "..//ChibiOS//os/rt/include/chdebug.h"
 6771              		.file 22 "..//ChibiOS//os/rt/include/chtm.h"
 6772              		.file 23 "..//ChibiOS//os/rt/include/chstats.h"
 6773              		.file 24 "..//ChibiOS//os/rt/include/chsem.h"
 6774              		.file 25 "..//ChibiOS//os/rt/include/chmtx.h"
 6775              		.file 26 "..//ChibiOS//os/rt/include/chregistry.h"
 6776              		.file 27 "..//ChibiOS//os/rt/include/chevents.h"
 6777              		.file 28 "..//ChibiOS//os/rt/include/chqueues.h"
 6778              		.file 29 "..//ChibiOS//os/hal/ports/STM32/STM32F4xx/stm32_dma.h"
 6779              		.file 30 "..//ChibiOS//os/hal/include/hal_ioblock.h"
 6780              		.file 31 "..//ChibiOS//os/hal/ports/STM32/LLD/GPIOv2/pal_lld.h"
 6781              		.file 32 "..//ChibiOS//os/hal/include/adc.h"
 6782              		.file 33 "..//ChibiOS//os/hal/ports/STM32/STM32F4xx/adc_lld.h"
 6783              		.file 34 "..//ChibiOS//os/hal/include/can.h"
 6784              		.file 35 "..//ChibiOS//os/hal/ports/STM32/LLD/can_lld.h"
 6785              		.file 36 "..//ChibiOS//os/hal/include/dac.h"
 6786              		.file 37 "..//ChibiOS//os/hal/ports/STM32/LLD/DACv1/dac_lld.h"
 6787              		.file 38 "..//ChibiOS//os/hal/include/ext.h"
 6788              		.file 39 "..//ChibiOS//os/hal/ports/STM32/LLD/ext_lld.h"
 6789              		.file 40 "..//ChibiOS//os/hal/include/gpt.h"
 6790              		.file 41 "..//ChibiOS//os/hal/ports/STM32/LLD/TIMv1/gpt_lld.h"
 6791              		.file 42 "..//ChibiOS//os/hal/ports/STM32/LLD/TIMv1/stm32_tim.h"
 6792              		.file 43 "..//ChibiOS//os/hal/include/i2c.h"
 6793              		.file 44 "..//ChibiOS//os/hal/ports/STM32/LLD/I2Cv1/i2c_lld.h"
 6794              		.file 45 "..//ChibiOS//os/hal/include/i2s.h"
 6795              		.file 46 "..//ChibiOS//os/hal/ports/STM32/LLD/SPIv1/i2s_lld.h"
 6796              		.file 47 "..//ChibiOS//os/hal/include/pwm.h"
 6797              		.file 48 "..//ChibiOS//os/hal/ports/STM32/LLD/TIMv1/pwm_lld.h"
 6798              		.file 49 "..//ChibiOS//os/hal/include/serial.h"
 6799              		.file 50 "..//ChibiOS//os/hal/ports/STM32/LLD/USARTv1/serial_lld.h"
 6800              		.file 51 "..//ChibiOS//os/hal/include/sdc.h"
 6801              		.file 52 "..//ChibiOS//os/hal/ports/STM32/LLD/sdc_lld.h"
 6802              		.file 53 "..//ChibiOS//os/hal/include/spi.h"
ARM GAS  C:\Users\Moi\AppData\Local\Temp\ccF5N8ze.s 			page 126


 6803              		.file 54 "..//ChibiOS//os/hal/ports/STM32/LLD/SPIv1/spi_lld.h"
 6804              		.file 55 "..//ChibiOS//os/hal/include/usb.h"
 6805              		.file 56 "..//ChibiOS//os/hal/ports/STM32/LLD/OTGv1/usb_lld.h"
 6806              		.file 57 "..//ChibiOS//os/hal/ports/STM32/LLD/OTGv1/stm32_otg.h"
 6807              		.file 58 "..//src/audio/play_melody.h"
 6808              		.file 59 "c:\\users\\moi\\documents\\_microinfo\\epuck-eclipse\\tools\\gcc-arm-none-eabi-7-2017-q4
 6809              		.file 60 "..//src/epuck1x/a_d/advance_ad_scan/e_acc.h"
 6810              		.file 61 "..//ChibiOS_ext/os/hal/include/../ports/STM32/STM32F4xx/dcmi_lld.h"
 6811              		.section	.debug_info,"",%progbits
 6812              	.Ldebug_info0:
 6813 0000 6F460000 		.4byte	0x466f
 6814 0004 0400     		.2byte	0x4
 6815 0006 00000000 		.4byte	.Ldebug_abbrev0
 6816 000a 04       		.byte	0x4
 6817 000b 01       		.uleb128 0x1
 6818 000c 071D0000 		.4byte	.LASF949
 6819 0010 0C       		.byte	0xc
 6820 0011 121A0000 		.4byte	.LASF950
 6821 0015 96140000 		.4byte	.LASF951
 6822 0019 18000000 		.4byte	.Ldebug_ranges0+0x18
 6823 001d 00000000 		.4byte	0
 6824 0021 00000000 		.4byte	.Ldebug_line0
 6825 0025 02       		.uleb128 0x2
 6826 0026 5F240000 		.4byte	.LASF0
 6827 002a 02       		.byte	0x2
 6828 002b 29       		.byte	0x29
 6829 002c 30000000 		.4byte	0x30
 6830 0030 03       		.uleb128 0x3
 6831 0031 01       		.byte	0x1
 6832 0032 06       		.byte	0x6
 6833 0033 5E140000 		.4byte	.LASF2
 6834 0037 02       		.uleb128 0x2
 6835 0038 09010000 		.4byte	.LASF1
 6836 003c 02       		.byte	0x2
 6837 003d 2B       		.byte	0x2b
 6838 003e 42000000 		.4byte	0x42
 6839 0042 03       		.uleb128 0x3
 6840 0043 01       		.byte	0x1
 6841 0044 08       		.byte	0x8
 6842 0045 9A090000 		.4byte	.LASF3
 6843 0049 02       		.uleb128 0x2
 6844 004a D9070000 		.4byte	.LASF4
 6845 004e 02       		.byte	0x2
 6846 004f 37       		.byte	0x37
 6847 0050 54000000 		.4byte	0x54
 6848 0054 03       		.uleb128 0x3
 6849 0055 02       		.byte	0x2
 6850 0056 05       		.byte	0x5
 6851 0057 35250000 		.4byte	.LASF5
 6852 005b 02       		.uleb128 0x2
 6853 005c E3070000 		.4byte	.LASF6
 6854 0060 02       		.byte	0x2
 6855 0061 39       		.byte	0x39
 6856 0062 66000000 		.4byte	0x66
 6857 0066 03       		.uleb128 0x3
 6858 0067 02       		.byte	0x2
 6859 0068 07       		.byte	0x7
ARM GAS  C:\Users\Moi\AppData\Local\Temp\ccF5N8ze.s 			page 127


 6860 0069 43140000 		.4byte	.LASF7
 6861 006d 02       		.uleb128 0x2
 6862 006e 5C1E0000 		.4byte	.LASF8
 6863 0072 02       		.byte	0x2
 6864 0073 4D       		.byte	0x4d
 6865 0074 78000000 		.4byte	0x78
 6866 0078 03       		.uleb128 0x3
 6867 0079 04       		.byte	0x4
 6868 007a 05       		.byte	0x5
 6869 007b 00170000 		.4byte	.LASF9
 6870 007f 02       		.uleb128 0x2
 6871 0080 661E0000 		.4byte	.LASF10
 6872 0084 02       		.byte	0x2
 6873 0085 4F       		.byte	0x4f
 6874 0086 8A000000 		.4byte	0x8a
 6875 008a 03       		.uleb128 0x3
 6876 008b 04       		.byte	0x4
 6877 008c 07       		.byte	0x7
 6878 008d 94180000 		.4byte	.LASF11
 6879 0091 03       		.uleb128 0x3
 6880 0092 08       		.byte	0x8
 6881 0093 05       		.byte	0x5
 6882 0094 94220000 		.4byte	.LASF12
 6883 0098 02       		.uleb128 0x2
 6884 0099 A5100000 		.4byte	.LASF13
 6885 009d 02       		.byte	0x2
 6886 009e 69       		.byte	0x69
 6887 009f A3000000 		.4byte	0xa3
 6888 00a3 03       		.uleb128 0x3
 6889 00a4 08       		.byte	0x8
 6890 00a5 07       		.byte	0x7
 6891 00a6 32200000 		.4byte	.LASF14
 6892 00aa 04       		.uleb128 0x4
 6893 00ab 04       		.byte	0x4
 6894 00ac 05       		.byte	0x5
 6895 00ad 696E7400 		.ascii	"int\000"
 6896 00b1 03       		.uleb128 0x3
 6897 00b2 04       		.byte	0x4
 6898 00b3 07       		.byte	0x7
 6899 00b4 C9240000 		.4byte	.LASF15
 6900 00b8 02       		.uleb128 0x2
 6901 00b9 3B0D0000 		.4byte	.LASF16
 6902 00bd 03       		.byte	0x3
 6903 00be D8       		.byte	0xd8
 6904 00bf B1000000 		.4byte	0xb1
 6905 00c3 03       		.uleb128 0x3
 6906 00c4 08       		.byte	0x8
 6907 00c5 04       		.byte	0x4
 6908 00c6 43180000 		.4byte	.LASF17
 6909 00ca 02       		.uleb128 0x2
 6910 00cb AC070000 		.4byte	.LASF18
 6911 00cf 04       		.byte	0x4
 6912 00d0 22       		.byte	0x22
 6913 00d1 D5000000 		.4byte	0xd5
 6914 00d5 05       		.uleb128 0x5
 6915 00d6 04       		.byte	0x4
 6916 00d7 DB000000 		.4byte	0xdb
ARM GAS  C:\Users\Moi\AppData\Local\Temp\ccF5N8ze.s 			page 128


 6917 00db 06       		.uleb128 0x6
 6918 00dc F2050000 		.4byte	.LASF157
 6919 00e0 02       		.uleb128 0x2
 6920 00e1 160D0000 		.4byte	.LASF19
 6921 00e5 05       		.byte	0x5
 6922 00e6 2C       		.byte	0x2c
 6923 00e7 78000000 		.4byte	0x78
 6924 00eb 02       		.uleb128 0x2
 6925 00ec 3B1C0000 		.4byte	.LASF20
 6926 00f0 05       		.byte	0x5
 6927 00f1 72       		.byte	0x72
 6928 00f2 78000000 		.4byte	0x78
 6929 00f6 07       		.uleb128 0x7
 6930 00f7 260F0000 		.4byte	.LASF21
 6931 00fb 03       		.byte	0x3
 6932 00fc 6501     		.2byte	0x165
 6933 00fe B1000000 		.4byte	0xb1
 6934 0102 08       		.uleb128 0x8
 6935 0103 04       		.byte	0x4
 6936 0104 05       		.byte	0x5
 6937 0105 A6       		.byte	0xa6
 6938 0106 21010000 		.4byte	0x121
 6939 010a 09       		.uleb128 0x9
 6940 010b 4F160000 		.4byte	.LASF22
 6941 010f 05       		.byte	0x5
 6942 0110 A8       		.byte	0xa8
 6943 0111 F6000000 		.4byte	0xf6
 6944 0115 09       		.uleb128 0x9
 6945 0116 CE0E0000 		.4byte	.LASF23
 6946 011a 05       		.byte	0x5
 6947 011b A9       		.byte	0xa9
 6948 011c 21010000 		.4byte	0x121
 6949 0120 00       		.byte	0
 6950 0121 0A       		.uleb128 0xa
 6951 0122 42000000 		.4byte	0x42
 6952 0126 31010000 		.4byte	0x131
 6953 012a 0B       		.uleb128 0xb
 6954 012b B1000000 		.4byte	0xb1
 6955 012f 03       		.byte	0x3
 6956 0130 00       		.byte	0
 6957 0131 0C       		.uleb128 0xc
 6958 0132 08       		.byte	0x8
 6959 0133 05       		.byte	0x5
 6960 0134 A3       		.byte	0xa3
 6961 0135 52010000 		.4byte	0x152
 6962 0139 0D       		.uleb128 0xd
 6963 013a 710D0000 		.4byte	.LASF24
 6964 013e 05       		.byte	0x5
 6965 013f A5       		.byte	0xa5
 6966 0140 AA000000 		.4byte	0xaa
 6967 0144 00       		.byte	0
 6968 0145 0D       		.uleb128 0xd
 6969 0146 BD1E0000 		.4byte	.LASF25
 6970 014a 05       		.byte	0x5
 6971 014b AA       		.byte	0xaa
 6972 014c 02010000 		.4byte	0x102
 6973 0150 04       		.byte	0x4
ARM GAS  C:\Users\Moi\AppData\Local\Temp\ccF5N8ze.s 			page 129


 6974 0151 00       		.byte	0
 6975 0152 02       		.uleb128 0x2
 6976 0153 DB1C0000 		.4byte	.LASF26
 6977 0157 05       		.byte	0x5
 6978 0158 AB       		.byte	0xab
 6979 0159 31010000 		.4byte	0x131
 6980 015d 02       		.uleb128 0x2
 6981 015e EE210000 		.4byte	.LASF27
 6982 0162 05       		.byte	0x5
 6983 0163 AF       		.byte	0xaf
 6984 0164 CA000000 		.4byte	0xca
 6985 0168 0E       		.uleb128 0xe
 6986 0169 04       		.byte	0x4
 6987 016a 02       		.uleb128 0x2
 6988 016b 12130000 		.4byte	.LASF28
 6989 016f 06       		.byte	0x6
 6990 0170 14       		.byte	0x14
 6991 0171 25000000 		.4byte	0x25
 6992 0175 02       		.uleb128 0x2
 6993 0176 790D0000 		.4byte	.LASF29
 6994 017a 06       		.byte	0x6
 6995 017b 18       		.byte	0x18
 6996 017c 37000000 		.4byte	0x37
 6997 0180 0F       		.uleb128 0xf
 6998 0181 75010000 		.4byte	0x175
 6999 0185 02       		.uleb128 0x2
 7000 0186 1E140000 		.4byte	.LASF30
 7001 018a 06       		.byte	0x6
 7002 018b 20       		.byte	0x20
 7003 018c 49000000 		.4byte	0x49
 7004 0190 02       		.uleb128 0x2
 7005 0191 3B020000 		.4byte	.LASF31
 7006 0195 06       		.byte	0x6
 7007 0196 24       		.byte	0x24
 7008 0197 5B000000 		.4byte	0x5b
 7009 019b 02       		.uleb128 0x2
 7010 019c FC030000 		.4byte	.LASF32
 7011 01a0 06       		.byte	0x6
 7012 01a1 2C       		.byte	0x2c
 7013 01a2 6D000000 		.4byte	0x6d
 7014 01a6 10       		.uleb128 0x10
 7015 01a7 9B010000 		.4byte	0x19b
 7016 01ab 02       		.uleb128 0x2
 7017 01ac 16180000 		.4byte	.LASF33
 7018 01b0 06       		.byte	0x6
 7019 01b1 30       		.byte	0x30
 7020 01b2 7F000000 		.4byte	0x7f
 7021 01b6 10       		.uleb128 0x10
 7022 01b7 AB010000 		.4byte	0x1ab
 7023 01bb 0F       		.uleb128 0xf
 7024 01bc B6010000 		.4byte	0x1b6
 7025 01c0 02       		.uleb128 0x2
 7026 01c1 EE0A0000 		.4byte	.LASF34
 7027 01c5 06       		.byte	0x6
 7028 01c6 3C       		.byte	0x3c
 7029 01c7 98000000 		.4byte	0x98
 7030 01cb 05       		.uleb128 0x5
ARM GAS  C:\Users\Moi\AppData\Local\Temp\ccF5N8ze.s 			page 130


 7031 01cc 04       		.byte	0x4
 7032 01cd D1010000 		.4byte	0x1d1
 7033 01d1 03       		.uleb128 0x3
 7034 01d2 01       		.byte	0x1
 7035 01d3 08       		.byte	0x8
 7036 01d4 35190000 		.4byte	.LASF35
 7037 01d8 0F       		.uleb128 0xf
 7038 01d9 D1010000 		.4byte	0x1d1
 7039 01dd 11       		.uleb128 0x11
 7040 01de 9B0E0000 		.4byte	.LASF36
 7041 01e2 07       		.byte	0x7
 7042 01e3 10       		.byte	0x10
 7043 01e4 E8010000 		.4byte	0x1e8
 7044 01e8 05       		.uleb128 0x5
 7045 01e9 04       		.byte	0x4
 7046 01ea CB010000 		.4byte	0x1cb
 7047 01ee 11       		.uleb128 0x11
 7048 01ef 16070000 		.4byte	.LASF37
 7049 01f3 07       		.byte	0x7
 7050 01f4 E8       		.byte	0xe8
 7051 01f5 CB010000 		.4byte	0x1cb
 7052 01f9 11       		.uleb128 0x11
 7053 01fa 6F220000 		.4byte	.LASF38
 7054 01fe 07       		.byte	0x7
 7055 01ff E9       		.byte	0xe9
 7056 0200 AA000000 		.4byte	0xaa
 7057 0204 11       		.uleb128 0x11
 7058 0205 EB150000 		.4byte	.LASF39
 7059 0209 07       		.byte	0x7
 7060 020a E9       		.byte	0xe9
 7061 020b AA000000 		.4byte	0xaa
 7062 020f 11       		.uleb128 0x11
 7063 0210 91130000 		.4byte	.LASF40
 7064 0214 07       		.byte	0x7
 7065 0215 E9       		.byte	0xe9
 7066 0216 AA000000 		.4byte	0xaa
 7067 021a 11       		.uleb128 0x11
 7068 021b 7B080000 		.4byte	.LASF41
 7069 021f 07       		.byte	0x7
 7070 0220 EB       		.byte	0xeb
 7071 0221 AA000000 		.4byte	0xaa
 7072 0225 12       		.uleb128 0x12
 7073 0226 DF0F0000 		.4byte	.LASF51
 7074 022a 5C       		.byte	0x5c
 7075 022b 08       		.byte	0x8
 7076 022c 0C       		.byte	0xc
 7077 022d 92020000 		.4byte	0x292
 7078 0231 0D       		.uleb128 0xd
 7079 0232 961A0000 		.4byte	.LASF42
 7080 0236 08       		.byte	0x8
 7081 0237 0D       		.byte	0xd
 7082 0238 68010000 		.4byte	0x168
 7083 023c 00       		.byte	0
 7084 023d 0D       		.uleb128 0xd
 7085 023e 7F180000 		.4byte	.LASF43
 7086 0242 08       		.byte	0x8
 7087 0243 0E       		.byte	0xe
ARM GAS  C:\Users\Moi\AppData\Local\Temp\ccF5N8ze.s 			page 131


 7088 0244 B8000000 		.4byte	0xb8
 7089 0248 04       		.byte	0x4
 7090 0249 0D       		.uleb128 0xd
 7091 024a 171B0000 		.4byte	.LASF44
 7092 024e 08       		.byte	0x8
 7093 024f 0F       		.byte	0xf
 7094 0250 68010000 		.4byte	0x168
 7095 0254 08       		.byte	0x8
 7096 0255 0D       		.uleb128 0xd
 7097 0256 E2060000 		.4byte	.LASF45
 7098 025a 08       		.byte	0x8
 7099 025b 10       		.byte	0x10
 7100 025c 68010000 		.4byte	0x168
 7101 0260 0C       		.byte	0xc
 7102 0261 0D       		.uleb128 0xd
 7103 0262 02130000 		.4byte	.LASF46
 7104 0266 08       		.byte	0x8
 7105 0267 11       		.byte	0x11
 7106 0268 92020000 		.4byte	0x292
 7107 026c 10       		.byte	0x10
 7108 026d 0D       		.uleb128 0xd
 7109 026e 6C010000 		.4byte	.LASF47
 7110 0272 08       		.byte	0x8
 7111 0273 12       		.byte	0x12
 7112 0274 A2020000 		.4byte	0x2a2
 7113 0278 51       		.byte	0x51
 7114 0279 0D       		.uleb128 0xd
 7115 027a 311F0000 		.4byte	.LASF48
 7116 027e 08       		.byte	0x8
 7117 027f 13       		.byte	0x13
 7118 0280 CE020000 		.4byte	0x2ce
 7119 0284 54       		.byte	0x54
 7120 0285 0D       		.uleb128 0xd
 7121 0286 70020000 		.4byte	.LASF49
 7122 028a 08       		.byte	0x8
 7123 028b 14       		.byte	0x14
 7124 028c D4020000 		.4byte	0x2d4
 7125 0290 58       		.byte	0x58
 7126 0291 00       		.byte	0
 7127 0292 0A       		.uleb128 0xa
 7128 0293 D1010000 		.4byte	0x1d1
 7129 0297 A2020000 		.4byte	0x2a2
 7130 029b 0B       		.uleb128 0xb
 7131 029c B1000000 		.4byte	0xb1
 7132 02a0 40       		.byte	0x40
 7133 02a1 00       		.byte	0
 7134 02a2 03       		.uleb128 0x3
 7135 02a3 01       		.byte	0x1
 7136 02a4 02       		.byte	0x2
 7137 02a5 29010000 		.4byte	.LASF50
 7138 02a9 12       		.uleb128 0x12
 7139 02aa 32000000 		.4byte	.LASF52
 7140 02ae 08       		.byte	0x8
 7141 02af 08       		.byte	0x8
 7142 02b0 25       		.byte	0x25
 7143 02b1 CE020000 		.4byte	0x2ce
 7144 02b5 0D       		.uleb128 0xd
ARM GAS  C:\Users\Moi\AppData\Local\Temp\ccF5N8ze.s 			page 132


 7145 02b6 501E0000 		.4byte	.LASF53
 7146 02ba 08       		.byte	0x8
 7147 02bb 26       		.byte	0x26
 7148 02bc 74030000 		.4byte	0x374
 7149 02c0 00       		.byte	0
 7150 02c1 0D       		.uleb128 0xd
 7151 02c2 70020000 		.4byte	.LASF49
 7152 02c6 08       		.byte	0x8
 7153 02c7 27       		.byte	0x27
 7154 02c8 CE020000 		.4byte	0x2ce
 7155 02cc 04       		.byte	0x4
 7156 02cd 00       		.byte	0
 7157 02ce 05       		.uleb128 0x5
 7158 02cf 04       		.byte	0x4
 7159 02d0 A9020000 		.4byte	0x2a9
 7160 02d4 05       		.uleb128 0x5
 7161 02d5 04       		.byte	0x4
 7162 02d6 25020000 		.4byte	0x225
 7163 02da 02       		.uleb128 0x2
 7164 02db 6B170000 		.4byte	.LASF54
 7165 02df 08       		.byte	0x8
 7166 02e0 15       		.byte	0x15
 7167 02e1 25020000 		.4byte	0x225
 7168 02e5 0C       		.uleb128 0xc
 7169 02e6 04       		.byte	0x4
 7170 02e7 08       		.byte	0x8
 7171 02e8 18       		.byte	0x18
 7172 02e9 FA020000 		.4byte	0x2fa
 7173 02ed 0D       		.uleb128 0xd
 7174 02ee E31E0000 		.4byte	.LASF55
 7175 02f2 08       		.byte	0x8
 7176 02f3 19       		.byte	0x19
 7177 02f4 FA020000 		.4byte	0x2fa
 7178 02f8 00       		.byte	0
 7179 02f9 00       		.byte	0
 7180 02fa 05       		.uleb128 0x5
 7181 02fb 04       		.byte	0x4
 7182 02fc DA020000 		.4byte	0x2da
 7183 0300 0C       		.uleb128 0xc
 7184 0301 0C       		.byte	0xc
 7185 0302 08       		.byte	0x8
 7186 0303 17       		.byte	0x17
 7187 0304 2D030000 		.4byte	0x32d
 7188 0308 0D       		.uleb128 0xd
 7189 0309 5D200000 		.4byte	.LASF56
 7190 030d 08       		.byte	0x8
 7191 030e 1A       		.byte	0x1a
 7192 030f E5020000 		.4byte	0x2e5
 7193 0313 00       		.byte	0
 7194 0314 0D       		.uleb128 0xd
 7195 0315 171B0000 		.4byte	.LASF44
 7196 0319 08       		.byte	0x8
 7197 031a 1B       		.byte	0x1b
 7198 031b 68010000 		.4byte	0x168
 7199 031f 04       		.byte	0x4
 7200 0320 0D       		.uleb128 0xd
 7201 0321 E2060000 		.4byte	.LASF45
ARM GAS  C:\Users\Moi\AppData\Local\Temp\ccF5N8ze.s 			page 133


 7202 0325 08       		.byte	0x8
 7203 0326 1C       		.byte	0x1c
 7204 0327 68010000 		.4byte	0x168
 7205 032b 08       		.byte	0x8
 7206 032c 00       		.byte	0
 7207 032d 02       		.uleb128 0x2
 7208 032e B20F0000 		.4byte	.LASF57
 7209 0332 08       		.byte	0x8
 7210 0333 1D       		.byte	0x1d
 7211 0334 00030000 		.4byte	0x300
 7212 0338 12       		.uleb128 0x12
 7213 0339 DC1A0000 		.4byte	.LASF58
 7214 033d 0C       		.byte	0xc
 7215 033e 08       		.byte	0x8
 7216 033f 1F       		.byte	0x1f
 7217 0340 69030000 		.4byte	0x369
 7218 0344 0D       		.uleb128 0xd
 7219 0345 171B0000 		.4byte	.LASF44
 7220 0349 08       		.byte	0x8
 7221 034a 20       		.byte	0x20
 7222 034b 68010000 		.4byte	0x168
 7223 034f 00       		.byte	0
 7224 0350 0D       		.uleb128 0xd
 7225 0351 E2060000 		.4byte	.LASF45
 7226 0355 08       		.byte	0x8
 7227 0356 21       		.byte	0x21
 7228 0357 68010000 		.4byte	0x168
 7229 035b 04       		.byte	0x4
 7230 035c 0D       		.uleb128 0xd
 7231 035d E1250000 		.4byte	.LASF59
 7232 0361 08       		.byte	0x8
 7233 0362 22       		.byte	0x22
 7234 0363 FA020000 		.4byte	0x2fa
 7235 0367 08       		.byte	0x8
 7236 0368 00       		.byte	0
 7237 0369 02       		.uleb128 0x2
 7238 036a F41A0000 		.4byte	.LASF60
 7239 036e 08       		.byte	0x8
 7240 036f 23       		.byte	0x23
 7241 0370 38030000 		.4byte	0x338
 7242 0374 05       		.uleb128 0x5
 7243 0375 04       		.byte	0x4
 7244 0376 69030000 		.4byte	0x369
 7245 037a 02       		.uleb128 0x2
 7246 037b 19130000 		.4byte	.LASF61
 7247 037f 09       		.byte	0x9
 7248 0380 16       		.byte	0x16
 7249 0381 8A000000 		.4byte	0x8a
 7250 0385 12       		.uleb128 0x12
 7251 0386 011A0000 		.4byte	.LASF62
 7252 038a 18       		.byte	0x18
 7253 038b 09       		.byte	0x9
 7254 038c 2F       		.byte	0x2f
 7255 038d D8030000 		.4byte	0x3d8
 7256 0391 0D       		.uleb128 0xd
 7257 0392 B0100000 		.4byte	.LASF63
 7258 0396 09       		.byte	0x9
ARM GAS  C:\Users\Moi\AppData\Local\Temp\ccF5N8ze.s 			page 134


 7259 0397 31       		.byte	0x31
 7260 0398 D8030000 		.4byte	0x3d8
 7261 039c 00       		.byte	0
 7262 039d 13       		.uleb128 0x13
 7263 039e 5F6B00   		.ascii	"_k\000"
 7264 03a1 09       		.byte	0x9
 7265 03a2 32       		.byte	0x32
 7266 03a3 AA000000 		.4byte	0xaa
 7267 03a7 04       		.byte	0x4
 7268 03a8 0D       		.uleb128 0xd
 7269 03a9 2A180000 		.4byte	.LASF64
 7270 03ad 09       		.byte	0x9
 7271 03ae 32       		.byte	0x32
 7272 03af AA000000 		.4byte	0xaa
 7273 03b3 08       		.byte	0x8
 7274 03b4 0D       		.uleb128 0xd
 7275 03b5 59240000 		.4byte	.LASF65
 7276 03b9 09       		.byte	0x9
 7277 03ba 32       		.byte	0x32
 7278 03bb AA000000 		.4byte	0xaa
 7279 03bf 0C       		.byte	0xc
 7280 03c0 0D       		.uleb128 0xd
 7281 03c1 0F0A0000 		.4byte	.LASF66
 7282 03c5 09       		.byte	0x9
 7283 03c6 32       		.byte	0x32
 7284 03c7 AA000000 		.4byte	0xaa
 7285 03cb 10       		.byte	0x10
 7286 03cc 13       		.uleb128 0x13
 7287 03cd 5F7800   		.ascii	"_x\000"
 7288 03d0 09       		.byte	0x9
 7289 03d1 33       		.byte	0x33
 7290 03d2 DE030000 		.4byte	0x3de
 7291 03d6 14       		.byte	0x14
 7292 03d7 00       		.byte	0
 7293 03d8 05       		.uleb128 0x5
 7294 03d9 04       		.byte	0x4
 7295 03da 85030000 		.4byte	0x385
 7296 03de 0A       		.uleb128 0xa
 7297 03df 7A030000 		.4byte	0x37a
 7298 03e3 EE030000 		.4byte	0x3ee
 7299 03e7 0B       		.uleb128 0xb
 7300 03e8 B1000000 		.4byte	0xb1
 7301 03ec 00       		.byte	0
 7302 03ed 00       		.byte	0
 7303 03ee 12       		.uleb128 0x12
 7304 03ef F9060000 		.4byte	.LASF67
 7305 03f3 24       		.byte	0x24
 7306 03f4 09       		.byte	0x9
 7307 03f5 37       		.byte	0x37
 7308 03f6 67040000 		.4byte	0x467
 7309 03fa 0D       		.uleb128 0xd
 7310 03fb F7110000 		.4byte	.LASF68
 7311 03ff 09       		.byte	0x9
 7312 0400 39       		.byte	0x39
 7313 0401 AA000000 		.4byte	0xaa
 7314 0405 00       		.byte	0
 7315 0406 0D       		.uleb128 0xd
ARM GAS  C:\Users\Moi\AppData\Local\Temp\ccF5N8ze.s 			page 135


 7316 0407 71240000 		.4byte	.LASF69
 7317 040b 09       		.byte	0x9
 7318 040c 3A       		.byte	0x3a
 7319 040d AA000000 		.4byte	0xaa
 7320 0411 04       		.byte	0x4
 7321 0412 0D       		.uleb128 0xd
 7322 0413 EF0E0000 		.4byte	.LASF70
 7323 0417 09       		.byte	0x9
 7324 0418 3B       		.byte	0x3b
 7325 0419 AA000000 		.4byte	0xaa
 7326 041d 08       		.byte	0x8
 7327 041e 0D       		.uleb128 0xd
 7328 041f 2D090000 		.4byte	.LASF71
 7329 0423 09       		.byte	0x9
 7330 0424 3C       		.byte	0x3c
 7331 0425 AA000000 		.4byte	0xaa
 7332 0429 0C       		.byte	0xc
 7333 042a 0D       		.uleb128 0xd
 7334 042b C9010000 		.4byte	.LASF72
 7335 042f 09       		.byte	0x9
 7336 0430 3D       		.byte	0x3d
 7337 0431 AA000000 		.4byte	0xaa
 7338 0435 10       		.byte	0x10
 7339 0436 0D       		.uleb128 0xd
 7340 0437 4E0B0000 		.4byte	.LASF73
 7341 043b 09       		.byte	0x9
 7342 043c 3E       		.byte	0x3e
 7343 043d AA000000 		.4byte	0xaa
 7344 0441 14       		.byte	0x14
 7345 0442 0D       		.uleb128 0xd
 7346 0443 23090000 		.4byte	.LASF74
 7347 0447 09       		.byte	0x9
 7348 0448 3F       		.byte	0x3f
 7349 0449 AA000000 		.4byte	0xaa
 7350 044d 18       		.byte	0x18
 7351 044e 0D       		.uleb128 0xd
 7352 044f 62070000 		.4byte	.LASF75
 7353 0453 09       		.byte	0x9
 7354 0454 40       		.byte	0x40
 7355 0455 AA000000 		.4byte	0xaa
 7356 0459 1C       		.byte	0x1c
 7357 045a 0D       		.uleb128 0xd
 7358 045b 8C250000 		.4byte	.LASF76
 7359 045f 09       		.byte	0x9
 7360 0460 41       		.byte	0x41
 7361 0461 AA000000 		.4byte	0xaa
 7362 0465 20       		.byte	0x20
 7363 0466 00       		.byte	0
 7364 0467 14       		.uleb128 0x14
 7365 0468 18120000 		.4byte	.LASF77
 7366 046c 0801     		.2byte	0x108
 7367 046e 09       		.byte	0x9
 7368 046f 4A       		.byte	0x4a
 7369 0470 A7040000 		.4byte	0x4a7
 7370 0474 0D       		.uleb128 0xd
 7371 0475 1A100000 		.4byte	.LASF78
 7372 0479 09       		.byte	0x9
ARM GAS  C:\Users\Moi\AppData\Local\Temp\ccF5N8ze.s 			page 136


 7373 047a 4B       		.byte	0x4b
 7374 047b A7040000 		.4byte	0x4a7
 7375 047f 00       		.byte	0
 7376 0480 0D       		.uleb128 0xd
 7377 0481 E0080000 		.4byte	.LASF79
 7378 0485 09       		.byte	0x9
 7379 0486 4C       		.byte	0x4c
 7380 0487 A7040000 		.4byte	0x4a7
 7381 048b 80       		.byte	0x80
 7382 048c 15       		.uleb128 0x15
 7383 048d D2010000 		.4byte	.LASF80
 7384 0491 09       		.byte	0x9
 7385 0492 4E       		.byte	0x4e
 7386 0493 7A030000 		.4byte	0x37a
 7387 0497 0001     		.2byte	0x100
 7388 0499 15       		.uleb128 0x15
 7389 049a DB1E0000 		.4byte	.LASF81
 7390 049e 09       		.byte	0x9
 7391 049f 51       		.byte	0x51
 7392 04a0 7A030000 		.4byte	0x37a
 7393 04a4 0401     		.2byte	0x104
 7394 04a6 00       		.byte	0
 7395 04a7 0A       		.uleb128 0xa
 7396 04a8 68010000 		.4byte	0x168
 7397 04ac B7040000 		.4byte	0x4b7
 7398 04b0 0B       		.uleb128 0xb
 7399 04b1 B1000000 		.4byte	0xb1
 7400 04b5 1F       		.byte	0x1f
 7401 04b6 00       		.byte	0
 7402 04b7 14       		.uleb128 0x14
 7403 04b8 47010000 		.4byte	.LASF82
 7404 04bc 9001     		.2byte	0x190
 7405 04be 09       		.byte	0x9
 7406 04bf 5D       		.byte	0x5d
 7407 04c0 F5040000 		.4byte	0x4f5
 7408 04c4 0D       		.uleb128 0xd
 7409 04c5 B0100000 		.4byte	.LASF63
 7410 04c9 09       		.byte	0x9
 7411 04ca 5E       		.byte	0x5e
 7412 04cb F5040000 		.4byte	0x4f5
 7413 04cf 00       		.byte	0
 7414 04d0 0D       		.uleb128 0xd
 7415 04d1 EE010000 		.4byte	.LASF83
 7416 04d5 09       		.byte	0x9
 7417 04d6 5F       		.byte	0x5f
 7418 04d7 AA000000 		.4byte	0xaa
 7419 04db 04       		.byte	0x4
 7420 04dc 0D       		.uleb128 0xd
 7421 04dd A41C0000 		.4byte	.LASF84
 7422 04e1 09       		.byte	0x9
 7423 04e2 61       		.byte	0x61
 7424 04e3 FB040000 		.4byte	0x4fb
 7425 04e7 08       		.byte	0x8
 7426 04e8 0D       		.uleb128 0xd
 7427 04e9 18120000 		.4byte	.LASF77
 7428 04ed 09       		.byte	0x9
 7429 04ee 62       		.byte	0x62
ARM GAS  C:\Users\Moi\AppData\Local\Temp\ccF5N8ze.s 			page 137


 7430 04ef 67040000 		.4byte	0x467
 7431 04f3 88       		.byte	0x88
 7432 04f4 00       		.byte	0
 7433 04f5 05       		.uleb128 0x5
 7434 04f6 04       		.byte	0x4
 7435 04f7 B7040000 		.4byte	0x4b7
 7436 04fb 0A       		.uleb128 0xa
 7437 04fc 0B050000 		.4byte	0x50b
 7438 0500 0B050000 		.4byte	0x50b
 7439 0504 0B       		.uleb128 0xb
 7440 0505 B1000000 		.4byte	0xb1
 7441 0509 1F       		.byte	0x1f
 7442 050a 00       		.byte	0
 7443 050b 05       		.uleb128 0x5
 7444 050c 04       		.byte	0x4
 7445 050d 11050000 		.4byte	0x511
 7446 0511 16       		.uleb128 0x16
 7447 0512 12       		.uleb128 0x12
 7448 0513 B4150000 		.4byte	.LASF85
 7449 0517 08       		.byte	0x8
 7450 0518 09       		.byte	0x9
 7451 0519 75       		.byte	0x75
 7452 051a 37050000 		.4byte	0x537
 7453 051e 0D       		.uleb128 0xd
 7454 051f 66060000 		.4byte	.LASF86
 7455 0523 09       		.byte	0x9
 7456 0524 76       		.byte	0x76
 7457 0525 37050000 		.4byte	0x537
 7458 0529 00       		.byte	0
 7459 052a 0D       		.uleb128 0xd
 7460 052b 4C0A0000 		.4byte	.LASF87
 7461 052f 09       		.byte	0x9
 7462 0530 77       		.byte	0x77
 7463 0531 AA000000 		.4byte	0xaa
 7464 0535 04       		.byte	0x4
 7465 0536 00       		.byte	0
 7466 0537 05       		.uleb128 0x5
 7467 0538 04       		.byte	0x4
 7468 0539 42000000 		.4byte	0x42
 7469 053d 12       		.uleb128 0x12
 7470 053e 9C1C0000 		.4byte	.LASF88
 7471 0542 68       		.byte	0x68
 7472 0543 09       		.byte	0x9
 7473 0544 B5       		.byte	0xb5
 7474 0545 67060000 		.4byte	0x667
 7475 0549 13       		.uleb128 0x13
 7476 054a 5F7000   		.ascii	"_p\000"
 7477 054d 09       		.byte	0x9
 7478 054e B6       		.byte	0xb6
 7479 054f 37050000 		.4byte	0x537
 7480 0553 00       		.byte	0
 7481 0554 13       		.uleb128 0x13
 7482 0555 5F7200   		.ascii	"_r\000"
 7483 0558 09       		.byte	0x9
 7484 0559 B7       		.byte	0xb7
 7485 055a AA000000 		.4byte	0xaa
 7486 055e 04       		.byte	0x4
ARM GAS  C:\Users\Moi\AppData\Local\Temp\ccF5N8ze.s 			page 138


 7487 055f 13       		.uleb128 0x13
 7488 0560 5F7700   		.ascii	"_w\000"
 7489 0563 09       		.byte	0x9
 7490 0564 B8       		.byte	0xb8
 7491 0565 AA000000 		.4byte	0xaa
 7492 0569 08       		.byte	0x8
 7493 056a 0D       		.uleb128 0xd
 7494 056b 69020000 		.4byte	.LASF89
 7495 056f 09       		.byte	0x9
 7496 0570 B9       		.byte	0xb9
 7497 0571 54000000 		.4byte	0x54
 7498 0575 0C       		.byte	0xc
 7499 0576 0D       		.uleb128 0xd
 7500 0577 581C0000 		.4byte	.LASF90
 7501 057b 09       		.byte	0x9
 7502 057c BA       		.byte	0xba
 7503 057d 54000000 		.4byte	0x54
 7504 0581 0E       		.byte	0xe
 7505 0582 13       		.uleb128 0x13
 7506 0583 5F626600 		.ascii	"_bf\000"
 7507 0587 09       		.byte	0x9
 7508 0588 BB       		.byte	0xbb
 7509 0589 12050000 		.4byte	0x512
 7510 058d 10       		.byte	0x10
 7511 058e 0D       		.uleb128 0xd
 7512 058f AD040000 		.4byte	.LASF91
 7513 0593 09       		.byte	0x9
 7514 0594 BC       		.byte	0xbc
 7515 0595 AA000000 		.4byte	0xaa
 7516 0599 18       		.byte	0x18
 7517 059a 0D       		.uleb128 0xd
 7518 059b 0D110000 		.4byte	.LASF92
 7519 059f 09       		.byte	0x9
 7520 05a0 C3       		.byte	0xc3
 7521 05a1 68010000 		.4byte	0x168
 7522 05a5 1C       		.byte	0x1c
 7523 05a6 0D       		.uleb128 0xd
 7524 05a7 4D250000 		.4byte	.LASF93
 7525 05ab 09       		.byte	0x9
 7526 05ac C5       		.byte	0xc5
 7527 05ad C2070000 		.4byte	0x7c2
 7528 05b1 20       		.byte	0x20
 7529 05b2 0D       		.uleb128 0xd
 7530 05b3 AA0A0000 		.4byte	.LASF94
 7531 05b7 09       		.byte	0x9
 7532 05b8 C7       		.byte	0xc7
 7533 05b9 F1070000 		.4byte	0x7f1
 7534 05bd 24       		.byte	0x24
 7535 05be 0D       		.uleb128 0xd
 7536 05bf 06140000 		.4byte	.LASF95
 7537 05c3 09       		.byte	0x9
 7538 05c4 CA       		.byte	0xca
 7539 05c5 15080000 		.4byte	0x815
 7540 05c9 28       		.byte	0x28
 7541 05ca 0D       		.uleb128 0xd
 7542 05cb 2E190000 		.4byte	.LASF96
 7543 05cf 09       		.byte	0x9
ARM GAS  C:\Users\Moi\AppData\Local\Temp\ccF5N8ze.s 			page 139


 7544 05d0 CB       		.byte	0xcb
 7545 05d1 2F080000 		.4byte	0x82f
 7546 05d5 2C       		.byte	0x2c
 7547 05d6 13       		.uleb128 0x13
 7548 05d7 5F756200 		.ascii	"_ub\000"
 7549 05db 09       		.byte	0x9
 7550 05dc CE       		.byte	0xce
 7551 05dd 12050000 		.4byte	0x512
 7552 05e1 30       		.byte	0x30
 7553 05e2 13       		.uleb128 0x13
 7554 05e3 5F757000 		.ascii	"_up\000"
 7555 05e7 09       		.byte	0x9
 7556 05e8 CF       		.byte	0xcf
 7557 05e9 37050000 		.4byte	0x537
 7558 05ed 38       		.byte	0x38
 7559 05ee 13       		.uleb128 0x13
 7560 05ef 5F757200 		.ascii	"_ur\000"
 7561 05f3 09       		.byte	0x9
 7562 05f4 D0       		.byte	0xd0
 7563 05f5 AA000000 		.4byte	0xaa
 7564 05f9 3C       		.byte	0x3c
 7565 05fa 0D       		.uleb128 0xd
 7566 05fb 9C1B0000 		.4byte	.LASF97
 7567 05ff 09       		.byte	0x9
 7568 0600 D3       		.byte	0xd3
 7569 0601 35080000 		.4byte	0x835
 7570 0605 40       		.byte	0x40
 7571 0606 0D       		.uleb128 0xd
 7572 0607 1E030000 		.4byte	.LASF98
 7573 060b 09       		.byte	0x9
 7574 060c D4       		.byte	0xd4
 7575 060d 45080000 		.4byte	0x845
 7576 0611 43       		.byte	0x43
 7577 0612 13       		.uleb128 0x13
 7578 0613 5F6C6200 		.ascii	"_lb\000"
 7579 0617 09       		.byte	0x9
 7580 0618 D7       		.byte	0xd7
 7581 0619 12050000 		.4byte	0x512
 7582 061d 44       		.byte	0x44
 7583 061e 0D       		.uleb128 0xd
 7584 061f 8A1B0000 		.4byte	.LASF99
 7585 0623 09       		.byte	0x9
 7586 0624 DA       		.byte	0xda
 7587 0625 AA000000 		.4byte	0xaa
 7588 0629 4C       		.byte	0x4c
 7589 062a 0D       		.uleb128 0xd
 7590 062b 52150000 		.4byte	.LASF100
 7591 062f 09       		.byte	0x9
 7592 0630 DB       		.byte	0xdb
 7593 0631 E0000000 		.4byte	0xe0
 7594 0635 50       		.byte	0x50
 7595 0636 0D       		.uleb128 0xd
 7596 0637 3E050000 		.4byte	.LASF101
 7597 063b 09       		.byte	0x9
 7598 063c DE       		.byte	0xde
 7599 063d 85060000 		.4byte	0x685
 7600 0641 54       		.byte	0x54
ARM GAS  C:\Users\Moi\AppData\Local\Temp\ccF5N8ze.s 			page 140


 7601 0642 0D       		.uleb128 0xd
 7602 0643 18030000 		.4byte	.LASF102
 7603 0647 09       		.byte	0x9
 7604 0648 E2       		.byte	0xe2
 7605 0649 5D010000 		.4byte	0x15d
 7606 064d 58       		.byte	0x58
 7607 064e 0D       		.uleb128 0xd
 7608 064f 3E010000 		.4byte	.LASF103
 7609 0653 09       		.byte	0x9
 7610 0654 E4       		.byte	0xe4
 7611 0655 52010000 		.4byte	0x152
 7612 0659 5C       		.byte	0x5c
 7613 065a 0D       		.uleb128 0xd
 7614 065b CC220000 		.4byte	.LASF104
 7615 065f 09       		.byte	0x9
 7616 0660 E5       		.byte	0xe5
 7617 0661 AA000000 		.4byte	0xaa
 7618 0665 64       		.byte	0x64
 7619 0666 00       		.byte	0
 7620 0667 17       		.uleb128 0x17
 7621 0668 AA000000 		.4byte	0xaa
 7622 066c 85060000 		.4byte	0x685
 7623 0670 18       		.uleb128 0x18
 7624 0671 85060000 		.4byte	0x685
 7625 0675 18       		.uleb128 0x18
 7626 0676 68010000 		.4byte	0x168
 7627 067a 18       		.uleb128 0x18
 7628 067b CB010000 		.4byte	0x1cb
 7629 067f 18       		.uleb128 0x18
 7630 0680 AA000000 		.4byte	0xaa
 7631 0684 00       		.byte	0
 7632 0685 05       		.uleb128 0x5
 7633 0686 04       		.byte	0x4
 7634 0687 90060000 		.4byte	0x690
 7635 068b 0F       		.uleb128 0xf
 7636 068c 85060000 		.4byte	0x685
 7637 0690 19       		.uleb128 0x19
 7638 0691 08060000 		.4byte	.LASF105
 7639 0695 2804     		.2byte	0x428
 7640 0697 09       		.byte	0x9
 7641 0698 3902     		.2byte	0x239
 7642 069a C2070000 		.4byte	0x7c2
 7643 069e 1A       		.uleb128 0x1a
 7644 069f AB0F0000 		.4byte	.LASF106
 7645 06a3 09       		.byte	0x9
 7646 06a4 3B02     		.2byte	0x23b
 7647 06a6 AA000000 		.4byte	0xaa
 7648 06aa 00       		.byte	0
 7649 06ab 1A       		.uleb128 0x1a
 7650 06ac 590C0000 		.4byte	.LASF107
 7651 06b0 09       		.byte	0x9
 7652 06b1 4002     		.2byte	0x240
 7653 06b3 9C080000 		.4byte	0x89c
 7654 06b7 04       		.byte	0x4
 7655 06b8 1A       		.uleb128 0x1a
 7656 06b9 A8090000 		.4byte	.LASF108
 7657 06bd 09       		.byte	0x9
ARM GAS  C:\Users\Moi\AppData\Local\Temp\ccF5N8ze.s 			page 141


 7658 06be 4002     		.2byte	0x240
 7659 06c0 9C080000 		.4byte	0x89c
 7660 06c4 08       		.byte	0x8
 7661 06c5 1A       		.uleb128 0x1a
 7662 06c6 C0080000 		.4byte	.LASF109
 7663 06ca 09       		.byte	0x9
 7664 06cb 4002     		.2byte	0x240
 7665 06cd 9C080000 		.4byte	0x89c
 7666 06d1 0C       		.byte	0xc
 7667 06d2 1A       		.uleb128 0x1a
 7668 06d3 E9010000 		.4byte	.LASF110
 7669 06d7 09       		.byte	0x9
 7670 06d8 4202     		.2byte	0x242
 7671 06da AA000000 		.4byte	0xaa
 7672 06de 10       		.byte	0x10
 7673 06df 1A       		.uleb128 0x1a
 7674 06e0 AE170000 		.4byte	.LASF111
 7675 06e4 09       		.byte	0x9
 7676 06e5 4302     		.2byte	0x243
 7677 06e7 7E0A0000 		.4byte	0xa7e
 7678 06eb 14       		.byte	0x14
 7679 06ec 1A       		.uleb128 0x1a
 7680 06ed 37210000 		.4byte	.LASF112
 7681 06f1 09       		.byte	0x9
 7682 06f2 4602     		.2byte	0x246
 7683 06f4 AA000000 		.4byte	0xaa
 7684 06f8 30       		.byte	0x30
 7685 06f9 1A       		.uleb128 0x1a
 7686 06fa 0D230000 		.4byte	.LASF113
 7687 06fe 09       		.byte	0x9
 7688 06ff 4702     		.2byte	0x247
 7689 0701 930A0000 		.4byte	0xa93
 7690 0705 34       		.byte	0x34
 7691 0706 1A       		.uleb128 0x1a
 7692 0707 9B210000 		.4byte	.LASF114
 7693 070b 09       		.byte	0x9
 7694 070c 4902     		.2byte	0x249
 7695 070e AA000000 		.4byte	0xaa
 7696 0712 38       		.byte	0x38
 7697 0713 1A       		.uleb128 0x1a
 7698 0714 DF1B0000 		.4byte	.LASF115
 7699 0718 09       		.byte	0x9
 7700 0719 4B02     		.2byte	0x24b
 7701 071b A40A0000 		.4byte	0xaa4
 7702 071f 3C       		.byte	0x3c
 7703 0720 1A       		.uleb128 0x1a
 7704 0721 C8080000 		.4byte	.LASF116
 7705 0725 09       		.byte	0x9
 7706 0726 4E02     		.2byte	0x24e
 7707 0728 D8030000 		.4byte	0x3d8
 7708 072c 40       		.byte	0x40
 7709 072d 1A       		.uleb128 0x1a
 7710 072e B1080000 		.4byte	.LASF117
 7711 0732 09       		.byte	0x9
 7712 0733 4F02     		.2byte	0x24f
 7713 0735 AA000000 		.4byte	0xaa
 7714 0739 44       		.byte	0x44
ARM GAS  C:\Users\Moi\AppData\Local\Temp\ccF5N8ze.s 			page 142


 7715 073a 1A       		.uleb128 0x1a
 7716 073b 0E1F0000 		.4byte	.LASF118
 7717 073f 09       		.byte	0x9
 7718 0740 5002     		.2byte	0x250
 7719 0742 D8030000 		.4byte	0x3d8
 7720 0746 48       		.byte	0x48
 7721 0747 1A       		.uleb128 0x1a
 7722 0748 1F150000 		.4byte	.LASF119
 7723 074c 09       		.byte	0x9
 7724 074d 5102     		.2byte	0x251
 7725 074f AA0A0000 		.4byte	0xaaa
 7726 0753 4C       		.byte	0x4c
 7727 0754 1A       		.uleb128 0x1a
 7728 0755 AA020000 		.4byte	.LASF120
 7729 0759 09       		.byte	0x9
 7730 075a 5402     		.2byte	0x254
 7731 075c AA000000 		.4byte	0xaa
 7732 0760 50       		.byte	0x50
 7733 0761 1A       		.uleb128 0x1a
 7734 0762 270E0000 		.4byte	.LASF121
 7735 0766 09       		.byte	0x9
 7736 0767 5502     		.2byte	0x255
 7737 0769 CB010000 		.4byte	0x1cb
 7738 076d 54       		.byte	0x54
 7739 076e 1A       		.uleb128 0x1a
 7740 076f 350F0000 		.4byte	.LASF122
 7741 0773 09       		.byte	0x9
 7742 0774 7802     		.2byte	0x278
 7743 0776 5C0A0000 		.4byte	0xa5c
 7744 077a 58       		.byte	0x58
 7745 077b 1B       		.uleb128 0x1b
 7746 077c 47010000 		.4byte	.LASF82
 7747 0780 09       		.byte	0x9
 7748 0781 7C02     		.2byte	0x27c
 7749 0783 F5040000 		.4byte	0x4f5
 7750 0787 4801     		.2byte	0x148
 7751 0789 1B       		.uleb128 0x1b
 7752 078a 4C1A0000 		.4byte	.LASF123
 7753 078e 09       		.byte	0x9
 7754 078f 7D02     		.2byte	0x27d
 7755 0791 B7040000 		.4byte	0x4b7
 7756 0795 4C01     		.2byte	0x14c
 7757 0797 1B       		.uleb128 0x1b
 7758 0798 D8020000 		.4byte	.LASF124
 7759 079c 09       		.byte	0x9
 7760 079d 8102     		.2byte	0x281
 7761 079f BB0A0000 		.4byte	0xabb
 7762 07a3 DC02     		.2byte	0x2dc
 7763 07a5 1B       		.uleb128 0x1b
 7764 07a6 BD1B0000 		.4byte	.LASF125
 7765 07aa 09       		.byte	0x9
 7766 07ab 8602     		.2byte	0x286
 7767 07ad 61080000 		.4byte	0x861
 7768 07b1 E002     		.2byte	0x2e0
 7769 07b3 1B       		.uleb128 0x1b
 7770 07b4 4F060000 		.4byte	.LASF126
 7771 07b8 09       		.byte	0x9
ARM GAS  C:\Users\Moi\AppData\Local\Temp\ccF5N8ze.s 			page 143


 7772 07b9 8802     		.2byte	0x288
 7773 07bb C70A0000 		.4byte	0xac7
 7774 07bf EC02     		.2byte	0x2ec
 7775 07c1 00       		.byte	0
 7776 07c2 05       		.uleb128 0x5
 7777 07c3 04       		.byte	0x4
 7778 07c4 67060000 		.4byte	0x667
 7779 07c8 17       		.uleb128 0x17
 7780 07c9 AA000000 		.4byte	0xaa
 7781 07cd E6070000 		.4byte	0x7e6
 7782 07d1 18       		.uleb128 0x18
 7783 07d2 85060000 		.4byte	0x685
 7784 07d6 18       		.uleb128 0x18
 7785 07d7 68010000 		.4byte	0x168
 7786 07db 18       		.uleb128 0x18
 7787 07dc E6070000 		.4byte	0x7e6
 7788 07e0 18       		.uleb128 0x18
 7789 07e1 AA000000 		.4byte	0xaa
 7790 07e5 00       		.byte	0
 7791 07e6 05       		.uleb128 0x5
 7792 07e7 04       		.byte	0x4
 7793 07e8 D8010000 		.4byte	0x1d8
 7794 07ec 10       		.uleb128 0x10
 7795 07ed E6070000 		.4byte	0x7e6
 7796 07f1 05       		.uleb128 0x5
 7797 07f2 04       		.byte	0x4
 7798 07f3 C8070000 		.4byte	0x7c8
 7799 07f7 17       		.uleb128 0x17
 7800 07f8 EB000000 		.4byte	0xeb
 7801 07fc 15080000 		.4byte	0x815
 7802 0800 18       		.uleb128 0x18
 7803 0801 85060000 		.4byte	0x685
 7804 0805 18       		.uleb128 0x18
 7805 0806 68010000 		.4byte	0x168
 7806 080a 18       		.uleb128 0x18
 7807 080b EB000000 		.4byte	0xeb
 7808 080f 18       		.uleb128 0x18
 7809 0810 AA000000 		.4byte	0xaa
 7810 0814 00       		.byte	0
 7811 0815 05       		.uleb128 0x5
 7812 0816 04       		.byte	0x4
 7813 0817 F7070000 		.4byte	0x7f7
 7814 081b 17       		.uleb128 0x17
 7815 081c AA000000 		.4byte	0xaa
 7816 0820 2F080000 		.4byte	0x82f
 7817 0824 18       		.uleb128 0x18
 7818 0825 85060000 		.4byte	0x685
 7819 0829 18       		.uleb128 0x18
 7820 082a 68010000 		.4byte	0x168
 7821 082e 00       		.byte	0
 7822 082f 05       		.uleb128 0x5
 7823 0830 04       		.byte	0x4
 7824 0831 1B080000 		.4byte	0x81b
 7825 0835 0A       		.uleb128 0xa
 7826 0836 42000000 		.4byte	0x42
 7827 083a 45080000 		.4byte	0x845
 7828 083e 0B       		.uleb128 0xb
ARM GAS  C:\Users\Moi\AppData\Local\Temp\ccF5N8ze.s 			page 144


 7829 083f B1000000 		.4byte	0xb1
 7830 0843 02       		.byte	0x2
 7831 0844 00       		.byte	0
 7832 0845 0A       		.uleb128 0xa
 7833 0846 42000000 		.4byte	0x42
 7834 084a 55080000 		.4byte	0x855
 7835 084e 0B       		.uleb128 0xb
 7836 084f B1000000 		.4byte	0xb1
 7837 0853 00       		.byte	0
 7838 0854 00       		.byte	0
 7839 0855 07       		.uleb128 0x7
 7840 0856 48240000 		.4byte	.LASF127
 7841 085a 09       		.byte	0x9
 7842 085b 1F01     		.2byte	0x11f
 7843 085d 3D050000 		.4byte	0x53d
 7844 0861 1C       		.uleb128 0x1c
 7845 0862 6A190000 		.4byte	.LASF128
 7846 0866 0C       		.byte	0xc
 7847 0867 09       		.byte	0x9
 7848 0868 2301     		.2byte	0x123
 7849 086a 96080000 		.4byte	0x896
 7850 086e 1A       		.uleb128 0x1a
 7851 086f B0100000 		.4byte	.LASF63
 7852 0873 09       		.byte	0x9
 7853 0874 2501     		.2byte	0x125
 7854 0876 96080000 		.4byte	0x896
 7855 087a 00       		.byte	0
 7856 087b 1A       		.uleb128 0x1a
 7857 087c 640F0000 		.4byte	.LASF129
 7858 0880 09       		.byte	0x9
 7859 0881 2601     		.2byte	0x126
 7860 0883 AA000000 		.4byte	0xaa
 7861 0887 04       		.byte	0x4
 7862 0888 1A       		.uleb128 0x1a
 7863 0889 A8170000 		.4byte	.LASF130
 7864 088d 09       		.byte	0x9
 7865 088e 2701     		.2byte	0x127
 7866 0890 9C080000 		.4byte	0x89c
 7867 0894 08       		.byte	0x8
 7868 0895 00       		.byte	0
 7869 0896 05       		.uleb128 0x5
 7870 0897 04       		.byte	0x4
 7871 0898 61080000 		.4byte	0x861
 7872 089c 05       		.uleb128 0x5
 7873 089d 04       		.byte	0x4
 7874 089e 55080000 		.4byte	0x855
 7875 08a2 1C       		.uleb128 0x1c
 7876 08a3 78250000 		.4byte	.LASF131
 7877 08a7 0E       		.byte	0xe
 7878 08a8 09       		.byte	0x9
 7879 08a9 3F01     		.2byte	0x13f
 7880 08ab D7080000 		.4byte	0x8d7
 7881 08af 1A       		.uleb128 0x1a
 7882 08b0 F1130000 		.4byte	.LASF132
 7883 08b4 09       		.byte	0x9
 7884 08b5 4001     		.2byte	0x140
 7885 08b7 D7080000 		.4byte	0x8d7
ARM GAS  C:\Users\Moi\AppData\Local\Temp\ccF5N8ze.s 			page 145


 7886 08bb 00       		.byte	0
 7887 08bc 1A       		.uleb128 0x1a
 7888 08bd B50B0000 		.4byte	.LASF133
 7889 08c1 09       		.byte	0x9
 7890 08c2 4101     		.2byte	0x141
 7891 08c4 D7080000 		.4byte	0x8d7
 7892 08c8 06       		.byte	0x6
 7893 08c9 1A       		.uleb128 0x1a
 7894 08ca 2A040000 		.4byte	.LASF134
 7895 08ce 09       		.byte	0x9
 7896 08cf 4201     		.2byte	0x142
 7897 08d1 66000000 		.4byte	0x66
 7898 08d5 0C       		.byte	0xc
 7899 08d6 00       		.byte	0
 7900 08d7 0A       		.uleb128 0xa
 7901 08d8 66000000 		.4byte	0x66
 7902 08dc E7080000 		.4byte	0x8e7
 7903 08e0 0B       		.uleb128 0xb
 7904 08e1 B1000000 		.4byte	0xb1
 7905 08e5 02       		.byte	0x2
 7906 08e6 00       		.byte	0
 7907 08e7 1D       		.uleb128 0x1d
 7908 08e8 D0       		.byte	0xd0
 7909 08e9 09       		.byte	0x9
 7910 08ea 5902     		.2byte	0x259
 7911 08ec E8090000 		.4byte	0x9e8
 7912 08f0 1A       		.uleb128 0x1a
 7913 08f1 0C080000 		.4byte	.LASF135
 7914 08f5 09       		.byte	0x9
 7915 08f6 5B02     		.2byte	0x25b
 7916 08f8 B1000000 		.4byte	0xb1
 7917 08fc 00       		.byte	0
 7918 08fd 1A       		.uleb128 0x1a
 7919 08fe A7130000 		.4byte	.LASF136
 7920 0902 09       		.byte	0x9
 7921 0903 5C02     		.2byte	0x25c
 7922 0905 CB010000 		.4byte	0x1cb
 7923 0909 04       		.byte	0x4
 7924 090a 1A       		.uleb128 0x1a
 7925 090b 23160000 		.4byte	.LASF137
 7926 090f 09       		.byte	0x9
 7927 0910 5D02     		.2byte	0x25d
 7928 0912 E8090000 		.4byte	0x9e8
 7929 0916 08       		.byte	0x8
 7930 0917 1A       		.uleb128 0x1a
 7931 0918 420D0000 		.4byte	.LASF138
 7932 091c 09       		.byte	0x9
 7933 091d 5E02     		.2byte	0x25e
 7934 091f EE030000 		.4byte	0x3ee
 7935 0923 24       		.byte	0x24
 7936 0924 1A       		.uleb128 0x1a
 7937 0925 71200000 		.4byte	.LASF139
 7938 0929 09       		.byte	0x9
 7939 092a 5F02     		.2byte	0x25f
 7940 092c AA000000 		.4byte	0xaa
 7941 0930 48       		.byte	0x48
 7942 0931 1A       		.uleb128 0x1a
ARM GAS  C:\Users\Moi\AppData\Local\Temp\ccF5N8ze.s 			page 146


 7943 0932 E2170000 		.4byte	.LASF140
 7944 0936 09       		.byte	0x9
 7945 0937 6002     		.2byte	0x260
 7946 0939 A3000000 		.4byte	0xa3
 7947 093d 50       		.byte	0x50
 7948 093e 1A       		.uleb128 0x1a
 7949 093f E0240000 		.4byte	.LASF141
 7950 0943 09       		.byte	0x9
 7951 0944 6102     		.2byte	0x261
 7952 0946 A2080000 		.4byte	0x8a2
 7953 094a 58       		.byte	0x58
 7954 094b 1A       		.uleb128 0x1a
 7955 094c B01B0000 		.4byte	.LASF142
 7956 0950 09       		.byte	0x9
 7957 0951 6202     		.2byte	0x262
 7958 0953 52010000 		.4byte	0x152
 7959 0957 68       		.byte	0x68
 7960 0958 1A       		.uleb128 0x1a
 7961 0959 7E060000 		.4byte	.LASF143
 7962 095d 09       		.byte	0x9
 7963 095e 6302     		.2byte	0x263
 7964 0960 52010000 		.4byte	0x152
 7965 0964 70       		.byte	0x70
 7966 0965 1A       		.uleb128 0x1a
 7967 0966 2C170000 		.4byte	.LASF144
 7968 096a 09       		.byte	0x9
 7969 096b 6402     		.2byte	0x264
 7970 096d 52010000 		.4byte	0x152
 7971 0971 78       		.byte	0x78
 7972 0972 1A       		.uleb128 0x1a
 7973 0973 DC150000 		.4byte	.LASF145
 7974 0977 09       		.byte	0x9
 7975 0978 6502     		.2byte	0x265
 7976 097a F8090000 		.4byte	0x9f8
 7977 097e 80       		.byte	0x80
 7978 097f 1A       		.uleb128 0x1a
 7979 0980 E6100000 		.4byte	.LASF146
 7980 0984 09       		.byte	0x9
 7981 0985 6602     		.2byte	0x266
 7982 0987 080A0000 		.4byte	0xa08
 7983 098b 88       		.byte	0x88
 7984 098c 1A       		.uleb128 0x1a
 7985 098d 9D1A0000 		.4byte	.LASF147
 7986 0991 09       		.byte	0x9
 7987 0992 6702     		.2byte	0x267
 7988 0994 AA000000 		.4byte	0xaa
 7989 0998 A0       		.byte	0xa0
 7990 0999 1A       		.uleb128 0x1a
 7991 099a F90B0000 		.4byte	.LASF148
 7992 099e 09       		.byte	0x9
 7993 099f 6802     		.2byte	0x268
 7994 09a1 52010000 		.4byte	0x152
 7995 09a5 A4       		.byte	0xa4
 7996 09a6 1A       		.uleb128 0x1a
 7997 09a7 D50E0000 		.4byte	.LASF149
 7998 09ab 09       		.byte	0x9
 7999 09ac 6902     		.2byte	0x269
ARM GAS  C:\Users\Moi\AppData\Local\Temp\ccF5N8ze.s 			page 147


 8000 09ae 52010000 		.4byte	0x152
 8001 09b2 AC       		.byte	0xac
 8002 09b3 1A       		.uleb128 0x1a
 8003 09b4 F6090000 		.4byte	.LASF150
 8004 09b8 09       		.byte	0x9
 8005 09b9 6A02     		.2byte	0x26a
 8006 09bb 52010000 		.4byte	0x152
 8007 09bf B4       		.byte	0xb4
 8008 09c0 1A       		.uleb128 0x1a
 8009 09c1 8A120000 		.4byte	.LASF151
 8010 09c5 09       		.byte	0x9
 8011 09c6 6B02     		.2byte	0x26b
 8012 09c8 52010000 		.4byte	0x152
 8013 09cc BC       		.byte	0xbc
 8014 09cd 1A       		.uleb128 0x1a
 8015 09ce 7A160000 		.4byte	.LASF152
 8016 09d2 09       		.byte	0x9
 8017 09d3 6C02     		.2byte	0x26c
 8018 09d5 52010000 		.4byte	0x152
 8019 09d9 C4       		.byte	0xc4
 8020 09da 1A       		.uleb128 0x1a
 8021 09db E61C0000 		.4byte	.LASF153
 8022 09df 09       		.byte	0x9
 8023 09e0 6D02     		.2byte	0x26d
 8024 09e2 AA000000 		.4byte	0xaa
 8025 09e6 CC       		.byte	0xcc
 8026 09e7 00       		.byte	0
 8027 09e8 0A       		.uleb128 0xa
 8028 09e9 D1010000 		.4byte	0x1d1
 8029 09ed F8090000 		.4byte	0x9f8
 8030 09f1 0B       		.uleb128 0xb
 8031 09f2 B1000000 		.4byte	0xb1
 8032 09f6 19       		.byte	0x19
 8033 09f7 00       		.byte	0
 8034 09f8 0A       		.uleb128 0xa
 8035 09f9 D1010000 		.4byte	0x1d1
 8036 09fd 080A0000 		.4byte	0xa08
 8037 0a01 0B       		.uleb128 0xb
 8038 0a02 B1000000 		.4byte	0xb1
 8039 0a06 07       		.byte	0x7
 8040 0a07 00       		.byte	0
 8041 0a08 0A       		.uleb128 0xa
 8042 0a09 D1010000 		.4byte	0x1d1
 8043 0a0d 180A0000 		.4byte	0xa18
 8044 0a11 0B       		.uleb128 0xb
 8045 0a12 B1000000 		.4byte	0xb1
 8046 0a16 17       		.byte	0x17
 8047 0a17 00       		.byte	0
 8048 0a18 1D       		.uleb128 0x1d
 8049 0a19 F0       		.byte	0xf0
 8050 0a1a 09       		.byte	0x9
 8051 0a1b 7202     		.2byte	0x272
 8052 0a1d 3C0A0000 		.4byte	0xa3c
 8053 0a21 1A       		.uleb128 0x1a
 8054 0a22 D5170000 		.4byte	.LASF154
 8055 0a26 09       		.byte	0x9
 8056 0a27 7502     		.2byte	0x275
ARM GAS  C:\Users\Moi\AppData\Local\Temp\ccF5N8ze.s 			page 148


 8057 0a29 3C0A0000 		.4byte	0xa3c
 8058 0a2d 00       		.byte	0
 8059 0a2e 1A       		.uleb128 0x1a
 8060 0a2f 600C0000 		.4byte	.LASF155
 8061 0a33 09       		.byte	0x9
 8062 0a34 7602     		.2byte	0x276
 8063 0a36 4C0A0000 		.4byte	0xa4c
 8064 0a3a 78       		.byte	0x78
 8065 0a3b 00       		.byte	0
 8066 0a3c 0A       		.uleb128 0xa
 8067 0a3d 37050000 		.4byte	0x537
 8068 0a41 4C0A0000 		.4byte	0xa4c
 8069 0a45 0B       		.uleb128 0xb
 8070 0a46 B1000000 		.4byte	0xb1
 8071 0a4a 1D       		.byte	0x1d
 8072 0a4b 00       		.byte	0
 8073 0a4c 0A       		.uleb128 0xa
 8074 0a4d B1000000 		.4byte	0xb1
 8075 0a51 5C0A0000 		.4byte	0xa5c
 8076 0a55 0B       		.uleb128 0xb
 8077 0a56 B1000000 		.4byte	0xb1
 8078 0a5a 1D       		.byte	0x1d
 8079 0a5b 00       		.byte	0
 8080 0a5c 1E       		.uleb128 0x1e
 8081 0a5d F0       		.byte	0xf0
 8082 0a5e 09       		.byte	0x9
 8083 0a5f 5702     		.2byte	0x257
 8084 0a61 7E0A0000 		.4byte	0xa7e
 8085 0a65 1F       		.uleb128 0x1f
 8086 0a66 08060000 		.4byte	.LASF105
 8087 0a6a 09       		.byte	0x9
 8088 0a6b 6E02     		.2byte	0x26e
 8089 0a6d E7080000 		.4byte	0x8e7
 8090 0a71 1F       		.uleb128 0x1f
 8091 0a72 2D030000 		.4byte	.LASF156
 8092 0a76 09       		.byte	0x9
 8093 0a77 7702     		.2byte	0x277
 8094 0a79 180A0000 		.4byte	0xa18
 8095 0a7d 00       		.byte	0
 8096 0a7e 0A       		.uleb128 0xa
 8097 0a7f D1010000 		.4byte	0x1d1
 8098 0a83 8E0A0000 		.4byte	0xa8e
 8099 0a87 0B       		.uleb128 0xb
 8100 0a88 B1000000 		.4byte	0xb1
 8101 0a8c 18       		.byte	0x18
 8102 0a8d 00       		.byte	0
 8103 0a8e 06       		.uleb128 0x6
 8104 0a8f C51B0000 		.4byte	.LASF158
 8105 0a93 05       		.uleb128 0x5
 8106 0a94 04       		.byte	0x4
 8107 0a95 8E0A0000 		.4byte	0xa8e
 8108 0a99 20       		.uleb128 0x20
 8109 0a9a A40A0000 		.4byte	0xaa4
 8110 0a9e 18       		.uleb128 0x18
 8111 0a9f 85060000 		.4byte	0x685
 8112 0aa3 00       		.byte	0
 8113 0aa4 05       		.uleb128 0x5
ARM GAS  C:\Users\Moi\AppData\Local\Temp\ccF5N8ze.s 			page 149


 8114 0aa5 04       		.byte	0x4
 8115 0aa6 990A0000 		.4byte	0xa99
 8116 0aaa 05       		.uleb128 0x5
 8117 0aab 04       		.byte	0x4
 8118 0aac D8030000 		.4byte	0x3d8
 8119 0ab0 20       		.uleb128 0x20
 8120 0ab1 BB0A0000 		.4byte	0xabb
 8121 0ab5 18       		.uleb128 0x18
 8122 0ab6 AA000000 		.4byte	0xaa
 8123 0aba 00       		.byte	0
 8124 0abb 05       		.uleb128 0x5
 8125 0abc 04       		.byte	0x4
 8126 0abd C10A0000 		.4byte	0xac1
 8127 0ac1 05       		.uleb128 0x5
 8128 0ac2 04       		.byte	0x4
 8129 0ac3 B00A0000 		.4byte	0xab0
 8130 0ac7 0A       		.uleb128 0xa
 8131 0ac8 55080000 		.4byte	0x855
 8132 0acc D70A0000 		.4byte	0xad7
 8133 0ad0 0B       		.uleb128 0xb
 8134 0ad1 B1000000 		.4byte	0xb1
 8135 0ad5 02       		.byte	0x2
 8136 0ad6 00       		.byte	0
 8137 0ad7 21       		.uleb128 0x21
 8138 0ad8 621B0000 		.4byte	.LASF159
 8139 0adc 09       		.byte	0x9
 8140 0add 0703     		.2byte	0x307
 8141 0adf 85060000 		.4byte	0x685
 8142 0ae3 21       		.uleb128 0x21
 8143 0ae4 14210000 		.4byte	.LASF160
 8144 0ae8 09       		.byte	0x9
 8145 0ae9 0803     		.2byte	0x308
 8146 0aeb 8B060000 		.4byte	0x68b
 8147 0aef 05       		.uleb128 0x5
 8148 0af0 04       		.byte	0x4
 8149 0af1 F50A0000 		.4byte	0xaf5
 8150 0af5 22       		.uleb128 0x22
 8151 0af6 11       		.uleb128 0x11
 8152 0af7 6A180000 		.4byte	.LASF161
 8153 0afb 0A       		.byte	0xa
 8154 0afc 63       		.byte	0x63
 8155 0afd CB010000 		.4byte	0x1cb
 8156 0b01 02       		.uleb128 0x2
 8157 0b02 10050000 		.4byte	.LASF162
 8158 0b06 0B       		.byte	0xb
 8159 0b07 08       		.byte	0x8
 8160 0b08 0C0B0000 		.4byte	0xb0c
 8161 0b0c 12       		.uleb128 0x12
 8162 0b0d FA040000 		.4byte	.LASF163
 8163 0b11 18       		.byte	0x18
 8164 0b12 0B       		.byte	0xb
 8165 0b13 0B       		.byte	0xb
 8166 0b14 600B0000 		.4byte	0xb60
 8167 0b18 13       		.uleb128 0x13
 8168 0b19 696400   		.ascii	"id\000"
 8169 0b1c 0B       		.byte	0xb
 8170 0b1d 0C       		.byte	0xc
ARM GAS  C:\Users\Moi\AppData\Local\Temp\ccF5N8ze.s 			page 150


 8171 0b1e E6070000 		.4byte	0x7e6
 8172 0b22 00       		.byte	0
 8173 0b23 0D       		.uleb128 0xd
 8174 0b24 5B010000 		.4byte	.LASF164
 8175 0b28 0B       		.byte	0xb
 8176 0b29 0D       		.byte	0xd
 8177 0b2a 9B010000 		.4byte	0x19b
 8178 0b2e 04       		.byte	0x4
 8179 0b2f 0D       		.uleb128 0xd
 8180 0b30 49200000 		.4byte	.LASF165
 8181 0b34 0B       		.byte	0xb
 8182 0b35 0E       		.byte	0xe
 8183 0b36 CA0B0000 		.4byte	0xbca
 8184 0b3a 08       		.byte	0x8
 8185 0b3b 0D       		.uleb128 0xd
 8186 0b3c 2C0B0000 		.4byte	.LASF166
 8187 0b40 0B       		.byte	0xb
 8188 0b41 0F       		.byte	0xf
 8189 0b42 CA0B0000 		.4byte	0xbca
 8190 0b46 0C       		.byte	0xc
 8191 0b47 0D       		.uleb128 0xd
 8192 0b48 70020000 		.4byte	.LASF49
 8193 0b4c 0B       		.byte	0xb
 8194 0b4d 10       		.byte	0x10
 8195 0b4e CA0B0000 		.4byte	0xbca
 8196 0b52 10       		.byte	0x10
 8197 0b53 0D       		.uleb128 0xd
 8198 0b54 39240000 		.4byte	.LASF167
 8199 0b58 0B       		.byte	0xb
 8200 0b59 11       		.byte	0x11
 8201 0b5a D00B0000 		.4byte	0xbd0
 8202 0b5e 14       		.byte	0x14
 8203 0b5f 00       		.byte	0
 8204 0b60 02       		.uleb128 0x2
 8205 0b61 6A140000 		.4byte	.LASF168
 8206 0b65 0B       		.byte	0xb
 8207 0b66 09       		.byte	0x9
 8208 0b67 6B0B0000 		.4byte	0xb6b
 8209 0b6b 12       		.uleb128 0x12
 8210 0b6c D30F0000 		.4byte	.LASF169
 8211 0b70 18       		.byte	0x18
 8212 0b71 0B       		.byte	0xb
 8213 0b72 2E       		.byte	0x2e
 8214 0b73 CA0B0000 		.4byte	0xbca
 8215 0b77 13       		.uleb128 0x13
 8216 0b78 696400   		.ascii	"id\000"
 8217 0b7b 0B       		.byte	0xb
 8218 0b7c 2F       		.byte	0x2f
 8219 0b7d E6070000 		.4byte	0x7e6
 8220 0b81 00       		.byte	0
 8221 0b82 13       		.uleb128 0x13
 8222 0b83 6E7300   		.ascii	"ns\000"
 8223 0b86 0B       		.byte	0xb
 8224 0b87 30       		.byte	0x30
 8225 0b88 CA0B0000 		.4byte	0xbca
 8226 0b8c 04       		.byte	0x4
 8227 0b8d 0D       		.uleb128 0xd
ARM GAS  C:\Users\Moi\AppData\Local\Temp\ccF5N8ze.s 			page 151


 8228 0b8e 70020000 		.4byte	.LASF49
 8229 0b92 0B       		.byte	0xb
 8230 0b93 31       		.byte	0x31
 8231 0b94 D00B0000 		.4byte	0xbd0
 8232 0b98 08       		.byte	0x8
 8233 0b99 0D       		.uleb128 0xd
 8234 0b9a D31C0000 		.4byte	.LASF170
 8235 0b9e 0B       		.byte	0xb
 8236 0b9f 32       		.byte	0x32
 8237 0ba0 A2020000 		.4byte	0x2a2
 8238 0ba4 0C       		.byte	0xc
 8239 0ba5 0D       		.uleb128 0xd
 8240 0ba6 8D100000 		.4byte	.LASF171
 8241 0baa 0B       		.byte	0xb
 8242 0bab 33       		.byte	0x33
 8243 0bac A2020000 		.4byte	0x2a2
 8244 0bb0 0D       		.byte	0xd
 8245 0bb1 0D       		.uleb128 0xd
 8246 0bb2 91070000 		.4byte	.LASF172
 8247 0bb6 0B       		.byte	0xb
 8248 0bb7 34       		.byte	0x34
 8249 0bb8 75010000 		.4byte	0x175
 8250 0bbc 0E       		.byte	0xe
 8251 0bbd 0D       		.uleb128 0xd
 8252 0bbe 070C0000 		.4byte	.LASF173
 8253 0bc2 0B       		.byte	0xb
 8254 0bc3 3C       		.byte	0x3c
 8255 0bc4 720C0000 		.4byte	0xc72
 8256 0bc8 10       		.byte	0x10
 8257 0bc9 00       		.byte	0
 8258 0bca 05       		.uleb128 0x5
 8259 0bcb 04       		.byte	0x4
 8260 0bcc 010B0000 		.4byte	0xb01
 8261 0bd0 05       		.uleb128 0x5
 8262 0bd1 04       		.byte	0x4
 8263 0bd2 600B0000 		.4byte	0xb60
 8264 0bd6 12       		.uleb128 0x12
 8265 0bd7 A0160000 		.4byte	.LASF174
 8266 0bdb 08       		.byte	0x8
 8267 0bdc 0B       		.byte	0xb
 8268 0bdd 14       		.byte	0x14
 8269 0bde 070C0000 		.4byte	0xc07
 8270 0be2 13       		.uleb128 0x13
 8271 0be3 62756600 		.ascii	"buf\000"
 8272 0be7 0B       		.byte	0xb
 8273 0be8 15       		.byte	0x15
 8274 0be9 CB010000 		.4byte	0x1cb
 8275 0bed 00       		.byte	0
 8276 0bee 0D       		.uleb128 0xd
 8277 0bef FB230000 		.4byte	.LASF175
 8278 0bf3 0B       		.byte	0xb
 8279 0bf4 16       		.byte	0x16
 8280 0bf5 90010000 		.4byte	0x190
 8281 0bf9 04       		.byte	0x4
 8282 0bfa 13       		.uleb128 0x13
 8283 0bfb 6C656E00 		.ascii	"len\000"
 8284 0bff 0B       		.byte	0xb
ARM GAS  C:\Users\Moi\AppData\Local\Temp\ccF5N8ze.s 			page 152


 8285 0c00 17       		.byte	0x17
 8286 0c01 90010000 		.4byte	0x190
 8287 0c05 06       		.byte	0x6
 8288 0c06 00       		.byte	0
 8289 0c07 12       		.uleb128 0x12
 8290 0c08 5A150000 		.4byte	.LASF176
 8291 0c0c 08       		.byte	0x8
 8292 0c0d 0B       		.byte	0xb
 8293 0c0e 1A       		.byte	0x1a
 8294 0c0f 380C0000 		.4byte	0xc38
 8295 0c13 13       		.uleb128 0x13
 8296 0c14 62756600 		.ascii	"buf\000"
 8297 0c18 0B       		.byte	0xb
 8298 0c19 1B       		.byte	0x1b
 8299 0c1a 380C0000 		.4byte	0xc38
 8300 0c1e 00       		.byte	0
 8301 0c1f 0D       		.uleb128 0xd
 8302 0c20 0A090000 		.4byte	.LASF177
 8303 0c24 0B       		.byte	0xb
 8304 0c25 1C       		.byte	0x1c
 8305 0c26 90010000 		.4byte	0x190
 8306 0c2a 04       		.byte	0x4
 8307 0c2b 13       		.uleb128 0x13
 8308 0c2c 64696D00 		.ascii	"dim\000"
 8309 0c30 0B       		.byte	0xb
 8310 0c31 1D       		.byte	0x1d
 8311 0c32 90010000 		.4byte	0x190
 8312 0c36 06       		.byte	0x6
 8313 0c37 00       		.byte	0
 8314 0c38 05       		.uleb128 0x5
 8315 0c39 04       		.byte	0x4
 8316 0c3a 3E0C0000 		.4byte	0xc3e
 8317 0c3e 03       		.uleb128 0x3
 8318 0c3f 04       		.byte	0x4
 8319 0c40 04       		.byte	0x4
 8320 0c41 1F0A0000 		.4byte	.LASF178
 8321 0c45 12       		.uleb128 0x12
 8322 0c46 4F090000 		.4byte	.LASF179
 8323 0c4a 08       		.byte	0x8
 8324 0c4b 0B       		.byte	0xb
 8325 0c4c 20       		.byte	0x20
 8326 0c4d 720C0000 		.4byte	0xc72
 8327 0c51 13       		.uleb128 0x13
 8328 0c52 62756600 		.ascii	"buf\000"
 8329 0c56 0B       		.byte	0xb
 8330 0c57 21       		.byte	0x21
 8331 0c58 380C0000 		.4byte	0xc38
 8332 0c5c 00       		.byte	0
 8333 0c5d 13       		.uleb128 0x13
 8334 0c5e 6E00     		.ascii	"n\000"
 8335 0c60 0B       		.byte	0xb
 8336 0c61 22       		.byte	0x22
 8337 0c62 90010000 		.4byte	0x190
 8338 0c66 04       		.byte	0x4
 8339 0c67 13       		.uleb128 0x13
 8340 0c68 6D00     		.ascii	"m\000"
 8341 0c6a 0B       		.byte	0xb
ARM GAS  C:\Users\Moi\AppData\Local\Temp\ccF5N8ze.s 			page 153


 8342 0c6b 23       		.byte	0x23
 8343 0c6c 90010000 		.4byte	0x190
 8344 0c70 06       		.byte	0x6
 8345 0c71 00       		.byte	0
 8346 0c72 08       		.uleb128 0x8
 8347 0c73 08       		.byte	0x8
 8348 0c74 0B       		.byte	0xb
 8349 0c75 35       		.byte	0x35
 8350 0c76 B70C0000 		.4byte	0xcb7
 8351 0c7a 23       		.uleb128 0x23
 8352 0c7b 6200     		.ascii	"b\000"
 8353 0c7d 0B       		.byte	0xb
 8354 0c7e 36       		.byte	0x36
 8355 0c7f A2020000 		.4byte	0x2a2
 8356 0c83 23       		.uleb128 0x23
 8357 0c84 7300     		.ascii	"s\000"
 8358 0c86 0B       		.byte	0xb
 8359 0c87 37       		.byte	0x37
 8360 0c88 3E0C0000 		.4byte	0xc3e
 8361 0c8c 23       		.uleb128 0x23
 8362 0c8d 6900     		.ascii	"i\000"
 8363 0c8f 0B       		.byte	0xb
 8364 0c90 38       		.byte	0x38
 8365 0c91 9B010000 		.4byte	0x19b
 8366 0c95 23       		.uleb128 0x23
 8367 0c96 73747200 		.ascii	"str\000"
 8368 0c9a 0B       		.byte	0xb
 8369 0c9b 39       		.byte	0x39
 8370 0c9c D60B0000 		.4byte	0xbd6
 8371 0ca0 09       		.uleb128 0x9
 8372 0ca1 D4000000 		.4byte	.LASF180
 8373 0ca5 0B       		.byte	0xb
 8374 0ca6 3A       		.byte	0x3a
 8375 0ca7 070C0000 		.4byte	0xc07
 8376 0cab 23       		.uleb128 0x23
 8377 0cac 6D617400 		.ascii	"mat\000"
 8378 0cb0 0B       		.byte	0xb
 8379 0cb1 3B       		.byte	0x3b
 8380 0cb2 450C0000 		.4byte	0xc45
 8381 0cb6 00       		.byte	0
 8382 0cb7 24       		.uleb128 0x24
 8383 0cb8 62757300 		.ascii	"bus\000"
 8384 0cbc 0C       		.byte	0xc
 8385 0cbd 0C       		.byte	0xc
 8386 0cbe 2D030000 		.4byte	0x32d
 8387 0cc2 11       		.uleb128 0x11
 8388 0cc3 620D0000 		.4byte	.LASF181
 8389 0cc7 0C       		.byte	0xc
 8390 0cc8 0D       		.byte	0xd
 8391 0cc9 010B0000 		.4byte	0xb01
 8392 0ccd 05       		.uleb128 0x5
 8393 0cce 04       		.byte	0x4
 8394 0ccf 75010000 		.4byte	0x175
 8395 0cd3 02       		.uleb128 0x2
 8396 0cd4 C80C0000 		.4byte	.LASF182
 8397 0cd8 0D       		.byte	0xd
 8398 0cd9 45       		.byte	0x45
ARM GAS  C:\Users\Moi\AppData\Local\Temp\ccF5N8ze.s 			page 154


 8399 0cda AB010000 		.4byte	0x1ab
 8400 0cde 02       		.uleb128 0x2
 8401 0cdf 1C060000 		.4byte	.LASF183
 8402 0ce3 0D       		.byte	0xd
 8403 0ce4 46       		.byte	0x46
 8404 0ce5 C0010000 		.4byte	0x1c0
 8405 0ce9 02       		.uleb128 0x2
 8406 0cea 2E120000 		.4byte	.LASF184
 8407 0cee 0D       		.byte	0xd
 8408 0cef 48       		.byte	0x48
 8409 0cf0 75010000 		.4byte	0x175
 8410 0cf4 02       		.uleb128 0x2
 8411 0cf5 0B210000 		.4byte	.LASF185
 8412 0cf9 0D       		.byte	0xd
 8413 0cfa 49       		.byte	0x49
 8414 0cfb 75010000 		.4byte	0x175
 8415 0cff 02       		.uleb128 0x2
 8416 0d00 C0110000 		.4byte	.LASF186
 8417 0d04 0D       		.byte	0xd
 8418 0d05 4A       		.byte	0x4a
 8419 0d06 75010000 		.4byte	0x175
 8420 0d0a 02       		.uleb128 0x2
 8421 0d0b 9D130000 		.4byte	.LASF187
 8422 0d0f 0D       		.byte	0xd
 8423 0d10 4B       		.byte	0x4b
 8424 0d11 75010000 		.4byte	0x175
 8425 0d15 02       		.uleb128 0x2
 8426 0d16 D4060000 		.4byte	.LASF188
 8427 0d1a 0D       		.byte	0xd
 8428 0d1b 4C       		.byte	0x4c
 8429 0d1c AB010000 		.4byte	0x1ab
 8430 0d20 02       		.uleb128 0x2
 8431 0d21 81000000 		.4byte	.LASF189
 8432 0d25 0D       		.byte	0xd
 8433 0d26 4D       		.byte	0x4d
 8434 0d27 9B010000 		.4byte	0x19b
 8435 0d2b 02       		.uleb128 0x2
 8436 0d2c 58180000 		.4byte	.LASF190
 8437 0d30 0D       		.byte	0xd
 8438 0d31 4F       		.byte	0x4f
 8439 0d32 AB010000 		.4byte	0x1ab
 8440 0d36 02       		.uleb128 0x2
 8441 0d37 15230000 		.4byte	.LASF191
 8442 0d3b 0D       		.byte	0xd
 8443 0d3c 50       		.byte	0x50
 8444 0d3d AB010000 		.4byte	0x1ab
 8445 0d41 02       		.uleb128 0x2
 8446 0d42 64180000 		.4byte	.LASF192
 8447 0d46 0D       		.byte	0xd
 8448 0d47 51       		.byte	0x51
 8449 0d48 9B010000 		.4byte	0x19b
 8450 0d4c 02       		.uleb128 0x2
 8451 0d4d C10C0000 		.4byte	.LASF193
 8452 0d51 0D       		.byte	0xd
 8453 0d52 52       		.byte	0x52
 8454 0d53 AB010000 		.4byte	0x1ab
 8455 0d57 02       		.uleb128 0x2
ARM GAS  C:\Users\Moi\AppData\Local\Temp\ccF5N8ze.s 			page 155


 8456 0d58 10040000 		.4byte	.LASF194
 8457 0d5c 0E       		.byte	0xe
 8458 0d5d 33       		.byte	0x33
 8459 0d5e AB010000 		.4byte	0x1ab
 8460 0d62 10       		.uleb128 0x10
 8461 0d63 570D0000 		.4byte	0xd57
 8462 0d67 02       		.uleb128 0x2
 8463 0d68 AC030000 		.4byte	.LASF195
 8464 0d6c 0E       		.byte	0xe
 8465 0d6d 3F       		.byte	0x3f
 8466 0d6e 720D0000 		.4byte	0xd72
 8467 0d72 12       		.uleb128 0x12
 8468 0d73 DA090000 		.4byte	.LASF196
 8469 0d77 68       		.byte	0x68
 8470 0d78 0F       		.byte	0xf
 8471 0d79 C2       		.byte	0xc2
 8472 0d7a 900E0000 		.4byte	0xe90
 8473 0d7e 0D       		.uleb128 0xd
 8474 0d7f 5C110000 		.4byte	.LASF197
 8475 0d83 0F       		.byte	0xf
 8476 0d84 C3       		.byte	0xc3
 8477 0d85 9B0E0000 		.4byte	0xe9b
 8478 0d89 00       		.byte	0
 8479 0d8a 0D       		.uleb128 0xd
 8480 0d8b AA0D0000 		.4byte	.LASF198
 8481 0d8f 0F       		.byte	0xf
 8482 0d90 C5       		.byte	0xc5
 8483 0d91 9B0E0000 		.4byte	0xe9b
 8484 0d95 04       		.byte	0x4
 8485 0d96 0D       		.uleb128 0xd
 8486 0d97 86100000 		.4byte	.LASF199
 8487 0d9b 0F       		.byte	0xf
 8488 0d9c C7       		.byte	0xc7
 8489 0d9d 150D0000 		.4byte	0xd15
 8490 0da1 08       		.byte	0x8
 8491 0da2 0D       		.uleb128 0xd
 8492 0da3 840A0000 		.4byte	.LASF200
 8493 0da7 0F       		.byte	0xf
 8494 0da8 C8       		.byte	0xc8
 8495 0da9 45190000 		.4byte	0x1945
 8496 0dad 0C       		.byte	0xc
 8497 0dae 0D       		.uleb128 0xd
 8498 0daf E2020000 		.4byte	.LASF201
 8499 0db3 0F       		.byte	0xf
 8500 0db4 CA       		.byte	0xca
 8501 0db5 9B0E0000 		.4byte	0xe9b
 8502 0db9 10       		.byte	0x10
 8503 0dba 0D       		.uleb128 0xd
 8504 0dbb 92230000 		.4byte	.LASF202
 8505 0dbf 0F       		.byte	0xf
 8506 0dc0 CB       		.byte	0xcb
 8507 0dc1 9B0E0000 		.4byte	0xe9b
 8508 0dc5 14       		.byte	0x14
 8509 0dc6 0D       		.uleb128 0xd
 8510 0dc7 94210000 		.4byte	.LASF203
 8511 0dcb 0F       		.byte	0xf
 8512 0dcc D2       		.byte	0xd2
ARM GAS  C:\Users\Moi\AppData\Local\Temp\ccF5N8ze.s 			page 156


 8513 0dcd E6070000 		.4byte	0x7e6
 8514 0dd1 18       		.byte	0x18
 8515 0dd2 0D       		.uleb128 0xd
 8516 0dd3 0C1B0000 		.4byte	.LASF204
 8517 0dd7 0F       		.byte	0xf
 8518 0dd8 D8       		.byte	0xd8
 8519 0dd9 BB1C0000 		.4byte	0x1cbb
 8520 0ddd 1C       		.byte	0x1c
 8521 0dde 0D       		.uleb128 0xd
 8522 0ddf D9250000 		.4byte	.LASF205
 8523 0de3 0F       		.byte	0xf
 8524 0de4 DD       		.byte	0xdd
 8525 0de5 F40C0000 		.4byte	0xcf4
 8526 0de9 20       		.byte	0x20
 8527 0dea 0D       		.uleb128 0xd
 8528 0deb D1200000 		.4byte	.LASF206
 8529 0def 0F       		.byte	0xf
 8530 0df0 E1       		.byte	0xe1
 8531 0df1 E90C0000 		.4byte	0xce9
 8532 0df5 21       		.byte	0x21
 8533 0df6 0D       		.uleb128 0xd
 8534 0df7 DF160000 		.4byte	.LASF207
 8535 0dfb 0F       		.byte	0xf
 8536 0dfc E6       		.byte	0xe6
 8537 0dfd FF0C0000 		.4byte	0xcff
 8538 0e01 22       		.byte	0x22
 8539 0e02 0D       		.uleb128 0xd
 8540 0e03 82140000 		.4byte	.LASF208
 8541 0e07 0F       		.byte	0xf
 8542 0e08 EC       		.byte	0xec
 8543 0e09 0A0D0000 		.4byte	0xd0a
 8544 0e0d 23       		.byte	0x23
 8545 0e0e 0D       		.uleb128 0xd
 8546 0e0f D8160000 		.4byte	.LASF209
 8547 0e13 0F       		.byte	0xf
 8548 0e14 F3       		.byte	0xf3
 8549 0e15 620D0000 		.4byte	0xd62
 8550 0e19 24       		.byte	0x24
 8551 0e1a 25       		.uleb128 0x25
 8552 0e1b 705F7500 		.ascii	"p_u\000"
 8553 0e1f 0F       		.byte	0xf
 8554 0e20 3101     		.2byte	0x131
 8555 0e22 EA1B0000 		.4byte	0x1bea
 8556 0e26 28       		.byte	0x28
 8557 0e27 1A       		.uleb128 0x1a
 8558 0e28 5A050000 		.4byte	.LASF210
 8559 0e2c 0F       		.byte	0xf
 8560 0e2d 3601     		.2byte	0x136
 8561 0e2f A10E0000 		.4byte	0xea1
 8562 0e33 2C       		.byte	0x2c
 8563 0e34 1A       		.uleb128 0x1a
 8564 0e35 8C1E0000 		.4byte	.LASF211
 8565 0e39 0F       		.byte	0xf
 8566 0e3a 3C01     		.2byte	0x13c
 8567 0e3c C50E0000 		.4byte	0xec5
 8568 0e40 30       		.byte	0x30
 8569 0e41 1A       		.uleb128 0x1a
ARM GAS  C:\Users\Moi\AppData\Local\Temp\ccF5N8ze.s 			page 157


 8570 0e42 06080000 		.4byte	.LASF212
 8571 0e46 0F       		.byte	0xf
 8572 0e47 4001     		.2byte	0x140
 8573 0e49 200D0000 		.4byte	0xd20
 8574 0e4d 38       		.byte	0x38
 8575 0e4e 1A       		.uleb128 0x1a
 8576 0e4f 131F0000 		.4byte	.LASF213
 8577 0e53 0F       		.byte	0xf
 8578 0e54 4601     		.2byte	0x146
 8579 0e56 2B0D0000 		.4byte	0xd2b
 8580 0e5a 3C       		.byte	0x3c
 8581 0e5b 1A       		.uleb128 0x1a
 8582 0e5c F6200000 		.4byte	.LASF214
 8583 0e60 0F       		.byte	0xf
 8584 0e61 4D01     		.2byte	0x14d
 8585 0e63 B51C0000 		.4byte	0x1cb5
 8586 0e67 40       		.byte	0x40
 8587 0e68 1A       		.uleb128 0x1a
 8588 0e69 781C0000 		.4byte	.LASF215
 8589 0e6d 0F       		.byte	0xf
 8590 0e6e 5101     		.2byte	0x151
 8591 0e70 150D0000 		.4byte	0xd15
 8592 0e74 44       		.byte	0x44
 8593 0e75 1A       		.uleb128 0x1a
 8594 0e76 C8110000 		.4byte	.LASF216
 8595 0e7a 0F       		.byte	0xf
 8596 0e7b 5801     		.2byte	0x158
 8597 0e7d 68010000 		.4byte	0x168
 8598 0e81 48       		.byte	0x48
 8599 0e82 1A       		.uleb128 0x1a
 8600 0e83 24260000 		.4byte	.LASF217
 8601 0e87 0F       		.byte	0xf
 8602 0e88 5E01     		.2byte	0x15e
 8603 0e8a 9B1B0000 		.4byte	0x1b9b
 8604 0e8e 50       		.byte	0x50
 8605 0e8f 00       		.byte	0
 8606 0e90 02       		.uleb128 0x2
 8607 0e91 03240000 		.4byte	.LASF218
 8608 0e95 0E       		.byte	0xe
 8609 0e96 44       		.byte	0x44
 8610 0e97 9B0E0000 		.4byte	0xe9b
 8611 0e9b 05       		.uleb128 0x5
 8612 0e9c 04       		.byte	0x4
 8613 0e9d 670D0000 		.4byte	0xd67
 8614 0ea1 02       		.uleb128 0x2
 8615 0ea2 A4050000 		.4byte	.LASF219
 8616 0ea6 0E       		.byte	0xe
 8617 0ea7 49       		.byte	0x49
 8618 0ea8 AC0E0000 		.4byte	0xeac
 8619 0eac 12       		.uleb128 0x12
 8620 0ead FD250000 		.4byte	.LASF220
 8621 0eb1 04       		.byte	0x4
 8622 0eb2 0F       		.byte	0xf
 8623 0eb3 B0       		.byte	0xb0
 8624 0eb4 C50E0000 		.4byte	0xec5
 8625 0eb8 0D       		.uleb128 0xd
 8626 0eb9 5C110000 		.4byte	.LASF197
ARM GAS  C:\Users\Moi\AppData\Local\Temp\ccF5N8ze.s 			page 158


 8627 0ebd 0F       		.byte	0xf
 8628 0ebe B1       		.byte	0xb1
 8629 0ebf 9B0E0000 		.4byte	0xe9b
 8630 0ec3 00       		.byte	0
 8631 0ec4 00       		.byte	0
 8632 0ec5 02       		.uleb128 0x2
 8633 0ec6 BD160000 		.4byte	.LASF221
 8634 0eca 0E       		.byte	0xe
 8635 0ecb 50       		.byte	0x50
 8636 0ecc D00E0000 		.4byte	0xed0
 8637 0ed0 12       		.uleb128 0x12
 8638 0ed1 C7020000 		.4byte	.LASF222
 8639 0ed5 08       		.byte	0x8
 8640 0ed6 0F       		.byte	0xf
 8641 0ed7 B7       		.byte	0xb7
 8642 0ed8 F50E0000 		.4byte	0xef5
 8643 0edc 0D       		.uleb128 0xd
 8644 0edd 5C110000 		.4byte	.LASF197
 8645 0ee1 0F       		.byte	0xf
 8646 0ee2 B8       		.byte	0xb8
 8647 0ee3 9B0E0000 		.4byte	0xe9b
 8648 0ee7 00       		.byte	0
 8649 0ee8 0D       		.uleb128 0xd
 8650 0ee9 AA0D0000 		.4byte	.LASF198
 8651 0eed 0F       		.byte	0xf
 8652 0eee B9       		.byte	0xb9
 8653 0eef 9B0E0000 		.4byte	0xe9b
 8654 0ef3 04       		.byte	0x4
 8655 0ef4 00       		.byte	0
 8656 0ef5 02       		.uleb128 0x2
 8657 0ef6 CD090000 		.4byte	.LASF223
 8658 0efa 0E       		.byte	0xe
 8659 0efb 57       		.byte	0x57
 8660 0efc 000F0000 		.4byte	0xf00
 8661 0f00 1C       		.uleb128 0x1c
 8662 0f01 421E0000 		.4byte	.LASF224
 8663 0f05 1C       		.byte	0x1c
 8664 0f06 0F       		.byte	0xf
 8665 0f07 9001     		.2byte	0x190
 8666 0f09 5C0F0000 		.4byte	0xf5c
 8667 0f0d 1A       		.uleb128 0x1a
 8668 0f0e 62190000 		.4byte	.LASF225
 8669 0f12 0F       		.byte	0xf
 8670 0f13 9101     		.2byte	0x191
 8671 0f15 C50E0000 		.4byte	0xec5
 8672 0f19 00       		.byte	0
 8673 0f1a 1A       		.uleb128 0x1a
 8674 0f1b 09200000 		.4byte	.LASF226
 8675 0f1f 0F       		.byte	0xf
 8676 0f20 9201     		.2byte	0x192
 8677 0f22 150D0000 		.4byte	0xd15
 8678 0f26 08       		.byte	0x8
 8679 0f27 1A       		.uleb128 0x1a
 8680 0f28 A10C0000 		.4byte	.LASF227
 8681 0f2c 0F       		.byte	0xf
 8682 0f2d 9401     		.2byte	0x194
 8683 0f2f 45190000 		.4byte	0x1945
ARM GAS  C:\Users\Moi\AppData\Local\Temp\ccF5N8ze.s 			page 159


 8684 0f33 0C       		.byte	0xc
 8685 0f34 1A       		.uleb128 0x1a
 8686 0f35 3F130000 		.4byte	.LASF228
 8687 0f39 0F       		.byte	0xf
 8688 0f3a 9701     		.2byte	0x197
 8689 0f3c 9B0E0000 		.4byte	0xe9b
 8690 0f40 10       		.byte	0x10
 8691 0f41 1A       		.uleb128 0x1a
 8692 0f42 A20D0000 		.4byte	.LASF229
 8693 0f46 0F       		.byte	0xf
 8694 0f47 9801     		.2byte	0x198
 8695 0f49 9B0E0000 		.4byte	0xe9b
 8696 0f4d 14       		.byte	0x14
 8697 0f4e 1A       		.uleb128 0x1a
 8698 0f4f A10F0000 		.4byte	.LASF230
 8699 0f53 0F       		.byte	0xf
 8700 0f54 9B01     		.2byte	0x19b
 8701 0f56 9B0E0000 		.4byte	0xe9b
 8702 0f5a 18       		.byte	0x18
 8703 0f5b 00       		.byte	0
 8704 0f5c 02       		.uleb128 0x2
 8705 0f5d 071C0000 		.4byte	.LASF231
 8706 0f61 0E       		.byte	0xe
 8707 0f62 5C       		.byte	0x5c
 8708 0f63 670F0000 		.4byte	0xf67
 8709 0f67 05       		.uleb128 0x5
 8710 0f68 04       		.byte	0x4
 8711 0f69 6D0F0000 		.4byte	0xf6d
 8712 0f6d 20       		.uleb128 0x20
 8713 0f6e 780F0000 		.4byte	0xf78
 8714 0f72 18       		.uleb128 0x18
 8715 0f73 68010000 		.4byte	0x168
 8716 0f77 00       		.byte	0
 8717 0f78 02       		.uleb128 0x2
 8718 0f79 850C0000 		.4byte	.LASF232
 8719 0f7d 0E       		.byte	0xe
 8720 0f7e 61       		.byte	0x61
 8721 0f7f 830F0000 		.4byte	0xf83
 8722 0f83 1C       		.uleb128 0x1c
 8723 0f84 C0200000 		.4byte	.LASF233
 8724 0f88 14       		.byte	0x14
 8725 0f89 0F       		.byte	0xf
 8726 0f8a 6B01     		.2byte	0x16b
 8727 0f8c D20F0000 		.4byte	0xfd2
 8728 0f90 1A       		.uleb128 0x1a
 8729 0f91 A70C0000 		.4byte	.LASF234
 8730 0f95 0F       		.byte	0xf
 8731 0f96 6C01     		.2byte	0x16c
 8732 0f98 C11C0000 		.4byte	0x1cc1
 8733 0f9c 00       		.byte	0
 8734 0f9d 1A       		.uleb128 0x1a
 8735 0f9e 82090000 		.4byte	.LASF235
 8736 0fa2 0F       		.byte	0xf
 8737 0fa3 6D01     		.2byte	0x16d
 8738 0fa5 C11C0000 		.4byte	0x1cc1
 8739 0fa9 04       		.byte	0x4
 8740 0faa 1A       		.uleb128 0x1a
ARM GAS  C:\Users\Moi\AppData\Local\Temp\ccF5N8ze.s 			page 160


 8741 0fab E8130000 		.4byte	.LASF236
 8742 0faf 0F       		.byte	0xf
 8743 0fb0 6E01     		.2byte	0x16e
 8744 0fb2 570D0000 		.4byte	0xd57
 8745 0fb6 08       		.byte	0x8
 8746 0fb7 1A       		.uleb128 0x1a
 8747 0fb8 AB200000 		.4byte	.LASF237
 8748 0fbc 0F       		.byte	0xf
 8749 0fbd 6F01     		.2byte	0x16f
 8750 0fbf 5C0F0000 		.4byte	0xf5c
 8751 0fc3 0C       		.byte	0xc
 8752 0fc4 1A       		.uleb128 0x1a
 8753 0fc5 8A0A0000 		.4byte	.LASF238
 8754 0fc9 0F       		.byte	0xf
 8755 0fca 7101     		.2byte	0x171
 8756 0fcc 68010000 		.4byte	0x168
 8757 0fd0 10       		.byte	0x10
 8758 0fd1 00       		.byte	0
 8759 0fd2 02       		.uleb128 0x2
 8760 0fd3 F7210000 		.4byte	.LASF239
 8761 0fd7 0E       		.byte	0xe
 8762 0fd8 66       		.byte	0x66
 8763 0fd9 DD0F0000 		.4byte	0xfdd
 8764 0fdd 1C       		.uleb128 0x1c
 8765 0fde D6030000 		.4byte	.LASF240
 8766 0fe2 10       		.byte	0x10
 8767 0fe3 0F       		.byte	0xf
 8768 0fe4 7B01     		.2byte	0x17b
 8769 0fe6 1F100000 		.4byte	0x101f
 8770 0fea 1A       		.uleb128 0x1a
 8771 0feb A70C0000 		.4byte	.LASF234
 8772 0fef 0F       		.byte	0xf
 8773 0ff0 7C01     		.2byte	0x17c
 8774 0ff2 C11C0000 		.4byte	0x1cc1
 8775 0ff6 00       		.byte	0
 8776 0ff7 1A       		.uleb128 0x1a
 8777 0ff8 82090000 		.4byte	.LASF235
 8778 0ffc 0F       		.byte	0xf
 8779 0ffd 7E01     		.2byte	0x17e
 8780 0fff C11C0000 		.4byte	0x1cc1
 8781 1003 04       		.byte	0x4
 8782 1004 1A       		.uleb128 0x1a
 8783 1005 E8130000 		.4byte	.LASF236
 8784 1009 0F       		.byte	0xf
 8785 100a 8001     		.2byte	0x180
 8786 100c 570D0000 		.4byte	0xd57
 8787 1010 08       		.byte	0x8
 8788 1011 1A       		.uleb128 0x1a
 8789 1012 AA010000 		.4byte	.LASF241
 8790 1016 0F       		.byte	0xf
 8791 1017 8201     		.2byte	0x182
 8792 1019 620D0000 		.4byte	0xd62
 8793 101d 0C       		.byte	0xc
 8794 101e 00       		.byte	0
 8795 101f 02       		.uleb128 0x2
 8796 1020 580A0000 		.4byte	.LASF242
 8797 1024 0E       		.byte	0xe
ARM GAS  C:\Users\Moi\AppData\Local\Temp\ccF5N8ze.s 			page 161


 8798 1025 6B       		.byte	0x6b
 8799 1026 2A100000 		.4byte	0x102a
 8800 102a 19       		.uleb128 0x19
 8801 102b 7C1E0000 		.4byte	.LASF243
 8802 102f 1404     		.2byte	0x414
 8803 1031 0F       		.byte	0xf
 8804 1032 A201     		.2byte	0x1a2
 8805 1034 6D100000 		.4byte	0x106d
 8806 1038 1A       		.uleb128 0x1a
 8807 1039 21130000 		.4byte	.LASF244
 8808 103d 0F       		.byte	0xf
 8809 103e AA01     		.2byte	0x1aa
 8810 1040 EC070000 		.4byte	0x7ec
 8811 1044 00       		.byte	0
 8812 1045 1A       		.uleb128 0x1a
 8813 1046 E3120000 		.4byte	.LASF245
 8814 104a 0F       		.byte	0xf
 8815 104b AF01     		.2byte	0x1af
 8816 104d 410D0000 		.4byte	0xd41
 8817 1051 04       		.byte	0x4
 8818 1052 1A       		.uleb128 0x1a
 8819 1053 BE020000 		.4byte	.LASF246
 8820 1057 0F       		.byte	0xf
 8821 1058 B301     		.2byte	0x1b3
 8822 105a 410D0000 		.4byte	0xd41
 8823 105e 08       		.byte	0x8
 8824 105f 1A       		.uleb128 0x1a
 8825 1060 10160000 		.4byte	.LASF247
 8826 1064 0F       		.byte	0xf
 8827 1065 B901     		.2byte	0x1b9
 8828 1067 2D1B0000 		.4byte	0x1b2d
 8829 106b 0C       		.byte	0xc
 8830 106c 00       		.byte	0
 8831 106d 02       		.uleb128 0x2
 8832 106e FD000000 		.4byte	.LASF248
 8833 1072 0E       		.byte	0xe
 8834 1073 70       		.byte	0x70
 8835 1074 78100000 		.4byte	0x1078
 8836 1078 19       		.uleb128 0x19
 8837 1079 00160000 		.4byte	.LASF249
 8838 107d 7006     		.2byte	0x670
 8839 107f 0F       		.byte	0xf
 8840 1080 C201     		.2byte	0x1c2
 8841 1082 E5100000 		.4byte	0x10e5
 8842 1086 1A       		.uleb128 0x1a
 8843 1087 9E050000 		.4byte	.LASF250
 8844 108b 0F       		.byte	0xf
 8845 108c C601     		.2byte	0x1c6
 8846 108e F50E0000 		.4byte	0xef5
 8847 1092 00       		.byte	0
 8848 1093 1A       		.uleb128 0x1a
 8849 1094 44050000 		.4byte	.LASF251
 8850 1098 0F       		.byte	0xf
 8851 1099 CA01     		.2byte	0x1ca
 8852 109b D20F0000 		.4byte	0xfd2
 8853 109f 1C       		.byte	0x1c
 8854 10a0 25       		.uleb128 0x25
ARM GAS  C:\Users\Moi\AppData\Local\Temp\ccF5N8ze.s 			page 162


 8855 10a1 64626700 		.ascii	"dbg\000"
 8856 10a5 0F       		.byte	0xf
 8857 10a6 CE01     		.2byte	0x1ce
 8858 10a8 1F100000 		.4byte	0x101f
 8859 10ac 2C       		.byte	0x2c
 8860 10ad 1B       		.uleb128 0x1b
 8861 10ae 09170000 		.4byte	.LASF252
 8862 10b2 0F       		.byte	0xf
 8863 10b3 D201     		.2byte	0x1d2
 8864 10b5 670D0000 		.4byte	0xd67
 8865 10b9 4004     		.2byte	0x440
 8866 10bb 26       		.uleb128 0x26
 8867 10bc 746D00   		.ascii	"tm\000"
 8868 10bf 0F       		.byte	0xf
 8869 10c0 D701     		.2byte	0x1d7
 8870 10c2 4D1B0000 		.4byte	0x1b4d
 8871 10c6 A804     		.2byte	0x4a8
 8872 10c8 1B       		.uleb128 0x1b
 8873 10c9 CF1A0000 		.4byte	.LASF253
 8874 10cd 0F       		.byte	0xf
 8875 10ce DD01     		.2byte	0x1dd
 8876 10d0 DF1B0000 		.4byte	0x1bdf
 8877 10d4 B004     		.2byte	0x4b0
 8878 10d6 1B       		.uleb128 0x1b
 8879 10d7 88200000 		.4byte	.LASF254
 8880 10db 0F       		.byte	0xf
 8881 10dc E301     		.2byte	0x1e3
 8882 10de C71C0000 		.4byte	0x1cc7
 8883 10e2 E804     		.2byte	0x4e8
 8884 10e4 00       		.byte	0
 8885 10e5 0A       		.uleb128 0xa
 8886 10e6 AB010000 		.4byte	0x1ab
 8887 10ea F5100000 		.4byte	0x10f5
 8888 10ee 0B       		.uleb128 0xb
 8889 10ef B1000000 		.4byte	0xb1
 8890 10f3 01       		.byte	0x1
 8891 10f4 00       		.byte	0
 8892 10f5 0A       		.uleb128 0xa
 8893 10f6 AB010000 		.4byte	0x1ab
 8894 10fa 05110000 		.4byte	0x1105
 8895 10fe 0B       		.uleb128 0xb
 8896 10ff B1000000 		.4byte	0xb1
 8897 1103 07       		.byte	0x7
 8898 1104 00       		.byte	0
 8899 1105 21       		.uleb128 0x21
 8900 1106 15200000 		.4byte	.LASF255
 8901 110a 10       		.byte	0x10
 8902 110b A706     		.2byte	0x6a7
 8903 110d A6010000 		.4byte	0x1a6
 8904 1111 11       		.uleb128 0x11
 8905 1112 6E150000 		.4byte	.LASF256
 8906 1116 11       		.byte	0x11
 8907 1117 4C       		.byte	0x4c
 8908 1118 AB010000 		.4byte	0x1ab
 8909 111c 0C       		.uleb128 0xc
 8910 111d 50       		.byte	0x50
 8911 111e 12       		.byte	0x12
ARM GAS  C:\Users\Moi\AppData\Local\Temp\ccF5N8ze.s 			page 163


 8912 111f C4       		.byte	0xc4
 8913 1120 13120000 		.4byte	0x1213
 8914 1124 13       		.uleb128 0x13
 8915 1125 535200   		.ascii	"SR\000"
 8916 1128 12       		.byte	0x12
 8917 1129 C6       		.byte	0xc6
 8918 112a B6010000 		.4byte	0x1b6
 8919 112e 00       		.byte	0
 8920 112f 13       		.uleb128 0x13
 8921 1130 43523100 		.ascii	"CR1\000"
 8922 1134 12       		.byte	0x12
 8923 1135 C7       		.byte	0xc7
 8924 1136 B6010000 		.4byte	0x1b6
 8925 113a 04       		.byte	0x4
 8926 113b 13       		.uleb128 0x13
 8927 113c 43523200 		.ascii	"CR2\000"
 8928 1140 12       		.byte	0x12
 8929 1141 C8       		.byte	0xc8
 8930 1142 B6010000 		.4byte	0x1b6
 8931 1146 08       		.byte	0x8
 8932 1147 0D       		.uleb128 0xd
 8933 1148 FF020000 		.4byte	.LASF257
 8934 114c 12       		.byte	0x12
 8935 114d C9       		.byte	0xc9
 8936 114e B6010000 		.4byte	0x1b6
 8937 1152 0C       		.byte	0xc
 8938 1153 0D       		.uleb128 0xd
 8939 1154 05030000 		.4byte	.LASF258
 8940 1158 12       		.byte	0x12
 8941 1159 CA       		.byte	0xca
 8942 115a B6010000 		.4byte	0x1b6
 8943 115e 10       		.byte	0x10
 8944 115f 0D       		.uleb128 0xd
 8945 1160 910A0000 		.4byte	.LASF259
 8946 1164 12       		.byte	0x12
 8947 1165 CB       		.byte	0xcb
 8948 1166 B6010000 		.4byte	0x1b6
 8949 116a 14       		.byte	0x14
 8950 116b 0D       		.uleb128 0xd
 8951 116c 970A0000 		.4byte	.LASF260
 8952 1170 12       		.byte	0x12
 8953 1171 CC       		.byte	0xcc
 8954 1172 B6010000 		.4byte	0x1b6
 8955 1176 18       		.byte	0x18
 8956 1177 0D       		.uleb128 0xd
 8957 1178 65100000 		.4byte	.LASF261
 8958 117c 12       		.byte	0x12
 8959 117d CD       		.byte	0xcd
 8960 117e B6010000 		.4byte	0x1b6
 8961 1182 1C       		.byte	0x1c
 8962 1183 0D       		.uleb128 0xd
 8963 1184 9D0A0000 		.4byte	.LASF262
 8964 1188 12       		.byte	0x12
 8965 1189 CE       		.byte	0xce
 8966 118a B6010000 		.4byte	0x1b6
 8967 118e 20       		.byte	0x20
 8968 118f 13       		.uleb128 0x13
ARM GAS  C:\Users\Moi\AppData\Local\Temp\ccF5N8ze.s 			page 164


 8969 1190 48545200 		.ascii	"HTR\000"
 8970 1194 12       		.byte	0x12
 8971 1195 CF       		.byte	0xcf
 8972 1196 B6010000 		.4byte	0x1b6
 8973 119a 24       		.byte	0x24
 8974 119b 13       		.uleb128 0x13
 8975 119c 4C545200 		.ascii	"LTR\000"
 8976 11a0 12       		.byte	0x12
 8977 11a1 D0       		.byte	0xd0
 8978 11a2 B6010000 		.4byte	0x1b6
 8979 11a6 28       		.byte	0x28
 8980 11a7 0D       		.uleb128 0xd
 8981 11a8 52120000 		.4byte	.LASF263
 8982 11ac 12       		.byte	0x12
 8983 11ad D1       		.byte	0xd1
 8984 11ae B6010000 		.4byte	0x1b6
 8985 11b2 2C       		.byte	0x2c
 8986 11b3 0D       		.uleb128 0xd
 8987 11b4 57120000 		.4byte	.LASF264
 8988 11b8 12       		.byte	0x12
 8989 11b9 D2       		.byte	0xd2
 8990 11ba B6010000 		.4byte	0x1b6
 8991 11be 30       		.byte	0x30
 8992 11bf 0D       		.uleb128 0xd
 8993 11c0 5C120000 		.4byte	.LASF265
 8994 11c4 12       		.byte	0x12
 8995 11c5 D3       		.byte	0xd3
 8996 11c6 B6010000 		.4byte	0x1b6
 8997 11ca 34       		.byte	0x34
 8998 11cb 0D       		.uleb128 0xd
 8999 11cc 540C0000 		.4byte	.LASF266
 9000 11d0 12       		.byte	0x12
 9001 11d1 D4       		.byte	0xd4
 9002 11d2 B6010000 		.4byte	0x1b6
 9003 11d6 38       		.byte	0x38
 9004 11d7 0D       		.uleb128 0xd
 9005 11d8 B3210000 		.4byte	.LASF267
 9006 11dc 12       		.byte	0x12
 9007 11dd D5       		.byte	0xd5
 9008 11de B6010000 		.4byte	0x1b6
 9009 11e2 3C       		.byte	0x3c
 9010 11e3 0D       		.uleb128 0xd
 9011 11e4 B8210000 		.4byte	.LASF268
 9012 11e8 12       		.byte	0x12
 9013 11e9 D6       		.byte	0xd6
 9014 11ea B6010000 		.4byte	0x1b6
 9015 11ee 40       		.byte	0x40
 9016 11ef 0D       		.uleb128 0xd
 9017 11f0 BD210000 		.4byte	.LASF269
 9018 11f4 12       		.byte	0x12
 9019 11f5 D7       		.byte	0xd7
 9020 11f6 B6010000 		.4byte	0x1b6
 9021 11fa 44       		.byte	0x44
 9022 11fb 0D       		.uleb128 0xd
 9023 11fc C2210000 		.4byte	.LASF270
 9024 1200 12       		.byte	0x12
 9025 1201 D8       		.byte	0xd8
ARM GAS  C:\Users\Moi\AppData\Local\Temp\ccF5N8ze.s 			page 165


 9026 1202 B6010000 		.4byte	0x1b6
 9027 1206 48       		.byte	0x48
 9028 1207 13       		.uleb128 0x13
 9029 1208 445200   		.ascii	"DR\000"
 9030 120b 12       		.byte	0x12
 9031 120c D9       		.byte	0xd9
 9032 120d B6010000 		.4byte	0x1b6
 9033 1211 4C       		.byte	0x4c
 9034 1212 00       		.byte	0
 9035 1213 02       		.uleb128 0x2
 9036 1214 2F140000 		.4byte	.LASF271
 9037 1218 12       		.byte	0x12
 9038 1219 DA       		.byte	0xda
 9039 121a 1C110000 		.4byte	0x111c
 9040 121e 0C       		.uleb128 0xc
 9041 121f 10       		.byte	0x10
 9042 1220 12       		.byte	0x12
 9043 1221 E9       		.byte	0xe9
 9044 1222 57120000 		.4byte	0x1257
 9045 1226 13       		.uleb128 0x13
 9046 1227 54495200 		.ascii	"TIR\000"
 9047 122b 12       		.byte	0x12
 9048 122c EB       		.byte	0xeb
 9049 122d B6010000 		.4byte	0x1b6
 9050 1231 00       		.byte	0
 9051 1232 0D       		.uleb128 0xd
 9052 1233 2C100000 		.4byte	.LASF272
 9053 1237 12       		.byte	0x12
 9054 1238 EC       		.byte	0xec
 9055 1239 B6010000 		.4byte	0x1b6
 9056 123d 04       		.byte	0x4
 9057 123e 0D       		.uleb128 0xd
 9058 123f FB160000 		.4byte	.LASF273
 9059 1243 12       		.byte	0x12
 9060 1244 ED       		.byte	0xed
 9061 1245 B6010000 		.4byte	0x1b6
 9062 1249 08       		.byte	0x8
 9063 124a 0D       		.uleb128 0xd
 9064 124b C6140000 		.4byte	.LASF274
 9065 124f 12       		.byte	0x12
 9066 1250 EE       		.byte	0xee
 9067 1251 B6010000 		.4byte	0x1b6
 9068 1255 0C       		.byte	0xc
 9069 1256 00       		.byte	0
 9070 1257 02       		.uleb128 0x2
 9071 1258 88050000 		.4byte	.LASF275
 9072 125c 12       		.byte	0x12
 9073 125d EF       		.byte	0xef
 9074 125e 1E120000 		.4byte	0x121e
 9075 1262 0C       		.uleb128 0xc
 9076 1263 10       		.byte	0x10
 9077 1264 12       		.byte	0x12
 9078 1265 F5       		.byte	0xf5
 9079 1266 9B120000 		.4byte	0x129b
 9080 126a 13       		.uleb128 0x13
 9081 126b 52495200 		.ascii	"RIR\000"
 9082 126f 12       		.byte	0x12
ARM GAS  C:\Users\Moi\AppData\Local\Temp\ccF5N8ze.s 			page 166


 9083 1270 F7       		.byte	0xf7
 9084 1271 B6010000 		.4byte	0x1b6
 9085 1275 00       		.byte	0
 9086 1276 0D       		.uleb128 0xd
 9087 1277 FA1C0000 		.4byte	.LASF276
 9088 127b 12       		.byte	0x12
 9089 127c F8       		.byte	0xf8
 9090 127d B6010000 		.4byte	0x1b6
 9091 1281 04       		.byte	0x4
 9092 1282 0D       		.uleb128 0xd
 9093 1283 3E180000 		.4byte	.LASF277
 9094 1287 12       		.byte	0x12
 9095 1288 F9       		.byte	0xf9
 9096 1289 B6010000 		.4byte	0x1b6
 9097 128d 08       		.byte	0x8
 9098 128e 0D       		.uleb128 0xd
 9099 128f E6150000 		.4byte	.LASF278
 9100 1293 12       		.byte	0x12
 9101 1294 FA       		.byte	0xfa
 9102 1295 B6010000 		.4byte	0x1b6
 9103 1299 0C       		.byte	0xc
 9104 129a 00       		.byte	0
 9105 129b 02       		.uleb128 0x2
 9106 129c 101C0000 		.4byte	.LASF279
 9107 12a0 12       		.byte	0x12
 9108 12a1 FB       		.byte	0xfb
 9109 12a2 62120000 		.4byte	0x1262
 9110 12a6 1D       		.uleb128 0x1d
 9111 12a7 08       		.byte	0x8
 9112 12a8 12       		.byte	0x12
 9113 12a9 0101     		.2byte	0x101
 9114 12ab CA120000 		.4byte	0x12ca
 9115 12af 25       		.uleb128 0x25
 9116 12b0 46523100 		.ascii	"FR1\000"
 9117 12b4 12       		.byte	0x12
 9118 12b5 0301     		.2byte	0x103
 9119 12b7 B6010000 		.4byte	0x1b6
 9120 12bb 00       		.byte	0
 9121 12bc 25       		.uleb128 0x25
 9122 12bd 46523200 		.ascii	"FR2\000"
 9123 12c1 12       		.byte	0x12
 9124 12c2 0401     		.2byte	0x104
 9125 12c4 B6010000 		.4byte	0x1b6
 9126 12c8 04       		.byte	0x4
 9127 12c9 00       		.byte	0
 9128 12ca 07       		.uleb128 0x7
 9129 12cb 31100000 		.4byte	.LASF280
 9130 12cf 12       		.byte	0x12
 9131 12d0 0501     		.2byte	0x105
 9132 12d2 A6120000 		.4byte	0x12a6
 9133 12d6 27       		.uleb128 0x27
 9134 12d7 2003     		.2byte	0x320
 9135 12d9 12       		.byte	0x12
 9136 12da 0B01     		.2byte	0x10b
 9137 12dc 0C140000 		.4byte	0x140c
 9138 12e0 25       		.uleb128 0x25
 9139 12e1 4D435200 		.ascii	"MCR\000"
ARM GAS  C:\Users\Moi\AppData\Local\Temp\ccF5N8ze.s 			page 167


 9140 12e5 12       		.byte	0x12
 9141 12e6 0D01     		.2byte	0x10d
 9142 12e8 B6010000 		.4byte	0x1b6
 9143 12ec 00       		.byte	0
 9144 12ed 25       		.uleb128 0x25
 9145 12ee 4D535200 		.ascii	"MSR\000"
 9146 12f2 12       		.byte	0x12
 9147 12f3 0E01     		.2byte	0x10e
 9148 12f5 B6010000 		.4byte	0x1b6
 9149 12f9 04       		.byte	0x4
 9150 12fa 25       		.uleb128 0x25
 9151 12fb 54535200 		.ascii	"TSR\000"
 9152 12ff 12       		.byte	0x12
 9153 1300 0F01     		.2byte	0x10f
 9154 1302 B6010000 		.4byte	0x1b6
 9155 1306 08       		.byte	0x8
 9156 1307 1A       		.uleb128 0x1a
 9157 1308 780E0000 		.4byte	.LASF281
 9158 130c 12       		.byte	0x12
 9159 130d 1001     		.2byte	0x110
 9160 130f B6010000 		.4byte	0x1b6
 9161 1313 0C       		.byte	0xc
 9162 1314 1A       		.uleb128 0x1a
 9163 1315 7A180000 		.4byte	.LASF282
 9164 1319 12       		.byte	0x12
 9165 131a 1101     		.2byte	0x111
 9166 131c B6010000 		.4byte	0x1b6
 9167 1320 10       		.byte	0x10
 9168 1321 25       		.uleb128 0x25
 9169 1322 49455200 		.ascii	"IER\000"
 9170 1326 12       		.byte	0x12
 9171 1327 1201     		.2byte	0x112
 9172 1329 B6010000 		.4byte	0x1b6
 9173 132d 14       		.byte	0x14
 9174 132e 25       		.uleb128 0x25
 9175 132f 45535200 		.ascii	"ESR\000"
 9176 1333 12       		.byte	0x12
 9177 1334 1301     		.2byte	0x113
 9178 1336 B6010000 		.4byte	0x1b6
 9179 133a 18       		.byte	0x18
 9180 133b 25       		.uleb128 0x25
 9181 133c 42545200 		.ascii	"BTR\000"
 9182 1340 12       		.byte	0x12
 9183 1341 1401     		.2byte	0x114
 9184 1343 B6010000 		.4byte	0x1b6
 9185 1347 1C       		.byte	0x1c
 9186 1348 1A       		.uleb128 0x1a
 9187 1349 3A1F0000 		.4byte	.LASF283
 9188 134d 12       		.byte	0x12
 9189 134e 1501     		.2byte	0x115
 9190 1350 0C140000 		.4byte	0x140c
 9191 1354 20       		.byte	0x20
 9192 1355 1B       		.uleb128 0x1b
 9193 1356 2E110000 		.4byte	.LASF284
 9194 135a 12       		.byte	0x12
 9195 135b 1601     		.2byte	0x116
 9196 135d 1C140000 		.4byte	0x141c
ARM GAS  C:\Users\Moi\AppData\Local\Temp\ccF5N8ze.s 			page 168


 9197 1361 8001     		.2byte	0x180
 9198 1363 1B       		.uleb128 0x1b
 9199 1364 2C230000 		.4byte	.LASF285
 9200 1368 12       		.byte	0x12
 9201 1369 1701     		.2byte	0x117
 9202 136b 2C140000 		.4byte	0x142c
 9203 136f B001     		.2byte	0x1b0
 9204 1371 1B       		.uleb128 0x1b
 9205 1372 441F0000 		.4byte	.LASF286
 9206 1376 12       		.byte	0x12
 9207 1377 1801     		.2byte	0x118
 9208 1379 3C140000 		.4byte	0x143c
 9209 137d D001     		.2byte	0x1d0
 9210 137f 26       		.uleb128 0x26
 9211 1380 464D5200 		.ascii	"FMR\000"
 9212 1384 12       		.byte	0x12
 9213 1385 1901     		.2byte	0x119
 9214 1387 B6010000 		.4byte	0x1b6
 9215 138b 0002     		.2byte	0x200
 9216 138d 1B       		.uleb128 0x1b
 9217 138e 170B0000 		.4byte	.LASF287
 9218 1392 12       		.byte	0x12
 9219 1393 1A01     		.2byte	0x11a
 9220 1395 B6010000 		.4byte	0x1b6
 9221 1399 0402     		.2byte	0x204
 9222 139b 1B       		.uleb128 0x1b
 9223 139c 4E1F0000 		.4byte	.LASF288
 9224 13a0 12       		.byte	0x12
 9225 13a1 1B01     		.2byte	0x11b
 9226 13a3 AB010000 		.4byte	0x1ab
 9227 13a7 0802     		.2byte	0x208
 9228 13a9 1B       		.uleb128 0x1b
 9229 13aa 06210000 		.4byte	.LASF289
 9230 13ae 12       		.byte	0x12
 9231 13af 1C01     		.2byte	0x11c
 9232 13b1 B6010000 		.4byte	0x1b6
 9233 13b5 0C02     		.2byte	0x20c
 9234 13b7 1B       		.uleb128 0x1b
 9235 13b8 581F0000 		.4byte	.LASF290
 9236 13bc 12       		.byte	0x12
 9237 13bd 1D01     		.2byte	0x11d
 9238 13bf AB010000 		.4byte	0x1ab
 9239 13c3 1002     		.2byte	0x210
 9240 13c5 1B       		.uleb128 0x1b
 9241 13c6 74180000 		.4byte	.LASF291
 9242 13ca 12       		.byte	0x12
 9243 13cb 1E01     		.2byte	0x11e
 9244 13cd B6010000 		.4byte	0x1b6
 9245 13d1 1402     		.2byte	0x214
 9246 13d3 1B       		.uleb128 0x1b
 9247 13d4 621F0000 		.4byte	.LASF292
 9248 13d8 12       		.byte	0x12
 9249 13d9 1F01     		.2byte	0x11f
 9250 13db AB010000 		.4byte	0x1ab
 9251 13df 1802     		.2byte	0x218
 9252 13e1 1B       		.uleb128 0x1b
 9253 13e2 4D040000 		.4byte	.LASF293
ARM GAS  C:\Users\Moi\AppData\Local\Temp\ccF5N8ze.s 			page 169


 9254 13e6 12       		.byte	0x12
 9255 13e7 2001     		.2byte	0x120
 9256 13e9 B6010000 		.4byte	0x1b6
 9257 13ed 1C02     		.2byte	0x21c
 9258 13ef 1B       		.uleb128 0x1b
 9259 13f0 6C1F0000 		.4byte	.LASF294
 9260 13f4 12       		.byte	0x12
 9261 13f5 2101     		.2byte	0x121
 9262 13f7 F5100000 		.4byte	0x10f5
 9263 13fb 2002     		.2byte	0x220
 9264 13fd 1B       		.uleb128 0x1b
 9265 13fe 3F060000 		.4byte	.LASF295
 9266 1402 12       		.byte	0x12
 9267 1403 2201     		.2byte	0x122
 9268 1405 4C140000 		.4byte	0x144c
 9269 1409 4002     		.2byte	0x240
 9270 140b 00       		.byte	0
 9271 140c 0A       		.uleb128 0xa
 9272 140d AB010000 		.4byte	0x1ab
 9273 1411 1C140000 		.4byte	0x141c
 9274 1415 0B       		.uleb128 0xb
 9275 1416 B1000000 		.4byte	0xb1
 9276 141a 57       		.byte	0x57
 9277 141b 00       		.byte	0
 9278 141c 0A       		.uleb128 0xa
 9279 141d 57120000 		.4byte	0x1257
 9280 1421 2C140000 		.4byte	0x142c
 9281 1425 0B       		.uleb128 0xb
 9282 1426 B1000000 		.4byte	0xb1
 9283 142a 02       		.byte	0x2
 9284 142b 00       		.byte	0
 9285 142c 0A       		.uleb128 0xa
 9286 142d 9B120000 		.4byte	0x129b
 9287 1431 3C140000 		.4byte	0x143c
 9288 1435 0B       		.uleb128 0xb
 9289 1436 B1000000 		.4byte	0xb1
 9290 143a 01       		.byte	0x1
 9291 143b 00       		.byte	0
 9292 143c 0A       		.uleb128 0xa
 9293 143d AB010000 		.4byte	0x1ab
 9294 1441 4C140000 		.4byte	0x144c
 9295 1445 0B       		.uleb128 0xb
 9296 1446 B1000000 		.4byte	0xb1
 9297 144a 0B       		.byte	0xb
 9298 144b 00       		.byte	0
 9299 144c 0A       		.uleb128 0xa
 9300 144d CA120000 		.4byte	0x12ca
 9301 1451 5C140000 		.4byte	0x145c
 9302 1455 0B       		.uleb128 0xb
 9303 1456 B1000000 		.4byte	0xb1
 9304 145a 1B       		.byte	0x1b
 9305 145b 00       		.byte	0
 9306 145c 07       		.uleb128 0x7
 9307 145d 0A0D0000 		.4byte	.LASF296
 9308 1461 12       		.byte	0x12
 9309 1462 2301     		.2byte	0x123
 9310 1464 D6120000 		.4byte	0x12d6
ARM GAS  C:\Users\Moi\AppData\Local\Temp\ccF5N8ze.s 			page 170


 9311 1468 1D       		.uleb128 0x1d
 9312 1469 38       		.byte	0x38
 9313 146a 12       		.byte	0x12
 9314 146b 3601     		.2byte	0x136
 9315 146d 26150000 		.4byte	0x1526
 9316 1471 25       		.uleb128 0x25
 9317 1472 435200   		.ascii	"CR\000"
 9318 1475 12       		.byte	0x12
 9319 1476 3801     		.2byte	0x138
 9320 1478 B6010000 		.4byte	0x1b6
 9321 147c 00       		.byte	0
 9322 147d 1A       		.uleb128 0x1a
 9323 147e C0150000 		.4byte	.LASF297
 9324 1482 12       		.byte	0x12
 9325 1483 3901     		.2byte	0x139
 9326 1485 B6010000 		.4byte	0x1b6
 9327 1489 04       		.byte	0x4
 9328 148a 1A       		.uleb128 0x1a
 9329 148b 881F0000 		.4byte	.LASF298
 9330 148f 12       		.byte	0x12
 9331 1490 3A01     		.2byte	0x13a
 9332 1492 B6010000 		.4byte	0x1b6
 9333 1496 08       		.byte	0x8
 9334 1497 1A       		.uleb128 0x1a
 9335 1498 8E1A0000 		.4byte	.LASF299
 9336 149c 12       		.byte	0x12
 9337 149d 3B01     		.2byte	0x13b
 9338 149f B6010000 		.4byte	0x1b6
 9339 14a3 0C       		.byte	0xc
 9340 14a4 1A       		.uleb128 0x1a
 9341 14a5 670A0000 		.4byte	.LASF300
 9342 14a9 12       		.byte	0x12
 9343 14aa 3C01     		.2byte	0x13c
 9344 14ac B6010000 		.4byte	0x1b6
 9345 14b0 10       		.byte	0x10
 9346 14b1 1A       		.uleb128 0x1a
 9347 14b2 901F0000 		.4byte	.LASF301
 9348 14b6 12       		.byte	0x12
 9349 14b7 3D01     		.2byte	0x13d
 9350 14b9 B6010000 		.4byte	0x1b6
 9351 14bd 14       		.byte	0x14
 9352 14be 1A       		.uleb128 0x1a
 9353 14bf FE0F0000 		.4byte	.LASF302
 9354 14c3 12       		.byte	0x12
 9355 14c4 3E01     		.2byte	0x13e
 9356 14c6 B6010000 		.4byte	0x1b6
 9357 14ca 18       		.byte	0x18
 9358 14cb 1A       		.uleb128 0x1a
 9359 14cc 6E0A0000 		.4byte	.LASF303
 9360 14d0 12       		.byte	0x12
 9361 14d1 3F01     		.2byte	0x13f
 9362 14d3 B6010000 		.4byte	0x1b6
 9363 14d7 1C       		.byte	0x1c
 9364 14d8 1A       		.uleb128 0x1a
 9365 14d9 D71F0000 		.4byte	.LASF304
 9366 14dd 12       		.byte	0x12
 9367 14de 4001     		.2byte	0x140
ARM GAS  C:\Users\Moi\AppData\Local\Temp\ccF5N8ze.s 			page 171


 9368 14e0 B6010000 		.4byte	0x1b6
 9369 14e4 20       		.byte	0x20
 9370 14e5 1A       		.uleb128 0x1a
 9371 14e6 C71A0000 		.4byte	.LASF305
 9372 14ea 12       		.byte	0x12
 9373 14eb 4101     		.2byte	0x141
 9374 14ed B6010000 		.4byte	0x1b6
 9375 14f1 24       		.byte	0x24
 9376 14f2 1A       		.uleb128 0x1a
 9377 14f3 4E230000 		.4byte	.LASF306
 9378 14f7 12       		.byte	0x12
 9379 14f8 4201     		.2byte	0x142
 9380 14fa B6010000 		.4byte	0x1b6
 9381 14fe 28       		.byte	0x28
 9382 14ff 1A       		.uleb128 0x1a
 9383 1500 B5010000 		.4byte	.LASF307
 9384 1504 12       		.byte	0x12
 9385 1505 4301     		.2byte	0x143
 9386 1507 B6010000 		.4byte	0x1b6
 9387 150b 2C       		.byte	0x2c
 9388 150c 1A       		.uleb128 0x1a
 9389 150d BA010000 		.4byte	.LASF308
 9390 1511 12       		.byte	0x12
 9391 1512 4401     		.2byte	0x144
 9392 1514 B6010000 		.4byte	0x1b6
 9393 1518 30       		.byte	0x30
 9394 1519 25       		.uleb128 0x25
 9395 151a 535200   		.ascii	"SR\000"
 9396 151d 12       		.byte	0x12
 9397 151e 4501     		.2byte	0x145
 9398 1520 B6010000 		.4byte	0x1b6
 9399 1524 34       		.byte	0x34
 9400 1525 00       		.byte	0
 9401 1526 07       		.uleb128 0x7
 9402 1527 281C0000 		.4byte	.LASF309
 9403 152b 12       		.byte	0x12
 9404 152c 4601     		.2byte	0x146
 9405 152e 68140000 		.4byte	0x1468
 9406 1532 1D       		.uleb128 0x1d
 9407 1533 2C       		.byte	0x2c
 9408 1534 12       		.byte	0x12
 9409 1535 5801     		.2byte	0x158
 9410 1537 C8150000 		.4byte	0x15c8
 9411 153b 25       		.uleb128 0x25
 9412 153c 435200   		.ascii	"CR\000"
 9413 153f 12       		.byte	0x12
 9414 1540 5A01     		.2byte	0x15a
 9415 1542 B6010000 		.4byte	0x1b6
 9416 1546 00       		.byte	0
 9417 1547 25       		.uleb128 0x25
 9418 1548 535200   		.ascii	"SR\000"
 9419 154b 12       		.byte	0x12
 9420 154c 5B01     		.2byte	0x15b
 9421 154e B6010000 		.4byte	0x1b6
 9422 1552 04       		.byte	0x4
 9423 1553 1A       		.uleb128 0x1a
 9424 1554 BD090000 		.4byte	.LASF310
ARM GAS  C:\Users\Moi\AppData\Local\Temp\ccF5N8ze.s 			page 172


 9425 1558 12       		.byte	0x12
 9426 1559 5C01     		.2byte	0x15c
 9427 155b B6010000 		.4byte	0x1b6
 9428 155f 08       		.byte	0x8
 9429 1560 25       		.uleb128 0x25
 9430 1561 49455200 		.ascii	"IER\000"
 9431 1565 12       		.byte	0x12
 9432 1566 5D01     		.2byte	0x15d
 9433 1568 B6010000 		.4byte	0x1b6
 9434 156c 0C       		.byte	0xc
 9435 156d 1A       		.uleb128 0x1a
 9436 156e 10200000 		.4byte	.LASF311
 9437 1572 12       		.byte	0x12
 9438 1573 5E01     		.2byte	0x15e
 9439 1575 B6010000 		.4byte	0x1b6
 9440 1579 10       		.byte	0x10
 9441 157a 25       		.uleb128 0x25
 9442 157b 49435200 		.ascii	"ICR\000"
 9443 157f 12       		.byte	0x12
 9444 1580 5F01     		.2byte	0x15f
 9445 1582 B6010000 		.4byte	0x1b6
 9446 1586 14       		.byte	0x14
 9447 1587 1A       		.uleb128 0x1a
 9448 1588 4C190000 		.4byte	.LASF312
 9449 158c 12       		.byte	0x12
 9450 158d 6001     		.2byte	0x160
 9451 158f B6010000 		.4byte	0x1b6
 9452 1593 18       		.byte	0x18
 9453 1594 1A       		.uleb128 0x1a
 9454 1595 21250000 		.4byte	.LASF313
 9455 1599 12       		.byte	0x12
 9456 159a 6101     		.2byte	0x161
 9457 159c B6010000 		.4byte	0x1b6
 9458 15a0 1C       		.byte	0x1c
 9459 15a1 1A       		.uleb128 0x1a
 9460 15a2 EF110000 		.4byte	.LASF314
 9461 15a6 12       		.byte	0x12
 9462 15a7 6201     		.2byte	0x162
 9463 15a9 B6010000 		.4byte	0x1b6
 9464 15ad 20       		.byte	0x20
 9465 15ae 1A       		.uleb128 0x1a
 9466 15af C1190000 		.4byte	.LASF315
 9467 15b3 12       		.byte	0x12
 9468 15b4 6301     		.2byte	0x163
 9469 15b6 B6010000 		.4byte	0x1b6
 9470 15ba 24       		.byte	0x24
 9471 15bb 25       		.uleb128 0x25
 9472 15bc 445200   		.ascii	"DR\000"
 9473 15bf 12       		.byte	0x12
 9474 15c0 6401     		.2byte	0x164
 9475 15c2 B6010000 		.4byte	0x1b6
 9476 15c6 28       		.byte	0x28
 9477 15c7 00       		.byte	0
 9478 15c8 07       		.uleb128 0x7
 9479 15c9 52040000 		.4byte	.LASF316
 9480 15cd 12       		.byte	0x12
 9481 15ce 6501     		.2byte	0x165
ARM GAS  C:\Users\Moi\AppData\Local\Temp\ccF5N8ze.s 			page 173


 9482 15d0 32150000 		.4byte	0x1532
 9483 15d4 1D       		.uleb128 0x1d
 9484 15d5 18       		.byte	0x18
 9485 15d6 12       		.byte	0x12
 9486 15d7 6B01     		.2byte	0x16b
 9487 15d9 2B160000 		.4byte	0x162b
 9488 15dd 25       		.uleb128 0x25
 9489 15de 435200   		.ascii	"CR\000"
 9490 15e1 12       		.byte	0x12
 9491 15e2 6D01     		.2byte	0x16d
 9492 15e4 B6010000 		.4byte	0x1b6
 9493 15e8 00       		.byte	0
 9494 15e9 1A       		.uleb128 0x1a
 9495 15ea 64200000 		.4byte	.LASF317
 9496 15ee 12       		.byte	0x12
 9497 15ef 6E01     		.2byte	0x16e
 9498 15f1 B6010000 		.4byte	0x1b6
 9499 15f5 04       		.byte	0x4
 9500 15f6 25       		.uleb128 0x25
 9501 15f7 50415200 		.ascii	"PAR\000"
 9502 15fb 12       		.byte	0x12
 9503 15fc 6F01     		.2byte	0x16f
 9504 15fe B6010000 		.4byte	0x1b6
 9505 1602 08       		.byte	0x8
 9506 1603 1A       		.uleb128 0x1a
 9507 1604 2F040000 		.4byte	.LASF318
 9508 1608 12       		.byte	0x12
 9509 1609 7001     		.2byte	0x170
 9510 160b B6010000 		.4byte	0x1b6
 9511 160f 0C       		.byte	0xc
 9512 1610 1A       		.uleb128 0x1a
 9513 1611 45080000 		.4byte	.LASF319
 9514 1615 12       		.byte	0x12
 9515 1616 7101     		.2byte	0x171
 9516 1618 B6010000 		.4byte	0x1b6
 9517 161c 10       		.byte	0x10
 9518 161d 25       		.uleb128 0x25
 9519 161e 46435200 		.ascii	"FCR\000"
 9520 1622 12       		.byte	0x12
 9521 1623 7201     		.2byte	0x172
 9522 1625 B6010000 		.4byte	0x1b6
 9523 1629 14       		.byte	0x14
 9524 162a 00       		.byte	0
 9525 162b 07       		.uleb128 0x7
 9526 162c 4F080000 		.4byte	.LASF320
 9527 1630 12       		.byte	0x12
 9528 1631 7301     		.2byte	0x173
 9529 1633 D4150000 		.4byte	0x15d4
 9530 1637 0A       		.uleb128 0xa
 9531 1638 B6010000 		.4byte	0x1b6
 9532 163c 47160000 		.4byte	0x1647
 9533 1640 0B       		.uleb128 0xb
 9534 1641 B1000000 		.4byte	0xb1
 9535 1645 01       		.byte	0x1
 9536 1646 00       		.byte	0
 9537 1647 10       		.uleb128 0x10
 9538 1648 37160000 		.4byte	0x1637
ARM GAS  C:\Users\Moi\AppData\Local\Temp\ccF5N8ze.s 			page 174


 9539 164c 0A       		.uleb128 0xa
 9540 164d B6010000 		.4byte	0x1b6
 9541 1651 5C160000 		.4byte	0x165c
 9542 1655 0B       		.uleb128 0xb
 9543 1656 B1000000 		.4byte	0xb1
 9544 165a 03       		.byte	0x3
 9545 165b 00       		.byte	0
 9546 165c 10       		.uleb128 0x10
 9547 165d 4C160000 		.4byte	0x164c
 9548 1661 1D       		.uleb128 0x1d
 9549 1662 28       		.byte	0x28
 9550 1663 12       		.byte	0x12
 9551 1664 3F02     		.2byte	0x23f
 9552 1666 EC160000 		.4byte	0x16ec
 9553 166a 25       		.uleb128 0x25
 9554 166b 43523100 		.ascii	"CR1\000"
 9555 166f 12       		.byte	0x12
 9556 1670 4102     		.2byte	0x241
 9557 1672 B6010000 		.4byte	0x1b6
 9558 1676 00       		.byte	0
 9559 1677 25       		.uleb128 0x25
 9560 1678 43523200 		.ascii	"CR2\000"
 9561 167c 12       		.byte	0x12
 9562 167d 4202     		.2byte	0x242
 9563 167f B6010000 		.4byte	0x1b6
 9564 1683 04       		.byte	0x4
 9565 1684 1A       		.uleb128 0x1a
 9566 1685 1A260000 		.4byte	.LASF321
 9567 1689 12       		.byte	0x12
 9568 168a 4302     		.2byte	0x243
 9569 168c B6010000 		.4byte	0x1b6
 9570 1690 08       		.byte	0x8
 9571 1691 1A       		.uleb128 0x1a
 9572 1692 1F260000 		.4byte	.LASF322
 9573 1696 12       		.byte	0x12
 9574 1697 4402     		.2byte	0x244
 9575 1699 B6010000 		.4byte	0x1b6
 9576 169d 0C       		.byte	0xc
 9577 169e 25       		.uleb128 0x25
 9578 169f 445200   		.ascii	"DR\000"
 9579 16a2 12       		.byte	0x12
 9580 16a3 4502     		.2byte	0x245
 9581 16a5 B6010000 		.4byte	0x1b6
 9582 16a9 10       		.byte	0x10
 9583 16aa 25       		.uleb128 0x25
 9584 16ab 53523100 		.ascii	"SR1\000"
 9585 16af 12       		.byte	0x12
 9586 16b0 4602     		.2byte	0x246
 9587 16b2 B6010000 		.4byte	0x1b6
 9588 16b6 14       		.byte	0x14
 9589 16b7 25       		.uleb128 0x25
 9590 16b8 53523200 		.ascii	"SR2\000"
 9591 16bc 12       		.byte	0x12
 9592 16bd 4702     		.2byte	0x247
 9593 16bf B6010000 		.4byte	0x1b6
 9594 16c3 18       		.byte	0x18
 9595 16c4 25       		.uleb128 0x25
ARM GAS  C:\Users\Moi\AppData\Local\Temp\ccF5N8ze.s 			page 175


 9596 16c5 43435200 		.ascii	"CCR\000"
 9597 16c9 12       		.byte	0x12
 9598 16ca 4802     		.2byte	0x248
 9599 16cc B6010000 		.4byte	0x1b6
 9600 16d0 1C       		.byte	0x1c
 9601 16d1 1A       		.uleb128 0x1a
 9602 16d2 4B050000 		.4byte	.LASF323
 9603 16d6 12       		.byte	0x12
 9604 16d7 4902     		.2byte	0x249
 9605 16d9 B6010000 		.4byte	0x1b6
 9606 16dd 20       		.byte	0x20
 9607 16de 1A       		.uleb128 0x1a
 9608 16df B2240000 		.4byte	.LASF324
 9609 16e3 12       		.byte	0x12
 9610 16e4 4A02     		.2byte	0x24a
 9611 16e6 B6010000 		.4byte	0x1b6
 9612 16ea 24       		.byte	0x24
 9613 16eb 00       		.byte	0
 9614 16ec 07       		.uleb128 0x7
 9615 16ed D0110000 		.4byte	.LASF325
 9616 16f1 12       		.byte	0x12
 9617 16f2 4B02     		.2byte	0x24b
 9618 16f4 61160000 		.4byte	0x1661
 9619 16f8 1D       		.uleb128 0x1d
 9620 16f9 84       		.byte	0x84
 9621 16fa 12       		.byte	0x12
 9622 16fb BF02     		.2byte	0x2bf
 9623 16fd 06180000 		.4byte	0x1806
 9624 1701 1A       		.uleb128 0x1a
 9625 1702 0A160000 		.4byte	.LASF326
 9626 1706 12       		.byte	0x12
 9627 1707 C102     		.2byte	0x2c1
 9628 1709 B6010000 		.4byte	0x1b6
 9629 170d 00       		.byte	0
 9630 170e 1A       		.uleb128 0x1a
 9631 170f 84210000 		.4byte	.LASF327
 9632 1713 12       		.byte	0x12
 9633 1714 C202     		.2byte	0x2c2
 9634 1716 B6010000 		.4byte	0x1b6
 9635 171a 04       		.byte	0x4
 9636 171b 25       		.uleb128 0x25
 9637 171c 41524700 		.ascii	"ARG\000"
 9638 1720 12       		.byte	0x12
 9639 1721 C302     		.2byte	0x2c3
 9640 1723 B6010000 		.4byte	0x1b6
 9641 1727 08       		.byte	0x8
 9642 1728 25       		.uleb128 0x25
 9643 1729 434D4400 		.ascii	"CMD\000"
 9644 172d 12       		.byte	0x12
 9645 172e C402     		.2byte	0x2c4
 9646 1730 B6010000 		.4byte	0x1b6
 9647 1734 0C       		.byte	0xc
 9648 1735 1A       		.uleb128 0x1a
 9649 1736 0E190000 		.4byte	.LASF328
 9650 173a 12       		.byte	0x12
 9651 173b C502     		.2byte	0x2c5
 9652 173d BB010000 		.4byte	0x1bb
ARM GAS  C:\Users\Moi\AppData\Local\Temp\ccF5N8ze.s 			page 176


 9653 1741 10       		.byte	0x10
 9654 1742 1A       		.uleb128 0x1a
 9655 1743 6C060000 		.4byte	.LASF329
 9656 1747 12       		.byte	0x12
 9657 1748 C602     		.2byte	0x2c6
 9658 174a BB010000 		.4byte	0x1bb
 9659 174e 14       		.byte	0x14
 9660 174f 1A       		.uleb128 0x1a
 9661 1750 83030000 		.4byte	.LASF330
 9662 1754 12       		.byte	0x12
 9663 1755 C702     		.2byte	0x2c7
 9664 1757 BB010000 		.4byte	0x1bb
 9665 175b 18       		.byte	0x18
 9666 175c 1A       		.uleb128 0x1a
 9667 175d 72060000 		.4byte	.LASF331
 9668 1761 12       		.byte	0x12
 9669 1762 C802     		.2byte	0x2c8
 9670 1764 BB010000 		.4byte	0x1bb
 9671 1768 1C       		.byte	0x1c
 9672 1769 1A       		.uleb128 0x1a
 9673 176a 78060000 		.4byte	.LASF332
 9674 176e 12       		.byte	0x12
 9675 176f C902     		.2byte	0x2c9
 9676 1771 BB010000 		.4byte	0x1bb
 9677 1775 20       		.byte	0x20
 9678 1776 1A       		.uleb128 0x1a
 9679 1777 38130000 		.4byte	.LASF333
 9680 177b 12       		.byte	0x12
 9681 177c CA02     		.2byte	0x2ca
 9682 177e B6010000 		.4byte	0x1b6
 9683 1782 24       		.byte	0x24
 9684 1783 1A       		.uleb128 0x1a
 9685 1784 F0140000 		.4byte	.LASF334
 9686 1788 12       		.byte	0x12
 9687 1789 CB02     		.2byte	0x2cb
 9688 178b B6010000 		.4byte	0x1b6
 9689 178f 28       		.byte	0x28
 9690 1790 1A       		.uleb128 0x1a
 9691 1791 9E240000 		.4byte	.LASF335
 9692 1795 12       		.byte	0x12
 9693 1796 CC02     		.2byte	0x2cc
 9694 1798 B6010000 		.4byte	0x1b6
 9695 179c 2C       		.byte	0x2c
 9696 179d 1A       		.uleb128 0x1a
 9697 179e 13260000 		.4byte	.LASF336
 9698 17a2 12       		.byte	0x12
 9699 17a3 CD02     		.2byte	0x2cd
 9700 17a5 BB010000 		.4byte	0x1bb
 9701 17a9 30       		.byte	0x30
 9702 17aa 25       		.uleb128 0x25
 9703 17ab 53544100 		.ascii	"STA\000"
 9704 17af 12       		.byte	0x12
 9705 17b0 CE02     		.2byte	0x2ce
 9706 17b2 BB010000 		.4byte	0x1bb
 9707 17b6 34       		.byte	0x34
 9708 17b7 25       		.uleb128 0x25
 9709 17b8 49435200 		.ascii	"ICR\000"
ARM GAS  C:\Users\Moi\AppData\Local\Temp\ccF5N8ze.s 			page 177


 9710 17bc 12       		.byte	0x12
 9711 17bd CF02     		.2byte	0x2cf
 9712 17bf B6010000 		.4byte	0x1b6
 9713 17c3 38       		.byte	0x38
 9714 17c4 1A       		.uleb128 0x1a
 9715 17c5 F3010000 		.4byte	.LASF337
 9716 17c9 12       		.byte	0x12
 9717 17ca D002     		.2byte	0x2d0
 9718 17cc B6010000 		.4byte	0x1b6
 9719 17d0 3C       		.byte	0x3c
 9720 17d1 1A       		.uleb128 0x1a
 9721 17d2 3A1F0000 		.4byte	.LASF283
 9722 17d6 12       		.byte	0x12
 9723 17d7 D102     		.2byte	0x2d1
 9724 17d9 E5100000 		.4byte	0x10e5
 9725 17dd 40       		.byte	0x40
 9726 17de 1A       		.uleb128 0x1a
 9727 17df C8130000 		.4byte	.LASF338
 9728 17e3 12       		.byte	0x12
 9729 17e4 D202     		.2byte	0x2d2
 9730 17e6 BB010000 		.4byte	0x1bb
 9731 17ea 48       		.byte	0x48
 9732 17eb 1A       		.uleb128 0x1a
 9733 17ec 441F0000 		.4byte	.LASF286
 9734 17f0 12       		.byte	0x12
 9735 17f1 D302     		.2byte	0x2d3
 9736 17f3 06180000 		.4byte	0x1806
 9737 17f7 4C       		.byte	0x4c
 9738 17f8 1A       		.uleb128 0x1a
 9739 17f9 B0090000 		.4byte	.LASF339
 9740 17fd 12       		.byte	0x12
 9741 17fe D402     		.2byte	0x2d4
 9742 1800 B6010000 		.4byte	0x1b6
 9743 1804 80       		.byte	0x80
 9744 1805 00       		.byte	0
 9745 1806 0A       		.uleb128 0xa
 9746 1807 AB010000 		.4byte	0x1ab
 9747 180b 16180000 		.4byte	0x1816
 9748 180f 0B       		.uleb128 0xb
 9749 1810 B1000000 		.4byte	0xb1
 9750 1814 0C       		.byte	0xc
 9751 1815 00       		.byte	0
 9752 1816 07       		.uleb128 0x7
 9753 1817 51020000 		.4byte	.LASF340
 9754 181b 12       		.byte	0x12
 9755 181c D502     		.2byte	0x2d5
 9756 181e F8160000 		.4byte	0x16f8
 9757 1822 1D       		.uleb128 0x1d
 9758 1823 24       		.byte	0x24
 9759 1824 12       		.byte	0x12
 9760 1825 DB02     		.2byte	0x2db
 9761 1827 9F180000 		.4byte	0x189f
 9762 182b 25       		.uleb128 0x25
 9763 182c 43523100 		.ascii	"CR1\000"
 9764 1830 12       		.byte	0x12
 9765 1831 DD02     		.2byte	0x2dd
 9766 1833 B6010000 		.4byte	0x1b6
ARM GAS  C:\Users\Moi\AppData\Local\Temp\ccF5N8ze.s 			page 178


 9767 1837 00       		.byte	0
 9768 1838 25       		.uleb128 0x25
 9769 1839 43523200 		.ascii	"CR2\000"
 9770 183d 12       		.byte	0x12
 9771 183e DE02     		.2byte	0x2de
 9772 1840 B6010000 		.4byte	0x1b6
 9773 1844 04       		.byte	0x4
 9774 1845 25       		.uleb128 0x25
 9775 1846 535200   		.ascii	"SR\000"
 9776 1849 12       		.byte	0x12
 9777 184a DF02     		.2byte	0x2df
 9778 184c B6010000 		.4byte	0x1b6
 9779 1850 08       		.byte	0x8
 9780 1851 25       		.uleb128 0x25
 9781 1852 445200   		.ascii	"DR\000"
 9782 1855 12       		.byte	0x12
 9783 1856 E002     		.2byte	0x2e0
 9784 1858 B6010000 		.4byte	0x1b6
 9785 185c 0C       		.byte	0xc
 9786 185d 1A       		.uleb128 0x1a
 9787 185e C9070000 		.4byte	.LASF341
 9788 1862 12       		.byte	0x12
 9789 1863 E102     		.2byte	0x2e1
 9790 1865 B6010000 		.4byte	0x1b6
 9791 1869 10       		.byte	0x10
 9792 186a 1A       		.uleb128 0x1a
 9793 186b A80B0000 		.4byte	.LASF342
 9794 186f 12       		.byte	0x12
 9795 1870 E202     		.2byte	0x2e2
 9796 1872 B6010000 		.4byte	0x1b6
 9797 1876 14       		.byte	0x14
 9798 1877 1A       		.uleb128 0x1a
 9799 1878 B10A0000 		.4byte	.LASF343
 9800 187c 12       		.byte	0x12
 9801 187d E302     		.2byte	0x2e3
 9802 187f B6010000 		.4byte	0x1b6
 9803 1883 18       		.byte	0x18
 9804 1884 1A       		.uleb128 0x1a
 9805 1885 67220000 		.4byte	.LASF344
 9806 1889 12       		.byte	0x12
 9807 188a E402     		.2byte	0x2e4
 9808 188c B6010000 		.4byte	0x1b6
 9809 1890 1C       		.byte	0x1c
 9810 1891 1A       		.uleb128 0x1a
 9811 1892 7B070000 		.4byte	.LASF345
 9812 1896 12       		.byte	0x12
 9813 1897 E502     		.2byte	0x2e5
 9814 1899 B6010000 		.4byte	0x1b6
 9815 189d 20       		.byte	0x20
 9816 189e 00       		.byte	0
 9817 189f 07       		.uleb128 0x7
 9818 18a0 9F200000 		.4byte	.LASF346
 9819 18a4 12       		.byte	0x12
 9820 18a5 E602     		.2byte	0x2e6
 9821 18a7 22180000 		.4byte	0x1822
 9822 18ab 1D       		.uleb128 0x1d
 9823 18ac 1C       		.byte	0x1c
ARM GAS  C:\Users\Moi\AppData\Local\Temp\ccF5N8ze.s 			page 179


 9824 18ad 12       		.byte	0x12
 9825 18ae 0903     		.2byte	0x309
 9826 18b0 0E190000 		.4byte	0x190e
 9827 18b4 25       		.uleb128 0x25
 9828 18b5 535200   		.ascii	"SR\000"
 9829 18b8 12       		.byte	0x12
 9830 18b9 0B03     		.2byte	0x30b
 9831 18bb B6010000 		.4byte	0x1b6
 9832 18bf 00       		.byte	0
 9833 18c0 25       		.uleb128 0x25
 9834 18c1 445200   		.ascii	"DR\000"
 9835 18c4 12       		.byte	0x12
 9836 18c5 0C03     		.2byte	0x30c
 9837 18c7 B6010000 		.4byte	0x1b6
 9838 18cb 04       		.byte	0x4
 9839 18cc 25       		.uleb128 0x25
 9840 18cd 42525200 		.ascii	"BRR\000"
 9841 18d1 12       		.byte	0x12
 9842 18d2 0D03     		.2byte	0x30d
 9843 18d4 B6010000 		.4byte	0x1b6
 9844 18d8 08       		.byte	0x8
 9845 18d9 25       		.uleb128 0x25
 9846 18da 43523100 		.ascii	"CR1\000"
 9847 18de 12       		.byte	0x12
 9848 18df 0E03     		.2byte	0x30e
 9849 18e1 B6010000 		.4byte	0x1b6
 9850 18e5 0C       		.byte	0xc
 9851 18e6 25       		.uleb128 0x25
 9852 18e7 43523200 		.ascii	"CR2\000"
 9853 18eb 12       		.byte	0x12
 9854 18ec 0F03     		.2byte	0x30f
 9855 18ee B6010000 		.4byte	0x1b6
 9856 18f2 10       		.byte	0x10
 9857 18f3 25       		.uleb128 0x25
 9858 18f4 43523300 		.ascii	"CR3\000"
 9859 18f8 12       		.byte	0x12
 9860 18f9 1003     		.2byte	0x310
 9861 18fb B6010000 		.4byte	0x1b6
 9862 18ff 14       		.byte	0x14
 9863 1900 1A       		.uleb128 0x1a
 9864 1901 C2090000 		.4byte	.LASF347
 9865 1905 12       		.byte	0x12
 9866 1906 1103     		.2byte	0x311
 9867 1908 B6010000 		.4byte	0x1b6
 9868 190c 18       		.byte	0x18
 9869 190d 00       		.byte	0
 9870 190e 07       		.uleb128 0x7
 9871 190f 5B250000 		.4byte	.LASF348
 9872 1913 12       		.byte	0x12
 9873 1914 1203     		.2byte	0x312
 9874 1916 AB180000 		.4byte	0x18ab
 9875 191a 0A       		.uleb128 0xa
 9876 191b B6010000 		.4byte	0x1b6
 9877 191f 2A190000 		.4byte	0x192a
 9878 1923 0B       		.uleb128 0xb
 9879 1924 B1000000 		.4byte	0xb1
 9880 1928 0E       		.byte	0xe
ARM GAS  C:\Users\Moi\AppData\Local\Temp\ccF5N8ze.s 			page 180


 9881 1929 00       		.byte	0
 9882 192a 10       		.uleb128 0x10
 9883 192b 1A190000 		.4byte	0x191a
 9884 192f 02       		.uleb128 0x2
 9885 1930 4F180000 		.4byte	.LASF349
 9886 1934 13       		.byte	0x13
 9887 1935 65       		.byte	0x65
 9888 1936 68010000 		.4byte	0x168
 9889 193a 02       		.uleb128 0x2
 9890 193b 44090000 		.4byte	.LASF350
 9891 193f 13       		.byte	0x13
 9892 1940 6D       		.byte	0x6d
 9893 1941 C0010000 		.4byte	0x1c0
 9894 1945 12       		.uleb128 0x12
 9895 1946 26120000 		.4byte	.LASF351
 9896 194a 04       		.byte	0x4
 9897 194b 13       		.byte	0x13
 9898 194c 89       		.byte	0x89
 9899 194d 5E190000 		.4byte	0x195e
 9900 1951 13       		.uleb128 0x13
 9901 1952 72313300 		.ascii	"r13\000"
 9902 1956 13       		.byte	0x13
 9903 1957 8A       		.byte	0x8a
 9904 1958 9F1A0000 		.4byte	0x1a9f
 9905 195c 00       		.byte	0
 9906 195d 00       		.byte	0
 9907 195e 12       		.uleb128 0x12
 9908 195f 09000000 		.4byte	.LASF352
 9909 1963 64       		.byte	0x64
 9910 1964 14       		.byte	0x14
 9911 1965 F4       		.byte	0xf4
 9912 1966 9F1A0000 		.4byte	0x1a9f
 9913 196a 13       		.uleb128 0x13
 9914 196b 73313600 		.ascii	"s16\000"
 9915 196f 14       		.byte	0x14
 9916 1970 F6       		.byte	0xf6
 9917 1971 2F190000 		.4byte	0x192f
 9918 1975 00       		.byte	0
 9919 1976 13       		.uleb128 0x13
 9920 1977 73313700 		.ascii	"s17\000"
 9921 197b 14       		.byte	0x14
 9922 197c F7       		.byte	0xf7
 9923 197d 2F190000 		.4byte	0x192f
 9924 1981 04       		.byte	0x4
 9925 1982 13       		.uleb128 0x13
 9926 1983 73313800 		.ascii	"s18\000"
 9927 1987 14       		.byte	0x14
 9928 1988 F8       		.byte	0xf8
 9929 1989 2F190000 		.4byte	0x192f
 9930 198d 08       		.byte	0x8
 9931 198e 13       		.uleb128 0x13
 9932 198f 73313900 		.ascii	"s19\000"
 9933 1993 14       		.byte	0x14
 9934 1994 F9       		.byte	0xf9
 9935 1995 2F190000 		.4byte	0x192f
 9936 1999 0C       		.byte	0xc
 9937 199a 13       		.uleb128 0x13
ARM GAS  C:\Users\Moi\AppData\Local\Temp\ccF5N8ze.s 			page 181


 9938 199b 73323000 		.ascii	"s20\000"
 9939 199f 14       		.byte	0x14
 9940 19a0 FA       		.byte	0xfa
 9941 19a1 2F190000 		.4byte	0x192f
 9942 19a5 10       		.byte	0x10
 9943 19a6 13       		.uleb128 0x13
 9944 19a7 73323100 		.ascii	"s21\000"
 9945 19ab 14       		.byte	0x14
 9946 19ac FB       		.byte	0xfb
 9947 19ad 2F190000 		.4byte	0x192f
 9948 19b1 14       		.byte	0x14
 9949 19b2 13       		.uleb128 0x13
 9950 19b3 73323200 		.ascii	"s22\000"
 9951 19b7 14       		.byte	0x14
 9952 19b8 FC       		.byte	0xfc
 9953 19b9 2F190000 		.4byte	0x192f
 9954 19bd 18       		.byte	0x18
 9955 19be 13       		.uleb128 0x13
 9956 19bf 73323300 		.ascii	"s23\000"
 9957 19c3 14       		.byte	0x14
 9958 19c4 FD       		.byte	0xfd
 9959 19c5 2F190000 		.4byte	0x192f
 9960 19c9 1C       		.byte	0x1c
 9961 19ca 13       		.uleb128 0x13
 9962 19cb 73323400 		.ascii	"s24\000"
 9963 19cf 14       		.byte	0x14
 9964 19d0 FE       		.byte	0xfe
 9965 19d1 2F190000 		.4byte	0x192f
 9966 19d5 20       		.byte	0x20
 9967 19d6 13       		.uleb128 0x13
 9968 19d7 73323500 		.ascii	"s25\000"
 9969 19db 14       		.byte	0x14
 9970 19dc FF       		.byte	0xff
 9971 19dd 2F190000 		.4byte	0x192f
 9972 19e1 24       		.byte	0x24
 9973 19e2 25       		.uleb128 0x25
 9974 19e3 73323600 		.ascii	"s26\000"
 9975 19e7 14       		.byte	0x14
 9976 19e8 0001     		.2byte	0x100
 9977 19ea 2F190000 		.4byte	0x192f
 9978 19ee 28       		.byte	0x28
 9979 19ef 25       		.uleb128 0x25
 9980 19f0 73323700 		.ascii	"s27\000"
 9981 19f4 14       		.byte	0x14
 9982 19f5 0101     		.2byte	0x101
 9983 19f7 2F190000 		.4byte	0x192f
 9984 19fb 2C       		.byte	0x2c
 9985 19fc 25       		.uleb128 0x25
 9986 19fd 73323800 		.ascii	"s28\000"
 9987 1a01 14       		.byte	0x14
 9988 1a02 0201     		.2byte	0x102
 9989 1a04 2F190000 		.4byte	0x192f
 9990 1a08 30       		.byte	0x30
 9991 1a09 25       		.uleb128 0x25
 9992 1a0a 73323900 		.ascii	"s29\000"
 9993 1a0e 14       		.byte	0x14
 9994 1a0f 0301     		.2byte	0x103
ARM GAS  C:\Users\Moi\AppData\Local\Temp\ccF5N8ze.s 			page 182


 9995 1a11 2F190000 		.4byte	0x192f
 9996 1a15 34       		.byte	0x34
 9997 1a16 25       		.uleb128 0x25
 9998 1a17 73333000 		.ascii	"s30\000"
 9999 1a1b 14       		.byte	0x14
 10000 1a1c 0401     		.2byte	0x104
 10001 1a1e 2F190000 		.4byte	0x192f
 10002 1a22 38       		.byte	0x38
 10003 1a23 25       		.uleb128 0x25
 10004 1a24 73333100 		.ascii	"s31\000"
 10005 1a28 14       		.byte	0x14
 10006 1a29 0501     		.2byte	0x105
 10007 1a2b 2F190000 		.4byte	0x192f
 10008 1a2f 3C       		.byte	0x3c
 10009 1a30 25       		.uleb128 0x25
 10010 1a31 723400   		.ascii	"r4\000"
 10011 1a34 14       		.byte	0x14
 10012 1a35 0701     		.2byte	0x107
 10013 1a37 2F190000 		.4byte	0x192f
 10014 1a3b 40       		.byte	0x40
 10015 1a3c 25       		.uleb128 0x25
 10016 1a3d 723500   		.ascii	"r5\000"
 10017 1a40 14       		.byte	0x14
 10018 1a41 0801     		.2byte	0x108
 10019 1a43 2F190000 		.4byte	0x192f
 10020 1a47 44       		.byte	0x44
 10021 1a48 25       		.uleb128 0x25
 10022 1a49 723600   		.ascii	"r6\000"
 10023 1a4c 14       		.byte	0x14
 10024 1a4d 0901     		.2byte	0x109
 10025 1a4f 2F190000 		.4byte	0x192f
 10026 1a53 48       		.byte	0x48
 10027 1a54 25       		.uleb128 0x25
 10028 1a55 723700   		.ascii	"r7\000"
 10029 1a58 14       		.byte	0x14
 10030 1a59 0A01     		.2byte	0x10a
 10031 1a5b 2F190000 		.4byte	0x192f
 10032 1a5f 4C       		.byte	0x4c
 10033 1a60 25       		.uleb128 0x25
 10034 1a61 723800   		.ascii	"r8\000"
 10035 1a64 14       		.byte	0x14
 10036 1a65 0B01     		.2byte	0x10b
 10037 1a67 2F190000 		.4byte	0x192f
 10038 1a6b 50       		.byte	0x50
 10039 1a6c 25       		.uleb128 0x25
 10040 1a6d 723900   		.ascii	"r9\000"
 10041 1a70 14       		.byte	0x14
 10042 1a71 0C01     		.2byte	0x10c
 10043 1a73 2F190000 		.4byte	0x192f
 10044 1a77 54       		.byte	0x54
 10045 1a78 25       		.uleb128 0x25
 10046 1a79 72313000 		.ascii	"r10\000"
 10047 1a7d 14       		.byte	0x14
 10048 1a7e 0D01     		.2byte	0x10d
 10049 1a80 2F190000 		.4byte	0x192f
 10050 1a84 58       		.byte	0x58
 10051 1a85 25       		.uleb128 0x25
ARM GAS  C:\Users\Moi\AppData\Local\Temp\ccF5N8ze.s 			page 183


 10052 1a86 72313100 		.ascii	"r11\000"
 10053 1a8a 14       		.byte	0x14
 10054 1a8b 0E01     		.2byte	0x10e
 10055 1a8d 2F190000 		.4byte	0x192f
 10056 1a91 5C       		.byte	0x5c
 10057 1a92 25       		.uleb128 0x25
 10058 1a93 6C7200   		.ascii	"lr\000"
 10059 1a96 14       		.byte	0x14
 10060 1a97 0F01     		.2byte	0x10f
 10061 1a99 2F190000 		.4byte	0x192f
 10062 1a9d 60       		.byte	0x60
 10063 1a9e 00       		.byte	0
 10064 1a9f 05       		.uleb128 0x5
 10065 1aa0 04       		.byte	0x4
 10066 1aa1 5E190000 		.4byte	0x195e
 10067 1aa5 0C       		.uleb128 0xc
 10068 1aa6 10       		.byte	0x10
 10069 1aa7 15       		.byte	0x15
 10070 1aa8 51       		.byte	0x51
 10071 1aa9 DE1A0000 		.4byte	0x1ade
 10072 1aad 0D       		.uleb128 0xd
 10073 1aae AE1F0000 		.4byte	.LASF353
 10074 1ab2 15       		.byte	0x15
 10075 1ab3 55       		.byte	0x55
 10076 1ab4 570D0000 		.4byte	0xd57
 10077 1ab8 00       		.byte	0
 10078 1ab9 0D       		.uleb128 0xd
 10079 1aba DA180000 		.4byte	.LASF354
 10080 1abe 15       		.byte	0x15
 10081 1abf 59       		.byte	0x59
 10082 1ac0 9B0E0000 		.4byte	0xe9b
 10083 1ac4 04       		.byte	0x4
 10084 1ac5 0D       		.uleb128 0xd
 10085 1ac6 4A0C0000 		.4byte	.LASF355
 10086 1aca 15       		.byte	0x15
 10087 1acb 5D       		.byte	0x5d
 10088 1acc 68010000 		.4byte	0x168
 10089 1ad0 08       		.byte	0x8
 10090 1ad1 0D       		.uleb128 0xd
 10091 1ad2 430A0000 		.4byte	.LASF356
 10092 1ad6 15       		.byte	0x15
 10093 1ad7 61       		.byte	0x61
 10094 1ad8 75010000 		.4byte	0x175
 10095 1adc 0C       		.byte	0xc
 10096 1add 00       		.byte	0
 10097 1ade 02       		.uleb128 0x2
 10098 1adf 1D0D0000 		.4byte	.LASF357
 10099 1ae3 15       		.byte	0x15
 10100 1ae4 62       		.byte	0x62
 10101 1ae5 A51A0000 		.4byte	0x1aa5
 10102 1ae9 28       		.uleb128 0x28
 10103 1aea 0804     		.2byte	0x408
 10104 1aec 15       		.byte	0x15
 10105 1aed 67       		.byte	0x67
 10106 1aee 171B0000 		.4byte	0x1b17
 10107 1af2 0D       		.uleb128 0xd
 10108 1af3 0D0E0000 		.4byte	.LASF358
ARM GAS  C:\Users\Moi\AppData\Local\Temp\ccF5N8ze.s 			page 184


 10109 1af7 15       		.byte	0x15
 10110 1af8 6B       		.byte	0x6b
 10111 1af9 B1000000 		.4byte	0xb1
 10112 1afd 00       		.byte	0
 10113 1afe 0D       		.uleb128 0xd
 10114 1aff F7130000 		.4byte	.LASF359
 10115 1b03 15       		.byte	0x15
 10116 1b04 6F       		.byte	0x6f
 10117 1b05 171B0000 		.4byte	0x1b17
 10118 1b09 04       		.byte	0x4
 10119 1b0a 0D       		.uleb128 0xd
 10120 1b0b F8100000 		.4byte	.LASF360
 10121 1b0f 15       		.byte	0x15
 10122 1b10 73       		.byte	0x73
 10123 1b11 1D1B0000 		.4byte	0x1b1d
 10124 1b15 08       		.byte	0x8
 10125 1b16 00       		.byte	0
 10126 1b17 05       		.uleb128 0x5
 10127 1b18 04       		.byte	0x4
 10128 1b19 DE1A0000 		.4byte	0x1ade
 10129 1b1d 0A       		.uleb128 0xa
 10130 1b1e DE1A0000 		.4byte	0x1ade
 10131 1b22 2D1B0000 		.4byte	0x1b2d
 10132 1b26 0B       		.uleb128 0xb
 10133 1b27 B1000000 		.4byte	0xb1
 10134 1b2b 3F       		.byte	0x3f
 10135 1b2c 00       		.byte	0
 10136 1b2d 02       		.uleb128 0x2
 10137 1b2e 15000000 		.4byte	.LASF361
 10138 1b32 15       		.byte	0x15
 10139 1b33 74       		.byte	0x74
 10140 1b34 E91A0000 		.4byte	0x1ae9
 10141 1b38 0C       		.uleb128 0xc
 10142 1b39 04       		.byte	0x4
 10143 1b3a 16       		.byte	0x16
 10144 1b3b 38       		.byte	0x38
 10145 1b3c 4D1B0000 		.4byte	0x1b4d
 10146 1b40 0D       		.uleb128 0xd
 10147 1b41 50200000 		.4byte	.LASF362
 10148 1b45 16       		.byte	0x16
 10149 1b46 3C       		.byte	0x3c
 10150 1b47 D30C0000 		.4byte	0xcd3
 10151 1b4b 00       		.byte	0
 10152 1b4c 00       		.byte	0
 10153 1b4d 02       		.uleb128 0x2
 10154 1b4e B3050000 		.4byte	.LASF363
 10155 1b52 16       		.byte	0x16
 10156 1b53 3D       		.byte	0x3d
 10157 1b54 381B0000 		.4byte	0x1b38
 10158 1b58 0C       		.uleb128 0xc
 10159 1b59 18       		.byte	0x18
 10160 1b5a 16       		.byte	0x16
 10161 1b5b 48       		.byte	0x48
 10162 1b5c 9B1B0000 		.4byte	0x1b9b
 10163 1b60 0D       		.uleb128 0xd
 10164 1b61 8C070000 		.4byte	.LASF364
 10165 1b65 16       		.byte	0x16
ARM GAS  C:\Users\Moi\AppData\Local\Temp\ccF5N8ze.s 			page 185


 10166 1b66 49       		.byte	0x49
 10167 1b67 D30C0000 		.4byte	0xcd3
 10168 1b6b 00       		.byte	0
 10169 1b6c 0D       		.uleb128 0xd
 10170 1b6d A4010000 		.4byte	.LASF365
 10171 1b71 16       		.byte	0x16
 10172 1b72 4A       		.byte	0x4a
 10173 1b73 D30C0000 		.4byte	0xcd3
 10174 1b77 04       		.byte	0x4
 10175 1b78 0D       		.uleb128 0xd
 10176 1b79 02180000 		.4byte	.LASF366
 10177 1b7d 16       		.byte	0x16
 10178 1b7e 4B       		.byte	0x4b
 10179 1b7f D30C0000 		.4byte	0xcd3
 10180 1b83 08       		.byte	0x8
 10181 1b84 13       		.uleb128 0x13
 10182 1b85 6E00     		.ascii	"n\000"
 10183 1b87 16       		.byte	0x16
 10184 1b88 4C       		.byte	0x4c
 10185 1b89 4C0D0000 		.4byte	0xd4c
 10186 1b8d 0C       		.byte	0xc
 10187 1b8e 0D       		.uleb128 0xd
 10188 1b8f 9D170000 		.4byte	.LASF367
 10189 1b93 16       		.byte	0x16
 10190 1b94 4D       		.byte	0x4d
 10191 1b95 DE0C0000 		.4byte	0xcde
 10192 1b99 10       		.byte	0x10
 10193 1b9a 00       		.byte	0
 10194 1b9b 02       		.uleb128 0x2
 10195 1b9c D4220000 		.4byte	.LASF368
 10196 1ba0 16       		.byte	0x16
 10197 1ba1 4E       		.byte	0x4e
 10198 1ba2 581B0000 		.4byte	0x1b58
 10199 1ba6 0C       		.uleb128 0xc
 10200 1ba7 38       		.byte	0x38
 10201 1ba8 17       		.byte	0x17
 10202 1ba9 38       		.byte	0x38
 10203 1baa DF1B0000 		.4byte	0x1bdf
 10204 1bae 0D       		.uleb128 0xd
 10205 1baf DC060000 		.4byte	.LASF369
 10206 1bb3 17       		.byte	0x17
 10207 1bb4 39       		.byte	0x39
 10208 1bb5 4C0D0000 		.4byte	0xd4c
 10209 1bb9 00       		.byte	0
 10210 1bba 0D       		.uleb128 0xd
 10211 1bbb F70A0000 		.4byte	.LASF370
 10212 1bbf 17       		.byte	0x17
 10213 1bc0 3A       		.byte	0x3a
 10214 1bc1 4C0D0000 		.4byte	0xd4c
 10215 1bc5 04       		.byte	0x4
 10216 1bc6 0D       		.uleb128 0xd
 10217 1bc7 4A220000 		.4byte	.LASF371
 10218 1bcb 17       		.byte	0x17
 10219 1bcc 3B       		.byte	0x3b
 10220 1bcd 9B1B0000 		.4byte	0x1b9b
 10221 1bd1 08       		.byte	0x8
 10222 1bd2 0D       		.uleb128 0xd
ARM GAS  C:\Users\Moi\AppData\Local\Temp\ccF5N8ze.s 			page 186


 10223 1bd3 A0000000 		.4byte	.LASF372
 10224 1bd7 17       		.byte	0x17
 10225 1bd8 3D       		.byte	0x3d
 10226 1bd9 9B1B0000 		.4byte	0x1b9b
 10227 1bdd 20       		.byte	0x20
 10228 1bde 00       		.byte	0
 10229 1bdf 02       		.uleb128 0x2
 10230 1be0 64050000 		.4byte	.LASF373
 10231 1be4 17       		.byte	0x17
 10232 1be5 3F       		.byte	0x3f
 10233 1be6 A61B0000 		.4byte	0x1ba6
 10234 1bea 08       		.uleb128 0x8
 10235 1beb 04       		.byte	0x4
 10236 1bec 0F       		.byte	0xf
 10237 1bed FA       		.byte	0xfa
 10238 1bee 471C0000 		.4byte	0x1c47
 10239 1bf2 1F       		.uleb128 0x1f
 10240 1bf3 13100000 		.4byte	.LASF374
 10241 1bf7 0F       		.byte	0xf
 10242 1bf8 0101     		.2byte	0x101
 10243 1bfa 200D0000 		.4byte	0xd20
 10244 1bfe 1F       		.uleb128 0x1f
 10245 1bff 3C080000 		.4byte	.LASF375
 10246 1c03 0F       		.byte	0xf
 10247 1c04 0801     		.2byte	0x108
 10248 1c06 200D0000 		.4byte	0xd20
 10249 1c0a 1F       		.uleb128 0x1f
 10250 1c0b 341C0000 		.4byte	.LASF376
 10251 1c0f 0F       		.byte	0xf
 10252 1c10 0F01     		.2byte	0x10f
 10253 1c12 68010000 		.4byte	0x168
 10254 1c16 1F       		.uleb128 0x1f
 10255 1c17 C7170000 		.4byte	.LASF377
 10256 1c1b 0F       		.byte	0xf
 10257 1c1c 1601     		.2byte	0x116
 10258 1c1e 471C0000 		.4byte	0x1c47
 10259 1c22 1F       		.uleb128 0x1f
 10260 1c23 13010000 		.4byte	.LASF378
 10261 1c27 0F       		.byte	0xf
 10262 1c28 1E01     		.2byte	0x11e
 10263 1c2a 721C0000 		.4byte	0x1c72
 10264 1c2e 1F       		.uleb128 0x1f
 10265 1c2f 951C0000 		.4byte	.LASF379
 10266 1c33 0F       		.byte	0xf
 10267 1c34 2701     		.2byte	0x127
 10268 1c36 B51C0000 		.4byte	0x1cb5
 10269 1c3a 1F       		.uleb128 0x1f
 10270 1c3b D9200000 		.4byte	.LASF380
 10271 1c3f 0F       		.byte	0xf
 10272 1c40 2F01     		.2byte	0x12f
 10273 1c42 2B0D0000 		.4byte	0xd2b
 10274 1c46 00       		.byte	0
 10275 1c47 05       		.uleb128 0x5
 10276 1c48 04       		.byte	0x4
 10277 1c49 900E0000 		.4byte	0xe90
 10278 1c4d 12       		.uleb128 0x12
 10279 1c4e 65160000 		.4byte	.LASF381
ARM GAS  C:\Users\Moi\AppData\Local\Temp\ccF5N8ze.s 			page 187


 10280 1c52 0C       		.byte	0xc
 10281 1c53 18       		.byte	0x18
 10282 1c54 34       		.byte	0x34
 10283 1c55 721C0000 		.4byte	0x1c72
 10284 1c59 0D       		.uleb128 0xd
 10285 1c5a 42220000 		.4byte	.LASF382
 10286 1c5e 18       		.byte	0x18
 10287 1c5f 35       		.byte	0x35
 10288 1c60 C50E0000 		.4byte	0xec5
 10289 1c64 00       		.byte	0
 10290 1c65 0D       		.uleb128 0xd
 10291 1c66 C7090000 		.4byte	.LASF383
 10292 1c6a 18       		.byte	0x18
 10293 1c6b 37       		.byte	0x37
 10294 1c6c 410D0000 		.4byte	0xd41
 10295 1c70 08       		.byte	0x8
 10296 1c71 00       		.byte	0
 10297 1c72 05       		.uleb128 0x5
 10298 1c73 04       		.byte	0x4
 10299 1c74 4D1C0000 		.4byte	0x1c4d
 10300 1c78 12       		.uleb128 0x12
 10301 1c79 C70B0000 		.4byte	.LASF384
 10302 1c7d 14       		.byte	0x14
 10303 1c7e 19       		.byte	0x19
 10304 1c7f 39       		.byte	0x39
 10305 1c80 B51C0000 		.4byte	0x1cb5
 10306 1c84 0D       		.uleb128 0xd
 10307 1c85 C9120000 		.4byte	.LASF385
 10308 1c89 19       		.byte	0x19
 10309 1c8a 3A       		.byte	0x3a
 10310 1c8b C50E0000 		.4byte	0xec5
 10311 1c8f 00       		.byte	0
 10312 1c90 0D       		.uleb128 0xd
 10313 1c91 4A150000 		.4byte	.LASF386
 10314 1c95 19       		.byte	0x19
 10315 1c96 3C       		.byte	0x3c
 10316 1c97 9B0E0000 		.4byte	0xe9b
 10317 1c9b 08       		.byte	0x8
 10318 1c9c 0D       		.uleb128 0xd
 10319 1c9d DB010000 		.4byte	.LASF387
 10320 1ca1 19       		.byte	0x19
 10321 1ca2 3E       		.byte	0x3e
 10322 1ca3 F91D0000 		.4byte	0x1df9
 10323 1ca7 0C       		.byte	0xc
 10324 1ca8 0D       		.uleb128 0xd
 10325 1ca9 D0080000 		.4byte	.LASF388
 10326 1cad 19       		.byte	0x19
 10327 1cae 41       		.byte	0x41
 10328 1caf 410D0000 		.4byte	0xd41
 10329 1cb3 10       		.byte	0x10
 10330 1cb4 00       		.byte	0
 10331 1cb5 05       		.uleb128 0x5
 10332 1cb6 04       		.byte	0x4
 10333 1cb7 781C0000 		.4byte	0x1c78
 10334 1cbb 05       		.uleb128 0x5
 10335 1cbc 04       		.byte	0x4
 10336 1cbd 3A190000 		.4byte	0x193a
ARM GAS  C:\Users\Moi\AppData\Local\Temp\ccF5N8ze.s 			page 188


 10337 1cc1 05       		.uleb128 0x5
 10338 1cc2 04       		.byte	0x4
 10339 1cc3 780F0000 		.4byte	0xf78
 10340 1cc7 0A       		.uleb128 0xa
 10341 1cc8 3A190000 		.4byte	0x193a
 10342 1ccc D71C0000 		.4byte	0x1cd7
 10343 1cd0 0B       		.uleb128 0xb
 10344 1cd1 B1000000 		.4byte	0xb1
 10345 1cd5 30       		.byte	0x30
 10346 1cd6 00       		.byte	0
 10347 1cd7 29       		.uleb128 0x29
 10348 1cd8 636800   		.ascii	"ch\000"
 10349 1cdb 0F       		.byte	0xf
 10350 1cdc 0902     		.2byte	0x209
 10351 1cde 6D100000 		.4byte	0x106d
 10352 1ce2 0C       		.uleb128 0xc
 10353 1ce3 16       		.byte	0x16
 10354 1ce4 1A       		.byte	0x1a
 10355 1ce5 34       		.byte	0x34
 10356 1ce6 C31D0000 		.4byte	0x1dc3
 10357 1cea 0D       		.uleb128 0xd
 10358 1ceb 76220000 		.4byte	.LASF389
 10359 1cef 1A       		.byte	0x1a
 10360 1cf0 35       		.byte	0x35
 10361 1cf1 C31D0000 		.4byte	0x1dc3
 10362 1cf5 00       		.byte	0
 10363 1cf6 0D       		.uleb128 0xd
 10364 1cf7 84240000 		.4byte	.LASF390
 10365 1cfb 1A       		.byte	0x1a
 10366 1cfc 36       		.byte	0x36
 10367 1cfd 75010000 		.4byte	0x175
 10368 1d01 04       		.byte	0x4
 10369 1d02 0D       		.uleb128 0xd
 10370 1d03 4F030000 		.4byte	.LASF391
 10371 1d07 1A       		.byte	0x1a
 10372 1d08 37       		.byte	0x37
 10373 1d09 75010000 		.4byte	0x175
 10374 1d0d 05       		.byte	0x5
 10375 1d0e 0D       		.uleb128 0xd
 10376 1d0f A9150000 		.4byte	.LASF392
 10377 1d13 1A       		.byte	0x1a
 10378 1d14 38       		.byte	0x38
 10379 1d15 90010000 		.4byte	0x190
 10380 1d19 06       		.byte	0x6
 10381 1d1a 0D       		.uleb128 0xd
 10382 1d1b 27000000 		.4byte	.LASF393
 10383 1d1f 1A       		.byte	0x1a
 10384 1d20 39       		.byte	0x39
 10385 1d21 75010000 		.4byte	0x175
 10386 1d25 08       		.byte	0x8
 10387 1d26 0D       		.uleb128 0xd
 10388 1d27 B4130000 		.4byte	.LASF394
 10389 1d2b 1A       		.byte	0x1a
 10390 1d2c 3A       		.byte	0x3a
 10391 1d2d 75010000 		.4byte	0x175
 10392 1d31 09       		.byte	0x9
 10393 1d32 0D       		.uleb128 0xd
ARM GAS  C:\Users\Moi\AppData\Local\Temp\ccF5N8ze.s 			page 189


 10394 1d33 A4240000 		.4byte	.LASF395
 10395 1d37 1A       		.byte	0x1a
 10396 1d38 3B       		.byte	0x3b
 10397 1d39 75010000 		.4byte	0x175
 10398 1d3d 0A       		.byte	0xa
 10399 1d3e 0D       		.uleb128 0xd
 10400 1d3f C0220000 		.4byte	.LASF396
 10401 1d43 1A       		.byte	0x1a
 10402 1d44 3C       		.byte	0x3c
 10403 1d45 75010000 		.4byte	0x175
 10404 1d49 0B       		.byte	0xb
 10405 1d4a 0D       		.uleb128 0xd
 10406 1d4b DA210000 		.4byte	.LASF397
 10407 1d4f 1A       		.byte	0x1a
 10408 1d50 3D       		.byte	0x3d
 10409 1d51 75010000 		.4byte	0x175
 10410 1d55 0C       		.byte	0xc
 10411 1d56 0D       		.uleb128 0xd
 10412 1d57 0D0C0000 		.4byte	.LASF398
 10413 1d5b 1A       		.byte	0x1a
 10414 1d5c 3E       		.byte	0x3e
 10415 1d5d 75010000 		.4byte	0x175
 10416 1d61 0D       		.byte	0xd
 10417 1d62 0D       		.uleb128 0xd
 10418 1d63 0F060000 		.4byte	.LASF399
 10419 1d67 1A       		.byte	0x1a
 10420 1d68 3F       		.byte	0x3f
 10421 1d69 75010000 		.4byte	0x175
 10422 1d6d 0E       		.byte	0xe
 10423 1d6e 0D       		.uleb128 0xd
 10424 1d6f B10D0000 		.4byte	.LASF400
 10425 1d73 1A       		.byte	0x1a
 10426 1d74 40       		.byte	0x40
 10427 1d75 75010000 		.4byte	0x175
 10428 1d79 0F       		.byte	0xf
 10429 1d7a 0D       		.uleb128 0xd
 10430 1d7b 6B0F0000 		.4byte	.LASF401
 10431 1d7f 1A       		.byte	0x1a
 10432 1d80 41       		.byte	0x41
 10433 1d81 75010000 		.4byte	0x175
 10434 1d85 10       		.byte	0x10
 10435 1d86 0D       		.uleb128 0xd
 10436 1d87 3D150000 		.4byte	.LASF402
 10437 1d8b 1A       		.byte	0x1a
 10438 1d8c 43       		.byte	0x43
 10439 1d8d 75010000 		.4byte	0x175
 10440 1d91 11       		.byte	0x11
 10441 1d92 0D       		.uleb128 0xd
 10442 1d93 0B030000 		.4byte	.LASF403
 10443 1d97 1A       		.byte	0x1a
 10444 1d98 44       		.byte	0x44
 10445 1d99 75010000 		.4byte	0x175
 10446 1d9d 12       		.byte	0x12
 10447 1d9e 0D       		.uleb128 0xd
 10448 1d9f 31150000 		.4byte	.LASF404
 10449 1da3 1A       		.byte	0x1a
 10450 1da4 45       		.byte	0x45
ARM GAS  C:\Users\Moi\AppData\Local\Temp\ccF5N8ze.s 			page 190


 10451 1da5 75010000 		.4byte	0x175
 10452 1da9 13       		.byte	0x13
 10453 1daa 0D       		.uleb128 0xd
 10454 1dab 6E1B0000 		.4byte	.LASF405
 10455 1daf 1A       		.byte	0x1a
 10456 1db0 46       		.byte	0x46
 10457 1db1 75010000 		.4byte	0x175
 10458 1db5 14       		.byte	0x14
 10459 1db6 0D       		.uleb128 0xd
 10460 1db7 F1000000 		.4byte	.LASF406
 10461 1dbb 1A       		.byte	0x1a
 10462 1dbc 48       		.byte	0x48
 10463 1dbd 75010000 		.4byte	0x175
 10464 1dc1 15       		.byte	0x15
 10465 1dc2 00       		.byte	0
 10466 1dc3 0A       		.uleb128 0xa
 10467 1dc4 D1010000 		.4byte	0x1d1
 10468 1dc8 D31D0000 		.4byte	0x1dd3
 10469 1dcc 0B       		.uleb128 0xb
 10470 1dcd B1000000 		.4byte	0xb1
 10471 1dd1 03       		.byte	0x3
 10472 1dd2 00       		.byte	0
 10473 1dd3 02       		.uleb128 0x2
 10474 1dd4 59130000 		.4byte	.LASF407
 10475 1dd8 1A       		.byte	0x1a
 10476 1dd9 49       		.byte	0x49
 10477 1dda E21C0000 		.4byte	0x1ce2
 10478 1dde 0F       		.uleb128 0xf
 10479 1ddf D31D0000 		.4byte	0x1dd3
 10480 1de3 11       		.uleb128 0x11
 10481 1de4 090B0000 		.4byte	.LASF408
 10482 1de8 1A       		.byte	0x1a
 10483 1de9 6E       		.byte	0x6e
 10484 1dea DE1D0000 		.4byte	0x1dde
 10485 1dee 02       		.uleb128 0x2
 10486 1def 061F0000 		.4byte	.LASF409
 10487 1df3 19       		.byte	0x19
 10488 1df4 34       		.byte	0x34
 10489 1df5 781C0000 		.4byte	0x1c78
 10490 1df9 05       		.uleb128 0x5
 10491 1dfa 04       		.byte	0x4
 10492 1dfb EE1D0000 		.4byte	0x1dee
 10493 1dff 02       		.uleb128 0x2
 10494 1e00 580B0000 		.4byte	.LASF410
 10495 1e04 1B       		.byte	0x1b
 10496 1e05 34       		.byte	0x34
 10497 1e06 0A1E0000 		.4byte	0x1e0a
 10498 1e0a 12       		.uleb128 0x12
 10499 1e0b 26250000 		.4byte	.LASF411
 10500 1e0f 14       		.byte	0x14
 10501 1e10 1B       		.byte	0x1b
 10502 1e11 39       		.byte	0x39
 10503 1e12 531E0000 		.4byte	0x1e53
 10504 1e16 0D       		.uleb128 0xd
 10505 1e17 85020000 		.4byte	.LASF412
 10506 1e1b 1B       		.byte	0x1b
 10507 1e1c 3A       		.byte	0x3a
ARM GAS  C:\Users\Moi\AppData\Local\Temp\ccF5N8ze.s 			page 191


 10508 1e1d 531E0000 		.4byte	0x1e53
 10509 1e21 00       		.byte	0
 10510 1e22 0D       		.uleb128 0xd
 10511 1e23 DF1F0000 		.4byte	.LASF413
 10512 1e27 1B       		.byte	0x1b
 10513 1e28 3D       		.byte	0x3d
 10514 1e29 9B0E0000 		.4byte	0xe9b
 10515 1e2d 04       		.byte	0x4
 10516 1e2e 0D       		.uleb128 0xd
 10517 1e2f B5030000 		.4byte	.LASF414
 10518 1e33 1B       		.byte	0x1b
 10519 1e34 3F       		.byte	0x3f
 10520 1e35 2B0D0000 		.4byte	0xd2b
 10521 1e39 08       		.byte	0x8
 10522 1e3a 0D       		.uleb128 0xd
 10523 1e3b E0200000 		.4byte	.LASF415
 10524 1e3f 1B       		.byte	0x1b
 10525 1e40 41       		.byte	0x41
 10526 1e41 360D0000 		.4byte	0xd36
 10527 1e45 0C       		.byte	0xc
 10528 1e46 0D       		.uleb128 0xd
 10529 1e47 F90D0000 		.4byte	.LASF416
 10530 1e4b 1B       		.byte	0x1b
 10531 1e4c 43       		.byte	0x43
 10532 1e4d 360D0000 		.4byte	0xd36
 10533 1e51 10       		.byte	0x10
 10534 1e52 00       		.byte	0
 10535 1e53 05       		.uleb128 0x5
 10536 1e54 04       		.byte	0x4
 10537 1e55 FF1D0000 		.4byte	0x1dff
 10538 1e59 12       		.uleb128 0x12
 10539 1e5a E9200000 		.4byte	.LASF417
 10540 1e5e 04       		.byte	0x4
 10541 1e5f 1B       		.byte	0x1b
 10542 1e60 4A       		.byte	0x4a
 10543 1e61 721E0000 		.4byte	0x1e72
 10544 1e65 0D       		.uleb128 0xd
 10545 1e66 69200000 		.4byte	.LASF418
 10546 1e6a 1B       		.byte	0x1b
 10547 1e6b 4B       		.byte	0x4b
 10548 1e6c 531E0000 		.4byte	0x1e53
 10549 1e70 00       		.byte	0
 10550 1e71 00       		.byte	0
 10551 1e72 02       		.uleb128 0x2
 10552 1e73 D0130000 		.4byte	.LASF419
 10553 1e77 1B       		.byte	0x1b
 10554 1e78 4E       		.byte	0x4e
 10555 1e79 591E0000 		.4byte	0x1e59
 10556 1e7d 02       		.uleb128 0x2
 10557 1e7e 390E0000 		.4byte	.LASF420
 10558 1e82 1C       		.byte	0x1c
 10559 1e83 3F       		.byte	0x3f
 10560 1e84 881E0000 		.4byte	0x1e88
 10561 1e88 12       		.uleb128 0x12
 10562 1e89 95100000 		.4byte	.LASF421
 10563 1e8d 24       		.byte	0x24
 10564 1e8e 1C       		.byte	0x1c
ARM GAS  C:\Users\Moi\AppData\Local\Temp\ccF5N8ze.s 			page 192


 10565 1e8f 4D       		.byte	0x4d
 10566 1e90 F51E0000 		.4byte	0x1ef5
 10567 1e94 0D       		.uleb128 0xd
 10568 1e95 7E050000 		.4byte	.LASF422
 10569 1e99 1C       		.byte	0x1c
 10570 1e9a 4E       		.byte	0x4e
 10571 1e9b C50E0000 		.4byte	0xec5
 10572 1e9f 00       		.byte	0
 10573 1ea0 0D       		.uleb128 0xd
 10574 1ea1 4F170000 		.4byte	.LASF423
 10575 1ea5 1C       		.byte	0x1c
 10576 1ea6 4F       		.byte	0x4f
 10577 1ea7 B8000000 		.4byte	0xb8
 10578 1eab 08       		.byte	0x8
 10579 1eac 0D       		.uleb128 0xd
 10580 1ead 53110000 		.4byte	.LASF424
 10581 1eb1 1C       		.byte	0x1c
 10582 1eb2 50       		.byte	0x50
 10583 1eb3 CD0C0000 		.4byte	0xccd
 10584 1eb7 0C       		.byte	0xc
 10585 1eb8 0D       		.uleb128 0xd
 10586 1eb9 A7040000 		.4byte	.LASF425
 10587 1ebd 1C       		.byte	0x1c
 10588 1ebe 51       		.byte	0x51
 10589 1ebf CD0C0000 		.4byte	0xccd
 10590 1ec3 10       		.byte	0x10
 10591 1ec4 0D       		.uleb128 0xd
 10592 1ec5 E0180000 		.4byte	.LASF426
 10593 1ec9 1C       		.byte	0x1c
 10594 1eca 53       		.byte	0x53
 10595 1ecb CD0C0000 		.4byte	0xccd
 10596 1ecf 14       		.byte	0x14
 10597 1ed0 0D       		.uleb128 0xd
 10598 1ed1 CD170000 		.4byte	.LASF427
 10599 1ed5 1C       		.byte	0x1c
 10600 1ed6 54       		.byte	0x54
 10601 1ed7 CD0C0000 		.4byte	0xccd
 10602 1edb 18       		.byte	0x18
 10603 1edc 0D       		.uleb128 0xd
 10604 1edd 8C1C0000 		.4byte	.LASF428
 10605 1ee1 1C       		.byte	0x1c
 10606 1ee2 55       		.byte	0x55
 10607 1ee3 F51E0000 		.4byte	0x1ef5
 10608 1ee7 1C       		.byte	0x1c
 10609 1ee8 0D       		.uleb128 0xd
 10610 1ee9 D3190000 		.4byte	.LASF429
 10611 1eed 1C       		.byte	0x1c
 10612 1eee 56       		.byte	0x56
 10613 1eef 68010000 		.4byte	0x168
 10614 1ef3 20       		.byte	0x20
 10615 1ef4 00       		.byte	0
 10616 1ef5 02       		.uleb128 0x2
 10617 1ef6 70040000 		.4byte	.LASF430
 10618 1efa 1C       		.byte	0x1c
 10619 1efb 42       		.byte	0x42
 10620 1efc 001F0000 		.4byte	0x1f00
 10621 1f00 05       		.uleb128 0x5
ARM GAS  C:\Users\Moi\AppData\Local\Temp\ccF5N8ze.s 			page 193


 10622 1f01 04       		.byte	0x4
 10623 1f02 061F0000 		.4byte	0x1f06
 10624 1f06 20       		.uleb128 0x20
 10625 1f07 111F0000 		.4byte	0x1f11
 10626 1f0b 18       		.uleb128 0x18
 10627 1f0c 111F0000 		.4byte	0x1f11
 10628 1f10 00       		.byte	0
 10629 1f11 05       		.uleb128 0x5
 10630 1f12 04       		.byte	0x4
 10631 1f13 7D1E0000 		.4byte	0x1e7d
 10632 1f17 02       		.uleb128 0x2
 10633 1f18 C4050000 		.4byte	.LASF431
 10634 1f1c 1C       		.byte	0x1c
 10635 1f1d 64       		.byte	0x64
 10636 1f1e 7D1E0000 		.4byte	0x1e7d
 10637 1f22 02       		.uleb128 0x2
 10638 1f23 69250000 		.4byte	.LASF432
 10639 1f27 1C       		.byte	0x1c
 10640 1f28 71       		.byte	0x71
 10641 1f29 7D1E0000 		.4byte	0x1e7d
 10642 1f2d 17       		.uleb128 0x17
 10643 1f2e B8000000 		.4byte	0xb8
 10644 1f32 461F0000 		.4byte	0x1f46
 10645 1f36 18       		.uleb128 0x18
 10646 1f37 68010000 		.4byte	0x168
 10647 1f3b 18       		.uleb128 0x18
 10648 1f3c 461F0000 		.4byte	0x1f46
 10649 1f40 18       		.uleb128 0x18
 10650 1f41 B8000000 		.4byte	0xb8
 10651 1f45 00       		.byte	0
 10652 1f46 05       		.uleb128 0x5
 10653 1f47 04       		.byte	0x4
 10654 1f48 80010000 		.4byte	0x180
 10655 1f4c 05       		.uleb128 0x5
 10656 1f4d 04       		.byte	0x4
 10657 1f4e 2D1F0000 		.4byte	0x1f2d
 10658 1f52 17       		.uleb128 0x17
 10659 1f53 B8000000 		.4byte	0xb8
 10660 1f57 6B1F0000 		.4byte	0x1f6b
 10661 1f5b 18       		.uleb128 0x18
 10662 1f5c 68010000 		.4byte	0x168
 10663 1f60 18       		.uleb128 0x18
 10664 1f61 CD0C0000 		.4byte	0xccd
 10665 1f65 18       		.uleb128 0x18
 10666 1f66 B8000000 		.4byte	0xb8
 10667 1f6a 00       		.byte	0
 10668 1f6b 05       		.uleb128 0x5
 10669 1f6c 04       		.byte	0x4
 10670 1f6d 521F0000 		.4byte	0x1f52
 10671 1f71 17       		.uleb128 0x17
 10672 1f72 200D0000 		.4byte	0xd20
 10673 1f76 851F0000 		.4byte	0x1f85
 10674 1f7a 18       		.uleb128 0x18
 10675 1f7b 68010000 		.4byte	0x168
 10676 1f7f 18       		.uleb128 0x18
 10677 1f80 75010000 		.4byte	0x175
 10678 1f84 00       		.byte	0
ARM GAS  C:\Users\Moi\AppData\Local\Temp\ccF5N8ze.s 			page 194


 10679 1f85 05       		.uleb128 0x5
 10680 1f86 04       		.byte	0x4
 10681 1f87 711F0000 		.4byte	0x1f71
 10682 1f8b 17       		.uleb128 0x17
 10683 1f8c 200D0000 		.4byte	0xd20
 10684 1f90 9A1F0000 		.4byte	0x1f9a
 10685 1f94 18       		.uleb128 0x18
 10686 1f95 68010000 		.4byte	0x168
 10687 1f99 00       		.byte	0
 10688 1f9a 05       		.uleb128 0x5
 10689 1f9b 04       		.byte	0x4
 10690 1f9c 8B1F0000 		.4byte	0x1f8b
 10691 1fa0 0C       		.uleb128 0xc
 10692 1fa1 0C       		.byte	0xc
 10693 1fa2 1D       		.byte	0x1d
 10694 1fa3 DA       		.byte	0xda
 10695 1fa4 E51F0000 		.4byte	0x1fe5
 10696 1fa8 0D       		.uleb128 0xd
 10697 1fa9 00250000 		.4byte	.LASF433
 10698 1fad 1D       		.byte	0x1d
 10699 1fae DB       		.byte	0xdb
 10700 1faf E51F0000 		.4byte	0x1fe5
 10701 1fb3 00       		.byte	0
 10702 1fb4 0D       		.uleb128 0xd
 10703 1fb5 E70F0000 		.4byte	.LASF434
 10704 1fb9 1D       		.byte	0x1d
 10705 1fba DC       		.byte	0xdc
 10706 1fbb EB1F0000 		.4byte	0x1feb
 10707 1fbf 04       		.byte	0x4
 10708 1fc0 0D       		.uleb128 0xd
 10709 1fc1 94040000 		.4byte	.LASF435
 10710 1fc5 1D       		.byte	0x1d
 10711 1fc6 DD       		.byte	0xdd
 10712 1fc7 75010000 		.4byte	0x175
 10713 1fcb 08       		.byte	0x8
 10714 1fcc 0D       		.uleb128 0xd
 10715 1fcd FC1E0000 		.4byte	.LASF436
 10716 1fd1 1D       		.byte	0x1d
 10717 1fd2 DF       		.byte	0xdf
 10718 1fd3 75010000 		.4byte	0x175
 10719 1fd7 09       		.byte	0x9
 10720 1fd8 0D       		.uleb128 0xd
 10721 1fd9 ED030000 		.4byte	.LASF437
 10722 1fdd 1D       		.byte	0x1d
 10723 1fde E0       		.byte	0xe0
 10724 1fdf 75010000 		.4byte	0x175
 10725 1fe3 0A       		.byte	0xa
 10726 1fe4 00       		.byte	0
 10727 1fe5 05       		.uleb128 0x5
 10728 1fe6 04       		.byte	0x4
 10729 1fe7 2B160000 		.4byte	0x162b
 10730 1feb 05       		.uleb128 0x5
 10731 1fec 04       		.byte	0x4
 10732 1fed B6010000 		.4byte	0x1b6
 10733 1ff1 02       		.uleb128 0x2
 10734 1ff2 66120000 		.4byte	.LASF438
 10735 1ff6 1D       		.byte	0x1d
ARM GAS  C:\Users\Moi\AppData\Local\Temp\ccF5N8ze.s 			page 195


 10736 1ff7 E1       		.byte	0xe1
 10737 1ff8 A01F0000 		.4byte	0x1fa0
 10738 1ffc 0F       		.uleb128 0xf
 10739 1ffd F11F0000 		.4byte	0x1ff1
 10740 2001 0A       		.uleb128 0xa
 10741 2002 FC1F0000 		.4byte	0x1ffc
 10742 2006 11200000 		.4byte	0x2011
 10743 200a 0B       		.uleb128 0xb
 10744 200b B1000000 		.4byte	0xb1
 10745 200f 0F       		.byte	0xf
 10746 2010 00       		.byte	0
 10747 2011 0F       		.uleb128 0xf
 10748 2012 01200000 		.4byte	0x2001
 10749 2016 21       		.uleb128 0x21
 10750 2017 7B1A0000 		.4byte	.LASF439
 10751 201b 1D       		.byte	0x1d
 10752 201c BB01     		.2byte	0x1bb
 10753 201e 11200000 		.4byte	0x2011
 10754 2022 17       		.uleb128 0x17
 10755 2023 200D0000 		.4byte	0xd20
 10756 2027 3B200000 		.4byte	0x203b
 10757 202b 18       		.uleb128 0x18
 10758 202c 68010000 		.4byte	0x168
 10759 2030 18       		.uleb128 0x18
 10760 2031 75010000 		.4byte	0x175
 10761 2035 18       		.uleb128 0x18
 10762 2036 570D0000 		.4byte	0xd57
 10763 203a 00       		.byte	0
 10764 203b 05       		.uleb128 0x5
 10765 203c 04       		.byte	0x4
 10766 203d 22200000 		.4byte	0x2022
 10767 2041 17       		.uleb128 0x17
 10768 2042 200D0000 		.4byte	0xd20
 10769 2046 55200000 		.4byte	0x2055
 10770 204a 18       		.uleb128 0x18
 10771 204b 68010000 		.4byte	0x168
 10772 204f 18       		.uleb128 0x18
 10773 2050 570D0000 		.4byte	0xd57
 10774 2054 00       		.byte	0
 10775 2055 05       		.uleb128 0x5
 10776 2056 04       		.byte	0x4
 10777 2057 41200000 		.4byte	0x2041
 10778 205b 17       		.uleb128 0x17
 10779 205c B8000000 		.4byte	0xb8
 10780 2060 79200000 		.4byte	0x2079
 10781 2064 18       		.uleb128 0x18
 10782 2065 68010000 		.4byte	0x168
 10783 2069 18       		.uleb128 0x18
 10784 206a 461F0000 		.4byte	0x1f46
 10785 206e 18       		.uleb128 0x18
 10786 206f B8000000 		.4byte	0xb8
 10787 2073 18       		.uleb128 0x18
 10788 2074 570D0000 		.4byte	0xd57
 10789 2078 00       		.byte	0
 10790 2079 05       		.uleb128 0x5
 10791 207a 04       		.byte	0x4
 10792 207b 5B200000 		.4byte	0x205b
ARM GAS  C:\Users\Moi\AppData\Local\Temp\ccF5N8ze.s 			page 196


 10793 207f 17       		.uleb128 0x17
 10794 2080 B8000000 		.4byte	0xb8
 10795 2084 9D200000 		.4byte	0x209d
 10796 2088 18       		.uleb128 0x18
 10797 2089 68010000 		.4byte	0x168
 10798 208d 18       		.uleb128 0x18
 10799 208e CD0C0000 		.4byte	0xccd
 10800 2092 18       		.uleb128 0x18
 10801 2093 B8000000 		.4byte	0xb8
 10802 2097 18       		.uleb128 0x18
 10803 2098 570D0000 		.4byte	0xd57
 10804 209c 00       		.byte	0
 10805 209d 05       		.uleb128 0x5
 10806 209e 04       		.byte	0x4
 10807 209f 7F200000 		.4byte	0x207f
 10808 20a3 2A       		.uleb128 0x2a
 10809 20a4 07       		.byte	0x7
 10810 20a5 01       		.byte	0x1
 10811 20a6 42000000 		.4byte	0x42
 10812 20aa 1E       		.byte	0x1e
 10813 20ab 28       		.byte	0x28
 10814 20ac E7200000 		.4byte	0x20e7
 10815 20b0 2B       		.uleb128 0x2b
 10816 20b1 76010000 		.4byte	.LASF440
 10817 20b5 00       		.byte	0
 10818 20b6 2B       		.uleb128 0x2b
 10819 20b7 FF0E0000 		.4byte	.LASF441
 10820 20bb 01       		.byte	0x1
 10821 20bc 2B       		.uleb128 0x2b
 10822 20bd 430B0000 		.4byte	.LASF442
 10823 20c1 02       		.byte	0x2
 10824 20c2 2B       		.uleb128 0x2b
 10825 20c3 D01B0000 		.4byte	.LASF443
 10826 20c7 03       		.byte	0x3
 10827 20c8 2B       		.uleb128 0x2b
 10828 20c9 E2230000 		.4byte	.LASF444
 10829 20cd 04       		.byte	0x4
 10830 20ce 2B       		.uleb128 0x2b
 10831 20cf CF070000 		.4byte	.LASF445
 10832 20d3 05       		.byte	0x5
 10833 20d4 2B       		.uleb128 0x2b
 10834 20d5 4F010000 		.4byte	.LASF446
 10835 20d9 06       		.byte	0x6
 10836 20da 2B       		.uleb128 0x2b
 10837 20db 32180000 		.4byte	.LASF447
 10838 20df 07       		.byte	0x7
 10839 20e0 2B       		.uleb128 0x2b
 10840 20e1 9A230000 		.4byte	.LASF448
 10841 20e5 08       		.byte	0x8
 10842 20e6 00       		.byte	0
 10843 20e7 02       		.uleb128 0x2
 10844 20e8 CD160000 		.4byte	.LASF449
 10845 20ec 1E       		.byte	0x1e
 10846 20ed 32       		.byte	0x32
 10847 20ee A3200000 		.4byte	0x20a3
 10848 20f2 0C       		.uleb128 0xc
 10849 20f3 08       		.byte	0x8
ARM GAS  C:\Users\Moi\AppData\Local\Temp\ccF5N8ze.s 			page 197


 10850 20f4 1E       		.byte	0x1e
 10851 20f5 37       		.byte	0x37
 10852 20f6 13210000 		.4byte	0x2113
 10853 20fa 0D       		.uleb128 0xd
 10854 20fb 4F070000 		.4byte	.LASF450
 10855 20ff 1E       		.byte	0x1e
 10856 2100 38       		.byte	0x38
 10857 2101 AB010000 		.4byte	0x1ab
 10858 2105 00       		.byte	0
 10859 2106 0D       		.uleb128 0xd
 10860 2107 FF1C0000 		.4byte	.LASF451
 10861 210b 1E       		.byte	0x1e
 10862 210c 39       		.byte	0x39
 10863 210d AB010000 		.4byte	0x1ab
 10864 2111 04       		.byte	0x4
 10865 2112 00       		.byte	0
 10866 2113 02       		.uleb128 0x2
 10867 2114 22200000 		.4byte	.LASF452
 10868 2118 1E       		.byte	0x1e
 10869 2119 3A       		.byte	0x3a
 10870 211a F2200000 		.4byte	0x20f2
 10871 211e 17       		.uleb128 0x17
 10872 211f A2020000 		.4byte	0x2a2
 10873 2123 2D210000 		.4byte	0x212d
 10874 2127 18       		.uleb128 0x18
 10875 2128 68010000 		.4byte	0x168
 10876 212c 00       		.byte	0
 10877 212d 05       		.uleb128 0x5
 10878 212e 04       		.byte	0x4
 10879 212f 1E210000 		.4byte	0x211e
 10880 2133 17       		.uleb128 0x17
 10881 2134 A2020000 		.4byte	0x2a2
 10882 2138 51210000 		.4byte	0x2151
 10883 213c 18       		.uleb128 0x18
 10884 213d 68010000 		.4byte	0x168
 10885 2141 18       		.uleb128 0x18
 10886 2142 AB010000 		.4byte	0x1ab
 10887 2146 18       		.uleb128 0x18
 10888 2147 CD0C0000 		.4byte	0xccd
 10889 214b 18       		.uleb128 0x18
 10890 214c AB010000 		.4byte	0x1ab
 10891 2150 00       		.byte	0
 10892 2151 05       		.uleb128 0x5
 10893 2152 04       		.byte	0x4
 10894 2153 33210000 		.4byte	0x2133
 10895 2157 17       		.uleb128 0x17
 10896 2158 A2020000 		.4byte	0x2a2
 10897 215c 75210000 		.4byte	0x2175
 10898 2160 18       		.uleb128 0x18
 10899 2161 68010000 		.4byte	0x168
 10900 2165 18       		.uleb128 0x18
 10901 2166 AB010000 		.4byte	0x1ab
 10902 216a 18       		.uleb128 0x18
 10903 216b 461F0000 		.4byte	0x1f46
 10904 216f 18       		.uleb128 0x18
 10905 2170 AB010000 		.4byte	0x1ab
 10906 2174 00       		.byte	0
ARM GAS  C:\Users\Moi\AppData\Local\Temp\ccF5N8ze.s 			page 198


 10907 2175 05       		.uleb128 0x5
 10908 2176 04       		.byte	0x4
 10909 2177 57210000 		.4byte	0x2157
 10910 217b 17       		.uleb128 0x17
 10911 217c A2020000 		.4byte	0x2a2
 10912 2180 8F210000 		.4byte	0x218f
 10913 2184 18       		.uleb128 0x18
 10914 2185 68010000 		.4byte	0x168
 10915 2189 18       		.uleb128 0x18
 10916 218a 8F210000 		.4byte	0x218f
 10917 218e 00       		.byte	0
 10918 218f 05       		.uleb128 0x5
 10919 2190 04       		.byte	0x4
 10920 2191 13210000 		.4byte	0x2113
 10921 2195 05       		.uleb128 0x5
 10922 2196 04       		.byte	0x4
 10923 2197 7B210000 		.4byte	0x217b
 10924 219b 0A       		.uleb128 0xa
 10925 219c AB010000 		.4byte	0x1ab
 10926 21a0 AB210000 		.4byte	0x21ab
 10927 21a4 0B       		.uleb128 0xb
 10928 21a5 B1000000 		.4byte	0xb1
 10929 21a9 03       		.byte	0x3
 10930 21aa 00       		.byte	0
 10931 21ab 0C       		.uleb128 0xc
 10932 21ac 04       		.byte	0x4
 10933 21ad 1F       		.byte	0x1f
 10934 21ae B3       		.byte	0xb3
 10935 21af CC210000 		.4byte	0x21cc
 10936 21b3 13       		.uleb128 0x13
 10937 21b4 73657400 		.ascii	"set\000"
 10938 21b8 1F       		.byte	0x1f
 10939 21b9 B4       		.byte	0xb4
 10940 21ba 90010000 		.4byte	0x190
 10941 21be 00       		.byte	0
 10942 21bf 0D       		.uleb128 0xd
 10943 21c0 FF0C0000 		.4byte	.LASF453
 10944 21c4 1F       		.byte	0x1f
 10945 21c5 B5       		.byte	0xb5
 10946 21c6 90010000 		.4byte	0x190
 10947 21ca 02       		.byte	0x2
 10948 21cb 00       		.byte	0
 10949 21cc 08       		.uleb128 0x8
 10950 21cd 04       		.byte	0x4
 10951 21ce 1F       		.byte	0x1f
 10952 21cf B1       		.byte	0xb1
 10953 21d0 E7210000 		.4byte	0x21e7
 10954 21d4 23       		.uleb128 0x23
 10955 21d5 5700     		.ascii	"W\000"
 10956 21d7 1F       		.byte	0x1f
 10957 21d8 B2       		.byte	0xb2
 10958 21d9 AB010000 		.4byte	0x1ab
 10959 21dd 23       		.uleb128 0x23
 10960 21de 4800     		.ascii	"H\000"
 10961 21e0 1F       		.byte	0x1f
 10962 21e1 B6       		.byte	0xb6
 10963 21e2 AB210000 		.4byte	0x21ab
ARM GAS  C:\Users\Moi\AppData\Local\Temp\ccF5N8ze.s 			page 199


 10964 21e6 00       		.byte	0
 10965 21e7 10       		.uleb128 0x10
 10966 21e8 CC210000 		.4byte	0x21cc
 10967 21ec 0C       		.uleb128 0xc
 10968 21ed 2C       		.byte	0x2c
 10969 21ee 1F       		.byte	0x1f
 10970 21ef A9       		.byte	0xa9
 10971 21f0 79220000 		.4byte	0x2279
 10972 21f4 0D       		.uleb128 0xd
 10973 21f5 1E1F0000 		.4byte	.LASF454
 10974 21f9 1F       		.byte	0x1f
 10975 21fa AB       		.byte	0xab
 10976 21fb B6010000 		.4byte	0x1b6
 10977 21ff 00       		.byte	0
 10978 2200 0D       		.uleb128 0xd
 10979 2201 70030000 		.4byte	.LASF455
 10980 2205 1F       		.byte	0x1f
 10981 2206 AC       		.byte	0xac
 10982 2207 B6010000 		.4byte	0x1b6
 10983 220b 04       		.byte	0x4
 10984 220c 0D       		.uleb128 0xd
 10985 220d B40E0000 		.4byte	.LASF456
 10986 2211 1F       		.byte	0x1f
 10987 2212 AD       		.byte	0xad
 10988 2213 B6010000 		.4byte	0x1b6
 10989 2217 08       		.byte	0x8
 10990 2218 0D       		.uleb128 0xd
 10991 2219 561E0000 		.4byte	.LASF457
 10992 221d 1F       		.byte	0x1f
 10993 221e AE       		.byte	0xae
 10994 221f B6010000 		.4byte	0x1b6
 10995 2223 0C       		.byte	0xc
 10996 2224 13       		.uleb128 0x13
 10997 2225 49445200 		.ascii	"IDR\000"
 10998 2229 1F       		.byte	0x1f
 10999 222a AF       		.byte	0xaf
 11000 222b B6010000 		.4byte	0x1b6
 11001 222f 10       		.byte	0x10
 11002 2230 13       		.uleb128 0x13
 11003 2231 4F445200 		.ascii	"ODR\000"
 11004 2235 1F       		.byte	0x1f
 11005 2236 B0       		.byte	0xb0
 11006 2237 B6010000 		.4byte	0x1b6
 11007 223b 14       		.byte	0x14
 11008 223c 0D       		.uleb128 0xd
 11009 223d 61120000 		.4byte	.LASF458
 11010 2241 1F       		.byte	0x1f
 11011 2242 B7       		.byte	0xb7
 11012 2243 E7210000 		.4byte	0x21e7
 11013 2247 18       		.byte	0x18
 11014 2248 0D       		.uleb128 0xd
 11015 2249 07180000 		.4byte	.LASF459
 11016 224d 1F       		.byte	0x1f
 11017 224e B8       		.byte	0xb8
 11018 224f B6010000 		.4byte	0x1b6
 11019 2253 1C       		.byte	0x1c
 11020 2254 0D       		.uleb128 0xd
ARM GAS  C:\Users\Moi\AppData\Local\Temp\ccF5N8ze.s 			page 200


 11021 2255 5D1B0000 		.4byte	.LASF460
 11022 2259 1F       		.byte	0x1f
 11023 225a B9       		.byte	0xb9
 11024 225b B6010000 		.4byte	0x1b6
 11025 225f 20       		.byte	0x20
 11026 2260 0D       		.uleb128 0xd
 11027 2261 581B0000 		.4byte	.LASF461
 11028 2265 1F       		.byte	0x1f
 11029 2266 BA       		.byte	0xba
 11030 2267 B6010000 		.4byte	0x1b6
 11031 226b 24       		.byte	0x24
 11032 226c 13       		.uleb128 0x13
 11033 226d 42525200 		.ascii	"BRR\000"
 11034 2271 1F       		.byte	0x1f
 11035 2272 BB       		.byte	0xbb
 11036 2273 B6010000 		.4byte	0x1b6
 11037 2277 28       		.byte	0x28
 11038 2278 00       		.byte	0
 11039 2279 02       		.uleb128 0x2
 11040 227a 06100000 		.4byte	.LASF462
 11041 227e 1F       		.byte	0x1f
 11042 227f BC       		.byte	0xbc
 11043 2280 EC210000 		.4byte	0x21ec
 11044 2284 0C       		.uleb128 0xc
 11045 2285 1C       		.byte	0x1c
 11046 2286 1F       		.byte	0x1f
 11047 2287 C1       		.byte	0xc1
 11048 2288 E1220000 		.4byte	0x22e1
 11049 228c 0D       		.uleb128 0xd
 11050 228d 32220000 		.4byte	.LASF463
 11051 2291 1F       		.byte	0x1f
 11052 2292 C3       		.byte	0xc3
 11053 2293 AB010000 		.4byte	0x1ab
 11054 2297 00       		.byte	0
 11055 2298 0D       		.uleb128 0xd
 11056 2299 69030000 		.4byte	.LASF464
 11057 229d 1F       		.byte	0x1f
 11058 229e C5       		.byte	0xc5
 11059 229f AB010000 		.4byte	0x1ab
 11060 22a3 04       		.byte	0x4
 11061 22a4 0D       		.uleb128 0xd
 11062 22a5 75020000 		.4byte	.LASF465
 11063 22a9 1F       		.byte	0x1f
 11064 22aa C7       		.byte	0xc7
 11065 22ab AB010000 		.4byte	0x1ab
 11066 22af 08       		.byte	0x8
 11067 22b0 0D       		.uleb128 0xd
 11068 22b1 50210000 		.4byte	.LASF466
 11069 22b5 1F       		.byte	0x1f
 11070 22b6 C9       		.byte	0xc9
 11071 22b7 AB010000 		.4byte	0x1ab
 11072 22bb 0C       		.byte	0xc
 11073 22bc 13       		.uleb128 0x13
 11074 22bd 6F647200 		.ascii	"odr\000"
 11075 22c1 1F       		.byte	0x1f
 11076 22c2 CB       		.byte	0xcb
 11077 22c3 AB010000 		.4byte	0x1ab
ARM GAS  C:\Users\Moi\AppData\Local\Temp\ccF5N8ze.s 			page 201


 11078 22c7 10       		.byte	0x10
 11079 22c8 0D       		.uleb128 0xd
 11080 22c9 E81E0000 		.4byte	.LASF467
 11081 22cd 1F       		.byte	0x1f
 11082 22ce CD       		.byte	0xcd
 11083 22cf AB010000 		.4byte	0x1ab
 11084 22d3 14       		.byte	0x14
 11085 22d4 0D       		.uleb128 0xd
 11086 22d5 87000000 		.4byte	.LASF468
 11087 22d9 1F       		.byte	0x1f
 11088 22da CF       		.byte	0xcf
 11089 22db AB010000 		.4byte	0x1ab
 11090 22df 18       		.byte	0x18
 11091 22e0 00       		.byte	0
 11092 22e1 02       		.uleb128 0x2
 11093 22e2 551A0000 		.4byte	.LASF469
 11094 22e6 1F       		.byte	0x1f
 11095 22e7 D0       		.byte	0xd0
 11096 22e8 84220000 		.4byte	0x2284
 11097 22ec 0C       		.uleb128 0xc
 11098 22ed FC       		.byte	0xfc
 11099 22ee 1F       		.byte	0x1f
 11100 22ef D9       		.byte	0xd9
 11101 22f0 61230000 		.4byte	0x2361
 11102 22f4 0D       		.uleb128 0xd
 11103 22f5 9E100000 		.4byte	.LASF470
 11104 22f9 1F       		.byte	0x1f
 11105 22fa DC       		.byte	0xdc
 11106 22fb E1220000 		.4byte	0x22e1
 11107 22ff 00       		.byte	0
 11108 2300 0D       		.uleb128 0xd
 11109 2301 48030000 		.4byte	.LASF471
 11110 2305 1F       		.byte	0x1f
 11111 2306 E0       		.byte	0xe0
 11112 2307 E1220000 		.4byte	0x22e1
 11113 230b 1C       		.byte	0x1c
 11114 230c 0D       		.uleb128 0xd
 11115 230d E2010000 		.4byte	.LASF472
 11116 2311 1F       		.byte	0x1f
 11117 2312 E4       		.byte	0xe4
 11118 2313 E1220000 		.4byte	0x22e1
 11119 2317 38       		.byte	0x38
 11120 2318 0D       		.uleb128 0xd
 11121 2319 150E0000 		.4byte	.LASF473
 11122 231d 1F       		.byte	0x1f
 11123 231e E8       		.byte	0xe8
 11124 231f E1220000 		.4byte	0x22e1
 11125 2323 54       		.byte	0x54
 11126 2324 0D       		.uleb128 0xd
 11127 2325 5B190000 		.4byte	.LASF474
 11128 2329 1F       		.byte	0x1f
 11129 232a EC       		.byte	0xec
 11130 232b E1220000 		.4byte	0x22e1
 11131 232f 70       		.byte	0x70
 11132 2330 0D       		.uleb128 0xd
 11133 2331 C9250000 		.4byte	.LASF475
 11134 2335 1F       		.byte	0x1f
ARM GAS  C:\Users\Moi\AppData\Local\Temp\ccF5N8ze.s 			page 202


 11135 2336 F0       		.byte	0xf0
 11136 2337 E1220000 		.4byte	0x22e1
 11137 233b 8C       		.byte	0x8c
 11138 233c 0D       		.uleb128 0xd
 11139 233d E80B0000 		.4byte	.LASF476
 11140 2341 1F       		.byte	0x1f
 11141 2342 F4       		.byte	0xf4
 11142 2343 E1220000 		.4byte	0x22e1
 11143 2347 A8       		.byte	0xa8
 11144 2348 0D       		.uleb128 0xd
 11145 2349 59170000 		.4byte	.LASF477
 11146 234d 1F       		.byte	0x1f
 11147 234e F8       		.byte	0xf8
 11148 234f E1220000 		.4byte	0x22e1
 11149 2353 C4       		.byte	0xc4
 11150 2354 0D       		.uleb128 0xd
 11151 2355 A6230000 		.4byte	.LASF478
 11152 2359 1F       		.byte	0x1f
 11153 235a FC       		.byte	0xfc
 11154 235b E1220000 		.4byte	0x22e1
 11155 235f E0       		.byte	0xe0
 11156 2360 00       		.byte	0
 11157 2361 02       		.uleb128 0x2
 11158 2362 1C0B0000 		.4byte	.LASF479
 11159 2366 1F       		.byte	0x1f
 11160 2367 FE       		.byte	0xfe
 11161 2368 EC220000 		.4byte	0x22ec
 11162 236c 0F       		.uleb128 0xf
 11163 236d 61230000 		.4byte	0x2361
 11164 2371 07       		.uleb128 0x7
 11165 2372 60170000 		.4byte	.LASF480
 11166 2376 1F       		.byte	0x1f
 11167 2377 1B01     		.2byte	0x11b
 11168 2379 7D230000 		.4byte	0x237d
 11169 237d 05       		.uleb128 0x5
 11170 237e 04       		.byte	0x4
 11171 237f 79220000 		.4byte	0x2279
 11172 2383 21       		.uleb128 0x21
 11173 2384 BF1F0000 		.4byte	.LASF481
 11174 2388 1F       		.byte	0x1f
 11175 2389 DA01     		.2byte	0x1da
 11176 238b 6C230000 		.4byte	0x236c
 11177 238f 2A       		.uleb128 0x2a
 11178 2390 07       		.byte	0x7
 11179 2391 01       		.byte	0x1
 11180 2392 42000000 		.4byte	0x42
 11181 2396 20       		.byte	0x20
 11182 2397 46       		.byte	0x46
 11183 2398 C1230000 		.4byte	0x23c1
 11184 239c 2B       		.uleb128 0x2b
 11185 239d 9C080000 		.4byte	.LASF482
 11186 23a1 00       		.byte	0
 11187 23a2 2B       		.uleb128 0x2b
 11188 23a3 CB140000 		.4byte	.LASF483
 11189 23a7 01       		.byte	0x1
 11190 23a8 2B       		.uleb128 0x2b
 11191 23a9 D0210000 		.4byte	.LASF484
ARM GAS  C:\Users\Moi\AppData\Local\Temp\ccF5N8ze.s 			page 203


 11192 23ad 02       		.byte	0x2
 11193 23ae 2B       		.uleb128 0x2b
 11194 23af 41120000 		.4byte	.LASF485
 11195 23b3 03       		.byte	0x3
 11196 23b4 2B       		.uleb128 0x2b
 11197 23b5 A7060000 		.4byte	.LASF486
 11198 23b9 04       		.byte	0x4
 11199 23ba 2B       		.uleb128 0x2b
 11200 23bb 0E120000 		.4byte	.LASF487
 11201 23bf 05       		.byte	0x5
 11202 23c0 00       		.byte	0
 11203 23c1 02       		.uleb128 0x2
 11204 23c2 7A040000 		.4byte	.LASF488
 11205 23c6 20       		.byte	0x20
 11206 23c7 4D       		.byte	0x4d
 11207 23c8 8F230000 		.4byte	0x238f
 11208 23cc 07       		.uleb128 0x7
 11209 23cd 39110000 		.4byte	.LASF489
 11210 23d1 21       		.byte	0x21
 11211 23d2 2701     		.2byte	0x127
 11212 23d4 90010000 		.4byte	0x190
 11213 23d8 07       		.uleb128 0x7
 11214 23d9 F41B0000 		.4byte	.LASF490
 11215 23dd 21       		.byte	0x21
 11216 23de 2C01     		.2byte	0x12c
 11217 23e0 90010000 		.4byte	0x190
 11218 23e4 2C       		.uleb128 0x2c
 11219 23e5 07       		.byte	0x7
 11220 23e6 01       		.byte	0x1
 11221 23e7 42000000 		.4byte	0x42
 11222 23eb 21       		.byte	0x21
 11223 23ec 3301     		.2byte	0x133
 11224 23ee FF230000 		.4byte	0x23ff
 11225 23f2 2B       		.uleb128 0x2b
 11226 23f3 7D0E0000 		.4byte	.LASF491
 11227 23f7 00       		.byte	0
 11228 23f8 2B       		.uleb128 0x2b
 11229 23f9 99020000 		.4byte	.LASF492
 11230 23fd 01       		.byte	0x1
 11231 23fe 00       		.byte	0
 11232 23ff 07       		.uleb128 0x7
 11233 2400 F0220000 		.4byte	.LASF493
 11234 2404 21       		.byte	0x21
 11235 2405 3601     		.2byte	0x136
 11236 2407 E4230000 		.4byte	0x23e4
 11237 240b 07       		.uleb128 0x7
 11238 240c 3A0F0000 		.4byte	.LASF494
 11239 2410 21       		.byte	0x21
 11240 2411 3B01     		.2byte	0x13b
 11241 2413 17240000 		.4byte	0x2417
 11242 2417 1C       		.uleb128 0x1c
 11243 2418 3A0F0000 		.4byte	.LASF494
 11244 241c 38       		.byte	0x38
 11245 241d 21       		.byte	0x21
 11246 241e 9F01     		.2byte	0x19f
 11247 2420 A7240000 		.4byte	0x24a7
 11248 2424 1A       		.uleb128 0x1a
ARM GAS  C:\Users\Moi\AppData\Local\Temp\ccF5N8ze.s 			page 204


 11249 2425 A3150000 		.4byte	.LASF495
 11250 2429 21       		.byte	0x21
 11251 242a A301     		.2byte	0x1a3
 11252 242c C1230000 		.4byte	0x23c1
 11253 2430 00       		.byte	0
 11254 2431 1A       		.uleb128 0x1a
 11255 2432 A21B0000 		.4byte	.LASF496
 11256 2436 21       		.byte	0x21
 11257 2437 A701     		.2byte	0x1a7
 11258 2439 CE250000 		.4byte	0x25ce
 11259 243d 04       		.byte	0x4
 11260 243e 1A       		.uleb128 0x1a
 11261 243f F8010000 		.4byte	.LASF497
 11262 2443 21       		.byte	0x21
 11263 2444 AB01     		.2byte	0x1ab
 11264 2446 D4240000 		.4byte	0x24d4
 11265 244a 08       		.byte	0x8
 11266 244b 1A       		.uleb128 0x1a
 11267 244c 1D160000 		.4byte	.LASF498
 11268 2450 21       		.byte	0x21
 11269 2451 AF01     		.2byte	0x1af
 11270 2453 B8000000 		.4byte	0xb8
 11271 2457 0C       		.byte	0xc
 11272 2458 1A       		.uleb128 0x1a
 11273 2459 D21F0000 		.4byte	.LASF499
 11274 245d 21       		.byte	0x21
 11275 245e B301     		.2byte	0x1b3
 11276 2460 D4250000 		.4byte	0x25d4
 11277 2464 10       		.byte	0x10
 11278 2465 1A       		.uleb128 0x1a
 11279 2466 26070000 		.4byte	.LASF500
 11280 246a 21       		.byte	0x21
 11281 246b B801     		.2byte	0x1b8
 11282 246d 900E0000 		.4byte	0xe90
 11283 2471 14       		.byte	0x14
 11284 2472 1A       		.uleb128 0x1a
 11285 2473 D00C0000 		.4byte	.LASF501
 11286 2477 21       		.byte	0x21
 11287 2478 BE01     		.2byte	0x1be
 11288 247a EE1D0000 		.4byte	0x1dee
 11289 247e 18       		.byte	0x18
 11290 247f 25       		.uleb128 0x25
 11291 2480 61646300 		.ascii	"adc\000"
 11292 2484 21       		.byte	0x21
 11293 2485 C701     		.2byte	0x1c7
 11294 2487 DA250000 		.4byte	0x25da
 11295 248b 2C       		.byte	0x2c
 11296 248c 1A       		.uleb128 0x1a
 11297 248d C50A0000 		.4byte	.LASF502
 11298 2491 21       		.byte	0x21
 11299 2492 CB01     		.2byte	0x1cb
 11300 2494 E0250000 		.4byte	0x25e0
 11301 2498 30       		.byte	0x30
 11302 2499 1A       		.uleb128 0x1a
 11303 249a 95170000 		.4byte	.LASF503
 11304 249e 21       		.byte	0x21
 11305 249f CF01     		.2byte	0x1cf
ARM GAS  C:\Users\Moi\AppData\Local\Temp\ccF5N8ze.s 			page 205


 11306 24a1 AB010000 		.4byte	0x1ab
 11307 24a5 34       		.byte	0x34
 11308 24a6 00       		.byte	0
 11309 24a7 07       		.uleb128 0x7
 11310 24a8 62080000 		.4byte	.LASF504
 11311 24ac 21       		.byte	0x21
 11312 24ad 4501     		.2byte	0x145
 11313 24af B3240000 		.4byte	0x24b3
 11314 24b3 05       		.uleb128 0x5
 11315 24b4 04       		.byte	0x4
 11316 24b5 B9240000 		.4byte	0x24b9
 11317 24b9 20       		.uleb128 0x20
 11318 24ba CE240000 		.4byte	0x24ce
 11319 24be 18       		.uleb128 0x18
 11320 24bf CE240000 		.4byte	0x24ce
 11321 24c3 18       		.uleb128 0x18
 11322 24c4 D4240000 		.4byte	0x24d4
 11323 24c8 18       		.uleb128 0x18
 11324 24c9 B8000000 		.4byte	0xb8
 11325 24cd 00       		.byte	0
 11326 24ce 05       		.uleb128 0x5
 11327 24cf 04       		.byte	0x4
 11328 24d0 0B240000 		.4byte	0x240b
 11329 24d4 05       		.uleb128 0x5
 11330 24d5 04       		.byte	0x4
 11331 24d6 CC230000 		.4byte	0x23cc
 11332 24da 07       		.uleb128 0x7
 11333 24db 7E150000 		.4byte	.LASF505
 11334 24df 21       		.byte	0x21
 11335 24e0 4E01     		.2byte	0x14e
 11336 24e2 E6240000 		.4byte	0x24e6
 11337 24e6 05       		.uleb128 0x5
 11338 24e7 04       		.byte	0x4
 11339 24e8 EC240000 		.4byte	0x24ec
 11340 24ec 20       		.uleb128 0x20
 11341 24ed FC240000 		.4byte	0x24fc
 11342 24f1 18       		.uleb128 0x18
 11343 24f2 CE240000 		.4byte	0x24ce
 11344 24f6 18       		.uleb128 0x18
 11345 24f7 FF230000 		.4byte	0x23ff
 11346 24fb 00       		.byte	0
 11347 24fc 1D       		.uleb128 0x1d
 11348 24fd 28       		.byte	0x28
 11349 24fe 21       		.byte	0x21
 11350 24ff 5801     		.2byte	0x158
 11351 2501 95250000 		.4byte	0x2595
 11352 2505 1A       		.uleb128 0x1a
 11353 2506 1E220000 		.4byte	.LASF506
 11354 250a 21       		.byte	0x21
 11355 250b 5C01     		.2byte	0x15c
 11356 250d A2020000 		.4byte	0x2a2
 11357 2511 00       		.byte	0
 11358 2512 1A       		.uleb128 0x1a
 11359 2513 58100000 		.4byte	.LASF507
 11360 2517 21       		.byte	0x21
 11361 2518 6001     		.2byte	0x160
 11362 251a D8230000 		.4byte	0x23d8
ARM GAS  C:\Users\Moi\AppData\Local\Temp\ccF5N8ze.s 			page 206


 11363 251e 02       		.byte	0x2
 11364 251f 1A       		.uleb128 0x1a
 11365 2520 8A090000 		.4byte	.LASF508
 11366 2524 21       		.byte	0x21
 11367 2525 6401     		.2byte	0x164
 11368 2527 A7240000 		.4byte	0x24a7
 11369 252b 04       		.byte	0x4
 11370 252c 1A       		.uleb128 0x1a
 11371 252d D9230000 		.4byte	.LASF509
 11372 2531 21       		.byte	0x21
 11373 2532 6801     		.2byte	0x168
 11374 2534 DA240000 		.4byte	0x24da
 11375 2538 08       		.byte	0x8
 11376 2539 25       		.uleb128 0x25
 11377 253a 63723100 		.ascii	"cr1\000"
 11378 253e 21       		.byte	0x21
 11379 253f 6F01     		.2byte	0x16f
 11380 2541 AB010000 		.4byte	0x1ab
 11381 2545 0C       		.byte	0xc
 11382 2546 25       		.uleb128 0x25
 11383 2547 63723200 		.ascii	"cr2\000"
 11384 254b 21       		.byte	0x21
 11385 254c 7601     		.2byte	0x176
 11386 254e AB010000 		.4byte	0x1ab
 11387 2552 10       		.byte	0x10
 11388 2553 1A       		.uleb128 0x1a
 11389 2554 B1160000 		.4byte	.LASF510
 11390 2558 21       		.byte	0x21
 11391 2559 7C01     		.2byte	0x17c
 11392 255b AB010000 		.4byte	0x1ab
 11393 255f 14       		.byte	0x14
 11394 2560 1A       		.uleb128 0x1a
 11395 2561 B7160000 		.4byte	.LASF511
 11396 2565 21       		.byte	0x21
 11397 2566 8201     		.2byte	0x182
 11398 2568 AB010000 		.4byte	0x1ab
 11399 256c 18       		.byte	0x18
 11400 256d 1A       		.uleb128 0x1a
 11401 256e 67010000 		.4byte	.LASF512
 11402 2572 21       		.byte	0x21
 11403 2573 8701     		.2byte	0x187
 11404 2575 AB010000 		.4byte	0x1ab
 11405 2579 1C       		.byte	0x1c
 11406 257a 1A       		.uleb128 0x1a
 11407 257b D6240000 		.4byte	.LASF513
 11408 257f 21       		.byte	0x21
 11409 2580 8C01     		.2byte	0x18c
 11410 2582 AB010000 		.4byte	0x1ab
 11411 2586 20       		.byte	0x20
 11412 2587 1A       		.uleb128 0x1a
 11413 2588 DB240000 		.4byte	.LASF514
 11414 258c 21       		.byte	0x21
 11415 258d 9101     		.2byte	0x191
 11416 258f AB010000 		.4byte	0x1ab
 11417 2593 24       		.byte	0x24
 11418 2594 00       		.byte	0
 11419 2595 07       		.uleb128 0x7
ARM GAS  C:\Users\Moi\AppData\Local\Temp\ccF5N8ze.s 			page 207


 11420 2596 D2050000 		.4byte	.LASF515
 11421 259a 21       		.byte	0x21
 11422 259b 9201     		.2byte	0x192
 11423 259d FC240000 		.4byte	0x24fc
 11424 25a1 0F       		.uleb128 0xf
 11425 25a2 95250000 		.4byte	0x2595
 11426 25a6 1D       		.uleb128 0x1d
 11427 25a7 04       		.byte	0x4
 11428 25a8 21       		.byte	0x21
 11429 25a9 9801     		.2byte	0x198
 11430 25ab BD250000 		.4byte	0x25bd
 11431 25af 1A       		.uleb128 0x1a
 11432 25b0 07250000 		.4byte	.LASF516
 11433 25b4 21       		.byte	0x21
 11434 25b5 9901     		.2byte	0x199
 11435 25b7 AB010000 		.4byte	0x1ab
 11436 25bb 00       		.byte	0
 11437 25bc 00       		.byte	0
 11438 25bd 07       		.uleb128 0x7
 11439 25be 520F0000 		.4byte	.LASF517
 11440 25c2 21       		.byte	0x21
 11441 25c3 9A01     		.2byte	0x19a
 11442 25c5 A6250000 		.4byte	0x25a6
 11443 25c9 0F       		.uleb128 0xf
 11444 25ca BD250000 		.4byte	0x25bd
 11445 25ce 05       		.uleb128 0x5
 11446 25cf 04       		.byte	0x4
 11447 25d0 C9250000 		.4byte	0x25c9
 11448 25d4 05       		.uleb128 0x5
 11449 25d5 04       		.byte	0x4
 11450 25d6 A1250000 		.4byte	0x25a1
 11451 25da 05       		.uleb128 0x5
 11452 25db 04       		.byte	0x4
 11453 25dc 13120000 		.4byte	0x1213
 11454 25e0 05       		.uleb128 0x5
 11455 25e1 04       		.byte	0x4
 11456 25e2 FC1F0000 		.4byte	0x1ffc
 11457 25e6 21       		.uleb128 0x21
 11458 25e7 7E170000 		.4byte	.LASF518
 11459 25eb 21       		.byte	0x21
 11460 25ec 1402     		.2byte	0x214
 11461 25ee 0B240000 		.4byte	0x240b
 11462 25f2 21       		.uleb128 0x21
 11463 25f3 84170000 		.4byte	.LASF519
 11464 25f7 21       		.byte	0x21
 11465 25f8 1802     		.2byte	0x218
 11466 25fa 0B240000 		.4byte	0x240b
 11467 25fe 21       		.uleb128 0x21
 11468 25ff 8A170000 		.4byte	.LASF520
 11469 2603 21       		.byte	0x21
 11470 2604 1C02     		.2byte	0x21c
 11471 2606 0B240000 		.4byte	0x240b
 11472 260a 2A       		.uleb128 0x2a
 11473 260b 07       		.byte	0x7
 11474 260c 01       		.byte	0x1
 11475 260d 42000000 		.4byte	0x42
 11476 2611 22       		.byte	0x22
ARM GAS  C:\Users\Moi\AppData\Local\Temp\ccF5N8ze.s 			page 208


 11477 2612 5F       		.byte	0x5f
 11478 2613 36260000 		.4byte	0x2636
 11479 2617 2B       		.uleb128 0x2b
 11480 2618 8F0D0000 		.4byte	.LASF521
 11481 261c 00       		.byte	0
 11482 261d 2B       		.uleb128 0x2b
 11483 261e E8000000 		.4byte	.LASF522
 11484 2622 01       		.byte	0x1
 11485 2623 2B       		.uleb128 0x2b
 11486 2624 58000000 		.4byte	.LASF523
 11487 2628 02       		.byte	0x2
 11488 2629 2B       		.uleb128 0x2b
 11489 262a 8A180000 		.4byte	.LASF524
 11490 262e 03       		.byte	0x3
 11491 262f 2B       		.uleb128 0x2b
 11492 2630 390A0000 		.4byte	.LASF525
 11493 2634 04       		.byte	0x4
 11494 2635 00       		.byte	0
 11495 2636 02       		.uleb128 0x2
 11496 2637 34060000 		.4byte	.LASF526
 11497 263b 22       		.byte	0x22
 11498 263c 65       		.byte	0x65
 11499 263d 0A260000 		.4byte	0x260a
 11500 2641 0A       		.uleb128 0xa
 11501 2642 75010000 		.4byte	0x175
 11502 2646 51260000 		.4byte	0x2651
 11503 264a 0B       		.uleb128 0xb
 11504 264b B1000000 		.4byte	0xb1
 11505 264f 07       		.byte	0x7
 11506 2650 00       		.byte	0
 11507 2651 0C       		.uleb128 0xc
 11508 2652 08       		.byte	0x8
 11509 2653 23       		.byte	0x23
 11510 2654 F4       		.byte	0xf4
 11511 2655 73260000 		.4byte	0x2673
 11512 2659 13       		.uleb128 0x13
 11513 265a 6D637200 		.ascii	"mcr\000"
 11514 265e 23       		.byte	0x23
 11515 265f FA       		.byte	0xfa
 11516 2660 AB010000 		.4byte	0x1ab
 11517 2664 00       		.byte	0
 11518 2665 25       		.uleb128 0x25
 11519 2666 62747200 		.ascii	"btr\000"
 11520 266a 23       		.byte	0x23
 11521 266b 0001     		.2byte	0x100
 11522 266d AB010000 		.4byte	0x1ab
 11523 2671 04       		.byte	0x4
 11524 2672 00       		.byte	0
 11525 2673 07       		.uleb128 0x7
 11526 2674 51190000 		.4byte	.LASF527
 11527 2678 23       		.byte	0x23
 11528 2679 0101     		.2byte	0x101
 11529 267b 51260000 		.4byte	0x2651
 11530 267f 0F       		.uleb128 0xf
 11531 2680 73260000 		.4byte	0x2673
 11532 2684 1D       		.uleb128 0x1d
 11533 2685 30       		.byte	0x30
ARM GAS  C:\Users\Moi\AppData\Local\Temp\ccF5N8ze.s 			page 209


 11534 2686 23       		.byte	0x23
 11535 2687 0601     		.2byte	0x106
 11536 2689 10270000 		.4byte	0x2710
 11537 268d 1A       		.uleb128 0x1a
 11538 268e A3150000 		.4byte	.LASF495
 11539 2692 23       		.byte	0x23
 11540 2693 0A01     		.2byte	0x10a
 11541 2695 36260000 		.4byte	0x2636
 11542 2699 00       		.byte	0
 11543 269a 1A       		.uleb128 0x1a
 11544 269b A21B0000 		.4byte	.LASF496
 11545 269f 23       		.byte	0x23
 11546 26a0 0E01     		.2byte	0x10e
 11547 26a2 10270000 		.4byte	0x2710
 11548 26a6 04       		.byte	0x4
 11549 26a7 1A       		.uleb128 0x1a
 11550 26a8 B5090000 		.4byte	.LASF528
 11551 26ac 23       		.byte	0x23
 11552 26ad 1201     		.2byte	0x112
 11553 26af C50E0000 		.4byte	0xec5
 11554 26b3 08       		.byte	0x8
 11555 26b4 1A       		.uleb128 0x1a
 11556 26b5 A61F0000 		.4byte	.LASF529
 11557 26b9 23       		.byte	0x23
 11558 26ba 1601     		.2byte	0x116
 11559 26bc C50E0000 		.4byte	0xec5
 11560 26c0 10       		.byte	0x10
 11561 26c1 1A       		.uleb128 0x1a
 11562 26c2 16190000 		.4byte	.LASF530
 11563 26c6 23       		.byte	0x23
 11564 26c7 2301     		.2byte	0x123
 11565 26c9 721E0000 		.4byte	0x1e72
 11566 26cd 18       		.byte	0x18
 11567 26ce 1A       		.uleb128 0x1a
 11568 26cf D00B0000 		.4byte	.LASF531
 11569 26d3 23       		.byte	0x23
 11570 26d4 2A01     		.2byte	0x12a
 11571 26d6 721E0000 		.4byte	0x1e72
 11572 26da 1C       		.byte	0x1c
 11573 26db 1A       		.uleb128 0x1a
 11574 26dc 4C100000 		.4byte	.LASF532
 11575 26e0 23       		.byte	0x23
 11576 26e1 3001     		.2byte	0x130
 11577 26e3 721E0000 		.4byte	0x1e72
 11578 26e7 20       		.byte	0x20
 11579 26e8 1A       		.uleb128 0x1a
 11580 26e9 CA030000 		.4byte	.LASF533
 11581 26ed 23       		.byte	0x23
 11582 26ee 3501     		.2byte	0x135
 11583 26f0 721E0000 		.4byte	0x1e72
 11584 26f4 24       		.byte	0x24
 11585 26f5 1A       		.uleb128 0x1a
 11586 26f6 75090000 		.4byte	.LASF534
 11587 26fa 23       		.byte	0x23
 11588 26fb 3901     		.2byte	0x139
 11589 26fd 721E0000 		.4byte	0x1e72
 11590 2701 28       		.byte	0x28
ARM GAS  C:\Users\Moi\AppData\Local\Temp\ccF5N8ze.s 			page 210


 11591 2702 25       		.uleb128 0x25
 11592 2703 63616E00 		.ascii	"can\000"
 11593 2707 23       		.byte	0x23
 11594 2708 3F01     		.2byte	0x13f
 11595 270a 16270000 		.4byte	0x2716
 11596 270e 2C       		.byte	0x2c
 11597 270f 00       		.byte	0
 11598 2710 05       		.uleb128 0x5
 11599 2711 04       		.byte	0x4
 11600 2712 7F260000 		.4byte	0x267f
 11601 2716 05       		.uleb128 0x5
 11602 2717 04       		.byte	0x4
 11603 2718 5C140000 		.4byte	0x145c
 11604 271c 07       		.uleb128 0x7
 11605 271d 20040000 		.4byte	.LASF535
 11606 2721 23       		.byte	0x23
 11607 2722 4001     		.2byte	0x140
 11608 2724 84260000 		.4byte	0x2684
 11609 2728 21       		.uleb128 0x21
 11610 2729 00210000 		.4byte	.LASF536
 11611 272d 23       		.byte	0x23
 11612 272e 4B01     		.2byte	0x14b
 11613 2730 1C270000 		.4byte	0x271c
 11614 2734 2A       		.uleb128 0x2a
 11615 2735 07       		.byte	0x7
 11616 2736 01       		.byte	0x1
 11617 2737 42000000 		.4byte	0x42
 11618 273b 24       		.byte	0x24
 11619 273c 46       		.byte	0x46
 11620 273d 66270000 		.4byte	0x2766
 11621 2741 2B       		.uleb128 0x2b
 11622 2742 E91B0000 		.4byte	.LASF537
 11623 2746 00       		.byte	0
 11624 2747 2B       		.uleb128 0x2b
 11625 2748 55220000 		.4byte	.LASF538
 11626 274c 01       		.byte	0x1
 11627 274d 2B       		.uleb128 0x2b
 11628 274e BC0E0000 		.4byte	.LASF539
 11629 2752 02       		.byte	0x2
 11630 2753 2B       		.uleb128 0x2b
 11631 2754 91150000 		.4byte	.LASF540
 11632 2758 03       		.byte	0x3
 11633 2759 2B       		.uleb128 0x2b
 11634 275a 7D1B0000 		.4byte	.LASF541
 11635 275e 04       		.byte	0x4
 11636 275f 2B       		.uleb128 0x2b
 11637 2760 970F0000 		.4byte	.LASF542
 11638 2764 05       		.byte	0x5
 11639 2765 00       		.byte	0
 11640 2766 02       		.uleb128 0x2
 11641 2767 C2180000 		.4byte	.LASF543
 11642 276b 24       		.byte	0x24
 11643 276c 4D       		.byte	0x4d
 11644 276d 34270000 		.4byte	0x2734
 11645 2771 0C       		.uleb128 0xc
 11646 2772 1C       		.byte	0x1c
 11647 2773 25       		.byte	0x25
ARM GAS  C:\Users\Moi\AppData\Local\Temp\ccF5N8ze.s 			page 211


 11648 2774 F9       		.byte	0xf9
 11649 2775 D4270000 		.4byte	0x27d4
 11650 2779 13       		.uleb128 0x13
 11651 277a 64616300 		.ascii	"dac\000"
 11652 277e 25       		.byte	0x25
 11653 277f FD       		.byte	0xfd
 11654 2780 D4270000 		.4byte	0x27d4
 11655 2784 00       		.byte	0
 11656 2785 1A       		.uleb128 0x1a
 11657 2786 1F180000 		.4byte	.LASF544
 11658 278a 25       		.byte	0x25
 11659 278b 0101     		.2byte	0x101
 11660 278d AB010000 		.4byte	0x1ab
 11661 2791 04       		.byte	0x4
 11662 2792 1A       		.uleb128 0x1a
 11663 2793 2D070000 		.4byte	.LASF545
 11664 2797 25       		.byte	0x25
 11665 2798 0501     		.2byte	0x105
 11666 279a AB010000 		.4byte	0x1ab
 11667 279e 08       		.byte	0x8
 11668 279f 1A       		.uleb128 0x1a
 11669 27a0 20020000 		.4byte	.LASF546
 11670 27a4 25       		.byte	0x25
 11671 27a5 0901     		.2byte	0x109
 11672 27a7 AB010000 		.4byte	0x1ab
 11673 27ab 0C       		.byte	0xc
 11674 27ac 25       		.uleb128 0x25
 11675 27ad 646D6100 		.ascii	"dma\000"
 11676 27b1 25       		.byte	0x25
 11677 27b2 0D01     		.2byte	0x10d
 11678 27b4 E0250000 		.4byte	0x25e0
 11679 27b8 10       		.byte	0x10
 11680 27b9 1A       		.uleb128 0x1a
 11681 27ba 95170000 		.4byte	.LASF503
 11682 27be 25       		.byte	0x25
 11683 27bf 1101     		.2byte	0x111
 11684 27c1 AB010000 		.4byte	0x1ab
 11685 27c5 14       		.byte	0x14
 11686 27c6 1A       		.uleb128 0x1a
 11687 27c7 3A170000 		.4byte	.LASF547
 11688 27cb 25       		.byte	0x25
 11689 27cc 1501     		.2byte	0x115
 11690 27ce AB010000 		.4byte	0x1ab
 11691 27d2 18       		.byte	0x18
 11692 27d3 00       		.byte	0
 11693 27d4 05       		.uleb128 0x5
 11694 27d5 04       		.byte	0x4
 11695 27d6 26150000 		.4byte	0x1526
 11696 27da 07       		.uleb128 0x7
 11697 27db 77030000 		.4byte	.LASF548
 11698 27df 25       		.byte	0x25
 11699 27e0 1601     		.2byte	0x116
 11700 27e2 71270000 		.4byte	0x2771
 11701 27e6 0F       		.uleb128 0xf
 11702 27e7 DA270000 		.4byte	0x27da
 11703 27eb 07       		.uleb128 0x7
 11704 27ec DB0C0000 		.4byte	.LASF549
ARM GAS  C:\Users\Moi\AppData\Local\Temp\ccF5N8ze.s 			page 212


 11705 27f0 25       		.byte	0x25
 11706 27f1 1B01     		.2byte	0x11b
 11707 27f3 F7270000 		.4byte	0x27f7
 11708 27f7 1C       		.uleb128 0x1c
 11709 27f8 DB0C0000 		.4byte	.LASF549
 11710 27fc 30       		.byte	0x30
 11711 27fd 25       		.byte	0x25
 11712 27fe 7B01     		.2byte	0x17b
 11713 2800 6D280000 		.4byte	0x286d
 11714 2804 1A       		.uleb128 0x1a
 11715 2805 A3150000 		.4byte	.LASF495
 11716 2809 25       		.byte	0x25
 11717 280a 7F01     		.2byte	0x17f
 11718 280c 66270000 		.4byte	0x2766
 11719 2810 00       		.byte	0
 11720 2811 1A       		.uleb128 0x1a
 11721 2812 D21F0000 		.4byte	.LASF499
 11722 2816 25       		.byte	0x25
 11723 2817 8301     		.2byte	0x183
 11724 2819 AB290000 		.4byte	0x29ab
 11725 281d 04       		.byte	0x4
 11726 281e 1A       		.uleb128 0x1a
 11727 281f F8010000 		.4byte	.LASF497
 11728 2823 25       		.byte	0x25
 11729 2824 8701     		.2byte	0x187
 11730 2826 D2280000 		.4byte	0x28d2
 11731 282a 08       		.byte	0x8
 11732 282b 1A       		.uleb128 0x1a
 11733 282c 1D160000 		.4byte	.LASF498
 11734 2830 25       		.byte	0x25
 11735 2831 8B01     		.2byte	0x18b
 11736 2833 90010000 		.4byte	0x190
 11737 2837 0C       		.byte	0xc
 11738 2838 1A       		.uleb128 0x1a
 11739 2839 A21B0000 		.4byte	.LASF496
 11740 283d 25       		.byte	0x25
 11741 283e 8F01     		.2byte	0x18f
 11742 2840 B1290000 		.4byte	0x29b1
 11743 2844 10       		.byte	0x10
 11744 2845 1A       		.uleb128 0x1a
 11745 2846 26070000 		.4byte	.LASF500
 11746 284a 25       		.byte	0x25
 11747 284b 9401     		.2byte	0x194
 11748 284d 900E0000 		.4byte	0xe90
 11749 2851 14       		.byte	0x14
 11750 2852 1A       		.uleb128 0x1a
 11751 2853 D00C0000 		.4byte	.LASF501
 11752 2857 25       		.byte	0x25
 11753 2858 9A01     		.2byte	0x19a
 11754 285a EE1D0000 		.4byte	0x1dee
 11755 285e 18       		.byte	0x18
 11756 285f 1A       		.uleb128 0x1a
 11757 2860 CB100000 		.4byte	.LASF550
 11758 2864 25       		.byte	0x25
 11759 2865 A301     		.2byte	0x1a3
 11760 2867 B7290000 		.4byte	0x29b7
 11761 286b 2C       		.byte	0x2c
ARM GAS  C:\Users\Moi\AppData\Local\Temp\ccF5N8ze.s 			page 213


 11762 286c 00       		.byte	0
 11763 286d 07       		.uleb128 0x7
 11764 286e E8180000 		.4byte	.LASF551
 11765 2872 25       		.byte	0x25
 11766 2873 2001     		.2byte	0x120
 11767 2875 90010000 		.4byte	0x190
 11768 2879 0F       		.uleb128 0xf
 11769 287a 6D280000 		.4byte	0x286d
 11770 287e 2C       		.uleb128 0x2c
 11771 287f 07       		.byte	0x7
 11772 2880 01       		.byte	0x1
 11773 2881 42000000 		.4byte	0x42
 11774 2885 25       		.byte	0x25
 11775 2886 2701     		.2byte	0x127
 11776 2888 99280000 		.4byte	0x2899
 11777 288c 2B       		.uleb128 0x2b
 11778 288d 82190000 		.4byte	.LASF552
 11779 2891 00       		.byte	0
 11780 2892 2B       		.uleb128 0x2b
 11781 2893 63090000 		.4byte	.LASF553
 11782 2897 01       		.byte	0x1
 11783 2898 00       		.byte	0
 11784 2899 07       		.uleb128 0x7
 11785 289a 23110000 		.4byte	.LASF554
 11786 289e 25       		.byte	0x25
 11787 289f 2A01     		.2byte	0x12a
 11788 28a1 7E280000 		.4byte	0x287e
 11789 28a5 07       		.uleb128 0x7
 11790 28a6 9E070000 		.4byte	.LASF555
 11791 28aa 25       		.byte	0x25
 11792 28ab 3401     		.2byte	0x134
 11793 28ad B1280000 		.4byte	0x28b1
 11794 28b1 05       		.uleb128 0x5
 11795 28b2 04       		.byte	0x4
 11796 28b3 B7280000 		.4byte	0x28b7
 11797 28b7 20       		.uleb128 0x20
 11798 28b8 CC280000 		.4byte	0x28cc
 11799 28bc 18       		.uleb128 0x18
 11800 28bd CC280000 		.4byte	0x28cc
 11801 28c1 18       		.uleb128 0x18
 11802 28c2 D2280000 		.4byte	0x28d2
 11803 28c6 18       		.uleb128 0x18
 11804 28c7 B8000000 		.4byte	0xb8
 11805 28cb 00       		.byte	0
 11806 28cc 05       		.uleb128 0x5
 11807 28cd 04       		.byte	0x4
 11808 28ce EB270000 		.4byte	0x27eb
 11809 28d2 05       		.uleb128 0x5
 11810 28d3 04       		.byte	0x4
 11811 28d4 79280000 		.4byte	0x2879
 11812 28d8 07       		.uleb128 0x7
 11813 28d9 56210000 		.4byte	.LASF556
 11814 28dd 25       		.byte	0x25
 11815 28de 3F01     		.2byte	0x13f
 11816 28e0 E4280000 		.4byte	0x28e4
 11817 28e4 05       		.uleb128 0x5
 11818 28e5 04       		.byte	0x4
ARM GAS  C:\Users\Moi\AppData\Local\Temp\ccF5N8ze.s 			page 214


 11819 28e6 EA280000 		.4byte	0x28ea
 11820 28ea 20       		.uleb128 0x20
 11821 28eb FA280000 		.4byte	0x28fa
 11822 28ef 18       		.uleb128 0x18
 11823 28f0 CC280000 		.4byte	0x28cc
 11824 28f4 18       		.uleb128 0x18
 11825 28f5 99280000 		.4byte	0x2899
 11826 28f9 00       		.byte	0
 11827 28fa 2C       		.uleb128 0x2c
 11828 28fb 07       		.byte	0x7
 11829 28fc 01       		.byte	0x1
 11830 28fd 42000000 		.4byte	0x42
 11831 2901 25       		.byte	0x25
 11832 2902 4401     		.2byte	0x144
 11833 2904 1B290000 		.4byte	0x291b
 11834 2908 2B       		.uleb128 0x2b
 11835 2909 431C0000 		.4byte	.LASF557
 11836 290d 00       		.byte	0
 11837 290e 2B       		.uleb128 0x2b
 11838 290f AE120000 		.4byte	.LASF558
 11839 2913 01       		.byte	0x1
 11840 2914 2B       		.uleb128 0x2b
 11841 2915 30160000 		.4byte	.LASF559
 11842 2919 02       		.byte	0x2
 11843 291a 00       		.byte	0
 11844 291b 07       		.uleb128 0x7
 11845 291c B80A0000 		.4byte	.LASF560
 11846 2920 25       		.byte	0x25
 11847 2921 4D01     		.2byte	0x14d
 11848 2923 FA280000 		.4byte	0x28fa
 11849 2927 1D       		.uleb128 0x1d
 11850 2928 10       		.byte	0x10
 11851 2929 25       		.byte	0x25
 11852 292a 5201     		.2byte	0x152
 11853 292c 65290000 		.4byte	0x2965
 11854 2930 1A       		.uleb128 0x1a
 11855 2931 58100000 		.4byte	.LASF507
 11856 2935 25       		.byte	0x25
 11857 2936 5601     		.2byte	0x156
 11858 2938 AB010000 		.4byte	0x1ab
 11859 293c 00       		.byte	0
 11860 293d 1A       		.uleb128 0x1a
 11861 293e 8A090000 		.4byte	.LASF508
 11862 2942 25       		.byte	0x25
 11863 2943 5A01     		.2byte	0x15a
 11864 2945 A5280000 		.4byte	0x28a5
 11865 2949 04       		.byte	0x4
 11866 294a 1A       		.uleb128 0x1a
 11867 294b D9230000 		.4byte	.LASF509
 11868 294f 25       		.byte	0x25
 11869 2950 5E01     		.2byte	0x15e
 11870 2952 D8280000 		.4byte	0x28d8
 11871 2956 08       		.byte	0x8
 11872 2957 1A       		.uleb128 0x1a
 11873 2958 FE130000 		.4byte	.LASF561
 11874 295c 25       		.byte	0x25
 11875 295d 6601     		.2byte	0x166
ARM GAS  C:\Users\Moi\AppData\Local\Temp\ccF5N8ze.s 			page 215


 11876 295f AB010000 		.4byte	0x1ab
 11877 2963 0C       		.byte	0xc
 11878 2964 00       		.byte	0
 11879 2965 07       		.uleb128 0x7
 11880 2966 DC110000 		.4byte	.LASF562
 11881 296a 25       		.byte	0x25
 11882 296b 6701     		.2byte	0x167
 11883 296d 27290000 		.4byte	0x2927
 11884 2971 0F       		.uleb128 0xf
 11885 2972 65290000 		.4byte	0x2965
 11886 2976 1D       		.uleb128 0x1d
 11887 2977 04       		.byte	0x4
 11888 2978 25       		.byte	0x25
 11889 2979 6C01     		.2byte	0x16c
 11890 297b 9A290000 		.4byte	0x299a
 11891 297f 1A       		.uleb128 0x1a
 11892 2980 120B0000 		.4byte	.LASF563
 11893 2984 25       		.byte	0x25
 11894 2985 7101     		.2byte	0x171
 11895 2987 6D280000 		.4byte	0x286d
 11896 298b 00       		.byte	0
 11897 298c 1A       		.uleb128 0x1a
 11898 298d 2F010000 		.4byte	.LASF564
 11899 2991 25       		.byte	0x25
 11900 2992 7501     		.2byte	0x175
 11901 2994 1B290000 		.4byte	0x291b
 11902 2998 02       		.byte	0x2
 11903 2999 00       		.byte	0
 11904 299a 07       		.uleb128 0x7
 11905 299b E50C0000 		.4byte	.LASF565
 11906 299f 25       		.byte	0x25
 11907 29a0 7601     		.2byte	0x176
 11908 29a2 76290000 		.4byte	0x2976
 11909 29a6 0F       		.uleb128 0xf
 11910 29a7 9A290000 		.4byte	0x299a
 11911 29ab 05       		.uleb128 0x5
 11912 29ac 04       		.byte	0x4
 11913 29ad 71290000 		.4byte	0x2971
 11914 29b1 05       		.uleb128 0x5
 11915 29b2 04       		.byte	0x4
 11916 29b3 A6290000 		.4byte	0x29a6
 11917 29b7 05       		.uleb128 0x5
 11918 29b8 04       		.byte	0x4
 11919 29b9 E6270000 		.4byte	0x27e6
 11920 29bd 21       		.uleb128 0x21
 11921 29be 1A040000 		.4byte	.LASF566
 11922 29c2 25       		.byte	0x25
 11923 29c3 B301     		.2byte	0x1b3
 11924 29c5 EB270000 		.4byte	0x27eb
 11925 29c9 2A       		.uleb128 0x2a
 11926 29ca 07       		.byte	0x7
 11927 29cb 01       		.byte	0x1
 11928 29cc 42000000 		.4byte	0x42
 11929 29d0 26       		.byte	0x26
 11930 29d1 3F       		.byte	0x3f
 11931 29d2 E9290000 		.4byte	0x29e9
 11932 29d6 2B       		.uleb128 0x2b
ARM GAS  C:\Users\Moi\AppData\Local\Temp\ccF5N8ze.s 			page 216


 11933 29d7 2E0A0000 		.4byte	.LASF567
 11934 29db 00       		.byte	0
 11935 29dc 2B       		.uleb128 0x2b
 11936 29dd D0250000 		.4byte	.LASF568
 11937 29e1 01       		.byte	0x1
 11938 29e2 2B       		.uleb128 0x2b
 11939 29e3 5E020000 		.4byte	.LASF569
 11940 29e7 02       		.byte	0x2
 11941 29e8 00       		.byte	0
 11942 29e9 02       		.uleb128 0x2
 11943 29ea 1C1B0000 		.4byte	.LASF570
 11944 29ee 26       		.byte	0x26
 11945 29ef 43       		.byte	0x43
 11946 29f0 C9290000 		.4byte	0x29c9
 11947 29f4 02       		.uleb128 0x2
 11948 29f5 D6080000 		.4byte	.LASF571
 11949 29f9 26       		.byte	0x26
 11950 29fa 48       		.byte	0x48
 11951 29fb FF290000 		.4byte	0x29ff
 11952 29ff 12       		.uleb128 0x12
 11953 2a00 D6080000 		.4byte	.LASF571
 11954 2a04 08       		.byte	0x8
 11955 2a05 27       		.byte	0x27
 11956 2a06 71       		.byte	0x71
 11957 2a07 242A0000 		.4byte	0x2a24
 11958 2a0b 0D       		.uleb128 0xd
 11959 2a0c A3150000 		.4byte	.LASF495
 11960 2a10 27       		.byte	0x27
 11961 2a11 75       		.byte	0x75
 11962 2a12 E9290000 		.4byte	0x29e9
 11963 2a16 00       		.byte	0
 11964 2a17 0D       		.uleb128 0xd
 11965 2a18 A21B0000 		.4byte	.LASF496
 11966 2a1c 27       		.byte	0x27
 11967 2a1d 79       		.byte	0x79
 11968 2a1e B62A0000 		.4byte	0x2ab6
 11969 2a22 04       		.byte	0x4
 11970 2a23 00       		.byte	0
 11971 2a24 02       		.uleb128 0x2
 11972 2a25 22240000 		.4byte	.LASF572
 11973 2a29 27       		.byte	0x27
 11974 2a2a 47       		.byte	0x47
 11975 2a2b AB010000 		.4byte	0x1ab
 11976 2a2f 02       		.uleb128 0x2
 11977 2a30 981F0000 		.4byte	.LASF573
 11978 2a34 27       		.byte	0x27
 11979 2a35 4F       		.byte	0x4f
 11980 2a36 3A2A0000 		.4byte	0x2a3a
 11981 2a3a 05       		.uleb128 0x5
 11982 2a3b 04       		.byte	0x4
 11983 2a3c 402A0000 		.4byte	0x2a40
 11984 2a40 20       		.uleb128 0x20
 11985 2a41 502A0000 		.4byte	0x2a50
 11986 2a45 18       		.uleb128 0x18
 11987 2a46 502A0000 		.4byte	0x2a50
 11988 2a4a 18       		.uleb128 0x18
 11989 2a4b 242A0000 		.4byte	0x2a24
ARM GAS  C:\Users\Moi\AppData\Local\Temp\ccF5N8ze.s 			page 217


 11990 2a4f 00       		.byte	0
 11991 2a50 05       		.uleb128 0x5
 11992 2a51 04       		.byte	0x4
 11993 2a52 F4290000 		.4byte	0x29f4
 11994 2a56 0C       		.uleb128 0xc
 11995 2a57 08       		.byte	0x8
 11996 2a58 27       		.byte	0x27
 11997 2a59 54       		.byte	0x54
 11998 2a5a 762A0000 		.4byte	0x2a76
 11999 2a5e 0D       		.uleb128 0xd
 12000 2a5f BB080000 		.4byte	.LASF574
 12001 2a63 27       		.byte	0x27
 12002 2a64 58       		.byte	0x58
 12003 2a65 AB010000 		.4byte	0x1ab
 12004 2a69 00       		.byte	0
 12005 2a6a 13       		.uleb128 0x13
 12006 2a6b 636200   		.ascii	"cb\000"
 12007 2a6e 27       		.byte	0x27
 12008 2a6f 5F       		.byte	0x5f
 12009 2a70 2F2A0000 		.4byte	0x2a2f
 12010 2a74 04       		.byte	0x4
 12011 2a75 00       		.byte	0
 12012 2a76 02       		.uleb128 0x2
 12013 2a77 A30E0000 		.4byte	.LASF575
 12014 2a7b 27       		.byte	0x27
 12015 2a7c 60       		.byte	0x60
 12016 2a7d 562A0000 		.4byte	0x2a56
 12017 2a81 0C       		.uleb128 0xc
 12018 2a82 B8       		.byte	0xb8
 12019 2a83 27       		.byte	0x27
 12020 2a84 66       		.byte	0x66
 12021 2a85 962A0000 		.4byte	0x2a96
 12022 2a89 0D       		.uleb128 0xd
 12023 2a8a 7B210000 		.4byte	.LASF576
 12024 2a8e 27       		.byte	0x27
 12025 2a8f 6A       		.byte	0x6a
 12026 2a90 962A0000 		.4byte	0x2a96
 12027 2a94 00       		.byte	0
 12028 2a95 00       		.byte	0
 12029 2a96 0A       		.uleb128 0xa
 12030 2a97 762A0000 		.4byte	0x2a76
 12031 2a9b A62A0000 		.4byte	0x2aa6
 12032 2a9f 0B       		.uleb128 0xb
 12033 2aa0 B1000000 		.4byte	0xb1
 12034 2aa4 16       		.byte	0x16
 12035 2aa5 00       		.byte	0
 12036 2aa6 02       		.uleb128 0x2
 12037 2aa7 B31E0000 		.4byte	.LASF577
 12038 2aab 27       		.byte	0x27
 12039 2aac 6C       		.byte	0x6c
 12040 2aad 812A0000 		.4byte	0x2a81
 12041 2ab1 0F       		.uleb128 0xf
 12042 2ab2 A62A0000 		.4byte	0x2aa6
 12043 2ab6 05       		.uleb128 0x5
 12044 2ab7 04       		.byte	0x4
 12045 2ab8 B12A0000 		.4byte	0x2ab1
 12046 2abc 11       		.uleb128 0x11
ARM GAS  C:\Users\Moi\AppData\Local\Temp\ccF5N8ze.s 			page 218


 12047 2abd 25060000 		.4byte	.LASF578
 12048 2ac1 27       		.byte	0x27
 12049 2ac2 86       		.byte	0x86
 12050 2ac3 F4290000 		.4byte	0x29f4
 12051 2ac7 2A       		.uleb128 0x2a
 12052 2ac8 07       		.byte	0x7
 12053 2ac9 01       		.byte	0x1
 12054 2aca 42000000 		.4byte	0x42
 12055 2ace 28       		.byte	0x28
 12056 2acf 31       		.byte	0x31
 12057 2ad0 F32A0000 		.4byte	0x2af3
 12058 2ad4 2B       		.uleb128 0x2b
 12059 2ad5 44160000 		.4byte	.LASF579
 12060 2ad9 00       		.byte	0
 12061 2ada 2B       		.uleb128 0x2b
 12062 2adb 26140000 		.4byte	.LASF580
 12063 2adf 01       		.byte	0x1
 12064 2ae0 2B       		.uleb128 0x2b
 12065 2ae1 B8180000 		.4byte	.LASF581
 12066 2ae5 02       		.byte	0x2
 12067 2ae6 2B       		.uleb128 0x2b
 12068 2ae7 EE070000 		.4byte	.LASF582
 12069 2aeb 03       		.byte	0x3
 12070 2aec 2B       		.uleb128 0x2b
 12071 2aed 9B040000 		.4byte	.LASF583
 12072 2af1 04       		.byte	0x4
 12073 2af2 00       		.byte	0
 12074 2af3 02       		.uleb128 0x2
 12075 2af4 07130000 		.4byte	.LASF584
 12076 2af8 28       		.byte	0x28
 12077 2af9 37       		.byte	0x37
 12078 2afa C72A0000 		.4byte	0x2ac7
 12079 2afe 02       		.uleb128 0x2
 12080 2aff 45170000 		.4byte	.LASF585
 12081 2b03 28       		.byte	0x28
 12082 2b04 3C       		.byte	0x3c
 12083 2b05 092B0000 		.4byte	0x2b09
 12084 2b09 1C       		.uleb128 0x1c
 12085 2b0a 45170000 		.4byte	.LASF585
 12086 2b0e 10       		.byte	0x10
 12087 2b0f 29       		.byte	0x29
 12088 2b10 9701     		.2byte	0x197
 12089 2b12 4B2B0000 		.4byte	0x2b4b
 12090 2b16 1A       		.uleb128 0x1a
 12091 2b17 A3150000 		.4byte	.LASF495
 12092 2b1b 29       		.byte	0x29
 12093 2b1c 9B01     		.2byte	0x19b
 12094 2b1e F32A0000 		.4byte	0x2af3
 12095 2b22 00       		.byte	0
 12096 2b23 1A       		.uleb128 0x1a
 12097 2b24 A21B0000 		.4byte	.LASF496
 12098 2b28 29       		.byte	0x29
 12099 2b29 9F01     		.2byte	0x19f
 12100 2b2b E02C0000 		.4byte	0x2ce0
 12101 2b2f 04       		.byte	0x4
 12102 2b30 1A       		.uleb128 0x1a
 12103 2b31 F90C0000 		.4byte	.LASF586
ARM GAS  C:\Users\Moi\AppData\Local\Temp\ccF5N8ze.s 			page 219


 12104 2b35 29       		.byte	0x29
 12105 2b36 A701     		.2byte	0x1a7
 12106 2b38 AB010000 		.4byte	0x1ab
 12107 2b3c 08       		.byte	0x8
 12108 2b3d 25       		.uleb128 0x25
 12109 2b3e 74696D00 		.ascii	"tim\000"
 12110 2b42 29       		.byte	0x29
 12111 2b43 AB01     		.2byte	0x1ab
 12112 2b45 E62C0000 		.4byte	0x2ce6
 12113 2b49 0C       		.byte	0xc
 12114 2b4a 00       		.byte	0
 12115 2b4b 02       		.uleb128 0x2
 12116 2b4c 45110000 		.4byte	.LASF587
 12117 2b50 28       		.byte	0x28
 12118 2b51 43       		.byte	0x43
 12119 2b52 562B0000 		.4byte	0x2b56
 12120 2b56 05       		.uleb128 0x5
 12121 2b57 04       		.byte	0x4
 12122 2b58 5C2B0000 		.4byte	0x2b5c
 12123 2b5c 20       		.uleb128 0x20
 12124 2b5d 672B0000 		.4byte	0x2b67
 12125 2b61 18       		.uleb128 0x18
 12126 2b62 672B0000 		.4byte	0x2b67
 12127 2b66 00       		.byte	0
 12128 2b67 05       		.uleb128 0x5
 12129 2b68 04       		.byte	0x4
 12130 2b69 FE2A0000 		.4byte	0x2afe
 12131 2b6d 1D       		.uleb128 0x1d
 12132 2b6e 60       		.byte	0x60
 12133 2b6f 2A       		.byte	0x2a
 12134 2b70 9E01     		.2byte	0x19e
 12135 2b72 792C0000 		.4byte	0x2c79
 12136 2b76 25       		.uleb128 0x25
 12137 2b77 43523100 		.ascii	"CR1\000"
 12138 2b7b 2A       		.byte	0x2a
 12139 2b7c 9F01     		.2byte	0x19f
 12140 2b7e B6010000 		.4byte	0x1b6
 12141 2b82 00       		.byte	0
 12142 2b83 25       		.uleb128 0x25
 12143 2b84 43523200 		.ascii	"CR2\000"
 12144 2b88 2A       		.byte	0x2a
 12145 2b89 A001     		.2byte	0x1a0
 12146 2b8b B6010000 		.4byte	0x1b6
 12147 2b8f 04       		.byte	0x4
 12148 2b90 1A       		.uleb128 0x1a
 12149 2b91 B3200000 		.4byte	.LASF588
 12150 2b95 2A       		.byte	0x2a
 12151 2b96 A101     		.2byte	0x1a1
 12152 2b98 B6010000 		.4byte	0x1b6
 12153 2b9c 08       		.byte	0x8
 12154 2b9d 1A       		.uleb128 0x1a
 12155 2b9e 750A0000 		.4byte	.LASF589
 12156 2ba2 2A       		.byte	0x2a
 12157 2ba3 A201     		.2byte	0x1a2
 12158 2ba5 B6010000 		.4byte	0x1b6
 12159 2ba9 0C       		.byte	0xc
 12160 2baa 25       		.uleb128 0x25
ARM GAS  C:\Users\Moi\AppData\Local\Temp\ccF5N8ze.s 			page 220


 12161 2bab 535200   		.ascii	"SR\000"
 12162 2bae 2A       		.byte	0x2a
 12163 2baf A301     		.2byte	0x1a3
 12164 2bb1 B6010000 		.4byte	0x1b6
 12165 2bb5 10       		.byte	0x10
 12166 2bb6 25       		.uleb128 0x25
 12167 2bb7 45475200 		.ascii	"EGR\000"
 12168 2bbb 2A       		.byte	0x2a
 12169 2bbc A401     		.2byte	0x1a4
 12170 2bbe B6010000 		.4byte	0x1b6
 12171 2bc2 14       		.byte	0x14
 12172 2bc3 1A       		.uleb128 0x1a
 12173 2bc4 B7240000 		.4byte	.LASF590
 12174 2bc8 2A       		.byte	0x2a
 12175 2bc9 A501     		.2byte	0x1a5
 12176 2bcb B6010000 		.4byte	0x1b6
 12177 2bcf 18       		.byte	0x18
 12178 2bd0 1A       		.uleb128 0x1a
 12179 2bd1 BD240000 		.4byte	.LASF591
 12180 2bd5 2A       		.byte	0x2a
 12181 2bd6 A601     		.2byte	0x1a6
 12182 2bd8 B6010000 		.4byte	0x1b6
 12183 2bdc 1C       		.byte	0x1c
 12184 2bdd 1A       		.uleb128 0x1a
 12185 2bde 76070000 		.4byte	.LASF592
 12186 2be2 2A       		.byte	0x2a
 12187 2be3 A701     		.2byte	0x1a7
 12188 2be5 B6010000 		.4byte	0x1b6
 12189 2be9 20       		.byte	0x20
 12190 2bea 25       		.uleb128 0x25
 12191 2beb 434E5400 		.ascii	"CNT\000"
 12192 2bef 2A       		.byte	0x2a
 12193 2bf0 A801     		.2byte	0x1a8
 12194 2bf2 B6010000 		.4byte	0x1b6
 12195 2bf6 24       		.byte	0x24
 12196 2bf7 25       		.uleb128 0x25
 12197 2bf8 50534300 		.ascii	"PSC\000"
 12198 2bfc 2A       		.byte	0x2a
 12199 2bfd A901     		.2byte	0x1a9
 12200 2bff B6010000 		.4byte	0x1b6
 12201 2c03 28       		.byte	0x28
 12202 2c04 25       		.uleb128 0x25
 12203 2c05 41525200 		.ascii	"ARR\000"
 12204 2c09 2A       		.byte	0x2a
 12205 2c0a AA01     		.2byte	0x1aa
 12206 2c0c B6010000 		.4byte	0x1b6
 12207 2c10 2C       		.byte	0x2c
 12208 2c11 25       		.uleb128 0x25
 12209 2c12 52435200 		.ascii	"RCR\000"
 12210 2c16 2A       		.byte	0x2a
 12211 2c17 AB01     		.2byte	0x1ab
 12212 2c19 B6010000 		.4byte	0x1b6
 12213 2c1d 30       		.byte	0x30
 12214 2c1e 25       		.uleb128 0x25
 12215 2c1f 43435200 		.ascii	"CCR\000"
 12216 2c23 2A       		.byte	0x2a
 12217 2c24 AC01     		.2byte	0x1ac
ARM GAS  C:\Users\Moi\AppData\Local\Temp\ccF5N8ze.s 			page 221


 12218 2c26 5C160000 		.4byte	0x165c
 12219 2c2a 34       		.byte	0x34
 12220 2c2b 1A       		.uleb128 0x1a
 12221 2c2c 1B020000 		.4byte	.LASF593
 12222 2c30 2A       		.byte	0x2a
 12223 2c31 AD01     		.2byte	0x1ad
 12224 2c33 B6010000 		.4byte	0x1b6
 12225 2c37 44       		.byte	0x44
 12226 2c38 25       		.uleb128 0x25
 12227 2c39 44435200 		.ascii	"DCR\000"
 12228 2c3d 2A       		.byte	0x2a
 12229 2c3e AE01     		.2byte	0x1ae
 12230 2c40 B6010000 		.4byte	0x1b6
 12231 2c44 48       		.byte	0x48
 12232 2c45 1A       		.uleb128 0x1a
 12233 2c46 F2150000 		.4byte	.LASF594
 12234 2c4a 2A       		.byte	0x2a
 12235 2c4b AF01     		.2byte	0x1af
 12236 2c4d B6010000 		.4byte	0x1b6
 12237 2c51 4C       		.byte	0x4c
 12238 2c52 25       		.uleb128 0x25
 12239 2c53 4F5200   		.ascii	"OR\000"
 12240 2c56 2A       		.byte	0x2a
 12241 2c57 B001     		.2byte	0x1b0
 12242 2c59 B6010000 		.4byte	0x1b6
 12243 2c5d 50       		.byte	0x50
 12244 2c5e 1A       		.uleb128 0x1a
 12245 2c5f C3240000 		.4byte	.LASF595
 12246 2c63 2A       		.byte	0x2a
 12247 2c64 B101     		.2byte	0x1b1
 12248 2c66 B6010000 		.4byte	0x1b6
 12249 2c6a 54       		.byte	0x54
 12250 2c6b 1A       		.uleb128 0x1a
 12251 2c6c 050D0000 		.4byte	.LASF596
 12252 2c70 2A       		.byte	0x2a
 12253 2c71 B201     		.2byte	0x1b2
 12254 2c73 47160000 		.4byte	0x1647
 12255 2c77 58       		.byte	0x58
 12256 2c78 00       		.byte	0
 12257 2c79 07       		.uleb128 0x7
 12258 2c7a FD1F0000 		.4byte	.LASF597
 12259 2c7e 2A       		.byte	0x2a
 12260 2c7f B301     		.2byte	0x1b3
 12261 2c81 6D2B0000 		.4byte	0x2b6d
 12262 2c85 07       		.uleb128 0x7
 12263 2c86 12090000 		.4byte	.LASF598
 12264 2c8a 29       		.byte	0x29
 12265 2c8b 6D01     		.2byte	0x16d
 12266 2c8d AB010000 		.4byte	0x1ab
 12267 2c91 1D       		.uleb128 0x1d
 12268 2c92 10       		.byte	0x10
 12269 2c93 29       		.byte	0x29
 12270 2c94 7801     		.2byte	0x178
 12271 2c96 CF2C0000 		.4byte	0x2ccf
 12272 2c9a 1A       		.uleb128 0x1a
 12273 2c9b 4F240000 		.4byte	.LASF599
 12274 2c9f 29       		.byte	0x29
ARM GAS  C:\Users\Moi\AppData\Local\Temp\ccF5N8ze.s 			page 222


 12275 2ca0 7E01     		.2byte	0x17e
 12276 2ca2 852C0000 		.4byte	0x2c85
 12277 2ca6 00       		.byte	0
 12278 2ca7 1A       		.uleb128 0x1a
 12279 2ca8 F7150000 		.4byte	.LASF600
 12280 2cac 29       		.byte	0x29
 12281 2cad 8501     		.2byte	0x185
 12282 2caf 4B2B0000 		.4byte	0x2b4b
 12283 2cb3 04       		.byte	0x4
 12284 2cb4 25       		.uleb128 0x25
 12285 2cb5 63723200 		.ascii	"cr2\000"
 12286 2cb9 29       		.byte	0x29
 12287 2cba 8B01     		.2byte	0x18b
 12288 2cbc AB010000 		.4byte	0x1ab
 12289 2cc0 08       		.byte	0x8
 12290 2cc1 1A       		.uleb128 0x1a
 12291 2cc2 690C0000 		.4byte	.LASF601
 12292 2cc6 29       		.byte	0x29
 12293 2cc7 9101     		.2byte	0x191
 12294 2cc9 AB010000 		.4byte	0x1ab
 12295 2ccd 0C       		.byte	0xc
 12296 2cce 00       		.byte	0
 12297 2ccf 07       		.uleb128 0x7
 12298 2cd0 B4060000 		.4byte	.LASF602
 12299 2cd4 29       		.byte	0x29
 12300 2cd5 9201     		.2byte	0x192
 12301 2cd7 912C0000 		.4byte	0x2c91
 12302 2cdb 0F       		.uleb128 0xf
 12303 2cdc CF2C0000 		.4byte	0x2ccf
 12304 2ce0 05       		.uleb128 0x5
 12305 2ce1 04       		.byte	0x4
 12306 2ce2 DB2C0000 		.4byte	0x2cdb
 12307 2ce6 05       		.uleb128 0x5
 12308 2ce7 04       		.byte	0x4
 12309 2ce8 792C0000 		.4byte	0x2c79
 12310 2cec 21       		.uleb128 0x21
 12311 2ced BF230000 		.4byte	.LASF603
 12312 2cf1 29       		.byte	0x29
 12313 2cf2 F201     		.2byte	0x1f2
 12314 2cf4 FE2A0000 		.4byte	0x2afe
 12315 2cf8 21       		.uleb128 0x21
 12316 2cf9 A91B0000 		.4byte	.LASF604
 12317 2cfd 29       		.byte	0x29
 12318 2cfe 0202     		.2byte	0x202
 12319 2d00 FE2A0000 		.4byte	0x2afe
 12320 2d04 2A       		.uleb128 0x2a
 12321 2d05 07       		.byte	0x7
 12322 2d06 01       		.byte	0x1
 12323 2d07 42000000 		.4byte	0x42
 12324 2d0b 2B       		.byte	0x2b
 12325 2d0c 4C       		.byte	0x4c
 12326 2d0d 362D0000 		.4byte	0x2d36
 12327 2d11 2B       		.uleb128 0x2b
 12328 2d12 8C060000 		.4byte	.LASF605
 12329 2d16 00       		.byte	0
 12330 2d17 2B       		.uleb128 0x2b
 12331 2d18 5C0E0000 		.4byte	.LASF606
ARM GAS  C:\Users\Moi\AppData\Local\Temp\ccF5N8ze.s 			page 223


 12332 2d1c 01       		.byte	0x1
 12333 2d1d 2B       		.uleb128 0x2b
 12334 2d1e 58070000 		.4byte	.LASF607
 12335 2d22 02       		.byte	0x2
 12336 2d23 2B       		.uleb128 0x2b
 12337 2d24 CA040000 		.4byte	.LASF608
 12338 2d28 03       		.byte	0x3
 12339 2d29 2B       		.uleb128 0x2b
 12340 2d2a 9E030000 		.4byte	.LASF609
 12341 2d2e 04       		.byte	0x4
 12342 2d2f 2B       		.uleb128 0x2b
 12343 2d30 D1120000 		.4byte	.LASF610
 12344 2d34 05       		.byte	0x5
 12345 2d35 00       		.byte	0
 12346 2d36 02       		.uleb128 0x2
 12347 2d37 02110000 		.4byte	.LASF611
 12348 2d3b 2B       		.byte	0x2b
 12349 2d3c 53       		.byte	0x53
 12350 2d3d 042D0000 		.4byte	0x2d04
 12351 2d41 07       		.uleb128 0x7
 12352 2d42 22170000 		.4byte	.LASF612
 12353 2d46 2C       		.byte	0x2c
 12354 2d47 6A01     		.2byte	0x16a
 12355 2d49 90010000 		.4byte	0x190
 12356 2d4d 07       		.uleb128 0x7
 12357 2d4e 3C040000 		.4byte	.LASF613
 12358 2d52 2C       		.byte	0x2c
 12359 2d53 6F01     		.2byte	0x16f
 12360 2d55 AB010000 		.4byte	0x1ab
 12361 2d59 2C       		.uleb128 0x2c
 12362 2d5a 07       		.byte	0x7
 12363 2d5b 01       		.byte	0x1
 12364 2d5c 42000000 		.4byte	0x42
 12365 2d60 2C       		.byte	0x2c
 12366 2d61 7401     		.2byte	0x174
 12367 2d63 7A2D0000 		.4byte	0x2d7a
 12368 2d67 2B       		.uleb128 0x2b
 12369 2d68 DD040000 		.4byte	.LASF614
 12370 2d6c 01       		.byte	0x1
 12371 2d6d 2B       		.uleb128 0x2b
 12372 2d6e 8C000000 		.4byte	.LASF615
 12373 2d72 02       		.byte	0x2
 12374 2d73 2B       		.uleb128 0x2b
 12375 2d74 E4090000 		.4byte	.LASF616
 12376 2d78 03       		.byte	0x3
 12377 2d79 00       		.byte	0
 12378 2d7a 07       		.uleb128 0x7
 12379 2d7b 15250000 		.4byte	.LASF617
 12380 2d7f 2C       		.byte	0x2c
 12381 2d80 7801     		.2byte	0x178
 12382 2d82 592D0000 		.4byte	0x2d59
 12383 2d86 2C       		.uleb128 0x2c
 12384 2d87 07       		.byte	0x7
 12385 2d88 01       		.byte	0x1
 12386 2d89 42000000 		.4byte	0x42
 12387 2d8d 2C       		.byte	0x2c
 12388 2d8e 7D01     		.2byte	0x17d
ARM GAS  C:\Users\Moi\AppData\Local\Temp\ccF5N8ze.s 			page 224


 12389 2d90 A72D0000 		.4byte	0x2da7
 12390 2d94 2B       		.uleb128 0x2b
 12391 2d95 F9050000 		.4byte	.LASF618
 12392 2d99 01       		.byte	0x1
 12393 2d9a 2B       		.uleb128 0x2b
 12394 2d9b 8C240000 		.4byte	.LASF619
 12395 2d9f 02       		.byte	0x2
 12396 2da0 2B       		.uleb128 0x2b
 12397 2da1 D90A0000 		.4byte	.LASF620
 12398 2da5 03       		.byte	0x3
 12399 2da6 00       		.byte	0
 12400 2da7 07       		.uleb128 0x7
 12401 2da8 07070000 		.4byte	.LASF621
 12402 2dac 2C       		.byte	0x2c
 12403 2dad 8101     		.2byte	0x181
 12404 2daf 862D0000 		.4byte	0x2d86
 12405 2db3 1D       		.uleb128 0x1d
 12406 2db4 0C       		.byte	0xc
 12407 2db5 2C       		.byte	0x2c
 12408 2db6 8601     		.2byte	0x186
 12409 2db8 E42D0000 		.4byte	0x2de4
 12410 2dbc 1A       		.uleb128 0x1a
 12411 2dbd 56140000 		.4byte	.LASF622
 12412 2dc1 2C       		.byte	0x2c
 12413 2dc2 8801     		.2byte	0x188
 12414 2dc4 7A2D0000 		.4byte	0x2d7a
 12415 2dc8 00       		.byte	0
 12416 2dc9 1A       		.uleb128 0x1a
 12417 2dca 04040000 		.4byte	.LASF623
 12418 2dce 2C       		.byte	0x2c
 12419 2dcf 8901     		.2byte	0x189
 12420 2dd1 AB010000 		.4byte	0x1ab
 12421 2dd5 04       		.byte	0x4
 12422 2dd6 1A       		.uleb128 0x1a
 12423 2dd7 A1250000 		.4byte	.LASF624
 12424 2ddb 2C       		.byte	0x2c
 12425 2ddc 8C01     		.2byte	0x18c
 12426 2dde A72D0000 		.4byte	0x2da7
 12427 2de2 08       		.byte	0x8
 12428 2de3 00       		.byte	0
 12429 2de4 07       		.uleb128 0x7
 12430 2de5 31020000 		.4byte	.LASF625
 12431 2de9 2C       		.byte	0x2c
 12432 2dea 8E01     		.2byte	0x18e
 12433 2dec B32D0000 		.4byte	0x2db3
 12434 2df0 0F       		.uleb128 0xf
 12435 2df1 E42D0000 		.4byte	0x2de4
 12436 2df5 07       		.uleb128 0x7
 12437 2df6 C0040000 		.4byte	.LASF626
 12438 2dfa 2C       		.byte	0x2c
 12439 2dfb 9301     		.2byte	0x193
 12440 2dfd 012E0000 		.4byte	0x2e01
 12441 2e01 1C       		.uleb128 0x1c
 12442 2e02 C0040000 		.4byte	.LASF626
 12443 2e06 3C       		.byte	0x3c
 12444 2e07 2C       		.byte	0x2c
 12445 2e08 9801     		.2byte	0x198
ARM GAS  C:\Users\Moi\AppData\Local\Temp\ccF5N8ze.s 			page 225


 12446 2e0a 9E2E0000 		.4byte	0x2e9e
 12447 2e0e 1A       		.uleb128 0x1a
 12448 2e0f A3150000 		.4byte	.LASF495
 12449 2e13 2C       		.byte	0x2c
 12450 2e14 9C01     		.2byte	0x19c
 12451 2e16 362D0000 		.4byte	0x2d36
 12452 2e1a 00       		.byte	0
 12453 2e1b 1A       		.uleb128 0x1a
 12454 2e1c A21B0000 		.4byte	.LASF496
 12455 2e20 2C       		.byte	0x2c
 12456 2e21 A001     		.2byte	0x1a0
 12457 2e23 9E2E0000 		.4byte	0x2e9e
 12458 2e27 04       		.byte	0x4
 12459 2e28 1A       		.uleb128 0x1a
 12460 2e29 8B010000 		.4byte	.LASF627
 12461 2e2d 2C       		.byte	0x2c
 12462 2e2e A401     		.2byte	0x1a4
 12463 2e30 4D2D0000 		.4byte	0x2d4d
 12464 2e34 08       		.byte	0x8
 12465 2e35 1A       		.uleb128 0x1a
 12466 2e36 D00C0000 		.4byte	.LASF501
 12467 2e3a 2C       		.byte	0x2c
 12468 2e3b A901     		.2byte	0x1a9
 12469 2e3d EE1D0000 		.4byte	0x1dee
 12470 2e41 0C       		.byte	0xc
 12471 2e42 1A       		.uleb128 0x1a
 12472 2e43 26070000 		.4byte	.LASF500
 12473 2e47 2C       		.byte	0x2c
 12474 2e48 B201     		.2byte	0x1b2
 12475 2e4a 900E0000 		.4byte	0xe90
 12476 2e4e 20       		.byte	0x20
 12477 2e4f 1A       		.uleb128 0x1a
 12478 2e50 650E0000 		.4byte	.LASF628
 12479 2e54 2C       		.byte	0x2c
 12480 2e55 B601     		.2byte	0x1b6
 12481 2e57 412D0000 		.4byte	0x2d41
 12482 2e5b 24       		.byte	0x24
 12483 2e5c 1A       		.uleb128 0x1a
 12484 2e5d A7080000 		.4byte	.LASF629
 12485 2e61 2C       		.byte	0x2c
 12486 2e62 BA01     		.2byte	0x1ba
 12487 2e64 AB010000 		.4byte	0x1ab
 12488 2e68 28       		.byte	0x28
 12489 2e69 1A       		.uleb128 0x1a
 12490 2e6a 00090000 		.4byte	.LASF630
 12491 2e6e 2C       		.byte	0x2c
 12492 2e6f BE01     		.2byte	0x1be
 12493 2e71 AB010000 		.4byte	0x1ab
 12494 2e75 2C       		.byte	0x2c
 12495 2e76 1A       		.uleb128 0x1a
 12496 2e77 38010000 		.4byte	.LASF631
 12497 2e7b 2C       		.byte	0x2c
 12498 2e7c C201     		.2byte	0x1c2
 12499 2e7e E0250000 		.4byte	0x25e0
 12500 2e82 30       		.byte	0x30
 12501 2e83 1A       		.uleb128 0x1a
 12502 2e84 44020000 		.4byte	.LASF632
ARM GAS  C:\Users\Moi\AppData\Local\Temp\ccF5N8ze.s 			page 226


 12503 2e88 2C       		.byte	0x2c
 12504 2e89 C601     		.2byte	0x1c6
 12505 2e8b E0250000 		.4byte	0x25e0
 12506 2e8f 34       		.byte	0x34
 12507 2e90 25       		.uleb128 0x25
 12508 2e91 69326300 		.ascii	"i2c\000"
 12509 2e95 2C       		.byte	0x2c
 12510 2e96 CA01     		.2byte	0x1ca
 12511 2e98 A42E0000 		.4byte	0x2ea4
 12512 2e9c 38       		.byte	0x38
 12513 2e9d 00       		.byte	0
 12514 2e9e 05       		.uleb128 0x5
 12515 2e9f 04       		.byte	0x4
 12516 2ea0 F02D0000 		.4byte	0x2df0
 12517 2ea4 05       		.uleb128 0x5
 12518 2ea5 04       		.byte	0x4
 12519 2ea6 EC160000 		.4byte	0x16ec
 12520 2eaa 21       		.uleb128 0x21
 12521 2eab 63110000 		.4byte	.LASF633
 12522 2eaf 2C       		.byte	0x2c
 12523 2eb0 E001     		.2byte	0x1e0
 12524 2eb2 F52D0000 		.4byte	0x2df5
 12525 2eb6 2A       		.uleb128 0x2a
 12526 2eb7 07       		.byte	0x7
 12527 2eb8 01       		.byte	0x1
 12528 2eb9 42000000 		.4byte	0x42
 12529 2ebd 2D       		.byte	0x2d
 12530 2ebe 39       		.byte	0x39
 12531 2ebf E22E0000 		.4byte	0x2ee2
 12532 2ec3 2B       		.uleb128 0x2b
 12533 2ec4 140A0000 		.4byte	.LASF634
 12534 2ec8 00       		.byte	0
 12535 2ec9 2B       		.uleb128 0x2b
 12536 2eca AF0C0000 		.4byte	.LASF635
 12537 2ece 01       		.byte	0x1
 12538 2ecf 2B       		.uleb128 0x2b
 12539 2ed0 8C140000 		.4byte	.LASF636
 12540 2ed4 02       		.byte	0x2
 12541 2ed5 2B       		.uleb128 0x2b
 12542 2ed6 AD180000 		.4byte	.LASF637
 12543 2eda 03       		.byte	0x3
 12544 2edb 2B       		.uleb128 0x2b
 12545 2edc 241F0000 		.4byte	.LASF638
 12546 2ee0 04       		.byte	0x4
 12547 2ee1 00       		.byte	0
 12548 2ee2 02       		.uleb128 0x2
 12549 2ee3 27220000 		.4byte	.LASF639
 12550 2ee7 2D       		.byte	0x2d
 12551 2ee8 3F       		.byte	0x3f
 12552 2ee9 B62E0000 		.4byte	0x2eb6
 12553 2eed 02       		.uleb128 0x2
 12554 2eee 97250000 		.4byte	.LASF640
 12555 2ef2 2E       		.byte	0x2e
 12556 2ef3 E2       		.byte	0xe2
 12557 2ef4 F82E0000 		.4byte	0x2ef8
 12558 2ef8 1C       		.uleb128 0x1c
 12559 2ef9 97250000 		.4byte	.LASF640
ARM GAS  C:\Users\Moi\AppData\Local\Temp\ccF5N8ze.s 			page 227


 12560 2efd 20       		.byte	0x20
 12561 2efe 2E       		.byte	0x2e
 12562 2eff 1B01     		.2byte	0x11b
 12563 2f01 6E2F0000 		.4byte	0x2f6e
 12564 2f05 1A       		.uleb128 0x1a
 12565 2f06 A3150000 		.4byte	.LASF495
 12566 2f0a 2E       		.byte	0x2e
 12567 2f0b 1F01     		.2byte	0x11f
 12568 2f0d E22E0000 		.4byte	0x2ee2
 12569 2f11 00       		.byte	0
 12570 2f12 1A       		.uleb128 0x1a
 12571 2f13 A21B0000 		.4byte	.LASF496
 12572 2f17 2E       		.byte	0x2e
 12573 2f18 2301     		.2byte	0x123
 12574 2f1a FF2F0000 		.4byte	0x2fff
 12575 2f1e 04       		.byte	0x4
 12576 2f1f 25       		.uleb128 0x25
 12577 2f20 73706900 		.ascii	"spi\000"
 12578 2f24 2E       		.byte	0x2e
 12579 2f25 2801     		.2byte	0x128
 12580 2f27 05300000 		.4byte	0x3005
 12581 2f2b 08       		.byte	0x8
 12582 2f2c 25       		.uleb128 0x25
 12583 2f2d 63666700 		.ascii	"cfg\000"
 12584 2f31 2E       		.byte	0x2e
 12585 2f32 2C01     		.2byte	0x12c
 12586 2f34 90010000 		.4byte	0x190
 12587 2f38 0C       		.byte	0xc
 12588 2f39 1A       		.uleb128 0x1a
 12589 2f3a 38010000 		.4byte	.LASF631
 12590 2f3e 2E       		.byte	0x2e
 12591 2f3f 3001     		.2byte	0x130
 12592 2f41 E0250000 		.4byte	0x25e0
 12593 2f45 10       		.byte	0x10
 12594 2f46 1A       		.uleb128 0x1a
 12595 2f47 44020000 		.4byte	.LASF632
 12596 2f4b 2E       		.byte	0x2e
 12597 2f4c 3401     		.2byte	0x134
 12598 2f4e E0250000 		.4byte	0x25e0
 12599 2f52 14       		.byte	0x14
 12600 2f53 1A       		.uleb128 0x1a
 12601 2f54 A7080000 		.4byte	.LASF629
 12602 2f58 2E       		.byte	0x2e
 12603 2f59 3801     		.2byte	0x138
 12604 2f5b AB010000 		.4byte	0x1ab
 12605 2f5f 18       		.byte	0x18
 12606 2f60 1A       		.uleb128 0x1a
 12607 2f61 00090000 		.4byte	.LASF630
 12608 2f65 2E       		.byte	0x2e
 12609 2f66 3C01     		.2byte	0x13c
 12610 2f68 AB010000 		.4byte	0x1ab
 12611 2f6c 1C       		.byte	0x1c
 12612 2f6d 00       		.byte	0
 12613 2f6e 02       		.uleb128 0x2
 12614 2f6f EC080000 		.4byte	.LASF641
 12615 2f73 2E       		.byte	0x2e
 12616 2f74 EB       		.byte	0xeb
ARM GAS  C:\Users\Moi\AppData\Local\Temp\ccF5N8ze.s 			page 228


 12617 2f75 792F0000 		.4byte	0x2f79
 12618 2f79 05       		.uleb128 0x5
 12619 2f7a 04       		.byte	0x4
 12620 2f7b 7F2F0000 		.4byte	0x2f7f
 12621 2f7f 20       		.uleb128 0x20
 12622 2f80 942F0000 		.4byte	0x2f94
 12623 2f84 18       		.uleb128 0x18
 12624 2f85 942F0000 		.4byte	0x2f94
 12625 2f89 18       		.uleb128 0x18
 12626 2f8a B8000000 		.4byte	0xb8
 12627 2f8e 18       		.uleb128 0x18
 12628 2f8f B8000000 		.4byte	0xb8
 12629 2f93 00       		.byte	0
 12630 2f94 05       		.uleb128 0x5
 12631 2f95 04       		.byte	0x4
 12632 2f96 ED2E0000 		.4byte	0x2eed
 12633 2f9a 0C       		.uleb128 0xc
 12634 2f9b 14       		.byte	0x14
 12635 2f9c 2E       		.byte	0x2e
 12636 2f9d F1       		.byte	0xf1
 12637 2f9e EE2F0000 		.4byte	0x2fee
 12638 2fa2 0D       		.uleb128 0xd
 12639 2fa3 BF010000 		.4byte	.LASF642
 12640 2fa7 2E       		.byte	0x2e
 12641 2fa8 F6       		.byte	0xf6
 12642 2fa9 EF0A0000 		.4byte	0xaef
 12643 2fad 00       		.byte	0
 12644 2fae 0D       		.uleb128 0xd
 12645 2faf 81010000 		.4byte	.LASF643
 12646 2fb3 2E       		.byte	0x2e
 12647 2fb4 FB       		.byte	0xfb
 12648 2fb5 68010000 		.4byte	0x168
 12649 2fb9 04       		.byte	0x4
 12650 2fba 0D       		.uleb128 0xd
 12651 2fbb D60C0000 		.4byte	.LASF644
 12652 2fbf 2E       		.byte	0x2e
 12653 2fc0 FF       		.byte	0xff
 12654 2fc1 B8000000 		.4byte	0xb8
 12655 2fc5 08       		.byte	0x8
 12656 2fc6 1A       		.uleb128 0x1a
 12657 2fc7 8A090000 		.4byte	.LASF508
 12658 2fcb 2E       		.byte	0x2e
 12659 2fcc 0301     		.2byte	0x103
 12660 2fce 6E2F0000 		.4byte	0x2f6e
 12661 2fd2 0C       		.byte	0xc
 12662 2fd3 1A       		.uleb128 0x1a
 12663 2fd4 06190000 		.4byte	.LASF645
 12664 2fd8 2E       		.byte	0x2e
 12665 2fd9 0F01     		.2byte	0x10f
 12666 2fdb 85010000 		.4byte	0x185
 12667 2fdf 10       		.byte	0x10
 12668 2fe0 1A       		.uleb128 0x1a
 12669 2fe1 EA060000 		.4byte	.LASF646
 12670 2fe5 2E       		.byte	0x2e
 12671 2fe6 1501     		.2byte	0x115
 12672 2fe8 85010000 		.4byte	0x185
 12673 2fec 12       		.byte	0x12
ARM GAS  C:\Users\Moi\AppData\Local\Temp\ccF5N8ze.s 			page 229


 12674 2fed 00       		.byte	0
 12675 2fee 07       		.uleb128 0x7
 12676 2fef AC250000 		.4byte	.LASF647
 12677 2ff3 2E       		.byte	0x2e
 12678 2ff4 1601     		.2byte	0x116
 12679 2ff6 9A2F0000 		.4byte	0x2f9a
 12680 2ffa 0F       		.uleb128 0xf
 12681 2ffb EE2F0000 		.4byte	0x2fee
 12682 2fff 05       		.uleb128 0x5
 12683 3000 04       		.byte	0x4
 12684 3001 FA2F0000 		.4byte	0x2ffa
 12685 3005 05       		.uleb128 0x5
 12686 3006 04       		.byte	0x4
 12687 3007 9F180000 		.4byte	0x189f
 12688 300b 21       		.uleb128 0x21
 12689 300c F2100000 		.4byte	.LASF648
 12690 3010 2E       		.byte	0x2e
 12691 3011 4801     		.2byte	0x148
 12692 3013 ED2E0000 		.4byte	0x2eed
 12693 3017 2A       		.uleb128 0x2a
 12694 3018 07       		.byte	0x7
 12695 3019 01       		.byte	0x1
 12696 301a 42000000 		.4byte	0x42
 12697 301e 2F       		.byte	0x2f
 12698 301f 4A       		.byte	0x4a
 12699 3020 37300000 		.4byte	0x3037
 12700 3024 2B       		.uleb128 0x2b
 12701 3025 81070000 		.4byte	.LASF649
 12702 3029 00       		.byte	0
 12703 302a 2B       		.uleb128 0x2b
 12704 302b B80C0000 		.4byte	.LASF650
 12705 302f 01       		.byte	0x1
 12706 3030 2B       		.uleb128 0x2b
 12707 3031 22100000 		.4byte	.LASF651
 12708 3035 02       		.byte	0x2
 12709 3036 00       		.byte	0
 12710 3037 02       		.uleb128 0x2
 12711 3038 BF030000 		.4byte	.LASF652
 12712 303c 2F       		.byte	0x2f
 12713 303d 4E       		.byte	0x4e
 12714 303e 17300000 		.4byte	0x3017
 12715 3042 02       		.uleb128 0x2
 12716 3043 DE0B0000 		.4byte	.LASF653
 12717 3047 2F       		.byte	0x2f
 12718 3048 53       		.byte	0x53
 12719 3049 4D300000 		.4byte	0x304d
 12720 304d 1C       		.uleb128 0x1c
 12721 304e DE0B0000 		.4byte	.LASF653
 12722 3052 1C       		.byte	0x1c
 12723 3053 30       		.byte	0x30
 12724 3054 7901     		.2byte	0x179
 12725 3056 B6300000 		.4byte	0x30b6
 12726 305a 1A       		.uleb128 0x1a
 12727 305b A3150000 		.4byte	.LASF495
 12728 305f 30       		.byte	0x30
 12729 3060 7D01     		.2byte	0x17d
 12730 3062 37300000 		.4byte	0x3037
ARM GAS  C:\Users\Moi\AppData\Local\Temp\ccF5N8ze.s 			page 230


 12731 3066 00       		.byte	0
 12732 3067 1A       		.uleb128 0x1a
 12733 3068 A21B0000 		.4byte	.LASF496
 12734 306c 30       		.byte	0x30
 12735 306d 8101     		.2byte	0x181
 12736 306f B1310000 		.4byte	0x31b1
 12737 3073 04       		.byte	0x4
 12738 3074 1A       		.uleb128 0x1a
 12739 3075 C2120000 		.4byte	.LASF654
 12740 3079 30       		.byte	0x30
 12741 307a 8501     		.2byte	0x185
 12742 307c FC300000 		.4byte	0x30fc
 12743 3080 08       		.byte	0x8
 12744 3081 1A       		.uleb128 0x1a
 12745 3082 7A190000 		.4byte	.LASF655
 12746 3086 30       		.byte	0x30
 12747 3087 8901     		.2byte	0x189
 12748 3089 F0300000 		.4byte	0x30f0
 12749 308d 0C       		.byte	0xc
 12750 308e 1A       		.uleb128 0x1a
 12751 308f 7B210000 		.4byte	.LASF576
 12752 3093 30       		.byte	0x30
 12753 3094 8D01     		.2byte	0x18d
 12754 3096 E4300000 		.4byte	0x30e4
 12755 309a 10       		.byte	0x10
 12756 309b 1A       		.uleb128 0x1a
 12757 309c F90C0000 		.4byte	.LASF586
 12758 30a0 30       		.byte	0x30
 12759 30a1 9501     		.2byte	0x195
 12760 30a3 AB010000 		.4byte	0x1ab
 12761 30a7 14       		.byte	0x14
 12762 30a8 25       		.uleb128 0x25
 12763 30a9 74696D00 		.ascii	"tim\000"
 12764 30ad 30       		.byte	0x30
 12765 30ae 9901     		.2byte	0x199
 12766 30b0 E62C0000 		.4byte	0x2ce6
 12767 30b4 18       		.byte	0x18
 12768 30b5 00       		.byte	0
 12769 30b6 02       		.uleb128 0x2
 12770 30b7 BD100000 		.4byte	.LASF656
 12771 30bb 2F       		.byte	0x2f
 12772 30bc 5A       		.byte	0x5a
 12773 30bd C1300000 		.4byte	0x30c1
 12774 30c1 05       		.uleb128 0x5
 12775 30c2 04       		.byte	0x4
 12776 30c3 C7300000 		.4byte	0x30c7
 12777 30c7 20       		.uleb128 0x20
 12778 30c8 D2300000 		.4byte	0x30d2
 12779 30cc 18       		.uleb128 0x18
 12780 30cd D2300000 		.4byte	0x30d2
 12781 30d1 00       		.byte	0
 12782 30d2 05       		.uleb128 0x5
 12783 30d3 04       		.byte	0x4
 12784 30d4 42300000 		.4byte	0x3042
 12785 30d8 07       		.uleb128 0x7
 12786 30d9 DF140000 		.4byte	.LASF657
 12787 30dd 30       		.byte	0x30
ARM GAS  C:\Users\Moi\AppData\Local\Temp\ccF5N8ze.s 			page 231


 12788 30de 2501     		.2byte	0x125
 12789 30e0 AB010000 		.4byte	0x1ab
 12790 30e4 07       		.uleb128 0x7
 12791 30e5 EE160000 		.4byte	.LASF658
 12792 30e9 30       		.byte	0x30
 12793 30ea 2A01     		.2byte	0x12a
 12794 30ec 75010000 		.4byte	0x175
 12795 30f0 07       		.uleb128 0x7
 12796 30f1 76140000 		.4byte	.LASF659
 12797 30f5 30       		.byte	0x30
 12798 30f6 2F01     		.2byte	0x12f
 12799 30f8 AB010000 		.4byte	0x1ab
 12800 30fc 07       		.uleb128 0x7
 12801 30fd CE0D0000 		.4byte	.LASF660
 12802 3101 30       		.byte	0x30
 12803 3102 3401     		.2byte	0x134
 12804 3104 AB010000 		.4byte	0x1ab
 12805 3108 1D       		.uleb128 0x1d
 12806 3109 08       		.byte	0x8
 12807 310a 30       		.byte	0x30
 12808 310b 3901     		.2byte	0x139
 12809 310d 2C310000 		.4byte	0x312c
 12810 3111 1A       		.uleb128 0x1a
 12811 3112 BB080000 		.4byte	.LASF574
 12812 3116 30       		.byte	0x30
 12813 3117 3D01     		.2byte	0x13d
 12814 3119 D8300000 		.4byte	0x30d8
 12815 311d 00       		.byte	0
 12816 311e 1A       		.uleb128 0x1a
 12817 311f F7150000 		.4byte	.LASF600
 12818 3123 30       		.byte	0x30
 12819 3124 4301     		.2byte	0x143
 12820 3126 B6300000 		.4byte	0x30b6
 12821 312a 04       		.byte	0x4
 12822 312b 00       		.byte	0
 12823 312c 07       		.uleb128 0x7
 12824 312d BD0D0000 		.4byte	.LASF661
 12825 3131 30       		.byte	0x30
 12826 3132 4501     		.2byte	0x145
 12827 3134 08310000 		.4byte	0x3108
 12828 3138 1D       		.uleb128 0x1d
 12829 3139 34       		.byte	0x34
 12830 313a 30       		.byte	0x30
 12831 313b 4A01     		.2byte	0x14a
 12832 313d 90310000 		.4byte	0x3190
 12833 3141 1A       		.uleb128 0x1a
 12834 3142 4F240000 		.4byte	.LASF599
 12835 3146 30       		.byte	0x30
 12836 3147 5001     		.2byte	0x150
 12837 3149 AB010000 		.4byte	0x1ab
 12838 314d 00       		.byte	0
 12839 314e 1A       		.uleb128 0x1a
 12840 314f C2120000 		.4byte	.LASF654
 12841 3153 30       		.byte	0x30
 12842 3154 5601     		.2byte	0x156
 12843 3156 FC300000 		.4byte	0x30fc
 12844 315a 04       		.byte	0x4
ARM GAS  C:\Users\Moi\AppData\Local\Temp\ccF5N8ze.s 			page 232


 12845 315b 1A       		.uleb128 0x1a
 12846 315c F7150000 		.4byte	.LASF600
 12847 3160 30       		.byte	0x30
 12848 3161 5C01     		.2byte	0x15c
 12849 3163 B6300000 		.4byte	0x30b6
 12850 3167 08       		.byte	0x8
 12851 3168 1A       		.uleb128 0x1a
 12852 3169 7B210000 		.4byte	.LASF576
 12853 316d 30       		.byte	0x30
 12854 316e 6001     		.2byte	0x160
 12855 3170 90310000 		.4byte	0x3190
 12856 3174 0C       		.byte	0xc
 12857 3175 25       		.uleb128 0x25
 12858 3176 63723200 		.ascii	"cr2\000"
 12859 317a 30       		.byte	0x30
 12860 317b 6601     		.2byte	0x166
 12861 317d AB010000 		.4byte	0x1ab
 12862 3181 2C       		.byte	0x2c
 12863 3182 1A       		.uleb128 0x1a
 12864 3183 690C0000 		.4byte	.LASF601
 12865 3187 30       		.byte	0x30
 12866 3188 7301     		.2byte	0x173
 12867 318a AB010000 		.4byte	0x1ab
 12868 318e 30       		.byte	0x30
 12869 318f 00       		.byte	0
 12870 3190 0A       		.uleb128 0xa
 12871 3191 2C310000 		.4byte	0x312c
 12872 3195 A0310000 		.4byte	0x31a0
 12873 3199 0B       		.uleb128 0xb
 12874 319a B1000000 		.4byte	0xb1
 12875 319e 03       		.byte	0x3
 12876 319f 00       		.byte	0
 12877 31a0 07       		.uleb128 0x7
 12878 31a1 EF0B0000 		.4byte	.LASF662
 12879 31a5 30       		.byte	0x30
 12880 31a6 7401     		.2byte	0x174
 12881 31a8 38310000 		.4byte	0x3138
 12882 31ac 0F       		.uleb128 0xf
 12883 31ad A0310000 		.4byte	0x31a0
 12884 31b1 05       		.uleb128 0x5
 12885 31b2 04       		.byte	0x4
 12886 31b3 AC310000 		.4byte	0x31ac
 12887 31b7 21       		.uleb128 0x21
 12888 31b8 94110000 		.4byte	.LASF663
 12889 31bc 30       		.byte	0x30
 12890 31bd BC01     		.2byte	0x1bc
 12891 31bf 42300000 		.4byte	0x3042
 12892 31c3 21       		.uleb128 0x21
 12893 31c4 9A110000 		.4byte	.LASF664
 12894 31c8 30       		.byte	0x30
 12895 31c9 C001     		.2byte	0x1c0
 12896 31cb 42300000 		.4byte	0x3042
 12897 31cf 21       		.uleb128 0x21
 12898 31d0 A0110000 		.4byte	.LASF665
 12899 31d4 30       		.byte	0x30
 12900 31d5 C401     		.2byte	0x1c4
 12901 31d7 42300000 		.4byte	0x3042
ARM GAS  C:\Users\Moi\AppData\Local\Temp\ccF5N8ze.s 			page 233


 12902 31db 21       		.uleb128 0x21
 12903 31dc A6110000 		.4byte	.LASF666
 12904 31e0 30       		.byte	0x30
 12905 31e1 C801     		.2byte	0x1c8
 12906 31e3 42300000 		.4byte	0x3042
 12907 31e7 2A       		.uleb128 0x2a
 12908 31e8 07       		.byte	0x7
 12909 31e9 01       		.byte	0x1
 12910 31ea 42000000 		.4byte	0x42
 12911 31ee 31       		.byte	0x31
 12912 31ef 55       		.byte	0x55
 12913 31f0 07320000 		.4byte	0x3207
 12914 31f4 2B       		.uleb128 0x2b
 12915 31f5 BE060000 		.4byte	.LASF667
 12916 31f9 00       		.byte	0
 12917 31fa 2B       		.uleb128 0x2b
 12918 31fb 2C0D0000 		.4byte	.LASF668
 12919 31ff 01       		.byte	0x1
 12920 3200 2B       		.uleb128 0x2b
 12921 3201 7B0F0000 		.4byte	.LASF669
 12922 3205 02       		.byte	0x2
 12923 3206 00       		.byte	0
 12924 3207 02       		.uleb128 0x2
 12925 3208 0C180000 		.4byte	.LASF670
 12926 320c 31       		.byte	0x31
 12927 320d 59       		.byte	0x59
 12928 320e E7310000 		.4byte	0x31e7
 12929 3212 02       		.uleb128 0x2
 12930 3213 A6210000 		.4byte	.LASF671
 12931 3217 31       		.byte	0x31
 12932 3218 5E       		.byte	0x5e
 12933 3219 1D320000 		.4byte	0x321d
 12934 321d 12       		.uleb128 0x12
 12935 321e A6210000 		.4byte	.LASF671
 12936 3222 78       		.byte	0x78
 12937 3223 31       		.byte	0x31
 12938 3224 78       		.byte	0x78
 12939 3225 88320000 		.4byte	0x3288
 12940 3229 13       		.uleb128 0x13
 12941 322a 766D7400 		.ascii	"vmt\000"
 12942 322e 31       		.byte	0x31
 12943 322f 7A       		.byte	0x7a
 12944 3230 06330000 		.4byte	0x3306
 12945 3234 00       		.byte	0
 12946 3235 0D       		.uleb128 0xd
 12947 3236 47000000 		.4byte	.LASF672
 12948 323a 31       		.byte	0x31
 12949 323b 7B       		.byte	0x7b
 12950 323c 721E0000 		.4byte	0x1e72
 12951 3240 04       		.byte	0x4
 12952 3241 0D       		.uleb128 0xd
 12953 3242 A3150000 		.4byte	.LASF495
 12954 3246 31       		.byte	0x31
 12955 3247 7B       		.byte	0x7b
 12956 3248 07320000 		.4byte	0x3207
 12957 324c 08       		.byte	0x8
 12958 324d 0D       		.uleb128 0xd
ARM GAS  C:\Users\Moi\AppData\Local\Temp\ccF5N8ze.s 			page 234


 12959 324e ED170000 		.4byte	.LASF673
 12960 3252 31       		.byte	0x31
 12961 3253 7B       		.byte	0x7b
 12962 3254 171F0000 		.4byte	0x1f17
 12963 3258 0C       		.byte	0xc
 12964 3259 0D       		.uleb128 0xd
 12965 325a B9110000 		.4byte	.LASF674
 12966 325e 31       		.byte	0x31
 12967 325f 7B       		.byte	0x7b
 12968 3260 221F0000 		.4byte	0x1f22
 12969 3264 30       		.byte	0x30
 12970 3265 13       		.uleb128 0x13
 12971 3266 696200   		.ascii	"ib\000"
 12972 3269 31       		.byte	0x31
 12973 326a 7B       		.byte	0x7b
 12974 326b 0C330000 		.4byte	0x330c
 12975 326f 54       		.byte	0x54
 12976 3270 13       		.uleb128 0x13
 12977 3271 6F6200   		.ascii	"ob\000"
 12978 3274 31       		.byte	0x31
 12979 3275 7B       		.byte	0x7b
 12980 3276 0C330000 		.4byte	0x330c
 12981 327a 64       		.byte	0x64
 12982 327b 0D       		.uleb128 0xd
 12983 327c BB190000 		.4byte	.LASF675
 12984 3280 31       		.byte	0x31
 12985 3281 7B       		.byte	0x7b
 12986 3282 1C330000 		.4byte	0x331c
 12987 3286 74       		.byte	0x74
 12988 3287 00       		.byte	0
 12989 3288 29       		.uleb128 0x29
 12990 3289 53443300 		.ascii	"SD3\000"
 12991 328d 32       		.byte	0x32
 12992 328e 1501     		.2byte	0x115
 12993 3290 12320000 		.4byte	0x3212
 12994 3294 12       		.uleb128 0x12
 12995 3295 080F0000 		.4byte	.LASF676
 12996 3299 20       		.byte	0x20
 12997 329a 31       		.byte	0x31
 12998 329b 6D       		.byte	0x6d
 12999 329c 01330000 		.4byte	0x3301
 13000 32a0 0D       		.uleb128 0xd
 13001 32a1 DC170000 		.4byte	.LASF677
 13002 32a5 31       		.byte	0x31
 13003 32a6 6E       		.byte	0x6e
 13004 32a7 4C1F0000 		.4byte	0x1f4c
 13005 32ab 00       		.byte	0
 13006 32ac 0D       		.uleb128 0xd
 13007 32ad D8040000 		.4byte	.LASF678
 13008 32b1 31       		.byte	0x31
 13009 32b2 6E       		.byte	0x6e
 13010 32b3 6B1F0000 		.4byte	0x1f6b
 13011 32b7 04       		.byte	0x4
 13012 32b8 13       		.uleb128 0x13
 13013 32b9 70757400 		.ascii	"put\000"
 13014 32bd 31       		.byte	0x31
 13015 32be 6E       		.byte	0x6e
ARM GAS  C:\Users\Moi\AppData\Local\Temp\ccF5N8ze.s 			page 235


 13016 32bf 851F0000 		.4byte	0x1f85
 13017 32c3 08       		.byte	0x8
 13018 32c4 13       		.uleb128 0x13
 13019 32c5 67657400 		.ascii	"get\000"
 13020 32c9 31       		.byte	0x31
 13021 32ca 6E       		.byte	0x6e
 13022 32cb 9A1F0000 		.4byte	0x1f9a
 13023 32cf 0C       		.byte	0xc
 13024 32d0 0D       		.uleb128 0xd
 13025 32d1 98130000 		.4byte	.LASF679
 13026 32d5 31       		.byte	0x31
 13027 32d6 6E       		.byte	0x6e
 13028 32d7 3B200000 		.4byte	0x203b
 13029 32db 10       		.byte	0x10
 13030 32dc 0D       		.uleb128 0xd
 13031 32dd B9170000 		.4byte	.LASF680
 13032 32e1 31       		.byte	0x31
 13033 32e2 6E       		.byte	0x6e
 13034 32e3 55200000 		.4byte	0x2055
 13035 32e7 14       		.byte	0x14
 13036 32e8 0D       		.uleb128 0xd
 13037 32e9 84220000 		.4byte	.LASF681
 13038 32ed 31       		.byte	0x31
 13039 32ee 6E       		.byte	0x6e
 13040 32ef 79200000 		.4byte	0x2079
 13041 32f3 18       		.byte	0x18
 13042 32f4 0D       		.uleb128 0xd
 13043 32f5 FC120000 		.4byte	.LASF682
 13044 32f9 31       		.byte	0x31
 13045 32fa 6E       		.byte	0x6e
 13046 32fb 9D200000 		.4byte	0x209d
 13047 32ff 1C       		.byte	0x1c
 13048 3300 00       		.byte	0
 13049 3301 0F       		.uleb128 0xf
 13050 3302 94320000 		.4byte	0x3294
 13051 3306 05       		.uleb128 0x5
 13052 3307 04       		.byte	0x4
 13053 3308 01330000 		.4byte	0x3301
 13054 330c 0A       		.uleb128 0xa
 13055 330d 75010000 		.4byte	0x175
 13056 3311 1C330000 		.4byte	0x331c
 13057 3315 0B       		.uleb128 0xb
 13058 3316 B1000000 		.4byte	0xb1
 13059 331a 0F       		.byte	0xf
 13060 331b 00       		.byte	0
 13061 331c 05       		.uleb128 0x5
 13062 331d 04       		.byte	0x4
 13063 331e 0E190000 		.4byte	0x190e
 13064 3322 2A       		.uleb128 0x2a
 13065 3323 07       		.byte	0x7
 13066 3324 01       		.byte	0x1
 13067 3325 42000000 		.4byte	0x42
 13068 3329 33       		.byte	0x33
 13069 332a 6C       		.byte	0x6c
 13070 332b 42330000 		.4byte	0x3342
 13071 332f 2B       		.uleb128 0x2b
 13072 3330 89030000 		.4byte	.LASF683
ARM GAS  C:\Users\Moi\AppData\Local\Temp\ccF5N8ze.s 			page 236


 13073 3334 00       		.byte	0
 13074 3335 2B       		.uleb128 0x2b
 13075 3336 F5140000 		.4byte	.LASF684
 13076 333a 01       		.byte	0x1
 13077 333b 2B       		.uleb128 0x2b
 13078 333c 99120000 		.4byte	.LASF685
 13079 3340 02       		.byte	0x2
 13080 3341 00       		.byte	0
 13081 3342 02       		.uleb128 0x2
 13082 3343 BA1A0000 		.4byte	.LASF686
 13083 3347 33       		.byte	0x33
 13084 3348 70       		.byte	0x70
 13085 3349 22330000 		.4byte	0x3322
 13086 334d 02       		.uleb128 0x2
 13087 334e C9190000 		.4byte	.LASF687
 13088 3352 34       		.byte	0x34
 13089 3353 BF       		.byte	0xbf
 13090 3354 AB010000 		.4byte	0x1ab
 13091 3358 02       		.uleb128 0x2
 13092 3359 AB000000 		.4byte	.LASF688
 13093 335d 34       		.byte	0x34
 13094 335e C4       		.byte	0xc4
 13095 335f AB010000 		.4byte	0x1ab
 13096 3363 02       		.uleb128 0x2
 13097 3364 8A210000 		.4byte	.LASF689
 13098 3368 34       		.byte	0x34
 13099 3369 C9       		.byte	0xc9
 13100 336a 6E330000 		.4byte	0x336e
 13101 336e 12       		.uleb128 0x12
 13102 336f 8A210000 		.4byte	.LASF689
 13103 3373 4C       		.byte	0x4c
 13104 3374 34       		.byte	0x34
 13105 3375 F2       		.byte	0xf2
 13106 3376 1D340000 		.4byte	0x341d
 13107 337a 13       		.uleb128 0x13
 13108 337b 766D7400 		.ascii	"vmt\000"
 13109 337f 34       		.byte	0x34
 13110 3380 F6       		.byte	0xf6
 13111 3381 C0340000 		.4byte	0x34c0
 13112 3385 00       		.byte	0
 13113 3386 0D       		.uleb128 0xd
 13114 3387 A3150000 		.4byte	.LASF495
 13115 338b 34       		.byte	0x34
 13116 338c F7       		.byte	0xf7
 13117 338d E7200000 		.4byte	0x20e7
 13118 3391 04       		.byte	0x4
 13119 3392 13       		.uleb128 0x13
 13120 3393 63696400 		.ascii	"cid\000"
 13121 3397 34       		.byte	0x34
 13122 3398 F7       		.byte	0xf7
 13123 3399 9B210000 		.4byte	0x219b
 13124 339d 08       		.byte	0x8
 13125 339e 13       		.uleb128 0x13
 13126 339f 63736400 		.ascii	"csd\000"
 13127 33a3 34       		.byte	0x34
 13128 33a4 F7       		.byte	0xf7
 13129 33a5 9B210000 		.4byte	0x219b
ARM GAS  C:\Users\Moi\AppData\Local\Temp\ccF5N8ze.s 			page 237


 13130 33a9 18       		.byte	0x18
 13131 33aa 0D       		.uleb128 0xd
 13132 33ab 831C0000 		.4byte	.LASF690
 13133 33af 34       		.byte	0x34
 13134 33b0 F7       		.byte	0xf7
 13135 33b1 AB010000 		.4byte	0x1ab
 13136 33b5 28       		.byte	0x28
 13137 33b6 0D       		.uleb128 0xd
 13138 33b7 A21B0000 		.4byte	.LASF496
 13139 33bb 34       		.byte	0x34
 13140 33bc FB       		.byte	0xfb
 13141 33bd C6340000 		.4byte	0x34c6
 13142 33c1 2C       		.byte	0x2c
 13143 33c2 0D       		.uleb128 0xd
 13144 33c3 8B040000 		.4byte	.LASF691
 13145 33c7 34       		.byte	0x34
 13146 33c8 FF       		.byte	0xff
 13147 33c9 4D330000 		.4byte	0x334d
 13148 33cd 30       		.byte	0x30
 13149 33ce 1A       		.uleb128 0x1a
 13150 33cf 8B010000 		.4byte	.LASF627
 13151 33d3 34       		.byte	0x34
 13152 33d4 0301     		.2byte	0x103
 13153 33d6 58330000 		.4byte	0x3358
 13154 33da 34       		.byte	0x34
 13155 33db 25       		.uleb128 0x25
 13156 33dc 72636100 		.ascii	"rca\000"
 13157 33e0 34       		.byte	0x34
 13158 33e1 0701     		.2byte	0x107
 13159 33e3 AB010000 		.4byte	0x1ab
 13160 33e7 38       		.byte	0x38
 13161 33e8 1A       		.uleb128 0x1a
 13162 33e9 26070000 		.4byte	.LASF500
 13163 33ed 34       		.byte	0x34
 13164 33ee 0C01     		.2byte	0x10c
 13165 33f0 900E0000 		.4byte	0xe90
 13166 33f4 3C       		.byte	0x3c
 13167 33f5 1A       		.uleb128 0x1a
 13168 33f6 95170000 		.4byte	.LASF503
 13169 33fa 34       		.byte	0x34
 13170 33fb 1001     		.2byte	0x110
 13171 33fd AB010000 		.4byte	0x1ab
 13172 3401 40       		.byte	0x40
 13173 3402 25       		.uleb128 0x25
 13174 3403 646D6100 		.ascii	"dma\000"
 13175 3407 34       		.byte	0x34
 13176 3408 1401     		.2byte	0x114
 13177 340a E0250000 		.4byte	0x25e0
 13178 340e 44       		.byte	0x44
 13179 340f 1A       		.uleb128 0x1a
 13180 3410 BB150000 		.4byte	.LASF692
 13181 3414 34       		.byte	0x34
 13182 3415 1901     		.2byte	0x119
 13183 3417 CC340000 		.4byte	0x34cc
 13184 341b 48       		.byte	0x48
 13185 341c 00       		.byte	0
 13186 341d 0C       		.uleb128 0xc
ARM GAS  C:\Users\Moi\AppData\Local\Temp\ccF5N8ze.s 			page 238


 13187 341e 08       		.byte	0x8
 13188 341f 34       		.byte	0x34
 13189 3420 CF       		.byte	0xcf
 13190 3421 3E340000 		.4byte	0x343e
 13191 3425 0D       		.uleb128 0xd
 13192 3426 1C0E0000 		.4byte	.LASF693
 13193 342a 34       		.byte	0x34
 13194 342b D8       		.byte	0xd8
 13195 342c CD0C0000 		.4byte	0xccd
 13196 3430 00       		.byte	0
 13197 3431 0D       		.uleb128 0xd
 13198 3432 39230000 		.4byte	.LASF694
 13199 3436 34       		.byte	0x34
 13200 3437 DC       		.byte	0xdc
 13201 3438 42330000 		.4byte	0x3342
 13202 343c 04       		.byte	0x4
 13203 343d 00       		.byte	0
 13204 343e 02       		.uleb128 0x2
 13205 343f 70190000 		.4byte	.LASF695
 13206 3443 34       		.byte	0x34
 13207 3444 DE       		.byte	0xde
 13208 3445 1D340000 		.4byte	0x341d
 13209 3449 0F       		.uleb128 0xf
 13210 344a 3E340000 		.4byte	0x343e
 13211 344e 12       		.uleb128 0x12
 13212 344f 5A230000 		.4byte	.LASF696
 13213 3453 20       		.byte	0x20
 13214 3454 34       		.byte	0x34
 13215 3455 EB       		.byte	0xeb
 13216 3456 BB340000 		.4byte	0x34bb
 13217 345a 0D       		.uleb128 0xd
 13218 345b F1250000 		.4byte	.LASF697
 13219 345f 34       		.byte	0x34
 13220 3460 EC       		.byte	0xec
 13221 3461 2D210000 		.4byte	0x212d
 13222 3465 00       		.byte	0
 13223 3466 0D       		.uleb128 0xd
 13224 3467 6E0C0000 		.4byte	.LASF698
 13225 346b 34       		.byte	0x34
 13226 346c EC       		.byte	0xec
 13227 346d 2D210000 		.4byte	0x212d
 13228 3471 04       		.byte	0x4
 13229 3472 0D       		.uleb128 0xd
 13230 3473 2D0F0000 		.4byte	.LASF699
 13231 3477 34       		.byte	0x34
 13232 3478 EC       		.byte	0xec
 13233 3479 2D210000 		.4byte	0x212d
 13234 347d 08       		.byte	0x8
 13235 347e 0D       		.uleb128 0xd
 13236 347f 86130000 		.4byte	.LASF700
 13237 3483 34       		.byte	0x34
 13238 3484 EC       		.byte	0xec
 13239 3485 2D210000 		.4byte	0x212d
 13240 3489 0C       		.byte	0xc
 13241 348a 0D       		.uleb128 0xd
 13242 348b D8040000 		.4byte	.LASF678
 13243 348f 34       		.byte	0x34
ARM GAS  C:\Users\Moi\AppData\Local\Temp\ccF5N8ze.s 			page 239


 13244 3490 EC       		.byte	0xec
 13245 3491 51210000 		.4byte	0x2151
 13246 3495 10       		.byte	0x10
 13247 3496 0D       		.uleb128 0xd
 13248 3497 DC170000 		.4byte	.LASF677
 13249 349b 34       		.byte	0x34
 13250 349c EC       		.byte	0xec
 13251 349d 75210000 		.4byte	0x2175
 13252 34a1 14       		.byte	0x14
 13253 34a2 0D       		.uleb128 0xd
 13254 34a3 B6190000 		.4byte	.LASF701
 13255 34a7 34       		.byte	0x34
 13256 34a8 EC       		.byte	0xec
 13257 34a9 2D210000 		.4byte	0x212d
 13258 34ad 18       		.byte	0x18
 13259 34ae 0D       		.uleb128 0xd
 13260 34af E7220000 		.4byte	.LASF702
 13261 34b3 34       		.byte	0x34
 13262 34b4 EC       		.byte	0xec
 13263 34b5 95210000 		.4byte	0x2195
 13264 34b9 1C       		.byte	0x1c
 13265 34ba 00       		.byte	0
 13266 34bb 0F       		.uleb128 0xf
 13267 34bc 4E340000 		.4byte	0x344e
 13268 34c0 05       		.uleb128 0x5
 13269 34c1 04       		.byte	0x4
 13270 34c2 BB340000 		.4byte	0x34bb
 13271 34c6 05       		.uleb128 0x5
 13272 34c7 04       		.byte	0x4
 13273 34c8 49340000 		.4byte	0x3449
 13274 34cc 05       		.uleb128 0x5
 13275 34cd 04       		.byte	0x4
 13276 34ce 16180000 		.4byte	0x1816
 13277 34d2 21       		.uleb128 0x21
 13278 34d3 520A0000 		.4byte	.LASF703
 13279 34d7 34       		.byte	0x34
 13280 34d8 2501     		.2byte	0x125
 13281 34da 63330000 		.4byte	0x3363
 13282 34de 2A       		.uleb128 0x2a
 13283 34df 07       		.byte	0x7
 13284 34e0 01       		.byte	0x1
 13285 34e1 42000000 		.4byte	0x42
 13286 34e5 35       		.byte	0x35
 13287 34e6 46       		.byte	0x46
 13288 34e7 0A350000 		.4byte	0x350a
 13289 34eb 2B       		.uleb128 0x2b
 13290 34ec 3C070000 		.4byte	.LASF704
 13291 34f0 00       		.byte	0
 13292 34f1 2B       		.uleb128 0x2b
 13293 34f2 24030000 		.4byte	.LASF705
 13294 34f6 01       		.byte	0x1
 13295 34f7 2B       		.uleb128 0x2b
 13296 34f8 22230000 		.4byte	.LASF706
 13297 34fc 02       		.byte	0x2
 13298 34fd 2B       		.uleb128 0x2b
 13299 34fe 900E0000 		.4byte	.LASF707
 13300 3502 03       		.byte	0x3
ARM GAS  C:\Users\Moi\AppData\Local\Temp\ccF5N8ze.s 			page 240


 13301 3503 2B       		.uleb128 0x2b
 13302 3504 2B130000 		.4byte	.LASF708
 13303 3508 04       		.byte	0x4
 13304 3509 00       		.byte	0
 13305 350a 02       		.uleb128 0x2
 13306 350b 440E0000 		.4byte	.LASF709
 13307 350f 35       		.byte	0x35
 13308 3510 4C       		.byte	0x4c
 13309 3511 DE340000 		.4byte	0x34de
 13310 3515 07       		.uleb128 0x7
 13311 3516 38220000 		.4byte	.LASF710
 13312 351a 36       		.byte	0x36
 13313 351b 9601     		.2byte	0x196
 13314 351d 21350000 		.4byte	0x3521
 13315 3521 1C       		.uleb128 0x1c
 13316 3522 38220000 		.4byte	.LASF710
 13317 3526 34       		.byte	0x34
 13318 3527 36       		.byte	0x36
 13319 3528 BA01     		.2byte	0x1ba
 13320 352a A4350000 		.4byte	0x35a4
 13321 352e 1A       		.uleb128 0x1a
 13322 352f A3150000 		.4byte	.LASF495
 13323 3533 36       		.byte	0x36
 13324 3534 BE01     		.2byte	0x1be
 13325 3536 0A350000 		.4byte	0x350a
 13326 353a 00       		.byte	0
 13327 353b 1A       		.uleb128 0x1a
 13328 353c A21B0000 		.4byte	.LASF496
 13329 3540 36       		.byte	0x36
 13330 3541 C201     		.2byte	0x1c2
 13331 3543 16360000 		.4byte	0x3616
 13332 3547 04       		.byte	0x4
 13333 3548 1A       		.uleb128 0x1a
 13334 3549 26070000 		.4byte	.LASF500
 13335 354d 36       		.byte	0x36
 13336 354e C701     		.2byte	0x1c7
 13337 3550 900E0000 		.4byte	0xe90
 13338 3554 08       		.byte	0x8
 13339 3555 1A       		.uleb128 0x1a
 13340 3556 D00C0000 		.4byte	.LASF501
 13341 355a 36       		.byte	0x36
 13342 355b CD01     		.2byte	0x1cd
 13343 355d EE1D0000 		.4byte	0x1dee
 13344 3561 0C       		.byte	0xc
 13345 3562 25       		.uleb128 0x25
 13346 3563 73706900 		.ascii	"spi\000"
 13347 3567 36       		.byte	0x36
 13348 3568 D601     		.2byte	0x1d6
 13349 356a 05300000 		.4byte	0x3005
 13350 356e 20       		.byte	0x20
 13351 356f 1A       		.uleb128 0x1a
 13352 3570 38010000 		.4byte	.LASF631
 13353 3574 36       		.byte	0x36
 13354 3575 DA01     		.2byte	0x1da
 13355 3577 E0250000 		.4byte	0x25e0
 13356 357b 24       		.byte	0x24
 13357 357c 1A       		.uleb128 0x1a
ARM GAS  C:\Users\Moi\AppData\Local\Temp\ccF5N8ze.s 			page 241


 13358 357d 44020000 		.4byte	.LASF632
 13359 3581 36       		.byte	0x36
 13360 3582 DE01     		.2byte	0x1de
 13361 3584 E0250000 		.4byte	0x25e0
 13362 3588 28       		.byte	0x28
 13363 3589 1A       		.uleb128 0x1a
 13364 358a A7080000 		.4byte	.LASF629
 13365 358e 36       		.byte	0x36
 13366 358f E201     		.2byte	0x1e2
 13367 3591 AB010000 		.4byte	0x1ab
 13368 3595 2C       		.byte	0x2c
 13369 3596 1A       		.uleb128 0x1a
 13370 3597 00090000 		.4byte	.LASF630
 13371 359b 36       		.byte	0x36
 13372 359c E601     		.2byte	0x1e6
 13373 359e AB010000 		.4byte	0x1ab
 13374 35a2 30       		.byte	0x30
 13375 35a3 00       		.byte	0
 13376 35a4 07       		.uleb128 0x7
 13377 35a5 11150000 		.4byte	.LASF711
 13378 35a9 36       		.byte	0x36
 13379 35aa 9E01     		.2byte	0x19e
 13380 35ac B0350000 		.4byte	0x35b0
 13381 35b0 05       		.uleb128 0x5
 13382 35b1 04       		.byte	0x4
 13383 35b2 B6350000 		.4byte	0x35b6
 13384 35b6 20       		.uleb128 0x20
 13385 35b7 C1350000 		.4byte	0x35c1
 13386 35bb 18       		.uleb128 0x18
 13387 35bc C1350000 		.4byte	0x35c1
 13388 35c0 00       		.byte	0
 13389 35c1 05       		.uleb128 0x5
 13390 35c2 04       		.byte	0x4
 13391 35c3 15350000 		.4byte	0x3515
 13392 35c7 1D       		.uleb128 0x1d
 13393 35c8 0C       		.byte	0xc
 13394 35c9 36       		.byte	0x36
 13395 35ca A301     		.2byte	0x1a3
 13396 35cc 05360000 		.4byte	0x3605
 13397 35d0 1A       		.uleb128 0x1a
 13398 35d1 8A090000 		.4byte	.LASF508
 13399 35d5 36       		.byte	0x36
 13400 35d6 A701     		.2byte	0x1a7
 13401 35d8 A4350000 		.4byte	0x35a4
 13402 35dc 00       		.byte	0
 13403 35dd 1A       		.uleb128 0x1a
 13404 35de F4230000 		.4byte	.LASF712
 13405 35e2 36       		.byte	0x36
 13406 35e3 AC01     		.2byte	0x1ac
 13407 35e5 71230000 		.4byte	0x2371
 13408 35e9 04       		.byte	0x4
 13409 35ea 1A       		.uleb128 0x1a
 13410 35eb FA080000 		.4byte	.LASF713
 13411 35ef 36       		.byte	0x36
 13412 35f0 B001     		.2byte	0x1b0
 13413 35f2 90010000 		.4byte	0x190
 13414 35f6 08       		.byte	0x8
ARM GAS  C:\Users\Moi\AppData\Local\Temp\ccF5N8ze.s 			page 242


 13415 35f7 25       		.uleb128 0x25
 13416 35f8 63723100 		.ascii	"cr1\000"
 13417 35fc 36       		.byte	0x36
 13418 35fd B401     		.2byte	0x1b4
 13419 35ff 90010000 		.4byte	0x190
 13420 3603 0A       		.byte	0xa
 13421 3604 00       		.byte	0
 13422 3605 07       		.uleb128 0x7
 13423 3606 2D210000 		.4byte	.LASF714
 13424 360a 36       		.byte	0x36
 13425 360b B501     		.2byte	0x1b5
 13426 360d C7350000 		.4byte	0x35c7
 13427 3611 0F       		.uleb128 0xf
 13428 3612 05360000 		.4byte	0x3605
 13429 3616 05       		.uleb128 0x5
 13430 3617 04       		.byte	0x4
 13431 3618 11360000 		.4byte	0x3611
 13432 361c 21       		.uleb128 0x21
 13433 361d 57200000 		.4byte	.LASF715
 13434 3621 36       		.byte	0x36
 13435 3622 F201     		.2byte	0x1f2
 13436 3624 15350000 		.4byte	0x3515
 13437 3628 02       		.uleb128 0x2
 13438 3629 70110000 		.4byte	.LASF716
 13439 362d 37       		.byte	0x37
 13440 362e FA       		.byte	0xfa
 13441 362f 33360000 		.4byte	0x3633
 13442 3633 19       		.uleb128 0x19
 13443 3634 70110000 		.4byte	.LASF716
 13444 3638 6002     		.2byte	0x260
 13445 363a 38       		.byte	0x38
 13446 363b 7701     		.2byte	0x177
 13447 363d 5F370000 		.4byte	0x375f
 13448 3641 1A       		.uleb128 0x1a
 13449 3642 A3150000 		.4byte	.LASF495
 13450 3646 38       		.byte	0x38
 13451 3647 7B01     		.2byte	0x17b
 13452 3649 97370000 		.4byte	0x3797
 13453 364d 00       		.byte	0
 13454 364e 1A       		.uleb128 0x1a
 13455 364f A21B0000 		.4byte	.LASF496
 13456 3653 38       		.byte	0x38
 13457 3654 7F01     		.2byte	0x17f
 13458 3656 BA400000 		.4byte	0x40ba
 13459 365a 04       		.byte	0x4
 13460 365b 1A       		.uleb128 0x1a
 13461 365c 6E210000 		.4byte	.LASF717
 13462 3660 38       		.byte	0x38
 13463 3661 8301     		.2byte	0x183
 13464 3663 90010000 		.4byte	0x190
 13465 3667 08       		.byte	0x8
 13466 3668 1A       		.uleb128 0x1a
 13467 3669 2F240000 		.4byte	.LASF718
 13468 366d 38       		.byte	0x38
 13469 366e 8701     		.2byte	0x187
 13470 3670 90010000 		.4byte	0x190
 13471 3674 0A       		.byte	0xa
ARM GAS  C:\Users\Moi\AppData\Local\Temp\ccF5N8ze.s 			page 243


 13472 3675 25       		.uleb128 0x25
 13473 3676 65706300 		.ascii	"epc\000"
 13474 367a 38       		.byte	0x38
 13475 367b 8B01     		.2byte	0x18b
 13476 367d C0400000 		.4byte	0x40c0
 13477 3681 0C       		.byte	0xc
 13478 3682 1A       		.uleb128 0x1a
 13479 3683 6C070000 		.4byte	.LASF719
 13480 3687 38       		.byte	0x38
 13481 3688 9201     		.2byte	0x192
 13482 368a D6400000 		.4byte	0x40d6
 13483 368e 1C       		.byte	0x1c
 13484 368f 1A       		.uleb128 0x1a
 13485 3690 3F0C0000 		.4byte	.LASF720
 13486 3694 38       		.byte	0x38
 13487 3695 9901     		.2byte	0x199
 13488 3697 D6400000 		.4byte	0x40d6
 13489 369b 28       		.byte	0x28
 13490 369c 1A       		.uleb128 0x1a
 13491 369d CA0F0000 		.4byte	.LASF721
 13492 36a1 38       		.byte	0x38
 13493 36a2 9D01     		.2byte	0x19d
 13494 36a4 DC370000 		.4byte	0x37dc
 13495 36a8 34       		.byte	0x34
 13496 36a9 1A       		.uleb128 0x1a
 13497 36aa 3B1B0000 		.4byte	.LASF722
 13498 36ae 38       		.byte	0x38
 13499 36af A101     		.2byte	0x1a1
 13500 36b1 CD0C0000 		.4byte	0xccd
 13501 36b5 38       		.byte	0x38
 13502 36b6 1A       		.uleb128 0x1a
 13503 36b7 14170000 		.4byte	.LASF723
 13504 36bb 38       		.byte	0x38
 13505 36bc A501     		.2byte	0x1a5
 13506 36be B8000000 		.4byte	0xb8
 13507 36c2 3C       		.byte	0x3c
 13508 36c3 1A       		.uleb128 0x1a
 13509 36c4 F31E0000 		.4byte	.LASF724
 13510 36c8 38       		.byte	0x38
 13511 36c9 A901     		.2byte	0x1a9
 13512 36cb 5C380000 		.4byte	0x385c
 13513 36cf 40       		.byte	0x40
 13514 36d0 1A       		.uleb128 0x1a
 13515 36d1 36070000 		.4byte	.LASF725
 13516 36d5 38       		.byte	0x38
 13517 36d6 AD01     		.2byte	0x1ad
 13518 36d8 41260000 		.4byte	0x2641
 13519 36dc 44       		.byte	0x44
 13520 36dd 1A       		.uleb128 0x1a
 13521 36de E9140000 		.4byte	.LASF726
 13522 36e2 38       		.byte	0x38
 13523 36e3 B101     		.2byte	0x1b1
 13524 36e5 90010000 		.4byte	0x190
 13525 36e9 4C       		.byte	0x4c
 13526 36ea 1A       		.uleb128 0x1a
 13527 36eb 29150000 		.4byte	.LASF727
 13528 36ef 38       		.byte	0x38
ARM GAS  C:\Users\Moi\AppData\Local\Temp\ccF5N8ze.s 			page 244


 13529 36f0 B501     		.2byte	0x1b5
 13530 36f2 75010000 		.4byte	0x175
 13531 36f6 4E       		.byte	0x4e
 13532 36f7 1A       		.uleb128 0x1a
 13533 36f8 3E1A0000 		.4byte	.LASF728
 13534 36fc 38       		.byte	0x38
 13535 36fd B901     		.2byte	0x1b9
 13536 36ff 75010000 		.4byte	0x175
 13537 3703 4F       		.byte	0x4f
 13538 3704 25       		.uleb128 0x25
 13539 3705 6F746700 		.ascii	"otg\000"
 13540 3709 38       		.byte	0x38
 13541 370a C101     		.2byte	0x1c1
 13542 370c E6400000 		.4byte	0x40e6
 13543 3710 50       		.byte	0x50
 13544 3711 1A       		.uleb128 0x1a
 13545 3712 030E0000 		.4byte	.LASF729
 13546 3716 38       		.byte	0x38
 13547 3717 C501     		.2byte	0x1c5
 13548 3719 EC400000 		.4byte	0x40ec
 13549 371d 54       		.byte	0x54
 13550 371e 1A       		.uleb128 0x1a
 13551 371f A6180000 		.4byte	.LASF730
 13552 3723 38       		.byte	0x38
 13553 3724 C901     		.2byte	0x1c9
 13554 3726 AB010000 		.4byte	0x1ab
 13555 372a 58       		.byte	0x58
 13556 372b 1A       		.uleb128 0x1a
 13557 372c EF0C0000 		.4byte	.LASF731
 13558 3730 38       		.byte	0x38
 13559 3731 CD01     		.2byte	0x1cd
 13560 3733 AB010000 		.4byte	0x1ab
 13561 3737 5C       		.byte	0x5c
 13562 3738 1A       		.uleb128 0x1a
 13563 3739 4A080000 		.4byte	.LASF732
 13564 373d 38       		.byte	0x38
 13565 373e D101     		.2byte	0x1d1
 13566 3740 900E0000 		.4byte	0xe90
 13567 3744 60       		.byte	0x60
 13568 3745 25       		.uleb128 0x25
 13569 3746 747200   		.ascii	"tr\000"
 13570 3749 38       		.byte	0x38
 13571 374a D601     		.2byte	0x1d6
 13572 374c 900E0000 		.4byte	0xe90
 13573 3750 64       		.byte	0x64
 13574 3751 1A       		.uleb128 0x1a
 13575 3752 C0130000 		.4byte	.LASF733
 13576 3756 38       		.byte	0x38
 13577 3757 DA01     		.2byte	0x1da
 13578 3759 F2400000 		.4byte	0x40f2
 13579 375d 68       		.byte	0x68
 13580 375e 00       		.byte	0
 13581 375f 02       		.uleb128 0x2
 13582 3760 070A0000 		.4byte	.LASF734
 13583 3764 37       		.byte	0x37
 13584 3765 FF       		.byte	0xff
 13585 3766 75010000 		.4byte	0x175
ARM GAS  C:\Users\Moi\AppData\Local\Temp\ccF5N8ze.s 			page 245


 13586 376a 2C       		.uleb128 0x2c
 13587 376b 07       		.byte	0x7
 13588 376c 01       		.byte	0x1
 13589 376d 42000000 		.4byte	0x42
 13590 3771 37       		.byte	0x37
 13591 3772 0401     		.2byte	0x104
 13592 3774 97370000 		.4byte	0x3797
 13593 3778 2B       		.uleb128 0x2b
 13594 3779 F5240000 		.4byte	.LASF735
 13595 377d 00       		.byte	0
 13596 377e 2B       		.uleb128 0x2b
 13597 377f 00000000 		.4byte	.LASF736
 13598 3783 01       		.byte	0x1
 13599 3784 2B       		.uleb128 0x2b
 13600 3785 F2120000 		.4byte	.LASF737
 13601 3789 02       		.byte	0x2
 13602 378a 2B       		.uleb128 0x2b
 13603 378b CC0A0000 		.4byte	.LASF738
 13604 378f 03       		.byte	0x3
 13605 3790 2B       		.uleb128 0x2b
 13606 3791 70080000 		.4byte	.LASF739
 13607 3795 04       		.byte	0x4
 13608 3796 00       		.byte	0
 13609 3797 07       		.uleb128 0x7
 13610 3798 2C260000 		.4byte	.LASF740
 13611 379c 37       		.byte	0x37
 13612 379d 0A01     		.2byte	0x10a
 13613 379f 6A370000 		.4byte	0x376a
 13614 37a3 2C       		.uleb128 0x2c
 13615 37a4 07       		.byte	0x7
 13616 37a5 01       		.byte	0x1
 13617 37a6 42000000 		.4byte	0x42
 13618 37aa 37       		.byte	0x37
 13619 37ab 1801     		.2byte	0x118
 13620 37ad DC370000 		.4byte	0x37dc
 13621 37b1 2B       		.uleb128 0x2b
 13622 37b2 C51E0000 		.4byte	.LASF741
 13623 37b6 00       		.byte	0
 13624 37b7 2B       		.uleb128 0x2b
 13625 37b8 BF0F0000 		.4byte	.LASF742
 13626 37bc 01       		.byte	0x1
 13627 37bd 2B       		.uleb128 0x2b
 13628 37be 271B0000 		.4byte	.LASF743
 13629 37c2 02       		.byte	0x2
 13630 37c3 2B       		.uleb128 0x2b
 13631 37c4 C8150000 		.4byte	.LASF744
 13632 37c8 03       		.byte	0x3
 13633 37c9 2B       		.uleb128 0x2b
 13634 37ca D4140000 		.4byte	.LASF745
 13635 37ce 04       		.byte	0x4
 13636 37cf 2B       		.uleb128 0x2b
 13637 37d0 D2100000 		.4byte	.LASF746
 13638 37d4 05       		.byte	0x5
 13639 37d5 2B       		.uleb128 0x2b
 13640 37d6 180F0000 		.4byte	.LASF747
 13641 37da 06       		.byte	0x6
 13642 37db 00       		.byte	0
ARM GAS  C:\Users\Moi\AppData\Local\Temp\ccF5N8ze.s 			page 246


 13643 37dc 07       		.uleb128 0x7
 13644 37dd 15110000 		.4byte	.LASF748
 13645 37e1 37       		.byte	0x37
 13646 37e2 2001     		.2byte	0x120
 13647 37e4 A3370000 		.4byte	0x37a3
 13648 37e8 2C       		.uleb128 0x2c
 13649 37e9 07       		.byte	0x7
 13650 37ea 01       		.byte	0x1
 13651 37eb 42000000 		.4byte	0x42
 13652 37ef 37       		.byte	0x37
 13653 37f0 2501     		.2byte	0x125
 13654 37f2 1B380000 		.4byte	0x381b
 13655 37f6 2B       		.uleb128 0x2b
 13656 37f7 321E0000 		.4byte	.LASF749
 13657 37fb 00       		.byte	0
 13658 37fc 2B       		.uleb128 0x2b
 13659 37fd F4180000 		.4byte	.LASF750
 13660 3801 01       		.byte	0x1
 13661 3802 2B       		.uleb128 0x2b
 13662 3803 71130000 		.4byte	.LASF751
 13663 3807 02       		.byte	0x2
 13664 3808 2B       		.uleb128 0x2b
 13665 3809 0C140000 		.4byte	.LASF752
 13666 380d 03       		.byte	0x3
 13667 380e 2B       		.uleb128 0x2b
 13668 380f 75230000 		.4byte	.LASF753
 13669 3813 04       		.byte	0x4
 13670 3814 2B       		.uleb128 0x2b
 13671 3815 47130000 		.4byte	.LASF754
 13672 3819 05       		.byte	0x5
 13673 381a 00       		.byte	0
 13674 381b 07       		.uleb128 0x7
 13675 381c 23190000 		.4byte	.LASF755
 13676 3820 37       		.byte	0x37
 13677 3821 2C01     		.2byte	0x12c
 13678 3823 E8370000 		.4byte	0x37e8
 13679 3827 1D       		.uleb128 0x1d
 13680 3828 08       		.byte	0x8
 13681 3829 37       		.byte	0x37
 13682 382a 3101     		.2byte	0x131
 13683 382c 4B380000 		.4byte	0x384b
 13684 3830 1A       		.uleb128 0x1a
 13685 3831 B6250000 		.4byte	.LASF756
 13686 3835 37       		.byte	0x37
 13687 3836 3501     		.2byte	0x135
 13688 3838 B8000000 		.4byte	0xb8
 13689 383c 00       		.byte	0
 13690 383d 1A       		.uleb128 0x1a
 13691 383e B6040000 		.4byte	.LASF757
 13692 3842 37       		.byte	0x37
 13693 3843 3901     		.2byte	0x139
 13694 3845 461F0000 		.4byte	0x1f46
 13695 3849 04       		.byte	0x4
 13696 384a 00       		.byte	0
 13697 384b 07       		.uleb128 0x7
 13698 384c 03150000 		.4byte	.LASF758
 13699 3850 37       		.byte	0x37
ARM GAS  C:\Users\Moi\AppData\Local\Temp\ccF5N8ze.s 			page 247


 13700 3851 3A01     		.2byte	0x13a
 13701 3853 27380000 		.4byte	0x3827
 13702 3857 0F       		.uleb128 0xf
 13703 3858 4B380000 		.4byte	0x384b
 13704 385c 07       		.uleb128 0x7
 13705 385d 3F250000 		.4byte	.LASF759
 13706 3861 37       		.byte	0x37
 13707 3862 4201     		.2byte	0x142
 13708 3864 68380000 		.4byte	0x3868
 13709 3868 05       		.uleb128 0x5
 13710 3869 04       		.byte	0x4
 13711 386a 6E380000 		.4byte	0x386e
 13712 386e 20       		.uleb128 0x20
 13713 386f 79380000 		.4byte	0x3879
 13714 3873 18       		.uleb128 0x18
 13715 3874 79380000 		.4byte	0x3879
 13716 3878 00       		.byte	0
 13717 3879 05       		.uleb128 0x5
 13718 387a 04       		.byte	0x4
 13719 387b 28360000 		.4byte	0x3628
 13720 387f 07       		.uleb128 0x7
 13721 3880 2E050000 		.4byte	.LASF760
 13722 3884 37       		.byte	0x37
 13723 3885 4B01     		.2byte	0x14b
 13724 3887 8B380000 		.4byte	0x388b
 13725 388b 05       		.uleb128 0x5
 13726 388c 04       		.byte	0x4
 13727 388d 91380000 		.4byte	0x3891
 13728 3891 20       		.uleb128 0x20
 13729 3892 A1380000 		.4byte	0x38a1
 13730 3896 18       		.uleb128 0x18
 13731 3897 79380000 		.4byte	0x3879
 13732 389b 18       		.uleb128 0x18
 13733 389c 5F370000 		.4byte	0x375f
 13734 38a0 00       		.byte	0
 13735 38a1 07       		.uleb128 0x7
 13736 38a2 360B0000 		.4byte	.LASF761
 13737 38a6 37       		.byte	0x37
 13738 38a7 5401     		.2byte	0x154
 13739 38a9 AD380000 		.4byte	0x38ad
 13740 38ad 05       		.uleb128 0x5
 13741 38ae 04       		.byte	0x4
 13742 38af B3380000 		.4byte	0x38b3
 13743 38b3 20       		.uleb128 0x20
 13744 38b4 C3380000 		.4byte	0x38c3
 13745 38b8 18       		.uleb128 0x18
 13746 38b9 79380000 		.4byte	0x3879
 13747 38bd 18       		.uleb128 0x18
 13748 38be 1B380000 		.4byte	0x381b
 13749 38c2 00       		.byte	0
 13750 38c3 07       		.uleb128 0x7
 13751 38c4 97060000 		.4byte	.LASF762
 13752 38c8 37       		.byte	0x37
 13753 38c9 6001     		.2byte	0x160
 13754 38cb CF380000 		.4byte	0x38cf
 13755 38cf 05       		.uleb128 0x5
 13756 38d0 04       		.byte	0x4
ARM GAS  C:\Users\Moi\AppData\Local\Temp\ccF5N8ze.s 			page 248


 13757 38d1 D5380000 		.4byte	0x38d5
 13758 38d5 17       		.uleb128 0x17
 13759 38d6 A2020000 		.4byte	0x2a2
 13760 38da E4380000 		.4byte	0x38e4
 13761 38de 18       		.uleb128 0x18
 13762 38df 79380000 		.4byte	0x3879
 13763 38e3 00       		.byte	0
 13764 38e4 07       		.uleb128 0x7
 13765 38e5 840F0000 		.4byte	.LASF763
 13766 38e9 37       		.byte	0x37
 13767 38ea 6501     		.2byte	0x165
 13768 38ec F0380000 		.4byte	0x38f0
 13769 38f0 05       		.uleb128 0x5
 13770 38f1 04       		.byte	0x4
 13771 38f2 F6380000 		.4byte	0x38f6
 13772 38f6 17       		.uleb128 0x17
 13773 38f7 14390000 		.4byte	0x3914
 13774 38fb 14390000 		.4byte	0x3914
 13775 38ff 18       		.uleb128 0x18
 13776 3900 79380000 		.4byte	0x3879
 13777 3904 18       		.uleb128 0x18
 13778 3905 75010000 		.4byte	0x175
 13779 3909 18       		.uleb128 0x18
 13780 390a 75010000 		.4byte	0x175
 13781 390e 18       		.uleb128 0x18
 13782 390f 90010000 		.4byte	0x190
 13783 3913 00       		.byte	0
 13784 3914 05       		.uleb128 0x5
 13785 3915 04       		.byte	0x4
 13786 3916 57380000 		.4byte	0x3857
 13787 391a 0C       		.uleb128 0xc
 13788 391b 20       		.byte	0x20
 13789 391c 39       		.byte	0x39
 13790 391d 35       		.byte	0x35
 13791 391e 83390000 		.4byte	0x3983
 13792 3922 0D       		.uleb128 0xd
 13793 3923 97030000 		.4byte	.LASF764
 13794 3927 39       		.byte	0x39
 13795 3928 36       		.byte	0x36
 13796 3929 B6010000 		.4byte	0x1b6
 13797 392d 00       		.byte	0
 13798 392e 0D       		.uleb128 0xd
 13799 392f 340D0000 		.4byte	.LASF765
 13800 3933 39       		.byte	0x39
 13801 3934 38       		.byte	0x38
 13802 3935 B6010000 		.4byte	0x1b6
 13803 3939 04       		.byte	0x4
 13804 393a 0D       		.uleb128 0xd
 13805 393b EF020000 		.4byte	.LASF766
 13806 393f 39       		.byte	0x39
 13807 3940 39       		.byte	0x39
 13808 3941 B6010000 		.4byte	0x1b6
 13809 3945 08       		.byte	0x8
 13810 3946 0D       		.uleb128 0xd
 13811 3947 931B0000 		.4byte	.LASF767
 13812 394b 39       		.byte	0x39
 13813 394c 3A       		.byte	0x3a
ARM GAS  C:\Users\Moi\AppData\Local\Temp\ccF5N8ze.s 			page 249


 13814 394d B6010000 		.4byte	0x1b6
 13815 3951 0C       		.byte	0xc
 13816 3952 0D       		.uleb128 0xd
 13817 3953 6A130000 		.4byte	.LASF768
 13818 3957 39       		.byte	0x39
 13819 3958 3C       		.byte	0x3c
 13820 3959 B6010000 		.4byte	0x1b6
 13821 395d 10       		.byte	0x10
 13822 395e 0D       		.uleb128 0xd
 13823 395f 870D0000 		.4byte	.LASF769
 13824 3963 39       		.byte	0x39
 13825 3964 3E       		.byte	0x3e
 13826 3965 B6010000 		.4byte	0x1b6
 13827 3969 14       		.byte	0x14
 13828 396a 0D       		.uleb128 0xd
 13829 396b 9A0D0000 		.4byte	.LASF770
 13830 396f 39       		.byte	0x39
 13831 3970 3F       		.byte	0x3f
 13832 3971 B6010000 		.4byte	0x1b6
 13833 3975 18       		.byte	0x18
 13834 3976 0D       		.uleb128 0xd
 13835 3977 34040000 		.4byte	.LASF771
 13836 397b 39       		.byte	0x39
 13837 397c 40       		.byte	0x40
 13838 397d B6010000 		.4byte	0x1b6
 13839 3981 1C       		.byte	0x1c
 13840 3982 00       		.byte	0
 13841 3983 02       		.uleb128 0x2
 13842 3984 431B0000 		.4byte	.LASF772
 13843 3988 39       		.byte	0x39
 13844 3989 41       		.byte	0x41
 13845 398a 1A390000 		.4byte	0x391a
 13846 398e 0C       		.uleb128 0xc
 13847 398f 20       		.byte	0x20
 13848 3990 39       		.byte	0x39
 13849 3991 46       		.byte	0x46
 13850 3992 F7390000 		.4byte	0x39f7
 13851 3996 0D       		.uleb128 0xd
 13852 3997 F10D0000 		.4byte	.LASF773
 13853 399b 39       		.byte	0x39
 13854 399c 47       		.byte	0x47
 13855 399d B6010000 		.4byte	0x1b6
 13856 39a1 00       		.byte	0
 13857 39a2 0D       		.uleb128 0xd
 13858 39a3 69110000 		.4byte	.LASF774
 13859 39a7 39       		.byte	0x39
 13860 39a8 49       		.byte	0x49
 13861 39a9 B6010000 		.4byte	0x1b6
 13862 39ad 04       		.byte	0x4
 13863 39ae 0D       		.uleb128 0xd
 13864 39af 97200000 		.4byte	.LASF775
 13865 39b3 39       		.byte	0x39
 13866 39b4 4A       		.byte	0x4a
 13867 39b5 B6010000 		.4byte	0x1b6
 13868 39b9 08       		.byte	0x8
 13869 39ba 0D       		.uleb128 0xd
 13870 39bb 8D110000 		.4byte	.LASF776
ARM GAS  C:\Users\Moi\AppData\Local\Temp\ccF5N8ze.s 			page 250


 13871 39bf 39       		.byte	0x39
 13872 39c0 4C       		.byte	0x4c
 13873 39c1 B6010000 		.4byte	0x1b6
 13874 39c5 0C       		.byte	0xc
 13875 39c6 0D       		.uleb128 0xd
 13876 39c7 97160000 		.4byte	.LASF777
 13877 39cb 39       		.byte	0x39
 13878 39cc 4D       		.byte	0x4d
 13879 39cd B6010000 		.4byte	0x1b6
 13880 39d1 10       		.byte	0x10
 13881 39d2 0D       		.uleb128 0xd
 13882 39d3 870D0000 		.4byte	.LASF769
 13883 39d7 39       		.byte	0x39
 13884 39d8 4F       		.byte	0x4f
 13885 39d9 B6010000 		.4byte	0x1b6
 13886 39dd 14       		.byte	0x14
 13887 39de 0D       		.uleb128 0xd
 13888 39df 47070000 		.4byte	.LASF778
 13889 39e3 39       		.byte	0x39
 13890 39e4 50       		.byte	0x50
 13891 39e5 B6010000 		.4byte	0x1b6
 13892 39e9 18       		.byte	0x18
 13893 39ea 0D       		.uleb128 0xd
 13894 39eb 80200000 		.4byte	.LASF779
 13895 39ef 39       		.byte	0x39
 13896 39f0 52       		.byte	0x52
 13897 39f1 B6010000 		.4byte	0x1b6
 13898 39f5 1C       		.byte	0x1c
 13899 39f6 00       		.byte	0
 13900 39f7 02       		.uleb128 0x2
 13901 39f8 84080000 		.4byte	.LASF780
 13902 39fc 39       		.byte	0x39
 13903 39fd 53       		.byte	0x53
 13904 39fe 8E390000 		.4byte	0x398e
 13905 3a02 0C       		.uleb128 0xc
 13906 3a03 20       		.byte	0x20
 13907 3a04 39       		.byte	0x39
 13908 3a05 58       		.byte	0x58
 13909 3a06 6B3A0000 		.4byte	0x3a6b
 13910 3a0a 0D       		.uleb128 0xd
 13911 3a0b 3B140000 		.4byte	.LASF781
 13912 3a0f 39       		.byte	0x39
 13913 3a10 59       		.byte	0x59
 13914 3a11 B6010000 		.4byte	0x1b6
 13915 3a15 00       		.byte	0
 13916 3a16 0D       		.uleb128 0xd
 13917 3a17 69110000 		.4byte	.LASF774
 13918 3a1b 39       		.byte	0x39
 13919 3a1c 5B       		.byte	0x5b
 13920 3a1d B6010000 		.4byte	0x1b6
 13921 3a21 04       		.byte	0x4
 13922 3a22 0D       		.uleb128 0xd
 13923 3a23 FA170000 		.4byte	.LASF782
 13924 3a27 39       		.byte	0x39
 13925 3a28 5C       		.byte	0x5c
 13926 3a29 B6010000 		.4byte	0x1b6
 13927 3a2d 08       		.byte	0x8
ARM GAS  C:\Users\Moi\AppData\Local\Temp\ccF5N8ze.s 			page 251


 13928 3a2e 0D       		.uleb128 0xd
 13929 3a2f 8D110000 		.4byte	.LASF776
 13930 3a33 39       		.byte	0x39
 13931 3a34 5E       		.byte	0x5e
 13932 3a35 B6010000 		.4byte	0x1b6
 13933 3a39 0C       		.byte	0xc
 13934 3a3a 0D       		.uleb128 0xd
 13935 3a3b C7210000 		.4byte	.LASF783
 13936 3a3f 39       		.byte	0x39
 13937 3a40 5F       		.byte	0x5f
 13938 3a41 B6010000 		.4byte	0x1b6
 13939 3a45 10       		.byte	0x10
 13940 3a46 0D       		.uleb128 0xd
 13941 3a47 870D0000 		.4byte	.LASF769
 13942 3a4b 39       		.byte	0x39
 13943 3a4c 61       		.byte	0x61
 13944 3a4d B6010000 		.4byte	0x1b6
 13945 3a51 14       		.byte	0x14
 13946 3a52 0D       		.uleb128 0xd
 13947 3a53 9A0D0000 		.4byte	.LASF770
 13948 3a57 39       		.byte	0x39
 13949 3a58 62       		.byte	0x62
 13950 3a59 B6010000 		.4byte	0x1b6
 13951 3a5d 18       		.byte	0x18
 13952 3a5e 0D       		.uleb128 0xd
 13953 3a5f 80200000 		.4byte	.LASF779
 13954 3a63 39       		.byte	0x39
 13955 3a64 63       		.byte	0x63
 13956 3a65 B6010000 		.4byte	0x1b6
 13957 3a69 1C       		.byte	0x1c
 13958 3a6a 00       		.byte	0
 13959 3a6b 02       		.uleb128 0x2
 13960 3a6c 19080000 		.4byte	.LASF784
 13961 3a70 39       		.byte	0x39
 13962 3a71 64       		.byte	0x64
 13963 3a72 023A0000 		.4byte	0x3a02
 13964 3a76 2D       		.uleb128 0x2d
 13965 3a77 00100100 		.4byte	0x11000
 13966 3a7b 39       		.byte	0x39
 13967 3a7c 69       		.byte	0x69
 13968 3a7d 533D0000 		.4byte	0x3d53
 13969 3a81 0D       		.uleb128 0xd
 13970 3a82 26050000 		.4byte	.LASF785
 13971 3a86 39       		.byte	0x39
 13972 3a87 6A       		.byte	0x6a
 13973 3a88 B6010000 		.4byte	0x1b6
 13974 3a8c 00       		.byte	0
 13975 3a8d 0D       		.uleb128 0xd
 13976 3a8e 220C0000 		.4byte	.LASF786
 13977 3a92 39       		.byte	0x39
 13978 3a93 6B       		.byte	0x6b
 13979 3a94 B6010000 		.4byte	0x1b6
 13980 3a98 04       		.byte	0x4
 13981 3a99 0D       		.uleb128 0xd
 13982 3a9a 96070000 		.4byte	.LASF787
 13983 3a9e 39       		.byte	0x39
 13984 3a9f 6C       		.byte	0x6c
ARM GAS  C:\Users\Moi\AppData\Local\Temp\ccF5N8ze.s 			page 252


 13985 3aa0 B6010000 		.4byte	0x1b6
 13986 3aa4 08       		.byte	0x8
 13987 3aa5 0D       		.uleb128 0xd
 13988 3aa6 53250000 		.4byte	.LASF788
 13989 3aaa 39       		.byte	0x39
 13990 3aab 6D       		.byte	0x6d
 13991 3aac B6010000 		.4byte	0x1b6
 13992 3ab0 0C       		.byte	0xc
 13993 3ab1 0D       		.uleb128 0xd
 13994 3ab2 16220000 		.4byte	.LASF789
 13995 3ab6 39       		.byte	0x39
 13996 3ab7 6E       		.byte	0x6e
 13997 3ab8 B6010000 		.4byte	0x1b6
 13998 3abc 10       		.byte	0x10
 13999 3abd 0D       		.uleb128 0xd
 14000 3abe F4030000 		.4byte	.LASF790
 14001 3ac2 39       		.byte	0x39
 14002 3ac3 6F       		.byte	0x6f
 14003 3ac4 B6010000 		.4byte	0x1b6
 14004 3ac8 14       		.byte	0x14
 14005 3ac9 0D       		.uleb128 0xd
 14006 3aca 2D1A0000 		.4byte	.LASF791
 14007 3ace 39       		.byte	0x39
 14008 3acf 70       		.byte	0x70
 14009 3ad0 B6010000 		.4byte	0x1b6
 14010 3ad4 18       		.byte	0x18
 14011 3ad5 0D       		.uleb128 0xd
 14012 3ad6 34080000 		.4byte	.LASF792
 14013 3ada 39       		.byte	0x39
 14014 3adb 71       		.byte	0x71
 14015 3adc B6010000 		.4byte	0x1b6
 14016 3ae0 1C       		.byte	0x1c
 14017 3ae1 0D       		.uleb128 0xd
 14018 3ae2 2C080000 		.4byte	.LASF793
 14019 3ae6 39       		.byte	0x39
 14020 3ae7 73       		.byte	0x73
 14021 3ae8 B6010000 		.4byte	0x1b6
 14022 3aec 20       		.byte	0x20
 14023 3aed 0D       		.uleb128 0xd
 14024 3aee 95190000 		.4byte	.LASF794
 14025 3af2 39       		.byte	0x39
 14026 3af3 75       		.byte	0x75
 14027 3af4 B6010000 		.4byte	0x1b6
 14028 3af8 24       		.byte	0x24
 14029 3af9 0D       		.uleb128 0xd
 14030 3afa D9000000 		.4byte	.LASF795
 14031 3afe 39       		.byte	0x39
 14032 3aff 76       		.byte	0x76
 14033 3b00 B6010000 		.4byte	0x1b6
 14034 3b04 28       		.byte	0x28
 14035 3b05 0D       		.uleb128 0xd
 14036 3b06 351A0000 		.4byte	.LASF796
 14037 3b0a 39       		.byte	0x39
 14038 3b0b 78       		.byte	0x78
 14039 3b0c B6010000 		.4byte	0x1b6
 14040 3b10 2C       		.byte	0x2c
 14041 3b11 0D       		.uleb128 0xd
ARM GAS  C:\Users\Moi\AppData\Local\Temp\ccF5N8ze.s 			page 253


 14042 3b12 C60E0000 		.4byte	.LASF797
 14043 3b16 39       		.byte	0x39
 14044 3b17 7A       		.byte	0x7a
 14045 3b18 B6010000 		.4byte	0x1b6
 14046 3b1c 30       		.byte	0x30
 14047 3b1d 0D       		.uleb128 0xd
 14048 3b1e B7230000 		.4byte	.LASF798
 14049 3b22 39       		.byte	0x39
 14050 3b23 7B       		.byte	0x7b
 14051 3b24 B6010000 		.4byte	0x1b6
 14052 3b28 34       		.byte	0x34
 14053 3b29 0D       		.uleb128 0xd
 14054 3b2a 00020000 		.4byte	.LASF799
 14055 3b2e 39       		.byte	0x39
 14056 3b2f 7C       		.byte	0x7c
 14057 3b30 B6010000 		.4byte	0x1b6
 14058 3b34 38       		.byte	0x38
 14059 3b35 13       		.uleb128 0x13
 14060 3b36 43494400 		.ascii	"CID\000"
 14061 3b3a 39       		.byte	0x39
 14062 3b3b 7D       		.byte	0x7d
 14063 3b3c B6010000 		.4byte	0x1b6
 14064 3b40 3C       		.byte	0x3c
 14065 3b41 0D       		.uleb128 0xd
 14066 3b42 6B100000 		.4byte	.LASF800
 14067 3b46 39       		.byte	0x39
 14068 3b47 7E       		.byte	0x7e
 14069 3b48 633D0000 		.4byte	0x3d63
 14070 3b4c 40       		.byte	0x40
 14071 3b4d 15       		.uleb128 0x15
 14072 3b4e A2220000 		.4byte	.LASF801
 14073 3b52 39       		.byte	0x39
 14074 3b53 7F       		.byte	0x7f
 14075 3b54 B6010000 		.4byte	0x1b6
 14076 3b58 0001     		.2byte	0x100
 14077 3b5a 15       		.uleb128 0x15
 14078 3b5b 7D020000 		.4byte	.LASF802
 14079 3b5f 39       		.byte	0x39
 14080 3b60 81       		.byte	0x81
 14081 3b61 2A190000 		.4byte	0x192a
 14082 3b65 0401     		.2byte	0x104
 14083 3b67 15       		.uleb128 0x15
 14084 3b68 DF130000 		.4byte	.LASF803
 14085 3b6c 39       		.byte	0x39
 14086 3b6d 83       		.byte	0x83
 14087 3b6e 783D0000 		.4byte	0x3d78
 14088 3b72 4001     		.2byte	0x140
 14089 3b74 15       		.uleb128 0x15
 14090 3b75 90170000 		.4byte	.LASF804
 14091 3b79 39       		.byte	0x39
 14092 3b7a 84       		.byte	0x84
 14093 3b7b B6010000 		.4byte	0x1b6
 14094 3b7f 0004     		.2byte	0x400
 14095 3b81 15       		.uleb128 0x15
 14096 3b82 E5240000 		.4byte	.LASF805
 14097 3b86 39       		.byte	0x39
 14098 3b87 85       		.byte	0x85
ARM GAS  C:\Users\Moi\AppData\Local\Temp\ccF5N8ze.s 			page 254


 14099 3b88 B6010000 		.4byte	0x1b6
 14100 3b8c 0404     		.2byte	0x404
 14101 3b8e 15       		.uleb128 0x15
 14102 3b8f 6A040000 		.4byte	.LASF806
 14103 3b93 39       		.byte	0x39
 14104 3b94 86       		.byte	0x86
 14105 3b95 B6010000 		.4byte	0x1b6
 14106 3b99 0804     		.2byte	0x408
 14107 3b9b 15       		.uleb128 0x15
 14108 3b9c 0D220000 		.4byte	.LASF807
 14109 3ba0 39       		.byte	0x39
 14110 3ba1 88       		.byte	0x88
 14111 3ba2 B6010000 		.4byte	0x1b6
 14112 3ba6 0C04     		.2byte	0x40c
 14113 3ba8 15       		.uleb128 0x15
 14114 3ba9 61030000 		.4byte	.LASF808
 14115 3bad 39       		.byte	0x39
 14116 3bae 89       		.byte	0x89
 14117 3baf B6010000 		.4byte	0x1b6
 14118 3bb3 1004     		.2byte	0x410
 14119 3bb5 15       		.uleb128 0x15
 14120 3bb6 47040000 		.4byte	.LASF809
 14121 3bba 39       		.byte	0x39
 14122 3bbb 8B       		.byte	0x8b
 14123 3bbc B6010000 		.4byte	0x1b6
 14124 3bc0 1404     		.2byte	0x414
 14125 3bc2 15       		.uleb128 0x15
 14126 3bc3 360C0000 		.4byte	.LASF810
 14127 3bc7 39       		.byte	0x39
 14128 3bc8 8D       		.byte	0x8d
 14129 3bc9 B6010000 		.4byte	0x1b6
 14130 3bcd 1804     		.2byte	0x418
 14131 3bcf 15       		.uleb128 0x15
 14132 3bd0 CA1C0000 		.4byte	.LASF811
 14133 3bd4 39       		.byte	0x39
 14134 3bd5 8F       		.byte	0x8f
 14135 3bd6 8D3D0000 		.4byte	0x3d8d
 14136 3bda 1C04     		.2byte	0x41c
 14137 3bdc 15       		.uleb128 0x15
 14138 3bdd EA020000 		.4byte	.LASF812
 14139 3be1 39       		.byte	0x39
 14140 3be2 90       		.byte	0x90
 14141 3be3 B6010000 		.4byte	0x1b6
 14142 3be7 4004     		.2byte	0x440
 14143 3be9 15       		.uleb128 0x15
 14144 3bea B61F0000 		.4byte	.LASF813
 14145 3bee 39       		.byte	0x39
 14146 3bef 92       		.byte	0x92
 14147 3bf0 A23D0000 		.4byte	0x3da2
 14148 3bf4 4404     		.2byte	0x444
 14149 3bf6 2E       		.uleb128 0x2e
 14150 3bf7 686300   		.ascii	"hc\000"
 14151 3bfa 39       		.byte	0x39
 14152 3bfb 93       		.byte	0x93
 14153 3bfc A73D0000 		.4byte	0x3da7
 14154 3c00 0005     		.2byte	0x500
 14155 3c02 15       		.uleb128 0x15
ARM GAS  C:\Users\Moi\AppData\Local\Temp\ccF5N8ze.s 			page 255


 14156 3c03 5E220000 		.4byte	.LASF814
 14157 3c07 39       		.byte	0x39
 14158 3c08 94       		.byte	0x94
 14159 3c09 C73D0000 		.4byte	0x3dc7
 14160 3c0d 0007     		.2byte	0x700
 14161 3c0f 15       		.uleb128 0x15
 14162 3c10 FC190000 		.4byte	.LASF815
 14163 3c14 39       		.byte	0x39
 14164 3c15 95       		.byte	0x95
 14165 3c16 B6010000 		.4byte	0x1b6
 14166 3c1a 0008     		.2byte	0x800
 14167 3c1c 15       		.uleb128 0x15
 14168 3c1d 55230000 		.4byte	.LASF816
 14169 3c21 39       		.byte	0x39
 14170 3c22 96       		.byte	0x96
 14171 3c23 B6010000 		.4byte	0x1b6
 14172 3c27 0408     		.2byte	0x804
 14173 3c29 15       		.uleb128 0x15
 14174 3c2a ED050000 		.4byte	.LASF817
 14175 3c2e 39       		.byte	0x39
 14176 3c2f 97       		.byte	0x97
 14177 3c30 B6010000 		.4byte	0x1b6
 14178 3c34 0808     		.2byte	0x808
 14179 3c36 15       		.uleb128 0x15
 14180 3c37 E8040000 		.4byte	.LASF818
 14181 3c3b 39       		.byte	0x39
 14182 3c3c 98       		.byte	0x98
 14183 3c3d B6010000 		.4byte	0x1b6
 14184 3c41 0C08     		.2byte	0x80c
 14185 3c43 15       		.uleb128 0x15
 14186 3c44 1A0C0000 		.4byte	.LASF819
 14187 3c48 39       		.byte	0x39
 14188 3c49 99       		.byte	0x99
 14189 3c4a B6010000 		.4byte	0x1b6
 14190 3c4e 1008     		.2byte	0x810
 14191 3c50 15       		.uleb128 0x15
 14192 3c51 B8200000 		.4byte	.LASF820
 14193 3c55 39       		.byte	0x39
 14194 3c56 9B       		.byte	0x9b
 14195 3c57 B6010000 		.4byte	0x1b6
 14196 3c5b 1408     		.2byte	0x814
 14197 3c5d 15       		.uleb128 0x15
 14198 3c5e 27210000 		.4byte	.LASF821
 14199 3c62 39       		.byte	0x39
 14200 3c63 9D       		.byte	0x9d
 14201 3c64 B6010000 		.4byte	0x1b6
 14202 3c68 1808     		.2byte	0x818
 14203 3c6a 15       		.uleb128 0x15
 14204 3c6b 971E0000 		.4byte	.LASF822
 14205 3c6f 39       		.byte	0x39
 14206 3c70 9F       		.byte	0x9f
 14207 3c71 B6010000 		.4byte	0x1b6
 14208 3c75 1C08     		.2byte	0x81c
 14209 3c77 15       		.uleb128 0x15
 14210 3c78 5D060000 		.4byte	.LASF823
 14211 3c7c 39       		.byte	0x39
 14212 3c7d A1       		.byte	0xa1
ARM GAS  C:\Users\Moi\AppData\Local\Temp\ccF5N8ze.s 			page 256


 14213 3c7e B6010000 		.4byte	0x1b6
 14214 3c82 2008     		.2byte	0x820
 14215 3c84 15       		.uleb128 0x15
 14216 3c85 51050000 		.4byte	.LASF824
 14217 3c89 39       		.byte	0x39
 14218 3c8a A2       		.byte	0xa2
 14219 3c8b B6010000 		.4byte	0x1b6
 14220 3c8f 2408     		.2byte	0x824
 14221 3c91 15       		.uleb128 0x15
 14222 3c92 091A0000 		.4byte	.LASF825
 14223 3c96 39       		.byte	0x39
 14224 3c97 A3       		.byte	0xa3
 14225 3c98 B6010000 		.4byte	0x1b6
 14226 3c9c 2808     		.2byte	0x828
 14227 3c9e 15       		.uleb128 0x15
 14228 3c9f E40E0000 		.4byte	.LASF826
 14229 3ca3 39       		.byte	0x39
 14230 3ca4 A5       		.byte	0xa5
 14231 3ca5 B6010000 		.4byte	0x1b6
 14232 3ca9 2C08     		.2byte	0x82c
 14233 3cab 15       		.uleb128 0x15
 14234 3cac F0060000 		.4byte	.LASF827
 14235 3cb0 39       		.byte	0x39
 14236 3cb1 A7       		.byte	0xa7
 14237 3cb2 B6010000 		.4byte	0x1b6
 14238 3cb6 3008     		.2byte	0x830
 14239 3cb8 15       		.uleb128 0x15
 14240 3cb9 D70D0000 		.4byte	.LASF828
 14241 3cbd 39       		.byte	0x39
 14242 3cbe A8       		.byte	0xa8
 14243 3cbf B6010000 		.4byte	0x1b6
 14244 3cc3 3408     		.2byte	0x834
 14245 3cc5 15       		.uleb128 0x15
 14246 3cc6 FE060000 		.4byte	.LASF829
 14247 3cca 39       		.byte	0x39
 14248 3ccb AA       		.byte	0xaa
 14249 3ccc B6010000 		.4byte	0x1b6
 14250 3cd0 3808     		.2byte	0x838
 14251 3cd2 15       		.uleb128 0x15
 14252 3cd3 1D070000 		.4byte	.LASF830
 14253 3cd7 39       		.byte	0x39
 14254 3cd8 AB       		.byte	0xab
 14255 3cd9 B6010000 		.4byte	0x1b6
 14256 3cdd 3C08     		.2byte	0x83c
 14257 3cdf 15       		.uleb128 0x15
 14258 3ce0 B4070000 		.4byte	.LASF831
 14259 3ce4 39       		.byte	0x39
 14260 3ce5 AC       		.byte	0xac
 14261 3ce6 DC3D0000 		.4byte	0x3ddc
 14262 3cea 4008     		.2byte	0x840
 14263 3cec 15       		.uleb128 0x15
 14264 3ced 510D0000 		.4byte	.LASF832
 14265 3cf1 39       		.byte	0x39
 14266 3cf2 AD       		.byte	0xad
 14267 3cf3 DC3D0000 		.4byte	0x3ddc
 14268 3cf7 8008     		.2byte	0x880
 14269 3cf9 15       		.uleb128 0x15
ARM GAS  C:\Users\Moi\AppData\Local\Temp\ccF5N8ze.s 			page 257


 14270 3cfa 7A110000 		.4byte	.LASF833
 14271 3cfe 39       		.byte	0x39
 14272 3cff AE       		.byte	0xae
 14273 3d00 DC3D0000 		.4byte	0x3ddc
 14274 3d04 C008     		.2byte	0x8c0
 14275 3d06 2E       		.uleb128 0x2e
 14276 3d07 696500   		.ascii	"ie\000"
 14277 3d0a 39       		.byte	0x39
 14278 3d0b AF       		.byte	0xaf
 14279 3d0c E13D0000 		.4byte	0x3de1
 14280 3d10 0009     		.2byte	0x900
 14281 3d12 2E       		.uleb128 0x2e
 14282 3d13 6F6500   		.ascii	"oe\000"
 14283 3d16 39       		.byte	0x39
 14284 3d17 B0       		.byte	0xb0
 14285 3d18 F13D0000 		.4byte	0x3df1
 14286 3d1c 000B     		.2byte	0xb00
 14287 3d1e 15       		.uleb128 0x15
 14288 3d1f 9F0B0000 		.4byte	.LASF834
 14289 3d23 39       		.byte	0x39
 14290 3d24 B1       		.byte	0xb1
 14291 3d25 C73D0000 		.4byte	0x3dc7
 14292 3d29 000D     		.2byte	0xd00
 14293 3d2b 15       		.uleb128 0x15
 14294 3d2c 6D230000 		.4byte	.LASF835
 14295 3d30 39       		.byte	0x39
 14296 3d31 B2       		.byte	0xb2
 14297 3d32 B6010000 		.4byte	0x1b6
 14298 3d36 000E     		.2byte	0xe00
 14299 3d38 15       		.uleb128 0x15
 14300 3d39 19170000 		.4byte	.LASF836
 14301 3d3d 39       		.byte	0x39
 14302 3d3e B4       		.byte	0xb4
 14303 3d3f 113E0000 		.4byte	0x3e11
 14304 3d43 040E     		.2byte	0xe04
 14305 3d45 15       		.uleb128 0x15
 14306 3d46 B0090000 		.4byte	.LASF339
 14307 3d4a 39       		.byte	0x39
 14308 3d4b B5       		.byte	0xb5
 14309 3d4c 2D3E0000 		.4byte	0x3e2d
 14310 3d50 0010     		.2byte	0x1000
 14311 3d52 00       		.byte	0
 14312 3d53 0A       		.uleb128 0xa
 14313 3d54 B6010000 		.4byte	0x1b6
 14314 3d58 633D0000 		.4byte	0x3d63
 14315 3d5c 0B       		.uleb128 0xb
 14316 3d5d B1000000 		.4byte	0xb1
 14317 3d61 2F       		.byte	0x2f
 14318 3d62 00       		.byte	0
 14319 3d63 10       		.uleb128 0x10
 14320 3d64 533D0000 		.4byte	0x3d53
 14321 3d68 0A       		.uleb128 0xa
 14322 3d69 B6010000 		.4byte	0x1b6
 14323 3d6d 783D0000 		.4byte	0x3d78
 14324 3d71 0B       		.uleb128 0xb
 14325 3d72 B1000000 		.4byte	0xb1
 14326 3d76 AF       		.byte	0xaf
ARM GAS  C:\Users\Moi\AppData\Local\Temp\ccF5N8ze.s 			page 258


 14327 3d77 00       		.byte	0
 14328 3d78 10       		.uleb128 0x10
 14329 3d79 683D0000 		.4byte	0x3d68
 14330 3d7d 0A       		.uleb128 0xa
 14331 3d7e B6010000 		.4byte	0x1b6
 14332 3d82 8D3D0000 		.4byte	0x3d8d
 14333 3d86 0B       		.uleb128 0xb
 14334 3d87 B1000000 		.4byte	0xb1
 14335 3d8b 08       		.byte	0x8
 14336 3d8c 00       		.byte	0
 14337 3d8d 10       		.uleb128 0x10
 14338 3d8e 7D3D0000 		.4byte	0x3d7d
 14339 3d92 0A       		.uleb128 0xa
 14340 3d93 B6010000 		.4byte	0x1b6
 14341 3d97 A23D0000 		.4byte	0x3da2
 14342 3d9b 0B       		.uleb128 0xb
 14343 3d9c B1000000 		.4byte	0xb1
 14344 3da0 2E       		.byte	0x2e
 14345 3da1 00       		.byte	0
 14346 3da2 10       		.uleb128 0x10
 14347 3da3 923D0000 		.4byte	0x3d92
 14348 3da7 0A       		.uleb128 0xa
 14349 3da8 83390000 		.4byte	0x3983
 14350 3dac B73D0000 		.4byte	0x3db7
 14351 3db0 0B       		.uleb128 0xb
 14352 3db1 B1000000 		.4byte	0xb1
 14353 3db5 0F       		.byte	0xf
 14354 3db6 00       		.byte	0
 14355 3db7 0A       		.uleb128 0xa
 14356 3db8 B6010000 		.4byte	0x1b6
 14357 3dbc C73D0000 		.4byte	0x3dc7
 14358 3dc0 0B       		.uleb128 0xb
 14359 3dc1 B1000000 		.4byte	0xb1
 14360 3dc5 3F       		.byte	0x3f
 14361 3dc6 00       		.byte	0
 14362 3dc7 10       		.uleb128 0x10
 14363 3dc8 B73D0000 		.4byte	0x3db7
 14364 3dcc 0A       		.uleb128 0xa
 14365 3dcd B6010000 		.4byte	0x1b6
 14366 3dd1 DC3D0000 		.4byte	0x3ddc
 14367 3dd5 0B       		.uleb128 0xb
 14368 3dd6 B1000000 		.4byte	0xb1
 14369 3dda 0F       		.byte	0xf
 14370 3ddb 00       		.byte	0
 14371 3ddc 10       		.uleb128 0x10
 14372 3ddd CC3D0000 		.4byte	0x3dcc
 14373 3de1 0A       		.uleb128 0xa
 14374 3de2 F7390000 		.4byte	0x39f7
 14375 3de6 F13D0000 		.4byte	0x3df1
 14376 3dea 0B       		.uleb128 0xb
 14377 3deb B1000000 		.4byte	0xb1
 14378 3def 0F       		.byte	0xf
 14379 3df0 00       		.byte	0
 14380 3df1 0A       		.uleb128 0xa
 14381 3df2 6B3A0000 		.4byte	0x3a6b
 14382 3df6 013E0000 		.4byte	0x3e01
 14383 3dfa 0B       		.uleb128 0xb
ARM GAS  C:\Users\Moi\AppData\Local\Temp\ccF5N8ze.s 			page 259


 14384 3dfb B1000000 		.4byte	0xb1
 14385 3dff 0F       		.byte	0xf
 14386 3e00 00       		.byte	0
 14387 3e01 0A       		.uleb128 0xa
 14388 3e02 B6010000 		.4byte	0x1b6
 14389 3e06 113E0000 		.4byte	0x3e11
 14390 3e0a 0B       		.uleb128 0xb
 14391 3e0b B1000000 		.4byte	0xb1
 14392 3e0f 7E       		.byte	0x7e
 14393 3e10 00       		.byte	0
 14394 3e11 10       		.uleb128 0x10
 14395 3e12 013E0000 		.4byte	0x3e01
 14396 3e16 0A       		.uleb128 0xa
 14397 3e17 B6010000 		.4byte	0x1b6
 14398 3e1b 2D3E0000 		.4byte	0x3e2d
 14399 3e1f 0B       		.uleb128 0xb
 14400 3e20 B1000000 		.4byte	0xb1
 14401 3e24 0F       		.byte	0xf
 14402 3e25 2F       		.uleb128 0x2f
 14403 3e26 B1000000 		.4byte	0xb1
 14404 3e2a FF03     		.2byte	0x3ff
 14405 3e2c 00       		.byte	0
 14406 3e2d 10       		.uleb128 0x10
 14407 3e2e 163E0000 		.4byte	0x3e16
 14408 3e32 02       		.uleb128 0x2
 14409 3e33 80250000 		.4byte	.LASF837
 14410 3e37 39       		.byte	0x39
 14411 3e38 B6       		.byte	0xb6
 14412 3e39 763A0000 		.4byte	0x3a76
 14413 3e3d 0C       		.uleb128 0xc
 14414 3e3e 0C       		.byte	0xc
 14415 3e3f 38       		.byte	0x38
 14416 3e40 C6       		.byte	0xc6
 14417 3e41 6A3E0000 		.4byte	0x3e6a
 14418 3e45 0D       		.uleb128 0xd
 14419 3e46 37090000 		.4byte	.LASF838
 14420 3e4a 38       		.byte	0x38
 14421 3e4b C7       		.byte	0xc7
 14422 3e4c AB010000 		.4byte	0x1ab
 14423 3e50 00       		.byte	0
 14424 3e51 0D       		.uleb128 0xd
 14425 3e52 760B0000 		.4byte	.LASF839
 14426 3e56 38       		.byte	0x38
 14427 3e57 C8       		.byte	0xc8
 14428 3e58 AB010000 		.4byte	0x1ab
 14429 3e5c 04       		.byte	0x4
 14430 3e5d 0D       		.uleb128 0xd
 14431 3e5e 440F0000 		.4byte	.LASF840
 14432 3e62 38       		.byte	0x38
 14433 3e63 C9       		.byte	0xc9
 14434 3e64 AB010000 		.4byte	0x1ab
 14435 3e68 08       		.byte	0x8
 14436 3e69 00       		.byte	0
 14437 3e6a 02       		.uleb128 0x2
 14438 3e6b 8C0B0000 		.4byte	.LASF841
 14439 3e6f 38       		.byte	0x38
 14440 3e70 CA       		.byte	0xca
ARM GAS  C:\Users\Moi\AppData\Local\Temp\ccF5N8ze.s 			page 260


 14441 3e71 3D3E0000 		.4byte	0x3e3d
 14442 3e75 0F       		.uleb128 0xf
 14443 3e76 6A3E0000 		.4byte	0x3e6a
 14444 3e7a 0C       		.uleb128 0xc
 14445 3e7b 04       		.byte	0x4
 14446 3e7c 38       		.byte	0x38
 14447 3e7d DD       		.byte	0xdd
 14448 3e7e 8F3E0000 		.4byte	0x3e8f
 14449 3e82 0D       		.uleb128 0xd
 14450 3e83 67230000 		.4byte	.LASF842
 14451 3e87 38       		.byte	0x38
 14452 3e88 E1       		.byte	0xe1
 14453 3e89 461F0000 		.4byte	0x1f46
 14454 3e8d 00       		.byte	0
 14455 3e8e 00       		.byte	0
 14456 3e8f 0C       		.uleb128 0xc
 14457 3e90 04       		.byte	0x4
 14458 3e91 38       		.byte	0x38
 14459 3e92 E3       		.byte	0xe3
 14460 3e93 A43E0000 		.4byte	0x3ea4
 14461 3e97 0D       		.uleb128 0xd
 14462 3e98 B5090000 		.4byte	.LASF528
 14463 3e9c 38       		.byte	0x38
 14464 3e9d E7       		.byte	0xe7
 14465 3e9e A43E0000 		.4byte	0x3ea4
 14466 3ea2 00       		.byte	0
 14467 3ea3 00       		.byte	0
 14468 3ea4 05       		.uleb128 0x5
 14469 3ea5 04       		.byte	0x4
 14470 3ea6 221F0000 		.4byte	0x1f22
 14471 3eaa 08       		.uleb128 0x8
 14472 3eab 04       		.byte	0x4
 14473 3eac 38       		.byte	0x38
 14474 3ead DC       		.byte	0xdc
 14475 3eae C93E0000 		.4byte	0x3ec9
 14476 3eb2 09       		.uleb128 0x9
 14477 3eb3 EB1F0000 		.4byte	.LASF843
 14478 3eb7 38       		.byte	0x38
 14479 3eb8 E2       		.byte	0xe2
 14480 3eb9 7A3E0000 		.4byte	0x3e7a
 14481 3ebd 09       		.uleb128 0x9
 14482 3ebe ED1E0000 		.4byte	.LASF844
 14483 3ec2 38       		.byte	0x38
 14484 3ec3 E8       		.byte	0xe8
 14485 3ec4 8F3E0000 		.4byte	0x3e8f
 14486 3ec8 00       		.byte	0
 14487 3ec9 0C       		.uleb128 0xc
 14488 3eca 14       		.byte	0x14
 14489 3ecb 38       		.byte	0x38
 14490 3ecc CF       		.byte	0xcf
 14491 3ecd 0E3F0000 		.4byte	0x3f0e
 14492 3ed1 0D       		.uleb128 0xd
 14493 3ed2 FD070000 		.4byte	.LASF845
 14494 3ed6 38       		.byte	0x38
 14495 3ed7 D3       		.byte	0xd3
 14496 3ed8 A2020000 		.4byte	0x2a2
 14497 3edc 00       		.byte	0
ARM GAS  C:\Users\Moi\AppData\Local\Temp\ccF5N8ze.s 			page 261


 14498 3edd 0D       		.uleb128 0xd
 14499 3ede A7120000 		.4byte	.LASF846
 14500 3ee2 38       		.byte	0x38
 14501 3ee3 D7       		.byte	0xd7
 14502 3ee4 B8000000 		.4byte	0xb8
 14503 3ee8 04       		.byte	0x4
 14504 3ee9 0D       		.uleb128 0xd
 14505 3eea 260B0000 		.4byte	.LASF847
 14506 3eee 38       		.byte	0x38
 14507 3eef DB       		.byte	0xdb
 14508 3ef0 B8000000 		.4byte	0xb8
 14509 3ef4 08       		.byte	0x8
 14510 3ef5 0D       		.uleb128 0xd
 14511 3ef6 BB080000 		.4byte	.LASF574
 14512 3efa 38       		.byte	0x38
 14513 3efb E9       		.byte	0xe9
 14514 3efc AA3E0000 		.4byte	0x3eaa
 14515 3f00 0C       		.byte	0xc
 14516 3f01 0D       		.uleb128 0xd
 14517 3f02 5C0F0000 		.4byte	.LASF848
 14518 3f06 38       		.byte	0x38
 14519 3f07 ED       		.byte	0xed
 14520 3f08 B8000000 		.4byte	0xb8
 14521 3f0c 10       		.byte	0x10
 14522 3f0d 00       		.byte	0
 14523 3f0e 02       		.uleb128 0x2
 14524 3f0f 73100000 		.4byte	.LASF849
 14525 3f13 38       		.byte	0x38
 14526 3f14 EE       		.byte	0xee
 14527 3f15 C93E0000 		.4byte	0x3ec9
 14528 3f19 1D       		.uleb128 0x1d
 14529 3f1a 04       		.byte	0x4
 14530 3f1b 38       		.byte	0x38
 14531 3f1c 0101     		.2byte	0x101
 14532 3f1e 303F0000 		.4byte	0x3f30
 14533 3f22 1A       		.uleb128 0x1a
 14534 3f23 AF0B0000 		.4byte	.LASF850
 14535 3f27 38       		.byte	0x38
 14536 3f28 0501     		.2byte	0x105
 14537 3f2a CD0C0000 		.4byte	0xccd
 14538 3f2e 00       		.byte	0
 14539 3f2f 00       		.byte	0
 14540 3f30 1D       		.uleb128 0x1d
 14541 3f31 04       		.byte	0x4
 14542 3f32 38       		.byte	0x38
 14543 3f33 0701     		.2byte	0x107
 14544 3f35 473F0000 		.4byte	0x3f47
 14545 3f39 1A       		.uleb128 0x1a
 14546 3f3a A61F0000 		.4byte	.LASF529
 14547 3f3e 38       		.byte	0x38
 14548 3f3f 0B01     		.2byte	0x10b
 14549 3f41 473F0000 		.4byte	0x3f47
 14550 3f45 00       		.byte	0
 14551 3f46 00       		.byte	0
 14552 3f47 05       		.uleb128 0x5
 14553 3f48 04       		.byte	0x4
 14554 3f49 171F0000 		.4byte	0x1f17
ARM GAS  C:\Users\Moi\AppData\Local\Temp\ccF5N8ze.s 			page 262


 14555 3f4d 1E       		.uleb128 0x1e
 14556 3f4e 04       		.byte	0x4
 14557 3f4f 38       		.byte	0x38
 14558 3f50 0001     		.2byte	0x100
 14559 3f52 6F3F0000 		.4byte	0x3f6f
 14560 3f56 1F       		.uleb128 0x1f
 14561 3f57 EB1F0000 		.4byte	.LASF843
 14562 3f5b 38       		.byte	0x38
 14563 3f5c 0601     		.2byte	0x106
 14564 3f5e 193F0000 		.4byte	0x3f19
 14565 3f62 1F       		.uleb128 0x1f
 14566 3f63 ED1E0000 		.4byte	.LASF844
 14567 3f67 38       		.byte	0x38
 14568 3f68 0C01     		.2byte	0x10c
 14569 3f6a 303F0000 		.4byte	0x3f30
 14570 3f6e 00       		.byte	0
 14571 3f6f 0C       		.uleb128 0xc
 14572 3f70 14       		.byte	0x14
 14573 3f71 38       		.byte	0x38
 14574 3f72 F3       		.byte	0xf3
 14575 3f73 B63F0000 		.4byte	0x3fb6
 14576 3f77 0D       		.uleb128 0xd
 14577 3f78 2B060000 		.4byte	.LASF851
 14578 3f7c 38       		.byte	0x38
 14579 3f7d F7       		.byte	0xf7
 14580 3f7e A2020000 		.4byte	0x2a2
 14581 3f82 00       		.byte	0
 14582 3f83 0D       		.uleb128 0xd
 14583 3f84 63130000 		.4byte	.LASF852
 14584 3f88 38       		.byte	0x38
 14585 3f89 FB       		.byte	0xfb
 14586 3f8a B8000000 		.4byte	0xb8
 14587 3f8e 04       		.byte	0x4
 14588 3f8f 0D       		.uleb128 0xd
 14589 3f90 96080000 		.4byte	.LASF853
 14590 3f94 38       		.byte	0x38
 14591 3f95 FF       		.byte	0xff
 14592 3f96 B8000000 		.4byte	0xb8
 14593 3f9a 08       		.byte	0x8
 14594 3f9b 1A       		.uleb128 0x1a
 14595 3f9c BB080000 		.4byte	.LASF574
 14596 3fa0 38       		.byte	0x38
 14597 3fa1 0D01     		.2byte	0x10d
 14598 3fa3 4D3F0000 		.4byte	0x3f4d
 14599 3fa7 0C       		.byte	0xc
 14600 3fa8 1A       		.uleb128 0x1a
 14601 3fa9 5C0F0000 		.4byte	.LASF848
 14602 3fad 38       		.byte	0x38
 14603 3fae 1101     		.2byte	0x111
 14604 3fb0 B8000000 		.4byte	0xb8
 14605 3fb4 10       		.byte	0x10
 14606 3fb5 00       		.byte	0
 14607 3fb6 07       		.uleb128 0x7
 14608 3fb7 B61C0000 		.4byte	.LASF854
 14609 3fbb 38       		.byte	0x38
 14610 3fbc 1201     		.2byte	0x112
 14611 3fbe 6F3F0000 		.4byte	0x3f6f
ARM GAS  C:\Users\Moi\AppData\Local\Temp\ccF5N8ze.s 			page 263


 14612 3fc2 1D       		.uleb128 0x1d
 14613 3fc3 24       		.byte	0x24
 14614 3fc4 38       		.byte	0x38
 14615 3fc5 1801     		.2byte	0x118
 14616 3fc7 4E400000 		.4byte	0x404e
 14617 3fcb 1A       		.uleb128 0x1a
 14618 3fcc E6160000 		.4byte	.LASF855
 14619 3fd0 38       		.byte	0x38
 14620 3fd1 1C01     		.2byte	0x11c
 14621 3fd3 AB010000 		.4byte	0x1ab
 14622 3fd7 00       		.byte	0
 14623 3fd8 1A       		.uleb128 0x1a
 14624 3fd9 91090000 		.4byte	.LASF856
 14625 3fdd 38       		.byte	0x38
 14626 3fde 2701     		.2byte	0x127
 14627 3fe0 7F380000 		.4byte	0x387f
 14628 3fe4 04       		.byte	0x4
 14629 3fe5 1A       		.uleb128 0x1a
 14630 3fe6 F4170000 		.4byte	.LASF857
 14631 3fea 38       		.byte	0x38
 14632 3feb 2D01     		.2byte	0x12d
 14633 3fed 7F380000 		.4byte	0x387f
 14634 3ff1 08       		.byte	0x8
 14635 3ff2 1A       		.uleb128 0x1a
 14636 3ff3 2F0C0000 		.4byte	.LASF858
 14637 3ff7 38       		.byte	0x38
 14638 3ff8 3301     		.2byte	0x133
 14639 3ffa 7F380000 		.4byte	0x387f
 14640 3ffe 0C       		.byte	0xc
 14641 3fff 1A       		.uleb128 0x1a
 14642 4000 BE250000 		.4byte	.LASF859
 14643 4004 38       		.byte	0x38
 14644 4005 3901     		.2byte	0x139
 14645 4007 90010000 		.4byte	0x190
 14646 400b 10       		.byte	0x10
 14647 400c 1A       		.uleb128 0x1a
 14648 400d 950C0000 		.4byte	.LASF860
 14649 4011 38       		.byte	0x38
 14650 4012 3F01     		.2byte	0x13f
 14651 4014 90010000 		.4byte	0x190
 14652 4018 12       		.byte	0x12
 14653 4019 1A       		.uleb128 0x1a
 14654 401a 68240000 		.4byte	.LASF861
 14655 401e 38       		.byte	0x38
 14656 401f 4401     		.2byte	0x144
 14657 4021 4E400000 		.4byte	0x404e
 14658 4025 14       		.byte	0x14
 14659 4026 1A       		.uleb128 0x1a
 14660 4027 2F0E0000 		.4byte	.LASF862
 14661 402b 38       		.byte	0x38
 14662 402c 4901     		.2byte	0x149
 14663 402e 54400000 		.4byte	0x4054
 14664 4032 18       		.byte	0x18
 14665 4033 1A       		.uleb128 0x1a
 14666 4034 00120000 		.4byte	.LASF863
 14667 4038 38       		.byte	0x38
 14668 4039 5001     		.2byte	0x150
ARM GAS  C:\Users\Moi\AppData\Local\Temp\ccF5N8ze.s 			page 264


 14669 403b 90010000 		.4byte	0x190
 14670 403f 1C       		.byte	0x1c
 14671 4040 1A       		.uleb128 0x1a
 14672 4041 AD230000 		.4byte	.LASF864
 14673 4045 38       		.byte	0x38
 14674 4046 5601     		.2byte	0x156
 14675 4048 CD0C0000 		.4byte	0xccd
 14676 404c 20       		.byte	0x20
 14677 404d 00       		.byte	0
 14678 404e 05       		.uleb128 0x5
 14679 404f 04       		.byte	0x4
 14680 4050 0E3F0000 		.4byte	0x3f0e
 14681 4054 05       		.uleb128 0x5
 14682 4055 04       		.byte	0x4
 14683 4056 B63F0000 		.4byte	0x3fb6
 14684 405a 07       		.uleb128 0x7
 14685 405b 761F0000 		.4byte	.LASF865
 14686 405f 38       		.byte	0x38
 14687 4060 5701     		.2byte	0x157
 14688 4062 C23F0000 		.4byte	0x3fc2
 14689 4066 0F       		.uleb128 0xf
 14690 4067 5A400000 		.4byte	0x405a
 14691 406b 1D       		.uleb128 0x1d
 14692 406c 10       		.byte	0x10
 14693 406d 38       		.byte	0x38
 14694 406e 5C01     		.2byte	0x15c
 14695 4070 A9400000 		.4byte	0x40a9
 14696 4074 1A       		.uleb128 0x1a
 14697 4075 F1040000 		.4byte	.LASF866
 14698 4079 38       		.byte	0x38
 14699 407a 6101     		.2byte	0x161
 14700 407c A1380000 		.4byte	0x38a1
 14701 4080 00       		.byte	0
 14702 4081 1A       		.uleb128 0x1a
 14703 4082 FB220000 		.4byte	.LASF867
 14704 4086 38       		.byte	0x38
 14705 4087 6601     		.2byte	0x166
 14706 4089 E4380000 		.4byte	0x38e4
 14707 408d 04       		.byte	0x4
 14708 408e 1A       		.uleb128 0x1a
 14709 408f 79120000 		.4byte	.LASF868
 14710 4093 38       		.byte	0x38
 14711 4094 6C01     		.2byte	0x16c
 14712 4096 C3380000 		.4byte	0x38c3
 14713 409a 08       		.byte	0x8
 14714 409b 1A       		.uleb128 0x1a
 14715 409c 4A020000 		.4byte	.LASF869
 14716 40a0 38       		.byte	0x38
 14717 40a1 7001     		.2byte	0x170
 14718 40a3 5C380000 		.4byte	0x385c
 14719 40a7 0C       		.byte	0xc
 14720 40a8 00       		.byte	0
 14721 40a9 07       		.uleb128 0x7
 14722 40aa 83110000 		.4byte	.LASF870
 14723 40ae 38       		.byte	0x38
 14724 40af 7201     		.2byte	0x172
 14725 40b1 6B400000 		.4byte	0x406b
ARM GAS  C:\Users\Moi\AppData\Local\Temp\ccF5N8ze.s 			page 265


 14726 40b5 0F       		.uleb128 0xf
 14727 40b6 A9400000 		.4byte	0x40a9
 14728 40ba 05       		.uleb128 0x5
 14729 40bb 04       		.byte	0x4
 14730 40bc B5400000 		.4byte	0x40b5
 14731 40c0 0A       		.uleb128 0xa
 14732 40c1 D0400000 		.4byte	0x40d0
 14733 40c5 D0400000 		.4byte	0x40d0
 14734 40c9 0B       		.uleb128 0xb
 14735 40ca B1000000 		.4byte	0xb1
 14736 40ce 03       		.byte	0x3
 14737 40cf 00       		.byte	0
 14738 40d0 05       		.uleb128 0x5
 14739 40d1 04       		.byte	0x4
 14740 40d2 66400000 		.4byte	0x4066
 14741 40d6 0A       		.uleb128 0xa
 14742 40d7 68010000 		.4byte	0x168
 14743 40db E6400000 		.4byte	0x40e6
 14744 40df 0B       		.uleb128 0xb
 14745 40e0 B1000000 		.4byte	0xb1
 14746 40e4 02       		.byte	0x2
 14747 40e5 00       		.byte	0
 14748 40e6 05       		.uleb128 0x5
 14749 40e7 04       		.byte	0x4
 14750 40e8 323E0000 		.4byte	0x3e32
 14751 40ec 05       		.uleb128 0x5
 14752 40ed 04       		.byte	0x4
 14753 40ee 753E0000 		.4byte	0x3e75
 14754 40f2 0A       		.uleb128 0xa
 14755 40f3 3A190000 		.4byte	0x193a
 14756 40f7 02410000 		.4byte	0x4102
 14757 40fb 0B       		.uleb128 0xb
 14758 40fc B1000000 		.4byte	0xb1
 14759 4100 3E       		.byte	0x3e
 14760 4101 00       		.byte	0
 14761 4102 21       		.uleb128 0x21
 14762 4103 E2000000 		.4byte	.LASF871
 14763 4107 38       		.byte	0x38
 14764 4108 0602     		.2byte	0x206
 14765 410a 28360000 		.4byte	0x3628
 14766 410e 2A       		.uleb128 0x2a
 14767 410f 07       		.byte	0x7
 14768 4110 01       		.byte	0x1
 14769 4111 42000000 		.4byte	0x42
 14770 4115 3A       		.byte	0x3a
 14771 4116 70       		.byte	0x70
 14772 4117 7C410000 		.4byte	0x417c
 14773 411b 2B       		.uleb128 0x2b
 14774 411c 35030000 		.4byte	.LASF872
 14775 4120 00       		.byte	0
 14776 4121 2B       		.uleb128 0x2b
 14777 4122 06020000 		.4byte	.LASF873
 14778 4126 01       		.byte	0x1
 14779 4127 2B       		.uleb128 0x2b
 14780 4128 A30A0000 		.4byte	.LASF874
 14781 412c 02       		.byte	0x2
 14782 412d 2B       		.uleb128 0x2b
ARM GAS  C:\Users\Moi\AppData\Local\Temp\ccF5N8ze.s 			page 266


 14783 412e 4C120000 		.4byte	.LASF875
 14784 4132 03       		.byte	0x3
 14785 4133 2B       		.uleb128 0x2b
 14786 4134 EF1C0000 		.4byte	.LASF876
 14787 4138 04       		.byte	0x4
 14788 4139 2B       		.uleb128 0x2b
 14789 413a BD070000 		.4byte	.LASF877
 14790 413e 05       		.byte	0x5
 14791 413f 2B       		.uleb128 0x2b
 14792 4140 BB0B0000 		.4byte	.LASF878
 14793 4144 06       		.byte	0x6
 14794 4145 2B       		.uleb128 0x2b
 14795 4146 711E0000 		.4byte	.LASF879
 14796 414a 07       		.byte	0x7
 14797 414b 2B       		.uleb128 0x2b
 14798 414c 5A0D0000 		.4byte	.LASF880
 14799 4150 08       		.byte	0x8
 14800 4151 2B       		.uleb128 0x2b
 14801 4152 9D190000 		.4byte	.LASF881
 14802 4156 09       		.byte	0x9
 14803 4157 2B       		.uleb128 0x2b
 14804 4158 0D250000 		.4byte	.LASF882
 14805 415c 0A       		.byte	0xa
 14806 415d 2B       		.uleb128 0x2b
 14807 415e 250A0000 		.4byte	.LASF883
 14808 4162 0B       		.byte	0xb
 14809 4163 2B       		.uleb128 0x2b
 14810 4164 4D000000 		.4byte	.LASF884
 14811 4168 0C       		.byte	0xc
 14812 4169 2B       		.uleb128 0x2b
 14813 416a EC0F0000 		.4byte	.LASF885
 14814 416e 0D       		.byte	0xd
 14815 416f 2B       		.uleb128 0x2b
 14816 4170 8B220000 		.4byte	.LASF886
 14817 4174 0E       		.byte	0xe
 14818 4175 2B       		.uleb128 0x2b
 14819 4176 6A0E0000 		.4byte	.LASF887
 14820 417a 0F       		.byte	0xf
 14821 417b 00       		.byte	0
 14822 417c 2A       		.uleb128 0x2a
 14823 417d 07       		.byte	0x7
 14824 417e 01       		.byte	0x1
 14825 417f 42000000 		.4byte	0x42
 14826 4183 3A       		.byte	0x3a
 14827 4184 86       		.byte	0x86
 14828 4185 9C410000 		.4byte	0x419c
 14829 4189 2B       		.uleb128 0x2b
 14830 418a 1A010000 		.4byte	.LASF888
 14831 418e 00       		.byte	0
 14832 418f 2B       		.uleb128 0x2b
 14833 4190 681A0000 		.4byte	.LASF889
 14834 4194 01       		.byte	0x1
 14835 4195 2B       		.uleb128 0x2b
 14836 4196 55160000 		.4byte	.LASF890
 14837 419a 02       		.byte	0x2
 14838 419b 00       		.byte	0
 14839 419c 0A       		.uleb128 0xa
ARM GAS  C:\Users\Moi\AppData\Local\Temp\ccF5N8ze.s 			page 267


 14840 419d D8010000 		.4byte	0x1d8
 14841 41a1 A7410000 		.4byte	0x41a7
 14842 41a5 30       		.uleb128 0x30
 14843 41a6 00       		.byte	0
 14844 41a7 0F       		.uleb128 0xf
 14845 41a8 9C410000 		.4byte	0x419c
 14846 41ac 11       		.uleb128 0x11
 14847 41ad 72160000 		.4byte	.LASF891
 14848 41b1 3B       		.byte	0x3b
 14849 41b2 A5       		.byte	0xa5
 14850 41b3 A7410000 		.4byte	0x41a7
 14851 41b7 0C       		.uleb128 0xc
 14852 41b8 0C       		.byte	0xc
 14853 41b9 3C       		.byte	0x3c
 14854 41ba 16       		.byte	0x16
 14855 41bb E4410000 		.4byte	0x41e4
 14856 41bf 0D       		.uleb128 0xd
 14857 41c0 4F0E0000 		.4byte	.LASF892
 14858 41c4 3C       		.byte	0x3c
 14859 41c5 18       		.byte	0x18
 14860 41c6 3E0C0000 		.4byte	0xc3e
 14861 41ca 00       		.byte	0
 14862 41cb 0D       		.uleb128 0xd
 14863 41cc B2020000 		.4byte	.LASF893
 14864 41d0 3C       		.byte	0x3c
 14865 41d1 1A       		.byte	0x1a
 14866 41d2 3E0C0000 		.4byte	0xc3e
 14867 41d6 04       		.byte	0x4
 14868 41d7 0D       		.uleb128 0xd
 14869 41d8 8D020000 		.4byte	.LASF894
 14870 41dc 3C       		.byte	0x3c
 14871 41dd 24       		.byte	0x24
 14872 41de 3E0C0000 		.4byte	0xc3e
 14873 41e2 08       		.byte	0x8
 14874 41e3 00       		.byte	0
 14875 41e4 02       		.uleb128 0x2
 14876 41e5 691C0000 		.4byte	.LASF895
 14877 41e9 3C       		.byte	0x3c
 14878 41ea 28       		.byte	0x28
 14879 41eb B7410000 		.4byte	0x41b7
 14880 41ef 2A       		.uleb128 0x2a
 14881 41f0 07       		.byte	0x7
 14882 41f1 01       		.byte	0x1
 14883 41f2 42000000 		.4byte	0x42
 14884 41f6 3D       		.byte	0x3d
 14885 41f7 83       		.byte	0x83
 14886 41f8 09420000 		.4byte	0x4209
 14887 41fc 2B       		.uleb128 0x2b
 14888 41fd C5230000 		.4byte	.LASF896
 14889 4201 00       		.byte	0
 14890 4202 2B       		.uleb128 0x2b
 14891 4203 3A190000 		.4byte	.LASF897
 14892 4207 01       		.byte	0x1
 14893 4208 00       		.byte	0
 14894 4209 02       		.uleb128 0x2
 14895 420a 16240000 		.4byte	.LASF898
 14896 420e 3D       		.byte	0x3d
ARM GAS  C:\Users\Moi\AppData\Local\Temp\ccF5N8ze.s 			page 268


 14897 420f 86       		.byte	0x86
 14898 4210 EF410000 		.4byte	0x41ef
 14899 4214 2A       		.uleb128 0x2a
 14900 4215 07       		.byte	0x7
 14901 4216 01       		.byte	0x1
 14902 4217 42000000 		.4byte	0x42
 14903 421b 3D       		.byte	0x3d
 14904 421c 8B       		.byte	0x8b
 14905 421d 52420000 		.4byte	0x4252
 14906 4221 2B       		.uleb128 0x2b
 14907 4222 C8060000 		.4byte	.LASF899
 14908 4226 00       		.byte	0
 14909 4227 2B       		.uleb128 0x2b
 14910 4228 57030000 		.4byte	.LASF900
 14911 422c 01       		.byte	0x1
 14912 422d 2B       		.uleb128 0x2b
 14913 422e F21F0000 		.4byte	.LASF901
 14914 4232 02       		.byte	0x2
 14915 4233 2B       		.uleb128 0x2b
 14916 4234 A01E0000 		.4byte	.LASF902
 14917 4238 03       		.byte	0x3
 14918 4239 2B       		.uleb128 0x2b
 14919 423a 6D000000 		.4byte	.LASF903
 14920 423e 04       		.byte	0x4
 14921 423f 2B       		.uleb128 0x2b
 14922 4240 DA190000 		.4byte	.LASF904
 14923 4244 05       		.byte	0x5
 14924 4245 2B       		.uleb128 0x2b
 14925 4246 36120000 		.4byte	.LASF905
 14926 424a 06       		.byte	0x6
 14927 424b 2B       		.uleb128 0x2b
 14928 424c CD180000 		.4byte	.LASF906
 14929 4250 07       		.byte	0x7
 14930 4251 00       		.byte	0
 14931 4252 02       		.uleb128 0x2
 14932 4253 8B160000 		.4byte	.LASF907
 14933 4257 3D       		.byte	0x3d
 14934 4258 94       		.byte	0x94
 14935 4259 14420000 		.4byte	0x4214
 14936 425d 02       		.uleb128 0x2
 14937 425e 5F040000 		.4byte	.LASF908
 14938 4262 3D       		.byte	0x3d
 14939 4263 99       		.byte	0x99
 14940 4264 68420000 		.4byte	0x4268
 14941 4268 12       		.uleb128 0x12
 14942 4269 5F040000 		.4byte	.LASF908
 14943 426d 14       		.byte	0x14
 14944 426e 3D       		.byte	0x3d
 14945 426f C3       		.byte	0xc3
 14946 4270 B1420000 		.4byte	0x42b1
 14947 4274 0D       		.uleb128 0xd
 14948 4275 A3150000 		.4byte	.LASF495
 14949 4279 3D       		.byte	0x3d
 14950 427a C7       		.byte	0xc7
 14951 427b 52420000 		.4byte	0x4252
 14952 427f 00       		.byte	0
 14953 4280 0D       		.uleb128 0xd
ARM GAS  C:\Users\Moi\AppData\Local\Temp\ccF5N8ze.s 			page 269


 14954 4281 A21B0000 		.4byte	.LASF496
 14955 4285 3D       		.byte	0x3d
 14956 4286 CB       		.byte	0xcb
 14957 4287 3C430000 		.4byte	0x433c
 14958 428b 04       		.byte	0x4
 14959 428c 0D       		.uleb128 0xd
 14960 428d 69210000 		.4byte	.LASF909
 14961 4291 3D       		.byte	0x3d
 14962 4292 CF       		.byte	0xcf
 14963 4293 42430000 		.4byte	0x4342
 14964 4297 08       		.byte	0x8
 14965 4298 0D       		.uleb128 0xd
 14966 4299 C50A0000 		.4byte	.LASF502
 14967 429d 3D       		.byte	0x3d
 14968 429e D3       		.byte	0xd3
 14969 429f E0250000 		.4byte	0x25e0
 14970 42a3 0C       		.byte	0xc
 14971 42a4 0D       		.uleb128 0xd
 14972 42a5 95170000 		.4byte	.LASF503
 14973 42a9 3D       		.byte	0x3d
 14974 42aa D7       		.byte	0xd7
 14975 42ab AB010000 		.4byte	0x1ab
 14976 42af 10       		.byte	0x10
 14977 42b0 00       		.byte	0
 14978 42b1 02       		.uleb128 0x2
 14979 42b2 E20D0000 		.4byte	.LASF910
 14980 42b6 3D       		.byte	0x3d
 14981 42b7 A0       		.byte	0xa0
 14982 42b8 BC420000 		.4byte	0x42bc
 14983 42bc 05       		.uleb128 0x5
 14984 42bd 04       		.byte	0x4
 14985 42be C2420000 		.4byte	0x42c2
 14986 42c2 20       		.uleb128 0x20
 14987 42c3 CD420000 		.4byte	0x42cd
 14988 42c7 18       		.uleb128 0x18
 14989 42c8 CD420000 		.4byte	0x42cd
 14990 42cc 00       		.byte	0
 14991 42cd 05       		.uleb128 0x5
 14992 42ce 04       		.byte	0x4
 14993 42cf 5D420000 		.4byte	0x425d
 14994 42d3 02       		.uleb128 0x2
 14995 42d4 E8190000 		.4byte	.LASF911
 14996 42d8 3D       		.byte	0x3d
 14997 42d9 A8       		.byte	0xa8
 14998 42da DE420000 		.4byte	0x42de
 14999 42de 05       		.uleb128 0x5
 15000 42df 04       		.byte	0x4
 15001 42e0 E4420000 		.4byte	0x42e4
 15002 42e4 20       		.uleb128 0x20
 15003 42e5 F4420000 		.4byte	0x42f4
 15004 42e9 18       		.uleb128 0x18
 15005 42ea CD420000 		.4byte	0x42cd
 15006 42ee 18       		.uleb128 0x18
 15007 42ef 09420000 		.4byte	0x4209
 15008 42f3 00       		.byte	0
 15009 42f4 0C       		.uleb128 0xc
 15010 42f5 10       		.byte	0x10
ARM GAS  C:\Users\Moi\AppData\Local\Temp\ccF5N8ze.s 			page 270


 15011 42f6 3D       		.byte	0x3d
 15012 42f7 AD       		.byte	0xad
 15013 42f8 2C430000 		.4byte	0x432c
 15014 42fc 0D       		.uleb128 0xd
 15015 42fd A91C0000 		.4byte	.LASF912
 15016 4301 3D       		.byte	0x3d
 15017 4302 B1       		.byte	0xb1
 15018 4303 B1420000 		.4byte	0x42b1
 15019 4307 00       		.byte	0
 15020 4308 0D       		.uleb128 0xd
 15021 4309 AB220000 		.4byte	.LASF913
 15022 430d 3D       		.byte	0x3d
 15023 430e B5       		.byte	0xb5
 15024 430f B1420000 		.4byte	0x42b1
 15025 4313 04       		.byte	0x4
 15026 4314 0D       		.uleb128 0xd
 15027 4315 D9230000 		.4byte	.LASF509
 15028 4319 3D       		.byte	0x3d
 15029 431a B9       		.byte	0xb9
 15030 431b D3420000 		.4byte	0x42d3
 15031 431f 08       		.byte	0x8
 15032 4320 13       		.uleb128 0x13
 15033 4321 637200   		.ascii	"cr\000"
 15034 4324 3D       		.byte	0x3d
 15035 4325 BD       		.byte	0xbd
 15036 4326 AB010000 		.4byte	0x1ab
 15037 432a 0C       		.byte	0xc
 15038 432b 00       		.byte	0
 15039 432c 02       		.uleb128 0x2
 15040 432d EA240000 		.4byte	.LASF914
 15041 4331 3D       		.byte	0x3d
 15042 4332 BE       		.byte	0xbe
 15043 4333 F4420000 		.4byte	0x42f4
 15044 4337 0F       		.uleb128 0xf
 15045 4338 2C430000 		.4byte	0x432c
 15046 433c 05       		.uleb128 0x5
 15047 433d 04       		.byte	0x4
 15048 433e 37430000 		.4byte	0x4337
 15049 4342 05       		.uleb128 0x5
 15050 4343 04       		.byte	0x4
 15051 4344 C8150000 		.4byte	0x15c8
 15052 4348 11       		.uleb128 0x11
 15053 4349 85040000 		.4byte	.LASF915
 15054 434d 3D       		.byte	0x3d
 15055 434e E3       		.byte	0xe3
 15056 434f 5D420000 		.4byte	0x425d
 15057 4353 0A       		.uleb128 0xa
 15058 4354 D1010000 		.4byte	0x1d1
 15059 4358 64430000 		.4byte	0x4364
 15060 435c 2F       		.uleb128 0x2f
 15061 435d B1000000 		.4byte	0xb1
 15062 4361 2A10     		.2byte	0x102a
 15063 4363 00       		.byte	0
 15064 4364 11       		.uleb128 0x11
 15065 4365 961A0000 		.4byte	.LASF42
 15066 4369 01       		.byte	0x1
 15067 436a 37       		.byte	0x37
ARM GAS  C:\Users\Moi\AppData\Local\Temp\ccF5N8ze.s 			page 271


 15068 436b 53430000 		.4byte	0x4353
 15069 436f 11       		.uleb128 0x11
 15070 4370 830B0000 		.4byte	.LASF916
 15071 4374 01       		.byte	0x1
 15072 4375 3A       		.byte	0x3a
 15073 4376 AA000000 		.4byte	0xaa
 15074 437a 24       		.uleb128 0x24
 15075 437b 6300     		.ascii	"c\000"
 15076 437d 01       		.byte	0x1
 15077 437e 3B       		.byte	0x3b
 15078 437f D1010000 		.4byte	0x1d1
 15079 4383 31       		.uleb128 0x31
 15080 4384 690B0000 		.4byte	.LASF952
 15081 4388 01       		.byte	0x1
 15082 4389 44       		.byte	0x44
 15083 438a AA000000 		.4byte	0xaa
 15084 438e 00000000 		.4byte	.LFB260
 15085 4392 282E0000 		.4byte	.LFE260-.LFB260
 15086 4396 01       		.uleb128 0x1
 15087 4397 9C       		.byte	0x9c
 15088 4398 66460000 		.4byte	0x4666
 15089 439c 32       		.uleb128 0x32
 15090 439d 633100   		.ascii	"c1\000"
 15091 43a0 01       		.byte	0x1
 15092 43a1 45       		.byte	0x45
 15093 43a2 D1010000 		.4byte	0x1d1
 15094 43a6 05       		.uleb128 0x5
 15095 43a7 03       		.byte	0x3
 15096 43a8 00000000 		.4byte	c1.13529
 15097 43ac 32       		.uleb128 0x32
 15098 43ad 633200   		.ascii	"c2\000"
 15099 43b0 01       		.byte	0x1
 15100 43b1 45       		.byte	0x45
 15101 43b2 D1010000 		.4byte	0x1d1
 15102 43b6 05       		.uleb128 0x5
 15103 43b7 03       		.byte	0x3
 15104 43b8 00000000 		.4byte	c2.13530
 15105 43bc 33       		.uleb128 0x33
 15106 43bd 54060000 		.4byte	.LASF917
 15107 43c1 01       		.byte	0x1
 15108 43c2 45       		.byte	0x45
 15109 43c3 D1010000 		.4byte	0x1d1
 15110 43c7 05       		.uleb128 0x5
 15111 43c8 03       		.byte	0x3
 15112 43c9 00000000 		.4byte	wait_cam.13531
 15113 43cd 32       		.uleb128 0x32
 15114 43ce 6900     		.ascii	"i\000"
 15115 43d0 01       		.byte	0x1
 15116 43d1 46       		.byte	0x46
 15117 43d2 AA000000 		.4byte	0xaa
 15118 43d6 05       		.uleb128 0x5
 15119 43d7 03       		.byte	0x3
 15120 43d8 00000000 		.4byte	i.13532
 15121 43dc 32       		.uleb128 0x32
 15122 43dd 6A00     		.ascii	"j\000"
 15123 43df 01       		.byte	0x1
 15124 43e0 46       		.byte	0x46
ARM GAS  C:\Users\Moi\AppData\Local\Temp\ccF5N8ze.s 			page 272


 15125 43e1 AA000000 		.4byte	0xaa
 15126 43e5 05       		.uleb128 0x5
 15127 43e6 03       		.byte	0x3
 15128 43e7 00000000 		.4byte	j.13533
 15129 43eb 32       		.uleb128 0x32
 15130 43ec 6E00     		.ascii	"n\000"
 15131 43ee 01       		.byte	0x1
 15132 43ef 46       		.byte	0x46
 15133 43f0 AA000000 		.4byte	0xaa
 15134 43f4 05       		.uleb128 0x5
 15135 43f5 03       		.byte	0x3
 15136 43f6 00000000 		.4byte	n.13534
 15137 43fa 33       		.uleb128 0x33
 15138 43fb EB120000 		.4byte	.LASF918
 15139 43ff 01       		.byte	0x1
 15140 4400 46       		.byte	0x46
 15141 4401 AA000000 		.4byte	0xaa
 15142 4405 05       		.uleb128 0x5
 15143 4406 03       		.byte	0x3
 15144 4407 00000000 		.4byte	speedr.13535
 15145 440b 33       		.uleb128 0x33
 15146 440c DC120000 		.4byte	.LASF919
 15147 4410 01       		.byte	0x1
 15148 4411 46       		.byte	0x46
 15149 4412 AA000000 		.4byte	0xaa
 15150 4416 05       		.uleb128 0x5
 15151 4417 03       		.byte	0x3
 15152 4418 00000000 		.4byte	speedl.13536
 15153 441c 33       		.uleb128 0x33
 15154 441d C0000000 		.4byte	.LASF920
 15155 4421 01       		.byte	0x1
 15156 4422 46       		.byte	0x46
 15157 4423 AA000000 		.4byte	0xaa
 15158 4427 05       		.uleb128 0x5
 15159 4428 03       		.byte	0x3
 15160 4429 00000000 		.4byte	positionr.13537
 15161 442d 33       		.uleb128 0x33
 15162 442e B6000000 		.4byte	.LASF921
 15163 4432 01       		.byte	0x1
 15164 4433 46       		.byte	0x46
 15165 4434 AA000000 		.4byte	0xaa
 15166 4438 05       		.uleb128 0x5
 15167 4439 03       		.byte	0x3
 15168 443a 00000000 		.4byte	positionl.13538
 15169 443e 33       		.uleb128 0x33
 15170 443f 65000000 		.4byte	.LASF922
 15171 4443 01       		.byte	0x1
 15172 4444 46       		.byte	0x46
 15173 4445 AA000000 		.4byte	0xaa
 15174 4449 05       		.uleb128 0x5
 15175 444a 03       		.byte	0x3
 15176 444b 00000000 		.4byte	LED_nbr.13539
 15177 444f 33       		.uleb128 0x33
 15178 4450 43230000 		.4byte	.LASF923
 15179 4454 01       		.byte	0x1
 15180 4455 46       		.byte	0x46
 15181 4456 AA000000 		.4byte	0xaa
ARM GAS  C:\Users\Moi\AppData\Local\Temp\ccF5N8ze.s 			page 273


 15182 445a 05       		.uleb128 0x5
 15183 445b 03       		.byte	0x3
 15184 445c 00000000 		.4byte	LED_action.13540
 15185 4460 33       		.uleb128 0x33
 15186 4461 7A0A0000 		.4byte	.LASF924
 15187 4465 01       		.byte	0x1
 15188 4466 46       		.byte	0x46
 15189 4467 AA000000 		.4byte	0xaa
 15190 446b 05       		.uleb128 0x5
 15191 446c 03       		.byte	0x3
 15192 446d 00000000 		.4byte	accx.13541
 15193 4471 33       		.uleb128 0x33
 15194 4472 7F0A0000 		.4byte	.LASF925
 15195 4476 01       		.byte	0x1
 15196 4477 46       		.byte	0x46
 15197 4478 AA000000 		.4byte	0xaa
 15198 447c 05       		.uleb128 0x5
 15199 447d 03       		.byte	0x3
 15200 447e 00000000 		.4byte	accy.13542
 15201 4482 33       		.uleb128 0x33
 15202 4483 2A0C0000 		.4byte	.LASF926
 15203 4487 01       		.byte	0x1
 15204 4488 46       		.byte	0x46
 15205 4489 AA000000 		.4byte	0xaa
 15206 448d 05       		.uleb128 0x5
 15207 448e 03       		.byte	0x3
 15208 448f 00000000 		.4byte	accz.13543
 15209 4493 33       		.uleb128 0x33
 15210 4494 0D260000 		.4byte	.LASF927
 15211 4498 01       		.byte	0x1
 15212 4499 46       		.byte	0x46
 15213 449a AA000000 		.4byte	0xaa
 15214 449e 05       		.uleb128 0x5
 15215 449f 03       		.byte	0x3
 15216 44a0 00000000 		.4byte	sound.13544
 15217 44a4 33       		.uleb128 0x33
 15218 44a5 86230000 		.4byte	.LASF928
 15219 44a9 01       		.byte	0x1
 15220 44aa 46       		.byte	0x46
 15221 44ab AA000000 		.4byte	0xaa
 15222 44af 05       		.uleb128 0x5
 15223 44b0 03       		.byte	0x3
 15224 44b1 00000000 		.4byte	gyrox.13545
 15225 44b5 33       		.uleb128 0x33
 15226 44b6 810D0000 		.4byte	.LASF929
 15227 44ba 01       		.byte	0x1
 15228 44bb 46       		.byte	0x46
 15229 44bc AA000000 		.4byte	0xaa
 15230 44c0 05       		.uleb128 0x5
 15231 44c1 03       		.byte	0x3
 15232 44c2 00000000 		.4byte	gyroy.13546
 15233 44c6 33       		.uleb128 0x33
 15234 44c7 8C230000 		.4byte	.LASF930
 15235 44cb 01       		.byte	0x1
 15236 44cc 46       		.byte	0x46
 15237 44cd AA000000 		.4byte	0xaa
 15238 44d1 05       		.uleb128 0x5
ARM GAS  C:\Users\Moi\AppData\Local\Temp\ccF5N8ze.s 			page 274


 15239 44d2 03       		.byte	0x3
 15240 44d3 00000000 		.4byte	gyroz.13547
 15241 44d7 33       		.uleb128 0x33
 15242 44d8 BE170000 		.4byte	.LASF931
 15243 44dc 01       		.byte	0x1
 15244 44dd 47       		.byte	0x47
 15245 44de AA000000 		.4byte	0xaa
 15246 44e2 05       		.uleb128 0x5
 15247 44e3 03       		.byte	0x3
 15248 44e4 00000000 		.4byte	cam_mode.13548
 15249 44e8 33       		.uleb128 0x33
 15250 44e9 7B0C0000 		.4byte	.LASF932
 15251 44ed 01       		.byte	0x1
 15252 44ee 47       		.byte	0x47
 15253 44ef AA000000 		.4byte	0xaa
 15254 44f3 05       		.uleb128 0x5
 15255 44f4 03       		.byte	0x3
 15256 44f5 00000000 		.4byte	cam_width.13549
 15257 44f9 33       		.uleb128 0x33
 15258 44fa 5E1C0000 		.4byte	.LASF933
 15259 44fe 01       		.byte	0x1
 15260 44ff 47       		.byte	0x47
 15261 4500 AA000000 		.4byte	0xaa
 15262 4504 05       		.uleb128 0x5
 15263 4505 03       		.byte	0x3
 15264 4506 00000000 		.4byte	cam_heigth.13550
 15265 450a 33       		.uleb128 0x33
 15266 450b 28020000 		.4byte	.LASF934
 15267 450f 01       		.byte	0x1
 15268 4510 47       		.byte	0x47
 15269 4511 AA000000 		.4byte	0xaa
 15270 4515 05       		.uleb128 0x5
 15271 4516 03       		.byte	0x3
 15272 4517 00000000 		.4byte	cam_zoom.13551
 15273 451b 33       		.uleb128 0x33
 15274 451c 000B0000 		.4byte	.LASF935
 15275 4520 01       		.byte	0x1
 15276 4521 47       		.byte	0x47
 15277 4522 AA000000 		.4byte	0xaa
 15278 4526 05       		.uleb128 0x5
 15279 4527 03       		.byte	0x3
 15280 4528 00000000 		.4byte	cam_size.13552
 15281 452c 33       		.uleb128 0x33
 15282 452d B6100000 		.4byte	.LASF936
 15283 4531 01       		.byte	0x1
 15284 4532 47       		.byte	0x47
 15285 4533 AA000000 		.4byte	0xaa
 15286 4537 05       		.uleb128 0x5
 15287 4538 03       		.byte	0x3
 15288 4539 00000000 		.4byte	cam_x1.13553
 15289 453d 33       		.uleb128 0x33
 15290 453e 9C150000 		.4byte	.LASF937
 15291 4542 01       		.byte	0x1
 15292 4543 47       		.byte	0x47
 15293 4544 AA000000 		.4byte	0xaa
 15294 4548 05       		.uleb128 0x5
 15295 4549 03       		.byte	0x3
ARM GAS  C:\Users\Moi\AppData\Local\Temp\ccF5N8ze.s 			page 275


 15296 454a 00000000 		.4byte	cam_y1.13554
 15297 454e 33       		.uleb128 0x33
 15298 454f F90E0000 		.4byte	.LASF938
 15299 4553 01       		.byte	0x1
 15300 4554 48       		.byte	0x48
 15301 4555 D1010000 		.4byte	0x1d1
 15302 4559 05       		.uleb128 0x5
 15303 455a 03       		.byte	0x3
 15304 455b 00000000 		.4byte	first.13555
 15305 455f 33       		.uleb128 0x33
 15306 4560 F5020000 		.4byte	.LASF939
 15307 4564 01       		.byte	0x1
 15308 4565 49       		.byte	0x49
 15309 4566 66460000 		.4byte	0x4666
 15310 456a 05       		.uleb128 0x5
 15311 456b 03       		.byte	0x3
 15312 456c 00000000 		.4byte	rgb_value.13556
 15313 4570 32       		.uleb128 0x32
 15314 4571 70747200 		.ascii	"ptr\000"
 15315 4575 01       		.byte	0x1
 15316 4576 4A       		.byte	0x4a
 15317 4577 CB010000 		.4byte	0x1cb
 15318 457b 02       		.uleb128 0x2
 15319 457c 91       		.byte	0x91
 15320 457d 58       		.sleb128 -40
 15321 457e 32       		.uleb128 0x32
 15322 457f 6D6F6400 		.ascii	"mod\000"
 15323 4583 01       		.byte	0x1
 15324 4584 4B       		.byte	0x4b
 15325 4585 AA000000 		.4byte	0xaa
 15326 4589 05       		.uleb128 0x5
 15327 458a 03       		.byte	0x3
 15328 458b 00000000 		.4byte	mod.13558
 15329 458f 32       		.uleb128 0x32
 15330 4590 72656700 		.ascii	"reg\000"
 15331 4594 01       		.byte	0x1
 15332 4595 4B       		.byte	0x4b
 15333 4596 AA000000 		.4byte	0xaa
 15334 459a 05       		.uleb128 0x5
 15335 459b 03       		.byte	0x3
 15336 459c 00000000 		.4byte	reg.13559
 15337 45a0 32       		.uleb128 0x32
 15338 45a1 76616C00 		.ascii	"val\000"
 15339 45a5 01       		.byte	0x1
 15340 45a6 4B       		.byte	0x4b
 15341 45a7 AA000000 		.4byte	0xaa
 15342 45ab 05       		.uleb128 0x5
 15343 45ac 03       		.byte	0x3
 15344 45ad 00000000 		.4byte	val.13560
 15345 45b1 33       		.uleb128 0x33
 15346 45b2 E5050000 		.4byte	.LASF940
 15347 45b6 01       		.byte	0x1
 15348 45b7 4D       		.byte	0x4d
 15349 45b8 D1010000 		.4byte	0x1d1
 15350 45bc 02       		.uleb128 0x2
 15351 45bd 91       		.byte	0x91
 15352 45be 47       		.sleb128 -57
ARM GAS  C:\Users\Moi\AppData\Local\Temp\ccF5N8ze.s 			page 276


 15353 45bf 33       		.uleb128 0x33
 15354 45c0 73050000 		.4byte	.LASF941
 15355 45c4 01       		.byte	0x1
 15356 45c5 4D       		.byte	0x4d
 15357 45c6 D1010000 		.4byte	0x1d1
 15358 45ca 02       		.uleb128 0x2
 15359 45cb 91       		.byte	0x91
 15360 45cc 48       		.sleb128 -56
 15361 45cd 33       		.uleb128 0x33
 15362 45ce AC110000 		.4byte	.LASF942
 15363 45d2 01       		.byte	0x1
 15364 45d3 4D       		.byte	0x4d
 15365 45d4 D1010000 		.4byte	0x1d1
 15366 45d8 02       		.uleb128 0x2
 15367 45d9 91       		.byte	0x91
 15368 45da 45       		.sleb128 -59
 15369 45db 33       		.uleb128 0x33
 15370 45dc E5210000 		.4byte	.LASF943
 15371 45e0 01       		.byte	0x1
 15372 45e1 4F       		.byte	0x4f
 15373 45e2 E4410000 		.4byte	0x41e4
 15374 45e6 05       		.uleb128 0x5
 15375 45e7 03       		.byte	0x3
 15376 45e8 00000000 		.4byte	accelero.13564
 15377 45ec 33       		.uleb128 0x33
 15378 45ed 1C090000 		.4byte	.LASF944
 15379 45f1 01       		.byte	0x1
 15380 45f2 51       		.byte	0x51
 15381 45f3 AA000000 		.4byte	0xaa
 15382 45f7 02       		.uleb128 0x2
 15383 45f8 91       		.byte	0x91
 15384 45f9 4C       		.sleb128 -52
 15385 45fa 33       		.uleb128 0x33
 15386 45fb CA000000 		.4byte	.LASF945
 15387 45ff 01       		.byte	0x1
 15388 4600 52       		.byte	0x52
 15389 4601 B1000000 		.4byte	0xb1
 15390 4605 02       		.uleb128 0x2
 15391 4606 91       		.byte	0x91
 15392 4607 54       		.sleb128 -44
 15393 4608 33       		.uleb128 0x33
 15394 4609 92010000 		.4byte	.LASF946
 15395 460d 01       		.byte	0x1
 15396 460e 53       		.byte	0x53
 15397 460f 75010000 		.4byte	0x175
 15398 4613 02       		.uleb128 0x2
 15399 4614 91       		.byte	0x91
 15400 4615 46       		.sleb128 -58
 15401 4616 33       		.uleb128 0x33
 15402 4617 AA1A0000 		.4byte	.LASF947
 15403 461b 01       		.byte	0x1
 15404 461c 54       		.byte	0x54
 15405 461d 90010000 		.4byte	0x190
 15406 4621 02       		.uleb128 0x2
 15407 4622 91       		.byte	0x91
 15408 4623 4A       		.sleb128 -54
 15409 4624 33       		.uleb128 0x33
ARM GAS  C:\Users\Moi\AppData\Local\Temp\ccF5N8ze.s 			page 277


 15410 4625 7A240000 		.4byte	.LASF948
 15411 4629 01       		.byte	0x1
 15412 462a 78       		.byte	0x78
 15413 462b AA000000 		.4byte	0xaa
 15414 462f 05       		.uleb128 0x5
 15415 4630 03       		.byte	0x3
 15416 4631 00000000 		.4byte	HWversion.13569
 15417 4635 34       		.uleb128 0x34
 15418 4636 1E160000 		.4byte	.LBB2
 15419 463a 2C000000 		.4byte	.LBE2-.LBB2
 15420 463e 52460000 		.4byte	0x4652
 15421 4642 35       		.uleb128 0x35
 15422 4643 5F5F7800 		.ascii	"__x\000"
 15423 4647 01       		.byte	0x1
 15424 4648 B302     		.2byte	0x2b3
 15425 464a D1010000 		.4byte	0x1d1
 15426 464e 02       		.uleb128 0x2
 15427 464f 91       		.byte	0x91
 15428 4650 49       		.sleb128 -55
 15429 4651 00       		.byte	0
 15430 4652 36       		.uleb128 0x36
 15431 4653 00000000 		.4byte	.Ldebug_ranges0+0
 15432 4657 35       		.uleb128 0x35
 15433 4658 7400     		.ascii	"t\000"
 15434 465a 01       		.byte	0x1
 15435 465b C803     		.2byte	0x3c8
 15436 465d 78000000 		.4byte	0x78
 15437 4661 02       		.uleb128 0x2
 15438 4662 91       		.byte	0x91
 15439 4663 50       		.sleb128 -48
 15440 4664 00       		.byte	0
 15441 4665 00       		.byte	0
 15442 4666 37       		.uleb128 0x37
 15443 4667 D1010000 		.4byte	0x1d1
 15444 466b 0B       		.uleb128 0xb
 15445 466c B1000000 		.4byte	0xb1
 15446 4670 0B       		.byte	0xb
 15447 4671 00       		.byte	0
 15448 4672 00       		.byte	0
 15449              		.section	.debug_abbrev,"",%progbits
 15450              	.Ldebug_abbrev0:
 15451 0000 01       		.uleb128 0x1
 15452 0001 11       		.uleb128 0x11
 15453 0002 01       		.byte	0x1
 15454 0003 25       		.uleb128 0x25
 15455 0004 0E       		.uleb128 0xe
 15456 0005 13       		.uleb128 0x13
 15457 0006 0B       		.uleb128 0xb
 15458 0007 03       		.uleb128 0x3
 15459 0008 0E       		.uleb128 0xe
 15460 0009 1B       		.uleb128 0x1b
 15461 000a 0E       		.uleb128 0xe
 15462 000b 55       		.uleb128 0x55
 15463 000c 17       		.uleb128 0x17
 15464 000d 11       		.uleb128 0x11
 15465 000e 01       		.uleb128 0x1
 15466 000f 10       		.uleb128 0x10
ARM GAS  C:\Users\Moi\AppData\Local\Temp\ccF5N8ze.s 			page 278


 15467 0010 17       		.uleb128 0x17
 15468 0011 00       		.byte	0
 15469 0012 00       		.byte	0
 15470 0013 02       		.uleb128 0x2
 15471 0014 16       		.uleb128 0x16
 15472 0015 00       		.byte	0
 15473 0016 03       		.uleb128 0x3
 15474 0017 0E       		.uleb128 0xe
 15475 0018 3A       		.uleb128 0x3a
 15476 0019 0B       		.uleb128 0xb
 15477 001a 3B       		.uleb128 0x3b
 15478 001b 0B       		.uleb128 0xb
 15479 001c 49       		.uleb128 0x49
 15480 001d 13       		.uleb128 0x13
 15481 001e 00       		.byte	0
 15482 001f 00       		.byte	0
 15483 0020 03       		.uleb128 0x3
 15484 0021 24       		.uleb128 0x24
 15485 0022 00       		.byte	0
 15486 0023 0B       		.uleb128 0xb
 15487 0024 0B       		.uleb128 0xb
 15488 0025 3E       		.uleb128 0x3e
 15489 0026 0B       		.uleb128 0xb
 15490 0027 03       		.uleb128 0x3
 15491 0028 0E       		.uleb128 0xe
 15492 0029 00       		.byte	0
 15493 002a 00       		.byte	0
 15494 002b 04       		.uleb128 0x4
 15495 002c 24       		.uleb128 0x24
 15496 002d 00       		.byte	0
 15497 002e 0B       		.uleb128 0xb
 15498 002f 0B       		.uleb128 0xb
 15499 0030 3E       		.uleb128 0x3e
 15500 0031 0B       		.uleb128 0xb
 15501 0032 03       		.uleb128 0x3
 15502 0033 08       		.uleb128 0x8
 15503 0034 00       		.byte	0
 15504 0035 00       		.byte	0
 15505 0036 05       		.uleb128 0x5
 15506 0037 0F       		.uleb128 0xf
 15507 0038 00       		.byte	0
 15508 0039 0B       		.uleb128 0xb
 15509 003a 0B       		.uleb128 0xb
 15510 003b 49       		.uleb128 0x49
 15511 003c 13       		.uleb128 0x13
 15512 003d 00       		.byte	0
 15513 003e 00       		.byte	0
 15514 003f 06       		.uleb128 0x6
 15515 0040 13       		.uleb128 0x13
 15516 0041 00       		.byte	0
 15517 0042 03       		.uleb128 0x3
 15518 0043 0E       		.uleb128 0xe
 15519 0044 3C       		.uleb128 0x3c
 15520 0045 19       		.uleb128 0x19
 15521 0046 00       		.byte	0
 15522 0047 00       		.byte	0
 15523 0048 07       		.uleb128 0x7
ARM GAS  C:\Users\Moi\AppData\Local\Temp\ccF5N8ze.s 			page 279


 15524 0049 16       		.uleb128 0x16
 15525 004a 00       		.byte	0
 15526 004b 03       		.uleb128 0x3
 15527 004c 0E       		.uleb128 0xe
 15528 004d 3A       		.uleb128 0x3a
 15529 004e 0B       		.uleb128 0xb
 15530 004f 3B       		.uleb128 0x3b
 15531 0050 05       		.uleb128 0x5
 15532 0051 49       		.uleb128 0x49
 15533 0052 13       		.uleb128 0x13
 15534 0053 00       		.byte	0
 15535 0054 00       		.byte	0
 15536 0055 08       		.uleb128 0x8
 15537 0056 17       		.uleb128 0x17
 15538 0057 01       		.byte	0x1
 15539 0058 0B       		.uleb128 0xb
 15540 0059 0B       		.uleb128 0xb
 15541 005a 3A       		.uleb128 0x3a
 15542 005b 0B       		.uleb128 0xb
 15543 005c 3B       		.uleb128 0x3b
 15544 005d 0B       		.uleb128 0xb
 15545 005e 01       		.uleb128 0x1
 15546 005f 13       		.uleb128 0x13
 15547 0060 00       		.byte	0
 15548 0061 00       		.byte	0
 15549 0062 09       		.uleb128 0x9
 15550 0063 0D       		.uleb128 0xd
 15551 0064 00       		.byte	0
 15552 0065 03       		.uleb128 0x3
 15553 0066 0E       		.uleb128 0xe
 15554 0067 3A       		.uleb128 0x3a
 15555 0068 0B       		.uleb128 0xb
 15556 0069 3B       		.uleb128 0x3b
 15557 006a 0B       		.uleb128 0xb
 15558 006b 49       		.uleb128 0x49
 15559 006c 13       		.uleb128 0x13
 15560 006d 00       		.byte	0
 15561 006e 00       		.byte	0
 15562 006f 0A       		.uleb128 0xa
 15563 0070 01       		.uleb128 0x1
 15564 0071 01       		.byte	0x1
 15565 0072 49       		.uleb128 0x49
 15566 0073 13       		.uleb128 0x13
 15567 0074 01       		.uleb128 0x1
 15568 0075 13       		.uleb128 0x13
 15569 0076 00       		.byte	0
 15570 0077 00       		.byte	0
 15571 0078 0B       		.uleb128 0xb
 15572 0079 21       		.uleb128 0x21
 15573 007a 00       		.byte	0
 15574 007b 49       		.uleb128 0x49
 15575 007c 13       		.uleb128 0x13
 15576 007d 2F       		.uleb128 0x2f
 15577 007e 0B       		.uleb128 0xb
 15578 007f 00       		.byte	0
 15579 0080 00       		.byte	0
 15580 0081 0C       		.uleb128 0xc
ARM GAS  C:\Users\Moi\AppData\Local\Temp\ccF5N8ze.s 			page 280


 15581 0082 13       		.uleb128 0x13
 15582 0083 01       		.byte	0x1
 15583 0084 0B       		.uleb128 0xb
 15584 0085 0B       		.uleb128 0xb
 15585 0086 3A       		.uleb128 0x3a
 15586 0087 0B       		.uleb128 0xb
 15587 0088 3B       		.uleb128 0x3b
 15588 0089 0B       		.uleb128 0xb
 15589 008a 01       		.uleb128 0x1
 15590 008b 13       		.uleb128 0x13
 15591 008c 00       		.byte	0
 15592 008d 00       		.byte	0
 15593 008e 0D       		.uleb128 0xd
 15594 008f 0D       		.uleb128 0xd
 15595 0090 00       		.byte	0
 15596 0091 03       		.uleb128 0x3
 15597 0092 0E       		.uleb128 0xe
 15598 0093 3A       		.uleb128 0x3a
 15599 0094 0B       		.uleb128 0xb
 15600 0095 3B       		.uleb128 0x3b
 15601 0096 0B       		.uleb128 0xb
 15602 0097 49       		.uleb128 0x49
 15603 0098 13       		.uleb128 0x13
 15604 0099 38       		.uleb128 0x38
 15605 009a 0B       		.uleb128 0xb
 15606 009b 00       		.byte	0
 15607 009c 00       		.byte	0
 15608 009d 0E       		.uleb128 0xe
 15609 009e 0F       		.uleb128 0xf
 15610 009f 00       		.byte	0
 15611 00a0 0B       		.uleb128 0xb
 15612 00a1 0B       		.uleb128 0xb
 15613 00a2 00       		.byte	0
 15614 00a3 00       		.byte	0
 15615 00a4 0F       		.uleb128 0xf
 15616 00a5 26       		.uleb128 0x26
 15617 00a6 00       		.byte	0
 15618 00a7 49       		.uleb128 0x49
 15619 00a8 13       		.uleb128 0x13
 15620 00a9 00       		.byte	0
 15621 00aa 00       		.byte	0
 15622 00ab 10       		.uleb128 0x10
 15623 00ac 35       		.uleb128 0x35
 15624 00ad 00       		.byte	0
 15625 00ae 49       		.uleb128 0x49
 15626 00af 13       		.uleb128 0x13
 15627 00b0 00       		.byte	0
 15628 00b1 00       		.byte	0
 15629 00b2 11       		.uleb128 0x11
 15630 00b3 34       		.uleb128 0x34
 15631 00b4 00       		.byte	0
 15632 00b5 03       		.uleb128 0x3
 15633 00b6 0E       		.uleb128 0xe
 15634 00b7 3A       		.uleb128 0x3a
 15635 00b8 0B       		.uleb128 0xb
 15636 00b9 3B       		.uleb128 0x3b
 15637 00ba 0B       		.uleb128 0xb
ARM GAS  C:\Users\Moi\AppData\Local\Temp\ccF5N8ze.s 			page 281


 15638 00bb 49       		.uleb128 0x49
 15639 00bc 13       		.uleb128 0x13
 15640 00bd 3F       		.uleb128 0x3f
 15641 00be 19       		.uleb128 0x19
 15642 00bf 3C       		.uleb128 0x3c
 15643 00c0 19       		.uleb128 0x19
 15644 00c1 00       		.byte	0
 15645 00c2 00       		.byte	0
 15646 00c3 12       		.uleb128 0x12
 15647 00c4 13       		.uleb128 0x13
 15648 00c5 01       		.byte	0x1
 15649 00c6 03       		.uleb128 0x3
 15650 00c7 0E       		.uleb128 0xe
 15651 00c8 0B       		.uleb128 0xb
 15652 00c9 0B       		.uleb128 0xb
 15653 00ca 3A       		.uleb128 0x3a
 15654 00cb 0B       		.uleb128 0xb
 15655 00cc 3B       		.uleb128 0x3b
 15656 00cd 0B       		.uleb128 0xb
 15657 00ce 01       		.uleb128 0x1
 15658 00cf 13       		.uleb128 0x13
 15659 00d0 00       		.byte	0
 15660 00d1 00       		.byte	0
 15661 00d2 13       		.uleb128 0x13
 15662 00d3 0D       		.uleb128 0xd
 15663 00d4 00       		.byte	0
 15664 00d5 03       		.uleb128 0x3
 15665 00d6 08       		.uleb128 0x8
 15666 00d7 3A       		.uleb128 0x3a
 15667 00d8 0B       		.uleb128 0xb
 15668 00d9 3B       		.uleb128 0x3b
 15669 00da 0B       		.uleb128 0xb
 15670 00db 49       		.uleb128 0x49
 15671 00dc 13       		.uleb128 0x13
 15672 00dd 38       		.uleb128 0x38
 15673 00de 0B       		.uleb128 0xb
 15674 00df 00       		.byte	0
 15675 00e0 00       		.byte	0
 15676 00e1 14       		.uleb128 0x14
 15677 00e2 13       		.uleb128 0x13
 15678 00e3 01       		.byte	0x1
 15679 00e4 03       		.uleb128 0x3
 15680 00e5 0E       		.uleb128 0xe
 15681 00e6 0B       		.uleb128 0xb
 15682 00e7 05       		.uleb128 0x5
 15683 00e8 3A       		.uleb128 0x3a
 15684 00e9 0B       		.uleb128 0xb
 15685 00ea 3B       		.uleb128 0x3b
 15686 00eb 0B       		.uleb128 0xb
 15687 00ec 01       		.uleb128 0x1
 15688 00ed 13       		.uleb128 0x13
 15689 00ee 00       		.byte	0
 15690 00ef 00       		.byte	0
 15691 00f0 15       		.uleb128 0x15
 15692 00f1 0D       		.uleb128 0xd
 15693 00f2 00       		.byte	0
 15694 00f3 03       		.uleb128 0x3
ARM GAS  C:\Users\Moi\AppData\Local\Temp\ccF5N8ze.s 			page 282


 15695 00f4 0E       		.uleb128 0xe
 15696 00f5 3A       		.uleb128 0x3a
 15697 00f6 0B       		.uleb128 0xb
 15698 00f7 3B       		.uleb128 0x3b
 15699 00f8 0B       		.uleb128 0xb
 15700 00f9 49       		.uleb128 0x49
 15701 00fa 13       		.uleb128 0x13
 15702 00fb 38       		.uleb128 0x38
 15703 00fc 05       		.uleb128 0x5
 15704 00fd 00       		.byte	0
 15705 00fe 00       		.byte	0
 15706 00ff 16       		.uleb128 0x16
 15707 0100 15       		.uleb128 0x15
 15708 0101 00       		.byte	0
 15709 0102 27       		.uleb128 0x27
 15710 0103 19       		.uleb128 0x19
 15711 0104 00       		.byte	0
 15712 0105 00       		.byte	0
 15713 0106 17       		.uleb128 0x17
 15714 0107 15       		.uleb128 0x15
 15715 0108 01       		.byte	0x1
 15716 0109 27       		.uleb128 0x27
 15717 010a 19       		.uleb128 0x19
 15718 010b 49       		.uleb128 0x49
 15719 010c 13       		.uleb128 0x13
 15720 010d 01       		.uleb128 0x1
 15721 010e 13       		.uleb128 0x13
 15722 010f 00       		.byte	0
 15723 0110 00       		.byte	0
 15724 0111 18       		.uleb128 0x18
 15725 0112 05       		.uleb128 0x5
 15726 0113 00       		.byte	0
 15727 0114 49       		.uleb128 0x49
 15728 0115 13       		.uleb128 0x13
 15729 0116 00       		.byte	0
 15730 0117 00       		.byte	0
 15731 0118 19       		.uleb128 0x19
 15732 0119 13       		.uleb128 0x13
 15733 011a 01       		.byte	0x1
 15734 011b 03       		.uleb128 0x3
 15735 011c 0E       		.uleb128 0xe
 15736 011d 0B       		.uleb128 0xb
 15737 011e 05       		.uleb128 0x5
 15738 011f 3A       		.uleb128 0x3a
 15739 0120 0B       		.uleb128 0xb
 15740 0121 3B       		.uleb128 0x3b
 15741 0122 05       		.uleb128 0x5
 15742 0123 01       		.uleb128 0x1
 15743 0124 13       		.uleb128 0x13
 15744 0125 00       		.byte	0
 15745 0126 00       		.byte	0
 15746 0127 1A       		.uleb128 0x1a
 15747 0128 0D       		.uleb128 0xd
 15748 0129 00       		.byte	0
 15749 012a 03       		.uleb128 0x3
 15750 012b 0E       		.uleb128 0xe
 15751 012c 3A       		.uleb128 0x3a
ARM GAS  C:\Users\Moi\AppData\Local\Temp\ccF5N8ze.s 			page 283


 15752 012d 0B       		.uleb128 0xb
 15753 012e 3B       		.uleb128 0x3b
 15754 012f 05       		.uleb128 0x5
 15755 0130 49       		.uleb128 0x49
 15756 0131 13       		.uleb128 0x13
 15757 0132 38       		.uleb128 0x38
 15758 0133 0B       		.uleb128 0xb
 15759 0134 00       		.byte	0
 15760 0135 00       		.byte	0
 15761 0136 1B       		.uleb128 0x1b
 15762 0137 0D       		.uleb128 0xd
 15763 0138 00       		.byte	0
 15764 0139 03       		.uleb128 0x3
 15765 013a 0E       		.uleb128 0xe
 15766 013b 3A       		.uleb128 0x3a
 15767 013c 0B       		.uleb128 0xb
 15768 013d 3B       		.uleb128 0x3b
 15769 013e 05       		.uleb128 0x5
 15770 013f 49       		.uleb128 0x49
 15771 0140 13       		.uleb128 0x13
 15772 0141 38       		.uleb128 0x38
 15773 0142 05       		.uleb128 0x5
 15774 0143 00       		.byte	0
 15775 0144 00       		.byte	0
 15776 0145 1C       		.uleb128 0x1c
 15777 0146 13       		.uleb128 0x13
 15778 0147 01       		.byte	0x1
 15779 0148 03       		.uleb128 0x3
 15780 0149 0E       		.uleb128 0xe
 15781 014a 0B       		.uleb128 0xb
 15782 014b 0B       		.uleb128 0xb
 15783 014c 3A       		.uleb128 0x3a
 15784 014d 0B       		.uleb128 0xb
 15785 014e 3B       		.uleb128 0x3b
 15786 014f 05       		.uleb128 0x5
 15787 0150 01       		.uleb128 0x1
 15788 0151 13       		.uleb128 0x13
 15789 0152 00       		.byte	0
 15790 0153 00       		.byte	0
 15791 0154 1D       		.uleb128 0x1d
 15792 0155 13       		.uleb128 0x13
 15793 0156 01       		.byte	0x1
 15794 0157 0B       		.uleb128 0xb
 15795 0158 0B       		.uleb128 0xb
 15796 0159 3A       		.uleb128 0x3a
 15797 015a 0B       		.uleb128 0xb
 15798 015b 3B       		.uleb128 0x3b
 15799 015c 05       		.uleb128 0x5
 15800 015d 01       		.uleb128 0x1
 15801 015e 13       		.uleb128 0x13
 15802 015f 00       		.byte	0
 15803 0160 00       		.byte	0
 15804 0161 1E       		.uleb128 0x1e
 15805 0162 17       		.uleb128 0x17
 15806 0163 01       		.byte	0x1
 15807 0164 0B       		.uleb128 0xb
 15808 0165 0B       		.uleb128 0xb
ARM GAS  C:\Users\Moi\AppData\Local\Temp\ccF5N8ze.s 			page 284


 15809 0166 3A       		.uleb128 0x3a
 15810 0167 0B       		.uleb128 0xb
 15811 0168 3B       		.uleb128 0x3b
 15812 0169 05       		.uleb128 0x5
 15813 016a 01       		.uleb128 0x1
 15814 016b 13       		.uleb128 0x13
 15815 016c 00       		.byte	0
 15816 016d 00       		.byte	0
 15817 016e 1F       		.uleb128 0x1f
 15818 016f 0D       		.uleb128 0xd
 15819 0170 00       		.byte	0
 15820 0171 03       		.uleb128 0x3
 15821 0172 0E       		.uleb128 0xe
 15822 0173 3A       		.uleb128 0x3a
 15823 0174 0B       		.uleb128 0xb
 15824 0175 3B       		.uleb128 0x3b
 15825 0176 05       		.uleb128 0x5
 15826 0177 49       		.uleb128 0x49
 15827 0178 13       		.uleb128 0x13
 15828 0179 00       		.byte	0
 15829 017a 00       		.byte	0
 15830 017b 20       		.uleb128 0x20
 15831 017c 15       		.uleb128 0x15
 15832 017d 01       		.byte	0x1
 15833 017e 27       		.uleb128 0x27
 15834 017f 19       		.uleb128 0x19
 15835 0180 01       		.uleb128 0x1
 15836 0181 13       		.uleb128 0x13
 15837 0182 00       		.byte	0
 15838 0183 00       		.byte	0
 15839 0184 21       		.uleb128 0x21
 15840 0185 34       		.uleb128 0x34
 15841 0186 00       		.byte	0
 15842 0187 03       		.uleb128 0x3
 15843 0188 0E       		.uleb128 0xe
 15844 0189 3A       		.uleb128 0x3a
 15845 018a 0B       		.uleb128 0xb
 15846 018b 3B       		.uleb128 0x3b
 15847 018c 05       		.uleb128 0x5
 15848 018d 49       		.uleb128 0x49
 15849 018e 13       		.uleb128 0x13
 15850 018f 3F       		.uleb128 0x3f
 15851 0190 19       		.uleb128 0x19
 15852 0191 3C       		.uleb128 0x3c
 15853 0192 19       		.uleb128 0x19
 15854 0193 00       		.byte	0
 15855 0194 00       		.byte	0
 15856 0195 22       		.uleb128 0x22
 15857 0196 26       		.uleb128 0x26
 15858 0197 00       		.byte	0
 15859 0198 00       		.byte	0
 15860 0199 00       		.byte	0
 15861 019a 23       		.uleb128 0x23
 15862 019b 0D       		.uleb128 0xd
 15863 019c 00       		.byte	0
 15864 019d 03       		.uleb128 0x3
 15865 019e 08       		.uleb128 0x8
ARM GAS  C:\Users\Moi\AppData\Local\Temp\ccF5N8ze.s 			page 285


 15866 019f 3A       		.uleb128 0x3a
 15867 01a0 0B       		.uleb128 0xb
 15868 01a1 3B       		.uleb128 0x3b
 15869 01a2 0B       		.uleb128 0xb
 15870 01a3 49       		.uleb128 0x49
 15871 01a4 13       		.uleb128 0x13
 15872 01a5 00       		.byte	0
 15873 01a6 00       		.byte	0
 15874 01a7 24       		.uleb128 0x24
 15875 01a8 34       		.uleb128 0x34
 15876 01a9 00       		.byte	0
 15877 01aa 03       		.uleb128 0x3
 15878 01ab 08       		.uleb128 0x8
 15879 01ac 3A       		.uleb128 0x3a
 15880 01ad 0B       		.uleb128 0xb
 15881 01ae 3B       		.uleb128 0x3b
 15882 01af 0B       		.uleb128 0xb
 15883 01b0 49       		.uleb128 0x49
 15884 01b1 13       		.uleb128 0x13
 15885 01b2 3F       		.uleb128 0x3f
 15886 01b3 19       		.uleb128 0x19
 15887 01b4 3C       		.uleb128 0x3c
 15888 01b5 19       		.uleb128 0x19
 15889 01b6 00       		.byte	0
 15890 01b7 00       		.byte	0
 15891 01b8 25       		.uleb128 0x25
 15892 01b9 0D       		.uleb128 0xd
 15893 01ba 00       		.byte	0
 15894 01bb 03       		.uleb128 0x3
 15895 01bc 08       		.uleb128 0x8
 15896 01bd 3A       		.uleb128 0x3a
 15897 01be 0B       		.uleb128 0xb
 15898 01bf 3B       		.uleb128 0x3b
 15899 01c0 05       		.uleb128 0x5
 15900 01c1 49       		.uleb128 0x49
 15901 01c2 13       		.uleb128 0x13
 15902 01c3 38       		.uleb128 0x38
 15903 01c4 0B       		.uleb128 0xb
 15904 01c5 00       		.byte	0
 15905 01c6 00       		.byte	0
 15906 01c7 26       		.uleb128 0x26
 15907 01c8 0D       		.uleb128 0xd
 15908 01c9 00       		.byte	0
 15909 01ca 03       		.uleb128 0x3
 15910 01cb 08       		.uleb128 0x8
 15911 01cc 3A       		.uleb128 0x3a
 15912 01cd 0B       		.uleb128 0xb
 15913 01ce 3B       		.uleb128 0x3b
 15914 01cf 05       		.uleb128 0x5
 15915 01d0 49       		.uleb128 0x49
 15916 01d1 13       		.uleb128 0x13
 15917 01d2 38       		.uleb128 0x38
 15918 01d3 05       		.uleb128 0x5
 15919 01d4 00       		.byte	0
 15920 01d5 00       		.byte	0
 15921 01d6 27       		.uleb128 0x27
 15922 01d7 13       		.uleb128 0x13
ARM GAS  C:\Users\Moi\AppData\Local\Temp\ccF5N8ze.s 			page 286


 15923 01d8 01       		.byte	0x1
 15924 01d9 0B       		.uleb128 0xb
 15925 01da 05       		.uleb128 0x5
 15926 01db 3A       		.uleb128 0x3a
 15927 01dc 0B       		.uleb128 0xb
 15928 01dd 3B       		.uleb128 0x3b
 15929 01de 05       		.uleb128 0x5
 15930 01df 01       		.uleb128 0x1
 15931 01e0 13       		.uleb128 0x13
 15932 01e1 00       		.byte	0
 15933 01e2 00       		.byte	0
 15934 01e3 28       		.uleb128 0x28
 15935 01e4 13       		.uleb128 0x13
 15936 01e5 01       		.byte	0x1
 15937 01e6 0B       		.uleb128 0xb
 15938 01e7 05       		.uleb128 0x5
 15939 01e8 3A       		.uleb128 0x3a
 15940 01e9 0B       		.uleb128 0xb
 15941 01ea 3B       		.uleb128 0x3b
 15942 01eb 0B       		.uleb128 0xb
 15943 01ec 01       		.uleb128 0x1
 15944 01ed 13       		.uleb128 0x13
 15945 01ee 00       		.byte	0
 15946 01ef 00       		.byte	0
 15947 01f0 29       		.uleb128 0x29
 15948 01f1 34       		.uleb128 0x34
 15949 01f2 00       		.byte	0
 15950 01f3 03       		.uleb128 0x3
 15951 01f4 08       		.uleb128 0x8
 15952 01f5 3A       		.uleb128 0x3a
 15953 01f6 0B       		.uleb128 0xb
 15954 01f7 3B       		.uleb128 0x3b
 15955 01f8 05       		.uleb128 0x5
 15956 01f9 49       		.uleb128 0x49
 15957 01fa 13       		.uleb128 0x13
 15958 01fb 3F       		.uleb128 0x3f
 15959 01fc 19       		.uleb128 0x19
 15960 01fd 3C       		.uleb128 0x3c
 15961 01fe 19       		.uleb128 0x19
 15962 01ff 00       		.byte	0
 15963 0200 00       		.byte	0
 15964 0201 2A       		.uleb128 0x2a
 15965 0202 04       		.uleb128 0x4
 15966 0203 01       		.byte	0x1
 15967 0204 3E       		.uleb128 0x3e
 15968 0205 0B       		.uleb128 0xb
 15969 0206 0B       		.uleb128 0xb
 15970 0207 0B       		.uleb128 0xb
 15971 0208 49       		.uleb128 0x49
 15972 0209 13       		.uleb128 0x13
 15973 020a 3A       		.uleb128 0x3a
 15974 020b 0B       		.uleb128 0xb
 15975 020c 3B       		.uleb128 0x3b
 15976 020d 0B       		.uleb128 0xb
 15977 020e 01       		.uleb128 0x1
 15978 020f 13       		.uleb128 0x13
 15979 0210 00       		.byte	0
ARM GAS  C:\Users\Moi\AppData\Local\Temp\ccF5N8ze.s 			page 287


 15980 0211 00       		.byte	0
 15981 0212 2B       		.uleb128 0x2b
 15982 0213 28       		.uleb128 0x28
 15983 0214 00       		.byte	0
 15984 0215 03       		.uleb128 0x3
 15985 0216 0E       		.uleb128 0xe
 15986 0217 1C       		.uleb128 0x1c
 15987 0218 0B       		.uleb128 0xb
 15988 0219 00       		.byte	0
 15989 021a 00       		.byte	0
 15990 021b 2C       		.uleb128 0x2c
 15991 021c 04       		.uleb128 0x4
 15992 021d 01       		.byte	0x1
 15993 021e 3E       		.uleb128 0x3e
 15994 021f 0B       		.uleb128 0xb
 15995 0220 0B       		.uleb128 0xb
 15996 0221 0B       		.uleb128 0xb
 15997 0222 49       		.uleb128 0x49
 15998 0223 13       		.uleb128 0x13
 15999 0224 3A       		.uleb128 0x3a
 16000 0225 0B       		.uleb128 0xb
 16001 0226 3B       		.uleb128 0x3b
 16002 0227 05       		.uleb128 0x5
 16003 0228 01       		.uleb128 0x1
 16004 0229 13       		.uleb128 0x13
 16005 022a 00       		.byte	0
 16006 022b 00       		.byte	0
 16007 022c 2D       		.uleb128 0x2d
 16008 022d 13       		.uleb128 0x13
 16009 022e 01       		.byte	0x1
 16010 022f 0B       		.uleb128 0xb
 16011 0230 06       		.uleb128 0x6
 16012 0231 3A       		.uleb128 0x3a
 16013 0232 0B       		.uleb128 0xb
 16014 0233 3B       		.uleb128 0x3b
 16015 0234 0B       		.uleb128 0xb
 16016 0235 01       		.uleb128 0x1
 16017 0236 13       		.uleb128 0x13
 16018 0237 00       		.byte	0
 16019 0238 00       		.byte	0
 16020 0239 2E       		.uleb128 0x2e
 16021 023a 0D       		.uleb128 0xd
 16022 023b 00       		.byte	0
 16023 023c 03       		.uleb128 0x3
 16024 023d 08       		.uleb128 0x8
 16025 023e 3A       		.uleb128 0x3a
 16026 023f 0B       		.uleb128 0xb
 16027 0240 3B       		.uleb128 0x3b
 16028 0241 0B       		.uleb128 0xb
 16029 0242 49       		.uleb128 0x49
 16030 0243 13       		.uleb128 0x13
 16031 0244 38       		.uleb128 0x38
 16032 0245 05       		.uleb128 0x5
 16033 0246 00       		.byte	0
 16034 0247 00       		.byte	0
 16035 0248 2F       		.uleb128 0x2f
 16036 0249 21       		.uleb128 0x21
ARM GAS  C:\Users\Moi\AppData\Local\Temp\ccF5N8ze.s 			page 288


 16037 024a 00       		.byte	0
 16038 024b 49       		.uleb128 0x49
 16039 024c 13       		.uleb128 0x13
 16040 024d 2F       		.uleb128 0x2f
 16041 024e 05       		.uleb128 0x5
 16042 024f 00       		.byte	0
 16043 0250 00       		.byte	0
 16044 0251 30       		.uleb128 0x30
 16045 0252 21       		.uleb128 0x21
 16046 0253 00       		.byte	0
 16047 0254 00       		.byte	0
 16048 0255 00       		.byte	0
 16049 0256 31       		.uleb128 0x31
 16050 0257 2E       		.uleb128 0x2e
 16051 0258 01       		.byte	0x1
 16052 0259 3F       		.uleb128 0x3f
 16053 025a 19       		.uleb128 0x19
 16054 025b 03       		.uleb128 0x3
 16055 025c 0E       		.uleb128 0xe
 16056 025d 3A       		.uleb128 0x3a
 16057 025e 0B       		.uleb128 0xb
 16058 025f 3B       		.uleb128 0x3b
 16059 0260 0B       		.uleb128 0xb
 16060 0261 27       		.uleb128 0x27
 16061 0262 19       		.uleb128 0x19
 16062 0263 49       		.uleb128 0x49
 16063 0264 13       		.uleb128 0x13
 16064 0265 11       		.uleb128 0x11
 16065 0266 01       		.uleb128 0x1
 16066 0267 12       		.uleb128 0x12
 16067 0268 06       		.uleb128 0x6
 16068 0269 40       		.uleb128 0x40
 16069 026a 18       		.uleb128 0x18
 16070 026b 9642     		.uleb128 0x2116
 16071 026d 19       		.uleb128 0x19
 16072 026e 01       		.uleb128 0x1
 16073 026f 13       		.uleb128 0x13
 16074 0270 00       		.byte	0
 16075 0271 00       		.byte	0
 16076 0272 32       		.uleb128 0x32
 16077 0273 34       		.uleb128 0x34
 16078 0274 00       		.byte	0
 16079 0275 03       		.uleb128 0x3
 16080 0276 08       		.uleb128 0x8
 16081 0277 3A       		.uleb128 0x3a
 16082 0278 0B       		.uleb128 0xb
 16083 0279 3B       		.uleb128 0x3b
 16084 027a 0B       		.uleb128 0xb
 16085 027b 49       		.uleb128 0x49
 16086 027c 13       		.uleb128 0x13
 16087 027d 02       		.uleb128 0x2
 16088 027e 18       		.uleb128 0x18
 16089 027f 00       		.byte	0
 16090 0280 00       		.byte	0
 16091 0281 33       		.uleb128 0x33
 16092 0282 34       		.uleb128 0x34
 16093 0283 00       		.byte	0
ARM GAS  C:\Users\Moi\AppData\Local\Temp\ccF5N8ze.s 			page 289


 16094 0284 03       		.uleb128 0x3
 16095 0285 0E       		.uleb128 0xe
 16096 0286 3A       		.uleb128 0x3a
 16097 0287 0B       		.uleb128 0xb
 16098 0288 3B       		.uleb128 0x3b
 16099 0289 0B       		.uleb128 0xb
 16100 028a 49       		.uleb128 0x49
 16101 028b 13       		.uleb128 0x13
 16102 028c 02       		.uleb128 0x2
 16103 028d 18       		.uleb128 0x18
 16104 028e 00       		.byte	0
 16105 028f 00       		.byte	0
 16106 0290 34       		.uleb128 0x34
 16107 0291 0B       		.uleb128 0xb
 16108 0292 01       		.byte	0x1
 16109 0293 11       		.uleb128 0x11
 16110 0294 01       		.uleb128 0x1
 16111 0295 12       		.uleb128 0x12
 16112 0296 06       		.uleb128 0x6
 16113 0297 01       		.uleb128 0x1
 16114 0298 13       		.uleb128 0x13
 16115 0299 00       		.byte	0
 16116 029a 00       		.byte	0
 16117 029b 35       		.uleb128 0x35
 16118 029c 34       		.uleb128 0x34
 16119 029d 00       		.byte	0
 16120 029e 03       		.uleb128 0x3
 16121 029f 08       		.uleb128 0x8
 16122 02a0 3A       		.uleb128 0x3a
 16123 02a1 0B       		.uleb128 0xb
 16124 02a2 3B       		.uleb128 0x3b
 16125 02a3 05       		.uleb128 0x5
 16126 02a4 49       		.uleb128 0x49
 16127 02a5 13       		.uleb128 0x13
 16128 02a6 02       		.uleb128 0x2
 16129 02a7 18       		.uleb128 0x18
 16130 02a8 00       		.byte	0
 16131 02a9 00       		.byte	0
 16132 02aa 36       		.uleb128 0x36
 16133 02ab 0B       		.uleb128 0xb
 16134 02ac 01       		.byte	0x1
 16135 02ad 55       		.uleb128 0x55
 16136 02ae 17       		.uleb128 0x17
 16137 02af 00       		.byte	0
 16138 02b0 00       		.byte	0
 16139 02b1 37       		.uleb128 0x37
 16140 02b2 01       		.uleb128 0x1
 16141 02b3 01       		.byte	0x1
 16142 02b4 49       		.uleb128 0x49
 16143 02b5 13       		.uleb128 0x13
 16144 02b6 00       		.byte	0
 16145 02b7 00       		.byte	0
 16146 02b8 00       		.byte	0
 16147              		.section	.debug_aranges,"",%progbits
 16148 0000 1C000000 		.4byte	0x1c
 16149 0004 0200     		.2byte	0x2
 16150 0006 00000000 		.4byte	.Ldebug_info0
ARM GAS  C:\Users\Moi\AppData\Local\Temp\ccF5N8ze.s 			page 290


 16151 000a 04       		.byte	0x4
 16152 000b 00       		.byte	0
 16153 000c 0000     		.2byte	0
 16154 000e 0000     		.2byte	0
 16155 0010 00000000 		.4byte	.LFB260
 16156 0014 282E0000 		.4byte	.LFE260-.LFB260
 16157 0018 00000000 		.4byte	0
 16158 001c 00000000 		.4byte	0
 16159              		.section	.debug_ranges,"",%progbits
 16160              	.Ldebug_ranges0:
 16161 0000 34170000 		.4byte	.LBB3
 16162 0004 462D0000 		.4byte	.LBE3
 16163 0008 4C2D0000 		.4byte	.LBB4
 16164 000c F62D0000 		.4byte	.LBE4
 16165 0010 00000000 		.4byte	0
 16166 0014 00000000 		.4byte	0
 16167 0018 00000000 		.4byte	.LFB260
 16168 001c 282E0000 		.4byte	.LFE260
 16169 0020 00000000 		.4byte	0
 16170 0024 00000000 		.4byte	0
 16171              		.section	.debug_line,"",%progbits
 16172              	.Ldebug_line0:
 16173 0000 53110000 		.section	.debug_str,"MS",%progbits,1
 16173      0200E007 
 16173      00000201 
 16173      FB0E0D00 
 16173      01010101 
 16174              	.LASF736:
 16175 0000 5553425F 		.ascii	"USB_STOP\000"
 16175      53544F50 
 16175      00
 16176              	.LASF352:
 16177 0009 706F7274 		.ascii	"port_intctx\000"
 16177      5F696E74 
 16177      63747800 
 16178              	.LASF361:
 16179 0015 63685F74 		.ascii	"ch_trace_buffer_t\000"
 16179      72616365 
 16179      5F627566 
 16179      6665725F 
 16179      7400
 16180              	.LASF393:
 16181 0027 63685F70 		.ascii	"ch_ptrsize\000"
 16181      74727369 
 16181      7A6500
 16182              	.LASF52:
 16183 0032 6D657373 		.ascii	"messagebus_watcher_s\000"
 16183      61676562 
 16183      75735F77 
 16183      61746368 
 16183      65725F73 
 16184              	.LASF672:
 16185 0047 6576656E 		.ascii	"event\000"
 16185      7400
 16186              	.LASF884:
 16187 004d 53414E44 		.ascii	"SANDSTORMS\000"
 16187      53544F52 
ARM GAS  C:\Users\Moi\AppData\Local\Temp\ccF5N8ze.s 			page 291


 16187      4D5300
 16188              	.LASF523:
 16189 0058 43414E5F 		.ascii	"CAN_STARTING\000"
 16189      53544152 
 16189      54494E47 
 16189      00
 16190              	.LASF922:
 16191 0065 4C45445F 		.ascii	"LED_nbr\000"
 16191      6E627200 
 16192              	.LASF903:
 16193 006d 44434D49 		.ascii	"DCMI_ACTIVE_ONESHOT\000"
 16193      5F414354 
 16193      4956455F 
 16193      4F4E4553 
 16193      484F5400 
 16194              	.LASF189:
 16195 0081 6D73675F 		.ascii	"msg_t\000"
 16195      7400
 16196              	.LASF468:
 16197 0087 61667268 		.ascii	"afrh\000"
 16197      00
 16198              	.LASF615:
 16199 008c 4F504D4F 		.ascii	"OPMODE_SMBUS_DEVICE\000"
 16199      44455F53 
 16199      4D425553 
 16199      5F444556 
 16199      49434500 
 16200              	.LASF372:
 16201 00a0 6D5F6372 		.ascii	"m_crit_isr\000"
 16201      69745F69 
 16201      737200
 16202              	.LASF688:
 16203 00ab 73646366 		.ascii	"sdcflags_t\000"
 16203      6C616773 
 16203      5F7400
 16204              	.LASF921:
 16205 00b6 706F7369 		.ascii	"positionl\000"
 16205      74696F6E 
 16205      6C00
 16206              	.LASF920:
 16207 00c0 706F7369 		.ascii	"positionr\000"
 16207      74696F6E 
 16207      7200
 16208              	.LASF945:
 16209 00ca 62617474 		.ascii	"battValue\000"
 16209      56616C75 
 16209      6500
 16210              	.LASF180:
 16211 00d4 76656374 		.ascii	"vect\000"
 16211      00
 16212              	.LASF795:
 16213 00d9 44494550 		.ascii	"DIEPTXF0\000"
 16213      54584630 
 16213      00
 16214              	.LASF871:
 16215 00e2 55534244 		.ascii	"USBD1\000"
 16215      3100
ARM GAS  C:\Users\Moi\AppData\Local\Temp\ccF5N8ze.s 			page 292


 16216              	.LASF522:
 16217 00e8 43414E5F 		.ascii	"CAN_STOP\000"
 16217      53544F50 
 16217      00
 16218              	.LASF406:
 16219 00f1 63665F6F 		.ascii	"cf_off_time\000"
 16219      66665F74 
 16219      696D6500 
 16220              	.LASF248:
 16221 00fd 63685F73 		.ascii	"ch_system_t\000"
 16221      79737465 
 16221      6D5F7400 
 16222              	.LASF1:
 16223 0109 5F5F7569 		.ascii	"__uint8_t\000"
 16223      6E74385F 
 16223      7400
 16224              	.LASF378:
 16225 0113 77747365 		.ascii	"wtsemp\000"
 16225      6D7000
 16226              	.LASF888:
 16227 011a 4D4C5F53 		.ascii	"ML_SIMPLE_PLAY\000"
 16227      494D504C 
 16227      455F504C 
 16227      415900
 16228              	.LASF50:
 16229 0129 5F426F6F 		.ascii	"_Bool\000"
 16229      6C00
 16230              	.LASF564:
 16231 012f 64617461 		.ascii	"datamode\000"
 16231      6D6F6465 
 16231      00
 16232              	.LASF631:
 16233 0138 646D6172 		.ascii	"dmarx\000"
 16233      7800
 16234              	.LASF103:
 16235 013e 5F6D6273 		.ascii	"_mbstate\000"
 16235      74617465 
 16235      00
 16236              	.LASF82:
 16237 0147 5F617465 		.ascii	"_atexit\000"
 16237      78697400 
 16238              	.LASF446:
 16239 014f 424C4B5F 		.ascii	"BLK_READING\000"
 16239      52454144 
 16239      494E4700 
 16240              	.LASF164:
 16241 015b 6368616E 		.ascii	"changed_cnt\000"
 16241      6765645F 
 16241      636E7400 
 16242              	.LASF512:
 16243 0167 73717231 		.ascii	"sqr1\000"
 16243      00
 16244              	.LASF47:
 16245 016c 7075626C 		.ascii	"published\000"
 16245      69736865 
 16245      6400
 16246              	.LASF440:
ARM GAS  C:\Users\Moi\AppData\Local\Temp\ccF5N8ze.s 			page 293


 16247 0176 424C4B5F 		.ascii	"BLK_UNINIT\000"
 16247      554E494E 
 16247      495400
 16248              	.LASF643:
 16249 0181 72785F62 		.ascii	"rx_buffer\000"
 16249      75666665 
 16249      7200
 16250              	.LASF627:
 16251 018b 6572726F 		.ascii	"errors\000"
 16251      727300
 16252              	.LASF946:
 16253 0192 67756D73 		.ascii	"gumstix_connected\000"
 16253      7469785F 
 16253      636F6E6E 
 16253      65637465 
 16253      6400
 16254              	.LASF365:
 16255 01a4 776F7273 		.ascii	"worst\000"
 16255      7400
 16256              	.LASF241:
 16257 01aa 76745F73 		.ascii	"vt_systime\000"
 16257      79737469 
 16257      6D6500
 16258              	.LASF307:
 16259 01b5 444F5231 		.ascii	"DOR1\000"
 16259      00
 16260              	.LASF308:
 16261 01ba 444F5232 		.ascii	"DOR2\000"
 16261      00
 16262              	.LASF642:
 16263 01bf 74785F62 		.ascii	"tx_buffer\000"
 16263      75666665 
 16263      7200
 16264              	.LASF72:
 16265 01c9 5F5F746D 		.ascii	"__tm_mon\000"
 16265      5F6D6F6E 
 16265      00
 16266              	.LASF80:
 16267 01d2 5F666E74 		.ascii	"_fntypes\000"
 16267      79706573 
 16267      00
 16268              	.LASF387:
 16269 01db 6D5F6E65 		.ascii	"m_next\000"
 16269      787400
 16270              	.LASF472:
 16271 01e2 50434461 		.ascii	"PCData\000"
 16271      746100
 16272              	.LASF110:
 16273 01e9 5F696E63 		.ascii	"_inc\000"
 16273      00
 16274              	.LASF83:
 16275 01ee 5F696E64 		.ascii	"_ind\000"
 16275      00
 16276              	.LASF337:
 16277 01f3 4D41534B 		.ascii	"MASK\000"
 16277      00
 16278              	.LASF497:
ARM GAS  C:\Users\Moi\AppData\Local\Temp\ccF5N8ze.s 			page 294


 16279 01f8 73616D70 		.ascii	"samples\000"
 16279      6C657300 
 16280              	.LASF799:
 16281 0200 47434346 		.ascii	"GCCFG\000"
 16281      4700
 16282              	.LASF873:
 16283 0206 57455F41 		.ascii	"WE_ARE_THE_CHAMPIONS\000"
 16283      52455F54 
 16283      48455F43 
 16283      48414D50 
 16283      494F4E53 
 16284              	.LASF593:
 16285 021b 42445452 		.ascii	"BDTR\000"
 16285      00
 16286              	.LASF546:
 16287 0220 7265676D 		.ascii	"regmask\000"
 16287      61736B00 
 16288              	.LASF934:
 16289 0228 63616D5F 		.ascii	"cam_zoom\000"
 16289      7A6F6F6D 
 16289      00
 16290              	.LASF625:
 16291 0231 49324343 		.ascii	"I2CConfig\000"
 16291      6F6E6669 
 16291      6700
 16292              	.LASF31:
 16293 023b 75696E74 		.ascii	"uint16_t\000"
 16293      31365F74 
 16293      00
 16294              	.LASF632:
 16295 0244 646D6174 		.ascii	"dmatx\000"
 16295      7800
 16296              	.LASF869:
 16297 024a 736F665F 		.ascii	"sof_cb\000"
 16297      636200
 16298              	.LASF340:
 16299 0251 5344494F 		.ascii	"SDIO_TypeDef\000"
 16299      5F547970 
 16299      65446566 
 16299      00
 16300              	.LASF569:
 16301 025e 4558545F 		.ascii	"EXT_ACTIVE\000"
 16301      41435449 
 16301      564500
 16302              	.LASF89:
 16303 0269 5F666C61 		.ascii	"_flags\000"
 16303      677300
 16304              	.LASF49:
 16305 0270 6E657874 		.ascii	"next\000"
 16305      00
 16306              	.LASF465:
 16307 0275 6F737065 		.ascii	"ospeedr\000"
 16307      65647200 
 16308              	.LASF802:
 16309 027d 44494550 		.ascii	"DIEPTXF\000"
 16309      54584600 
 16310              	.LASF412:
ARM GAS  C:\Users\Moi\AppData\Local\Temp\ccF5N8ze.s 			page 295


 16311 0285 656C5F6E 		.ascii	"el_next\000"
 16311      65787400 
 16312              	.LASF894:
 16313 028d 696E636C 		.ascii	"inclination\000"
 16313      696E6174 
 16313      696F6E00 
 16314              	.LASF492:
 16315 0299 4144435F 		.ascii	"ADC_ERR_OVERFLOW\000"
 16315      4552525F 
 16315      4F564552 
 16315      464C4F57 
 16315      00
 16316              	.LASF120:
 16317 02aa 5F637674 		.ascii	"_cvtlen\000"
 16317      6C656E00 
 16318              	.LASF893:
 16319 02b2 6F726965 		.ascii	"orientation\000"
 16319      6E746174 
 16319      696F6E00 
 16320              	.LASF246:
 16321 02be 6C6F636B 		.ascii	"lock_cnt\000"
 16321      5F636E74 
 16321      00
 16322              	.LASF222:
 16323 02c7 63685F74 		.ascii	"ch_threads_queue\000"
 16323      68726561 
 16323      64735F71 
 16323      75657565 
 16323      00
 16324              	.LASF124:
 16325 02d8 5F736967 		.ascii	"_sig_func\000"
 16325      5F66756E 
 16325      6300
 16326              	.LASF201:
 16327 02e2 705F6E65 		.ascii	"p_newer\000"
 16327      77657200 
 16328              	.LASF812:
 16329 02ea 48505254 		.ascii	"HPRT\000"
 16329      00
 16330              	.LASF766:
 16331 02ef 4843494E 		.ascii	"HCINT\000"
 16331      5400
 16332              	.LASF939:
 16333 02f5 7267625F 		.ascii	"rgb_value\000"
 16333      76616C75 
 16333      6500
 16334              	.LASF257:
 16335 02ff 534D5052 		.ascii	"SMPR1\000"
 16335      3100
 16336              	.LASF258:
 16337 0305 534D5052 		.ascii	"SMPR2\000"
 16337      3200
 16338              	.LASF403:
 16339 030b 63665F6F 		.ascii	"cf_off_flags\000"
 16339      66665F66 
 16339      6C616773 
 16339      00
ARM GAS  C:\Users\Moi\AppData\Local\Temp\ccF5N8ze.s 			page 296


 16340              	.LASF102:
 16341 0318 5F6C6F63 		.ascii	"_lock\000"
 16341      6B00
 16342              	.LASF98:
 16343 031e 5F6E6275 		.ascii	"_nbuf\000"
 16343      6600
 16344              	.LASF705:
 16345 0324 5350495F 		.ascii	"SPI_STOP\000"
 16345      53544F50 
 16345      00
 16346              	.LASF156:
 16347 032d 5F756E75 		.ascii	"_unused\000"
 16347      73656400 
 16348              	.LASF872:
 16349 0335 494D504F 		.ascii	"IMPOSSIBLE_MISSION\000"
 16349      53534942 
 16349      4C455F4D 
 16349      49535349 
 16349      4F4E00
 16350              	.LASF471:
 16351 0348 50424461 		.ascii	"PBData\000"
 16351      746100
 16352              	.LASF391:
 16353 034f 63685F73 		.ascii	"ch_size\000"
 16353      697A6500 
 16354              	.LASF900:
 16355 0357 44434D49 		.ascii	"DCMI_STOP\000"
 16355      5F53544F 
 16355      5000
 16356              	.LASF808:
 16357 0361 48505458 		.ascii	"HPTXSTS\000"
 16357      53545300 
 16358              	.LASF464:
 16359 0369 6F747970 		.ascii	"otyper\000"
 16359      657200
 16360              	.LASF455:
 16361 0370 4F545950 		.ascii	"OTYPER\000"
 16361      455200
 16362              	.LASF548:
 16363 0377 64616370 		.ascii	"dacparams_t\000"
 16363      6172616D 
 16363      735F7400 
 16364              	.LASF330:
 16365 0383 52455350 		.ascii	"RESP2\000"
 16365      3200
 16366              	.LASF683:
 16367 0389 5344435F 		.ascii	"SDC_MODE_1BIT\000"
 16367      4D4F4445 
 16367      5F314249 
 16367      5400
 16368              	.LASF764:
 16369 0397 48434348 		.ascii	"HCCHAR\000"
 16369      415200
 16370              	.LASF609:
 16371 039e 4932435F 		.ascii	"I2C_ACTIVE_RX\000"
 16371      41435449 
 16371      56455F52 
ARM GAS  C:\Users\Moi\AppData\Local\Temp\ccF5N8ze.s 			page 297


 16371      5800
 16372              	.LASF195:
 16373 03ac 74687265 		.ascii	"thread_t\000"
 16373      61645F74 
 16373      00
 16374              	.LASF414:
 16375 03b5 656C5F65 		.ascii	"el_events\000"
 16375      76656E74 
 16375      7300
 16376              	.LASF652:
 16377 03bf 70776D73 		.ascii	"pwmstate_t\000"
 16377      74617465 
 16377      5F7400
 16378              	.LASF533:
 16379 03ca 736C6565 		.ascii	"sleep_event\000"
 16379      705F6576 
 16379      656E7400 
 16380              	.LASF240:
 16381 03d6 63685F76 		.ascii	"ch_virtual_timers_list\000"
 16381      69727475 
 16381      616C5F74 
 16381      696D6572 
 16381      735F6C69 
 16382              	.LASF437:
 16383 03ed 76656374 		.ascii	"vector\000"
 16383      6F7200
 16384              	.LASF790:
 16385 03f4 47494E54 		.ascii	"GINTSTS\000"
 16385      53545300 
 16386              	.LASF32:
 16387 03fc 696E7433 		.ascii	"int32_t\000"
 16387      325F7400 
 16388              	.LASF623:
 16389 0404 636C6F63 		.ascii	"clock_speed\000"
 16389      6B5F7370 
 16389      65656400 
 16390              	.LASF194:
 16391 0410 73797374 		.ascii	"systime_t\000"
 16391      696D655F 
 16391      7400
 16392              	.LASF566:
 16393 041a 44414344 		.ascii	"DACD2\000"
 16393      3200
 16394              	.LASF535:
 16395 0420 43414E44 		.ascii	"CANDriver\000"
 16395      72697665 
 16395      7200
 16396              	.LASF134:
 16397 042a 5F616464 		.ascii	"_add\000"
 16397      00
 16398              	.LASF318:
 16399 042f 4D304152 		.ascii	"M0AR\000"
 16399      00
 16400              	.LASF771:
 16401 0434 72657376 		.ascii	"resvd1c\000"
 16401      64316300 
 16402              	.LASF613:
ARM GAS  C:\Users\Moi\AppData\Local\Temp\ccF5N8ze.s 			page 298


 16403 043c 69326366 		.ascii	"i2cflags_t\000"
 16403      6C616773 
 16403      5F7400
 16404              	.LASF809:
 16405 0447 4841494E 		.ascii	"HAINT\000"
 16405      5400
 16406              	.LASF293:
 16407 044d 46413152 		.ascii	"FA1R\000"
 16407      00
 16408              	.LASF316:
 16409 0452 44434D49 		.ascii	"DCMI_TypeDef\000"
 16409      5F547970 
 16409      65446566 
 16409      00
 16410              	.LASF908:
 16411 045f 44434D49 		.ascii	"DCMIDriver\000"
 16411      44726976 
 16411      657200
 16412              	.LASF806:
 16413 046a 48464E55 		.ascii	"HFNUM\000"
 16413      4D00
 16414              	.LASF430:
 16415 0470 716E6F74 		.ascii	"qnotify_t\000"
 16415      6966795F 
 16415      7400
 16416              	.LASF488:
 16417 047a 61646373 		.ascii	"adcstate_t\000"
 16417      74617465 
 16417      5F7400
 16418              	.LASF915:
 16419 0485 44434D49 		.ascii	"DCMID\000"
 16419      4400
 16420              	.LASF691:
 16421 048b 63617264 		.ascii	"cardmode\000"
 16421      6D6F6465 
 16421      00
 16422              	.LASF435:
 16423 0494 69736869 		.ascii	"ishift\000"
 16423      667400
 16424              	.LASF583:
 16425 049b 4750545F 		.ascii	"GPT_ONESHOT\000"
 16425      4F4E4553 
 16425      484F5400 
 16426              	.LASF425:
 16427 04a7 715F746F 		.ascii	"q_top\000"
 16427      7000
 16428              	.LASF91:
 16429 04ad 5F6C6266 		.ascii	"_lbfsize\000"
 16429      73697A65 
 16429      00
 16430              	.LASF757:
 16431 04b6 75645F73 		.ascii	"ud_string\000"
 16431      7472696E 
 16431      6700
 16432              	.LASF626:
 16433 04c0 49324344 		.ascii	"I2CDriver\000"
 16433      72697665 
ARM GAS  C:\Users\Moi\AppData\Local\Temp\ccF5N8ze.s 			page 299


 16433      7200
 16434              	.LASF608:
 16435 04ca 4932435F 		.ascii	"I2C_ACTIVE_TX\000"
 16435      41435449 
 16435      56455F54 
 16435      5800
 16436              	.LASF678:
 16437 04d8 72656164 		.ascii	"read\000"
 16437      00
 16438              	.LASF614:
 16439 04dd 4F504D4F 		.ascii	"OPMODE_I2C\000"
 16439      44455F49 
 16439      324300
 16440              	.LASF818:
 16441 04e8 72657376 		.ascii	"resvd80C\000"
 16441      64383043 
 16441      00
 16442              	.LASF866:
 16443 04f1 6576656E 		.ascii	"event_cb\000"
 16443      745F6362 
 16443      00
 16444              	.LASF163:
 16445 04fa 70617261 		.ascii	"parameter_namespace_s\000"
 16445      6D657465 
 16445      725F6E61 
 16445      6D657370 
 16445      6163655F 
 16446              	.LASF162:
 16447 0510 70617261 		.ascii	"parameter_namespace_t\000"
 16447      6D657465 
 16447      725F6E61 
 16447      6D657370 
 16447      6163655F 
 16448              	.LASF785:
 16449 0526 474F5447 		.ascii	"GOTGCTL\000"
 16449      43544C00 
 16450              	.LASF760:
 16451 052e 75736265 		.ascii	"usbepcallback_t\000"
 16451      7063616C 
 16451      6C626163 
 16451      6B5F7400 
 16452              	.LASF101:
 16453 053e 5F646174 		.ascii	"_data\000"
 16453      6100
 16454              	.LASF251:
 16455 0544 76746C69 		.ascii	"vtlist\000"
 16455      737400
 16456              	.LASF323:
 16457 054b 54524953 		.ascii	"TRISE\000"
 16457      4500
 16458              	.LASF824:
 16459 0551 72657376 		.ascii	"resvd824\000"
 16459      64383234 
 16459      00
 16460              	.LASF210:
 16461 055a 705F7761 		.ascii	"p_waiting\000"
 16461      6974696E 
ARM GAS  C:\Users\Moi\AppData\Local\Temp\ccF5N8ze.s 			page 300


 16461      6700
 16462              	.LASF373:
 16463 0564 6B65726E 		.ascii	"kernel_stats_t\000"
 16463      656C5F73 
 16463      74617473 
 16463      5F7400
 16464              	.LASF941:
 16465 0573 69725F61 		.ascii	"ir_address\000"
 16465      64647265 
 16465      737300
 16466              	.LASF422:
 16467 057e 715F7761 		.ascii	"q_waiting\000"
 16467      6974696E 
 16467      6700
 16468              	.LASF275:
 16469 0588 43414E5F 		.ascii	"CAN_TxMailBox_TypeDef\000"
 16469      54784D61 
 16469      696C426F 
 16469      785F5479 
 16469      70654465 
 16470              	.LASF250:
 16471 059e 726C6973 		.ascii	"rlist\000"
 16471      7400
 16472              	.LASF219:
 16473 05a4 74687265 		.ascii	"threads_list_t\000"
 16473      6164735F 
 16473      6C697374 
 16473      5F7400
 16474              	.LASF363:
 16475 05b3 746D5F63 		.ascii	"tm_calibration_t\000"
 16475      616C6962 
 16475      72617469 
 16475      6F6E5F74 
 16475      00
 16476              	.LASF431:
 16477 05c4 696E7075 		.ascii	"input_queue_t\000"
 16477      745F7175 
 16477      6575655F 
 16477      7400
 16478              	.LASF515:
 16479 05d2 41444343 		.ascii	"ADCConversionGroup\000"
 16479      6F6E7665 
 16479      7273696F 
 16479      6E47726F 
 16479      757000
 16480              	.LASF940:
 16481 05e5 69725F6D 		.ascii	"ir_move\000"
 16481      6F766500 
 16482              	.LASF817:
 16483 05ed 44535453 		.ascii	"DSTS\000"
 16483      00
 16484              	.LASF157:
 16485 05f2 5F5F6C6F 		.ascii	"__lock\000"
 16485      636B00
 16486              	.LASF618:
 16487 05f9 5354445F 		.ascii	"STD_DUTY_CYCLE\000"
 16487      44555459 
ARM GAS  C:\Users\Moi\AppData\Local\Temp\ccF5N8ze.s 			page 301


 16487      5F435943 
 16487      4C4500
 16488              	.LASF105:
 16489 0608 5F726565 		.ascii	"_reent\000"
 16489      6E7400
 16490              	.LASF399:
 16491 060f 63665F6F 		.ascii	"cf_off_older\000"
 16491      66665F6F 
 16491      6C646572 
 16491      00
 16492              	.LASF183:
 16493 061c 72747469 		.ascii	"rttime_t\000"
 16493      6D655F74 
 16493      00
 16494              	.LASF578:
 16495 0625 45585444 		.ascii	"EXTD1\000"
 16495      3100
 16496              	.LASF851:
 16497 062b 72787175 		.ascii	"rxqueued\000"
 16497      65756564 
 16497      00
 16498              	.LASF526:
 16499 0634 63616E73 		.ascii	"canstate_t\000"
 16499      74617465 
 16499      5F7400
 16500              	.LASF295:
 16501 063f 7346696C 		.ascii	"sFilterRegister\000"
 16501      74657252 
 16501      65676973 
 16501      74657200 
 16502              	.LASF126:
 16503 064f 5F5F7366 		.ascii	"__sf\000"
 16503      00
 16504              	.LASF917:
 16505 0654 77616974 		.ascii	"wait_cam\000"
 16505      5F63616D 
 16505      00
 16506              	.LASF823:
 16507 065d 72657376 		.ascii	"resvd820\000"
 16507      64383230 
 16507      00
 16508              	.LASF86:
 16509 0666 5F626173 		.ascii	"_base\000"
 16509      6500
 16510              	.LASF329:
 16511 066c 52455350 		.ascii	"RESP1\000"
 16511      3100
 16512              	.LASF331:
 16513 0672 52455350 		.ascii	"RESP3\000"
 16513      3300
 16514              	.LASF332:
 16515 0678 52455350 		.ascii	"RESP4\000"
 16515      3400
 16516              	.LASF143:
 16517 067e 5F6D6274 		.ascii	"_mbtowc_state\000"
 16517      6F77635F 
 16517      73746174 
ARM GAS  C:\Users\Moi\AppData\Local\Temp\ccF5N8ze.s 			page 302


 16517      6500
 16518              	.LASF605:
 16519 068c 4932435F 		.ascii	"I2C_UNINIT\000"
 16519      554E494E 
 16519      495400
 16520              	.LASF762:
 16521 0697 75736272 		.ascii	"usbreqhandler_t\000"
 16521      65716861 
 16521      6E646C65 
 16521      725F7400 
 16522              	.LASF486:
 16523 06a7 4144435F 		.ascii	"ADC_COMPLETE\000"
 16523      434F4D50 
 16523      4C455445 
 16523      00
 16524              	.LASF602:
 16525 06b4 47505443 		.ascii	"GPTConfig\000"
 16525      6F6E6669 
 16525      6700
 16526              	.LASF667:
 16527 06be 53445F55 		.ascii	"SD_UNINIT\000"
 16527      4E494E49 
 16527      5400
 16528              	.LASF899:
 16529 06c8 44434D49 		.ascii	"DCMI_UNINIT\000"
 16529      5F554E49 
 16529      4E495400 
 16530              	.LASF188:
 16531 06d4 74707269 		.ascii	"tprio_t\000"
 16531      6F5F7400 
 16532              	.LASF369:
 16533 06dc 6E5F6972 		.ascii	"n_irq\000"
 16533      7100
 16534              	.LASF45:
 16535 06e2 636F6E64 		.ascii	"condvar\000"
 16535      76617200 
 16536              	.LASF646:
 16537 06ea 69327370 		.ascii	"i2spr\000"
 16537      7200
 16538              	.LASF827:
 16539 06f0 72657376 		.ascii	"resvd830\000"
 16539      64383330 
 16539      00
 16540              	.LASF67:
 16541 06f9 5F5F746D 		.ascii	"__tm\000"
 16541      00
 16542              	.LASF829:
 16543 06fe 72657376 		.ascii	"resvd838\000"
 16543      64383338 
 16543      00
 16544              	.LASF621:
 16545 0707 69326364 		.ascii	"i2cdutycycle_t\000"
 16545      75747963 
 16545      79636C65 
 16545      5F7400
 16546              	.LASF37:
 16547 0716 6F707461 		.ascii	"optarg\000"
ARM GAS  C:\Users\Moi\AppData\Local\Temp\ccF5N8ze.s 			page 303


 16547      726700
 16548              	.LASF830:
 16549 071d 72657376 		.ascii	"resvd83C\000"
 16549      64383343 
 16549      00
 16550              	.LASF500:
 16551 0726 74687265 		.ascii	"thread\000"
 16551      616400
 16552              	.LASF545:
 16553 072d 72656773 		.ascii	"regshift\000"
 16553      68696674 
 16553      00
 16554              	.LASF725:
 16555 0736 73657475 		.ascii	"setup\000"
 16555      7000
 16556              	.LASF704:
 16557 073c 5350495F 		.ascii	"SPI_UNINIT\000"
 16557      554E494E 
 16557      495400
 16558              	.LASF778:
 16559 0747 44545846 		.ascii	"DTXFSTS\000"
 16559      53545300 
 16560              	.LASF450:
 16561 074f 626C6B5F 		.ascii	"blk_size\000"
 16561      73697A65 
 16561      00
 16562              	.LASF607:
 16563 0758 4932435F 		.ascii	"I2C_READY\000"
 16563      52454144 
 16563      5900
 16564              	.LASF75:
 16565 0762 5F5F746D 		.ascii	"__tm_yday\000"
 16565      5F796461 
 16565      7900
 16566              	.LASF719:
 16567 076c 696E5F70 		.ascii	"in_params\000"
 16567      6172616D 
 16567      7300
 16568              	.LASF592:
 16569 0776 43434552 		.ascii	"CCER\000"
 16569      00
 16570              	.LASF345:
 16571 077b 49325350 		.ascii	"I2SPR\000"
 16571      5200
 16572              	.LASF649:
 16573 0781 50574D5F 		.ascii	"PWM_UNINIT\000"
 16573      554E494E 
 16573      495400
 16574              	.LASF364:
 16575 078c 62657374 		.ascii	"best\000"
 16575      00
 16576              	.LASF172:
 16577 0791 74797065 		.ascii	"type\000"
 16577      00
 16578              	.LASF787:
 16579 0796 47414842 		.ascii	"GAHBCFG\000"
 16579      43464700 
ARM GAS  C:\Users\Moi\AppData\Local\Temp\ccF5N8ze.s 			page 304


 16580              	.LASF555:
 16581 079e 64616363 		.ascii	"daccallback_t\000"
 16581      616C6C62 
 16581      61636B5F 
 16581      7400
 16582              	.LASF18:
 16583 07ac 5F4C4F43 		.ascii	"_LOCK_T\000"
 16583      4B5F5400 
 16584              	.LASF831:
 16585 07b4 72657376 		.ascii	"resvd840\000"
 16585      64383430 
 16585      00
 16586              	.LASF877:
 16587 07bd 4D415249 		.ascii	"MARIO_START\000"
 16587      4F5F5354 
 16587      41525400 
 16588              	.LASF341:
 16589 07c9 43524350 		.ascii	"CRCPR\000"
 16589      5200
 16590              	.LASF445:
 16591 07cf 424C4B5F 		.ascii	"BLK_READY\000"
 16591      52454144 
 16591      5900
 16592              	.LASF4:
 16593 07d9 5F5F696E 		.ascii	"__int16_t\000"
 16593      7431365F 
 16593      7400
 16594              	.LASF6:
 16595 07e3 5F5F7569 		.ascii	"__uint16_t\000"
 16595      6E743136 
 16595      5F7400
 16596              	.LASF582:
 16597 07ee 4750545F 		.ascii	"GPT_CONTINUOUS\000"
 16597      434F4E54 
 16597      494E554F 
 16597      555300
 16598              	.LASF845:
 16599 07fd 74787175 		.ascii	"txqueued\000"
 16599      65756564 
 16599      00
 16600              	.LASF212:
 16601 0806 705F6D73 		.ascii	"p_msg\000"
 16601      6700
 16602              	.LASF135:
 16603 080c 5F756E75 		.ascii	"_unused_rand\000"
 16603      7365645F 
 16603      72616E64 
 16603      00
 16604              	.LASF784:
 16605 0819 73746D33 		.ascii	"stm32_otg_out_ep_t\000"
 16605      325F6F74 
 16605      675F6F75 
 16605      745F6570 
 16605      5F7400
 16606              	.LASF793:
 16607 082c 47525853 		.ascii	"GRXSTSP\000"
 16607      54535000 
ARM GAS  C:\Users\Moi\AppData\Local\Temp\ccF5N8ze.s 			page 305


 16608              	.LASF792:
 16609 0834 47525853 		.ascii	"GRXSTSR\000"
 16609      54535200 
 16610              	.LASF375:
 16611 083c 65786974 		.ascii	"exitcode\000"
 16611      636F6465 
 16611      00
 16612              	.LASF319:
 16613 0845 4D314152 		.ascii	"M1AR\000"
 16613      00
 16614              	.LASF732:
 16615 084a 77616974 		.ascii	"wait\000"
 16615      00
 16616              	.LASF320:
 16617 084f 444D415F 		.ascii	"DMA_Stream_TypeDef\000"
 16617      53747265 
 16617      616D5F54 
 16617      79706544 
 16617      656600
 16618              	.LASF504:
 16619 0862 61646363 		.ascii	"adccallback_t\000"
 16619      616C6C62 
 16619      61636B5F 
 16619      7400
 16620              	.LASF739:
 16621 0870 5553425F 		.ascii	"USB_ACTIVE\000"
 16621      41435449 
 16621      564500
 16622              	.LASF41:
 16623 087b 6F707472 		.ascii	"optreset\000"
 16623      65736574 
 16623      00
 16624              	.LASF780:
 16625 0884 73746D33 		.ascii	"stm32_otg_in_ep_t\000"
 16625      325F6F74 
 16625      675F696E 
 16625      5F65705F 
 16625      7400
 16626              	.LASF853:
 16627 0896 7278636E 		.ascii	"rxcnt\000"
 16627      7400
 16628              	.LASF482:
 16629 089c 4144435F 		.ascii	"ADC_UNINIT\000"
 16629      554E494E 
 16629      495400
 16630              	.LASF629:
 16631 08a7 7278646D 		.ascii	"rxdmamode\000"
 16631      616D6F64 
 16631      6500
 16632              	.LASF117:
 16633 08b1 5F726573 		.ascii	"_result_k\000"
 16633      756C745F 
 16633      6B00
 16634              	.LASF574:
 16635 08bb 6D6F6465 		.ascii	"mode\000"
 16635      00
 16636              	.LASF109:
ARM GAS  C:\Users\Moi\AppData\Local\Temp\ccF5N8ze.s 			page 306


 16637 08c0 5F737464 		.ascii	"_stderr\000"
 16637      65727200 
 16638              	.LASF116:
 16639 08c8 5F726573 		.ascii	"_result\000"
 16639      756C7400 
 16640              	.LASF388:
 16641 08d0 6D5F636E 		.ascii	"m_cnt\000"
 16641      7400
 16642              	.LASF571:
 16643 08d6 45585444 		.ascii	"EXTDriver\000"
 16643      72697665 
 16643      7200
 16644              	.LASF79:
 16645 08e0 5F64736F 		.ascii	"_dso_handle\000"
 16645      5F68616E 
 16645      646C6500 
 16646              	.LASF641:
 16647 08ec 69327363 		.ascii	"i2scallback_t\000"
 16647      616C6C62 
 16647      61636B5F 
 16647      7400
 16648              	.LASF713:
 16649 08fa 73737061 		.ascii	"sspad\000"
 16649      6400
 16650              	.LASF630:
 16651 0900 7478646D 		.ascii	"txdmamode\000"
 16651      616D6F64 
 16651      6500
 16652              	.LASF177:
 16653 090a 6275665F 		.ascii	"buf_dim\000"
 16653      64696D00 
 16654              	.LASF598:
 16655 0912 67707466 		.ascii	"gptfreq_t\000"
 16655      7265715F 
 16655      7400
 16656              	.LASF944:
 16657 091c 7573655F 		.ascii	"use_bt\000"
 16657      627400
 16658              	.LASF74:
 16659 0923 5F5F746D 		.ascii	"__tm_wday\000"
 16659      5F776461 
 16659      7900
 16660              	.LASF71:
 16661 092d 5F5F746D 		.ascii	"__tm_mday\000"
 16661      5F6D6461 
 16661      7900
 16662              	.LASF838:
 16663 0937 72785F66 		.ascii	"rx_fifo_size\000"
 16663      69666F5F 
 16663      73697A65 
 16663      00
 16664              	.LASF350:
 16665 0944 73746B61 		.ascii	"stkalign_t\000"
 16665      6C69676E 
 16665      5F7400
 16666              	.LASF179:
 16667 094f 5F706172 		.ascii	"_param_val_matrix_s\000"
ARM GAS  C:\Users\Moi\AppData\Local\Temp\ccF5N8ze.s 			page 307


 16667      616D5F76 
 16667      616C5F6D 
 16667      61747269 
 16667      785F7300 
 16668              	.LASF553:
 16669 0963 4441435F 		.ascii	"DAC_ERR_UNDERFLOW\000"
 16669      4552525F 
 16669      554E4445 
 16669      52464C4F 
 16669      5700
 16670              	.LASF534:
 16671 0975 77616B65 		.ascii	"wakeup_event\000"
 16671      75705F65 
 16671      76656E74 
 16671      00
 16672              	.LASF235:
 16673 0982 76745F70 		.ascii	"vt_prev\000"
 16673      72657600 
 16674              	.LASF508:
 16675 098a 656E645F 		.ascii	"end_cb\000"
 16675      636200
 16676              	.LASF856:
 16677 0991 73657475 		.ascii	"setup_cb\000"
 16677      705F6362 
 16677      00
 16678              	.LASF3:
 16679 099a 756E7369 		.ascii	"unsigned char\000"
 16679      676E6564 
 16679      20636861 
 16679      7200
 16680              	.LASF108:
 16681 09a8 5F737464 		.ascii	"_stdout\000"
 16681      6F757400 
 16682              	.LASF339:
 16683 09b0 4649464F 		.ascii	"FIFO\000"
 16683      00
 16684              	.LASF528:
 16685 09b5 74787175 		.ascii	"txqueue\000"
 16685      65756500 
 16686              	.LASF310:
 16687 09bd 52495352 		.ascii	"RISR\000"
 16687      00
 16688              	.LASF347:
 16689 09c2 47545052 		.ascii	"GTPR\000"
 16689      00
 16690              	.LASF383:
 16691 09c7 735F636E 		.ascii	"s_cnt\000"
 16691      7400
 16692              	.LASF223:
 16693 09cd 72656164 		.ascii	"ready_list_t\000"
 16693      795F6C69 
 16693      73745F74 
 16693      00
 16694              	.LASF196:
 16695 09da 63685F74 		.ascii	"ch_thread\000"
 16695      68726561 
 16695      6400
ARM GAS  C:\Users\Moi\AppData\Local\Temp\ccF5N8ze.s 			page 308


 16696              	.LASF616:
 16697 09e4 4F504D4F 		.ascii	"OPMODE_SMBUS_HOST\000"
 16697      44455F53 
 16697      4D425553 
 16697      5F484F53 
 16697      5400
 16698              	.LASF150:
 16699 09f6 5F6D6273 		.ascii	"_mbsrtowcs_state\000"
 16699      72746F77 
 16699      63735F73 
 16699      74617465 
 16699      00
 16700              	.LASF734:
 16701 0a07 75736265 		.ascii	"usbep_t\000"
 16701      705F7400 
 16702              	.LASF66:
 16703 0a0f 5F776473 		.ascii	"_wds\000"
 16703      00
 16704              	.LASF634:
 16705 0a14 4932535F 		.ascii	"I2S_UNINIT\000"
 16705      554E494E 
 16705      495400
 16706              	.LASF178:
 16707 0a1f 666C6F61 		.ascii	"float\000"
 16707      7400
 16708              	.LASF883:
 16709 0a25 53544152 		.ascii	"STARWARS\000"
 16709      57415253 
 16709      00
 16710              	.LASF567:
 16711 0a2e 4558545F 		.ascii	"EXT_UNINIT\000"
 16711      554E494E 
 16711      495400
 16712              	.LASF525:
 16713 0a39 43414E5F 		.ascii	"CAN_SLEEP\000"
 16713      534C4545 
 16713      5000
 16714              	.LASF356:
 16715 0a43 73655F73 		.ascii	"se_state\000"
 16715      74617465 
 16715      00
 16716              	.LASF87:
 16717 0a4c 5F73697A 		.ascii	"_size\000"
 16717      6500
 16718              	.LASF703:
 16719 0a52 53444344 		.ascii	"SDCD1\000"
 16719      3100
 16720              	.LASF242:
 16721 0a58 73797374 		.ascii	"system_debug_t\000"
 16721      656D5F64 
 16721      65627567 
 16721      5F7400
 16722              	.LASF300:
 16723 0a67 44485238 		.ascii	"DHR8R1\000"
 16723      523100
 16724              	.LASF303:
 16725 0a6e 44485238 		.ascii	"DHR8R2\000"
ARM GAS  C:\Users\Moi\AppData\Local\Temp\ccF5N8ze.s 			page 309


 16725      523200
 16726              	.LASF589:
 16727 0a75 44494552 		.ascii	"DIER\000"
 16727      00
 16728              	.LASF924:
 16729 0a7a 61636378 		.ascii	"accx\000"
 16729      00
 16730              	.LASF925:
 16731 0a7f 61636379 		.ascii	"accy\000"
 16731      00
 16732              	.LASF200:
 16733 0a84 705F6374 		.ascii	"p_ctx\000"
 16733      7800
 16734              	.LASF238:
 16735 0a8a 76745F70 		.ascii	"vt_par\000"
 16735      617200
 16736              	.LASF259:
 16737 0a91 4A4F4652 		.ascii	"JOFR1\000"
 16737      3100
 16738              	.LASF260:
 16739 0a97 4A4F4652 		.ascii	"JOFR2\000"
 16739      3200
 16740              	.LASF262:
 16741 0a9d 4A4F4652 		.ascii	"JOFR4\000"
 16741      3400
 16742              	.LASF874:
 16743 0aa3 52555353 		.ascii	"RUSSIA\000"
 16743      494100
 16744              	.LASF94:
 16745 0aaa 5F777269 		.ascii	"_write\000"
 16745      746500
 16746              	.LASF343:
 16747 0ab1 54584352 		.ascii	"TXCRCR\000"
 16747      435200
 16748              	.LASF560:
 16749 0ab8 64616364 		.ascii	"dacdhrmode_t\000"
 16749      68726D6F 
 16749      64655F74 
 16749      00
 16750              	.LASF502:
 16751 0ac5 646D6173 		.ascii	"dmastp\000"
 16751      747000
 16752              	.LASF738:
 16753 0acc 5553425F 		.ascii	"USB_SELECTED\000"
 16753      53454C45 
 16753      43544544 
 16753      00
 16754              	.LASF620:
 16755 0ad9 46415354 		.ascii	"FAST_DUTY_CYCLE_16_9\000"
 16755      5F445554 
 16755      595F4359 
 16755      434C455F 
 16755      31365F39 
 16756              	.LASF34:
 16757 0aee 75696E74 		.ascii	"uint64_t\000"
 16757      36345F74 
 16757      00
ARM GAS  C:\Users\Moi\AppData\Local\Temp\ccF5N8ze.s 			page 310


 16758              	.LASF370:
 16759 0af7 6E5F6374 		.ascii	"n_ctxswc\000"
 16759      78737763 
 16759      00
 16760              	.LASF935:
 16761 0b00 63616D5F 		.ascii	"cam_size\000"
 16761      73697A65 
 16761      00
 16762              	.LASF408:
 16763 0b09 63685F64 		.ascii	"ch_debug\000"
 16763      65627567 
 16763      00
 16764              	.LASF563:
 16765 0b12 696E6974 		.ascii	"init\000"
 16765      00
 16766              	.LASF287:
 16767 0b17 464D3152 		.ascii	"FM1R\000"
 16767      00
 16768              	.LASF479:
 16769 0b1c 50414C43 		.ascii	"PALConfig\000"
 16769      6F6E6669 
 16769      6700
 16770              	.LASF847:
 16771 0b26 7478636E 		.ascii	"txcnt\000"
 16771      7400
 16772              	.LASF166:
 16773 0b2c 73756273 		.ascii	"subspaces\000"
 16773      70616365 
 16773      7300
 16774              	.LASF761:
 16775 0b36 75736265 		.ascii	"usbeventcb_t\000"
 16775      76656E74 
 16775      63625F74 
 16775      00
 16776              	.LASF442:
 16777 0b43 424C4B5F 		.ascii	"BLK_ACTIVE\000"
 16777      41435449 
 16777      564500
 16778              	.LASF73:
 16779 0b4e 5F5F746D 		.ascii	"__tm_year\000"
 16779      5F796561 
 16779      7200
 16780              	.LASF410:
 16781 0b58 6576656E 		.ascii	"event_listener_t\000"
 16781      745F6C69 
 16781      7374656E 
 16781      65725F74 
 16781      00
 16782              	.LASF952:
 16783 0b69 72756E5F 		.ascii	"run_asercom2\000"
 16783      61736572 
 16783      636F6D32 
 16783      00
 16784              	.LASF839:
 16785 0b76 6F74675F 		.ascii	"otg_ram_size\000"
 16785      72616D5F 
 16785      73697A65 
ARM GAS  C:\Users\Moi\AppData\Local\Temp\ccF5N8ze.s 			page 311


 16785      00
 16786              	.LASF916:
 16787 0b83 73656C65 		.ascii	"selector\000"
 16787      63746F72 
 16787      00
 16788              	.LASF841:
 16789 0b8c 73746D33 		.ascii	"stm32_otg_params_t\000"
 16789      325F6F74 
 16789      675F7061 
 16789      72616D73 
 16789      5F7400
 16790              	.LASF834:
 16791 0b9f 72657376 		.ascii	"resvdD00\000"
 16791      64443030 
 16791      00
 16792              	.LASF342:
 16793 0ba8 52584352 		.ascii	"RXCRCR\000"
 16793      435200
 16794              	.LASF850:
 16795 0baf 72786275 		.ascii	"rxbuf\000"
 16795      6600
 16796              	.LASF133:
 16797 0bb5 5F6D756C 		.ascii	"_mult\000"
 16797      7400
 16798              	.LASF878:
 16799 0bbb 4D415249 		.ascii	"MARIO_DEATH\000"
 16799      4F5F4445 
 16799      41544800 
 16800              	.LASF384:
 16801 0bc7 63685F6D 		.ascii	"ch_mutex\000"
 16801      75746578 
 16801      00
 16802              	.LASF531:
 16803 0bd0 7478656D 		.ascii	"txempty_event\000"
 16803      7074795F 
 16803      6576656E 
 16803      7400
 16804              	.LASF653:
 16805 0bde 50574D44 		.ascii	"PWMDriver\000"
 16805      72697665 
 16805      7200
 16806              	.LASF476:
 16807 0be8 50474461 		.ascii	"PGData\000"
 16807      746100
 16808              	.LASF662:
 16809 0bef 50574D43 		.ascii	"PWMConfig\000"
 16809      6F6E6669 
 16809      6700
 16810              	.LASF148:
 16811 0bf9 5F6D6272 		.ascii	"_mbrlen_state\000"
 16811      6C656E5F 
 16811      73746174 
 16811      6500
 16812              	.LASF173:
 16813 0c07 76616C75 		.ascii	"value\000"
 16813      6500
 16814              	.LASF398:
ARM GAS  C:\Users\Moi\AppData\Local\Temp\ccF5N8ze.s 			page 312


 16815 0c0d 63665F6F 		.ascii	"cf_off_newer\000"
 16815      66665F6E 
 16815      65776572 
 16815      00
 16816              	.LASF819:
 16817 0c1a 44494550 		.ascii	"DIEPMSK\000"
 16817      4D534B00 
 16818              	.LASF786:
 16819 0c22 474F5447 		.ascii	"GOTGINT\000"
 16819      494E5400 
 16820              	.LASF926:
 16821 0c2a 6163637A 		.ascii	"accz\000"
 16821      00
 16822              	.LASF858:
 16823 0c2f 6F75745F 		.ascii	"out_cb\000"
 16823      636200
 16824              	.LASF810:
 16825 0c36 4841494E 		.ascii	"HAINTMSK\000"
 16825      544D534B 
 16825      00
 16826              	.LASF720:
 16827 0c3f 6F75745F 		.ascii	"out_params\000"
 16827      70617261 
 16827      6D7300
 16828              	.LASF355:
 16829 0c4a 73655F77 		.ascii	"se_wtobjp\000"
 16829      746F626A 
 16829      7000
 16830              	.LASF266:
 16831 0c54 4A535152 		.ascii	"JSQR\000"
 16831      00
 16832              	.LASF107:
 16833 0c59 5F737464 		.ascii	"_stdin\000"
 16833      696E00
 16834              	.LASF155:
 16835 0c60 5F6E6D61 		.ascii	"_nmalloc\000"
 16835      6C6C6F63 
 16835      00
 16836              	.LASF601:
 16837 0c69 64696572 		.ascii	"dier\000"
 16837      00
 16838              	.LASF698:
 16839 0c6e 69735F70 		.ascii	"is_protected\000"
 16839      726F7465 
 16839      63746564 
 16839      00
 16840              	.LASF932:
 16841 0c7b 63616D5F 		.ascii	"cam_width\000"
 16841      77696474 
 16841      6800
 16842              	.LASF232:
 16843 0c85 76697274 		.ascii	"virtual_timer_t\000"
 16843      75616C5F 
 16843      74696D65 
 16843      725F7400 
 16844              	.LASF860:
 16845 0c95 6F75745F 		.ascii	"out_maxsize\000"
ARM GAS  C:\Users\Moi\AppData\Local\Temp\ccF5N8ze.s 			page 313


 16845      6D617873 
 16845      697A6500 
 16846              	.LASF227:
 16847 0ca1 725F6374 		.ascii	"r_ctx\000"
 16847      7800
 16848              	.LASF234:
 16849 0ca7 76745F6E 		.ascii	"vt_next\000"
 16849      65787400 
 16850              	.LASF635:
 16851 0caf 4932535F 		.ascii	"I2S_STOP\000"
 16851      53544F50 
 16851      00
 16852              	.LASF650:
 16853 0cb8 50574D5F 		.ascii	"PWM_STOP\000"
 16853      53544F50 
 16853      00
 16854              	.LASF193:
 16855 0cc1 75636E74 		.ascii	"ucnt_t\000"
 16855      5F7400
 16856              	.LASF182:
 16857 0cc8 7274636E 		.ascii	"rtcnt_t\000"
 16857      745F7400 
 16858              	.LASF501:
 16859 0cd0 6D757465 		.ascii	"mutex\000"
 16859      7800
 16860              	.LASF644:
 16861 0cd6 73697A65 		.ascii	"size\000"
 16861      00
 16862              	.LASF549:
 16863 0cdb 44414344 		.ascii	"DACDriver\000"
 16863      72697665 
 16863      7200
 16864              	.LASF565:
 16865 0ce5 44414343 		.ascii	"DACConfig\000"
 16865      6F6E6669 
 16865      6700
 16866              	.LASF731:
 16867 0cef 74787065 		.ascii	"txpending\000"
 16867      6E64696E 
 16867      6700
 16868              	.LASF586:
 16869 0cf9 636C6F63 		.ascii	"clock\000"
 16869      6B00
 16870              	.LASF453:
 16871 0cff 636C6561 		.ascii	"clear\000"
 16871      7200
 16872              	.LASF596:
 16873 0d05 43435852 		.ascii	"CCXR\000"
 16873      00
 16874              	.LASF296:
 16875 0d0a 43414E5F 		.ascii	"CAN_TypeDef\000"
 16875      54797065 
 16875      44656600 
 16876              	.LASF19:
 16877 0d16 5F6F6666 		.ascii	"_off_t\000"
 16877      5F7400
 16878              	.LASF357:
ARM GAS  C:\Users\Moi\AppData\Local\Temp\ccF5N8ze.s 			page 314


 16879 0d1d 63685F73 		.ascii	"ch_swc_event_t\000"
 16879      77635F65 
 16879      76656E74 
 16879      5F7400
 16880              	.LASF668:
 16881 0d2c 53445F53 		.ascii	"SD_STOP\000"
 16881      544F5000 
 16882              	.LASF765:
 16883 0d34 72657376 		.ascii	"resvd8\000"
 16883      643800
 16884              	.LASF16:
 16885 0d3b 73697A65 		.ascii	"size_t\000"
 16885      5F7400
 16886              	.LASF138:
 16887 0d42 5F6C6F63 		.ascii	"_localtime_buf\000"
 16887      616C7469 
 16887      6D655F62 
 16887      756600
 16888              	.LASF832:
 16889 0d51 72657376 		.ascii	"resvd880\000"
 16889      64383830 
 16889      00
 16890              	.LASF880:
 16891 0d5a 57414C4B 		.ascii	"WALKING\000"
 16891      494E4700 
 16892              	.LASF181:
 16893 0d62 70617261 		.ascii	"parameter_root\000"
 16893      6D657465 
 16893      725F726F 
 16893      6F7400
 16894              	.LASF24:
 16895 0d71 5F5F636F 		.ascii	"__count\000"
 16895      756E7400 
 16896              	.LASF29:
 16897 0d79 75696E74 		.ascii	"uint8_t\000"
 16897      385F7400 
 16898              	.LASF929:
 16899 0d81 6779726F 		.ascii	"gyroy\000"
 16899      7900
 16900              	.LASF769:
 16901 0d87 72657376 		.ascii	"resvd14\000"
 16901      64313400 
 16902              	.LASF521:
 16903 0d8f 43414E5F 		.ascii	"CAN_UNINIT\000"
 16903      554E494E 
 16903      495400
 16904              	.LASF770:
 16905 0d9a 72657376 		.ascii	"resvd18\000"
 16905      64313800 
 16906              	.LASF229:
 16907 0da2 725F6F6C 		.ascii	"r_older\000"
 16907      64657200 
 16908              	.LASF198:
 16909 0daa 705F7072 		.ascii	"p_prev\000"
 16909      657600
 16910              	.LASF400:
 16911 0db1 63665F6F 		.ascii	"cf_off_name\000"
ARM GAS  C:\Users\Moi\AppData\Local\Temp\ccF5N8ze.s 			page 315


 16911      66665F6E 
 16911      616D6500 
 16912              	.LASF661:
 16913 0dbd 50574D43 		.ascii	"PWMChannelConfig\000"
 16913      68616E6E 
 16913      656C436F 
 16913      6E666967 
 16913      00
 16914              	.LASF660:
 16915 0dce 70776D63 		.ascii	"pwmcnt_t\000"
 16915      6E745F74 
 16915      00
 16916              	.LASF828:
 16917 0dd7 44494550 		.ascii	"DIEPEMPMSK\000"
 16917      454D504D 
 16917      534B00
 16918              	.LASF910:
 16919 0de2 64636D69 		.ascii	"dcmicallback_t\000"
 16919      63616C6C 
 16919      6261636B 
 16919      5F7400
 16920              	.LASF773:
 16921 0df1 44494550 		.ascii	"DIEPCTL\000"
 16921      43544C00 
 16922              	.LASF416:
 16923 0df9 656C5F77 		.ascii	"el_wflags\000"
 16923      666C6167 
 16923      7300
 16924              	.LASF729:
 16925 0e03 6F746770 		.ascii	"otgparams\000"
 16925      6172616D 
 16925      7300
 16926              	.LASF358:
 16927 0e0d 74625F73 		.ascii	"tb_size\000"
 16927      697A6500 
 16928              	.LASF473:
 16929 0e15 50444461 		.ascii	"PDData\000"
 16929      746100
 16930              	.LASF693:
 16931 0e1c 73637261 		.ascii	"scratchpad\000"
 16931      74636870 
 16931      616400
 16932              	.LASF121:
 16933 0e27 5F637674 		.ascii	"_cvtbuf\000"
 16933      62756600 
 16934              	.LASF862:
 16935 0e2f 6F75745F 		.ascii	"out_state\000"
 16935      73746174 
 16935      6500
 16936              	.LASF420:
 16937 0e39 696F5F71 		.ascii	"io_queue_t\000"
 16937      75657565 
 16937      5F7400
 16938              	.LASF709:
 16939 0e44 73706973 		.ascii	"spistate_t\000"
 16939      74617465 
 16939      5F7400
ARM GAS  C:\Users\Moi\AppData\Local\Temp\ccF5N8ze.s 			page 316


 16940              	.LASF892:
 16941 0e4f 61636365 		.ascii	"acceleration\000"
 16941      6C657261 
 16941      74696F6E 
 16941      00
 16942              	.LASF606:
 16943 0e5c 4932435F 		.ascii	"I2C_STOP\000"
 16943      53544F50 
 16943      00
 16944              	.LASF628:
 16945 0e65 61646472 		.ascii	"addr\000"
 16945      00
 16946              	.LASF887:
 16947 0e6a 45585445 		.ascii	"EXTERNAL_SONG\000"
 16947      524E414C 
 16947      5F534F4E 
 16947      4700
 16948              	.LASF281:
 16949 0e78 52463052 		.ascii	"RF0R\000"
 16949      00
 16950              	.LASF491:
 16951 0e7d 4144435F 		.ascii	"ADC_ERR_DMAFAILURE\000"
 16951      4552525F 
 16951      444D4146 
 16951      41494C55 
 16951      524500
 16952              	.LASF707:
 16953 0e90 5350495F 		.ascii	"SPI_ACTIVE\000"
 16953      41435449 
 16953      564500
 16954              	.LASF36:
 16955 0e9b 656E7669 		.ascii	"environ\000"
 16955      726F6E00 
 16956              	.LASF575:
 16957 0ea3 45585443 		.ascii	"EXTChannelConfig\000"
 16957      68616E6E 
 16957      656C436F 
 16957      6E666967 
 16957      00
 16958              	.LASF456:
 16959 0eb4 4F535045 		.ascii	"OSPEEDR\000"
 16959      45445200 
 16960              	.LASF539:
 16961 0ebc 4441435F 		.ascii	"DAC_READY\000"
 16961      52454144 
 16961      5900
 16962              	.LASF797:
 16963 0ec6 72657376 		.ascii	"resvd30\000"
 16963      64333000 
 16964              	.LASF23:
 16965 0ece 5F5F7763 		.ascii	"__wchb\000"
 16965      686200
 16966              	.LASF149:
 16967 0ed5 5F6D6272 		.ascii	"_mbrtowc_state\000"
 16967      746F7763 
 16967      5F737461 
 16967      746500
ARM GAS  C:\Users\Moi\AppData\Local\Temp\ccF5N8ze.s 			page 317


 16968              	.LASF826:
 16969 0ee4 44564255 		.ascii	"DVBUSPULSE\000"
 16969      5350554C 
 16969      534500
 16970              	.LASF70:
 16971 0eef 5F5F746D 		.ascii	"__tm_hour\000"
 16971      5F686F75 
 16971      7200
 16972              	.LASF938:
 16973 0ef9 66697273 		.ascii	"first\000"
 16973      7400
 16974              	.LASF441:
 16975 0eff 424C4B5F 		.ascii	"BLK_STOP\000"
 16975      53544F50 
 16975      00
 16976              	.LASF676:
 16977 0f08 53657269 		.ascii	"SerialDriverVMT\000"
 16977      616C4472 
 16977      69766572 
 16977      564D5400 
 16978              	.LASF747:
 16979 0f18 5553425F 		.ascii	"USB_EP0_ERROR\000"
 16979      4550305F 
 16979      4552524F 
 16979      5200
 16980              	.LASF21:
 16981 0f26 77696E74 		.ascii	"wint_t\000"
 16981      5F7400
 16982              	.LASF699:
 16983 0f2d 636F6E6E 		.ascii	"connect\000"
 16983      65637400 
 16984              	.LASF122:
 16985 0f35 5F6E6577 		.ascii	"_new\000"
 16985      00
 16986              	.LASF494:
 16987 0f3a 41444344 		.ascii	"ADCDriver\000"
 16987      72697665 
 16987      7200
 16988              	.LASF840:
 16989 0f44 6E756D5F 		.ascii	"num_endpoints\000"
 16989      656E6470 
 16989      6F696E74 
 16989      7300
 16990              	.LASF517:
 16991 0f52 41444343 		.ascii	"ADCConfig\000"
 16991      6F6E6669 
 16991      6700
 16992              	.LASF848:
 16993 0f5c 746F7473 		.ascii	"totsize\000"
 16993      697A6500 
 16994              	.LASF129:
 16995 0f64 5F6E696F 		.ascii	"_niobs\000"
 16995      627300
 16996              	.LASF401:
 16997 0f6b 63665F6F 		.ascii	"cf_off_stklimit\000"
 16997      66665F73 
 16997      746B6C69 
ARM GAS  C:\Users\Moi\AppData\Local\Temp\ccF5N8ze.s 			page 318


 16997      6D697400 
 16998              	.LASF669:
 16999 0f7b 53445F52 		.ascii	"SD_READY\000"
 16999      45414459 
 16999      00
 17000              	.LASF763:
 17001 0f84 75736267 		.ascii	"usbgetdescriptor_t\000"
 17001      65746465 
 17001      73637269 
 17001      70746F72 
 17001      5F7400
 17002              	.LASF542:
 17003 0f97 4441435F 		.ascii	"DAC_ERROR\000"
 17003      4552524F 
 17003      5200
 17004              	.LASF230:
 17005 0fa1 725F6375 		.ascii	"r_current\000"
 17005      7272656E 
 17005      7400
 17006              	.LASF106:
 17007 0fab 5F657272 		.ascii	"_errno\000"
 17007      6E6F00
 17008              	.LASF57:
 17009 0fb2 6D657373 		.ascii	"messagebus_t\000"
 17009      61676562 
 17009      75735F74 
 17009      00
 17010              	.LASF742:
 17011 0fbf 5553425F 		.ascii	"USB_EP0_TX\000"
 17011      4550305F 
 17011      545800
 17012              	.LASF721:
 17013 0fca 65703073 		.ascii	"ep0state\000"
 17013      74617465 
 17013      00
 17014              	.LASF169:
 17015 0fd3 70617261 		.ascii	"parameter_s\000"
 17015      6D657465 
 17015      725F7300 
 17016              	.LASF51:
 17017 0fdf 746F7069 		.ascii	"topic_s\000"
 17017      635F7300 
 17018              	.LASF434:
 17019 0fe7 69666372 		.ascii	"ifcr\000"
 17019      00
 17020              	.LASF885:
 17021 0fec 53455645 		.ascii	"SEVEN_NATION_ARMY\000"
 17021      4E5F4E41 
 17021      54494F4E 
 17021      5F41524D 
 17021      5900
 17022              	.LASF302:
 17023 0ffe 44485231 		.ascii	"DHR12L2\000"
 17023      324C3200 
 17024              	.LASF462:
 17025 1006 73746D33 		.ascii	"stm32_gpio_t\000"
 17025      325F6770 
ARM GAS  C:\Users\Moi\AppData\Local\Temp\ccF5N8ze.s 			page 319


 17025      696F5F74 
 17025      00
 17026              	.LASF374:
 17027 1013 7264796D 		.ascii	"rdymsg\000"
 17027      736700
 17028              	.LASF78:
 17029 101a 5F666E61 		.ascii	"_fnargs\000"
 17029      72677300 
 17030              	.LASF651:
 17031 1022 50574D5F 		.ascii	"PWM_READY\000"
 17031      52454144 
 17031      5900
 17032              	.LASF272:
 17033 102c 54445452 		.ascii	"TDTR\000"
 17033      00
 17034              	.LASF280:
 17035 1031 43414E5F 		.ascii	"CAN_FilterRegister_TypeDef\000"
 17035      46696C74 
 17035      65725265 
 17035      67697374 
 17035      65725F54 
 17036              	.LASF532:
 17037 104c 6572726F 		.ascii	"error_event\000"
 17037      725F6576 
 17037      656E7400 
 17038              	.LASF507:
 17039 1058 6E756D5F 		.ascii	"num_channels\000"
 17039      6368616E 
 17039      6E656C73 
 17039      00
 17040              	.LASF261:
 17041 1065 4A4F4652 		.ascii	"JOFR3\000"
 17041      3300
 17042              	.LASF800:
 17043 106b 72657376 		.ascii	"resvd58\000"
 17043      64353800 
 17044              	.LASF849:
 17045 1073 55534249 		.ascii	"USBInEndpointState\000"
 17045      6E456E64 
 17045      706F696E 
 17045      74537461 
 17045      746500
 17046              	.LASF199:
 17047 1086 705F7072 		.ascii	"p_prio\000"
 17047      696F00
 17048              	.LASF171:
 17049 108d 64656669 		.ascii	"defined\000"
 17049      6E656400 
 17050              	.LASF421:
 17051 1095 696F5F71 		.ascii	"io_queue\000"
 17051      75657565 
 17051      00
 17052              	.LASF470:
 17053 109e 50414461 		.ascii	"PAData\000"
 17053      746100
 17054              	.LASF13:
 17055 10a5 5F5F7569 		.ascii	"__uint64_t\000"
ARM GAS  C:\Users\Moi\AppData\Local\Temp\ccF5N8ze.s 			page 320


 17055      6E743634 
 17055      5F7400
 17056              	.LASF63:
 17057 10b0 5F6E6578 		.ascii	"_next\000"
 17057      7400
 17058              	.LASF936:
 17059 10b6 63616D5F 		.ascii	"cam_x1\000"
 17059      783100
 17060              	.LASF656:
 17061 10bd 70776D63 		.ascii	"pwmcallback_t\000"
 17061      616C6C62 
 17061      61636B5F 
 17061      7400
 17062              	.LASF550:
 17063 10cb 70617261 		.ascii	"params\000"
 17063      6D7300
 17064              	.LASF746:
 17065 10d2 5553425F 		.ascii	"USB_EP0_SENDING_STS\000"
 17065      4550305F 
 17065      53454E44 
 17065      494E475F 
 17065      53545300 
 17066              	.LASF146:
 17067 10e6 5F736967 		.ascii	"_signal_buf\000"
 17067      6E616C5F 
 17067      62756600 
 17068              	.LASF648:
 17069 10f2 49325344 		.ascii	"I2SD2\000"
 17069      3200
 17070              	.LASF360:
 17071 10f8 74625F62 		.ascii	"tb_buffer\000"
 17071      75666665 
 17071      7200
 17072              	.LASF611:
 17073 1102 69326373 		.ascii	"i2cstate_t\000"
 17073      74617465 
 17073      5F7400
 17074              	.LASF92:
 17075 110d 5F636F6F 		.ascii	"_cookie\000"
 17075      6B696500 
 17076              	.LASF748:
 17077 1115 75736265 		.ascii	"usbep0state_t\000"
 17077      70307374 
 17077      6174655F 
 17077      7400
 17078              	.LASF554:
 17079 1123 64616365 		.ascii	"dacerror_t\000"
 17079      72726F72 
 17079      5F7400
 17080              	.LASF284:
 17081 112e 7354784D 		.ascii	"sTxMailBox\000"
 17081      61696C42 
 17081      6F7800
 17082              	.LASF489:
 17083 1139 61646373 		.ascii	"adcsample_t\000"
 17083      616D706C 
 17083      655F7400 
ARM GAS  C:\Users\Moi\AppData\Local\Temp\ccF5N8ze.s 			page 321


 17084              	.LASF587:
 17085 1145 67707463 		.ascii	"gptcallback_t\000"
 17085      616C6C62 
 17085      61636B5F 
 17085      7400
 17086              	.LASF424:
 17087 1153 715F6275 		.ascii	"q_buffer\000"
 17087      66666572 
 17087      00
 17088              	.LASF197:
 17089 115c 705F6E65 		.ascii	"p_next\000"
 17089      787400
 17090              	.LASF633:
 17091 1163 49324344 		.ascii	"I2CD1\000"
 17091      3100
 17092              	.LASF774:
 17093 1169 72657376 		.ascii	"resvd4\000"
 17093      643400
 17094              	.LASF716:
 17095 1170 55534244 		.ascii	"USBDriver\000"
 17095      72697665 
 17095      7200
 17096              	.LASF833:
 17097 117a 72657376 		.ascii	"resvd8C0\000"
 17097      64384330 
 17097      00
 17098              	.LASF870:
 17099 1183 55534243 		.ascii	"USBConfig\000"
 17099      6F6E6669 
 17099      6700
 17100              	.LASF776:
 17101 118d 72657376 		.ascii	"resvdC\000"
 17101      644300
 17102              	.LASF663:
 17103 1194 50574D44 		.ascii	"PWMD2\000"
 17103      3200
 17104              	.LASF664:
 17105 119a 50574D44 		.ascii	"PWMD3\000"
 17105      3300
 17106              	.LASF665:
 17107 11a0 50574D44 		.ascii	"PWMD4\000"
 17107      3400
 17108              	.LASF666:
 17109 11a6 50574D44 		.ascii	"PWMD5\000"
 17109      3500
 17110              	.LASF942:
 17111 11ac 69725F6C 		.ascii	"ir_last_move\000"
 17111      6173745F 
 17111      6D6F7665 
 17111      00
 17112              	.LASF674:
 17113 11b9 6F717565 		.ascii	"oqueue\000"
 17113      756500
 17114              	.LASF186:
 17115 11c0 74726566 		.ascii	"trefs_t\000"
 17115      735F7400 
 17116              	.LASF216:
ARM GAS  C:\Users\Moi\AppData\Local\Temp\ccF5N8ze.s 			page 322


 17117 11c8 705F6D70 		.ascii	"p_mpool\000"
 17117      6F6F6C00 
 17118              	.LASF325:
 17119 11d0 4932435F 		.ascii	"I2C_TypeDef\000"
 17119      54797065 
 17119      44656600 
 17120              	.LASF562:
 17121 11dc 44414343 		.ascii	"DACConversionGroup\000"
 17121      6F6E7665 
 17121      7273696F 
 17121      6E47726F 
 17121      757000
 17122              	.LASF314:
 17123 11ef 43575354 		.ascii	"CWSTRTR\000"
 17123      52545200 
 17124              	.LASF68:
 17125 11f7 5F5F746D 		.ascii	"__tm_sec\000"
 17125      5F736563 
 17125      00
 17126              	.LASF863:
 17127 1200 696E5F6D 		.ascii	"in_multiplier\000"
 17127      756C7469 
 17127      706C6965 
 17127      7200
 17128              	.LASF487:
 17129 120e 4144435F 		.ascii	"ADC_ERROR\000"
 17129      4552524F 
 17129      5200
 17130              	.LASF77:
 17131 1218 5F6F6E5F 		.ascii	"_on_exit_args\000"
 17131      65786974 
 17131      5F617267 
 17131      7300
 17132              	.LASF351:
 17133 1226 636F6E74 		.ascii	"context\000"
 17133      65787400 
 17134              	.LASF184:
 17135 122e 746D6F64 		.ascii	"tmode_t\000"
 17135      655F7400 
 17136              	.LASF905:
 17137 1236 44434D49 		.ascii	"DCMI_ERROR\000"
 17137      5F455252 
 17137      4F5200
 17138              	.LASF485:
 17139 1241 4144435F 		.ascii	"ADC_ACTIVE\000"
 17139      41435449 
 17139      564500
 17140              	.LASF875:
 17141 124c 4D415249 		.ascii	"MARIO\000"
 17141      4F00
 17142              	.LASF263:
 17143 1252 53515231 		.ascii	"SQR1\000"
 17143      00
 17144              	.LASF264:
 17145 1257 53515232 		.ascii	"SQR2\000"
 17145      00
 17146              	.LASF265:
ARM GAS  C:\Users\Moi\AppData\Local\Temp\ccF5N8ze.s 			page 323


 17147 125c 53515233 		.ascii	"SQR3\000"
 17147      00
 17148              	.LASF458:
 17149 1261 42535252 		.ascii	"BSRR\000"
 17149      00
 17150              	.LASF438:
 17151 1266 73746D33 		.ascii	"stm32_dma_stream_t\000"
 17151      325F646D 
 17151      615F7374 
 17151      7265616D 
 17151      5F7400
 17152              	.LASF868:
 17153 1279 72657175 		.ascii	"requests_hook_cb\000"
 17153      65737473 
 17153      5F686F6F 
 17153      6B5F6362 
 17153      00
 17154              	.LASF151:
 17155 128a 5F776372 		.ascii	"_wcrtomb_state\000"
 17155      746F6D62 
 17155      5F737461 
 17155      746500
 17156              	.LASF685:
 17157 1299 5344435F 		.ascii	"SDC_MODE_8BIT\000"
 17157      4D4F4445 
 17157      5F384249 
 17157      5400
 17158              	.LASF846:
 17159 12a7 74787369 		.ascii	"txsize\000"
 17159      7A6500
 17160              	.LASF558:
 17161 12ae 4441435F 		.ascii	"DAC_DHRM_12BIT_LEFT\000"
 17161      4448524D 
 17161      5F313242 
 17161      49545F4C 
 17161      45465400 
 17162              	.LASF654:
 17163 12c2 70657269 		.ascii	"period\000"
 17163      6F6400
 17164              	.LASF385:
 17165 12c9 6D5F7175 		.ascii	"m_queue\000"
 17165      65756500 
 17166              	.LASF610:
 17167 12d1 4932435F 		.ascii	"I2C_LOCKED\000"
 17167      4C4F434B 
 17167      454400
 17168              	.LASF919:
 17169 12dc 73706565 		.ascii	"speedl\000"
 17169      646C00
 17170              	.LASF245:
 17171 12e3 6973725F 		.ascii	"isr_cnt\000"
 17171      636E7400 
 17172              	.LASF918:
 17173 12eb 73706565 		.ascii	"speedr\000"
 17173      647200
 17174              	.LASF737:
 17175 12f2 5553425F 		.ascii	"USB_READY\000"
ARM GAS  C:\Users\Moi\AppData\Local\Temp\ccF5N8ze.s 			page 324


 17175      52454144 
 17175      5900
 17176              	.LASF682:
 17177 12fc 72656164 		.ascii	"readt\000"
 17177      7400
 17178              	.LASF46:
 17179 1302 6E616D65 		.ascii	"name\000"
 17179      00
 17180              	.LASF584:
 17181 1307 67707473 		.ascii	"gptstate_t\000"
 17181      74617465 
 17181      5F7400
 17182              	.LASF28:
 17183 1312 696E7438 		.ascii	"int8_t\000"
 17183      5F7400
 17184              	.LASF61:
 17185 1319 5F5F554C 		.ascii	"__ULong\000"
 17185      6F6E6700 
 17186              	.LASF244:
 17187 1321 70616E69 		.ascii	"panic_msg\000"
 17187      635F6D73 
 17187      6700
 17188              	.LASF708:
 17189 132b 5350495F 		.ascii	"SPI_COMPLETE\000"
 17189      434F4D50 
 17189      4C455445 
 17189      00
 17190              	.LASF333:
 17191 1338 4454494D 		.ascii	"DTIMER\000"
 17191      455200
 17192              	.LASF228:
 17193 133f 725F6E65 		.ascii	"r_newer\000"
 17193      77657200 
 17194              	.LASF754:
 17195 1347 5553425F 		.ascii	"USB_EVENT_STALLED\000"
 17195      4556454E 
 17195      545F5354 
 17195      414C4C45 
 17195      4400
 17196              	.LASF407:
 17197 1359 63686465 		.ascii	"chdebug_t\000"
 17197      6275675F 
 17197      7400
 17198              	.LASF852:
 17199 1363 72787369 		.ascii	"rxsize\000"
 17199      7A6500
 17200              	.LASF768:
 17201 136a 48435453 		.ascii	"HCTSIZ\000"
 17201      495A00
 17202              	.LASF751:
 17203 1371 5553425F 		.ascii	"USB_EVENT_CONFIGURED\000"
 17203      4556454E 
 17203      545F434F 
 17203      4E464947 
 17203      55524544 
 17204              	.LASF700:
 17205 1386 64697363 		.ascii	"disconnect\000"
ARM GAS  C:\Users\Moi\AppData\Local\Temp\ccF5N8ze.s 			page 325


 17205      6F6E6E65 
 17205      637400
 17206              	.LASF40:
 17207 1391 6F70746F 		.ascii	"optopt\000"
 17207      707400
 17208              	.LASF679:
 17209 1398 70757474 		.ascii	"putt\000"
 17209      00
 17210              	.LASF187:
 17211 139d 74736C69 		.ascii	"tslices_t\000"
 17211      6365735F 
 17211      7400
 17212              	.LASF136:
 17213 13a7 5F737472 		.ascii	"_strtok_last\000"
 17213      746F6B5F 
 17213      6C617374 
 17213      00
 17214              	.LASF394:
 17215 13b4 63685F74 		.ascii	"ch_timesize\000"
 17215      696D6573 
 17215      697A6500 
 17216              	.LASF733:
 17217 13c0 77615F70 		.ascii	"wa_pump\000"
 17217      756D7000 
 17218              	.LASF338:
 17219 13c8 4649464F 		.ascii	"FIFOCNT\000"
 17219      434E5400 
 17220              	.LASF419:
 17221 13d0 6576656E 		.ascii	"event_source_t\000"
 17221      745F736F 
 17221      75726365 
 17221      5F7400
 17222              	.LASF803:
 17223 13df 72657376 		.ascii	"resvd140\000"
 17223      64313430 
 17223      00
 17224              	.LASF236:
 17225 13e8 76745F64 		.ascii	"vt_delta\000"
 17225      656C7461 
 17225      00
 17226              	.LASF132:
 17227 13f1 5F736565 		.ascii	"_seed\000"
 17227      6400
 17228              	.LASF359:
 17229 13f7 74625F70 		.ascii	"tb_ptr\000"
 17229      747200
 17230              	.LASF561:
 17231 13fe 74726967 		.ascii	"trigger\000"
 17231      67657200 
 17232              	.LASF95:
 17233 1406 5F736565 		.ascii	"_seek\000"
 17233      6B00
 17234              	.LASF752:
 17235 140c 5553425F 		.ascii	"USB_EVENT_SUSPEND\000"
 17235      4556454E 
 17235      545F5355 
 17235      5350454E 
ARM GAS  C:\Users\Moi\AppData\Local\Temp\ccF5N8ze.s 			page 326


 17235      4400
 17236              	.LASF30:
 17237 141e 696E7431 		.ascii	"int16_t\000"
 17237      365F7400 
 17238              	.LASF580:
 17239 1426 4750545F 		.ascii	"GPT_STOP\000"
 17239      53544F50 
 17239      00
 17240              	.LASF271:
 17241 142f 4144435F 		.ascii	"ADC_TypeDef\000"
 17241      54797065 
 17241      44656600 
 17242              	.LASF781:
 17243 143b 444F4550 		.ascii	"DOEPCTL\000"
 17243      43544C00 
 17244              	.LASF7:
 17245 1443 73686F72 		.ascii	"short unsigned int\000"
 17245      7420756E 
 17245      7369676E 
 17245      65642069 
 17245      6E7400
 17246              	.LASF622:
 17247 1456 6F705F6D 		.ascii	"op_mode\000"
 17247      6F646500 
 17248              	.LASF2:
 17249 145e 7369676E 		.ascii	"signed char\000"
 17249      65642063 
 17249      68617200 
 17250              	.LASF168:
 17251 146a 70617261 		.ascii	"parameter_t\000"
 17251      6D657465 
 17251      725F7400 
 17252              	.LASF659:
 17253 1476 70776D63 		.ascii	"pwmchnmsk_t\000"
 17253      686E6D73 
 17253      6B5F7400 
 17254              	.LASF208:
 17255 1482 705F7072 		.ascii	"p_preempt\000"
 17255      65656D70 
 17255      7400
 17256              	.LASF636:
 17257 148c 4932535F 		.ascii	"I2S_READY\000"
 17257      52454144 
 17257      5900
 17258              	.LASF951:
 17259 1496 433A5C55 		.ascii	"C:\\Users\\Moi\\Documents\\_microinfo\\_projet\\hug"
 17259      73657273 
 17259      5C4D6F69 
 17259      5C446F63 
 17259      756D656E 
 17260 14c3 756900   		.ascii	"ui\000"
 17261              	.LASF274:
 17262 14c6 54444852 		.ascii	"TDHR\000"
 17262      00
 17263              	.LASF483:
 17264 14cb 4144435F 		.ascii	"ADC_STOP\000"
 17264      53544F50 
ARM GAS  C:\Users\Moi\AppData\Local\Temp\ccF5N8ze.s 			page 327


 17264      00
 17265              	.LASF745:
 17266 14d4 5553425F 		.ascii	"USB_EP0_RX\000"
 17266      4550305F 
 17266      525800
 17267              	.LASF657:
 17268 14df 70776D6D 		.ascii	"pwmmode_t\000"
 17268      6F64655F 
 17268      7400
 17269              	.LASF726:
 17270 14e9 73746174 		.ascii	"status\000"
 17270      757300
 17271              	.LASF334:
 17272 14f0 444C454E 		.ascii	"DLEN\000"
 17272      00
 17273              	.LASF684:
 17274 14f5 5344435F 		.ascii	"SDC_MODE_4BIT\000"
 17274      4D4F4445 
 17274      5F344249 
 17274      5400
 17275              	.LASF758:
 17276 1503 55534244 		.ascii	"USBDescriptor\000"
 17276      65736372 
 17276      6970746F 
 17276      7200
 17277              	.LASF711:
 17278 1511 73706963 		.ascii	"spicallback_t\000"
 17278      616C6C62 
 17278      61636B5F 
 17278      7400
 17279              	.LASF119:
 17280 151f 5F667265 		.ascii	"_freelist\000"
 17280      656C6973 
 17280      7400
 17281              	.LASF727:
 17282 1529 61646472 		.ascii	"address\000"
 17282      65737300 
 17283              	.LASF404:
 17284 1531 63665F6F 		.ascii	"cf_off_refs\000"
 17284      66665F72 
 17284      65667300 
 17285              	.LASF402:
 17286 153d 63665F6F 		.ascii	"cf_off_state\000"
 17286      66665F73 
 17286      74617465 
 17286      00
 17287              	.LASF386:
 17288 154a 6D5F6F77 		.ascii	"m_owner\000"
 17288      6E657200 
 17289              	.LASF100:
 17290 1552 5F6F6666 		.ascii	"_offset\000"
 17290      73657400 
 17291              	.LASF176:
 17292 155a 5F706172 		.ascii	"_param_val_vector_s\000"
 17292      616D5F76 
 17292      616C5F76 
 17292      6563746F 
ARM GAS  C:\Users\Moi\AppData\Local\Temp\ccF5N8ze.s 			page 328


 17292      725F7300 
 17293              	.LASF256:
 17294 156e 53797374 		.ascii	"SystemCoreClock\000"
 17294      656D436F 
 17294      7265436C 
 17294      6F636B00 
 17295              	.LASF505:
 17296 157e 61646365 		.ascii	"adcerrorcallback_t\000"
 17296      72726F72 
 17296      63616C6C 
 17296      6261636B 
 17296      5F7400
 17297              	.LASF540:
 17298 1591 4441435F 		.ascii	"DAC_ACTIVE\000"
 17298      41435449 
 17298      564500
 17299              	.LASF937:
 17300 159c 63616D5F 		.ascii	"cam_y1\000"
 17300      793100
 17301              	.LASF495:
 17302 15a3 73746174 		.ascii	"state\000"
 17302      6500
 17303              	.LASF392:
 17304 15a9 63685F76 		.ascii	"ch_version\000"
 17304      65727369 
 17304      6F6E00
 17305              	.LASF85:
 17306 15b4 5F5F7362 		.ascii	"__sbuf\000"
 17306      756600
 17307              	.LASF692:
 17308 15bb 7364696F 		.ascii	"sdio\000"
 17308      00
 17309              	.LASF297:
 17310 15c0 53575452 		.ascii	"SWTRIGR\000"
 17310      49475200 
 17311              	.LASF744:
 17312 15c8 5553425F 		.ascii	"USB_EP0_WAITING_STS\000"
 17312      4550305F 
 17312      57414954 
 17312      494E475F 
 17312      53545300 
 17313              	.LASF145:
 17314 15dc 5F6C3634 		.ascii	"_l64a_buf\000"
 17314      615F6275 
 17314      6600
 17315              	.LASF278:
 17316 15e6 52444852 		.ascii	"RDHR\000"
 17316      00
 17317              	.LASF39:
 17318 15eb 6F707465 		.ascii	"opterr\000"
 17318      727200
 17319              	.LASF594:
 17320 15f2 444D4152 		.ascii	"DMAR\000"
 17320      00
 17321              	.LASF600:
 17322 15f7 63616C6C 		.ascii	"callback\000"
 17322      6261636B 
ARM GAS  C:\Users\Moi\AppData\Local\Temp\ccF5N8ze.s 			page 329


 17322      00
 17323              	.LASF249:
 17324 1600 63685F73 		.ascii	"ch_system\000"
 17324      79737465 
 17324      6D00
 17325              	.LASF326:
 17326 160a 504F5745 		.ascii	"POWER\000"
 17326      5200
 17327              	.LASF247:
 17328 1610 74726163 		.ascii	"trace_buffer\000"
 17328      655F6275 
 17328      66666572 
 17328      00
 17329              	.LASF498:
 17330 161d 64657074 		.ascii	"depth\000"
 17330      6800
 17331              	.LASF137:
 17332 1623 5F617363 		.ascii	"_asctime_buf\000"
 17332      74696D65 
 17332      5F627566 
 17332      00
 17333              	.LASF559:
 17334 1630 4441435F 		.ascii	"DAC_DHRM_8BIT_RIGHT\000"
 17334      4448524D 
 17334      5F384249 
 17334      545F5249 
 17334      47485400 
 17335              	.LASF579:
 17336 1644 4750545F 		.ascii	"GPT_UNINIT\000"
 17336      554E494E 
 17336      495400
 17337              	.LASF22:
 17338 164f 5F5F7763 		.ascii	"__wch\000"
 17338      6800
 17339              	.LASF890:
 17340 1655 4D4C5F46 		.ascii	"ML_FORCE_CHANGE\000"
 17340      4F524345 
 17340      5F434841 
 17340      4E474500 
 17341              	.LASF381:
 17342 1665 63685F73 		.ascii	"ch_semaphore\000"
 17342      656D6170 
 17342      686F7265 
 17342      00
 17343              	.LASF891:
 17344 1672 5F637479 		.ascii	"_ctype_\000"
 17344      70655F00 
 17345              	.LASF152:
 17346 167a 5F776373 		.ascii	"_wcsrtombs_state\000"
 17346      72746F6D 
 17346      62735F73 
 17346      74617465 
 17346      00
 17347              	.LASF907:
 17348 168b 64636D69 		.ascii	"dcmistate_t\000"
 17348      73746174 
 17348      655F7400 
ARM GAS  C:\Users\Moi\AppData\Local\Temp\ccF5N8ze.s 			page 330


 17349              	.LASF777:
 17350 1697 44494550 		.ascii	"DIEPTSIZ\000"
 17350      5453495A 
 17350      00
 17351              	.LASF174:
 17352 16a0 5F706172 		.ascii	"_param_val_str_s\000"
 17352      616D5F76 
 17352      616C5F73 
 17352      74725F73 
 17352      00
 17353              	.LASF510:
 17354 16b1 736D7072 		.ascii	"smpr1\000"
 17354      3100
 17355              	.LASF511:
 17356 16b7 736D7072 		.ascii	"smpr2\000"
 17356      3200
 17357              	.LASF221:
 17358 16bd 74687265 		.ascii	"threads_queue_t\000"
 17358      6164735F 
 17358      71756575 
 17358      655F7400 
 17359              	.LASF449:
 17360 16cd 626C6B73 		.ascii	"blkstate_t\000"
 17360      74617465 
 17360      5F7400
 17361              	.LASF209:
 17362 16d8 705F7469 		.ascii	"p_time\000"
 17362      6D6500
 17363              	.LASF207:
 17364 16df 705F7265 		.ascii	"p_refs\000"
 17364      667300
 17365              	.LASF855:
 17366 16e6 65705F6D 		.ascii	"ep_mode\000"
 17366      6F646500 
 17367              	.LASF658:
 17368 16ee 70776D63 		.ascii	"pwmchannel_t\000"
 17368      68616E6E 
 17368      656C5F74 
 17368      00
 17369              	.LASF273:
 17370 16fb 54444C52 		.ascii	"TDLR\000"
 17370      00
 17371              	.LASF9:
 17372 1700 6C6F6E67 		.ascii	"long int\000"
 17372      20696E74 
 17372      00
 17373              	.LASF252:
 17374 1709 6D61696E 		.ascii	"mainthread\000"
 17374      74687265 
 17374      616400
 17375              	.LASF723:
 17376 1714 6570306E 		.ascii	"ep0n\000"
 17376      00
 17377              	.LASF836:
 17378 1719 72657376 		.ascii	"resvdE04\000"
 17378      64453034 
 17378      00
ARM GAS  C:\Users\Moi\AppData\Local\Temp\ccF5N8ze.s 			page 331


 17379              	.LASF612:
 17380 1722 69326361 		.ascii	"i2caddr_t\000"
 17380      6464725F 
 17380      7400
 17381              	.LASF144:
 17382 172c 5F776374 		.ascii	"_wctomb_state\000"
 17382      6F6D625F 
 17382      73746174 
 17382      6500
 17383              	.LASF547:
 17384 173a 646D6169 		.ascii	"dmairqprio\000"
 17384      72717072 
 17384      696F00
 17385              	.LASF585:
 17386 1745 47505444 		.ascii	"GPTDriver\000"
 17386      72697665 
 17386      7200
 17387              	.LASF423:
 17388 174f 715F636F 		.ascii	"q_counter\000"
 17388      756E7465 
 17388      7200
 17389              	.LASF477:
 17390 1759 50484461 		.ascii	"PHData\000"
 17390      746100
 17391              	.LASF480:
 17392 1760 696F706F 		.ascii	"ioportid_t\000"
 17392      72746964 
 17392      5F7400
 17393              	.LASF54:
 17394 176b 6D657373 		.ascii	"messagebus_topic_t\000"
 17394      61676562 
 17394      75735F74 
 17394      6F706963 
 17394      5F7400
 17395              	.LASF518:
 17396 177e 41444344 		.ascii	"ADCD1\000"
 17396      3100
 17397              	.LASF519:
 17398 1784 41444344 		.ascii	"ADCD2\000"
 17398      3200
 17399              	.LASF520:
 17400 178a 41444344 		.ascii	"ADCD3\000"
 17400      3300
 17401              	.LASF804:
 17402 1790 48434647 		.ascii	"HCFG\000"
 17402      00
 17403              	.LASF503:
 17404 1795 646D616D 		.ascii	"dmamode\000"
 17404      6F646500 
 17405              	.LASF367:
 17406 179d 63756D75 		.ascii	"cumulative\000"
 17406      6C617469 
 17406      766500
 17407              	.LASF130:
 17408 17a8 5F696F62 		.ascii	"_iobs\000"
 17408      7300
 17409              	.LASF111:
ARM GAS  C:\Users\Moi\AppData\Local\Temp\ccF5N8ze.s 			page 332


 17410 17ae 5F656D65 		.ascii	"_emergency\000"
 17410      7267656E 
 17410      637900
 17411              	.LASF680:
 17412 17b9 67657474 		.ascii	"gett\000"
 17412      00
 17413              	.LASF931:
 17414 17be 63616D5F 		.ascii	"cam_mode\000"
 17414      6D6F6465 
 17414      00
 17415              	.LASF377:
 17416 17c7 77747472 		.ascii	"wttrp\000"
 17416      7000
 17417              	.LASF427:
 17418 17cd 715F7264 		.ascii	"q_rdptr\000"
 17418      70747200 
 17419              	.LASF154:
 17420 17d5 5F6E6578 		.ascii	"_nextf\000"
 17420      746600
 17421              	.LASF677:
 17422 17dc 77726974 		.ascii	"write\000"
 17422      6500
 17423              	.LASF140:
 17424 17e2 5F72616E 		.ascii	"_rand_next\000"
 17424      645F6E65 
 17424      787400
 17425              	.LASF673:
 17426 17ed 69717565 		.ascii	"iqueue\000"
 17426      756500
 17427              	.LASF857:
 17428 17f4 696E5F63 		.ascii	"in_cb\000"
 17428      6200
 17429              	.LASF782:
 17430 17fa 444F4550 		.ascii	"DOEPINT\000"
 17430      494E5400 
 17431              	.LASF366:
 17432 1802 6C617374 		.ascii	"last\000"
 17432      00
 17433              	.LASF459:
 17434 1807 4C434B52 		.ascii	"LCKR\000"
 17434      00
 17435              	.LASF670:
 17436 180c 73647374 		.ascii	"sdstate_t\000"
 17436      6174655F 
 17436      7400
 17437              	.LASF33:
 17438 1816 75696E74 		.ascii	"uint32_t\000"
 17438      33325F74 
 17438      00
 17439              	.LASF544:
 17440 181f 64617461 		.ascii	"dataoffset\000"
 17440      6F666673 
 17440      657400
 17441              	.LASF64:
 17442 182a 5F6D6178 		.ascii	"_maxwds\000"
 17442      77647300 
 17443              	.LASF447:
ARM GAS  C:\Users\Moi\AppData\Local\Temp\ccF5N8ze.s 			page 333


 17444 1832 424C4B5F 		.ascii	"BLK_WRITING\000"
 17444      57524954 
 17444      494E4700 
 17445              	.LASF277:
 17446 183e 52444C52 		.ascii	"RDLR\000"
 17446      00
 17447              	.LASF17:
 17448 1843 6C6F6E67 		.ascii	"long double\000"
 17448      20646F75 
 17448      626C6500 
 17449              	.LASF349:
 17450 184f 72656761 		.ascii	"regarm_t\000"
 17450      726D5F74 
 17450      00
 17451              	.LASF190:
 17452 1858 6576656E 		.ascii	"eventmask_t\000"
 17452      746D6173 
 17452      6B5F7400 
 17453              	.LASF192:
 17454 1864 636E745F 		.ascii	"cnt_t\000"
 17454      7400
 17455              	.LASF161:
 17456 186a 7375626F 		.ascii	"suboptarg\000"
 17456      70746172 
 17456      6700
 17457              	.LASF291:
 17458 1874 46464131 		.ascii	"FFA1R\000"
 17458      5200
 17459              	.LASF282:
 17460 187a 52463152 		.ascii	"RF1R\000"
 17460      00
 17461              	.LASF43:
 17462 187f 62756666 		.ascii	"buffer_len\000"
 17462      65725F6C 
 17462      656E00
 17463              	.LASF524:
 17464 188a 43414E5F 		.ascii	"CAN_READY\000"
 17464      52454144 
 17464      5900
 17465              	.LASF11:
 17466 1894 6C6F6E67 		.ascii	"long unsigned int\000"
 17466      20756E73 
 17466      69676E65 
 17466      6420696E 
 17466      7400
 17467              	.LASF730:
 17468 18a6 706D6E65 		.ascii	"pmnext\000"
 17468      787400
 17469              	.LASF637:
 17470 18ad 4932535F 		.ascii	"I2S_ACTIVE\000"
 17470      41435449 
 17470      564500
 17471              	.LASF581:
 17472 18b8 4750545F 		.ascii	"GPT_READY\000"
 17472      52454144 
 17472      5900
 17473              	.LASF543:
ARM GAS  C:\Users\Moi\AppData\Local\Temp\ccF5N8ze.s 			page 334


 17474 18c2 64616373 		.ascii	"dacstate_t\000"
 17474      74617465 
 17474      5F7400
 17475              	.LASF906:
 17476 18cd 44434D49 		.ascii	"DCMI_TIMEOUT\000"
 17476      5F54494D 
 17476      454F5554 
 17476      00
 17477              	.LASF354:
 17478 18da 73655F74 		.ascii	"se_tp\000"
 17478      7000
 17479              	.LASF426:
 17480 18e0 715F7772 		.ascii	"q_wrptr\000"
 17480      70747200 
 17481              	.LASF551:
 17482 18e8 64616373 		.ascii	"dacsample_t\000"
 17482      616D706C 
 17482      655F7400 
 17483              	.LASF750:
 17484 18f4 5553425F 		.ascii	"USB_EVENT_ADDRESS\000"
 17484      4556454E 
 17484      545F4144 
 17484      44524553 
 17484      5300
 17485              	.LASF645:
 17486 1906 69327363 		.ascii	"i2scfgr\000"
 17486      66677200 
 17487              	.LASF328:
 17488 190e 52455350 		.ascii	"RESPCMD\000"
 17488      434D4400 
 17489              	.LASF530:
 17490 1916 72786675 		.ascii	"rxfull_event\000"
 17490      6C6C5F65 
 17490      76656E74 
 17490      00
 17491              	.LASF755:
 17492 1923 75736265 		.ascii	"usbevent_t\000"
 17492      76656E74 
 17492      5F7400
 17493              	.LASF96:
 17494 192e 5F636C6F 		.ascii	"_close\000"
 17494      736500
 17495              	.LASF35:
 17496 1935 63686172 		.ascii	"char\000"
 17496      00
 17497              	.LASF897:
 17498 193a 44434D49 		.ascii	"DCMI_ERR_OVERFLOW\000"
 17498      5F455252 
 17498      5F4F5645 
 17498      52464C4F 
 17498      5700
 17499              	.LASF312:
 17500 194c 45534352 		.ascii	"ESCR\000"
 17500      00
 17501              	.LASF527:
 17502 1951 43414E43 		.ascii	"CANConfig\000"
 17502      6F6E6669 
ARM GAS  C:\Users\Moi\AppData\Local\Temp\ccF5N8ze.s 			page 335


 17502      6700
 17503              	.LASF474:
 17504 195b 50454461 		.ascii	"PEData\000"
 17504      746100
 17505              	.LASF225:
 17506 1962 725F7175 		.ascii	"r_queue\000"
 17506      65756500 
 17507              	.LASF128:
 17508 196a 5F676C75 		.ascii	"_glue\000"
 17508      6500
 17509              	.LASF695:
 17510 1970 53444343 		.ascii	"SDCConfig\000"
 17510      6F6E6669 
 17510      6700
 17511              	.LASF655:
 17512 197a 656E6162 		.ascii	"enabled\000"
 17512      6C656400 
 17513              	.LASF552:
 17514 1982 4441435F 		.ascii	"DAC_ERR_DMAFAILURE\000"
 17514      4552525F 
 17514      444D4146 
 17514      41494C55 
 17514      524500
 17515              	.LASF794:
 17516 1995 47525846 		.ascii	"GRXFSIZ\000"
 17516      53495A00 
 17517              	.LASF881:
 17518 199d 50495241 		.ascii	"PIRATES_OF_THE_CARIBBEAN\000"
 17518      5445535F 
 17518      4F465F54 
 17518      48455F43 
 17518      41524942 
 17519              	.LASF701:
 17520 19b6 73796E63 		.ascii	"sync\000"
 17520      00
 17521              	.LASF675:
 17522 19bb 75736172 		.ascii	"usart\000"
 17522      7400
 17523              	.LASF315:
 17524 19c1 43575349 		.ascii	"CWSIZER\000"
 17524      5A455200 
 17525              	.LASF687:
 17526 19c9 7364636D 		.ascii	"sdcmode_t\000"
 17526      6F64655F 
 17526      7400
 17527              	.LASF429:
 17528 19d3 715F6C69 		.ascii	"q_link\000"
 17528      6E6B00
 17529              	.LASF904:
 17530 19da 44434D49 		.ascii	"DCMI_COMPLETE\000"
 17530      5F434F4D 
 17530      504C4554 
 17530      4500
 17531              	.LASF911:
 17532 19e8 64636D69 		.ascii	"dcmierrorcallback_t\000"
 17532      6572726F 
 17532      7263616C 
ARM GAS  C:\Users\Moi\AppData\Local\Temp\ccF5N8ze.s 			page 336


 17532      6C626163 
 17532      6B5F7400 
 17533              	.LASF815:
 17534 19fc 44434647 		.ascii	"DCFG\000"
 17534      00
 17535              	.LASF62:
 17536 1a01 5F426967 		.ascii	"_Bigint\000"
 17536      696E7400 
 17537              	.LASF825:
 17538 1a09 44564255 		.ascii	"DVBUSDIS\000"
 17538      53444953 
 17538      00
 17539              	.LASF950:
 17540 1a12 2E2E2F2F 		.ascii	"..//src/epuck1x/Asercom2.c\000"
 17540      7372632F 
 17540      65707563 
 17540      6B31782F 
 17540      41736572 
 17541              	.LASF791:
 17542 1a2d 47494E54 		.ascii	"GINTMSK\000"
 17542      4D534B00 
 17543              	.LASF796:
 17544 1a35 484E5054 		.ascii	"HNPTXSTS\000"
 17544      58535453 
 17544      00
 17545              	.LASF728:
 17546 1a3e 636F6E66 		.ascii	"configuration\000"
 17546      69677572 
 17546      6174696F 
 17546      6E00
 17547              	.LASF123:
 17548 1a4c 5F617465 		.ascii	"_atexit0\000"
 17548      78697430 
 17548      00
 17549              	.LASF469:
 17550 1a55 73746D33 		.ascii	"stm32_gpio_setup_t\000"
 17550      325F6770 
 17550      696F5F73 
 17550      65747570 
 17550      5F7400
 17551              	.LASF889:
 17552 1a68 4D4C5F57 		.ascii	"ML_WAIT_AND_CHANGE\000"
 17552      4149545F 
 17552      414E445F 
 17552      4348414E 
 17552      474500
 17553              	.LASF439:
 17554 1a7b 5F73746D 		.ascii	"_stm32_dma_streams\000"
 17554      33325F64 
 17554      6D615F73 
 17554      74726561 
 17554      6D7300
 17555              	.LASF299:
 17556 1a8e 44485231 		.ascii	"DHR12L1\000"
 17556      324C3100 
 17557              	.LASF42:
 17558 1a96 62756666 		.ascii	"buffer\000"
ARM GAS  C:\Users\Moi\AppData\Local\Temp\ccF5N8ze.s 			page 337


 17558      657200
 17559              	.LASF147:
 17560 1a9d 5F676574 		.ascii	"_getdate_err\000"
 17560      64617465 
 17560      5F657272 
 17560      00
 17561              	.LASF947:
 17562 1aaa 63616D5F 		.ascii	"cam_start_index\000"
 17562      73746172 
 17562      745F696E 
 17562      64657800 
 17563              	.LASF686:
 17564 1aba 73646362 		.ascii	"sdcbusmode_t\000"
 17564      75736D6F 
 17564      64655F74 
 17564      00
 17565              	.LASF305:
 17566 1ac7 44485231 		.ascii	"DHR12LD\000"
 17566      324C4400 
 17567              	.LASF253:
 17568 1acf 6B65726E 		.ascii	"kernel_stats\000"
 17568      656C5F73 
 17568      74617473 
 17568      00
 17569              	.LASF58:
 17570 1adc 6D657373 		.ascii	"messagebus_watchgroup_s\000"
 17570      61676562 
 17570      75735F77 
 17570      61746368 
 17570      67726F75 
 17571              	.LASF60:
 17572 1af4 6D657373 		.ascii	"messagebus_watchgroup_t\000"
 17572      61676562 
 17572      75735F77 
 17572      61746368 
 17572      67726F75 
 17573              	.LASF204:
 17574 1b0c 705F7374 		.ascii	"p_stklimit\000"
 17574      6B6C696D 
 17574      697400
 17575              	.LASF44:
 17576 1b17 6C6F636B 		.ascii	"lock\000"
 17576      00
 17577              	.LASF570:
 17578 1b1c 65787473 		.ascii	"extstate_t\000"
 17578      74617465 
 17578      5F7400
 17579              	.LASF743:
 17580 1b27 5553425F 		.ascii	"USB_EP0_WAITING_TX0\000"
 17580      4550305F 
 17580      57414954 
 17580      494E475F 
 17580      54583000 
 17581              	.LASF722:
 17582 1b3b 6570306E 		.ascii	"ep0next\000"
 17582      65787400 
 17583              	.LASF772:
ARM GAS  C:\Users\Moi\AppData\Local\Temp\ccF5N8ze.s 			page 338


 17584 1b43 73746D33 		.ascii	"stm32_otg_host_chn_t\000"
 17584      325F6F74 
 17584      675F686F 
 17584      73745F63 
 17584      686E5F74 
 17585              	.LASF461:
 17586 1b58 41465248 		.ascii	"AFRH\000"
 17586      00
 17587              	.LASF460:
 17588 1b5d 4146524C 		.ascii	"AFRL\000"
 17588      00
 17589              	.LASF159:
 17590 1b62 5F696D70 		.ascii	"_impure_ptr\000"
 17590      7572655F 
 17590      70747200 
 17591              	.LASF405:
 17592 1b6e 63665F6F 		.ascii	"cf_off_preempt\000"
 17592      66665F70 
 17592      7265656D 
 17592      707400
 17593              	.LASF541:
 17594 1b7d 4441435F 		.ascii	"DAC_COMPLETE\000"
 17594      434F4D50 
 17594      4C455445 
 17594      00
 17595              	.LASF99:
 17596 1b8a 5F626C6B 		.ascii	"_blksize\000"
 17596      73697A65 
 17596      00
 17597              	.LASF767:
 17598 1b93 4843494E 		.ascii	"HCINTMSK\000"
 17598      544D534B 
 17598      00
 17599              	.LASF97:
 17600 1b9c 5F756275 		.ascii	"_ubuf\000"
 17600      6600
 17601              	.LASF496:
 17602 1ba2 636F6E66 		.ascii	"config\000"
 17602      696700
 17603              	.LASF604:
 17604 1ba9 47505444 		.ascii	"GPTD11\000"
 17604      313100
 17605              	.LASF142:
 17606 1bb0 5F6D626C 		.ascii	"_mblen_state\000"
 17606      656E5F73 
 17606      74617465 
 17606      00
 17607              	.LASF125:
 17608 1bbd 5F5F7367 		.ascii	"__sglue\000"
 17608      6C756500 
 17609              	.LASF158:
 17610 1bc5 5F5F6C6F 		.ascii	"__locale_t\000"
 17610      63616C65 
 17610      5F7400
 17611              	.LASF443:
 17612 1bd0 424C4B5F 		.ascii	"BLK_CONNECTING\000"
 17612      434F4E4E 
ARM GAS  C:\Users\Moi\AppData\Local\Temp\ccF5N8ze.s 			page 339


 17612      45435449 
 17612      4E4700
 17613              	.LASF115:
 17614 1bdf 5F5F636C 		.ascii	"__cleanup\000"
 17614      65616E75 
 17614      7000
 17615              	.LASF537:
 17616 1be9 4441435F 		.ascii	"DAC_UNINIT\000"
 17616      554E494E 
 17616      495400
 17617              	.LASF490:
 17618 1bf4 6164635F 		.ascii	"adc_channels_num_t\000"
 17618      6368616E 
 17618      6E656C73 
 17618      5F6E756D 
 17618      5F7400
 17619              	.LASF231:
 17620 1c07 76746675 		.ascii	"vtfunc_t\000"
 17620      6E635F74 
 17620      00
 17621              	.LASF279:
 17622 1c10 43414E5F 		.ascii	"CAN_FIFOMailBox_TypeDef\000"
 17622      4649464F 
 17622      4D61696C 
 17622      426F785F 
 17622      54797065 
 17623              	.LASF309:
 17624 1c28 4441435F 		.ascii	"DAC_TypeDef\000"
 17624      54797065 
 17624      44656600 
 17625              	.LASF376:
 17626 1c34 77746F62 		.ascii	"wtobjp\000"
 17626      6A7000
 17627              	.LASF20:
 17628 1c3b 5F66706F 		.ascii	"_fpos_t\000"
 17628      735F7400 
 17629              	.LASF557:
 17630 1c43 4441435F 		.ascii	"DAC_DHRM_12BIT_RIGHT\000"
 17630      4448524D 
 17630      5F313242 
 17630      49545F52 
 17630      49474854 
 17631              	.LASF90:
 17632 1c58 5F66696C 		.ascii	"_file\000"
 17632      6500
 17633              	.LASF933:
 17634 1c5e 63616D5F 		.ascii	"cam_heigth\000"
 17634      68656967 
 17634      746800
 17635              	.LASF895:
 17636 1c69 54797065 		.ascii	"TypeAccSpheric\000"
 17636      41636353 
 17636      70686572 
 17636      696300
 17637              	.LASF215:
 17638 1c78 705F7265 		.ascii	"p_realprio\000"
 17638      616C7072 
ARM GAS  C:\Users\Moi\AppData\Local\Temp\ccF5N8ze.s 			page 340


 17638      696F00
 17639              	.LASF690:
 17640 1c83 63617061 		.ascii	"capacity\000"
 17640      63697479 
 17640      00
 17641              	.LASF428:
 17642 1c8c 715F6E6F 		.ascii	"q_notify\000"
 17642      74696679 
 17642      00
 17643              	.LASF379:
 17644 1c95 77746D74 		.ascii	"wtmtxp\000"
 17644      787000
 17645              	.LASF88:
 17646 1c9c 5F5F7346 		.ascii	"__sFILE\000"
 17646      494C4500 
 17647              	.LASF84:
 17648 1ca4 5F666E73 		.ascii	"_fns\000"
 17648      00
 17649              	.LASF912:
 17650 1ca9 6672616D 		.ascii	"frame_end_cb\000"
 17650      655F656E 
 17650      645F6362 
 17650      00
 17651              	.LASF854:
 17652 1cb6 5553424F 		.ascii	"USBOutEndpointState\000"
 17652      7574456E 
 17652      64706F69 
 17652      6E745374 
 17652      61746500 
 17653              	.LASF811:
 17654 1cca 72657376 		.ascii	"resvd41C\000"
 17654      64343143 
 17654      00
 17655              	.LASF170:
 17656 1cd3 6368616E 		.ascii	"changed\000"
 17656      67656400 
 17657              	.LASF26:
 17658 1cdb 5F6D6273 		.ascii	"_mbstate_t\000"
 17658      74617465 
 17658      5F7400
 17659              	.LASF153:
 17660 1ce6 5F685F65 		.ascii	"_h_errno\000"
 17660      72726E6F 
 17660      00
 17661              	.LASF876:
 17662 1cef 554E4445 		.ascii	"UNDERWORLD\000"
 17662      52574F52 
 17662      4C4400
 17663              	.LASF276:
 17664 1cfa 52445452 		.ascii	"RDTR\000"
 17664      00
 17665              	.LASF451:
 17666 1cff 626C6B5F 		.ascii	"blk_num\000"
 17666      6E756D00 
 17667              	.LASF949:
 17668 1d07 474E5520 		.ascii	"GNU C11 7.2.1 20170904 (release) [ARM/embedded-7-br"
 17668      43313120 
ARM GAS  C:\Users\Moi\AppData\Local\Temp\ccF5N8ze.s 			page 341


 17668      372E322E 
 17668      31203230 
 17668      31373039 
 17669 1d3a 616E6368 		.ascii	"anch revision 255204] -mcpu=cortex-m4 -mfloat-abi=h"
 17669      20726576 
 17669      6973696F 
 17669      6E203235 
 17669      35323034 
 17670 1d6d 61726420 		.ascii	"ard -mfpu=fpv4-sp-d16 -mno-thumb-interwork -mthumb "
 17670      2D6D6670 
 17670      753D6670 
 17670      76342D73 
 17670      702D6431 
 17671 1da0 2D676764 		.ascii	"-ggdb -fomit-frame-pointer -falign-functions=16 -fs"
 17671      62202D66 
 17671      6F6D6974 
 17671      2D667261 
 17671      6D652D70 
 17672 1dd3 7461636B 		.ascii	"tack-protector-all -ffunction-sections -fdata-secti"
 17672      2D70726F 
 17672      74656374 
 17672      6F722D61 
 17672      6C6C202D 
 17673 1e06 6F6E7320 		.ascii	"ons -fno-common -fsingle-precision-constant\000"
 17673      2D666E6F 
 17673      2D636F6D 
 17673      6D6F6E20 
 17673      2D667369 
 17674              	.LASF749:
 17675 1e32 5553425F 		.ascii	"USB_EVENT_RESET\000"
 17675      4556454E 
 17675      545F5245 
 17675      53455400 
 17676              	.LASF224:
 17677 1e42 63685F72 		.ascii	"ch_ready_list\000"
 17677      65616479 
 17677      5F6C6973 
 17677      7400
 17678              	.LASF53:
 17679 1e50 67726F75 		.ascii	"group\000"
 17679      7000
 17680              	.LASF457:
 17681 1e56 50555044 		.ascii	"PUPDR\000"
 17681      5200
 17682              	.LASF8:
 17683 1e5c 5F5F696E 		.ascii	"__int32_t\000"
 17683      7433325F 
 17683      7400
 17684              	.LASF10:
 17685 1e66 5F5F7569 		.ascii	"__uint32_t\000"
 17685      6E743332 
 17685      5F7400
 17686              	.LASF879:
 17687 1e71 4D415249 		.ascii	"MARIO_FLAG\000"
 17687      4F5F464C 
 17687      414700
 17688              	.LASF243:
ARM GAS  C:\Users\Moi\AppData\Local\Temp\ccF5N8ze.s 			page 342


 17689 1e7c 63685F73 		.ascii	"ch_system_debug\000"
 17689      79737465 
 17689      6D5F6465 
 17689      62756700 
 17690              	.LASF211:
 17691 1e8c 705F6D73 		.ascii	"p_msgqueue\000"
 17691      67717565 
 17691      756500
 17692              	.LASF822:
 17693 1e97 4441494E 		.ascii	"DAINTMSK\000"
 17693      544D534B 
 17693      00
 17694              	.LASF902:
 17695 1ea0 44434D49 		.ascii	"DCMI_ACTIVE_STREAM\000"
 17695      5F414354 
 17695      4956455F 
 17695      53545245 
 17695      414D00
 17696              	.LASF577:
 17697 1eb3 45585443 		.ascii	"EXTConfig\000"
 17697      6F6E6669 
 17697      6700
 17698              	.LASF25:
 17699 1ebd 5F5F7661 		.ascii	"__value\000"
 17699      6C756500 
 17700              	.LASF741:
 17701 1ec5 5553425F 		.ascii	"USB_EP0_WAITING_SETUP\000"
 17701      4550305F 
 17701      57414954 
 17701      494E475F 
 17701      53455455 
 17702              	.LASF81:
 17703 1edb 5F69735F 		.ascii	"_is_cxa\000"
 17703      63786100 
 17704              	.LASF55:
 17705 1ee3 68656164 		.ascii	"head\000"
 17705      00
 17706              	.LASF467:
 17707 1ee8 6166726C 		.ascii	"afrl\000"
 17707      00
 17708              	.LASF844:
 17709 1eed 71756575 		.ascii	"queue\000"
 17709      6500
 17710              	.LASF724:
 17711 1ef3 65703065 		.ascii	"ep0endcb\000"
 17711      6E646362 
 17711      00
 17712              	.LASF436:
 17713 1efc 73656C66 		.ascii	"selfindex\000"
 17713      696E6465 
 17713      7800
 17714              	.LASF409:
 17715 1f06 6D757465 		.ascii	"mutex_t\000"
 17715      785F7400 
 17716              	.LASF118:
 17717 1f0e 5F703573 		.ascii	"_p5s\000"
 17717      00
ARM GAS  C:\Users\Moi\AppData\Local\Temp\ccF5N8ze.s 			page 343


 17718              	.LASF213:
 17719 1f13 705F6570 		.ascii	"p_epending\000"
 17719      656E6469 
 17719      6E6700
 17720              	.LASF454:
 17721 1f1e 4D4F4445 		.ascii	"MODER\000"
 17721      5200
 17722              	.LASF638:
 17723 1f24 4932535F 		.ascii	"I2S_COMPLETE\000"
 17723      434F4D50 
 17723      4C455445 
 17723      00
 17724              	.LASF48:
 17725 1f31 77617463 		.ascii	"watchers\000"
 17725      68657273 
 17725      00
 17726              	.LASF283:
 17727 1f3a 52455345 		.ascii	"RESERVED0\000"
 17727      52564544 
 17727      3000
 17728              	.LASF286:
 17729 1f44 52455345 		.ascii	"RESERVED1\000"
 17729      52564544 
 17729      3100
 17730              	.LASF288:
 17731 1f4e 52455345 		.ascii	"RESERVED2\000"
 17731      52564544 
 17731      3200
 17732              	.LASF290:
 17733 1f58 52455345 		.ascii	"RESERVED3\000"
 17733      52564544 
 17733      3300
 17734              	.LASF292:
 17735 1f62 52455345 		.ascii	"RESERVED4\000"
 17735      52564544 
 17735      3400
 17736              	.LASF294:
 17737 1f6c 52455345 		.ascii	"RESERVED5\000"
 17737      52564544 
 17737      3500
 17738              	.LASF865:
 17739 1f76 55534245 		.ascii	"USBEndpointConfig\000"
 17739      6E64706F 
 17739      696E7443 
 17739      6F6E6669 
 17739      6700
 17740              	.LASF298:
 17741 1f88 44485231 		.ascii	"DHR12R1\000"
 17741      32523100 
 17742              	.LASF301:
 17743 1f90 44485231 		.ascii	"DHR12R2\000"
 17743      32523200 
 17744              	.LASF573:
 17745 1f98 65787463 		.ascii	"extcallback_t\000"
 17745      616C6C62 
 17745      61636B5F 
 17745      7400
ARM GAS  C:\Users\Moi\AppData\Local\Temp\ccF5N8ze.s 			page 344


 17746              	.LASF529:
 17747 1fa6 72787175 		.ascii	"rxqueue\000"
 17747      65756500 
 17748              	.LASF353:
 17749 1fae 73655F74 		.ascii	"se_time\000"
 17749      696D6500 
 17750              	.LASF813:
 17751 1fb6 72657376 		.ascii	"resvd444\000"
 17751      64343434 
 17751      00
 17752              	.LASF481:
 17753 1fbf 70616C5F 		.ascii	"pal_default_config\000"
 17753      64656661 
 17753      756C745F 
 17753      636F6E66 
 17753      696700
 17754              	.LASF499:
 17755 1fd2 67727070 		.ascii	"grpp\000"
 17755      00
 17756              	.LASF304:
 17757 1fd7 44485231 		.ascii	"DHR12RD\000"
 17757      32524400 
 17758              	.LASF413:
 17759 1fdf 656C5F6C 		.ascii	"el_listener\000"
 17759      69737465 
 17759      6E657200 
 17760              	.LASF843:
 17761 1feb 6C696E65 		.ascii	"linear\000"
 17761      617200
 17762              	.LASF901:
 17763 1ff2 44434D49 		.ascii	"DCMI_READY\000"
 17763      5F524541 
 17763      445900
 17764              	.LASF597:
 17765 1ffd 73746D33 		.ascii	"stm32_tim_t\000"
 17765      325F7469 
 17765      6D5F7400 
 17766              	.LASF226:
 17767 2009 725F7072 		.ascii	"r_prio\000"
 17767      696F00
 17768              	.LASF311:
 17769 2010 4D495352 		.ascii	"MISR\000"
 17769      00
 17770              	.LASF255:
 17771 2015 49544D5F 		.ascii	"ITM_RxBuffer\000"
 17771      52784275 
 17771      66666572 
 17771      00
 17772              	.LASF452:
 17773 2022 426C6F63 		.ascii	"BlockDeviceInfo\000"
 17773      6B446576 
 17773      69636549 
 17773      6E666F00 
 17774              	.LASF14:
 17775 2032 6C6F6E67 		.ascii	"long long unsigned int\000"
 17775      206C6F6E 
 17775      6720756E 
ARM GAS  C:\Users\Moi\AppData\Local\Temp\ccF5N8ze.s 			page 345


 17775      7369676E 
 17775      65642069 
 17776              	.LASF165:
 17777 2049 70617265 		.ascii	"parent\000"
 17777      6E7400
 17778              	.LASF362:
 17779 2050 6F666673 		.ascii	"offset\000"
 17779      657400
 17780              	.LASF715:
 17781 2057 53504944 		.ascii	"SPID1\000"
 17781      3100
 17782              	.LASF56:
 17783 205d 746F7069 		.ascii	"topics\000"
 17783      637300
 17784              	.LASF317:
 17785 2064 4E445452 		.ascii	"NDTR\000"
 17785      00
 17786              	.LASF418:
 17787 2069 65735F6E 		.ascii	"es_next\000"
 17787      65787400 
 17788              	.LASF139:
 17789 2071 5F67616D 		.ascii	"_gamma_signgam\000"
 17789      6D615F73 
 17789      69676E67 
 17789      616D00
 17790              	.LASF779:
 17791 2080 72657376 		.ascii	"resvd1C\000"
 17791      64314300 
 17792              	.LASF254:
 17793 2088 69646C65 		.ascii	"idle_thread_wa\000"
 17793      5F746872 
 17793      6561645F 
 17793      776100
 17794              	.LASF775:
 17795 2097 44494550 		.ascii	"DIEPINT\000"
 17795      494E5400 
 17796              	.LASF346:
 17797 209f 5350495F 		.ascii	"SPI_TypeDef\000"
 17797      54797065 
 17797      44656600 
 17798              	.LASF237:
 17799 20ab 76745F66 		.ascii	"vt_func\000"
 17799      756E6300 
 17800              	.LASF588:
 17801 20b3 534D4352 		.ascii	"SMCR\000"
 17801      00
 17802              	.LASF820:
 17803 20b8 444F4550 		.ascii	"DOEPMSK\000"
 17803      4D534B00 
 17804              	.LASF233:
 17805 20c0 63685F76 		.ascii	"ch_virtual_timer\000"
 17805      69727475 
 17805      616C5F74 
 17805      696D6572 
 17805      00
 17806              	.LASF206:
 17807 20d1 705F666C 		.ascii	"p_flags\000"
ARM GAS  C:\Users\Moi\AppData\Local\Temp\ccF5N8ze.s 			page 346


 17807      61677300 
 17808              	.LASF380:
 17809 20d9 65776D61 		.ascii	"ewmask\000"
 17809      736B00
 17810              	.LASF415:
 17811 20e0 656C5F66 		.ascii	"el_flags\000"
 17811      6C616773 
 17811      00
 17812              	.LASF417:
 17813 20e9 6576656E 		.ascii	"event_source\000"
 17813      745F736F 
 17813      75726365 
 17813      00
 17814              	.LASF214:
 17815 20f6 705F6D74 		.ascii	"p_mtxlist\000"
 17815      786C6973 
 17815      7400
 17816              	.LASF536:
 17817 2100 43414E44 		.ascii	"CAND1\000"
 17817      3100
 17818              	.LASF289:
 17819 2106 46533152 		.ascii	"FS1R\000"
 17819      00
 17820              	.LASF185:
 17821 210b 74737461 		.ascii	"tstate_t\000"
 17821      74655F74 
 17821      00
 17822              	.LASF160:
 17823 2114 5F676C6F 		.ascii	"_global_impure_ptr\000"
 17823      62616C5F 
 17823      696D7075 
 17823      72655F70 
 17823      747200
 17824              	.LASF821:
 17825 2127 4441494E 		.ascii	"DAINT\000"
 17825      5400
 17826              	.LASF714:
 17827 212d 53504943 		.ascii	"SPIConfig\000"
 17827      6F6E6669 
 17827      6700
 17828              	.LASF112:
 17829 2137 5F756E73 		.ascii	"_unspecified_locale_info\000"
 17829      70656369 
 17829      66696564 
 17829      5F6C6F63 
 17829      616C655F 
 17830              	.LASF466:
 17831 2150 70757064 		.ascii	"pupdr\000"
 17831      7200
 17832              	.LASF556:
 17833 2156 64616365 		.ascii	"dacerrorcallback_t\000"
 17833      72726F72 
 17833      63616C6C 
 17833      6261636B 
 17833      5F7400
 17834              	.LASF909:
 17835 2169 64636D69 		.ascii	"dcmi\000"
ARM GAS  C:\Users\Moi\AppData\Local\Temp\ccF5N8ze.s 			page 347


 17835      00
 17836              	.LASF717:
 17837 216e 7472616E 		.ascii	"transmitting\000"
 17837      736D6974 
 17837      74696E67 
 17837      00
 17838              	.LASF576:
 17839 217b 6368616E 		.ascii	"channels\000"
 17839      6E656C73 
 17839      00
 17840              	.LASF327:
 17841 2184 434C4B43 		.ascii	"CLKCR\000"
 17841      5200
 17842              	.LASF689:
 17843 218a 53444344 		.ascii	"SDCDriver\000"
 17843      72697665 
 17843      7200
 17844              	.LASF203:
 17845 2194 705F6E61 		.ascii	"p_name\000"
 17845      6D6500
 17846              	.LASF114:
 17847 219b 5F5F7364 		.ascii	"__sdidinit\000"
 17847      6964696E 
 17847      697400
 17848              	.LASF671:
 17849 21a6 53657269 		.ascii	"SerialDriver\000"
 17849      616C4472 
 17849      69766572 
 17849      00
 17850              	.LASF267:
 17851 21b3 4A445231 		.ascii	"JDR1\000"
 17851      00
 17852              	.LASF268:
 17853 21b8 4A445232 		.ascii	"JDR2\000"
 17853      00
 17854              	.LASF269:
 17855 21bd 4A445233 		.ascii	"JDR3\000"
 17855      00
 17856              	.LASF270:
 17857 21c2 4A445234 		.ascii	"JDR4\000"
 17857      00
 17858              	.LASF783:
 17859 21c7 444F4550 		.ascii	"DOEPTSIZ\000"
 17859      5453495A 
 17859      00
 17860              	.LASF484:
 17861 21d0 4144435F 		.ascii	"ADC_READY\000"
 17861      52454144 
 17861      5900
 17862              	.LASF397:
 17863 21da 63665F6F 		.ascii	"cf_off_ctx\000"
 17863      66665F63 
 17863      747800
 17864              	.LASF943:
 17865 21e5 61636365 		.ascii	"accelero\000"
 17865      6C65726F 
 17865      00
ARM GAS  C:\Users\Moi\AppData\Local\Temp\ccF5N8ze.s 			page 348


 17866              	.LASF27:
 17867 21ee 5F666C6F 		.ascii	"_flock_t\000"
 17867      636B5F74 
 17867      00
 17868              	.LASF239:
 17869 21f7 76697274 		.ascii	"virtual_timers_list_t\000"
 17869      75616C5F 
 17869      74696D65 
 17869      72735F6C 
 17869      6973745F 
 17870              	.LASF807:
 17871 220d 72657376 		.ascii	"resvd40C\000"
 17871      64343043 
 17871      00
 17872              	.LASF789:
 17873 2216 47525354 		.ascii	"GRSTCTL\000"
 17873      43544C00 
 17874              	.LASF506:
 17875 221e 63697263 		.ascii	"circular\000"
 17875      756C6172 
 17875      00
 17876              	.LASF639:
 17877 2227 69327373 		.ascii	"i2sstate_t\000"
 17877      74617465 
 17877      5F7400
 17878              	.LASF463:
 17879 2232 6D6F6465 		.ascii	"moder\000"
 17879      7200
 17880              	.LASF710:
 17881 2238 53504944 		.ascii	"SPIDriver\000"
 17881      72697665 
 17881      7200
 17882              	.LASF382:
 17883 2242 735F7175 		.ascii	"s_queue\000"
 17883      65756500 
 17884              	.LASF371:
 17885 224a 6D5F6372 		.ascii	"m_crit_thd\000"
 17885      69745F74 
 17885      686400
 17886              	.LASF538:
 17887 2255 4441435F 		.ascii	"DAC_STOP\000"
 17887      53544F50 
 17887      00
 17888              	.LASF814:
 17889 225e 72657376 		.ascii	"resvd700\000"
 17889      64373030 
 17889      00
 17890              	.LASF344:
 17891 2267 49325343 		.ascii	"I2SCFGR\000"
 17891      46475200 
 17892              	.LASF38:
 17893 226f 6F707469 		.ascii	"optind\000"
 17893      6E6400
 17894              	.LASF389:
 17895 2276 63685F69 		.ascii	"ch_identifier\000"
 17895      64656E74 
 17895      69666965 
ARM GAS  C:\Users\Moi\AppData\Local\Temp\ccF5N8ze.s 			page 349


 17895      7200
 17896              	.LASF681:
 17897 2284 77726974 		.ascii	"writet\000"
 17897      657400
 17898              	.LASF886:
 17899 228b 4E425F53 		.ascii	"NB_SONGS\000"
 17899      4F4E4753 
 17899      00
 17900              	.LASF12:
 17901 2294 6C6F6E67 		.ascii	"long long int\000"
 17901      206C6F6E 
 17901      6720696E 
 17901      7400
 17902              	.LASF801:
 17903 22a2 48505458 		.ascii	"HPTXFSIZ\000"
 17903      4653495A 
 17903      00
 17904              	.LASF913:
 17905 22ab 7472616E 		.ascii	"transfer_complete_cb\000"
 17905      73666572 
 17905      5F636F6D 
 17905      706C6574 
 17905      655F6362 
 17906              	.LASF396:
 17907 22c0 63665F6F 		.ascii	"cf_off_prio\000"
 17907      66665F70 
 17907      72696F00 
 17908              	.LASF104:
 17909 22cc 5F666C61 		.ascii	"_flags2\000"
 17909      67733200 
 17910              	.LASF368:
 17911 22d4 74696D65 		.ascii	"time_measurement_t\000"
 17911      5F6D6561 
 17911      73757265 
 17911      6D656E74 
 17911      5F7400
 17912              	.LASF702:
 17913 22e7 6765745F 		.ascii	"get_info\000"
 17913      696E666F 
 17913      00
 17914              	.LASF493:
 17915 22f0 61646365 		.ascii	"adcerror_t\000"
 17915      72726F72 
 17915      5F7400
 17916              	.LASF867:
 17917 22fb 6765745F 		.ascii	"get_descriptor_cb\000"
 17917      64657363 
 17917      72697074 
 17917      6F725F63 
 17917      6200
 17918              	.LASF113:
 17919 230d 5F6C6F63 		.ascii	"_locale\000"
 17919      616C6500 
 17920              	.LASF191:
 17921 2315 6576656E 		.ascii	"eventflags_t\000"
 17921      74666C61 
 17921      67735F74 
ARM GAS  C:\Users\Moi\AppData\Local\Temp\ccF5N8ze.s 			page 350


 17921      00
 17922              	.LASF706:
 17923 2322 5350495F 		.ascii	"SPI_READY\000"
 17923      52454144 
 17923      5900
 17924              	.LASF285:
 17925 232c 73464946 		.ascii	"sFIFOMailBox\000"
 17925      4F4D6169 
 17925      6C426F78 
 17925      00
 17926              	.LASF694:
 17927 2339 6275735F 		.ascii	"bus_width\000"
 17927      77696474 
 17927      6800
 17928              	.LASF923:
 17929 2343 4C45445F 		.ascii	"LED_action\000"
 17929      61637469 
 17929      6F6E00
 17930              	.LASF306:
 17931 234e 44485238 		.ascii	"DHR8RD\000"
 17931      524400
 17932              	.LASF816:
 17933 2355 4443544C 		.ascii	"DCTL\000"
 17933      00
 17934              	.LASF696:
 17935 235a 53444344 		.ascii	"SDCDriverVMT\000"
 17935      72697665 
 17935      72564D54 
 17935      00
 17936              	.LASF842:
 17937 2367 74786275 		.ascii	"txbuf\000"
 17937      6600
 17938              	.LASF835:
 17939 236d 50434743 		.ascii	"PCGCCTL\000"
 17939      43544C00 
 17940              	.LASF753:
 17941 2375 5553425F 		.ascii	"USB_EVENT_WAKEUP\000"
 17941      4556454E 
 17941      545F5741 
 17941      4B455550 
 17941      00
 17942              	.LASF928:
 17943 2386 6779726F 		.ascii	"gyrox\000"
 17943      7800
 17944              	.LASF930:
 17945 238c 6779726F 		.ascii	"gyroz\000"
 17945      7A00
 17946              	.LASF202:
 17947 2392 705F6F6C 		.ascii	"p_older\000"
 17947      64657200 
 17948              	.LASF448:
 17949 239a 424C4B5F 		.ascii	"BLK_SYNCING\000"
 17949      53594E43 
 17949      494E4700 
 17950              	.LASF478:
 17951 23a6 50494461 		.ascii	"PIData\000"
 17951      746100
ARM GAS  C:\Users\Moi\AppData\Local\Temp\ccF5N8ze.s 			page 351


 17952              	.LASF864:
 17953 23ad 73657475 		.ascii	"setup_buf\000"
 17953      705F6275 
 17953      6600
 17954              	.LASF798:
 17955 23b7 72657376 		.ascii	"resvd34\000"
 17955      64333400 
 17956              	.LASF603:
 17957 23bf 47505444 		.ascii	"GPTD6\000"
 17957      3600
 17958              	.LASF896:
 17959 23c5 44434D49 		.ascii	"DCMI_ERR_DMAFAILURE\000"
 17959      5F455252 
 17959      5F444D41 
 17959      4641494C 
 17959      55524500 
 17960              	.LASF509:
 17961 23d9 6572726F 		.ascii	"error_cb\000"
 17961      725F6362 
 17961      00
 17962              	.LASF444:
 17963 23e2 424C4B5F 		.ascii	"BLK_DISCONNECTING\000"
 17963      44495343 
 17963      4F4E4E45 
 17963      4354494E 
 17963      4700
 17964              	.LASF712:
 17965 23f4 7373706F 		.ascii	"ssport\000"
 17965      727400
 17966              	.LASF175:
 17967 23fb 6275665F 		.ascii	"buf_len\000"
 17967      6C656E00 
 17968              	.LASF218:
 17969 2403 74687265 		.ascii	"thread_reference_t\000"
 17969      61645F72 
 17969      65666572 
 17969      656E6365 
 17969      5F7400
 17970              	.LASF898:
 17971 2416 64636D69 		.ascii	"dcmierror_t\000"
 17971      6572726F 
 17971      725F7400 
 17972              	.LASF572:
 17973 2422 65787063 		.ascii	"expchannel_t\000"
 17973      68616E6E 
 17973      656C5F74 
 17973      00
 17974              	.LASF718:
 17975 242f 72656365 		.ascii	"receiving\000"
 17975      6976696E 
 17975      6700
 17976              	.LASF167:
 17977 2439 70617261 		.ascii	"parameter_list\000"
 17977      6D657465 
 17977      725F6C69 
 17977      737400
 17978              	.LASF127:
ARM GAS  C:\Users\Moi\AppData\Local\Temp\ccF5N8ze.s 			page 352


 17979 2448 5F5F4649 		.ascii	"__FILE\000"
 17979      4C4500
 17980              	.LASF599:
 17981 244f 66726571 		.ascii	"frequency\000"
 17981      75656E63 
 17981      7900
 17982              	.LASF65:
 17983 2459 5F736967 		.ascii	"_sign\000"
 17983      6E00
 17984              	.LASF0:
 17985 245f 5F5F696E 		.ascii	"__int8_t\000"
 17985      74385F74 
 17985      00
 17986              	.LASF861:
 17987 2468 696E5F73 		.ascii	"in_state\000"
 17987      74617465 
 17987      00
 17988              	.LASF69:
 17989 2471 5F5F746D 		.ascii	"__tm_min\000"
 17989      5F6D696E 
 17989      00
 17990              	.LASF948:
 17991 247a 48577665 		.ascii	"HWversion\000"
 17991      7273696F 
 17991      6E00
 17992              	.LASF390:
 17993 2484 63685F7A 		.ascii	"ch_zero\000"
 17993      65726F00 
 17994              	.LASF619:
 17995 248c 46415354 		.ascii	"FAST_DUTY_CYCLE_2\000"
 17995      5F445554 
 17995      595F4359 
 17995      434C455F 
 17995      3200
 17996              	.LASF335:
 17997 249e 44435452 		.ascii	"DCTRL\000"
 17997      4C00
 17998              	.LASF395:
 17999 24a4 63685F74 		.ascii	"ch_threadsize\000"
 17999      68726561 
 17999      6473697A 
 17999      6500
 18000              	.LASF324:
 18001 24b2 464C5452 		.ascii	"FLTR\000"
 18001      00
 18002              	.LASF590:
 18003 24b7 43434D52 		.ascii	"CCMR1\000"
 18003      3100
 18004              	.LASF591:
 18005 24bd 43434D52 		.ascii	"CCMR2\000"
 18005      3200
 18006              	.LASF595:
 18007 24c3 43434D52 		.ascii	"CCMR3\000"
 18007      3300
 18008              	.LASF15:
 18009 24c9 756E7369 		.ascii	"unsigned int\000"
 18009      676E6564 
ARM GAS  C:\Users\Moi\AppData\Local\Temp\ccF5N8ze.s 			page 353


 18009      20696E74 
 18009      00
 18010              	.LASF513:
 18011 24d6 73717232 		.ascii	"sqr2\000"
 18011      00
 18012              	.LASF514:
 18013 24db 73717233 		.ascii	"sqr3\000"
 18013      00
 18014              	.LASF141:
 18015 24e0 5F723438 		.ascii	"_r48\000"
 18015      00
 18016              	.LASF805:
 18017 24e5 48464952 		.ascii	"HFIR\000"
 18017      00
 18018              	.LASF914:
 18019 24ea 44434D49 		.ascii	"DCMIConfig\000"
 18019      436F6E66 
 18019      696700
 18020              	.LASF735:
 18021 24f5 5553425F 		.ascii	"USB_UNINIT\000"
 18021      554E494E 
 18021      495400
 18022              	.LASF433:
 18023 2500 73747265 		.ascii	"stream\000"
 18023      616D00
 18024              	.LASF516:
 18025 2507 64756D6D 		.ascii	"dummy\000"
 18025      7900
 18026              	.LASF882:
 18027 250d 53494D50 		.ascii	"SIMPSON\000"
 18027      534F4E00 
 18028              	.LASF617:
 18029 2515 6932636F 		.ascii	"i2copmode_t\000"
 18029      706D6F64 
 18029      655F7400 
 18030              	.LASF313:
 18031 2521 45535552 		.ascii	"ESUR\000"
 18031      00
 18032              	.LASF411:
 18033 2526 6576656E 		.ascii	"event_listener\000"
 18033      745F6C69 
 18033      7374656E 
 18033      657200
 18034              	.LASF5:
 18035 2535 73686F72 		.ascii	"short int\000"
 18035      7420696E 
 18035      7400
 18036              	.LASF759:
 18037 253f 75736263 		.ascii	"usbcallback_t\000"
 18037      616C6C62 
 18037      61636B5F 
 18037      7400
 18038              	.LASF93:
 18039 254d 5F726561 		.ascii	"_read\000"
 18039      6400
 18040              	.LASF788:
 18041 2553 47555342 		.ascii	"GUSBCFG\000"
ARM GAS  C:\Users\Moi\AppData\Local\Temp\ccF5N8ze.s 			page 354


 18041      43464700 
 18042              	.LASF348:
 18043 255b 55534152 		.ascii	"USART_TypeDef\000"
 18043      545F5479 
 18043      70654465 
 18043      6600
 18044              	.LASF432:
 18045 2569 6F757470 		.ascii	"output_queue_t\000"
 18045      75745F71 
 18045      75657565 
 18045      5F7400
 18046              	.LASF131:
 18047 2578 5F72616E 		.ascii	"_rand48\000"
 18047      64343800 
 18048              	.LASF837:
 18049 2580 73746D33 		.ascii	"stm32_otg_t\000"
 18049      325F6F74 
 18049      675F7400 
 18050              	.LASF76:
 18051 258c 5F5F746D 		.ascii	"__tm_isdst\000"
 18051      5F697364 
 18051      737400
 18052              	.LASF640:
 18053 2597 49325344 		.ascii	"I2SDriver\000"
 18053      72697665 
 18053      7200
 18054              	.LASF624:
 18055 25a1 64757479 		.ascii	"duty_cycle\000"
 18055      5F637963 
 18055      6C6500
 18056              	.LASF647:
 18057 25ac 49325343 		.ascii	"I2SConfig\000"
 18057      6F6E6669 
 18057      6700
 18058              	.LASF756:
 18059 25b6 75645F73 		.ascii	"ud_size\000"
 18059      697A6500 
 18060              	.LASF859:
 18061 25be 696E5F6D 		.ascii	"in_maxsize\000"
 18061      61787369 
 18061      7A6500
 18062              	.LASF475:
 18063 25c9 50464461 		.ascii	"PFData\000"
 18063      746100
 18064              	.LASF568:
 18065 25d0 4558545F 		.ascii	"EXT_STOP\000"
 18065      53544F50 
 18065      00
 18066              	.LASF205:
 18067 25d9 705F7374 		.ascii	"p_state\000"
 18067      61746500 
 18068              	.LASF59:
 18069 25e1 7075626C 		.ascii	"published_topic\000"
 18069      69736865 
 18069      645F746F 
 18069      70696300 
 18070              	.LASF697:
ARM GAS  C:\Users\Moi\AppData\Local\Temp\ccF5N8ze.s 			page 355


 18071 25f1 69735F69 		.ascii	"is_inserted\000"
 18071      6E736572 
 18071      74656400 
 18072              	.LASF220:
 18073 25fd 63685F74 		.ascii	"ch_threads_list\000"
 18073      68726561 
 18073      64735F6C 
 18073      69737400 
 18074              	.LASF927:
 18075 260d 736F756E 		.ascii	"sound\000"
 18075      6400
 18076              	.LASF336:
 18077 2613 44434F55 		.ascii	"DCOUNT\000"
 18077      4E5400
 18078              	.LASF321:
 18079 261a 4F415231 		.ascii	"OAR1\000"
 18079      00
 18080              	.LASF322:
 18081 261f 4F415232 		.ascii	"OAR2\000"
 18081      00
 18082              	.LASF217:
 18083 2624 705F7374 		.ascii	"p_stats\000"
 18083      61747300 
 18084              	.LASF740:
 18085 262c 75736273 		.ascii	"usbstate_t\000"
 18085      74617465 
 18085      5F7400
 18086              		.ident	"GCC: (GNU Tools for Arm Embedded Processors 7-2017-q4-major) 7.2.1 20170904 (release) [ARM
ARM GAS  C:\Users\Moi\AppData\Local\Temp\ccF5N8ze.s 			page 356


DEFINED SYMBOLS
                            *ABS*:00000000 Asercom2.c
C:\Users\Moi\AppData\Local\Temp\ccF5N8ze.s:18     .rodata:00000000 $d
C:\Users\Moi\AppData\Local\Temp\ccF5N8ze.s:336    .text.run_asercom2:00000000 $t
C:\Users\Moi\AppData\Local\Temp\ccF5N8ze.s:344    .text.run_asercom2:00000000 run_asercom2
C:\Users\Moi\AppData\Local\Temp\ccF5N8ze.s:597    .text.run_asercom2:000001c8 $d
C:\Users\Moi\AppData\Local\Temp\ccF5N8ze.s:607    .text.run_asercom2:000001f0 $t
C:\Users\Moi\AppData\Local\Temp\ccF5N8ze.s:760    .text.run_asercom2:000002d8 $d
C:\Users\Moi\AppData\Local\Temp\ccF5N8ze.s:6559   .data.HWversion.13569:00000000 HWversion.13569
C:\Users\Moi\AppData\Local\Temp\ccF5N8ze.s:6565   .bss.cam_mode.13548:00000000 cam_mode.13548
C:\Users\Moi\AppData\Local\Temp\ccF5N8ze.s:6571   .bss.cam_width.13549:00000000 cam_width.13549
C:\Users\Moi\AppData\Local\Temp\ccF5N8ze.s:6577   .bss.cam_heigth.13550:00000000 cam_heigth.13550
C:\Users\Moi\AppData\Local\Temp\ccF5N8ze.s:6583   .bss.cam_zoom.13551:00000000 cam_zoom.13551
C:\Users\Moi\AppData\Local\Temp\ccF5N8ze.s:6589   .bss.cam_size.13552:00000000 cam_size.13552
C:\Users\Moi\AppData\Local\Temp\ccF5N8ze.s:6595   .bss.speedr.13535:00000000 speedr.13535
C:\Users\Moi\AppData\Local\Temp\ccF5N8ze.s:6601   .bss.speedl.13536:00000000 speedl.13536
C:\Users\Moi\AppData\Local\Temp\ccF5N8ze.s:6606   .bss.first.13555:00000000 first.13555
C:\Users\Moi\AppData\Local\Temp\ccF5N8ze.s:777    .text.run_asercom2:00000314 $t
C:\Users\Moi\AppData\Local\Temp\ccF5N8ze.s:806    .text.run_asercom2:00000358 $d
C:\Users\Moi\AppData\Local\Temp\ccF5N8ze.s:816    .text.run_asercom2:00000380 $t
C:\Users\Moi\AppData\Local\Temp\ccF5N8ze.s:990    .text.run_asercom2:00000490 $d
C:\Users\Moi\AppData\Local\Temp\ccF5N8ze.s:1100   .text.run_asercom2:00000648 $t
C:\Users\Moi\AppData\Local\Temp\ccF5N8ze.s:1133   .text.run_asercom2:00000678 $d
C:\Users\Moi\AppData\Local\Temp\ccF5N8ze.s:6612   .bss.i.13532:00000000 i.13532
C:\Users\Moi\AppData\Local\Temp\ccF5N8ze.s:6618   .bss.j.13533:00000000 j.13533
C:\Users\Moi\AppData\Local\Temp\ccF5N8ze.s:6624   .bss.rgb_value.13556:00000000 rgb_value.13556
C:\Users\Moi\AppData\Local\Temp\ccF5N8ze.s:1144   .text.run_asercom2:0000069c $t
C:\Users\Moi\AppData\Local\Temp\ccF5N8ze.s:1456   .text.run_asercom2:000008d4 $d
C:\Users\Moi\AppData\Local\Temp\ccF5N8ze.s:6630   .bss.n.13534:00000000 n.13534
C:\Users\Moi\AppData\Local\Temp\ccF5N8ze.s:6636   .bss.accx.13541:00000000 accx.13541
C:\Users\Moi\AppData\Local\Temp\ccF5N8ze.s:6642   .bss.accy.13542:00000000 accy.13542
C:\Users\Moi\AppData\Local\Temp\ccF5N8ze.s:6648   .bss.accz.13543:00000000 accz.13543
C:\Users\Moi\AppData\Local\Temp\ccF5N8ze.s:1466   .text.run_asercom2:000008f4 $t
C:\Users\Moi\AppData\Local\Temp\ccF5N8ze.s:1803   .text.run_asercom2:00000b44 $d
C:\Users\Moi\AppData\Local\Temp\ccF5N8ze.s:6654   .bss.accelero.13564:00000000 accelero.13564
C:\Users\Moi\AppData\Local\Temp\ccF5N8ze.s:6659   .bss.c1.13529:00000000 c1.13529
C:\Users\Moi\AppData\Local\Temp\ccF5N8ze.s:6664   .bss.c2.13530:00000000 c2.13530
C:\Users\Moi\AppData\Local\Temp\ccF5N8ze.s:1815   .text.run_asercom2:00000b6c $t
C:\Users\Moi\AppData\Local\Temp\ccF5N8ze.s:2168   .text.run_asercom2:00000dd0 $d
C:\Users\Moi\AppData\Local\Temp\ccF5N8ze.s:6682   .bss.gyroz.13547:00000000 gyroz.13547
C:\Users\Moi\AppData\Local\Temp\ccF5N8ze.s:6676   .bss.gyroy.13546:00000000 gyroy.13546
C:\Users\Moi\AppData\Local\Temp\ccF5N8ze.s:6670   .bss.gyrox.13545:00000000 gyrox.13545
C:\Users\Moi\AppData\Local\Temp\ccF5N8ze.s:6687   .bss.wait_cam.13531:00000000 wait_cam.13531
C:\Users\Moi\AppData\Local\Temp\ccF5N8ze.s:2184   .text.run_asercom2:00000e08 $t
C:\Users\Moi\AppData\Local\Temp\ccF5N8ze.s:2543   .text.run_asercom2:0000105c $d
C:\Users\Moi\AppData\Local\Temp\ccF5N8ze.s:2551   .text.run_asercom2:00001074 $t
C:\Users\Moi\AppData\Local\Temp\ccF5N8ze.s:2929   .text.run_asercom2:000012f8 $d
C:\Users\Moi\AppData\Local\Temp\ccF5N8ze.s:6693   .bss.positionl.13538:00000000 positionl.13538
C:\Users\Moi\AppData\Local\Temp\ccF5N8ze.s:6699   .bss.positionr.13537:00000000 positionr.13537
C:\Users\Moi\AppData\Local\Temp\ccF5N8ze.s:6705   .bss.mod.13558:00000000 mod.13558
C:\Users\Moi\AppData\Local\Temp\ccF5N8ze.s:6711   .bss.reg.13559:00000000 reg.13559
C:\Users\Moi\AppData\Local\Temp\ccF5N8ze.s:6717   .bss.val.13560:00000000 val.13560
C:\Users\Moi\AppData\Local\Temp\ccF5N8ze.s:2942   .text.run_asercom2:00001324 $t
C:\Users\Moi\AppData\Local\Temp\ccF5N8ze.s:3350   .text.run_asercom2:000015b8 $d
C:\Users\Moi\AppData\Local\Temp\ccF5N8ze.s:3358   .text.run_asercom2:000015d0 $t
C:\Users\Moi\AppData\Local\Temp\ccF5N8ze.s:3442   .text.run_asercom2:00001664 $d
C:\Users\Moi\AppData\Local\Temp\ccF5N8ze.s:3494   .text.run_asercom2:00001734 $t
ARM GAS  C:\Users\Moi\AppData\Local\Temp\ccF5N8ze.s 			page 357


C:\Users\Moi\AppData\Local\Temp\ccF5N8ze.s:3730   .text.run_asercom2:000018fc $d
C:\Users\Moi\AppData\Local\Temp\ccF5N8ze.s:6723   .bss.LED_action.13540:00000000 LED_action.13540
C:\Users\Moi\AppData\Local\Temp\ccF5N8ze.s:3745   .text.run_asercom2:00001930 $t
C:\Users\Moi\AppData\Local\Temp\ccF5N8ze.s:4097   .text.run_asercom2:00001bd0 $d
C:\Users\Moi\AppData\Local\Temp\ccF5N8ze.s:4115   .text.run_asercom2:00001c10 $t
C:\Users\Moi\AppData\Local\Temp\ccF5N8ze.s:4453   .text.run_asercom2:00001e70 $d
C:\Users\Moi\AppData\Local\Temp\ccF5N8ze.s:4483   .text.run_asercom2:00001ee0 $t
C:\Users\Moi\AppData\Local\Temp\ccF5N8ze.s:4854   .text.run_asercom2:0000218c $d
C:\Users\Moi\AppData\Local\Temp\ccF5N8ze.s:6729   .bss.cam_x1.13553:00000000 cam_x1.13553
C:\Users\Moi\AppData\Local\Temp\ccF5N8ze.s:6735   .bss.cam_y1.13554:00000000 cam_y1.13554
C:\Users\Moi\AppData\Local\Temp\ccF5N8ze.s:4890   .text.run_asercom2:00002214 $t
C:\Users\Moi\AppData\Local\Temp\ccF5N8ze.s:5270   .text.run_asercom2:000024c0 $d
C:\Users\Moi\AppData\Local\Temp\ccF5N8ze.s:6741   .bss.LED_nbr.13539:00000000 LED_nbr.13539
C:\Users\Moi\AppData\Local\Temp\ccF5N8ze.s:5289   .text.run_asercom2:00002504 $t
C:\Users\Moi\AppData\Local\Temp\ccF5N8ze.s:5685   .text.run_asercom2:000027f0 $d
C:\Users\Moi\AppData\Local\Temp\ccF5N8ze.s:5697   .text.run_asercom2:00002818 $t
C:\Users\Moi\AppData\Local\Temp\ccF5N8ze.s:5786   .text.run_asercom2:000028b4 $d
C:\Users\Moi\AppData\Local\Temp\ccF5N8ze.s:5791   .text.run_asercom2:000028c8 $t
C:\Users\Moi\AppData\Local\Temp\ccF5N8ze.s:6129   .text.run_asercom2:00002b20 $d
C:\Users\Moi\AppData\Local\Temp\ccF5N8ze.s:6747   .bss.sound.13544:00000000 sound.13544
C:\Users\Moi\AppData\Local\Temp\ccF5N8ze.s:6148   .text.run_asercom2:00002b64 $t
C:\Users\Moi\AppData\Local\Temp\ccF5N8ze.s:6541   .text.run_asercom2:00002dfc $d
C:\Users\Moi\AppData\Local\Temp\ccF5N8ze.s:6556   .data.HWversion.13569:00000000 $d
C:\Users\Moi\AppData\Local\Temp\ccF5N8ze.s:6562   .bss.cam_mode.13548:00000000 $d
C:\Users\Moi\AppData\Local\Temp\ccF5N8ze.s:6568   .bss.cam_width.13549:00000000 $d
C:\Users\Moi\AppData\Local\Temp\ccF5N8ze.s:6574   .bss.cam_heigth.13550:00000000 $d
C:\Users\Moi\AppData\Local\Temp\ccF5N8ze.s:6580   .bss.cam_zoom.13551:00000000 $d
C:\Users\Moi\AppData\Local\Temp\ccF5N8ze.s:6586   .bss.cam_size.13552:00000000 $d
C:\Users\Moi\AppData\Local\Temp\ccF5N8ze.s:6592   .bss.speedr.13535:00000000 $d
C:\Users\Moi\AppData\Local\Temp\ccF5N8ze.s:6598   .bss.speedl.13536:00000000 $d
C:\Users\Moi\AppData\Local\Temp\ccF5N8ze.s:6607   .bss.first.13555:00000000 $d
C:\Users\Moi\AppData\Local\Temp\ccF5N8ze.s:6609   .bss.i.13532:00000000 $d
C:\Users\Moi\AppData\Local\Temp\ccF5N8ze.s:6615   .bss.j.13533:00000000 $d
C:\Users\Moi\AppData\Local\Temp\ccF5N8ze.s:6621   .bss.rgb_value.13556:00000000 $d
C:\Users\Moi\AppData\Local\Temp\ccF5N8ze.s:6627   .bss.n.13534:00000000 $d
C:\Users\Moi\AppData\Local\Temp\ccF5N8ze.s:6633   .bss.accx.13541:00000000 $d
C:\Users\Moi\AppData\Local\Temp\ccF5N8ze.s:6639   .bss.accy.13542:00000000 $d
C:\Users\Moi\AppData\Local\Temp\ccF5N8ze.s:6645   .bss.accz.13543:00000000 $d
C:\Users\Moi\AppData\Local\Temp\ccF5N8ze.s:6651   .bss.accelero.13564:00000000 $d
C:\Users\Moi\AppData\Local\Temp\ccF5N8ze.s:6660   .bss.c1.13529:00000000 $d
C:\Users\Moi\AppData\Local\Temp\ccF5N8ze.s:6665   .bss.c2.13530:00000000 $d
C:\Users\Moi\AppData\Local\Temp\ccF5N8ze.s:6667   .bss.gyrox.13545:00000000 $d
C:\Users\Moi\AppData\Local\Temp\ccF5N8ze.s:6673   .bss.gyroy.13546:00000000 $d
C:\Users\Moi\AppData\Local\Temp\ccF5N8ze.s:6679   .bss.gyroz.13547:00000000 $d
C:\Users\Moi\AppData\Local\Temp\ccF5N8ze.s:6688   .bss.wait_cam.13531:00000000 $d
C:\Users\Moi\AppData\Local\Temp\ccF5N8ze.s:6690   .bss.positionl.13538:00000000 $d
C:\Users\Moi\AppData\Local\Temp\ccF5N8ze.s:6696   .bss.positionr.13537:00000000 $d
C:\Users\Moi\AppData\Local\Temp\ccF5N8ze.s:6702   .bss.mod.13558:00000000 $d
C:\Users\Moi\AppData\Local\Temp\ccF5N8ze.s:6708   .bss.reg.13559:00000000 $d
C:\Users\Moi\AppData\Local\Temp\ccF5N8ze.s:6714   .bss.val.13560:00000000 $d
C:\Users\Moi\AppData\Local\Temp\ccF5N8ze.s:6720   .bss.LED_action.13540:00000000 $d
C:\Users\Moi\AppData\Local\Temp\ccF5N8ze.s:6726   .bss.cam_x1.13553:00000000 $d
C:\Users\Moi\AppData\Local\Temp\ccF5N8ze.s:6732   .bss.cam_y1.13554:00000000 $d
C:\Users\Moi\AppData\Local\Temp\ccF5N8ze.s:6738   .bss.LED_nbr.13539:00000000 $d
C:\Users\Moi\AppData\Local\Temp\ccF5N8ze.s:6744   .bss.sound.13544:00000000 $d

UNDEFINED SYMBOLS
ARM GAS  C:\Users\Moi\AppData\Local\Temp\ccF5N8ze.s 			page 358


e_init_motors
getselector
mountSDCard
e_i2cp_init
e_init_remote_control
ReadEE
e_poxxxx_init_cam
e_poxxxx_config_cam
e_poxxxx_write_cam_registers
e_acc_calibr
e_send_uart1_char
e_uart1_sending
e_send_uart2_char
e_uart2_sending
e_get_data
e_get_address
e_init_sound
e_play_sound
e_set_speed_left
e_set_speed_right
e_getchar_uart1
__stack_chk_guard
selector
c
e_getchar_uart2
set_rgb_led
button_get_state
e_get_micro_volume
VL53L0X_get_dist_mm
isSDCardMounted
e_get_acc_filtered
buffer
e_read_acc_spheric
getBatteryValueRaw
getAllAxesGyro
e_poxxxx_launch_capture
e_set_body_led
e_set_front_led
e_set_led
e_i2cp_enable
e_i2cp_read
e_i2cp_disable
e_get_calibrated_prox
e_get_ambient_light
e_set_steps_left
e_set_steps_right
e_get_steps_left
e_get_steps_right
getTemperature
e_i2cp_write
e_poxxxx_wait_img_ready
dcmi_get_last_image_ptr
memcpy
__locale_ctype_ptr
sprintf
strlen
getBatteryValuePercentage
ARM GAS  C:\Users\Moi\AppData\Local\Temp\ccF5N8ze.s 			page 359


sscanf
e_get_check
getXAxisGyro
getYAxisGyro
getZAxisGyro
isEpuckVersion1_3
chThdSleep
e_led_clear
e_calibrate_ir
playMelody
e_close_sound
stopCurrentMelody
