ARM GAS  C:\Users\Moi\AppData\Local\Temp\cclSFAQI.s 			page 1


   1              		.cpu cortex-m4
   2              		.eabi_attribute 27, 1
   3              		.eabi_attribute 28, 1
   4              		.eabi_attribute 20, 1
   5              		.eabi_attribute 21, 1
   6              		.eabi_attribute 23, 3
   7              		.eabi_attribute 24, 1
   8              		.eabi_attribute 25, 1
   9              		.eabi_attribute 26, 1
  10              		.eabi_attribute 30, 6
  11              		.eabi_attribute 34, 1
  12              		.eabi_attribute 18, 4
  13              		.file	"calibration.c"
  14              		.text
  15              	.Ltext0:
  16              		.cfi_sections	.debug_frame
  17              		.section	.text.port_lock,"ax",%progbits
  18              		.align	1
  19              		.p2align 4,,15
  20              		.syntax unified
  21              		.thumb
  22              		.thumb_func
  23              		.fpu fpv4-sp-d16
  24              		.type	port_lock, %function
  25              	port_lock:
  26              	.LFB116:
  27              		.file 1 "..//ChibiOS//os/rt/ports/ARMCMx/chcore_v7m.h"
  28              		.loc 1 444 0
  29              		.cfi_startproc
  30              		@ args = 0, pretend = 0, frame = 8
  31              		@ frame_needed = 0, uses_anonymous_args = 0
  32 0000 00B5     		push	{lr}
  33              		.cfi_def_cfa_offset 4
  34              		.cfi_offset 14, -4
  35 0002 83B0     		sub	sp, sp, #12
  36              		.cfi_def_cfa_offset 16
  37              		.loc 1 444 0
  38 0004 094B     		ldr	r3, .L3
  39 0006 1B68     		ldr	r3, [r3]
  40 0008 0193     		str	r3, [sp, #4]
  41 000a 2023     		movs	r3, #32
  42 000c 0093     		str	r3, [sp]
  43              	.LBB6:
  44              	.LBB7:
  45              		.file 2 "..//ChibiOS//os/ext/CMSIS/include/core_cmFunc.h"
  46              		.loc 2 546 0
  47 000e 009B     		ldr	r3, [sp]
  48              		.syntax unified
  49              	@ 546 "..//ChibiOS//os/ext/CMSIS/include/core_cmFunc.h" 1
  50 0010 83F31188 		MSR basepri, r3
  51              	@ 0 "" 2
  52              		.thumb
  53              		.syntax unified
  54              	.LBE7:
  55              	.LBE6:
  56              		.loc 1 451 0
  57 0014 00BF     		nop
ARM GAS  C:\Users\Moi\AppData\Local\Temp\cclSFAQI.s 			page 2


  58 0016 054B     		ldr	r3, .L3
  59 0018 019A     		ldr	r2, [sp, #4]
  60 001a 1B68     		ldr	r3, [r3]
  61 001c 9A42     		cmp	r2, r3
  62 001e 01D0     		beq	.L2
  63 0020 FFF7FEFF 		bl	__stack_chk_fail
  64              	.L2:
  65 0024 03B0     		add	sp, sp, #12
  66              		.cfi_def_cfa_offset 4
  67              		@ sp needed
  68 0026 5DF804FB 		ldr	pc, [sp], #4
  69              	.L4:
  70 002a 00BF     		.align	2
  71              	.L3:
  72 002c 00000000 		.word	__stack_chk_guard
  73              		.cfi_endproc
  74              	.LFE116:
  75              		.size	port_lock, .-port_lock
  76              		.section	.text.port_unlock,"ax",%progbits
  77              		.align	1
  78              		.p2align 4,,15
  79              		.syntax unified
  80              		.thumb
  81              		.thumb_func
  82              		.fpu fpv4-sp-d16
  83              		.type	port_unlock, %function
  84              	port_unlock:
  85              	.LFB117:
  86              		.loc 1 458 0
  87              		.cfi_startproc
  88              		@ args = 0, pretend = 0, frame = 8
  89              		@ frame_needed = 0, uses_anonymous_args = 0
  90 0000 00B5     		push	{lr}
  91              		.cfi_def_cfa_offset 4
  92              		.cfi_offset 14, -4
  93 0002 83B0     		sub	sp, sp, #12
  94              		.cfi_def_cfa_offset 16
  95              		.loc 1 458 0
  96 0004 094B     		ldr	r3, .L7
  97 0006 1B68     		ldr	r3, [r3]
  98 0008 0193     		str	r3, [sp, #4]
  99 000a 0023     		movs	r3, #0
 100 000c 0093     		str	r3, [sp]
 101              	.LBB8:
 102              	.LBB9:
 103              		.loc 2 546 0
 104 000e 009B     		ldr	r3, [sp]
 105              		.syntax unified
 106              	@ 546 "..//ChibiOS//os/ext/CMSIS/include/core_cmFunc.h" 1
 107 0010 83F31188 		MSR basepri, r3
 108              	@ 0 "" 2
 109              		.thumb
 110              		.syntax unified
 111              	.LBE9:
 112              	.LBE8:
 113              		.loc 1 465 0
 114 0014 00BF     		nop
ARM GAS  C:\Users\Moi\AppData\Local\Temp\cclSFAQI.s 			page 3


 115 0016 054B     		ldr	r3, .L7
 116 0018 019A     		ldr	r2, [sp, #4]
 117 001a 1B68     		ldr	r3, [r3]
 118 001c 9A42     		cmp	r2, r3
 119 001e 01D0     		beq	.L6
 120 0020 FFF7FEFF 		bl	__stack_chk_fail
 121              	.L6:
 122 0024 03B0     		add	sp, sp, #12
 123              		.cfi_def_cfa_offset 4
 124              		@ sp needed
 125 0026 5DF804FB 		ldr	pc, [sp], #4
 126              	.L8:
 127 002a 00BF     		.align	2
 128              	.L7:
 129 002c 00000000 		.word	__stack_chk_guard
 130              		.cfi_endproc
 131              	.LFE117:
 132              		.size	port_unlock, .-port_unlock
 133              		.section	.text.chSysLock,"ax",%progbits
 134              		.align	1
 135              		.p2align 4,,15
 136              		.syntax unified
 137              		.thumb
 138              		.thumb_func
 139              		.fpu fpv4-sp-d16
 140              		.type	chSysLock, %function
 141              	chSysLock:
 142              	.LFB145:
 143              		.file 3 "..//ChibiOS//os/rt/include/chsys.h"
 144              		.loc 3 346 0
 145              		.cfi_startproc
 146              		@ args = 0, pretend = 0, frame = 8
 147              		@ frame_needed = 0, uses_anonymous_args = 0
 148 0000 00B5     		push	{lr}
 149              		.cfi_def_cfa_offset 4
 150              		.cfi_offset 14, -4
 151 0002 83B0     		sub	sp, sp, #12
 152              		.cfi_def_cfa_offset 16
 153              		.loc 3 346 0
 154 0004 094B     		ldr	r3, .L11
 155 0006 1B68     		ldr	r3, [r3]
 156 0008 0193     		str	r3, [sp, #4]
 157              		.loc 3 348 0
 158 000a FFF7FEFF 		bl	port_lock
 159              		.loc 3 349 0
 160 000e FFF7FEFF 		bl	_stats_start_measure_crit_thd
 161              		.loc 3 350 0
 162 0012 FFF7FEFF 		bl	_dbg_check_lock
 163              		.loc 3 351 0
 164 0016 00BF     		nop
 165 0018 044B     		ldr	r3, .L11
 166 001a 019A     		ldr	r2, [sp, #4]
 167 001c 1B68     		ldr	r3, [r3]
 168 001e 9A42     		cmp	r2, r3
 169 0020 01D0     		beq	.L10
 170 0022 FFF7FEFF 		bl	__stack_chk_fail
 171              	.L10:
ARM GAS  C:\Users\Moi\AppData\Local\Temp\cclSFAQI.s 			page 4


 172 0026 03B0     		add	sp, sp, #12
 173              		.cfi_def_cfa_offset 4
 174              		@ sp needed
 175 0028 5DF804FB 		ldr	pc, [sp], #4
 176              	.L12:
 177              		.align	2
 178              	.L11:
 179 002c 00000000 		.word	__stack_chk_guard
 180              		.cfi_endproc
 181              	.LFE145:
 182              		.size	chSysLock, .-chSysLock
 183              		.section	.text.chSysUnlock,"ax",%progbits
 184              		.align	1
 185              		.p2align 4,,15
 186              		.syntax unified
 187              		.thumb
 188              		.thumb_func
 189              		.fpu fpv4-sp-d16
 190              		.type	chSysUnlock, %function
 191              	chSysUnlock:
 192              	.LFB146:
 193              		.loc 3 358 0
 194              		.cfi_startproc
 195              		@ args = 0, pretend = 0, frame = 8
 196              		@ frame_needed = 0, uses_anonymous_args = 0
 197 0000 00B5     		push	{lr}
 198              		.cfi_def_cfa_offset 4
 199              		.cfi_offset 14, -4
 200 0002 83B0     		sub	sp, sp, #12
 201              		.cfi_def_cfa_offset 16
 202              		.loc 3 358 0
 203 0004 114B     		ldr	r3, .L16
 204 0006 1B68     		ldr	r3, [r3]
 205 0008 0193     		str	r3, [sp, #4]
 206              		.loc 3 360 0
 207 000a FFF7FEFF 		bl	_dbg_check_unlock
 208              		.loc 3 361 0
 209 000e FFF7FEFF 		bl	_stats_stop_measure_crit_thd
 210              		.loc 3 367 0
 211 0012 0F4B     		ldr	r3, .L16+4
 212 0014 1B68     		ldr	r3, [r3]
 213 0016 0E4A     		ldr	r2, .L16+4
 214 0018 9342     		cmp	r3, r2
 215 001a 0AD0     		beq	.L14
 216              		.loc 3 367 0 is_stmt 0 discriminator 2
 217 001c 0C4B     		ldr	r3, .L16+4
 218 001e 9B69     		ldr	r3, [r3, #24]
 219 0020 9A68     		ldr	r2, [r3, #8]
 220 0022 0B4B     		ldr	r3, .L16+4
 221 0024 1B68     		ldr	r3, [r3]
 222 0026 9B68     		ldr	r3, [r3, #8]
 223 0028 9A42     		cmp	r2, r3
 224 002a 02D2     		bcs	.L14
 225              		.loc 3 367 0 discriminator 3
 226 002c 0948     		ldr	r0, .L16+8
 227 002e FFF7FEFF 		bl	chSysHalt
 228              	.L14:
ARM GAS  C:\Users\Moi\AppData\Local\Temp\cclSFAQI.s 			page 5


 229              		.loc 3 371 0 is_stmt 1
 230 0032 FFF7FEFF 		bl	port_unlock
 231              		.loc 3 372 0
 232 0036 00BF     		nop
 233 0038 044B     		ldr	r3, .L16
 234 003a 019A     		ldr	r2, [sp, #4]
 235 003c 1B68     		ldr	r3, [r3]
 236 003e 9A42     		cmp	r2, r3
 237 0040 01D0     		beq	.L15
 238 0042 FFF7FEFF 		bl	__stack_chk_fail
 239              	.L15:
 240 0046 03B0     		add	sp, sp, #12
 241              		.cfi_def_cfa_offset 4
 242              		@ sp needed
 243 0048 5DF804FB 		ldr	pc, [sp], #4
 244              	.L17:
 245              		.align	2
 246              	.L16:
 247 004c 00000000 		.word	__stack_chk_guard
 248 0050 00000000 		.word	ch
 249 0054 00000000 		.word	__func__.7153
 250              		.cfi_endproc
 251              	.LFE146:
 252              		.size	chSysUnlock, .-chSysUnlock
 253              		.section	.text.chVTGetSystemTimeX,"ax",%progbits
 254              		.align	1
 255              		.p2align 4,,15
 256              		.syntax unified
 257              		.thumb
 258              		.thumb_func
 259              		.fpu fpv4-sp-d16
 260              		.type	chVTGetSystemTimeX, %function
 261              	chVTGetSystemTimeX:
 262              	.LFB153:
 263              		.file 4 "..//ChibiOS//os/rt/include/chvt.h"
 264              		.loc 4 228 0
 265              		.cfi_startproc
 266              		@ args = 0, pretend = 0, frame = 8
 267              		@ frame_needed = 0, uses_anonymous_args = 0
 268 0000 00B5     		push	{lr}
 269              		.cfi_def_cfa_offset 4
 270              		.cfi_offset 14, -4
 271 0002 83B0     		sub	sp, sp, #12
 272              		.cfi_def_cfa_offset 16
 273              		.loc 4 228 0
 274 0004 074B     		ldr	r3, .L21
 275 0006 1B68     		ldr	r3, [r3]
 276 0008 0193     		str	r3, [sp, #4]
 277              		.loc 4 231 0
 278 000a 074B     		ldr	r3, .L21+4
 279 000c 9B6A     		ldr	r3, [r3, #40]
 280              		.loc 4 235 0
 281 000e 1846     		mov	r0, r3
 282 0010 044B     		ldr	r3, .L21
 283 0012 019A     		ldr	r2, [sp, #4]
 284 0014 1B68     		ldr	r3, [r3]
 285 0016 9A42     		cmp	r2, r3
ARM GAS  C:\Users\Moi\AppData\Local\Temp\cclSFAQI.s 			page 6


 286 0018 01D0     		beq	.L20
 287 001a FFF7FEFF 		bl	__stack_chk_fail
 288              	.L20:
 289 001e 03B0     		add	sp, sp, #12
 290              		.cfi_def_cfa_offset 4
 291              		@ sp needed
 292 0020 5DF804FB 		ldr	pc, [sp], #4
 293              	.L22:
 294              		.align	2
 295              	.L21:
 296 0024 00000000 		.word	__stack_chk_guard
 297 0028 00000000 		.word	ch
 298              		.cfi_endproc
 299              	.LFE153:
 300              		.size	chVTGetSystemTimeX, .-chVTGetSystemTimeX
 301              		.section	.text.chVTGetSystemTime,"ax",%progbits
 302              		.align	1
 303              		.p2align 4,,15
 304              		.syntax unified
 305              		.thumb
 306              		.thumb_func
 307              		.fpu fpv4-sp-d16
 308              		.type	chVTGetSystemTime, %function
 309              	chVTGetSystemTime:
 310              	.LFB154:
 311              		.loc 4 247 0
 312              		.cfi_startproc
 313              		@ args = 0, pretend = 0, frame = 8
 314              		@ frame_needed = 0, uses_anonymous_args = 0
 315 0000 00B5     		push	{lr}
 316              		.cfi_def_cfa_offset 4
 317              		.cfi_offset 14, -4
 318 0002 83B0     		sub	sp, sp, #12
 319              		.cfi_def_cfa_offset 16
 320              		.loc 4 247 0
 321 0004 0A4B     		ldr	r3, .L26
 322 0006 1B68     		ldr	r3, [r3]
 323 0008 0193     		str	r3, [sp, #4]
 324              		.loc 4 250 0
 325 000a FFF7FEFF 		bl	chSysLock
 326              		.loc 4 251 0
 327 000e FFF7FEFF 		bl	chVTGetSystemTimeX
 328 0012 0090     		str	r0, [sp]
 329              		.loc 4 252 0
 330 0014 FFF7FEFF 		bl	chSysUnlock
 331              		.loc 4 254 0
 332 0018 009B     		ldr	r3, [sp]
 333              		.loc 4 255 0
 334 001a 1846     		mov	r0, r3
 335 001c 044B     		ldr	r3, .L26
 336 001e 019A     		ldr	r2, [sp, #4]
 337 0020 1B68     		ldr	r3, [r3]
 338 0022 9A42     		cmp	r2, r3
 339 0024 01D0     		beq	.L25
 340 0026 FFF7FEFF 		bl	__stack_chk_fail
 341              	.L25:
 342 002a 03B0     		add	sp, sp, #12
ARM GAS  C:\Users\Moi\AppData\Local\Temp\cclSFAQI.s 			page 7


 343              		.cfi_def_cfa_offset 4
 344              		@ sp needed
 345 002c 5DF804FB 		ldr	pc, [sp], #4
 346              	.L27:
 347              		.align	2
 348              	.L26:
 349 0030 00000000 		.word	__stack_chk_guard
 350              		.cfi_endproc
 351              	.LFE154:
 352              		.size	chVTGetSystemTime, .-chVTGetSystemTime
 353              		.section	.text.chThdGetSelfX,"ax",%progbits
 354              		.align	1
 355              		.p2align 4,,15
 356              		.syntax unified
 357              		.thumb
 358              		.thumb_func
 359              		.fpu fpv4-sp-d16
 360              		.type	chThdGetSelfX, %function
 361              	chThdGetSelfX:
 362              	.LFB166:
 363              		.file 5 "..//ChibiOS//os/rt/include/chthreads.h"
 364              		.loc 5 174 0
 365              		.cfi_startproc
 366              		@ args = 0, pretend = 0, frame = 8
 367              		@ frame_needed = 0, uses_anonymous_args = 0
 368 0000 00B5     		push	{lr}
 369              		.cfi_def_cfa_offset 4
 370              		.cfi_offset 14, -4
 371 0002 83B0     		sub	sp, sp, #12
 372              		.cfi_def_cfa_offset 16
 373              		.loc 5 174 0
 374 0004 074B     		ldr	r3, .L31
 375 0006 1B68     		ldr	r3, [r3]
 376 0008 0193     		str	r3, [sp, #4]
 377              		.loc 5 176 0
 378 000a 074B     		ldr	r3, .L31+4
 379 000c 9B69     		ldr	r3, [r3, #24]
 380              		.loc 5 177 0
 381 000e 1846     		mov	r0, r3
 382 0010 044B     		ldr	r3, .L31
 383 0012 019A     		ldr	r2, [sp, #4]
 384 0014 1B68     		ldr	r3, [r3]
 385 0016 9A42     		cmp	r2, r3
 386 0018 01D0     		beq	.L30
 387 001a FFF7FEFF 		bl	__stack_chk_fail
 388              	.L30:
 389 001e 03B0     		add	sp, sp, #12
 390              		.cfi_def_cfa_offset 4
 391              		@ sp needed
 392 0020 5DF804FB 		ldr	pc, [sp], #4
 393              	.L32:
 394              		.align	2
 395              	.L31:
 396 0024 00000000 		.word	__stack_chk_guard
 397 0028 00000000 		.word	ch
 398              		.cfi_endproc
 399              	.LFE166:
ARM GAS  C:\Users\Moi\AppData\Local\Temp\cclSFAQI.s 			page 8


 400              		.size	chThdGetSelfX, .-chThdGetSelfX
 401              		.section	.text.chThdShouldTerminateX,"ax",%progbits
 402              		.align	1
 403              		.p2align 4,,15
 404              		.syntax unified
 405              		.thumb
 406              		.thumb_func
 407              		.fpu fpv4-sp-d16
 408              		.type	chThdShouldTerminateX, %function
 409              	chThdShouldTerminateX:
 410              	.LFB170:
 411              		.loc 5 231 0
 412              		.cfi_startproc
 413              		@ args = 0, pretend = 0, frame = 8
 414              		@ frame_needed = 0, uses_anonymous_args = 0
 415 0000 00B5     		push	{lr}
 416              		.cfi_def_cfa_offset 4
 417              		.cfi_offset 14, -4
 418 0002 83B0     		sub	sp, sp, #12
 419              		.cfi_def_cfa_offset 16
 420              		.loc 5 231 0
 421 0004 0C4B     		ldr	r3, .L36
 422 0006 1B68     		ldr	r3, [r3]
 423 0008 0193     		str	r3, [sp, #4]
 424              		.loc 5 233 0
 425 000a FFF7FEFF 		bl	chThdGetSelfX
 426 000e 0346     		mov	r3, r0
 427 0010 93F82130 		ldrb	r3, [r3, #33]	@ zero_extendqisi2
 428 0014 03F00403 		and	r3, r3, #4
 429 0018 002B     		cmp	r3, #0
 430 001a 14BF     		ite	ne
 431 001c 0123     		movne	r3, #1
 432 001e 0023     		moveq	r3, #0
 433 0020 DBB2     		uxtb	r3, r3
 434              		.loc 5 234 0
 435 0022 1846     		mov	r0, r3
 436 0024 044B     		ldr	r3, .L36
 437 0026 019A     		ldr	r2, [sp, #4]
 438 0028 1B68     		ldr	r3, [r3]
 439 002a 9A42     		cmp	r2, r3
 440 002c 01D0     		beq	.L35
 441 002e FFF7FEFF 		bl	__stack_chk_fail
 442              	.L35:
 443 0032 03B0     		add	sp, sp, #12
 444              		.cfi_def_cfa_offset 4
 445              		@ sp needed
 446 0034 5DF804FB 		ldr	pc, [sp], #4
 447              	.L37:
 448              		.align	2
 449              	.L36:
 450 0038 00000000 		.word	__stack_chk_guard
 451              		.cfi_endproc
 452              	.LFE170:
 453              		.size	chThdShouldTerminateX, .-chThdShouldTerminateX
 454              		.section	.text.chRegSetThreadName,"ax",%progbits
 455              		.align	1
 456              		.p2align 4,,15
ARM GAS  C:\Users\Moi\AppData\Local\Temp\cclSFAQI.s 			page 9


 457              		.syntax unified
 458              		.thumb
 459              		.thumb_func
 460              		.fpu fpv4-sp-d16
 461              		.type	chRegSetThreadName, %function
 462              	chRegSetThreadName:
 463              	.LFB176:
 464              		.file 6 "..//ChibiOS//os/rt/include/chregistry.h"
 465              		.loc 6 132 0
 466              		.cfi_startproc
 467              		@ args = 0, pretend = 0, frame = 16
 468              		@ frame_needed = 0, uses_anonymous_args = 0
 469 0000 00B5     		push	{lr}
 470              		.cfi_def_cfa_offset 4
 471              		.cfi_offset 14, -4
 472 0002 85B0     		sub	sp, sp, #20
 473              		.cfi_def_cfa_offset 24
 474 0004 0190     		str	r0, [sp, #4]
 475              		.loc 6 132 0
 476 0006 094B     		ldr	r3, .L40
 477 0008 1B68     		ldr	r3, [r3]
 478 000a 0393     		str	r3, [sp, #12]
 479              		.loc 6 135 0
 480 000c 084B     		ldr	r3, .L40+4
 481 000e 9B69     		ldr	r3, [r3, #24]
 482 0010 019A     		ldr	r2, [sp, #4]
 483 0012 9A61     		str	r2, [r3, #24]
 484              		.loc 6 139 0
 485 0014 00BF     		nop
 486 0016 054B     		ldr	r3, .L40
 487 0018 039A     		ldr	r2, [sp, #12]
 488 001a 1B68     		ldr	r3, [r3]
 489 001c 9A42     		cmp	r2, r3
 490 001e 01D0     		beq	.L39
 491 0020 FFF7FEFF 		bl	__stack_chk_fail
 492              	.L39:
 493 0024 05B0     		add	sp, sp, #20
 494              		.cfi_def_cfa_offset 4
 495              		@ sp needed
 496 0026 5DF804FB 		ldr	pc, [sp], #4
 497              	.L41:
 498 002a 00BF     		.align	2
 499              	.L40:
 500 002c 00000000 		.word	__stack_chk_guard
 501 0030 00000000 		.word	ch
 502              		.cfi_endproc
 503              	.LFE176:
 504              		.size	chRegSetThreadName, .-chRegSetThreadName
 505              		.section	.bss.blinkLed_wa,"aw",%nobits
 506              		.align	3
 507              		.type	blinkLed_wa, %object
 508              		.size	blinkLed_wa, 504
 509              	blinkLed_wa:
 510 0000 00000000 		.space	504
 510      00000000 
 510      00000000 
 510      00000000 
ARM GAS  C:\Users\Moi\AppData\Local\Temp\cclSFAQI.s 			page 10


 510      00000000 
 511              		.section	.rodata
 512              		.align	2
 513              	.LC0:
 514 0000 00       		.ascii	"\000"
 515              		.section	.text.blinkLed,"ax",%progbits
 516              		.align	1
 517              		.p2align 4,,15
 518              		.syntax unified
 519              		.thumb
 520              		.thumb_func
 521              		.fpu fpv4-sp-d16
 522              		.type	blinkLed, %function
 523              	blinkLed:
 524              	.LFB256:
 525              		.file 7 "calibration.c"
 526              		.loc 7 14 0
 527              		.cfi_startproc
 528              		@ args = 0, pretend = 0, frame = 16
 529              		@ frame_needed = 0, uses_anonymous_args = 0
 530 0000 00B5     		push	{lr}
 531              		.cfi_def_cfa_offset 4
 532              		.cfi_offset 14, -4
 533 0002 85B0     		sub	sp, sp, #20
 534              		.cfi_def_cfa_offset 24
 535 0004 0190     		str	r0, [sp, #4]
 536              		.loc 7 14 0
 537 0006 134B     		ldr	r3, .L46
 538 0008 1B68     		ldr	r3, [r3]
 539 000a 0393     		str	r3, [sp, #12]
 540              		.loc 7 16 0
 541 000c 1248     		ldr	r0, .L46+4
 542 000e FFF7FEFF 		bl	chRegSetThreadName
 543              		.loc 7 19 0
 544 0012 07E0     		b	.L43
 545              	.L44:
 546              		.loc 7 20 0
 547 0014 0221     		movs	r1, #2
 548 0016 0220     		movs	r0, #2
 549 0018 FFF7FEFF 		bl	set_led
 550              		.loc 7 21 0
 551 001c 4FF4FA70 		mov	r0, #500
 552 0020 FFF7FEFF 		bl	chThdSleep
 553              	.L43:
 554              		.loc 7 19 0
 555 0024 FFF7FEFF 		bl	chThdShouldTerminateX
 556 0028 0346     		mov	r3, r0
 557 002a 83F00103 		eor	r3, r3, #1
 558 002e DBB2     		uxtb	r3, r3
 559 0030 002B     		cmp	r3, #0
 560 0032 EFD1     		bne	.L44
 561              		.loc 7 24 0
 562 0034 094B     		ldr	r3, .L46+8
 563 0036 1846     		mov	r0, r3
 564 0038 FFF7FEFF 		bl	chThdExit
 565              		.loc 7 25 0
 566 003c 00BF     		nop
ARM GAS  C:\Users\Moi\AppData\Local\Temp\cclSFAQI.s 			page 11


 567 003e 054B     		ldr	r3, .L46
 568 0040 039A     		ldr	r2, [sp, #12]
 569 0042 1B68     		ldr	r3, [r3]
 570 0044 9A42     		cmp	r2, r3
 571 0046 01D0     		beq	.L45
 572 0048 FFF7FEFF 		bl	__stack_chk_fail
 573              	.L45:
 574 004c 05B0     		add	sp, sp, #20
 575              		.cfi_def_cfa_offset 4
 576              		@ sp needed
 577 004e 5DF804FB 		ldr	pc, [sp], #4
 578              	.L47:
 579 0052 00BF     		.align	2
 580              	.L46:
 581 0054 00000000 		.word	__stack_chk_guard
 582 0058 00000000 		.word	__FUNCTION__.11752
 583 005c 00000000 		.word	.LC0
 584              		.cfi_endproc
 585              	.LFE256:
 586              		.size	blinkLed, .-blinkLed
 587              		.global	__aeabi_i2d
 588              		.global	__aeabi_dcmplt
 589              		.section	.text.calibrate_imu,"ax",%progbits
 590              		.align	1
 591              		.p2align 4,,15
 592              		.global	calibrate_imu
 593              		.syntax unified
 594              		.thumb
 595              		.thumb_func
 596              		.fpu fpv4-sp-d16
 597              		.type	calibrate_imu, %function
 598              	calibrate_imu:
 599              	.LFB257:
 600              		.loc 7 28 0
 601              		.cfi_startproc
 602              		@ args = 0, pretend = 0, frame = 56
 603              		@ frame_needed = 0, uses_anonymous_args = 0
 604 0000 30B5     		push	{r4, r5, lr}
 605              		.cfi_def_cfa_offset 12
 606              		.cfi_offset 4, -12
 607              		.cfi_offset 5, -8
 608              		.cfi_offset 14, -4
 609 0002 91B0     		sub	sp, sp, #68
 610              		.cfi_def_cfa_offset 80
 611              		.loc 7 28 0
 612 0004 944B     		ldr	r3, .L59
 613 0006 1B68     		ldr	r3, [r3]
 614 0008 0F93     		str	r3, [sp, #60]
 615              		.loc 7 30 0
 616 000a 0023     		movs	r3, #0
 617 000c 8DF80B30 		strb	r3, [sp, #11]
 618              		.loc 7 31 0
 619 0010 06AB     		add	r3, sp, #24
 620 0012 2422     		movs	r2, #36
 621 0014 0021     		movs	r1, #0
 622 0016 1846     		mov	r0, r3
 623 0018 FFF7FEFF 		bl	memset
ARM GAS  C:\Users\Moi\AppData\Local\Temp\cclSFAQI.s 			page 12


 624              		.loc 7 32 0
 625 001c 0023     		movs	r3, #0
 626 001e ADF80E30 		strh	r3, [sp, #14]	@ movhi
 627              		.loc 7 33 0
 628 0022 0123     		movs	r3, #1
 629 0024 8DF80C30 		strb	r3, [sp, #12]
 630              		.loc 7 38 0
 631 0028 0023     		movs	r3, #0
 632 002a 0093     		str	r3, [sp]
 633 002c 8B4B     		ldr	r3, .L59+4
 634 002e 4022     		movs	r2, #64
 635 0030 4FF4FC71 		mov	r1, #504
 636 0034 8A48     		ldr	r0, .L59+8
 637 0036 FFF7FEFF 		bl	chThdCreateStatic
 638 003a 0490     		str	r0, [sp, #16]
 639              		.loc 7 42 0
 640 003c B1E0     		b	.L49
 641              	.L54:
 642              		.loc 7 44 0
 643 003e 9DF80B20 		ldrb	r2, [sp, #11]	@ zero_extendqisi2
 644 0042 884B     		ldr	r3, .L59+12
 645 0044 A3FB0213 		umull	r1, r3, r3, r2
 646 0048 9908     		lsrs	r1, r3, #2
 647 004a 0B46     		mov	r3, r1
 648 004c 5B00     		lsls	r3, r3, #1
 649 004e 0B44     		add	r3, r3, r1
 650 0050 5B00     		lsls	r3, r3, #1
 651 0052 D31A     		subs	r3, r2, r3
 652 0054 DBB2     		uxtb	r3, r3
 653 0056 1946     		mov	r1, r3
 654 0058 06AA     		add	r2, sp, #24
 655 005a 0B46     		mov	r3, r1
 656 005c 5B00     		lsls	r3, r3, #1
 657 005e 0B44     		add	r3, r3, r1
 658 0060 5B00     		lsls	r3, r3, #1
 659 0062 1344     		add	r3, r3, r2
 660 0064 1846     		mov	r0, r3
 661 0066 FFF7FEFF 		bl	get_acc_all
 662              		.loc 7 45 0
 663 006a FFF7FEFF 		bl	chVTGetSystemTime
 664 006e 0590     		str	r0, [sp, #20]
 665              		.loc 7 47 0
 666 0070 9DF80B30 		ldrb	r3, [sp, #11]
 667 0074 03F00103 		and	r3, r3, #1
 668 0078 DBB2     		uxtb	r3, r3
 669 007a 002B     		cmp	r3, #0
 670 007c 00F08680 		beq	.L50
 671              		.loc 7 49 0
 672 0080 0023     		movs	r3, #0
 673 0082 ADF80E30 		strh	r3, [sp, #14]	@ movhi
 674              	.LBB10:
 675              		.loc 7 52 0
 676 0086 0023     		movs	r3, #0
 677 0088 8DF80D30 		strb	r3, [sp, #13]
 678 008c 5FE0     		b	.L51
 679              	.L52:
 680              		.loc 7 53 0 discriminator 3
ARM GAS  C:\Users\Moi\AppData\Local\Temp\cclSFAQI.s 			page 13


 681 008e 9DF80D20 		ldrb	r2, [sp, #13]	@ zero_extendqisi2
 682 0092 1346     		mov	r3, r2
 683 0094 5B00     		lsls	r3, r3, #1
 684 0096 1344     		add	r3, r3, r2
 685 0098 5B00     		lsls	r3, r3, #1
 686 009a 10AA     		add	r2, sp, #64
 687 009c 1344     		add	r3, r3, r2
 688 009e 283B     		subs	r3, r3, #40
 689 00a0 B3F90030 		ldrsh	r3, [r3]
 690 00a4 99B2     		uxth	r1, r3
 691 00a6 9DF80D30 		ldrb	r3, [sp, #13]	@ zero_extendqisi2
 692 00aa 5A1C     		adds	r2, r3, #1
 693 00ac 1346     		mov	r3, r2
 694 00ae 5B00     		lsls	r3, r3, #1
 695 00b0 1344     		add	r3, r3, r2
 696 00b2 5B00     		lsls	r3, r3, #1
 697 00b4 10AA     		add	r2, sp, #64
 698 00b6 1344     		add	r3, r3, r2
 699 00b8 283B     		subs	r3, r3, #40
 700 00ba B3F90030 		ldrsh	r3, [r3]
 701 00be 9BB2     		uxth	r3, r3
 702 00c0 CB1A     		subs	r3, r1, r3
 703 00c2 99B2     		uxth	r1, r3
 704 00c4 9DF80D20 		ldrb	r2, [sp, #13]	@ zero_extendqisi2
 705 00c8 1346     		mov	r3, r2
 706 00ca 5B00     		lsls	r3, r3, #1
 707 00cc 1344     		add	r3, r3, r2
 708 00ce 5B00     		lsls	r3, r3, #1
 709 00d0 10AA     		add	r2, sp, #64
 710 00d2 1344     		add	r3, r3, r2
 711 00d4 263B     		subs	r3, r3, #38
 712 00d6 B3F90030 		ldrsh	r3, [r3]
 713 00da 9BB2     		uxth	r3, r3
 714 00dc 0B44     		add	r3, r3, r1
 715 00de 99B2     		uxth	r1, r3
 716 00e0 9DF80D30 		ldrb	r3, [sp, #13]	@ zero_extendqisi2
 717 00e4 5A1C     		adds	r2, r3, #1
 718 00e6 1346     		mov	r3, r2
 719 00e8 5B00     		lsls	r3, r3, #1
 720 00ea 1344     		add	r3, r3, r2
 721 00ec 5B00     		lsls	r3, r3, #1
 722 00ee 10AA     		add	r2, sp, #64
 723 00f0 1344     		add	r3, r3, r2
 724 00f2 263B     		subs	r3, r3, #38
 725 00f4 B3F90030 		ldrsh	r3, [r3]
 726 00f8 9BB2     		uxth	r3, r3
 727 00fa CB1A     		subs	r3, r1, r3
 728 00fc 99B2     		uxth	r1, r3
 729 00fe 9DF80D20 		ldrb	r2, [sp, #13]	@ zero_extendqisi2
 730 0102 1346     		mov	r3, r2
 731 0104 5B00     		lsls	r3, r3, #1
 732 0106 1344     		add	r3, r3, r2
 733 0108 5B00     		lsls	r3, r3, #1
 734 010a 10AA     		add	r2, sp, #64
 735 010c 1344     		add	r3, r3, r2
 736 010e 243B     		subs	r3, r3, #36
 737 0110 B3F90030 		ldrsh	r3, [r3]
ARM GAS  C:\Users\Moi\AppData\Local\Temp\cclSFAQI.s 			page 14


 738 0114 9BB2     		uxth	r3, r3
 739 0116 0B44     		add	r3, r3, r1
 740 0118 99B2     		uxth	r1, r3
 741 011a 9DF80D30 		ldrb	r3, [sp, #13]	@ zero_extendqisi2
 742 011e 5A1C     		adds	r2, r3, #1
 743 0120 1346     		mov	r3, r2
 744 0122 5B00     		lsls	r3, r3, #1
 745 0124 1344     		add	r3, r3, r2
 746 0126 5B00     		lsls	r3, r3, #1
 747 0128 10AA     		add	r2, sp, #64
 748 012a 1344     		add	r3, r3, r2
 749 012c 243B     		subs	r3, r3, #36
 750 012e B3F90030 		ldrsh	r3, [r3]
 751 0132 9BB2     		uxth	r3, r3
 752 0134 CB1A     		subs	r3, r1, r3
 753 0136 9AB2     		uxth	r2, r3
 754 0138 BDF80E30 		ldrh	r3, [sp, #14]
 755 013c 1344     		add	r3, r3, r2
 756 013e 9BB2     		uxth	r3, r3
 757 0140 ADF80E30 		strh	r3, [sp, #14]	@ movhi
 758              		.loc 7 52 0 discriminator 3
 759 0144 9DF80D30 		ldrb	r3, [sp, #13]
 760 0148 0233     		adds	r3, r3, #2
 761 014a 8DF80D30 		strb	r3, [sp, #13]
 762              	.L51:
 763              		.loc 7 52 0 is_stmt 0 discriminator 1
 764 014e 9DF80D30 		ldrb	r3, [sp, #13]	@ zero_extendqisi2
 765 0152 052B     		cmp	r3, #5
 766 0154 9BD9     		bls	.L52
 767              	.LBE10:
 768              		.loc 7 56 0 is_stmt 1
 769 0156 BDF90E30 		ldrsh	r3, [sp, #14]
 770 015a 1846     		mov	r0, r3
 771 015c FFF7FEFF 		bl	__aeabi_i2d
 772              	.LVL0:
 773 0160 0246     		mov	r2, r0
 774 0162 0B46     		mov	r3, r1
 775 0164 1446     		mov	r4, r2
 776 0166 23F00045 		bic	r5, r3, #-2147483648
 777 016a 4FF00002 		mov	r2, #0
 778 016e 3E4B     		ldr	r3, .L59+16
 779 0170 2046     		mov	r0, r4
 780 0172 2946     		mov	r1, r5
 781 0174 FFF7FEFF 		bl	__aeabi_dcmplt
 782              	.LVL1:
 783 0178 0346     		mov	r3, r0
 784 017a 002B     		cmp	r3, #0
 785 017c 06D0     		beq	.L50
 786              		.loc 7 56 0 is_stmt 0 discriminator 1
 787 017e 9DF80B30 		ldrb	r3, [sp, #11]	@ zero_extendqisi2
 788 0182 0C2B     		cmp	r3, #12
 789 0184 02D9     		bls	.L50
 790              		.loc 7 57 0 is_stmt 1
 791 0186 0023     		movs	r3, #0
 792 0188 8DF80C30 		strb	r3, [sp, #12]
 793              	.L50:
 794              		.loc 7 61 0
ARM GAS  C:\Users\Moi\AppData\Local\Temp\cclSFAQI.s 			page 15


 795 018c 9DF80B30 		ldrb	r3, [sp, #11]	@ zero_extendqisi2
 796 0190 0133     		adds	r3, r3, #1
 797 0192 8DF80B30 		strb	r3, [sp, #11]
 798              		.loc 7 64 0
 799 0196 059B     		ldr	r3, [sp, #20]
 800 0198 FA33     		adds	r3, r3, #250
 801 019a 1946     		mov	r1, r3
 802 019c 0598     		ldr	r0, [sp, #20]
 803 019e FFF7FEFF 		bl	chThdSleepUntilWindowed
 804              	.L49:
 805              		.loc 7 42 0
 806 01a2 9DF80C30 		ldrb	r3, [sp, #12]	@ zero_extendqisi2
 807 01a6 002B     		cmp	r3, #0
 808 01a8 7FF449AF 		bne	.L54
 809              		.loc 7 69 0
 810 01ac 0498     		ldr	r0, [sp, #16]
 811 01ae FFF7FEFF 		bl	chThdTerminate
 812              		.loc 7 72 0
 813 01b2 0121     		movs	r1, #1
 814 01b4 0220     		movs	r0, #2
 815 01b6 FFF7FEFF 		bl	set_led
 816              		.loc 7 73 0
 817 01ba FFF7FEFF 		bl	calibrate_acc
 818              		.loc 7 74 0
 819 01be FFF7FEFF 		bl	calibrate_gyro
 820              		.loc 7 75 0
 821 01c2 0121     		movs	r1, #1
 822 01c4 0220     		movs	r0, #2
 823 01c6 FFF7FEFF 		bl	set_led
 824              		.loc 7 76 0
 825 01ca 4FF4FA70 		mov	r0, #500
 826 01ce FFF7FEFF 		bl	chThdSleep
 827              		.loc 7 79 0
 828 01d2 0023     		movs	r3, #0
 829 01d4 0022     		movs	r2, #0
 830 01d6 0A21     		movs	r1, #10
 831 01d8 0220     		movs	r0, #2
 832 01da FFF7FEFF 		bl	set_rgb_led
 833              		.loc 7 80 0
 834 01de 0023     		movs	r3, #0
 835 01e0 0022     		movs	r2, #0
 836 01e2 0A21     		movs	r1, #10
 837 01e4 0120     		movs	r0, #1
 838 01e6 FFF7FEFF 		bl	set_rgb_led
 839              		.loc 7 81 0
 840 01ea 40F2EE20 		movw	r0, #750
 841 01ee FFF7FEFF 		bl	chThdSleep
 842              		.loc 7 83 0
 843 01f2 0121     		movs	r1, #1
 844 01f4 0320     		movs	r0, #3
 845 01f6 FFF7FEFF 		bl	set_led
 846              		.loc 7 84 0
 847 01fa 0121     		movs	r1, #1
 848 01fc 0120     		movs	r0, #1
 849 01fe FFF7FEFF 		bl	set_led
 850              		.loc 7 85 0
 851 0202 4FF4FA70 		mov	r0, #500
ARM GAS  C:\Users\Moi\AppData\Local\Temp\cclSFAQI.s 			page 16


 852 0206 FFF7FEFF 		bl	chThdSleep
 853              		.loc 7 89 0
 854 020a 0121     		movs	r1, #1
 855 020c 0020     		movs	r0, #0
 856 020e FFF7FEFF 		bl	set_led
 857              		.loc 7 90 0
 858 0212 4FF4FA70 		mov	r0, #500
 859 0216 FFF7FEFF 		bl	chThdSleep
 860              		.loc 7 91 0
 861 021a FFF7FEFF 		bl	clear_leds
 862              		.loc 7 94 0
 863 021e 06E0     		b	.L55
 864              	.L56:
 865              		.loc 7 95 0
 866 0220 0220     		movs	r0, #2
 867 0222 FFF7FEFF 		bl	set_body_led
 868              		.loc 7 96 0
 869 0226 4FF4FA70 		mov	r0, #500
 870 022a FFF7FEFF 		bl	chThdSleep
 871              	.L55:
 872              		.loc 7 94 0
 873 022e FFF7FEFF 		bl	get_selector
 874 0232 0346     		mov	r3, r0
 875 0234 012B     		cmp	r3, #1
 876 0236 F3D0     		beq	.L56
 877              		.loc 7 99 0
 878 0238 0020     		movs	r0, #0
 879 023a FFF7FEFF 		bl	set_body_led
 880              		.loc 7 100 0
 881 023e FFF7FEFF 		bl	main
 882              		.loc 7 101 0
 883 0242 00BF     		nop
 884 0244 044B     		ldr	r3, .L59
 885 0246 0F9A     		ldr	r2, [sp, #60]
 886 0248 1B68     		ldr	r3, [r3]
 887 024a 9A42     		cmp	r2, r3
 888 024c 01D0     		beq	.L57
 889 024e FFF7FEFF 		bl	__stack_chk_fail
 890              	.L57:
 891 0252 11B0     		add	sp, sp, #68
 892              		.cfi_def_cfa_offset 12
 893              		@ sp needed
 894 0254 30BD     		pop	{r4, r5, pc}
 895              	.L60:
 896 0256 00BF     		.align	2
 897              	.L59:
 898 0258 00000000 		.word	__stack_chk_guard
 899 025c 00000000 		.word	blinkLed
 900 0260 00000000 		.word	blinkLed_wa
 901 0264 ABAAAAAA 		.word	-1431655765
 902 0268 00005940 		.word	1079574528
 903              		.cfi_endproc
 904              	.LFE257:
 905              		.size	calibrate_imu, .-calibrate_imu
 906              		.section	.rodata.__FUNCTION__.11752,"a",%progbits
 907              		.align	2
 908              		.type	__FUNCTION__.11752, %object
ARM GAS  C:\Users\Moi\AppData\Local\Temp\cclSFAQI.s 			page 17


 909              		.size	__FUNCTION__.11752, 9
 910              	__FUNCTION__.11752:
 911 0000 626C696E 		.ascii	"blinkLed\000"
 911      6B4C6564 
 911      00
 912              		.section	.rodata.__func__.7153,"a",%progbits
 913              		.align	2
 914              		.type	__func__.7153, %object
 915              		.size	__func__.7153, 12
 916              	__func__.7153:
 917 0000 63685379 		.ascii	"chSysUnlock\000"
 917      73556E6C 
 917      6F636B00 
 918              		.text
 919              	.Letext0:
 920              		.file 8 "c:\\users\\moi\\documents\\_microinfo\\epuck-eclipse\\tools\\gcc-arm-none-eabi-7-2017-q4-
 921              		.file 9 "c:\\users\\moi\\documents\\_microinfo\\epuck-eclipse\\tools\\gcc-arm-none-eabi-7-2017-q4-
 922              		.file 10 "c:\\users\\moi\\documents\\_microinfo\\epuck-eclipse\\tools\\gcc-arm-none-eabi-7-2017-q4
 923              		.file 11 "..//ChibiOS//os/rt/ports/ARMCMx/compilers/GCC/chtypes.h"
 924              		.file 12 "..//ChibiOS//os/rt/include/chsystypes.h"
 925              		.file 13 "..//ChibiOS//os/rt/include/chschd.h"
 926              		.file 14 "..//ChibiOS//os/ext/CMSIS/include/core_cm4.h"
 927              		.file 15 "..//ChibiOS//os/ext/CMSIS/ST/system_stm32f4xx.h"
 928              		.file 16 "..//ChibiOS//os/ext/CMSIS/ST/stm32f407xx.h"
 929              		.file 17 "..//ChibiOS//os/rt/ports/ARMCMx/chcore.h"
 930              		.file 18 "..//ChibiOS//os/rt/include/chdebug.h"
 931              		.file 19 "..//ChibiOS//os/rt/include/chtm.h"
 932              		.file 20 "..//ChibiOS//os/rt/include/chstats.h"
 933              		.file 21 "..//ChibiOS//os/rt/include/chsem.h"
 934              		.file 22 "..//ChibiOS//os/rt/include/chmtx.h"
 935              		.file 23 "..//ChibiOS//os/rt/include/chevents.h"
 936              		.file 24 "..//ChibiOS//os/rt/include/chqueues.h"
 937              		.file 25 "..//ChibiOS//os/hal/ports/STM32/STM32F4xx/stm32_dma.h"
 938              		.file 26 "..//ChibiOS//os/hal/include/hal_ioblock.h"
 939              		.file 27 "..//ChibiOS//os/hal/ports/STM32/LLD/GPIOv2/pal_lld.h"
 940              		.file 28 "..//ChibiOS//os/hal/include/adc.h"
 941              		.file 29 "..//ChibiOS//os/hal/ports/STM32/STM32F4xx/adc_lld.h"
 942              		.file 30 "..//ChibiOS//os/hal/include/can.h"
 943              		.file 31 "..//ChibiOS//os/hal/ports/STM32/LLD/can_lld.h"
 944              		.file 32 "..//ChibiOS//os/hal/include/dac.h"
 945              		.file 33 "..//ChibiOS//os/hal/ports/STM32/LLD/DACv1/dac_lld.h"
 946              		.file 34 "..//ChibiOS//os/hal/include/ext.h"
 947              		.file 35 "..//ChibiOS//os/hal/ports/STM32/LLD/ext_lld.h"
 948              		.file 36 "..//ChibiOS//os/hal/include/gpt.h"
 949              		.file 37 "..//ChibiOS//os/hal/ports/STM32/LLD/TIMv1/gpt_lld.h"
 950              		.file 38 "..//ChibiOS//os/hal/ports/STM32/LLD/TIMv1/stm32_tim.h"
 951              		.file 39 "..//ChibiOS//os/hal/include/i2c.h"
 952              		.file 40 "..//ChibiOS//os/hal/ports/STM32/LLD/I2Cv1/i2c_lld.h"
 953              		.file 41 "..//ChibiOS//os/hal/include/i2s.h"
 954              		.file 42 "..//ChibiOS//os/hal/ports/STM32/LLD/SPIv1/i2s_lld.h"
 955              		.file 43 "..//ChibiOS//os/hal/include/pwm.h"
 956              		.file 44 "..//ChibiOS//os/hal/ports/STM32/LLD/TIMv1/pwm_lld.h"
 957              		.file 45 "..//ChibiOS//os/hal/include/serial.h"
 958              		.file 46 "..//ChibiOS//os/hal/ports/STM32/LLD/USARTv1/serial_lld.h"
 959              		.file 47 "..//ChibiOS//os/hal/include/sdc.h"
 960              		.file 48 "..//ChibiOS//os/hal/ports/STM32/LLD/sdc_lld.h"
 961              		.file 49 "..//ChibiOS//os/hal/include/spi.h"
ARM GAS  C:\Users\Moi\AppData\Local\Temp\cclSFAQI.s 			page 18


 962              		.file 50 "..//ChibiOS//os/hal/ports/STM32/LLD/SPIv1/spi_lld.h"
 963              		.file 51 "..//ChibiOS//os/hal/include/usb.h"
 964              		.file 52 "..//ChibiOS//os/hal/ports/STM32/LLD/OTGv1/usb_lld.h"
 965              		.file 53 "..//ChibiOS//os/hal/ports/STM32/LLD/OTGv1/stm32_otg.h"
 966              		.file 54 "c:\\users\\moi\\documents\\_microinfo\\epuck-eclipse\\tools\\gcc-arm-none-eabi-7-2017-q4
 967              		.file 55 "c:\\users\\moi\\documents\\_microinfo\\epuck-eclipse\\tools\\gcc-arm-none-eabi-7-2017-q4
 968              		.file 56 "c:\\users\\moi\\documents\\_microinfo\\epuck-eclipse\\tools\\gcc-arm-none-eabi-7-2017-q4
 969              		.file 57 "c:\\users\\moi\\documents\\_microinfo\\epuck-eclipse\\tools\\gcc-arm-none-eabi-7-2017-q4
 970              		.file 58 "c:\\users\\moi\\documents\\_microinfo\\epuck-eclipse\\tools\\gcc-arm-none-eabi-7-2017-q4
 971              		.file 59 "..//src/msgbus/messagebus.h"
 972              		.file 60 "c:\\users\\moi\\documents\\_microinfo\\epuck-eclipse\\tools\\gcc-arm-none-eabi-7-2017-q4
 973              		.file 61 "..//src/parameter/parameter.h"
 974              		.file 62 "./main.h"
 975              		.file 63 "..//src/leds.h"