ARM GAS  C:\Users\Moi\AppData\Local\Temp\ccDRflzJ.s 			page 1


   1              		.cpu cortex-m4
   2              		.eabi_attribute 27, 1
   3              		.eabi_attribute 28, 1
   4              		.eabi_attribute 20, 1
   5              		.eabi_attribute 21, 1
   6              		.eabi_attribute 23, 3
   7              		.eabi_attribute 24, 1
   8              		.eabi_attribute 25, 1
   9              		.eabi_attribute 26, 1
  10              		.eabi_attribute 30, 2
  11              		.eabi_attribute 34, 1
  12              		.eabi_attribute 18, 4
  13              		.file	"can_lld.c"
  14              		.text
  15              	.Ltext0:
  16              		.cfi_sections	.debug_frame
  17              		.section	.text.can_lld_set_filters,"ax",%progbits
  18              		.align	1
  19              		.p2align 4,,15
  20              		.syntax unified
  21              		.thumb
  22              		.thumb_func
  23              		.fpu fpv4-sp-d16
  24              		.type	can_lld_set_filters, %function
  25              	can_lld_set_filters:
  26              	.LFB256:
  27              		.file 1 "..//ChibiOS//os/hal/ports/STM32/LLD/can_lld.c"
  28              		.loc 1 77 0
  29              		.cfi_startproc
  30              		@ args = 0, pretend = 0, frame = 8
  31              		@ frame_needed = 0, uses_anonymous_args = 0
  32              	.LVL0:
  33 0000 F0B5     		push	{r4, r5, r6, r7, lr}
  34              		.cfi_def_cfa_offset 20
  35              		.cfi_offset 4, -20
  36              		.cfi_offset 5, -16
  37              		.cfi_offset 6, -12
  38              		.cfi_offset 7, -8
  39              		.cfi_offset 14, -4
  40 0002 494D     		ldr	r5, .L24
  41              		.loc 1 80 0
  42 0004 494E     		ldr	r6, .L24+4
  43              		.loc 1 77 0
  44 0006 2B68     		ldr	r3, [r5]
  45              		.loc 1 83 0
  46 0008 494C     		ldr	r4, .L24+8
  47              		.loc 1 77 0
  48 000a 83B0     		sub	sp, sp, #12
  49              		.cfi_def_cfa_offset 32
  50              		.loc 1 77 0
  51 000c 0193     		str	r3, [sp, #4]
  52              		.loc 1 80 0
  53 000e 336C     		ldr	r3, [r6, #64]
  54 0010 43F00073 		orr	r3, r3, #33554432
  55 0014 3364     		str	r3, [r6, #64]
  56              		.loc 1 83 0
  57 0016 D4F80032 		ldr	r3, [r4, #512]
ARM GAS  C:\Users\Moi\AppData\Local\Temp\ccDRflzJ.s 			page 2


  58 001a 1B0C     		lsrs	r3, r3, #16
  59 001c 1B04     		lsls	r3, r3, #16
  60 001e 43F00103 		orr	r3, r3, #1
  61 0022 43EA0023 		orr	r3, r3, r0, lsl #8
  62 0026 C4F80032 		str	r3, [r4, #512]
  63              		.loc 1 84 0
  64 002a 0029     		cmp	r1, #0
  65 002c 5FD0     		beq	.L2
  66              	.LBB290:
  67              		.loc 1 88 0
  68 002e 0023     		movs	r3, #0
  69 0030 C4F81C32 		str	r3, [r4, #540]
  70              		.loc 1 92 0
  71 0034 1846     		mov	r0, r3
  72              	.LVL1:
  73              		.loc 1 89 0
  74 0036 C4F80432 		str	r3, [r4, #516]
  75              		.loc 1 90 0
  76 003a C4F80C32 		str	r3, [r4, #524]
  77              		.loc 1 91 0
  78 003e C4F81432 		str	r3, [r4, #532]
  79              	.LVL2:
  80              		.loc 1 93 0
  81 0042 1C46     		mov	r4, r3
  82              	.LVL3:
  83              	.L3:
  84 0044 C300     		lsls	r3, r0, #3
  85 0046 03F18043 		add	r3, r3, #1073741824
  86 004a 03F5C843 		add	r3, r3, #25600
  87              		.loc 1 92 0 discriminator 3
  88 004e 0130     		adds	r0, r0, #1
  89              	.LVL4:
  90 0050 1C28     		cmp	r0, #28
  91              		.loc 1 93 0 discriminator 3
  92 0052 C3F84042 		str	r4, [r3, #576]
  93              		.loc 1 94 0 discriminator 3
  94 0056 C3F84442 		str	r4, [r3, #580]
  95              		.loc 1 92 0 discriminator 3
  96 005a F3D1     		bne	.L3
  97              		.loc 1 101 0
  98 005c 3448     		ldr	r0, .L24+8
  99              	.LVL5:
 100              		.loc 1 98 0
 101 005e 0026     		movs	r6, #0
 102              		.loc 1 99 0
 103 0060 0127     		movs	r7, #1
 104              	.L7:
 105              	.LVL6:
 106              		.loc 1 100 0
 107 0062 1479     		ldrb	r4, [r2, #4]	@ zero_extendqisi2
 108              		.loc 1 99 0
 109 0064 1368     		ldr	r3, [r2]
 110              		.loc 1 100 0
 111 0066 14F0010F 		tst	r4, #1
 112              		.loc 1 99 0
 113 006a 07FA03FC 		lsl	ip, r7, r3
 114              	.LVL7:
ARM GAS  C:\Users\Moi\AppData\Local\Temp\ccDRflzJ.s 			page 3


 115              		.loc 1 100 0
 116 006e 05D0     		beq	.L4
 117              		.loc 1 101 0
 118 0070 D0F804E2 		ldr	lr, [r0, #516]
 119 0074 4EEA0C0E 		orr	lr, lr, ip
 120 0078 C0F804E2 		str	lr, [r0, #516]
 121              	.L4:
 122              		.loc 1 102 0
 123 007c 14F0020F 		tst	r4, #2
 124 0080 05D0     		beq	.L5
 125              		.loc 1 103 0
 126 0082 D0F80CE2 		ldr	lr, [r0, #524]
 127 0086 4EEA0C0E 		orr	lr, lr, ip
 128 008a C0F80CE2 		str	lr, [r0, #524]
 129              	.L5:
 130              		.loc 1 104 0
 131 008e 6407     		lsls	r4, r4, #29
 132 0090 05D5     		bpl	.L6
 133              		.loc 1 105 0
 134 0092 D0F81442 		ldr	r4, [r0, #532]
 135 0096 44EA0C04 		orr	r4, r4, ip
 136 009a C0F81442 		str	r4, [r0, #532]
 137              	.L6:
 138 009e DB00     		lsls	r3, r3, #3
 139 00a0 03F18043 		add	r3, r3, #1073741824
 140 00a4 03F5C843 		add	r3, r3, #25600
 141              		.loc 1 106 0 discriminator 2
 142 00a8 9468     		ldr	r4, [r2, #8]
 143 00aa C3F84042 		str	r4, [r3, #576]
 144              		.loc 1 107 0 discriminator 2
 145 00ae D468     		ldr	r4, [r2, #12]
 146 00b0 C3F84442 		str	r4, [r3, #580]
 147              		.loc 1 108 0 discriminator 2
 148 00b4 D0F81C32 		ldr	r3, [r0, #540]
 149              		.loc 1 98 0 discriminator 2
 150 00b8 0136     		adds	r6, r6, #1
 151              	.LVL8:
 152              		.loc 1 108 0 discriminator 2
 153 00ba 43EA0C03 		orr	r3, r3, ip
 154              		.loc 1 98 0 discriminator 2
 155 00be B142     		cmp	r1, r6
 156              		.loc 1 109 0 discriminator 2
 157 00c0 02F11002 		add	r2, r2, #16
 158              	.LVL9:
 159              		.loc 1 108 0 discriminator 2
 160 00c4 C0F81C32 		str	r3, [r0, #540]
 161              		.loc 1 98 0 discriminator 2
 162 00c8 CBD1     		bne	.L7
 163              	.LVL10:
 164              	.L8:
 165              	.LBE290:
 166              		.loc 1 131 0
 167 00ca 1949     		ldr	r1, .L24+8
 168              	.LVL11:
 169              		.loc 1 134 0
 170 00cc 174A     		ldr	r2, .L24+4
 171              		.loc 1 131 0
ARM GAS  C:\Users\Moi\AppData\Local\Temp\ccDRflzJ.s 			page 4


 172 00ce D1F80032 		ldr	r3, [r1, #512]
 173 00d2 23F00103 		bic	r3, r3, #1
 174 00d6 C1F80032 		str	r3, [r1, #512]
 175              		.loc 1 134 0
 176 00da 136C     		ldr	r3, [r2, #64]
 177 00dc 23F00073 		bic	r3, r3, #33554432
 178 00e0 1364     		str	r3, [r2, #64]
 179              		.loc 1 135 0
 180 00e2 019A     		ldr	r2, [sp, #4]
 181 00e4 2B68     		ldr	r3, [r5]
 182 00e6 9A42     		cmp	r2, r3
 183 00e8 1BD1     		bne	.L23
 184 00ea 03B0     		add	sp, sp, #12
 185              		.cfi_remember_state
 186              		.cfi_def_cfa_offset 20
 187              		@ sp needed
 188 00ec F0BD     		pop	{r4, r5, r6, r7, pc}
 189              	.LVL12:
 190              	.L2:
 191              		.cfi_restore_state
 192 00ee C200     		lsls	r2, r0, #3
 193              	.LVL13:
 194 00f0 02F18042 		add	r2, r2, #1073741824
 195              		.loc 1 124 0
 196 00f4 0123     		movs	r3, #1
 197 00f6 02F5C842 		add	r2, r2, #25600
 198 00fa 8340     		lsls	r3, r3, r0
 199 00fc 43F00103 		orr	r3, r3, #1
 200              		.loc 1 115 0
 201 0100 C4F84012 		str	r1, [r4, #576]
 202              		.loc 1 116 0
 203 0104 C4F84412 		str	r1, [r4, #580]
 204              		.loc 1 118 0
 205 0108 C2F84012 		str	r1, [r2, #576]
 206              		.loc 1 119 0
 207 010c C2F84412 		str	r1, [r2, #580]
 208              		.loc 1 121 0
 209 0110 C4F80412 		str	r1, [r4, #516]
 210              		.loc 1 122 0
 211 0114 C4F81412 		str	r1, [r4, #532]
 212              		.loc 1 124 0
 213 0118 C4F80C32 		str	r3, [r4, #524]
 214              		.loc 1 125 0
 215 011c C4F81C32 		str	r3, [r4, #540]
 216 0120 D3E7     		b	.L8
 217              	.LVL14:
 218              	.L23:
 219              		.loc 1 135 0
 220 0122 FFF7FEFF 		bl	__stack_chk_fail
 221              	.LVL15:
 222              	.L25:
 223 0126 00BF     		.align	2
 224              	.L24:
 225 0128 00000000 		.word	__stack_chk_guard
 226 012c 00380240 		.word	1073887232
 227 0130 00640040 		.word	1073767424
 228              		.cfi_endproc
ARM GAS  C:\Users\Moi\AppData\Local\Temp\ccDRflzJ.s 			page 5


 229              	.LFE256:
 230              		.size	can_lld_set_filters, .-can_lld_set_filters
 231              		.section	.text.Vector8C,"ax",%progbits
 232              		.align	1
 233              		.p2align 4,,15
 234              		.global	Vector8C
 235              		.syntax unified
 236              		.thumb
 237              		.thumb_func
 238              		.fpu fpv4-sp-d16
 239              		.type	Vector8C, %function
 240              	Vector8C:
 241              	.LFB261:
 242              		.loc 1 292 0
 243              		.cfi_startproc
 244              		@ args = 0, pretend = 0, frame = 8
 245              		@ frame_needed = 0, uses_anonymous_args = 0
 246 0000 30B5     		push	{r4, r5, lr}
 247              		.cfi_def_cfa_offset 12
 248              		.cfi_offset 4, -12
 249              		.cfi_offset 5, -8
 250              		.cfi_offset 14, -4
 251 0002 184D     		ldr	r5, .L31
 252              	.LBB311:
 253              	.LBB312:
 254              		.loc 1 147 0
 255 0004 184C     		ldr	r4, .L31+4
 256              	.LBE312:
 257              	.LBE311:
 258              		.loc 1 292 0
 259 0006 2B68     		ldr	r3, [r5]
 260 0008 83B0     		sub	sp, sp, #12
 261              		.cfi_def_cfa_offset 24
 262              		.loc 1 292 0
 263 000a 0193     		str	r3, [sp, #4]
 264              		.loc 1 294 0
 265 000c FFF7FEFF 		bl	_stats_increase_irq
 266              	.LVL16:
 267 0010 FFF7FEFF 		bl	_dbg_check_enter_isr
 268              	.LVL17:
 269              	.LBB332:
 270              	.LBB331:
 271              		.loc 1 147 0
 272 0014 E36A     		ldr	r3, [r4, #44]
 273 0016 154A     		ldr	r2, .L31+8
 274 0018 9A60     		str	r2, [r3, #8]
 275              	.LVL18:
 276              	.LBB313:
 277              	.LBB314:
 278              	.LBB315:
 279              	.LBB316:
 280              	.LBB317:
 281              	.LBB318:
 282              	.LBB319:
 283              		.file 2 "..//ChibiOS//os/ext/CMSIS/include/core_cmFunc.h"
 284              		.loc 2 546 0
 285 001a 2023     		movs	r3, #32
ARM GAS  C:\Users\Moi\AppData\Local\Temp\ccDRflzJ.s 			page 6


 286              		.syntax unified
 287              	@ 546 "..//ChibiOS//os/ext/CMSIS/include/core_cmFunc.h" 1
 288 001c 83F31188 		MSR basepri, r3
 289              	@ 0 "" 2
 290              	.LVL19:
 291              		.thumb
 292              		.syntax unified
 293              	.LBE319:
 294              	.LBE318:
 295              	.LBE317:
 296              	.LBE316:
 297              		.file 3 "..//ChibiOS//os/rt/include/chsys.h"
 298              		.loc 3 389 0
 299 0020 FFF7FEFF 		bl	_stats_start_measure_crit_isr
 300              	.LVL20:
 301              		.loc 3 390 0
 302 0024 FFF7FEFF 		bl	_dbg_check_lock_from_isr
 303              	.LVL21:
 304              	.LBE315:
 305              	.LBE314:
 306              	.LBE313:
 307              	.LBB320:
 308              	.LBB321:
 309              		.file 4 "..//ChibiOS//os/hal/osal/rt/osal.h"
 310              		.loc 4 764 0
 311 0028 04F10800 		add	r0, r4, #8
 312 002c 0021     		movs	r1, #0
 313 002e FFF7FEFF 		bl	chThdDequeueAllI
 314              	.LVL22:
 315              	.LBE321:
 316              	.LBE320:
 317              	.LBB322:
 318              	.LBB323:
 319              		.loc 4 798 0
 320 0032 04F11C00 		add	r0, r4, #28
 321 0036 0121     		movs	r1, #1
 322 0038 FFF7FEFF 		bl	chEvtBroadcastFlagsI
 323              	.LVL23:
 324              	.LBE323:
 325              	.LBE322:
 326              	.LBB324:
 327              	.LBB325:
 328              	.LBB326:
 329              		.loc 3 408 0
 330 003c FFF7FEFF 		bl	_dbg_check_unlock_from_isr
 331              	.LVL24:
 332              		.loc 3 409 0
 333 0040 FFF7FEFF 		bl	_stats_stop_measure_crit_isr
 334              	.LVL25:
 335              	.LBB327:
 336              	.LBB328:
 337              	.LBB329:
 338              	.LBB330:
 339              		.loc 2 546 0
 340 0044 0023     		movs	r3, #0
 341              		.syntax unified
 342              	@ 546 "..//ChibiOS//os/ext/CMSIS/include/core_cmFunc.h" 1
ARM GAS  C:\Users\Moi\AppData\Local\Temp\ccDRflzJ.s 			page 7


 343 0046 83F31188 		MSR basepri, r3
 344              	@ 0 "" 2
 345              	.LVL26:
 346              		.thumb
 347              		.syntax unified
 348              	.LBE330:
 349              	.LBE329:
 350              	.LBE328:
 351              	.LBE327:
 352              	.LBE326:
 353              	.LBE325:
 354              	.LBE324:
 355              	.LBE331:
 356              	.LBE332:
 357              		.loc 1 298 0
 358 004a FFF7FEFF 		bl	_dbg_check_leave_isr
 359              	.LVL27:
 360 004e 019A     		ldr	r2, [sp, #4]
 361 0050 2B68     		ldr	r3, [r5]
 362 0052 9A42     		cmp	r2, r3
 363 0054 04D1     		bne	.L30
 364              		.loc 1 299 0
 365 0056 03B0     		add	sp, sp, #12
 366              		.cfi_remember_state
 367              		.cfi_def_cfa_offset 12
 368              		@ sp needed
 369 0058 BDE83040 		pop	{r4, r5, lr}
 370              		.cfi_restore 14
 371              		.cfi_restore 5
 372              		.cfi_restore 4
 373              		.cfi_def_cfa_offset 0
 374              		.loc 1 298 0
 375 005c FFF7FEBF 		b	_port_irq_epilogue
 376              	.LVL28:
 377              	.L30:
 378              		.cfi_restore_state
 379 0060 FFF7FEFF 		bl	__stack_chk_fail
 380              	.LVL29:
 381              	.L32:
 382              		.align	2
 383              	.L31:
 384 0064 00000000 		.word	__stack_chk_guard
 385 0068 00000000 		.word	.LANCHOR0
 386 006c 01010100 		.word	65793
 387              		.cfi_endproc
 388              	.LFE261:
 389              		.size	Vector8C, .-Vector8C
 390              		.section	.text.Vector90,"ax",%progbits
 391              		.align	1
 392              		.p2align 4,,15
 393              		.global	Vector90
 394              		.syntax unified
 395              		.thumb
 396              		.thumb_func
 397              		.fpu fpv4-sp-d16
 398              		.type	Vector90, %function
 399              	Vector90:
ARM GAS  C:\Users\Moi\AppData\Local\Temp\ccDRflzJ.s 			page 8


 400              	.LFB262:
 401              		.loc 1 306 0
 402              		.cfi_startproc
 403              		@ args = 0, pretend = 0, frame = 8
 404              		@ frame_needed = 0, uses_anonymous_args = 0
 405 0000 70B5     		push	{r4, r5, r6, lr}
 406              		.cfi_def_cfa_offset 16
 407              		.cfi_offset 4, -16
 408              		.cfi_offset 5, -12
 409              		.cfi_offset 6, -8
 410              		.cfi_offset 14, -4
 411 0002 274D     		ldr	r5, .L47
 412              	.LBB369:
 413              	.LBB370:
 414              		.loc 1 164 0
 415 0004 274C     		ldr	r4, .L47+4
 416              	.LBE370:
 417              	.LBE369:
 418              		.loc 1 306 0
 419 0006 2B68     		ldr	r3, [r5]
 420 0008 82B0     		sub	sp, sp, #8
 421              		.cfi_def_cfa_offset 24
 422              		.loc 1 306 0
 423 000a 0193     		str	r3, [sp, #4]
 424              		.loc 1 308 0
 425 000c FFF7FEFF 		bl	_stats_increase_irq
 426              	.LVL30:
 427 0010 FFF7FEFF 		bl	_dbg_check_enter_isr
 428              	.LVL31:
 429              	.LBB407:
 430              	.LBB405:
 431              		.loc 1 164 0
 432 0014 E36A     		ldr	r3, [r4, #44]
 433 0016 DE68     		ldr	r6, [r3, #12]
 434              	.LVL32:
 435              		.loc 1 165 0
 436 0018 B207     		lsls	r2, r6, #30
 437 001a 21D1     		bne	.L45
 438              	.L34:
 439              		.loc 1 173 0
 440 001c F306     		lsls	r3, r6, #27
 441 001e 14D5     		bpl	.L35
 442              		.loc 1 175 0
 443 0020 E36A     		ldr	r3, [r4, #44]
 444 0022 1024     		movs	r4, #16
 445 0024 DC60     		str	r4, [r3, #12]
 446              	.LVL33:
 447              	.LBB371:
 448              	.LBB372:
 449              	.LBB373:
 450              	.LBB374:
 451              	.LBB375:
 452              	.LBB376:
 453              	.LBB377:
 454              		.loc 2 546 0
 455 0026 2023     		movs	r3, #32
 456              		.syntax unified
ARM GAS  C:\Users\Moi\AppData\Local\Temp\ccDRflzJ.s 			page 9


 457              	@ 546 "..//ChibiOS//os/ext/CMSIS/include/core_cmFunc.h" 1
 458 0028 83F31188 		MSR basepri, r3
 459              	@ 0 "" 2
 460              	.LVL34:
 461              		.thumb
 462              		.syntax unified
 463              	.LBE377:
 464              	.LBE376:
 465              	.LBE375:
 466              	.LBE374:
 467              		.loc 3 389 0
 468 002c FFF7FEFF 		bl	_stats_start_measure_crit_isr
 469              	.LVL35:
 470              		.loc 3 390 0
 471 0030 FFF7FEFF 		bl	_dbg_check_lock_from_isr
 472              	.LVL36:
 473              	.LBE373:
 474              	.LBE372:
 475              	.LBE371:
 476              	.LBB378:
 477              	.LBB379:
 478              		.loc 4 798 0
 479 0034 2146     		mov	r1, r4
 480 0036 1C48     		ldr	r0, .L47+8
 481 0038 FFF7FEFF 		bl	chEvtBroadcastFlagsI
 482              	.LVL37:
 483              	.LBE379:
 484              	.LBE378:
 485              	.LBB380:
 486              	.LBB381:
 487              	.LBB382:
 488              		.loc 3 408 0
 489 003c FFF7FEFF 		bl	_dbg_check_unlock_from_isr
 490              	.LVL38:
 491              		.loc 3 409 0
 492 0040 FFF7FEFF 		bl	_stats_stop_measure_crit_isr
 493              	.LVL39:
 494              	.LBB383:
 495              	.LBB384:
 496              	.LBB385:
 497              	.LBB386:
 498              		.loc 2 546 0
 499 0044 0023     		movs	r3, #0
 500              		.syntax unified
 501              	@ 546 "..//ChibiOS//os/ext/CMSIS/include/core_cmFunc.h" 1
 502 0046 83F31188 		MSR basepri, r3
 503              	@ 0 "" 2
 504              	.LVL40:
 505              		.thumb
 506              		.syntax unified
 507              	.L35:
 508              	.LBE386:
 509              	.LBE385:
 510              	.LBE384:
 511              	.LBE383:
 512              	.LBE382:
 513              	.LBE381:
ARM GAS  C:\Users\Moi\AppData\Local\Temp\ccDRflzJ.s 			page 10


 514              	.LBE380:
 515              	.LBE405:
 516              	.LBE407:
 517              		.loc 1 312 0
 518 004a FFF7FEFF 		bl	_dbg_check_leave_isr
 519              	.LVL41:
 520 004e 019A     		ldr	r2, [sp, #4]
 521 0050 2B68     		ldr	r3, [r5]
 522 0052 9A42     		cmp	r2, r3
 523 0054 21D1     		bne	.L46
 524              		.loc 1 313 0
 525 0056 02B0     		add	sp, sp, #8
 526              		.cfi_remember_state
 527              		.cfi_def_cfa_offset 16
 528              		@ sp needed
 529 0058 BDE87040 		pop	{r4, r5, r6, lr}
 530              		.cfi_restore 14
 531              		.cfi_restore 6
 532              		.cfi_restore 5
 533              		.cfi_restore 4
 534              		.cfi_def_cfa_offset 0
 535              		.loc 1 312 0
 536 005c FFF7FEBF 		b	_port_irq_epilogue
 537              	.LVL42:
 538              	.L45:
 539              		.cfi_restore_state
 540              	.LBB408:
 541              	.LBB406:
 542              		.loc 1 167 0
 543 0060 5A69     		ldr	r2, [r3, #20]
 544 0062 22F00202 		bic	r2, r2, #2
 545 0066 5A61     		str	r2, [r3, #20]
 546              	.LVL43:
 547              	.LBB387:
 548              	.LBB388:
 549              	.LBB389:
 550              	.LBB390:
 551              	.LBB391:
 552              	.LBB392:
 553              	.LBB393:
 554              		.loc 2 546 0
 555 0068 2023     		movs	r3, #32
 556              		.syntax unified
 557              	@ 546 "..//ChibiOS//os/ext/CMSIS/include/core_cmFunc.h" 1
 558 006a 83F31188 		MSR basepri, r3
 559              	@ 0 "" 2
 560              	.LVL44:
 561              		.thumb
 562              		.syntax unified
 563              	.LBE393:
 564              	.LBE392:
 565              	.LBE391:
 566              	.LBE390:
 567              		.loc 3 389 0
 568 006e FFF7FEFF 		bl	_stats_start_measure_crit_isr
 569              	.LVL45:
 570              		.loc 3 390 0
ARM GAS  C:\Users\Moi\AppData\Local\Temp\ccDRflzJ.s 			page 11


 571 0072 FFF7FEFF 		bl	_dbg_check_lock_from_isr
 572              	.LVL46:
 573              	.LBE389:
 574              	.LBE388:
 575              	.LBE387:
 576              	.LBB394:
 577              	.LBB395:
 578              		.loc 4 764 0
 579 0076 04F11000 		add	r0, r4, #16
 580 007a 0021     		movs	r1, #0
 581 007c FFF7FEFF 		bl	chThdDequeueAllI
 582              	.LVL47:
 583              	.LBE395:
 584              	.LBE394:
 585              	.LBB396:
 586              	.LBB397:
 587              		.loc 4 798 0
 588 0080 04F11800 		add	r0, r4, #24
 589 0084 0121     		movs	r1, #1
 590 0086 FFF7FEFF 		bl	chEvtBroadcastFlagsI
 591              	.LVL48:
 592              	.LBE397:
 593              	.LBE396:
 594              	.LBB398:
 595              	.LBB399:
 596              	.LBB400:
 597              		.loc 3 408 0
 598 008a FFF7FEFF 		bl	_dbg_check_unlock_from_isr
 599              	.LVL49:
 600              		.loc 3 409 0
 601 008e FFF7FEFF 		bl	_stats_stop_measure_crit_isr
 602              	.LVL50:
 603              	.LBB401:
 604              	.LBB402:
 605              	.LBB403:
 606              	.LBB404:
 607              		.loc 2 546 0
 608 0092 0023     		movs	r3, #0
 609              		.syntax unified
 610              	@ 546 "..//ChibiOS//os/ext/CMSIS/include/core_cmFunc.h" 1
 611 0094 83F31188 		MSR basepri, r3
 612              	@ 0 "" 2
 613              	.LVL51:
 614              		.thumb
 615              		.syntax unified
 616 0098 C0E7     		b	.L34
 617              	.LVL52:
 618              	.L46:
 619              	.LBE404:
 620              	.LBE403:
 621              	.LBE402:
 622              	.LBE401:
 623              	.LBE400:
 624              	.LBE399:
 625              	.LBE398:
 626              	.LBE406:
 627              	.LBE408:
ARM GAS  C:\Users\Moi\AppData\Local\Temp\ccDRflzJ.s 			page 12


 628              		.loc 1 312 0
 629 009a FFF7FEFF 		bl	__stack_chk_fail
 630              	.LVL53:
 631              	.L48:
 632 009e 00BF     		.align	2
 633              	.L47:
 634 00a0 00000000 		.word	__stack_chk_guard
 635 00a4 00000000 		.word	.LANCHOR0
 636 00a8 20000000 		.word	.LANCHOR0+32
 637              		.cfi_endproc
 638              	.LFE262:
 639              		.size	Vector90, .-Vector90
 640              		.section	.text.Vector94,"ax",%progbits
 641              		.align	1
 642              		.p2align 4,,15
 643              		.global	Vector94
 644              		.syntax unified
 645              		.thumb
 646              		.thumb_func
 647              		.fpu fpv4-sp-d16
 648              		.type	Vector94, %function
 649              	Vector94:
 650              	.LFB263:
 651              		.loc 1 320 0
 652              		.cfi_startproc
 653              		@ args = 0, pretend = 0, frame = 8
 654              		@ frame_needed = 0, uses_anonymous_args = 0
 655 0000 70B5     		push	{r4, r5, r6, lr}
 656              		.cfi_def_cfa_offset 16
 657              		.cfi_offset 4, -16
 658              		.cfi_offset 5, -12
 659              		.cfi_offset 6, -8
 660              		.cfi_offset 14, -4
 661 0002 274D     		ldr	r5, .L63
 662              	.LBB445:
 663              	.LBB446:
 664              		.loc 1 192 0
 665 0004 274C     		ldr	r4, .L63+4
 666              	.LBE446:
 667              	.LBE445:
 668              		.loc 1 320 0
 669 0006 2B68     		ldr	r3, [r5]
 670 0008 82B0     		sub	sp, sp, #8
 671              		.cfi_def_cfa_offset 24
 672              		.loc 1 320 0
 673 000a 0193     		str	r3, [sp, #4]
 674              		.loc 1 322 0
 675 000c FFF7FEFF 		bl	_stats_increase_irq
 676              	.LVL54:
 677 0010 FFF7FEFF 		bl	_dbg_check_enter_isr
 678              	.LVL55:
 679              	.LBB483:
 680              	.LBB481:
 681              		.loc 1 192 0
 682 0014 E36A     		ldr	r3, [r4, #44]
 683 0016 1E69     		ldr	r6, [r3, #16]
 684              	.LVL56:
ARM GAS  C:\Users\Moi\AppData\Local\Temp\ccDRflzJ.s 			page 13


 685              		.loc 1 193 0
 686 0018 B207     		lsls	r2, r6, #30
 687 001a 21D1     		bne	.L61
 688              	.L50:
 689              		.loc 1 201 0
 690 001c F306     		lsls	r3, r6, #27
 691 001e 14D5     		bpl	.L51
 692              		.loc 1 203 0
 693 0020 E36A     		ldr	r3, [r4, #44]
 694 0022 1024     		movs	r4, #16
 695 0024 1C61     		str	r4, [r3, #16]
 696              	.LVL57:
 697              	.LBB447:
 698              	.LBB448:
 699              	.LBB449:
 700              	.LBB450:
 701              	.LBB451:
 702              	.LBB452:
 703              	.LBB453:
 704              		.loc 2 546 0
 705 0026 2023     		movs	r3, #32
 706              		.syntax unified
 707              	@ 546 "..//ChibiOS//os/ext/CMSIS/include/core_cmFunc.h" 1
 708 0028 83F31188 		MSR basepri, r3
 709              	@ 0 "" 2
 710              	.LVL58:
 711              		.thumb
 712              		.syntax unified
 713              	.LBE453:
 714              	.LBE452:
 715              	.LBE451:
 716              	.LBE450:
 717              		.loc 3 389 0
 718 002c FFF7FEFF 		bl	_stats_start_measure_crit_isr
 719              	.LVL59:
 720              		.loc 3 390 0
 721 0030 FFF7FEFF 		bl	_dbg_check_lock_from_isr
 722              	.LVL60:
 723              	.LBE449:
 724              	.LBE448:
 725              	.LBE447:
 726              	.LBB454:
 727              	.LBB455:
 728              		.loc 4 798 0
 729 0034 2146     		mov	r1, r4
 730 0036 1C48     		ldr	r0, .L63+8
 731 0038 FFF7FEFF 		bl	chEvtBroadcastFlagsI
 732              	.LVL61:
 733              	.LBE455:
 734              	.LBE454:
 735              	.LBB456:
 736              	.LBB457:
 737              	.LBB458:
 738              		.loc 3 408 0
 739 003c FFF7FEFF 		bl	_dbg_check_unlock_from_isr
 740              	.LVL62:
 741              		.loc 3 409 0
ARM GAS  C:\Users\Moi\AppData\Local\Temp\ccDRflzJ.s 			page 14


 742 0040 FFF7FEFF 		bl	_stats_stop_measure_crit_isr
 743              	.LVL63:
 744              	.LBB459:
 745              	.LBB460:
 746              	.LBB461:
 747              	.LBB462:
 748              		.loc 2 546 0
 749 0044 0023     		movs	r3, #0
 750              		.syntax unified
 751              	@ 546 "..//ChibiOS//os/ext/CMSIS/include/core_cmFunc.h" 1
 752 0046 83F31188 		MSR basepri, r3
 753              	@ 0 "" 2
 754              	.LVL64:
 755              		.thumb
 756              		.syntax unified
 757              	.L51:
 758              	.LBE462:
 759              	.LBE461:
 760              	.LBE460:
 761              	.LBE459:
 762              	.LBE458:
 763              	.LBE457:
 764              	.LBE456:
 765              	.LBE481:
 766              	.LBE483:
 767              		.loc 1 326 0
 768 004a FFF7FEFF 		bl	_dbg_check_leave_isr
 769              	.LVL65:
 770 004e 019A     		ldr	r2, [sp, #4]
 771 0050 2B68     		ldr	r3, [r5]
 772 0052 9A42     		cmp	r2, r3
 773 0054 21D1     		bne	.L62
 774              		.loc 1 327 0
 775 0056 02B0     		add	sp, sp, #8
 776              		.cfi_remember_state
 777              		.cfi_def_cfa_offset 16
 778              		@ sp needed
 779 0058 BDE87040 		pop	{r4, r5, r6, lr}
 780              		.cfi_restore 14
 781              		.cfi_restore 6
 782              		.cfi_restore 5
 783              		.cfi_restore 4
 784              		.cfi_def_cfa_offset 0
 785              		.loc 1 326 0
 786 005c FFF7FEBF 		b	_port_irq_epilogue
 787              	.LVL66:
 788              	.L61:
 789              		.cfi_restore_state
 790              	.LBB484:
 791              	.LBB482:
 792              		.loc 1 195 0
 793 0060 5A69     		ldr	r2, [r3, #20]
 794 0062 22F01002 		bic	r2, r2, #16
 795 0066 5A61     		str	r2, [r3, #20]
 796              	.LVL67:
 797              	.LBB463:
 798              	.LBB464:
ARM GAS  C:\Users\Moi\AppData\Local\Temp\ccDRflzJ.s 			page 15


 799              	.LBB465:
 800              	.LBB466:
 801              	.LBB467:
 802              	.LBB468:
 803              	.LBB469:
 804              		.loc 2 546 0
 805 0068 2023     		movs	r3, #32
 806              		.syntax unified
 807              	@ 546 "..//ChibiOS//os/ext/CMSIS/include/core_cmFunc.h" 1
 808 006a 83F31188 		MSR basepri, r3
 809              	@ 0 "" 2
 810              	.LVL68:
 811              		.thumb
 812              		.syntax unified
 813              	.LBE469:
 814              	.LBE468:
 815              	.LBE467:
 816              	.LBE466:
 817              		.loc 3 389 0
 818 006e FFF7FEFF 		bl	_stats_start_measure_crit_isr
 819              	.LVL69:
 820              		.loc 3 390 0
 821 0072 FFF7FEFF 		bl	_dbg_check_lock_from_isr
 822              	.LVL70:
 823              	.LBE465:
 824              	.LBE464:
 825              	.LBE463:
 826              	.LBB470:
 827              	.LBB471:
 828              		.loc 4 764 0
 829 0076 04F11000 		add	r0, r4, #16
 830 007a 0021     		movs	r1, #0
 831 007c FFF7FEFF 		bl	chThdDequeueAllI
 832              	.LVL71:
 833              	.LBE471:
 834              	.LBE470:
 835              	.LBB472:
 836              	.LBB473:
 837              		.loc 4 798 0
 838 0080 04F11800 		add	r0, r4, #24
 839 0084 0221     		movs	r1, #2
 840 0086 FFF7FEFF 		bl	chEvtBroadcastFlagsI
 841              	.LVL72:
 842              	.LBE473:
 843              	.LBE472:
 844              	.LBB474:
 845              	.LBB475:
 846              	.LBB476:
 847              		.loc 3 408 0
 848 008a FFF7FEFF 		bl	_dbg_check_unlock_from_isr
 849              	.LVL73:
 850              		.loc 3 409 0
 851 008e FFF7FEFF 		bl	_stats_stop_measure_crit_isr
 852              	.LVL74:
 853              	.LBB477:
 854              	.LBB478:
 855              	.LBB479:
ARM GAS  C:\Users\Moi\AppData\Local\Temp\ccDRflzJ.s 			page 16


 856              	.LBB480:
 857              		.loc 2 546 0
 858 0092 0023     		movs	r3, #0
 859              		.syntax unified
 860              	@ 546 "..//ChibiOS//os/ext/CMSIS/include/core_cmFunc.h" 1
 861 0094 83F31188 		MSR basepri, r3
 862              	@ 0 "" 2
 863              	.LVL75:
 864              		.thumb
 865              		.syntax unified
 866 0098 C0E7     		b	.L50
 867              	.LVL76:
 868              	.L62:
 869              	.LBE480:
 870              	.LBE479:
 871              	.LBE478:
 872              	.LBE477:
 873              	.LBE476:
 874              	.LBE475:
 875              	.LBE474:
 876              	.LBE482:
 877              	.LBE484:
 878              		.loc 1 326 0
 879 009a FFF7FEFF 		bl	__stack_chk_fail
 880              	.LVL77:
 881              	.L64:
 882 009e 00BF     		.align	2
 883              	.L63:
 884 00a0 00000000 		.word	__stack_chk_guard
 885 00a4 00000000 		.word	.LANCHOR0
 886 00a8 20000000 		.word	.LANCHOR0+32
 887              		.cfi_endproc
 888              	.LFE263:
 889              		.size	Vector94, .-Vector94
 890              		.section	.text.Vector98,"ax",%progbits
 891              		.align	1
 892              		.p2align 4,,15
 893              		.global	Vector98
 894              		.syntax unified
 895              		.thumb
 896              		.thumb_func
 897              		.fpu fpv4-sp-d16
 898              		.type	Vector98, %function
 899              	Vector98:
 900              	.LFB264:
 901              		.loc 1 334 0
 902              		.cfi_startproc
 903              		@ args = 0, pretend = 0, frame = 8
 904              		@ frame_needed = 0, uses_anonymous_args = 0
 905 0000 70B5     		push	{r4, r5, r6, lr}
 906              		.cfi_def_cfa_offset 16
 907              		.cfi_offset 4, -16
 908              		.cfi_offset 5, -12
 909              		.cfi_offset 6, -8
 910              		.cfi_offset 14, -4
 911 0002 2C4D     		ldr	r5, .L83
 912              	.LBB520:
ARM GAS  C:\Users\Moi\AppData\Local\Temp\ccDRflzJ.s 			page 17


 913              	.LBB521:
 914              		.loc 1 220 0
 915 0004 2C4C     		ldr	r4, .L83+4
 916              	.LBE521:
 917              	.LBE520:
 918              		.loc 1 334 0
 919 0006 2B68     		ldr	r3, [r5]
 920 0008 82B0     		sub	sp, sp, #8
 921              		.cfi_def_cfa_offset 24
 922              		.loc 1 334 0
 923 000a 0193     		str	r3, [sp, #4]
 924              		.loc 1 336 0
 925 000c FFF7FEFF 		bl	_stats_increase_irq
 926              	.LVL78:
 927 0010 FFF7FEFF 		bl	_dbg_check_enter_isr
 928              	.LVL79:
 929              	.LBB564:
 930              	.LBB562:
 931              		.loc 1 220 0
 932 0014 E36A     		ldr	r3, [r4, #44]
 933 0016 5E68     		ldr	r6, [r3, #4]
 934              	.LVL80:
 935              		.loc 1 221 0
 936 0018 1C22     		movs	r2, #28
 937 001a 5A60     		str	r2, [r3, #4]
 938              		.loc 1 224 0
 939 001c 3207     		lsls	r2, r6, #28
 940 001e 2CD4     		bmi	.L81
 941              	.L66:
 942              		.loc 1 233 0
 943 0020 7307     		lsls	r3, r6, #29
 944 0022 1FD5     		bpl	.L67
 945              	.LBB522:
 946              		.loc 1 235 0
 947 0024 E36A     		ldr	r3, [r4, #44]
 948 0026 9C69     		ldr	r4, [r3, #24]
 949              	.LVL81:
 950              		.loc 1 237 0
 951 0028 9A69     		ldr	r2, [r3, #24]
 952              		.loc 1 238 0
 953 002a 04F00706 		and	r6, r4, #7
 954              	.LVL82:
 955              		.loc 1 237 0
 956 002e 22F07002 		bic	r2, r2, #112
 957              		.loc 1 239 0
 958 0032 14F0700F 		tst	r4, #112
 959              		.loc 1 237 0
 960 0036 9A61     		str	r2, [r3, #24]
 961              		.loc 1 240 0
 962 0038 18BF     		it	ne
 963 003a 46F00806 		orrne	r6, r6, #8
 964              	.LVL83:
 965              	.LBB523:
 966              	.LBB524:
 967              	.LBB525:
 968              	.LBB526:
 969              	.LBB527:
ARM GAS  C:\Users\Moi\AppData\Local\Temp\ccDRflzJ.s 			page 18


 970              	.LBB528:
 971              	.LBB529:
 972              		.loc 2 546 0
 973 003e 2023     		movs	r3, #32
 974              		.syntax unified
 975              	@ 546 "..//ChibiOS//os/ext/CMSIS/include/core_cmFunc.h" 1
 976 0040 83F31188 		MSR basepri, r3
 977              	@ 0 "" 2
 978              	.LVL84:
 979              		.thumb
 980              		.syntax unified
 981              	.LBE529:
 982              	.LBE528:
 983              	.LBE527:
 984              	.LBE526:
 985              		.loc 3 389 0
 986 0044 FFF7FEFF 		bl	_stats_start_measure_crit_isr
 987              	.LVL85:
 988              		.loc 3 390 0
 989 0048 FFF7FEFF 		bl	_dbg_check_lock_from_isr
 990              	.LVL86:
 991              	.LBE525:
 992              	.LBE524:
 993              	.LBE523:
 994              	.LBB530:
 995              	.LBB531:
 996              		.loc 4 798 0
 997 004c 46EA0441 		orr	r1, r6, r4, lsl #16
 998              	.LVL87:
 999 0050 1A48     		ldr	r0, .L83+8
 1000 0052 FFF7FEFF 		bl	chEvtBroadcastFlagsI
 1001              	.LVL88:
 1002              	.LBE531:
 1003              	.LBE530:
 1004              	.LBB532:
 1005              	.LBB533:
 1006              	.LBB534:
 1007              		.loc 3 408 0
 1008 0056 FFF7FEFF 		bl	_dbg_check_unlock_from_isr
 1009              	.LVL89:
 1010              		.loc 3 409 0
 1011 005a FFF7FEFF 		bl	_stats_stop_measure_crit_isr
 1012              	.LVL90:
 1013              	.LBB535:
 1014              	.LBB536:
 1015              	.LBB537:
 1016              	.LBB538:
 1017              		.loc 2 546 0
 1018 005e 0023     		movs	r3, #0
 1019              		.syntax unified
 1020              	@ 546 "..//ChibiOS//os/ext/CMSIS/include/core_cmFunc.h" 1
 1021 0060 83F31188 		MSR basepri, r3
 1022              	@ 0 "" 2
 1023              	.LVL91:
 1024              		.thumb
 1025              		.syntax unified
 1026              	.L67:
ARM GAS  C:\Users\Moi\AppData\Local\Temp\ccDRflzJ.s 			page 19


 1027              	.LBE538:
 1028              	.LBE537:
 1029              	.LBE536:
 1030              	.LBE535:
 1031              	.LBE534:
 1032              	.LBE533:
 1033              	.LBE532:
 1034              	.LBE522:
 1035              	.LBE562:
 1036              	.LBE564:
 1037              		.loc 1 340 0
 1038 0064 FFF7FEFF 		bl	_dbg_check_leave_isr
 1039              	.LVL92:
 1040 0068 019A     		ldr	r2, [sp, #4]
 1041 006a 2B68     		ldr	r3, [r5]
 1042 006c 9A42     		cmp	r2, r3
 1043 006e 1ED1     		bne	.L82
 1044              		.loc 1 341 0
 1045 0070 02B0     		add	sp, sp, #8
 1046              		.cfi_remember_state
 1047              		.cfi_def_cfa_offset 16
 1048              		@ sp needed
 1049 0072 BDE87040 		pop	{r4, r5, r6, lr}
 1050              		.cfi_restore 14
 1051              		.cfi_restore 6
 1052              		.cfi_restore 5
 1053              		.cfi_restore 4
 1054              		.cfi_def_cfa_offset 0
 1055              		.loc 1 340 0
 1056 0076 FFF7FEBF 		b	_port_irq_epilogue
 1057              	.LVL93:
 1058              	.L81:
 1059              		.cfi_restore_state
 1060              	.LBB565:
 1061              	.LBB563:
 1062              		.loc 1 226 0
 1063 007a 1A68     		ldr	r2, [r3]
 1064              		.loc 1 225 0
 1065 007c 0321     		movs	r1, #3
 1066              		.loc 1 226 0
 1067 007e 22F00202 		bic	r2, r2, #2
 1068              		.loc 1 225 0
 1069 0082 2170     		strb	r1, [r4]
 1070              	.LBB539:
 1071              	.LBB540:
 1072              	.LBB541:
 1073              	.LBB542:
 1074              	.LBB543:
 1075              	.LBB544:
 1076              	.LBB545:
 1077              		.loc 2 546 0
 1078 0084 2021     		movs	r1, #32
 1079              	.LBE545:
 1080              	.LBE544:
 1081              	.LBE543:
 1082              	.LBE542:
 1083              	.LBE541:
ARM GAS  C:\Users\Moi\AppData\Local\Temp\ccDRflzJ.s 			page 20


 1084              	.LBE540:
 1085              	.LBE539:
 1086              		.loc 1 226 0
 1087 0086 1A60     		str	r2, [r3]
 1088              	.LVL94:
 1089              	.LBB552:
 1090              	.LBB551:
 1091              	.LBB550:
 1092              	.LBB549:
 1093              	.LBB548:
 1094              	.LBB547:
 1095              	.LBB546:
 1096              		.loc 2 546 0
 1097              		.syntax unified
 1098              	@ 546 "..//ChibiOS//os/ext/CMSIS/include/core_cmFunc.h" 1
 1099 0088 81F31188 		MSR basepri, r1
 1100              	@ 0 "" 2
 1101              	.LVL95:
 1102              		.thumb
 1103              		.syntax unified
 1104              	.LBE546:
 1105              	.LBE547:
 1106              	.LBE548:
 1107              	.LBE549:
 1108              		.loc 3 389 0
 1109 008c FFF7FEFF 		bl	_stats_start_measure_crit_isr
 1110              	.LVL96:
 1111              		.loc 3 390 0
 1112 0090 FFF7FEFF 		bl	_dbg_check_lock_from_isr
 1113              	.LVL97:
 1114              	.LBE550:
 1115              	.LBE551:
 1116              	.LBE552:
 1117              	.LBB553:
 1118              	.LBB554:
 1119              		.loc 4 798 0
 1120 0094 04F12800 		add	r0, r4, #40
 1121 0098 0021     		movs	r1, #0
 1122 009a FFF7FEFF 		bl	chEvtBroadcastFlagsI
 1123              	.LVL98:
 1124              	.LBE554:
 1125              	.LBE553:
 1126              	.LBB555:
 1127              	.LBB556:
 1128              	.LBB557:
 1129              		.loc 3 408 0
 1130 009e FFF7FEFF 		bl	_dbg_check_unlock_from_isr
 1131              	.LVL99:
 1132              		.loc 3 409 0
 1133 00a2 FFF7FEFF 		bl	_stats_stop_measure_crit_isr
 1134              	.LVL100:
 1135              	.LBB558:
 1136              	.LBB559:
 1137              	.LBB560:
 1138              	.LBB561:
 1139              		.loc 2 546 0
 1140 00a6 0023     		movs	r3, #0
ARM GAS  C:\Users\Moi\AppData\Local\Temp\ccDRflzJ.s 			page 21


 1141              		.syntax unified
 1142              	@ 546 "..//ChibiOS//os/ext/CMSIS/include/core_cmFunc.h" 1
 1143 00a8 83F31188 		MSR basepri, r3
 1144              	@ 0 "" 2
 1145              	.LVL101:
 1146              		.thumb
 1147              		.syntax unified
 1148 00ac B8E7     		b	.L66
 1149              	.LVL102:
 1150              	.L82:
 1151              	.LBE561:
 1152              	.LBE560:
 1153              	.LBE559:
 1154              	.LBE558:
 1155              	.LBE557:
 1156              	.LBE556:
 1157              	.LBE555:
 1158              	.LBE563:
 1159              	.LBE565:
 1160              		.loc 1 340 0
 1161 00ae FFF7FEFF 		bl	__stack_chk_fail
 1162              	.LVL103:
 1163              	.L84:
 1164 00b2 00BF     		.align	2
 1165              	.L83:
 1166 00b4 00000000 		.word	__stack_chk_guard
 1167 00b8 00000000 		.word	.LANCHOR0
 1168 00bc 20000000 		.word	.LANCHOR0+32
 1169              		.cfi_endproc
 1170              	.LFE264:
 1171              		.size	Vector98, .-Vector98
 1172              		.section	.text.can_lld_init,"ax",%progbits
 1173              		.align	1
 1174              		.p2align 4,,15
 1175              		.global	can_lld_init
 1176              		.syntax unified
 1177              		.thumb
 1178              		.thumb_func
 1179              		.fpu fpv4-sp-d16
 1180              		.type	can_lld_init, %function
 1181              	can_lld_init:
 1182              	.LFB265:
 1183              		.loc 1 445 0
 1184              		.cfi_startproc
 1185              		@ args = 0, pretend = 0, frame = 8
 1186              		@ frame_needed = 0, uses_anonymous_args = 0
 1187 0000 30B5     		push	{r4, r5, lr}
 1188              		.cfi_def_cfa_offset 12
 1189              		.cfi_offset 4, -12
 1190              		.cfi_offset 5, -8
 1191              		.cfi_offset 14, -4
 1192 0002 0C4D     		ldr	r5, .L90
 1193              		.loc 1 449 0
 1194 0004 0C4C     		ldr	r4, .L90+4
 1195              		.loc 1 445 0
 1196 0006 2B68     		ldr	r3, [r5]
 1197 0008 83B0     		sub	sp, sp, #12
ARM GAS  C:\Users\Moi\AppData\Local\Temp\ccDRflzJ.s 			page 22


 1198              		.cfi_def_cfa_offset 24
 1199              		.loc 1 449 0
 1200 000a 2046     		mov	r0, r4
 1201              		.loc 1 445 0
 1202 000c 0193     		str	r3, [sp, #4]
 1203              		.loc 1 449 0
 1204 000e FFF7FEFF 		bl	canObjectInit
 1205              	.LVL104:
 1206              		.loc 1 460 0
 1207 0012 019A     		ldr	r2, [sp, #4]
 1208 0014 2B68     		ldr	r3, [r5]
 1209              		.loc 1 450 0
 1210 0016 0949     		ldr	r1, .L90+8
 1211 0018 E162     		str	r1, [r4, #44]
 1212              		.loc 1 460 0
 1213 001a 9A42     		cmp	r2, r3
 1214 001c 07D1     		bne	.L89
 1215 001e 0022     		movs	r2, #0
 1216 0020 1146     		mov	r1, r2
 1217 0022 0E20     		movs	r0, #14
 1218              		.loc 1 464 0
 1219 0024 03B0     		add	sp, sp, #12
 1220              		.cfi_remember_state
 1221              		.cfi_def_cfa_offset 12
 1222              		@ sp needed
 1223 0026 BDE83040 		pop	{r4, r5, lr}
 1224              		.cfi_restore 14
 1225              		.cfi_restore 5
 1226              		.cfi_restore 4
 1227              		.cfi_def_cfa_offset 0
 1228              		.loc 1 460 0
 1229 002a FFF7FEBF 		b	can_lld_set_filters
 1230              	.LVL105:
 1231              	.L89:
 1232              		.cfi_restore_state
 1233 002e FFF7FEFF 		bl	__stack_chk_fail
 1234              	.LVL106:
 1235              	.L91:
 1236 0032 00BF     		.align	2
 1237              	.L90:
 1238 0034 00000000 		.word	__stack_chk_guard
 1239 0038 00000000 		.word	.LANCHOR0
 1240 003c 00640040 		.word	1073767424
 1241              		.cfi_endproc
 1242              	.LFE265:
 1243              		.size	can_lld_init, .-can_lld_init
 1244              		.section	.text.can_lld_start,"ax",%progbits
 1245              		.align	1
 1246              		.p2align 4,,15
 1247              		.global	can_lld_start
 1248              		.syntax unified
 1249              		.thumb
 1250              		.thumb_func
 1251              		.fpu fpv4-sp-d16
 1252              		.type	can_lld_start, %function
 1253              	can_lld_start:
 1254              	.LFB266:
ARM GAS  C:\Users\Moi\AppData\Local\Temp\ccDRflzJ.s 			page 23


 1255              		.loc 1 473 0
 1256              		.cfi_startproc
 1257              		@ args = 0, pretend = 0, frame = 8
 1258              		@ frame_needed = 0, uses_anonymous_args = 0
 1259              	.LVL107:
 1260 0000 30B5     		push	{r4, r5, lr}
 1261              		.cfi_def_cfa_offset 12
 1262              		.cfi_offset 4, -12
 1263              		.cfi_offset 5, -8
 1264              		.cfi_offset 14, -4
 1265              		.loc 1 477 0
 1266 0002 1D4B     		ldr	r3, .L102
 1267              		.loc 1 473 0
 1268 0004 1D4D     		ldr	r5, .L102+4
 1269 0006 83B0     		sub	sp, sp, #12
 1270              		.cfi_def_cfa_offset 24
 1271              		.loc 1 473 0
 1272 0008 2A68     		ldr	r2, [r5]
 1273 000a 0192     		str	r2, [sp, #4]
 1274              		.loc 1 477 0
 1275 000c 9842     		cmp	r0, r3
 1276              		.loc 1 473 0
 1277 000e 0446     		mov	r4, r0
 1278              		.loc 1 477 0
 1279 0010 1AD0     		beq	.L100
 1280              	.LVL108:
 1281              	.L93:
 1282              		.loc 1 507 0
 1283 0012 E36A     		ldr	r3, [r4, #44]
 1284 0014 0122     		movs	r2, #1
 1285 0016 1A60     		str	r2, [r3]
 1286              		.loc 1 508 0
 1287 0018 5A68     		ldr	r2, [r3, #4]
 1288 001a D107     		lsls	r1, r2, #31
 1289 001c 07D4     		bmi	.L94
 1290              	.L95:
 1291              	.LVL109:
 1292              	.LBB570:
 1293              	.LBB571:
 1294              	.LBB572:
 1295              		.file 5 "..//ChibiOS//os/rt/include/chthreads.h"
 1296              		.loc 5 268 0
 1297 001e 0121     		movs	r1, #1
 1298 0020 0820     		movs	r0, #8
 1299 0022 FFF7FEFF 		bl	chSchGoSleepTimeoutS
 1300              	.LVL110:
 1301              	.LBE572:
 1302              	.LBE571:
 1303              	.LBE570:
 1304              		.loc 1 508 0
 1305 0026 E36A     		ldr	r3, [r4, #44]
 1306 0028 5A68     		ldr	r2, [r3, #4]
 1307 002a D207     		lsls	r2, r2, #31
 1308 002c F7D5     		bpl	.L95
 1309              	.LVL111:
 1310              	.L94:
 1311              		.loc 1 510 0
ARM GAS  C:\Users\Moi\AppData\Local\Temp\ccDRflzJ.s 			page 24


 1312 002e 6268     		ldr	r2, [r4, #4]
 1313              		.loc 1 514 0
 1314 0030 1349     		ldr	r1, .L102+8
 1315              		.loc 1 511 0
 1316 0032 D2E90020 		ldrd	r2, r0, [r2]
 1317              		.loc 1 510 0
 1318 0036 D861     		str	r0, [r3, #28]
 1319              		.loc 1 511 0
 1320 0038 1A60     		str	r2, [r3]
 1321              		.loc 1 514 0
 1322 003a 5961     		str	r1, [r3, #20]
 1323              		.loc 1 518 0
 1324 003c 019A     		ldr	r2, [sp, #4]
 1325 003e 2B68     		ldr	r3, [r5]
 1326 0040 9A42     		cmp	r2, r3
 1327 0042 17D1     		bne	.L101
 1328 0044 03B0     		add	sp, sp, #12
 1329              		.cfi_remember_state
 1330              		.cfi_def_cfa_offset 12
 1331              		@ sp needed
 1332 0046 30BD     		pop	{r4, r5, pc}
 1333              	.LVL112:
 1334              	.L100:
 1335              		.cfi_restore_state
 1336              		.loc 1 481 0
 1337 0048 0B21     		movs	r1, #11
 1338 004a 1320     		movs	r0, #19
 1339              	.LVL113:
 1340 004c FFF7FEFF 		bl	nvicEnableVector
 1341              	.LVL114:
 1342              		.loc 1 482 0
 1343 0050 0B21     		movs	r1, #11
 1344 0052 1420     		movs	r0, #20
 1345 0054 FFF7FEFF 		bl	nvicEnableVector
 1346              	.LVL115:
 1347              		.loc 1 483 0
 1348 0058 0B21     		movs	r1, #11
 1349 005a 1520     		movs	r0, #21
 1350 005c FFF7FEFF 		bl	nvicEnableVector
 1351              	.LVL116:
 1352              		.loc 1 484 0
 1353 0060 0B21     		movs	r1, #11
 1354 0062 1620     		movs	r0, #22
 1355 0064 FFF7FEFF 		bl	nvicEnableVector
 1356              	.LVL117:
 1357              		.loc 1 486 0
 1358 0068 064A     		ldr	r2, .L102+12
 1359 006a 136C     		ldr	r3, [r2, #64]
 1360 006c 43F00073 		orr	r3, r3, #33554432
 1361 0070 1364     		str	r3, [r2, #64]
 1362 0072 CEE7     		b	.L93
 1363              	.L101:
 1364              		.loc 1 518 0
 1365 0074 FFF7FEFF 		bl	__stack_chk_fail
 1366              	.LVL118:
 1367              	.L103:
 1368              		.align	2
ARM GAS  C:\Users\Moi\AppData\Local\Temp\ccDRflzJ.s 			page 25


 1369              	.L102:
 1370 0078 00000000 		.word	.LANCHOR0
 1371 007c 00000000 		.word	__stack_chk_guard
 1372 0080 5B8F0100 		.word	102235
 1373 0084 00380240 		.word	1073887232
 1374              		.cfi_endproc
 1375              	.LFE266:
 1376              		.size	can_lld_start, .-can_lld_start
 1377              		.section	.text.can_lld_stop,"ax",%progbits
 1378              		.align	1
 1379              		.p2align 4,,15
 1380              		.global	can_lld_stop
 1381              		.syntax unified
 1382              		.thumb
 1383              		.thumb_func
 1384              		.fpu fpv4-sp-d16
 1385              		.type	can_lld_stop, %function
 1386              	can_lld_stop:
 1387              	.LFB267:
 1388              		.loc 1 527 0
 1389              		.cfi_startproc
 1390              		@ args = 0, pretend = 0, frame = 8
 1391              		@ frame_needed = 0, uses_anonymous_args = 0
 1392              	.LVL119:
 1393 0000 10B5     		push	{r4, lr}
 1394              		.cfi_def_cfa_offset 8
 1395              		.cfi_offset 4, -8
 1396              		.cfi_offset 14, -4
 1397              		.loc 1 530 0
 1398 0002 0378     		ldrb	r3, [r0]	@ zero_extendqisi2
 1399              		.loc 1 527 0
 1400 0004 134C     		ldr	r4, .L110
 1401 0006 82B0     		sub	sp, sp, #8
 1402              		.cfi_def_cfa_offset 16
 1403              		.loc 1 527 0
 1404 0008 2268     		ldr	r2, [r4]
 1405 000a 0192     		str	r2, [sp, #4]
 1406              		.loc 1 530 0
 1407 000c 032B     		cmp	r3, #3
 1408 000e 05D0     		beq	.L108
 1409              	.LVL120:
 1410              	.L104:
 1411              		.loc 1 567 0
 1412 0010 019A     		ldr	r2, [sp, #4]
 1413 0012 2368     		ldr	r3, [r4]
 1414 0014 9A42     		cmp	r2, r3
 1415 0016 1BD1     		bne	.L109
 1416 0018 02B0     		add	sp, sp, #8
 1417              		.cfi_remember_state
 1418              		.cfi_def_cfa_offset 8
 1419              		@ sp needed
 1420 001a 10BD     		pop	{r4, pc}
 1421              	.LVL121:
 1422              	.L108:
 1423              		.cfi_restore_state
 1424              		.loc 1 532 0
 1425 001c 0E4B     		ldr	r3, .L110+4
ARM GAS  C:\Users\Moi\AppData\Local\Temp\ccDRflzJ.s 			page 26


 1426 001e 9842     		cmp	r0, r3
 1427 0020 F6D1     		bne	.L104
 1428              		.loc 1 538 0
 1429 0022 0E4B     		ldr	r3, .L110+8
 1430 0024 0E4A     		ldr	r2, .L110+12
 1431 0026 1A60     		str	r2, [r3]
 1432              		.loc 1 539 0
 1433 0028 0022     		movs	r2, #0
 1434 002a 5A61     		str	r2, [r3, #20]
 1435              		.loc 1 543 0
 1436 002c 1320     		movs	r0, #19
 1437              	.LVL122:
 1438 002e FFF7FEFF 		bl	nvicDisableVector
 1439              	.LVL123:
 1440              		.loc 1 544 0
 1441 0032 1420     		movs	r0, #20
 1442 0034 FFF7FEFF 		bl	nvicDisableVector
 1443              	.LVL124:
 1444              		.loc 1 545 0
 1445 0038 1520     		movs	r0, #21
 1446 003a FFF7FEFF 		bl	nvicDisableVector
 1447              	.LVL125:
 1448              		.loc 1 546 0
 1449 003e 1620     		movs	r0, #22
 1450 0040 FFF7FEFF 		bl	nvicDisableVector
 1451              	.LVL126:
 1452              		.loc 1 548 0
 1453 0044 074A     		ldr	r2, .L110+16
 1454 0046 136C     		ldr	r3, [r2, #64]
 1455 0048 23F00073 		bic	r3, r3, #33554432
 1456 004c 1364     		str	r3, [r2, #64]
 1457              		.loc 1 567 0
 1458 004e DFE7     		b	.L104
 1459              	.L109:
 1460 0050 FFF7FEFF 		bl	__stack_chk_fail
 1461              	.LVL127:
 1462              	.L111:
 1463              		.align	2
 1464              	.L110:
 1465 0054 00000000 		.word	__stack_chk_guard
 1466 0058 00000000 		.word	.LANCHOR0
 1467 005c 00640040 		.word	1073767424
 1468 0060 02000100 		.word	65538
 1469 0064 00380240 		.word	1073887232
 1470              		.cfi_endproc
 1471              	.LFE267:
 1472              		.size	can_lld_stop, .-can_lld_stop
 1473              		.section	.text.can_lld_is_tx_empty,"ax",%progbits
 1474              		.align	1
 1475              		.p2align 4,,15
 1476              		.global	can_lld_is_tx_empty
 1477              		.syntax unified
 1478              		.thumb
 1479              		.thumb_func
 1480              		.fpu fpv4-sp-d16
 1481              		.type	can_lld_is_tx_empty, %function
 1482              	can_lld_is_tx_empty:
ARM GAS  C:\Users\Moi\AppData\Local\Temp\ccDRflzJ.s 			page 27


 1483              	.LFB268:
 1484              		.loc 1 581 0
 1485              		.cfi_startproc
 1486              		@ args = 0, pretend = 0, frame = 8
 1487              		@ frame_needed = 0, uses_anonymous_args = 0
 1488              	.LVL128:
 1489 0000 00B5     		push	{lr}
 1490              		.cfi_def_cfa_offset 4
 1491              		.cfi_offset 14, -4
 1492 0002 154B     		ldr	r3, .L123
 1493 0004 83B0     		sub	sp, sp, #12
 1494              		.cfi_def_cfa_offset 16
 1495              		.loc 1 581 0
 1496 0006 1A68     		ldr	r2, [r3]
 1497 0008 0192     		str	r2, [sp, #4]
 1498              		.loc 1 583 0
 1499 000a 0329     		cmp	r1, #3
 1500 000c 22D8     		bhi	.L120
 1501 000e DFE801F0 		tbb	[pc, r1]
 1502              	.L115:
 1503 0012 17       		.byte	(.L114-.L115)/2
 1504 0013 12       		.byte	(.L116-.L115)/2
 1505 0014 0D       		.byte	(.L117-.L115)/2
 1506 0015 02       		.byte	(.L118-.L115)/2
 1507              		.p2align 1
 1508              	.L118:
 1509              		.loc 1 591 0
 1510 0016 C26A     		ldr	r2, [r0, #44]
 1511 0018 9068     		ldr	r0, [r2, #8]
 1512              	.LVL129:
 1513 001a C0F30070 		ubfx	r0, r0, #28, #1
 1514              	.L113:
 1515              		.loc 1 595 0
 1516 001e 019A     		ldr	r2, [sp, #4]
 1517 0020 1B68     		ldr	r3, [r3]
 1518 0022 9A42     		cmp	r2, r3
 1519 0024 14D1     		bne	.L122
 1520 0026 03B0     		add	sp, sp, #12
 1521              		.cfi_remember_state
 1522              		.cfi_def_cfa_offset 4
 1523              		@ sp needed
 1524 0028 5DF804FB 		ldr	pc, [sp], #4
 1525              	.LVL130:
 1526              	.L117:
 1527              		.cfi_restore_state
 1528              		.loc 1 589 0
 1529 002c C26A     		ldr	r2, [r0, #44]
 1530 002e 9068     		ldr	r0, [r2, #8]
 1531              	.LVL131:
 1532 0030 C0F3C060 		ubfx	r0, r0, #27, #1
 1533 0034 F3E7     		b	.L113
 1534              	.LVL132:
 1535              	.L116:
 1536              		.loc 1 587 0
 1537 0036 C26A     		ldr	r2, [r0, #44]
 1538 0038 9068     		ldr	r0, [r2, #8]
 1539              	.LVL133:
ARM GAS  C:\Users\Moi\AppData\Local\Temp\ccDRflzJ.s 			page 28


 1540 003a C0F38060 		ubfx	r0, r0, #26, #1
 1541 003e EEE7     		b	.L113
 1542              	.LVL134:
 1543              	.L114:
 1544              		.loc 1 585 0
 1545 0040 C26A     		ldr	r2, [r0, #44]
 1546 0042 9268     		ldr	r2, [r2, #8]
 1547 0044 12F0E05F 		tst	r2, #469762048
 1548 0048 14BF     		ite	ne
 1549 004a 0120     		movne	r0, #1
 1550              	.LVL135:
 1551 004c 0020     		moveq	r0, #0
 1552 004e E6E7     		b	.L113
 1553              	.L122:
 1554              		.loc 1 595 0
 1555 0050 FFF7FEFF 		bl	__stack_chk_fail
 1556              	.LVL136:
 1557              	.L120:
 1558              		.loc 1 593 0
 1559 0054 0020     		movs	r0, #0
 1560              	.LVL137:
 1561 0056 E2E7     		b	.L113
 1562              	.L124:
 1563              		.align	2
 1564              	.L123:
 1565 0058 00000000 		.word	__stack_chk_guard
 1566              		.cfi_endproc
 1567              	.LFE268:
 1568              		.size	can_lld_is_tx_empty, .-can_lld_is_tx_empty
 1569              		.section	.text.can_lld_transmit,"ax",%progbits
 1570              		.align	1
 1571              		.p2align 4,,15
 1572              		.global	can_lld_transmit
 1573              		.syntax unified
 1574              		.thumb
 1575              		.thumb_func
 1576              		.fpu fpv4-sp-d16
 1577              		.type	can_lld_transmit, %function
 1578              	can_lld_transmit:
 1579              	.LFB269:
 1580              		.loc 1 608 0
 1581              		.cfi_startproc
 1582              		@ args = 0, pretend = 0, frame = 8
 1583              		@ frame_needed = 0, uses_anonymous_args = 0
 1584              	.LVL138:
 1585 0000 30B5     		push	{r4, r5, lr}
 1586              		.cfi_def_cfa_offset 12
 1587              		.cfi_offset 4, -12
 1588              		.cfi_offset 5, -8
 1589              		.cfi_offset 14, -4
 1590 0002 1F4C     		ldr	r4, .L138
 1591 0004 83B0     		sub	sp, sp, #12
 1592              		.cfi_def_cfa_offset 24
 1593              		.loc 1 608 0
 1594 0006 2368     		ldr	r3, [r4]
 1595 0008 0193     		str	r3, [sp, #4]
 1596              		.loc 1 613 0
ARM GAS  C:\Users\Moi\AppData\Local\Temp\ccDRflzJ.s 			page 29


 1597 000a 0329     		cmp	r1, #3
 1598 000c 1CD8     		bhi	.L125
 1599 000e DFE801F0 		tbb	[pc, r1]
 1600              	.L128:
 1601 0012 25       		.byte	(.L127-.L128)/2
 1602 0013 2D       		.byte	(.L129-.L128)/2
 1603 0014 21       		.byte	(.L130-.L128)/2
 1604 0015 02       		.byte	(.L131-.L128)/2
 1605              		.p2align 1
 1606              	.L131:
 1607              		.loc 1 624 0
 1608 0016 C16A     		ldr	r1, [r0, #44]
 1609              	.LVL139:
 1610 0018 01F5D071 		add	r1, r1, #416
 1611              	.LVL140:
 1612              	.L132:
 1613 001c 1078     		ldrb	r0, [r2]	@ zero_extendqisi2
 1614              	.LVL141:
 1615 001e C0F30013 		ubfx	r3, r0, #4, #1
 1616              		.loc 1 631 0
 1617 0022 8506     		lsls	r5, r0, #26
 1618 0024 4FEA4303 		lsl	r3, r3, #1
 1619 0028 24D5     		bpl	.L133
 1620              		.loc 1 632 0
 1621 002a 5568     		ldr	r5, [r2, #4]
 1622 002c 43EAC503 		orr	r3, r3, r5, lsl #3
 1623 0030 43F00403 		orr	r3, r3, #4
 1624              	.LVL142:
 1625              	.L134:
 1626              		.loc 1 638 0
 1627 0034 D2E90252 		ldrd	r5, r2, [r2, #8]
 1628              	.LVL143:
 1629              		.loc 1 636 0
 1630 0038 00F00F00 		and	r0, r0, #15
 1631              		.loc 1 639 0
 1632 003c 43F00103 		orr	r3, r3, #1
 1633              	.LVL144:
 1634              		.loc 1 636 0
 1635 0040 4860     		str	r0, [r1, #4]
 1636              		.loc 1 637 0
 1637 0042 8D60     		str	r5, [r1, #8]
 1638              		.loc 1 638 0
 1639 0044 CA60     		str	r2, [r1, #12]
 1640              		.loc 1 639 0
 1641 0046 0B60     		str	r3, [r1]
 1642              	.LVL145:
 1643              	.L125:
 1644              		.loc 1 640 0
 1645 0048 019A     		ldr	r2, [sp, #4]
 1646 004a 2368     		ldr	r3, [r4]
 1647 004c 9A42     		cmp	r2, r3
 1648 004e 15D1     		bne	.L137
 1649 0050 03B0     		add	sp, sp, #12
 1650              		.cfi_remember_state
 1651              		.cfi_def_cfa_offset 12
 1652              		@ sp needed
 1653 0052 30BD     		pop	{r4, r5, pc}
ARM GAS  C:\Users\Moi\AppData\Local\Temp\ccDRflzJ.s 			page 30


 1654              	.LVL146:
 1655              	.L130:
 1656              		.cfi_restore_state
 1657              		.loc 1 621 0
 1658 0054 C16A     		ldr	r1, [r0, #44]
 1659              	.LVL147:
 1660 0056 01F5C871 		add	r1, r1, #400
 1661              	.LVL148:
 1662              		.loc 1 622 0
 1663 005a DFE7     		b	.L132
 1664              	.LVL149:
 1665              	.L127:
 1666              		.loc 1 615 0
 1667 005c C16A     		ldr	r1, [r0, #44]
 1668              	.LVL150:
 1669 005e 8B68     		ldr	r3, [r1, #8]
 1670 0060 C3F30163 		ubfx	r3, r3, #24, #2
 1671 0064 1833     		adds	r3, r3, #24
 1672 0066 01EB0311 		add	r1, r1, r3, lsl #4
 1673              	.LVL151:
 1674              		.loc 1 616 0
 1675 006a D7E7     		b	.L132
 1676              	.LVL152:
 1677              	.L129:
 1678              		.loc 1 618 0
 1679 006c C16A     		ldr	r1, [r0, #44]
 1680              	.LVL153:
 1681 006e 01F5C071 		add	r1, r1, #384
 1682              	.LVL154:
 1683              		.loc 1 619 0
 1684 0072 D3E7     		b	.L132
 1685              	.LVL155:
 1686              	.L133:
 1687              		.loc 1 635 0
 1688 0074 9588     		ldrh	r5, [r2, #4]
 1689 0076 43EA4553 		orr	r3, r3, r5, lsl #21
 1690              	.LVL156:
 1691 007a DBE7     		b	.L134
 1692              	.LVL157:
 1693              	.L137:
 1694              		.loc 1 640 0
 1695 007c FFF7FEFF 		bl	__stack_chk_fail
 1696              	.LVL158:
 1697              	.L139:
 1698              		.align	2
 1699              	.L138:
 1700 0080 00000000 		.word	__stack_chk_guard
 1701              		.cfi_endproc
 1702              	.LFE269:
 1703              		.size	can_lld_transmit, .-can_lld_transmit
 1704              		.section	.text.can_lld_is_rx_nonempty,"ax",%progbits
 1705              		.align	1
 1706              		.p2align 4,,15
 1707              		.global	can_lld_is_rx_nonempty
 1708              		.syntax unified
 1709              		.thumb
 1710              		.thumb_func
ARM GAS  C:\Users\Moi\AppData\Local\Temp\ccDRflzJ.s 			page 31


 1711              		.fpu fpv4-sp-d16
 1712              		.type	can_lld_is_rx_nonempty, %function
 1713              	can_lld_is_rx_nonempty:
 1714              	.LFB270:
 1715              		.loc 1 654 0
 1716              		.cfi_startproc
 1717              		@ args = 0, pretend = 0, frame = 8
 1718              		@ frame_needed = 0, uses_anonymous_args = 0
 1719              	.LVL159:
 1720 0000 00B5     		push	{lr}
 1721              		.cfi_def_cfa_offset 4
 1722              		.cfi_offset 14, -4
 1723 0002 134B     		ldr	r3, .L153
 1724 0004 83B0     		sub	sp, sp, #12
 1725              		.cfi_def_cfa_offset 16
 1726              		.loc 1 654 0
 1727 0006 1A68     		ldr	r2, [r3]
 1728 0008 0192     		str	r2, [sp, #4]
 1729              		.loc 1 656 0
 1730 000a 0129     		cmp	r1, #1
 1731 000c 17D0     		beq	.L142
 1732 000e 10D3     		bcc	.L143
 1733 0010 0229     		cmp	r1, #2
 1734 0012 07D0     		beq	.L144
 1735              		.loc 1 665 0
 1736 0014 0020     		movs	r0, #0
 1737              	.LVL160:
 1738              	.L141:
 1739              		.loc 1 667 0
 1740 0016 019A     		ldr	r2, [sp, #4]
 1741 0018 1B68     		ldr	r3, [r3]
 1742 001a 9A42     		cmp	r2, r3
 1743 001c 16D1     		bne	.L152
 1744 001e 03B0     		add	sp, sp, #12
 1745              		.cfi_remember_state
 1746              		.cfi_def_cfa_offset 4
 1747              		@ sp needed
 1748 0020 5DF804FB 		ldr	pc, [sp], #4
 1749              	.LVL161:
 1750              	.L144:
 1751              		.cfi_restore_state
 1752              		.loc 1 663 0
 1753 0024 C26A     		ldr	r2, [r0, #44]
 1754              	.LVL162:
 1755              	.L151:
 1756 0026 1069     		ldr	r0, [r2, #16]
 1757              	.LVL163:
 1758 0028 10F00300 		ands	r0, r0, #3
 1759 002c 18BF     		it	ne
 1760 002e 0120     		movne	r0, #1
 1761 0030 F1E7     		b	.L141
 1762              	.LVL164:
 1763              	.L143:
 1764              		.loc 1 658 0
 1765 0032 C26A     		ldr	r2, [r0, #44]
 1766 0034 D168     		ldr	r1, [r2, #12]
 1767              	.LVL165:
ARM GAS  C:\Users\Moi\AppData\Local\Temp\ccDRflzJ.s 			page 32


 1768 0036 8907     		lsls	r1, r1, #30
 1769 0038 F5D0     		beq	.L151
 1770 003a 0120     		movs	r0, #1
 1771              	.LVL166:
 1772 003c EBE7     		b	.L141
 1773              	.LVL167:
 1774              	.L142:
 1775              		.loc 1 661 0
 1776 003e C26A     		ldr	r2, [r0, #44]
 1777 0040 D068     		ldr	r0, [r2, #12]
 1778              	.LVL168:
 1779 0042 10F00300 		ands	r0, r0, #3
 1780 0046 18BF     		it	ne
 1781 0048 0120     		movne	r0, #1
 1782 004a E4E7     		b	.L141
 1783              	.LVL169:
 1784              	.L152:
 1785              		.loc 1 667 0
 1786 004c FFF7FEFF 		bl	__stack_chk_fail
 1787              	.LVL170:
 1788              	.L154:
 1789              		.align	2
 1790              	.L153:
 1791 0050 00000000 		.word	__stack_chk_guard
 1792              		.cfi_endproc
 1793              	.LFE270:
 1794              		.size	can_lld_is_rx_nonempty, .-can_lld_is_rx_nonempty
 1795              		.section	.text.can_lld_receive,"ax",%progbits
 1796              		.align	1
 1797              		.p2align 4,,15
 1798              		.global	can_lld_receive
 1799              		.syntax unified
 1800              		.thumb
 1801              		.thumb_func
 1802              		.fpu fpv4-sp-d16
 1803              		.type	can_lld_receive, %function
 1804              	can_lld_receive:
 1805              	.LFB271:
 1806              		.loc 1 680 0
 1807              		.cfi_startproc
 1808              		@ args = 0, pretend = 0, frame = 8
 1809              		@ frame_needed = 0, uses_anonymous_args = 0
 1810              	.LVL171:
 1811 0000 70B5     		push	{r4, r5, r6, lr}
 1812              		.cfi_def_cfa_offset 16
 1813              		.cfi_offset 4, -16
 1814              		.cfi_offset 5, -12
 1815              		.cfi_offset 6, -8
 1816              		.cfi_offset 14, -4
 1817 0002 304C     		ldr	r4, .L169
 1818 0004 82B0     		sub	sp, sp, #8
 1819              		.cfi_def_cfa_offset 24
 1820              		.loc 1 680 0
 1821 0006 2368     		ldr	r3, [r4]
 1822 0008 0193     		str	r3, [sp, #4]
 1823              		.loc 1 683 0
 1824 000a 0029     		cmp	r1, #0
ARM GAS  C:\Users\Moi\AppData\Local\Temp\ccDRflzJ.s 			page 33


 1825 000c 33D1     		bne	.L156
 1826              		.loc 1 684 0
 1827 000e C36A     		ldr	r3, [r0, #44]
 1828 0010 D968     		ldr	r1, [r3, #12]
 1829              	.LVL172:
 1830 0012 8807     		lsls	r0, r1, #30
 1831              	.LVL173:
 1832 0014 48D0     		beq	.L167
 1833              	.L157:
 1834              		.loc 1 696 0
 1835 0016 D3F8B001 		ldr	r0, [r3, #432]
 1836              	.LVL174:
 1837              		.loc 1 697 0
 1838 001a D3F8B411 		ldr	r1, [r3, #436]
 1839              	.LVL175:
 1840              		.loc 1 698 0
 1841 001e D3F8B851 		ldr	r5, [r3, #440]
 1842              		.loc 1 699 0
 1843 0022 D3F8BC61 		ldr	r6, [r3, #444]
 1844              		.loc 1 698 0
 1845 0026 D560     		str	r5, [r2, #12]
 1846              		.loc 1 702 0
 1847 0028 2025     		movs	r5, #32
 1848              		.loc 1 699 0
 1849 002a 1661     		str	r6, [r2, #16]
 1850              		.loc 1 702 0
 1851 002c DD60     		str	r5, [r3, #12]
 1852              		.loc 1 706 0
 1853 002e DD68     		ldr	r5, [r3, #12]
 1854 0030 AE07     		lsls	r6, r5, #30
 1855 0032 03D1     		bne	.L162
 1856              		.loc 1 707 0
 1857 0034 5D69     		ldr	r5, [r3, #20]
 1858 0036 45F00205 		orr	r5, r5, #2
 1859 003a 5D61     		str	r5, [r3, #20]
 1860              	.L162:
 1861              		.loc 1 730 0
 1862 003c 1379     		ldrb	r3, [r2, #4]	@ zero_extendqisi2
 1863 003e 4508     		lsrs	r5, r0, #1
 1864 0040 65F30413 		bfi	r3, r5, #4, #1
 1865              		.loc 1 731 0
 1866 0044 8508     		lsrs	r5, r0, #2
 1867 0046 65F34513 		bfi	r3, r5, #5, #1
 1868 004a 1371     		strb	r3, [r2, #4]
 1869              		.loc 1 732 0
 1870 004c 9B06     		lsls	r3, r3, #26
 1871 004e 2FD5     		bpl	.L163
 1872              		.loc 1 733 0
 1873 0050 9368     		ldr	r3, [r2, #8]
 1874 0052 C008     		lsrs	r0, r0, #3
 1875              	.LVL176:
 1876 0054 60F31C03 		bfi	r3, r0, #0, #29
 1877 0058 9360     		str	r3, [r2, #8]
 1878              	.L164:
 1879              		.loc 1 736 0
 1880 005a 1379     		ldrb	r3, [r2, #4]	@ zero_extendqisi2
 1881              		.loc 1 737 0
ARM GAS  C:\Users\Moi\AppData\Local\Temp\ccDRflzJ.s 			page 34


 1882 005c 080A     		lsrs	r0, r1, #8
 1883              		.loc 1 736 0
 1884 005e 61F30303 		bfi	r3, r1, #0, #4
 1885              		.loc 1 738 0
 1886 0062 090C     		lsrs	r1, r1, #16
 1887              	.LVL177:
 1888              		.loc 1 736 0
 1889 0064 1371     		strb	r3, [r2, #4]
 1890              		.loc 1 737 0
 1891 0066 1070     		strb	r0, [r2]
 1892              		.loc 1 738 0
 1893 0068 5180     		strh	r1, [r2, #2]	@ movhi
 1894              	.L155:
 1895              		.loc 1 739 0
 1896 006a 019A     		ldr	r2, [sp, #4]
 1897              	.LVL178:
 1898 006c 2368     		ldr	r3, [r4]
 1899 006e 9A42     		cmp	r2, r3
 1900 0070 26D1     		bne	.L168
 1901 0072 02B0     		add	sp, sp, #8
 1902              		.cfi_remember_state
 1903              		.cfi_def_cfa_offset 16
 1904              		@ sp needed
 1905 0074 70BD     		pop	{r4, r5, r6, pc}
 1906              	.LVL179:
 1907              	.L156:
 1908              		.cfi_restore_state
 1909              		.loc 1 693 0
 1910 0076 0129     		cmp	r1, #1
 1911 0078 20D0     		beq	.L160
 1912 007a 0229     		cmp	r1, #2
 1913 007c F5D1     		bne	.L155
 1914 007e C36A     		ldr	r3, [r0, #44]
 1915              	.LVL180:
 1916              	.L158:
 1917              		.loc 1 711 0
 1918 0080 D3F8C001 		ldr	r0, [r3, #448]
 1919              	.LVL181:
 1920              		.loc 1 712 0
 1921 0084 D3F8C411 		ldr	r1, [r3, #452]
 1922              	.LVL182:
 1923              		.loc 1 713 0
 1924 0088 D3F8C851 		ldr	r5, [r3, #456]
 1925              		.loc 1 714 0
 1926 008c D3F8CC61 		ldr	r6, [r3, #460]
 1927              		.loc 1 713 0
 1928 0090 D560     		str	r5, [r2, #12]
 1929              		.loc 1 717 0
 1930 0092 2025     		movs	r5, #32
 1931              		.loc 1 714 0
 1932 0094 1661     		str	r6, [r2, #16]
 1933              		.loc 1 717 0
 1934 0096 1D61     		str	r5, [r3, #16]
 1935              		.loc 1 721 0
 1936 0098 1D69     		ldr	r5, [r3, #16]
 1937 009a AD07     		lsls	r5, r5, #30
 1938 009c CED1     		bne	.L162
ARM GAS  C:\Users\Moi\AppData\Local\Temp\ccDRflzJ.s 			page 35


 1939              		.loc 1 722 0
 1940 009e 5D69     		ldr	r5, [r3, #20]
 1941 00a0 45F01005 		orr	r5, r5, #16
 1942 00a4 5D61     		str	r5, [r3, #20]
 1943 00a6 C9E7     		b	.L162
 1944              	.LVL183:
 1945              	.L167:
 1946              		.loc 1 686 0
 1947 00a8 1969     		ldr	r1, [r3, #16]
 1948 00aa 8907     		lsls	r1, r1, #30
 1949 00ac E8D1     		bne	.L158
 1950 00ae DCE7     		b	.L155
 1951              	.LVL184:
 1952              	.L163:
 1953              		.loc 1 735 0
 1954 00b0 1389     		ldrh	r3, [r2, #8]
 1955 00b2 400D     		lsrs	r0, r0, #21
 1956              	.LVL185:
 1957 00b4 60F30A03 		bfi	r3, r0, #0, #11
 1958 00b8 1381     		strh	r3, [r2, #8]	@ movhi
 1959 00ba CEE7     		b	.L164
 1960              	.LVL186:
 1961              	.L160:
 1962 00bc C36A     		ldr	r3, [r0, #44]
 1963 00be AAE7     		b	.L157
 1964              	.LVL187:
 1965              	.L168:
 1966              		.loc 1 739 0
 1967 00c0 FFF7FEFF 		bl	__stack_chk_fail
 1968              	.LVL188:
 1969              	.L170:
 1970              		.align	2
 1971              	.L169:
 1972 00c4 00000000 		.word	__stack_chk_guard
 1973              		.cfi_endproc
 1974              	.LFE271:
 1975              		.size	can_lld_receive, .-can_lld_receive
 1976              		.section	.text.can_lld_sleep,"ax",%progbits
 1977              		.align	1
 1978              		.p2align 4,,15
 1979              		.global	can_lld_sleep
 1980              		.syntax unified
 1981              		.thumb
 1982              		.thumb_func
 1983              		.fpu fpv4-sp-d16
 1984              		.type	can_lld_sleep, %function
 1985              	can_lld_sleep:
 1986              	.LFB272:
 1987              		.loc 1 749 0
 1988              		.cfi_startproc
 1989              		@ args = 0, pretend = 0, frame = 8
 1990              		@ frame_needed = 0, uses_anonymous_args = 0
 1991              	.LVL189:
 1992 0000 00B5     		push	{lr}
 1993              		.cfi_def_cfa_offset 4
 1994              		.cfi_offset 14, -4
 1995 0002 094A     		ldr	r2, .L175
ARM GAS  C:\Users\Moi\AppData\Local\Temp\ccDRflzJ.s 			page 36


 1996              		.loc 1 751 0
 1997 0004 C16A     		ldr	r1, [r0, #44]
 1998              		.loc 1 749 0
 1999 0006 1368     		ldr	r3, [r2]
 2000 0008 83B0     		sub	sp, sp, #12
 2001              		.cfi_def_cfa_offset 16
 2002              		.loc 1 749 0
 2003 000a 0193     		str	r3, [sp, #4]
 2004              		.loc 1 751 0
 2005 000c 0B68     		ldr	r3, [r1]
 2006 000e 43F00203 		orr	r3, r3, #2
 2007 0012 0B60     		str	r3, [r1]
 2008              		.loc 1 752 0
 2009 0014 0199     		ldr	r1, [sp, #4]
 2010 0016 1368     		ldr	r3, [r2]
 2011 0018 9942     		cmp	r1, r3
 2012 001a 02D1     		bne	.L174
 2013 001c 03B0     		add	sp, sp, #12
 2014              		.cfi_remember_state
 2015              		.cfi_def_cfa_offset 4
 2016              		@ sp needed
 2017 001e 5DF804FB 		ldr	pc, [sp], #4
 2018              	.L174:
 2019              		.cfi_restore_state
 2020 0022 FFF7FEFF 		bl	__stack_chk_fail
 2021              	.LVL190:
 2022              	.L176:
 2023 0026 00BF     		.align	2
 2024              	.L175:
 2025 0028 00000000 		.word	__stack_chk_guard
 2026              		.cfi_endproc
 2027              	.LFE272:
 2028              		.size	can_lld_sleep, .-can_lld_sleep
 2029              		.section	.text.can_lld_wakeup,"ax",%progbits
 2030              		.align	1
 2031              		.p2align 4,,15
 2032              		.global	can_lld_wakeup
 2033              		.syntax unified
 2034              		.thumb
 2035              		.thumb_func
 2036              		.fpu fpv4-sp-d16
 2037              		.type	can_lld_wakeup, %function
 2038              	can_lld_wakeup:
 2039              	.LFB273:
 2040              		.loc 1 761 0
 2041              		.cfi_startproc
 2042              		@ args = 0, pretend = 0, frame = 8
 2043              		@ frame_needed = 0, uses_anonymous_args = 0
 2044              	.LVL191:
 2045 0000 00B5     		push	{lr}
 2046              		.cfi_def_cfa_offset 4
 2047              		.cfi_offset 14, -4
 2048 0002 094A     		ldr	r2, .L181
 2049              		.loc 1 763 0
 2050 0004 C16A     		ldr	r1, [r0, #44]
 2051              		.loc 1 761 0
 2052 0006 1368     		ldr	r3, [r2]
ARM GAS  C:\Users\Moi\AppData\Local\Temp\ccDRflzJ.s 			page 37


 2053 0008 83B0     		sub	sp, sp, #12
 2054              		.cfi_def_cfa_offset 16
 2055              		.loc 1 761 0
 2056 000a 0193     		str	r3, [sp, #4]
 2057              		.loc 1 763 0
 2058 000c 0B68     		ldr	r3, [r1]
 2059 000e 23F00203 		bic	r3, r3, #2
 2060 0012 0B60     		str	r3, [r1]
 2061              		.loc 1 764 0
 2062 0014 0199     		ldr	r1, [sp, #4]
 2063 0016 1368     		ldr	r3, [r2]
 2064 0018 9942     		cmp	r1, r3
 2065 001a 02D1     		bne	.L180
 2066 001c 03B0     		add	sp, sp, #12
 2067              		.cfi_remember_state
 2068              		.cfi_def_cfa_offset 4
 2069              		@ sp needed
 2070 001e 5DF804FB 		ldr	pc, [sp], #4
 2071              	.L180:
 2072              		.cfi_restore_state
 2073 0022 FFF7FEFF 		bl	__stack_chk_fail
 2074              	.LVL192:
 2075              	.L182:
 2076 0026 00BF     		.align	2
 2077              	.L181:
 2078 0028 00000000 		.word	__stack_chk_guard
 2079              		.cfi_endproc
 2080              	.LFE273:
 2081              		.size	can_lld_wakeup, .-can_lld_wakeup
 2082              		.section	.text.canSTM32SetFilters,"ax",%progbits
 2083              		.align	1
 2084              		.p2align 4,,15
 2085              		.global	canSTM32SetFilters
 2086              		.syntax unified
 2087              		.thumb
 2088              		.thumb_func
 2089              		.fpu fpv4-sp-d16
 2090              		.type	canSTM32SetFilters, %function
 2091              	canSTM32SetFilters:
 2092              	.LFB274:
 2093              		.loc 1 779 0
 2094              		.cfi_startproc
 2095              		@ args = 0, pretend = 0, frame = 8
 2096              		@ frame_needed = 0, uses_anonymous_args = 0
 2097              	.LVL193:
 2098 0000 F0B5     		push	{r4, r5, r6, r7, lr}
 2099              		.cfi_def_cfa_offset 20
 2100              		.cfi_offset 4, -20
 2101              		.cfi_offset 5, -16
 2102              		.cfi_offset 6, -12
 2103              		.cfi_offset 7, -8
 2104              		.cfi_offset 14, -4
 2105 0002 124C     		ldr	r4, .L194
 2106 0004 83B0     		sub	sp, sp, #12
 2107              		.cfi_def_cfa_offset 32
 2108              		.loc 1 779 0
 2109 0006 2368     		ldr	r3, [r4]
ARM GAS  C:\Users\Moi\AppData\Local\Temp\ccDRflzJ.s 			page 38


 2110 0008 0193     		str	r3, [sp, #4]
 2111              		.loc 1 781 0
 2112 000a 431E     		subs	r3, r0, #1
 2113 000c 1A2B     		cmp	r3, #26
 2114              		.loc 1 779 0
 2115 000e 0546     		mov	r5, r0
 2116 0010 0E46     		mov	r6, r1
 2117 0012 1746     		mov	r7, r2
 2118              		.loc 1 781 0
 2119 0014 14D8     		bhi	.L184
 2120              		.loc 1 781 0 is_stmt 0 discriminator 3
 2121 0016 1C29     		cmp	r1, #28
 2122 0018 12D8     		bhi	.L184
 2123              	.LVL194:
 2124              	.L185:
 2125              		.loc 1 785 0 is_stmt 1 discriminator 1
 2126 001a 0D4B     		ldr	r3, .L194+4
 2127 001c 1B78     		ldrb	r3, [r3]	@ zero_extendqisi2
 2128 001e 012B     		cmp	r3, #1
 2129 0020 02D0     		beq	.L186
 2130              		.loc 1 785 0 is_stmt 0 discriminator 2
 2131 0022 0C48     		ldr	r0, .L194+8
 2132 0024 FFF7FEFF 		bl	chSysHalt
 2133              	.LVL195:
 2134              	.L186:
 2135              		.loc 1 791 0 is_stmt 1
 2136 0028 0199     		ldr	r1, [sp, #4]
 2137 002a 2368     		ldr	r3, [r4]
 2138 002c 9942     		cmp	r1, r3
 2139 002e 0BD1     		bne	.L193
 2140 0030 3A46     		mov	r2, r7
 2141 0032 3146     		mov	r1, r6
 2142 0034 2846     		mov	r0, r5
 2143              		.loc 1 792 0
 2144 0036 03B0     		add	sp, sp, #12
 2145              		.cfi_remember_state
 2146              		.cfi_def_cfa_offset 20
 2147              		@ sp needed
 2148 0038 BDE8F040 		pop	{r4, r5, r6, r7, lr}
 2149              		.cfi_restore 14
 2150              		.cfi_restore 7
 2151              		.cfi_restore 6
 2152              		.cfi_restore 5
 2153              		.cfi_restore 4
 2154              		.cfi_def_cfa_offset 0
 2155              	.LVL196:
 2156              		.loc 1 791 0
 2157 003c FFF7FEBF 		b	can_lld_set_filters
 2158              	.LVL197:
 2159              	.L184:
 2160              		.cfi_restore_state
 2161              		.loc 1 781 0 discriminator 4
 2162 0040 0448     		ldr	r0, .L194+8
 2163              	.LVL198:
 2164 0042 FFF7FEFF 		bl	chSysHalt
 2165              	.LVL199:
 2166 0046 E8E7     		b	.L185
ARM GAS  C:\Users\Moi\AppData\Local\Temp\ccDRflzJ.s 			page 39


 2167              	.L193:
 2168              		.loc 1 791 0
 2169 0048 FFF7FEFF 		bl	__stack_chk_fail
 2170              	.LVL200:
 2171              	.L195:
 2172              		.align	2
 2173              	.L194:
 2174 004c 00000000 		.word	__stack_chk_guard
 2175 0050 00000000 		.word	.LANCHOR0
 2176 0054 00000000 		.word	.LANCHOR1
 2177              		.cfi_endproc
 2178              	.LFE274:
 2179              		.size	canSTM32SetFilters, .-canSTM32SetFilters
 2180              		.global	CAND1
 2181              		.section	.bss.CAND1,"aw",%nobits
 2182              		.align	2
 2183              		.set	.LANCHOR0,. + 0
 2184              		.type	CAND1, %object
 2185              		.size	CAND1, 48
 2186              	CAND1:
 2187 0000 00000000 		.space	48
 2187      00000000 
 2187      00000000 
 2187      00000000 
 2187      00000000 
 2188              		.section	.rodata.__func__.9945,"a",%progbits
 2189              		.align	2
 2190              		.set	.LANCHOR1,. + 0
 2191              		.type	__func__.9945, %object
 2192              		.size	__func__.9945, 19
 2193              	__func__.9945:
 2194 0000 63616E53 		.ascii	"canSTM32SetFilters\000"
 2194      544D3332 
 2194      53657446 
 2194      696C7465 
 2194      727300
 2195              		.text
 2196              	.Letext0:
 2197              		.file 6 "c:\\users\\moi\\documents\\_microinfo\\epuck-eclipse\\tools\\gcc-arm-none-eabi-7-2017-q4-
 2198              		.file 7 "c:\\users\\moi\\documents\\_microinfo\\epuck-eclipse\\tools\\gcc-arm-none-eabi-7-2017-q4-
 2199              		.file 8 "c:\\users\\moi\\documents\\_microinfo\\epuck-eclipse\\tools\\gcc-arm-none-eabi-7-2017-q4-
 2200              		.file 9 "..//ChibiOS//os/rt/ports/ARMCMx/compilers/GCC/chtypes.h"
 2201              		.file 10 "..//ChibiOS//os/rt/include/chsystypes.h"
 2202              		.file 11 "..//ChibiOS//os/rt/include/chschd.h"
 2203              		.file 12 "..//ChibiOS//os/ext/CMSIS/include/core_cm4.h"
 2204              		.file 13 "..//ChibiOS//os/ext/CMSIS/ST/system_stm32f4xx.h"
 2205              		.file 14 "..//ChibiOS//os/ext/CMSIS/ST/stm32f407xx.h"
 2206              		.file 15 "..//ChibiOS//os/rt/ports/ARMCMx/chcore.h"
 2207              		.file 16 "..//ChibiOS//os/rt/ports/ARMCMx/chcore_v7m.h"
 2208              		.file 17 "..//ChibiOS//os/rt/include/chdebug.h"
 2209              		.file 18 "..//ChibiOS//os/rt/include/chtm.h"
 2210              		.file 19 "..//ChibiOS//os/rt/include/chstats.h"
 2211              		.file 20 "..//ChibiOS//os/rt/include/chsem.h"
 2212              		.file 21 "..//ChibiOS//os/rt/include/chmtx.h"
 2213              		.file 22 "..//ChibiOS//os/rt/include/chregistry.h"
 2214              		.file 23 "..//ChibiOS//os/rt/include/chevents.h"
 2215              		.file 24 "..//ChibiOS//os/rt/include/chqueues.h"
ARM GAS  C:\Users\Moi\AppData\Local\Temp\ccDRflzJ.s 			page 40


 2216              		.file 25 "..//ChibiOS//os/hal/ports/STM32/STM32F4xx/stm32_dma.h"
 2217              		.file 26 "..//ChibiOS//os/hal/include/hal_ioblock.h"
 2218              		.file 27 "..//ChibiOS//os/hal/ports/STM32/LLD/GPIOv2/pal_lld.h"
 2219              		.file 28 "..//ChibiOS//os/hal/include/adc.h"
 2220              		.file 29 "..//ChibiOS//os/hal/ports/STM32/STM32F4xx/adc_lld.h"
 2221              		.file 30 "..//ChibiOS//os/hal/include/can.h"
 2222              		.file 31 "..//ChibiOS//os/hal/ports/STM32/LLD/can_lld.h"
 2223              		.file 32 "..//ChibiOS//os/hal/include/dac.h"
 2224              		.file 33 "..//ChibiOS//os/hal/ports/STM32/LLD/DACv1/dac_lld.h"
 2225              		.file 34 "..//ChibiOS//os/hal/include/ext.h"
 2226              		.file 35 "..//ChibiOS//os/hal/ports/STM32/LLD/ext_lld.h"
 2227              		.file 36 "..//ChibiOS//os/hal/include/gpt.h"
 2228              		.file 37 "..//ChibiOS//os/hal/ports/STM32/LLD/TIMv1/gpt_lld.h"
 2229              		.file 38 "..//ChibiOS//os/hal/ports/STM32/LLD/TIMv1/stm32_tim.h"
 2230              		.file 39 "..//ChibiOS//os/hal/include/i2c.h"
 2231              		.file 40 "..//ChibiOS//os/hal/ports/STM32/LLD/I2Cv1/i2c_lld.h"
 2232              		.file 41 "..//ChibiOS//os/hal/include/i2s.h"
 2233              		.file 42 "..//ChibiOS//os/hal/ports/STM32/LLD/SPIv1/i2s_lld.h"
 2234              		.file 43 "..//ChibiOS//os/hal/include/pwm.h"
 2235              		.file 44 "..//ChibiOS//os/hal/ports/STM32/LLD/TIMv1/pwm_lld.h"
 2236              		.file 45 "..//ChibiOS//os/hal/include/serial.h"
 2237              		.file 46 "..//ChibiOS//os/hal/ports/STM32/LLD/USARTv1/serial_lld.h"
 2238              		.file 47 "..//ChibiOS//os/hal/include/sdc.h"
 2239              		.file 48 "..//ChibiOS//os/hal/ports/STM32/LLD/sdc_lld.h"
 2240              		.file 49 "..//ChibiOS//os/hal/include/spi.h"
 2241              		.file 50 "..//ChibiOS//os/hal/ports/STM32/LLD/SPIv1/spi_lld.h"
 2242              		.file 51 "..//ChibiOS//os/hal/include/usb.h"
 2243              		.file 52 "..//ChibiOS//os/hal/ports/STM32/LLD/OTGv1/usb_lld.h"
 2244              		.file 53 "..//ChibiOS//os/hal/ports/STM32/LLD/OTGv1/stm32_otg.h"
 2245              		.file 54 "..//ChibiOS//os/hal/ports/common/ARMCMx/nvic.h"