ARM GAS  C:\Users\Moi\AppData\Local\Temp\cccK2LaP.s 			page 1


   1              		.cpu cortex-m4
   2              		.eabi_attribute 27, 1
   3              		.eabi_attribute 28, 1
   4              		.eabi_attribute 20, 1
   5              		.eabi_attribute 21, 1
   6              		.eabi_attribute 23, 3
   7              		.eabi_attribute 24, 1
   8              		.eabi_attribute 25, 1
   9              		.eabi_attribute 26, 1
  10              		.eabi_attribute 30, 2
  11              		.eabi_attribute 34, 1
  12              		.eabi_attribute 18, 4
  13              		.file	"chcond.c"
  14              		.text
  15              	.Ltext0:
  16              		.cfi_sections	.debug_frame
  17              		.section	.text.chCondObjectInit,"ax",%progbits
  18              		.align	1
  19              		.p2align 4,,15
  20              		.global	chCondObjectInit
  21              		.syntax unified
  22              		.thumb
  23              		.thumb_func
  24              		.fpu fpv4-sp-d16
  25              		.type	chCondObjectInit, %function
  26              	chCondObjectInit:
  27              	.LFB219:
  28              		.file 1 "..//ChibiOS//os/rt/src/chcond.c"
  29              		.loc 1 75 0
  30              		.cfi_startproc
  31              		@ args = 0, pretend = 0, frame = 8
  32              		@ frame_needed = 0, uses_anonymous_args = 0
  33              	.LVL0:
  34 0000 30B5     		push	{r4, r5, lr}
  35              		.cfi_def_cfa_offset 12
  36              		.cfi_offset 4, -12
  37              		.cfi_offset 5, -8
  38              		.cfi_offset 14, -4
  39 0002 0A4D     		ldr	r5, .L8
  40 0004 83B0     		sub	sp, sp, #12
  41              		.cfi_def_cfa_offset 24
  42              		.loc 1 75 0
  43 0006 2B68     		ldr	r3, [r5]
  44 0008 0193     		str	r3, [sp, #4]
  45              		.loc 1 77 0
  46 000a 0446     		mov	r4, r0
  47 000c 38B1     		cbz	r0, .L6
  48              	.LVL1:
  49              	.L2:
  50              		.loc 1 80 0
  51 000e 019A     		ldr	r2, [sp, #4]
  52 0010 2B68     		ldr	r3, [r5]
  53 0012 9A42     		cmp	r2, r3
  54              	.LBB63:
  55              	.LBB64:
  56              		.file 2 "..//ChibiOS//os/rt/include/chschd.h"
  57              		.loc 2 605 0
ARM GAS  C:\Users\Moi\AppData\Local\Temp\cccK2LaP.s 			page 2


  58 0014 C4E90044 		strd	r4, r4, [r4]
  59              	.LVL2:
  60              	.LBE64:
  61              	.LBE63:
  62              		.loc 1 80 0
  63 0018 05D1     		bne	.L7
  64 001a 03B0     		add	sp, sp, #12
  65              		.cfi_remember_state
  66              		.cfi_def_cfa_offset 12
  67              		@ sp needed
  68 001c 30BD     		pop	{r4, r5, pc}
  69              	.LVL3:
  70              	.L6:
  71              		.cfi_restore_state
  72              		.loc 1 77 0 discriminator 2
  73 001e 0448     		ldr	r0, .L8+4
  74              	.LVL4:
  75 0020 FFF7FEFF 		bl	chSysHalt
  76              	.LVL5:
  77 0024 F3E7     		b	.L2
  78              	.L7:
  79              		.loc 1 80 0
  80 0026 FFF7FEFF 		bl	__stack_chk_fail
  81              	.LVL6:
  82              	.L9:
  83 002a 00BF     		.align	2
  84              	.L8:
  85 002c 00000000 		.word	__stack_chk_guard
  86 0030 00000000 		.word	.LANCHOR0
  87              		.cfi_endproc
  88              	.LFE219:
  89              		.size	chCondObjectInit, .-chCondObjectInit
  90              		.section	.text.chCondSignal,"ax",%progbits
  91              		.align	1
  92              		.p2align 4,,15
  93              		.global	chCondSignal
  94              		.syntax unified
  95              		.thumb
  96              		.thumb_func
  97              		.fpu fpv4-sp-d16
  98              		.type	chCondSignal, %function
  99              	chCondSignal:
 100              	.LFB220:
 101              		.loc 1 89 0
 102              		.cfi_startproc
 103              		@ args = 0, pretend = 0, frame = 8
 104              		@ frame_needed = 0, uses_anonymous_args = 0
 105              	.LVL7:
 106 0000 30B5     		push	{r4, r5, lr}
 107              		.cfi_def_cfa_offset 12
 108              		.cfi_offset 4, -12
 109              		.cfi_offset 5, -8
 110              		.cfi_offset 14, -4
 111 0002 1B4D     		ldr	r5, .L19
 112 0004 83B0     		sub	sp, sp, #12
 113              		.cfi_def_cfa_offset 24
 114              		.loc 1 89 0
ARM GAS  C:\Users\Moi\AppData\Local\Temp\cccK2LaP.s 			page 3


 115 0006 2B68     		ldr	r3, [r5]
 116 0008 0193     		str	r3, [sp, #4]
 117              		.loc 1 91 0
 118 000a 0446     		mov	r4, r0
 119 000c 48B3     		cbz	r0, .L16
 120              	.LVL8:
 121              	.L11:
 122              	.LBB79:
 123              	.LBB80:
 124              	.LBB81:
 125              	.LBB82:
 126              	.LBB83:
 127              		.file 3 "..//ChibiOS//os/ext/CMSIS/include/core_cmFunc.h"
 128              		.loc 3 546 0
 129 000e 2023     		movs	r3, #32
 130              		.syntax unified
 131              	@ 546 "..//ChibiOS//os/ext/CMSIS/include/core_cmFunc.h" 1
 132 0010 83F31188 		MSR basepri, r3
 133              	@ 0 "" 2
 134              	.LVL9:
 135              		.thumb
 136              		.syntax unified
 137              	.LBE83:
 138              	.LBE82:
 139              	.LBE81:
 140              		.file 4 "..//ChibiOS//os/rt/include/chsys.h"
 141              		.loc 4 349 0
 142 0014 FFF7FEFF 		bl	_stats_start_measure_crit_thd
 143              	.LVL10:
 144              		.loc 4 350 0
 145 0018 FFF7FEFF 		bl	_dbg_check_lock
 146              	.LVL11:
 147              	.LBE80:
 148              	.LBE79:
 149              	.LBB84:
 150              	.LBB85:
 151              		.loc 2 631 0
 152 001c 2068     		ldr	r0, [r4]
 153              	.LVL12:
 154              	.LBE85:
 155              	.LBE84:
 156              		.loc 1 94 0
 157 001e 8442     		cmp	r4, r0
 158 0020 05D0     		beq	.L12
 159              	.LVL13:
 160              	.LBB86:
 161              	.LBB87:
 162              		.loc 2 674 0
 163 0022 0368     		ldr	r3, [r0]
 164 0024 2360     		str	r3, [r4]
 165              	.LBE87:
 166              	.LBE86:
 167              		.loc 1 95 0
 168 0026 0021     		movs	r1, #0
 169              	.LBB89:
 170              	.LBB88:
 171              		.loc 2 675 0
ARM GAS  C:\Users\Moi\AppData\Local\Temp\cccK2LaP.s 			page 4


 172 0028 5C60     		str	r4, [r3, #4]
 173              	.LVL14:
 174              	.LBE88:
 175              	.LBE89:
 176              		.loc 1 95 0
 177 002a FFF7FEFF 		bl	chSchWakeupS
 178              	.LVL15:
 179              	.L12:
 180              	.LBB90:
 181              	.LBB91:
 182              		.loc 4 360 0
 183 002e FFF7FEFF 		bl	_dbg_check_unlock
 184              	.LVL16:
 185              		.loc 4 361 0
 186 0032 FFF7FEFF 		bl	_stats_stop_measure_crit_thd
 187              	.LVL17:
 188              		.loc 4 367 0
 189 0036 0F4B     		ldr	r3, .L19+4
 190 0038 1A68     		ldr	r2, [r3]
 191 003a 9A42     		cmp	r2, r3
 192 003c 04D0     		beq	.L13
 193 003e 9969     		ldr	r1, [r3, #24]
 194 0040 9368     		ldr	r3, [r2, #8]
 195 0042 8A68     		ldr	r2, [r1, #8]
 196 0044 9A42     		cmp	r2, r3
 197 0046 08D3     		bcc	.L17
 198              	.L13:
 199              	.LVL18:
 200              	.LBB92:
 201              	.LBB93:
 202              	.LBB94:
 203              		.loc 3 546 0
 204 0048 0023     		movs	r3, #0
 205              		.syntax unified
 206              	@ 546 "..//ChibiOS//os/ext/CMSIS/include/core_cmFunc.h" 1
 207 004a 83F31188 		MSR basepri, r3
 208              	@ 0 "" 2
 209              	.LVL19:
 210              		.thumb
 211              		.syntax unified
 212              	.LBE94:
 213              	.LBE93:
 214              	.LBE92:
 215              	.LBE91:
 216              	.LBE90:
 217              		.loc 1 98 0
 218 004e 019A     		ldr	r2, [sp, #4]
 219 0050 2B68     		ldr	r3, [r5]
 220 0052 9A42     		cmp	r2, r3
 221 0054 09D1     		bne	.L18
 222 0056 03B0     		add	sp, sp, #12
 223              		.cfi_remember_state
 224              		.cfi_def_cfa_offset 12
 225              		@ sp needed
 226 0058 30BD     		pop	{r4, r5, pc}
 227              	.LVL20:
 228              	.L17:
ARM GAS  C:\Users\Moi\AppData\Local\Temp\cccK2LaP.s 			page 5


 229              		.cfi_restore_state
 230              	.LBB96:
 231              	.LBB95:
 232              		.loc 4 367 0
 233 005a 0748     		ldr	r0, .L19+8
 234 005c FFF7FEFF 		bl	chSysHalt
 235              	.LVL21:
 236 0060 F2E7     		b	.L13
 237              	.LVL22:
 238              	.L16:
 239              	.LBE95:
 240              	.LBE96:
 241              		.loc 1 91 0 discriminator 2
 242 0062 0648     		ldr	r0, .L19+12
 243              	.LVL23:
 244 0064 FFF7FEFF 		bl	chSysHalt
 245              	.LVL24:
 246 0068 D1E7     		b	.L11
 247              	.L18:
 248              		.loc 1 98 0
 249 006a FFF7FEFF 		bl	__stack_chk_fail
 250              	.LVL25:
 251              	.L20:
 252 006e 00BF     		.align	2
 253              	.L19:
 254 0070 00000000 		.word	__stack_chk_guard
 255 0074 00000000 		.word	ch
 256 0078 00000000 		.word	.LANCHOR2
 257 007c 00000000 		.word	.LANCHOR1
 258              		.cfi_endproc
 259              	.LFE220:
 260              		.size	chCondSignal, .-chCondSignal
 261              		.section	.text.chCondSignalI,"ax",%progbits
 262              		.align	1
 263              		.p2align 4,,15
 264              		.global	chCondSignalI
 265              		.syntax unified
 266              		.thumb
 267              		.thumb_func
 268              		.fpu fpv4-sp-d16
 269              		.type	chCondSignalI, %function
 270              	chCondSignalI:
 271              	.LFB221:
 272              		.loc 1 111 0
 273              		.cfi_startproc
 274              		@ args = 0, pretend = 0, frame = 8
 275              		@ frame_needed = 0, uses_anonymous_args = 0
 276              	.LVL26:
 277 0000 30B5     		push	{r4, r5, lr}
 278              		.cfi_def_cfa_offset 12
 279              		.cfi_offset 4, -12
 280              		.cfi_offset 5, -8
 281              		.cfi_offset 14, -4
 282 0002 124D     		ldr	r5, .L29
 283 0004 83B0     		sub	sp, sp, #12
 284              		.cfi_def_cfa_offset 24
 285              		.loc 1 111 0
ARM GAS  C:\Users\Moi\AppData\Local\Temp\cccK2LaP.s 			page 6


 286 0006 0446     		mov	r4, r0
 287 0008 2B68     		ldr	r3, [r5]
 288 000a 0193     		str	r3, [sp, #4]
 289              		.loc 1 113 0
 290 000c FFF7FEFF 		bl	chDbgCheckClassI
 291              	.LVL27:
 292              		.loc 1 114 0
 293 0010 B4B1     		cbz	r4, .L28
 294              	.L22:
 295              	.LVL28:
 296              	.LBB97:
 297              	.LBB98:
 298              		.loc 2 631 0
 299 0012 2068     		ldr	r0, [r4]
 300              	.LVL29:
 301              	.LBE98:
 302              	.LBE97:
 303              		.loc 1 116 0
 304 0014 8442     		cmp	r4, r0
 305 0016 0DD0     		beq	.L21
 306              	.LVL30:
 307              	.LBB99:
 308              		.loc 1 119 0
 309 0018 0199     		ldr	r1, [sp, #4]
 310 001a 2A68     		ldr	r2, [r5]
 311              	.LBB100:
 312              	.LBB101:
 313              		.loc 2 674 0
 314 001c 0368     		ldr	r3, [r0]
 315 001e 2360     		str	r3, [r4]
 316              	.LBE101:
 317              	.LBE100:
 318              		.loc 1 118 0
 319 0020 0025     		movs	r5, #0
 320              		.loc 1 119 0
 321 0022 9142     		cmp	r1, r2
 322              	.LBB103:
 323              	.LBB102:
 324              		.loc 2 675 0
 325 0024 5C60     		str	r4, [r3, #4]
 326              	.LVL31:
 327              	.LBE102:
 328              	.LBE103:
 329              		.loc 1 118 0
 330 0026 8562     		str	r5, [r0, #40]
 331              		.loc 1 119 0
 332 0028 0ED1     		bne	.L27
 333              	.LBE99:
 334              		.loc 1 121 0
 335 002a 03B0     		add	sp, sp, #12
 336              		.cfi_remember_state
 337              		.cfi_def_cfa_offset 12
 338              		@ sp needed
 339 002c BDE83040 		pop	{r4, r5, lr}
 340              		.cfi_restore 14
 341              		.cfi_restore 5
 342              		.cfi_restore 4
ARM GAS  C:\Users\Moi\AppData\Local\Temp\cccK2LaP.s 			page 7


 343              		.cfi_def_cfa_offset 0
 344              	.LVL32:
 345              	.LBB104:
 346              		.loc 1 119 0
 347 0030 FFF7FEBF 		b	chSchReadyI
 348              	.LVL33:
 349              	.L21:
 350              		.cfi_restore_state
 351              	.LBE104:
 352              		.loc 1 121 0
 353 0034 019A     		ldr	r2, [sp, #4]
 354 0036 2B68     		ldr	r3, [r5]
 355 0038 9A42     		cmp	r2, r3
 356 003a 05D1     		bne	.L27
 357 003c 03B0     		add	sp, sp, #12
 358              		.cfi_remember_state
 359              		.cfi_def_cfa_offset 12
 360              		@ sp needed
 361 003e 30BD     		pop	{r4, r5, pc}
 362              	.LVL34:
 363              	.L28:
 364              		.cfi_restore_state
 365              		.loc 1 114 0 discriminator 2
 366 0040 0348     		ldr	r0, .L29+4
 367 0042 FFF7FEFF 		bl	chSysHalt
 368              	.LVL35:
 369 0046 E4E7     		b	.L22
 370              	.L27:
 371              		.loc 1 121 0
 372 0048 FFF7FEFF 		bl	__stack_chk_fail
 373              	.LVL36:
 374              	.L30:
 375              		.align	2
 376              	.L29:
 377 004c 00000000 		.word	__stack_chk_guard
 378 0050 00000000 		.word	.LANCHOR3
 379              		.cfi_endproc
 380              	.LFE221:
 381              		.size	chCondSignalI, .-chCondSignalI
 382              		.section	.text.chCondBroadcastI,"ax",%progbits
 383              		.align	1
 384              		.p2align 4,,15
 385              		.global	chCondBroadcastI
 386              		.syntax unified
 387              		.thumb
 388              		.thumb_func
 389              		.fpu fpv4-sp-d16
 390              		.type	chCondBroadcastI, %function
 391              	chCondBroadcastI:
 392              	.LFB223:
 393              		.loc 1 149 0
 394              		.cfi_startproc
 395              		@ args = 0, pretend = 0, frame = 8
 396              		@ frame_needed = 0, uses_anonymous_args = 0
 397              	.LVL37:
 398 0000 70B5     		push	{r4, r5, r6, lr}
 399              		.cfi_def_cfa_offset 16
ARM GAS  C:\Users\Moi\AppData\Local\Temp\cccK2LaP.s 			page 8


 400              		.cfi_offset 4, -16
 401              		.cfi_offset 5, -12
 402              		.cfi_offset 6, -8
 403              		.cfi_offset 14, -4
 404 0002 114E     		ldr	r6, .L40
 405 0004 82B0     		sub	sp, sp, #8
 406              		.cfi_def_cfa_offset 24
 407              		.loc 1 149 0
 408 0006 0446     		mov	r4, r0
 409 0008 3368     		ldr	r3, [r6]
 410 000a 0193     		str	r3, [sp, #4]
 411              		.loc 1 151 0
 412 000c FFF7FEFF 		bl	chDbgCheckClassI
 413              	.LVL38:
 414              		.loc 1 152 0
 415 0010 A4B1     		cbz	r4, .L38
 416              	.L32:
 417              	.LVL39:
 418              	.LBB105:
 419              	.LBB106:
 420              		.loc 2 631 0
 421 0012 2368     		ldr	r3, [r4]
 422              	.LVL40:
 423              	.LBE106:
 424              	.LBE105:
 425              		.loc 1 157 0
 426 0014 A342     		cmp	r3, r4
 427 0016 0BD0     		beq	.L31
 428              		.loc 1 158 0
 429 0018 6FF00105 		mvn	r5, #1
 430              	.L34:
 431              	.LVL41:
 432              	.LBB108:
 433              	.LBB109:
 434              		.loc 2 674 0
 435 001c 1A68     		ldr	r2, [r3]
 436 001e 2260     		str	r2, [r4]
 437              	.LBE109:
 438              	.LBE108:
 439              		.loc 1 158 0
 440 0020 1846     		mov	r0, r3
 441              	.LBB111:
 442              	.LBB110:
 443              		.loc 2 675 0
 444 0022 5460     		str	r4, [r2, #4]
 445              	.LVL42:
 446              	.LBE110:
 447              	.LBE111:
 448              		.loc 1 158 0
 449 0024 FFF7FEFF 		bl	chSchReadyI
 450              	.LVL43:
 451              	.LBB112:
 452              	.LBB107:
 453              		.loc 2 631 0
 454 0028 2368     		ldr	r3, [r4]
 455              	.LBE107:
 456              	.LBE112:
ARM GAS  C:\Users\Moi\AppData\Local\Temp\cccK2LaP.s 			page 9


 457              		.loc 1 158 0
 458 002a 8562     		str	r5, [r0, #40]
 459              		.loc 1 157 0
 460 002c A342     		cmp	r3, r4
 461 002e F5D1     		bne	.L34
 462              	.L31:
 463              		.loc 1 160 0
 464 0030 019A     		ldr	r2, [sp, #4]
 465 0032 3368     		ldr	r3, [r6]
 466 0034 9A42     		cmp	r2, r3
 467 0036 05D1     		bne	.L39
 468 0038 02B0     		add	sp, sp, #8
 469              		.cfi_remember_state
 470              		.cfi_def_cfa_offset 16
 471              		@ sp needed
 472 003a 70BD     		pop	{r4, r5, r6, pc}
 473              	.LVL44:
 474              	.L38:
 475              		.cfi_restore_state
 476              		.loc 1 152 0 discriminator 2
 477 003c 0348     		ldr	r0, .L40+4
 478 003e FFF7FEFF 		bl	chSysHalt
 479              	.LVL45:
 480 0042 E6E7     		b	.L32
 481              	.L39:
 482              		.loc 1 160 0
 483 0044 FFF7FEFF 		bl	__stack_chk_fail
 484              	.LVL46:
 485              	.L41:
 486              		.align	2
 487              	.L40:
 488 0048 00000000 		.word	__stack_chk_guard
 489 004c 00000000 		.word	.LANCHOR4
 490              		.cfi_endproc
 491              	.LFE223:
 492              		.size	chCondBroadcastI, .-chCondBroadcastI
 493              		.section	.text.chCondBroadcast,"ax",%progbits
 494              		.align	1
 495              		.p2align 4,,15
 496              		.global	chCondBroadcast
 497              		.syntax unified
 498              		.thumb
 499              		.thumb_func
 500              		.fpu fpv4-sp-d16
 501              		.type	chCondBroadcast, %function
 502              	chCondBroadcast:
 503              	.LFB222:
 504              		.loc 1 130 0
 505              		.cfi_startproc
 506              		@ args = 0, pretend = 0, frame = 8
 507              		@ frame_needed = 0, uses_anonymous_args = 0
 508              	.LVL47:
 509 0000 30B5     		push	{r4, r5, lr}
 510              		.cfi_def_cfa_offset 12
 511              		.cfi_offset 4, -12
 512              		.cfi_offset 5, -8
 513              		.cfi_offset 14, -4
ARM GAS  C:\Users\Moi\AppData\Local\Temp\cccK2LaP.s 			page 10


 514 0002 164C     		ldr	r4, .L48
 515 0004 83B0     		sub	sp, sp, #12
 516              		.cfi_def_cfa_offset 24
 517              		.loc 1 130 0
 518 0006 2368     		ldr	r3, [r4]
 519 0008 0193     		str	r3, [sp, #4]
 520              	.LVL48:
 521 000a 0546     		mov	r5, r0
 522              	.LBB123:
 523              	.LBB124:
 524              	.LBB125:
 525              	.LBB126:
 526              	.LBB127:
 527              		.loc 3 546 0
 528 000c 2023     		movs	r3, #32
 529              		.syntax unified
 530              	@ 546 "..//ChibiOS//os/ext/CMSIS/include/core_cmFunc.h" 1
 531 000e 83F31188 		MSR basepri, r3
 532              	@ 0 "" 2
 533              	.LVL49:
 534              		.thumb
 535              		.syntax unified
 536              	.LBE127:
 537              	.LBE126:
 538              	.LBE125:
 539              		.loc 4 349 0
 540 0012 FFF7FEFF 		bl	_stats_start_measure_crit_thd
 541              	.LVL50:
 542              		.loc 4 350 0
 543 0016 FFF7FEFF 		bl	_dbg_check_lock
 544              	.LVL51:
 545              	.LBE124:
 546              	.LBE123:
 547              		.loc 1 133 0
 548 001a 2846     		mov	r0, r5
 549 001c FFF7FEFF 		bl	chCondBroadcastI
 550              	.LVL52:
 551              		.loc 1 134 0
 552 0020 FFF7FEFF 		bl	chSchRescheduleS
 553              	.LVL53:
 554              	.LBB128:
 555              	.LBB129:
 556              		.loc 4 360 0
 557 0024 FFF7FEFF 		bl	_dbg_check_unlock
 558              	.LVL54:
 559              		.loc 4 361 0
 560 0028 FFF7FEFF 		bl	_stats_stop_measure_crit_thd
 561              	.LVL55:
 562              		.loc 4 367 0
 563 002c 0C4B     		ldr	r3, .L48+4
 564 002e 1A68     		ldr	r2, [r3]
 565 0030 9A42     		cmp	r2, r3
 566 0032 04D0     		beq	.L43
 567 0034 9969     		ldr	r1, [r3, #24]
 568 0036 9368     		ldr	r3, [r2, #8]
 569 0038 8A68     		ldr	r2, [r1, #8]
 570 003a 9A42     		cmp	r2, r3
ARM GAS  C:\Users\Moi\AppData\Local\Temp\cccK2LaP.s 			page 11


 571 003c 08D3     		bcc	.L46
 572              	.L43:
 573              	.LVL56:
 574              	.LBB130:
 575              	.LBB131:
 576              	.LBB132:
 577              		.loc 3 546 0
 578 003e 0023     		movs	r3, #0
 579              		.syntax unified
 580              	@ 546 "..//ChibiOS//os/ext/CMSIS/include/core_cmFunc.h" 1
 581 0040 83F31188 		MSR basepri, r3
 582              	@ 0 "" 2
 583              	.LVL57:
 584              		.thumb
 585              		.syntax unified
 586              	.LBE132:
 587              	.LBE131:
 588              	.LBE130:
 589              	.LBE129:
 590              	.LBE128:
 591              		.loc 1 136 0
 592 0044 019A     		ldr	r2, [sp, #4]
 593 0046 2368     		ldr	r3, [r4]
 594 0048 9A42     		cmp	r2, r3
 595 004a 05D1     		bne	.L47
 596 004c 03B0     		add	sp, sp, #12
 597              		.cfi_remember_state
 598              		.cfi_def_cfa_offset 12
 599              		@ sp needed
 600 004e 30BD     		pop	{r4, r5, pc}
 601              	.LVL58:
 602              	.L46:
 603              		.cfi_restore_state
 604              	.LBB134:
 605              	.LBB133:
 606              		.loc 4 367 0
 607 0050 0448     		ldr	r0, .L48+8
 608 0052 FFF7FEFF 		bl	chSysHalt
 609              	.LVL59:
 610 0056 F2E7     		b	.L43
 611              	.L47:
 612              	.LBE133:
 613              	.LBE134:
 614              		.loc 1 136 0
 615 0058 FFF7FEFF 		bl	__stack_chk_fail
 616              	.LVL60:
 617              	.L49:
 618              		.align	2
 619              	.L48:
 620 005c 00000000 		.word	__stack_chk_guard
 621 0060 00000000 		.word	ch
 622 0064 00000000 		.word	.LANCHOR2
 623              		.cfi_endproc
 624              	.LFE222:
 625              		.size	chCondBroadcast, .-chCondBroadcast
 626              		.section	.text.chCondWaitS,"ax",%progbits
 627              		.align	1
ARM GAS  C:\Users\Moi\AppData\Local\Temp\cccK2LaP.s 			page 12


 628              		.p2align 4,,15
 629              		.global	chCondWaitS
 630              		.syntax unified
 631              		.thumb
 632              		.thumb_func
 633              		.fpu fpv4-sp-d16
 634              		.type	chCondWaitS, %function
 635              	chCondWaitS:
 636              	.LFB225:
 637              		.loc 1 205 0
 638              		.cfi_startproc
 639              		@ args = 0, pretend = 0, frame = 8
 640              		@ frame_needed = 0, uses_anonymous_args = 0
 641              	.LVL61:
 642 0000 2DE9F041 		push	{r4, r5, r6, r7, r8, lr}
 643              		.cfi_def_cfa_offset 24
 644              		.cfi_offset 4, -24
 645              		.cfi_offset 5, -20
 646              		.cfi_offset 6, -16
 647              		.cfi_offset 7, -12
 648              		.cfi_offset 8, -8
 649              		.cfi_offset 14, -4
 650 0004 1E4F     		ldr	r7, .L63
 651              		.loc 1 206 0
 652 0006 1F4E     		ldr	r6, .L63+4
 653              		.loc 1 205 0
 654 0008 3B68     		ldr	r3, [r7]
 655              		.loc 1 206 0
 656 000a B469     		ldr	r4, [r6, #24]
 657              	.LVL62:
 658              		.loc 1 205 0
 659 000c 82B0     		sub	sp, sp, #8
 660              		.cfi_def_cfa_offset 32
 661              		.loc 1 205 0
 662 000e 0546     		mov	r5, r0
 663 0010 0193     		str	r3, [sp, #4]
 664              		.loc 1 210 0
 665 0012 FFF7FEFF 		bl	chDbgCheckClassS
 666              	.LVL63:
 667              		.loc 1 211 0
 668 0016 65B3     		cbz	r5, .L58
 669              	.L51:
 670              		.loc 1 212 0 discriminator 1
 671 0018 236C     		ldr	r3, [r4, #64]
 672 001a 33B3     		cbz	r3, .L59
 673              	.L52:
 674              	.LBB135:
 675              	.LBB136:
 676              		.file 5 "..//ChibiOS//os/rt/include/chmtx.h"
 677              		.loc 5 146 0
 678 001c B369     		ldr	r3, [r6, #24]
 679 001e D3F84080 		ldr	r8, [r3, #64]
 680              	.LBE136:
 681              	.LBE135:
 682              		.loc 1 216 0
 683 0022 4046     		mov	r0, r8
 684 0024 FFF7FEFF 		bl	chMtxUnlockS
ARM GAS  C:\Users\Moi\AppData\Local\Temp\cccK2LaP.s 			page 13


 685              	.LVL64:
 686              		.loc 1 221 0
 687 0028 2E46     		mov	r6, r5
 688              	.LVL65:
 689              		.loc 1 220 0
 690 002a A562     		str	r5, [r4, #40]
 691              		.loc 1 221 0
 692 002c 2B46     		mov	r3, r5
 693 002e 03E0     		b	.L54
 694              	.LVL66:
 695              	.L61:
 696              	.LBB137:
 697              	.LBB138:
 698              		.loc 2 656 0
 699 0030 9968     		ldr	r1, [r3, #8]
 700 0032 A268     		ldr	r2, [r4, #8]
 701 0034 9142     		cmp	r1, r2
 702 0036 16D3     		bcc	.L60
 703              	.LVL67:
 704              	.L54:
 705              		.loc 2 655 0
 706 0038 1B68     		ldr	r3, [r3]
 707              	.LVL68:
 708              		.loc 2 656 0
 709 003a 9D42     		cmp	r5, r3
 710 003c F8D1     		bne	.L61
 711              	.L53:
 712              		.loc 2 658 0
 713 003e 7368     		ldr	r3, [r6, #4]
 714              	.LVL69:
 715              	.LBE138:
 716              	.LBE137:
 717              		.loc 1 222 0
 718 0040 0720     		movs	r0, #7
 719              	.LBB141:
 720              	.LBB139:
 721              		.loc 2 658 0
 722 0042 C4E90063 		strd	r6, r3, [r4]
 723              		.loc 2 659 0
 724 0046 1C60     		str	r4, [r3]
 725              		.loc 2 660 0
 726 0048 7460     		str	r4, [r6, #4]
 727              	.LVL70:
 728              	.LBE139:
 729              	.LBE141:
 730              		.loc 1 222 0
 731 004a FFF7FEFF 		bl	chSchGoSleepS
 732              	.LVL71:
 733              		.loc 1 224 0
 734 004e 4046     		mov	r0, r8
 735              		.loc 1 223 0
 736 0050 A46A     		ldr	r4, [r4, #40]
 737              	.LVL72:
 738              		.loc 1 224 0
 739 0052 FFF7FEFF 		bl	chMtxLockS
 740              	.LVL73:
 741              		.loc 1 227 0
ARM GAS  C:\Users\Moi\AppData\Local\Temp\cccK2LaP.s 			page 14


 742 0056 019A     		ldr	r2, [sp, #4]
 743 0058 3B68     		ldr	r3, [r7]
 744 005a 9A42     		cmp	r2, r3
 745 005c 2046     		mov	r0, r4
 746 005e 0CD1     		bne	.L62
 747 0060 02B0     		add	sp, sp, #8
 748              		.cfi_remember_state
 749              		.cfi_def_cfa_offset 24
 750              		@ sp needed
 751 0062 BDE8F081 		pop	{r4, r5, r6, r7, r8, pc}
 752              	.LVL74:
 753              	.L60:
 754              		.cfi_restore_state
 755              	.LBB142:
 756              	.LBB140:
 757              		.loc 2 655 0
 758 0066 1E46     		mov	r6, r3
 759 0068 E9E7     		b	.L53
 760              	.LVL75:
 761              	.L59:
 762              	.LBE140:
 763              	.LBE142:
 764              		.loc 1 212 0 discriminator 2
 765 006a 0748     		ldr	r0, .L63+8
 766 006c FFF7FEFF 		bl	chSysHalt
 767              	.LVL76:
 768 0070 D4E7     		b	.L52
 769              	.L58:
 770              		.loc 1 211 0 discriminator 2
 771 0072 0548     		ldr	r0, .L63+8
 772 0074 FFF7FEFF 		bl	chSysHalt
 773              	.LVL77:
 774 0078 CEE7     		b	.L51
 775              	.LVL78:
 776              	.L62:
 777              		.loc 1 227 0
 778 007a FFF7FEFF 		bl	__stack_chk_fail
 779              	.LVL79:
 780              	.L64:
 781 007e 00BF     		.align	2
 782              	.L63:
 783 0080 00000000 		.word	__stack_chk_guard
 784 0084 00000000 		.word	ch
 785 0088 00000000 		.word	.LANCHOR5
 786              		.cfi_endproc
 787              	.LFE225:
 788              		.size	chCondWaitS, .-chCondWaitS
 789              		.section	.text.chCondWait,"ax",%progbits
 790              		.align	1
 791              		.p2align 4,,15
 792              		.global	chCondWait
 793              		.syntax unified
 794              		.thumb
 795              		.thumb_func
 796              		.fpu fpv4-sp-d16
 797              		.type	chCondWait, %function
 798              	chCondWait:
ARM GAS  C:\Users\Moi\AppData\Local\Temp\cccK2LaP.s 			page 15


 799              	.LFB224:
 800              		.loc 1 179 0
 801              		.cfi_startproc
 802              		@ args = 0, pretend = 0, frame = 8
 803              		@ frame_needed = 0, uses_anonymous_args = 0
 804              	.LVL80:
 805 0000 30B5     		push	{r4, r5, lr}
 806              		.cfi_def_cfa_offset 12
 807              		.cfi_offset 4, -12
 808              		.cfi_offset 5, -8
 809              		.cfi_offset 14, -4
 810 0002 164C     		ldr	r4, .L71
 811 0004 83B0     		sub	sp, sp, #12
 812              		.cfi_def_cfa_offset 24
 813              		.loc 1 179 0
 814 0006 2368     		ldr	r3, [r4]
 815 0008 0193     		str	r3, [sp, #4]
 816              	.LVL81:
 817 000a 0546     		mov	r5, r0
 818              	.LBB153:
 819              	.LBB154:
 820              	.LBB155:
 821              	.LBB156:
 822              	.LBB157:
 823              		.loc 3 546 0
 824 000c 2023     		movs	r3, #32
 825              		.syntax unified
 826              	@ 546 "..//ChibiOS//os/ext/CMSIS/include/core_cmFunc.h" 1
 827 000e 83F31188 		MSR basepri, r3
 828              	@ 0 "" 2
 829              	.LVL82:
 830              		.thumb
 831              		.syntax unified
 832              	.LBE157:
 833              	.LBE156:
 834              	.LBE155:
 835              		.loc 4 349 0
 836 0012 FFF7FEFF 		bl	_stats_start_measure_crit_thd
 837              	.LVL83:
 838              		.loc 4 350 0
 839 0016 FFF7FEFF 		bl	_dbg_check_lock
 840              	.LVL84:
 841              	.LBE154:
 842              	.LBE153:
 843              		.loc 1 183 0
 844 001a 2846     		mov	r0, r5
 845 001c FFF7FEFF 		bl	chCondWaitS
 846              	.LVL85:
 847 0020 0546     		mov	r5, r0
 848              	.LVL86:
 849              	.LBB158:
 850              	.LBB159:
 851              		.loc 4 360 0
 852 0022 FFF7FEFF 		bl	_dbg_check_unlock
 853              	.LVL87:
 854              		.loc 4 361 0
 855 0026 FFF7FEFF 		bl	_stats_stop_measure_crit_thd
ARM GAS  C:\Users\Moi\AppData\Local\Temp\cccK2LaP.s 			page 16


 856              	.LVL88:
 857              		.loc 4 367 0
 858 002a 0D4B     		ldr	r3, .L71+4
 859 002c 1A68     		ldr	r2, [r3]
 860 002e 9A42     		cmp	r2, r3
 861 0030 04D0     		beq	.L66
 862 0032 9969     		ldr	r1, [r3, #24]
 863 0034 9368     		ldr	r3, [r2, #8]
 864 0036 8A68     		ldr	r2, [r1, #8]
 865 0038 9A42     		cmp	r2, r3
 866 003a 09D3     		bcc	.L69
 867              	.L66:
 868              	.LVL89:
 869              	.LBB160:
 870              	.LBB161:
 871              	.LBB162:
 872              		.loc 3 546 0
 873 003c 0023     		movs	r3, #0
 874              		.syntax unified
 875              	@ 546 "..//ChibiOS//os/ext/CMSIS/include/core_cmFunc.h" 1
 876 003e 83F31188 		MSR basepri, r3
 877              	@ 0 "" 2
 878              	.LVL90:
 879              		.thumb
 880              		.syntax unified
 881              	.LBE162:
 882              	.LBE161:
 883              	.LBE160:
 884              	.LBE159:
 885              	.LBE158:
 886              		.loc 1 186 0
 887 0042 019A     		ldr	r2, [sp, #4]
 888 0044 2368     		ldr	r3, [r4]
 889 0046 9A42     		cmp	r2, r3
 890 0048 2846     		mov	r0, r5
 891 004a 05D1     		bne	.L70
 892              	.LVL91:
 893 004c 03B0     		add	sp, sp, #12
 894              		.cfi_remember_state
 895              		.cfi_def_cfa_offset 12
 896              		@ sp needed
 897 004e 30BD     		pop	{r4, r5, pc}
 898              	.LVL92:
 899              	.L69:
 900              		.cfi_restore_state
 901              	.LBB164:
 902              	.LBB163:
 903              		.loc 4 367 0
 904 0050 0448     		ldr	r0, .L71+8
 905 0052 FFF7FEFF 		bl	chSysHalt
 906              	.LVL93:
 907 0056 F1E7     		b	.L66
 908              	.LVL94:
 909              	.L70:
 910              	.LBE163:
 911              	.LBE164:
 912              		.loc 1 186 0
ARM GAS  C:\Users\Moi\AppData\Local\Temp\cccK2LaP.s 			page 17


 913 0058 FFF7FEFF 		bl	__stack_chk_fail
 914              	.LVL95:
 915              	.L72:
 916              		.align	2
 917              	.L71:
 918 005c 00000000 		.word	__stack_chk_guard
 919 0060 00000000 		.word	ch
 920 0064 00000000 		.word	.LANCHOR2
 921              		.cfi_endproc
 922              	.LFE224:
 923              		.size	chCondWait, .-chCondWait
 924              		.section	.text.chCondWaitTimeoutS,"ax",%progbits
 925              		.align	1
 926              		.p2align 4,,15
 927              		.global	chCondWaitTimeoutS
 928              		.syntax unified
 929              		.thumb
 930              		.thumb_func
 931              		.fpu fpv4-sp-d16
 932              		.type	chCondWaitTimeoutS, %function
 933              	chCondWaitTimeoutS:
 934              	.LFB227:
 935              		.loc 1 296 0
 936              		.cfi_startproc
 937              		@ args = 0, pretend = 0, frame = 8
 938              		@ frame_needed = 0, uses_anonymous_args = 0
 939              	.LVL96:
 940 0000 2DE9F041 		push	{r4, r5, r6, r7, r8, lr}
 941              		.cfi_def_cfa_offset 24
 942              		.cfi_offset 4, -24
 943              		.cfi_offset 5, -20
 944              		.cfi_offset 6, -16
 945              		.cfi_offset 7, -12
 946              		.cfi_offset 8, -8
 947              		.cfi_offset 14, -4
 948 0004 244F     		ldr	r7, .L93
 949 0006 82B0     		sub	sp, sp, #8
 950              		.cfi_def_cfa_offset 32
 951              		.loc 1 296 0
 952 0008 0546     		mov	r5, r0
 953 000a 3B68     		ldr	r3, [r7]
 954 000c 0193     		str	r3, [sp, #4]
 955 000e 8846     		mov	r8, r1
 956              		.loc 1 300 0
 957 0010 FFF7FEFF 		bl	chDbgCheckClassS
 958              	.LVL97:
 959              		.loc 1 301 0
 960 0014 002D     		cmp	r5, #0
 961 0016 2DD0     		beq	.L74
 962              		.loc 1 301 0 is_stmt 0 discriminator 3
 963 0018 B8F1000F 		cmp	r8, #0
 964 001c 2AD0     		beq	.L74
 965              		.loc 1 302 0 is_stmt 1 discriminator 1
 966 001e 1F4C     		ldr	r4, .L93+4
 967 0020 A369     		ldr	r3, [r4, #24]
 968 0022 1E6C     		ldr	r6, [r3, #64]
 969 0024 002E     		cmp	r6, #0
ARM GAS  C:\Users\Moi\AppData\Local\Temp\cccK2LaP.s 			page 18


 970 0026 2DD0     		beq	.L89
 971              	.L76:
 972              		.loc 1 306 0
 973 0028 3046     		mov	r0, r6
 974 002a FFF7FEFF 		bl	chMtxUnlockS
 975              	.LVL98:
 976              		.loc 1 310 0
 977 002e A469     		ldr	r4, [r4, #24]
 978              		.loc 1 311 0
 979 0030 2A46     		mov	r2, r5
 980              	.LVL99:
 981              		.loc 1 310 0
 982 0032 A562     		str	r5, [r4, #40]
 983              		.loc 1 311 0
 984 0034 2B46     		mov	r3, r5
 985 0036 03E0     		b	.L78
 986              	.LVL100:
 987              	.L91:
 988              	.LBB165:
 989              	.LBB166:
 990              		.loc 2 656 0
 991 0038 9968     		ldr	r1, [r3, #8]
 992 003a A068     		ldr	r0, [r4, #8]
 993 003c 8142     		cmp	r1, r0
 994 003e 27D3     		bcc	.L90
 995              	.LVL101:
 996              	.L78:
 997              		.loc 2 655 0
 998 0040 1B68     		ldr	r3, [r3]
 999              	.LVL102:
 1000              		.loc 2 656 0
 1001 0042 9D42     		cmp	r5, r3
 1002 0044 F8D1     		bne	.L91
 1003              	.LVL103:
 1004              	.L77:
 1005              		.loc 2 658 0
 1006 0046 5368     		ldr	r3, [r2, #4]
 1007              	.LVL104:
 1008 0048 6360     		str	r3, [r4, #4]
 1009              		.loc 2 657 0
 1010 004a 2260     		str	r2, [r4]
 1011              	.LBE166:
 1012              	.LBE165:
 1013              		.loc 1 312 0
 1014 004c 4146     		mov	r1, r8
 1015              	.LBB170:
 1016              	.LBB167:
 1017              		.loc 2 659 0
 1018 004e 1C60     		str	r4, [r3]
 1019              	.LBE167:
 1020              	.LBE170:
 1021              		.loc 1 312 0
 1022 0050 0720     		movs	r0, #7
 1023              	.LBB171:
 1024              	.LBB168:
 1025              		.loc 2 660 0
 1026 0052 5460     		str	r4, [r2, #4]
ARM GAS  C:\Users\Moi\AppData\Local\Temp\cccK2LaP.s 			page 19


 1027              	.LVL105:
 1028              	.LBE168:
 1029              	.LBE171:
 1030              		.loc 1 312 0
 1031 0054 FFF7FEFF 		bl	chSchGoSleepTimeoutS
 1032              	.LVL106:
 1033              		.loc 1 313 0
 1034 0058 431C     		adds	r3, r0, #1
 1035              		.loc 1 312 0
 1036 005a 0446     		mov	r4, r0
 1037              	.LVL107:
 1038              		.loc 1 313 0
 1039 005c 02D0     		beq	.L73
 1040              		.loc 1 314 0
 1041 005e 3046     		mov	r0, r6
 1042              	.LVL108:
 1043 0060 FFF7FEFF 		bl	chMtxLockS
 1044              	.LVL109:
 1045              	.L73:
 1046              		.loc 1 318 0
 1047 0064 019A     		ldr	r2, [sp, #4]
 1048 0066 3B68     		ldr	r3, [r7]
 1049 0068 9A42     		cmp	r2, r3
 1050 006a 2046     		mov	r0, r4
 1051 006c 12D1     		bne	.L92
 1052              	.LVL110:
 1053 006e 02B0     		add	sp, sp, #8
 1054              		.cfi_remember_state
 1055              		.cfi_def_cfa_offset 24
 1056              		@ sp needed
 1057 0070 BDE8F081 		pop	{r4, r5, r6, r7, r8, pc}
 1058              	.LVL111:
 1059              	.L74:
 1060              		.cfi_restore_state
 1061              		.loc 1 302 0 discriminator 4
 1062 0074 094C     		ldr	r4, .L93+4
 1063              		.loc 1 301 0 discriminator 4
 1064 0076 0A48     		ldr	r0, .L93+8
 1065 0078 FFF7FEFF 		bl	chSysHalt
 1066              	.LVL112:
 1067              		.loc 1 302 0 discriminator 4
 1068 007c A369     		ldr	r3, [r4, #24]
 1069 007e 1E6C     		ldr	r6, [r3, #64]
 1070 0080 002E     		cmp	r6, #0
 1071 0082 D1D1     		bne	.L76
 1072              	.L89:
 1073              		.loc 1 302 0 is_stmt 0 discriminator 2
 1074 0084 0648     		ldr	r0, .L93+8
 1075 0086 FFF7FEFF 		bl	chSysHalt
 1076              	.LVL113:
 1077 008a A369     		ldr	r3, [r4, #24]
 1078 008c 1E6C     		ldr	r6, [r3, #64]
 1079 008e CBE7     		b	.L76
 1080              	.LVL114:
 1081              	.L90:
 1082              	.LBB172:
 1083              	.LBB169:
ARM GAS  C:\Users\Moi\AppData\Local\Temp\cccK2LaP.s 			page 20


 1084              		.loc 2 655 0 is_stmt 1
 1085 0090 1A46     		mov	r2, r3
 1086              	.LVL115:
 1087 0092 D8E7     		b	.L77
 1088              	.LVL116:
 1089              	.L92:
 1090              	.LBE169:
 1091              	.LBE172:
 1092              		.loc 1 318 0
 1093 0094 FFF7FEFF 		bl	__stack_chk_fail
 1094              	.LVL117:
 1095              	.L94:
 1096              		.align	2
 1097              	.L93:
 1098 0098 00000000 		.word	__stack_chk_guard
 1099 009c 00000000 		.word	ch
 1100 00a0 00000000 		.word	.LANCHOR6
 1101              		.cfi_endproc
 1102              	.LFE227:
 1103              		.size	chCondWaitTimeoutS, .-chCondWaitTimeoutS
 1104              		.section	.text.chCondWaitTimeout,"ax",%progbits
 1105              		.align	1
 1106              		.p2align 4,,15
 1107              		.global	chCondWaitTimeout
 1108              		.syntax unified
 1109              		.thumb
 1110              		.thumb_func
 1111              		.fpu fpv4-sp-d16
 1112              		.type	chCondWaitTimeout, %function
 1113              	chCondWaitTimeout:
 1114              	.LFB226:
 1115              		.loc 1 258 0
 1116              		.cfi_startproc
 1117              		@ args = 0, pretend = 0, frame = 8
 1118              		@ frame_needed = 0, uses_anonymous_args = 0
 1119              	.LVL118:
 1120 0000 70B5     		push	{r4, r5, r6, lr}
 1121              		.cfi_def_cfa_offset 16
 1122              		.cfi_offset 4, -16
 1123              		.cfi_offset 5, -12
 1124              		.cfi_offset 6, -8
 1125              		.cfi_offset 14, -4
 1126 0002 174C     		ldr	r4, .L101
 1127 0004 82B0     		sub	sp, sp, #8
 1128              		.cfi_def_cfa_offset 24
 1129              		.loc 1 258 0
 1130 0006 2368     		ldr	r3, [r4]
 1131 0008 0193     		str	r3, [sp, #4]
 1132              	.LVL119:
 1133 000a 0546     		mov	r5, r0
 1134 000c 0E46     		mov	r6, r1
 1135              	.LBB183:
 1136              	.LBB184:
 1137              	.LBB185:
 1138              	.LBB186:
 1139              	.LBB187:
 1140              		.loc 3 546 0
ARM GAS  C:\Users\Moi\AppData\Local\Temp\cccK2LaP.s 			page 21


 1141 000e 2023     		movs	r3, #32
 1142              		.syntax unified
 1143              	@ 546 "..//ChibiOS//os/ext/CMSIS/include/core_cmFunc.h" 1
 1144 0010 83F31188 		MSR basepri, r3
 1145              	@ 0 "" 2
 1146              	.LVL120:
 1147              		.thumb
 1148              		.syntax unified
 1149              	.LBE187:
 1150              	.LBE186:
 1151              	.LBE185:
 1152              		.loc 4 349 0
 1153 0014 FFF7FEFF 		bl	_stats_start_measure_crit_thd
 1154              	.LVL121:
 1155              		.loc 4 350 0
 1156 0018 FFF7FEFF 		bl	_dbg_check_lock
 1157              	.LVL122:
 1158              	.LBE184:
 1159              	.LBE183:
 1160              		.loc 1 262 0
 1161 001c 3146     		mov	r1, r6
 1162 001e 2846     		mov	r0, r5
 1163 0020 FFF7FEFF 		bl	chCondWaitTimeoutS
 1164              	.LVL123:
 1165 0024 0546     		mov	r5, r0
 1166              	.LVL124:
 1167              	.LBB188:
 1168              	.LBB189:
 1169              		.loc 4 360 0
 1170 0026 FFF7FEFF 		bl	_dbg_check_unlock
 1171              	.LVL125:
 1172              		.loc 4 361 0
 1173 002a FFF7FEFF 		bl	_stats_stop_measure_crit_thd
 1174              	.LVL126:
 1175              		.loc 4 367 0
 1176 002e 0D4B     		ldr	r3, .L101+4
 1177 0030 1A68     		ldr	r2, [r3]
 1178 0032 9A42     		cmp	r2, r3
 1179 0034 04D0     		beq	.L96
 1180 0036 9969     		ldr	r1, [r3, #24]
 1181 0038 9368     		ldr	r3, [r2, #8]
 1182 003a 8A68     		ldr	r2, [r1, #8]
 1183 003c 9A42     		cmp	r2, r3
 1184 003e 09D3     		bcc	.L99
 1185              	.L96:
 1186              	.LVL127:
 1187              	.LBB190:
 1188              	.LBB191:
 1189              	.LBB192:
 1190              		.loc 3 546 0
 1191 0040 0023     		movs	r3, #0
 1192              		.syntax unified
 1193              	@ 546 "..//ChibiOS//os/ext/CMSIS/include/core_cmFunc.h" 1
 1194 0042 83F31188 		MSR basepri, r3
 1195              	@ 0 "" 2
 1196              	.LVL128:
 1197              		.thumb
ARM GAS  C:\Users\Moi\AppData\Local\Temp\cccK2LaP.s 			page 22


 1198              		.syntax unified
 1199              	.LBE192:
 1200              	.LBE191:
 1201              	.LBE190:
 1202              	.LBE189:
 1203              	.LBE188:
 1204              		.loc 1 266 0
 1205 0046 019A     		ldr	r2, [sp, #4]
 1206 0048 2368     		ldr	r3, [r4]
 1207 004a 9A42     		cmp	r2, r3
 1208 004c 2846     		mov	r0, r5
 1209 004e 05D1     		bne	.L100
 1210              	.LVL129:
 1211 0050 02B0     		add	sp, sp, #8
 1212              		.cfi_remember_state
 1213              		.cfi_def_cfa_offset 16
 1214              		@ sp needed
 1215 0052 70BD     		pop	{r4, r5, r6, pc}
 1216              	.LVL130:
 1217              	.L99:
 1218              		.cfi_restore_state
 1219              	.LBB194:
 1220              	.LBB193:
 1221              		.loc 4 367 0
 1222 0054 0448     		ldr	r0, .L101+8
 1223 0056 FFF7FEFF 		bl	chSysHalt
 1224              	.LVL131:
 1225 005a F1E7     		b	.L96
 1226              	.LVL132:
 1227              	.L100:
 1228              	.LBE193:
 1229              	.LBE194:
 1230              		.loc 1 266 0
 1231 005c FFF7FEFF 		bl	__stack_chk_fail
 1232              	.LVL133:
 1233              	.L102:
 1234              		.align	2
 1235              	.L101:
 1236 0060 00000000 		.word	__stack_chk_guard
 1237 0064 00000000 		.word	ch
 1238 0068 00000000 		.word	.LANCHOR2
 1239              		.cfi_endproc
 1240              	.LFE226:
 1241              		.size	chCondWaitTimeout, .-chCondWaitTimeout
 1242              		.section	.rodata.__func__.7153,"a",%progbits
 1243              		.align	2
 1244              		.set	.LANCHOR2,. + 0
 1245              		.type	__func__.7153, %object
 1246              		.size	__func__.7153, 12
 1247              	__func__.7153:
 1248 0000 63685379 		.ascii	"chSysUnlock\000"
 1248      73556E6C 
 1248      6F636B00 
 1249              		.section	.rodata.__func__.7849,"a",%progbits
 1250              		.align	2
 1251              		.set	.LANCHOR0,. + 0
 1252              		.type	__func__.7849, %object
ARM GAS  C:\Users\Moi\AppData\Local\Temp\cccK2LaP.s 			page 23


 1253              		.size	__func__.7849, 17
 1254              	__func__.7849:
 1255 0000 6368436F 		.ascii	"chCondObjectInit\000"
 1255      6E644F62 
 1255      6A656374 
 1255      496E6974 
 1255      00
 1256              		.section	.rodata.__func__.7853,"a",%progbits
 1257              		.align	2
 1258              		.set	.LANCHOR1,. + 0
 1259              		.type	__func__.7853, %object
 1260              		.size	__func__.7853, 13
 1261              	__func__.7853:
 1262 0000 6368436F 		.ascii	"chCondSignal\000"
 1262      6E645369 
 1262      676E616C 
 1262      00
 1263              		.section	.rodata.__func__.7857,"a",%progbits
 1264              		.align	2
 1265              		.set	.LANCHOR3,. + 0
 1266              		.type	__func__.7857, %object
 1267              		.size	__func__.7857, 14
 1268              	__func__.7857:
 1269 0000 6368436F 		.ascii	"chCondSignalI\000"
 1269      6E645369 
 1269      676E616C 
 1269      4900
 1270              		.section	.rodata.__func__.7865,"a",%progbits
 1271              		.align	2
 1272              		.set	.LANCHOR4,. + 0
 1273              		.type	__func__.7865, %object
 1274              		.size	__func__.7865, 17
 1275              	__func__.7865:
 1276 0000 6368436F 		.ascii	"chCondBroadcastI\000"
 1276      6E644272 
 1276      6F616463 
 1276      61737449 
 1276      00
 1277              		.section	.rodata.__func__.7879,"a",%progbits
 1278              		.align	2
 1279              		.set	.LANCHOR5,. + 0
 1280              		.type	__func__.7879, %object
 1281              		.size	__func__.7879, 12
 1282              	__func__.7879:
 1283 0000 6368436F 		.ascii	"chCondWaitS\000"
 1283      6E645761 
 1283      69745300 
 1284              		.section	.rodata.__func__.7891,"a",%progbits
 1285              		.align	2
 1286              		.set	.LANCHOR6,. + 0
 1287              		.type	__func__.7891, %object
 1288              		.size	__func__.7891, 19
 1289              	__func__.7891:
 1290 0000 6368436F 		.ascii	"chCondWaitTimeoutS\000"
 1290      6E645761 
 1290      69745469 
 1290      6D656F75 
ARM GAS  C:\Users\Moi\AppData\Local\Temp\cccK2LaP.s 			page 24


 1290      745300
 1291              		.text
 1292              	.Letext0:
 1293              		.file 6 "c:\\users\\moi\\documents\\_microinfo\\epuck-eclipse\\tools\\gcc-arm-none-eabi-7-2017-q4-
 1294              		.file 7 "c:\\users\\moi\\documents\\_microinfo\\epuck-eclipse\\tools\\gcc-arm-none-eabi-7-2017-q4-
 1295              		.file 8 "..//ChibiOS//os/rt/ports/ARMCMx/compilers/GCC/chtypes.h"
 1296              		.file 9 "..//ChibiOS//os/rt/include/chsystypes.h"
 1297              		.file 10 "..//ChibiOS//os/ext/CMSIS/include/core_cm4.h"
 1298              		.file 11 "..//ChibiOS//os/ext/CMSIS/ST/system_stm32f4xx.h"
 1299              		.file 12 "..//ChibiOS//os/rt/ports/ARMCMx/chcore.h"
 1300              		.file 13 "..//ChibiOS//os/rt/ports/ARMCMx/chcore_v7m.h"
 1301              		.file 14 "..//ChibiOS//os/rt/include/chdebug.h"
 1302              		.file 15 "..//ChibiOS//os/rt/include/chtm.h"
 1303              		.file 16 "..//ChibiOS//os/rt/include/chstats.h"
 1304              		.file 17 "..//ChibiOS//os/rt/include/chsem.h"
 1305              		.file 18 "..//ChibiOS//os/rt/include/chregistry.h"
 1306              		.file 19 "..//ChibiOS//os/rt/include/chcond.h"
 1307              		.file 20 "..//ChibiOS//os/rt/include/chthreads.h"