ARM GAS  C:\Users\Moi\AppData\Local\Temp\ccEMjYGE.s 			page 1


   1              		.cpu cortex-m4
   2              		.eabi_attribute 27, 1
   3              		.eabi_attribute 28, 1
   4              		.eabi_attribute 20, 1
   5              		.eabi_attribute 21, 1
   6              		.eabi_attribute 23, 3
   7              		.eabi_attribute 24, 1
   8              		.eabi_attribute 25, 1
   9              		.eabi_attribute 26, 1
  10              		.eabi_attribute 30, 2
  11              		.eabi_attribute 34, 1
  12              		.eabi_attribute 18, 4
  13              		.file	"chdynamic.c"
  14              		.text
  15              	.Ltext0:
  16              		.cfi_sections	.debug_frame
  17              		.section	.text.chThdAddRef,"ax",%progbits
  18              		.align	1
  19              		.p2align 4,,15
  20              		.global	chThdAddRef
  21              		.syntax unified
  22              		.thumb
  23              		.thumb_func
  24              		.fpu fpv4-sp-d16
  25              		.type	chThdAddRef, %function
  26              	chThdAddRef:
  27              	.LFB219:
  28              		.file 1 "..//ChibiOS//os/rt/src/chdynamic.c"
  29              		.loc 1 68 0
  30              		.cfi_startproc
  31              		@ args = 0, pretend = 0, frame = 8
  32              		@ frame_needed = 0, uses_anonymous_args = 0
  33              	.LVL0:
  34 0000 30B5     		push	{r4, r5, lr}
  35              		.cfi_def_cfa_offset 12
  36              		.cfi_offset 4, -12
  37              		.cfi_offset 5, -8
  38              		.cfi_offset 14, -4
  39 0002 1B4D     		ldr	r5, .L10
  40 0004 83B0     		sub	sp, sp, #12
  41              		.cfi_def_cfa_offset 24
  42              		.loc 1 68 0
  43 0006 2B68     		ldr	r3, [r5]
  44 0008 0193     		str	r3, [sp, #4]
  45              	.LVL1:
  46 000a 0446     		mov	r4, r0
  47              	.LBB44:
  48              	.LBB45:
  49              	.LBB46:
  50              	.LBB47:
  51              	.LBB48:
  52              		.file 2 "..//ChibiOS//os/ext/CMSIS/include/core_cmFunc.h"
  53              		.loc 2 546 0
  54 000c 2023     		movs	r3, #32
  55              		.syntax unified
  56              	@ 546 "..//ChibiOS//os/ext/CMSIS/include/core_cmFunc.h" 1
  57 000e 83F31188 		MSR basepri, r3
ARM GAS  C:\Users\Moi\AppData\Local\Temp\ccEMjYGE.s 			page 2


  58              	@ 0 "" 2
  59              	.LVL2:
  60              		.thumb
  61              		.syntax unified
  62              	.LBE48:
  63              	.LBE47:
  64              	.LBE46:
  65              		.file 3 "..//ChibiOS//os/rt/include/chsys.h"
  66              		.loc 3 349 0
  67 0012 FFF7FEFF 		bl	_stats_start_measure_crit_thd
  68              	.LVL3:
  69              		.loc 3 350 0
  70 0016 FFF7FEFF 		bl	_dbg_check_lock
  71              	.LVL4:
  72              	.LBE45:
  73              	.LBE44:
  74              		.loc 1 71 0
  75 001a 94F82230 		ldrb	r3, [r4, #34]	@ zero_extendqisi2
  76 001e FF2B     		cmp	r3, #255
  77 0020 1DD0     		beq	.L7
  78              	.L2:
  79              		.loc 1 72 0
  80 0022 0133     		adds	r3, r3, #1
  81 0024 84F82230 		strb	r3, [r4, #34]
  82              	.LBB49:
  83              	.LBB50:
  84              		.loc 3 360 0
  85 0028 FFF7FEFF 		bl	_dbg_check_unlock
  86              	.LVL5:
  87              		.loc 3 361 0
  88 002c FFF7FEFF 		bl	_stats_stop_measure_crit_thd
  89              	.LVL6:
  90              		.loc 3 367 0
  91 0030 104B     		ldr	r3, .L10+4
  92 0032 1A68     		ldr	r2, [r3]
  93 0034 9A42     		cmp	r2, r3
  94 0036 04D0     		beq	.L3
  95 0038 9969     		ldr	r1, [r3, #24]
  96 003a 9368     		ldr	r3, [r2, #8]
  97 003c 8A68     		ldr	r2, [r1, #8]
  98 003e 9A42     		cmp	r2, r3
  99 0040 09D3     		bcc	.L8
 100              	.L3:
 101              	.LVL7:
 102              	.LBB51:
 103              	.LBB52:
 104              	.LBB53:
 105              		.loc 2 546 0
 106 0042 0023     		movs	r3, #0
 107              		.syntax unified
 108              	@ 546 "..//ChibiOS//os/ext/CMSIS/include/core_cmFunc.h" 1
 109 0044 83F31188 		MSR basepri, r3
 110              	@ 0 "" 2
 111              	.LVL8:
 112              		.thumb
 113              		.syntax unified
 114              	.LBE53:
ARM GAS  C:\Users\Moi\AppData\Local\Temp\ccEMjYGE.s 			page 3


 115              	.LBE52:
 116              	.LBE51:
 117              	.LBE50:
 118              	.LBE49:
 119              		.loc 1 76 0
 120 0048 019A     		ldr	r2, [sp, #4]
 121 004a 2B68     		ldr	r3, [r5]
 122 004c 9A42     		cmp	r2, r3
 123 004e 2046     		mov	r0, r4
 124 0050 0BD1     		bne	.L9
 125              	.LVL9:
 126 0052 03B0     		add	sp, sp, #12
 127              		.cfi_remember_state
 128              		.cfi_def_cfa_offset 12
 129              		@ sp needed
 130 0054 30BD     		pop	{r4, r5, pc}
 131              	.LVL10:
 132              	.L8:
 133              		.cfi_restore_state
 134              	.LBB55:
 135              	.LBB54:
 136              		.loc 3 367 0
 137 0056 0848     		ldr	r0, .L10+8
 138 0058 FFF7FEFF 		bl	chSysHalt
 139              	.LVL11:
 140 005c F1E7     		b	.L3
 141              	.L7:
 142              	.LBE54:
 143              	.LBE55:
 144              		.loc 1 71 0 discriminator 2
 145 005e 0748     		ldr	r0, .L10+12
 146 0060 FFF7FEFF 		bl	chSysHalt
 147              	.LVL12:
 148 0064 94F82230 		ldrb	r3, [r4, #34]	@ zero_extendqisi2
 149 0068 DBE7     		b	.L2
 150              	.LVL13:
 151              	.L9:
 152              		.loc 1 76 0
 153 006a FFF7FEFF 		bl	__stack_chk_fail
 154              	.LVL14:
 155              	.L11:
 156 006e 00BF     		.align	2
 157              	.L10:
 158 0070 00000000 		.word	__stack_chk_guard
 159 0074 00000000 		.word	ch
 160 0078 00000000 		.word	.LANCHOR1
 161 007c 00000000 		.word	.LANCHOR0
 162              		.cfi_endproc
 163              	.LFE219:
 164              		.size	chThdAddRef, .-chThdAddRef
 165              		.section	.text.chThdRelease,"ax",%progbits
 166              		.align	1
 167              		.p2align 4,,15
 168              		.global	chThdRelease
 169              		.syntax unified
 170              		.thumb
 171              		.thumb_func
ARM GAS  C:\Users\Moi\AppData\Local\Temp\ccEMjYGE.s 			page 4


 172              		.fpu fpv4-sp-d16
 173              		.type	chThdRelease, %function
 174              	chThdRelease:
 175              	.LFB220:
 176              		.loc 1 91 0
 177              		.cfi_startproc
 178              		@ args = 0, pretend = 0, frame = 8
 179              		@ frame_needed = 0, uses_anonymous_args = 0
 180              	.LVL15:
 181 0000 70B5     		push	{r4, r5, r6, lr}
 182              		.cfi_def_cfa_offset 16
 183              		.cfi_offset 4, -16
 184              		.cfi_offset 5, -12
 185              		.cfi_offset 6, -8
 186              		.cfi_offset 14, -4
 187 0002 314E     		ldr	r6, .L27
 188 0004 82B0     		sub	sp, sp, #8
 189              		.cfi_def_cfa_offset 24
 190              		.loc 1 91 0
 191 0006 3368     		ldr	r3, [r6]
 192 0008 0193     		str	r3, [sp, #4]
 193              	.LVL16:
 194 000a 0546     		mov	r5, r0
 195              	.LBB66:
 196              	.LBB67:
 197              	.LBB68:
 198              	.LBB69:
 199              	.LBB70:
 200              		.loc 2 546 0
 201 000c 2023     		movs	r3, #32
 202              		.syntax unified
 203              	@ 546 "..//ChibiOS//os/ext/CMSIS/include/core_cmFunc.h" 1
 204 000e 83F31188 		MSR basepri, r3
 205              	@ 0 "" 2
 206              	.LVL17:
 207              		.thumb
 208              		.syntax unified
 209              	.LBE70:
 210              	.LBE69:
 211              	.LBE68:
 212              		.loc 3 349 0
 213 0012 FFF7FEFF 		bl	_stats_start_measure_crit_thd
 214              	.LVL18:
 215              		.loc 3 350 0
 216 0016 FFF7FEFF 		bl	_dbg_check_lock
 217              	.LVL19:
 218              	.LBE67:
 219              	.LBE66:
 220              		.loc 1 95 0
 221 001a 95F82230 		ldrb	r3, [r5, #34]	@ zero_extendqisi2
 222 001e 002B     		cmp	r3, #0
 223 0020 3AD0     		beq	.L24
 224              	.L13:
 225              		.loc 1 96 0
 226 0022 013B     		subs	r3, r3, #1
 227 0024 DCB2     		uxtb	r4, r3
 228 0026 85F82240 		strb	r4, [r5, #34]
ARM GAS  C:\Users\Moi\AppData\Local\Temp\ccEMjYGE.s 			page 5


 229              	.LVL20:
 230              	.LBB71:
 231              	.LBB72:
 232              		.loc 3 360 0
 233 002a FFF7FEFF 		bl	_dbg_check_unlock
 234              	.LVL21:
 235              		.loc 3 361 0
 236 002e FFF7FEFF 		bl	_stats_stop_measure_crit_thd
 237              	.LVL22:
 238              		.loc 3 367 0
 239 0032 264B     		ldr	r3, .L27+4
 240 0034 1A68     		ldr	r2, [r3]
 241 0036 9A42     		cmp	r2, r3
 242 0038 04D0     		beq	.L14
 243 003a 9969     		ldr	r1, [r3, #24]
 244 003c 9368     		ldr	r3, [r2, #8]
 245 003e 8A68     		ldr	r2, [r1, #8]
 246 0040 9A42     		cmp	r2, r3
 247 0042 0DD3     		bcc	.L25
 248              	.L14:
 249              	.LVL23:
 250              	.LBB73:
 251              	.LBB74:
 252              	.LBB75:
 253              		.loc 2 546 0
 254 0044 0023     		movs	r3, #0
 255              		.syntax unified
 256              	@ 546 "..//ChibiOS//os/ext/CMSIS/include/core_cmFunc.h" 1
 257 0046 83F31188 		MSR basepri, r3
 258              	@ 0 "" 2
 259              	.LVL24:
 260              		.thumb
 261              		.syntax unified
 262              	.LBE75:
 263              	.LBE74:
 264              	.LBE73:
 265              	.LBE72:
 266              	.LBE71:
 267              		.loc 1 103 0
 268 004a 1CB9     		cbnz	r4, .L12
 269              		.loc 1 103 0 is_stmt 0 discriminator 1
 270 004c 95F82030 		ldrb	r3, [r5, #32]	@ zero_extendqisi2
 271 0050 0F2B     		cmp	r3, #15
 272 0052 09D0     		beq	.L26
 273              	.L12:
 274              		.loc 1 127 0 is_stmt 1
 275 0054 019A     		ldr	r2, [sp, #4]
 276 0056 3368     		ldr	r3, [r6]
 277 0058 9A42     		cmp	r2, r3
 278 005a 32D1     		bne	.L23
 279 005c 02B0     		add	sp, sp, #8
 280              		.cfi_remember_state
 281              		.cfi_def_cfa_offset 16
 282              		@ sp needed
 283 005e 70BD     		pop	{r4, r5, r6, pc}
 284              	.LVL25:
 285              	.L25:
ARM GAS  C:\Users\Moi\AppData\Local\Temp\ccEMjYGE.s 			page 6


 286              		.cfi_restore_state
 287              	.LBB77:
 288              	.LBB76:
 289              		.loc 3 367 0
 290 0060 1B48     		ldr	r0, .L27+8
 291 0062 FFF7FEFF 		bl	chSysHalt
 292              	.LVL26:
 293 0066 EDE7     		b	.L14
 294              	.L26:
 295              	.LBE76:
 296              	.LBE77:
 297              		.loc 1 104 0
 298 0068 95F82130 		ldrb	r3, [r5, #33]	@ zero_extendqisi2
 299 006c 03F00303 		and	r3, r3, #3
 300 0070 012B     		cmp	r3, #1
 301 0072 17D0     		beq	.L16
 302 0074 022B     		cmp	r3, #2
 303 0076 EDD1     		bne	.L12
 304              		.loc 1 116 0
 305 0078 D5E90423 		ldrd	r2, r3, [r5, #16]
 306              		.loc 1 118 0
 307 007c 0199     		ldr	r1, [sp, #4]
 308              		.loc 1 116 0
 309 007e 1A61     		str	r2, [r3, #16]
 310              		.loc 1 118 0
 311 0080 3268     		ldr	r2, [r6]
 312              		.loc 1 116 0
 313 0082 2869     		ldr	r0, [r5, #16]
 314              		.loc 1 118 0
 315 0084 9142     		cmp	r1, r2
 316              		.loc 1 116 0
 317 0086 4361     		str	r3, [r0, #20]
 318              		.loc 1 118 0
 319 0088 1BD1     		bne	.L23
 320 008a A86C     		ldr	r0, [r5, #72]
 321 008c 2946     		mov	r1, r5
 322              		.loc 1 127 0
 323 008e 02B0     		add	sp, sp, #8
 324              		.cfi_remember_state
 325              		.cfi_def_cfa_offset 16
 326              		@ sp needed
 327 0090 BDE87040 		pop	{r4, r5, r6, lr}
 328              		.cfi_restore 14
 329              		.cfi_restore 6
 330              		.cfi_restore 5
 331              		.cfi_restore 4
 332              		.cfi_def_cfa_offset 0
 333              	.LVL27:
 334              		.loc 1 118 0
 335 0094 FFF7FEBF 		b	chPoolFree
 336              	.LVL28:
 337              	.L24:
 338              		.cfi_restore_state
 339              		.loc 1 95 0 discriminator 2
 340 0098 0E48     		ldr	r0, .L27+12
 341 009a FFF7FEFF 		bl	chSysHalt
 342              	.LVL29:
ARM GAS  C:\Users\Moi\AppData\Local\Temp\ccEMjYGE.s 			page 7


 343 009e 95F82230 		ldrb	r3, [r5, #34]	@ zero_extendqisi2
 344 00a2 BEE7     		b	.L13
 345              	.LVL30:
 346              	.L16:
 347              		.loc 1 108 0
 348 00a4 D5E90423 		ldrd	r2, r3, [r5, #16]
 349              		.loc 1 110 0
 350 00a8 0199     		ldr	r1, [sp, #4]
 351              		.loc 1 108 0
 352 00aa 1A61     		str	r2, [r3, #16]
 353              		.loc 1 110 0
 354 00ac 3268     		ldr	r2, [r6]
 355              		.loc 1 108 0
 356 00ae 2869     		ldr	r0, [r5, #16]
 357              		.loc 1 110 0
 358 00b0 9142     		cmp	r1, r2
 359              		.loc 1 108 0
 360 00b2 4361     		str	r3, [r0, #20]
 361              		.loc 1 110 0
 362 00b4 05D1     		bne	.L23
 363 00b6 2846     		mov	r0, r5
 364              		.loc 1 127 0
 365 00b8 02B0     		add	sp, sp, #8
 366              		.cfi_remember_state
 367              		.cfi_def_cfa_offset 16
 368              		@ sp needed
 369 00ba BDE87040 		pop	{r4, r5, r6, lr}
 370              		.cfi_restore 14
 371              		.cfi_restore 6
 372              		.cfi_restore 5
 373              		.cfi_restore 4
 374              		.cfi_def_cfa_offset 0
 375              	.LVL31:
 376              		.loc 1 110 0
 377 00be FFF7FEBF 		b	chHeapFree
 378              	.LVL32:
 379              	.L23:
 380              		.cfi_restore_state
 381              		.loc 1 127 0
 382 00c2 FFF7FEFF 		bl	__stack_chk_fail
 383              	.LVL33:
 384              	.L28:
 385 00c6 00BF     		.align	2
 386              	.L27:
 387 00c8 00000000 		.word	__stack_chk_guard
 388 00cc 00000000 		.word	ch
 389 00d0 00000000 		.word	.LANCHOR1
 390 00d4 00000000 		.word	.LANCHOR2
 391              		.cfi_endproc
 392              	.LFE220:
 393              		.size	chThdRelease, .-chThdRelease
 394              		.section	.text.chThdCreateFromHeap,"ax",%progbits
 395              		.align	1
 396              		.p2align 4,,15
 397              		.global	chThdCreateFromHeap
 398              		.syntax unified
 399              		.thumb
ARM GAS  C:\Users\Moi\AppData\Local\Temp\ccEMjYGE.s 			page 8


 400              		.thumb_func
 401              		.fpu fpv4-sp-d16
 402              		.type	chThdCreateFromHeap, %function
 403              	chThdCreateFromHeap:
 404              	.LFB221:
 405              		.loc 1 153 0
 406              		.cfi_startproc
 407              		@ args = 4, pretend = 0, frame = 8
 408              		@ frame_needed = 0, uses_anonymous_args = 0
 409              	.LVL34:
 410 0000 2DE9F047 		push	{r4, r5, r6, r7, r8, r9, r10, lr}
 411              		.cfi_def_cfa_offset 32
 412              		.cfi_offset 4, -32
 413              		.cfi_offset 5, -28
 414              		.cfi_offset 6, -24
 415              		.cfi_offset 7, -20
 416              		.cfi_offset 8, -16
 417              		.cfi_offset 9, -12
 418              		.cfi_offset 10, -8
 419              		.cfi_offset 14, -4
 420 0004 254D     		ldr	r5, .L37
 421 0006 84B0     		sub	sp, sp, #16
 422              		.cfi_def_cfa_offset 48
 423              		.loc 1 153 0
 424 0008 2C68     		ldr	r4, [r5]
 425 000a 0394     		str	r4, [sp, #12]
 426 000c DDF830A0 		ldr	r10, [sp, #48]
 427 0010 9046     		mov	r8, r2
 428 0012 9946     		mov	r9, r3
 429 0014 0E46     		mov	r6, r1
 430              		.loc 1 157 0
 431 0016 FFF7FEFF 		bl	chHeapAlloc
 432              	.LVL35:
 433              		.loc 1 158 0
 434 001a 0446     		mov	r4, r0
 435 001c 80B3     		cbz	r0, .L29
 436              		.loc 1 163 0
 437 001e 00F16807 		add	r7, r0, #104
 438 0022 3946     		mov	r1, r7
 439 0024 FF22     		movs	r2, #255
 440 0026 FFF7FEFF 		bl	_thread_memfill
 441              	.LVL36:
 442              		.loc 1 166 0
 443 002a 3846     		mov	r0, r7
 444 002c 5522     		movs	r2, #85
 445 002e A119     		adds	r1, r4, r6
 446 0030 FFF7FEFF 		bl	_thread_memfill
 447              	.LVL37:
 448              	.LBB88:
 449              	.LBB89:
 450              	.LBB90:
 451              	.LBB91:
 452              	.LBB92:
 453              		.loc 2 546 0
 454 0034 2023     		movs	r3, #32
 455              		.syntax unified
 456              	@ 546 "..//ChibiOS//os/ext/CMSIS/include/core_cmFunc.h" 1
ARM GAS  C:\Users\Moi\AppData\Local\Temp\ccEMjYGE.s 			page 9


 457 0036 83F31188 		MSR basepri, r3
 458              	@ 0 "" 2
 459              	.LVL38:
 460              		.thumb
 461              		.syntax unified
 462              	.LBE92:
 463              	.LBE91:
 464              	.LBE90:
 465              		.loc 3 349 0
 466 003a FFF7FEFF 		bl	_stats_start_measure_crit_thd
 467              	.LVL39:
 468              		.loc 3 350 0
 469 003e FFF7FEFF 		bl	_dbg_check_lock
 470              	.LVL40:
 471              	.LBE89:
 472              	.LBE88:
 473              		.loc 1 172 0
 474 0042 4246     		mov	r2, r8
 475 0044 4B46     		mov	r3, r9
 476 0046 3146     		mov	r1, r6
 477 0048 2046     		mov	r0, r4
 478 004a CDF800A0 		str	r10, [sp]
 479 004e FFF7FEFF 		bl	chThdCreateI
 480              	.LVL41:
 481              		.loc 1 173 0
 482 0052 0123     		movs	r3, #1
 483 0054 80F82130 		strb	r3, [r0, #33]
 484              		.loc 1 174 0
 485 0058 0021     		movs	r1, #0
 486              		.loc 1 172 0
 487 005a 0446     		mov	r4, r0
 488              	.LVL42:
 489              		.loc 1 174 0
 490 005c FFF7FEFF 		bl	chSchWakeupS
 491              	.LVL43:
 492              	.LBB93:
 493              	.LBB94:
 494              		.loc 3 360 0
 495 0060 FFF7FEFF 		bl	_dbg_check_unlock
 496              	.LVL44:
 497              		.loc 3 361 0
 498 0064 FFF7FEFF 		bl	_stats_stop_measure_crit_thd
 499              	.LVL45:
 500              		.loc 3 367 0
 501 0068 0D4B     		ldr	r3, .L37+4
 502 006a 1A68     		ldr	r2, [r3]
 503 006c 9A42     		cmp	r2, r3
 504 006e 04D0     		beq	.L31
 505 0070 9969     		ldr	r1, [r3, #24]
 506 0072 9368     		ldr	r3, [r2, #8]
 507 0074 8A68     		ldr	r2, [r1, #8]
 508 0076 9A42     		cmp	r2, r3
 509 0078 0AD3     		bcc	.L35
 510              	.L31:
 511              	.LVL46:
 512              	.LBB95:
 513              	.LBB96:
ARM GAS  C:\Users\Moi\AppData\Local\Temp\ccEMjYGE.s 			page 10


 514              	.LBB97:
 515              		.loc 2 546 0
 516 007a 0023     		movs	r3, #0
 517              		.syntax unified
 518              	@ 546 "..//ChibiOS//os/ext/CMSIS/include/core_cmFunc.h" 1
 519 007c 83F31188 		MSR basepri, r3
 520              	@ 0 "" 2
 521              	.LVL47:
 522              		.thumb
 523              		.syntax unified
 524              	.L29:
 525              	.LBE97:
 526              	.LBE96:
 527              	.LBE95:
 528              	.LBE94:
 529              	.LBE93:
 530              		.loc 1 178 0
 531 0080 039A     		ldr	r2, [sp, #12]
 532 0082 2B68     		ldr	r3, [r5]
 533 0084 9A42     		cmp	r2, r3
 534 0086 2046     		mov	r0, r4
 535 0088 06D1     		bne	.L36
 536 008a 04B0     		add	sp, sp, #16
 537              		.cfi_remember_state
 538              		.cfi_def_cfa_offset 32
 539              		@ sp needed
 540 008c BDE8F087 		pop	{r4, r5, r6, r7, r8, r9, r10, pc}
 541              	.LVL48:
 542              	.L35:
 543              		.cfi_restore_state
 544              	.LBB99:
 545              	.LBB98:
 546              		.loc 3 367 0
 547 0090 0448     		ldr	r0, .L37+8
 548 0092 FFF7FEFF 		bl	chSysHalt
 549              	.LVL49:
 550 0096 F0E7     		b	.L31
 551              	.LVL50:
 552              	.L36:
 553              	.LBE98:
 554              	.LBE99:
 555              		.loc 1 178 0
 556 0098 FFF7FEFF 		bl	__stack_chk_fail
 557              	.LVL51:
 558              	.L38:
 559              		.align	2
 560              	.L37:
 561 009c 00000000 		.word	__stack_chk_guard
 562 00a0 00000000 		.word	ch
 563 00a4 00000000 		.word	.LANCHOR1
 564              		.cfi_endproc
 565              	.LFE221:
 566              		.size	chThdCreateFromHeap, .-chThdCreateFromHeap
 567              		.section	.text.chThdCreateFromMemoryPool,"ax",%progbits
 568              		.align	1
 569              		.p2align 4,,15
 570              		.global	chThdCreateFromMemoryPool
ARM GAS  C:\Users\Moi\AppData\Local\Temp\ccEMjYGE.s 			page 11


 571              		.syntax unified
 572              		.thumb
 573              		.thumb_func
 574              		.fpu fpv4-sp-d16
 575              		.type	chThdCreateFromMemoryPool, %function
 576              	chThdCreateFromMemoryPool:
 577              	.LFB222:
 578              		.loc 1 205 0
 579              		.cfi_startproc
 580              		@ args = 0, pretend = 0, frame = 8
 581              		@ frame_needed = 0, uses_anonymous_args = 0
 582              	.LVL52:
 583 0000 2DE9F047 		push	{r4, r5, r6, r7, r8, r9, r10, lr}
 584              		.cfi_def_cfa_offset 32
 585              		.cfi_offset 4, -32
 586              		.cfi_offset 5, -28
 587              		.cfi_offset 6, -24
 588              		.cfi_offset 7, -20
 589              		.cfi_offset 8, -16
 590              		.cfi_offset 9, -12
 591              		.cfi_offset 10, -8
 592              		.cfi_offset 14, -4
 593 0004 294E     		ldr	r6, .L49
 594 0006 84B0     		sub	sp, sp, #16
 595              		.cfi_def_cfa_offset 48
 596              		.loc 1 205 0
 597 0008 3468     		ldr	r4, [r6]
 598 000a 0394     		str	r4, [sp, #12]
 599 000c 8846     		mov	r8, r1
 600 000e 9146     		mov	r9, r2
 601 0010 9A46     		mov	r10, r3
 602              		.loc 1 209 0
 603 0012 0546     		mov	r5, r0
 604 0014 0028     		cmp	r0, #0
 605 0016 43D0     		beq	.L46
 606              	.LVL53:
 607              	.L40:
 608              		.loc 1 211 0
 609 0018 2846     		mov	r0, r5
 610 001a FFF7FEFF 		bl	chPoolAlloc
 611              	.LVL54:
 612              		.loc 1 212 0
 613 001e 0446     		mov	r4, r0
 614 0020 90B3     		cbz	r0, .L39
 615              		.loc 1 217 0
 616 0022 00F16807 		add	r7, r0, #104
 617 0026 3946     		mov	r1, r7
 618 0028 FF22     		movs	r2, #255
 619 002a FFF7FEFF 		bl	_thread_memfill
 620              	.LVL55:
 621              		.loc 1 220 0
 622 002e 6968     		ldr	r1, [r5, #4]
 623 0030 3846     		mov	r0, r7
 624 0032 2144     		add	r1, r1, r4
 625 0034 5522     		movs	r2, #85
 626 0036 FFF7FEFF 		bl	_thread_memfill
 627              	.LVL56:
ARM GAS  C:\Users\Moi\AppData\Local\Temp\ccEMjYGE.s 			page 12


 628              	.LBB110:
 629              	.LBB111:
 630              	.LBB112:
 631              	.LBB113:
 632              	.LBB114:
 633              		.loc 2 546 0
 634 003a 2023     		movs	r3, #32
 635              		.syntax unified
 636              	@ 546 "..//ChibiOS//os/ext/CMSIS/include/core_cmFunc.h" 1
 637 003c 83F31188 		MSR basepri, r3
 638              	@ 0 "" 2
 639              	.LVL57:
 640              		.thumb
 641              		.syntax unified
 642              	.LBE114:
 643              	.LBE113:
 644              	.LBE112:
 645              		.loc 3 349 0
 646 0040 FFF7FEFF 		bl	_stats_start_measure_crit_thd
 647              	.LVL58:
 648              		.loc 3 350 0
 649 0044 FFF7FEFF 		bl	_dbg_check_lock
 650              	.LVL59:
 651              	.LBE111:
 652              	.LBE110:
 653              		.loc 1 226 0
 654 0048 4246     		mov	r2, r8
 655 004a 6968     		ldr	r1, [r5, #4]
 656 004c CDF800A0 		str	r10, [sp]
 657 0050 4B46     		mov	r3, r9
 658 0052 2046     		mov	r0, r4
 659 0054 FFF7FEFF 		bl	chThdCreateI
 660              	.LVL60:
 661              		.loc 1 227 0
 662 0058 0223     		movs	r3, #2
 663 005a 80F82130 		strb	r3, [r0, #33]
 664              		.loc 1 228 0
 665 005e 8564     		str	r5, [r0, #72]
 666              		.loc 1 229 0
 667 0060 0021     		movs	r1, #0
 668              		.loc 1 226 0
 669 0062 0446     		mov	r4, r0
 670              	.LVL61:
 671              		.loc 1 229 0
 672 0064 FFF7FEFF 		bl	chSchWakeupS
 673              	.LVL62:
 674              	.LBB115:
 675              	.LBB116:
 676              		.loc 3 360 0
 677 0068 FFF7FEFF 		bl	_dbg_check_unlock
 678              	.LVL63:
 679              		.loc 3 361 0
 680 006c FFF7FEFF 		bl	_stats_stop_measure_crit_thd
 681              	.LVL64:
 682              		.loc 3 367 0
 683 0070 0F4B     		ldr	r3, .L49+4
 684 0072 1A68     		ldr	r2, [r3]
ARM GAS  C:\Users\Moi\AppData\Local\Temp\ccEMjYGE.s 			page 13


 685 0074 9A42     		cmp	r2, r3
 686 0076 04D0     		beq	.L42
 687 0078 9969     		ldr	r1, [r3, #24]
 688 007a 9368     		ldr	r3, [r2, #8]
 689 007c 8A68     		ldr	r2, [r1, #8]
 690 007e 9A42     		cmp	r2, r3
 691 0080 0AD3     		bcc	.L47
 692              	.L42:
 693              	.LVL65:
 694              	.LBB117:
 695              	.LBB118:
 696              	.LBB119:
 697              		.loc 2 546 0
 698 0082 0023     		movs	r3, #0
 699              		.syntax unified
 700              	@ 546 "..//ChibiOS//os/ext/CMSIS/include/core_cmFunc.h" 1
 701 0084 83F31188 		MSR basepri, r3
 702              	@ 0 "" 2
 703              	.LVL66:
 704              		.thumb
 705              		.syntax unified
 706              	.L39:
 707              	.LBE119:
 708              	.LBE118:
 709              	.LBE117:
 710              	.LBE116:
 711              	.LBE115:
 712              		.loc 1 233 0
 713 0088 039A     		ldr	r2, [sp, #12]
 714 008a 3368     		ldr	r3, [r6]
 715 008c 9A42     		cmp	r2, r3
 716 008e 2046     		mov	r0, r4
 717 0090 0AD1     		bne	.L48
 718 0092 04B0     		add	sp, sp, #16
 719              		.cfi_remember_state
 720              		.cfi_def_cfa_offset 32
 721              		@ sp needed
 722 0094 BDE8F087 		pop	{r4, r5, r6, r7, r8, r9, r10, pc}
 723              	.LVL67:
 724              	.L47:
 725              		.cfi_restore_state
 726              	.LBB121:
 727              	.LBB120:
 728              		.loc 3 367 0
 729 0098 0648     		ldr	r0, .L49+8
 730 009a FFF7FEFF 		bl	chSysHalt
 731              	.LVL68:
 732 009e F0E7     		b	.L42
 733              	.LVL69:
 734              	.L46:
 735              	.LBE120:
 736              	.LBE121:
 737              		.loc 1 209 0 discriminator 2
 738 00a0 0548     		ldr	r0, .L49+12
 739              	.LVL70:
 740 00a2 FFF7FEFF 		bl	chSysHalt
 741              	.LVL71:
ARM GAS  C:\Users\Moi\AppData\Local\Temp\ccEMjYGE.s 			page 14


 742 00a6 B7E7     		b	.L40
 743              	.L48:
 744              		.loc 1 233 0
 745 00a8 FFF7FEFF 		bl	__stack_chk_fail
 746              	.LVL72:
 747              	.L50:
 748              		.align	2
 749              	.L49:
 750 00ac 00000000 		.word	__stack_chk_guard
 751 00b0 00000000 		.word	ch
 752 00b4 00000000 		.word	.LANCHOR1
 753 00b8 00000000 		.word	.LANCHOR3
 754              		.cfi_endproc
 755              	.LFE222:
 756              		.size	chThdCreateFromMemoryPool, .-chThdCreateFromMemoryPool
 757              		.section	.rodata.__func__.7153,"a",%progbits
 758              		.align	2
 759              		.set	.LANCHOR1,. + 0
 760              		.type	__func__.7153, %object
 761              		.size	__func__.7153, 12
 762              	__func__.7153:
 763 0000 63685379 		.ascii	"chSysUnlock\000"
 763      73556E6C 
 763      6F636B00 
 764              		.section	.rodata.__func__.7849,"a",%progbits
 765              		.align	2
 766              		.set	.LANCHOR0,. + 0
 767              		.type	__func__.7849, %object
 768              		.size	__func__.7849, 12
 769              	__func__.7849:
 770 0000 63685468 		.ascii	"chThdAddRef\000"
 770      64416464 
 770      52656600 
 771              		.section	.rodata.__func__.7854,"a",%progbits
 772              		.align	2
 773              		.set	.LANCHOR2,. + 0
 774              		.type	__func__.7854, %object
 775              		.size	__func__.7854, 13
 776              	__func__.7854:
 777 0000 63685468 		.ascii	"chThdRelease\000"
 777      6452656C 
 777      65617365 
 777      00
 778              		.section	.rodata.__func__.7876,"a",%progbits
 779              		.align	2
 780              		.set	.LANCHOR3,. + 0
 781              		.type	__func__.7876, %object
 782              		.size	__func__.7876, 26
 783              	__func__.7876:
 784 0000 63685468 		.ascii	"chThdCreateFromMemoryPool\000"
 784      64437265 
 784      61746546 
 784      726F6D4D 
 784      656D6F72 
 785              		.text
 786              	.Letext0:
 787              		.file 4 "c:\\users\\moi\\documents\\_microinfo\\epuck-eclipse\\tools\\gcc-arm-none-eabi-7-2017-q4-
ARM GAS  C:\Users\Moi\AppData\Local\Temp\ccEMjYGE.s 			page 15


 788              		.file 5 "c:\\users\\moi\\documents\\_microinfo\\epuck-eclipse\\tools\\gcc-arm-none-eabi-7-2017-q4-
 789              		.file 6 "c:\\users\\moi\\documents\\_microinfo\\epuck-eclipse\\tools\\gcc-arm-none-eabi-7-2017-q4-
 790              		.file 7 "..//ChibiOS//os/rt/ports/ARMCMx/compilers/GCC/chtypes.h"
 791              		.file 8 "..//ChibiOS//os/rt/include/chsystypes.h"
 792              		.file 9 "..//ChibiOS//os/rt/include/chschd.h"
 793              		.file 10 "..//ChibiOS//os/ext/CMSIS/include/core_cm4.h"
 794              		.file 11 "..//ChibiOS//os/ext/CMSIS/ST/system_stm32f4xx.h"
 795              		.file 12 "..//ChibiOS//os/rt/ports/ARMCMx/chcore.h"
 796              		.file 13 "..//ChibiOS//os/rt/ports/ARMCMx/chcore_v7m.h"
 797              		.file 14 "..//ChibiOS//os/rt/include/chdebug.h"
 798              		.file 15 "..//ChibiOS//os/rt/include/chtm.h"
 799              		.file 16 "..//ChibiOS//os/rt/include/chstats.h"
 800              		.file 17 "..//ChibiOS//os/rt/include/chsem.h"
 801              		.file 18 "..//ChibiOS//os/rt/include/chmtx.h"
 802              		.file 19 "..//ChibiOS//os/rt/include/chthreads.h"
 803              		.file 20 "..//ChibiOS//os/rt/include/chregistry.h"
 804              		.file 21 "..//ChibiOS//os/rt/include/chmemcore.h"
 805              		.file 22 "..//ChibiOS//os/rt/include/chheap.h"
 806              		.file 23 "..//ChibiOS//os/rt/include/chmempools.h"