ARM GAS  C:\Users\Moi\AppData\Local\Temp\ccEMjYGE.s 			page 1


   1              		.cpu cortex-m4
   2              		.eabi_attribute 27, 1
   3              		.eabi_attribute 28, 1
   4              		.eabi_attribute 20, 1
   5              		.eabi_attribute 21, 1
   6              		.eabi_attribute 23, 3
   7              		.eabi_attribute 24, 1
   8              		.eabi_attribute 25, 1
   9              		.eabi_attribute 26, 1
  10              		.eabi_attribute 30, 2
  11              		.eabi_attribute 34, 1
  12              		.eabi_attribute 18, 4
  13              		.file	"chdynamic.c"
  14              		.text
  15              	.Ltext0:
  16              		.cfi_sections	.debug_frame
  17              		.section	.text.chThdAddRef,"ax",%progbits
  18              		.align	1
  19              		.p2align 4,,15
  20              		.global	chThdAddRef
  21              		.syntax unified
  22              		.thumb
  23              		.thumb_func
  24              		.fpu fpv4-sp-d16
  25              		.type	chThdAddRef, %function
  26              	chThdAddRef:
  27              	.LFB219:
  28              		.file 1 "..//ChibiOS//os/rt/src/chdynamic.c"
  29              		.loc 1 68 0
  30              		.cfi_startproc
  31              		@ args = 0, pretend = 0, frame = 8
  32              		@ frame_needed = 0, uses_anonymous_args = 0
  33              	.LVL0:
  34 0000 30B5     		push	{r4, r5, lr}
  35              		.cfi_def_cfa_offset 12
  36              		.cfi_offset 4, -12
  37              		.cfi_offset 5, -8
  38              		.cfi_offset 14, -4
  39 0002 1B4D     		ldr	r5, .L10
  40 0004 83B0     		sub	sp, sp, #12
  41              		.cfi_def_cfa_offset 24
  42              		.loc 1 68 0
  43 0006 2B68     		ldr	r3, [r5]
  44 0008 0193     		str	r3, [sp, #4]
  45              	.LVL1:
  46 000a 0446     		mov	r4, r0
  47              	.LBB44:
  48              	.LBB45:
  49              	.LBB46:
  50              	.LBB47:
  51              	.LBB48:
  52              		.file 2 "..//ChibiOS//os/ext/CMSIS/include/core_cmFunc.h"
  53              		.loc 2 546 0
  54 000c 2023     		movs	r3, #32
  55              		.syntax unified
  56              	@ 546 "..//ChibiOS//os/ext/CMSIS/include/core_cmFunc.h" 1
  57 000e 83F31188 		MSR basepri, r3
ARM GAS  C:\Users\Moi\AppData\Local\Temp\ccEMjYGE.s 			page 2


  58              	@ 0 "" 2
  59              	.LVL2:
  60              		.thumb
  61              		.syntax unified
  62              	.LBE48:
  63              	.LBE47:
  64              	.LBE46:
  65              		.file 3 "..//ChibiOS//os/rt/include/chsys.h"
  66              		.loc 3 349 0
  67 0012 FFF7FEFF 		bl	_stats_start_measure_crit_thd
  68              	.LVL3:
  69              		.loc 3 350 0
  70 0016 FFF7FEFF 		bl	_dbg_check_lock
  71              	.LVL4:
  72              	.LBE45:
  73              	.LBE44:
  74              		.loc 1 71 0
  75 001a 94F82230 		ldrb	r3, [r4, #34]	@ zero_extendqisi2
  76 001e FF2B     		cmp	r3, #255
  77 0020 1DD0     		beq	.L7
  78              	.L2:
  79              		.loc 1 72 0
  80 0022 0133     		adds	r3, r3, #1
  81 0024 84F82230 		strb	r3, [r4, #34]
  82              	.LBB49:
  83              	.LBB50:
  84              		.loc 3 360 0
  85 0028 FFF7FEFF 		bl	_dbg_check_unlock
  86              	.LVL5:
  87              		.loc 3 361 0
  88 002c FFF7FEFF 		bl	_stats_stop_measure_crit_thd
  89              	.LVL6:
  90              		.loc 3 367 0
  91 0030 104B     		ldr	r3, .L10+4
  92 0032 1A68     		ldr	r2, [r3]
  93 0034 9A42     		cmp	r2, r3
  94 0036 04D0     		beq	.L3
  95 0038 9969     		ldr	r1, [r3, #24]
  96 003a 9368     		ldr	r3, [r2, #8]
  97 003c 8A68     		ldr	r2, [r1, #8]
  98 003e 9A42     		cmp	r2, r3
  99 0040 09D3     		bcc	.L8
 100              	.L3:
 101              	.LVL7:
 102              	.LBB51:
 103              	.LBB52:
 104              	.LBB53:
 105              		.loc 2 546 0
 106 0042 0023     		movs	r3, #0
 107              		.syntax unified
 108              	@ 546 "..//ChibiOS//os/ext/CMSIS/include/core_cmFunc.h" 1
 109 0044 83F31188 		MSR basepri, r3
 110              	@ 0 "" 2
 111              	.LVL8:
 112              		.thumb
 113              		.syntax unified
 114              	.LBE53:
ARM GAS  C:\Users\Moi\AppData\Local\Temp\ccEMjYGE.s 			page 3


 115              	.LBE52:
 116              	.LBE51:
 117              	.LBE50:
 118              	.LBE49:
 119              		.loc 1 76 0
 120 0048 019A     		ldr	r2, [sp, #4]
 121 004a 2B68     		ldr	r3, [r5]
 122 004c 9A42     		cmp	r2, r3
 123 004e 2046     		mov	r0, r4
 124 0050 0BD1     		bne	.L9
 125              	.LVL9:
 126 0052 03B0     		add	sp, sp, #12
 127              		.cfi_remember_state
 128              		.cfi_def_cfa_offset 12
 129              		@ sp needed
 130 0054 30BD     		pop	{r4, r5, pc}
 131              	.LVL10:
 132              	.L8:
 133              		.cfi_restore_state
 134              	.LBB55:
 135              	.LBB54:
 136              		.loc 3 367 0
 137 0056 0848     		ldr	r0, .L10+8
 138 0058 FFF7FEFF 		bl	chSysHalt
 139              	.LVL11:
 140 005c F1E7     		b	.L3
 141              	.L7:
 142              	.LBE54:
 143              	.LBE55:
 144              		.loc 1 71 0 discriminator 2
 145 005e 0748     		ldr	r0, .L10+12
 146 0060 FFF7FEFF 		bl	chSysHalt
 147              	.LVL12:
 148 0064 94F82230 		ldrb	r3, [r4, #34]	@ zero_extendqisi2
 149 0068 DBE7     		b	.L2
 150              	.LVL13:
 151              	.L9:
 152              		.loc 1 76 0
 153 006a FFF7FEFF 		bl	__stack_chk_fail
 154              	.LVL14:
 155              	.L11:
 156 006e 00BF     		.align	2
 157              	.L10:
 158 0070 00000000 		.word	__stack_chk_guard
 159 0074 00000000 		.word	ch
 160 0078 00000000 		.word	.LANCHOR1
 161 007c 00000000 		.word	.LANCHOR0
 162              		.cfi_endproc
 163              	.LFE219:
 164              		.size	chThdAddRef, .-chThdAddRef
 165              		.section	.text.chThdRelease,"ax",%progbits
 166              		.align	1
 167              		.p2align 4,,15
 168              		.global	chThdRelease
 169              		.syntax unified
 170              		.thumb
 171              		.thumb_func
ARM GAS  C:\Users\Moi\AppData\Local\Temp\ccEMjYGE.s 			page 4


 172              		.fpu fpv4-sp-d16
 173              		.type	chThdRelease, %function
 174              	chThdRelease:
 175              	.LFB220:
 176              		.loc 1 91 0
 177              		.cfi_startproc
 178              		@ args = 0, pretend = 0, frame = 8
 179              		@ frame_needed = 0, uses_anonymous_args = 0
 180              	.LVL15:
 181 0000 70B5     		push	{r4, r5, r6, lr}
 182              		.cfi_def_cfa_offset 16
 183              		.cfi_offset 4, -16
 184              		.cfi_offset 5, -12
 185              		.cfi_offset 6, -8
 186              		.cfi_offset 14, -4
 187 0002 314E     		ldr	r6, .L27
 188 0004 82B0     		sub	sp, sp, #8
 189              		.cfi_def_cfa_offset 24
 190              		.loc 1 91 0
 191 0006 3368     		ldr	r3, [r6]
 192 0008 0193     		str	r3, [sp, #4]
 193              	.LVL16:
 194 000a 0546     		mov	r5, r0
 195              	.LBB66:
 196              	.LBB67:
 197              	.LBB68:
 198              	.LBB69:
 199              	.LBB70:
 200              		.loc 2 546 0
 201 000c 2023     		movs	r3, #32
 202              		.syntax unified
 203              	@ 546 "..//ChibiOS//os/ext/CMSIS/include/core_cmFunc.h" 1
 204 000e 83F31188 		MSR basepri, r3
 205              	@ 0 "" 2
 206              	.LVL17:
 207              		.thumb
 208              		.syntax unified
 209              	.LBE70:
 210              	.LBE69:
 211              	.LBE68:
 212              		.loc 3 349 0
 213 0012 FFF7FEFF 		bl	_stats_start_measure_crit_thd
 214              	.LVL18:
 215              		.loc 3 350 0
 216 0016 FFF7FEFF 		bl	_dbg_check_lock
 217              	.LVL19:
 218              	.LBE67:
 219              	.LBE66:
 220              		.loc 1 95 0
 221 001a 95F82230 		ldrb	r3, [r5, #34]	@ zero_extendqisi2
 222 001e 002B     		cmp	r3, #0
 223 0020 3AD0     		beq	.L24
 224              	.L13:
 225              		.loc 1 96 0
 226 0022 013B     		subs	r3, r3, #1
 227 0024 DCB2     		uxtb	r4, r3
 228 0026 85F82240 		strb	r4, [r5, #34]
ARM GAS  C:\Users\Moi\AppData\Local\Temp\ccEMjYGE.s 			page 5


 229              	.LVL20:
 230              	.LBB71:
 231              	.LBB72:
 232              		.loc 3 360 0
 233 002a FFF7FEFF 		bl	_dbg_check_unlock
 234              	.LVL21:
 235              		.loc 3 361 0
 236 002e FFF7FEFF 		bl	_stats_stop_measure_crit_thd
 237              	.LVL22:
 238              		.loc 3 367 0
 239 0032 264B     		ldr	r3, .L27+4
 240 0034 1A68     		ldr	r2, [r3]
 241 0036 9A42     		cmp	r2, r3
 242 0038 04D0     		beq	.L14
 243 003a 9969     		ldr	r1, [r3, #24]
 244 003c 9368     		ldr	r3, [r2, #8]
 245 003e 8A68     		ldr	r2, [r1, #8]
 246 0040 9A42     		cmp	r2, r3
 247 0042 0DD3     		bcc	.L25
 248              	.L14:
 249              	.LVL23:
 250              	.LBB73:
 251              	.LBB74:
 252              	.LBB75:
 253              		.loc 2 546 0
 254 0044 0023     		movs	r3, #0
 255              		.syntax unified
 256              	@ 546 "..//ChibiOS//os/ext/CMSIS/include/core_cmFunc.h" 1
 257 0046 83F31188 		MSR basepri, r3
 258              	@ 0 "" 2
 259              	.LVL24:
 260              		.thumb
 261              		.syntax unified
 262              	.LBE75:
 263              	.LBE74:
 264              	.LBE73:
 265              	.LBE72:
 266              	.LBE71:
 267              		.loc 1 103 0
 268 004a 1CB9     		cbnz	r4, .L12
 269              		.loc 1 103 0 is_stmt 0 discriminator 1
 270 004c 95F82030 		ldrb	r3, [r5, #32]	@ zero_extendqisi2
 271 0050 0F2B     		cmp	r3, #15
 272 0052 09D0     		beq	.L26
 273              	.L12:
 274              		.loc 1 127 0 is_stmt 1
 275 0054 019A     		ldr	r2, [sp, #4]
 276 0056 3368     		ldr	r3, [r6]
 277 0058 9A42     		cmp	r2, r3
 278 005a 32D1     		bne	.L23
 279 005c 02B0     		add	sp, sp, #8
 280              		.cfi_remember_state
 281              		.cfi_def_cfa_offset 16
 282              		@ sp needed
 283 005e 70BD     		pop	{r4, r5, r6, pc}
 284              	.LVL25:
 285              	.L25:
ARM GAS  C:\Users\Moi\AppData\Local\Temp\ccEMjYGE.s 			page 6


 286              		.cfi_restore_state
 287              	.LBB77:
 288              	.LBB76:
 289              		.loc 3 367 0
 290 0060 1B48     		ldr	r0, .L27+8
 291 0062 FFF7FEFF 		bl	chSysHalt
 292              	.LVL26:
 293 0066 EDE7     		b	.L14
 294              	.L26:
 295              	.LBE76:
 296              	.LBE77:
 297              		.loc 1 104 0
 298 0068 95F82130 		ldrb	r3, [r5, #33]	@ zero_extendqisi2
 299 006c 03F00303 		and	r3, r3, #3
 300 0070 012B     		cmp	r3, #1
 301 0072 17D0     		beq	.L16
 302 0074 022B     		cmp	r3, #2
 303 0076 EDD1     		bne	.L12
 304              		.loc 1 116 0
 305 0078 D5E90423 		ldrd	r2, r3, [r5, #16]
 306              		.loc 1 118 0
 307 007c 0199     		ldr	r1, [sp, #4]
 308              		.loc 1 116 0
 309 007e 1A61     		str	r2, [r3, #16]
 310              		.loc 1 118 0
 311 0080 3268     		ldr	r2, [r6]
 312              		.loc 1 116 0
 313 0082 2869     		ldr	r0, [r5, #16]
 314              		.loc 1 118 0
 315 0084 9142     		cmp	r1, r2
 316              		.loc 1 116 0
 317 0086 4361     		str	r3, [r0, #20]
 318              		.loc 1 118 0
 319 0088 1BD1     		bne	.L23
 320 008a A86C     		ldr	r0, [r5, #72]
 321 008c 2946     		mov	r1, r5
 322              		.loc 1 127 0
 323 008e 02B0     		add	sp, sp, #8
 324              		.cfi_remember_state
 325              		.cfi_def_cfa_offset 16
 326              		@ sp needed
 327 0090 BDE87040 		pop	{r4, r5, r6, lr}
 328              		.cfi_restore 14
 329              		.cfi_restore 6
 330              		.cfi_restore 5
 331              		.cfi_restore 4
 332              		.cfi_def_cfa_offset 0
 333              	.LVL27:
 334              		.loc 1 118 0
 335 0094 FFF7FEBF 		b	chPoolFree
 336              	.LVL28:
 337              	.L24:
 338              		.cfi_restore_state
 339              		.loc 1 95 0 discriminator 2
 340 0098 0E48     		ldr	r0, .L27+12
 341 009a FFF7FEFF 		bl	chSysHalt
 342              	.LVL29:
ARM GAS  C:\Users\Moi\AppData\Local\Temp\ccEMjYGE.s 			page 7


 343 009e 95F82230 		ldrb	r3, [r5, #34]	@ zero_extendqisi2
 344 00a2 BEE7     		b	.L13
 345              	.LVL30:
 346              	.L16:
 347              		.loc 1 108 0
 348 00a4 D5E90423 		ldrd	r2, r3, [r5, #16]
 349              		.loc 1 110 0
 350 00a8 0199     		ldr	r1, [sp, #4]
 351              		.loc 1 108 0
 352 00aa 1A61     		str	r2, [r3, #16]
 353              		.loc 1 110 0
 354 00ac 3268     		ldr	r2, [r6]
 355              		.loc 1 108 0
 356 00ae 2869     		ldr	r0, [r5, #16]
 357              		.loc 1 110 0
 358 00b0 9142     		cmp	r1, r2
 359              		.loc 1 108 0
 360 00b2 4361     		str	r3, [r0, #20]
 361              		.loc 1 110 0
 362 00b4 05D1     		bne	.L23
 363 00b6 2846     		mov	r0, r5
 364              		.loc 1 127 0
 365 00b8 02B0     		add	sp, sp, #8
 366              		.cfi_remember_state
 367              		.cfi_def_cfa_offset 16
 368              		@ sp needed
 369 00ba BDE87040 		pop	{r4, r5, r6, lr}
 370              		.cfi_restore 14
 371              		.cfi_restore 6
 372              		.cfi_restore 5
 373              		.cfi_restore 4
 374              		.cfi_def_cfa_offset 0
 375              	.LVL31:
 376              		.loc 1 110 0
 377 00be FFF7FEBF 		b	chHeapFree
 378              	.LVL32:
 379              	.L23:
 380              		.cfi_restore_state
 381              		.loc 1 127 0
 382 00c2 FFF7FEFF 		bl	__stack_chk_fail
 383              	.LVL33:
 384              	.L28:
 385 00c6 00BF     		.align	2
 386              	.L27:
 387 00c8 00000000 		.word	__stack_chk_guard
 388 00cc 00000000 		.word	ch
 389 00d0 00000000 		.word	.LANCHOR1
 390 00d4 00000000 		.word	.LANCHOR2
 391              		.cfi_endproc
 392              	.LFE220:
 393              		.size	chThdRelease, .-chThdRelease
 394              		.section	.text.chThdCreateFromHeap,"ax",%progbits
 395              		.align	1
 396              		.p2align 4,,15
 397              		.global	chThdCreateFromHeap
 398              		.syntax unified
 399              		.thumb
ARM GAS  C:\Users\Moi\AppData\Local\Temp\ccEMjYGE.s 			page 8


 400              		.thumb_func
 401              		.fpu fpv4-sp-d16
 402              		.type	chThdCreateFromHeap, %function
 403              	chThdCreateFromHeap:
 404              	.LFB221:
 405              		.loc 1 153 0
 406              		.cfi_startproc
 407              		@ args = 4, pretend = 0, frame = 8
 408              		@ frame_needed = 0, uses_anonymous_args = 0
 409              	.LVL34:
 410 0000 2DE9F047 		push	{r4, r5, r6, r7, r8, r9, r10, lr}
 411              		.cfi_def_cfa_offset 32
 412              		.cfi_offset 4, -32
 413              		.cfi_offset 5, -28
 414              		.cfi_offset 6, -24
 415              		.cfi_offset 7, -20
 416              		.cfi_offset 8, -16
 417              		.cfi_offset 9, -12
 418              		.cfi_offset 10, -8
 419              		.cfi_offset 14, -4
 420 0004 254D     		ldr	r5, .L37
 421 0006 84B0     		sub	sp, sp, #16
 422              		.cfi_def_cfa_offset 48
 423              		.loc 1 153 0
 424 0008 2C68     		ldr	r4, [r5]
 425 000a 0394     		str	r4, [sp, #12]
 426 000c DDF830A0 		ldr	r10, [sp, #48]
 427 0010 9046     		mov	r8, r2
 428 0012 9946     		mov	r9, r3
 429 0014 0E46     		mov	r6, r1
 430              		.loc 1 157 0
 431 0016 FFF7FEFF 		bl	chHeapAlloc
 432              	.LVL35:
 433              		.loc 1 158 0
 434 001a 0446     		mov	r4, r0
 435 001c 80B3     		cbz	r0, .L29
 436              		.loc 1 163 0
 437 001e 00F16807 		add	r7, r0, #104
 438 0022 3946     		mov	r1, r7
 439 0024 FF22     		movs	r2, #255
 440 0026 FFF7FEFF 		bl	_thread_memfill
 441              	.LVL36:
 442              		.loc 1 166 0
 443 002a 3846     		mov	r0, r7
 444 002c 5522     		movs	r2, #85
 445 002e A119     		adds	r1, r4, r6
 446 0030 FFF7FEFF 		bl	_thread_memfill
 447              	.LVL37:
 448              	.LBB88:
 449              	.LBB89:
 450              	.LBB90:
 451              	.LBB91:
 452              	.LBB92:
 453              		.loc 2 546 0
 454 0034 2023     		movs	r3, #32
 455              		.syntax unified
 456              	@ 546 "..//ChibiOS//os/ext/CMSIS/include/core_cmFunc.h" 1
ARM GAS  C:\Users\Moi\AppData\Local\Temp\ccEMjYGE.s 			page 9


 457 0036 83F31188 		MSR basepri, r3
 458              	@ 0 "" 2
 459              	.LVL38:
 460              		.thumb
 461              		.syntax unified
 462              	.LBE92:
 463              	.LBE91:
 464              	.LBE90:
 465              		.loc 3 349 0
 466 003a FFF7FEFF 		bl	_stats_start_measure_crit_thd
 467              	.LVL39:
 468              		.loc 3 350 0
 469 003e FFF7FEFF 		bl	_dbg_check_lock
 470              	.LVL40:
 471              	.LBE89:
 472              	.LBE88:
 473              		.loc 1 172 0
 474 0042 4246     		mov	r2, r8
 475 0044 4B46     		mov	r3, r9
 476 0046 3146     		mov	r1, r6
 477 0048 2046     		mov	r0, r4
 478 004a CDF800A0 		str	r10, [sp]
 479 004e FFF7FEFF 		bl	chThdCreateI
 480              	.LVL41:
 481              		.loc 1 173 0
 482 0052 0123     		movs	r3, #1
 483 0054 80F82130 		strb	r3, [r0, #33]
 484              		.loc 1 174 0
 485 0058 0021     		movs	r1, #0
 486              		.loc 1 172 0
 487 005a 0446     		mov	r4, r0
 488              	.LVL42:
 489              		.loc 1 174 0
 490 005c FFF7FEFF 		bl	chSchWakeupS
 491              	.LVL43:
 492              	.LBB93:
 493              	.LBB94:
 494              		.loc 3 360 0
 495 0060 FFF7FEFF 		bl	_dbg_check_unlock
 496              	.LVL44:
 497              		.loc 3 361 0
 498 0064 FFF7FEFF 		bl	_stats_stop_measure_crit_thd
 499              	.LVL45:
 500              		.loc 3 367 0
 501 0068 0D4B     		ldr	r3, .L37+4
 502 006a 1A68     		ldr	r2, [r3]
 503 006c 9A42     		cmp	r2, r3
 504 006e 04D0     		beq	.L31
 505 0070 9969     		ldr	r1, [r3, #24]
 506 0072 9368     		ldr	r3, [r2, #8]
 507 0074 8A68     		ldr	r2, [r1, #8]
 508 0076 9A42     		cmp	r2, r3
 509 0078 0AD3     		bcc	.L35
 510              	.L31:
 511              	.LVL46:
 512              	.LBB95:
 513              	.LBB96:
ARM GAS  C:\Users\Moi\AppData\Local\Temp\ccEMjYGE.s 			page 10


 514              	.LBB97:
 515              		.loc 2 546 0
 516 007a 0023     		movs	r3, #0
 517              		.syntax unified
 518              	@ 546 "..//ChibiOS//os/ext/CMSIS/include/core_cmFunc.h" 1
 519 007c 83F31188 		MSR basepri, r3
 520              	@ 0 "" 2
 521              	.LVL47:
 522              		.thumb
 523              		.syntax unified
 524              	.L29:
 525              	.LBE97:
 526              	.LBE96:
 527              	.LBE95:
 528              	.LBE94:
 529              	.LBE93:
 530              		.loc 1 178 0
 531 0080 039A     		ldr	r2, [sp, #12]
 532 0082 2B68     		ldr	r3, [r5]
 533 0084 9A42     		cmp	r2, r3
 534 0086 2046     		mov	r0, r4
 535 0088 06D1     		bne	.L36
 536 008a 04B0     		add	sp, sp, #16
 537              		.cfi_remember_state
 538              		.cfi_def_cfa_offset 32
 539              		@ sp needed
 540 008c BDE8F087 		pop	{r4, r5, r6, r7, r8, r9, r10, pc}
 541              	.LVL48:
 542              	.L35:
 543              		.cfi_restore_state
 544              	.LBB99:
 545              	.LBB98:
 546              		.loc 3 367 0
 547 0090 0448     		ldr	r0, .L37+8
 548 0092 FFF7FEFF 		bl	chSysHalt
 549              	.LVL49:
 550 0096 F0E7     		b	.L31
 551              	.LVL50:
 552              	.L36:
 553              	.LBE98:
 554              	.LBE99:
 555              		.loc 1 178 0
 556 0098 FFF7FEFF 		bl	__stack_chk_fail
 557              	.LVL51:
 558              	.L38:
 559              		.align	2
 560              	.L37:
 561 009c 00000000 		.word	__stack_chk_guard
 562 00a0 00000000 		.word	ch
 563 00a4 00000000 		.word	.LANCHOR1
 564              		.cfi_endproc
 565              	.LFE221:
 566              		.size	chThdCreateFromHeap, .-chThdCreateFromHeap
 567              		.section	.text.chThdCreateFromMemoryPool,"ax",%progbits
 568              		.align	1
 569              		.p2align 4,,15
 570              		.global	chThdCreateFromMemoryPool
ARM GAS  C:\Users\Moi\AppData\Local\Temp\ccEMjYGE.s 			page 11


 571              		.syntax unified
 572              		.thumb
 573              		.thumb_func
 574              		.fpu fpv4-sp-d16
 575              		.type	chThdCreateFromMemoryPool, %function
 576              	chThdCreateFromMemoryPool:
 577              	.LFB222:
 578              		.loc 1 205 0
 579              		.cfi_startproc
 580              		@ args = 0, pretend = 0, frame = 8
 581              		@ frame_needed = 0, uses_anonymous_args = 0
 582              	.LVL52:
 583 0000 2DE9F047 		push	{r4, r5, r6, r7, r8, r9, r10, lr}
 584              		.cfi_def_cfa_offset 32
 585              		.cfi_offset 4, -32
 586              		.cfi_offset 5, -28
 587              		.cfi_offset 6, -24
 588              		.cfi_offset 7, -20
 589              		.cfi_offset 8, -16
 590              		.cfi_offset 9, -12
 591              		.cfi_offset 10, -8
 592              		.cfi_offset 14, -4
 593 0004 294E     		ldr	r6, .L49
 594 0006 84B0     		sub	sp, sp, #16
 595              		.cfi_def_cfa_offset 48
 596              		.loc 1 205 0
 597 0008 3468     		ldr	r4, [r6]
 598 000a 0394     		str	r4, [sp, #12]
 599 000c 8846     		mov	r8, r1
 600 000e 9146     		mov	r9, r2
 601 0010 9A46     		mov	r10, r3
 602              		.loc 1 209 0
 603 0012 0546     		mov	r5, r0
 604 0014 0028     		cmp	r0, #0
 605 0016 43D0     		beq	.L46
 606              	.LVL53:
 607              	.L40:
 608              		.loc 1 211 0
 609 0018 2846     		mov	r0, r5
 610 001a FFF7FEFF 		bl	chPoolAlloc
 611              	.LVL54:
 612              		.loc 1 212 0
 613 001e 0446     		mov	r4, r0
 614 0020 90B3     		cbz	r0, .L39
 615              		.loc 1 217 0
 616 0022 00F16807 		add	r7, r0, #104
 617 0026 3946     		mov	r1, r7
 618 0028 FF22     		movs	r2, #255
 619 002a FFF7FEFF 		bl	_thread_memfill
 620              	.LVL55:
 621              		.loc 1 220 0
 622 002e 6968     		ldr	r1, [r5, #4]
 623 0030 3846     		mov	r0, r7
 624 0032 2144     		add	r1, r1, r4
 625 0034 5522     		movs	r2, #85
 626 0036 FFF7FEFF 		bl	_thread_memfill
 627              	.LVL56:
ARM GAS  C:\Users\Moi\AppData\Local\Temp\ccEMjYGE.s 			page 12


 628              	.LBB110:
 629              	.LBB111:
 630              	.LBB112:
 631              	.LBB113:
 632              	.LBB114:
 633              		.loc 2 546 0
 634 003a 2023     		movs	r3, #32
 635              		.syntax unified
 636              	@ 546 "..//ChibiOS//os/ext/CMSIS/include/core_cmFunc.h" 1
 637 003c 83F31188 		MSR basepri, r3
 638              	@ 0 "" 2
 639              	.LVL57:
 640              		.thumb
 641              		.syntax unified
 642              	.LBE114:
 643              	.LBE113:
 644              	.LBE112:
 645              		.loc 3 349 0
 646 0040 FFF7FEFF 		bl	_stats_start_measure_crit_thd
 647              	.LVL58:
 648              		.loc 3 350 0
 649 0044 FFF7FEFF 		bl	_dbg_check_lock
 650              	.LVL59:
 651              	.LBE111:
 652              	.LBE110:
 653              		.loc 1 226 0
 654 0048 4246     		mov	r2, r8
 655 004a 6968     		ldr	r1, [r5, #4]
 656 004c CDF800A0 		str	r10, [sp]
 657 0050 4B46     		mov	r3, r9
 658 0052 2046     		mov	r0, r4
 659 0054 FFF7FEFF 		bl	chThdCreateI
 660              	.LVL60:
 661              		.loc 1 227 0
 662 0058 0223     		movs	r3, #2
 663 005a 80F82130 		strb	r3, [r0, #33]
 664              		.loc 1 228 0
 665 005e 8564     		str	r5, [r0, #72]
 666              		.loc 1 229 0
 667 0060 0021     		movs	r1, #0
 668              		.loc 1 226 0
 669 0062 0446     		mov	r4, r0
 670              	.LVL61:
 671              		.loc 1 229 0
 672 0064 FFF7FEFF 		bl	chSchWakeupS
 673              	.LVL62:
 674              	.LBB115:
 675              	.LBB116:
 676              		.loc 3 360 0
 677 0068 FFF7FEFF 		bl	_dbg_check_unlock
 678              	.LVL63:
 679              		.loc 3 361 0
 680 006c FFF7FEFF 		bl	_stats_stop_measure_crit_thd
 681              	.LVL64:
 682              		.loc 3 367 0
 683 0070 0F4B     		ldr	r3, .L49+4
 684 0072 1A68     		ldr	r2, [r3]
ARM GAS  C:\Users\Moi\AppData\Local\Temp\ccEMjYGE.s 			page 13


 685 0074 9A42     		cmp	r2, r3
 686 0076 04D0     		beq	.L42
 687 0078 9969     		ldr	r1, [r3, #24]
 688 007a 9368     		ldr	r3, [r2, #8]
 689 007c 8A68     		ldr	r2, [r1, #8]
 690 007e 9A42     		cmp	r2, r3
 691 0080 0AD3     		bcc	.L47
 692              	.L42:
 693              	.LVL65:
 694              	.LBB117:
 695              	.LBB118:
 696              	.LBB119:
 697              		.loc 2 546 0
 698 0082 0023     		movs	r3, #0
 699              		.syntax unified
 700              	@ 546 "..//ChibiOS//os/ext/CMSIS/include/core_cmFunc.h" 1
 701 0084 83F31188 		MSR basepri, r3
 702              	@ 0 "" 2
 703              	.LVL66:
 704              		.thumb
 705              		.syntax unified
 706              	.L39:
 707              	.LBE119:
 708              	.LBE118:
 709              	.LBE117:
 710              	.LBE116:
 711              	.LBE115:
 712              		.loc 1 233 0
 713 0088 039A     		ldr	r2, [sp, #12]
 714 008a 3368     		ldr	r3, [r6]
 715 008c 9A42     		cmp	r2, r3
 716 008e 2046     		mov	r0, r4
 717 0090 0AD1     		bne	.L48
 718 0092 04B0     		add	sp, sp, #16
 719              		.cfi_remember_state
 720              		.cfi_def_cfa_offset 32
 721              		@ sp needed
 722 0094 BDE8F087 		pop	{r4, r5, r6, r7, r8, r9, r10, pc}
 723              	.LVL67:
 724              	.L47:
 725              		.cfi_restore_state
 726              	.LBB121:
 727              	.LBB120:
 728              		.loc 3 367 0
 729 0098 0648     		ldr	r0, .L49+8
 730 009a FFF7FEFF 		bl	chSysHalt
 731              	.LVL68:
 732 009e F0E7     		b	.L42
 733              	.LVL69:
 734              	.L46:
 735              	.LBE120:
 736              	.LBE121:
 737              		.loc 1 209 0 discriminator 2
 738 00a0 0548     		ldr	r0, .L49+12
 739              	.LVL70:
 740 00a2 FFF7FEFF 		bl	chSysHalt
 741              	.LVL71:
ARM GAS  C:\Users\Moi\AppData\Local\Temp\ccEMjYGE.s 			page 14


 742 00a6 B7E7     		b	.L40
 743              	.L48:
 744              		.loc 1 233 0
 745 00a8 FFF7FEFF 		bl	__stack_chk_fail
 746              	.LVL72:
 747              	.L50:
 748              		.align	2
 749              	.L49:
 750 00ac 00000000 		.word	__stack_chk_guard
 751 00b0 00000000 		.word	ch
 752 00b4 00000000 		.word	.LANCHOR1
 753 00b8 00000000 		.word	.LANCHOR3
 754              		.cfi_endproc
 755              	.LFE222:
 756              		.size	chThdCreateFromMemoryPool, .-chThdCreateFromMemoryPool
 757              		.section	.rodata.__func__.7153,"a",%progbits
 758              		.align	2
 759              		.set	.LANCHOR1,. + 0
 760              		.type	__func__.7153, %object
 761              		.size	__func__.7153, 12
 762              	__func__.7153:
 763 0000 63685379 		.ascii	"chSysUnlock\000"
 763      73556E6C 
 763      6F636B00 
 764              		.section	.rodata.__func__.7849,"a",%progbits
 765              		.align	2
 766              		.set	.LANCHOR0,. + 0
 767              		.type	__func__.7849, %object
 768              		.size	__func__.7849, 12
 769              	__func__.7849:
 770 0000 63685468 		.ascii	"chThdAddRef\000"
 770      64416464 
 770      52656600 
 771              		.section	.rodata.__func__.7854,"a",%progbits
 772              		.align	2
 773              		.set	.LANCHOR2,. + 0
 774              		.type	__func__.7854, %object
 775              		.size	__func__.7854, 13
 776              	__func__.7854:
 777 0000 63685468 		.ascii	"chThdRelease\000"
 777      6452656C 
 777      65617365 
 777      00
 778              		.section	.rodata.__func__.7876,"a",%progbits
 779              		.align	2
 780              		.set	.LANCHOR3,. + 0
 781              		.type	__func__.7876, %object
 782              		.size	__func__.7876, 26
 783              	__func__.7876:
 784 0000 63685468 		.ascii	"chThdCreateFromMemoryPool\000"
 784      64437265 
 784      61746546 
 784      726F6D4D 
 784      656D6F72 
 785              		.text
 786              	.Letext0:
 787              		.file 4 "c:\\users\\moi\\documents\\_microinfo\\epuck-eclipse\\tools\\gcc-arm-none-eabi-7-2017-q4-
ARM GAS  C:\Users\Moi\AppData\Local\Temp\ccEMjYGE.s 			page 15


 788              		.file 5 "c:\\users\\moi\\documents\\_microinfo\\epuck-eclipse\\tools\\gcc-arm-none-eabi-7-2017-q4-
 789              		.file 6 "c:\\users\\moi\\documents\\_microinfo\\epuck-eclipse\\tools\\gcc-arm-none-eabi-7-2017-q4-
 790              		.file 7 "..//ChibiOS//os/rt/ports/ARMCMx/compilers/GCC/chtypes.h"
 791              		.file 8 "..//ChibiOS//os/rt/include/chsystypes.h"
 792              		.file 9 "..//ChibiOS//os/rt/include/chschd.h"
 793              		.file 10 "..//ChibiOS//os/ext/CMSIS/include/core_cm4.h"
 794              		.file 11 "..//ChibiOS//os/ext/CMSIS/ST/system_stm32f4xx.h"
 795              		.file 12 "..//ChibiOS//os/rt/ports/ARMCMx/chcore.h"
 796              		.file 13 "..//ChibiOS//os/rt/ports/ARMCMx/chcore_v7m.h"
 797              		.file 14 "..//ChibiOS//os/rt/include/chdebug.h"
 798              		.file 15 "..//ChibiOS//os/rt/include/chtm.h"
 799              		.file 16 "..//ChibiOS//os/rt/include/chstats.h"
 800              		.file 17 "..//ChibiOS//os/rt/include/chsem.h"
 801              		.file 18 "..//ChibiOS//os/rt/include/chmtx.h"
 802              		.file 19 "..//ChibiOS//os/rt/include/chthreads.h"
 803              		.file 20 "..//ChibiOS//os/rt/include/chregistry.h"
 804              		.file 21 "..//ChibiOS//os/rt/include/chmemcore.h"
 805              		.file 22 "..//ChibiOS//os/rt/include/chheap.h"
 806              		.file 23 "..//ChibiOS//os/rt/include/chmempools.h"
 807              		.section	.debug_info,"",%progbits
 808              	.Ldebug_info0:
 809 0000 A0120000 		.4byte	0x12a0
 810 0004 0400     		.2byte	0x4
 811 0006 00000000 		.4byte	.Ldebug_abbrev0
 812 000a 04       		.byte	0x4
 813 000b 01       		.uleb128 0x1
 814 000c 04010000 		.4byte	.LASF198
 815 0010 0C       		.byte	0xc
 816 0011 6E070000 		.4byte	.LASF199
 817 0015 92000000 		.4byte	.LASF200
 818 0019 60000000 		.4byte	.Ldebug_ranges0+0x60
 819 001d 00000000 		.4byte	0
 820 0021 00000000 		.4byte	.Ldebug_line0
 821 0025 02       		.uleb128 0x2
 822 0026 04       		.byte	0x4
 823 0027 05       		.byte	0x5
 824 0028 696E7400 		.ascii	"int\000"
 825 002c 03       		.uleb128 0x3
 826 002d 1D000000 		.4byte	.LASF4
 827 0031 04       		.byte	0x4
 828 0032 D8       		.byte	0xd8
 829 0033 37000000 		.4byte	0x37
 830 0037 04       		.uleb128 0x4
 831 0038 04       		.byte	0x4
 832 0039 07       		.byte	0x7
 833 003a 3F040000 		.4byte	.LASF0
 834 003e 04       		.uleb128 0x4
 835 003f 08       		.byte	0x8
 836 0040 05       		.byte	0x5
 837 0041 BB020000 		.4byte	.LASF1
 838 0045 04       		.uleb128 0x4
 839 0046 08       		.byte	0x8
 840 0047 04       		.byte	0x4
 841 0048 DD050000 		.4byte	.LASF2
 842 004c 04       		.uleb128 0x4
 843 004d 01       		.byte	0x1
 844 004e 06       		.byte	0x6
ARM GAS  C:\Users\Moi\AppData\Local\Temp\ccEMjYGE.s 			page 16


 845 004f C9020000 		.4byte	.LASF3
 846 0053 03       		.uleb128 0x3
 847 0054 52000000 		.4byte	.LASF5
 848 0058 05       		.byte	0x5
 849 0059 2B       		.byte	0x2b
 850 005a 5E000000 		.4byte	0x5e
 851 005e 04       		.uleb128 0x4
 852 005f 01       		.byte	0x1
 853 0060 08       		.byte	0x8
 854 0061 CF060000 		.4byte	.LASF6
 855 0065 04       		.uleb128 0x4
 856 0066 02       		.byte	0x2
 857 0067 05       		.byte	0x5
 858 0068 F3060000 		.4byte	.LASF7
 859 006c 03       		.uleb128 0x3
 860 006d 58080000 		.4byte	.LASF8
 861 0071 05       		.byte	0x5
 862 0072 39       		.byte	0x39
 863 0073 77000000 		.4byte	0x77
 864 0077 04       		.uleb128 0x4
 865 0078 02       		.byte	0x2
 866 0079 07       		.byte	0x7
 867 007a BF040000 		.4byte	.LASF9
 868 007e 03       		.uleb128 0x3
 869 007f 52050000 		.4byte	.LASF10
 870 0083 05       		.byte	0x5
 871 0084 4D       		.byte	0x4d
 872 0085 89000000 		.4byte	0x89
 873 0089 04       		.uleb128 0x4
 874 008a 04       		.byte	0x4
 875 008b 05       		.byte	0x5
 876 008c 4D030000 		.4byte	.LASF11
 877 0090 03       		.uleb128 0x3
 878 0091 96080000 		.4byte	.LASF12
 879 0095 05       		.byte	0x5
 880 0096 4F       		.byte	0x4f
 881 0097 9B000000 		.4byte	0x9b
 882 009b 04       		.uleb128 0x4
 883 009c 04       		.byte	0x4
 884 009d 07       		.byte	0x7
 885 009e 2A080000 		.4byte	.LASF13
 886 00a2 03       		.uleb128 0x3
 887 00a3 67060000 		.4byte	.LASF14
 888 00a7 05       		.byte	0x5
 889 00a8 69       		.byte	0x69
 890 00a9 AD000000 		.4byte	0xad
 891 00ad 04       		.uleb128 0x4
 892 00ae 08       		.byte	0x8
 893 00af 07       		.byte	0x7
 894 00b0 DB000000 		.4byte	.LASF15
 895 00b4 03       		.uleb128 0x3
 896 00b5 27090000 		.4byte	.LASF16
 897 00b9 06       		.byte	0x6
 898 00ba 18       		.byte	0x18
 899 00bb 53000000 		.4byte	0x53
 900 00bf 03       		.uleb128 0x3
 901 00c0 54040000 		.4byte	.LASF17
ARM GAS  C:\Users\Moi\AppData\Local\Temp\ccEMjYGE.s 			page 17


 902 00c4 06       		.byte	0x6
 903 00c5 24       		.byte	0x24
 904 00c6 6C000000 		.4byte	0x6c
 905 00ca 03       		.uleb128 0x3
 906 00cb C7060000 		.4byte	.LASF18
 907 00cf 06       		.byte	0x6
 908 00d0 2C       		.byte	0x2c
 909 00d1 7E000000 		.4byte	0x7e
 910 00d5 05       		.uleb128 0x5
 911 00d6 CA000000 		.4byte	0xca
 912 00da 03       		.uleb128 0x3
 913 00db F0070000 		.4byte	.LASF19
 914 00df 06       		.byte	0x6
 915 00e0 30       		.byte	0x30
 916 00e1 90000000 		.4byte	0x90
 917 00e5 03       		.uleb128 0x3
 918 00e6 30000000 		.4byte	.LASF20
 919 00ea 06       		.byte	0x6
 920 00eb 3C       		.byte	0x3c
 921 00ec A2000000 		.4byte	0xa2
 922 00f0 03       		.uleb128 0x3
 923 00f1 AE050000 		.4byte	.LASF21
 924 00f5 07       		.byte	0x7
 925 00f6 45       		.byte	0x45
 926 00f7 DA000000 		.4byte	0xda
 927 00fb 03       		.uleb128 0x3
 928 00fc 9E020000 		.4byte	.LASF22
 929 0100 07       		.byte	0x7
 930 0101 46       		.byte	0x46
 931 0102 E5000000 		.4byte	0xe5
 932 0106 03       		.uleb128 0x3
 933 0107 24070000 		.4byte	.LASF23
 934 010b 07       		.byte	0x7
 935 010c 48       		.byte	0x48
 936 010d B4000000 		.4byte	0xb4
 937 0111 03       		.uleb128 0x3
 938 0112 6A030000 		.4byte	.LASF24
 939 0116 07       		.byte	0x7
 940 0117 49       		.byte	0x49
 941 0118 B4000000 		.4byte	0xb4
 942 011c 03       		.uleb128 0x3
 943 011d 7D060000 		.4byte	.LASF25
 944 0121 07       		.byte	0x7
 945 0122 4A       		.byte	0x4a
 946 0123 B4000000 		.4byte	0xb4
 947 0127 03       		.uleb128 0x3
 948 0128 26030000 		.4byte	.LASF26
 949 012c 07       		.byte	0x7
 950 012d 4B       		.byte	0x4b
 951 012e B4000000 		.4byte	0xb4
 952 0132 03       		.uleb128 0x3
 953 0133 B6060000 		.4byte	.LASF27
 954 0137 07       		.byte	0x7
 955 0138 4C       		.byte	0x4c
 956 0139 DA000000 		.4byte	0xda
 957 013d 03       		.uleb128 0x3
 958 013e 03050000 		.4byte	.LASF28
ARM GAS  C:\Users\Moi\AppData\Local\Temp\ccEMjYGE.s 			page 18


 959 0142 07       		.byte	0x7
 960 0143 4D       		.byte	0x4d
 961 0144 CA000000 		.4byte	0xca
 962 0148 03       		.uleb128 0x3
 963 0149 46050000 		.4byte	.LASF29
 964 014d 07       		.byte	0x7
 965 014e 4F       		.byte	0x4f
 966 014f DA000000 		.4byte	0xda
 967 0153 03       		.uleb128 0x3
 968 0154 2E040000 		.4byte	.LASF30
 969 0158 07       		.byte	0x7
 970 0159 51       		.byte	0x51
 971 015a CA000000 		.4byte	0xca
 972 015e 03       		.uleb128 0x3
 973 015f 0E050000 		.4byte	.LASF31
 974 0163 07       		.byte	0x7
 975 0164 52       		.byte	0x52
 976 0165 DA000000 		.4byte	0xda
 977 0169 03       		.uleb128 0x3
 978 016a 78080000 		.4byte	.LASF32
 979 016e 08       		.byte	0x8
 980 016f 33       		.byte	0x33
 981 0170 DA000000 		.4byte	0xda
 982 0174 05       		.uleb128 0x5
 983 0175 69010000 		.4byte	0x169
 984 0179 03       		.uleb128 0x3
 985 017a 63080000 		.4byte	.LASF33
 986 017e 08       		.byte	0x8
 987 017f 3F       		.byte	0x3f
 988 0180 84010000 		.4byte	0x184
 989 0184 06       		.uleb128 0x6
 990 0185 E1040000 		.4byte	.LASF57
 991 0189 68       		.byte	0x68
 992 018a 09       		.byte	0x9
 993 018b C2       		.byte	0xc2
 994 018c A2020000 		.4byte	0x2a2
 995 0190 07       		.uleb128 0x7
 996 0191 1D070000 		.4byte	.LASF34
 997 0195 09       		.byte	0x9
 998 0196 C3       		.byte	0xc3
 999 0197 AD020000 		.4byte	0x2ad
 1000 019b 00       		.byte	0
 1001 019c 07       		.uleb128 0x7
 1002 019d AF060000 		.4byte	.LASF35
 1003 01a1 09       		.byte	0x9
 1004 01a2 C5       		.byte	0xc5
 1005 01a3 AD020000 		.4byte	0x2ad
 1006 01a7 04       		.byte	0x4
 1007 01a8 07       		.uleb128 0x7
 1008 01a9 A7020000 		.4byte	.LASF36
 1009 01ad 09       		.byte	0x9
 1010 01ae C7       		.byte	0xc7
 1011 01af 32010000 		.4byte	0x132
 1012 01b3 08       		.byte	0x8
 1013 01b4 07       		.uleb128 0x7
 1014 01b5 34060000 		.4byte	.LASF37
 1015 01b9 09       		.byte	0x9
ARM GAS  C:\Users\Moi\AppData\Local\Temp\ccEMjYGE.s 			page 19


 1016 01ba C8       		.byte	0xc8
 1017 01bb 26050000 		.4byte	0x526
 1018 01bf 0C       		.byte	0xc
 1019 01c0 07       		.uleb128 0x7
 1020 01c1 91030000 		.4byte	.LASF38
 1021 01c5 09       		.byte	0x9
 1022 01c6 CA       		.byte	0xca
 1023 01c7 AD020000 		.4byte	0x2ad
 1024 01cb 10       		.byte	0x10
 1025 01cc 07       		.uleb128 0x7
 1026 01cd 26060000 		.4byte	.LASF39
 1027 01d1 09       		.byte	0x9
 1028 01d2 CB       		.byte	0xcb
 1029 01d3 AD020000 		.4byte	0x2ad
 1030 01d7 14       		.byte	0x14
 1031 01d8 07       		.uleb128 0x7
 1032 01d9 85090000 		.4byte	.LASF40
 1033 01dd 09       		.byte	0x9
 1034 01de D2       		.byte	0xd2
 1035 01df 9C080000 		.4byte	0x89c
 1036 01e3 18       		.byte	0x18
 1037 01e4 07       		.uleb128 0x7
 1038 01e5 34040000 		.4byte	.LASF41
 1039 01e9 09       		.byte	0x9
 1040 01ea D8       		.byte	0xd8
 1041 01eb B3080000 		.4byte	0x8b3
 1042 01ef 1C       		.byte	0x1c
 1043 01f0 07       		.uleb128 0x7
 1044 01f1 FD060000 		.4byte	.LASF42
 1045 01f5 09       		.byte	0x9
 1046 01f6 DD       		.byte	0xdd
 1047 01f7 11010000 		.4byte	0x111
 1048 01fb 20       		.byte	0x20
 1049 01fc 07       		.uleb128 0x7
 1050 01fd 3B070000 		.4byte	.LASF43
 1051 0201 09       		.byte	0x9
 1052 0202 E1       		.byte	0xe1
 1053 0203 06010000 		.4byte	0x106
 1054 0207 21       		.byte	0x21
 1055 0208 07       		.uleb128 0x7
 1056 0209 09090000 		.4byte	.LASF44
 1057 020d 09       		.byte	0x9
 1058 020e E6       		.byte	0xe6
 1059 020f 1C010000 		.4byte	0x11c
 1060 0213 22       		.byte	0x22
 1061 0214 07       		.uleb128 0x7
 1062 0215 05070000 		.4byte	.LASF45
 1063 0219 09       		.byte	0x9
 1064 021a EC       		.byte	0xec
 1065 021b 27010000 		.4byte	0x127
 1066 021f 23       		.byte	0x23
 1067 0220 07       		.uleb128 0x7
 1068 0221 6D040000 		.4byte	.LASF46
 1069 0225 09       		.byte	0x9
 1070 0226 F3       		.byte	0xf3
 1071 0227 74010000 		.4byte	0x174
 1072 022b 24       		.byte	0x24
ARM GAS  C:\Users\Moi\AppData\Local\Temp\ccEMjYGE.s 			page 20


 1073 022c 08       		.uleb128 0x8
 1074 022d 705F7500 		.ascii	"p_u\000"
 1075 0231 09       		.byte	0x9
 1076 0232 3101     		.2byte	0x131
 1077 0234 CB070000 		.4byte	0x7cb
 1078 0238 28       		.byte	0x28
 1079 0239 09       		.uleb128 0x9
 1080 023a 87050000 		.4byte	.LASF47
 1081 023e 09       		.byte	0x9
 1082 023f 3601     		.2byte	0x136
 1083 0241 B3020000 		.4byte	0x2b3
 1084 0245 2C       		.byte	0x2c
 1085 0246 09       		.uleb128 0x9
 1086 0247 91040000 		.4byte	.LASF48
 1087 024b 09       		.byte	0x9
 1088 024c 3C01     		.2byte	0x13c
 1089 024e D7020000 		.4byte	0x2d7
 1090 0252 30       		.byte	0x30
 1091 0253 09       		.uleb128 0x9
 1092 0254 52080000 		.4byte	.LASF49
 1093 0258 09       		.byte	0x9
 1094 0259 4001     		.2byte	0x140
 1095 025b 3D010000 		.4byte	0x13d
 1096 025f 38       		.byte	0x38
 1097 0260 09       		.uleb128 0x9
 1098 0261 E5070000 		.4byte	.LASF50
 1099 0265 09       		.byte	0x9
 1100 0266 4601     		.2byte	0x146
 1101 0268 48010000 		.4byte	0x148
 1102 026c 3C       		.byte	0x3c
 1103 026d 09       		.uleb128 0x9
 1104 026e E9060000 		.4byte	.LASF51
 1105 0272 09       		.byte	0x9
 1106 0273 4D01     		.2byte	0x14d
 1107 0275 96080000 		.4byte	0x896
 1108 0279 40       		.byte	0x40
 1109 027a 09       		.uleb128 0x9
 1110 027b 82080000 		.4byte	.LASF52
 1111 027f 09       		.byte	0x9
 1112 0280 5101     		.2byte	0x151
 1113 0282 32010000 		.4byte	0x132
 1114 0286 44       		.byte	0x44
 1115 0287 09       		.uleb128 0x9
 1116 0288 F8020000 		.4byte	.LASF53
 1117 028c 09       		.byte	0x9
 1118 028d 5801     		.2byte	0x158
 1119 028f 8A030000 		.4byte	0x38a
 1120 0293 48       		.byte	0x48
 1121 0294 09       		.uleb128 0x9
 1122 0295 4C070000 		.4byte	.LASF54
 1123 0299 09       		.byte	0x9
 1124 029a 5E01     		.2byte	0x15e
 1125 029c 7C070000 		.4byte	0x77c
 1126 02a0 50       		.byte	0x50
 1127 02a1 00       		.byte	0
 1128 02a2 03       		.uleb128 0x3
 1129 02a3 63090000 		.4byte	.LASF55
ARM GAS  C:\Users\Moi\AppData\Local\Temp\ccEMjYGE.s 			page 21


 1130 02a7 08       		.byte	0x8
 1131 02a8 44       		.byte	0x44
 1132 02a9 AD020000 		.4byte	0x2ad
 1133 02ad 0A       		.uleb128 0xa
 1134 02ae 04       		.byte	0x4
 1135 02af 79010000 		.4byte	0x179
 1136 02b3 03       		.uleb128 0x3
 1137 02b4 17060000 		.4byte	.LASF56
 1138 02b8 08       		.byte	0x8
 1139 02b9 49       		.byte	0x49
 1140 02ba BE020000 		.4byte	0x2be
 1141 02be 06       		.uleb128 0x6
 1142 02bf 0D080000 		.4byte	.LASF58
 1143 02c3 04       		.byte	0x4
 1144 02c4 09       		.byte	0x9
 1145 02c5 B0       		.byte	0xb0
 1146 02c6 D7020000 		.4byte	0x2d7
 1147 02ca 07       		.uleb128 0x7
 1148 02cb 1D070000 		.4byte	.LASF34
 1149 02cf 09       		.byte	0x9
 1150 02d0 B1       		.byte	0xb1
 1151 02d1 AD020000 		.4byte	0x2ad
 1152 02d5 00       		.byte	0
 1153 02d6 00       		.byte	0
 1154 02d7 03       		.uleb128 0x3
 1155 02d8 9E070000 		.4byte	.LASF59
 1156 02dc 08       		.byte	0x8
 1157 02dd 50       		.byte	0x50
 1158 02de E2020000 		.4byte	0x2e2
 1159 02e2 06       		.uleb128 0x6
 1160 02e3 68000000 		.4byte	.LASF60
 1161 02e7 08       		.byte	0x8
 1162 02e8 09       		.byte	0x9
 1163 02e9 B7       		.byte	0xb7
 1164 02ea 07030000 		.4byte	0x307
 1165 02ee 07       		.uleb128 0x7
 1166 02ef 1D070000 		.4byte	.LASF34
 1167 02f3 09       		.byte	0x9
 1168 02f4 B8       		.byte	0xb8
 1169 02f5 AD020000 		.4byte	0x2ad
 1170 02f9 00       		.byte	0
 1171 02fa 07       		.uleb128 0x7
 1172 02fb AF060000 		.4byte	.LASF35
 1173 02ff 09       		.byte	0x9
 1174 0300 B9       		.byte	0xb9
 1175 0301 AD020000 		.4byte	0x2ad
 1176 0305 04       		.byte	0x4
 1177 0306 00       		.byte	0
 1178 0307 03       		.uleb128 0x3
 1179 0308 08000000 		.4byte	.LASF61
 1180 030c 08       		.byte	0x8
 1181 030d 57       		.byte	0x57
 1182 030e 12030000 		.4byte	0x312
 1183 0312 0B       		.uleb128 0xb
 1184 0313 38050000 		.4byte	.LASF62
 1185 0317 1C       		.byte	0x1c
 1186 0318 09       		.byte	0x9
ARM GAS  C:\Users\Moi\AppData\Local\Temp\ccEMjYGE.s 			page 22


 1187 0319 9001     		.2byte	0x190
 1188 031b 6E030000 		.4byte	0x36e
 1189 031f 09       		.uleb128 0x9
 1190 0320 05080000 		.4byte	.LASF63
 1191 0324 09       		.byte	0x9
 1192 0325 9101     		.2byte	0x191
 1193 0327 D7020000 		.4byte	0x2d7
 1194 032b 00       		.byte	0
 1195 032c 09       		.uleb128 0x9
 1196 032d 0F070000 		.4byte	.LASF64
 1197 0331 09       		.byte	0x9
 1198 0332 9201     		.2byte	0x192
 1199 0334 32010000 		.4byte	0x132
 1200 0338 08       		.byte	0x8
 1201 0339 09       		.uleb128 0x9
 1202 033a 2E060000 		.4byte	.LASF65
 1203 033e 09       		.byte	0x9
 1204 033f 9401     		.2byte	0x194
 1205 0341 26050000 		.4byte	0x526
 1206 0345 0C       		.byte	0xc
 1207 0346 09       		.uleb128 0x9
 1208 0347 C3030000 		.4byte	.LASF66
 1209 034b 09       		.byte	0x9
 1210 034c 9701     		.2byte	0x197
 1211 034e AD020000 		.4byte	0x2ad
 1212 0352 10       		.byte	0x10
 1213 0353 09       		.uleb128 0x9
 1214 0354 5F060000 		.4byte	.LASF67
 1215 0358 09       		.byte	0x9
 1216 0359 9801     		.2byte	0x198
 1217 035b AD020000 		.4byte	0x2ad
 1218 035f 14       		.byte	0x14
 1219 0360 09       		.uleb128 0x9
 1220 0361 3C080000 		.4byte	.LASF68
 1221 0365 09       		.byte	0x9
 1222 0366 9B01     		.2byte	0x19b
 1223 0368 AD020000 		.4byte	0x2ad
 1224 036c 18       		.byte	0x18
 1225 036d 00       		.byte	0
 1226 036e 03       		.uleb128 0x3
 1227 036f 8D080000 		.4byte	.LASF69
 1228 0373 08       		.byte	0x8
 1229 0374 5C       		.byte	0x5c
 1230 0375 79030000 		.4byte	0x379
 1231 0379 0A       		.uleb128 0xa
 1232 037a 04       		.byte	0x4
 1233 037b 7F030000 		.4byte	0x37f
 1234 037f 0C       		.uleb128 0xc
 1235 0380 8A030000 		.4byte	0x38a
 1236 0384 0D       		.uleb128 0xd
 1237 0385 8A030000 		.4byte	0x38a
 1238 0389 00       		.byte	0
 1239 038a 0E       		.uleb128 0xe
 1240 038b 04       		.byte	0x4
 1241 038c 03       		.uleb128 0x3
 1242 038d 9F060000 		.4byte	.LASF70
 1243 0391 08       		.byte	0x8
ARM GAS  C:\Users\Moi\AppData\Local\Temp\ccEMjYGE.s 			page 23


 1244 0392 61       		.byte	0x61
 1245 0393 97030000 		.4byte	0x397
 1246 0397 0B       		.uleb128 0xb
 1247 0398 D0080000 		.4byte	.LASF71
 1248 039c 14       		.byte	0x14
 1249 039d 09       		.byte	0x9
 1250 039e 6B01     		.2byte	0x16b
 1251 03a0 E6030000 		.4byte	0x3e6
 1252 03a4 09       		.uleb128 0x9
 1253 03a5 4C040000 		.4byte	.LASF72
 1254 03a9 09       		.byte	0x9
 1255 03aa 6C01     		.2byte	0x16c
 1256 03ac B9080000 		.4byte	0x8b9
 1257 03b0 00       		.byte	0
 1258 03b1 09       		.uleb128 0x9
 1259 03b2 E0030000 		.4byte	.LASF73
 1260 03b6 09       		.byte	0x9
 1261 03b7 6D01     		.2byte	0x16d
 1262 03b9 B9080000 		.4byte	0x8b9
 1263 03bd 04       		.byte	0x4
 1264 03be 09       		.uleb128 0x9
 1265 03bf 88040000 		.4byte	.LASF74
 1266 03c3 09       		.byte	0x9
 1267 03c4 6E01     		.2byte	0x16e
 1268 03c6 69010000 		.4byte	0x169
 1269 03ca 08       		.byte	0x8
 1270 03cb 09       		.uleb128 0x9
 1271 03cc EB090000 		.4byte	.LASF75
 1272 03d0 09       		.byte	0x9
 1273 03d1 6F01     		.2byte	0x16f
 1274 03d3 6E030000 		.4byte	0x36e
 1275 03d7 0C       		.byte	0xc
 1276 03d8 09       		.uleb128 0x9
 1277 03d9 EE080000 		.4byte	.LASF76
 1278 03dd 09       		.byte	0x9
 1279 03de 7101     		.2byte	0x171
 1280 03e0 8A030000 		.4byte	0x38a
 1281 03e4 10       		.byte	0x10
 1282 03e5 00       		.byte	0
 1283 03e6 03       		.uleb128 0x3
 1284 03e7 6F020000 		.4byte	.LASF77
 1285 03eb 08       		.byte	0x8
 1286 03ec 66       		.byte	0x66
 1287 03ed F1030000 		.4byte	0x3f1
 1288 03f1 0B       		.uleb128 0xb
 1289 03f2 C6050000 		.4byte	.LASF78
 1290 03f6 10       		.byte	0x10
 1291 03f7 09       		.byte	0x9
 1292 03f8 7B01     		.2byte	0x17b
 1293 03fa 33040000 		.4byte	0x433
 1294 03fe 09       		.uleb128 0x9
 1295 03ff 4C040000 		.4byte	.LASF72
 1296 0403 09       		.byte	0x9
 1297 0404 7C01     		.2byte	0x17c
 1298 0406 B9080000 		.4byte	0x8b9
 1299 040a 00       		.byte	0
 1300 040b 09       		.uleb128 0x9
ARM GAS  C:\Users\Moi\AppData\Local\Temp\ccEMjYGE.s 			page 24


 1301 040c E0030000 		.4byte	.LASF73
 1302 0410 09       		.byte	0x9
 1303 0411 7E01     		.2byte	0x17e
 1304 0413 B9080000 		.4byte	0x8b9
 1305 0417 04       		.byte	0x4
 1306 0418 09       		.uleb128 0x9
 1307 0419 88040000 		.4byte	.LASF74
 1308 041d 09       		.byte	0x9
 1309 041e 8001     		.2byte	0x180
 1310 0420 69010000 		.4byte	0x169
 1311 0424 08       		.byte	0x8
 1312 0425 09       		.uleb128 0x9
 1313 0426 91090000 		.4byte	.LASF79
 1314 042a 09       		.byte	0x9
 1315 042b 8201     		.2byte	0x182
 1316 042d 74010000 		.4byte	0x174
 1317 0431 0C       		.byte	0xc
 1318 0432 00       		.byte	0
 1319 0433 03       		.uleb128 0x3
 1320 0434 79000000 		.4byte	.LASF80
 1321 0438 08       		.byte	0x8
 1322 0439 6B       		.byte	0x6b
 1323 043a 3E040000 		.4byte	0x43e
 1324 043e 0F       		.uleb128 0xf
 1325 043f F2030000 		.4byte	.LASF81
 1326 0443 1404     		.2byte	0x414
 1327 0445 09       		.byte	0x9
 1328 0446 A201     		.2byte	0x1a2
 1329 0448 81040000 		.4byte	0x481
 1330 044c 09       		.uleb128 0x9
 1331 044d AF080000 		.4byte	.LASF82
 1332 0451 09       		.byte	0x9
 1333 0452 AA01     		.2byte	0x1aa
 1334 0454 A2080000 		.4byte	0x8a2
 1335 0458 00       		.byte	0
 1336 0459 09       		.uleb128 0x9
 1337 045a 10090000 		.4byte	.LASF83
 1338 045e 09       		.byte	0x9
 1339 045f AF01     		.2byte	0x1af
 1340 0461 53010000 		.4byte	0x153
 1341 0465 04       		.byte	0x4
 1342 0466 09       		.uleb128 0x9
 1343 0467 16040000 		.4byte	.LASF84
 1344 046b 09       		.byte	0x9
 1345 046c B301     		.2byte	0x1b3
 1346 046e 53010000 		.4byte	0x153
 1347 0472 08       		.byte	0x8
 1348 0473 09       		.uleb128 0x9
 1349 0474 9C090000 		.4byte	.LASF85
 1350 0478 09       		.byte	0x9
 1351 0479 B901     		.2byte	0x1b9
 1352 047b 0E070000 		.4byte	0x70e
 1353 047f 0C       		.byte	0xc
 1354 0480 00       		.byte	0
 1355 0481 03       		.uleb128 0x3
 1356 0482 15050000 		.4byte	.LASF86
 1357 0486 08       		.byte	0x8
ARM GAS  C:\Users\Moi\AppData\Local\Temp\ccEMjYGE.s 			page 25


 1358 0487 70       		.byte	0x70
 1359 0488 8C040000 		.4byte	0x48c
 1360 048c 0F       		.uleb128 0xf
 1361 048d 43030000 		.4byte	.LASF87
 1362 0491 7006     		.2byte	0x670
 1363 0493 09       		.byte	0x9
 1364 0494 C201     		.2byte	0x1c2
 1365 0496 F9040000 		.4byte	0x4f9
 1366 049a 09       		.uleb128 0x9
 1367 049b 21090000 		.4byte	.LASF88
 1368 049f 09       		.byte	0x9
 1369 04a0 C601     		.2byte	0x1c6
 1370 04a2 07030000 		.4byte	0x307
 1371 04a6 00       		.byte	0
 1372 04a7 09       		.uleb128 0x9
 1373 04a8 13030000 		.4byte	.LASF89
 1374 04ac 09       		.byte	0x9
 1375 04ad CA01     		.2byte	0x1ca
 1376 04af E6030000 		.4byte	0x3e6
 1377 04b3 1C       		.byte	0x1c
 1378 04b4 08       		.uleb128 0x8
 1379 04b5 64626700 		.ascii	"dbg\000"
 1380 04b9 09       		.byte	0x9
 1381 04ba CE01     		.2byte	0x1ce
 1382 04bc 33040000 		.4byte	0x433
 1383 04c0 2C       		.byte	0x2c
 1384 04c1 10       		.uleb128 0x10
 1385 04c2 F8040000 		.4byte	.LASF90
 1386 04c6 09       		.byte	0x9
 1387 04c7 D201     		.2byte	0x1d2
 1388 04c9 79010000 		.4byte	0x179
 1389 04cd 4004     		.2byte	0x440
 1390 04cf 11       		.uleb128 0x11
 1391 04d0 746D00   		.ascii	"tm\000"
 1392 04d3 09       		.byte	0x9
 1393 04d4 D701     		.2byte	0x1d7
 1394 04d6 2E070000 		.4byte	0x72e
 1395 04da A804     		.2byte	0x4a8
 1396 04dc 10       		.uleb128 0x10
 1397 04dd 39000000 		.4byte	.LASF91
 1398 04e1 09       		.byte	0x9
 1399 04e2 DD01     		.2byte	0x1dd
 1400 04e4 C0070000 		.4byte	0x7c0
 1401 04e8 B004     		.2byte	0x4b0
 1402 04ea 10       		.uleb128 0x10
 1403 04eb 1F040000 		.4byte	.LASF92
 1404 04ef 09       		.byte	0x9
 1405 04f0 E301     		.2byte	0x1e3
 1406 04f2 BF080000 		.4byte	0x8bf
 1407 04f6 E804     		.2byte	0x4e8
 1408 04f8 00       		.byte	0
 1409 04f9 12       		.uleb128 0x12
 1410 04fa 85020000 		.4byte	.LASF93
 1411 04fe 0A       		.byte	0xa
 1412 04ff A706     		.2byte	0x6a7
 1413 0501 D5000000 		.4byte	0xd5
 1414 0505 13       		.uleb128 0x13
ARM GAS  C:\Users\Moi\AppData\Local\Temp\ccEMjYGE.s 			page 26


 1415 0506 5D040000 		.4byte	.LASF94
 1416 050a 0B       		.byte	0xb
 1417 050b 4C       		.byte	0x4c
 1418 050c DA000000 		.4byte	0xda
 1419 0510 03       		.uleb128 0x3
 1420 0511 D7030000 		.4byte	.LASF95
 1421 0515 0C       		.byte	0xc
 1422 0516 65       		.byte	0x65
 1423 0517 8A030000 		.4byte	0x38a
 1424 051b 03       		.uleb128 0x3
 1425 051c 68050000 		.4byte	.LASF96
 1426 0520 0C       		.byte	0xc
 1427 0521 6D       		.byte	0x6d
 1428 0522 E5000000 		.4byte	0xe5
 1429 0526 06       		.uleb128 0x6
 1430 0527 C8080000 		.4byte	.LASF97
 1431 052b 04       		.byte	0x4
 1432 052c 0C       		.byte	0xc
 1433 052d 89       		.byte	0x89
 1434 052e 3F050000 		.4byte	0x53f
 1435 0532 14       		.uleb128 0x14
 1436 0533 72313300 		.ascii	"r13\000"
 1437 0537 0C       		.byte	0xc
 1438 0538 8A       		.byte	0x8a
 1439 0539 80060000 		.4byte	0x680
 1440 053d 00       		.byte	0
 1441 053e 00       		.byte	0
 1442 053f 06       		.uleb128 0x6
 1443 0540 5C000000 		.4byte	.LASF98
 1444 0544 64       		.byte	0x64
 1445 0545 0D       		.byte	0xd
 1446 0546 F4       		.byte	0xf4
 1447 0547 80060000 		.4byte	0x680
 1448 054b 14       		.uleb128 0x14
 1449 054c 73313600 		.ascii	"s16\000"
 1450 0550 0D       		.byte	0xd
 1451 0551 F6       		.byte	0xf6
 1452 0552 10050000 		.4byte	0x510
 1453 0556 00       		.byte	0
 1454 0557 14       		.uleb128 0x14
 1455 0558 73313700 		.ascii	"s17\000"
 1456 055c 0D       		.byte	0xd
 1457 055d F7       		.byte	0xf7
 1458 055e 10050000 		.4byte	0x510
 1459 0562 04       		.byte	0x4
 1460 0563 14       		.uleb128 0x14
 1461 0564 73313800 		.ascii	"s18\000"
 1462 0568 0D       		.byte	0xd
 1463 0569 F8       		.byte	0xf8
 1464 056a 10050000 		.4byte	0x510
 1465 056e 08       		.byte	0x8
 1466 056f 14       		.uleb128 0x14
 1467 0570 73313900 		.ascii	"s19\000"
 1468 0574 0D       		.byte	0xd
 1469 0575 F9       		.byte	0xf9
 1470 0576 10050000 		.4byte	0x510
 1471 057a 0C       		.byte	0xc
ARM GAS  C:\Users\Moi\AppData\Local\Temp\ccEMjYGE.s 			page 27


 1472 057b 14       		.uleb128 0x14
 1473 057c 73323000 		.ascii	"s20\000"
 1474 0580 0D       		.byte	0xd
 1475 0581 FA       		.byte	0xfa
 1476 0582 10050000 		.4byte	0x510
 1477 0586 10       		.byte	0x10
 1478 0587 14       		.uleb128 0x14
 1479 0588 73323100 		.ascii	"s21\000"
 1480 058c 0D       		.byte	0xd
 1481 058d FB       		.byte	0xfb
 1482 058e 10050000 		.4byte	0x510
 1483 0592 14       		.byte	0x14
 1484 0593 14       		.uleb128 0x14
 1485 0594 73323200 		.ascii	"s22\000"
 1486 0598 0D       		.byte	0xd
 1487 0599 FC       		.byte	0xfc
 1488 059a 10050000 		.4byte	0x510
 1489 059e 18       		.byte	0x18
 1490 059f 14       		.uleb128 0x14
 1491 05a0 73323300 		.ascii	"s23\000"
 1492 05a4 0D       		.byte	0xd
 1493 05a5 FD       		.byte	0xfd
 1494 05a6 10050000 		.4byte	0x510
 1495 05aa 1C       		.byte	0x1c
 1496 05ab 14       		.uleb128 0x14
 1497 05ac 73323400 		.ascii	"s24\000"
 1498 05b0 0D       		.byte	0xd
 1499 05b1 FE       		.byte	0xfe
 1500 05b2 10050000 		.4byte	0x510
 1501 05b6 20       		.byte	0x20
 1502 05b7 14       		.uleb128 0x14
 1503 05b8 73323500 		.ascii	"s25\000"
 1504 05bc 0D       		.byte	0xd
 1505 05bd FF       		.byte	0xff
 1506 05be 10050000 		.4byte	0x510
 1507 05c2 24       		.byte	0x24
 1508 05c3 08       		.uleb128 0x8
 1509 05c4 73323600 		.ascii	"s26\000"
 1510 05c8 0D       		.byte	0xd
 1511 05c9 0001     		.2byte	0x100
 1512 05cb 10050000 		.4byte	0x510
 1513 05cf 28       		.byte	0x28
 1514 05d0 08       		.uleb128 0x8
 1515 05d1 73323700 		.ascii	"s27\000"
 1516 05d5 0D       		.byte	0xd
 1517 05d6 0101     		.2byte	0x101
 1518 05d8 10050000 		.4byte	0x510
 1519 05dc 2C       		.byte	0x2c
 1520 05dd 08       		.uleb128 0x8
 1521 05de 73323800 		.ascii	"s28\000"
 1522 05e2 0D       		.byte	0xd
 1523 05e3 0201     		.2byte	0x102
 1524 05e5 10050000 		.4byte	0x510
 1525 05e9 30       		.byte	0x30
 1526 05ea 08       		.uleb128 0x8
 1527 05eb 73323900 		.ascii	"s29\000"
 1528 05ef 0D       		.byte	0xd
ARM GAS  C:\Users\Moi\AppData\Local\Temp\ccEMjYGE.s 			page 28


 1529 05f0 0301     		.2byte	0x103
 1530 05f2 10050000 		.4byte	0x510
 1531 05f6 34       		.byte	0x34
 1532 05f7 08       		.uleb128 0x8
 1533 05f8 73333000 		.ascii	"s30\000"
 1534 05fc 0D       		.byte	0xd
 1535 05fd 0401     		.2byte	0x104
 1536 05ff 10050000 		.4byte	0x510
 1537 0603 38       		.byte	0x38
 1538 0604 08       		.uleb128 0x8
 1539 0605 73333100 		.ascii	"s31\000"
 1540 0609 0D       		.byte	0xd
 1541 060a 0501     		.2byte	0x105
 1542 060c 10050000 		.4byte	0x510
 1543 0610 3C       		.byte	0x3c
 1544 0611 08       		.uleb128 0x8
 1545 0612 723400   		.ascii	"r4\000"
 1546 0615 0D       		.byte	0xd
 1547 0616 0701     		.2byte	0x107
 1548 0618 10050000 		.4byte	0x510
 1549 061c 40       		.byte	0x40
 1550 061d 08       		.uleb128 0x8
 1551 061e 723500   		.ascii	"r5\000"
 1552 0621 0D       		.byte	0xd
 1553 0622 0801     		.2byte	0x108
 1554 0624 10050000 		.4byte	0x510
 1555 0628 44       		.byte	0x44
 1556 0629 08       		.uleb128 0x8
 1557 062a 723600   		.ascii	"r6\000"
 1558 062d 0D       		.byte	0xd
 1559 062e 0901     		.2byte	0x109
 1560 0630 10050000 		.4byte	0x510
 1561 0634 48       		.byte	0x48
 1562 0635 08       		.uleb128 0x8
 1563 0636 723700   		.ascii	"r7\000"
 1564 0639 0D       		.byte	0xd
 1565 063a 0A01     		.2byte	0x10a
 1566 063c 10050000 		.4byte	0x510
 1567 0640 4C       		.byte	0x4c
 1568 0641 08       		.uleb128 0x8
 1569 0642 723800   		.ascii	"r8\000"
 1570 0645 0D       		.byte	0xd
 1571 0646 0B01     		.2byte	0x10b
 1572 0648 10050000 		.4byte	0x510
 1573 064c 50       		.byte	0x50
 1574 064d 08       		.uleb128 0x8
 1575 064e 723900   		.ascii	"r9\000"
 1576 0651 0D       		.byte	0xd
 1577 0652 0C01     		.2byte	0x10c
 1578 0654 10050000 		.4byte	0x510
 1579 0658 54       		.byte	0x54
 1580 0659 08       		.uleb128 0x8
 1581 065a 72313000 		.ascii	"r10\000"
 1582 065e 0D       		.byte	0xd
 1583 065f 0D01     		.2byte	0x10d
 1584 0661 10050000 		.4byte	0x510
 1585 0665 58       		.byte	0x58
ARM GAS  C:\Users\Moi\AppData\Local\Temp\ccEMjYGE.s 			page 29


 1586 0666 08       		.uleb128 0x8
 1587 0667 72313100 		.ascii	"r11\000"
 1588 066b 0D       		.byte	0xd
 1589 066c 0E01     		.2byte	0x10e
 1590 066e 10050000 		.4byte	0x510
 1591 0672 5C       		.byte	0x5c
 1592 0673 08       		.uleb128 0x8
 1593 0674 6C7200   		.ascii	"lr\000"
 1594 0677 0D       		.byte	0xd
 1595 0678 0F01     		.2byte	0x10f
 1596 067a 10050000 		.4byte	0x510
 1597 067e 60       		.byte	0x60
 1598 067f 00       		.byte	0
 1599 0680 0A       		.uleb128 0xa
 1600 0681 04       		.byte	0x4
 1601 0682 3F050000 		.4byte	0x53f
 1602 0686 15       		.uleb128 0x15
 1603 0687 10       		.byte	0x10
 1604 0688 0E       		.byte	0xe
 1605 0689 51       		.byte	0x51
 1606 068a BF060000 		.4byte	0x6bf
 1607 068e 07       		.uleb128 0x7
 1608 068f 15000000 		.4byte	.LASF99
 1609 0693 0E       		.byte	0xe
 1610 0694 55       		.byte	0x55
 1611 0695 69010000 		.4byte	0x169
 1612 0699 00       		.byte	0
 1613 069a 07       		.uleb128 0x7
 1614 069b 81030000 		.4byte	.LASF100
 1615 069f 0E       		.byte	0xe
 1616 06a0 59       		.byte	0x59
 1617 06a1 AD020000 		.4byte	0x2ad
 1618 06a5 04       		.byte	0x4
 1619 06a6 07       		.uleb128 0x7
 1620 06a7 D3090000 		.4byte	.LASF101
 1621 06ab 0E       		.byte	0xe
 1622 06ac 5D       		.byte	0x5d
 1623 06ad 8A030000 		.4byte	0x38a
 1624 06b1 08       		.byte	0x8
 1625 06b2 07       		.uleb128 0x7
 1626 06b3 18090000 		.4byte	.LASF102
 1627 06b7 0E       		.byte	0xe
 1628 06b8 61       		.byte	0x61
 1629 06b9 B4000000 		.4byte	0xb4
 1630 06bd 0C       		.byte	0xc
 1631 06be 00       		.byte	0
 1632 06bf 03       		.uleb128 0x3
 1633 06c0 FC050000 		.4byte	.LASF103
 1634 06c4 0E       		.byte	0xe
 1635 06c5 62       		.byte	0x62
 1636 06c6 86060000 		.4byte	0x686
 1637 06ca 16       		.uleb128 0x16
 1638 06cb 0804     		.2byte	0x408
 1639 06cd 0E       		.byte	0xe
 1640 06ce 67       		.byte	0x67
 1641 06cf F8060000 		.4byte	0x6f8
 1642 06d3 07       		.uleb128 0x7
ARM GAS  C:\Users\Moi\AppData\Local\Temp\ccEMjYGE.s 			page 30


 1643 06d4 BB030000 		.4byte	.LASF104
 1644 06d8 0E       		.byte	0xe
 1645 06d9 6B       		.byte	0x6b
 1646 06da 37000000 		.4byte	0x37
 1647 06de 00       		.byte	0
 1648 06df 07       		.uleb128 0x7
 1649 06e0 F5050000 		.4byte	.LASF105
 1650 06e4 0E       		.byte	0xe
 1651 06e5 6F       		.byte	0x6f
 1652 06e6 F8060000 		.4byte	0x6f8
 1653 06ea 04       		.byte	0x4
 1654 06eb 07       		.uleb128 0x7
 1655 06ec 85060000 		.4byte	.LASF106
 1656 06f0 0E       		.byte	0xe
 1657 06f1 73       		.byte	0x73
 1658 06f2 FE060000 		.4byte	0x6fe
 1659 06f6 08       		.byte	0x8
 1660 06f7 00       		.byte	0
 1661 06f8 0A       		.uleb128 0xa
 1662 06f9 04       		.byte	0x4
 1663 06fa BF060000 		.4byte	0x6bf
 1664 06fe 17       		.uleb128 0x17
 1665 06ff BF060000 		.4byte	0x6bf
 1666 0703 0E070000 		.4byte	0x70e
 1667 0707 18       		.uleb128 0x18
 1668 0708 37000000 		.4byte	0x37
 1669 070c 3F       		.byte	0x3f
 1670 070d 00       		.byte	0
 1671 070e 03       		.uleb128 0x3
 1672 070f F2000000 		.4byte	.LASF107
 1673 0713 0E       		.byte	0xe
 1674 0714 74       		.byte	0x74
 1675 0715 CA060000 		.4byte	0x6ca
 1676 0719 15       		.uleb128 0x15
 1677 071a 04       		.byte	0x4
 1678 071b 0F       		.byte	0xf
 1679 071c 38       		.byte	0x38
 1680 071d 2E070000 		.4byte	0x72e
 1681 0721 07       		.uleb128 0x7
 1682 0722 B9080000 		.4byte	.LASF108
 1683 0726 0F       		.byte	0xf
 1684 0727 3C       		.byte	0x3c
 1685 0728 F0000000 		.4byte	0xf0
 1686 072c 00       		.byte	0
 1687 072d 00       		.byte	0
 1688 072e 03       		.uleb128 0x3
 1689 072f 49060000 		.4byte	.LASF109
 1690 0733 0F       		.byte	0xf
 1691 0734 3D       		.byte	0x3d
 1692 0735 19070000 		.4byte	0x719
 1693 0739 15       		.uleb128 0x15
 1694 073a 18       		.byte	0x18
 1695 073b 0F       		.byte	0xf
 1696 073c 48       		.byte	0x48
 1697 073d 7C070000 		.4byte	0x77c
 1698 0741 07       		.uleb128 0x7
 1699 0742 6C080000 		.4byte	.LASF110
ARM GAS  C:\Users\Moi\AppData\Local\Temp\ccEMjYGE.s 			page 31


 1700 0746 0F       		.byte	0xf
 1701 0747 49       		.byte	0x49
 1702 0748 F0000000 		.4byte	0xf0
 1703 074c 00       		.byte	0
 1704 074d 07       		.uleb128 0x7
 1705 074e C2000000 		.4byte	.LASF111
 1706 0752 0F       		.byte	0xf
 1707 0753 4A       		.byte	0x4a
 1708 0754 F0000000 		.4byte	0xf0
 1709 0758 04       		.byte	0x4
 1710 0759 07       		.uleb128 0x7
 1711 075a 09050000 		.4byte	.LASF112
 1712 075e 0F       		.byte	0xf
 1713 075f 4B       		.byte	0x4b
 1714 0760 F0000000 		.4byte	0xf0
 1715 0764 08       		.byte	0x8
 1716 0765 14       		.uleb128 0x14
 1717 0766 6E00     		.ascii	"n\000"
 1718 0768 0F       		.byte	0xf
 1719 0769 4C       		.byte	0x4c
 1720 076a 5E010000 		.4byte	0x15e
 1721 076e 0C       		.byte	0xc
 1722 076f 07       		.uleb128 0x7
 1723 0770 72060000 		.4byte	.LASF113
 1724 0774 0F       		.byte	0xf
 1725 0775 4D       		.byte	0x4d
 1726 0776 FB000000 		.4byte	0xfb
 1727 077a 10       		.byte	0x10
 1728 077b 00       		.byte	0
 1729 077c 03       		.uleb128 0x3
 1730 077d C8000000 		.4byte	.LASF114
 1731 0781 0F       		.byte	0xf
 1732 0782 4E       		.byte	0x4e
 1733 0783 39070000 		.4byte	0x739
 1734 0787 15       		.uleb128 0x15
 1735 0788 38       		.byte	0x38
 1736 0789 10       		.byte	0x10
 1737 078a 38       		.byte	0x38
 1738 078b C0070000 		.4byte	0x7c0
 1739 078f 07       		.uleb128 0x7
 1740 0790 B3040000 		.4byte	.LASF115
 1741 0794 10       		.byte	0x10
 1742 0795 39       		.byte	0x39
 1743 0796 5E010000 		.4byte	0x15e
 1744 079a 00       		.byte	0
 1745 079b 07       		.uleb128 0x7
 1746 079c BE060000 		.4byte	.LASF116
 1747 07a0 10       		.byte	0x10
 1748 07a1 3A       		.byte	0x3a
 1749 07a2 5E010000 		.4byte	0x15e
 1750 07a6 04       		.byte	0x4
 1751 07a7 07       		.uleb128 0x7
 1752 07a8 C0090000 		.4byte	.LASF117
 1753 07ac 10       		.byte	0x10
 1754 07ad 3B       		.byte	0x3b
 1755 07ae 7C070000 		.4byte	0x77c
 1756 07b2 08       		.byte	0x8
ARM GAS  C:\Users\Moi\AppData\Local\Temp\ccEMjYGE.s 			page 32


 1757 07b3 07       		.uleb128 0x7
 1758 07b4 2D050000 		.4byte	.LASF118
 1759 07b8 10       		.byte	0x10
 1760 07b9 3D       		.byte	0x3d
 1761 07ba 7C070000 		.4byte	0x77c
 1762 07be 20       		.byte	0x20
 1763 07bf 00       		.byte	0
 1764 07c0 03       		.uleb128 0x3
 1765 07c1 D2040000 		.4byte	.LASF119
 1766 07c5 10       		.byte	0x10
 1767 07c6 3F       		.byte	0x3f
 1768 07c7 87070000 		.4byte	0x787
 1769 07cb 19       		.uleb128 0x19
 1770 07cc 04       		.byte	0x4
 1771 07cd 09       		.byte	0x9
 1772 07ce FA       		.byte	0xfa
 1773 07cf 28080000 		.4byte	0x828
 1774 07d3 1A       		.uleb128 0x1a
 1775 07d4 29000000 		.4byte	.LASF120
 1776 07d8 09       		.byte	0x9
 1777 07d9 0101     		.2byte	0x101
 1778 07db 3D010000 		.4byte	0x13d
 1779 07df 1A       		.uleb128 0x1a
 1780 07e0 41020000 		.4byte	.LASF121
 1781 07e4 09       		.byte	0x9
 1782 07e5 0801     		.2byte	0x108
 1783 07e7 3D010000 		.4byte	0x13d
 1784 07eb 1A       		.uleb128 0x1a
 1785 07ec 76090000 		.4byte	.LASF122
 1786 07f0 09       		.byte	0x9
 1787 07f1 0F01     		.2byte	0x10f
 1788 07f3 8A030000 		.4byte	0x38a
 1789 07f7 1A       		.uleb128 0x1a
 1790 07f8 3D030000 		.4byte	.LASF123
 1791 07fc 09       		.byte	0x9
 1792 07fd 1601     		.2byte	0x116
 1793 07ff 28080000 		.4byte	0x828
 1794 0803 1A       		.uleb128 0x1a
 1795 0804 74040000 		.4byte	.LASF124
 1796 0808 09       		.byte	0x9
 1797 0809 1E01     		.2byte	0x11e
 1798 080b 53080000 		.4byte	0x853
 1799 080f 1A       		.uleb128 0x1a
 1800 0810 4B080000 		.4byte	.LASF125
 1801 0814 09       		.byte	0x9
 1802 0815 2701     		.2byte	0x127
 1803 0817 96080000 		.4byte	0x896
 1804 081b 1A       		.uleb128 0x1a
 1805 081c 16070000 		.4byte	.LASF126
 1806 0820 09       		.byte	0x9
 1807 0821 2F01     		.2byte	0x12f
 1808 0823 48010000 		.4byte	0x148
 1809 0827 00       		.byte	0
 1810 0828 0A       		.uleb128 0xa
 1811 0829 04       		.byte	0x4
 1812 082a A2020000 		.4byte	0x2a2
 1813 082e 06       		.uleb128 0x6
ARM GAS  C:\Users\Moi\AppData\Local\Temp\ccEMjYGE.s 			page 33


 1814 082f D8070000 		.4byte	.LASF127
 1815 0833 0C       		.byte	0xc
 1816 0834 11       		.byte	0x11
 1817 0835 34       		.byte	0x34
 1818 0836 53080000 		.4byte	0x853
 1819 083a 07       		.uleb128 0x7
 1820 083b 99030000 		.4byte	.LASF128
 1821 083f 11       		.byte	0x11
 1822 0840 35       		.byte	0x35
 1823 0841 D7020000 		.4byte	0x2d7
 1824 0845 00       		.byte	0
 1825 0846 07       		.uleb128 0x7
 1826 0847 B9040000 		.4byte	.LASF129
 1827 084b 11       		.byte	0x11
 1828 084c 37       		.byte	0x37
 1829 084d 53010000 		.4byte	0x153
 1830 0851 08       		.byte	0x8
 1831 0852 00       		.byte	0
 1832 0853 0A       		.uleb128 0xa
 1833 0854 04       		.byte	0x4
 1834 0855 2E080000 		.4byte	0x82e
 1835 0859 06       		.uleb128 0x6
 1836 085a 00090000 		.4byte	.LASF130
 1837 085e 14       		.byte	0x14
 1838 085f 12       		.byte	0x12
 1839 0860 39       		.byte	0x39
 1840 0861 96080000 		.4byte	0x896
 1841 0865 07       		.uleb128 0x7
 1842 0866 00030000 		.4byte	.LASF131
 1843 086a 12       		.byte	0x12
 1844 086b 3A       		.byte	0x3a
 1845 086c D7020000 		.4byte	0x2d7
 1846 0870 00       		.byte	0
 1847 0871 07       		.uleb128 0x7
 1848 0872 CB090000 		.4byte	.LASF132
 1849 0876 12       		.byte	0x12
 1850 0877 3C       		.byte	0x3c
 1851 0878 AD020000 		.4byte	0x2ad
 1852 087c 08       		.byte	0x8
 1853 087d 07       		.uleb128 0x7
 1854 087e 71080000 		.4byte	.LASF133
 1855 0882 12       		.byte	0x12
 1856 0883 3E       		.byte	0x3e
 1857 0884 FC090000 		.4byte	0x9fc
 1858 0888 0C       		.byte	0xc
 1859 0889 07       		.uleb128 0x7
 1860 088a 02040000 		.4byte	.LASF134
 1861 088e 12       		.byte	0x12
 1862 088f 41       		.byte	0x41
 1863 0890 53010000 		.4byte	0x153
 1864 0894 10       		.byte	0x10
 1865 0895 00       		.byte	0
 1866 0896 0A       		.uleb128 0xa
 1867 0897 04       		.byte	0x4
 1868 0898 59080000 		.4byte	0x859
 1869 089c 0A       		.uleb128 0xa
 1870 089d 04       		.byte	0x4
ARM GAS  C:\Users\Moi\AppData\Local\Temp\ccEMjYGE.s 			page 34


 1871 089e AE080000 		.4byte	0x8ae
 1872 08a2 05       		.uleb128 0x5
 1873 08a3 9C080000 		.4byte	0x89c
 1874 08a7 04       		.uleb128 0x4
 1875 08a8 01       		.byte	0x1
 1876 08a9 08       		.byte	0x8
 1877 08aa 46080000 		.4byte	.LASF135
 1878 08ae 1B       		.uleb128 0x1b
 1879 08af A7080000 		.4byte	0x8a7
 1880 08b3 0A       		.uleb128 0xa
 1881 08b4 04       		.byte	0x4
 1882 08b5 1B050000 		.4byte	0x51b
 1883 08b9 0A       		.uleb128 0xa
 1884 08ba 04       		.byte	0x4
 1885 08bb 8C030000 		.4byte	0x38c
 1886 08bf 17       		.uleb128 0x17
 1887 08c0 1B050000 		.4byte	0x51b
 1888 08c4 CF080000 		.4byte	0x8cf
 1889 08c8 18       		.uleb128 0x18
 1890 08c9 37000000 		.4byte	0x37
 1891 08cd 30       		.byte	0x30
 1892 08ce 00       		.byte	0
 1893 08cf 1C       		.uleb128 0x1c
 1894 08d0 636800   		.ascii	"ch\000"
 1895 08d3 09       		.byte	0x9
 1896 08d4 0902     		.2byte	0x209
 1897 08d6 81040000 		.4byte	0x481
 1898 08da 03       		.uleb128 0x3
 1899 08db 00000000 		.4byte	.LASF136
 1900 08df 13       		.byte	0x13
 1901 08e0 34       		.byte	0x34
 1902 08e1 79030000 		.4byte	0x379
 1903 08e5 15       		.uleb128 0x15
 1904 08e6 16       		.byte	0x16
 1905 08e7 14       		.byte	0x14
 1906 08e8 34       		.byte	0x34
 1907 08e9 C6090000 		.4byte	0x9c6
 1908 08ed 07       		.uleb128 0x7
 1909 08ee DD090000 		.4byte	.LASF137
 1910 08f2 14       		.byte	0x14
 1911 08f3 35       		.byte	0x35
 1912 08f4 C6090000 		.4byte	0x9c6
 1913 08f8 00       		.byte	0
 1914 08f9 07       		.uleb128 0x7
 1915 08fa 73050000 		.4byte	.LASF138
 1916 08fe 14       		.byte	0x14
 1917 08ff 36       		.byte	0x36
 1918 0900 B4000000 		.4byte	0xb4
 1919 0904 04       		.byte	0x4
 1920 0905 07       		.uleb128 0x7
 1921 0906 1D080000 		.4byte	.LASF139
 1922 090a 14       		.byte	0x14
 1923 090b 37       		.byte	0x37
 1924 090c B4000000 		.4byte	0xb4
 1925 0910 05       		.byte	0x5
 1926 0911 07       		.uleb128 0x7
 1927 0912 B5090000 		.4byte	.LASF140
ARM GAS  C:\Users\Moi\AppData\Local\Temp\ccEMjYGE.s 			page 35


 1928 0916 14       		.byte	0x14
 1929 0917 38       		.byte	0x38
 1930 0918 BF000000 		.4byte	0xbf
 1931 091c 06       		.byte	0x6
 1932 091d 07       		.uleb128 0x7
 1933 091e 8F060000 		.4byte	.LASF141
 1934 0922 14       		.byte	0x14
 1935 0923 39       		.byte	0x39
 1936 0924 B4000000 		.4byte	0xb4
 1937 0928 08       		.byte	0x8
 1938 0929 07       		.uleb128 0x7
 1939 092a E9050000 		.4byte	.LASF142
 1940 092e 14       		.byte	0x14
 1941 092f 3A       		.byte	0x3a
 1942 0930 B4000000 		.4byte	0xb4
 1943 0934 09       		.byte	0x9
 1944 0935 07       		.uleb128 0x7
 1945 0936 33020000 		.4byte	.LASF143
 1946 093a 14       		.byte	0x14
 1947 093b 3B       		.byte	0x3b
 1948 093c B4000000 		.4byte	0xb4
 1949 0940 0A       		.byte	0xa
 1950 0941 07       		.uleb128 0x7
 1951 0942 F9070000 		.4byte	.LASF144
 1952 0946 14       		.byte	0x14
 1953 0947 3C       		.byte	0x3c
 1954 0948 B4000000 		.4byte	0xb4
 1955 094c 0B       		.byte	0xb
 1956 094d 07       		.uleb128 0x7
 1957 094e F5080000 		.4byte	.LASF145
 1958 0952 14       		.byte	0x14
 1959 0953 3D       		.byte	0x3d
 1960 0954 B4000000 		.4byte	0xb4
 1961 0958 0C       		.byte	0xc
 1962 0959 07       		.uleb128 0x7
 1963 095a BA070000 		.4byte	.LASF146
 1964 095e 14       		.byte	0x14
 1965 095f 3E       		.byte	0x3e
 1966 0960 B4000000 		.4byte	0xb4
 1967 0964 0D       		.byte	0xd
 1968 0965 07       		.uleb128 0x7
 1969 0966 7B040000 		.4byte	.LASF147
 1970 096a 14       		.byte	0x14
 1971 096b 3F       		.byte	0x3f
 1972 096c B4000000 		.4byte	0xb4
 1973 0970 0E       		.byte	0xe
 1974 0971 07       		.uleb128 0x7
 1975 0972 0B060000 		.4byte	.LASF148
 1976 0976 14       		.byte	0x14
 1977 0977 40       		.byte	0x40
 1978 0978 B4000000 		.4byte	0xb4
 1979 097c 0F       		.byte	0xf
 1980 097d 07       		.uleb128 0x7
 1981 097e DB020000 		.4byte	.LASF149
 1982 0982 14       		.byte	0x14
 1983 0983 41       		.byte	0x41
 1984 0984 B4000000 		.4byte	0xb4
ARM GAS  C:\Users\Moi\AppData\Local\Temp\ccEMjYGE.s 			page 36


 1985 0988 10       		.byte	0x10
 1986 0989 07       		.uleb128 0x7
 1987 098a AE020000 		.4byte	.LASF150
 1988 098e 14       		.byte	0x14
 1989 098f 43       		.byte	0x43
 1990 0990 B4000000 		.4byte	0xb4
 1991 0994 11       		.byte	0x11
 1992 0995 07       		.uleb128 0x7
 1993 0996 EB020000 		.4byte	.LASF151
 1994 099a 14       		.byte	0x14
 1995 099b 44       		.byte	0x44
 1996 099c B4000000 		.4byte	0xb4
 1997 09a0 12       		.byte	0x12
 1998 09a1 07       		.uleb128 0x7
 1999 09a2 7B050000 		.4byte	.LASF152
 2000 09a6 14       		.byte	0x14
 2001 09a7 45       		.byte	0x45
 2002 09a8 B4000000 		.4byte	0xb4
 2003 09ac 13       		.byte	0x13
 2004 09ad 07       		.uleb128 0x7
 2005 09ae 2C070000 		.4byte	.LASF153
 2006 09b2 14       		.byte	0x14
 2007 09b3 46       		.byte	0x46
 2008 09b4 B4000000 		.4byte	0xb4
 2009 09b8 14       		.byte	0x14
 2010 09b9 07       		.uleb128 0x7
 2011 09ba 21050000 		.4byte	.LASF154
 2012 09be 14       		.byte	0x14
 2013 09bf 48       		.byte	0x48
 2014 09c0 B4000000 		.4byte	0xb4
 2015 09c4 15       		.byte	0x15
 2016 09c5 00       		.byte	0
 2017 09c6 17       		.uleb128 0x17
 2018 09c7 A7080000 		.4byte	0x8a7
 2019 09cb D6090000 		.4byte	0x9d6
 2020 09cf 18       		.uleb128 0x18
 2021 09d0 37000000 		.4byte	0x37
 2022 09d4 03       		.byte	0x3
 2023 09d5 00       		.byte	0
 2024 09d6 03       		.uleb128 0x3
 2025 09d7 87030000 		.4byte	.LASF155
 2026 09db 14       		.byte	0x14
 2027 09dc 49       		.byte	0x49
 2028 09dd E5080000 		.4byte	0x8e5
 2029 09e1 1B       		.uleb128 0x1b
 2030 09e2 D6090000 		.4byte	0x9d6
 2031 09e6 13       		.uleb128 0x13
 2032 09e7 9C040000 		.4byte	.LASF156
 2033 09eb 14       		.byte	0x14
 2034 09ec 6E       		.byte	0x6e
 2035 09ed E1090000 		.4byte	0x9e1
 2036 09f1 03       		.uleb128 0x3
 2037 09f2 08040000 		.4byte	.LASF157
 2038 09f6 12       		.byte	0x12
 2039 09f7 34       		.byte	0x34
 2040 09f8 59080000 		.4byte	0x859
 2041 09fc 0A       		.uleb128 0xa
ARM GAS  C:\Users\Moi\AppData\Local\Temp\ccEMjYGE.s 			page 37


 2042 09fd 04       		.byte	0x4
 2043 09fe F1090000 		.4byte	0x9f1
 2044 0a02 03       		.uleb128 0x3
 2045 0a03 E1080000 		.4byte	.LASF158
 2046 0a07 15       		.byte	0x15
 2047 0a08 36       		.byte	0x36
 2048 0a09 0D0A0000 		.4byte	0xa0d
 2049 0a0d 0A       		.uleb128 0xa
 2050 0a0e 04       		.byte	0x4
 2051 0a0f 130A0000 		.4byte	0xa13
 2052 0a13 1D       		.uleb128 0x1d
 2053 0a14 8A030000 		.4byte	0x38a
 2054 0a18 220A0000 		.4byte	0xa22
 2055 0a1c 0D       		.uleb128 0xd
 2056 0a1d 2C000000 		.4byte	0x2c
 2057 0a21 00       		.byte	0
 2058 0a22 03       		.uleb128 0x3
 2059 0a23 73030000 		.4byte	.LASF159
 2060 0a27 16       		.byte	0x16
 2061 0a28 3C       		.byte	0x3c
 2062 0a29 2D0A0000 		.4byte	0xa2d
 2063 0a2d 06       		.uleb128 0x6
 2064 0a2e F3090000 		.4byte	.LASF160
 2065 0a32 28       		.byte	0x28
 2066 0a33 16       		.byte	0x16
 2067 0a34 4F       		.byte	0x4f
 2068 0a35 5E0A0000 		.4byte	0xa5e
 2069 0a39 07       		.uleb128 0x7
 2070 0a3a 46090000 		.4byte	.LASF161
 2071 0a3e 16       		.byte	0x16
 2072 0a3f 50       		.byte	0x50
 2073 0a40 020A0000 		.4byte	0xa02
 2074 0a44 00       		.byte	0
 2075 0a45 07       		.uleb128 0x7
 2076 0a46 4A020000 		.4byte	.LASF162
 2077 0a4a 16       		.byte	0x16
 2078 0a4b 52       		.byte	0x52
 2079 0a4c 7D0A0000 		.4byte	0xa7d
 2080 0a50 08       		.byte	0x8
 2081 0a51 07       		.uleb128 0x7
 2082 0a52 D5020000 		.4byte	.LASF163
 2083 0a56 16       		.byte	0x16
 2084 0a57 54       		.byte	0x54
 2085 0a58 F1090000 		.4byte	0x9f1
 2086 0a5c 10       		.byte	0x10
 2087 0a5d 00       		.byte	0
 2088 0a5e 19       		.uleb128 0x19
 2089 0a5f 04       		.byte	0x4
 2090 0a60 16       		.byte	0x16
 2091 0a61 44       		.byte	0x44
 2092 0a62 7D0A0000 		.4byte	0xa7d
 2093 0a66 1E       		.uleb128 0x1e
 2094 0a67 24000000 		.4byte	.LASF164
 2095 0a6b 16       		.byte	0x16
 2096 0a6c 45       		.byte	0x45
 2097 0a6d 9E0A0000 		.4byte	0xa9e
 2098 0a71 1E       		.uleb128 0x1e
ARM GAS  C:\Users\Moi\AppData\Local\Temp\ccEMjYGE.s 			page 38


 2099 0a72 25080000 		.4byte	.LASF165
 2100 0a76 16       		.byte	0x16
 2101 0a77 46       		.byte	0x46
 2102 0a78 A40A0000 		.4byte	0xaa4
 2103 0a7c 00       		.byte	0
 2104 0a7d 1F       		.uleb128 0x1f
 2105 0a7e DD060000 		.4byte	.LASF201
 2106 0a82 08       		.byte	0x8
 2107 0a83 16       		.byte	0x16
 2108 0a84 41       		.byte	0x41
 2109 0a85 9E0A0000 		.4byte	0xa9e
 2110 0a89 1E       		.uleb128 0x1e
 2111 0a8a 98020000 		.4byte	.LASF166
 2112 0a8e 16       		.byte	0x16
 2113 0a8f 42       		.byte	0x42
 2114 0a90 1B050000 		.4byte	0x51b
 2115 0a94 20       		.uleb128 0x20
 2116 0a95 6800     		.ascii	"h\000"
 2117 0a97 16       		.byte	0x16
 2118 0a98 49       		.byte	0x49
 2119 0a99 AA0A0000 		.4byte	0xaaa
 2120 0a9d 00       		.byte	0
 2121 0a9e 0A       		.uleb128 0xa
 2122 0a9f 04       		.byte	0x4
 2123 0aa0 7D0A0000 		.4byte	0xa7d
 2124 0aa4 0A       		.uleb128 0xa
 2125 0aa5 04       		.byte	0x4
 2126 0aa6 220A0000 		.4byte	0xa22
 2127 0aaa 15       		.uleb128 0x15
 2128 0aab 08       		.byte	0x8
 2129 0aac 16       		.byte	0x16
 2130 0aad 43       		.byte	0x43
 2131 0aae C90A0000 		.4byte	0xac9
 2132 0ab2 14       		.uleb128 0x14
 2133 0ab3 7500     		.ascii	"u\000"
 2134 0ab5 16       		.byte	0x16
 2135 0ab6 47       		.byte	0x47
 2136 0ab7 5E0A0000 		.4byte	0xa5e
 2137 0abb 00       		.byte	0
 2138 0abc 07       		.uleb128 0x7
 2139 0abd 8C090000 		.4byte	.LASF167
 2140 0ac1 16       		.byte	0x16
 2141 0ac2 48       		.byte	0x48
 2142 0ac3 2C000000 		.4byte	0x2c
 2143 0ac7 04       		.byte	0x4
 2144 0ac8 00       		.byte	0
 2145 0ac9 06       		.uleb128 0x6
 2146 0aca 46000000 		.4byte	.LASF168
 2147 0ace 04       		.byte	0x4
 2148 0acf 17       		.byte	0x17
 2149 0ad0 38       		.byte	0x38
 2150 0ad1 E20A0000 		.4byte	0xae2
 2151 0ad5 07       		.uleb128 0x7
 2152 0ad6 7D090000 		.4byte	.LASF169
 2153 0ada 17       		.byte	0x17
 2154 0adb 39       		.byte	0x39
 2155 0adc E20A0000 		.4byte	0xae2
ARM GAS  C:\Users\Moi\AppData\Local\Temp\ccEMjYGE.s 			page 39


 2156 0ae0 00       		.byte	0
 2157 0ae1 00       		.byte	0
 2158 0ae2 0A       		.uleb128 0xa
 2159 0ae3 04       		.byte	0x4
 2160 0ae4 C90A0000 		.4byte	0xac9
 2161 0ae8 15       		.uleb128 0x15
 2162 0ae9 0C       		.byte	0xc
 2163 0aea 17       		.byte	0x17
 2164 0aeb 40       		.byte	0x40
 2165 0aec 150B0000 		.4byte	0xb15
 2166 0af0 07       		.uleb128 0x7
 2167 0af1 C0080000 		.4byte	.LASF170
 2168 0af5 17       		.byte	0x17
 2169 0af6 41       		.byte	0x41
 2170 0af7 E20A0000 		.4byte	0xae2
 2171 0afb 00       		.byte	0
 2172 0afc 07       		.uleb128 0x7
 2173 0afd 3A060000 		.4byte	.LASF171
 2174 0b01 17       		.byte	0x17
 2175 0b02 42       		.byte	0x42
 2176 0b03 2C000000 		.4byte	0x2c
 2177 0b07 04       		.byte	0x4
 2178 0b08 07       		.uleb128 0x7
 2179 0b09 CB030000 		.4byte	.LASF172
 2180 0b0d 17       		.byte	0x17
 2181 0b0e 44       		.byte	0x44
 2182 0b0f 020A0000 		.4byte	0xa02
 2183 0b13 08       		.byte	0x8
 2184 0b14 00       		.byte	0
 2185 0b15 03       		.uleb128 0x3
 2186 0b16 A5040000 		.4byte	.LASF173
 2187 0b1a 17       		.byte	0x17
 2188 0b1b 46       		.byte	0x46
 2189 0b1c E80A0000 		.4byte	0xae8
 2190 0b20 21       		.uleb128 0x21
 2191 0b21 A1030000 		.4byte	.LASF175
 2192 0b25 01       		.byte	0x1
 2193 0b26 CC       		.byte	0xcc
 2194 0b27 AD020000 		.4byte	0x2ad
 2195 0b2b 00000000 		.4byte	.LFB222
 2196 0b2f BC000000 		.4byte	.LFE222-.LFB222
 2197 0b33 01       		.uleb128 0x1
 2198 0b34 9C       		.byte	0x9c
 2199 0b35 160D0000 		.4byte	0xd16
 2200 0b39 22       		.uleb128 0x22
 2201 0b3a 6D7000   		.ascii	"mp\000"
 2202 0b3d 01       		.byte	0x1
 2203 0b3e CC       		.byte	0xcc
 2204 0b3f 160D0000 		.4byte	0xd16
 2205 0b43 00000000 		.4byte	.LLST16
 2206 0b47 23       		.uleb128 0x23
 2207 0b48 5A060000 		.4byte	.LASF174
 2208 0b4c 01       		.byte	0x1
 2209 0b4d CC       		.byte	0xcc
 2210 0b4e 32010000 		.4byte	0x132
 2211 0b52 34000000 		.4byte	.LLST17
 2212 0b56 22       		.uleb128 0x22
ARM GAS  C:\Users\Moi\AppData\Local\Temp\ccEMjYGE.s 			page 40


 2213 0b57 706600   		.ascii	"pf\000"
 2214 0b5a 01       		.byte	0x1
 2215 0b5b CD       		.byte	0xcd
 2216 0b5c DA080000 		.4byte	0x8da
 2217 0b60 68000000 		.4byte	.LLST18
 2218 0b64 22       		.uleb128 0x22
 2219 0b65 61726700 		.ascii	"arg\000"
 2220 0b69 01       		.byte	0x1
 2221 0b6a CD       		.byte	0xcd
 2222 0b6b 8A030000 		.4byte	0x38a
 2223 0b6f 9C000000 		.4byte	.LLST19
 2224 0b73 24       		.uleb128 0x24
 2225 0b74 77737000 		.ascii	"wsp\000"
 2226 0b78 01       		.byte	0x1
 2227 0b79 CE       		.byte	0xce
 2228 0b7a 8A030000 		.4byte	0x38a
 2229 0b7e D0000000 		.4byte	.LLST20
 2230 0b82 24       		.uleb128 0x24
 2231 0b83 747000   		.ascii	"tp\000"
 2232 0b86 01       		.byte	0x1
 2233 0b87 CF       		.byte	0xcf
 2234 0b88 AD020000 		.4byte	0x2ad
 2235 0b8c 0A010000 		.4byte	.LLST21
 2236 0b90 25       		.uleb128 0x25
 2237 0b91 43070000 		.4byte	.LASF179
 2238 0b95 2C0D0000 		.4byte	0xd2c
 2239 0b99 05       		.uleb128 0x5
 2240 0b9a 03       		.byte	0x3
 2241 0b9b 00000000 		.4byte	__func__.7876
 2242 0b9f 26       		.uleb128 0x26
 2243 0ba0 DF110000 		.4byte	0x11df
 2244 0ba4 3A000000 		.4byte	.LBB110
 2245 0ba8 0E000000 		.4byte	.LBE110-.LBB110
 2246 0bac 01       		.byte	0x1
 2247 0bad E1       		.byte	0xe1
 2248 0bae F40B0000 		.4byte	0xbf4
 2249 0bb2 27       		.uleb128 0x27
 2250 0bb3 F1110000 		.4byte	0x11f1
 2251 0bb7 3A000000 		.4byte	.LBB112
 2252 0bbb 06000000 		.4byte	.LBE112-.LBB112
 2253 0bbf 03       		.byte	0x3
 2254 0bc0 5C01     		.2byte	0x15c
 2255 0bc2 E10B0000 		.4byte	0xbe1
 2256 0bc6 28       		.uleb128 0x28
 2257 0bc7 FA110000 		.4byte	0x11fa
 2258 0bcb 3A000000 		.4byte	.LBB113
 2259 0bcf 06000000 		.4byte	.LBE113-.LBB113
 2260 0bd3 0D       		.byte	0xd
 2261 0bd4 BF01     		.2byte	0x1bf
 2262 0bd6 29       		.uleb128 0x29
 2263 0bd7 07120000 		.4byte	0x1207
 2264 0bdb 33010000 		.4byte	.LLST22
 2265 0bdf 00       		.byte	0
 2266 0be0 00       		.byte	0
 2267 0be1 2A       		.uleb128 0x2a
 2268 0be2 44000000 		.4byte	.LVL58
 2269 0be6 14120000 		.4byte	0x1214
ARM GAS  C:\Users\Moi\AppData\Local\Temp\ccEMjYGE.s 			page 41


 2270 0bea 2A       		.uleb128 0x2a
 2271 0beb 48000000 		.4byte	.LVL59
 2272 0bef 1F120000 		.4byte	0x121f
 2273 0bf3 00       		.byte	0
 2274 0bf4 2B       		.uleb128 0x2b
 2275 0bf5 C4110000 		.4byte	0x11c4
 2276 0bf9 68000000 		.4byte	.LBB115
 2277 0bfd 48000000 		.4byte	.Ldebug_ranges0+0x48
 2278 0c01 01       		.byte	0x1
 2279 0c02 E6       		.byte	0xe6
 2280 0c03 670C0000 		.4byte	0xc67
 2281 0c07 2C       		.uleb128 0x2c
 2282 0c08 48000000 		.4byte	.Ldebug_ranges0+0x48
 2283 0c0c 2D       		.uleb128 0x2d
 2284 0c0d D1110000 		.4byte	0x11d1
 2285 0c11 27       		.uleb128 0x27
 2286 0c12 E8110000 		.4byte	0x11e8
 2287 0c16 82000000 		.4byte	.LBB117
 2288 0c1a 06000000 		.4byte	.LBE117-.LBB117
 2289 0c1e 03       		.byte	0x3
 2290 0c1f 7301     		.2byte	0x173
 2291 0c21 400C0000 		.4byte	0xc40
 2292 0c25 28       		.uleb128 0x28
 2293 0c26 FA110000 		.4byte	0x11fa
 2294 0c2a 82000000 		.4byte	.LBB118
 2295 0c2e 06000000 		.4byte	.LBE118-.LBB118
 2296 0c32 0D       		.byte	0xd
 2297 0c33 CD01     		.2byte	0x1cd
 2298 0c35 29       		.uleb128 0x29
 2299 0c36 07120000 		.4byte	0x1207
 2300 0c3a 48010000 		.4byte	.LLST23
 2301 0c3e 00       		.byte	0
 2302 0c3f 00       		.byte	0
 2303 0c40 2A       		.uleb128 0x2a
 2304 0c41 6C000000 		.4byte	.LVL63
 2305 0c45 2A120000 		.4byte	0x122a
 2306 0c49 2A       		.uleb128 0x2a
 2307 0c4a 70000000 		.4byte	.LVL64
 2308 0c4e 35120000 		.4byte	0x1235
 2309 0c52 2E       		.uleb128 0x2e
 2310 0c53 9E000000 		.4byte	.LVL68
 2311 0c57 40120000 		.4byte	0x1240
 2312 0c5b 2F       		.uleb128 0x2f
 2313 0c5c 01       		.uleb128 0x1
 2314 0c5d 50       		.byte	0x50
 2315 0c5e 05       		.uleb128 0x5
 2316 0c5f 03       		.byte	0x3
 2317 0c60 00000000 		.4byte	.LANCHOR1
 2318 0c64 00       		.byte	0
 2319 0c65 00       		.byte	0
 2320 0c66 00       		.byte	0
 2321 0c67 30       		.uleb128 0x30
 2322 0c68 1E000000 		.4byte	.LVL54
 2323 0c6c 4C120000 		.4byte	0x124c
 2324 0c70 7B0C0000 		.4byte	0xc7b
 2325 0c74 2F       		.uleb128 0x2f
 2326 0c75 01       		.uleb128 0x1
ARM GAS  C:\Users\Moi\AppData\Local\Temp\ccEMjYGE.s 			page 42


 2327 0c76 50       		.byte	0x50
 2328 0c77 02       		.uleb128 0x2
 2329 0c78 75       		.byte	0x75
 2330 0c79 00       		.sleb128 0
 2331 0c7a 00       		.byte	0
 2332 0c7b 30       		.uleb128 0x30
 2333 0c7c 2E000000 		.4byte	.LVL55
 2334 0c80 57120000 		.4byte	0x1257
 2335 0c84 9B0C0000 		.4byte	0xc9b
 2336 0c88 2F       		.uleb128 0x2f
 2337 0c89 01       		.uleb128 0x1
 2338 0c8a 50       		.byte	0x50
 2339 0c8b 02       		.uleb128 0x2
 2340 0c8c 74       		.byte	0x74
 2341 0c8d 00       		.sleb128 0
 2342 0c8e 2F       		.uleb128 0x2f
 2343 0c8f 01       		.uleb128 0x1
 2344 0c90 51       		.byte	0x51
 2345 0c91 02       		.uleb128 0x2
 2346 0c92 77       		.byte	0x77
 2347 0c93 00       		.sleb128 0
 2348 0c94 2F       		.uleb128 0x2f
 2349 0c95 01       		.uleb128 0x1
 2350 0c96 52       		.byte	0x52
 2351 0c97 02       		.uleb128 0x2
 2352 0c98 09       		.byte	0x9
 2353 0c99 FF       		.byte	0xff
 2354 0c9a 00       		.byte	0
 2355 0c9b 30       		.uleb128 0x30
 2356 0c9c 3A000000 		.4byte	.LVL56
 2357 0ca0 57120000 		.4byte	0x1257
 2358 0ca4 B50C0000 		.4byte	0xcb5
 2359 0ca8 2F       		.uleb128 0x2f
 2360 0ca9 01       		.uleb128 0x1
 2361 0caa 50       		.byte	0x50
 2362 0cab 02       		.uleb128 0x2
 2363 0cac 77       		.byte	0x77
 2364 0cad 00       		.sleb128 0
 2365 0cae 2F       		.uleb128 0x2f
 2366 0caf 01       		.uleb128 0x1
 2367 0cb0 52       		.byte	0x52
 2368 0cb1 02       		.uleb128 0x2
 2369 0cb2 08       		.byte	0x8
 2370 0cb3 55       		.byte	0x55
 2371 0cb4 00       		.byte	0
 2372 0cb5 30       		.uleb128 0x30
 2373 0cb6 58000000 		.4byte	.LVL60
 2374 0cba 62120000 		.4byte	0x1262
 2375 0cbe DC0C0000 		.4byte	0xcdc
 2376 0cc2 2F       		.uleb128 0x2f
 2377 0cc3 01       		.uleb128 0x1
 2378 0cc4 50       		.byte	0x50
 2379 0cc5 02       		.uleb128 0x2
 2380 0cc6 74       		.byte	0x74
 2381 0cc7 00       		.sleb128 0
 2382 0cc8 2F       		.uleb128 0x2f
 2383 0cc9 01       		.uleb128 0x1
ARM GAS  C:\Users\Moi\AppData\Local\Temp\ccEMjYGE.s 			page 43


 2384 0cca 52       		.byte	0x52
 2385 0ccb 02       		.uleb128 0x2
 2386 0ccc 78       		.byte	0x78
 2387 0ccd 00       		.sleb128 0
 2388 0cce 2F       		.uleb128 0x2f
 2389 0ccf 01       		.uleb128 0x1
 2390 0cd0 53       		.byte	0x53
 2391 0cd1 02       		.uleb128 0x2
 2392 0cd2 79       		.byte	0x79
 2393 0cd3 00       		.sleb128 0
 2394 0cd4 2F       		.uleb128 0x2f
 2395 0cd5 02       		.uleb128 0x2
 2396 0cd6 7D       		.byte	0x7d
 2397 0cd7 00       		.sleb128 0
 2398 0cd8 02       		.uleb128 0x2
 2399 0cd9 7A       		.byte	0x7a
 2400 0cda 00       		.sleb128 0
 2401 0cdb 00       		.byte	0
 2402 0cdc 30       		.uleb128 0x30
 2403 0cdd 68000000 		.4byte	.LVL62
 2404 0ce1 6D120000 		.4byte	0x126d
 2405 0ce5 F50C0000 		.4byte	0xcf5
 2406 0ce9 2F       		.uleb128 0x2f
 2407 0cea 01       		.uleb128 0x1
 2408 0ceb 50       		.byte	0x50
 2409 0cec 02       		.uleb128 0x2
 2410 0ced 74       		.byte	0x74
 2411 0cee 00       		.sleb128 0
 2412 0cef 2F       		.uleb128 0x2f
 2413 0cf0 01       		.uleb128 0x1
 2414 0cf1 51       		.byte	0x51
 2415 0cf2 01       		.uleb128 0x1
 2416 0cf3 30       		.byte	0x30
 2417 0cf4 00       		.byte	0
 2418 0cf5 30       		.uleb128 0x30
 2419 0cf6 A6000000 		.4byte	.LVL71
 2420 0cfa 40120000 		.4byte	0x1240
 2421 0cfe 0C0D0000 		.4byte	0xd0c
 2422 0d02 2F       		.uleb128 0x2f
 2423 0d03 01       		.uleb128 0x1
 2424 0d04 50       		.byte	0x50
 2425 0d05 05       		.uleb128 0x5
 2426 0d06 03       		.byte	0x3
 2427 0d07 00000000 		.4byte	.LANCHOR3
 2428 0d0b 00       		.byte	0
 2429 0d0c 2A       		.uleb128 0x2a
 2430 0d0d AC000000 		.4byte	.LVL72
 2431 0d11 79120000 		.4byte	0x1279
 2432 0d15 00       		.byte	0
 2433 0d16 0A       		.uleb128 0xa
 2434 0d17 04       		.byte	0x4
 2435 0d18 150B0000 		.4byte	0xb15
 2436 0d1c 17       		.uleb128 0x17
 2437 0d1d AE080000 		.4byte	0x8ae
 2438 0d21 2C0D0000 		.4byte	0xd2c
 2439 0d25 18       		.uleb128 0x18
 2440 0d26 37000000 		.4byte	0x37
ARM GAS  C:\Users\Moi\AppData\Local\Temp\ccEMjYGE.s 			page 44


 2441 0d2a 19       		.byte	0x19
 2442 0d2b 00       		.byte	0
 2443 0d2c 1B       		.uleb128 0x1b
 2444 0d2d 1C0D0000 		.4byte	0xd1c
 2445 0d31 21       		.uleb128 0x21
 2446 0d32 56030000 		.4byte	.LASF176
 2447 0d36 01       		.byte	0x1
 2448 0d37 98       		.byte	0x98
 2449 0d38 AD020000 		.4byte	0x2ad
 2450 0d3c 00000000 		.4byte	.LFB221
 2451 0d40 A8000000 		.4byte	.LFE221-.LFB221
 2452 0d44 01       		.uleb128 0x1
 2453 0d45 9C       		.byte	0x9c
 2454 0d46 270F0000 		.4byte	0xf27
 2455 0d4a 23       		.uleb128 0x23
 2456 0d4b 92020000 		.4byte	.LASF177
 2457 0d4f 01       		.byte	0x1
 2458 0d50 98       		.byte	0x98
 2459 0d51 A40A0000 		.4byte	0xaa4
 2460 0d55 5C010000 		.4byte	.LLST7
 2461 0d59 23       		.uleb128 0x23
 2462 0d5a 8C090000 		.4byte	.LASF167
 2463 0d5e 01       		.byte	0x1
 2464 0d5f 98       		.byte	0x98
 2465 0d60 2C000000 		.4byte	0x2c
 2466 0d64 7D010000 		.4byte	.LLST8
 2467 0d68 23       		.uleb128 0x23
 2468 0d69 5A060000 		.4byte	.LASF174
 2469 0d6d 01       		.byte	0x1
 2470 0d6e 99       		.byte	0x99
 2471 0d6f 32010000 		.4byte	0x132
 2472 0d73 9B010000 		.4byte	.LLST9
 2473 0d77 22       		.uleb128 0x22
 2474 0d78 706600   		.ascii	"pf\000"
 2475 0d7b 01       		.byte	0x1
 2476 0d7c 99       		.byte	0x99
 2477 0d7d DA080000 		.4byte	0x8da
 2478 0d81 B9010000 		.4byte	.LLST10
 2479 0d85 22       		.uleb128 0x22
 2480 0d86 61726700 		.ascii	"arg\000"
 2481 0d8a 01       		.byte	0x1
 2482 0d8b 99       		.byte	0x99
 2483 0d8c 8A030000 		.4byte	0x38a
 2484 0d90 D7010000 		.4byte	.LLST11
 2485 0d94 24       		.uleb128 0x24
 2486 0d95 77737000 		.ascii	"wsp\000"
 2487 0d99 01       		.byte	0x1
 2488 0d9a 9A       		.byte	0x9a
 2489 0d9b 8A030000 		.4byte	0x38a
 2490 0d9f F7010000 		.4byte	.LLST12
 2491 0da3 24       		.uleb128 0x24
 2492 0da4 747000   		.ascii	"tp\000"
 2493 0da7 01       		.byte	0x1
 2494 0da8 9B       		.byte	0x9b
 2495 0da9 AD020000 		.4byte	0x2ad
 2496 0dad 31020000 		.4byte	.LLST13
 2497 0db1 26       		.uleb128 0x26
ARM GAS  C:\Users\Moi\AppData\Local\Temp\ccEMjYGE.s 			page 45


 2498 0db2 DF110000 		.4byte	0x11df
 2499 0db6 34000000 		.4byte	.LBB88
 2500 0dba 0E000000 		.4byte	.LBE88-.LBB88
 2501 0dbe 01       		.byte	0x1
 2502 0dbf AB       		.byte	0xab
 2503 0dc0 060E0000 		.4byte	0xe06
 2504 0dc4 27       		.uleb128 0x27
 2505 0dc5 F1110000 		.4byte	0x11f1
 2506 0dc9 34000000 		.4byte	.LBB90
 2507 0dcd 06000000 		.4byte	.LBE90-.LBB90
 2508 0dd1 03       		.byte	0x3
 2509 0dd2 5C01     		.2byte	0x15c
 2510 0dd4 F30D0000 		.4byte	0xdf3
 2511 0dd8 28       		.uleb128 0x28
 2512 0dd9 FA110000 		.4byte	0x11fa
 2513 0ddd 34000000 		.4byte	.LBB91
 2514 0de1 06000000 		.4byte	.LBE91-.LBB91
 2515 0de5 0D       		.byte	0xd
 2516 0de6 BF01     		.2byte	0x1bf
 2517 0de8 29       		.uleb128 0x29
 2518 0de9 07120000 		.4byte	0x1207
 2519 0ded 5A020000 		.4byte	.LLST14
 2520 0df1 00       		.byte	0
 2521 0df2 00       		.byte	0
 2522 0df3 2A       		.uleb128 0x2a
 2523 0df4 3E000000 		.4byte	.LVL39
 2524 0df8 14120000 		.4byte	0x1214
 2525 0dfc 2A       		.uleb128 0x2a
 2526 0dfd 42000000 		.4byte	.LVL40
 2527 0e01 1F120000 		.4byte	0x121f
 2528 0e05 00       		.byte	0
 2529 0e06 2B       		.uleb128 0x2b
 2530 0e07 C4110000 		.4byte	0x11c4
 2531 0e0b 60000000 		.4byte	.LBB93
 2532 0e0f 30000000 		.4byte	.Ldebug_ranges0+0x30
 2533 0e13 01       		.byte	0x1
 2534 0e14 AF       		.byte	0xaf
 2535 0e15 790E0000 		.4byte	0xe79
 2536 0e19 2C       		.uleb128 0x2c
 2537 0e1a 30000000 		.4byte	.Ldebug_ranges0+0x30
 2538 0e1e 2D       		.uleb128 0x2d
 2539 0e1f D1110000 		.4byte	0x11d1
 2540 0e23 27       		.uleb128 0x27
 2541 0e24 E8110000 		.4byte	0x11e8
 2542 0e28 7A000000 		.4byte	.LBB95
 2543 0e2c 06000000 		.4byte	.LBE95-.LBB95
 2544 0e30 03       		.byte	0x3
 2545 0e31 7301     		.2byte	0x173
 2546 0e33 520E0000 		.4byte	0xe52
 2547 0e37 28       		.uleb128 0x28
 2548 0e38 FA110000 		.4byte	0x11fa
 2549 0e3c 7A000000 		.4byte	.LBB96
 2550 0e40 06000000 		.4byte	.LBE96-.LBB96
 2551 0e44 0D       		.byte	0xd
 2552 0e45 CD01     		.2byte	0x1cd
 2553 0e47 29       		.uleb128 0x29
 2554 0e48 07120000 		.4byte	0x1207
ARM GAS  C:\Users\Moi\AppData\Local\Temp\ccEMjYGE.s 			page 46


 2555 0e4c 6F020000 		.4byte	.LLST15
 2556 0e50 00       		.byte	0
 2557 0e51 00       		.byte	0
 2558 0e52 2A       		.uleb128 0x2a
 2559 0e53 64000000 		.4byte	.LVL44
 2560 0e57 2A120000 		.4byte	0x122a
 2561 0e5b 2A       		.uleb128 0x2a
 2562 0e5c 68000000 		.4byte	.LVL45
 2563 0e60 35120000 		.4byte	0x1235
 2564 0e64 2E       		.uleb128 0x2e
 2565 0e65 96000000 		.4byte	.LVL49
 2566 0e69 40120000 		.4byte	0x1240
 2567 0e6d 2F       		.uleb128 0x2f
 2568 0e6e 01       		.uleb128 0x1
 2569 0e6f 50       		.byte	0x50
 2570 0e70 05       		.uleb128 0x5
 2571 0e71 03       		.byte	0x3
 2572 0e72 00000000 		.4byte	.LANCHOR1
 2573 0e76 00       		.byte	0
 2574 0e77 00       		.byte	0
 2575 0e78 00       		.byte	0
 2576 0e79 30       		.uleb128 0x30
 2577 0e7a 1A000000 		.4byte	.LVL35
 2578 0e7e 82120000 		.4byte	0x1282
 2579 0e82 940E0000 		.4byte	0xe94
 2580 0e86 2F       		.uleb128 0x2f
 2581 0e87 01       		.uleb128 0x1
 2582 0e88 50       		.byte	0x50
 2583 0e89 03       		.uleb128 0x3
 2584 0e8a F3       		.byte	0xf3
 2585 0e8b 01       		.uleb128 0x1
 2586 0e8c 50       		.byte	0x50
 2587 0e8d 2F       		.uleb128 0x2f
 2588 0e8e 01       		.uleb128 0x1
 2589 0e8f 51       		.byte	0x51
 2590 0e90 02       		.uleb128 0x2
 2591 0e91 76       		.byte	0x76
 2592 0e92 00       		.sleb128 0
 2593 0e93 00       		.byte	0
 2594 0e94 30       		.uleb128 0x30
 2595 0e95 2A000000 		.4byte	.LVL36
 2596 0e99 57120000 		.4byte	0x1257
 2597 0e9d B40E0000 		.4byte	0xeb4
 2598 0ea1 2F       		.uleb128 0x2f
 2599 0ea2 01       		.uleb128 0x1
 2600 0ea3 50       		.byte	0x50
 2601 0ea4 02       		.uleb128 0x2
 2602 0ea5 74       		.byte	0x74
 2603 0ea6 00       		.sleb128 0
 2604 0ea7 2F       		.uleb128 0x2f
 2605 0ea8 01       		.uleb128 0x1
 2606 0ea9 51       		.byte	0x51
 2607 0eaa 02       		.uleb128 0x2
 2608 0eab 77       		.byte	0x77
 2609 0eac 00       		.sleb128 0
 2610 0ead 2F       		.uleb128 0x2f
 2611 0eae 01       		.uleb128 0x1
ARM GAS  C:\Users\Moi\AppData\Local\Temp\ccEMjYGE.s 			page 47


 2612 0eaf 52       		.byte	0x52
 2613 0eb0 02       		.uleb128 0x2
 2614 0eb1 09       		.byte	0x9
 2615 0eb2 FF       		.byte	0xff
 2616 0eb3 00       		.byte	0
 2617 0eb4 30       		.uleb128 0x30
 2618 0eb5 34000000 		.4byte	.LVL37
 2619 0eb9 57120000 		.4byte	0x1257
 2620 0ebd D70E0000 		.4byte	0xed7
 2621 0ec1 2F       		.uleb128 0x2f
 2622 0ec2 01       		.uleb128 0x1
 2623 0ec3 50       		.byte	0x50
 2624 0ec4 02       		.uleb128 0x2
 2625 0ec5 77       		.byte	0x77
 2626 0ec6 00       		.sleb128 0
 2627 0ec7 2F       		.uleb128 0x2f
 2628 0ec8 01       		.uleb128 0x1
 2629 0ec9 51       		.byte	0x51
 2630 0eca 05       		.uleb128 0x5
 2631 0ecb 74       		.byte	0x74
 2632 0ecc 00       		.sleb128 0
 2633 0ecd 76       		.byte	0x76
 2634 0ece 00       		.sleb128 0
 2635 0ecf 22       		.byte	0x22
 2636 0ed0 2F       		.uleb128 0x2f
 2637 0ed1 01       		.uleb128 0x1
 2638 0ed2 52       		.byte	0x52
 2639 0ed3 02       		.uleb128 0x2
 2640 0ed4 08       		.byte	0x8
 2641 0ed5 55       		.byte	0x55
 2642 0ed6 00       		.byte	0
 2643 0ed7 30       		.uleb128 0x30
 2644 0ed8 52000000 		.4byte	.LVL41
 2645 0edc 62120000 		.4byte	0x1262
 2646 0ee0 040F0000 		.4byte	0xf04
 2647 0ee4 2F       		.uleb128 0x2f
 2648 0ee5 01       		.uleb128 0x1
 2649 0ee6 50       		.byte	0x50
 2650 0ee7 02       		.uleb128 0x2
 2651 0ee8 74       		.byte	0x74
 2652 0ee9 00       		.sleb128 0
 2653 0eea 2F       		.uleb128 0x2f
 2654 0eeb 01       		.uleb128 0x1
 2655 0eec 51       		.byte	0x51
 2656 0eed 02       		.uleb128 0x2
 2657 0eee 76       		.byte	0x76
 2658 0eef 00       		.sleb128 0
 2659 0ef0 2F       		.uleb128 0x2f
 2660 0ef1 01       		.uleb128 0x1
 2661 0ef2 52       		.byte	0x52
 2662 0ef3 02       		.uleb128 0x2
 2663 0ef4 78       		.byte	0x78
 2664 0ef5 00       		.sleb128 0
 2665 0ef6 2F       		.uleb128 0x2f
 2666 0ef7 01       		.uleb128 0x1
 2667 0ef8 53       		.byte	0x53
 2668 0ef9 02       		.uleb128 0x2
ARM GAS  C:\Users\Moi\AppData\Local\Temp\ccEMjYGE.s 			page 48


 2669 0efa 79       		.byte	0x79
 2670 0efb 00       		.sleb128 0
 2671 0efc 2F       		.uleb128 0x2f
 2672 0efd 02       		.uleb128 0x2
 2673 0efe 7D       		.byte	0x7d
 2674 0eff 00       		.sleb128 0
 2675 0f00 02       		.uleb128 0x2
 2676 0f01 7A       		.byte	0x7a
 2677 0f02 00       		.sleb128 0
 2678 0f03 00       		.byte	0
 2679 0f04 30       		.uleb128 0x30
 2680 0f05 60000000 		.4byte	.LVL43
 2681 0f09 6D120000 		.4byte	0x126d
 2682 0f0d 1D0F0000 		.4byte	0xf1d
 2683 0f11 2F       		.uleb128 0x2f
 2684 0f12 01       		.uleb128 0x1
 2685 0f13 50       		.byte	0x50
 2686 0f14 02       		.uleb128 0x2
 2687 0f15 74       		.byte	0x74
 2688 0f16 00       		.sleb128 0
 2689 0f17 2F       		.uleb128 0x2f
 2690 0f18 01       		.uleb128 0x1
 2691 0f19 51       		.byte	0x51
 2692 0f1a 01       		.uleb128 0x1
 2693 0f1b 30       		.byte	0x30
 2694 0f1c 00       		.byte	0
 2695 0f1d 2A       		.uleb128 0x2a
 2696 0f1e 9C000000 		.4byte	.LVL51
 2697 0f22 79120000 		.4byte	0x1279
 2698 0f26 00       		.byte	0
 2699 0f27 31       		.uleb128 0x31
 2700 0f28 91070000 		.4byte	.LASF202
 2701 0f2c 01       		.byte	0x1
 2702 0f2d 5B       		.byte	0x5b
 2703 0f2e 00000000 		.4byte	.LFB220
 2704 0f32 D8000000 		.4byte	.LFE220-.LFB220
 2705 0f36 01       		.uleb128 0x1
 2706 0f37 9C       		.byte	0x9c
 2707 0f38 7B100000 		.4byte	0x107b
 2708 0f3c 22       		.uleb128 0x22
 2709 0f3d 747000   		.ascii	"tp\000"
 2710 0f40 01       		.byte	0x1
 2711 0f41 5B       		.byte	0x5b
 2712 0f42 AD020000 		.4byte	0x2ad
 2713 0f46 83020000 		.4byte	.LLST3
 2714 0f4a 32       		.uleb128 0x32
 2715 0f4b 9A060000 		.4byte	.LASF178
 2716 0f4f 01       		.byte	0x1
 2717 0f50 5C       		.byte	0x5c
 2718 0f51 1C010000 		.4byte	0x11c
 2719 0f55 E9020000 		.4byte	.LLST4
 2720 0f59 25       		.uleb128 0x25
 2721 0f5a 43070000 		.4byte	.LASF179
 2722 0f5e 8B100000 		.4byte	0x108b
 2723 0f62 05       		.uleb128 0x5
 2724 0f63 03       		.byte	0x3
 2725 0f64 00000000 		.4byte	__func__.7854
ARM GAS  C:\Users\Moi\AppData\Local\Temp\ccEMjYGE.s 			page 49


 2726 0f68 26       		.uleb128 0x26
 2727 0f69 DF110000 		.4byte	0x11df
 2728 0f6d 0C000000 		.4byte	.LBB66
 2729 0f71 0E000000 		.4byte	.LBE66-.LBB66
 2730 0f75 01       		.byte	0x1
 2731 0f76 5E       		.byte	0x5e
 2732 0f77 BD0F0000 		.4byte	0xfbd
 2733 0f7b 27       		.uleb128 0x27
 2734 0f7c F1110000 		.4byte	0x11f1
 2735 0f80 0C000000 		.4byte	.LBB68
 2736 0f84 06000000 		.4byte	.LBE68-.LBB68
 2737 0f88 03       		.byte	0x3
 2738 0f89 5C01     		.2byte	0x15c
 2739 0f8b AA0F0000 		.4byte	0xfaa
 2740 0f8f 28       		.uleb128 0x28
 2741 0f90 FA110000 		.4byte	0x11fa
 2742 0f94 0C000000 		.4byte	.LBB69
 2743 0f98 06000000 		.4byte	.LBE69-.LBB69
 2744 0f9c 0D       		.byte	0xd
 2745 0f9d BF01     		.2byte	0x1bf
 2746 0f9f 29       		.uleb128 0x29
 2747 0fa0 07120000 		.4byte	0x1207
 2748 0fa4 12030000 		.4byte	.LLST5
 2749 0fa8 00       		.byte	0
 2750 0fa9 00       		.byte	0
 2751 0faa 2A       		.uleb128 0x2a
 2752 0fab 16000000 		.4byte	.LVL18
 2753 0faf 14120000 		.4byte	0x1214
 2754 0fb3 2A       		.uleb128 0x2a
 2755 0fb4 1A000000 		.4byte	.LVL19
 2756 0fb8 1F120000 		.4byte	0x121f
 2757 0fbc 00       		.byte	0
 2758 0fbd 2B       		.uleb128 0x2b
 2759 0fbe C4110000 		.4byte	0x11c4
 2760 0fc2 2A000000 		.4byte	.LBB71
 2761 0fc6 18000000 		.4byte	.Ldebug_ranges0+0x18
 2762 0fca 01       		.byte	0x1
 2763 0fcb 62       		.byte	0x62
 2764 0fcc 30100000 		.4byte	0x1030
 2765 0fd0 2C       		.uleb128 0x2c
 2766 0fd1 18000000 		.4byte	.Ldebug_ranges0+0x18
 2767 0fd5 2D       		.uleb128 0x2d
 2768 0fd6 D1110000 		.4byte	0x11d1
 2769 0fda 27       		.uleb128 0x27
 2770 0fdb E8110000 		.4byte	0x11e8
 2771 0fdf 44000000 		.4byte	.LBB73
 2772 0fe3 06000000 		.4byte	.LBE73-.LBB73
 2773 0fe7 03       		.byte	0x3
 2774 0fe8 7301     		.2byte	0x173
 2775 0fea 09100000 		.4byte	0x1009
 2776 0fee 28       		.uleb128 0x28
 2777 0fef FA110000 		.4byte	0x11fa
 2778 0ff3 44000000 		.4byte	.LBB74
 2779 0ff7 06000000 		.4byte	.LBE74-.LBB74
 2780 0ffb 0D       		.byte	0xd
 2781 0ffc CD01     		.2byte	0x1cd
 2782 0ffe 29       		.uleb128 0x29
ARM GAS  C:\Users\Moi\AppData\Local\Temp\ccEMjYGE.s 			page 50


 2783 0fff 07120000 		.4byte	0x1207
 2784 1003 27030000 		.4byte	.LLST6
 2785 1007 00       		.byte	0
 2786 1008 00       		.byte	0
 2787 1009 2A       		.uleb128 0x2a
 2788 100a 2E000000 		.4byte	.LVL21
 2789 100e 2A120000 		.4byte	0x122a
 2790 1012 2A       		.uleb128 0x2a
 2791 1013 32000000 		.4byte	.LVL22
 2792 1017 35120000 		.4byte	0x1235
 2793 101b 2E       		.uleb128 0x2e
 2794 101c 66000000 		.4byte	.LVL26
 2795 1020 40120000 		.4byte	0x1240
 2796 1024 2F       		.uleb128 0x2f
 2797 1025 01       		.uleb128 0x1
 2798 1026 50       		.byte	0x50
 2799 1027 05       		.uleb128 0x5
 2800 1028 03       		.byte	0x3
 2801 1029 00000000 		.4byte	.LANCHOR1
 2802 102d 00       		.byte	0
 2803 102e 00       		.byte	0
 2804 102f 00       		.byte	0
 2805 1030 33       		.uleb128 0x33
 2806 1031 98000000 		.4byte	.LVL28
 2807 1035 8D120000 		.4byte	0x128d
 2808 1039 45100000 		.4byte	0x1045
 2809 103d 2F       		.uleb128 0x2f
 2810 103e 01       		.uleb128 0x1
 2811 103f 51       		.byte	0x51
 2812 1040 03       		.uleb128 0x3
 2813 1041 F3       		.byte	0xf3
 2814 1042 01       		.uleb128 0x1
 2815 1043 50       		.byte	0x50
 2816 1044 00       		.byte	0
 2817 1045 30       		.uleb128 0x30
 2818 1046 9E000000 		.4byte	.LVL29
 2819 104a 40120000 		.4byte	0x1240
 2820 104e 5C100000 		.4byte	0x105c
 2821 1052 2F       		.uleb128 0x2f
 2822 1053 01       		.uleb128 0x1
 2823 1054 50       		.byte	0x50
 2824 1055 05       		.uleb128 0x5
 2825 1056 03       		.byte	0x3
 2826 1057 00000000 		.4byte	.LANCHOR2
 2827 105b 00       		.byte	0
 2828 105c 33       		.uleb128 0x33
 2829 105d C2000000 		.4byte	.LVL32
 2830 1061 98120000 		.4byte	0x1298
 2831 1065 71100000 		.4byte	0x1071
 2832 1069 2F       		.uleb128 0x2f
 2833 106a 01       		.uleb128 0x1
 2834 106b 50       		.byte	0x50
 2835 106c 03       		.uleb128 0x3
 2836 106d F3       		.byte	0xf3
 2837 106e 01       		.uleb128 0x1
 2838 106f 50       		.byte	0x50
 2839 1070 00       		.byte	0
ARM GAS  C:\Users\Moi\AppData\Local\Temp\ccEMjYGE.s 			page 51


 2840 1071 2A       		.uleb128 0x2a
 2841 1072 C6000000 		.4byte	.LVL33
 2842 1076 79120000 		.4byte	0x1279
 2843 107a 00       		.byte	0
 2844 107b 17       		.uleb128 0x17
 2845 107c AE080000 		.4byte	0x8ae
 2846 1080 8B100000 		.4byte	0x108b
 2847 1084 18       		.uleb128 0x18
 2848 1085 37000000 		.4byte	0x37
 2849 1089 0C       		.byte	0xc
 2850 108a 00       		.byte	0
 2851 108b 1B       		.uleb128 0x1b
 2852 108c 7B100000 		.4byte	0x107b
 2853 1090 21       		.uleb128 0x21
 2854 1091 5C050000 		.4byte	.LASF180
 2855 1095 01       		.byte	0x1
 2856 1096 44       		.byte	0x44
 2857 1097 AD020000 		.4byte	0x2ad
 2858 109b 00000000 		.4byte	.LFB219
 2859 109f 80000000 		.4byte	.LFE219-.LFB219
 2860 10a3 01       		.uleb128 0x1
 2861 10a4 9C       		.byte	0x9c
 2862 10a5 AF110000 		.4byte	0x11af
 2863 10a9 22       		.uleb128 0x22
 2864 10aa 747000   		.ascii	"tp\000"
 2865 10ad 01       		.byte	0x1
 2866 10ae 44       		.byte	0x44
 2867 10af AD020000 		.4byte	0x2ad
 2868 10b3 3B030000 		.4byte	.LLST0
 2869 10b7 25       		.uleb128 0x25
 2870 10b8 43070000 		.4byte	.LASF179
 2871 10bc BF110000 		.4byte	0x11bf
 2872 10c0 05       		.uleb128 0x5
 2873 10c1 03       		.byte	0x3
 2874 10c2 00000000 		.4byte	__func__.7849
 2875 10c6 26       		.uleb128 0x26
 2876 10c7 DF110000 		.4byte	0x11df
 2877 10cb 0C000000 		.4byte	.LBB44
 2878 10cf 0E000000 		.4byte	.LBE44-.LBB44
 2879 10d3 01       		.byte	0x1
 2880 10d4 46       		.byte	0x46
 2881 10d5 1B110000 		.4byte	0x111b
 2882 10d9 27       		.uleb128 0x27
 2883 10da F1110000 		.4byte	0x11f1
 2884 10de 0C000000 		.4byte	.LBB46
 2885 10e2 06000000 		.4byte	.LBE46-.LBB46
 2886 10e6 03       		.byte	0x3
 2887 10e7 5C01     		.2byte	0x15c
 2888 10e9 08110000 		.4byte	0x1108
 2889 10ed 28       		.uleb128 0x28
 2890 10ee FA110000 		.4byte	0x11fa
 2891 10f2 0C000000 		.4byte	.LBB47
 2892 10f6 06000000 		.4byte	.LBE47-.LBB47
 2893 10fa 0D       		.byte	0xd
 2894 10fb BF01     		.2byte	0x1bf
 2895 10fd 29       		.uleb128 0x29
 2896 10fe 07120000 		.4byte	0x1207
ARM GAS  C:\Users\Moi\AppData\Local\Temp\ccEMjYGE.s 			page 52


 2897 1102 85030000 		.4byte	.LLST1
 2898 1106 00       		.byte	0
 2899 1107 00       		.byte	0
 2900 1108 2A       		.uleb128 0x2a
 2901 1109 16000000 		.4byte	.LVL3
 2902 110d 14120000 		.4byte	0x1214
 2903 1111 2A       		.uleb128 0x2a
 2904 1112 1A000000 		.4byte	.LVL4
 2905 1116 1F120000 		.4byte	0x121f
 2906 111a 00       		.byte	0
 2907 111b 2B       		.uleb128 0x2b
 2908 111c C4110000 		.4byte	0x11c4
 2909 1120 28000000 		.4byte	.LBB49
 2910 1124 00000000 		.4byte	.Ldebug_ranges0+0
 2911 1128 01       		.byte	0x1
 2912 1129 49       		.byte	0x49
 2913 112a 8E110000 		.4byte	0x118e
 2914 112e 2C       		.uleb128 0x2c
 2915 112f 00000000 		.4byte	.Ldebug_ranges0+0
 2916 1133 2D       		.uleb128 0x2d
 2917 1134 D1110000 		.4byte	0x11d1
 2918 1138 27       		.uleb128 0x27
 2919 1139 E8110000 		.4byte	0x11e8
 2920 113d 42000000 		.4byte	.LBB51
 2921 1141 06000000 		.4byte	.LBE51-.LBB51
 2922 1145 03       		.byte	0x3
 2923 1146 7301     		.2byte	0x173
 2924 1148 67110000 		.4byte	0x1167
 2925 114c 28       		.uleb128 0x28
 2926 114d FA110000 		.4byte	0x11fa
 2927 1151 42000000 		.4byte	.LBB52
 2928 1155 06000000 		.4byte	.LBE52-.LBB52
 2929 1159 0D       		.byte	0xd
 2930 115a CD01     		.2byte	0x1cd
 2931 115c 29       		.uleb128 0x29
 2932 115d 07120000 		.4byte	0x1207
 2933 1161 9A030000 		.4byte	.LLST2
 2934 1165 00       		.byte	0
 2935 1166 00       		.byte	0
 2936 1167 2A       		.uleb128 0x2a
 2937 1168 2C000000 		.4byte	.LVL5
 2938 116c 2A120000 		.4byte	0x122a
 2939 1170 2A       		.uleb128 0x2a
 2940 1171 30000000 		.4byte	.LVL6
 2941 1175 35120000 		.4byte	0x1235
 2942 1179 2E       		.uleb128 0x2e
 2943 117a 5C000000 		.4byte	.LVL11
 2944 117e 40120000 		.4byte	0x1240
 2945 1182 2F       		.uleb128 0x2f
 2946 1183 01       		.uleb128 0x1
 2947 1184 50       		.byte	0x50
 2948 1185 05       		.uleb128 0x5
 2949 1186 03       		.byte	0x3
 2950 1187 00000000 		.4byte	.LANCHOR1
 2951 118b 00       		.byte	0
 2952 118c 00       		.byte	0
 2953 118d 00       		.byte	0
ARM GAS  C:\Users\Moi\AppData\Local\Temp\ccEMjYGE.s 			page 53


 2954 118e 30       		.uleb128 0x30
 2955 118f 64000000 		.4byte	.LVL12
 2956 1193 40120000 		.4byte	0x1240
 2957 1197 A5110000 		.4byte	0x11a5
 2958 119b 2F       		.uleb128 0x2f
 2959 119c 01       		.uleb128 0x1
 2960 119d 50       		.byte	0x50
 2961 119e 05       		.uleb128 0x5
 2962 119f 03       		.byte	0x3
 2963 11a0 00000000 		.4byte	.LANCHOR0
 2964 11a4 00       		.byte	0
 2965 11a5 2A       		.uleb128 0x2a
 2966 11a6 6E000000 		.4byte	.LVL14
 2967 11aa 79120000 		.4byte	0x1279
 2968 11ae 00       		.byte	0
 2969 11af 17       		.uleb128 0x17
 2970 11b0 AE080000 		.4byte	0x8ae
 2971 11b4 BF110000 		.4byte	0x11bf
 2972 11b8 18       		.uleb128 0x18
 2973 11b9 37000000 		.4byte	0x37
 2974 11bd 0B       		.byte	0xb
 2975 11be 00       		.byte	0
 2976 11bf 1B       		.uleb128 0x1b
 2977 11c0 AF110000 		.4byte	0x11af
 2978 11c4 34       		.uleb128 0x34
 2979 11c5 A9090000 		.4byte	.LASF184
 2980 11c9 03       		.byte	0x3
 2981 11ca 6601     		.2byte	0x166
 2982 11cc 03       		.byte	0x3
 2983 11cd DF110000 		.4byte	0x11df
 2984 11d1 35       		.uleb128 0x35
 2985 11d2 43070000 		.4byte	.LASF179
 2986 11d6 BF110000 		.4byte	0x11bf
 2987 11da A9090000 		.4byte	.LASF184
 2988 11de 00       		.byte	0
 2989 11df 36       		.uleb128 0x36
 2990 11e0 54070000 		.4byte	.LASF181
 2991 11e4 03       		.byte	0x3
 2992 11e5 5A01     		.2byte	0x15a
 2993 11e7 03       		.byte	0x3
 2994 11e8 36       		.uleb128 0x36
 2995 11e9 1A030000 		.4byte	.LASF182
 2996 11ed 0D       		.byte	0xd
 2997 11ee CA01     		.2byte	0x1ca
 2998 11f0 03       		.byte	0x3
 2999 11f1 36       		.uleb128 0x36
 3000 11f2 88000000 		.4byte	.LASF183
 3001 11f6 0D       		.byte	0xd
 3002 11f7 BC01     		.2byte	0x1bc
 3003 11f9 03       		.byte	0x3
 3004 11fa 34       		.uleb128 0x34
 3005 11fb A1080000 		.4byte	.LASF185
 3006 11ff 02       		.byte	0x2
 3007 1200 2002     		.2byte	0x220
 3008 1202 03       		.byte	0x3
 3009 1203 14120000 		.4byte	0x1214
 3010 1207 37       		.uleb128 0x37
ARM GAS  C:\Users\Moi\AppData\Local\Temp\ccEMjYGE.s 			page 54


 3011 1208 10040000 		.4byte	.LASF203
 3012 120c 02       		.byte	0x2
 3013 120d 2002     		.2byte	0x220
 3014 120f DA000000 		.4byte	0xda
 3015 1213 00       		.byte	0
 3016 1214 38       		.uleb128 0x38
 3017 1215 51020000 		.4byte	.LASF186
 3018 1219 51020000 		.4byte	.LASF186
 3019 121d 10       		.byte	0x10
 3020 121e 4F       		.byte	0x4f
 3021 121f 38       		.uleb128 0x38
 3022 1220 B6050000 		.4byte	.LASF187
 3023 1224 B6050000 		.4byte	.LASF187
 3024 1228 0E       		.byte	0xe
 3025 1229 D8       		.byte	0xd8
 3026 122a 38       		.uleb128 0x38
 3027 122b 51090000 		.4byte	.LASF188
 3028 122f 51090000 		.4byte	.LASF188
 3029 1233 0E       		.byte	0xe
 3030 1234 D9       		.byte	0xd9
 3031 1235 38       		.uleb128 0x38
 3032 1236 91050000 		.4byte	.LASF189
 3033 123a 91050000 		.4byte	.LASF189
 3034 123e 10       		.byte	0x10
 3035 123f 50       		.byte	0x50
 3036 1240 39       		.uleb128 0x39
 3037 1241 E8030000 		.4byte	.LASF190
 3038 1245 E8030000 		.4byte	.LASF190
 3039 1249 03       		.byte	0x3
 3040 124a 1601     		.2byte	0x116
 3041 124c 38       		.uleb128 0x38
 3042 124d 2F090000 		.4byte	.LASF191
 3043 1251 2F090000 		.4byte	.LASF191
 3044 1255 17       		.byte	0x17
 3045 1256 6F       		.byte	0x6f
 3046 1257 38       		.uleb128 0x38
 3047 1258 5E070000 		.4byte	.LASF192
 3048 125c 5E070000 		.4byte	.LASF192
 3049 1260 13       		.byte	0x13
 3050 1261 85       		.byte	0x85
 3051 1262 38       		.uleb128 0x38
 3052 1263 30030000 		.4byte	.LASF193
 3053 1267 30030000 		.4byte	.LASF193
 3054 126b 13       		.byte	0x13
 3055 126c 87       		.byte	0x87
 3056 126d 39       		.uleb128 0x39
 3057 126e EB040000 		.4byte	.LASF194
 3058 1272 EB040000 		.4byte	.LASF194
 3059 1276 09       		.byte	0x9
 3060 1277 1602     		.2byte	0x216
 3061 1279 3A       		.uleb128 0x3a
 3062 127a C7070000 		.4byte	.LASF204
 3063 127e C7070000 		.4byte	.LASF204
 3064 1282 38       		.uleb128 0x38
 3065 1283 AE070000 		.4byte	.LASF195
 3066 1287 AE070000 		.4byte	.LASF195
 3067 128b 16       		.byte	0x16
ARM GAS  C:\Users\Moi\AppData\Local\Temp\ccEMjYGE.s 			page 55


 3068 128c 67       		.byte	0x67
 3069 128d 38       		.uleb128 0x38
 3070 128e 3B090000 		.4byte	.LASF196
 3071 1292 3B090000 		.4byte	.LASF196
 3072 1296 17       		.byte	0x17
 3073 1297 71       		.byte	0x71
 3074 1298 38       		.uleb128 0x38
 3075 1299 08030000 		.4byte	.LASF197
 3076 129d 08030000 		.4byte	.LASF197
 3077 12a1 16       		.byte	0x16
 3078 12a2 68       		.byte	0x68
 3079 12a3 00       		.byte	0
 3080              		.section	.debug_abbrev,"",%progbits
 3081              	.Ldebug_abbrev0:
 3082 0000 01       		.uleb128 0x1
 3083 0001 11       		.uleb128 0x11
 3084 0002 01       		.byte	0x1
 3085 0003 25       		.uleb128 0x25
 3086 0004 0E       		.uleb128 0xe
 3087 0005 13       		.uleb128 0x13
 3088 0006 0B       		.uleb128 0xb
 3089 0007 03       		.uleb128 0x3
 3090 0008 0E       		.uleb128 0xe
 3091 0009 1B       		.uleb128 0x1b
 3092 000a 0E       		.uleb128 0xe
 3093 000b 55       		.uleb128 0x55
 3094 000c 17       		.uleb128 0x17
 3095 000d 11       		.uleb128 0x11
 3096 000e 01       		.uleb128 0x1
 3097 000f 10       		.uleb128 0x10
 3098 0010 17       		.uleb128 0x17
 3099 0011 00       		.byte	0
 3100 0012 00       		.byte	0
 3101 0013 02       		.uleb128 0x2
 3102 0014 24       		.uleb128 0x24
 3103 0015 00       		.byte	0
 3104 0016 0B       		.uleb128 0xb
 3105 0017 0B       		.uleb128 0xb
 3106 0018 3E       		.uleb128 0x3e
 3107 0019 0B       		.uleb128 0xb
 3108 001a 03       		.uleb128 0x3
 3109 001b 08       		.uleb128 0x8
 3110 001c 00       		.byte	0
 3111 001d 00       		.byte	0
 3112 001e 03       		.uleb128 0x3
 3113 001f 16       		.uleb128 0x16
 3114 0020 00       		.byte	0
 3115 0021 03       		.uleb128 0x3
 3116 0022 0E       		.uleb128 0xe
 3117 0023 3A       		.uleb128 0x3a
 3118 0024 0B       		.uleb128 0xb
 3119 0025 3B       		.uleb128 0x3b
 3120 0026 0B       		.uleb128 0xb
 3121 0027 49       		.uleb128 0x49
 3122 0028 13       		.uleb128 0x13
 3123 0029 00       		.byte	0
 3124 002a 00       		.byte	0
ARM GAS  C:\Users\Moi\AppData\Local\Temp\ccEMjYGE.s 			page 56


 3125 002b 04       		.uleb128 0x4
 3126 002c 24       		.uleb128 0x24
 3127 002d 00       		.byte	0
 3128 002e 0B       		.uleb128 0xb
 3129 002f 0B       		.uleb128 0xb
 3130 0030 3E       		.uleb128 0x3e
 3131 0031 0B       		.uleb128 0xb
 3132 0032 03       		.uleb128 0x3
 3133 0033 0E       		.uleb128 0xe
 3134 0034 00       		.byte	0
 3135 0035 00       		.byte	0
 3136 0036 05       		.uleb128 0x5
 3137 0037 35       		.uleb128 0x35
 3138 0038 00       		.byte	0
 3139 0039 49       		.uleb128 0x49
 3140 003a 13       		.uleb128 0x13
 3141 003b 00       		.byte	0
 3142 003c 00       		.byte	0
 3143 003d 06       		.uleb128 0x6
 3144 003e 13       		.uleb128 0x13
 3145 003f 01       		.byte	0x1
 3146 0040 03       		.uleb128 0x3
 3147 0041 0E       		.uleb128 0xe
 3148 0042 0B       		.uleb128 0xb
 3149 0043 0B       		.uleb128 0xb
 3150 0044 3A       		.uleb128 0x3a
 3151 0045 0B       		.uleb128 0xb
 3152 0046 3B       		.uleb128 0x3b
 3153 0047 0B       		.uleb128 0xb
 3154 0048 01       		.uleb128 0x1
 3155 0049 13       		.uleb128 0x13
 3156 004a 00       		.byte	0
 3157 004b 00       		.byte	0
 3158 004c 07       		.uleb128 0x7
 3159 004d 0D       		.uleb128 0xd
 3160 004e 00       		.byte	0
 3161 004f 03       		.uleb128 0x3
 3162 0050 0E       		.uleb128 0xe
 3163 0051 3A       		.uleb128 0x3a
 3164 0052 0B       		.uleb128 0xb
 3165 0053 3B       		.uleb128 0x3b
 3166 0054 0B       		.uleb128 0xb
 3167 0055 49       		.uleb128 0x49
 3168 0056 13       		.uleb128 0x13
 3169 0057 38       		.uleb128 0x38
 3170 0058 0B       		.uleb128 0xb
 3171 0059 00       		.byte	0
 3172 005a 00       		.byte	0
 3173 005b 08       		.uleb128 0x8
 3174 005c 0D       		.uleb128 0xd
 3175 005d 00       		.byte	0
 3176 005e 03       		.uleb128 0x3
 3177 005f 08       		.uleb128 0x8
 3178 0060 3A       		.uleb128 0x3a
 3179 0061 0B       		.uleb128 0xb
 3180 0062 3B       		.uleb128 0x3b
 3181 0063 05       		.uleb128 0x5
ARM GAS  C:\Users\Moi\AppData\Local\Temp\ccEMjYGE.s 			page 57


 3182 0064 49       		.uleb128 0x49
 3183 0065 13       		.uleb128 0x13
 3184 0066 38       		.uleb128 0x38
 3185 0067 0B       		.uleb128 0xb
 3186 0068 00       		.byte	0
 3187 0069 00       		.byte	0
 3188 006a 09       		.uleb128 0x9
 3189 006b 0D       		.uleb128 0xd
 3190 006c 00       		.byte	0
 3191 006d 03       		.uleb128 0x3
 3192 006e 0E       		.uleb128 0xe
 3193 006f 3A       		.uleb128 0x3a
 3194 0070 0B       		.uleb128 0xb
 3195 0071 3B       		.uleb128 0x3b
 3196 0072 05       		.uleb128 0x5
 3197 0073 49       		.uleb128 0x49
 3198 0074 13       		.uleb128 0x13
 3199 0075 38       		.uleb128 0x38
 3200 0076 0B       		.uleb128 0xb
 3201 0077 00       		.byte	0
 3202 0078 00       		.byte	0
 3203 0079 0A       		.uleb128 0xa
 3204 007a 0F       		.uleb128 0xf
 3205 007b 00       		.byte	0
 3206 007c 0B       		.uleb128 0xb
 3207 007d 0B       		.uleb128 0xb
 3208 007e 49       		.uleb128 0x49
 3209 007f 13       		.uleb128 0x13
 3210 0080 00       		.byte	0
 3211 0081 00       		.byte	0
 3212 0082 0B       		.uleb128 0xb
 3213 0083 13       		.uleb128 0x13
 3214 0084 01       		.byte	0x1
 3215 0085 03       		.uleb128 0x3
 3216 0086 0E       		.uleb128 0xe
 3217 0087 0B       		.uleb128 0xb
 3218 0088 0B       		.uleb128 0xb
 3219 0089 3A       		.uleb128 0x3a
 3220 008a 0B       		.uleb128 0xb
 3221 008b 3B       		.uleb128 0x3b
 3222 008c 05       		.uleb128 0x5
 3223 008d 01       		.uleb128 0x1
 3224 008e 13       		.uleb128 0x13
 3225 008f 00       		.byte	0
 3226 0090 00       		.byte	0
 3227 0091 0C       		.uleb128 0xc
 3228 0092 15       		.uleb128 0x15
 3229 0093 01       		.byte	0x1
 3230 0094 27       		.uleb128 0x27
 3231 0095 19       		.uleb128 0x19
 3232 0096 01       		.uleb128 0x1
 3233 0097 13       		.uleb128 0x13
 3234 0098 00       		.byte	0
 3235 0099 00       		.byte	0
 3236 009a 0D       		.uleb128 0xd
 3237 009b 05       		.uleb128 0x5
 3238 009c 00       		.byte	0
ARM GAS  C:\Users\Moi\AppData\Local\Temp\ccEMjYGE.s 			page 58


 3239 009d 49       		.uleb128 0x49
 3240 009e 13       		.uleb128 0x13
 3241 009f 00       		.byte	0
 3242 00a0 00       		.byte	0
 3243 00a1 0E       		.uleb128 0xe
 3244 00a2 0F       		.uleb128 0xf
 3245 00a3 00       		.byte	0
 3246 00a4 0B       		.uleb128 0xb
 3247 00a5 0B       		.uleb128 0xb
 3248 00a6 00       		.byte	0
 3249 00a7 00       		.byte	0
 3250 00a8 0F       		.uleb128 0xf
 3251 00a9 13       		.uleb128 0x13
 3252 00aa 01       		.byte	0x1
 3253 00ab 03       		.uleb128 0x3
 3254 00ac 0E       		.uleb128 0xe
 3255 00ad 0B       		.uleb128 0xb
 3256 00ae 05       		.uleb128 0x5
 3257 00af 3A       		.uleb128 0x3a
 3258 00b0 0B       		.uleb128 0xb
 3259 00b1 3B       		.uleb128 0x3b
 3260 00b2 05       		.uleb128 0x5
 3261 00b3 01       		.uleb128 0x1
 3262 00b4 13       		.uleb128 0x13
 3263 00b5 00       		.byte	0
 3264 00b6 00       		.byte	0
 3265 00b7 10       		.uleb128 0x10
 3266 00b8 0D       		.uleb128 0xd
 3267 00b9 00       		.byte	0
 3268 00ba 03       		.uleb128 0x3
 3269 00bb 0E       		.uleb128 0xe
 3270 00bc 3A       		.uleb128 0x3a
 3271 00bd 0B       		.uleb128 0xb
 3272 00be 3B       		.uleb128 0x3b
 3273 00bf 05       		.uleb128 0x5
 3274 00c0 49       		.uleb128 0x49
 3275 00c1 13       		.uleb128 0x13
 3276 00c2 38       		.uleb128 0x38
 3277 00c3 05       		.uleb128 0x5
 3278 00c4 00       		.byte	0
 3279 00c5 00       		.byte	0
 3280 00c6 11       		.uleb128 0x11
 3281 00c7 0D       		.uleb128 0xd
 3282 00c8 00       		.byte	0
 3283 00c9 03       		.uleb128 0x3
 3284 00ca 08       		.uleb128 0x8
 3285 00cb 3A       		.uleb128 0x3a
 3286 00cc 0B       		.uleb128 0xb
 3287 00cd 3B       		.uleb128 0x3b
 3288 00ce 05       		.uleb128 0x5
 3289 00cf 49       		.uleb128 0x49
 3290 00d0 13       		.uleb128 0x13
 3291 00d1 38       		.uleb128 0x38
 3292 00d2 05       		.uleb128 0x5
 3293 00d3 00       		.byte	0
 3294 00d4 00       		.byte	0
 3295 00d5 12       		.uleb128 0x12
ARM GAS  C:\Users\Moi\AppData\Local\Temp\ccEMjYGE.s 			page 59


 3296 00d6 34       		.uleb128 0x34
 3297 00d7 00       		.byte	0
 3298 00d8 03       		.uleb128 0x3
 3299 00d9 0E       		.uleb128 0xe
 3300 00da 3A       		.uleb128 0x3a
 3301 00db 0B       		.uleb128 0xb
 3302 00dc 3B       		.uleb128 0x3b
 3303 00dd 05       		.uleb128 0x5
 3304 00de 49       		.uleb128 0x49
 3305 00df 13       		.uleb128 0x13
 3306 00e0 3F       		.uleb128 0x3f
 3307 00e1 19       		.uleb128 0x19
 3308 00e2 3C       		.uleb128 0x3c
 3309 00e3 19       		.uleb128 0x19
 3310 00e4 00       		.byte	0
 3311 00e5 00       		.byte	0
 3312 00e6 13       		.uleb128 0x13
 3313 00e7 34       		.uleb128 0x34
 3314 00e8 00       		.byte	0
 3315 00e9 03       		.uleb128 0x3
 3316 00ea 0E       		.uleb128 0xe
 3317 00eb 3A       		.uleb128 0x3a
 3318 00ec 0B       		.uleb128 0xb
 3319 00ed 3B       		.uleb128 0x3b
 3320 00ee 0B       		.uleb128 0xb
 3321 00ef 49       		.uleb128 0x49
 3322 00f0 13       		.uleb128 0x13
 3323 00f1 3F       		.uleb128 0x3f
 3324 00f2 19       		.uleb128 0x19
 3325 00f3 3C       		.uleb128 0x3c
 3326 00f4 19       		.uleb128 0x19
 3327 00f5 00       		.byte	0
 3328 00f6 00       		.byte	0
 3329 00f7 14       		.uleb128 0x14
 3330 00f8 0D       		.uleb128 0xd
 3331 00f9 00       		.byte	0
 3332 00fa 03       		.uleb128 0x3
 3333 00fb 08       		.uleb128 0x8
 3334 00fc 3A       		.uleb128 0x3a
 3335 00fd 0B       		.uleb128 0xb
 3336 00fe 3B       		.uleb128 0x3b
 3337 00ff 0B       		.uleb128 0xb
 3338 0100 49       		.uleb128 0x49
 3339 0101 13       		.uleb128 0x13
 3340 0102 38       		.uleb128 0x38
 3341 0103 0B       		.uleb128 0xb
 3342 0104 00       		.byte	0
 3343 0105 00       		.byte	0
 3344 0106 15       		.uleb128 0x15
 3345 0107 13       		.uleb128 0x13
 3346 0108 01       		.byte	0x1
 3347 0109 0B       		.uleb128 0xb
 3348 010a 0B       		.uleb128 0xb
 3349 010b 3A       		.uleb128 0x3a
 3350 010c 0B       		.uleb128 0xb
 3351 010d 3B       		.uleb128 0x3b
 3352 010e 0B       		.uleb128 0xb
ARM GAS  C:\Users\Moi\AppData\Local\Temp\ccEMjYGE.s 			page 60


 3353 010f 01       		.uleb128 0x1
 3354 0110 13       		.uleb128 0x13
 3355 0111 00       		.byte	0
 3356 0112 00       		.byte	0
 3357 0113 16       		.uleb128 0x16
 3358 0114 13       		.uleb128 0x13
 3359 0115 01       		.byte	0x1
 3360 0116 0B       		.uleb128 0xb
 3361 0117 05       		.uleb128 0x5
 3362 0118 3A       		.uleb128 0x3a
 3363 0119 0B       		.uleb128 0xb
 3364 011a 3B       		.uleb128 0x3b
 3365 011b 0B       		.uleb128 0xb
 3366 011c 01       		.uleb128 0x1
 3367 011d 13       		.uleb128 0x13
 3368 011e 00       		.byte	0
 3369 011f 00       		.byte	0
 3370 0120 17       		.uleb128 0x17
 3371 0121 01       		.uleb128 0x1
 3372 0122 01       		.byte	0x1
 3373 0123 49       		.uleb128 0x49
 3374 0124 13       		.uleb128 0x13
 3375 0125 01       		.uleb128 0x1
 3376 0126 13       		.uleb128 0x13
 3377 0127 00       		.byte	0
 3378 0128 00       		.byte	0
 3379 0129 18       		.uleb128 0x18
 3380 012a 21       		.uleb128 0x21
 3381 012b 00       		.byte	0
 3382 012c 49       		.uleb128 0x49
 3383 012d 13       		.uleb128 0x13
 3384 012e 2F       		.uleb128 0x2f
 3385 012f 0B       		.uleb128 0xb
 3386 0130 00       		.byte	0
 3387 0131 00       		.byte	0
 3388 0132 19       		.uleb128 0x19
 3389 0133 17       		.uleb128 0x17
 3390 0134 01       		.byte	0x1
 3391 0135 0B       		.uleb128 0xb
 3392 0136 0B       		.uleb128 0xb
 3393 0137 3A       		.uleb128 0x3a
 3394 0138 0B       		.uleb128 0xb
 3395 0139 3B       		.uleb128 0x3b
 3396 013a 0B       		.uleb128 0xb
 3397 013b 01       		.uleb128 0x1
 3398 013c 13       		.uleb128 0x13
 3399 013d 00       		.byte	0
 3400 013e 00       		.byte	0
 3401 013f 1A       		.uleb128 0x1a
 3402 0140 0D       		.uleb128 0xd
 3403 0141 00       		.byte	0
 3404 0142 03       		.uleb128 0x3
 3405 0143 0E       		.uleb128 0xe
 3406 0144 3A       		.uleb128 0x3a
 3407 0145 0B       		.uleb128 0xb
 3408 0146 3B       		.uleb128 0x3b
 3409 0147 05       		.uleb128 0x5
ARM GAS  C:\Users\Moi\AppData\Local\Temp\ccEMjYGE.s 			page 61


 3410 0148 49       		.uleb128 0x49
 3411 0149 13       		.uleb128 0x13
 3412 014a 00       		.byte	0
 3413 014b 00       		.byte	0
 3414 014c 1B       		.uleb128 0x1b
 3415 014d 26       		.uleb128 0x26
 3416 014e 00       		.byte	0
 3417 014f 49       		.uleb128 0x49
 3418 0150 13       		.uleb128 0x13
 3419 0151 00       		.byte	0
 3420 0152 00       		.byte	0
 3421 0153 1C       		.uleb128 0x1c
 3422 0154 34       		.uleb128 0x34
 3423 0155 00       		.byte	0
 3424 0156 03       		.uleb128 0x3
 3425 0157 08       		.uleb128 0x8
 3426 0158 3A       		.uleb128 0x3a
 3427 0159 0B       		.uleb128 0xb
 3428 015a 3B       		.uleb128 0x3b
 3429 015b 05       		.uleb128 0x5
 3430 015c 49       		.uleb128 0x49
 3431 015d 13       		.uleb128 0x13
 3432 015e 3F       		.uleb128 0x3f
 3433 015f 19       		.uleb128 0x19
 3434 0160 3C       		.uleb128 0x3c
 3435 0161 19       		.uleb128 0x19
 3436 0162 00       		.byte	0
 3437 0163 00       		.byte	0
 3438 0164 1D       		.uleb128 0x1d
 3439 0165 15       		.uleb128 0x15
 3440 0166 01       		.byte	0x1
 3441 0167 27       		.uleb128 0x27
 3442 0168 19       		.uleb128 0x19
 3443 0169 49       		.uleb128 0x49
 3444 016a 13       		.uleb128 0x13
 3445 016b 01       		.uleb128 0x1
 3446 016c 13       		.uleb128 0x13
 3447 016d 00       		.byte	0
 3448 016e 00       		.byte	0
 3449 016f 1E       		.uleb128 0x1e
 3450 0170 0D       		.uleb128 0xd
 3451 0171 00       		.byte	0
 3452 0172 03       		.uleb128 0x3
 3453 0173 0E       		.uleb128 0xe
 3454 0174 3A       		.uleb128 0x3a
 3455 0175 0B       		.uleb128 0xb
 3456 0176 3B       		.uleb128 0x3b
 3457 0177 0B       		.uleb128 0xb
 3458 0178 49       		.uleb128 0x49
 3459 0179 13       		.uleb128 0x13
 3460 017a 00       		.byte	0
 3461 017b 00       		.byte	0
 3462 017c 1F       		.uleb128 0x1f
 3463 017d 17       		.uleb128 0x17
 3464 017e 01       		.byte	0x1
 3465 017f 03       		.uleb128 0x3
 3466 0180 0E       		.uleb128 0xe
ARM GAS  C:\Users\Moi\AppData\Local\Temp\ccEMjYGE.s 			page 62


 3467 0181 0B       		.uleb128 0xb
 3468 0182 0B       		.uleb128 0xb
 3469 0183 3A       		.uleb128 0x3a
 3470 0184 0B       		.uleb128 0xb
 3471 0185 3B       		.uleb128 0x3b
 3472 0186 0B       		.uleb128 0xb
 3473 0187 01       		.uleb128 0x1
 3474 0188 13       		.uleb128 0x13
 3475 0189 00       		.byte	0
 3476 018a 00       		.byte	0
 3477 018b 20       		.uleb128 0x20
 3478 018c 0D       		.uleb128 0xd
 3479 018d 00       		.byte	0
 3480 018e 03       		.uleb128 0x3
 3481 018f 08       		.uleb128 0x8
 3482 0190 3A       		.uleb128 0x3a
 3483 0191 0B       		.uleb128 0xb
 3484 0192 3B       		.uleb128 0x3b
 3485 0193 0B       		.uleb128 0xb
 3486 0194 49       		.uleb128 0x49
 3487 0195 13       		.uleb128 0x13
 3488 0196 00       		.byte	0
 3489 0197 00       		.byte	0
 3490 0198 21       		.uleb128 0x21
 3491 0199 2E       		.uleb128 0x2e
 3492 019a 01       		.byte	0x1
 3493 019b 3F       		.uleb128 0x3f
 3494 019c 19       		.uleb128 0x19
 3495 019d 03       		.uleb128 0x3
 3496 019e 0E       		.uleb128 0xe
 3497 019f 3A       		.uleb128 0x3a
 3498 01a0 0B       		.uleb128 0xb
 3499 01a1 3B       		.uleb128 0x3b
 3500 01a2 0B       		.uleb128 0xb
 3501 01a3 27       		.uleb128 0x27
 3502 01a4 19       		.uleb128 0x19
 3503 01a5 49       		.uleb128 0x49
 3504 01a6 13       		.uleb128 0x13
 3505 01a7 11       		.uleb128 0x11
 3506 01a8 01       		.uleb128 0x1
 3507 01a9 12       		.uleb128 0x12
 3508 01aa 06       		.uleb128 0x6
 3509 01ab 40       		.uleb128 0x40
 3510 01ac 18       		.uleb128 0x18
 3511 01ad 9742     		.uleb128 0x2117
 3512 01af 19       		.uleb128 0x19
 3513 01b0 01       		.uleb128 0x1
 3514 01b1 13       		.uleb128 0x13
 3515 01b2 00       		.byte	0
 3516 01b3 00       		.byte	0
 3517 01b4 22       		.uleb128 0x22
 3518 01b5 05       		.uleb128 0x5
 3519 01b6 00       		.byte	0
 3520 01b7 03       		.uleb128 0x3
 3521 01b8 08       		.uleb128 0x8
 3522 01b9 3A       		.uleb128 0x3a
 3523 01ba 0B       		.uleb128 0xb
ARM GAS  C:\Users\Moi\AppData\Local\Temp\ccEMjYGE.s 			page 63


 3524 01bb 3B       		.uleb128 0x3b
 3525 01bc 0B       		.uleb128 0xb
 3526 01bd 49       		.uleb128 0x49
 3527 01be 13       		.uleb128 0x13
 3528 01bf 02       		.uleb128 0x2
 3529 01c0 17       		.uleb128 0x17
 3530 01c1 00       		.byte	0
 3531 01c2 00       		.byte	0
 3532 01c3 23       		.uleb128 0x23
 3533 01c4 05       		.uleb128 0x5
 3534 01c5 00       		.byte	0
 3535 01c6 03       		.uleb128 0x3
 3536 01c7 0E       		.uleb128 0xe
 3537 01c8 3A       		.uleb128 0x3a
 3538 01c9 0B       		.uleb128 0xb
 3539 01ca 3B       		.uleb128 0x3b
 3540 01cb 0B       		.uleb128 0xb
 3541 01cc 49       		.uleb128 0x49
 3542 01cd 13       		.uleb128 0x13
 3543 01ce 02       		.uleb128 0x2
 3544 01cf 17       		.uleb128 0x17
 3545 01d0 00       		.byte	0
 3546 01d1 00       		.byte	0
 3547 01d2 24       		.uleb128 0x24
 3548 01d3 34       		.uleb128 0x34
 3549 01d4 00       		.byte	0
 3550 01d5 03       		.uleb128 0x3
 3551 01d6 08       		.uleb128 0x8
 3552 01d7 3A       		.uleb128 0x3a
 3553 01d8 0B       		.uleb128 0xb
 3554 01d9 3B       		.uleb128 0x3b
 3555 01da 0B       		.uleb128 0xb
 3556 01db 49       		.uleb128 0x49
 3557 01dc 13       		.uleb128 0x13
 3558 01dd 02       		.uleb128 0x2
 3559 01de 17       		.uleb128 0x17
 3560 01df 00       		.byte	0
 3561 01e0 00       		.byte	0
 3562 01e1 25       		.uleb128 0x25
 3563 01e2 34       		.uleb128 0x34
 3564 01e3 00       		.byte	0
 3565 01e4 03       		.uleb128 0x3
 3566 01e5 0E       		.uleb128 0xe
 3567 01e6 49       		.uleb128 0x49
 3568 01e7 13       		.uleb128 0x13
 3569 01e8 34       		.uleb128 0x34
 3570 01e9 19       		.uleb128 0x19
 3571 01ea 02       		.uleb128 0x2
 3572 01eb 18       		.uleb128 0x18
 3573 01ec 00       		.byte	0
 3574 01ed 00       		.byte	0
 3575 01ee 26       		.uleb128 0x26
 3576 01ef 1D       		.uleb128 0x1d
 3577 01f0 01       		.byte	0x1
 3578 01f1 31       		.uleb128 0x31
 3579 01f2 13       		.uleb128 0x13
 3580 01f3 11       		.uleb128 0x11
ARM GAS  C:\Users\Moi\AppData\Local\Temp\ccEMjYGE.s 			page 64


 3581 01f4 01       		.uleb128 0x1
 3582 01f5 12       		.uleb128 0x12
 3583 01f6 06       		.uleb128 0x6
 3584 01f7 58       		.uleb128 0x58
 3585 01f8 0B       		.uleb128 0xb
 3586 01f9 59       		.uleb128 0x59
 3587 01fa 0B       		.uleb128 0xb
 3588 01fb 01       		.uleb128 0x1
 3589 01fc 13       		.uleb128 0x13
 3590 01fd 00       		.byte	0
 3591 01fe 00       		.byte	0
 3592 01ff 27       		.uleb128 0x27
 3593 0200 1D       		.uleb128 0x1d
 3594 0201 01       		.byte	0x1
 3595 0202 31       		.uleb128 0x31
 3596 0203 13       		.uleb128 0x13
 3597 0204 11       		.uleb128 0x11
 3598 0205 01       		.uleb128 0x1
 3599 0206 12       		.uleb128 0x12
 3600 0207 06       		.uleb128 0x6
 3601 0208 58       		.uleb128 0x58
 3602 0209 0B       		.uleb128 0xb
 3603 020a 59       		.uleb128 0x59
 3604 020b 05       		.uleb128 0x5
 3605 020c 01       		.uleb128 0x1
 3606 020d 13       		.uleb128 0x13
 3607 020e 00       		.byte	0
 3608 020f 00       		.byte	0
 3609 0210 28       		.uleb128 0x28
 3610 0211 1D       		.uleb128 0x1d
 3611 0212 01       		.byte	0x1
 3612 0213 31       		.uleb128 0x31
 3613 0214 13       		.uleb128 0x13
 3614 0215 11       		.uleb128 0x11
 3615 0216 01       		.uleb128 0x1
 3616 0217 12       		.uleb128 0x12
 3617 0218 06       		.uleb128 0x6
 3618 0219 58       		.uleb128 0x58
 3619 021a 0B       		.uleb128 0xb
 3620 021b 59       		.uleb128 0x59
 3621 021c 05       		.uleb128 0x5
 3622 021d 00       		.byte	0
 3623 021e 00       		.byte	0
 3624 021f 29       		.uleb128 0x29
 3625 0220 05       		.uleb128 0x5
 3626 0221 00       		.byte	0
 3627 0222 31       		.uleb128 0x31
 3628 0223 13       		.uleb128 0x13
 3629 0224 02       		.uleb128 0x2
 3630 0225 17       		.uleb128 0x17
 3631 0226 00       		.byte	0
 3632 0227 00       		.byte	0
 3633 0228 2A       		.uleb128 0x2a
 3634 0229 898201   		.uleb128 0x4109
 3635 022c 00       		.byte	0
 3636 022d 11       		.uleb128 0x11
 3637 022e 01       		.uleb128 0x1
ARM GAS  C:\Users\Moi\AppData\Local\Temp\ccEMjYGE.s 			page 65


 3638 022f 31       		.uleb128 0x31
 3639 0230 13       		.uleb128 0x13
 3640 0231 00       		.byte	0
 3641 0232 00       		.byte	0
 3642 0233 2B       		.uleb128 0x2b
 3643 0234 1D       		.uleb128 0x1d
 3644 0235 01       		.byte	0x1
 3645 0236 31       		.uleb128 0x31
 3646 0237 13       		.uleb128 0x13
 3647 0238 52       		.uleb128 0x52
 3648 0239 01       		.uleb128 0x1
 3649 023a 55       		.uleb128 0x55
 3650 023b 17       		.uleb128 0x17
 3651 023c 58       		.uleb128 0x58
 3652 023d 0B       		.uleb128 0xb
 3653 023e 59       		.uleb128 0x59
 3654 023f 0B       		.uleb128 0xb
 3655 0240 01       		.uleb128 0x1
 3656 0241 13       		.uleb128 0x13
 3657 0242 00       		.byte	0
 3658 0243 00       		.byte	0
 3659 0244 2C       		.uleb128 0x2c
 3660 0245 0B       		.uleb128 0xb
 3661 0246 01       		.byte	0x1
 3662 0247 55       		.uleb128 0x55
 3663 0248 17       		.uleb128 0x17
 3664 0249 00       		.byte	0
 3665 024a 00       		.byte	0
 3666 024b 2D       		.uleb128 0x2d
 3667 024c 34       		.uleb128 0x34
 3668 024d 00       		.byte	0
 3669 024e 31       		.uleb128 0x31
 3670 024f 13       		.uleb128 0x13
 3671 0250 00       		.byte	0
 3672 0251 00       		.byte	0
 3673 0252 2E       		.uleb128 0x2e
 3674 0253 898201   		.uleb128 0x4109
 3675 0256 01       		.byte	0x1
 3676 0257 11       		.uleb128 0x11
 3677 0258 01       		.uleb128 0x1
 3678 0259 31       		.uleb128 0x31
 3679 025a 13       		.uleb128 0x13
 3680 025b 00       		.byte	0
 3681 025c 00       		.byte	0
 3682 025d 2F       		.uleb128 0x2f
 3683 025e 8A8201   		.uleb128 0x410a
 3684 0261 00       		.byte	0
 3685 0262 02       		.uleb128 0x2
 3686 0263 18       		.uleb128 0x18
 3687 0264 9142     		.uleb128 0x2111
 3688 0266 18       		.uleb128 0x18
 3689 0267 00       		.byte	0
 3690 0268 00       		.byte	0
 3691 0269 30       		.uleb128 0x30
 3692 026a 898201   		.uleb128 0x4109
 3693 026d 01       		.byte	0x1
 3694 026e 11       		.uleb128 0x11
ARM GAS  C:\Users\Moi\AppData\Local\Temp\ccEMjYGE.s 			page 66


 3695 026f 01       		.uleb128 0x1
 3696 0270 31       		.uleb128 0x31
 3697 0271 13       		.uleb128 0x13
 3698 0272 01       		.uleb128 0x1
 3699 0273 13       		.uleb128 0x13
 3700 0274 00       		.byte	0
 3701 0275 00       		.byte	0
 3702 0276 31       		.uleb128 0x31
 3703 0277 2E       		.uleb128 0x2e
 3704 0278 01       		.byte	0x1
 3705 0279 3F       		.uleb128 0x3f
 3706 027a 19       		.uleb128 0x19
 3707 027b 03       		.uleb128 0x3
 3708 027c 0E       		.uleb128 0xe
 3709 027d 3A       		.uleb128 0x3a
 3710 027e 0B       		.uleb128 0xb
 3711 027f 3B       		.uleb128 0x3b
 3712 0280 0B       		.uleb128 0xb
 3713 0281 27       		.uleb128 0x27
 3714 0282 19       		.uleb128 0x19
 3715 0283 11       		.uleb128 0x11
 3716 0284 01       		.uleb128 0x1
 3717 0285 12       		.uleb128 0x12
 3718 0286 06       		.uleb128 0x6
 3719 0287 40       		.uleb128 0x40
 3720 0288 18       		.uleb128 0x18
 3721 0289 9742     		.uleb128 0x2117
 3722 028b 19       		.uleb128 0x19
 3723 028c 01       		.uleb128 0x1
 3724 028d 13       		.uleb128 0x13
 3725 028e 00       		.byte	0
 3726 028f 00       		.byte	0
 3727 0290 32       		.uleb128 0x32
 3728 0291 34       		.uleb128 0x34
 3729 0292 00       		.byte	0
 3730 0293 03       		.uleb128 0x3
 3731 0294 0E       		.uleb128 0xe
 3732 0295 3A       		.uleb128 0x3a
 3733 0296 0B       		.uleb128 0xb
 3734 0297 3B       		.uleb128 0x3b
 3735 0298 0B       		.uleb128 0xb
 3736 0299 49       		.uleb128 0x49
 3737 029a 13       		.uleb128 0x13
 3738 029b 02       		.uleb128 0x2
 3739 029c 17       		.uleb128 0x17
 3740 029d 00       		.byte	0
 3741 029e 00       		.byte	0
 3742 029f 33       		.uleb128 0x33
 3743 02a0 898201   		.uleb128 0x4109
 3744 02a3 01       		.byte	0x1
 3745 02a4 11       		.uleb128 0x11
 3746 02a5 01       		.uleb128 0x1
 3747 02a6 9542     		.uleb128 0x2115
 3748 02a8 19       		.uleb128 0x19
 3749 02a9 31       		.uleb128 0x31
 3750 02aa 13       		.uleb128 0x13
 3751 02ab 01       		.uleb128 0x1
ARM GAS  C:\Users\Moi\AppData\Local\Temp\ccEMjYGE.s 			page 67


 3752 02ac 13       		.uleb128 0x13
 3753 02ad 00       		.byte	0
 3754 02ae 00       		.byte	0
 3755 02af 34       		.uleb128 0x34
 3756 02b0 2E       		.uleb128 0x2e
 3757 02b1 01       		.byte	0x1
 3758 02b2 03       		.uleb128 0x3
 3759 02b3 0E       		.uleb128 0xe
 3760 02b4 3A       		.uleb128 0x3a
 3761 02b5 0B       		.uleb128 0xb
 3762 02b6 3B       		.uleb128 0x3b
 3763 02b7 05       		.uleb128 0x5
 3764 02b8 27       		.uleb128 0x27
 3765 02b9 19       		.uleb128 0x19
 3766 02ba 20       		.uleb128 0x20
 3767 02bb 0B       		.uleb128 0xb
 3768 02bc 01       		.uleb128 0x1
 3769 02bd 13       		.uleb128 0x13
 3770 02be 00       		.byte	0
 3771 02bf 00       		.byte	0
 3772 02c0 35       		.uleb128 0x35
 3773 02c1 34       		.uleb128 0x34
 3774 02c2 00       		.byte	0
 3775 02c3 03       		.uleb128 0x3
 3776 02c4 0E       		.uleb128 0xe
 3777 02c5 49       		.uleb128 0x49
 3778 02c6 13       		.uleb128 0x13
 3779 02c7 34       		.uleb128 0x34
 3780 02c8 19       		.uleb128 0x19
 3781 02c9 1C       		.uleb128 0x1c
 3782 02ca 0E       		.uleb128 0xe
 3783 02cb 00       		.byte	0
 3784 02cc 00       		.byte	0
 3785 02cd 36       		.uleb128 0x36
 3786 02ce 2E       		.uleb128 0x2e
 3787 02cf 00       		.byte	0
 3788 02d0 03       		.uleb128 0x3
 3789 02d1 0E       		.uleb128 0xe
 3790 02d2 3A       		.uleb128 0x3a
 3791 02d3 0B       		.uleb128 0xb
 3792 02d4 3B       		.uleb128 0x3b
 3793 02d5 05       		.uleb128 0x5
 3794 02d6 27       		.uleb128 0x27
 3795 02d7 19       		.uleb128 0x19
 3796 02d8 20       		.uleb128 0x20
 3797 02d9 0B       		.uleb128 0xb
 3798 02da 00       		.byte	0
 3799 02db 00       		.byte	0
 3800 02dc 37       		.uleb128 0x37
 3801 02dd 05       		.uleb128 0x5
 3802 02de 00       		.byte	0
 3803 02df 03       		.uleb128 0x3
 3804 02e0 0E       		.uleb128 0xe
 3805 02e1 3A       		.uleb128 0x3a
 3806 02e2 0B       		.uleb128 0xb
 3807 02e3 3B       		.uleb128 0x3b
 3808 02e4 05       		.uleb128 0x5
ARM GAS  C:\Users\Moi\AppData\Local\Temp\ccEMjYGE.s 			page 68


 3809 02e5 49       		.uleb128 0x49
 3810 02e6 13       		.uleb128 0x13
 3811 02e7 00       		.byte	0
 3812 02e8 00       		.byte	0
 3813 02e9 38       		.uleb128 0x38
 3814 02ea 2E       		.uleb128 0x2e
 3815 02eb 00       		.byte	0
 3816 02ec 3F       		.uleb128 0x3f
 3817 02ed 19       		.uleb128 0x19
 3818 02ee 3C       		.uleb128 0x3c
 3819 02ef 19       		.uleb128 0x19
 3820 02f0 6E       		.uleb128 0x6e
 3821 02f1 0E       		.uleb128 0xe
 3822 02f2 03       		.uleb128 0x3
 3823 02f3 0E       		.uleb128 0xe
 3824 02f4 3A       		.uleb128 0x3a
 3825 02f5 0B       		.uleb128 0xb
 3826 02f6 3B       		.uleb128 0x3b
 3827 02f7 0B       		.uleb128 0xb
 3828 02f8 00       		.byte	0
 3829 02f9 00       		.byte	0
 3830 02fa 39       		.uleb128 0x39
 3831 02fb 2E       		.uleb128 0x2e
 3832 02fc 00       		.byte	0
 3833 02fd 3F       		.uleb128 0x3f
 3834 02fe 19       		.uleb128 0x19
 3835 02ff 3C       		.uleb128 0x3c
 3836 0300 19       		.uleb128 0x19
 3837 0301 6E       		.uleb128 0x6e
 3838 0302 0E       		.uleb128 0xe
 3839 0303 03       		.uleb128 0x3
 3840 0304 0E       		.uleb128 0xe
 3841 0305 3A       		.uleb128 0x3a
 3842 0306 0B       		.uleb128 0xb
 3843 0307 3B       		.uleb128 0x3b
 3844 0308 05       		.uleb128 0x5
 3845 0309 00       		.byte	0
 3846 030a 00       		.byte	0
 3847 030b 3A       		.uleb128 0x3a
 3848 030c 2E       		.uleb128 0x2e
 3849 030d 00       		.byte	0
 3850 030e 3F       		.uleb128 0x3f
 3851 030f 19       		.uleb128 0x19
 3852 0310 3C       		.uleb128 0x3c
 3853 0311 19       		.uleb128 0x19
 3854 0312 6E       		.uleb128 0x6e
 3855 0313 0E       		.uleb128 0xe
 3856 0314 03       		.uleb128 0x3
 3857 0315 0E       		.uleb128 0xe
 3858 0316 00       		.byte	0
 3859 0317 00       		.byte	0
 3860 0318 00       		.byte	0
 3861              		.section	.debug_loc,"",%progbits
 3862              	.Ldebug_loc0:
 3863              	.LLST16:
 3864 0000 00000000 		.4byte	.LVL52
 3865 0004 18000000 		.4byte	.LVL53
ARM GAS  C:\Users\Moi\AppData\Local\Temp\ccEMjYGE.s 			page 69


 3866 0008 0100     		.2byte	0x1
 3867 000a 50       		.byte	0x50
 3868 000b 18000000 		.4byte	.LVL53
 3869 000f A0000000 		.4byte	.LVL69
 3870 0013 0100     		.2byte	0x1
 3871 0015 55       		.byte	0x55
 3872 0016 A0000000 		.4byte	.LVL69
 3873 001a A2000000 		.4byte	.LVL70
 3874 001e 0100     		.2byte	0x1
 3875 0020 50       		.byte	0x50
 3876 0021 A2000000 		.4byte	.LVL70
 3877 0025 BC000000 		.4byte	.LFE222
 3878 0029 0100     		.2byte	0x1
 3879 002b 55       		.byte	0x55
 3880 002c 00000000 		.4byte	0
 3881 0030 00000000 		.4byte	0
 3882              	.LLST17:
 3883 0034 00000000 		.4byte	.LVL52
 3884 0038 18000000 		.4byte	.LVL53
 3885 003c 0100     		.2byte	0x1
 3886 003e 51       		.byte	0x51
 3887 003f 18000000 		.4byte	.LVL53
 3888 0043 A0000000 		.4byte	.LVL69
 3889 0047 0100     		.2byte	0x1
 3890 0049 58       		.byte	0x58
 3891 004a A0000000 		.4byte	.LVL69
 3892 004e A5000000 		.4byte	.LVL71-1
 3893 0052 0100     		.2byte	0x1
 3894 0054 51       		.byte	0x51
 3895 0055 A5000000 		.4byte	.LVL71-1
 3896 0059 BC000000 		.4byte	.LFE222
 3897 005d 0100     		.2byte	0x1
 3898 005f 58       		.byte	0x58
 3899 0060 00000000 		.4byte	0
 3900 0064 00000000 		.4byte	0
 3901              	.LLST18:
 3902 0068 00000000 		.4byte	.LVL52
 3903 006c 18000000 		.4byte	.LVL53
 3904 0070 0100     		.2byte	0x1
 3905 0072 52       		.byte	0x52
 3906 0073 18000000 		.4byte	.LVL53
 3907 0077 A0000000 		.4byte	.LVL69
 3908 007b 0100     		.2byte	0x1
 3909 007d 59       		.byte	0x59
 3910 007e A0000000 		.4byte	.LVL69
 3911 0082 A5000000 		.4byte	.LVL71-1
 3912 0086 0100     		.2byte	0x1
 3913 0088 52       		.byte	0x52
 3914 0089 A5000000 		.4byte	.LVL71-1
 3915 008d BC000000 		.4byte	.LFE222
 3916 0091 0100     		.2byte	0x1
 3917 0093 59       		.byte	0x59
 3918 0094 00000000 		.4byte	0
 3919 0098 00000000 		.4byte	0
 3920              	.LLST19:
 3921 009c 00000000 		.4byte	.LVL52
 3922 00a0 18000000 		.4byte	.LVL53
ARM GAS  C:\Users\Moi\AppData\Local\Temp\ccEMjYGE.s 			page 70


 3923 00a4 0100     		.2byte	0x1
 3924 00a6 53       		.byte	0x53
 3925 00a7 18000000 		.4byte	.LVL53
 3926 00ab A0000000 		.4byte	.LVL69
 3927 00af 0100     		.2byte	0x1
 3928 00b1 5A       		.byte	0x5a
 3929 00b2 A0000000 		.4byte	.LVL69
 3930 00b6 A5000000 		.4byte	.LVL71-1
 3931 00ba 0100     		.2byte	0x1
 3932 00bc 53       		.byte	0x53
 3933 00bd A5000000 		.4byte	.LVL71-1
 3934 00c1 BC000000 		.4byte	.LFE222
 3935 00c5 0100     		.2byte	0x1
 3936 00c7 5A       		.byte	0x5a
 3937 00c8 00000000 		.4byte	0
 3938 00cc 00000000 		.4byte	0
 3939              	.LLST20:
 3940 00d0 1E000000 		.4byte	.LVL54
 3941 00d4 2D000000 		.4byte	.LVL55-1
 3942 00d8 0100     		.2byte	0x1
 3943 00da 50       		.byte	0x50
 3944 00db 2D000000 		.4byte	.LVL55-1
 3945 00df 64000000 		.4byte	.LVL61
 3946 00e3 0100     		.2byte	0x1
 3947 00e5 54       		.byte	0x54
 3948 00e6 64000000 		.4byte	.LVL61
 3949 00ea 88000000 		.4byte	.LVL66
 3950 00ee 0400     		.2byte	0x4
 3951 00f0 77       		.byte	0x77
 3952 00f1 987F     		.sleb128 -104
 3953 00f3 9F       		.byte	0x9f
 3954 00f4 98000000 		.4byte	.LVL67
 3955 00f8 A0000000 		.4byte	.LVL69
 3956 00fc 0400     		.2byte	0x4
 3957 00fe 77       		.byte	0x77
 3958 00ff 987F     		.sleb128 -104
 3959 0101 9F       		.byte	0x9f
 3960 0102 00000000 		.4byte	0
 3961 0106 00000000 		.4byte	0
 3962              	.LLST21:
 3963 010a 64000000 		.4byte	.LVL61
 3964 010e 67000000 		.4byte	.LVL62-1
 3965 0112 0100     		.2byte	0x1
 3966 0114 50       		.byte	0x50
 3967 0115 67000000 		.4byte	.LVL62-1
 3968 0119 88000000 		.4byte	.LVL66
 3969 011d 0100     		.2byte	0x1
 3970 011f 54       		.byte	0x54
 3971 0120 98000000 		.4byte	.LVL67
 3972 0124 A0000000 		.4byte	.LVL69
 3973 0128 0100     		.2byte	0x1
 3974 012a 54       		.byte	0x54
 3975 012b 00000000 		.4byte	0
 3976 012f 00000000 		.4byte	0
 3977              	.LLST22:
 3978 0133 3A000000 		.4byte	.LVL56
 3979 0137 40000000 		.4byte	.LVL57
ARM GAS  C:\Users\Moi\AppData\Local\Temp\ccEMjYGE.s 			page 71


 3980 013b 0300     		.2byte	0x3
 3981 013d 08       		.byte	0x8
 3982 013e 20       		.byte	0x20
 3983 013f 9F       		.byte	0x9f
 3984 0140 00000000 		.4byte	0
 3985 0144 00000000 		.4byte	0
 3986              	.LLST23:
 3987 0148 82000000 		.4byte	.LVL65
 3988 014c 88000000 		.4byte	.LVL66
 3989 0150 0200     		.2byte	0x2
 3990 0152 30       		.byte	0x30
 3991 0153 9F       		.byte	0x9f
 3992 0154 00000000 		.4byte	0
 3993 0158 00000000 		.4byte	0
 3994              	.LLST7:
 3995 015c 00000000 		.4byte	.LVL34
 3996 0160 19000000 		.4byte	.LVL35-1
 3997 0164 0100     		.2byte	0x1
 3998 0166 50       		.byte	0x50
 3999 0167 19000000 		.4byte	.LVL35-1
 4000 016b A8000000 		.4byte	.LFE221
 4001 016f 0400     		.2byte	0x4
 4002 0171 F3       		.byte	0xf3
 4003 0172 01       		.uleb128 0x1
 4004 0173 50       		.byte	0x50
 4005 0174 9F       		.byte	0x9f
 4006 0175 00000000 		.4byte	0
 4007 0179 00000000 		.4byte	0
 4008              	.LLST8:
 4009 017d 00000000 		.4byte	.LVL34
 4010 0181 19000000 		.4byte	.LVL35-1
 4011 0185 0100     		.2byte	0x1
 4012 0187 51       		.byte	0x51
 4013 0188 19000000 		.4byte	.LVL35-1
 4014 018c A8000000 		.4byte	.LFE221
 4015 0190 0100     		.2byte	0x1
 4016 0192 56       		.byte	0x56
 4017 0193 00000000 		.4byte	0
 4018 0197 00000000 		.4byte	0
 4019              	.LLST9:
 4020 019b 00000000 		.4byte	.LVL34
 4021 019f 19000000 		.4byte	.LVL35-1
 4022 01a3 0100     		.2byte	0x1
 4023 01a5 52       		.byte	0x52
 4024 01a6 19000000 		.4byte	.LVL35-1
 4025 01aa A8000000 		.4byte	.LFE221
 4026 01ae 0100     		.2byte	0x1
 4027 01b0 58       		.byte	0x58
 4028 01b1 00000000 		.4byte	0
 4029 01b5 00000000 		.4byte	0
 4030              	.LLST10:
 4031 01b9 00000000 		.4byte	.LVL34
 4032 01bd 19000000 		.4byte	.LVL35-1
 4033 01c1 0100     		.2byte	0x1
 4034 01c3 53       		.byte	0x53
 4035 01c4 19000000 		.4byte	.LVL35-1
 4036 01c8 A8000000 		.4byte	.LFE221
ARM GAS  C:\Users\Moi\AppData\Local\Temp\ccEMjYGE.s 			page 72


 4037 01cc 0100     		.2byte	0x1
 4038 01ce 59       		.byte	0x59
 4039 01cf 00000000 		.4byte	0
 4040 01d3 00000000 		.4byte	0
 4041              	.LLST11:
 4042 01d7 00000000 		.4byte	.LVL34
 4043 01db 90000000 		.4byte	.LVL48
 4044 01df 0200     		.2byte	0x2
 4045 01e1 91       		.byte	0x91
 4046 01e2 00       		.sleb128 0
 4047 01e3 90000000 		.4byte	.LVL48
 4048 01e7 A8000000 		.4byte	.LFE221
 4049 01eb 0200     		.2byte	0x2
 4050 01ed 91       		.byte	0x91
 4051 01ee 00       		.sleb128 0
 4052 01ef 00000000 		.4byte	0
 4053 01f3 00000000 		.4byte	0
 4054              	.LLST12:
 4055 01f7 1A000000 		.4byte	.LVL35
 4056 01fb 29000000 		.4byte	.LVL36-1
 4057 01ff 0100     		.2byte	0x1
 4058 0201 50       		.byte	0x50
 4059 0202 29000000 		.4byte	.LVL36-1
 4060 0206 5C000000 		.4byte	.LVL42
 4061 020a 0100     		.2byte	0x1
 4062 020c 54       		.byte	0x54
 4063 020d 5C000000 		.4byte	.LVL42
 4064 0211 80000000 		.4byte	.LVL47
 4065 0215 0400     		.2byte	0x4
 4066 0217 77       		.byte	0x77
 4067 0218 987F     		.sleb128 -104
 4068 021a 9F       		.byte	0x9f
 4069 021b 90000000 		.4byte	.LVL48
 4070 021f 98000000 		.4byte	.LVL50
 4071 0223 0400     		.2byte	0x4
 4072 0225 77       		.byte	0x77
 4073 0226 987F     		.sleb128 -104
 4074 0228 9F       		.byte	0x9f
 4075 0229 00000000 		.4byte	0
 4076 022d 00000000 		.4byte	0
 4077              	.LLST13:
 4078 0231 5C000000 		.4byte	.LVL42
 4079 0235 5F000000 		.4byte	.LVL43-1
 4080 0239 0100     		.2byte	0x1
 4081 023b 50       		.byte	0x50
 4082 023c 5F000000 		.4byte	.LVL43-1
 4083 0240 80000000 		.4byte	.LVL47
 4084 0244 0100     		.2byte	0x1
 4085 0246 54       		.byte	0x54
 4086 0247 90000000 		.4byte	.LVL48
 4087 024b 98000000 		.4byte	.LVL50
 4088 024f 0100     		.2byte	0x1
 4089 0251 54       		.byte	0x54
 4090 0252 00000000 		.4byte	0
 4091 0256 00000000 		.4byte	0
 4092              	.LLST14:
 4093 025a 34000000 		.4byte	.LVL37
ARM GAS  C:\Users\Moi\AppData\Local\Temp\ccEMjYGE.s 			page 73


 4094 025e 3A000000 		.4byte	.LVL38
 4095 0262 0300     		.2byte	0x3
 4096 0264 08       		.byte	0x8
 4097 0265 20       		.byte	0x20
 4098 0266 9F       		.byte	0x9f
 4099 0267 00000000 		.4byte	0
 4100 026b 00000000 		.4byte	0
 4101              	.LLST15:
 4102 026f 7A000000 		.4byte	.LVL46
 4103 0273 80000000 		.4byte	.LVL47
 4104 0277 0200     		.2byte	0x2
 4105 0279 30       		.byte	0x30
 4106 027a 9F       		.byte	0x9f
 4107 027b 00000000 		.4byte	0
 4108 027f 00000000 		.4byte	0
 4109              	.LLST3:
 4110 0283 00000000 		.4byte	.LVL15
 4111 0287 15000000 		.4byte	.LVL18-1
 4112 028b 0100     		.2byte	0x1
 4113 028d 50       		.byte	0x50
 4114 028e 15000000 		.4byte	.LVL18-1
 4115 0292 94000000 		.4byte	.LVL27
 4116 0296 0100     		.2byte	0x1
 4117 0298 55       		.byte	0x55
 4118 0299 94000000 		.4byte	.LVL27
 4119 029d 97000000 		.4byte	.LVL28-1
 4120 02a1 0100     		.2byte	0x1
 4121 02a3 51       		.byte	0x51
 4122 02a4 97000000 		.4byte	.LVL28-1
 4123 02a8 98000000 		.4byte	.LVL28
 4124 02ac 0400     		.2byte	0x4
 4125 02ae F3       		.byte	0xf3
 4126 02af 01       		.uleb128 0x1
 4127 02b0 50       		.byte	0x50
 4128 02b1 9F       		.byte	0x9f
 4129 02b2 98000000 		.4byte	.LVL28
 4130 02b6 BE000000 		.4byte	.LVL31
 4131 02ba 0100     		.2byte	0x1
 4132 02bc 55       		.byte	0x55
 4133 02bd BE000000 		.4byte	.LVL31
 4134 02c1 C1000000 		.4byte	.LVL32-1
 4135 02c5 0100     		.2byte	0x1
 4136 02c7 50       		.byte	0x50
 4137 02c8 C1000000 		.4byte	.LVL32-1
 4138 02cc C2000000 		.4byte	.LVL32
 4139 02d0 0400     		.2byte	0x4
 4140 02d2 F3       		.byte	0xf3
 4141 02d3 01       		.uleb128 0x1
 4142 02d4 50       		.byte	0x50
 4143 02d5 9F       		.byte	0x9f
 4144 02d6 C2000000 		.4byte	.LVL32
 4145 02da D8000000 		.4byte	.LFE220
 4146 02de 0100     		.2byte	0x1
 4147 02e0 55       		.byte	0x55
 4148 02e1 00000000 		.4byte	0
 4149 02e5 00000000 		.4byte	0
 4150              	.LLST4:
ARM GAS  C:\Users\Moi\AppData\Local\Temp\ccEMjYGE.s 			page 74


 4151 02e9 2A000000 		.4byte	.LVL20
 4152 02ed 94000000 		.4byte	.LVL27
 4153 02f1 0100     		.2byte	0x1
 4154 02f3 54       		.byte	0x54
 4155 02f4 A4000000 		.4byte	.LVL30
 4156 02f8 BE000000 		.4byte	.LVL31
 4157 02fc 0100     		.2byte	0x1
 4158 02fe 54       		.byte	0x54
 4159 02ff C2000000 		.4byte	.LVL32
 4160 0303 D8000000 		.4byte	.LFE220
 4161 0307 0100     		.2byte	0x1
 4162 0309 54       		.byte	0x54
 4163 030a 00000000 		.4byte	0
 4164 030e 00000000 		.4byte	0
 4165              	.LLST5:
 4166 0312 0A000000 		.4byte	.LVL16
 4167 0316 12000000 		.4byte	.LVL17
 4168 031a 0300     		.2byte	0x3
 4169 031c 08       		.byte	0x8
 4170 031d 20       		.byte	0x20
 4171 031e 9F       		.byte	0x9f
 4172 031f 00000000 		.4byte	0
 4173 0323 00000000 		.4byte	0
 4174              	.LLST6:
 4175 0327 44000000 		.4byte	.LVL23
 4176 032b 4A000000 		.4byte	.LVL24
 4177 032f 0200     		.2byte	0x2
 4178 0331 30       		.byte	0x30
 4179 0332 9F       		.byte	0x9f
 4180 0333 00000000 		.4byte	0
 4181 0337 00000000 		.4byte	0
 4182              	.LLST0:
 4183 033b 00000000 		.4byte	.LVL0
 4184 033f 15000000 		.4byte	.LVL3-1
 4185 0343 0100     		.2byte	0x1
 4186 0345 50       		.byte	0x50
 4187 0346 15000000 		.4byte	.LVL3-1
 4188 034a 52000000 		.4byte	.LVL9
 4189 034e 0100     		.2byte	0x1
 4190 0350 54       		.byte	0x54
 4191 0351 52000000 		.4byte	.LVL9
 4192 0355 56000000 		.4byte	.LVL10
 4193 0359 0100     		.2byte	0x1
 4194 035b 50       		.byte	0x50
 4195 035c 56000000 		.4byte	.LVL10
 4196 0360 6A000000 		.4byte	.LVL13
 4197 0364 0100     		.2byte	0x1
 4198 0366 54       		.byte	0x54
 4199 0367 6A000000 		.4byte	.LVL13
 4200 036b 6D000000 		.4byte	.LVL14-1
 4201 036f 0100     		.2byte	0x1
 4202 0371 50       		.byte	0x50
 4203 0372 6D000000 		.4byte	.LVL14-1
 4204 0376 80000000 		.4byte	.LFE219
 4205 037a 0100     		.2byte	0x1
 4206 037c 54       		.byte	0x54
 4207 037d 00000000 		.4byte	0
ARM GAS  C:\Users\Moi\AppData\Local\Temp\ccEMjYGE.s 			page 75


 4208 0381 00000000 		.4byte	0
 4209              	.LLST1:
 4210 0385 0A000000 		.4byte	.LVL1
 4211 0389 12000000 		.4byte	.LVL2
 4212 038d 0300     		.2byte	0x3
 4213 038f 08       		.byte	0x8
 4214 0390 20       		.byte	0x20
 4215 0391 9F       		.byte	0x9f
 4216 0392 00000000 		.4byte	0
 4217 0396 00000000 		.4byte	0
 4218              	.LLST2:
 4219 039a 42000000 		.4byte	.LVL7
 4220 039e 48000000 		.4byte	.LVL8
 4221 03a2 0200     		.2byte	0x2
 4222 03a4 30       		.byte	0x30
 4223 03a5 9F       		.byte	0x9f
 4224 03a6 00000000 		.4byte	0
 4225 03aa 00000000 		.4byte	0
 4226              		.section	.debug_aranges,"",%progbits
 4227 0000 34000000 		.4byte	0x34
 4228 0004 0200     		.2byte	0x2
 4229 0006 00000000 		.4byte	.Ldebug_info0
 4230 000a 04       		.byte	0x4
 4231 000b 00       		.byte	0
 4232 000c 0000     		.2byte	0
 4233 000e 0000     		.2byte	0
 4234 0010 00000000 		.4byte	.LFB219
 4235 0014 80000000 		.4byte	.LFE219-.LFB219
 4236 0018 00000000 		.4byte	.LFB220
 4237 001c D8000000 		.4byte	.LFE220-.LFB220
 4238 0020 00000000 		.4byte	.LFB221
 4239 0024 A8000000 		.4byte	.LFE221-.LFB221
 4240 0028 00000000 		.4byte	.LFB222
 4241 002c BC000000 		.4byte	.LFE222-.LFB222
 4242 0030 00000000 		.4byte	0
 4243 0034 00000000 		.4byte	0
 4244              		.section	.debug_ranges,"",%progbits
 4245              	.Ldebug_ranges0:
 4246 0000 28000000 		.4byte	.LBB49
 4247 0004 48000000 		.4byte	.LBE49
 4248 0008 56000000 		.4byte	.LBB55
 4249 000c 5E000000 		.4byte	.LBE55
 4250 0010 00000000 		.4byte	0
 4251 0014 00000000 		.4byte	0
 4252 0018 2A000000 		.4byte	.LBB71
 4253 001c 4A000000 		.4byte	.LBE71
 4254 0020 60000000 		.4byte	.LBB77
 4255 0024 68000000 		.4byte	.LBE77
 4256 0028 00000000 		.4byte	0
 4257 002c 00000000 		.4byte	0
 4258 0030 60000000 		.4byte	.LBB93
 4259 0034 80000000 		.4byte	.LBE93
 4260 0038 90000000 		.4byte	.LBB99
 4261 003c 98000000 		.4byte	.LBE99
 4262 0040 00000000 		.4byte	0
 4263 0044 00000000 		.4byte	0
 4264 0048 68000000 		.4byte	.LBB115
ARM GAS  C:\Users\Moi\AppData\Local\Temp\ccEMjYGE.s 			page 76


 4265 004c 88000000 		.4byte	.LBE115
 4266 0050 98000000 		.4byte	.LBB121
 4267 0054 A0000000 		.4byte	.LBE121
 4268 0058 00000000 		.4byte	0
 4269 005c 00000000 		.4byte	0
 4270 0060 00000000 		.4byte	.LFB219
 4271 0064 80000000 		.4byte	.LFE219
 4272 0068 00000000 		.4byte	.LFB220
 4273 006c D8000000 		.4byte	.LFE220
 4274 0070 00000000 		.4byte	.LFB221
 4275 0074 A8000000 		.4byte	.LFE221
 4276 0078 00000000 		.4byte	.LFB222
 4277 007c BC000000 		.4byte	.LFE222
 4278 0080 00000000 		.4byte	0
 4279 0084 00000000 		.4byte	0
 4280              		.section	.debug_line,"",%progbits
 4281              	.Ldebug_line0:
 4282 0000 F7040000 		.section	.debug_str,"MS",%progbits,1
 4282      02008D03 
 4282      00000201 
 4282      FB0E0D00 
 4282      01010101 
 4283              	.LASF136:
 4284 0000 7466756E 		.ascii	"tfunc_t\000"
 4284      635F7400 
 4285              	.LASF61:
 4286 0008 72656164 		.ascii	"ready_list_t\000"
 4286      795F6C69 
 4286      73745F74 
 4286      00
 4287              	.LASF99:
 4288 0015 73655F74 		.ascii	"se_time\000"
 4288      696D6500 
 4289              	.LASF4:
 4290 001d 73697A65 		.ascii	"size_t\000"
 4290      5F7400
 4291              	.LASF164:
 4292 0024 6E657874 		.ascii	"next\000"
 4292      00
 4293              	.LASF120:
 4294 0029 7264796D 		.ascii	"rdymsg\000"
 4294      736700
 4295              	.LASF20:
 4296 0030 75696E74 		.ascii	"uint64_t\000"
 4296      36345F74 
 4296      00
 4297              	.LASF91:
 4298 0039 6B65726E 		.ascii	"kernel_stats\000"
 4298      656C5F73 
 4298      74617473 
 4298      00
 4299              	.LASF168:
 4300 0046 706F6F6C 		.ascii	"pool_header\000"
 4300      5F686561 
 4300      64657200 
 4301              	.LASF5:
 4302 0052 5F5F7569 		.ascii	"__uint8_t\000"
ARM GAS  C:\Users\Moi\AppData\Local\Temp\ccEMjYGE.s 			page 77


 4302      6E74385F 
 4302      7400
 4303              	.LASF98:
 4304 005c 706F7274 		.ascii	"port_intctx\000"
 4304      5F696E74 
 4304      63747800 
 4305              	.LASF60:
 4306 0068 63685F74 		.ascii	"ch_threads_queue\000"
 4306      68726561 
 4306      64735F71 
 4306      75657565 
 4306      00
 4307              	.LASF80:
 4308 0079 73797374 		.ascii	"system_debug_t\000"
 4308      656D5F64 
 4308      65627567 
 4308      5F7400
 4309              	.LASF183:
 4310 0088 706F7274 		.ascii	"port_lock\000"
 4310      5F6C6F63 
 4310      6B00
 4311              	.LASF200:
 4312 0092 433A5C55 		.ascii	"C:\\Users\\Moi\\Documents\\_microinfo\\_projet\\hug"
 4312      73657273 
 4312      5C4D6F69 
 4312      5C446F63 
 4312      756D656E 
 4313 00bf 756900   		.ascii	"ui\000"
 4314              	.LASF111:
 4315 00c2 776F7273 		.ascii	"worst\000"
 4315      7400
 4316              	.LASF114:
 4317 00c8 74696D65 		.ascii	"time_measurement_t\000"
 4317      5F6D6561 
 4317      73757265 
 4317      6D656E74 
 4317      5F7400
 4318              	.LASF15:
 4319 00db 6C6F6E67 		.ascii	"long long unsigned int\000"
 4319      206C6F6E 
 4319      6720756E 
 4319      7369676E 
 4319      65642069 
 4320              	.LASF107:
 4321 00f2 63685F74 		.ascii	"ch_trace_buffer_t\000"
 4321      72616365 
 4321      5F627566 
 4321      6665725F 
 4321      7400
 4322              	.LASF198:
 4323 0104 474E5520 		.ascii	"GNU C11 7.2.1 20170904 (release) [ARM/embedded-7-br"
 4323      43313120 
 4323      372E322E 
 4323      31203230 
 4323      31373039 
 4324 0137 616E6368 		.ascii	"anch revision 255204] -mcpu=cortex-m4 -mfloat-abi=h"
 4324      20726576 
ARM GAS  C:\Users\Moi\AppData\Local\Temp\ccEMjYGE.s 			page 78


 4324      6973696F 
 4324      6E203235 
 4324      35323034 
 4325 016a 61726420 		.ascii	"ard -mfpu=fpv4-sp-d16 -mno-thumb-interwork -mthumb "
 4325      2D6D6670 
 4325      753D6670 
 4325      76342D73 
 4325      702D6431 
 4326 019d 2D676764 		.ascii	"-ggdb -O2 -fomit-frame-pointer -falign-functions=16"
 4326      62202D4F 
 4326      32202D66 
 4326      6F6D6974 
 4326      2D667261 
 4327 01d0 202D6673 		.ascii	" -fstack-protector-all -ffunction-sections -fdata-s"
 4327      7461636B 
 4327      2D70726F 
 4327      74656374 
 4327      6F722D61 
 4328 0203 65637469 		.ascii	"ections -fno-common -fsingle-precision-constant\000"
 4328      6F6E7320 
 4328      2D666E6F 
 4328      2D636F6D 
 4328      6D6F6E20 
 4329              	.LASF143:
 4330 0233 63685F74 		.ascii	"ch_threadsize\000"
 4330      68726561 
 4330      6473697A 
 4330      6500
 4331              	.LASF121:
 4332 0241 65786974 		.ascii	"exitcode\000"
 4332      636F6465 
 4332      00
 4333              	.LASF162:
 4334 024a 685F6672 		.ascii	"h_free\000"
 4334      656500
 4335              	.LASF186:
 4336 0251 5F737461 		.ascii	"_stats_start_measure_crit_thd\000"
 4336      74735F73 
 4336      74617274 
 4336      5F6D6561 
 4336      73757265 
 4337              	.LASF77:
 4338 026f 76697274 		.ascii	"virtual_timers_list_t\000"
 4338      75616C5F 
 4338      74696D65 
 4338      72735F6C 
 4338      6973745F 
 4339              	.LASF93:
 4340 0285 49544D5F 		.ascii	"ITM_RxBuffer\000"
 4340      52784275 
 4340      66666572 
 4340      00
 4341              	.LASF177:
 4342 0292 68656170 		.ascii	"heapp\000"
 4342      7000
 4343              	.LASF166:
 4344 0298 616C6967 		.ascii	"align\000"
ARM GAS  C:\Users\Moi\AppData\Local\Temp\ccEMjYGE.s 			page 79


 4344      6E00
 4345              	.LASF22:
 4346 029e 72747469 		.ascii	"rttime_t\000"
 4346      6D655F74 
 4346      00
 4347              	.LASF36:
 4348 02a7 705F7072 		.ascii	"p_prio\000"
 4348      696F00
 4349              	.LASF150:
 4350 02ae 63665F6F 		.ascii	"cf_off_state\000"
 4350      66665F73 
 4350      74617465 
 4350      00
 4351              	.LASF1:
 4352 02bb 6C6F6E67 		.ascii	"long long int\000"
 4352      206C6F6E 
 4352      6720696E 
 4352      7400
 4353              	.LASF3:
 4354 02c9 7369676E 		.ascii	"signed char\000"
 4354      65642063 
 4354      68617200 
 4355              	.LASF163:
 4356 02d5 685F6D74 		.ascii	"h_mtx\000"
 4356      7800
 4357              	.LASF149:
 4358 02db 63665F6F 		.ascii	"cf_off_stklimit\000"
 4358      66665F73 
 4358      746B6C69 
 4358      6D697400 
 4359              	.LASF151:
 4360 02eb 63665F6F 		.ascii	"cf_off_flags\000"
 4360      66665F66 
 4360      6C616773 
 4360      00
 4361              	.LASF53:
 4362 02f8 705F6D70 		.ascii	"p_mpool\000"
 4362      6F6F6C00 
 4363              	.LASF131:
 4364 0300 6D5F7175 		.ascii	"m_queue\000"
 4364      65756500 
 4365              	.LASF197:
 4366 0308 63684865 		.ascii	"chHeapFree\000"
 4366      61704672 
 4366      656500
 4367              	.LASF89:
 4368 0313 76746C69 		.ascii	"vtlist\000"
 4368      737400
 4369              	.LASF182:
 4370 031a 706F7274 		.ascii	"port_unlock\000"
 4370      5F756E6C 
 4370      6F636B00 
 4371              	.LASF26:
 4372 0326 74736C69 		.ascii	"tslices_t\000"
 4372      6365735F 
 4372      7400
 4373              	.LASF193:
ARM GAS  C:\Users\Moi\AppData\Local\Temp\ccEMjYGE.s 			page 80


 4374 0330 63685468 		.ascii	"chThdCreateI\000"
 4374      64437265 
 4374      61746549 
 4374      00
 4375              	.LASF123:
 4376 033d 77747472 		.ascii	"wttrp\000"
 4376      7000
 4377              	.LASF87:
 4378 0343 63685F73 		.ascii	"ch_system\000"
 4378      79737465 
 4378      6D00
 4379              	.LASF11:
 4380 034d 6C6F6E67 		.ascii	"long int\000"
 4380      20696E74 
 4380      00
 4381              	.LASF176:
 4382 0356 63685468 		.ascii	"chThdCreateFromHeap\000"
 4382      64437265 
 4382      61746546 
 4382      726F6D48 
 4382      65617000 
 4383              	.LASF24:
 4384 036a 74737461 		.ascii	"tstate_t\000"
 4384      74655F74 
 4384      00
 4385              	.LASF159:
 4386 0373 6D656D6F 		.ascii	"memory_heap_t\000"
 4386      72795F68 
 4386      6561705F 
 4386      7400
 4387              	.LASF100:
 4388 0381 73655F74 		.ascii	"se_tp\000"
 4388      7000
 4389              	.LASF155:
 4390 0387 63686465 		.ascii	"chdebug_t\000"
 4390      6275675F 
 4390      7400
 4391              	.LASF38:
 4392 0391 705F6E65 		.ascii	"p_newer\000"
 4392      77657200 
 4393              	.LASF128:
 4394 0399 735F7175 		.ascii	"s_queue\000"
 4394      65756500 
 4395              	.LASF175:
 4396 03a1 63685468 		.ascii	"chThdCreateFromMemoryPool\000"
 4396      64437265 
 4396      61746546 
 4396      726F6D4D 
 4396      656D6F72 
 4397              	.LASF104:
 4398 03bb 74625F73 		.ascii	"tb_size\000"
 4398      697A6500 
 4399              	.LASF66:
 4400 03c3 725F6E65 		.ascii	"r_newer\000"
 4400      77657200 
 4401              	.LASF172:
 4402 03cb 6D705F70 		.ascii	"mp_provider\000"
ARM GAS  C:\Users\Moi\AppData\Local\Temp\ccEMjYGE.s 			page 81


 4402      726F7669 
 4402      64657200 
 4403              	.LASF95:
 4404 03d7 72656761 		.ascii	"regarm_t\000"
 4404      726D5F74 
 4404      00
 4405              	.LASF73:
 4406 03e0 76745F70 		.ascii	"vt_prev\000"
 4406      72657600 
 4407              	.LASF190:
 4408 03e8 63685379 		.ascii	"chSysHalt\000"
 4408      7348616C 
 4408      7400
 4409              	.LASF81:
 4410 03f2 63685F73 		.ascii	"ch_system_debug\000"
 4410      79737465 
 4410      6D5F6465 
 4410      62756700 
 4411              	.LASF134:
 4412 0402 6D5F636E 		.ascii	"m_cnt\000"
 4412      7400
 4413              	.LASF157:
 4414 0408 6D757465 		.ascii	"mutex_t\000"
 4414      785F7400 
 4415              	.LASF203:
 4416 0410 76616C75 		.ascii	"value\000"
 4416      6500
 4417              	.LASF84:
 4418 0416 6C6F636B 		.ascii	"lock_cnt\000"
 4418      5F636E74 
 4418      00
 4419              	.LASF92:
 4420 041f 69646C65 		.ascii	"idle_thread_wa\000"
 4420      5F746872 
 4420      6561645F 
 4420      776100
 4421              	.LASF30:
 4422 042e 636E745F 		.ascii	"cnt_t\000"
 4422      7400
 4423              	.LASF41:
 4424 0434 705F7374 		.ascii	"p_stklimit\000"
 4424      6B6C696D 
 4424      697400
 4425              	.LASF0:
 4426 043f 756E7369 		.ascii	"unsigned int\000"
 4426      676E6564 
 4426      20696E74 
 4426      00
 4427              	.LASF72:
 4428 044c 76745F6E 		.ascii	"vt_next\000"
 4428      65787400 
 4429              	.LASF17:
 4430 0454 75696E74 		.ascii	"uint16_t\000"
 4430      31365F74 
 4430      00
 4431              	.LASF94:
 4432 045d 53797374 		.ascii	"SystemCoreClock\000"
ARM GAS  C:\Users\Moi\AppData\Local\Temp\ccEMjYGE.s 			page 82


 4432      656D436F 
 4432      7265436C 
 4432      6F636B00 
 4433              	.LASF46:
 4434 046d 705F7469 		.ascii	"p_time\000"
 4434      6D6500
 4435              	.LASF124:
 4436 0474 77747365 		.ascii	"wtsemp\000"
 4436      6D7000
 4437              	.LASF147:
 4438 047b 63665F6F 		.ascii	"cf_off_older\000"
 4438      66665F6F 
 4438      6C646572 
 4438      00
 4439              	.LASF74:
 4440 0488 76745F64 		.ascii	"vt_delta\000"
 4440      656C7461 
 4440      00
 4441              	.LASF48:
 4442 0491 705F6D73 		.ascii	"p_msgqueue\000"
 4442      67717565 
 4442      756500
 4443              	.LASF156:
 4444 049c 63685F64 		.ascii	"ch_debug\000"
 4444      65627567 
 4444      00
 4445              	.LASF173:
 4446 04a5 6D656D6F 		.ascii	"memory_pool_t\000"
 4446      72795F70 
 4446      6F6F6C5F 
 4446      7400
 4447              	.LASF115:
 4448 04b3 6E5F6972 		.ascii	"n_irq\000"
 4448      7100
 4449              	.LASF129:
 4450 04b9 735F636E 		.ascii	"s_cnt\000"
 4450      7400
 4451              	.LASF9:
 4452 04bf 73686F72 		.ascii	"short unsigned int\000"
 4452      7420756E 
 4452      7369676E 
 4452      65642069 
 4452      6E7400
 4453              	.LASF119:
 4454 04d2 6B65726E 		.ascii	"kernel_stats_t\000"
 4454      656C5F73 
 4454      74617473 
 4454      5F7400
 4455              	.LASF57:
 4456 04e1 63685F74 		.ascii	"ch_thread\000"
 4456      68726561 
 4456      6400
 4457              	.LASF194:
 4458 04eb 63685363 		.ascii	"chSchWakeupS\000"
 4458      6857616B 
 4458      65757053 
 4458      00
ARM GAS  C:\Users\Moi\AppData\Local\Temp\ccEMjYGE.s 			page 83


 4459              	.LASF90:
 4460 04f8 6D61696E 		.ascii	"mainthread\000"
 4460      74687265 
 4460      616400
 4461              	.LASF28:
 4462 0503 6D73675F 		.ascii	"msg_t\000"
 4462      7400
 4463              	.LASF112:
 4464 0509 6C617374 		.ascii	"last\000"
 4464      00
 4465              	.LASF31:
 4466 050e 75636E74 		.ascii	"ucnt_t\000"
 4466      5F7400
 4467              	.LASF86:
 4468 0515 63685F73 		.ascii	"ch_system_t\000"
 4468      79737465 
 4468      6D5F7400 
 4469              	.LASF154:
 4470 0521 63665F6F 		.ascii	"cf_off_time\000"
 4470      66665F74 
 4470      696D6500 
 4471              	.LASF118:
 4472 052d 6D5F6372 		.ascii	"m_crit_isr\000"
 4472      69745F69 
 4472      737200
 4473              	.LASF62:
 4474 0538 63685F72 		.ascii	"ch_ready_list\000"
 4474      65616479 
 4474      5F6C6973 
 4474      7400
 4475              	.LASF29:
 4476 0546 6576656E 		.ascii	"eventmask_t\000"
 4476      746D6173 
 4476      6B5F7400 
 4477              	.LASF10:
 4478 0552 5F5F696E 		.ascii	"__int32_t\000"
 4478      7433325F 
 4478      7400
 4479              	.LASF180:
 4480 055c 63685468 		.ascii	"chThdAddRef\000"
 4480      64416464 
 4480      52656600 
 4481              	.LASF96:
 4482 0568 73746B61 		.ascii	"stkalign_t\000"
 4482      6C69676E 
 4482      5F7400
 4483              	.LASF138:
 4484 0573 63685F7A 		.ascii	"ch_zero\000"
 4484      65726F00 
 4485              	.LASF152:
 4486 057b 63665F6F 		.ascii	"cf_off_refs\000"
 4486      66665F72 
 4486      65667300 
 4487              	.LASF47:
 4488 0587 705F7761 		.ascii	"p_waiting\000"
 4488      6974696E 
 4488      6700
ARM GAS  C:\Users\Moi\AppData\Local\Temp\ccEMjYGE.s 			page 84


 4489              	.LASF189:
 4490 0591 5F737461 		.ascii	"_stats_stop_measure_crit_thd\000"
 4490      74735F73 
 4490      746F705F 
 4490      6D656173 
 4490      7572655F 
 4491              	.LASF21:
 4492 05ae 7274636E 		.ascii	"rtcnt_t\000"
 4492      745F7400 
 4493              	.LASF187:
 4494 05b6 5F646267 		.ascii	"_dbg_check_lock\000"
 4494      5F636865 
 4494      636B5F6C 
 4494      6F636B00 
 4495              	.LASF78:
 4496 05c6 63685F76 		.ascii	"ch_virtual_timers_list\000"
 4496      69727475 
 4496      616C5F74 
 4496      696D6572 
 4496      735F6C69 
 4497              	.LASF2:
 4498 05dd 6C6F6E67 		.ascii	"long double\000"
 4498      20646F75 
 4498      626C6500 
 4499              	.LASF142:
 4500 05e9 63685F74 		.ascii	"ch_timesize\000"
 4500      696D6573 
 4500      697A6500 
 4501              	.LASF105:
 4502 05f5 74625F70 		.ascii	"tb_ptr\000"
 4502      747200
 4503              	.LASF103:
 4504 05fc 63685F73 		.ascii	"ch_swc_event_t\000"
 4504      77635F65 
 4504      76656E74 
 4504      5F7400
 4505              	.LASF148:
 4506 060b 63665F6F 		.ascii	"cf_off_name\000"
 4506      66665F6E 
 4506      616D6500 
 4507              	.LASF56:
 4508 0617 74687265 		.ascii	"threads_list_t\000"
 4508      6164735F 
 4508      6C697374 
 4508      5F7400
 4509              	.LASF39:
 4510 0626 705F6F6C 		.ascii	"p_older\000"
 4510      64657200 
 4511              	.LASF65:
 4512 062e 725F6374 		.ascii	"r_ctx\000"
 4512      7800
 4513              	.LASF37:
 4514 0634 705F6374 		.ascii	"p_ctx\000"
 4514      7800
 4515              	.LASF171:
 4516 063a 6D705F6F 		.ascii	"mp_object_size\000"
 4516      626A6563 
ARM GAS  C:\Users\Moi\AppData\Local\Temp\ccEMjYGE.s 			page 85


 4516      745F7369 
 4516      7A6500
 4517              	.LASF109:
 4518 0649 746D5F63 		.ascii	"tm_calibration_t\000"
 4518      616C6962 
 4518      72617469 
 4518      6F6E5F74 
 4518      00
 4519              	.LASF174:
 4520 065a 7072696F 		.ascii	"prio\000"
 4520      00
 4521              	.LASF67:
 4522 065f 725F6F6C 		.ascii	"r_older\000"
 4522      64657200 
 4523              	.LASF14:
 4524 0667 5F5F7569 		.ascii	"__uint64_t\000"
 4524      6E743634 
 4524      5F7400
 4525              	.LASF113:
 4526 0672 63756D75 		.ascii	"cumulative\000"
 4526      6C617469 
 4526      766500
 4527              	.LASF25:
 4528 067d 74726566 		.ascii	"trefs_t\000"
 4528      735F7400 
 4529              	.LASF106:
 4530 0685 74625F62 		.ascii	"tb_buffer\000"
 4530      75666665 
 4530      7200
 4531              	.LASF141:
 4532 068f 63685F70 		.ascii	"ch_ptrsize\000"
 4532      74727369 
 4532      7A6500
 4533              	.LASF178:
 4534 069a 72656673 		.ascii	"refs\000"
 4534      00
 4535              	.LASF70:
 4536 069f 76697274 		.ascii	"virtual_timer_t\000"
 4536      75616C5F 
 4536      74696D65 
 4536      725F7400 
 4537              	.LASF35:
 4538 06af 705F7072 		.ascii	"p_prev\000"
 4538      657600
 4539              	.LASF27:
 4540 06b6 74707269 		.ascii	"tprio_t\000"
 4540      6F5F7400 
 4541              	.LASF116:
 4542 06be 6E5F6374 		.ascii	"n_ctxswc\000"
 4542      78737763 
 4542      00
 4543              	.LASF18:
 4544 06c7 696E7433 		.ascii	"int32_t\000"
 4544      325F7400 
 4545              	.LASF6:
 4546 06cf 756E7369 		.ascii	"unsigned char\000"
 4546      676E6564 
ARM GAS  C:\Users\Moi\AppData\Local\Temp\ccEMjYGE.s 			page 86


 4546      20636861 
 4546      7200
 4547              	.LASF201:
 4548 06dd 68656170 		.ascii	"heap_header\000"
 4548      5F686561 
 4548      64657200 
 4549              	.LASF51:
 4550 06e9 705F6D74 		.ascii	"p_mtxlist\000"
 4550      786C6973 
 4550      7400
 4551              	.LASF7:
 4552 06f3 73686F72 		.ascii	"short int\000"
 4552      7420696E 
 4552      7400
 4553              	.LASF42:
 4554 06fd 705F7374 		.ascii	"p_state\000"
 4554      61746500 
 4555              	.LASF45:
 4556 0705 705F7072 		.ascii	"p_preempt\000"
 4556      65656D70 
 4556      7400
 4557              	.LASF64:
 4558 070f 725F7072 		.ascii	"r_prio\000"
 4558      696F00
 4559              	.LASF126:
 4560 0716 65776D61 		.ascii	"ewmask\000"
 4560      736B00
 4561              	.LASF34:
 4562 071d 705F6E65 		.ascii	"p_next\000"
 4562      787400
 4563              	.LASF23:
 4564 0724 746D6F64 		.ascii	"tmode_t\000"
 4564      655F7400 
 4565              	.LASF153:
 4566 072c 63665F6F 		.ascii	"cf_off_preempt\000"
 4566      66665F70 
 4566      7265656D 
 4566      707400
 4567              	.LASF43:
 4568 073b 705F666C 		.ascii	"p_flags\000"
 4568      61677300 
 4569              	.LASF179:
 4570 0743 5F5F6675 		.ascii	"__func__\000"
 4570      6E635F5F 
 4570      00
 4571              	.LASF54:
 4572 074c 705F7374 		.ascii	"p_stats\000"
 4572      61747300 
 4573              	.LASF181:
 4574 0754 63685379 		.ascii	"chSysLock\000"
 4574      734C6F63 
 4574      6B00
 4575              	.LASF192:
 4576 075e 5F746872 		.ascii	"_thread_memfill\000"
 4576      6561645F 
 4576      6D656D66 
 4576      696C6C00 
ARM GAS  C:\Users\Moi\AppData\Local\Temp\ccEMjYGE.s 			page 87


 4577              	.LASF199:
 4578 076e 2E2E2F2F 		.ascii	"..//ChibiOS//os/rt/src/chdynamic.c\000"
 4578      43686962 
 4578      694F532F 
 4578      2F6F732F 
 4578      72742F73 
 4579              	.LASF202:
 4580 0791 63685468 		.ascii	"chThdRelease\000"
 4580      6452656C 
 4580      65617365 
 4580      00
 4581              	.LASF59:
 4582 079e 74687265 		.ascii	"threads_queue_t\000"
 4582      6164735F 
 4582      71756575 
 4582      655F7400 
 4583              	.LASF195:
 4584 07ae 63684865 		.ascii	"chHeapAlloc\000"
 4584      6170416C 
 4584      6C6F6300 
 4585              	.LASF146:
 4586 07ba 63665F6F 		.ascii	"cf_off_newer\000"
 4586      66665F6E 
 4586      65776572 
 4586      00
 4587              	.LASF204:
 4588 07c7 5F5F7374 		.ascii	"__stack_chk_fail\000"
 4588      61636B5F 
 4588      63686B5F 
 4588      6661696C 
 4588      00
 4589              	.LASF127:
 4590 07d8 63685F73 		.ascii	"ch_semaphore\000"
 4590      656D6170 
 4590      686F7265 
 4590      00
 4591              	.LASF50:
 4592 07e5 705F6570 		.ascii	"p_epending\000"
 4592      656E6469 
 4592      6E6700
 4593              	.LASF19:
 4594 07f0 75696E74 		.ascii	"uint32_t\000"
 4594      33325F74 
 4594      00
 4595              	.LASF144:
 4596 07f9 63665F6F 		.ascii	"cf_off_prio\000"
 4596      66665F70 
 4596      72696F00 
 4597              	.LASF63:
 4598 0805 725F7175 		.ascii	"r_queue\000"
 4598      65756500 
 4599              	.LASF58:
 4600 080d 63685F74 		.ascii	"ch_threads_list\000"
 4600      68726561 
 4600      64735F6C 
 4600      69737400 
 4601              	.LASF139:
ARM GAS  C:\Users\Moi\AppData\Local\Temp\ccEMjYGE.s 			page 88


 4602 081d 63685F73 		.ascii	"ch_size\000"
 4602      697A6500 
 4603              	.LASF165:
 4604 0825 68656170 		.ascii	"heap\000"
 4604      00
 4605              	.LASF13:
 4606 082a 6C6F6E67 		.ascii	"long unsigned int\000"
 4606      20756E73 
 4606      69676E65 
 4606      6420696E 
 4606      7400
 4607              	.LASF68:
 4608 083c 725F6375 		.ascii	"r_current\000"
 4608      7272656E 
 4608      7400
 4609              	.LASF135:
 4610 0846 63686172 		.ascii	"char\000"
 4610      00
 4611              	.LASF125:
 4612 084b 77746D74 		.ascii	"wtmtxp\000"
 4612      787000
 4613              	.LASF49:
 4614 0852 705F6D73 		.ascii	"p_msg\000"
 4614      6700
 4615              	.LASF8:
 4616 0858 5F5F7569 		.ascii	"__uint16_t\000"
 4616      6E743136 
 4616      5F7400
 4617              	.LASF33:
 4618 0863 74687265 		.ascii	"thread_t\000"
 4618      61645F74 
 4618      00
 4619              	.LASF110:
 4620 086c 62657374 		.ascii	"best\000"
 4620      00
 4621              	.LASF133:
 4622 0871 6D5F6E65 		.ascii	"m_next\000"
 4622      787400
 4623              	.LASF32:
 4624 0878 73797374 		.ascii	"systime_t\000"
 4624      696D655F 
 4624      7400
 4625              	.LASF52:
 4626 0882 705F7265 		.ascii	"p_realprio\000"
 4626      616C7072 
 4626      696F00
 4627              	.LASF69:
 4628 088d 76746675 		.ascii	"vtfunc_t\000"
 4628      6E635F74 
 4628      00
 4629              	.LASF12:
 4630 0896 5F5F7569 		.ascii	"__uint32_t\000"
 4630      6E743332 
 4630      5F7400
 4631              	.LASF185:
 4632 08a1 5F5F7365 		.ascii	"__set_BASEPRI\000"
 4632      745F4241 
ARM GAS  C:\Users\Moi\AppData\Local\Temp\ccEMjYGE.s 			page 89


 4632      53455052 
 4632      4900
 4633              	.LASF82:
 4634 08af 70616E69 		.ascii	"panic_msg\000"
 4634      635F6D73 
 4634      6700
 4635              	.LASF108:
 4636 08b9 6F666673 		.ascii	"offset\000"
 4636      657400
 4637              	.LASF170:
 4638 08c0 6D705F6E 		.ascii	"mp_next\000"
 4638      65787400 
 4639              	.LASF97:
 4640 08c8 636F6E74 		.ascii	"context\000"
 4640      65787400 
 4641              	.LASF71:
 4642 08d0 63685F76 		.ascii	"ch_virtual_timer\000"
 4642      69727475 
 4642      616C5F74 
 4642      696D6572 
 4642      00
 4643              	.LASF158:
 4644 08e1 6D656D67 		.ascii	"memgetfunc_t\000"
 4644      65746675 
 4644      6E635F74 
 4644      00
 4645              	.LASF76:
 4646 08ee 76745F70 		.ascii	"vt_par\000"
 4646      617200
 4647              	.LASF145:
 4648 08f5 63665F6F 		.ascii	"cf_off_ctx\000"
 4648      66665F63 
 4648      747800
 4649              	.LASF130:
 4650 0900 63685F6D 		.ascii	"ch_mutex\000"
 4650      75746578 
 4650      00
 4651              	.LASF44:
 4652 0909 705F7265 		.ascii	"p_refs\000"
 4652      667300
 4653              	.LASF83:
 4654 0910 6973725F 		.ascii	"isr_cnt\000"
 4654      636E7400 
 4655              	.LASF102:
 4656 0918 73655F73 		.ascii	"se_state\000"
 4656      74617465 
 4656      00
 4657              	.LASF88:
 4658 0921 726C6973 		.ascii	"rlist\000"
 4658      7400
 4659              	.LASF16:
 4660 0927 75696E74 		.ascii	"uint8_t\000"
 4660      385F7400 
 4661              	.LASF191:
 4662 092f 6368506F 		.ascii	"chPoolAlloc\000"
 4662      6F6C416C 
 4662      6C6F6300 
ARM GAS  C:\Users\Moi\AppData\Local\Temp\ccEMjYGE.s 			page 90


 4663              	.LASF196:
 4664 093b 6368506F 		.ascii	"chPoolFree\000"
 4664      6F6C4672 
 4664      656500
 4665              	.LASF161:
 4666 0946 685F7072 		.ascii	"h_provider\000"
 4666      6F766964 
 4666      657200
 4667              	.LASF188:
 4668 0951 5F646267 		.ascii	"_dbg_check_unlock\000"
 4668      5F636865 
 4668      636B5F75 
 4668      6E6C6F63 
 4668      6B00
 4669              	.LASF55:
 4670 0963 74687265 		.ascii	"thread_reference_t\000"
 4670      61645F72 
 4670      65666572 
 4670      656E6365 
 4670      5F7400
 4671              	.LASF122:
 4672 0976 77746F62 		.ascii	"wtobjp\000"
 4672      6A7000
 4673              	.LASF169:
 4674 097d 70685F6E 		.ascii	"ph_next\000"
 4674      65787400 
 4675              	.LASF40:
 4676 0985 705F6E61 		.ascii	"p_name\000"
 4676      6D6500
 4677              	.LASF167:
 4678 098c 73697A65 		.ascii	"size\000"
 4678      00
 4679              	.LASF79:
 4680 0991 76745F73 		.ascii	"vt_systime\000"
 4680      79737469 
 4680      6D6500
 4681              	.LASF85:
 4682 099c 74726163 		.ascii	"trace_buffer\000"
 4682      655F6275 
 4682      66666572 
 4682      00
 4683              	.LASF184:
 4684 09a9 63685379 		.ascii	"chSysUnlock\000"
 4684      73556E6C 
 4684      6F636B00 
 4685              	.LASF140:
 4686 09b5 63685F76 		.ascii	"ch_version\000"
 4686      65727369 
 4686      6F6E00
 4687              	.LASF117:
 4688 09c0 6D5F6372 		.ascii	"m_crit_thd\000"
 4688      69745F74 
 4688      686400
 4689              	.LASF132:
 4690 09cb 6D5F6F77 		.ascii	"m_owner\000"
 4690      6E657200 
 4691              	.LASF101:
ARM GAS  C:\Users\Moi\AppData\Local\Temp\ccEMjYGE.s 			page 91


 4692 09d3 73655F77 		.ascii	"se_wtobjp\000"
 4692      746F626A 
 4692      7000
 4693              	.LASF137:
 4694 09dd 63685F69 		.ascii	"ch_identifier\000"
 4694      64656E74 
 4694      69666965 
 4694      7200
 4695              	.LASF75:
 4696 09eb 76745F66 		.ascii	"vt_func\000"
 4696      756E6300 
 4697              	.LASF160:
 4698 09f3 6D656D6F 		.ascii	"memory_heap\000"
 4698      72795F68 
 4698      65617000 
 4699              		.ident	"GCC: (GNU Tools for Arm Embedded Processors 7-2017-q4-major) 7.2.1 20170904 (release) [ARM
ARM GAS  C:\Users\Moi\AppData\Local\Temp\ccEMjYGE.s 			page 92


DEFINED SYMBOLS
                            *ABS*:00000000 chdynamic.c
C:\Users\Moi\AppData\Local\Temp\ccEMjYGE.s:18     .text.chThdAddRef:00000000 $t
C:\Users\Moi\AppData\Local\Temp\ccEMjYGE.s:26     .text.chThdAddRef:00000000 chThdAddRef
C:\Users\Moi\AppData\Local\Temp\ccEMjYGE.s:158    .text.chThdAddRef:00000070 $d
C:\Users\Moi\AppData\Local\Temp\ccEMjYGE.s:166    .text.chThdRelease:00000000 $t
C:\Users\Moi\AppData\Local\Temp\ccEMjYGE.s:174    .text.chThdRelease:00000000 chThdRelease
C:\Users\Moi\AppData\Local\Temp\ccEMjYGE.s:387    .text.chThdRelease:000000c8 $d
C:\Users\Moi\AppData\Local\Temp\ccEMjYGE.s:395    .text.chThdCreateFromHeap:00000000 $t
C:\Users\Moi\AppData\Local\Temp\ccEMjYGE.s:403    .text.chThdCreateFromHeap:00000000 chThdCreateFromHeap
C:\Users\Moi\AppData\Local\Temp\ccEMjYGE.s:561    .text.chThdCreateFromHeap:0000009c $d
C:\Users\Moi\AppData\Local\Temp\ccEMjYGE.s:568    .text.chThdCreateFromMemoryPool:00000000 $t
C:\Users\Moi\AppData\Local\Temp\ccEMjYGE.s:576    .text.chThdCreateFromMemoryPool:00000000 chThdCreateFromMemoryPool
C:\Users\Moi\AppData\Local\Temp\ccEMjYGE.s:750    .text.chThdCreateFromMemoryPool:000000ac $d
C:\Users\Moi\AppData\Local\Temp\ccEMjYGE.s:758    .rodata.__func__.7153:00000000 $d
C:\Users\Moi\AppData\Local\Temp\ccEMjYGE.s:762    .rodata.__func__.7153:00000000 __func__.7153
C:\Users\Moi\AppData\Local\Temp\ccEMjYGE.s:765    .rodata.__func__.7849:00000000 $d
C:\Users\Moi\AppData\Local\Temp\ccEMjYGE.s:769    .rodata.__func__.7849:00000000 __func__.7849
C:\Users\Moi\AppData\Local\Temp\ccEMjYGE.s:772    .rodata.__func__.7854:00000000 $d
C:\Users\Moi\AppData\Local\Temp\ccEMjYGE.s:776    .rodata.__func__.7854:00000000 __func__.7854
C:\Users\Moi\AppData\Local\Temp\ccEMjYGE.s:779    .rodata.__func__.7876:00000000 $d
C:\Users\Moi\AppData\Local\Temp\ccEMjYGE.s:783    .rodata.__func__.7876:00000000 __func__.7876

UNDEFINED SYMBOLS
_stats_start_measure_crit_thd
_dbg_check_lock
_dbg_check_unlock
_stats_stop_measure_crit_thd
chSysHalt
__stack_chk_fail
__stack_chk_guard
ch
chPoolFree
chHeapFree
chHeapAlloc
_thread_memfill
chThdCreateI
chSchWakeupS
chPoolAlloc
