ARM GAS  C:\Users\Moi\AppData\Local\Temp\ccVXZmWx.s 			page 1


   1              		.cpu cortex-m4
   2              		.eabi_attribute 27, 1
   3              		.eabi_attribute 28, 1
   4              		.eabi_attribute 20, 1
   5              		.eabi_attribute 21, 1
   6              		.eabi_attribute 23, 3
   7              		.eabi_attribute 24, 1
   8              		.eabi_attribute 25, 1
   9              		.eabi_attribute 26, 1
  10              		.eabi_attribute 30, 2
  11              		.eabi_attribute 34, 1
  12              		.eabi_attribute 18, 4
  13              		.file	"chmempools.c"
  14              		.text
  15              	.Ltext0:
  16              		.cfi_sections	.debug_frame
  17              		.section	.text.chPoolObjectInit,"ax",%progbits
  18              		.align	1
  19              		.p2align 4,,15
  20              		.global	chPoolObjectInit
  21              		.syntax unified
  22              		.thumb
  23              		.thumb_func
  24              		.fpu fpv4-sp-d16
  25              		.type	chPoolObjectInit, %function
  26              	chPoolObjectInit:
  27              	.LFB219:
  28              		.file 1 "..//ChibiOS//os/rt/src/chmempools.c"
  29              		.loc 1 75 0
  30              		.cfi_startproc
  31              		@ args = 0, pretend = 0, frame = 8
  32              		@ frame_needed = 0, uses_anonymous_args = 0
  33              	.LVL0:
  34 0000 F0B5     		push	{r4, r5, r6, r7, lr}
  35              		.cfi_def_cfa_offset 20
  36              		.cfi_offset 4, -20
  37              		.cfi_offset 5, -16
  38              		.cfi_offset 6, -12
  39              		.cfi_offset 7, -8
  40              		.cfi_offset 14, -4
  41 0002 0C4D     		ldr	r5, .L11
  42 0004 83B0     		sub	sp, sp, #12
  43              		.cfi_def_cfa_offset 32
  44              		.loc 1 75 0
  45 0006 2B68     		ldr	r3, [r5]
  46 0008 0193     		str	r3, [sp, #4]
  47 000a 0E46     		mov	r6, r1
  48 000c 1746     		mov	r7, r2
  49              		.loc 1 77 0
  50 000e 0446     		mov	r4, r0
  51 0010 08B1     		cbz	r0, .L2
  52              		.loc 1 77 0 is_stmt 0 discriminator 3
  53 0012 0329     		cmp	r1, #3
  54 0014 02D8     		bhi	.L3
  55              	.L2:
  56              		.loc 1 77 0 discriminator 4
  57 0016 0848     		ldr	r0, .L11+4
ARM GAS  C:\Users\Moi\AppData\Local\Temp\ccVXZmWx.s 			page 2


  58              	.LVL1:
  59 0018 FFF7FEFF 		bl	chSysHalt
  60              	.LVL2:
  61              	.L3:
  62              		.loc 1 82 0 is_stmt 1
  63 001c 0199     		ldr	r1, [sp, #4]
  64 001e 2B68     		ldr	r3, [r5]
  65              		.loc 1 80 0
  66 0020 6660     		str	r6, [r4, #4]
  67              		.loc 1 79 0
  68 0022 0020     		movs	r0, #0
  69              		.loc 1 82 0
  70 0024 9942     		cmp	r1, r3
  71              		.loc 1 81 0
  72 0026 A760     		str	r7, [r4, #8]
  73              		.loc 1 79 0
  74 0028 2060     		str	r0, [r4]
  75              		.loc 1 82 0
  76 002a 01D1     		bne	.L10
  77 002c 03B0     		add	sp, sp, #12
  78              		.cfi_remember_state
  79              		.cfi_def_cfa_offset 20
  80              		@ sp needed
  81 002e F0BD     		pop	{r4, r5, r6, r7, pc}
  82              	.LVL3:
  83              	.L10:
  84              		.cfi_restore_state
  85 0030 FFF7FEFF 		bl	__stack_chk_fail
  86              	.LVL4:
  87              	.L12:
  88              		.align	2
  89              	.L11:
  90 0034 00000000 		.word	__stack_chk_guard
  91 0038 00000000 		.word	.LANCHOR0
  92              		.cfi_endproc
  93              	.LFE219:
  94              		.size	chPoolObjectInit, .-chPoolObjectInit
  95              		.section	.text.chPoolAllocI,"ax",%progbits
  96              		.align	1
  97              		.p2align 4,,15
  98              		.global	chPoolAllocI
  99              		.syntax unified
 100              		.thumb
 101              		.thumb_func
 102              		.fpu fpv4-sp-d16
 103              		.type	chPoolAllocI, %function
 104              	chPoolAllocI:
 105              	.LFB221:
 106              		.loc 1 120 0
 107              		.cfi_startproc
 108              		@ args = 0, pretend = 0, frame = 8
 109              		@ frame_needed = 0, uses_anonymous_args = 0
 110              	.LVL5:
 111 0000 30B5     		push	{r4, r5, lr}
 112              		.cfi_def_cfa_offset 12
 113              		.cfi_offset 4, -12
 114              		.cfi_offset 5, -8
ARM GAS  C:\Users\Moi\AppData\Local\Temp\ccVXZmWx.s 			page 3


 115              		.cfi_offset 14, -4
 116 0002 124D     		ldr	r5, .L25
 117 0004 83B0     		sub	sp, sp, #12
 118              		.cfi_def_cfa_offset 24
 119              		.loc 1 120 0
 120 0006 0446     		mov	r4, r0
 121 0008 2B68     		ldr	r3, [r5]
 122 000a 0193     		str	r3, [sp, #4]
 123              		.loc 1 123 0
 124 000c FFF7FEFF 		bl	chDbgCheckClassI
 125              	.LVL6:
 126              		.loc 1 124 0
 127 0010 ACB1     		cbz	r4, .L24
 128              	.L14:
 129              		.loc 1 126 0
 130 0012 2068     		ldr	r0, [r4]
 131              	.LVL7:
 132              		.loc 1 128 0
 133 0014 38B1     		cbz	r0, .L15
 134              		.loc 1 129 0
 135 0016 0368     		ldr	r3, [r0]
 136 0018 2360     		str	r3, [r4]
 137              	.L13:
 138              		.loc 1 137 0
 139 001a 019A     		ldr	r2, [sp, #4]
 140 001c 2B68     		ldr	r3, [r5]
 141 001e 9A42     		cmp	r2, r3
 142 0020 11D1     		bne	.L23
 143 0022 03B0     		add	sp, sp, #12
 144              		.cfi_remember_state
 145              		.cfi_def_cfa_offset 12
 146              		@ sp needed
 147 0024 30BD     		pop	{r4, r5, pc}
 148              	.LVL8:
 149              	.L15:
 150              		.cfi_restore_state
 151              	.LBB28:
 152              	.LBB29:
 153              		.loc 1 131 0
 154 0026 A368     		ldr	r3, [r4, #8]
 155 0028 002B     		cmp	r3, #0
 156 002a F6D0     		beq	.L13
 157              		.loc 1 132 0
 158 002c 0199     		ldr	r1, [sp, #4]
 159 002e 2A68     		ldr	r2, [r5]
 160 0030 9142     		cmp	r1, r2
 161 0032 08D1     		bne	.L23
 162 0034 6068     		ldr	r0, [r4, #4]
 163              	.LVL9:
 164              	.LBE29:
 165              	.LBE28:
 166              		.loc 1 137 0
 167 0036 03B0     		add	sp, sp, #12
 168              		.cfi_remember_state
 169              		.cfi_def_cfa_offset 12
 170              		@ sp needed
 171 0038 BDE83040 		pop	{r4, r5, lr}
ARM GAS  C:\Users\Moi\AppData\Local\Temp\ccVXZmWx.s 			page 4


 172              		.cfi_restore 14
 173              		.cfi_restore 5
 174              		.cfi_restore 4
 175              		.cfi_def_cfa_offset 0
 176              	.LVL10:
 177              	.LBB31:
 178              	.LBB30:
 179              		.loc 1 132 0
 180 003c 1847     		bx	r3
 181              	.LVL11:
 182              	.L24:
 183              		.cfi_restore_state
 184              	.LBE30:
 185              	.LBE31:
 186              		.loc 1 124 0 discriminator 2
 187 003e 0448     		ldr	r0, .L25+4
 188 0040 FFF7FEFF 		bl	chSysHalt
 189              	.LVL12:
 190 0044 E5E7     		b	.L14
 191              	.LVL13:
 192              	.L23:
 193              		.loc 1 137 0
 194 0046 FFF7FEFF 		bl	__stack_chk_fail
 195              	.LVL14:
 196              	.L26:
 197 004a 00BF     		.align	2
 198              	.L25:
 199 004c 00000000 		.word	__stack_chk_guard
 200 0050 00000000 		.word	.LANCHOR1
 201              		.cfi_endproc
 202              	.LFE221:
 203              		.size	chPoolAllocI, .-chPoolAllocI
 204              		.section	.text.chPoolAlloc,"ax",%progbits
 205              		.align	1
 206              		.p2align 4,,15
 207              		.global	chPoolAlloc
 208              		.syntax unified
 209              		.thumb
 210              		.thumb_func
 211              		.fpu fpv4-sp-d16
 212              		.type	chPoolAlloc, %function
 213              	chPoolAlloc:
 214              	.LFB222:
 215              		.loc 1 149 0
 216              		.cfi_startproc
 217              		@ args = 0, pretend = 0, frame = 8
 218              		@ frame_needed = 0, uses_anonymous_args = 0
 219              	.LVL15:
 220 0000 30B5     		push	{r4, r5, lr}
 221              		.cfi_def_cfa_offset 12
 222              		.cfi_offset 4, -12
 223              		.cfi_offset 5, -8
 224              		.cfi_offset 14, -4
 225 0002 164C     		ldr	r4, .L33
 226 0004 83B0     		sub	sp, sp, #12
 227              		.cfi_def_cfa_offset 24
 228              		.loc 1 149 0
ARM GAS  C:\Users\Moi\AppData\Local\Temp\ccVXZmWx.s 			page 5


 229 0006 2368     		ldr	r3, [r4]
 230 0008 0193     		str	r3, [sp, #4]
 231              	.LVL16:
 232 000a 0546     		mov	r5, r0
 233              	.LBB42:
 234              	.LBB43:
 235              	.LBB44:
 236              	.LBB45:
 237              	.LBB46:
 238              		.file 2 "..//ChibiOS//os/ext/CMSIS/include/core_cmFunc.h"
 239              		.loc 2 546 0
 240 000c 2023     		movs	r3, #32
 241              		.syntax unified
 242              	@ 546 "..//ChibiOS//os/ext/CMSIS/include/core_cmFunc.h" 1
 243 000e 83F31188 		MSR basepri, r3
 244              	@ 0 "" 2
 245              	.LVL17:
 246              		.thumb
 247              		.syntax unified
 248              	.LBE46:
 249              	.LBE45:
 250              	.LBE44:
 251              		.file 3 "..//ChibiOS//os/rt/include/chsys.h"
 252              		.loc 3 349 0
 253 0012 FFF7FEFF 		bl	_stats_start_measure_crit_thd
 254              	.LVL18:
 255              		.loc 3 350 0
 256 0016 FFF7FEFF 		bl	_dbg_check_lock
 257              	.LVL19:
 258              	.LBE43:
 259              	.LBE42:
 260              		.loc 1 153 0
 261 001a 2846     		mov	r0, r5
 262 001c FFF7FEFF 		bl	chPoolAllocI
 263              	.LVL20:
 264 0020 0546     		mov	r5, r0
 265              	.LVL21:
 266              	.LBB47:
 267              	.LBB48:
 268              		.loc 3 360 0
 269 0022 FFF7FEFF 		bl	_dbg_check_unlock
 270              	.LVL22:
 271              		.loc 3 361 0
 272 0026 FFF7FEFF 		bl	_stats_stop_measure_crit_thd
 273              	.LVL23:
 274              		.loc 3 367 0
 275 002a 0D4B     		ldr	r3, .L33+4
 276 002c 1A68     		ldr	r2, [r3]
 277 002e 9A42     		cmp	r2, r3
 278 0030 04D0     		beq	.L28
 279 0032 9969     		ldr	r1, [r3, #24]
 280 0034 9368     		ldr	r3, [r2, #8]
 281 0036 8A68     		ldr	r2, [r1, #8]
 282 0038 9A42     		cmp	r2, r3
 283 003a 09D3     		bcc	.L31
 284              	.L28:
 285              	.LVL24:
ARM GAS  C:\Users\Moi\AppData\Local\Temp\ccVXZmWx.s 			page 6


 286              	.LBB49:
 287              	.LBB50:
 288              	.LBB51:
 289              		.loc 2 546 0
 290 003c 0023     		movs	r3, #0
 291              		.syntax unified
 292              	@ 546 "..//ChibiOS//os/ext/CMSIS/include/core_cmFunc.h" 1
 293 003e 83F31188 		MSR basepri, r3
 294              	@ 0 "" 2
 295              	.LVL25:
 296              		.thumb
 297              		.syntax unified
 298              	.LBE51:
 299              	.LBE50:
 300              	.LBE49:
 301              	.LBE48:
 302              	.LBE47:
 303              		.loc 1 157 0
 304 0042 019A     		ldr	r2, [sp, #4]
 305 0044 2368     		ldr	r3, [r4]
 306 0046 9A42     		cmp	r2, r3
 307 0048 2846     		mov	r0, r5
 308 004a 05D1     		bne	.L32
 309              	.LVL26:
 310 004c 03B0     		add	sp, sp, #12
 311              		.cfi_remember_state
 312              		.cfi_def_cfa_offset 12
 313              		@ sp needed
 314 004e 30BD     		pop	{r4, r5, pc}
 315              	.LVL27:
 316              	.L31:
 317              		.cfi_restore_state
 318              	.LBB53:
 319              	.LBB52:
 320              		.loc 3 367 0
 321 0050 0448     		ldr	r0, .L33+8
 322 0052 FFF7FEFF 		bl	chSysHalt
 323              	.LVL28:
 324 0056 F1E7     		b	.L28
 325              	.LVL29:
 326              	.L32:
 327              	.LBE52:
 328              	.LBE53:
 329              		.loc 1 157 0
 330 0058 FFF7FEFF 		bl	__stack_chk_fail
 331              	.LVL30:
 332              	.L34:
 333              		.align	2
 334              	.L33:
 335 005c 00000000 		.word	__stack_chk_guard
 336 0060 00000000 		.word	ch
 337 0064 00000000 		.word	.LANCHOR2
 338              		.cfi_endproc
 339              	.LFE222:
 340              		.size	chPoolAlloc, .-chPoolAlloc
 341              		.section	.text.chPoolFreeI,"ax",%progbits
 342              		.align	1
ARM GAS  C:\Users\Moi\AppData\Local\Temp\ccVXZmWx.s 			page 7


 343              		.p2align 4,,15
 344              		.global	chPoolFreeI
 345              		.syntax unified
 346              		.thumb
 347              		.thumb_func
 348              		.fpu fpv4-sp-d16
 349              		.type	chPoolFreeI, %function
 350              	chPoolFreeI:
 351              	.LFB223:
 352              		.loc 1 171 0
 353              		.cfi_startproc
 354              		@ args = 0, pretend = 0, frame = 8
 355              		@ frame_needed = 0, uses_anonymous_args = 0
 356              	.LVL31:
 357 0000 70B5     		push	{r4, r5, r6, lr}
 358              		.cfi_def_cfa_offset 16
 359              		.cfi_offset 4, -16
 360              		.cfi_offset 5, -12
 361              		.cfi_offset 6, -8
 362              		.cfi_offset 14, -4
 363 0002 0C4E     		ldr	r6, .L44
 364 0004 82B0     		sub	sp, sp, #8
 365              		.cfi_def_cfa_offset 24
 366              		.loc 1 171 0
 367 0006 0446     		mov	r4, r0
 368 0008 3368     		ldr	r3, [r6]
 369 000a 0193     		str	r3, [sp, #4]
 370 000c 0D46     		mov	r5, r1
 371              	.LVL32:
 372              		.loc 1 174 0
 373 000e FFF7FEFF 		bl	chDbgCheckClassI
 374              	.LVL33:
 375              		.loc 1 175 0
 376 0012 4CB1     		cbz	r4, .L36
 377              		.loc 1 175 0 is_stmt 0 discriminator 3
 378 0014 45B1     		cbz	r5, .L36
 379              	.L37:
 380              		.loc 1 179 0 is_stmt 1
 381 0016 019A     		ldr	r2, [sp, #4]
 382 0018 3368     		ldr	r3, [r6]
 383              		.loc 1 177 0
 384 001a 2168     		ldr	r1, [r4]
 385 001c 2960     		str	r1, [r5]
 386              		.loc 1 179 0
 387 001e 9A42     		cmp	r2, r3
 388              		.loc 1 178 0
 389 0020 2560     		str	r5, [r4]
 390              		.loc 1 179 0
 391 0022 05D1     		bne	.L43
 392 0024 02B0     		add	sp, sp, #8
 393              		.cfi_remember_state
 394              		.cfi_def_cfa_offset 16
 395              		@ sp needed
 396 0026 70BD     		pop	{r4, r5, r6, pc}
 397              	.LVL34:
 398              	.L36:
 399              		.cfi_restore_state
ARM GAS  C:\Users\Moi\AppData\Local\Temp\ccVXZmWx.s 			page 8


 400              		.loc 1 175 0 discriminator 4
 401 0028 0348     		ldr	r0, .L44+4
 402 002a FFF7FEFF 		bl	chSysHalt
 403              	.LVL35:
 404 002e F2E7     		b	.L37
 405              	.L43:
 406              		.loc 1 179 0
 407 0030 FFF7FEFF 		bl	__stack_chk_fail
 408              	.LVL36:
 409              	.L45:
 410              		.align	2
 411              	.L44:
 412 0034 00000000 		.word	__stack_chk_guard
 413 0038 00000000 		.word	.LANCHOR3
 414              		.cfi_endproc
 415              	.LFE223:
 416              		.size	chPoolFreeI, .-chPoolFreeI
 417              		.section	.text.chPoolFree,"ax",%progbits
 418              		.align	1
 419              		.p2align 4,,15
 420              		.global	chPoolFree
 421              		.syntax unified
 422              		.thumb
 423              		.thumb_func
 424              		.fpu fpv4-sp-d16
 425              		.type	chPoolFree, %function
 426              	chPoolFree:
 427              	.LFB224:
 428              		.loc 1 193 0
 429              		.cfi_startproc
 430              		@ args = 0, pretend = 0, frame = 8
 431              		@ frame_needed = 0, uses_anonymous_args = 0
 432              	.LVL37:
 433 0000 70B5     		push	{r4, r5, r6, lr}
 434              		.cfi_def_cfa_offset 16
 435              		.cfi_offset 4, -16
 436              		.cfi_offset 5, -12
 437              		.cfi_offset 6, -8
 438              		.cfi_offset 14, -4
 439 0002 164C     		ldr	r4, .L52
 440 0004 82B0     		sub	sp, sp, #8
 441              		.cfi_def_cfa_offset 24
 442              		.loc 1 193 0
 443 0006 2368     		ldr	r3, [r4]
 444 0008 0193     		str	r3, [sp, #4]
 445              	.LVL38:
 446 000a 0546     		mov	r5, r0
 447 000c 0E46     		mov	r6, r1
 448              	.LBB64:
 449              	.LBB65:
 450              	.LBB66:
 451              	.LBB67:
 452              	.LBB68:
 453              		.loc 2 546 0
 454 000e 2023     		movs	r3, #32
 455              		.syntax unified
 456              	@ 546 "..//ChibiOS//os/ext/CMSIS/include/core_cmFunc.h" 1
ARM GAS  C:\Users\Moi\AppData\Local\Temp\ccVXZmWx.s 			page 9


 457 0010 83F31188 		MSR basepri, r3
 458              	@ 0 "" 2
 459              	.LVL39:
 460              		.thumb
 461              		.syntax unified
 462              	.LBE68:
 463              	.LBE67:
 464              	.LBE66:
 465              		.loc 3 349 0
 466 0014 FFF7FEFF 		bl	_stats_start_measure_crit_thd
 467              	.LVL40:
 468              		.loc 3 350 0
 469 0018 FFF7FEFF 		bl	_dbg_check_lock
 470              	.LVL41:
 471              	.LBE65:
 472              	.LBE64:
 473              		.loc 1 196 0
 474 001c 3146     		mov	r1, r6
 475 001e 2846     		mov	r0, r5
 476 0020 FFF7FEFF 		bl	chPoolFreeI
 477              	.LVL42:
 478              	.LBB69:
 479              	.LBB70:
 480              		.loc 3 360 0
 481 0024 FFF7FEFF 		bl	_dbg_check_unlock
 482              	.LVL43:
 483              		.loc 3 361 0
 484 0028 FFF7FEFF 		bl	_stats_stop_measure_crit_thd
 485              	.LVL44:
 486              		.loc 3 367 0
 487 002c 0C4B     		ldr	r3, .L52+4
 488 002e 1A68     		ldr	r2, [r3]
 489 0030 9A42     		cmp	r2, r3
 490 0032 04D0     		beq	.L47
 491 0034 9969     		ldr	r1, [r3, #24]
 492 0036 9368     		ldr	r3, [r2, #8]
 493 0038 8A68     		ldr	r2, [r1, #8]
 494 003a 9A42     		cmp	r2, r3
 495 003c 08D3     		bcc	.L50
 496              	.L47:
 497              	.LVL45:
 498              	.LBB71:
 499              	.LBB72:
 500              	.LBB73:
 501              		.loc 2 546 0
 502 003e 0023     		movs	r3, #0
 503              		.syntax unified
 504              	@ 546 "..//ChibiOS//os/ext/CMSIS/include/core_cmFunc.h" 1
 505 0040 83F31188 		MSR basepri, r3
 506              	@ 0 "" 2
 507              	.LVL46:
 508              		.thumb
 509              		.syntax unified
 510              	.LBE73:
 511              	.LBE72:
 512              	.LBE71:
 513              	.LBE70:
ARM GAS  C:\Users\Moi\AppData\Local\Temp\ccVXZmWx.s 			page 10


 514              	.LBE69:
 515              		.loc 1 198 0
 516 0044 019A     		ldr	r2, [sp, #4]
 517 0046 2368     		ldr	r3, [r4]
 518 0048 9A42     		cmp	r2, r3
 519 004a 05D1     		bne	.L51
 520 004c 02B0     		add	sp, sp, #8
 521              		.cfi_remember_state
 522              		.cfi_def_cfa_offset 16
 523              		@ sp needed
 524 004e 70BD     		pop	{r4, r5, r6, pc}
 525              	.LVL47:
 526              	.L50:
 527              		.cfi_restore_state
 528              	.LBB75:
 529              	.LBB74:
 530              		.loc 3 367 0
 531 0050 0448     		ldr	r0, .L52+8
 532 0052 FFF7FEFF 		bl	chSysHalt
 533              	.LVL48:
 534 0056 F2E7     		b	.L47
 535              	.L51:
 536              	.LBE74:
 537              	.LBE75:
 538              		.loc 1 198 0
 539 0058 FFF7FEFF 		bl	__stack_chk_fail
 540              	.LVL49:
 541              	.L53:
 542              		.align	2
 543              	.L52:
 544 005c 00000000 		.word	__stack_chk_guard
 545 0060 00000000 		.word	ch
 546 0064 00000000 		.word	.LANCHOR2
 547              		.cfi_endproc
 548              	.LFE224:
 549              		.size	chPoolFree, .-chPoolFree
 550              		.section	.text.chPoolLoadArray,"ax",%progbits
 551              		.align	1
 552              		.p2align 4,,15
 553              		.global	chPoolLoadArray
 554              		.syntax unified
 555              		.thumb
 556              		.thumb_func
 557              		.fpu fpv4-sp-d16
 558              		.type	chPoolLoadArray, %function
 559              	chPoolLoadArray:
 560              	.LFB220:
 561              		.loc 1 97 0
 562              		.cfi_startproc
 563              		@ args = 0, pretend = 0, frame = 8
 564              		@ frame_needed = 0, uses_anonymous_args = 0
 565              	.LVL50:
 566 0000 F0B5     		push	{r4, r5, r6, r7, lr}
 567              		.cfi_def_cfa_offset 20
 568              		.cfi_offset 4, -20
 569              		.cfi_offset 5, -16
 570              		.cfi_offset 6, -12
ARM GAS  C:\Users\Moi\AppData\Local\Temp\ccVXZmWx.s 			page 11


 571              		.cfi_offset 7, -8
 572              		.cfi_offset 14, -4
 573 0002 134F     		ldr	r7, .L65
 574 0004 83B0     		sub	sp, sp, #12
 575              		.cfi_def_cfa_offset 32
 576              		.loc 1 97 0
 577 0006 3B68     		ldr	r3, [r7]
 578 0008 0193     		str	r3, [sp, #4]
 579 000a 0D46     		mov	r5, r1
 580 000c 1446     		mov	r4, r2
 581              		.loc 1 99 0
 582 000e 0646     		mov	r6, r0
 583 0010 50B1     		cbz	r0, .L55
 584              		.loc 1 99 0 is_stmt 0 discriminator 3
 585 0012 6AB9     		cbnz	r2, .L57
 586              		.loc 1 99 0
 587 0014 019A     		ldr	r2, [sp, #4]
 588              	.LVL51:
 589 0016 3B68     		ldr	r3, [r7]
 590 0018 9A42     		cmp	r2, r3
 591 001a 17D1     		bne	.L64
 592 001c 0D48     		ldr	r0, .L65+4
 593              	.LVL52:
 594              		.loc 1 108 0 is_stmt 1
 595 001e 03B0     		add	sp, sp, #12
 596              		.cfi_remember_state
 597              		.cfi_def_cfa_offset 20
 598              		@ sp needed
 599 0020 BDE8F040 		pop	{r4, r5, r6, r7, lr}
 600              		.cfi_restore 14
 601              		.cfi_restore 7
 602              		.cfi_restore 6
 603              		.cfi_restore 5
 604              		.cfi_restore 4
 605              		.cfi_def_cfa_offset 0
 606              	.LVL53:
 607              		.loc 1 99 0
 608 0024 FFF7FEBF 		b	chSysHalt
 609              	.LVL54:
 610              	.L55:
 611              		.cfi_restore_state
 612              		.loc 1 99 0 is_stmt 0 discriminator 4
 613 0028 0A48     		ldr	r0, .L65+4
 614              	.LVL55:
 615 002a FFF7FEFF 		bl	chSysHalt
 616              	.LVL56:
 617              		.loc 1 101 0 is_stmt 1 discriminator 4
 618 002e 3CB1     		cbz	r4, .L54
 619              	.LVL57:
 620              	.L57:
 621              	.LBB76:
 622              	.LBB77:
 623              		.file 4 "..//ChibiOS//os/rt/include/chmempools.h"
 624              		.loc 4 139 0
 625 0030 2946     		mov	r1, r5
 626 0032 3046     		mov	r0, r6
 627 0034 FFF7FEFF 		bl	chPoolFree
ARM GAS  C:\Users\Moi\AppData\Local\Temp\ccVXZmWx.s 			page 12


 628              	.LVL58:
 629              	.LBE77:
 630              	.LBE76:
 631              		.loc 1 104 0
 632 0038 7368     		ldr	r3, [r6, #4]
 633              		.loc 1 101 0
 634 003a 013C     		subs	r4, r4, #1
 635              	.LVL59:
 636              		.loc 1 104 0
 637 003c 1D44     		add	r5, r5, r3
 638              	.LVL60:
 639              		.loc 1 101 0
 640 003e F7D1     		bne	.L57
 641              	.L54:
 642              		.loc 1 108 0
 643 0040 019A     		ldr	r2, [sp, #4]
 644 0042 3B68     		ldr	r3, [r7]
 645 0044 9A42     		cmp	r2, r3
 646 0046 01D1     		bne	.L64
 647 0048 03B0     		add	sp, sp, #12
 648              		.cfi_remember_state
 649              		.cfi_def_cfa_offset 20
 650              		@ sp needed
 651 004a F0BD     		pop	{r4, r5, r6, r7, pc}
 652              	.LVL61:
 653              	.L64:
 654              		.cfi_restore_state
 655 004c FFF7FEFF 		bl	__stack_chk_fail
 656              	.LVL62:
 657              	.L66:
 658              		.align	2
 659              	.L65:
 660 0050 00000000 		.word	__stack_chk_guard
 661 0054 00000000 		.word	.LANCHOR4
 662              		.cfi_endproc
 663              	.LFE220:
 664              		.size	chPoolLoadArray, .-chPoolLoadArray
 665              		.section	.rodata.__func__.7153,"a",%progbits
 666              		.align	2
 667              		.set	.LANCHOR2,. + 0
 668              		.type	__func__.7153, %object
 669              		.size	__func__.7153, 12
 670              	__func__.7153:
 671 0000 63685379 		.ascii	"chSysUnlock\000"
 671      73556E6C 
 671      6F636B00 
 672              		.section	.rodata.__func__.7851,"a",%progbits
 673              		.align	2
 674              		.set	.LANCHOR0,. + 0
 675              		.type	__func__.7851, %object
 676              		.size	__func__.7851, 17
 677              	__func__.7851:
 678 0000 6368506F 		.ascii	"chPoolObjectInit\000"
 678      6F6C4F62 
 678      6A656374 
 678      496E6974 
 678      00
ARM GAS  C:\Users\Moi\AppData\Local\Temp\ccVXZmWx.s 			page 13


 679              		.section	.rodata.__func__.7857,"a",%progbits
 680              		.align	2
 681              		.set	.LANCHOR4,. + 0
 682              		.type	__func__.7857, %object
 683              		.size	__func__.7857, 16
 684              	__func__.7857:
 685 0000 6368506F 		.ascii	"chPoolLoadArray\000"
 685      6F6C4C6F 
 685      61644172 
 685      72617900 
 686              		.section	.rodata.__func__.7865,"a",%progbits
 687              		.align	2
 688              		.set	.LANCHOR1,. + 0
 689              		.type	__func__.7865, %object
 690              		.size	__func__.7865, 13
 691              	__func__.7865:
 692 0000 6368506F 		.ascii	"chPoolAllocI\000"
 692      6F6C416C 
 692      6C6F6349 
 692      00
 693              		.section	.rodata.__func__.7875,"a",%progbits
 694              		.align	2
 695              		.set	.LANCHOR3,. + 0
 696              		.type	__func__.7875, %object
 697              		.size	__func__.7875, 12
 698              	__func__.7875:
 699 0000 6368506F 		.ascii	"chPoolFreeI\000"
 699      6F6C4672 
 699      65654900 
 700              		.text
 701              	.Letext0:
 702              		.file 5 "c:\\users\\moi\\documents\\_microinfo\\epuck-eclipse\\tools\\gcc-arm-none-eabi-7-2017-q4-
 703              		.file 6 "c:\\users\\moi\\documents\\_microinfo\\epuck-eclipse\\tools\\gcc-arm-none-eabi-7-2017-q4-
 704              		.file 7 "c:\\users\\moi\\documents\\_microinfo\\epuck-eclipse\\tools\\gcc-arm-none-eabi-7-2017-q4-
 705              		.file 8 "..//ChibiOS//os/rt/ports/ARMCMx/compilers/GCC/chtypes.h"
 706              		.file 9 "..//ChibiOS//os/rt/include/chsystypes.h"
 707              		.file 10 "..//ChibiOS//os/rt/include/chschd.h"
 708              		.file 11 "..//ChibiOS//os/ext/CMSIS/include/core_cm4.h"
 709              		.file 12 "..//ChibiOS//os/ext/CMSIS/ST/system_stm32f4xx.h"
 710              		.file 13 "..//ChibiOS//os/rt/ports/ARMCMx/chcore.h"
 711              		.file 14 "..//ChibiOS//os/rt/ports/ARMCMx/chcore_v7m.h"
 712              		.file 15 "..//ChibiOS//os/rt/include/chdebug.h"
 713              		.file 16 "..//ChibiOS//os/rt/include/chtm.h"
 714              		.file 17 "..//ChibiOS//os/rt/include/chstats.h"
 715              		.file 18 "..//ChibiOS//os/rt/include/chsem.h"
 716              		.file 19 "..//ChibiOS//os/rt/include/chmtx.h"
 717              		.file 20 "..//ChibiOS//os/rt/include/chregistry.h"
 718              		.file 21 "..//ChibiOS//os/rt/include/chmemcore.h"