ARM GAS  C:\Users\Moi\AppData\Local\Temp\cc1tL7gc.s 			page 1


   1              		.cpu cortex-m4
   2              		.eabi_attribute 27, 1
   3              		.eabi_attribute 28, 1
   4              		.eabi_attribute 20, 1
   5              		.eabi_attribute 21, 1
   6              		.eabi_attribute 23, 3
   7              		.eabi_attribute 24, 1
   8              		.eabi_attribute 25, 1
   9              		.eabi_attribute 26, 1
  10              		.eabi_attribute 30, 2
  11              		.eabi_attribute 34, 1
  12              		.eabi_attribute 18, 4
  13              		.file	"chmsg.c"
  14              		.text
  15              	.Ltext0:
  16              		.cfi_sections	.debug_frame
  17              		.section	.text.chMsgSend,"ax",%progbits
  18              		.align	1
  19              		.p2align 4,,15
  20              		.global	chMsgSend
  21              		.syntax unified
  22              		.thumb
  23              		.thumb_func
  24              		.fpu fpv4-sp-d16
  25              		.type	chMsgSend, %function
  26              	chMsgSend:
  27              	.LFB219:
  28              		.file 1 "..//ChibiOS//os/rt/src/chmsg.c"
  29              		.loc 1 87 0
  30              		.cfi_startproc
  31              		@ args = 0, pretend = 0, frame = 8
  32              		@ frame_needed = 0, uses_anonymous_args = 0
  33              	.LVL0:
  34 0000 2DE9F041 		push	{r4, r5, r6, r7, r8, lr}
  35              		.cfi_def_cfa_offset 24
  36              		.cfi_offset 4, -24
  37              		.cfi_offset 5, -20
  38              		.cfi_offset 6, -16
  39              		.cfi_offset 7, -12
  40              		.cfi_offset 8, -8
  41              		.cfi_offset 14, -4
  42 0004 234F     		ldr	r7, .L12
  43              		.loc 1 88 0
  44 0006 244E     		ldr	r6, .L12+4
  45              		.loc 1 87 0
  46 0008 3B68     		ldr	r3, [r7]
  47              		.loc 1 88 0
  48 000a B469     		ldr	r4, [r6, #24]
  49              	.LVL1:
  50              		.loc 1 87 0
  51 000c 82B0     		sub	sp, sp, #8
  52              		.cfi_def_cfa_offset 32
  53              		.loc 1 87 0
  54 000e 8846     		mov	r8, r1
  55 0010 0193     		str	r3, [sp, #4]
  56              		.loc 1 90 0
  57 0012 0546     		mov	r5, r0
ARM GAS  C:\Users\Moi\AppData\Local\Temp\cc1tL7gc.s 			page 2


  58 0014 0028     		cmp	r0, #0
  59 0016 37D0     		beq	.L8
  60              	.LVL2:
  61              	.L2:
  62              	.LBB49:
  63              	.LBB50:
  64              	.LBB51:
  65              	.LBB52:
  66              	.LBB53:
  67              		.file 2 "..//ChibiOS//os/ext/CMSIS/include/core_cmFunc.h"
  68              		.loc 2 546 0
  69 0018 2023     		movs	r3, #32
  70              		.syntax unified
  71              	@ 546 "..//ChibiOS//os/ext/CMSIS/include/core_cmFunc.h" 1
  72 001a 83F31188 		MSR basepri, r3
  73              	@ 0 "" 2
  74              	.LVL3:
  75              		.thumb
  76              		.syntax unified
  77              	.LBE53:
  78              	.LBE52:
  79              	.LBE51:
  80              		.file 3 "..//ChibiOS//os/rt/include/chsys.h"
  81              		.loc 3 349 0
  82 001e FFF7FEFF 		bl	_stats_start_measure_crit_thd
  83              	.LVL4:
  84              		.loc 3 350 0
  85 0022 FFF7FEFF 		bl	_dbg_check_lock
  86              	.LVL5:
  87              	.LBE50:
  88              	.LBE49:
  89              	.LBB54:
  90              	.LBB55:
  91              		.file 4 "..//ChibiOS//os/rt/include/chschd.h"
  92              		.loc 4 666 0
  93 0026 6B6B     		ldr	r3, [r5, #52]
  94 0028 6360     		str	r3, [r4, #4]
  95              	.LBE55:
  96              	.LBE54:
  97              		.loc 1 94 0
  98 002a 05F13002 		add	r2, r5, #48
  99              		.loc 1 93 0
 100 002e C4F83880 		str	r8, [r4, #56]
 101              		.loc 1 94 0
 102 0032 A262     		str	r2, [r4, #40]
 103              	.LVL6:
 104              	.LBB58:
 105              	.LBB56:
 106              		.loc 4 665 0
 107 0034 2260     		str	r2, [r4]
 108              		.loc 4 667 0
 109 0036 1C60     		str	r4, [r3]
 110              	.LBE56:
 111              	.LBE58:
 112              		.loc 1 96 0
 113 0038 95F82030 		ldrb	r3, [r5, #32]	@ zero_extendqisi2
 114              	.LBB59:
ARM GAS  C:\Users\Moi\AppData\Local\Temp\cc1tL7gc.s 			page 3


 115              	.LBB57:
 116              		.loc 4 668 0
 117 003c 6C63     		str	r4, [r5, #52]
 118              	.LVL7:
 119              	.LBE57:
 120              	.LBE59:
 121              		.loc 1 96 0
 122 003e 0E2B     		cmp	r3, #14
 123 0040 1ED0     		beq	.L9
 124              	.L3:
 125              		.loc 1 99 0
 126 0042 0C20     		movs	r0, #12
 127 0044 FFF7FEFF 		bl	chSchGoSleepS
 128              	.LVL8:
 129              		.loc 1 100 0
 130 0048 A46A     		ldr	r4, [r4, #40]
 131              	.LVL9:
 132              	.LBB60:
 133              	.LBB61:
 134              		.loc 3 360 0
 135 004a FFF7FEFF 		bl	_dbg_check_unlock
 136              	.LVL10:
 137              		.loc 3 361 0
 138 004e FFF7FEFF 		bl	_stats_stop_measure_crit_thd
 139              	.LVL11:
 140              		.loc 3 367 0
 141 0052 3368     		ldr	r3, [r6]
 142 0054 B342     		cmp	r3, r6
 143 0056 04D0     		beq	.L4
 144 0058 B269     		ldr	r2, [r6, #24]
 145 005a 9B68     		ldr	r3, [r3, #8]
 146 005c 9268     		ldr	r2, [r2, #8]
 147 005e 9A42     		cmp	r2, r3
 148 0060 0AD3     		bcc	.L10
 149              	.L4:
 150              	.LVL12:
 151              	.LBB62:
 152              	.LBB63:
 153              	.LBB64:
 154              		.loc 2 546 0
 155 0062 0023     		movs	r3, #0
 156              		.syntax unified
 157              	@ 546 "..//ChibiOS//os/ext/CMSIS/include/core_cmFunc.h" 1
 158 0064 83F31188 		MSR basepri, r3
 159              	@ 0 "" 2
 160              	.LVL13:
 161              		.thumb
 162              		.syntax unified
 163              	.LBE64:
 164              	.LBE63:
 165              	.LBE62:
 166              	.LBE61:
 167              	.LBE60:
 168              		.loc 1 104 0
 169 0068 019A     		ldr	r2, [sp, #4]
 170 006a 3B68     		ldr	r3, [r7]
 171 006c 9A42     		cmp	r2, r3
ARM GAS  C:\Users\Moi\AppData\Local\Temp\cc1tL7gc.s 			page 4


 172 006e 2046     		mov	r0, r4
 173 0070 0ED1     		bne	.L11
 174              	.LVL14:
 175 0072 02B0     		add	sp, sp, #8
 176              		.cfi_remember_state
 177              		.cfi_def_cfa_offset 24
 178              		@ sp needed
 179 0074 BDE8F081 		pop	{r4, r5, r6, r7, r8, pc}
 180              	.LVL15:
 181              	.L10:
 182              		.cfi_restore_state
 183              	.LBB66:
 184              	.LBB65:
 185              		.loc 3 367 0
 186 0078 0848     		ldr	r0, .L12+8
 187 007a FFF7FEFF 		bl	chSysHalt
 188              	.LVL16:
 189 007e F0E7     		b	.L4
 190              	.LVL17:
 191              	.L9:
 192              	.LBE65:
 193              	.LBE66:
 194              		.loc 1 97 0
 195 0080 2846     		mov	r0, r5
 196 0082 FFF7FEFF 		bl	chSchReadyI
 197              	.LVL18:
 198 0086 DCE7     		b	.L3
 199              	.LVL19:
 200              	.L8:
 201              		.loc 1 90 0 discriminator 2
 202 0088 0548     		ldr	r0, .L12+12
 203              	.LVL20:
 204 008a FFF7FEFF 		bl	chSysHalt
 205              	.LVL21:
 206 008e C3E7     		b	.L2
 207              	.LVL22:
 208              	.L11:
 209              		.loc 1 104 0
 210 0090 FFF7FEFF 		bl	__stack_chk_fail
 211              	.LVL23:
 212              	.L13:
 213              		.align	2
 214              	.L12:
 215 0094 00000000 		.word	__stack_chk_guard
 216 0098 00000000 		.word	ch
 217 009c 00000000 		.word	.LANCHOR1
 218 00a0 00000000 		.word	.LANCHOR0
 219              		.cfi_endproc
 220              	.LFE219:
 221              		.size	chMsgSend, .-chMsgSend
 222              		.section	.text.chMsgWait,"ax",%progbits
 223              		.align	1
 224              		.p2align 4,,15
 225              		.global	chMsgWait
 226              		.syntax unified
 227              		.thumb
 228              		.thumb_func
ARM GAS  C:\Users\Moi\AppData\Local\Temp\cc1tL7gc.s 			page 5


 229              		.fpu fpv4-sp-d16
 230              		.type	chMsgWait, %function
 231              	chMsgWait:
 232              	.LFB220:
 233              		.loc 1 120 0
 234              		.cfi_startproc
 235              		@ args = 0, pretend = 0, frame = 8
 236              		@ frame_needed = 0, uses_anonymous_args = 0
 237 0000 70B5     		push	{r4, r5, r6, lr}
 238              		.cfi_def_cfa_offset 16
 239              		.cfi_offset 4, -16
 240              		.cfi_offset 5, -12
 241              		.cfi_offset 6, -8
 242              		.cfi_offset 14, -4
 243 0002 1E4E     		ldr	r6, .L22
 244 0004 82B0     		sub	sp, sp, #8
 245              		.cfi_def_cfa_offset 24
 246              		.loc 1 120 0
 247 0006 3368     		ldr	r3, [r6]
 248 0008 0193     		str	r3, [sp, #4]
 249              	.LVL24:
 250              	.LBB81:
 251              	.LBB82:
 252              	.LBB83:
 253              	.LBB84:
 254              	.LBB85:
 255              		.loc 2 546 0
 256 000a 2023     		movs	r3, #32
 257              		.syntax unified
 258              	@ 546 "..//ChibiOS//os/ext/CMSIS/include/core_cmFunc.h" 1
 259 000c 83F31188 		MSR basepri, r3
 260              	@ 0 "" 2
 261              	.LVL25:
 262              		.thumb
 263              		.syntax unified
 264              	.LBE85:
 265              	.LBE84:
 266              	.LBE83:
 267              	.LBE82:
 268              	.LBE81:
 269              		.loc 1 124 0
 270 0010 1B4C     		ldr	r4, .L22+4
 271              	.LBB87:
 272              	.LBB86:
 273              		.loc 3 349 0
 274 0012 FFF7FEFF 		bl	_stats_start_measure_crit_thd
 275              	.LVL26:
 276              		.loc 3 350 0
 277 0016 FFF7FEFF 		bl	_dbg_check_lock
 278              	.LVL27:
 279              	.LBE86:
 280              	.LBE87:
 281              		.loc 1 124 0
 282 001a A569     		ldr	r5, [r4, #24]
 283              	.LVL28:
 284              	.LBB88:
 285              	.LBB89:
ARM GAS  C:\Users\Moi\AppData\Local\Temp\cc1tL7gc.s 			page 6


 286              		.file 5 "..//ChibiOS//os/rt/include/chmsg.h"
 287              		.loc 5 81 0
 288 001c FFF7FEFF 		bl	chDbgCheckClassI
 289              	.LVL29:
 290              	.LBE89:
 291              	.LBE88:
 292              		.loc 1 124 0
 293 0020 2B6B     		ldr	r3, [r5, #48]
 294              	.LBB91:
 295              	.LBB90:
 296              		.loc 5 83 0
 297 0022 3035     		adds	r5, r5, #48
 298              	.LBE90:
 299              	.LBE91:
 300              		.loc 1 124 0
 301 0024 AB42     		cmp	r3, r5
 302 0026 22D0     		beq	.L19
 303              	.L15:
 304              		.loc 1 127 0
 305 0028 A369     		ldr	r3, [r4, #24]
 306              	.LVL30:
 307              	.LBB92:
 308              	.LBB93:
 309              		.loc 4 672 0
 310 002a 1D6B     		ldr	r5, [r3, #48]
 311              	.LVL31:
 312              		.loc 4 674 0
 313 002c 2A68     		ldr	r2, [r5]
 314 002e 43F8302F 		str	r2, [r3, #48]!
 315              	.LVL32:
 316              	.LBE93:
 317              	.LBE92:
 318              		.loc 1 128 0
 319 0032 0D21     		movs	r1, #13
 320              	.LBB95:
 321              	.LBB94:
 322              		.loc 4 675 0
 323 0034 5360     		str	r3, [r2, #4]
 324              	.LVL33:
 325              	.LBE94:
 326              	.LBE95:
 327              		.loc 1 128 0
 328 0036 85F82010 		strb	r1, [r5, #32]
 329              	.LBB96:
 330              	.LBB97:
 331              		.loc 3 360 0
 332 003a FFF7FEFF 		bl	_dbg_check_unlock
 333              	.LVL34:
 334              		.loc 3 361 0
 335 003e FFF7FEFF 		bl	_stats_stop_measure_crit_thd
 336              	.LVL35:
 337              		.loc 3 367 0
 338 0042 2368     		ldr	r3, [r4]
 339 0044 A342     		cmp	r3, r4
 340 0046 04D0     		beq	.L16
 341 0048 A269     		ldr	r2, [r4, #24]
 342 004a 9B68     		ldr	r3, [r3, #8]
ARM GAS  C:\Users\Moi\AppData\Local\Temp\cc1tL7gc.s 			page 7


 343 004c 9268     		ldr	r2, [r2, #8]
 344 004e 9A42     		cmp	r2, r3
 345 0050 09D3     		bcc	.L20
 346              	.L16:
 347              	.LVL36:
 348              	.LBB98:
 349              	.LBB99:
 350              	.LBB100:
 351              		.loc 2 546 0
 352 0052 0023     		movs	r3, #0
 353              		.syntax unified
 354              	@ 546 "..//ChibiOS//os/ext/CMSIS/include/core_cmFunc.h" 1
 355 0054 83F31188 		MSR basepri, r3
 356              	@ 0 "" 2
 357              	.LVL37:
 358              		.thumb
 359              		.syntax unified
 360              	.LBE100:
 361              	.LBE99:
 362              	.LBE98:
 363              	.LBE97:
 364              	.LBE96:
 365              		.loc 1 132 0
 366 0058 019A     		ldr	r2, [sp, #4]
 367 005a 3368     		ldr	r3, [r6]
 368 005c 9A42     		cmp	r2, r3
 369 005e 2846     		mov	r0, r5
 370 0060 09D1     		bne	.L21
 371 0062 02B0     		add	sp, sp, #8
 372              		.cfi_remember_state
 373              		.cfi_def_cfa_offset 16
 374              		@ sp needed
 375 0064 70BD     		pop	{r4, r5, r6, pc}
 376              	.L20:
 377              		.cfi_restore_state
 378              	.LBB102:
 379              	.LBB101:
 380              		.loc 3 367 0
 381 0066 0748     		ldr	r0, .L22+8
 382 0068 FFF7FEFF 		bl	chSysHalt
 383              	.LVL38:
 384 006c F1E7     		b	.L16
 385              	.L19:
 386              	.LBE101:
 387              	.LBE102:
 388              		.loc 1 125 0
 389 006e 0E20     		movs	r0, #14
 390 0070 FFF7FEFF 		bl	chSchGoSleepS
 391              	.LVL39:
 392 0074 D8E7     		b	.L15
 393              	.L21:
 394              		.loc 1 132 0
 395 0076 FFF7FEFF 		bl	__stack_chk_fail
 396              	.LVL40:
 397              	.L23:
 398 007a 00BF     		.align	2
 399              	.L22:
ARM GAS  C:\Users\Moi\AppData\Local\Temp\cc1tL7gc.s 			page 8


 400 007c 00000000 		.word	__stack_chk_guard
 401 0080 00000000 		.word	ch
 402 0084 00000000 		.word	.LANCHOR1
 403              		.cfi_endproc
 404              	.LFE220:
 405              		.size	chMsgWait, .-chMsgWait
 406              		.section	.text.chMsgRelease,"ax",%progbits
 407              		.align	1
 408              		.p2align 4,,15
 409              		.global	chMsgRelease
 410              		.syntax unified
 411              		.thumb
 412              		.thumb_func
 413              		.fpu fpv4-sp-d16
 414              		.type	chMsgRelease, %function
 415              	chMsgRelease:
 416              	.LFB221:
 417              		.loc 1 144 0
 418              		.cfi_startproc
 419              		@ args = 0, pretend = 0, frame = 8
 420              		@ frame_needed = 0, uses_anonymous_args = 0
 421              	.LVL41:
 422 0000 70B5     		push	{r4, r5, r6, lr}
 423              		.cfi_def_cfa_offset 16
 424              		.cfi_offset 4, -16
 425              		.cfi_offset 5, -12
 426              		.cfi_offset 6, -8
 427              		.cfi_offset 14, -4
 428 0002 1B4C     		ldr	r4, .L34
 429 0004 82B0     		sub	sp, sp, #8
 430              		.cfi_def_cfa_offset 24
 431              		.loc 1 144 0
 432 0006 2368     		ldr	r3, [r4]
 433 0008 0193     		str	r3, [sp, #4]
 434              	.LVL42:
 435 000a 0546     		mov	r5, r0
 436 000c 0E46     		mov	r6, r1
 437              	.LBB115:
 438              	.LBB116:
 439              	.LBB117:
 440              	.LBB118:
 441              	.LBB119:
 442              		.loc 2 546 0
 443 000e 2023     		movs	r3, #32
 444              		.syntax unified
 445              	@ 546 "..//ChibiOS//os/ext/CMSIS/include/core_cmFunc.h" 1
 446 0010 83F31188 		MSR basepri, r3
 447              	@ 0 "" 2
 448              	.LVL43:
 449              		.thumb
 450              		.syntax unified
 451              	.LBE119:
 452              	.LBE118:
 453              	.LBE117:
 454              		.loc 3 349 0
 455 0014 FFF7FEFF 		bl	_stats_start_measure_crit_thd
 456              	.LVL44:
ARM GAS  C:\Users\Moi\AppData\Local\Temp\cc1tL7gc.s 			page 9


 457              		.loc 3 350 0
 458 0018 FFF7FEFF 		bl	_dbg_check_lock
 459              	.LVL45:
 460              	.LBE116:
 461              	.LBE115:
 462              		.loc 1 147 0
 463 001c 95F82030 		ldrb	r3, [r5, #32]	@ zero_extendqisi2
 464 0020 0D2B     		cmp	r3, #13
 465 0022 02D0     		beq	.L25
 466              		.loc 1 147 0 is_stmt 0 discriminator 2
 467 0024 1348     		ldr	r0, .L34+4
 468 0026 FFF7FEFF 		bl	chSysHalt
 469              	.LVL46:
 470              	.L25:
 471              	.LBB120:
 472              	.LBB121:
 473              		.loc 5 113 0 is_stmt 1
 474 002a FFF7FEFF 		bl	chDbgCheckClassS
 475              	.LVL47:
 476              		.loc 5 115 0
 477 002e 3146     		mov	r1, r6
 478 0030 2846     		mov	r0, r5
 479 0032 FFF7FEFF 		bl	chSchWakeupS
 480              	.LVL48:
 481              	.LBE121:
 482              	.LBE120:
 483              	.LBB122:
 484              	.LBB123:
 485              		.loc 3 360 0
 486 0036 FFF7FEFF 		bl	_dbg_check_unlock
 487              	.LVL49:
 488              		.loc 3 361 0
 489 003a FFF7FEFF 		bl	_stats_stop_measure_crit_thd
 490              	.LVL50:
 491              		.loc 3 367 0
 492 003e 0E4B     		ldr	r3, .L34+8
 493 0040 1A68     		ldr	r2, [r3]
 494 0042 9A42     		cmp	r2, r3
 495 0044 04D0     		beq	.L26
 496 0046 9969     		ldr	r1, [r3, #24]
 497 0048 9368     		ldr	r3, [r2, #8]
 498 004a 8A68     		ldr	r2, [r1, #8]
 499 004c 9A42     		cmp	r2, r3
 500 004e 08D3     		bcc	.L32
 501              	.L26:
 502              	.LVL51:
 503              	.LBB124:
 504              	.LBB125:
 505              	.LBB126:
 506              		.loc 2 546 0
 507 0050 0023     		movs	r3, #0
 508              		.syntax unified
 509              	@ 546 "..//ChibiOS//os/ext/CMSIS/include/core_cmFunc.h" 1
 510 0052 83F31188 		MSR basepri, r3
 511              	@ 0 "" 2
 512              	.LVL52:
 513              		.thumb
ARM GAS  C:\Users\Moi\AppData\Local\Temp\cc1tL7gc.s 			page 10


 514              		.syntax unified
 515              	.LBE126:
 516              	.LBE125:
 517              	.LBE124:
 518              	.LBE123:
 519              	.LBE122:
 520              		.loc 1 150 0
 521 0056 019A     		ldr	r2, [sp, #4]
 522 0058 2368     		ldr	r3, [r4]
 523 005a 9A42     		cmp	r2, r3
 524 005c 05D1     		bne	.L33
 525 005e 02B0     		add	sp, sp, #8
 526              		.cfi_remember_state
 527              		.cfi_def_cfa_offset 16
 528              		@ sp needed
 529 0060 70BD     		pop	{r4, r5, r6, pc}
 530              	.LVL53:
 531              	.L32:
 532              		.cfi_restore_state
 533              	.LBB128:
 534              	.LBB127:
 535              		.loc 3 367 0
 536 0062 0648     		ldr	r0, .L34+12
 537 0064 FFF7FEFF 		bl	chSysHalt
 538              	.LVL54:
 539 0068 F2E7     		b	.L26
 540              	.L33:
 541              	.LBE127:
 542              	.LBE128:
 543              		.loc 1 150 0
 544 006a FFF7FEFF 		bl	__stack_chk_fail
 545              	.LVL55:
 546              	.L35:
 547 006e 00BF     		.align	2
 548              	.L34:
 549 0070 00000000 		.word	__stack_chk_guard
 550 0074 00000000 		.word	.LANCHOR2
 551 0078 00000000 		.word	ch
 552 007c 00000000 		.word	.LANCHOR1
 553              		.cfi_endproc
 554              	.LFE221:
 555              		.size	chMsgRelease, .-chMsgRelease
 556              		.section	.rodata.__func__.7153,"a",%progbits
 557              		.align	2
 558              		.set	.LANCHOR1,. + 0
 559              		.type	__func__.7153, %object
 560              		.size	__func__.7153, 12
 561              	__func__.7153:
 562 0000 63685379 		.ascii	"chSysUnlock\000"
 562      73556E6C 
 562      6F636B00 
 563              		.section	.rodata.__func__.7851,"a",%progbits
 564              		.align	2
 565              		.set	.LANCHOR0,. + 0
 566              		.type	__func__.7851, %object
 567              		.size	__func__.7851, 10
 568              	__func__.7851:
ARM GAS  C:\Users\Moi\AppData\Local\Temp\cc1tL7gc.s 			page 11


 569 0000 63684D73 		.ascii	"chMsgSend\000"
 569      6753656E 
 569      6400
 570              		.section	.rodata.__func__.7860,"a",%progbits
 571              		.align	2
 572              		.set	.LANCHOR2,. + 0
 573              		.type	__func__.7860, %object
 574              		.size	__func__.7860, 13
 575              	__func__.7860:
 576 0000 63684D73 		.ascii	"chMsgRelease\000"
 576      6752656C 
 576      65617365 
 576      00
 577              		.text
 578              	.Letext0:
 579              		.file 6 "c:\\users\\moi\\documents\\_microinfo\\epuck-eclipse\\tools\\gcc-arm-none-eabi-7-2017-q4-
 580              		.file 7 "c:\\users\\moi\\documents\\_microinfo\\epuck-eclipse\\tools\\gcc-arm-none-eabi-7-2017-q4-
 581              		.file 8 "..//ChibiOS//os/rt/ports/ARMCMx/compilers/GCC/chtypes.h"
 582              		.file 9 "..//ChibiOS//os/rt/include/chsystypes.h"
 583              		.file 10 "..//ChibiOS//os/ext/CMSIS/include/core_cm4.h"
 584              		.file 11 "..//ChibiOS//os/ext/CMSIS/ST/system_stm32f4xx.h"
 585              		.file 12 "..//ChibiOS//os/rt/ports/ARMCMx/chcore.h"
 586              		.file 13 "..//ChibiOS//os/rt/ports/ARMCMx/chcore_v7m.h"
 587              		.file 14 "..//ChibiOS//os/rt/include/chdebug.h"
 588              		.file 15 "..//ChibiOS//os/rt/include/chtm.h"
 589              		.file 16 "..//ChibiOS//os/rt/include/chstats.h"
 590              		.file 17 "..//ChibiOS//os/rt/include/chsem.h"
 591              		.file 18 "..//ChibiOS//os/rt/include/chmtx.h"
 592              		.file 19 "..//ChibiOS//os/rt/include/chregistry.h"
 593              		.section	.debug_info,"",%progbits
 594              	.Ldebug_info0:
 595 0000 DE0F0000 		.4byte	0xfde
 596 0004 0400     		.2byte	0x4
 597 0006 00000000 		.4byte	.Ldebug_abbrev0
 598 000a 04       		.byte	0x4
 599 000b 01       		.uleb128 0x1
 600 000c FC000000 		.4byte	.LASF180
 601 0010 0C       		.byte	0xc
 602 0011 5F080000 		.4byte	.LASF181
 603 0015 8A000000 		.4byte	.LASF182
 604 0019 B0000000 		.4byte	.Ldebug_ranges0+0xb0
 605 001d 00000000 		.4byte	0
 606 0021 00000000 		.4byte	.Ldebug_line0
 607 0025 02       		.uleb128 0x2
 608 0026 04       		.byte	0x4
 609 0027 05       		.byte	0x5
 610 0028 696E7400 		.ascii	"int\000"
 611 002c 03       		.uleb128 0x3
 612 002d 04       		.byte	0x4
 613 002e 07       		.byte	0x7
 614 002f DD030000 		.4byte	.LASF0
 615 0033 03       		.uleb128 0x3
 616 0034 08       		.byte	0x8
 617 0035 05       		.byte	0x5
 618 0036 AB020000 		.4byte	.LASF1
 619 003a 03       		.uleb128 0x3
 620 003b 08       		.byte	0x8
ARM GAS  C:\Users\Moi\AppData\Local\Temp\cc1tL7gc.s 			page 12


 621 003c 04       		.byte	0x4
 622 003d 7A050000 		.4byte	.LASF2
 623 0041 03       		.uleb128 0x3
 624 0042 01       		.byte	0x1
 625 0043 06       		.byte	0x6
 626 0044 B9020000 		.4byte	.LASF3
 627 0048 04       		.uleb128 0x4
 628 0049 4A000000 		.4byte	.LASF6
 629 004d 06       		.byte	0x6
 630 004e 2B       		.byte	0x2b
 631 004f 53000000 		.4byte	0x53
 632 0053 03       		.uleb128 0x3
 633 0054 01       		.byte	0x1
 634 0055 08       		.byte	0x8
 635 0056 5B060000 		.4byte	.LASF4
 636 005a 03       		.uleb128 0x3
 637 005b 02       		.byte	0x2
 638 005c 05       		.byte	0x5
 639 005d 73060000 		.4byte	.LASF5
 640 0061 04       		.uleb128 0x4
 641 0062 A2070000 		.4byte	.LASF7
 642 0066 06       		.byte	0x6
 643 0067 39       		.byte	0x39
 644 0068 6C000000 		.4byte	0x6c
 645 006c 03       		.uleb128 0x3
 646 006d 02       		.byte	0x2
 647 006e 07       		.byte	0x7
 648 006f 42040000 		.4byte	.LASF8
 649 0073 04       		.uleb128 0x4
 650 0074 EC040000 		.4byte	.LASF9
 651 0078 06       		.byte	0x6
 652 0079 4D       		.byte	0x4d
 653 007a 7E000000 		.4byte	0x7e
 654 007e 03       		.uleb128 0x3
 655 007f 04       		.byte	0x4
 656 0080 05       		.byte	0x5
 657 0081 19030000 		.4byte	.LASF10
 658 0085 04       		.uleb128 0x4
 659 0086 EB070000 		.4byte	.LASF11
 660 008a 06       		.byte	0x6
 661 008b 4F       		.byte	0x4f
 662 008c 90000000 		.4byte	0x90
 663 0090 03       		.uleb128 0x3
 664 0091 04       		.byte	0x4
 665 0092 07       		.byte	0x7
 666 0093 84070000 		.4byte	.LASF12
 667 0097 04       		.uleb128 0x4
 668 0098 F2050000 		.4byte	.LASF13
 669 009c 06       		.byte	0x6
 670 009d 69       		.byte	0x69
 671 009e A2000000 		.4byte	0xa2
 672 00a2 03       		.uleb128 0x3
 673 00a3 08       		.byte	0x8
 674 00a4 07       		.byte	0x7
 675 00a5 D3000000 		.4byte	.LASF14
 676 00a9 04       		.uleb128 0x4
 677 00aa 8D080000 		.4byte	.LASF15
ARM GAS  C:\Users\Moi\AppData\Local\Temp\cc1tL7gc.s 			page 13


 678 00ae 07       		.byte	0x7
 679 00af 18       		.byte	0x18
 680 00b0 48000000 		.4byte	0x48
 681 00b4 04       		.uleb128 0x4
 682 00b5 F2030000 		.4byte	.LASF16
 683 00b9 07       		.byte	0x7
 684 00ba 24       		.byte	0x24
 685 00bb 61000000 		.4byte	0x61
 686 00bf 04       		.uleb128 0x4
 687 00c0 53060000 		.4byte	.LASF17
 688 00c4 07       		.byte	0x7
 689 00c5 2C       		.byte	0x2c
 690 00c6 73000000 		.4byte	0x73
 691 00ca 05       		.uleb128 0x5
 692 00cb BF000000 		.4byte	0xbf
 693 00cf 04       		.uleb128 0x4
 694 00d0 43070000 		.4byte	.LASF18
 695 00d4 07       		.byte	0x7
 696 00d5 30       		.byte	0x30
 697 00d6 85000000 		.4byte	0x85
 698 00da 04       		.uleb128 0x4
 699 00db 34000000 		.4byte	.LASF19
 700 00df 07       		.byte	0x7
 701 00e0 3C       		.byte	0x3c
 702 00e1 97000000 		.4byte	0x97
 703 00e5 04       		.uleb128 0x4
 704 00e6 4B050000 		.4byte	.LASF20
 705 00ea 08       		.byte	0x8
 706 00eb 45       		.byte	0x45
 707 00ec CF000000 		.4byte	0xcf
 708 00f0 04       		.uleb128 0x4
 709 00f1 8E020000 		.4byte	.LASF21
 710 00f5 08       		.byte	0x8
 711 00f6 46       		.byte	0x46
 712 00f7 DA000000 		.4byte	0xda
 713 00fb 04       		.uleb128 0x4
 714 00fc A4060000 		.4byte	.LASF22
 715 0100 08       		.byte	0x8
 716 0101 48       		.byte	0x48
 717 0102 A9000000 		.4byte	0xa9
 718 0106 04       		.uleb128 0x4
 719 0107 2C030000 		.4byte	.LASF23
 720 010b 08       		.byte	0x8
 721 010c 49       		.byte	0x49
 722 010d A9000000 		.4byte	0xa9
 723 0111 04       		.uleb128 0x4
 724 0112 08060000 		.4byte	.LASF24
 725 0116 08       		.byte	0x8
 726 0117 4A       		.byte	0x4a
 727 0118 A9000000 		.4byte	0xa9
 728 011c 04       		.uleb128 0x4
 729 011d 05030000 		.4byte	.LASF25
 730 0121 08       		.byte	0x8
 731 0122 4B       		.byte	0x4b
 732 0123 A9000000 		.4byte	0xa9
 733 0127 04       		.uleb128 0x4
 734 0128 3C060000 		.4byte	.LASF26
ARM GAS  C:\Users\Moi\AppData\Local\Temp\cc1tL7gc.s 			page 14


 735 012c 08       		.byte	0x8
 736 012d 4C       		.byte	0x4c
 737 012e CF000000 		.4byte	0xcf
 738 0132 04       		.uleb128 0x4
 739 0133 7B040000 		.4byte	.LASF27
 740 0137 08       		.byte	0x8
 741 0138 4D       		.byte	0x4d
 742 0139 BF000000 		.4byte	0xbf
 743 013d 04       		.uleb128 0x4
 744 013e E0040000 		.4byte	.LASF28
 745 0142 08       		.byte	0x8
 746 0143 4F       		.byte	0x4f
 747 0144 CF000000 		.4byte	0xcf
 748 0148 04       		.uleb128 0x4
 749 0149 CC030000 		.4byte	.LASF29
 750 014d 08       		.byte	0x8
 751 014e 51       		.byte	0x51
 752 014f BF000000 		.4byte	0xbf
 753 0153 04       		.uleb128 0x4
 754 0154 86040000 		.4byte	.LASF30
 755 0158 08       		.byte	0x8
 756 0159 52       		.byte	0x52
 757 015a CF000000 		.4byte	0xcf
 758 015e 04       		.uleb128 0x4
 759 015f CD070000 		.4byte	.LASF31
 760 0163 09       		.byte	0x9
 761 0164 33       		.byte	0x33
 762 0165 CF000000 		.4byte	0xcf
 763 0169 05       		.uleb128 0x5
 764 016a 5E010000 		.4byte	0x15e
 765 016e 04       		.uleb128 0x4
 766 016f AD070000 		.4byte	.LASF32
 767 0173 09       		.byte	0x9
 768 0174 3F       		.byte	0x3f
 769 0175 79010000 		.4byte	0x179
 770 0179 06       		.uleb128 0x6
 771 017a 64040000 		.4byte	.LASF56
 772 017e 68       		.byte	0x68
 773 017f 04       		.byte	0x4
 774 0180 C2       		.byte	0xc2
 775 0181 97020000 		.4byte	0x297
 776 0185 07       		.uleb128 0x7
 777 0186 9D060000 		.4byte	.LASF33
 778 018a 04       		.byte	0x4
 779 018b C3       		.byte	0xc3
 780 018c A2020000 		.4byte	0x2a2
 781 0190 00       		.byte	0
 782 0191 07       		.uleb128 0x7
 783 0192 35060000 		.4byte	.LASF34
 784 0196 04       		.byte	0x4
 785 0197 C5       		.byte	0xc5
 786 0198 A2020000 		.4byte	0x2a2
 787 019c 04       		.byte	0x4
 788 019d 07       		.uleb128 0x7
 789 019e 97020000 		.4byte	.LASF35
 790 01a2 04       		.byte	0x4
 791 01a3 C7       		.byte	0xc7
ARM GAS  C:\Users\Moi\AppData\Local\Temp\cc1tL7gc.s 			page 15


 792 01a4 27010000 		.4byte	0x127
 793 01a8 08       		.byte	0x8
 794 01a9 07       		.uleb128 0x7
 795 01aa C2050000 		.4byte	.LASF36
 796 01ae 04       		.byte	0x4
 797 01af C8       		.byte	0xc8
 798 01b0 1B050000 		.4byte	0x51b
 799 01b4 0C       		.byte	0xc
 800 01b5 07       		.uleb128 0x7
 801 01b6 55030000 		.4byte	.LASF37
 802 01ba 04       		.byte	0x4
 803 01bb CA       		.byte	0xca
 804 01bc A2020000 		.4byte	0x2a2
 805 01c0 10       		.byte	0x10
 806 01c1 07       		.uleb128 0x7
 807 01c2 B4050000 		.4byte	.LASF38
 808 01c6 04       		.byte	0x4
 809 01c7 CB       		.byte	0xcb
 810 01c8 A2020000 		.4byte	0x2a2
 811 01cc 14       		.byte	0x14
 812 01cd 07       		.uleb128 0x7
 813 01ce CE080000 		.4byte	.LASF39
 814 01d2 04       		.byte	0x4
 815 01d3 D2       		.byte	0xd2
 816 01d4 91080000 		.4byte	0x891
 817 01d8 18       		.byte	0x18
 818 01d9 07       		.uleb128 0x7
 819 01da D2030000 		.4byte	.LASF40
 820 01de 04       		.byte	0x4
 821 01df D8       		.byte	0xd8
 822 01e0 A8080000 		.4byte	0x8a8
 823 01e4 1C       		.byte	0x1c
 824 01e5 07       		.uleb128 0x7
 825 01e6 7D060000 		.4byte	.LASF41
 826 01ea 04       		.byte	0x4
 827 01eb DD       		.byte	0xdd
 828 01ec 06010000 		.4byte	0x106
 829 01f0 20       		.byte	0x20
 830 01f1 07       		.uleb128 0x7
 831 01f2 BB060000 		.4byte	.LASF42
 832 01f6 04       		.byte	0x4
 833 01f7 E1       		.byte	0xe1
 834 01f8 FB000000 		.4byte	0xfb
 835 01fc 21       		.byte	0x21
 836 01fd 07       		.uleb128 0x7
 837 01fe 50080000 		.4byte	.LASF43
 838 0202 04       		.byte	0x4
 839 0203 E6       		.byte	0xe6
 840 0204 11010000 		.4byte	0x111
 841 0208 22       		.byte	0x22
 842 0209 07       		.uleb128 0x7
 843 020a 85060000 		.4byte	.LASF44
 844 020e 04       		.byte	0x4
 845 020f EC       		.byte	0xec
 846 0210 1C010000 		.4byte	0x11c
 847 0214 23       		.byte	0x23
 848 0215 07       		.uleb128 0x7
ARM GAS  C:\Users\Moi\AppData\Local\Temp\cc1tL7gc.s 			page 16


 849 0216 0B040000 		.4byte	.LASF45
 850 021a 04       		.byte	0x4
 851 021b F3       		.byte	0xf3
 852 021c 69010000 		.4byte	0x169
 853 0220 24       		.byte	0x24
 854 0221 08       		.uleb128 0x8
 855 0222 705F7500 		.ascii	"p_u\000"
 856 0226 04       		.byte	0x4
 857 0227 3101     		.2byte	0x131
 858 0229 C0070000 		.4byte	0x7c0
 859 022d 28       		.byte	0x28
 860 022e 09       		.uleb128 0x9
 861 022f 24050000 		.4byte	.LASF46
 862 0233 04       		.byte	0x4
 863 0234 3601     		.2byte	0x136
 864 0236 A8020000 		.4byte	0x2a8
 865 023a 2C       		.byte	0x2c
 866 023b 09       		.uleb128 0x9
 867 023c 22040000 		.4byte	.LASF47
 868 0240 04       		.byte	0x4
 869 0241 3C01     		.2byte	0x13c
 870 0243 CC020000 		.4byte	0x2cc
 871 0247 30       		.byte	0x30
 872 0248 09       		.uleb128 0x9
 873 0249 1D080000 		.4byte	.LASF48
 874 024d 04       		.byte	0x4
 875 024e 4001     		.2byte	0x140
 876 0250 32010000 		.4byte	0x132
 877 0254 38       		.byte	0x38
 878 0255 09       		.uleb128 0x9
 879 0256 38070000 		.4byte	.LASF49
 880 025a 04       		.byte	0x4
 881 025b 4601     		.2byte	0x146
 882 025d 3D010000 		.4byte	0x13d
 883 0261 3C       		.byte	0x3c
 884 0262 09       		.uleb128 0x9
 885 0263 69060000 		.4byte	.LASF50
 886 0267 04       		.byte	0x4
 887 0268 4D01     		.2byte	0x14d
 888 026a 8B080000 		.4byte	0x88b
 889 026e 40       		.byte	0x40
 890 026f 09       		.uleb128 0x9
 891 0270 D7070000 		.4byte	.LASF51
 892 0274 04       		.byte	0x4
 893 0275 5101     		.2byte	0x151
 894 0277 27010000 		.4byte	0x127
 895 027b 44       		.byte	0x44
 896 027c 09       		.uleb128 0x9
 897 027d E2020000 		.4byte	.LASF52
 898 0281 04       		.byte	0x4
 899 0282 5801     		.2byte	0x158
 900 0284 7F030000 		.4byte	0x37f
 901 0288 48       		.byte	0x48
 902 0289 09       		.uleb128 0x9
 903 028a CC060000 		.4byte	.LASF53
 904 028e 04       		.byte	0x4
 905 028f 5E01     		.2byte	0x15e
ARM GAS  C:\Users\Moi\AppData\Local\Temp\cc1tL7gc.s 			page 17


 906 0291 71070000 		.4byte	0x771
 907 0295 50       		.byte	0x50
 908 0296 00       		.byte	0
 909 0297 04       		.uleb128 0x4
 910 0298 A7080000 		.4byte	.LASF54
 911 029c 09       		.byte	0x9
 912 029d 44       		.byte	0x44
 913 029e A2020000 		.4byte	0x2a2
 914 02a2 0A       		.uleb128 0xa
 915 02a3 04       		.byte	0x4
 916 02a4 6E010000 		.4byte	0x16e
 917 02a8 04       		.uleb128 0x4
 918 02a9 01050000 		.4byte	.LASF55
 919 02ad 09       		.byte	0x9
 920 02ae 49       		.byte	0x49
 921 02af B3020000 		.4byte	0x2b3
 922 02b3 06       		.uleb128 0x6
 923 02b4 6C070000 		.4byte	.LASF57
 924 02b8 04       		.byte	0x4
 925 02b9 04       		.byte	0x4
 926 02ba B0       		.byte	0xb0
 927 02bb CC020000 		.4byte	0x2cc
 928 02bf 07       		.uleb128 0x7
 929 02c0 9D060000 		.4byte	.LASF33
 930 02c4 04       		.byte	0x4
 931 02c5 B1       		.byte	0xb1
 932 02c6 A2020000 		.4byte	0x2a2
 933 02ca 00       		.byte	0
 934 02cb 00       		.byte	0
 935 02cc 04       		.uleb128 0x4
 936 02cd DE060000 		.4byte	.LASF58
 937 02d1 09       		.byte	0x9
 938 02d2 50       		.byte	0x50
 939 02d3 D7020000 		.4byte	0x2d7
 940 02d7 06       		.uleb128 0x6
 941 02d8 60000000 		.4byte	.LASF59
 942 02dc 08       		.byte	0x8
 943 02dd 04       		.byte	0x4
 944 02de B7       		.byte	0xb7
 945 02df FC020000 		.4byte	0x2fc
 946 02e3 07       		.uleb128 0x7
 947 02e4 9D060000 		.4byte	.LASF33
 948 02e8 04       		.byte	0x4
 949 02e9 B8       		.byte	0xb8
 950 02ea A2020000 		.4byte	0x2a2
 951 02ee 00       		.byte	0
 952 02ef 07       		.uleb128 0x7
 953 02f0 35060000 		.4byte	.LASF34
 954 02f4 04       		.byte	0x4
 955 02f5 B9       		.byte	0xb9
 956 02f6 A2020000 		.4byte	0x2a2
 957 02fa 04       		.byte	0x4
 958 02fb 00       		.byte	0
 959 02fc 04       		.uleb128 0x4
 960 02fd 0D000000 		.4byte	.LASF60
 961 0301 09       		.byte	0x9
 962 0302 57       		.byte	0x57
ARM GAS  C:\Users\Moi\AppData\Local\Temp\cc1tL7gc.s 			page 18


 963 0303 07030000 		.4byte	0x307
 964 0307 0B       		.uleb128 0xb
 965 0308 D2040000 		.4byte	.LASF61
 966 030c 1C       		.byte	0x1c
 967 030d 04       		.byte	0x4
 968 030e 9001     		.2byte	0x190
 969 0310 63030000 		.4byte	0x363
 970 0314 09       		.uleb128 0x9
 971 0315 58070000 		.4byte	.LASF62
 972 0319 04       		.byte	0x4
 973 031a 9101     		.2byte	0x191
 974 031c CC020000 		.4byte	0x2cc
 975 0320 00       		.byte	0
 976 0321 09       		.uleb128 0x9
 977 0322 8F060000 		.4byte	.LASF63
 978 0326 04       		.byte	0x4
 979 0327 9201     		.2byte	0x192
 980 0329 27010000 		.4byte	0x127
 981 032d 08       		.byte	0x8
 982 032e 09       		.uleb128 0x9
 983 032f BC050000 		.4byte	.LASF64
 984 0333 04       		.byte	0x4
 985 0334 9401     		.2byte	0x194
 986 0336 1B050000 		.4byte	0x51b
 987 033a 0C       		.byte	0xc
 988 033b 09       		.uleb128 0x9
 989 033c 6D030000 		.4byte	.LASF65
 990 0340 04       		.byte	0x4
 991 0341 9701     		.2byte	0x197
 992 0343 A2020000 		.4byte	0x2a2
 993 0347 10       		.byte	0x10
 994 0348 09       		.uleb128 0x9
 995 0349 EA050000 		.4byte	.LASF66
 996 034d 04       		.byte	0x4
 997 034e 9801     		.2byte	0x198
 998 0350 A2020000 		.4byte	0x2a2
 999 0354 14       		.byte	0x14
 1000 0355 09       		.uleb128 0x9
 1001 0356 E0050000 		.4byte	.LASF67
 1002 035a 04       		.byte	0x4
 1003 035b 9B01     		.2byte	0x19b
 1004 035d A2020000 		.4byte	0x2a2
 1005 0361 18       		.byte	0x18
 1006 0362 00       		.byte	0
 1007 0363 04       		.uleb128 0x4
 1008 0364 E2070000 		.4byte	.LASF68
 1009 0368 09       		.byte	0x9
 1010 0369 5C       		.byte	0x5c
 1011 036a 6E030000 		.4byte	0x36e
 1012 036e 0A       		.uleb128 0xa
 1013 036f 04       		.byte	0x4
 1014 0370 74030000 		.4byte	0x374
 1015 0374 0C       		.uleb128 0xc
 1016 0375 7F030000 		.4byte	0x37f
 1017 0379 0D       		.uleb128 0xd
 1018 037a 7F030000 		.4byte	0x37f
 1019 037e 00       		.byte	0
ARM GAS  C:\Users\Moi\AppData\Local\Temp\cc1tL7gc.s 			page 19


 1020 037f 0E       		.uleb128 0xe
 1021 0380 04       		.byte	0x4
 1022 0381 04       		.uleb128 0x4
 1023 0382 25060000 		.4byte	.LASF69
 1024 0386 09       		.byte	0x9
 1025 0387 61       		.byte	0x61
 1026 0388 8C030000 		.4byte	0x38c
 1027 038c 0B       		.uleb128 0xb
 1028 038d EE060000 		.4byte	.LASF70
 1029 0391 14       		.byte	0x14
 1030 0392 04       		.byte	0x4
 1031 0393 6B01     		.2byte	0x16b
 1032 0395 DB030000 		.4byte	0x3db
 1033 0399 09       		.uleb128 0x9
 1034 039a EA030000 		.4byte	.LASF71
 1035 039e 04       		.byte	0x4
 1036 039f 6C01     		.2byte	0x16c
 1037 03a1 AE080000 		.4byte	0x8ae
 1038 03a5 00       		.byte	0
 1039 03a6 09       		.uleb128 0x9
 1040 03a7 7E030000 		.4byte	.LASF72
 1041 03ab 04       		.byte	0x4
 1042 03ac 6D01     		.2byte	0x16d
 1043 03ae AE080000 		.4byte	0x8ae
 1044 03b2 04       		.byte	0x4
 1045 03b3 09       		.uleb128 0x9
 1046 03b4 19040000 		.4byte	.LASF73
 1047 03b8 04       		.byte	0x4
 1048 03b9 6E01     		.2byte	0x16e
 1049 03bb 5E010000 		.4byte	0x15e
 1050 03bf 08       		.byte	0x8
 1051 03c0 09       		.uleb128 0x9
 1052 03c1 3D090000 		.4byte	.LASF74
 1053 03c5 04       		.byte	0x4
 1054 03c6 6F01     		.2byte	0x16f
 1055 03c8 63030000 		.4byte	0x363
 1056 03cc 0C       		.byte	0xc
 1057 03cd 09       		.uleb128 0x9
 1058 03ce 23080000 		.4byte	.LASF75
 1059 03d2 04       		.byte	0x4
 1060 03d3 7101     		.2byte	0x171
 1061 03d5 7F030000 		.4byte	0x37f
 1062 03d9 10       		.byte	0x10
 1063 03da 00       		.byte	0
 1064 03db 04       		.uleb128 0x4
 1065 03dc 6B020000 		.4byte	.LASF76
 1066 03e0 09       		.byte	0x9
 1067 03e1 66       		.byte	0x66
 1068 03e2 E6030000 		.4byte	0x3e6
 1069 03e6 0B       		.uleb128 0xb
 1070 03e7 63050000 		.4byte	.LASF77
 1071 03eb 10       		.byte	0x10
 1072 03ec 04       		.byte	0x4
 1073 03ed 7B01     		.2byte	0x17b
 1074 03ef 28040000 		.4byte	0x428
 1075 03f3 09       		.uleb128 0x9
 1076 03f4 EA030000 		.4byte	.LASF71
ARM GAS  C:\Users\Moi\AppData\Local\Temp\cc1tL7gc.s 			page 20


 1077 03f8 04       		.byte	0x4
 1078 03f9 7C01     		.2byte	0x17c
 1079 03fb AE080000 		.4byte	0x8ae
 1080 03ff 00       		.byte	0
 1081 0400 09       		.uleb128 0x9
 1082 0401 7E030000 		.4byte	.LASF72
 1083 0405 04       		.byte	0x4
 1084 0406 7E01     		.2byte	0x17e
 1085 0408 AE080000 		.4byte	0x8ae
 1086 040c 04       		.byte	0x4
 1087 040d 09       		.uleb128 0x9
 1088 040e 19040000 		.4byte	.LASF73
 1089 0412 04       		.byte	0x4
 1090 0413 8001     		.2byte	0x180
 1091 0415 5E010000 		.4byte	0x15e
 1092 0419 08       		.byte	0x8
 1093 041a 09       		.uleb128 0x9
 1094 041b D5080000 		.4byte	.LASF78
 1095 041f 04       		.byte	0x4
 1096 0420 8201     		.2byte	0x182
 1097 0422 69010000 		.4byte	0x169
 1098 0426 0C       		.byte	0xc
 1099 0427 00       		.byte	0
 1100 0428 04       		.uleb128 0x4
 1101 0429 71000000 		.4byte	.LASF79
 1102 042d 09       		.byte	0x9
 1103 042e 6B       		.byte	0x6b
 1104 042f 33040000 		.4byte	0x433
 1105 0433 0F       		.uleb128 0xf
 1106 0434 90030000 		.4byte	.LASF80
 1107 0438 1404     		.2byte	0x414
 1108 043a 04       		.byte	0x4
 1109 043b A201     		.2byte	0x1a2
 1110 043d 76040000 		.4byte	0x476
 1111 0441 09       		.uleb128 0x9
 1112 0442 04080000 		.4byte	.LASF81
 1113 0446 04       		.byte	0x4
 1114 0447 AA01     		.2byte	0x1aa
 1115 0449 97080000 		.4byte	0x897
 1116 044d 00       		.byte	0
 1117 044e 09       		.uleb128 0x9
 1118 044f 57080000 		.4byte	.LASF82
 1119 0453 04       		.byte	0x4
 1120 0454 AF01     		.2byte	0x1af
 1121 0456 48010000 		.4byte	0x148
 1122 045a 04       		.byte	0x4
 1123 045b 09       		.uleb128 0x9
 1124 045c B4030000 		.4byte	.LASF83
 1125 0460 04       		.byte	0x4
 1126 0461 B301     		.2byte	0x1b3
 1127 0463 48010000 		.4byte	0x148
 1128 0467 08       		.byte	0x8
 1129 0468 09       		.uleb128 0x9
 1130 0469 E0080000 		.4byte	.LASF84
 1131 046d 04       		.byte	0x4
 1132 046e B901     		.2byte	0x1b9
 1133 0470 03070000 		.4byte	0x703
ARM GAS  C:\Users\Moi\AppData\Local\Temp\cc1tL7gc.s 			page 21


 1134 0474 0C       		.byte	0xc
 1135 0475 00       		.byte	0
 1136 0476 04       		.uleb128 0x4
 1137 0477 9E040000 		.4byte	.LASF85
 1138 047b 09       		.byte	0x9
 1139 047c 70       		.byte	0x70
 1140 047d 81040000 		.4byte	0x481
 1141 0481 0F       		.uleb128 0xf
 1142 0482 0F030000 		.4byte	.LASF86
 1143 0486 7006     		.2byte	0x670
 1144 0488 04       		.byte	0x4
 1145 0489 C201     		.2byte	0x1c2
 1146 048b EE040000 		.4byte	0x4ee
 1147 048f 09       		.uleb128 0x9
 1148 0490 87080000 		.4byte	.LASF87
 1149 0494 04       		.byte	0x4
 1150 0495 C601     		.2byte	0x1c6
 1151 0497 FC020000 		.4byte	0x2fc
 1152 049b 00       		.byte	0
 1153 049c 09       		.uleb128 0x9
 1154 049d F2020000 		.4byte	.LASF88
 1155 04a1 04       		.byte	0x4
 1156 04a2 CA01     		.2byte	0x1ca
 1157 04a4 DB030000 		.4byte	0x3db
 1158 04a8 1C       		.byte	0x1c
 1159 04a9 08       		.uleb128 0x8
 1160 04aa 64626700 		.ascii	"dbg\000"
 1161 04ae 04       		.byte	0x4
 1162 04af CE01     		.2byte	0x1ce
 1163 04b1 28040000 		.4byte	0x428
 1164 04b5 2C       		.byte	0x2c
 1165 04b6 10       		.uleb128 0x10
 1166 04b7 42020000 		.4byte	.LASF89
 1167 04bb 04       		.byte	0x4
 1168 04bc D201     		.2byte	0x1d2
 1169 04be 6E010000 		.4byte	0x16e
 1170 04c2 4004     		.2byte	0x440
 1171 04c4 11       		.uleb128 0x11
 1172 04c5 746D00   		.ascii	"tm\000"
 1173 04c8 04       		.byte	0x4
 1174 04c9 D701     		.2byte	0x1d7
 1175 04cb 23070000 		.4byte	0x723
 1176 04cf A804     		.2byte	0x4a8
 1177 04d1 10       		.uleb128 0x10
 1178 04d2 3D000000 		.4byte	.LASF90
 1179 04d6 04       		.byte	0x4
 1180 04d7 DD01     		.2byte	0x1dd
 1181 04d9 B5070000 		.4byte	0x7b5
 1182 04dd B004     		.2byte	0x4b0
 1183 04df 10       		.uleb128 0x10
 1184 04e0 BD030000 		.4byte	.LASF91
 1185 04e4 04       		.byte	0x4
 1186 04e5 E301     		.2byte	0x1e3
 1187 04e7 B4080000 		.4byte	0x8b4
 1188 04eb E804     		.2byte	0x4e8
 1189 04ed 00       		.byte	0
 1190 04ee 12       		.uleb128 0x12
ARM GAS  C:\Users\Moi\AppData\Local\Temp\cc1tL7gc.s 			page 22


 1191 04ef 81020000 		.4byte	.LASF92
 1192 04f3 0A       		.byte	0xa
 1193 04f4 A706     		.2byte	0x6a7
 1194 04f6 CA000000 		.4byte	0xca
 1195 04fa 13       		.uleb128 0x13
 1196 04fb FB030000 		.4byte	.LASF93
 1197 04ff 0B       		.byte	0xb
 1198 0500 4C       		.byte	0x4c
 1199 0501 CF000000 		.4byte	0xcf
 1200 0505 04       		.uleb128 0x4
 1201 0506 75030000 		.4byte	.LASF94
 1202 050a 0C       		.byte	0xc
 1203 050b 65       		.byte	0x65
 1204 050c 7F030000 		.4byte	0x37f
 1205 0510 04       		.uleb128 0x4
 1206 0511 F6040000 		.4byte	.LASF95
 1207 0515 0C       		.byte	0xc
 1208 0516 6D       		.byte	0x6d
 1209 0517 DA000000 		.4byte	0xda
 1210 051b 06       		.uleb128 0x6
 1211 051c 15080000 		.4byte	.LASF96
 1212 0520 04       		.byte	0x4
 1213 0521 0C       		.byte	0xc
 1214 0522 89       		.byte	0x89
 1215 0523 34050000 		.4byte	0x534
 1216 0527 14       		.uleb128 0x14
 1217 0528 72313300 		.ascii	"r13\000"
 1218 052c 0C       		.byte	0xc
 1219 052d 8A       		.byte	0x8a
 1220 052e 75060000 		.4byte	0x675
 1221 0532 00       		.byte	0
 1222 0533 00       		.byte	0
 1223 0534 06       		.uleb128 0x6
 1224 0535 54000000 		.4byte	.LASF97
 1225 0539 64       		.byte	0x64
 1226 053a 0D       		.byte	0xd
 1227 053b F4       		.byte	0xf4
 1228 053c 75060000 		.4byte	0x675
 1229 0540 14       		.uleb128 0x14
 1230 0541 73313600 		.ascii	"s16\000"
 1231 0545 0D       		.byte	0xd
 1232 0546 F6       		.byte	0xf6
 1233 0547 05050000 		.4byte	0x505
 1234 054b 00       		.byte	0
 1235 054c 14       		.uleb128 0x14
 1236 054d 73313700 		.ascii	"s17\000"
 1237 0551 0D       		.byte	0xd
 1238 0552 F7       		.byte	0xf7
 1239 0553 05050000 		.4byte	0x505
 1240 0557 04       		.byte	0x4
 1241 0558 14       		.uleb128 0x14
 1242 0559 73313800 		.ascii	"s18\000"
 1243 055d 0D       		.byte	0xd
 1244 055e F8       		.byte	0xf8
 1245 055f 05050000 		.4byte	0x505
 1246 0563 08       		.byte	0x8
 1247 0564 14       		.uleb128 0x14
ARM GAS  C:\Users\Moi\AppData\Local\Temp\cc1tL7gc.s 			page 23


 1248 0565 73313900 		.ascii	"s19\000"
 1249 0569 0D       		.byte	0xd
 1250 056a F9       		.byte	0xf9
 1251 056b 05050000 		.4byte	0x505
 1252 056f 0C       		.byte	0xc
 1253 0570 14       		.uleb128 0x14
 1254 0571 73323000 		.ascii	"s20\000"
 1255 0575 0D       		.byte	0xd
 1256 0576 FA       		.byte	0xfa
 1257 0577 05050000 		.4byte	0x505
 1258 057b 10       		.byte	0x10
 1259 057c 14       		.uleb128 0x14
 1260 057d 73323100 		.ascii	"s21\000"
 1261 0581 0D       		.byte	0xd
 1262 0582 FB       		.byte	0xfb
 1263 0583 05050000 		.4byte	0x505
 1264 0587 14       		.byte	0x14
 1265 0588 14       		.uleb128 0x14
 1266 0589 73323200 		.ascii	"s22\000"
 1267 058d 0D       		.byte	0xd
 1268 058e FC       		.byte	0xfc
 1269 058f 05050000 		.4byte	0x505
 1270 0593 18       		.byte	0x18
 1271 0594 14       		.uleb128 0x14
 1272 0595 73323300 		.ascii	"s23\000"
 1273 0599 0D       		.byte	0xd
 1274 059a FD       		.byte	0xfd
 1275 059b 05050000 		.4byte	0x505
 1276 059f 1C       		.byte	0x1c
 1277 05a0 14       		.uleb128 0x14
 1278 05a1 73323400 		.ascii	"s24\000"
 1279 05a5 0D       		.byte	0xd
 1280 05a6 FE       		.byte	0xfe
 1281 05a7 05050000 		.4byte	0x505
 1282 05ab 20       		.byte	0x20
 1283 05ac 14       		.uleb128 0x14
 1284 05ad 73323500 		.ascii	"s25\000"
 1285 05b1 0D       		.byte	0xd
 1286 05b2 FF       		.byte	0xff
 1287 05b3 05050000 		.4byte	0x505
 1288 05b7 24       		.byte	0x24
 1289 05b8 08       		.uleb128 0x8
 1290 05b9 73323600 		.ascii	"s26\000"
 1291 05bd 0D       		.byte	0xd
 1292 05be 0001     		.2byte	0x100
 1293 05c0 05050000 		.4byte	0x505
 1294 05c4 28       		.byte	0x28
 1295 05c5 08       		.uleb128 0x8
 1296 05c6 73323700 		.ascii	"s27\000"
 1297 05ca 0D       		.byte	0xd
 1298 05cb 0101     		.2byte	0x101
 1299 05cd 05050000 		.4byte	0x505
 1300 05d1 2C       		.byte	0x2c
 1301 05d2 08       		.uleb128 0x8
 1302 05d3 73323800 		.ascii	"s28\000"
 1303 05d7 0D       		.byte	0xd
 1304 05d8 0201     		.2byte	0x102
ARM GAS  C:\Users\Moi\AppData\Local\Temp\cc1tL7gc.s 			page 24


 1305 05da 05050000 		.4byte	0x505
 1306 05de 30       		.byte	0x30
 1307 05df 08       		.uleb128 0x8
 1308 05e0 73323900 		.ascii	"s29\000"
 1309 05e4 0D       		.byte	0xd
 1310 05e5 0301     		.2byte	0x103
 1311 05e7 05050000 		.4byte	0x505
 1312 05eb 34       		.byte	0x34
 1313 05ec 08       		.uleb128 0x8
 1314 05ed 73333000 		.ascii	"s30\000"
 1315 05f1 0D       		.byte	0xd
 1316 05f2 0401     		.2byte	0x104
 1317 05f4 05050000 		.4byte	0x505
 1318 05f8 38       		.byte	0x38
 1319 05f9 08       		.uleb128 0x8
 1320 05fa 73333100 		.ascii	"s31\000"
 1321 05fe 0D       		.byte	0xd
 1322 05ff 0501     		.2byte	0x105
 1323 0601 05050000 		.4byte	0x505
 1324 0605 3C       		.byte	0x3c
 1325 0606 08       		.uleb128 0x8
 1326 0607 723400   		.ascii	"r4\000"
 1327 060a 0D       		.byte	0xd
 1328 060b 0701     		.2byte	0x107
 1329 060d 05050000 		.4byte	0x505
 1330 0611 40       		.byte	0x40
 1331 0612 08       		.uleb128 0x8
 1332 0613 723500   		.ascii	"r5\000"
 1333 0616 0D       		.byte	0xd
 1334 0617 0801     		.2byte	0x108
 1335 0619 05050000 		.4byte	0x505
 1336 061d 44       		.byte	0x44
 1337 061e 08       		.uleb128 0x8
 1338 061f 723600   		.ascii	"r6\000"
 1339 0622 0D       		.byte	0xd
 1340 0623 0901     		.2byte	0x109
 1341 0625 05050000 		.4byte	0x505
 1342 0629 48       		.byte	0x48
 1343 062a 08       		.uleb128 0x8
 1344 062b 723700   		.ascii	"r7\000"
 1345 062e 0D       		.byte	0xd
 1346 062f 0A01     		.2byte	0x10a
 1347 0631 05050000 		.4byte	0x505
 1348 0635 4C       		.byte	0x4c
 1349 0636 08       		.uleb128 0x8
 1350 0637 723800   		.ascii	"r8\000"
 1351 063a 0D       		.byte	0xd
 1352 063b 0B01     		.2byte	0x10b
 1353 063d 05050000 		.4byte	0x505
 1354 0641 50       		.byte	0x50
 1355 0642 08       		.uleb128 0x8
 1356 0643 723900   		.ascii	"r9\000"
 1357 0646 0D       		.byte	0xd
 1358 0647 0C01     		.2byte	0x10c
 1359 0649 05050000 		.4byte	0x505
 1360 064d 54       		.byte	0x54
 1361 064e 08       		.uleb128 0x8
ARM GAS  C:\Users\Moi\AppData\Local\Temp\cc1tL7gc.s 			page 25


 1362 064f 72313000 		.ascii	"r10\000"
 1363 0653 0D       		.byte	0xd
 1364 0654 0D01     		.2byte	0x10d
 1365 0656 05050000 		.4byte	0x505
 1366 065a 58       		.byte	0x58
 1367 065b 08       		.uleb128 0x8
 1368 065c 72313100 		.ascii	"r11\000"
 1369 0660 0D       		.byte	0xd
 1370 0661 0E01     		.2byte	0x10e
 1371 0663 05050000 		.4byte	0x505
 1372 0667 5C       		.byte	0x5c
 1373 0668 08       		.uleb128 0x8
 1374 0669 6C7200   		.ascii	"lr\000"
 1375 066c 0D       		.byte	0xd
 1376 066d 0F01     		.2byte	0x10f
 1377 066f 05050000 		.4byte	0x505
 1378 0673 60       		.byte	0x60
 1379 0674 00       		.byte	0
 1380 0675 0A       		.uleb128 0xa
 1381 0676 04       		.byte	0x4
 1382 0677 34050000 		.4byte	0x534
 1383 067b 15       		.uleb128 0x15
 1384 067c 10       		.byte	0x10
 1385 067d 0E       		.byte	0xe
 1386 067e 51       		.byte	0x51
 1387 067f B4060000 		.4byte	0x6b4
 1388 0683 07       		.uleb128 0x7
 1389 0684 34080000 		.4byte	.LASF98
 1390 0688 0E       		.byte	0xe
 1391 0689 55       		.byte	0x55
 1392 068a 5E010000 		.4byte	0x15e
 1393 068e 00       		.byte	0
 1394 068f 07       		.uleb128 0x7
 1395 0690 35030000 		.4byte	.LASF99
 1396 0694 0E       		.byte	0xe
 1397 0695 59       		.byte	0x59
 1398 0696 A2020000 		.4byte	0x2a2
 1399 069a 04       		.byte	0x4
 1400 069b 07       		.uleb128 0x7
 1401 069c 25090000 		.4byte	.LASF100
 1402 06a0 0E       		.byte	0xe
 1403 06a1 5D       		.byte	0x5d
 1404 06a2 7F030000 		.4byte	0x37f
 1405 06a6 08       		.byte	0x8
 1406 06a7 07       		.uleb128 0x7
 1407 06a8 7E080000 		.4byte	.LASF101
 1408 06ac 0E       		.byte	0xe
 1409 06ad 61       		.byte	0x61
 1410 06ae A9000000 		.4byte	0xa9
 1411 06b2 0C       		.byte	0xc
 1412 06b3 00       		.byte	0
 1413 06b4 04       		.uleb128 0x4
 1414 06b5 99050000 		.4byte	.LASF102
 1415 06b9 0E       		.byte	0xe
 1416 06ba 62       		.byte	0x62
 1417 06bb 7B060000 		.4byte	0x67b
 1418 06bf 16       		.uleb128 0x16
ARM GAS  C:\Users\Moi\AppData\Local\Temp\cc1tL7gc.s 			page 26


 1419 06c0 0804     		.2byte	0x408
 1420 06c2 0E       		.byte	0xe
 1421 06c3 67       		.byte	0x67
 1422 06c4 ED060000 		.4byte	0x6ed
 1423 06c8 07       		.uleb128 0x7
 1424 06c9 65030000 		.4byte	.LASF103
 1425 06cd 0E       		.byte	0xe
 1426 06ce 6B       		.byte	0x6b
 1427 06cf 2C000000 		.4byte	0x2c
 1428 06d3 00       		.byte	0
 1429 06d4 07       		.uleb128 0x7
 1430 06d5 92050000 		.4byte	.LASF104
 1431 06d9 0E       		.byte	0xe
 1432 06da 6F       		.byte	0x6f
 1433 06db ED060000 		.4byte	0x6ed
 1434 06df 04       		.byte	0x4
 1435 06e0 07       		.uleb128 0x7
 1436 06e1 10060000 		.4byte	.LASF105
 1437 06e5 0E       		.byte	0xe
 1438 06e6 73       		.byte	0x73
 1439 06e7 F3060000 		.4byte	0x6f3
 1440 06eb 08       		.byte	0x8
 1441 06ec 00       		.byte	0
 1442 06ed 0A       		.uleb128 0xa
 1443 06ee 04       		.byte	0x4
 1444 06ef B4060000 		.4byte	0x6b4
 1445 06f3 17       		.uleb128 0x17
 1446 06f4 B4060000 		.4byte	0x6b4
 1447 06f8 03070000 		.4byte	0x703
 1448 06fc 18       		.uleb128 0x18
 1449 06fd 2C000000 		.4byte	0x2c
 1450 0701 3F       		.byte	0x3f
 1451 0702 00       		.byte	0
 1452 0703 04       		.uleb128 0x4
 1453 0704 EA000000 		.4byte	.LASF106
 1454 0708 0E       		.byte	0xe
 1455 0709 74       		.byte	0x74
 1456 070a BF060000 		.4byte	0x6bf
 1457 070e 15       		.uleb128 0x15
 1458 070f 04       		.byte	0x4
 1459 0710 0F       		.byte	0xf
 1460 0711 38       		.byte	0x38
 1461 0712 23070000 		.4byte	0x723
 1462 0716 07       		.uleb128 0x7
 1463 0717 0E080000 		.4byte	.LASF107
 1464 071b 0F       		.byte	0xf
 1465 071c 3C       		.byte	0x3c
 1466 071d E5000000 		.4byte	0xe5
 1467 0721 00       		.byte	0
 1468 0722 00       		.byte	0
 1469 0723 04       		.uleb128 0x4
 1470 0724 C8050000 		.4byte	.LASF108
 1471 0728 0F       		.byte	0xf
 1472 0729 3D       		.byte	0x3d
 1473 072a 0E070000 		.4byte	0x70e
 1474 072e 15       		.uleb128 0x15
 1475 072f 18       		.byte	0x18
ARM GAS  C:\Users\Moi\AppData\Local\Temp\cc1tL7gc.s 			page 27


 1476 0730 0F       		.byte	0xf
 1477 0731 48       		.byte	0x48
 1478 0732 71070000 		.4byte	0x771
 1479 0736 07       		.uleb128 0x7
 1480 0737 B6070000 		.4byte	.LASF109
 1481 073b 0F       		.byte	0xf
 1482 073c 49       		.byte	0x49
 1483 073d E5000000 		.4byte	0xe5
 1484 0741 00       		.byte	0
 1485 0742 07       		.uleb128 0x7
 1486 0743 BA000000 		.4byte	.LASF110
 1487 0747 0F       		.byte	0xf
 1488 0748 4A       		.byte	0x4a
 1489 0749 E5000000 		.4byte	0xe5
 1490 074d 04       		.byte	0x4
 1491 074e 07       		.uleb128 0x7
 1492 074f 81040000 		.4byte	.LASF111
 1493 0753 0F       		.byte	0xf
 1494 0754 4B       		.byte	0x4b
 1495 0755 E5000000 		.4byte	0xe5
 1496 0759 08       		.byte	0x8
 1497 075a 14       		.uleb128 0x14
 1498 075b 6E00     		.ascii	"n\000"
 1499 075d 0F       		.byte	0xf
 1500 075e 4C       		.byte	0x4c
 1501 075f 53010000 		.4byte	0x153
 1502 0763 0C       		.byte	0xc
 1503 0764 07       		.uleb128 0x7
 1504 0765 FD050000 		.4byte	.LASF112
 1505 0769 0F       		.byte	0xf
 1506 076a 4D       		.byte	0x4d
 1507 076b F0000000 		.4byte	0xf0
 1508 076f 10       		.byte	0x10
 1509 0770 00       		.byte	0
 1510 0771 04       		.uleb128 0x4
 1511 0772 C0000000 		.4byte	.LASF113
 1512 0776 0F       		.byte	0xf
 1513 0777 4E       		.byte	0x4e
 1514 0778 2E070000 		.4byte	0x72e
 1515 077c 15       		.uleb128 0x15
 1516 077d 38       		.byte	0x38
 1517 077e 10       		.byte	0x10
 1518 077f 38       		.byte	0x38
 1519 0780 B5070000 		.4byte	0x7b5
 1520 0784 07       		.uleb128 0x7
 1521 0785 36040000 		.4byte	.LASF114
 1522 0789 10       		.byte	0x10
 1523 078a 39       		.byte	0x39
 1524 078b 53010000 		.4byte	0x153
 1525 078f 00       		.byte	0
 1526 0790 07       		.uleb128 0x7
 1527 0791 44060000 		.4byte	.LASF115
 1528 0795 10       		.byte	0x10
 1529 0796 3A       		.byte	0x3a
 1530 0797 53010000 		.4byte	0x153
 1531 079b 04       		.byte	0x4
 1532 079c 07       		.uleb128 0x7
ARM GAS  C:\Users\Moi\AppData\Local\Temp\cc1tL7gc.s 			page 28


 1533 079d 12090000 		.4byte	.LASF116
 1534 07a1 10       		.byte	0x10
 1535 07a2 3B       		.byte	0x3b
 1536 07a3 71070000 		.4byte	0x771
 1537 07a7 08       		.byte	0x8
 1538 07a8 07       		.uleb128 0x7
 1539 07a9 C7040000 		.4byte	.LASF117
 1540 07ad 10       		.byte	0x10
 1541 07ae 3D       		.byte	0x3d
 1542 07af 71070000 		.4byte	0x771
 1543 07b3 20       		.byte	0x20
 1544 07b4 00       		.byte	0
 1545 07b5 04       		.uleb128 0x4
 1546 07b6 55040000 		.4byte	.LASF118
 1547 07ba 10       		.byte	0x10
 1548 07bb 3F       		.byte	0x3f
 1549 07bc 7C070000 		.4byte	0x77c
 1550 07c0 19       		.uleb128 0x19
 1551 07c1 04       		.byte	0x4
 1552 07c2 04       		.byte	0x4
 1553 07c3 FA       		.byte	0xfa
 1554 07c4 1D080000 		.4byte	0x81d
 1555 07c8 1A       		.uleb128 0x1a
 1556 07c9 2D000000 		.4byte	.LASF119
 1557 07cd 04       		.byte	0x4
 1558 07ce 0101     		.2byte	0x101
 1559 07d0 32010000 		.4byte	0x132
 1560 07d4 1A       		.uleb128 0x1a
 1561 07d5 39020000 		.4byte	.LASF120
 1562 07d9 04       		.byte	0x4
 1563 07da 0801     		.2byte	0x108
 1564 07dc 32010000 		.4byte	0x132
 1565 07e0 1A       		.uleb128 0x1a
 1566 07e1 BA080000 		.4byte	.LASF121
 1567 07e5 04       		.byte	0x4
 1568 07e6 0F01     		.2byte	0x10f
 1569 07e8 7F030000 		.4byte	0x37f
 1570 07ec 1A       		.uleb128 0x1a
 1571 07ed 27000000 		.4byte	.LASF122
 1572 07f1 04       		.byte	0x4
 1573 07f2 1601     		.2byte	0x116
 1574 07f4 1D080000 		.4byte	0x81d
 1575 07f8 1A       		.uleb128 0x1a
 1576 07f9 12040000 		.4byte	.LASF123
 1577 07fd 04       		.byte	0x4
 1578 07fe 1E01     		.2byte	0x11e
 1579 0800 48080000 		.4byte	0x848
 1580 0804 1A       		.uleb128 0x1a
 1581 0805 9B070000 		.4byte	.LASF124
 1582 0809 04       		.byte	0x4
 1583 080a 2701     		.2byte	0x127
 1584 080c 8B080000 		.4byte	0x88b
 1585 0810 1A       		.uleb128 0x1a
 1586 0811 96060000 		.4byte	.LASF125
 1587 0815 04       		.byte	0x4
 1588 0816 2F01     		.2byte	0x12f
 1589 0818 3D010000 		.4byte	0x13d
ARM GAS  C:\Users\Moi\AppData\Local\Temp\cc1tL7gc.s 			page 29


 1590 081c 00       		.byte	0
 1591 081d 0A       		.uleb128 0xa
 1592 081e 04       		.byte	0x4
 1593 081f 97020000 		.4byte	0x297
 1594 0823 06       		.uleb128 0x6
 1595 0824 1D070000 		.4byte	.LASF126
 1596 0828 0C       		.byte	0xc
 1597 0829 11       		.byte	0x11
 1598 082a 34       		.byte	0x34
 1599 082b 48080000 		.4byte	0x848
 1600 082f 07       		.uleb128 0x7
 1601 0830 5D030000 		.4byte	.LASF127
 1602 0834 11       		.byte	0x11
 1603 0835 35       		.byte	0x35
 1604 0836 CC020000 		.4byte	0x2cc
 1605 083a 00       		.byte	0
 1606 083b 07       		.uleb128 0x7
 1607 083c 3C040000 		.4byte	.LASF128
 1608 0840 11       		.byte	0x11
 1609 0841 37       		.byte	0x37
 1610 0842 48010000 		.4byte	0x148
 1611 0846 08       		.byte	0x8
 1612 0847 00       		.byte	0
 1613 0848 0A       		.uleb128 0xa
 1614 0849 04       		.byte	0x4
 1615 084a 23080000 		.4byte	0x823
 1616 084e 06       		.uleb128 0x6
 1617 084f 47080000 		.4byte	.LASF129
 1618 0853 14       		.byte	0x14
 1619 0854 12       		.byte	0x12
 1620 0855 39       		.byte	0x39
 1621 0856 8B080000 		.4byte	0x88b
 1622 085a 07       		.uleb128 0x7
 1623 085b EA020000 		.4byte	.LASF130
 1624 085f 12       		.byte	0x12
 1625 0860 3A       		.byte	0x3a
 1626 0861 CC020000 		.4byte	0x2cc
 1627 0865 00       		.byte	0
 1628 0866 07       		.uleb128 0x7
 1629 0867 1D090000 		.4byte	.LASF131
 1630 086b 12       		.byte	0x12
 1631 086c 3C       		.byte	0x3c
 1632 086d A2020000 		.4byte	0x2a2
 1633 0871 08       		.byte	0x8
 1634 0872 07       		.uleb128 0x7
 1635 0873 D9050000 		.4byte	.LASF132
 1636 0877 12       		.byte	0x12
 1637 0878 3E       		.byte	0x3e
 1638 0879 E6090000 		.4byte	0x9e6
 1639 087d 0C       		.byte	0xc
 1640 087e 07       		.uleb128 0x7
 1641 087f A0030000 		.4byte	.LASF133
 1642 0883 12       		.byte	0x12
 1643 0884 41       		.byte	0x41
 1644 0885 48010000 		.4byte	0x148
 1645 0889 10       		.byte	0x10
 1646 088a 00       		.byte	0
ARM GAS  C:\Users\Moi\AppData\Local\Temp\cc1tL7gc.s 			page 30


 1647 088b 0A       		.uleb128 0xa
 1648 088c 04       		.byte	0x4
 1649 088d 4E080000 		.4byte	0x84e
 1650 0891 0A       		.uleb128 0xa
 1651 0892 04       		.byte	0x4
 1652 0893 A3080000 		.4byte	0x8a3
 1653 0897 05       		.uleb128 0x5
 1654 0898 91080000 		.4byte	0x891
 1655 089c 03       		.uleb128 0x3
 1656 089d 01       		.byte	0x1
 1657 089e 08       		.byte	0x8
 1658 089f 96070000 		.4byte	.LASF134
 1659 08a3 1B       		.uleb128 0x1b
 1660 08a4 9C080000 		.4byte	0x89c
 1661 08a8 0A       		.uleb128 0xa
 1662 08a9 04       		.byte	0x4
 1663 08aa 10050000 		.4byte	0x510
 1664 08ae 0A       		.uleb128 0xa
 1665 08af 04       		.byte	0x4
 1666 08b0 81030000 		.4byte	0x381
 1667 08b4 17       		.uleb128 0x17
 1668 08b5 10050000 		.4byte	0x510
 1669 08b9 C4080000 		.4byte	0x8c4
 1670 08bd 18       		.uleb128 0x18
 1671 08be 2C000000 		.4byte	0x2c
 1672 08c2 30       		.byte	0x30
 1673 08c3 00       		.byte	0
 1674 08c4 1C       		.uleb128 0x1c
 1675 08c5 636800   		.ascii	"ch\000"
 1676 08c8 04       		.byte	0x4
 1677 08c9 0902     		.2byte	0x209
 1678 08cb 76040000 		.4byte	0x476
 1679 08cf 15       		.uleb128 0x15
 1680 08d0 16       		.byte	0x16
 1681 08d1 13       		.byte	0x13
 1682 08d2 34       		.byte	0x34
 1683 08d3 B0090000 		.4byte	0x9b0
 1684 08d7 07       		.uleb128 0x7
 1685 08d8 2F090000 		.4byte	.LASF135
 1686 08dc 13       		.byte	0x13
 1687 08dd 35       		.byte	0x35
 1688 08de B0090000 		.4byte	0x9b0
 1689 08e2 00       		.byte	0
 1690 08e3 07       		.uleb128 0x7
 1691 08e4 10050000 		.4byte	.LASF136
 1692 08e8 13       		.byte	0x13
 1693 08e9 36       		.byte	0x36
 1694 08ea A9000000 		.4byte	0xa9
 1695 08ee 04       		.byte	0x4
 1696 08ef 07       		.uleb128 0x7
 1697 08f0 7C070000 		.4byte	.LASF137
 1698 08f4 13       		.byte	0x13
 1699 08f5 37       		.byte	0x37
 1700 08f6 A9000000 		.4byte	0xa9
 1701 08fa 05       		.byte	0x5
 1702 08fb 07       		.uleb128 0x7
 1703 08fc F9080000 		.4byte	.LASF138
ARM GAS  C:\Users\Moi\AppData\Local\Temp\cc1tL7gc.s 			page 31


 1704 0900 13       		.byte	0x13
 1705 0901 38       		.byte	0x38
 1706 0902 B4000000 		.4byte	0xb4
 1707 0906 06       		.byte	0x6
 1708 0907 07       		.uleb128 0x7
 1709 0908 1A060000 		.4byte	.LASF139
 1710 090c 13       		.byte	0x13
 1711 090d 39       		.byte	0x39
 1712 090e A9000000 		.4byte	0xa9
 1713 0912 08       		.byte	0x8
 1714 0913 07       		.uleb128 0x7
 1715 0914 86050000 		.4byte	.LASF140
 1716 0918 13       		.byte	0x13
 1717 0919 3A       		.byte	0x3a
 1718 091a A9000000 		.4byte	0xa9
 1719 091e 09       		.byte	0x9
 1720 091f 07       		.uleb128 0x7
 1721 0920 2B020000 		.4byte	.LASF141
 1722 0924 13       		.byte	0x13
 1723 0925 3B       		.byte	0x3b
 1724 0926 A9000000 		.4byte	0xa9
 1725 092a 0A       		.byte	0xa
 1726 092b 07       		.uleb128 0x7
 1727 092c 4C070000 		.4byte	.LASF142
 1728 0930 13       		.byte	0x13
 1729 0931 3C       		.byte	0x3c
 1730 0932 A9000000 		.4byte	0xa9
 1731 0936 0B       		.byte	0xb
 1732 0937 07       		.uleb128 0x7
 1733 0938 3C080000 		.4byte	.LASF143
 1734 093c 13       		.byte	0x13
 1735 093d 3D       		.byte	0x3d
 1736 093e A9000000 		.4byte	0xa9
 1737 0942 0C       		.byte	0xc
 1738 0943 07       		.uleb128 0x7
 1739 0944 C1080000 		.4byte	.LASF144
 1740 0948 13       		.byte	0x13
 1741 0949 3E       		.byte	0x3e
 1742 094a A9000000 		.4byte	0xa9
 1743 094e 0D       		.byte	0xd
 1744 094f 07       		.uleb128 0x7
 1745 0950 00000000 		.4byte	.LASF145
 1746 0954 13       		.byte	0x13
 1747 0955 3F       		.byte	0x3f
 1748 0956 A9000000 		.4byte	0xa9
 1749 095a 0E       		.byte	0xe
 1750 095b 07       		.uleb128 0x7
 1751 095c A8050000 		.4byte	.LASF146
 1752 0960 13       		.byte	0x13
 1753 0961 40       		.byte	0x40
 1754 0962 A9000000 		.4byte	0xa9
 1755 0966 0F       		.byte	0xf
 1756 0967 07       		.uleb128 0x7
 1757 0968 C5020000 		.4byte	.LASF147
 1758 096c 13       		.byte	0x13
 1759 096d 41       		.byte	0x41
 1760 096e A9000000 		.4byte	0xa9
ARM GAS  C:\Users\Moi\AppData\Local\Temp\cc1tL7gc.s 			page 32


 1761 0972 10       		.byte	0x10
 1762 0973 07       		.uleb128 0x7
 1763 0974 9E020000 		.4byte	.LASF148
 1764 0978 13       		.byte	0x13
 1765 0979 43       		.byte	0x43
 1766 097a A9000000 		.4byte	0xa9
 1767 097e 11       		.byte	0x11
 1768 097f 07       		.uleb128 0x7
 1769 0980 D5020000 		.4byte	.LASF149
 1770 0984 13       		.byte	0x13
 1771 0985 44       		.byte	0x44
 1772 0986 A9000000 		.4byte	0xa9
 1773 098a 12       		.byte	0x12
 1774 098b 07       		.uleb128 0x7
 1775 098c 18050000 		.4byte	.LASF150
 1776 0990 13       		.byte	0x13
 1777 0991 45       		.byte	0x45
 1778 0992 A9000000 		.4byte	0xa9
 1779 0996 13       		.byte	0x13
 1780 0997 07       		.uleb128 0x7
 1781 0998 AC060000 		.4byte	.LASF151
 1782 099c 13       		.byte	0x13
 1783 099d 46       		.byte	0x46
 1784 099e A9000000 		.4byte	0xa9
 1785 09a2 14       		.byte	0x14
 1786 09a3 07       		.uleb128 0x7
 1787 09a4 AA040000 		.4byte	.LASF152
 1788 09a8 13       		.byte	0x13
 1789 09a9 48       		.byte	0x48
 1790 09aa A9000000 		.4byte	0xa9
 1791 09ae 15       		.byte	0x15
 1792 09af 00       		.byte	0
 1793 09b0 17       		.uleb128 0x17
 1794 09b1 9C080000 		.4byte	0x89c
 1795 09b5 C0090000 		.4byte	0x9c0
 1796 09b9 18       		.uleb128 0x18
 1797 09ba 2C000000 		.4byte	0x2c
 1798 09be 03       		.byte	0x3
 1799 09bf 00       		.byte	0
 1800 09c0 04       		.uleb128 0x4
 1801 09c1 3B030000 		.4byte	.LASF153
 1802 09c5 13       		.byte	0x13
 1803 09c6 49       		.byte	0x49
 1804 09c7 CF080000 		.4byte	0x8cf
 1805 09cb 1B       		.uleb128 0x1b
 1806 09cc C0090000 		.4byte	0x9c0
 1807 09d0 13       		.uleb128 0x13
 1808 09d1 2D040000 		.4byte	.LASF154
 1809 09d5 13       		.byte	0x13
 1810 09d6 6E       		.byte	0x6e
 1811 09d7 CB090000 		.4byte	0x9cb
 1812 09db 04       		.uleb128 0x4
 1813 09dc A6030000 		.4byte	.LASF155
 1814 09e0 12       		.byte	0x12
 1815 09e1 34       		.byte	0x34
 1816 09e2 4E080000 		.4byte	0x84e
 1817 09e6 0A       		.uleb128 0xa
ARM GAS  C:\Users\Moi\AppData\Local\Temp\cc1tL7gc.s 			page 33


 1818 09e7 04       		.byte	0x4
 1819 09e8 DB090000 		.4byte	0x9db
 1820 09ec 1D       		.uleb128 0x1d
 1821 09ed FF060000 		.4byte	.LASF183
 1822 09f1 01       		.byte	0x1
 1823 09f2 90       		.byte	0x90
 1824 09f3 00000000 		.4byte	.LFB221
 1825 09f7 80000000 		.4byte	.LFE221-.LFB221
 1826 09fb 01       		.uleb128 0x1
 1827 09fc 9C       		.byte	0x9c
 1828 09fd 5B0B0000 		.4byte	0xb5b
 1829 0a01 1E       		.uleb128 0x1e
 1830 0a02 747000   		.ascii	"tp\000"
 1831 0a05 01       		.byte	0x1
 1832 0a06 90       		.byte	0x90
 1833 0a07 A2020000 		.4byte	0x2a2
 1834 0a0b 00000000 		.4byte	.LLST12
 1835 0a0f 1E       		.uleb128 0x1e
 1836 0a10 6D736700 		.ascii	"msg\000"
 1837 0a14 01       		.byte	0x1
 1838 0a15 90       		.byte	0x90
 1839 0a16 32010000 		.4byte	0x132
 1840 0a1a 1E000000 		.4byte	.LLST13
 1841 0a1e 1F       		.uleb128 0x1f
 1842 0a1f C3060000 		.4byte	.LASF156
 1843 0a23 6B0B0000 		.4byte	0xb6b
 1844 0a27 05       		.uleb128 0x5
 1845 0a28 03       		.byte	0x3
 1846 0a29 00000000 		.4byte	__func__.7860
 1847 0a2d 20       		.uleb128 0x20
 1848 0a2e DD0E0000 		.4byte	0xedd
 1849 0a32 0E000000 		.4byte	.LBB115
 1850 0a36 0E000000 		.4byte	.LBE115-.LBB115
 1851 0a3a 01       		.byte	0x1
 1852 0a3b 92       		.byte	0x92
 1853 0a3c 820A0000 		.4byte	0xa82
 1854 0a40 21       		.uleb128 0x21
 1855 0a41 430F0000 		.4byte	0xf43
 1856 0a45 0E000000 		.4byte	.LBB117
 1857 0a49 06000000 		.4byte	.LBE117-.LBB117
 1858 0a4d 03       		.byte	0x3
 1859 0a4e 5C01     		.2byte	0x15c
 1860 0a50 6F0A0000 		.4byte	0xa6f
 1861 0a54 22       		.uleb128 0x22
 1862 0a55 4C0F0000 		.4byte	0xf4c
 1863 0a59 0E000000 		.4byte	.LBB118
 1864 0a5d 06000000 		.4byte	.LBE118-.LBB118
 1865 0a61 0D       		.byte	0xd
 1866 0a62 BF01     		.2byte	0x1bf
 1867 0a64 23       		.uleb128 0x23
 1868 0a65 590F0000 		.4byte	0xf59
 1869 0a69 3C000000 		.4byte	.LLST14
 1870 0a6d 00       		.byte	0
 1871 0a6e 00       		.byte	0
 1872 0a6f 24       		.uleb128 0x24
 1873 0a70 18000000 		.4byte	.LVL44
 1874 0a74 660F0000 		.4byte	0xf66
ARM GAS  C:\Users\Moi\AppData\Local\Temp\cc1tL7gc.s 			page 34


 1875 0a78 24       		.uleb128 0x24
 1876 0a79 1C000000 		.4byte	.LVL45
 1877 0a7d 710F0000 		.4byte	0xf71
 1878 0a81 00       		.byte	0
 1879 0a82 20       		.uleb128 0x20
 1880 0a83 690E0000 		.4byte	0xe69
 1881 0a87 2A000000 		.4byte	.LBB120
 1882 0a8b 0C000000 		.4byte	.LBE120-.LBB120
 1883 0a8f 01       		.byte	0x1
 1884 0a90 94       		.byte	0x94
 1885 0a91 C70A0000 		.4byte	0xac7
 1886 0a95 23       		.uleb128 0x23
 1887 0a96 7F0E0000 		.4byte	0xe7f
 1888 0a9a 51000000 		.4byte	.LLST15
 1889 0a9e 23       		.uleb128 0x23
 1890 0a9f 750E0000 		.4byte	0xe75
 1891 0aa3 64000000 		.4byte	.LLST16
 1892 0aa7 24       		.uleb128 0x24
 1893 0aa8 2E000000 		.4byte	.LVL47
 1894 0aac 7C0F0000 		.4byte	0xf7c
 1895 0ab0 25       		.uleb128 0x25
 1896 0ab1 36000000 		.4byte	.LVL48
 1897 0ab5 870F0000 		.4byte	0xf87
 1898 0ab9 26       		.uleb128 0x26
 1899 0aba 01       		.uleb128 0x1
 1900 0abb 50       		.byte	0x50
 1901 0abc 02       		.uleb128 0x2
 1902 0abd 75       		.byte	0x75
 1903 0abe 00       		.sleb128 0
 1904 0abf 26       		.uleb128 0x26
 1905 0ac0 01       		.uleb128 0x1
 1906 0ac1 51       		.byte	0x51
 1907 0ac2 02       		.uleb128 0x2
 1908 0ac3 76       		.byte	0x76
 1909 0ac4 00       		.sleb128 0
 1910 0ac5 00       		.byte	0
 1911 0ac6 00       		.byte	0
 1912 0ac7 27       		.uleb128 0x27
 1913 0ac8 AD0E0000 		.4byte	0xead
 1914 0acc 36000000 		.4byte	.LBB122
 1915 0ad0 98000000 		.4byte	.Ldebug_ranges0+0x98
 1916 0ad4 01       		.byte	0x1
 1917 0ad5 95       		.byte	0x95
 1918 0ad6 3A0B0000 		.4byte	0xb3a
 1919 0ada 28       		.uleb128 0x28
 1920 0adb 98000000 		.4byte	.Ldebug_ranges0+0x98
 1921 0adf 29       		.uleb128 0x29
 1922 0ae0 BA0E0000 		.4byte	0xeba
 1923 0ae4 21       		.uleb128 0x21
 1924 0ae5 3A0F0000 		.4byte	0xf3a
 1925 0ae9 50000000 		.4byte	.LBB124
 1926 0aed 06000000 		.4byte	.LBE124-.LBB124
 1927 0af1 03       		.byte	0x3
 1928 0af2 7301     		.2byte	0x173
 1929 0af4 130B0000 		.4byte	0xb13
 1930 0af8 22       		.uleb128 0x22
 1931 0af9 4C0F0000 		.4byte	0xf4c
ARM GAS  C:\Users\Moi\AppData\Local\Temp\cc1tL7gc.s 			page 35


 1932 0afd 50000000 		.4byte	.LBB125
 1933 0b01 06000000 		.4byte	.LBE125-.LBB125
 1934 0b05 0D       		.byte	0xd
 1935 0b06 CD01     		.2byte	0x1cd
 1936 0b08 23       		.uleb128 0x23
 1937 0b09 590F0000 		.4byte	0xf59
 1938 0b0d 77000000 		.4byte	.LLST17
 1939 0b11 00       		.byte	0
 1940 0b12 00       		.byte	0
 1941 0b13 24       		.uleb128 0x24
 1942 0b14 3A000000 		.4byte	.LVL49
 1943 0b18 930F0000 		.4byte	0xf93
 1944 0b1c 24       		.uleb128 0x24
 1945 0b1d 3E000000 		.4byte	.LVL50
 1946 0b21 9E0F0000 		.4byte	0xf9e
 1947 0b25 25       		.uleb128 0x25
 1948 0b26 68000000 		.4byte	.LVL54
 1949 0b2a A90F0000 		.4byte	0xfa9
 1950 0b2e 26       		.uleb128 0x26
 1951 0b2f 01       		.uleb128 0x1
 1952 0b30 50       		.byte	0x50
 1953 0b31 05       		.uleb128 0x5
 1954 0b32 03       		.byte	0x3
 1955 0b33 00000000 		.4byte	.LANCHOR1
 1956 0b37 00       		.byte	0
 1957 0b38 00       		.byte	0
 1958 0b39 00       		.byte	0
 1959 0b3a 2A       		.uleb128 0x2a
 1960 0b3b 2A000000 		.4byte	.LVL46
 1961 0b3f A90F0000 		.4byte	0xfa9
 1962 0b43 510B0000 		.4byte	0xb51
 1963 0b47 26       		.uleb128 0x26
 1964 0b48 01       		.uleb128 0x1
 1965 0b49 50       		.byte	0x50
 1966 0b4a 05       		.uleb128 0x5
 1967 0b4b 03       		.byte	0x3
 1968 0b4c 00000000 		.4byte	.LANCHOR2
 1969 0b50 00       		.byte	0
 1970 0b51 24       		.uleb128 0x24
 1971 0b52 6E000000 		.4byte	.LVL55
 1972 0b56 B50F0000 		.4byte	0xfb5
 1973 0b5a 00       		.byte	0
 1974 0b5b 17       		.uleb128 0x17
 1975 0b5c A3080000 		.4byte	0x8a3
 1976 0b60 6B0B0000 		.4byte	0xb6b
 1977 0b64 18       		.uleb128 0x18
 1978 0b65 2C000000 		.4byte	0x2c
 1979 0b69 0C       		.byte	0xc
 1980 0b6a 00       		.byte	0
 1981 0b6b 1B       		.uleb128 0x1b
 1982 0b6c 5B0B0000 		.4byte	0xb5b
 1983 0b70 2B       		.uleb128 0x2b
 1984 0b71 2A080000 		.4byte	.LASF157
 1985 0b75 01       		.byte	0x1
 1986 0b76 78       		.byte	0x78
 1987 0b77 A2020000 		.4byte	0x2a2
 1988 0b7b 00000000 		.4byte	.LFB220
ARM GAS  C:\Users\Moi\AppData\Local\Temp\cc1tL7gc.s 			page 36


 1989 0b7f 88000000 		.4byte	.LFE220-.LFB220
 1990 0b83 01       		.uleb128 0x1
 1991 0b84 9C       		.byte	0x9c
 1992 0b85 CA0C0000 		.4byte	0xcca
 1993 0b89 2C       		.uleb128 0x2c
 1994 0b8a 747000   		.ascii	"tp\000"
 1995 0b8d 01       		.byte	0x1
 1996 0b8e 79       		.byte	0x79
 1997 0b8f A2020000 		.4byte	0x2a2
 1998 0b93 27       		.uleb128 0x27
 1999 0b94 DD0E0000 		.4byte	0xedd
 2000 0b98 0A000000 		.4byte	.LBB81
 2001 0b9c 38000000 		.4byte	.Ldebug_ranges0+0x38
 2002 0ba0 01       		.byte	0x1
 2003 0ba1 7B       		.byte	0x7b
 2004 0ba2 E80B0000 		.4byte	0xbe8
 2005 0ba6 21       		.uleb128 0x21
 2006 0ba7 430F0000 		.4byte	0xf43
 2007 0bab 0A000000 		.4byte	.LBB83
 2008 0baf 06000000 		.4byte	.LBE83-.LBB83
 2009 0bb3 03       		.byte	0x3
 2010 0bb4 5C01     		.2byte	0x15c
 2011 0bb6 D50B0000 		.4byte	0xbd5
 2012 0bba 22       		.uleb128 0x22
 2013 0bbb 4C0F0000 		.4byte	0xf4c
 2014 0bbf 0A000000 		.4byte	.LBB84
 2015 0bc3 06000000 		.4byte	.LBE84-.LBB84
 2016 0bc7 0D       		.byte	0xd
 2017 0bc8 BF01     		.2byte	0x1bf
 2018 0bca 23       		.uleb128 0x23
 2019 0bcb 590F0000 		.4byte	0xf59
 2020 0bcf 8B000000 		.4byte	.LLST7
 2021 0bd3 00       		.byte	0
 2022 0bd4 00       		.byte	0
 2023 0bd5 24       		.uleb128 0x24
 2024 0bd6 16000000 		.4byte	.LVL26
 2025 0bda 660F0000 		.4byte	0xf66
 2026 0bde 24       		.uleb128 0x24
 2027 0bdf 1A000000 		.4byte	.LVL27
 2028 0be3 710F0000 		.4byte	0xf71
 2029 0be7 00       		.byte	0
 2030 0be8 27       		.uleb128 0x27
 2031 0be9 8B0E0000 		.4byte	0xe8b
 2032 0bed 1C000000 		.4byte	.LBB88
 2033 0bf1 50000000 		.4byte	.Ldebug_ranges0+0x50
 2034 0bf5 01       		.byte	0x1
 2035 0bf6 7C       		.byte	0x7c
 2036 0bf7 0E0C0000 		.4byte	0xc0e
 2037 0bfb 23       		.uleb128 0x23
 2038 0bfc 9B0E0000 		.4byte	0xe9b
 2039 0c00 A0000000 		.4byte	.LLST8
 2040 0c04 24       		.uleb128 0x24
 2041 0c05 20000000 		.4byte	.LVL29
 2042 0c09 BE0F0000 		.4byte	0xfbe
 2043 0c0d 00       		.byte	0
 2044 0c0e 27       		.uleb128 0x27
 2045 0c0f E60E0000 		.4byte	0xee6
ARM GAS  C:\Users\Moi\AppData\Local\Temp\cc1tL7gc.s 			page 37


 2046 0c13 2A000000 		.4byte	.LBB92
 2047 0c17 68000000 		.4byte	.Ldebug_ranges0+0x68
 2048 0c1b 01       		.byte	0x1
 2049 0c1c 7F       		.byte	0x7f
 2050 0c1d 3A0C0000 		.4byte	0xc3a
 2051 0c21 23       		.uleb128 0x23
 2052 0c22 F70E0000 		.4byte	0xef7
 2053 0c26 B3000000 		.4byte	.LLST9
 2054 0c2a 28       		.uleb128 0x28
 2055 0c2b 68000000 		.4byte	.Ldebug_ranges0+0x68
 2056 0c2f 2D       		.uleb128 0x2d
 2057 0c30 030F0000 		.4byte	0xf03
 2058 0c34 D3000000 		.4byte	.LLST10
 2059 0c38 00       		.byte	0
 2060 0c39 00       		.byte	0
 2061 0c3a 27       		.uleb128 0x27
 2062 0c3b AD0E0000 		.4byte	0xead
 2063 0c3f 3A000000 		.4byte	.LBB96
 2064 0c43 80000000 		.4byte	.Ldebug_ranges0+0x80
 2065 0c47 01       		.byte	0x1
 2066 0c48 81       		.byte	0x81
 2067 0c49 AD0C0000 		.4byte	0xcad
 2068 0c4d 28       		.uleb128 0x28
 2069 0c4e 80000000 		.4byte	.Ldebug_ranges0+0x80
 2070 0c52 29       		.uleb128 0x29
 2071 0c53 BA0E0000 		.4byte	0xeba
 2072 0c57 21       		.uleb128 0x21
 2073 0c58 3A0F0000 		.4byte	0xf3a
 2074 0c5c 52000000 		.4byte	.LBB98
 2075 0c60 06000000 		.4byte	.LBE98-.LBB98
 2076 0c64 03       		.byte	0x3
 2077 0c65 7301     		.2byte	0x173
 2078 0c67 860C0000 		.4byte	0xc86
 2079 0c6b 22       		.uleb128 0x22
 2080 0c6c 4C0F0000 		.4byte	0xf4c
 2081 0c70 52000000 		.4byte	.LBB99
 2082 0c74 06000000 		.4byte	.LBE99-.LBB99
 2083 0c78 0D       		.byte	0xd
 2084 0c79 CD01     		.2byte	0x1cd
 2085 0c7b 23       		.uleb128 0x23
 2086 0c7c 590F0000 		.4byte	0xf59
 2087 0c80 E6000000 		.4byte	.LLST11
 2088 0c84 00       		.byte	0
 2089 0c85 00       		.byte	0
 2090 0c86 24       		.uleb128 0x24
 2091 0c87 3E000000 		.4byte	.LVL34
 2092 0c8b 930F0000 		.4byte	0xf93
 2093 0c8f 24       		.uleb128 0x24
 2094 0c90 42000000 		.4byte	.LVL35
 2095 0c94 9E0F0000 		.4byte	0xf9e
 2096 0c98 25       		.uleb128 0x25
 2097 0c99 6C000000 		.4byte	.LVL38
 2098 0c9d A90F0000 		.4byte	0xfa9
 2099 0ca1 26       		.uleb128 0x26
 2100 0ca2 01       		.uleb128 0x1
 2101 0ca3 50       		.byte	0x50
 2102 0ca4 05       		.uleb128 0x5
ARM GAS  C:\Users\Moi\AppData\Local\Temp\cc1tL7gc.s 			page 38


 2103 0ca5 03       		.byte	0x3
 2104 0ca6 00000000 		.4byte	.LANCHOR1
 2105 0caa 00       		.byte	0
 2106 0cab 00       		.byte	0
 2107 0cac 00       		.byte	0
 2108 0cad 2A       		.uleb128 0x2a
 2109 0cae 74000000 		.4byte	.LVL39
 2110 0cb2 C90F0000 		.4byte	0xfc9
 2111 0cb6 C00C0000 		.4byte	0xcc0
 2112 0cba 26       		.uleb128 0x26
 2113 0cbb 01       		.uleb128 0x1
 2114 0cbc 50       		.byte	0x50
 2115 0cbd 01       		.uleb128 0x1
 2116 0cbe 3E       		.byte	0x3e
 2117 0cbf 00       		.byte	0
 2118 0cc0 24       		.uleb128 0x24
 2119 0cc1 7A000000 		.4byte	.LVL40
 2120 0cc5 B50F0000 		.4byte	0xfb5
 2121 0cc9 00       		.byte	0
 2122 0cca 2B       		.uleb128 0x2b
 2123 0ccb 22030000 		.4byte	.LASF158
 2124 0ccf 01       		.byte	0x1
 2125 0cd0 57       		.byte	0x57
 2126 0cd1 32010000 		.4byte	0x132
 2127 0cd5 00000000 		.4byte	.LFB219
 2128 0cd9 A4000000 		.4byte	.LFE219-.LFB219
 2129 0cdd 01       		.uleb128 0x1
 2130 0cde 9C       		.byte	0x9c
 2131 0cdf 540E0000 		.4byte	0xe54
 2132 0ce3 1E       		.uleb128 0x1e
 2133 0ce4 747000   		.ascii	"tp\000"
 2134 0ce7 01       		.byte	0x1
 2135 0ce8 57       		.byte	0x57
 2136 0ce9 A2020000 		.4byte	0x2a2
 2137 0ced FA000000 		.4byte	.LLST0
 2138 0cf1 1E       		.uleb128 0x1e
 2139 0cf2 6D736700 		.ascii	"msg\000"
 2140 0cf6 01       		.byte	0x1
 2141 0cf7 57       		.byte	0x57
 2142 0cf8 32010000 		.4byte	0x132
 2143 0cfc 2E010000 		.4byte	.LLST1
 2144 0d00 2E       		.uleb128 0x2e
 2145 0d01 63747000 		.ascii	"ctp\000"
 2146 0d05 01       		.byte	0x1
 2147 0d06 58       		.byte	0x58
 2148 0d07 A2020000 		.4byte	0x2a2
 2149 0d0b A4010000 		.4byte	.LLST2
 2150 0d0f 1F       		.uleb128 0x1f
 2151 0d10 C3060000 		.4byte	.LASF156
 2152 0d14 640E0000 		.4byte	0xe64
 2153 0d18 05       		.uleb128 0x5
 2154 0d19 03       		.byte	0x3
 2155 0d1a 00000000 		.4byte	__func__.7851
 2156 0d1e 20       		.uleb128 0x20
 2157 0d1f DD0E0000 		.4byte	0xedd
 2158 0d23 18000000 		.4byte	.LBB49
 2159 0d27 0E000000 		.4byte	.LBE49-.LBB49
ARM GAS  C:\Users\Moi\AppData\Local\Temp\cc1tL7gc.s 			page 39


 2160 0d2b 01       		.byte	0x1
 2161 0d2c 5C       		.byte	0x5c
 2162 0d2d 730D0000 		.4byte	0xd73
 2163 0d31 21       		.uleb128 0x21
 2164 0d32 430F0000 		.4byte	0xf43
 2165 0d36 18000000 		.4byte	.LBB51
 2166 0d3a 06000000 		.4byte	.LBE51-.LBB51
 2167 0d3e 03       		.byte	0x3
 2168 0d3f 5C01     		.2byte	0x15c
 2169 0d41 600D0000 		.4byte	0xd60
 2170 0d45 22       		.uleb128 0x22
 2171 0d46 4C0F0000 		.4byte	0xf4c
 2172 0d4a 18000000 		.4byte	.LBB52
 2173 0d4e 06000000 		.4byte	.LBE52-.LBB52
 2174 0d52 0D       		.byte	0xd
 2175 0d53 BF01     		.2byte	0x1bf
 2176 0d55 23       		.uleb128 0x23
 2177 0d56 590F0000 		.4byte	0xf59
 2178 0d5a C2010000 		.4byte	.LLST3
 2179 0d5e 00       		.byte	0
 2180 0d5f 00       		.byte	0
 2181 0d60 24       		.uleb128 0x24
 2182 0d61 22000000 		.4byte	.LVL4
 2183 0d65 660F0000 		.4byte	0xf66
 2184 0d69 24       		.uleb128 0x24
 2185 0d6a 26000000 		.4byte	.LVL5
 2186 0d6e 710F0000 		.4byte	0xf71
 2187 0d72 00       		.byte	0
 2188 0d73 27       		.uleb128 0x27
 2189 0d74 150F0000 		.4byte	0xf15
 2190 0d78 26000000 		.4byte	.LBB54
 2191 0d7c 00000000 		.4byte	.Ldebug_ranges0+0
 2192 0d80 01       		.byte	0x1
 2193 0d81 5F       		.byte	0x5f
 2194 0d82 990D0000 		.4byte	0xd99
 2195 0d86 23       		.uleb128 0x23
 2196 0d87 2D0F0000 		.4byte	0xf2d
 2197 0d8b D7010000 		.4byte	.LLST4
 2198 0d8f 23       		.uleb128 0x23
 2199 0d90 220F0000 		.4byte	0xf22
 2200 0d94 EA010000 		.4byte	.LLST5
 2201 0d98 00       		.byte	0
 2202 0d99 27       		.uleb128 0x27
 2203 0d9a AD0E0000 		.4byte	0xead
 2204 0d9e 4A000000 		.4byte	.LBB60
 2205 0da2 20000000 		.4byte	.Ldebug_ranges0+0x20
 2206 0da6 01       		.byte	0x1
 2207 0da7 65       		.byte	0x65
 2208 0da8 0C0E0000 		.4byte	0xe0c
 2209 0dac 28       		.uleb128 0x28
 2210 0dad 20000000 		.4byte	.Ldebug_ranges0+0x20
 2211 0db1 29       		.uleb128 0x29
 2212 0db2 BA0E0000 		.4byte	0xeba
 2213 0db6 21       		.uleb128 0x21
 2214 0db7 3A0F0000 		.4byte	0xf3a
 2215 0dbb 62000000 		.4byte	.LBB62
 2216 0dbf 06000000 		.4byte	.LBE62-.LBB62
ARM GAS  C:\Users\Moi\AppData\Local\Temp\cc1tL7gc.s 			page 40


 2217 0dc3 03       		.byte	0x3
 2218 0dc4 7301     		.2byte	0x173
 2219 0dc6 E50D0000 		.4byte	0xde5
 2220 0dca 22       		.uleb128 0x22
 2221 0dcb 4C0F0000 		.4byte	0xf4c
 2222 0dcf 62000000 		.4byte	.LBB63
 2223 0dd3 06000000 		.4byte	.LBE63-.LBB63
 2224 0dd7 0D       		.byte	0xd
 2225 0dd8 CD01     		.2byte	0x1cd
 2226 0dda 23       		.uleb128 0x23
 2227 0ddb 590F0000 		.4byte	0xf59
 2228 0ddf FD010000 		.4byte	.LLST6
 2229 0de3 00       		.byte	0
 2230 0de4 00       		.byte	0
 2231 0de5 24       		.uleb128 0x24
 2232 0de6 4E000000 		.4byte	.LVL10
 2233 0dea 930F0000 		.4byte	0xf93
 2234 0dee 24       		.uleb128 0x24
 2235 0def 52000000 		.4byte	.LVL11
 2236 0df3 9E0F0000 		.4byte	0xf9e
 2237 0df7 25       		.uleb128 0x25
 2238 0df8 7E000000 		.4byte	.LVL16
 2239 0dfc A90F0000 		.4byte	0xfa9
 2240 0e00 26       		.uleb128 0x26
 2241 0e01 01       		.uleb128 0x1
 2242 0e02 50       		.byte	0x50
 2243 0e03 05       		.uleb128 0x5
 2244 0e04 03       		.byte	0x3
 2245 0e05 00000000 		.4byte	.LANCHOR1
 2246 0e09 00       		.byte	0
 2247 0e0a 00       		.byte	0
 2248 0e0b 00       		.byte	0
 2249 0e0c 2A       		.uleb128 0x2a
 2250 0e0d 48000000 		.4byte	.LVL8
 2251 0e11 C90F0000 		.4byte	0xfc9
 2252 0e15 1F0E0000 		.4byte	0xe1f
 2253 0e19 26       		.uleb128 0x26
 2254 0e1a 01       		.uleb128 0x1
 2255 0e1b 50       		.byte	0x50
 2256 0e1c 01       		.uleb128 0x1
 2257 0e1d 3C       		.byte	0x3c
 2258 0e1e 00       		.byte	0
 2259 0e1f 2A       		.uleb128 0x2a
 2260 0e20 86000000 		.4byte	.LVL18
 2261 0e24 D50F0000 		.4byte	0xfd5
 2262 0e28 330E0000 		.4byte	0xe33
 2263 0e2c 26       		.uleb128 0x26
 2264 0e2d 01       		.uleb128 0x1
 2265 0e2e 50       		.byte	0x50
 2266 0e2f 02       		.uleb128 0x2
 2267 0e30 75       		.byte	0x75
 2268 0e31 00       		.sleb128 0
 2269 0e32 00       		.byte	0
 2270 0e33 2A       		.uleb128 0x2a
 2271 0e34 8E000000 		.4byte	.LVL21
 2272 0e38 A90F0000 		.4byte	0xfa9
 2273 0e3c 4A0E0000 		.4byte	0xe4a
ARM GAS  C:\Users\Moi\AppData\Local\Temp\cc1tL7gc.s 			page 41


 2274 0e40 26       		.uleb128 0x26
 2275 0e41 01       		.uleb128 0x1
 2276 0e42 50       		.byte	0x50
 2277 0e43 05       		.uleb128 0x5
 2278 0e44 03       		.byte	0x3
 2279 0e45 00000000 		.4byte	.LANCHOR0
 2280 0e49 00       		.byte	0
 2281 0e4a 24       		.uleb128 0x24
 2282 0e4b 94000000 		.4byte	.LVL23
 2283 0e4f B50F0000 		.4byte	0xfb5
 2284 0e53 00       		.byte	0
 2285 0e54 17       		.uleb128 0x17
 2286 0e55 A3080000 		.4byte	0x8a3
 2287 0e59 640E0000 		.4byte	0xe64
 2288 0e5d 18       		.uleb128 0x18
 2289 0e5e 2C000000 		.4byte	0x2c
 2290 0e62 09       		.byte	0x9
 2291 0e63 00       		.byte	0
 2292 0e64 1B       		.uleb128 0x1b
 2293 0e65 540E0000 		.4byte	0xe54
 2294 0e69 2F       		.uleb128 0x2f
 2295 0e6a 04090000 		.4byte	.LASF160
 2296 0e6e 05       		.byte	0x5
 2297 0e6f 6F       		.byte	0x6f
 2298 0e70 03       		.byte	0x3
 2299 0e71 8B0E0000 		.4byte	0xe8b
 2300 0e75 30       		.uleb128 0x30
 2301 0e76 747000   		.ascii	"tp\000"
 2302 0e79 05       		.byte	0x5
 2303 0e7a 6F       		.byte	0x6f
 2304 0e7b A2020000 		.4byte	0x2a2
 2305 0e7f 30       		.uleb128 0x30
 2306 0e80 6D736700 		.ascii	"msg\000"
 2307 0e84 05       		.byte	0x5
 2308 0e85 6F       		.byte	0x6f
 2309 0e86 32010000 		.4byte	0x132
 2310 0e8a 00       		.byte	0
 2311 0e8b 31       		.uleb128 0x31
 2312 0e8c 45030000 		.4byte	.LASF162
 2313 0e90 05       		.byte	0x5
 2314 0e91 4F       		.byte	0x4f
 2315 0e92 A60E0000 		.4byte	0xea6
 2316 0e96 03       		.byte	0x3
 2317 0e97 A60E0000 		.4byte	0xea6
 2318 0e9b 30       		.uleb128 0x30
 2319 0e9c 747000   		.ascii	"tp\000"
 2320 0e9f 05       		.byte	0x5
 2321 0ea0 4F       		.byte	0x4f
 2322 0ea1 A2020000 		.4byte	0x2a2
 2323 0ea5 00       		.byte	0
 2324 0ea6 03       		.uleb128 0x3
 2325 0ea7 01       		.byte	0x1
 2326 0ea8 02       		.byte	0x2
 2327 0ea9 4D060000 		.4byte	.LASF159
 2328 0ead 32       		.uleb128 0x32
 2329 0eae ED080000 		.4byte	.LASF161
 2330 0eb2 03       		.byte	0x3
ARM GAS  C:\Users\Moi\AppData\Local\Temp\cc1tL7gc.s 			page 42


 2331 0eb3 6601     		.2byte	0x166
 2332 0eb5 03       		.byte	0x3
 2333 0eb6 C80E0000 		.4byte	0xec8
 2334 0eba 33       		.uleb128 0x33
 2335 0ebb C3060000 		.4byte	.LASF156
 2336 0ebf D80E0000 		.4byte	0xed8
 2337 0ec3 ED080000 		.4byte	.LASF161
 2338 0ec7 00       		.byte	0
 2339 0ec8 17       		.uleb128 0x17
 2340 0ec9 A3080000 		.4byte	0x8a3
 2341 0ecd D80E0000 		.4byte	0xed8
 2342 0ed1 18       		.uleb128 0x18
 2343 0ed2 2C000000 		.4byte	0x2c
 2344 0ed6 0B       		.byte	0xb
 2345 0ed7 00       		.byte	0
 2346 0ed8 1B       		.uleb128 0x1b
 2347 0ed9 C80E0000 		.4byte	0xec8
 2348 0edd 34       		.uleb128 0x34
 2349 0ede D4060000 		.4byte	.LASF165
 2350 0ee2 03       		.byte	0x3
 2351 0ee3 5A01     		.2byte	0x15a
 2352 0ee5 03       		.byte	0x3
 2353 0ee6 35       		.uleb128 0x35
 2354 0ee7 BB070000 		.4byte	.LASF163
 2355 0eeb 04       		.byte	0x4
 2356 0eec 9F02     		.2byte	0x29f
 2357 0eee A2020000 		.4byte	0x2a2
 2358 0ef2 03       		.byte	0x3
 2359 0ef3 0F0F0000 		.4byte	0xf0f
 2360 0ef7 36       		.uleb128 0x36
 2361 0ef8 74717000 		.ascii	"tqp\000"
 2362 0efc 04       		.byte	0x4
 2363 0efd 9F02     		.2byte	0x29f
 2364 0eff 0F0F0000 		.4byte	0xf0f
 2365 0f03 37       		.uleb128 0x37
 2366 0f04 747000   		.ascii	"tp\000"
 2367 0f07 04       		.byte	0x4
 2368 0f08 A002     		.2byte	0x2a0
 2369 0f0a A2020000 		.4byte	0x2a2
 2370 0f0e 00       		.byte	0
 2371 0f0f 0A       		.uleb128 0xa
 2372 0f10 04       		.byte	0x4
 2373 0f11 CC020000 		.4byte	0x2cc
 2374 0f15 32       		.uleb128 0x32
 2375 0f16 1A000000 		.4byte	.LASF164
 2376 0f1a 04       		.byte	0x4
 2377 0f1b 9702     		.2byte	0x297
 2378 0f1d 03       		.byte	0x3
 2379 0f1e 3A0F0000 		.4byte	0xf3a
 2380 0f22 36       		.uleb128 0x36
 2381 0f23 747000   		.ascii	"tp\000"
 2382 0f26 04       		.byte	0x4
 2383 0f27 9702     		.2byte	0x297
 2384 0f29 A2020000 		.4byte	0x2a2
 2385 0f2d 36       		.uleb128 0x36
 2386 0f2e 74717000 		.ascii	"tqp\000"
 2387 0f32 04       		.byte	0x4
ARM GAS  C:\Users\Moi\AppData\Local\Temp\cc1tL7gc.s 			page 43


 2388 0f33 9702     		.2byte	0x297
 2389 0f35 0F0F0000 		.4byte	0xf0f
 2390 0f39 00       		.byte	0
 2391 0f3a 34       		.uleb128 0x34
 2392 0f3b F9020000 		.4byte	.LASF166
 2393 0f3f 0D       		.byte	0xd
 2394 0f40 CA01     		.2byte	0x1ca
 2395 0f42 03       		.byte	0x3
 2396 0f43 34       		.uleb128 0x34
 2397 0f44 80000000 		.4byte	.LASF167
 2398 0f48 0D       		.byte	0xd
 2399 0f49 BC01     		.2byte	0x1bc
 2400 0f4b 03       		.byte	0x3
 2401 0f4c 32       		.uleb128 0x32
 2402 0f4d F6070000 		.4byte	.LASF168
 2403 0f51 02       		.byte	0x2
 2404 0f52 2002     		.2byte	0x220
 2405 0f54 03       		.byte	0x3
 2406 0f55 660F0000 		.4byte	0xf66
 2407 0f59 38       		.uleb128 0x38
 2408 0f5a AE030000 		.4byte	.LASF169
 2409 0f5e 02       		.byte	0x2
 2410 0f5f 2002     		.2byte	0x220
 2411 0f61 CF000000 		.4byte	0xcf
 2412 0f65 00       		.byte	0
 2413 0f66 39       		.uleb128 0x39
 2414 0f67 4D020000 		.4byte	.LASF170
 2415 0f6b 4D020000 		.4byte	.LASF170
 2416 0f6f 10       		.byte	0x10
 2417 0f70 4F       		.byte	0x4f
 2418 0f71 39       		.uleb128 0x39
 2419 0f72 53050000 		.4byte	.LASF171
 2420 0f76 53050000 		.4byte	.LASF171
 2421 0f7a 0E       		.byte	0xe
 2422 0f7b D8       		.byte	0xd8
 2423 0f7c 39       		.uleb128 0x39
 2424 0f7d B6040000 		.4byte	.LASF172
 2425 0f81 B6040000 		.4byte	.LASF172
 2426 0f85 0E       		.byte	0xe
 2427 0f86 DF       		.byte	0xdf
 2428 0f87 3A       		.uleb128 0x3a
 2429 0f88 6E040000 		.4byte	.LASF173
 2430 0f8c 6E040000 		.4byte	.LASF173
 2431 0f90 04       		.byte	0x4
 2432 0f91 1602     		.2byte	0x216
 2433 0f93 39       		.uleb128 0x39
 2434 0f94 95080000 		.4byte	.LASF174
 2435 0f98 95080000 		.4byte	.LASF174
 2436 0f9c 0E       		.byte	0xe
 2437 0f9d D9       		.byte	0xd9
 2438 0f9e 39       		.uleb128 0x39
 2439 0f9f 2E050000 		.4byte	.LASF175
 2440 0fa3 2E050000 		.4byte	.LASF175
 2441 0fa7 10       		.byte	0x10
 2442 0fa8 50       		.byte	0x50
 2443 0fa9 3A       		.uleb128 0x3a
 2444 0faa 86030000 		.4byte	.LASF176
ARM GAS  C:\Users\Moi\AppData\Local\Temp\cc1tL7gc.s 			page 44


 2445 0fae 86030000 		.4byte	.LASF176
 2446 0fb2 03       		.byte	0x3
 2447 0fb3 1601     		.2byte	0x116
 2448 0fb5 3B       		.uleb128 0x3b
 2449 0fb6 0C070000 		.4byte	.LASF184
 2450 0fba 0C070000 		.4byte	.LASF184
 2451 0fbe 39       		.uleb128 0x39
 2452 0fbf 8D040000 		.4byte	.LASF177
 2453 0fc3 8D040000 		.4byte	.LASF177
 2454 0fc7 0E       		.byte	0xe
 2455 0fc8 DE       		.byte	0xde
 2456 0fc9 3A       		.uleb128 0x3a
 2457 0fca 2A070000 		.4byte	.LASF178
 2458 0fce 2A070000 		.4byte	.LASF178
 2459 0fd2 04       		.byte	0x4
 2460 0fd3 1402     		.2byte	0x214
 2461 0fd5 3A       		.uleb128 0x3a
 2462 0fd6 60070000 		.4byte	.LASF179
 2463 0fda 60070000 		.4byte	.LASF179
 2464 0fde 04       		.byte	0x4
 2465 0fdf 1302     		.2byte	0x213
 2466 0fe1 00       		.byte	0
 2467              		.section	.debug_abbrev,"",%progbits
 2468              	.Ldebug_abbrev0:
 2469 0000 01       		.uleb128 0x1
 2470 0001 11       		.uleb128 0x11
 2471 0002 01       		.byte	0x1
 2472 0003 25       		.uleb128 0x25
 2473 0004 0E       		.uleb128 0xe
 2474 0005 13       		.uleb128 0x13
 2475 0006 0B       		.uleb128 0xb
 2476 0007 03       		.uleb128 0x3
 2477 0008 0E       		.uleb128 0xe
 2478 0009 1B       		.uleb128 0x1b
 2479 000a 0E       		.uleb128 0xe
 2480 000b 55       		.uleb128 0x55
 2481 000c 17       		.uleb128 0x17
 2482 000d 11       		.uleb128 0x11
 2483 000e 01       		.uleb128 0x1
 2484 000f 10       		.uleb128 0x10
 2485 0010 17       		.uleb128 0x17
 2486 0011 00       		.byte	0
 2487 0012 00       		.byte	0
 2488 0013 02       		.uleb128 0x2
 2489 0014 24       		.uleb128 0x24
 2490 0015 00       		.byte	0
 2491 0016 0B       		.uleb128 0xb
 2492 0017 0B       		.uleb128 0xb
 2493 0018 3E       		.uleb128 0x3e
 2494 0019 0B       		.uleb128 0xb
 2495 001a 03       		.uleb128 0x3
 2496 001b 08       		.uleb128 0x8
 2497 001c 00       		.byte	0
 2498 001d 00       		.byte	0
 2499 001e 03       		.uleb128 0x3
 2500 001f 24       		.uleb128 0x24
 2501 0020 00       		.byte	0
ARM GAS  C:\Users\Moi\AppData\Local\Temp\cc1tL7gc.s 			page 45


 2502 0021 0B       		.uleb128 0xb
 2503 0022 0B       		.uleb128 0xb
 2504 0023 3E       		.uleb128 0x3e
 2505 0024 0B       		.uleb128 0xb
 2506 0025 03       		.uleb128 0x3
 2507 0026 0E       		.uleb128 0xe
 2508 0027 00       		.byte	0
 2509 0028 00       		.byte	0
 2510 0029 04       		.uleb128 0x4
 2511 002a 16       		.uleb128 0x16
 2512 002b 00       		.byte	0
 2513 002c 03       		.uleb128 0x3
 2514 002d 0E       		.uleb128 0xe
 2515 002e 3A       		.uleb128 0x3a
 2516 002f 0B       		.uleb128 0xb
 2517 0030 3B       		.uleb128 0x3b
 2518 0031 0B       		.uleb128 0xb
 2519 0032 49       		.uleb128 0x49
 2520 0033 13       		.uleb128 0x13
 2521 0034 00       		.byte	0
 2522 0035 00       		.byte	0
 2523 0036 05       		.uleb128 0x5
 2524 0037 35       		.uleb128 0x35
 2525 0038 00       		.byte	0
 2526 0039 49       		.uleb128 0x49
 2527 003a 13       		.uleb128 0x13
 2528 003b 00       		.byte	0
 2529 003c 00       		.byte	0
 2530 003d 06       		.uleb128 0x6
 2531 003e 13       		.uleb128 0x13
 2532 003f 01       		.byte	0x1
 2533 0040 03       		.uleb128 0x3
 2534 0041 0E       		.uleb128 0xe
 2535 0042 0B       		.uleb128 0xb
 2536 0043 0B       		.uleb128 0xb
 2537 0044 3A       		.uleb128 0x3a
 2538 0045 0B       		.uleb128 0xb
 2539 0046 3B       		.uleb128 0x3b
 2540 0047 0B       		.uleb128 0xb
 2541 0048 01       		.uleb128 0x1
 2542 0049 13       		.uleb128 0x13
 2543 004a 00       		.byte	0
 2544 004b 00       		.byte	0
 2545 004c 07       		.uleb128 0x7
 2546 004d 0D       		.uleb128 0xd
 2547 004e 00       		.byte	0
 2548 004f 03       		.uleb128 0x3
 2549 0050 0E       		.uleb128 0xe
 2550 0051 3A       		.uleb128 0x3a
 2551 0052 0B       		.uleb128 0xb
 2552 0053 3B       		.uleb128 0x3b
 2553 0054 0B       		.uleb128 0xb
 2554 0055 49       		.uleb128 0x49
 2555 0056 13       		.uleb128 0x13
 2556 0057 38       		.uleb128 0x38
 2557 0058 0B       		.uleb128 0xb
 2558 0059 00       		.byte	0
ARM GAS  C:\Users\Moi\AppData\Local\Temp\cc1tL7gc.s 			page 46


 2559 005a 00       		.byte	0
 2560 005b 08       		.uleb128 0x8
 2561 005c 0D       		.uleb128 0xd
 2562 005d 00       		.byte	0
 2563 005e 03       		.uleb128 0x3
 2564 005f 08       		.uleb128 0x8
 2565 0060 3A       		.uleb128 0x3a
 2566 0061 0B       		.uleb128 0xb
 2567 0062 3B       		.uleb128 0x3b
 2568 0063 05       		.uleb128 0x5
 2569 0064 49       		.uleb128 0x49
 2570 0065 13       		.uleb128 0x13
 2571 0066 38       		.uleb128 0x38
 2572 0067 0B       		.uleb128 0xb
 2573 0068 00       		.byte	0
 2574 0069 00       		.byte	0
 2575 006a 09       		.uleb128 0x9
 2576 006b 0D       		.uleb128 0xd
 2577 006c 00       		.byte	0
 2578 006d 03       		.uleb128 0x3
 2579 006e 0E       		.uleb128 0xe
 2580 006f 3A       		.uleb128 0x3a
 2581 0070 0B       		.uleb128 0xb
 2582 0071 3B       		.uleb128 0x3b
 2583 0072 05       		.uleb128 0x5
 2584 0073 49       		.uleb128 0x49
 2585 0074 13       		.uleb128 0x13
 2586 0075 38       		.uleb128 0x38
 2587 0076 0B       		.uleb128 0xb
 2588 0077 00       		.byte	0
 2589 0078 00       		.byte	0
 2590 0079 0A       		.uleb128 0xa
 2591 007a 0F       		.uleb128 0xf
 2592 007b 00       		.byte	0
 2593 007c 0B       		.uleb128 0xb
 2594 007d 0B       		.uleb128 0xb
 2595 007e 49       		.uleb128 0x49
 2596 007f 13       		.uleb128 0x13
 2597 0080 00       		.byte	0
 2598 0081 00       		.byte	0
 2599 0082 0B       		.uleb128 0xb
 2600 0083 13       		.uleb128 0x13
 2601 0084 01       		.byte	0x1
 2602 0085 03       		.uleb128 0x3
 2603 0086 0E       		.uleb128 0xe
 2604 0087 0B       		.uleb128 0xb
 2605 0088 0B       		.uleb128 0xb
 2606 0089 3A       		.uleb128 0x3a
 2607 008a 0B       		.uleb128 0xb
 2608 008b 3B       		.uleb128 0x3b
 2609 008c 05       		.uleb128 0x5
 2610 008d 01       		.uleb128 0x1
 2611 008e 13       		.uleb128 0x13
 2612 008f 00       		.byte	0
 2613 0090 00       		.byte	0
 2614 0091 0C       		.uleb128 0xc
 2615 0092 15       		.uleb128 0x15
ARM GAS  C:\Users\Moi\AppData\Local\Temp\cc1tL7gc.s 			page 47


 2616 0093 01       		.byte	0x1
 2617 0094 27       		.uleb128 0x27
 2618 0095 19       		.uleb128 0x19
 2619 0096 01       		.uleb128 0x1
 2620 0097 13       		.uleb128 0x13
 2621 0098 00       		.byte	0
 2622 0099 00       		.byte	0
 2623 009a 0D       		.uleb128 0xd
 2624 009b 05       		.uleb128 0x5
 2625 009c 00       		.byte	0
 2626 009d 49       		.uleb128 0x49
 2627 009e 13       		.uleb128 0x13
 2628 009f 00       		.byte	0
 2629 00a0 00       		.byte	0
 2630 00a1 0E       		.uleb128 0xe
 2631 00a2 0F       		.uleb128 0xf
 2632 00a3 00       		.byte	0
 2633 00a4 0B       		.uleb128 0xb
 2634 00a5 0B       		.uleb128 0xb
 2635 00a6 00       		.byte	0
 2636 00a7 00       		.byte	0
 2637 00a8 0F       		.uleb128 0xf
 2638 00a9 13       		.uleb128 0x13
 2639 00aa 01       		.byte	0x1
 2640 00ab 03       		.uleb128 0x3
 2641 00ac 0E       		.uleb128 0xe
 2642 00ad 0B       		.uleb128 0xb
 2643 00ae 05       		.uleb128 0x5
 2644 00af 3A       		.uleb128 0x3a
 2645 00b0 0B       		.uleb128 0xb
 2646 00b1 3B       		.uleb128 0x3b
 2647 00b2 05       		.uleb128 0x5
 2648 00b3 01       		.uleb128 0x1
 2649 00b4 13       		.uleb128 0x13
 2650 00b5 00       		.byte	0
 2651 00b6 00       		.byte	0
 2652 00b7 10       		.uleb128 0x10
 2653 00b8 0D       		.uleb128 0xd
 2654 00b9 00       		.byte	0
 2655 00ba 03       		.uleb128 0x3
 2656 00bb 0E       		.uleb128 0xe
 2657 00bc 3A       		.uleb128 0x3a
 2658 00bd 0B       		.uleb128 0xb
 2659 00be 3B       		.uleb128 0x3b
 2660 00bf 05       		.uleb128 0x5
 2661 00c0 49       		.uleb128 0x49
 2662 00c1 13       		.uleb128 0x13
 2663 00c2 38       		.uleb128 0x38
 2664 00c3 05       		.uleb128 0x5
 2665 00c4 00       		.byte	0
 2666 00c5 00       		.byte	0
 2667 00c6 11       		.uleb128 0x11
 2668 00c7 0D       		.uleb128 0xd
 2669 00c8 00       		.byte	0
 2670 00c9 03       		.uleb128 0x3
 2671 00ca 08       		.uleb128 0x8
 2672 00cb 3A       		.uleb128 0x3a
ARM GAS  C:\Users\Moi\AppData\Local\Temp\cc1tL7gc.s 			page 48


 2673 00cc 0B       		.uleb128 0xb
 2674 00cd 3B       		.uleb128 0x3b
 2675 00ce 05       		.uleb128 0x5
 2676 00cf 49       		.uleb128 0x49
 2677 00d0 13       		.uleb128 0x13
 2678 00d1 38       		.uleb128 0x38
 2679 00d2 05       		.uleb128 0x5
 2680 00d3 00       		.byte	0
 2681 00d4 00       		.byte	0
 2682 00d5 12       		.uleb128 0x12
 2683 00d6 34       		.uleb128 0x34
 2684 00d7 00       		.byte	0
 2685 00d8 03       		.uleb128 0x3
 2686 00d9 0E       		.uleb128 0xe
 2687 00da 3A       		.uleb128 0x3a
 2688 00db 0B       		.uleb128 0xb
 2689 00dc 3B       		.uleb128 0x3b
 2690 00dd 05       		.uleb128 0x5
 2691 00de 49       		.uleb128 0x49
 2692 00df 13       		.uleb128 0x13
 2693 00e0 3F       		.uleb128 0x3f
 2694 00e1 19       		.uleb128 0x19
 2695 00e2 3C       		.uleb128 0x3c
 2696 00e3 19       		.uleb128 0x19
 2697 00e4 00       		.byte	0
 2698 00e5 00       		.byte	0
 2699 00e6 13       		.uleb128 0x13
 2700 00e7 34       		.uleb128 0x34
 2701 00e8 00       		.byte	0
 2702 00e9 03       		.uleb128 0x3
 2703 00ea 0E       		.uleb128 0xe
 2704 00eb 3A       		.uleb128 0x3a
 2705 00ec 0B       		.uleb128 0xb
 2706 00ed 3B       		.uleb128 0x3b
 2707 00ee 0B       		.uleb128 0xb
 2708 00ef 49       		.uleb128 0x49
 2709 00f0 13       		.uleb128 0x13
 2710 00f1 3F       		.uleb128 0x3f
 2711 00f2 19       		.uleb128 0x19
 2712 00f3 3C       		.uleb128 0x3c
 2713 00f4 19       		.uleb128 0x19
 2714 00f5 00       		.byte	0
 2715 00f6 00       		.byte	0
 2716 00f7 14       		.uleb128 0x14
 2717 00f8 0D       		.uleb128 0xd
 2718 00f9 00       		.byte	0
 2719 00fa 03       		.uleb128 0x3
 2720 00fb 08       		.uleb128 0x8
 2721 00fc 3A       		.uleb128 0x3a
 2722 00fd 0B       		.uleb128 0xb
 2723 00fe 3B       		.uleb128 0x3b
 2724 00ff 0B       		.uleb128 0xb
 2725 0100 49       		.uleb128 0x49
 2726 0101 13       		.uleb128 0x13
 2727 0102 38       		.uleb128 0x38
 2728 0103 0B       		.uleb128 0xb
 2729 0104 00       		.byte	0
ARM GAS  C:\Users\Moi\AppData\Local\Temp\cc1tL7gc.s 			page 49


 2730 0105 00       		.byte	0
 2731 0106 15       		.uleb128 0x15
 2732 0107 13       		.uleb128 0x13
 2733 0108 01       		.byte	0x1
 2734 0109 0B       		.uleb128 0xb
 2735 010a 0B       		.uleb128 0xb
 2736 010b 3A       		.uleb128 0x3a
 2737 010c 0B       		.uleb128 0xb
 2738 010d 3B       		.uleb128 0x3b
 2739 010e 0B       		.uleb128 0xb
 2740 010f 01       		.uleb128 0x1
 2741 0110 13       		.uleb128 0x13
 2742 0111 00       		.byte	0
 2743 0112 00       		.byte	0
 2744 0113 16       		.uleb128 0x16
 2745 0114 13       		.uleb128 0x13
 2746 0115 01       		.byte	0x1
 2747 0116 0B       		.uleb128 0xb
 2748 0117 05       		.uleb128 0x5
 2749 0118 3A       		.uleb128 0x3a
 2750 0119 0B       		.uleb128 0xb
 2751 011a 3B       		.uleb128 0x3b
 2752 011b 0B       		.uleb128 0xb
 2753 011c 01       		.uleb128 0x1
 2754 011d 13       		.uleb128 0x13
 2755 011e 00       		.byte	0
 2756 011f 00       		.byte	0
 2757 0120 17       		.uleb128 0x17
 2758 0121 01       		.uleb128 0x1
 2759 0122 01       		.byte	0x1
 2760 0123 49       		.uleb128 0x49
 2761 0124 13       		.uleb128 0x13
 2762 0125 01       		.uleb128 0x1
 2763 0126 13       		.uleb128 0x13
 2764 0127 00       		.byte	0
 2765 0128 00       		.byte	0
 2766 0129 18       		.uleb128 0x18
 2767 012a 21       		.uleb128 0x21
 2768 012b 00       		.byte	0
 2769 012c 49       		.uleb128 0x49
 2770 012d 13       		.uleb128 0x13
 2771 012e 2F       		.uleb128 0x2f
 2772 012f 0B       		.uleb128 0xb
 2773 0130 00       		.byte	0
 2774 0131 00       		.byte	0
 2775 0132 19       		.uleb128 0x19
 2776 0133 17       		.uleb128 0x17
 2777 0134 01       		.byte	0x1
 2778 0135 0B       		.uleb128 0xb
 2779 0136 0B       		.uleb128 0xb
 2780 0137 3A       		.uleb128 0x3a
 2781 0138 0B       		.uleb128 0xb
 2782 0139 3B       		.uleb128 0x3b
 2783 013a 0B       		.uleb128 0xb
 2784 013b 01       		.uleb128 0x1
 2785 013c 13       		.uleb128 0x13
 2786 013d 00       		.byte	0
ARM GAS  C:\Users\Moi\AppData\Local\Temp\cc1tL7gc.s 			page 50


 2787 013e 00       		.byte	0
 2788 013f 1A       		.uleb128 0x1a
 2789 0140 0D       		.uleb128 0xd
 2790 0141 00       		.byte	0
 2791 0142 03       		.uleb128 0x3
 2792 0143 0E       		.uleb128 0xe
 2793 0144 3A       		.uleb128 0x3a
 2794 0145 0B       		.uleb128 0xb
 2795 0146 3B       		.uleb128 0x3b
 2796 0147 05       		.uleb128 0x5
 2797 0148 49       		.uleb128 0x49
 2798 0149 13       		.uleb128 0x13
 2799 014a 00       		.byte	0
 2800 014b 00       		.byte	0
 2801 014c 1B       		.uleb128 0x1b
 2802 014d 26       		.uleb128 0x26
 2803 014e 00       		.byte	0
 2804 014f 49       		.uleb128 0x49
 2805 0150 13       		.uleb128 0x13
 2806 0151 00       		.byte	0
 2807 0152 00       		.byte	0
 2808 0153 1C       		.uleb128 0x1c
 2809 0154 34       		.uleb128 0x34
 2810 0155 00       		.byte	0
 2811 0156 03       		.uleb128 0x3
 2812 0157 08       		.uleb128 0x8
 2813 0158 3A       		.uleb128 0x3a
 2814 0159 0B       		.uleb128 0xb
 2815 015a 3B       		.uleb128 0x3b
 2816 015b 05       		.uleb128 0x5
 2817 015c 49       		.uleb128 0x49
 2818 015d 13       		.uleb128 0x13
 2819 015e 3F       		.uleb128 0x3f
 2820 015f 19       		.uleb128 0x19
 2821 0160 3C       		.uleb128 0x3c
 2822 0161 19       		.uleb128 0x19
 2823 0162 00       		.byte	0
 2824 0163 00       		.byte	0
 2825 0164 1D       		.uleb128 0x1d
 2826 0165 2E       		.uleb128 0x2e
 2827 0166 01       		.byte	0x1
 2828 0167 3F       		.uleb128 0x3f
 2829 0168 19       		.uleb128 0x19
 2830 0169 03       		.uleb128 0x3
 2831 016a 0E       		.uleb128 0xe
 2832 016b 3A       		.uleb128 0x3a
 2833 016c 0B       		.uleb128 0xb
 2834 016d 3B       		.uleb128 0x3b
 2835 016e 0B       		.uleb128 0xb
 2836 016f 27       		.uleb128 0x27
 2837 0170 19       		.uleb128 0x19
 2838 0171 11       		.uleb128 0x11
 2839 0172 01       		.uleb128 0x1
 2840 0173 12       		.uleb128 0x12
 2841 0174 06       		.uleb128 0x6
 2842 0175 40       		.uleb128 0x40
 2843 0176 18       		.uleb128 0x18
ARM GAS  C:\Users\Moi\AppData\Local\Temp\cc1tL7gc.s 			page 51


 2844 0177 9742     		.uleb128 0x2117
 2845 0179 19       		.uleb128 0x19
 2846 017a 01       		.uleb128 0x1
 2847 017b 13       		.uleb128 0x13
 2848 017c 00       		.byte	0
 2849 017d 00       		.byte	0
 2850 017e 1E       		.uleb128 0x1e
 2851 017f 05       		.uleb128 0x5
 2852 0180 00       		.byte	0
 2853 0181 03       		.uleb128 0x3
 2854 0182 08       		.uleb128 0x8
 2855 0183 3A       		.uleb128 0x3a
 2856 0184 0B       		.uleb128 0xb
 2857 0185 3B       		.uleb128 0x3b
 2858 0186 0B       		.uleb128 0xb
 2859 0187 49       		.uleb128 0x49
 2860 0188 13       		.uleb128 0x13
 2861 0189 02       		.uleb128 0x2
 2862 018a 17       		.uleb128 0x17
 2863 018b 00       		.byte	0
 2864 018c 00       		.byte	0
 2865 018d 1F       		.uleb128 0x1f
 2866 018e 34       		.uleb128 0x34
 2867 018f 00       		.byte	0
 2868 0190 03       		.uleb128 0x3
 2869 0191 0E       		.uleb128 0xe
 2870 0192 49       		.uleb128 0x49
 2871 0193 13       		.uleb128 0x13
 2872 0194 34       		.uleb128 0x34
 2873 0195 19       		.uleb128 0x19
 2874 0196 02       		.uleb128 0x2
 2875 0197 18       		.uleb128 0x18
 2876 0198 00       		.byte	0
 2877 0199 00       		.byte	0
 2878 019a 20       		.uleb128 0x20
 2879 019b 1D       		.uleb128 0x1d
 2880 019c 01       		.byte	0x1
 2881 019d 31       		.uleb128 0x31
 2882 019e 13       		.uleb128 0x13
 2883 019f 11       		.uleb128 0x11
 2884 01a0 01       		.uleb128 0x1
 2885 01a1 12       		.uleb128 0x12
 2886 01a2 06       		.uleb128 0x6
 2887 01a3 58       		.uleb128 0x58
 2888 01a4 0B       		.uleb128 0xb
 2889 01a5 59       		.uleb128 0x59
 2890 01a6 0B       		.uleb128 0xb
 2891 01a7 01       		.uleb128 0x1
 2892 01a8 13       		.uleb128 0x13
 2893 01a9 00       		.byte	0
 2894 01aa 00       		.byte	0
 2895 01ab 21       		.uleb128 0x21
 2896 01ac 1D       		.uleb128 0x1d
 2897 01ad 01       		.byte	0x1
 2898 01ae 31       		.uleb128 0x31
 2899 01af 13       		.uleb128 0x13
 2900 01b0 11       		.uleb128 0x11
ARM GAS  C:\Users\Moi\AppData\Local\Temp\cc1tL7gc.s 			page 52


 2901 01b1 01       		.uleb128 0x1
 2902 01b2 12       		.uleb128 0x12
 2903 01b3 06       		.uleb128 0x6
 2904 01b4 58       		.uleb128 0x58
 2905 01b5 0B       		.uleb128 0xb
 2906 01b6 59       		.uleb128 0x59
 2907 01b7 05       		.uleb128 0x5
 2908 01b8 01       		.uleb128 0x1
 2909 01b9 13       		.uleb128 0x13
 2910 01ba 00       		.byte	0
 2911 01bb 00       		.byte	0
 2912 01bc 22       		.uleb128 0x22
 2913 01bd 1D       		.uleb128 0x1d
 2914 01be 01       		.byte	0x1
 2915 01bf 31       		.uleb128 0x31
 2916 01c0 13       		.uleb128 0x13
 2917 01c1 11       		.uleb128 0x11
 2918 01c2 01       		.uleb128 0x1
 2919 01c3 12       		.uleb128 0x12
 2920 01c4 06       		.uleb128 0x6
 2921 01c5 58       		.uleb128 0x58
 2922 01c6 0B       		.uleb128 0xb
 2923 01c7 59       		.uleb128 0x59
 2924 01c8 05       		.uleb128 0x5
 2925 01c9 00       		.byte	0
 2926 01ca 00       		.byte	0
 2927 01cb 23       		.uleb128 0x23
 2928 01cc 05       		.uleb128 0x5
 2929 01cd 00       		.byte	0
 2930 01ce 31       		.uleb128 0x31
 2931 01cf 13       		.uleb128 0x13
 2932 01d0 02       		.uleb128 0x2
 2933 01d1 17       		.uleb128 0x17
 2934 01d2 00       		.byte	0
 2935 01d3 00       		.byte	0
 2936 01d4 24       		.uleb128 0x24
 2937 01d5 898201   		.uleb128 0x4109
 2938 01d8 00       		.byte	0
 2939 01d9 11       		.uleb128 0x11
 2940 01da 01       		.uleb128 0x1
 2941 01db 31       		.uleb128 0x31
 2942 01dc 13       		.uleb128 0x13
 2943 01dd 00       		.byte	0
 2944 01de 00       		.byte	0
 2945 01df 25       		.uleb128 0x25
 2946 01e0 898201   		.uleb128 0x4109
 2947 01e3 01       		.byte	0x1
 2948 01e4 11       		.uleb128 0x11
 2949 01e5 01       		.uleb128 0x1
 2950 01e6 31       		.uleb128 0x31
 2951 01e7 13       		.uleb128 0x13
 2952 01e8 00       		.byte	0
 2953 01e9 00       		.byte	0
 2954 01ea 26       		.uleb128 0x26
 2955 01eb 8A8201   		.uleb128 0x410a
 2956 01ee 00       		.byte	0
 2957 01ef 02       		.uleb128 0x2
ARM GAS  C:\Users\Moi\AppData\Local\Temp\cc1tL7gc.s 			page 53


 2958 01f0 18       		.uleb128 0x18
 2959 01f1 9142     		.uleb128 0x2111
 2960 01f3 18       		.uleb128 0x18
 2961 01f4 00       		.byte	0
 2962 01f5 00       		.byte	0
 2963 01f6 27       		.uleb128 0x27
 2964 01f7 1D       		.uleb128 0x1d
 2965 01f8 01       		.byte	0x1
 2966 01f9 31       		.uleb128 0x31
 2967 01fa 13       		.uleb128 0x13
 2968 01fb 52       		.uleb128 0x52
 2969 01fc 01       		.uleb128 0x1
 2970 01fd 55       		.uleb128 0x55
 2971 01fe 17       		.uleb128 0x17
 2972 01ff 58       		.uleb128 0x58
 2973 0200 0B       		.uleb128 0xb
 2974 0201 59       		.uleb128 0x59
 2975 0202 0B       		.uleb128 0xb
 2976 0203 01       		.uleb128 0x1
 2977 0204 13       		.uleb128 0x13
 2978 0205 00       		.byte	0
 2979 0206 00       		.byte	0
 2980 0207 28       		.uleb128 0x28
 2981 0208 0B       		.uleb128 0xb
 2982 0209 01       		.byte	0x1
 2983 020a 55       		.uleb128 0x55
 2984 020b 17       		.uleb128 0x17
 2985 020c 00       		.byte	0
 2986 020d 00       		.byte	0
 2987 020e 29       		.uleb128 0x29
 2988 020f 34       		.uleb128 0x34
 2989 0210 00       		.byte	0
 2990 0211 31       		.uleb128 0x31
 2991 0212 13       		.uleb128 0x13
 2992 0213 00       		.byte	0
 2993 0214 00       		.byte	0
 2994 0215 2A       		.uleb128 0x2a
 2995 0216 898201   		.uleb128 0x4109
 2996 0219 01       		.byte	0x1
 2997 021a 11       		.uleb128 0x11
 2998 021b 01       		.uleb128 0x1
 2999 021c 31       		.uleb128 0x31
 3000 021d 13       		.uleb128 0x13
 3001 021e 01       		.uleb128 0x1
 3002 021f 13       		.uleb128 0x13
 3003 0220 00       		.byte	0
 3004 0221 00       		.byte	0
 3005 0222 2B       		.uleb128 0x2b
 3006 0223 2E       		.uleb128 0x2e
 3007 0224 01       		.byte	0x1
 3008 0225 3F       		.uleb128 0x3f
 3009 0226 19       		.uleb128 0x19
 3010 0227 03       		.uleb128 0x3
 3011 0228 0E       		.uleb128 0xe
 3012 0229 3A       		.uleb128 0x3a
 3013 022a 0B       		.uleb128 0xb
 3014 022b 3B       		.uleb128 0x3b
ARM GAS  C:\Users\Moi\AppData\Local\Temp\cc1tL7gc.s 			page 54


 3015 022c 0B       		.uleb128 0xb
 3016 022d 27       		.uleb128 0x27
 3017 022e 19       		.uleb128 0x19
 3018 022f 49       		.uleb128 0x49
 3019 0230 13       		.uleb128 0x13
 3020 0231 11       		.uleb128 0x11
 3021 0232 01       		.uleb128 0x1
 3022 0233 12       		.uleb128 0x12
 3023 0234 06       		.uleb128 0x6
 3024 0235 40       		.uleb128 0x40
 3025 0236 18       		.uleb128 0x18
 3026 0237 9742     		.uleb128 0x2117
 3027 0239 19       		.uleb128 0x19
 3028 023a 01       		.uleb128 0x1
 3029 023b 13       		.uleb128 0x13
 3030 023c 00       		.byte	0
 3031 023d 00       		.byte	0
 3032 023e 2C       		.uleb128 0x2c
 3033 023f 34       		.uleb128 0x34
 3034 0240 00       		.byte	0
 3035 0241 03       		.uleb128 0x3
 3036 0242 08       		.uleb128 0x8
 3037 0243 3A       		.uleb128 0x3a
 3038 0244 0B       		.uleb128 0xb
 3039 0245 3B       		.uleb128 0x3b
 3040 0246 0B       		.uleb128 0xb
 3041 0247 49       		.uleb128 0x49
 3042 0248 13       		.uleb128 0x13
 3043 0249 00       		.byte	0
 3044 024a 00       		.byte	0
 3045 024b 2D       		.uleb128 0x2d
 3046 024c 34       		.uleb128 0x34
 3047 024d 00       		.byte	0
 3048 024e 31       		.uleb128 0x31
 3049 024f 13       		.uleb128 0x13
 3050 0250 02       		.uleb128 0x2
 3051 0251 17       		.uleb128 0x17
 3052 0252 00       		.byte	0
 3053 0253 00       		.byte	0
 3054 0254 2E       		.uleb128 0x2e
 3055 0255 34       		.uleb128 0x34
 3056 0256 00       		.byte	0
 3057 0257 03       		.uleb128 0x3
 3058 0258 08       		.uleb128 0x8
 3059 0259 3A       		.uleb128 0x3a
 3060 025a 0B       		.uleb128 0xb
 3061 025b 3B       		.uleb128 0x3b
 3062 025c 0B       		.uleb128 0xb
 3063 025d 49       		.uleb128 0x49
 3064 025e 13       		.uleb128 0x13
 3065 025f 02       		.uleb128 0x2
 3066 0260 17       		.uleb128 0x17
 3067 0261 00       		.byte	0
 3068 0262 00       		.byte	0
 3069 0263 2F       		.uleb128 0x2f
 3070 0264 2E       		.uleb128 0x2e
 3071 0265 01       		.byte	0x1
ARM GAS  C:\Users\Moi\AppData\Local\Temp\cc1tL7gc.s 			page 55


 3072 0266 03       		.uleb128 0x3
 3073 0267 0E       		.uleb128 0xe
 3074 0268 3A       		.uleb128 0x3a
 3075 0269 0B       		.uleb128 0xb
 3076 026a 3B       		.uleb128 0x3b
 3077 026b 0B       		.uleb128 0xb
 3078 026c 27       		.uleb128 0x27
 3079 026d 19       		.uleb128 0x19
 3080 026e 20       		.uleb128 0x20
 3081 026f 0B       		.uleb128 0xb
 3082 0270 01       		.uleb128 0x1
 3083 0271 13       		.uleb128 0x13
 3084 0272 00       		.byte	0
 3085 0273 00       		.byte	0
 3086 0274 30       		.uleb128 0x30
 3087 0275 05       		.uleb128 0x5
 3088 0276 00       		.byte	0
 3089 0277 03       		.uleb128 0x3
 3090 0278 08       		.uleb128 0x8
 3091 0279 3A       		.uleb128 0x3a
 3092 027a 0B       		.uleb128 0xb
 3093 027b 3B       		.uleb128 0x3b
 3094 027c 0B       		.uleb128 0xb
 3095 027d 49       		.uleb128 0x49
 3096 027e 13       		.uleb128 0x13
 3097 027f 00       		.byte	0
 3098 0280 00       		.byte	0
 3099 0281 31       		.uleb128 0x31
 3100 0282 2E       		.uleb128 0x2e
 3101 0283 01       		.byte	0x1
 3102 0284 03       		.uleb128 0x3
 3103 0285 0E       		.uleb128 0xe
 3104 0286 3A       		.uleb128 0x3a
 3105 0287 0B       		.uleb128 0xb
 3106 0288 3B       		.uleb128 0x3b
 3107 0289 0B       		.uleb128 0xb
 3108 028a 27       		.uleb128 0x27
 3109 028b 19       		.uleb128 0x19
 3110 028c 49       		.uleb128 0x49
 3111 028d 13       		.uleb128 0x13
 3112 028e 20       		.uleb128 0x20
 3113 028f 0B       		.uleb128 0xb
 3114 0290 01       		.uleb128 0x1
 3115 0291 13       		.uleb128 0x13
 3116 0292 00       		.byte	0
 3117 0293 00       		.byte	0
 3118 0294 32       		.uleb128 0x32
 3119 0295 2E       		.uleb128 0x2e
 3120 0296 01       		.byte	0x1
 3121 0297 03       		.uleb128 0x3
 3122 0298 0E       		.uleb128 0xe
 3123 0299 3A       		.uleb128 0x3a
 3124 029a 0B       		.uleb128 0xb
 3125 029b 3B       		.uleb128 0x3b
 3126 029c 05       		.uleb128 0x5
 3127 029d 27       		.uleb128 0x27
 3128 029e 19       		.uleb128 0x19
ARM GAS  C:\Users\Moi\AppData\Local\Temp\cc1tL7gc.s 			page 56


 3129 029f 20       		.uleb128 0x20
 3130 02a0 0B       		.uleb128 0xb
 3131 02a1 01       		.uleb128 0x1
 3132 02a2 13       		.uleb128 0x13
 3133 02a3 00       		.byte	0
 3134 02a4 00       		.byte	0
 3135 02a5 33       		.uleb128 0x33
 3136 02a6 34       		.uleb128 0x34
 3137 02a7 00       		.byte	0
 3138 02a8 03       		.uleb128 0x3
 3139 02a9 0E       		.uleb128 0xe
 3140 02aa 49       		.uleb128 0x49
 3141 02ab 13       		.uleb128 0x13
 3142 02ac 34       		.uleb128 0x34
 3143 02ad 19       		.uleb128 0x19
 3144 02ae 1C       		.uleb128 0x1c
 3145 02af 0E       		.uleb128 0xe
 3146 02b0 00       		.byte	0
 3147 02b1 00       		.byte	0
 3148 02b2 34       		.uleb128 0x34
 3149 02b3 2E       		.uleb128 0x2e
 3150 02b4 00       		.byte	0
 3151 02b5 03       		.uleb128 0x3
 3152 02b6 0E       		.uleb128 0xe
 3153 02b7 3A       		.uleb128 0x3a
 3154 02b8 0B       		.uleb128 0xb
 3155 02b9 3B       		.uleb128 0x3b
 3156 02ba 05       		.uleb128 0x5
 3157 02bb 27       		.uleb128 0x27
 3158 02bc 19       		.uleb128 0x19
 3159 02bd 20       		.uleb128 0x20
 3160 02be 0B       		.uleb128 0xb
 3161 02bf 00       		.byte	0
 3162 02c0 00       		.byte	0
 3163 02c1 35       		.uleb128 0x35
 3164 02c2 2E       		.uleb128 0x2e
 3165 02c3 01       		.byte	0x1
 3166 02c4 03       		.uleb128 0x3
 3167 02c5 0E       		.uleb128 0xe
 3168 02c6 3A       		.uleb128 0x3a
 3169 02c7 0B       		.uleb128 0xb
 3170 02c8 3B       		.uleb128 0x3b
 3171 02c9 05       		.uleb128 0x5
 3172 02ca 27       		.uleb128 0x27
 3173 02cb 19       		.uleb128 0x19
 3174 02cc 49       		.uleb128 0x49
 3175 02cd 13       		.uleb128 0x13
 3176 02ce 20       		.uleb128 0x20
 3177 02cf 0B       		.uleb128 0xb
 3178 02d0 01       		.uleb128 0x1
 3179 02d1 13       		.uleb128 0x13
 3180 02d2 00       		.byte	0
 3181 02d3 00       		.byte	0
 3182 02d4 36       		.uleb128 0x36
 3183 02d5 05       		.uleb128 0x5
 3184 02d6 00       		.byte	0
 3185 02d7 03       		.uleb128 0x3
ARM GAS  C:\Users\Moi\AppData\Local\Temp\cc1tL7gc.s 			page 57


 3186 02d8 08       		.uleb128 0x8
 3187 02d9 3A       		.uleb128 0x3a
 3188 02da 0B       		.uleb128 0xb
 3189 02db 3B       		.uleb128 0x3b
 3190 02dc 05       		.uleb128 0x5
 3191 02dd 49       		.uleb128 0x49
 3192 02de 13       		.uleb128 0x13
 3193 02df 00       		.byte	0
 3194 02e0 00       		.byte	0
 3195 02e1 37       		.uleb128 0x37
 3196 02e2 34       		.uleb128 0x34
 3197 02e3 00       		.byte	0
 3198 02e4 03       		.uleb128 0x3
 3199 02e5 08       		.uleb128 0x8
 3200 02e6 3A       		.uleb128 0x3a
 3201 02e7 0B       		.uleb128 0xb
 3202 02e8 3B       		.uleb128 0x3b
 3203 02e9 05       		.uleb128 0x5
 3204 02ea 49       		.uleb128 0x49
 3205 02eb 13       		.uleb128 0x13
 3206 02ec 00       		.byte	0
 3207 02ed 00       		.byte	0
 3208 02ee 38       		.uleb128 0x38
 3209 02ef 05       		.uleb128 0x5
 3210 02f0 00       		.byte	0
 3211 02f1 03       		.uleb128 0x3
 3212 02f2 0E       		.uleb128 0xe
 3213 02f3 3A       		.uleb128 0x3a
 3214 02f4 0B       		.uleb128 0xb
 3215 02f5 3B       		.uleb128 0x3b
 3216 02f6 05       		.uleb128 0x5
 3217 02f7 49       		.uleb128 0x49
 3218 02f8 13       		.uleb128 0x13
 3219 02f9 00       		.byte	0
 3220 02fa 00       		.byte	0
 3221 02fb 39       		.uleb128 0x39
 3222 02fc 2E       		.uleb128 0x2e
 3223 02fd 00       		.byte	0
 3224 02fe 3F       		.uleb128 0x3f
 3225 02ff 19       		.uleb128 0x19
 3226 0300 3C       		.uleb128 0x3c
 3227 0301 19       		.uleb128 0x19
 3228 0302 6E       		.uleb128 0x6e
 3229 0303 0E       		.uleb128 0xe
 3230 0304 03       		.uleb128 0x3
 3231 0305 0E       		.uleb128 0xe
 3232 0306 3A       		.uleb128 0x3a
 3233 0307 0B       		.uleb128 0xb
 3234 0308 3B       		.uleb128 0x3b
 3235 0309 0B       		.uleb128 0xb
 3236 030a 00       		.byte	0
 3237 030b 00       		.byte	0
 3238 030c 3A       		.uleb128 0x3a
 3239 030d 2E       		.uleb128 0x2e
 3240 030e 00       		.byte	0
 3241 030f 3F       		.uleb128 0x3f
 3242 0310 19       		.uleb128 0x19
ARM GAS  C:\Users\Moi\AppData\Local\Temp\cc1tL7gc.s 			page 58


 3243 0311 3C       		.uleb128 0x3c
 3244 0312 19       		.uleb128 0x19
 3245 0313 6E       		.uleb128 0x6e
 3246 0314 0E       		.uleb128 0xe
 3247 0315 03       		.uleb128 0x3
 3248 0316 0E       		.uleb128 0xe
 3249 0317 3A       		.uleb128 0x3a
 3250 0318 0B       		.uleb128 0xb
 3251 0319 3B       		.uleb128 0x3b
 3252 031a 05       		.uleb128 0x5
 3253 031b 00       		.byte	0
 3254 031c 00       		.byte	0
 3255 031d 3B       		.uleb128 0x3b
 3256 031e 2E       		.uleb128 0x2e
 3257 031f 00       		.byte	0
 3258 0320 3F       		.uleb128 0x3f
 3259 0321 19       		.uleb128 0x19
 3260 0322 3C       		.uleb128 0x3c
 3261 0323 19       		.uleb128 0x19
 3262 0324 6E       		.uleb128 0x6e
 3263 0325 0E       		.uleb128 0xe
 3264 0326 03       		.uleb128 0x3
 3265 0327 0E       		.uleb128 0xe
 3266 0328 00       		.byte	0
 3267 0329 00       		.byte	0
 3268 032a 00       		.byte	0
 3269              		.section	.debug_loc,"",%progbits
 3270              	.Ldebug_loc0:
 3271              	.LLST12:
 3272 0000 00000000 		.4byte	.LVL41
 3273 0004 17000000 		.4byte	.LVL44-1
 3274 0008 0100     		.2byte	0x1
 3275 000a 50       		.byte	0x50
 3276 000b 17000000 		.4byte	.LVL44-1
 3277 000f 80000000 		.4byte	.LFE221
 3278 0013 0100     		.2byte	0x1
 3279 0015 55       		.byte	0x55
 3280 0016 00000000 		.4byte	0
 3281 001a 00000000 		.4byte	0
 3282              	.LLST13:
 3283 001e 00000000 		.4byte	.LVL41
 3284 0022 17000000 		.4byte	.LVL44-1
 3285 0026 0100     		.2byte	0x1
 3286 0028 51       		.byte	0x51
 3287 0029 17000000 		.4byte	.LVL44-1
 3288 002d 80000000 		.4byte	.LFE221
 3289 0031 0100     		.2byte	0x1
 3290 0033 56       		.byte	0x56
 3291 0034 00000000 		.4byte	0
 3292 0038 00000000 		.4byte	0
 3293              	.LLST14:
 3294 003c 0A000000 		.4byte	.LVL42
 3295 0040 14000000 		.4byte	.LVL43
 3296 0044 0300     		.2byte	0x3
 3297 0046 08       		.byte	0x8
 3298 0047 20       		.byte	0x20
 3299 0048 9F       		.byte	0x9f
ARM GAS  C:\Users\Moi\AppData\Local\Temp\cc1tL7gc.s 			page 59


 3300 0049 00000000 		.4byte	0
 3301 004d 00000000 		.4byte	0
 3302              	.LLST15:
 3303 0051 2A000000 		.4byte	.LVL46
 3304 0055 36000000 		.4byte	.LVL48
 3305 0059 0100     		.2byte	0x1
 3306 005b 56       		.byte	0x56
 3307 005c 00000000 		.4byte	0
 3308 0060 00000000 		.4byte	0
 3309              	.LLST16:
 3310 0064 2A000000 		.4byte	.LVL46
 3311 0068 36000000 		.4byte	.LVL48
 3312 006c 0100     		.2byte	0x1
 3313 006e 55       		.byte	0x55
 3314 006f 00000000 		.4byte	0
 3315 0073 00000000 		.4byte	0
 3316              	.LLST17:
 3317 0077 50000000 		.4byte	.LVL51
 3318 007b 56000000 		.4byte	.LVL52
 3319 007f 0200     		.2byte	0x2
 3320 0081 30       		.byte	0x30
 3321 0082 9F       		.byte	0x9f
 3322 0083 00000000 		.4byte	0
 3323 0087 00000000 		.4byte	0
 3324              	.LLST7:
 3325 008b 0A000000 		.4byte	.LVL24
 3326 008f 10000000 		.4byte	.LVL25
 3327 0093 0300     		.2byte	0x3
 3328 0095 08       		.byte	0x8
 3329 0096 20       		.byte	0x20
 3330 0097 9F       		.byte	0x9f
 3331 0098 00000000 		.4byte	0
 3332 009c 00000000 		.4byte	0
 3333              	.LLST8:
 3334 00a0 1C000000 		.4byte	.LVL28
 3335 00a4 20000000 		.4byte	.LVL29
 3336 00a8 0100     		.2byte	0x1
 3337 00aa 55       		.byte	0x55
 3338 00ab 00000000 		.4byte	0
 3339 00af 00000000 		.4byte	0
 3340              	.LLST9:
 3341 00b3 2A000000 		.4byte	.LVL30
 3342 00b7 32000000 		.4byte	.LVL32
 3343 00bb 0300     		.2byte	0x3
 3344 00bd 73       		.byte	0x73
 3345 00be 30       		.sleb128 48
 3346 00bf 9F       		.byte	0x9f
 3347 00c0 32000000 		.4byte	.LVL32
 3348 00c4 36000000 		.4byte	.LVL33
 3349 00c8 0100     		.2byte	0x1
 3350 00ca 53       		.byte	0x53
 3351 00cb 00000000 		.4byte	0
 3352 00cf 00000000 		.4byte	0
 3353              	.LLST10:
 3354 00d3 2C000000 		.4byte	.LVL31
 3355 00d7 36000000 		.4byte	.LVL33
 3356 00db 0100     		.2byte	0x1
ARM GAS  C:\Users\Moi\AppData\Local\Temp\cc1tL7gc.s 			page 60


 3357 00dd 55       		.byte	0x55
 3358 00de 00000000 		.4byte	0
 3359 00e2 00000000 		.4byte	0
 3360              	.LLST11:
 3361 00e6 52000000 		.4byte	.LVL36
 3362 00ea 58000000 		.4byte	.LVL37
 3363 00ee 0200     		.2byte	0x2
 3364 00f0 30       		.byte	0x30
 3365 00f1 9F       		.byte	0x9f
 3366 00f2 00000000 		.4byte	0
 3367 00f6 00000000 		.4byte	0
 3368              	.LLST0:
 3369 00fa 00000000 		.4byte	.LVL0
 3370 00fe 18000000 		.4byte	.LVL2
 3371 0102 0100     		.2byte	0x1
 3372 0104 50       		.byte	0x50
 3373 0105 18000000 		.4byte	.LVL2
 3374 0109 88000000 		.4byte	.LVL19
 3375 010d 0100     		.2byte	0x1
 3376 010f 55       		.byte	0x55
 3377 0110 88000000 		.4byte	.LVL19
 3378 0114 8A000000 		.4byte	.LVL20
 3379 0118 0100     		.2byte	0x1
 3380 011a 50       		.byte	0x50
 3381 011b 8A000000 		.4byte	.LVL20
 3382 011f A4000000 		.4byte	.LFE219
 3383 0123 0100     		.2byte	0x1
 3384 0125 55       		.byte	0x55
 3385 0126 00000000 		.4byte	0
 3386 012a 00000000 		.4byte	0
 3387              	.LLST1:
 3388 012e 00000000 		.4byte	.LVL0
 3389 0132 18000000 		.4byte	.LVL2
 3390 0136 0100     		.2byte	0x1
 3391 0138 51       		.byte	0x51
 3392 0139 18000000 		.4byte	.LVL2
 3393 013d 4A000000 		.4byte	.LVL9
 3394 0141 0100     		.2byte	0x1
 3395 0143 58       		.byte	0x58
 3396 0144 4A000000 		.4byte	.LVL9
 3397 0148 72000000 		.4byte	.LVL14
 3398 014c 0100     		.2byte	0x1
 3399 014e 54       		.byte	0x54
 3400 014f 72000000 		.4byte	.LVL14
 3401 0153 78000000 		.4byte	.LVL15
 3402 0157 0100     		.2byte	0x1
 3403 0159 50       		.byte	0x50
 3404 015a 78000000 		.4byte	.LVL15
 3405 015e 80000000 		.4byte	.LVL17
 3406 0162 0100     		.2byte	0x1
 3407 0164 54       		.byte	0x54
 3408 0165 80000000 		.4byte	.LVL17
 3409 0169 88000000 		.4byte	.LVL19
 3410 016d 0100     		.2byte	0x1
 3411 016f 58       		.byte	0x58
 3412 0170 88000000 		.4byte	.LVL19
 3413 0174 8D000000 		.4byte	.LVL21-1
ARM GAS  C:\Users\Moi\AppData\Local\Temp\cc1tL7gc.s 			page 61


 3414 0178 0100     		.2byte	0x1
 3415 017a 51       		.byte	0x51
 3416 017b 8D000000 		.4byte	.LVL21-1
 3417 017f 90000000 		.4byte	.LVL22
 3418 0183 0100     		.2byte	0x1
 3419 0185 58       		.byte	0x58
 3420 0186 90000000 		.4byte	.LVL22
 3421 018a 93000000 		.4byte	.LVL23-1
 3422 018e 0100     		.2byte	0x1
 3423 0190 50       		.byte	0x50
 3424 0191 93000000 		.4byte	.LVL23-1
 3425 0195 A4000000 		.4byte	.LFE219
 3426 0199 0100     		.2byte	0x1
 3427 019b 54       		.byte	0x54
 3428 019c 00000000 		.4byte	0
 3429 01a0 00000000 		.4byte	0
 3430              	.LLST2:
 3431 01a4 0C000000 		.4byte	.LVL1
 3432 01a8 4A000000 		.4byte	.LVL9
 3433 01ac 0100     		.2byte	0x1
 3434 01ae 54       		.byte	0x54
 3435 01af 80000000 		.4byte	.LVL17
 3436 01b3 90000000 		.4byte	.LVL22
 3437 01b7 0100     		.2byte	0x1
 3438 01b9 54       		.byte	0x54
 3439 01ba 00000000 		.4byte	0
 3440 01be 00000000 		.4byte	0
 3441              	.LLST3:
 3442 01c2 18000000 		.4byte	.LVL2
 3443 01c6 1E000000 		.4byte	.LVL3
 3444 01ca 0300     		.2byte	0x3
 3445 01cc 08       		.byte	0x8
 3446 01cd 20       		.byte	0x20
 3447 01ce 9F       		.byte	0x9f
 3448 01cf 00000000 		.4byte	0
 3449 01d3 00000000 		.4byte	0
 3450              	.LLST4:
 3451 01d7 34000000 		.4byte	.LVL6
 3452 01db 3E000000 		.4byte	.LVL7
 3453 01df 0100     		.2byte	0x1
 3454 01e1 52       		.byte	0x52
 3455 01e2 00000000 		.4byte	0
 3456 01e6 00000000 		.4byte	0
 3457              	.LLST5:
 3458 01ea 34000000 		.4byte	.LVL6
 3459 01ee 3E000000 		.4byte	.LVL7
 3460 01f2 0100     		.2byte	0x1
 3461 01f4 54       		.byte	0x54
 3462 01f5 00000000 		.4byte	0
 3463 01f9 00000000 		.4byte	0
 3464              	.LLST6:
 3465 01fd 62000000 		.4byte	.LVL12
 3466 0201 68000000 		.4byte	.LVL13
 3467 0205 0200     		.2byte	0x2
 3468 0207 30       		.byte	0x30
 3469 0208 9F       		.byte	0x9f
 3470 0209 00000000 		.4byte	0
ARM GAS  C:\Users\Moi\AppData\Local\Temp\cc1tL7gc.s 			page 62


 3471 020d 00000000 		.4byte	0
 3472              		.section	.debug_aranges,"",%progbits
 3473 0000 2C000000 		.4byte	0x2c
 3474 0004 0200     		.2byte	0x2
 3475 0006 00000000 		.4byte	.Ldebug_info0
 3476 000a 04       		.byte	0x4
 3477 000b 00       		.byte	0
 3478 000c 0000     		.2byte	0
 3479 000e 0000     		.2byte	0
 3480 0010 00000000 		.4byte	.LFB219
 3481 0014 A4000000 		.4byte	.LFE219-.LFB219
 3482 0018 00000000 		.4byte	.LFB220
 3483 001c 88000000 		.4byte	.LFE220-.LFB220
 3484 0020 00000000 		.4byte	.LFB221
 3485 0024 80000000 		.4byte	.LFE221-.LFB221
 3486 0028 00000000 		.4byte	0
 3487 002c 00000000 		.4byte	0
 3488              		.section	.debug_ranges,"",%progbits
 3489              	.Ldebug_ranges0:
 3490 0000 26000000 		.4byte	.LBB54
 3491 0004 2A000000 		.4byte	.LBE54
 3492 0008 34000000 		.4byte	.LBB58
 3493 000c 38000000 		.4byte	.LBE58
 3494 0010 3C000000 		.4byte	.LBB59
 3495 0014 3E000000 		.4byte	.LBE59
 3496 0018 00000000 		.4byte	0
 3497 001c 00000000 		.4byte	0
 3498 0020 4A000000 		.4byte	.LBB60
 3499 0024 68000000 		.4byte	.LBE60
 3500 0028 78000000 		.4byte	.LBB66
 3501 002c 80000000 		.4byte	.LBE66
 3502 0030 00000000 		.4byte	0
 3503 0034 00000000 		.4byte	0
 3504 0038 0A000000 		.4byte	.LBB81
 3505 003c 10000000 		.4byte	.LBE81
 3506 0040 12000000 		.4byte	.LBB87
 3507 0044 1A000000 		.4byte	.LBE87
 3508 0048 00000000 		.4byte	0
 3509 004c 00000000 		.4byte	0
 3510 0050 1C000000 		.4byte	.LBB88
 3511 0054 20000000 		.4byte	.LBE88
 3512 0058 22000000 		.4byte	.LBB91
 3513 005c 24000000 		.4byte	.LBE91
 3514 0060 00000000 		.4byte	0
 3515 0064 00000000 		.4byte	0
 3516 0068 2A000000 		.4byte	.LBB92
 3517 006c 32000000 		.4byte	.LBE92
 3518 0070 34000000 		.4byte	.LBB95
 3519 0074 36000000 		.4byte	.LBE95
 3520 0078 00000000 		.4byte	0
 3521 007c 00000000 		.4byte	0
 3522 0080 3A000000 		.4byte	.LBB96
 3523 0084 58000000 		.4byte	.LBE96
 3524 0088 66000000 		.4byte	.LBB102
 3525 008c 6E000000 		.4byte	.LBE102
 3526 0090 00000000 		.4byte	0
 3527 0094 00000000 		.4byte	0
ARM GAS  C:\Users\Moi\AppData\Local\Temp\cc1tL7gc.s 			page 63


 3528 0098 36000000 		.4byte	.LBB122
 3529 009c 56000000 		.4byte	.LBE122
 3530 00a0 62000000 		.4byte	.LBB128
 3531 00a4 6A000000 		.4byte	.LBE128
 3532 00a8 00000000 		.4byte	0
 3533 00ac 00000000 		.4byte	0
 3534 00b0 00000000 		.4byte	.LFB219
 3535 00b4 A4000000 		.4byte	.LFE219
 3536 00b8 00000000 		.4byte	.LFB220
 3537 00bc 88000000 		.4byte	.LFE220
 3538 00c0 00000000 		.4byte	.LFB221
 3539 00c4 80000000 		.4byte	.LFE221
 3540 00c8 00000000 		.4byte	0
 3541 00cc 00000000 		.4byte	0
 3542              		.section	.debug_line,"",%progbits
 3543              	.Ldebug_line0:
 3544 0000 12040000 		.section	.debug_str,"MS",%progbits,1
 3544      0200CC02 
 3544      00000201 
 3544      FB0E0D00 
 3544      01010101 
 3545              	.LASF145:
 3546 0000 63665F6F 		.ascii	"cf_off_older\000"
 3546      66665F6F 
 3546      6C646572 
 3546      00
 3547              	.LASF60:
 3548 000d 72656164 		.ascii	"ready_list_t\000"
 3548      795F6C69 
 3548      73745F74 
 3548      00
 3549              	.LASF164:
 3550 001a 71756575 		.ascii	"queue_insert\000"
 3550      655F696E 
 3550      73657274 
 3550      00
 3551              	.LASF122:
 3552 0027 77747472 		.ascii	"wttrp\000"
 3552      7000
 3553              	.LASF119:
 3554 002d 7264796D 		.ascii	"rdymsg\000"
 3554      736700
 3555              	.LASF19:
 3556 0034 75696E74 		.ascii	"uint64_t\000"
 3556      36345F74 
 3556      00
 3557              	.LASF90:
 3558 003d 6B65726E 		.ascii	"kernel_stats\000"
 3558      656C5F73 
 3558      74617473 
 3558      00
 3559              	.LASF6:
 3560 004a 5F5F7569 		.ascii	"__uint8_t\000"
 3560      6E74385F 
 3560      7400
 3561              	.LASF97:
 3562 0054 706F7274 		.ascii	"port_intctx\000"
ARM GAS  C:\Users\Moi\AppData\Local\Temp\cc1tL7gc.s 			page 64


 3562      5F696E74 
 3562      63747800 
 3563              	.LASF59:
 3564 0060 63685F74 		.ascii	"ch_threads_queue\000"
 3564      68726561 
 3564      64735F71 
 3564      75657565 
 3564      00
 3565              	.LASF79:
 3566 0071 73797374 		.ascii	"system_debug_t\000"
 3566      656D5F64 
 3566      65627567 
 3566      5F7400
 3567              	.LASF167:
 3568 0080 706F7274 		.ascii	"port_lock\000"
 3568      5F6C6F63 
 3568      6B00
 3569              	.LASF182:
 3570 008a 433A5C55 		.ascii	"C:\\Users\\Moi\\Documents\\_microinfo\\_projet\\hug"
 3570      73657273 
 3570      5C4D6F69 
 3570      5C446F63 
 3570      756D656E 
 3571 00b7 756900   		.ascii	"ui\000"
 3572              	.LASF110:
 3573 00ba 776F7273 		.ascii	"worst\000"
 3573      7400
 3574              	.LASF113:
 3575 00c0 74696D65 		.ascii	"time_measurement_t\000"
 3575      5F6D6561 
 3575      73757265 
 3575      6D656E74 
 3575      5F7400
 3576              	.LASF14:
 3577 00d3 6C6F6E67 		.ascii	"long long unsigned int\000"
 3577      206C6F6E 
 3577      6720756E 
 3577      7369676E 
 3577      65642069 
 3578              	.LASF106:
 3579 00ea 63685F74 		.ascii	"ch_trace_buffer_t\000"
 3579      72616365 
 3579      5F627566 
 3579      6665725F 
 3579      7400
 3580              	.LASF180:
 3581 00fc 474E5520 		.ascii	"GNU C11 7.2.1 20170904 (release) [ARM/embedded-7-br"
 3581      43313120 
 3581      372E322E 
 3581      31203230 
 3581      31373039 
 3582 012f 616E6368 		.ascii	"anch revision 255204] -mcpu=cortex-m4 -mfloat-abi=h"
 3582      20726576 
 3582      6973696F 
 3582      6E203235 
 3582      35323034 
 3583 0162 61726420 		.ascii	"ard -mfpu=fpv4-sp-d16 -mno-thumb-interwork -mthumb "
ARM GAS  C:\Users\Moi\AppData\Local\Temp\cc1tL7gc.s 			page 65


 3583      2D6D6670 
 3583      753D6670 
 3583      76342D73 
 3583      702D6431 
 3584 0195 2D676764 		.ascii	"-ggdb -O2 -fomit-frame-pointer -falign-functions=16"
 3584      62202D4F 
 3584      32202D66 
 3584      6F6D6974 
 3584      2D667261 
 3585 01c8 202D6673 		.ascii	" -fstack-protector-all -ffunction-sections -fdata-s"
 3585      7461636B 
 3585      2D70726F 
 3585      74656374 
 3585      6F722D61 
 3586 01fb 65637469 		.ascii	"ections -fno-common -fsingle-precision-constant\000"
 3586      6F6E7320 
 3586      2D666E6F 
 3586      2D636F6D 
 3586      6D6F6E20 
 3587              	.LASF141:
 3588 022b 63685F74 		.ascii	"ch_threadsize\000"
 3588      68726561 
 3588      6473697A 
 3588      6500
 3589              	.LASF120:
 3590 0239 65786974 		.ascii	"exitcode\000"
 3590      636F6465 
 3590      00
 3591              	.LASF89:
 3592 0242 6D61696E 		.ascii	"mainthread\000"
 3592      74687265 
 3592      616400
 3593              	.LASF170:
 3594 024d 5F737461 		.ascii	"_stats_start_measure_crit_thd\000"
 3594      74735F73 
 3594      74617274 
 3594      5F6D6561 
 3594      73757265 
 3595              	.LASF76:
 3596 026b 76697274 		.ascii	"virtual_timers_list_t\000"
 3596      75616C5F 
 3596      74696D65 
 3596      72735F6C 
 3596      6973745F 
 3597              	.LASF92:
 3598 0281 49544D5F 		.ascii	"ITM_RxBuffer\000"
 3598      52784275 
 3598      66666572 
 3598      00
 3599              	.LASF21:
 3600 028e 72747469 		.ascii	"rttime_t\000"
 3600      6D655F74 
 3600      00
 3601              	.LASF35:
 3602 0297 705F7072 		.ascii	"p_prio\000"
 3602      696F00
 3603              	.LASF148:
ARM GAS  C:\Users\Moi\AppData\Local\Temp\cc1tL7gc.s 			page 66


 3604 029e 63665F6F 		.ascii	"cf_off_state\000"
 3604      66665F73 
 3604      74617465 
 3604      00
 3605              	.LASF1:
 3606 02ab 6C6F6E67 		.ascii	"long long int\000"
 3606      206C6F6E 
 3606      6720696E 
 3606      7400
 3607              	.LASF3:
 3608 02b9 7369676E 		.ascii	"signed char\000"
 3608      65642063 
 3608      68617200 
 3609              	.LASF147:
 3610 02c5 63665F6F 		.ascii	"cf_off_stklimit\000"
 3610      66665F73 
 3610      746B6C69 
 3610      6D697400 
 3611              	.LASF149:
 3612 02d5 63665F6F 		.ascii	"cf_off_flags\000"
 3612      66665F66 
 3612      6C616773 
 3612      00
 3613              	.LASF52:
 3614 02e2 705F6D70 		.ascii	"p_mpool\000"
 3614      6F6F6C00 
 3615              	.LASF130:
 3616 02ea 6D5F7175 		.ascii	"m_queue\000"
 3616      65756500 
 3617              	.LASF88:
 3618 02f2 76746C69 		.ascii	"vtlist\000"
 3618      737400
 3619              	.LASF166:
 3620 02f9 706F7274 		.ascii	"port_unlock\000"
 3620      5F756E6C 
 3620      6F636B00 
 3621              	.LASF25:
 3622 0305 74736C69 		.ascii	"tslices_t\000"
 3622      6365735F 
 3622      7400
 3623              	.LASF86:
 3624 030f 63685F73 		.ascii	"ch_system\000"
 3624      79737465 
 3624      6D00
 3625              	.LASF10:
 3626 0319 6C6F6E67 		.ascii	"long int\000"
 3626      20696E74 
 3626      00
 3627              	.LASF158:
 3628 0322 63684D73 		.ascii	"chMsgSend\000"
 3628      6753656E 
 3628      6400
 3629              	.LASF23:
 3630 032c 74737461 		.ascii	"tstate_t\000"
 3630      74655F74 
 3630      00
 3631              	.LASF99:
ARM GAS  C:\Users\Moi\AppData\Local\Temp\cc1tL7gc.s 			page 67


 3632 0335 73655F74 		.ascii	"se_tp\000"
 3632      7000
 3633              	.LASF153:
 3634 033b 63686465 		.ascii	"chdebug_t\000"
 3634      6275675F 
 3634      7400
 3635              	.LASF162:
 3636 0345 63684D73 		.ascii	"chMsgIsPendingI\000"
 3636      67497350 
 3636      656E6469 
 3636      6E674900 
 3637              	.LASF37:
 3638 0355 705F6E65 		.ascii	"p_newer\000"
 3638      77657200 
 3639              	.LASF127:
 3640 035d 735F7175 		.ascii	"s_queue\000"
 3640      65756500 
 3641              	.LASF103:
 3642 0365 74625F73 		.ascii	"tb_size\000"
 3642      697A6500 
 3643              	.LASF65:
 3644 036d 725F6E65 		.ascii	"r_newer\000"
 3644      77657200 
 3645              	.LASF94:
 3646 0375 72656761 		.ascii	"regarm_t\000"
 3646      726D5F74 
 3646      00
 3647              	.LASF72:
 3648 037e 76745F70 		.ascii	"vt_prev\000"
 3648      72657600 
 3649              	.LASF176:
 3650 0386 63685379 		.ascii	"chSysHalt\000"
 3650      7348616C 
 3650      7400
 3651              	.LASF80:
 3652 0390 63685F73 		.ascii	"ch_system_debug\000"
 3652      79737465 
 3652      6D5F6465 
 3652      62756700 
 3653              	.LASF133:
 3654 03a0 6D5F636E 		.ascii	"m_cnt\000"
 3654      7400
 3655              	.LASF155:
 3656 03a6 6D757465 		.ascii	"mutex_t\000"
 3656      785F7400 
 3657              	.LASF169:
 3658 03ae 76616C75 		.ascii	"value\000"
 3658      6500
 3659              	.LASF83:
 3660 03b4 6C6F636B 		.ascii	"lock_cnt\000"
 3660      5F636E74 
 3660      00
 3661              	.LASF91:
 3662 03bd 69646C65 		.ascii	"idle_thread_wa\000"
 3662      5F746872 
 3662      6561645F 
 3662      776100
ARM GAS  C:\Users\Moi\AppData\Local\Temp\cc1tL7gc.s 			page 68


 3663              	.LASF29:
 3664 03cc 636E745F 		.ascii	"cnt_t\000"
 3664      7400
 3665              	.LASF40:
 3666 03d2 705F7374 		.ascii	"p_stklimit\000"
 3666      6B6C696D 
 3666      697400
 3667              	.LASF0:
 3668 03dd 756E7369 		.ascii	"unsigned int\000"
 3668      676E6564 
 3668      20696E74 
 3668      00
 3669              	.LASF71:
 3670 03ea 76745F6E 		.ascii	"vt_next\000"
 3670      65787400 
 3671              	.LASF16:
 3672 03f2 75696E74 		.ascii	"uint16_t\000"
 3672      31365F74 
 3672      00
 3673              	.LASF93:
 3674 03fb 53797374 		.ascii	"SystemCoreClock\000"
 3674      656D436F 
 3674      7265436C 
 3674      6F636B00 
 3675              	.LASF45:
 3676 040b 705F7469 		.ascii	"p_time\000"
 3676      6D6500
 3677              	.LASF123:
 3678 0412 77747365 		.ascii	"wtsemp\000"
 3678      6D7000
 3679              	.LASF73:
 3680 0419 76745F64 		.ascii	"vt_delta\000"
 3680      656C7461 
 3680      00
 3681              	.LASF47:
 3682 0422 705F6D73 		.ascii	"p_msgqueue\000"
 3682      67717565 
 3682      756500
 3683              	.LASF154:
 3684 042d 63685F64 		.ascii	"ch_debug\000"
 3684      65627567 
 3684      00
 3685              	.LASF114:
 3686 0436 6E5F6972 		.ascii	"n_irq\000"
 3686      7100
 3687              	.LASF128:
 3688 043c 735F636E 		.ascii	"s_cnt\000"
 3688      7400
 3689              	.LASF8:
 3690 0442 73686F72 		.ascii	"short unsigned int\000"
 3690      7420756E 
 3690      7369676E 
 3690      65642069 
 3690      6E7400
 3691              	.LASF118:
 3692 0455 6B65726E 		.ascii	"kernel_stats_t\000"
 3692      656C5F73 
ARM GAS  C:\Users\Moi\AppData\Local\Temp\cc1tL7gc.s 			page 69


 3692      74617473 
 3692      5F7400
 3693              	.LASF56:
 3694 0464 63685F74 		.ascii	"ch_thread\000"
 3694      68726561 
 3694      6400
 3695              	.LASF173:
 3696 046e 63685363 		.ascii	"chSchWakeupS\000"
 3696      6857616B 
 3696      65757053 
 3696      00
 3697              	.LASF27:
 3698 047b 6D73675F 		.ascii	"msg_t\000"
 3698      7400
 3699              	.LASF111:
 3700 0481 6C617374 		.ascii	"last\000"
 3700      00
 3701              	.LASF30:
 3702 0486 75636E74 		.ascii	"ucnt_t\000"
 3702      5F7400
 3703              	.LASF177:
 3704 048d 63684462 		.ascii	"chDbgCheckClassI\000"
 3704      67436865 
 3704      636B436C 
 3704      61737349 
 3704      00
 3705              	.LASF85:
 3706 049e 63685F73 		.ascii	"ch_system_t\000"
 3706      79737465 
 3706      6D5F7400 
 3707              	.LASF152:
 3708 04aa 63665F6F 		.ascii	"cf_off_time\000"
 3708      66665F74 
 3708      696D6500 
 3709              	.LASF172:
 3710 04b6 63684462 		.ascii	"chDbgCheckClassS\000"
 3710      67436865 
 3710      636B436C 
 3710      61737353 
 3710      00
 3711              	.LASF117:
 3712 04c7 6D5F6372 		.ascii	"m_crit_isr\000"
 3712      69745F69 
 3712      737200
 3713              	.LASF61:
 3714 04d2 63685F72 		.ascii	"ch_ready_list\000"
 3714      65616479 
 3714      5F6C6973 
 3714      7400
 3715              	.LASF28:
 3716 04e0 6576656E 		.ascii	"eventmask_t\000"
 3716      746D6173 
 3716      6B5F7400 
 3717              	.LASF9:
 3718 04ec 5F5F696E 		.ascii	"__int32_t\000"
 3718      7433325F 
 3718      7400
ARM GAS  C:\Users\Moi\AppData\Local\Temp\cc1tL7gc.s 			page 70


 3719              	.LASF95:
 3720 04f6 73746B61 		.ascii	"stkalign_t\000"
 3720      6C69676E 
 3720      5F7400
 3721              	.LASF55:
 3722 0501 74687265 		.ascii	"threads_list_t\000"
 3722      6164735F 
 3722      6C697374 
 3722      5F7400
 3723              	.LASF136:
 3724 0510 63685F7A 		.ascii	"ch_zero\000"
 3724      65726F00 
 3725              	.LASF150:
 3726 0518 63665F6F 		.ascii	"cf_off_refs\000"
 3726      66665F72 
 3726      65667300 
 3727              	.LASF46:
 3728 0524 705F7761 		.ascii	"p_waiting\000"
 3728      6974696E 
 3728      6700
 3729              	.LASF175:
 3730 052e 5F737461 		.ascii	"_stats_stop_measure_crit_thd\000"
 3730      74735F73 
 3730      746F705F 
 3730      6D656173 
 3730      7572655F 
 3731              	.LASF20:
 3732 054b 7274636E 		.ascii	"rtcnt_t\000"
 3732      745F7400 
 3733              	.LASF171:
 3734 0553 5F646267 		.ascii	"_dbg_check_lock\000"
 3734      5F636865 
 3734      636B5F6C 
 3734      6F636B00 
 3735              	.LASF77:
 3736 0563 63685F76 		.ascii	"ch_virtual_timers_list\000"
 3736      69727475 
 3736      616C5F74 
 3736      696D6572 
 3736      735F6C69 
 3737              	.LASF2:
 3738 057a 6C6F6E67 		.ascii	"long double\000"
 3738      20646F75 
 3738      626C6500 
 3739              	.LASF140:
 3740 0586 63685F74 		.ascii	"ch_timesize\000"
 3740      696D6573 
 3740      697A6500 
 3741              	.LASF104:
 3742 0592 74625F70 		.ascii	"tb_ptr\000"
 3742      747200
 3743              	.LASF102:
 3744 0599 63685F73 		.ascii	"ch_swc_event_t\000"
 3744      77635F65 
 3744      76656E74 
 3744      5F7400
 3745              	.LASF146:
ARM GAS  C:\Users\Moi\AppData\Local\Temp\cc1tL7gc.s 			page 71


 3746 05a8 63665F6F 		.ascii	"cf_off_name\000"
 3746      66665F6E 
 3746      616D6500 
 3747              	.LASF38:
 3748 05b4 705F6F6C 		.ascii	"p_older\000"
 3748      64657200 
 3749              	.LASF64:
 3750 05bc 725F6374 		.ascii	"r_ctx\000"
 3750      7800
 3751              	.LASF36:
 3752 05c2 705F6374 		.ascii	"p_ctx\000"
 3752      7800
 3753              	.LASF108:
 3754 05c8 746D5F63 		.ascii	"tm_calibration_t\000"
 3754      616C6962 
 3754      72617469 
 3754      6F6E5F74 
 3754      00
 3755              	.LASF132:
 3756 05d9 6D5F6E65 		.ascii	"m_next\000"
 3756      787400
 3757              	.LASF67:
 3758 05e0 725F6375 		.ascii	"r_current\000"
 3758      7272656E 
 3758      7400
 3759              	.LASF66:
 3760 05ea 725F6F6C 		.ascii	"r_older\000"
 3760      64657200 
 3761              	.LASF13:
 3762 05f2 5F5F7569 		.ascii	"__uint64_t\000"
 3762      6E743634 
 3762      5F7400
 3763              	.LASF112:
 3764 05fd 63756D75 		.ascii	"cumulative\000"
 3764      6C617469 
 3764      766500
 3765              	.LASF24:
 3766 0608 74726566 		.ascii	"trefs_t\000"
 3766      735F7400 
 3767              	.LASF105:
 3768 0610 74625F62 		.ascii	"tb_buffer\000"
 3768      75666665 
 3768      7200
 3769              	.LASF139:
 3770 061a 63685F70 		.ascii	"ch_ptrsize\000"
 3770      74727369 
 3770      7A6500
 3771              	.LASF69:
 3772 0625 76697274 		.ascii	"virtual_timer_t\000"
 3772      75616C5F 
 3772      74696D65 
 3772      725F7400 
 3773              	.LASF34:
 3774 0635 705F7072 		.ascii	"p_prev\000"
 3774      657600
 3775              	.LASF26:
 3776 063c 74707269 		.ascii	"tprio_t\000"
ARM GAS  C:\Users\Moi\AppData\Local\Temp\cc1tL7gc.s 			page 72


 3776      6F5F7400 
 3777              	.LASF115:
 3778 0644 6E5F6374 		.ascii	"n_ctxswc\000"
 3778      78737763 
 3778      00
 3779              	.LASF159:
 3780 064d 5F426F6F 		.ascii	"_Bool\000"
 3780      6C00
 3781              	.LASF17:
 3782 0653 696E7433 		.ascii	"int32_t\000"
 3782      325F7400 
 3783              	.LASF4:
 3784 065b 756E7369 		.ascii	"unsigned char\000"
 3784      676E6564 
 3784      20636861 
 3784      7200
 3785              	.LASF50:
 3786 0669 705F6D74 		.ascii	"p_mtxlist\000"
 3786      786C6973 
 3786      7400
 3787              	.LASF5:
 3788 0673 73686F72 		.ascii	"short int\000"
 3788      7420696E 
 3788      7400
 3789              	.LASF41:
 3790 067d 705F7374 		.ascii	"p_state\000"
 3790      61746500 
 3791              	.LASF44:
 3792 0685 705F7072 		.ascii	"p_preempt\000"
 3792      65656D70 
 3792      7400
 3793              	.LASF63:
 3794 068f 725F7072 		.ascii	"r_prio\000"
 3794      696F00
 3795              	.LASF125:
 3796 0696 65776D61 		.ascii	"ewmask\000"
 3796      736B00
 3797              	.LASF33:
 3798 069d 705F6E65 		.ascii	"p_next\000"
 3798      787400
 3799              	.LASF22:
 3800 06a4 746D6F64 		.ascii	"tmode_t\000"
 3800      655F7400 
 3801              	.LASF151:
 3802 06ac 63665F6F 		.ascii	"cf_off_preempt\000"
 3802      66665F70 
 3802      7265656D 
 3802      707400
 3803              	.LASF42:
 3804 06bb 705F666C 		.ascii	"p_flags\000"
 3804      61677300 
 3805              	.LASF156:
 3806 06c3 5F5F6675 		.ascii	"__func__\000"
 3806      6E635F5F 
 3806      00
 3807              	.LASF53:
 3808 06cc 705F7374 		.ascii	"p_stats\000"
ARM GAS  C:\Users\Moi\AppData\Local\Temp\cc1tL7gc.s 			page 73


 3808      61747300 
 3809              	.LASF165:
 3810 06d4 63685379 		.ascii	"chSysLock\000"
 3810      734C6F63 
 3810      6B00
 3811              	.LASF58:
 3812 06de 74687265 		.ascii	"threads_queue_t\000"
 3812      6164735F 
 3812      71756575 
 3812      655F7400 
 3813              	.LASF70:
 3814 06ee 63685F76 		.ascii	"ch_virtual_timer\000"
 3814      69727475 
 3814      616C5F74 
 3814      696D6572 
 3814      00
 3815              	.LASF183:
 3816 06ff 63684D73 		.ascii	"chMsgRelease\000"
 3816      6752656C 
 3816      65617365 
 3816      00
 3817              	.LASF184:
 3818 070c 5F5F7374 		.ascii	"__stack_chk_fail\000"
 3818      61636B5F 
 3818      63686B5F 
 3818      6661696C 
 3818      00
 3819              	.LASF126:
 3820 071d 63685F73 		.ascii	"ch_semaphore\000"
 3820      656D6170 
 3820      686F7265 
 3820      00
 3821              	.LASF178:
 3822 072a 63685363 		.ascii	"chSchGoSleepS\000"
 3822      68476F53 
 3822      6C656570 
 3822      5300
 3823              	.LASF49:
 3824 0738 705F6570 		.ascii	"p_epending\000"
 3824      656E6469 
 3824      6E6700
 3825              	.LASF18:
 3826 0743 75696E74 		.ascii	"uint32_t\000"
 3826      33325F74 
 3826      00
 3827              	.LASF142:
 3828 074c 63665F6F 		.ascii	"cf_off_prio\000"
 3828      66665F70 
 3828      72696F00 
 3829              	.LASF62:
 3830 0758 725F7175 		.ascii	"r_queue\000"
 3830      65756500 
 3831              	.LASF179:
 3832 0760 63685363 		.ascii	"chSchReadyI\000"
 3832      68526561 
 3832      64794900 
 3833              	.LASF57:
ARM GAS  C:\Users\Moi\AppData\Local\Temp\cc1tL7gc.s 			page 74


 3834 076c 63685F74 		.ascii	"ch_threads_list\000"
 3834      68726561 
 3834      64735F6C 
 3834      69737400 
 3835              	.LASF137:
 3836 077c 63685F73 		.ascii	"ch_size\000"
 3836      697A6500 
 3837              	.LASF12:
 3838 0784 6C6F6E67 		.ascii	"long unsigned int\000"
 3838      20756E73 
 3838      69676E65 
 3838      6420696E 
 3838      7400
 3839              	.LASF134:
 3840 0796 63686172 		.ascii	"char\000"
 3840      00
 3841              	.LASF124:
 3842 079b 77746D74 		.ascii	"wtmtxp\000"
 3842      787000
 3843              	.LASF7:
 3844 07a2 5F5F7569 		.ascii	"__uint16_t\000"
 3844      6E743136 
 3844      5F7400
 3845              	.LASF32:
 3846 07ad 74687265 		.ascii	"thread_t\000"
 3846      61645F74 
 3846      00
 3847              	.LASF109:
 3848 07b6 62657374 		.ascii	"best\000"
 3848      00
 3849              	.LASF163:
 3850 07bb 71756575 		.ascii	"queue_fifo_remove\000"
 3850      655F6669 
 3850      666F5F72 
 3850      656D6F76 
 3850      6500
 3851              	.LASF31:
 3852 07cd 73797374 		.ascii	"systime_t\000"
 3852      696D655F 
 3852      7400
 3853              	.LASF51:
 3854 07d7 705F7265 		.ascii	"p_realprio\000"
 3854      616C7072 
 3854      696F00
 3855              	.LASF68:
 3856 07e2 76746675 		.ascii	"vtfunc_t\000"
 3856      6E635F74 
 3856      00
 3857              	.LASF11:
 3858 07eb 5F5F7569 		.ascii	"__uint32_t\000"
 3858      6E743332 
 3858      5F7400
 3859              	.LASF168:
 3860 07f6 5F5F7365 		.ascii	"__set_BASEPRI\000"
 3860      745F4241 
 3860      53455052 
 3860      4900
ARM GAS  C:\Users\Moi\AppData\Local\Temp\cc1tL7gc.s 			page 75


 3861              	.LASF81:
 3862 0804 70616E69 		.ascii	"panic_msg\000"
 3862      635F6D73 
 3862      6700
 3863              	.LASF107:
 3864 080e 6F666673 		.ascii	"offset\000"
 3864      657400
 3865              	.LASF96:
 3866 0815 636F6E74 		.ascii	"context\000"
 3866      65787400 
 3867              	.LASF48:
 3868 081d 705F6D73 		.ascii	"p_msg\000"
 3868      6700
 3869              	.LASF75:
 3870 0823 76745F70 		.ascii	"vt_par\000"
 3870      617200
 3871              	.LASF157:
 3872 082a 63684D73 		.ascii	"chMsgWait\000"
 3872      67576169 
 3872      7400
 3873              	.LASF98:
 3874 0834 73655F74 		.ascii	"se_time\000"
 3874      696D6500 
 3875              	.LASF143:
 3876 083c 63665F6F 		.ascii	"cf_off_ctx\000"
 3876      66665F63 
 3876      747800
 3877              	.LASF129:
 3878 0847 63685F6D 		.ascii	"ch_mutex\000"
 3878      75746578 
 3878      00
 3879              	.LASF43:
 3880 0850 705F7265 		.ascii	"p_refs\000"
 3880      667300
 3881              	.LASF82:
 3882 0857 6973725F 		.ascii	"isr_cnt\000"
 3882      636E7400 
 3883              	.LASF181:
 3884 085f 2E2E2F2F 		.ascii	"..//ChibiOS//os/rt/src/chmsg.c\000"
 3884      43686962 
 3884      694F532F 
 3884      2F6F732F 
 3884      72742F73 
 3885              	.LASF101:
 3886 087e 73655F73 		.ascii	"se_state\000"
 3886      74617465 
 3886      00
 3887              	.LASF87:
 3888 0887 726C6973 		.ascii	"rlist\000"
 3888      7400
 3889              	.LASF15:
 3890 088d 75696E74 		.ascii	"uint8_t\000"
 3890      385F7400 
 3891              	.LASF174:
 3892 0895 5F646267 		.ascii	"_dbg_check_unlock\000"
 3892      5F636865 
 3892      636B5F75 
ARM GAS  C:\Users\Moi\AppData\Local\Temp\cc1tL7gc.s 			page 76


 3892      6E6C6F63 
 3892      6B00
 3893              	.LASF54:
 3894 08a7 74687265 		.ascii	"thread_reference_t\000"
 3894      61645F72 
 3894      65666572 
 3894      656E6365 
 3894      5F7400
 3895              	.LASF121:
 3896 08ba 77746F62 		.ascii	"wtobjp\000"
 3896      6A7000
 3897              	.LASF144:
 3898 08c1 63665F6F 		.ascii	"cf_off_newer\000"
 3898      66665F6E 
 3898      65776572 
 3898      00
 3899              	.LASF39:
 3900 08ce 705F6E61 		.ascii	"p_name\000"
 3900      6D6500
 3901              	.LASF78:
 3902 08d5 76745F73 		.ascii	"vt_systime\000"
 3902      79737469 
 3902      6D6500
 3903              	.LASF84:
 3904 08e0 74726163 		.ascii	"trace_buffer\000"
 3904      655F6275 
 3904      66666572 
 3904      00
 3905              	.LASF161:
 3906 08ed 63685379 		.ascii	"chSysUnlock\000"
 3906      73556E6C 
 3906      6F636B00 
 3907              	.LASF138:
 3908 08f9 63685F76 		.ascii	"ch_version\000"
 3908      65727369 
 3908      6F6E00
 3909              	.LASF160:
 3910 0904 63684D73 		.ascii	"chMsgReleaseS\000"
 3910      6752656C 
 3910      65617365 
 3910      5300
 3911              	.LASF116:
 3912 0912 6D5F6372 		.ascii	"m_crit_thd\000"
 3912      69745F74 
 3912      686400
 3913              	.LASF131:
 3914 091d 6D5F6F77 		.ascii	"m_owner\000"
 3914      6E657200 
 3915              	.LASF100:
 3916 0925 73655F77 		.ascii	"se_wtobjp\000"
 3916      746F626A 
 3916      7000
 3917              	.LASF135:
 3918 092f 63685F69 		.ascii	"ch_identifier\000"
 3918      64656E74 
 3918      69666965 
 3918      7200
ARM GAS  C:\Users\Moi\AppData\Local\Temp\cc1tL7gc.s 			page 77


 3919              	.LASF74:
 3920 093d 76745F66 		.ascii	"vt_func\000"
 3920      756E6300 
 3921              		.ident	"GCC: (GNU Tools for Arm Embedded Processors 7-2017-q4-major) 7.2.1 20170904 (release) [ARM
ARM GAS  C:\Users\Moi\AppData\Local\Temp\cc1tL7gc.s 			page 78


DEFINED SYMBOLS
                            *ABS*:00000000 chmsg.c
C:\Users\Moi\AppData\Local\Temp\cc1tL7gc.s:18     .text.chMsgSend:00000000 $t
C:\Users\Moi\AppData\Local\Temp\cc1tL7gc.s:26     .text.chMsgSend:00000000 chMsgSend
C:\Users\Moi\AppData\Local\Temp\cc1tL7gc.s:215    .text.chMsgSend:00000094 $d
C:\Users\Moi\AppData\Local\Temp\cc1tL7gc.s:223    .text.chMsgWait:00000000 $t
C:\Users\Moi\AppData\Local\Temp\cc1tL7gc.s:231    .text.chMsgWait:00000000 chMsgWait
C:\Users\Moi\AppData\Local\Temp\cc1tL7gc.s:400    .text.chMsgWait:0000007c $d
C:\Users\Moi\AppData\Local\Temp\cc1tL7gc.s:407    .text.chMsgRelease:00000000 $t
C:\Users\Moi\AppData\Local\Temp\cc1tL7gc.s:415    .text.chMsgRelease:00000000 chMsgRelease
C:\Users\Moi\AppData\Local\Temp\cc1tL7gc.s:549    .text.chMsgRelease:00000070 $d
C:\Users\Moi\AppData\Local\Temp\cc1tL7gc.s:557    .rodata.__func__.7153:00000000 $d
C:\Users\Moi\AppData\Local\Temp\cc1tL7gc.s:561    .rodata.__func__.7153:00000000 __func__.7153
C:\Users\Moi\AppData\Local\Temp\cc1tL7gc.s:564    .rodata.__func__.7851:00000000 $d
C:\Users\Moi\AppData\Local\Temp\cc1tL7gc.s:568    .rodata.__func__.7851:00000000 __func__.7851
C:\Users\Moi\AppData\Local\Temp\cc1tL7gc.s:571    .rodata.__func__.7860:00000000 $d
C:\Users\Moi\AppData\Local\Temp\cc1tL7gc.s:575    .rodata.__func__.7860:00000000 __func__.7860

UNDEFINED SYMBOLS
_stats_start_measure_crit_thd
_dbg_check_lock
chSchGoSleepS
_dbg_check_unlock
_stats_stop_measure_crit_thd
chSysHalt
chSchReadyI
__stack_chk_fail
__stack_chk_guard
ch
chDbgCheckClassI
chDbgCheckClassS
chSchWakeupS
