ARM GAS  C:\Users\Moi\AppData\Local\Temp\cc1tL7gc.s 			page 1


   1              		.cpu cortex-m4
   2              		.eabi_attribute 27, 1
   3              		.eabi_attribute 28, 1
   4              		.eabi_attribute 20, 1
   5              		.eabi_attribute 21, 1
   6              		.eabi_attribute 23, 3
   7              		.eabi_attribute 24, 1
   8              		.eabi_attribute 25, 1
   9              		.eabi_attribute 26, 1
  10              		.eabi_attribute 30, 2
  11              		.eabi_attribute 34, 1
  12              		.eabi_attribute 18, 4
  13              		.file	"chmsg.c"
  14              		.text
  15              	.Ltext0:
  16              		.cfi_sections	.debug_frame
  17              		.section	.text.chMsgSend,"ax",%progbits
  18              		.align	1
  19              		.p2align 4,,15
  20              		.global	chMsgSend
  21              		.syntax unified
  22              		.thumb
  23              		.thumb_func
  24              		.fpu fpv4-sp-d16
  25              		.type	chMsgSend, %function
  26              	chMsgSend:
  27              	.LFB219:
  28              		.file 1 "..//ChibiOS//os/rt/src/chmsg.c"
  29              		.loc 1 87 0
  30              		.cfi_startproc
  31              		@ args = 0, pretend = 0, frame = 8
  32              		@ frame_needed = 0, uses_anonymous_args = 0
  33              	.LVL0:
  34 0000 2DE9F041 		push	{r4, r5, r6, r7, r8, lr}
  35              		.cfi_def_cfa_offset 24
  36              		.cfi_offset 4, -24
  37              		.cfi_offset 5, -20
  38              		.cfi_offset 6, -16
  39              		.cfi_offset 7, -12
  40              		.cfi_offset 8, -8
  41              		.cfi_offset 14, -4
  42 0004 234F     		ldr	r7, .L12
  43              		.loc 1 88 0
  44 0006 244E     		ldr	r6, .L12+4
  45              		.loc 1 87 0
  46 0008 3B68     		ldr	r3, [r7]
  47              		.loc 1 88 0
  48 000a B469     		ldr	r4, [r6, #24]
  49              	.LVL1:
  50              		.loc 1 87 0
  51 000c 82B0     		sub	sp, sp, #8
  52              		.cfi_def_cfa_offset 32
  53              		.loc 1 87 0
  54 000e 8846     		mov	r8, r1
  55 0010 0193     		str	r3, [sp, #4]
  56              		.loc 1 90 0
  57 0012 0546     		mov	r5, r0
ARM GAS  C:\Users\Moi\AppData\Local\Temp\cc1tL7gc.s 			page 2


  58 0014 0028     		cmp	r0, #0
  59 0016 37D0     		beq	.L8
  60              	.LVL2:
  61              	.L2:
  62              	.LBB49:
  63              	.LBB50:
  64              	.LBB51:
  65              	.LBB52:
  66              	.LBB53:
  67              		.file 2 "..//ChibiOS//os/ext/CMSIS/include/core_cmFunc.h"
  68              		.loc 2 546 0
  69 0018 2023     		movs	r3, #32
  70              		.syntax unified
  71              	@ 546 "..//ChibiOS//os/ext/CMSIS/include/core_cmFunc.h" 1
  72 001a 83F31188 		MSR basepri, r3
  73              	@ 0 "" 2
  74              	.LVL3:
  75              		.thumb
  76              		.syntax unified
  77              	.LBE53:
  78              	.LBE52:
  79              	.LBE51:
  80              		.file 3 "..//ChibiOS//os/rt/include/chsys.h"
  81              		.loc 3 349 0
  82 001e FFF7FEFF 		bl	_stats_start_measure_crit_thd
  83              	.LVL4:
  84              		.loc 3 350 0
  85 0022 FFF7FEFF 		bl	_dbg_check_lock
  86              	.LVL5:
  87              	.LBE50:
  88              	.LBE49:
  89              	.LBB54:
  90              	.LBB55:
  91              		.file 4 "..//ChibiOS//os/rt/include/chschd.h"
  92              		.loc 4 666 0
  93 0026 6B6B     		ldr	r3, [r5, #52]
  94 0028 6360     		str	r3, [r4, #4]
  95              	.LBE55:
  96              	.LBE54:
  97              		.loc 1 94 0
  98 002a 05F13002 		add	r2, r5, #48
  99              		.loc 1 93 0
 100 002e C4F83880 		str	r8, [r4, #56]
 101              		.loc 1 94 0
 102 0032 A262     		str	r2, [r4, #40]
 103              	.LVL6:
 104              	.LBB58:
 105              	.LBB56:
 106              		.loc 4 665 0
 107 0034 2260     		str	r2, [r4]
 108              		.loc 4 667 0
 109 0036 1C60     		str	r4, [r3]
 110              	.LBE56:
 111              	.LBE58:
 112              		.loc 1 96 0
 113 0038 95F82030 		ldrb	r3, [r5, #32]	@ zero_extendqisi2
 114              	.LBB59:
ARM GAS  C:\Users\Moi\AppData\Local\Temp\cc1tL7gc.s 			page 3


 115              	.LBB57:
 116              		.loc 4 668 0
 117 003c 6C63     		str	r4, [r5, #52]
 118              	.LVL7:
 119              	.LBE57:
 120              	.LBE59:
 121              		.loc 1 96 0
 122 003e 0E2B     		cmp	r3, #14
 123 0040 1ED0     		beq	.L9
 124              	.L3:
 125              		.loc 1 99 0
 126 0042 0C20     		movs	r0, #12
 127 0044 FFF7FEFF 		bl	chSchGoSleepS
 128              	.LVL8:
 129              		.loc 1 100 0
 130 0048 A46A     		ldr	r4, [r4, #40]
 131              	.LVL9:
 132              	.LBB60:
 133              	.LBB61:
 134              		.loc 3 360 0
 135 004a FFF7FEFF 		bl	_dbg_check_unlock
 136              	.LVL10:
 137              		.loc 3 361 0
 138 004e FFF7FEFF 		bl	_stats_stop_measure_crit_thd
 139              	.LVL11:
 140              		.loc 3 367 0
 141 0052 3368     		ldr	r3, [r6]
 142 0054 B342     		cmp	r3, r6
 143 0056 04D0     		beq	.L4
 144 0058 B269     		ldr	r2, [r6, #24]
 145 005a 9B68     		ldr	r3, [r3, #8]
 146 005c 9268     		ldr	r2, [r2, #8]
 147 005e 9A42     		cmp	r2, r3
 148 0060 0AD3     		bcc	.L10
 149              	.L4:
 150              	.LVL12:
 151              	.LBB62:
 152              	.LBB63:
 153              	.LBB64:
 154              		.loc 2 546 0
 155 0062 0023     		movs	r3, #0
 156              		.syntax unified
 157              	@ 546 "..//ChibiOS//os/ext/CMSIS/include/core_cmFunc.h" 1
 158 0064 83F31188 		MSR basepri, r3
 159              	@ 0 "" 2
 160              	.LVL13:
 161              		.thumb
 162              		.syntax unified
 163              	.LBE64:
 164              	.LBE63:
 165              	.LBE62:
 166              	.LBE61:
 167              	.LBE60:
 168              		.loc 1 104 0
 169 0068 019A     		ldr	r2, [sp, #4]
 170 006a 3B68     		ldr	r3, [r7]
 171 006c 9A42     		cmp	r2, r3
ARM GAS  C:\Users\Moi\AppData\Local\Temp\cc1tL7gc.s 			page 4


 172 006e 2046     		mov	r0, r4
 173 0070 0ED1     		bne	.L11
 174              	.LVL14:
 175 0072 02B0     		add	sp, sp, #8
 176              		.cfi_remember_state
 177              		.cfi_def_cfa_offset 24
 178              		@ sp needed
 179 0074 BDE8F081 		pop	{r4, r5, r6, r7, r8, pc}
 180              	.LVL15:
 181              	.L10:
 182              		.cfi_restore_state
 183              	.LBB66:
 184              	.LBB65:
 185              		.loc 3 367 0
 186 0078 0848     		ldr	r0, .L12+8
 187 007a FFF7FEFF 		bl	chSysHalt
 188              	.LVL16:
 189 007e F0E7     		b	.L4
 190              	.LVL17:
 191              	.L9:
 192              	.LBE65:
 193              	.LBE66:
 194              		.loc 1 97 0
 195 0080 2846     		mov	r0, r5
 196 0082 FFF7FEFF 		bl	chSchReadyI
 197              	.LVL18:
 198 0086 DCE7     		b	.L3
 199              	.LVL19:
 200              	.L8:
 201              		.loc 1 90 0 discriminator 2
 202 0088 0548     		ldr	r0, .L12+12
 203              	.LVL20:
 204 008a FFF7FEFF 		bl	chSysHalt
 205              	.LVL21:
 206 008e C3E7     		b	.L2
 207              	.LVL22:
 208              	.L11:
 209              		.loc 1 104 0
 210 0090 FFF7FEFF 		bl	__stack_chk_fail
 211              	.LVL23:
 212              	.L13:
 213              		.align	2
 214              	.L12:
 215 0094 00000000 		.word	__stack_chk_guard
 216 0098 00000000 		.word	ch
 217 009c 00000000 		.word	.LANCHOR1
 218 00a0 00000000 		.word	.LANCHOR0
 219              		.cfi_endproc
 220              	.LFE219:
 221              		.size	chMsgSend, .-chMsgSend
 222              		.section	.text.chMsgWait,"ax",%progbits
 223              		.align	1
 224              		.p2align 4,,15
 225              		.global	chMsgWait
 226              		.syntax unified
 227              		.thumb
 228              		.thumb_func
ARM GAS  C:\Users\Moi\AppData\Local\Temp\cc1tL7gc.s 			page 5


 229              		.fpu fpv4-sp-d16
 230              		.type	chMsgWait, %function
 231              	chMsgWait:
 232              	.LFB220:
 233              		.loc 1 120 0
 234              		.cfi_startproc
 235              		@ args = 0, pretend = 0, frame = 8
 236              		@ frame_needed = 0, uses_anonymous_args = 0
 237 0000 70B5     		push	{r4, r5, r6, lr}
 238              		.cfi_def_cfa_offset 16
 239              		.cfi_offset 4, -16
 240              		.cfi_offset 5, -12
 241              		.cfi_offset 6, -8
 242              		.cfi_offset 14, -4
 243 0002 1E4E     		ldr	r6, .L22
 244 0004 82B0     		sub	sp, sp, #8
 245              		.cfi_def_cfa_offset 24
 246              		.loc 1 120 0
 247 0006 3368     		ldr	r3, [r6]
 248 0008 0193     		str	r3, [sp, #4]
 249              	.LVL24:
 250              	.LBB81:
 251              	.LBB82:
 252              	.LBB83:
 253              	.LBB84:
 254              	.LBB85:
 255              		.loc 2 546 0
 256 000a 2023     		movs	r3, #32
 257              		.syntax unified
 258              	@ 546 "..//ChibiOS//os/ext/CMSIS/include/core_cmFunc.h" 1
 259 000c 83F31188 		MSR basepri, r3
 260              	@ 0 "" 2
 261              	.LVL25:
 262              		.thumb
 263              		.syntax unified
 264              	.LBE85:
 265              	.LBE84:
 266              	.LBE83:
 267              	.LBE82:
 268              	.LBE81:
 269              		.loc 1 124 0
 270 0010 1B4C     		ldr	r4, .L22+4
 271              	.LBB87:
 272              	.LBB86:
 273              		.loc 3 349 0
 274 0012 FFF7FEFF 		bl	_stats_start_measure_crit_thd
 275              	.LVL26:
 276              		.loc 3 350 0
 277 0016 FFF7FEFF 		bl	_dbg_check_lock
 278              	.LVL27:
 279              	.LBE86:
 280              	.LBE87:
 281              		.loc 1 124 0
 282 001a A569     		ldr	r5, [r4, #24]
 283              	.LVL28:
 284              	.LBB88:
 285              	.LBB89:
ARM GAS  C:\Users\Moi\AppData\Local\Temp\cc1tL7gc.s 			page 6


 286              		.file 5 "..//ChibiOS//os/rt/include/chmsg.h"
 287              		.loc 5 81 0
 288 001c FFF7FEFF 		bl	chDbgCheckClassI
 289              	.LVL29:
 290              	.LBE89:
 291              	.LBE88:
 292              		.loc 1 124 0
 293 0020 2B6B     		ldr	r3, [r5, #48]
 294              	.LBB91:
 295              	.LBB90:
 296              		.loc 5 83 0
 297 0022 3035     		adds	r5, r5, #48
 298              	.LBE90:
 299              	.LBE91:
 300              		.loc 1 124 0
 301 0024 AB42     		cmp	r3, r5
 302 0026 22D0     		beq	.L19
 303              	.L15:
 304              		.loc 1 127 0
 305 0028 A369     		ldr	r3, [r4, #24]
 306              	.LVL30:
 307              	.LBB92:
 308              	.LBB93:
 309              		.loc 4 672 0
 310 002a 1D6B     		ldr	r5, [r3, #48]
 311              	.LVL31:
 312              		.loc 4 674 0
 313 002c 2A68     		ldr	r2, [r5]
 314 002e 43F8302F 		str	r2, [r3, #48]!
 315              	.LVL32:
 316              	.LBE93:
 317              	.LBE92:
 318              		.loc 1 128 0
 319 0032 0D21     		movs	r1, #13
 320              	.LBB95:
 321              	.LBB94:
 322              		.loc 4 675 0
 323 0034 5360     		str	r3, [r2, #4]
 324              	.LVL33:
 325              	.LBE94:
 326              	.LBE95:
 327              		.loc 1 128 0
 328 0036 85F82010 		strb	r1, [r5, #32]
 329              	.LBB96:
 330              	.LBB97:
 331              		.loc 3 360 0
 332 003a FFF7FEFF 		bl	_dbg_check_unlock
 333              	.LVL34:
 334              		.loc 3 361 0
 335 003e FFF7FEFF 		bl	_stats_stop_measure_crit_thd
 336              	.LVL35:
 337              		.loc 3 367 0
 338 0042 2368     		ldr	r3, [r4]
 339 0044 A342     		cmp	r3, r4
 340 0046 04D0     		beq	.L16
 341 0048 A269     		ldr	r2, [r4, #24]
 342 004a 9B68     		ldr	r3, [r3, #8]
ARM GAS  C:\Users\Moi\AppData\Local\Temp\cc1tL7gc.s 			page 7


 343 004c 9268     		ldr	r2, [r2, #8]
 344 004e 9A42     		cmp	r2, r3
 345 0050 09D3     		bcc	.L20
 346              	.L16:
 347              	.LVL36:
 348              	.LBB98:
 349              	.LBB99:
 350              	.LBB100:
 351              		.loc 2 546 0
 352 0052 0023     		movs	r3, #0
 353              		.syntax unified
 354              	@ 546 "..//ChibiOS//os/ext/CMSIS/include/core_cmFunc.h" 1
 355 0054 83F31188 		MSR basepri, r3
 356              	@ 0 "" 2
 357              	.LVL37:
 358              		.thumb
 359              		.syntax unified
 360              	.LBE100:
 361              	.LBE99:
 362              	.LBE98:
 363              	.LBE97:
 364              	.LBE96:
 365              		.loc 1 132 0
 366 0058 019A     		ldr	r2, [sp, #4]
 367 005a 3368     		ldr	r3, [r6]
 368 005c 9A42     		cmp	r2, r3
 369 005e 2846     		mov	r0, r5
 370 0060 09D1     		bne	.L21
 371 0062 02B0     		add	sp, sp, #8
 372              		.cfi_remember_state
 373              		.cfi_def_cfa_offset 16
 374              		@ sp needed
 375 0064 70BD     		pop	{r4, r5, r6, pc}
 376              	.L20:
 377              		.cfi_restore_state
 378              	.LBB102:
 379              	.LBB101:
 380              		.loc 3 367 0
 381 0066 0748     		ldr	r0, .L22+8
 382 0068 FFF7FEFF 		bl	chSysHalt
 383              	.LVL38:
 384 006c F1E7     		b	.L16
 385              	.L19:
 386              	.LBE101:
 387              	.LBE102:
 388              		.loc 1 125 0
 389 006e 0E20     		movs	r0, #14
 390 0070 FFF7FEFF 		bl	chSchGoSleepS
 391              	.LVL39:
 392 0074 D8E7     		b	.L15
 393              	.L21:
 394              		.loc 1 132 0
 395 0076 FFF7FEFF 		bl	__stack_chk_fail
 396              	.LVL40:
 397              	.L23:
 398 007a 00BF     		.align	2
 399              	.L22:
ARM GAS  C:\Users\Moi\AppData\Local\Temp\cc1tL7gc.s 			page 8


 400 007c 00000000 		.word	__stack_chk_guard
 401 0080 00000000 		.word	ch
 402 0084 00000000 		.word	.LANCHOR1
 403              		.cfi_endproc
 404              	.LFE220:
 405              		.size	chMsgWait, .-chMsgWait
 406              		.section	.text.chMsgRelease,"ax",%progbits
 407              		.align	1
 408              		.p2align 4,,15
 409              		.global	chMsgRelease
 410              		.syntax unified
 411              		.thumb
 412              		.thumb_func
 413              		.fpu fpv4-sp-d16
 414              		.type	chMsgRelease, %function
 415              	chMsgRelease:
 416              	.LFB221:
 417              		.loc 1 144 0
 418              		.cfi_startproc
 419              		@ args = 0, pretend = 0, frame = 8
 420              		@ frame_needed = 0, uses_anonymous_args = 0
 421              	.LVL41:
 422 0000 70B5     		push	{r4, r5, r6, lr}
 423              		.cfi_def_cfa_offset 16
 424              		.cfi_offset 4, -16
 425              		.cfi_offset 5, -12
 426              		.cfi_offset 6, -8
 427              		.cfi_offset 14, -4
 428 0002 1B4C     		ldr	r4, .L34
 429 0004 82B0     		sub	sp, sp, #8
 430              		.cfi_def_cfa_offset 24
 431              		.loc 1 144 0
 432 0006 2368     		ldr	r3, [r4]
 433 0008 0193     		str	r3, [sp, #4]
 434              	.LVL42:
 435 000a 0546     		mov	r5, r0
 436 000c 0E46     		mov	r6, r1
 437              	.LBB115:
 438              	.LBB116:
 439              	.LBB117:
 440              	.LBB118:
 441              	.LBB119:
 442              		.loc 2 546 0
 443 000e 2023     		movs	r3, #32
 444              		.syntax unified
 445              	@ 546 "..//ChibiOS//os/ext/CMSIS/include/core_cmFunc.h" 1
 446 0010 83F31188 		MSR basepri, r3
 447              	@ 0 "" 2
 448              	.LVL43:
 449              		.thumb
 450              		.syntax unified
 451              	.LBE119:
 452              	.LBE118:
 453              	.LBE117:
 454              		.loc 3 349 0
 455 0014 FFF7FEFF 		bl	_stats_start_measure_crit_thd
 456              	.LVL44:
ARM GAS  C:\Users\Moi\AppData\Local\Temp\cc1tL7gc.s 			page 9


 457              		.loc 3 350 0
 458 0018 FFF7FEFF 		bl	_dbg_check_lock
 459              	.LVL45:
 460              	.LBE116:
 461              	.LBE115:
 462              		.loc 1 147 0
 463 001c 95F82030 		ldrb	r3, [r5, #32]	@ zero_extendqisi2
 464 0020 0D2B     		cmp	r3, #13
 465 0022 02D0     		beq	.L25
 466              		.loc 1 147 0 is_stmt 0 discriminator 2
 467 0024 1348     		ldr	r0, .L34+4
 468 0026 FFF7FEFF 		bl	chSysHalt
 469              	.LVL46:
 470              	.L25:
 471              	.LBB120:
 472              	.LBB121:
 473              		.loc 5 113 0 is_stmt 1
 474 002a FFF7FEFF 		bl	chDbgCheckClassS
 475              	.LVL47:
 476              		.loc 5 115 0
 477 002e 3146     		mov	r1, r6
 478 0030 2846     		mov	r0, r5
 479 0032 FFF7FEFF 		bl	chSchWakeupS
 480              	.LVL48:
 481              	.LBE121:
 482              	.LBE120:
 483              	.LBB122:
 484              	.LBB123:
 485              		.loc 3 360 0
 486 0036 FFF7FEFF 		bl	_dbg_check_unlock
 487              	.LVL49:
 488              		.loc 3 361 0
 489 003a FFF7FEFF 		bl	_stats_stop_measure_crit_thd
 490              	.LVL50:
 491              		.loc 3 367 0
 492 003e 0E4B     		ldr	r3, .L34+8
 493 0040 1A68     		ldr	r2, [r3]
 494 0042 9A42     		cmp	r2, r3
 495 0044 04D0     		beq	.L26
 496 0046 9969     		ldr	r1, [r3, #24]
 497 0048 9368     		ldr	r3, [r2, #8]
 498 004a 8A68     		ldr	r2, [r1, #8]
 499 004c 9A42     		cmp	r2, r3
 500 004e 08D3     		bcc	.L32
 501              	.L26:
 502              	.LVL51:
 503              	.LBB124:
 504              	.LBB125:
 505              	.LBB126:
 506              		.loc 2 546 0
 507 0050 0023     		movs	r3, #0
 508              		.syntax unified
 509              	@ 546 "..//ChibiOS//os/ext/CMSIS/include/core_cmFunc.h" 1
 510 0052 83F31188 		MSR basepri, r3
 511              	@ 0 "" 2
 512              	.LVL52:
 513              		.thumb
ARM GAS  C:\Users\Moi\AppData\Local\Temp\cc1tL7gc.s 			page 10


 514              		.syntax unified
 515              	.LBE126:
 516              	.LBE125:
 517              	.LBE124:
 518              	.LBE123:
 519              	.LBE122:
 520              		.loc 1 150 0
 521 0056 019A     		ldr	r2, [sp, #4]
 522 0058 2368     		ldr	r3, [r4]
 523 005a 9A42     		cmp	r2, r3
 524 005c 05D1     		bne	.L33
 525 005e 02B0     		add	sp, sp, #8
 526              		.cfi_remember_state
 527              		.cfi_def_cfa_offset 16
 528              		@ sp needed
 529 0060 70BD     		pop	{r4, r5, r6, pc}
 530              	.LVL53:
 531              	.L32:
 532              		.cfi_restore_state
 533              	.LBB128:
 534              	.LBB127:
 535              		.loc 3 367 0
 536 0062 0648     		ldr	r0, .L34+12
 537 0064 FFF7FEFF 		bl	chSysHalt
 538              	.LVL54:
 539 0068 F2E7     		b	.L26
 540              	.L33:
 541              	.LBE127:
 542              	.LBE128:
 543              		.loc 1 150 0
 544 006a FFF7FEFF 		bl	__stack_chk_fail
 545              	.LVL55:
 546              	.L35:
 547 006e 00BF     		.align	2
 548              	.L34:
 549 0070 00000000 		.word	__stack_chk_guard
 550 0074 00000000 		.word	.LANCHOR2
 551 0078 00000000 		.word	ch
 552 007c 00000000 		.word	.LANCHOR1
 553              		.cfi_endproc
 554              	.LFE221:
 555              		.size	chMsgRelease, .-chMsgRelease
 556              		.section	.rodata.__func__.7153,"a",%progbits
 557              		.align	2
 558              		.set	.LANCHOR1,. + 0
 559              		.type	__func__.7153, %object
 560              		.size	__func__.7153, 12
 561              	__func__.7153:
 562 0000 63685379 		.ascii	"chSysUnlock\000"
 562      73556E6C 
 562      6F636B00 
 563              		.section	.rodata.__func__.7851,"a",%progbits
 564              		.align	2
 565              		.set	.LANCHOR0,. + 0
 566              		.type	__func__.7851, %object
 567              		.size	__func__.7851, 10
 568              	__func__.7851:
ARM GAS  C:\Users\Moi\AppData\Local\Temp\cc1tL7gc.s 			page 11


 569 0000 63684D73 		.ascii	"chMsgSend\000"
 569      6753656E 
 569      6400
 570              		.section	.rodata.__func__.7860,"a",%progbits
 571              		.align	2
 572              		.set	.LANCHOR2,. + 0
 573              		.type	__func__.7860, %object
 574              		.size	__func__.7860, 13
 575              	__func__.7860:
 576 0000 63684D73 		.ascii	"chMsgRelease\000"
 576      6752656C 
 576      65617365 
 576      00
 577              		.text
 578              	.Letext0:
 579              		.file 6 "c:\\users\\moi\\documents\\_microinfo\\epuck-eclipse\\tools\\gcc-arm-none-eabi-7-2017-q4-
 580              		.file 7 "c:\\users\\moi\\documents\\_microinfo\\epuck-eclipse\\tools\\gcc-arm-none-eabi-7-2017-q4-
 581              		.file 8 "..//ChibiOS//os/rt/ports/ARMCMx/compilers/GCC/chtypes.h"
 582              		.file 9 "..//ChibiOS//os/rt/include/chsystypes.h"
 583              		.file 10 "..//ChibiOS//os/ext/CMSIS/include/core_cm4.h"
 584              		.file 11 "..//ChibiOS//os/ext/CMSIS/ST/system_stm32f4xx.h"
 585              		.file 12 "..//ChibiOS//os/rt/ports/ARMCMx/chcore.h"
 586              		.file 13 "..//ChibiOS//os/rt/ports/ARMCMx/chcore_v7m.h"
 587              		.file 14 "..//ChibiOS//os/rt/include/chdebug.h"
 588              		.file 15 "..//ChibiOS//os/rt/include/chtm.h"
 589              		.file 16 "..//ChibiOS//os/rt/include/chstats.h"
 590              		.file 17 "..//ChibiOS//os/rt/include/chsem.h"
 591              		.file 18 "..//ChibiOS//os/rt/include/chmtx.h"
 592              		.file 19 "..//ChibiOS//os/rt/include/chregistry.h"