ARM GAS  C:\Users\Moi\AppData\Local\Temp\cc6hy1FM.s 			page 1


   1              		.cpu cortex-m4
   2              		.eabi_attribute 27, 1
   3              		.eabi_attribute 28, 1
   4              		.eabi_attribute 20, 1
   5              		.eabi_attribute 21, 1
   6              		.eabi_attribute 23, 3
   7              		.eabi_attribute 24, 1
   8              		.eabi_attribute 25, 1
   9              		.eabi_attribute 26, 1
  10              		.eabi_attribute 30, 2
  11              		.eabi_attribute 34, 1
  12              		.eabi_attribute 18, 4
  13              		.file	"chmtx.c"
  14              		.text
  15              	.Ltext0:
  16              		.cfi_sections	.debug_frame
  17              		.section	.text.chMtxObjectInit,"ax",%progbits
  18              		.align	1
  19              		.p2align 4,,15
  20              		.global	chMtxObjectInit
  21              		.syntax unified
  22              		.thumb
  23              		.thumb_func
  24              		.fpu fpv4-sp-d16
  25              		.type	chMtxObjectInit, %function
  26              	chMtxObjectInit:
  27              	.LFB219:
  28              		.file 1 "..//ChibiOS//os/rt/src/chmtx.c"
  29              		.loc 1 103 0
  30              		.cfi_startproc
  31              		@ args = 0, pretend = 0, frame = 8
  32              		@ frame_needed = 0, uses_anonymous_args = 0
  33              	.LVL0:
  34 0000 30B5     		push	{r4, r5, lr}
  35              		.cfi_def_cfa_offset 12
  36              		.cfi_offset 4, -12
  37              		.cfi_offset 5, -8
  38              		.cfi_offset 14, -4
  39 0002 0B4D     		ldr	r5, .L8
  40 0004 83B0     		sub	sp, sp, #12
  41              		.cfi_def_cfa_offset 24
  42              		.loc 1 103 0
  43 0006 2B68     		ldr	r3, [r5]
  44 0008 0193     		str	r3, [sp, #4]
  45              		.loc 1 105 0
  46 000a 0446     		mov	r4, r0
  47 000c 50B1     		cbz	r0, .L6
  48              	.LVL1:
  49              	.L2:
  50              		.loc 1 112 0
  51 000e 0199     		ldr	r1, [sp, #4]
  52 0010 2A68     		ldr	r2, [r5]
  53              	.LBB81:
  54              	.LBB82:
  55              		.file 2 "..//ChibiOS//os/rt/include/chschd.h"
  56              		.loc 2 604 0
  57 0012 2460     		str	r4, [r4]
ARM GAS  C:\Users\Moi\AppData\Local\Temp\cc6hy1FM.s 			page 2


  58              	.LBE82:
  59              	.LBE81:
  60              		.loc 1 108 0
  61 0014 0023     		movs	r3, #0
  62              		.loc 1 112 0
  63 0016 9142     		cmp	r1, r2
  64              		.loc 1 108 0
  65 0018 C4E90143 		strd	r4, r3, [r4, #4]
  66              		.loc 1 110 0
  67 001c 2361     		str	r3, [r4, #16]
  68              		.loc 1 112 0
  69 001e 05D1     		bne	.L7
  70 0020 03B0     		add	sp, sp, #12
  71              		.cfi_remember_state
  72              		.cfi_def_cfa_offset 12
  73              		@ sp needed
  74 0022 30BD     		pop	{r4, r5, pc}
  75              	.LVL2:
  76              	.L6:
  77              		.cfi_restore_state
  78              		.loc 1 105 0 discriminator 2
  79 0024 0348     		ldr	r0, .L8+4
  80              	.LVL3:
  81 0026 FFF7FEFF 		bl	chSysHalt
  82              	.LVL4:
  83 002a F0E7     		b	.L2
  84              	.LVL5:
  85              	.L7:
  86              		.loc 1 112 0
  87 002c FFF7FEFF 		bl	__stack_chk_fail
  88              	.LVL6:
  89              	.L9:
  90              		.align	2
  91              	.L8:
  92 0030 00000000 		.word	__stack_chk_guard
  93 0034 00000000 		.word	.LANCHOR0
  94              		.cfi_endproc
  95              	.LFE219:
  96              		.size	chMtxObjectInit, .-chMtxObjectInit
  97              		.section	.text.chMtxLockS,"ax",%progbits
  98              		.align	1
  99              		.p2align 4,,15
 100              		.global	chMtxLockS
 101              		.syntax unified
 102              		.thumb
 103              		.thumb_func
 104              		.fpu fpv4-sp-d16
 105              		.type	chMtxLockS, %function
 106              	chMtxLockS:
 107              	.LFB221:
 108              		.loc 1 139 0
 109              		.cfi_startproc
 110              		@ args = 0, pretend = 0, frame = 8
 111              		@ frame_needed = 0, uses_anonymous_args = 0
 112              	.LVL7:
 113 0000 F0B5     		push	{r4, r5, r6, r7, lr}
 114              		.cfi_def_cfa_offset 20
ARM GAS  C:\Users\Moi\AppData\Local\Temp\cc6hy1FM.s 			page 3


 115              		.cfi_offset 4, -20
 116              		.cfi_offset 5, -16
 117              		.cfi_offset 6, -12
 118              		.cfi_offset 7, -8
 119              		.cfi_offset 14, -4
 120 0002 5B4E     		ldr	r6, .L60
 121              		.loc 1 140 0
 122 0004 5B4B     		ldr	r3, .L60+4
 123              		.loc 1 139 0
 124 0006 3268     		ldr	r2, [r6]
 125              		.loc 1 140 0
 126 0008 9D69     		ldr	r5, [r3, #24]
 127              	.LVL8:
 128              		.loc 1 139 0
 129 000a 83B0     		sub	sp, sp, #12
 130              		.cfi_def_cfa_offset 32
 131              		.loc 1 139 0
 132 000c 0446     		mov	r4, r0
 133 000e 0192     		str	r2, [sp, #4]
 134              		.loc 1 142 0
 135 0010 FFF7FEFF 		bl	chDbgCheckClassS
 136              	.LVL9:
 137              		.loc 1 143 0
 138 0014 002C     		cmp	r4, #0
 139 0016 00F08380 		beq	.L47
 140              	.L11:
 141              		.loc 1 146 0
 142 001a A068     		ldr	r0, [r4, #8]
 143 001c 2369     		ldr	r3, [r4, #16]
 144 001e 0028     		cmp	r0, #0
 145 0020 43D0     		beq	.L12
 146              		.loc 1 149 0 discriminator 1
 147 0022 002B     		cmp	r3, #0
 148 0024 40F39480 		ble	.L48
 149              	.L13:
 150              		.loc 1 153 0
 151 0028 8542     		cmp	r5, r0
 152 002a 75D0     		beq	.L49
 153              	.LVL10:
 154              	.LBB83:
 155              		.loc 1 165 0
 156 002c AA68     		ldr	r2, [r5, #8]
 157 002e 8368     		ldr	r3, [r0, #8]
 158 0030 9A42     		cmp	r2, r3
 159 0032 08D9     		bls	.L16
 160              	.LVL11:
 161              		.loc 1 170 0
 162 0034 90F82030 		ldrb	r3, [r0, #32]	@ zero_extendqisi2
 163              		.loc 1 167 0
 164 0038 8260     		str	r2, [r0, #8]
 165              		.loc 1 170 0
 166 003a 062B     		cmp	r3, #6
 167 003c 40D0     		beq	.L17
 168              	.L57:
 169 003e 072B     		cmp	r3, #7
 170 0040 72D0     		beq	.L18
 171 0042 002B     		cmp	r3, #0
ARM GAS  C:\Users\Moi\AppData\Local\Temp\cc6hy1FM.s 			page 4


 172 0044 5DD0     		beq	.L50
 173              	.LVL12:
 174              	.L16:
 175              		.loc 1 212 0
 176 0046 2746     		mov	r7, r4
 177              	.LVL13:
 178 0048 2346     		mov	r3, r4
 179 004a 03E0     		b	.L27
 180              	.LVL14:
 181              	.L52:
 182              	.LBB84:
 183              	.LBB85:
 184              		.loc 2 656 0
 185 004c 9968     		ldr	r1, [r3, #8]
 186 004e AA68     		ldr	r2, [r5, #8]
 187 0050 9142     		cmp	r1, r2
 188 0052 33D3     		bcc	.L51
 189              	.L27:
 190              		.loc 2 655 0
 191 0054 1B68     		ldr	r3, [r3]
 192              	.LVL15:
 193              		.loc 2 656 0
 194 0056 9C42     		cmp	r4, r3
 195 0058 F8D1     		bne	.L52
 196              	.L26:
 197              		.loc 2 658 0
 198 005a 7B68     		ldr	r3, [r7, #4]
 199              	.LVL16:
 200              	.LBE85:
 201              	.LBE84:
 202              		.loc 1 214 0
 203 005c 0620     		movs	r0, #6
 204              	.LBB88:
 205              	.LBB86:
 206              		.loc 2 658 0
 207 005e C5E90073 		strd	r7, r3, [r5]
 208              		.loc 2 659 0
 209 0062 1D60     		str	r5, [r3]
 210              		.loc 2 660 0
 211 0064 7D60     		str	r5, [r7, #4]
 212              	.LVL17:
 213              	.LBE86:
 214              	.LBE88:
 215              		.loc 1 213 0
 216 0066 AC62     		str	r4, [r5, #40]
 217              		.loc 1 214 0
 218 0068 FFF7FEFF 		bl	chSchGoSleepS
 219              	.LVL18:
 220              		.loc 1 218 0
 221 006c A368     		ldr	r3, [r4, #8]
 222 006e AB42     		cmp	r3, r5
 223 0070 02D0     		beq	.L28
 224              		.loc 1 218 0 is_stmt 0 discriminator 2
 225 0072 4148     		ldr	r0, .L60+8
 226 0074 FFF7FEFF 		bl	chSysHalt
 227              	.LVL19:
 228              	.L28:
ARM GAS  C:\Users\Moi\AppData\Local\Temp\cc6hy1FM.s 			page 5


 229              		.loc 1 219 0 is_stmt 1 discriminator 1
 230 0078 2B6C     		ldr	r3, [r5, #64]
 231 007a A342     		cmp	r3, r4
 232 007c 02D0     		beq	.L29
 233              		.loc 1 219 0 is_stmt 0 discriminator 2
 234 007e 3E48     		ldr	r0, .L60+8
 235 0080 FFF7FEFF 		bl	chSysHalt
 236              	.LVL20:
 237              	.L29:
 238              		.loc 1 221 0 is_stmt 1 discriminator 1
 239 0084 2369     		ldr	r3, [r4, #16]
 240 0086 012B     		cmp	r3, #1
 241 0088 05D1     		bne	.L53
 242              	.L10:
 243              	.LBE83:
 244              		.loc 1 236 0
 245 008a 019A     		ldr	r2, [sp, #4]
 246 008c 3368     		ldr	r3, [r6]
 247 008e 9A42     		cmp	r2, r3
 248 0090 6CD1     		bne	.L45
 249 0092 03B0     		add	sp, sp, #12
 250              		.cfi_remember_state
 251              		.cfi_def_cfa_offset 20
 252              		@ sp needed
 253 0094 F0BD     		pop	{r4, r5, r6, r7, pc}
 254              	.LVL21:
 255              	.L53:
 256              		.cfi_restore_state
 257              	.LBB114:
 258              		.loc 1 221 0 discriminator 2
 259 0096 019A     		ldr	r2, [sp, #4]
 260 0098 3368     		ldr	r3, [r6]
 261 009a 9A42     		cmp	r2, r3
 262 009c 66D1     		bne	.L45
 263 009e 3648     		ldr	r0, .L60+8
 264              	.LBE114:
 265              		.loc 1 236 0 discriminator 2
 266 00a0 03B0     		add	sp, sp, #12
 267              		.cfi_remember_state
 268              		.cfi_def_cfa_offset 20
 269              		@ sp needed
 270 00a2 BDE8F040 		pop	{r4, r5, r6, r7, lr}
 271              		.cfi_restore 14
 272              		.cfi_restore 7
 273              		.cfi_restore 6
 274              		.cfi_restore 5
 275              		.cfi_restore 4
 276              		.cfi_def_cfa_offset 0
 277              	.LVL22:
 278              	.LBB115:
 279              		.loc 1 221 0 discriminator 2
 280 00a6 FFF7FEBF 		b	chSysHalt
 281              	.LVL23:
 282              	.L12:
 283              		.cfi_restore_state
 284              	.LBE115:
 285              		.loc 1 227 0 discriminator 1
ARM GAS  C:\Users\Moi\AppData\Local\Temp\cc6hy1FM.s 			page 6


 286 00aa 002B     		cmp	r3, #0
 287 00ac 55D1     		bne	.L54
 288              	.L31:
 289              		.loc 1 233 0
 290 00ae 2A6C     		ldr	r2, [r5, #64]
 291              		.loc 1 232 0
 292 00b0 A560     		str	r5, [r4, #8]
 293              		.loc 1 229 0
 294 00b2 0133     		adds	r3, r3, #1
 295              		.loc 1 233 0
 296 00b4 C4E90323 		strd	r2, r3, [r4, #12]
 297              		.loc 1 234 0
 298 00b8 2C64     		str	r4, [r5, #64]
 299              		.loc 1 236 0
 300 00ba E6E7     		b	.L10
 301              	.LVL24:
 302              	.L51:
 303              	.LBB116:
 304              	.LBB89:
 305              	.LBB87:
 306              		.loc 2 655 0
 307 00bc 1F46     		mov	r7, r3
 308 00be CCE7     		b	.L26
 309              	.LVL25:
 310              	.L17:
 311              	.LBE87:
 312              	.LBE89:
 313              	.LBB90:
 314              	.LBB91:
 315              		.loc 2 691 0
 316 00c0 D0E90013 		ldrd	r1, r3, [r0]
 317 00c4 1960     		str	r1, [r3]
 318              	.LBE91:
 319              	.LBE90:
 320              		.loc 1 173 0
 321 00c6 876A     		ldr	r7, [r0, #40]
 322              	.LBB94:
 323              	.LBB92:
 324              		.loc 2 692 0
 325 00c8 0168     		ldr	r1, [r0]
 326              	.LBE92:
 327              	.LBE94:
 328              		.loc 1 173 0
 329 00ca BC46     		mov	ip, r7
 330              	.LBB95:
 331              	.LBB93:
 332              		.loc 2 692 0
 333 00cc 4B60     		str	r3, [r1, #4]
 334              	.LVL26:
 335              	.LBE93:
 336              	.LBE95:
 337              		.loc 1 173 0
 338 00ce 3B46     		mov	r3, r7
 339 00d0 02E0     		b	.L21
 340              	.LVL27:
 341              	.L56:
 342              	.LBB96:
ARM GAS  C:\Users\Moi\AppData\Local\Temp\cc6hy1FM.s 			page 7


 343              	.LBB97:
 344              		.loc 2 656 0
 345 00d2 9968     		ldr	r1, [r3, #8]
 346 00d4 9142     		cmp	r1, r2
 347 00d6 45D3     		bcc	.L55
 348              	.LVL28:
 349              	.L21:
 350              		.loc 2 655 0
 351 00d8 1B68     		ldr	r3, [r3]
 352              	.LVL29:
 353              		.loc 2 656 0
 354 00da 9F42     		cmp	r7, r3
 355 00dc F9D1     		bne	.L56
 356              	.L20:
 357              		.loc 2 658 0
 358 00de DCF80430 		ldr	r3, [ip, #4]
 359              	.LVL30:
 360              	.LBE97:
 361              	.LBE96:
 362              		.loc 1 165 0
 363 00e2 AA68     		ldr	r2, [r5, #8]
 364              	.LBB100:
 365              	.LBB98:
 366              		.loc 2 658 0
 367 00e4 C0E900C3 		strd	ip, r3, [r0]
 368              		.loc 2 659 0
 369 00e8 1860     		str	r0, [r3]
 370              		.loc 2 660 0
 371 00ea CCF80400 		str	r0, [ip, #4]
 372              	.LVL31:
 373              	.LBE98:
 374              	.LBE100:
 375              		.loc 1 174 0
 376 00ee B868     		ldr	r0, [r7, #8]
 377              	.LVL32:
 378              		.loc 1 165 0
 379 00f0 8368     		ldr	r3, [r0, #8]
 380 00f2 9342     		cmp	r3, r2
 381 00f4 A7D2     		bcs	.L16
 382              		.loc 1 170 0
 383 00f6 90F82030 		ldrb	r3, [r0, #32]	@ zero_extendqisi2
 384              		.loc 1 167 0
 385 00fa 8260     		str	r2, [r0, #8]
 386              		.loc 1 170 0
 387 00fc 062B     		cmp	r3, #6
 388 00fe 9ED1     		bne	.L57
 389 0100 DEE7     		b	.L17
 390              	.L50:
 391              	.LBB101:
 392              	.LBB102:
 393              		.loc 2 691 0
 394 0102 D0E90023 		ldrd	r2, r3, [r0]
 395              	.LBE102:
 396              	.LBE101:
 397              		.loc 1 199 0
 398 0106 0121     		movs	r1, #1
 399 0108 80F82010 		strb	r1, [r0, #32]
ARM GAS  C:\Users\Moi\AppData\Local\Temp\cc6hy1FM.s 			page 8


 400              	.LVL33:
 401              	.LBB104:
 402              	.LBB103:
 403              		.loc 2 691 0
 404 010c 1A60     		str	r2, [r3]
 405              		.loc 2 692 0
 406 010e 0268     		ldr	r2, [r0]
 407 0110 5360     		str	r3, [r2, #4]
 408              	.LVL34:
 409              	.LBE103:
 410              	.LBE104:
 411              		.loc 1 202 0
 412 0112 FFF7FEFF 		bl	chSchReadyI
 413              	.LVL35:
 414              		.loc 1 203 0
 415 0116 96E7     		b	.L16
 416              	.L49:
 417              	.LBE116:
 418              		.loc 1 154 0
 419 0118 2369     		ldr	r3, [r4, #16]
 420 011a 0133     		adds	r3, r3, #1
 421 011c 2361     		str	r3, [r4, #16]
 422 011e B4E7     		b	.L10
 423              	.L47:
 424              		.loc 1 143 0 discriminator 2
 425 0120 1548     		ldr	r0, .L60+8
 426 0122 FFF7FEFF 		bl	chSysHalt
 427              	.LVL36:
 428 0126 78E7     		b	.L11
 429              	.LVL37:
 430              	.L18:
 431              	.LBB117:
 432              	.LBB105:
 433              	.LBB106:
 434              		.loc 2 691 0
 435 0128 D0E90013 		ldrd	r1, r3, [r0]
 436 012c 1960     		str	r1, [r3]
 437              	.LBE106:
 438              	.LBE105:
 439              		.loc 1 193 0
 440 012e 876A     		ldr	r7, [r0, #40]
 441              	.LBB108:
 442              	.LBB107:
 443              		.loc 2 692 0
 444 0130 0168     		ldr	r1, [r0]
 445 0132 4B60     		str	r3, [r1, #4]
 446              	.LVL38:
 447              	.LBE107:
 448              	.LBE108:
 449              		.loc 1 193 0
 450 0134 3B46     		mov	r3, r7
 451 0136 02E0     		b	.L24
 452              	.LVL39:
 453              	.L59:
 454              	.LBB109:
 455              	.LBB110:
 456              		.loc 2 656 0
ARM GAS  C:\Users\Moi\AppData\Local\Temp\cc6hy1FM.s 			page 9


 457 0138 9968     		ldr	r1, [r3, #8]
 458 013a 9142     		cmp	r1, r2
 459 013c 14D3     		bcc	.L58
 460              	.LVL40:
 461              	.L24:
 462              		.loc 2 655 0
 463 013e 1B68     		ldr	r3, [r3]
 464              	.LVL41:
 465              		.loc 2 656 0
 466 0140 9F42     		cmp	r7, r3
 467 0142 F9D1     		bne	.L59
 468              	.LVL42:
 469              	.L23:
 470              		.loc 2 658 0
 471 0144 7B68     		ldr	r3, [r7, #4]
 472              	.LVL43:
 473 0146 C0E90073 		strd	r7, r3, [r0]
 474              		.loc 2 659 0
 475 014a 1860     		str	r0, [r3]
 476              		.loc 2 660 0
 477 014c 7860     		str	r0, [r7, #4]
 478 014e 7AE7     		b	.L16
 479              	.LVL44:
 480              	.L48:
 481              	.LBE110:
 482              	.LBE109:
 483              	.LBE117:
 484              		.loc 1 149 0 discriminator 2
 485 0150 0948     		ldr	r0, .L60+8
 486 0152 FFF7FEFF 		bl	chSysHalt
 487              	.LVL45:
 488 0156 A068     		ldr	r0, [r4, #8]
 489 0158 66E7     		b	.L13
 490              	.L54:
 491              		.loc 1 227 0 discriminator 2
 492 015a 0748     		ldr	r0, .L60+8
 493 015c FFF7FEFF 		bl	chSysHalt
 494              	.LVL46:
 495 0160 2369     		ldr	r3, [r4, #16]
 496 0162 A4E7     		b	.L31
 497              	.LVL47:
 498              	.L55:
 499              	.LBB118:
 500              	.LBB112:
 501              	.LBB99:
 502              		.loc 2 655 0
 503 0164 9C46     		mov	ip, r3
 504 0166 BAE7     		b	.L20
 505              	.LVL48:
 506              	.L58:
 507              	.LBE99:
 508              	.LBE112:
 509              	.LBB113:
 510              	.LBB111:
 511 0168 1F46     		mov	r7, r3
 512              	.LVL49:
 513 016a EBE7     		b	.L23
ARM GAS  C:\Users\Moi\AppData\Local\Temp\cc6hy1FM.s 			page 10


 514              	.LVL50:
 515              	.L45:
 516              	.LBE111:
 517              	.LBE113:
 518              	.LBE118:
 519              		.loc 1 236 0
 520 016c FFF7FEFF 		bl	__stack_chk_fail
 521              	.LVL51:
 522              	.L61:
 523              		.align	2
 524              	.L60:
 525 0170 00000000 		.word	__stack_chk_guard
 526 0174 00000000 		.word	ch
 527 0178 00000000 		.word	.LANCHOR1
 528              		.cfi_endproc
 529              	.LFE221:
 530              		.size	chMtxLockS, .-chMtxLockS
 531              		.section	.text.chMtxLock,"ax",%progbits
 532              		.align	1
 533              		.p2align 4,,15
 534              		.global	chMtxLock
 535              		.syntax unified
 536              		.thumb
 537              		.thumb_func
 538              		.fpu fpv4-sp-d16
 539              		.type	chMtxLock, %function
 540              	chMtxLock:
 541              	.LFB220:
 542              		.loc 1 123 0
 543              		.cfi_startproc
 544              		@ args = 0, pretend = 0, frame = 8
 545              		@ frame_needed = 0, uses_anonymous_args = 0
 546              	.LVL52:
 547 0000 30B5     		push	{r4, r5, lr}
 548              		.cfi_def_cfa_offset 12
 549              		.cfi_offset 4, -12
 550              		.cfi_offset 5, -8
 551              		.cfi_offset 14, -4
 552 0002 154C     		ldr	r4, .L68
 553 0004 83B0     		sub	sp, sp, #12
 554              		.cfi_def_cfa_offset 24
 555              		.loc 1 123 0
 556 0006 2368     		ldr	r3, [r4]
 557 0008 0193     		str	r3, [sp, #4]
 558              	.LVL53:
 559 000a 0546     		mov	r5, r0
 560              	.LBB129:
 561              	.LBB130:
 562              	.LBB131:
 563              	.LBB132:
 564              	.LBB133:
 565              		.file 3 "..//ChibiOS//os/ext/CMSIS/include/core_cmFunc.h"
 566              		.loc 3 546 0
 567 000c 2023     		movs	r3, #32
 568              		.syntax unified
 569              	@ 546 "..//ChibiOS//os/ext/CMSIS/include/core_cmFunc.h" 1
 570 000e 83F31188 		MSR basepri, r3
ARM GAS  C:\Users\Moi\AppData\Local\Temp\cc6hy1FM.s 			page 11


 571              	@ 0 "" 2
 572              	.LVL54:
 573              		.thumb
 574              		.syntax unified
 575              	.LBE133:
 576              	.LBE132:
 577              	.LBE131:
 578              		.file 4 "..//ChibiOS//os/rt/include/chsys.h"
 579              		.loc 4 349 0
 580 0012 FFF7FEFF 		bl	_stats_start_measure_crit_thd
 581              	.LVL55:
 582              		.loc 4 350 0
 583 0016 FFF7FEFF 		bl	_dbg_check_lock
 584              	.LVL56:
 585              	.LBE130:
 586              	.LBE129:
 587              		.loc 1 126 0
 588 001a 2846     		mov	r0, r5
 589 001c FFF7FEFF 		bl	chMtxLockS
 590              	.LVL57:
 591              	.LBB134:
 592              	.LBB135:
 593              		.loc 4 360 0
 594 0020 FFF7FEFF 		bl	_dbg_check_unlock
 595              	.LVL58:
 596              		.loc 4 361 0
 597 0024 FFF7FEFF 		bl	_stats_stop_measure_crit_thd
 598              	.LVL59:
 599              		.loc 4 367 0
 600 0028 0C4B     		ldr	r3, .L68+4
 601 002a 1A68     		ldr	r2, [r3]
 602 002c 9A42     		cmp	r2, r3
 603 002e 04D0     		beq	.L63
 604 0030 9969     		ldr	r1, [r3, #24]
 605 0032 9368     		ldr	r3, [r2, #8]
 606 0034 8A68     		ldr	r2, [r1, #8]
 607 0036 9A42     		cmp	r2, r3
 608 0038 08D3     		bcc	.L66
 609              	.L63:
 610              	.LVL60:
 611              	.LBB136:
 612              	.LBB137:
 613              	.LBB138:
 614              		.loc 3 546 0
 615 003a 0023     		movs	r3, #0
 616              		.syntax unified
 617              	@ 546 "..//ChibiOS//os/ext/CMSIS/include/core_cmFunc.h" 1
 618 003c 83F31188 		MSR basepri, r3
 619              	@ 0 "" 2
 620              	.LVL61:
 621              		.thumb
 622              		.syntax unified
 623              	.LBE138:
 624              	.LBE137:
 625              	.LBE136:
 626              	.LBE135:
 627              	.LBE134:
ARM GAS  C:\Users\Moi\AppData\Local\Temp\cc6hy1FM.s 			page 12


 628              		.loc 1 128 0
 629 0040 019A     		ldr	r2, [sp, #4]
 630 0042 2368     		ldr	r3, [r4]
 631 0044 9A42     		cmp	r2, r3
 632 0046 05D1     		bne	.L67
 633 0048 03B0     		add	sp, sp, #12
 634              		.cfi_remember_state
 635              		.cfi_def_cfa_offset 12
 636              		@ sp needed
 637 004a 30BD     		pop	{r4, r5, pc}
 638              	.LVL62:
 639              	.L66:
 640              		.cfi_restore_state
 641              	.LBB140:
 642              	.LBB139:
 643              		.loc 4 367 0
 644 004c 0448     		ldr	r0, .L68+8
 645 004e FFF7FEFF 		bl	chSysHalt
 646              	.LVL63:
 647 0052 F2E7     		b	.L63
 648              	.L67:
 649              	.LBE139:
 650              	.LBE140:
 651              		.loc 1 128 0
 652 0054 FFF7FEFF 		bl	__stack_chk_fail
 653              	.LVL64:
 654              	.L69:
 655              		.align	2
 656              	.L68:
 657 0058 00000000 		.word	__stack_chk_guard
 658 005c 00000000 		.word	ch
 659 0060 00000000 		.word	.LANCHOR2
 660              		.cfi_endproc
 661              	.LFE220:
 662              		.size	chMtxLock, .-chMtxLock
 663              		.section	.text.chMtxTryLockS,"ax",%progbits
 664              		.align	1
 665              		.p2align 4,,15
 666              		.global	chMtxTryLockS
 667              		.syntax unified
 668              		.thumb
 669              		.thumb_func
 670              		.fpu fpv4-sp-d16
 671              		.type	chMtxTryLockS, %function
 672              	chMtxTryLockS:
 673              	.LFB223:
 674              		.loc 1 282 0
 675              		.cfi_startproc
 676              		@ args = 0, pretend = 0, frame = 8
 677              		@ frame_needed = 0, uses_anonymous_args = 0
 678              	.LVL65:
 679 0000 30B5     		push	{r4, r5, lr}
 680              		.cfi_def_cfa_offset 12
 681              		.cfi_offset 4, -12
 682              		.cfi_offset 5, -8
 683              		.cfi_offset 14, -4
 684 0002 1C4D     		ldr	r5, .L87
ARM GAS  C:\Users\Moi\AppData\Local\Temp\cc6hy1FM.s 			page 13


 685 0004 83B0     		sub	sp, sp, #12
 686              		.cfi_def_cfa_offset 24
 687              		.loc 1 282 0
 688 0006 0446     		mov	r4, r0
 689 0008 2B68     		ldr	r3, [r5]
 690 000a 0193     		str	r3, [sp, #4]
 691              		.loc 1 284 0
 692 000c FFF7FEFF 		bl	chDbgCheckClassS
 693              	.LVL66:
 694              		.loc 1 285 0
 695 0010 FCB1     		cbz	r4, .L82
 696              	.L71:
 697              		.loc 1 287 0
 698 0012 A268     		ldr	r2, [r4, #8]
 699 0014 2369     		ldr	r3, [r4, #16]
 700 0016 8AB1     		cbz	r2, .L72
 701              		.loc 1 290 0 discriminator 1
 702 0018 002B     		cmp	r3, #0
 703 001a 1EDD     		ble	.L83
 704              	.L73:
 705              		.loc 1 292 0
 706 001c 164B     		ldr	r3, .L87+4
 707 001e 9B69     		ldr	r3, [r3, #24]
 708 0020 9342     		cmp	r3, r2
 709 0022 06D0     		beq	.L84
 710              		.loc 1 297 0
 711 0024 0020     		movs	r0, #0
 712              	.L74:
 713              		.loc 1 309 0
 714 0026 019A     		ldr	r2, [sp, #4]
 715 0028 2B68     		ldr	r3, [r5]
 716 002a 9A42     		cmp	r2, r3
 717 002c 1FD1     		bne	.L85
 718 002e 03B0     		add	sp, sp, #12
 719              		.cfi_remember_state
 720              		.cfi_def_cfa_offset 12
 721              		@ sp needed
 722 0030 30BD     		pop	{r4, r5, pc}
 723              	.LVL67:
 724              	.L84:
 725              		.cfi_restore_state
 726              		.loc 1 293 0
 727 0032 2369     		ldr	r3, [r4, #16]
 728 0034 0133     		adds	r3, r3, #1
 729 0036 2361     		str	r3, [r4, #16]
 730              		.loc 1 294 0
 731 0038 0120     		movs	r0, #1
 732 003a F4E7     		b	.L74
 733              	.L72:
 734              	.LVL68:
 735              	.LBB143:
 736              	.LBB144:
 737              		.loc 1 301 0
 738 003c 93B9     		cbnz	r3, .L86
 739              	.L75:
 740              		.loc 1 305 0
 741 003e 0E4A     		ldr	r2, .L87+4
ARM GAS  C:\Users\Moi\AppData\Local\Temp\cc6hy1FM.s 			page 14


 742 0040 9269     		ldr	r2, [r2, #24]
 743 0042 A260     		str	r2, [r4, #8]
 744              		.loc 1 306 0
 745 0044 116C     		ldr	r1, [r2, #64]
 746              		.loc 1 303 0
 747 0046 0133     		adds	r3, r3, #1
 748              		.loc 1 306 0
 749 0048 C4E90313 		strd	r1, r3, [r4, #12]
 750              		.loc 1 307 0
 751 004c 0120     		movs	r0, #1
 752 004e 1464     		str	r4, [r2, #64]
 753              	.LVL69:
 754 0050 E9E7     		b	.L74
 755              	.L82:
 756              	.LBE144:
 757              	.LBE143:
 758              		.loc 1 285 0 discriminator 2
 759 0052 0A48     		ldr	r0, .L87+8
 760 0054 FFF7FEFF 		bl	chSysHalt
 761              	.LVL70:
 762 0058 DBE7     		b	.L71
 763              	.L83:
 764              		.loc 1 290 0 discriminator 2
 765 005a 0848     		ldr	r0, .L87+8
 766 005c FFF7FEFF 		bl	chSysHalt
 767              	.LVL71:
 768 0060 A268     		ldr	r2, [r4, #8]
 769 0062 DBE7     		b	.L73
 770              	.LVL72:
 771              	.L86:
 772              	.LBB146:
 773              	.LBB145:
 774              		.loc 1 301 0
 775 0064 0548     		ldr	r0, .L87+8
 776 0066 FFF7FEFF 		bl	chSysHalt
 777              	.LVL73:
 778 006a 2369     		ldr	r3, [r4, #16]
 779 006c E7E7     		b	.L75
 780              	.LVL74:
 781              	.L85:
 782              	.LBE145:
 783              	.LBE146:
 784              		.loc 1 309 0
 785 006e FFF7FEFF 		bl	__stack_chk_fail
 786              	.LVL75:
 787              	.L88:
 788 0072 00BF     		.align	2
 789              	.L87:
 790 0074 00000000 		.word	__stack_chk_guard
 791 0078 00000000 		.word	ch
 792 007c 00000000 		.word	.LANCHOR3
 793              		.cfi_endproc
 794              	.LFE223:
 795              		.size	chMtxTryLockS, .-chMtxTryLockS
 796              		.section	.text.chMtxTryLock,"ax",%progbits
 797              		.align	1
 798              		.p2align 4,,15
ARM GAS  C:\Users\Moi\AppData\Local\Temp\cc6hy1FM.s 			page 15


 799              		.global	chMtxTryLock
 800              		.syntax unified
 801              		.thumb
 802              		.thumb_func
 803              		.fpu fpv4-sp-d16
 804              		.type	chMtxTryLock, %function
 805              	chMtxTryLock:
 806              	.LFB222:
 807              		.loc 1 255 0
 808              		.cfi_startproc
 809              		@ args = 0, pretend = 0, frame = 8
 810              		@ frame_needed = 0, uses_anonymous_args = 0
 811              	.LVL76:
 812 0000 30B5     		push	{r4, r5, lr}
 813              		.cfi_def_cfa_offset 12
 814              		.cfi_offset 4, -12
 815              		.cfi_offset 5, -8
 816              		.cfi_offset 14, -4
 817 0002 164C     		ldr	r4, .L95
 818 0004 83B0     		sub	sp, sp, #12
 819              		.cfi_def_cfa_offset 24
 820              		.loc 1 255 0
 821 0006 2368     		ldr	r3, [r4]
 822 0008 0193     		str	r3, [sp, #4]
 823              	.LVL77:
 824 000a 0546     		mov	r5, r0
 825              	.LBB157:
 826              	.LBB158:
 827              	.LBB159:
 828              	.LBB160:
 829              	.LBB161:
 830              		.loc 3 546 0
 831 000c 2023     		movs	r3, #32
 832              		.syntax unified
 833              	@ 546 "..//ChibiOS//os/ext/CMSIS/include/core_cmFunc.h" 1
 834 000e 83F31188 		MSR basepri, r3
 835              	@ 0 "" 2
 836              	.LVL78:
 837              		.thumb
 838              		.syntax unified
 839              	.LBE161:
 840              	.LBE160:
 841              	.LBE159:
 842              		.loc 4 349 0
 843 0012 FFF7FEFF 		bl	_stats_start_measure_crit_thd
 844              	.LVL79:
 845              		.loc 4 350 0
 846 0016 FFF7FEFF 		bl	_dbg_check_lock
 847              	.LVL80:
 848              	.LBE158:
 849              	.LBE157:
 850              		.loc 1 259 0
 851 001a 2846     		mov	r0, r5
 852 001c FFF7FEFF 		bl	chMtxTryLockS
 853              	.LVL81:
 854 0020 0546     		mov	r5, r0
 855              	.LVL82:
ARM GAS  C:\Users\Moi\AppData\Local\Temp\cc6hy1FM.s 			page 16


 856              	.LBB162:
 857              	.LBB163:
 858              		.loc 4 360 0
 859 0022 FFF7FEFF 		bl	_dbg_check_unlock
 860              	.LVL83:
 861              		.loc 4 361 0
 862 0026 FFF7FEFF 		bl	_stats_stop_measure_crit_thd
 863              	.LVL84:
 864              		.loc 4 367 0
 865 002a 0D4B     		ldr	r3, .L95+4
 866 002c 1A68     		ldr	r2, [r3]
 867 002e 9A42     		cmp	r2, r3
 868 0030 04D0     		beq	.L90
 869 0032 9969     		ldr	r1, [r3, #24]
 870 0034 9368     		ldr	r3, [r2, #8]
 871 0036 8A68     		ldr	r2, [r1, #8]
 872 0038 9A42     		cmp	r2, r3
 873 003a 09D3     		bcc	.L93
 874              	.L90:
 875              	.LVL85:
 876              	.LBB164:
 877              	.LBB165:
 878              	.LBB166:
 879              		.loc 3 546 0
 880 003c 0023     		movs	r3, #0
 881              		.syntax unified
 882              	@ 546 "..//ChibiOS//os/ext/CMSIS/include/core_cmFunc.h" 1
 883 003e 83F31188 		MSR basepri, r3
 884              	@ 0 "" 2
 885              	.LVL86:
 886              		.thumb
 887              		.syntax unified
 888              	.LBE166:
 889              	.LBE165:
 890              	.LBE164:
 891              	.LBE163:
 892              	.LBE162:
 893              		.loc 1 263 0
 894 0042 019A     		ldr	r2, [sp, #4]
 895 0044 2368     		ldr	r3, [r4]
 896 0046 9A42     		cmp	r2, r3
 897 0048 2846     		mov	r0, r5
 898 004a 05D1     		bne	.L94
 899 004c 03B0     		add	sp, sp, #12
 900              		.cfi_remember_state
 901              		.cfi_def_cfa_offset 12
 902              		@ sp needed
 903 004e 30BD     		pop	{r4, r5, pc}
 904              	.LVL87:
 905              	.L93:
 906              		.cfi_restore_state
 907              	.LBB168:
 908              	.LBB167:
 909              		.loc 4 367 0
 910 0050 0448     		ldr	r0, .L95+8
 911 0052 FFF7FEFF 		bl	chSysHalt
 912              	.LVL88:
ARM GAS  C:\Users\Moi\AppData\Local\Temp\cc6hy1FM.s 			page 17


 913 0056 F1E7     		b	.L90
 914              	.L94:
 915              	.LBE167:
 916              	.LBE168:
 917              		.loc 1 263 0
 918 0058 FFF7FEFF 		bl	__stack_chk_fail
 919              	.LVL89:
 920              	.L96:
 921              		.align	2
 922              	.L95:
 923 005c 00000000 		.word	__stack_chk_guard
 924 0060 00000000 		.word	ch
 925 0064 00000000 		.word	.LANCHOR2
 926              		.cfi_endproc
 927              	.LFE222:
 928              		.size	chMtxTryLock, .-chMtxTryLock
 929              		.section	.text.chMtxUnlock,"ax",%progbits
 930              		.align	1
 931              		.p2align 4,,15
 932              		.global	chMtxUnlock
 933              		.syntax unified
 934              		.thumb
 935              		.thumb_func
 936              		.fpu fpv4-sp-d16
 937              		.type	chMtxUnlock, %function
 938              	chMtxUnlock:
 939              	.LFB224:
 940              		.loc 1 323 0
 941              		.cfi_startproc
 942              		@ args = 0, pretend = 0, frame = 8
 943              		@ frame_needed = 0, uses_anonymous_args = 0
 944              	.LVL90:
 945 0000 2DE9F043 		push	{r4, r5, r6, r7, r8, r9, lr}
 946              		.cfi_def_cfa_offset 28
 947              		.cfi_offset 4, -28
 948              		.cfi_offset 5, -24
 949              		.cfi_offset 6, -20
 950              		.cfi_offset 7, -16
 951              		.cfi_offset 8, -12
 952              		.cfi_offset 9, -8
 953              		.cfi_offset 14, -4
 954 0004 DFF80081 		ldr	r8, .L120+12
 955              		.loc 1 324 0
 956 0008 3C4F     		ldr	r7, .L120
 957              		.loc 1 323 0
 958 000a D8F80030 		ldr	r3, [r8]
 959              		.loc 1 324 0
 960 000e BE69     		ldr	r6, [r7, #24]
 961              	.LVL91:
 962              		.loc 1 323 0
 963 0010 83B0     		sub	sp, sp, #12
 964              		.cfi_def_cfa_offset 40
 965              		.loc 1 327 0
 966 0012 0546     		mov	r5, r0
 967              		.loc 1 323 0
 968 0014 0193     		str	r3, [sp, #4]
 969              		.loc 1 327 0
ARM GAS  C:\Users\Moi\AppData\Local\Temp\cc6hy1FM.s 			page 18


 970 0016 0028     		cmp	r0, #0
 971 0018 64D0     		beq	.L115
 972              	.LVL92:
 973              	.L98:
 974              	.LBB190:
 975              	.LBB191:
 976              	.LBB192:
 977              	.LBB193:
 978              	.LBB194:
 979              		.loc 3 546 0
 980 001a 2023     		movs	r3, #32
 981              		.syntax unified
 982              	@ 546 "..//ChibiOS//os/ext/CMSIS/include/core_cmFunc.h" 1
 983 001c 83F31188 		MSR basepri, r3
 984              	@ 0 "" 2
 985              	.LVL93:
 986              		.thumb
 987              		.syntax unified
 988              	.LBE194:
 989              	.LBE193:
 990              	.LBE192:
 991              		.loc 4 349 0
 992 0020 FFF7FEFF 		bl	_stats_start_measure_crit_thd
 993              	.LVL94:
 994              		.loc 4 350 0
 995 0024 FFF7FEFF 		bl	_dbg_check_lock
 996              	.LVL95:
 997              	.LBE191:
 998              	.LBE190:
 999              		.loc 1 331 0
 1000 0028 336C     		ldr	r3, [r6, #64]
 1001 002a 002B     		cmp	r3, #0
 1002 002c 5ED0     		beq	.L116
 1003              	.L99:
 1004              		.loc 1 332 0 discriminator 1
 1005 002e 9B68     		ldr	r3, [r3, #8]
 1006 0030 B342     		cmp	r3, r6
 1007 0032 02D0     		beq	.L100
 1008              		.loc 1 332 0 is_stmt 0 discriminator 2
 1009 0034 3248     		ldr	r0, .L120+4
 1010 0036 FFF7FEFF 		bl	chSysHalt
 1011              	.LVL96:
 1012              	.L100:
 1013              		.loc 1 334 0 is_stmt 1 discriminator 1
 1014 003a 2B69     		ldr	r3, [r5, #16]
 1015 003c 002B     		cmp	r3, #0
 1016 003e 49DD     		ble	.L117
 1017              	.L101:
 1018              		.loc 1 336 0
 1019 0040 013B     		subs	r3, r3, #1
 1020 0042 2B61     		str	r3, [r5, #16]
 1021 0044 5BBB     		cbnz	r3, .L102
 1022              		.loc 1 339 0 discriminator 1
 1023 0046 336C     		ldr	r3, [r6, #64]
 1024 0048 AB42     		cmp	r3, r5
 1025 004a 02D0     		beq	.L103
 1026              		.loc 1 339 0 is_stmt 0 discriminator 2
ARM GAS  C:\Users\Moi\AppData\Local\Temp\cc6hy1FM.s 			page 19


 1027 004c 2C48     		ldr	r0, .L120+4
 1028 004e FFF7FEFF 		bl	chSysHalt
 1029              	.LVL97:
 1030              	.L103:
 1031              		.loc 1 344 0 is_stmt 1
 1032 0052 EB68     		ldr	r3, [r5, #12]
 1033 0054 3364     		str	r3, [r6, #64]
 1034              	.LVL98:
 1035              	.LBB195:
 1036              	.LBB196:
 1037              		.file 5 "..//ChibiOS//os/rt/include/chmtx.h"
 1038              		.loc 5 131 0
 1039 0056 FFF7FEFF 		bl	chDbgCheckClassS
 1040              	.LVL99:
 1041              	.LBB197:
 1042              	.LBB198:
 1043              		.loc 2 631 0
 1044 005a 2B68     		ldr	r3, [r5]
 1045              	.LVL100:
 1046              	.LBE198:
 1047              	.LBE197:
 1048              	.LBE196:
 1049              	.LBE195:
 1050              		.loc 1 347 0
 1051 005c 9D42     		cmp	r5, r3
 1052 005e 3ED0     		beq	.L104
 1053              	.LBB199:
 1054              		.loc 1 352 0
 1055 0060 D6E91049 		ldrd	r4, r9, [r6, #64]
 1056              	.LVL101:
 1057              		.loc 1 354 0
 1058 0064 64B1     		cbz	r4, .L105
 1059              	.L107:
 1060              	.LVL102:
 1061              	.LBB200:
 1062              	.LBB201:
 1063              		.loc 5 131 0
 1064 0066 FFF7FEFF 		bl	chDbgCheckClassS
 1065              	.LVL103:
 1066              	.LBB202:
 1067              	.LBB203:
 1068              		.loc 2 631 0
 1069 006a 2368     		ldr	r3, [r4]
 1070              	.LVL104:
 1071              	.LBE203:
 1072              	.LBE202:
 1073              	.LBE201:
 1074              	.LBE200:
 1075              		.loc 1 358 0
 1076 006c 9C42     		cmp	r4, r3
 1077 006e 03D0     		beq	.L106
 1078 0070 9B68     		ldr	r3, [r3, #8]
 1079 0072 9945     		cmp	r9, r3
 1080 0074 38BF     		it	cc
 1081 0076 9946     		movcc	r9, r3
 1082              	.LVL105:
 1083              	.L106:
ARM GAS  C:\Users\Moi\AppData\Local\Temp\cc6hy1FM.s 			page 20


 1084              		.loc 1 362 0
 1085 0078 E468     		ldr	r4, [r4, #12]
 1086              	.LVL106:
 1087              		.loc 1 354 0
 1088 007a 002C     		cmp	r4, #0
 1089 007c F3D1     		bne	.L107
 1090 007e 2B68     		ldr	r3, [r5]
 1091              	.L105:
 1092              		.loc 1 376 0
 1093 0080 196C     		ldr	r1, [r3, #64]
 1094              	.LBB204:
 1095              	.LBB205:
 1096              		.loc 2 674 0
 1097 0082 1A68     		ldr	r2, [r3]
 1098              	.LBE205:
 1099              	.LBE204:
 1100              		.loc 1 367 0
 1101 0084 C6F80890 		str	r9, [r6, #8]
 1102              		.loc 1 372 0
 1103 0088 0120     		movs	r0, #1
 1104 008a 2861     		str	r0, [r5, #16]
 1105              	.LVL107:
 1106              	.LBB208:
 1107              	.LBB206:
 1108              		.loc 2 674 0
 1109 008c 2A60     		str	r2, [r5]
 1110              	.LBE206:
 1111              	.LBE208:
 1112              		.loc 1 378 0
 1113 008e 1846     		mov	r0, r3
 1114              	.LBB209:
 1115              	.LBB207:
 1116              		.loc 2 675 0
 1117 0090 5560     		str	r5, [r2, #4]
 1118              	.LVL108:
 1119              	.LBE207:
 1120              	.LBE209:
 1121              		.loc 1 376 0
 1122 0092 C5E90231 		strd	r3, r1, [r5, #8]
 1123              		.loc 1 378 0
 1124 0096 0021     		movs	r1, #0
 1125              		.loc 1 377 0
 1126 0098 1D64     		str	r5, [r3, #64]
 1127              		.loc 1 378 0
 1128 009a FFF7FEFF 		bl	chSchWakeupS
 1129              	.LVL109:
 1130              	.L102:
 1131              	.LBE199:
 1132              	.LBB210:
 1133              	.LBB211:
 1134              		.loc 4 360 0
 1135 009e FFF7FEFF 		bl	_dbg_check_unlock
 1136              	.LVL110:
 1137              		.loc 4 361 0
 1138 00a2 FFF7FEFF 		bl	_stats_stop_measure_crit_thd
 1139              	.LVL111:
 1140              		.loc 4 367 0
ARM GAS  C:\Users\Moi\AppData\Local\Temp\cc6hy1FM.s 			page 21


 1141 00a6 3B68     		ldr	r3, [r7]
 1142 00a8 BB42     		cmp	r3, r7
 1143 00aa 04D0     		beq	.L108
 1144 00ac BA69     		ldr	r2, [r7, #24]
 1145 00ae 9B68     		ldr	r3, [r3, #8]
 1146 00b0 9268     		ldr	r2, [r2, #8]
 1147 00b2 9A42     		cmp	r2, r3
 1148 00b4 0AD3     		bcc	.L118
 1149              	.L108:
 1150              	.LVL112:
 1151              	.LBB212:
 1152              	.LBB213:
 1153              	.LBB214:
 1154              		.loc 3 546 0
 1155 00b6 0023     		movs	r3, #0
 1156              		.syntax unified
 1157              	@ 546 "..//ChibiOS//os/ext/CMSIS/include/core_cmFunc.h" 1
 1158 00b8 83F31188 		MSR basepri, r3
 1159              	@ 0 "" 2
 1160              	.LVL113:
 1161              		.thumb
 1162              		.syntax unified
 1163              	.LBE214:
 1164              	.LBE213:
 1165              	.LBE212:
 1166              	.LBE211:
 1167              	.LBE210:
 1168              		.loc 1 388 0
 1169 00bc 019A     		ldr	r2, [sp, #4]
 1170 00be D8F80030 		ldr	r3, [r8]
 1171 00c2 9A42     		cmp	r2, r3
 1172 00c4 17D1     		bne	.L119
 1173 00c6 03B0     		add	sp, sp, #12
 1174              		.cfi_remember_state
 1175              		.cfi_def_cfa_offset 28
 1176              		@ sp needed
 1177 00c8 BDE8F083 		pop	{r4, r5, r6, r7, r8, r9, pc}
 1178              	.LVL114:
 1179              	.L118:
 1180              		.cfi_restore_state
 1181              	.LBB216:
 1182              	.LBB215:
 1183              		.loc 4 367 0
 1184 00cc 0D48     		ldr	r0, .L120+8
 1185 00ce FFF7FEFF 		bl	chSysHalt
 1186              	.LVL115:
 1187 00d2 F0E7     		b	.L108
 1188              	.L117:
 1189              	.LBE215:
 1190              	.LBE216:
 1191              		.loc 1 334 0 discriminator 2
 1192 00d4 0A48     		ldr	r0, .L120+4
 1193 00d6 FFF7FEFF 		bl	chSysHalt
 1194              	.LVL116:
 1195 00da 2B69     		ldr	r3, [r5, #16]
 1196 00dc B0E7     		b	.L101
 1197              	.L104:
ARM GAS  C:\Users\Moi\AppData\Local\Temp\cc6hy1FM.s 			page 22


 1198              		.loc 1 381 0
 1199 00de 0023     		movs	r3, #0
 1200 00e0 AB60     		str	r3, [r5, #8]
 1201 00e2 DCE7     		b	.L102
 1202              	.LVL117:
 1203              	.L115:
 1204              		.loc 1 327 0 discriminator 2
 1205 00e4 0648     		ldr	r0, .L120+4
 1206              	.LVL118:
 1207 00e6 FFF7FEFF 		bl	chSysHalt
 1208              	.LVL119:
 1209 00ea 96E7     		b	.L98
 1210              	.L116:
 1211              		.loc 1 331 0 discriminator 2
 1212 00ec 0448     		ldr	r0, .L120+4
 1213 00ee FFF7FEFF 		bl	chSysHalt
 1214              	.LVL120:
 1215 00f2 336C     		ldr	r3, [r6, #64]
 1216 00f4 9BE7     		b	.L99
 1217              	.L119:
 1218              		.loc 1 388 0
 1219 00f6 FFF7FEFF 		bl	__stack_chk_fail
 1220              	.LVL121:
 1221              	.L121:
 1222 00fa 00BF     		.align	2
 1223              	.L120:
 1224 00fc 00000000 		.word	ch
 1225 0100 00000000 		.word	.LANCHOR4
 1226 0104 00000000 		.word	.LANCHOR2
 1227 0108 00000000 		.word	__stack_chk_guard
 1228              		.cfi_endproc
 1229              	.LFE224:
 1230              		.size	chMtxUnlock, .-chMtxUnlock
 1231              		.section	.text.chMtxUnlockS,"ax",%progbits
 1232              		.align	1
 1233              		.p2align 4,,15
 1234              		.global	chMtxUnlockS
 1235              		.syntax unified
 1236              		.thumb
 1237              		.thumb_func
 1238              		.fpu fpv4-sp-d16
 1239              		.type	chMtxUnlockS, %function
 1240              	chMtxUnlockS:
 1241              	.LFB225:
 1242              		.loc 1 404 0
 1243              		.cfi_startproc
 1244              		@ args = 0, pretend = 0, frame = 8
 1245              		@ frame_needed = 0, uses_anonymous_args = 0
 1246              	.LVL122:
 1247 0000 2DE9F041 		push	{r4, r5, r6, r7, r8, lr}
 1248              		.cfi_def_cfa_offset 24
 1249              		.cfi_offset 4, -24
 1250              		.cfi_offset 5, -20
 1251              		.cfi_offset 6, -16
 1252              		.cfi_offset 7, -12
 1253              		.cfi_offset 8, -8
 1254              		.cfi_offset 14, -4
ARM GAS  C:\Users\Moi\AppData\Local\Temp\cc6hy1FM.s 			page 23


 1255 0004 DFF8D880 		ldr	r8, .L144+8
 1256              		.loc 1 405 0
 1257 0008 334B     		ldr	r3, .L144
 1258              		.loc 1 404 0
 1259 000a D8F80020 		ldr	r2, [r8]
 1260              		.loc 1 405 0
 1261 000e 9E69     		ldr	r6, [r3, #24]
 1262              	.LVL123:
 1263              		.loc 1 404 0
 1264 0010 82B0     		sub	sp, sp, #8
 1265              		.cfi_def_cfa_offset 32
 1266              		.loc 1 404 0
 1267 0012 0546     		mov	r5, r0
 1268 0014 0192     		str	r2, [sp, #4]
 1269              		.loc 1 408 0
 1270 0016 FFF7FEFF 		bl	chDbgCheckClassS
 1271              	.LVL124:
 1272              		.loc 1 409 0
 1273 001a 002D     		cmp	r5, #0
 1274 001c 4FD0     		beq	.L141
 1275              		.loc 1 411 0 discriminator 1
 1276 001e 336C     		ldr	r3, [r6, #64]
 1277 0020 002B     		cmp	r3, #0
 1278 0022 52D0     		beq	.L142
 1279              	.L124:
 1280              		.loc 1 412 0 discriminator 1
 1281 0024 9B68     		ldr	r3, [r3, #8]
 1282 0026 B342     		cmp	r3, r6
 1283 0028 02D0     		beq	.L125
 1284              		.loc 1 412 0 is_stmt 0 discriminator 2
 1285 002a 2C48     		ldr	r0, .L144+4
 1286 002c FFF7FEFF 		bl	chSysHalt
 1287              	.LVL125:
 1288              	.L125:
 1289              		.loc 1 414 0 is_stmt 1 discriminator 1
 1290 0030 2B69     		ldr	r3, [r5, #16]
 1291 0032 002B     		cmp	r3, #0
 1292 0034 3EDD     		ble	.L143
 1293              	.L126:
 1294              		.loc 1 416 0
 1295 0036 013B     		subs	r3, r3, #1
 1296 0038 2B61     		str	r3, [r5, #16]
 1297 003a 002B     		cmp	r3, #0
 1298 003c 32D1     		bne	.L122
 1299              		.loc 1 419 0 discriminator 1
 1300 003e 336C     		ldr	r3, [r6, #64]
 1301 0040 AB42     		cmp	r3, r5
 1302 0042 02D0     		beq	.L128
 1303              		.loc 1 419 0 is_stmt 0 discriminator 2
 1304 0044 2548     		ldr	r0, .L144+4
 1305 0046 FFF7FEFF 		bl	chSysHalt
 1306              	.LVL126:
 1307              	.L128:
 1308              		.loc 1 424 0 is_stmt 1
 1309 004a EB68     		ldr	r3, [r5, #12]
 1310 004c 3364     		str	r3, [r6, #64]
 1311              	.LVL127:
ARM GAS  C:\Users\Moi\AppData\Local\Temp\cc6hy1FM.s 			page 24


 1312              	.LBB217:
 1313              	.LBB218:
 1314              		.loc 5 131 0
 1315 004e FFF7FEFF 		bl	chDbgCheckClassS
 1316              	.LVL128:
 1317              	.LBB219:
 1318              	.LBB220:
 1319              		.loc 2 631 0
 1320 0052 2868     		ldr	r0, [r5]
 1321              	.LVL129:
 1322              	.LBE220:
 1323              	.LBE219:
 1324              	.LBE218:
 1325              	.LBE217:
 1326              		.loc 1 427 0
 1327 0054 8542     		cmp	r5, r0
 1328 0056 23D0     		beq	.L129
 1329              	.LBB221:
 1330              		.loc 1 432 0
 1331 0058 D6E91047 		ldrd	r4, r7, [r6, #64]
 1332              	.LVL130:
 1333              		.loc 1 434 0
 1334 005c 64B1     		cbz	r4, .L130
 1335              	.L132:
 1336              	.LVL131:
 1337              	.LBB222:
 1338              	.LBB223:
 1339              		.loc 5 131 0
 1340 005e FFF7FEFF 		bl	chDbgCheckClassS
 1341              	.LVL132:
 1342              	.LBB224:
 1343              	.LBB225:
 1344              		.loc 2 631 0
 1345 0062 2368     		ldr	r3, [r4]
 1346              	.LVL133:
 1347              	.LBE225:
 1348              	.LBE224:
 1349              	.LBE223:
 1350              	.LBE222:
 1351              		.loc 1 438 0
 1352 0064 9C42     		cmp	r4, r3
 1353 0066 03D0     		beq	.L131
 1354 0068 9B68     		ldr	r3, [r3, #8]
 1355 006a 9F42     		cmp	r7, r3
 1356 006c 38BF     		it	cc
 1357 006e 1F46     		movcc	r7, r3
 1358              	.LVL134:
 1359              	.L131:
 1360              		.loc 1 442 0
 1361 0070 E468     		ldr	r4, [r4, #12]
 1362              	.LVL135:
 1363              		.loc 1 434 0
 1364 0072 002C     		cmp	r4, #0
 1365 0074 F3D1     		bne	.L132
 1366 0076 2868     		ldr	r0, [r5]
 1367              	.L130:
 1368              		.loc 1 458 0
ARM GAS  C:\Users\Moi\AppData\Local\Temp\cc6hy1FM.s 			page 25


 1369 0078 0199     		ldr	r1, [sp, #4]
 1370 007a D8F80020 		ldr	r2, [r8]
 1371              	.LBB226:
 1372              	.LBB227:
 1373              		.loc 2 674 0
 1374 007e 0368     		ldr	r3, [r0]
 1375              	.LBE227:
 1376              	.LBE226:
 1377              		.loc 1 447 0
 1378 0080 B760     		str	r7, [r6, #8]
 1379              		.loc 1 452 0
 1380 0082 0124     		movs	r4, #1
 1381              	.LVL136:
 1382 0084 2C61     		str	r4, [r5, #16]
 1383              	.LVL137:
 1384              		.loc 1 456 0
 1385 0086 046C     		ldr	r4, [r0, #64]
 1386              	.LBB230:
 1387              	.LBB228:
 1388              		.loc 2 674 0
 1389 0088 2B60     		str	r3, [r5]
 1390              	.LBE228:
 1391              	.LBE230:
 1392              		.loc 1 458 0
 1393 008a 9142     		cmp	r1, r2
 1394              	.LBB231:
 1395              	.LBB229:
 1396              		.loc 2 675 0
 1397 008c 5D60     		str	r5, [r3, #4]
 1398              	.LVL138:
 1399              	.LBE229:
 1400              	.LBE231:
 1401              		.loc 1 456 0
 1402 008e C5E90204 		strd	r0, r4, [r5, #8]
 1403              		.loc 1 457 0
 1404 0092 0564     		str	r5, [r0, #64]
 1405              		.loc 1 458 0
 1406 0094 1ED1     		bne	.L140
 1407              	.LBE221:
 1408              		.loc 1 466 0
 1409 0096 02B0     		add	sp, sp, #8
 1410              		.cfi_remember_state
 1411              		.cfi_def_cfa_offset 24
 1412              		@ sp needed
 1413 0098 BDE8F041 		pop	{r4, r5, r6, r7, r8, lr}
 1414              		.cfi_restore 14
 1415              		.cfi_restore 8
 1416              		.cfi_restore 7
 1417              		.cfi_restore 6
 1418              		.cfi_restore 5
 1419              		.cfi_restore 4
 1420              		.cfi_def_cfa_offset 0
 1421              	.LVL139:
 1422              	.LBB232:
 1423              		.loc 1 458 0
 1424 009c FFF7FEBF 		b	chSchReadyI
 1425              	.LVL140:
ARM GAS  C:\Users\Moi\AppData\Local\Temp\cc6hy1FM.s 			page 26


 1426              	.L129:
 1427              		.cfi_restore_state
 1428              	.LBE232:
 1429              		.loc 1 461 0
 1430 00a0 0023     		movs	r3, #0
 1431 00a2 AB60     		str	r3, [r5, #8]
 1432              	.L122:
 1433              		.loc 1 466 0
 1434 00a4 019A     		ldr	r2, [sp, #4]
 1435 00a6 D8F80030 		ldr	r3, [r8]
 1436 00aa 9A42     		cmp	r2, r3
 1437 00ac 12D1     		bne	.L140
 1438 00ae 02B0     		add	sp, sp, #8
 1439              		.cfi_remember_state
 1440              		.cfi_def_cfa_offset 24
 1441              		@ sp needed
 1442 00b0 BDE8F081 		pop	{r4, r5, r6, r7, r8, pc}
 1443              	.LVL141:
 1444              	.L143:
 1445              		.cfi_restore_state
 1446              		.loc 1 414 0 discriminator 2
 1447 00b4 0948     		ldr	r0, .L144+4
 1448 00b6 FFF7FEFF 		bl	chSysHalt
 1449              	.LVL142:
 1450 00ba 2B69     		ldr	r3, [r5, #16]
 1451 00bc BBE7     		b	.L126
 1452              	.L141:
 1453              		.loc 1 409 0 discriminator 2
 1454 00be 0748     		ldr	r0, .L144+4
 1455 00c0 FFF7FEFF 		bl	chSysHalt
 1456              	.LVL143:
 1457              		.loc 1 411 0 discriminator 2
 1458 00c4 336C     		ldr	r3, [r6, #64]
 1459 00c6 002B     		cmp	r3, #0
 1460 00c8 ACD1     		bne	.L124
 1461              	.L142:
 1462 00ca 0448     		ldr	r0, .L144+4
 1463 00cc FFF7FEFF 		bl	chSysHalt
 1464              	.LVL144:
 1465 00d0 336C     		ldr	r3, [r6, #64]
 1466 00d2 A7E7     		b	.L124
 1467              	.L140:
 1468              		.loc 1 466 0
 1469 00d4 FFF7FEFF 		bl	__stack_chk_fail
 1470              	.LVL145:
 1471              	.L145:
 1472              		.align	2
 1473              	.L144:
 1474 00d8 00000000 		.word	ch
 1475 00dc 00000000 		.word	.LANCHOR5
 1476 00e0 00000000 		.word	__stack_chk_guard
 1477              		.cfi_endproc
 1478              	.LFE225:
 1479              		.size	chMtxUnlockS, .-chMtxUnlockS
 1480              		.section	.text.chMtxUnlockAll,"ax",%progbits
 1481              		.align	1
 1482              		.p2align 4,,15
ARM GAS  C:\Users\Moi\AppData\Local\Temp\cc6hy1FM.s 			page 27


 1483              		.global	chMtxUnlockAll
 1484              		.syntax unified
 1485              		.thumb
 1486              		.thumb_func
 1487              		.fpu fpv4-sp-d16
 1488              		.type	chMtxUnlockAll, %function
 1489              	chMtxUnlockAll:
 1490              	.LFB226:
 1491              		.loc 1 479 0
 1492              		.cfi_startproc
 1493              		@ args = 0, pretend = 0, frame = 8
 1494              		@ frame_needed = 0, uses_anonymous_args = 0
 1495 0000 2DE9F043 		push	{r4, r5, r6, r7, r8, r9, lr}
 1496              		.cfi_def_cfa_offset 28
 1497              		.cfi_offset 4, -28
 1498              		.cfi_offset 5, -24
 1499              		.cfi_offset 6, -20
 1500              		.cfi_offset 7, -16
 1501              		.cfi_offset 8, -12
 1502              		.cfi_offset 9, -8
 1503              		.cfi_offset 14, -4
 1504 0004 DFF8A490 		ldr	r9, .L162+8
 1505              		.loc 1 480 0
 1506 0008 264F     		ldr	r7, .L162
 1507              		.loc 1 479 0
 1508 000a D9F80030 		ldr	r3, [r9]
 1509              		.loc 1 480 0
 1510 000e BD69     		ldr	r5, [r7, #24]
 1511              	.LVL146:
 1512              		.loc 1 479 0
 1513 0010 83B0     		sub	sp, sp, #12
 1514              		.cfi_def_cfa_offset 40
 1515              		.loc 1 479 0
 1516 0012 0193     		str	r3, [sp, #4]
 1517              	.LBB251:
 1518              	.LBB252:
 1519              	.LBB253:
 1520              	.LBB254:
 1521              	.LBB255:
 1522              		.loc 3 546 0
 1523 0014 2023     		movs	r3, #32
 1524              		.syntax unified
 1525              	@ 546 "..//ChibiOS//os/ext/CMSIS/include/core_cmFunc.h" 1
 1526 0016 83F31188 		MSR basepri, r3
 1527              	@ 0 "" 2
 1528              	.LVL147:
 1529              		.thumb
 1530              		.syntax unified
 1531              	.LBE255:
 1532              	.LBE254:
 1533              	.LBE253:
 1534              		.loc 4 349 0
 1535 001a FFF7FEFF 		bl	_stats_start_measure_crit_thd
 1536              	.LVL148:
 1537              		.loc 4 350 0
 1538 001e FFF7FEFF 		bl	_dbg_check_lock
 1539              	.LVL149:
ARM GAS  C:\Users\Moi\AppData\Local\Temp\cc6hy1FM.s 			page 28


 1540              	.LBE252:
 1541              	.LBE251:
 1542              		.loc 1 483 0
 1543 0022 2C6C     		ldr	r4, [r5, #64]
 1544 0024 0CB3     		cbz	r4, .L147
 1545              	.LBB256:
 1546              		.loc 1 499 0
 1547 0026 0026     		movs	r6, #0
 1548              	.LBB257:
 1549              		.loc 1 489 0
 1550 0028 4FF00108 		mov	r8, #1
 1551 002c 0DE0     		b	.L150
 1552              	.LVL150:
 1553              	.L159:
 1554              		.loc 1 493 0
 1555 002e 196C     		ldr	r1, [r3, #64]
 1556              	.LBB258:
 1557              	.LBB259:
 1558              		.loc 2 674 0
 1559 0030 1A68     		ldr	r2, [r3]
 1560 0032 2260     		str	r2, [r4]
 1561              	.LBE259:
 1562              	.LBE258:
 1563              		.loc 1 489 0
 1564 0034 C4F81080 		str	r8, [r4, #16]
 1565              	.LVL151:
 1566              		.loc 1 495 0
 1567 0038 1846     		mov	r0, r3
 1568              	.LBB261:
 1569              	.LBB260:
 1570              		.loc 2 675 0
 1571 003a 5460     		str	r4, [r2, #4]
 1572              	.LVL152:
 1573              	.LBE260:
 1574              	.LBE261:
 1575              		.loc 1 493 0
 1576 003c C4E90231 		strd	r3, r1, [r4, #8]
 1577              		.loc 1 494 0
 1578 0040 1C64     		str	r4, [r3, #64]
 1579              		.loc 1 495 0
 1580 0042 FFF7FEFF 		bl	chSchReadyI
 1581              	.LVL153:
 1582              	.LBE257:
 1583              	.LBE256:
 1584              		.loc 1 503 0
 1585 0046 2C6C     		ldr	r4, [r5, #64]
 1586 0048 5CB1     		cbz	r4, .L158
 1587              	.L150:
 1588              	.LVL154:
 1589              	.LBB266:
 1590              		.loc 1 486 0
 1591 004a E368     		ldr	r3, [r4, #12]
 1592 004c 2B64     		str	r3, [r5, #64]
 1593              	.LVL155:
 1594              	.LBB262:
 1595              	.LBB263:
 1596              		.loc 5 131 0
ARM GAS  C:\Users\Moi\AppData\Local\Temp\cc6hy1FM.s 			page 29


 1597 004e FFF7FEFF 		bl	chDbgCheckClassS
 1598              	.LVL156:
 1599              	.LBB264:
 1600              	.LBB265:
 1601              		.loc 2 631 0
 1602 0052 2368     		ldr	r3, [r4]
 1603              	.LVL157:
 1604              	.LBE265:
 1605              	.LBE264:
 1606              	.LBE263:
 1607              	.LBE262:
 1608              		.loc 1 487 0
 1609 0054 9C42     		cmp	r4, r3
 1610 0056 EAD1     		bne	.L159
 1611              		.loc 1 499 0
 1612 0058 2661     		str	r6, [r4, #16]
 1613              		.loc 1 501 0
 1614 005a A660     		str	r6, [r4, #8]
 1615              	.LBE266:
 1616              		.loc 1 503 0
 1617 005c 2C6C     		ldr	r4, [r5, #64]
 1618 005e 002C     		cmp	r4, #0
 1619 0060 F3D1     		bne	.L150
 1620              	.L158:
 1621              		.loc 1 504 0
 1622 0062 6B6C     		ldr	r3, [r5, #68]
 1623 0064 AB60     		str	r3, [r5, #8]
 1624              		.loc 1 505 0
 1625 0066 FFF7FEFF 		bl	chSchRescheduleS
 1626              	.LVL158:
 1627              	.L147:
 1628              	.LBB267:
 1629              	.LBB268:
 1630              		.loc 4 360 0
 1631 006a FFF7FEFF 		bl	_dbg_check_unlock
 1632              	.LVL159:
 1633              		.loc 4 361 0
 1634 006e FFF7FEFF 		bl	_stats_stop_measure_crit_thd
 1635              	.LVL160:
 1636              		.loc 4 367 0
 1637 0072 3B68     		ldr	r3, [r7]
 1638 0074 BB42     		cmp	r3, r7
 1639 0076 04D0     		beq	.L151
 1640 0078 BA69     		ldr	r2, [r7, #24]
 1641 007a 9B68     		ldr	r3, [r3, #8]
 1642 007c 9268     		ldr	r2, [r2, #8]
 1643 007e 9A42     		cmp	r2, r3
 1644 0080 0AD3     		bcc	.L160
 1645              	.L151:
 1646              	.LVL161:
 1647              	.LBB269:
 1648              	.LBB270:
 1649              	.LBB271:
 1650              		.loc 3 546 0
 1651 0082 0023     		movs	r3, #0
 1652              		.syntax unified
 1653              	@ 546 "..//ChibiOS//os/ext/CMSIS/include/core_cmFunc.h" 1
ARM GAS  C:\Users\Moi\AppData\Local\Temp\cc6hy1FM.s 			page 30


 1654 0084 83F31188 		MSR basepri, r3
 1655              	@ 0 "" 2
 1656              	.LVL162:
 1657              		.thumb
 1658              		.syntax unified
 1659              	.LBE271:
 1660              	.LBE270:
 1661              	.LBE269:
 1662              	.LBE268:
 1663              	.LBE267:
 1664              		.loc 1 508 0
 1665 0088 019A     		ldr	r2, [sp, #4]
 1666 008a D9F80030 		ldr	r3, [r9]
 1667 008e 9A42     		cmp	r2, r3
 1668 0090 06D1     		bne	.L161
 1669 0092 03B0     		add	sp, sp, #12
 1670              		.cfi_remember_state
 1671              		.cfi_def_cfa_offset 28
 1672              		@ sp needed
 1673 0094 BDE8F083 		pop	{r4, r5, r6, r7, r8, r9, pc}
 1674              	.LVL163:
 1675              	.L160:
 1676              		.cfi_restore_state
 1677              	.LBB273:
 1678              	.LBB272:
 1679              		.loc 4 367 0
 1680 0098 0348     		ldr	r0, .L162+4
 1681 009a FFF7FEFF 		bl	chSysHalt
 1682              	.LVL164:
 1683 009e F0E7     		b	.L151
 1684              	.L161:
 1685              	.LBE272:
 1686              	.LBE273:
 1687              		.loc 1 508 0
 1688 00a0 FFF7FEFF 		bl	__stack_chk_fail
 1689              	.LVL165:
 1690              	.L163:
 1691              		.align	2
 1692              	.L162:
 1693 00a4 00000000 		.word	ch
 1694 00a8 00000000 		.word	.LANCHOR2
 1695 00ac 00000000 		.word	__stack_chk_guard
 1696              		.cfi_endproc
 1697              	.LFE226:
 1698              		.size	chMtxUnlockAll, .-chMtxUnlockAll
 1699              		.section	.rodata.__func__.7153,"a",%progbits
 1700              		.align	2
 1701              		.set	.LANCHOR2,. + 0
 1702              		.type	__func__.7153, %object
 1703              		.size	__func__.7153, 12
 1704              	__func__.7153:
 1705 0000 63685379 		.ascii	"chSysUnlock\000"
 1705      73556E6C 
 1705      6F636B00 
 1706              		.section	.rodata.__func__.7849,"a",%progbits
 1707              		.align	2
 1708              		.set	.LANCHOR0,. + 0
ARM GAS  C:\Users\Moi\AppData\Local\Temp\cc6hy1FM.s 			page 31


 1709              		.type	__func__.7849, %object
 1710              		.size	__func__.7849, 16
 1711              	__func__.7849:
 1712 0000 63684D74 		.ascii	"chMtxObjectInit\000"
 1712      784F626A 
 1712      65637449 
 1712      6E697400 
 1713              		.section	.rodata.__func__.7857,"a",%progbits
 1714              		.align	2
 1715              		.set	.LANCHOR1,. + 0
 1716              		.type	__func__.7857, %object
 1717              		.size	__func__.7857, 11
 1718              	__func__.7857:
 1719 0000 63684D74 		.ascii	"chMtxLockS\000"
 1719      784C6F63 
 1719      6B5300
 1720              		.section	.rodata.__func__.7874,"a",%progbits
 1721              		.align	2
 1722              		.set	.LANCHOR3,. + 0
 1723              		.type	__func__.7874, %object
 1724              		.size	__func__.7874, 14
 1725              	__func__.7874:
 1726 0000 63684D74 		.ascii	"chMtxTryLockS\000"
 1726      78547279 
 1726      4C6F636B 
 1726      5300
 1727              		.section	.rodata.__func__.7880,"a",%progbits
 1728              		.align	2
 1729              		.set	.LANCHOR4,. + 0
 1730              		.type	__func__.7880, %object
 1731              		.size	__func__.7880, 12
 1732              	__func__.7880:
 1733 0000 63684D74 		.ascii	"chMtxUnlock\000"
 1733      78556E6C 
 1733      6F636B00 
 1734              		.section	.rodata.__func__.7891,"a",%progbits
 1735              		.align	2
 1736              		.set	.LANCHOR5,. + 0
 1737              		.type	__func__.7891, %object
 1738              		.size	__func__.7891, 13
 1739              	__func__.7891:
 1740 0000 63684D74 		.ascii	"chMtxUnlockS\000"
 1740      78556E6C 
 1740      6F636B53 
 1740      00
 1741              		.text
 1742              	.Letext0:
 1743              		.file 6 "c:\\users\\moi\\documents\\_microinfo\\epuck-eclipse\\tools\\gcc-arm-none-eabi-7-2017-q4-
 1744              		.file 7 "c:\\users\\moi\\documents\\_microinfo\\epuck-eclipse\\tools\\gcc-arm-none-eabi-7-2017-q4-
 1745              		.file 8 "..//ChibiOS//os/rt/ports/ARMCMx/compilers/GCC/chtypes.h"
 1746              		.file 9 "..//ChibiOS//os/rt/include/chsystypes.h"
 1747              		.file 10 "..//ChibiOS//os/ext/CMSIS/include/core_cm4.h"
 1748              		.file 11 "..//ChibiOS//os/ext/CMSIS/ST/system_stm32f4xx.h"
 1749              		.file 12 "..//ChibiOS//os/rt/ports/ARMCMx/chcore.h"
 1750              		.file 13 "..//ChibiOS//os/rt/ports/ARMCMx/chcore_v7m.h"
 1751              		.file 14 "..//ChibiOS//os/rt/include/chdebug.h"
 1752              		.file 15 "..//ChibiOS//os/rt/include/chtm.h"
ARM GAS  C:\Users\Moi\AppData\Local\Temp\cc6hy1FM.s 			page 32


 1753              		.file 16 "..//ChibiOS//os/rt/include/chstats.h"
 1754              		.file 17 "..//ChibiOS//os/rt/include/chsem.h"
 1755              		.file 18 "..//ChibiOS//os/rt/include/chregistry.h"