ARM GAS  C:\Users\Moi\AppData\Local\Temp\ccDZonDd.s 			page 1


   1              		.cpu cortex-m4
   2              		.eabi_attribute 27, 1
   3              		.eabi_attribute 28, 1
   4              		.eabi_attribute 20, 1
   5              		.eabi_attribute 21, 1
   6              		.eabi_attribute 23, 3
   7              		.eabi_attribute 24, 1
   8              		.eabi_attribute 25, 1
   9              		.eabi_attribute 26, 1
  10              		.eabi_attribute 30, 2
  11              		.eabi_attribute 34, 1
  12              		.eabi_attribute 18, 4
  13              		.file	"chthreads.c"
  14              		.text
  15              	.Ltext0:
  16              		.cfi_sections	.debug_frame
  17              		.section	.text._thread_init,"ax",%progbits
  18              		.align	1
  19              		.p2align 4,,15
  20              		.global	_thread_init
  21              		.syntax unified
  22              		.thumb
  23              		.thumb_func
  24              		.fpu fpv4-sp-d16
  25              		.type	_thread_init, %function
  26              	_thread_init:
  27              	.LFB219:
  28              		.file 1 "..//ChibiOS//os/rt/src/chthreads.c"
  29              		.loc 1 91 0
  30              		.cfi_startproc
  31              		@ args = 0, pretend = 0, frame = 8
  32              		@ frame_needed = 0, uses_anonymous_args = 0
  33              	.LVL0:
  34 0000 F0B5     		push	{r4, r5, r6, r7, lr}
  35              		.cfi_def_cfa_offset 20
  36              		.cfi_offset 4, -20
  37              		.cfi_offset 5, -16
  38              		.cfi_offset 6, -12
  39              		.cfi_offset 7, -8
  40              		.cfi_offset 14, -4
  41 0002 1A4D     		ldr	r5, .L6
  42              		.loc 1 114 0
  43 0004 1A4A     		ldr	r2, .L6+4
  44              		.loc 1 91 0
  45 0006 2B68     		ldr	r3, [r5]
  46              		.loc 1 100 0
  47 0008 4164     		str	r1, [r0, #68]
  48              		.loc 1 91 0
  49 000a 83B0     		sub	sp, sp, #12
  50              		.cfi_def_cfa_offset 32
  51              		.loc 1 91 0
  52 000c 0446     		mov	r4, r0
  53 000e 0193     		str	r3, [sp, #4]
  54              		.loc 1 94 0
  55 0010 0223     		movs	r3, #2
  56              		.loc 1 114 0
  57 0012 5769     		ldr	r7, [r2, #20]
ARM GAS  C:\Users\Moi\AppData\Local\Temp\ccDZonDd.s 			page 2


  58              		.loc 1 93 0
  59 0014 8160     		str	r1, [r0, #8]
  60              		.loc 1 110 0
  61 0016 0126     		movs	r6, #1
  62              		.loc 1 94 0
  63 0018 2384     		strh	r3, [r4, #32]	@ movhi
  64              		.loc 1 101 0
  65 001a 0023     		movs	r3, #0
  66              		.loc 1 97 0
  67 001c 4FF0140C 		mov	ip, #20
  68              		.loc 1 123 0
  69 0020 04F16801 		add	r1, r4, #104
  70              	.LVL1:
  71              		.loc 1 110 0
  72 0024 84F82260 		strb	r6, [r4, #34]
  73              		.loc 1 104 0
  74 0028 C4E90F33 		strd	r3, r3, [r4, #60]
  75              		.loc 1 113 0
  76 002c A361     		str	r3, [r4, #24]
  77              		.loc 1 107 0
  78 002e 6362     		str	r3, [r4, #36]
  79              		.loc 1 117 0
  80 0030 2C30     		adds	r0, r0, #44
  81              	.LVL2:
  82              		.loc 1 120 0
  83 0032 04F13003 		add	r3, r4, #48
  84              		.loc 1 126 0
  85 0036 04F15006 		add	r6, r4, #80
  86              		.loc 1 114 0
  87 003a C4E90427 		strd	r2, r7, [r4, #16]
  88              		.loc 1 97 0
  89 003e 84F823C0 		strb	ip, [r4, #35]
  90              		.loc 1 114 0
  91 0042 3C61     		str	r4, [r7, #16]
  92              	.LBB107:
  93              	.LBB108:
  94              		.file 2 "..//ChibiOS//os/rt/include/chschd.h"
  95              		.loc 2 605 0
  96 0044 C4E90C33 		strd	r3, r3, [r4, #48]
  97              	.LBE108:
  98              	.LBE107:
  99              	.LBB109:
 100              	.LBB110:
 101              		.loc 2 566 0
 102 0048 E062     		str	r0, [r4, #44]
 103              	.LBE110:
 104              	.LBE109:
 105              		.loc 1 123 0
 106 004a E161     		str	r1, [r4, #28]
 107              		.loc 1 126 0
 108 004c 3046     		mov	r0, r6
 109              		.loc 1 114 0
 110 004e 5461     		str	r4, [r2, #20]
 111              		.loc 1 126 0
 112 0050 FFF7FEFF 		bl	chTMObjectInit
 113              	.LVL3:
 114              		.loc 1 127 0
ARM GAS  C:\Users\Moi\AppData\Local\Temp\ccDZonDd.s 			page 3


 115 0054 3046     		mov	r0, r6
 116 0056 FFF7FEFF 		bl	chTMStartMeasurementX
 117              	.LVL4:
 118              		.loc 1 133 0
 119 005a 019A     		ldr	r2, [sp, #4]
 120 005c 2B68     		ldr	r3, [r5]
 121 005e 9A42     		cmp	r2, r3
 122 0060 02D1     		bne	.L5
 123 0062 2046     		mov	r0, r4
 124 0064 03B0     		add	sp, sp, #12
 125              		.cfi_remember_state
 126              		.cfi_def_cfa_offset 20
 127              		@ sp needed
 128 0066 F0BD     		pop	{r4, r5, r6, r7, pc}
 129              	.LVL5:
 130              	.L5:
 131              		.cfi_restore_state
 132 0068 FFF7FEFF 		bl	__stack_chk_fail
 133              	.LVL6:
 134              	.L7:
 135              		.align	2
 136              	.L6:
 137 006c 00000000 		.word	__stack_chk_guard
 138 0070 00000000 		.word	ch
 139              		.cfi_endproc
 140              	.LFE219:
 141              		.size	_thread_init, .-_thread_init
 142              		.section	.text._thread_memfill,"ax",%progbits
 143              		.align	1
 144              		.p2align 4,,15
 145              		.global	_thread_memfill
 146              		.syntax unified
 147              		.thumb
 148              		.thumb_func
 149              		.fpu fpv4-sp-d16
 150              		.type	_thread_memfill, %function
 151              	_thread_memfill:
 152              	.LFB220:
 153              		.loc 1 145 0
 154              		.cfi_startproc
 155              		@ args = 0, pretend = 0, frame = 8
 156              		@ frame_needed = 0, uses_anonymous_args = 0
 157              	.LVL7:
 158 0000 10B5     		push	{r4, lr}
 159              		.cfi_def_cfa_offset 8
 160              		.cfi_offset 4, -8
 161              		.cfi_offset 14, -4
 162 0002 094B     		ldr	r3, .L15
 163 0004 82B0     		sub	sp, sp, #8
 164              		.cfi_def_cfa_offset 16
 165              		.loc 1 145 0
 166 0006 1C68     		ldr	r4, [r3]
 167 0008 0194     		str	r4, [sp, #4]
 168              		.loc 1 147 0
 169 000a 8842     		cmp	r0, r1
 170 000c 03D2     		bcs	.L8
 171              	.L10:
ARM GAS  C:\Users\Moi\AppData\Local\Temp\ccDZonDd.s 			page 4


 172              		.loc 1 148 0
 173 000e 00F8012B 		strb	r2, [r0], #1
 174              	.LVL8:
 175              		.loc 1 147 0
 176 0012 8142     		cmp	r1, r0
 177 0014 FBD1     		bne	.L10
 178              	.L8:
 179              		.loc 1 150 0
 180 0016 019A     		ldr	r2, [sp, #4]
 181              	.LVL9:
 182 0018 1B68     		ldr	r3, [r3]
 183 001a 9A42     		cmp	r2, r3
 184 001c 01D1     		bne	.L14
 185 001e 02B0     		add	sp, sp, #8
 186              		.cfi_remember_state
 187              		.cfi_def_cfa_offset 8
 188              		@ sp needed
 189 0020 10BD     		pop	{r4, pc}
 190              	.L14:
 191              		.cfi_restore_state
 192 0022 FFF7FEFF 		bl	__stack_chk_fail
 193              	.LVL10:
 194              	.L16:
 195 0026 00BF     		.align	2
 196              	.L15:
 197 0028 00000000 		.word	__stack_chk_guard
 198              		.cfi_endproc
 199              	.LFE220:
 200              		.size	_thread_memfill, .-_thread_memfill
 201              		.section	.text.chThdCreateI,"ax",%progbits
 202              		.align	1
 203              		.p2align 4,,15
 204              		.global	chThdCreateI
 205              		.syntax unified
 206              		.thumb
 207              		.thumb_func
 208              		.fpu fpv4-sp-d16
 209              		.type	chThdCreateI, %function
 210              	chThdCreateI:
 211              	.LFB221:
 212              		.loc 1 178 0
 213              		.cfi_startproc
 214              		@ args = 4, pretend = 0, frame = 8
 215              		@ frame_needed = 0, uses_anonymous_args = 0
 216              	.LVL11:
 217 0000 2DE9F043 		push	{r4, r5, r6, r7, r8, r9, lr}
 218              		.cfi_def_cfa_offset 28
 219              		.cfi_offset 4, -28
 220              		.cfi_offset 5, -24
 221              		.cfi_offset 6, -20
 222              		.cfi_offset 7, -16
 223              		.cfi_offset 8, -12
 224              		.cfi_offset 9, -8
 225              		.cfi_offset 14, -4
 226 0004 174E     		ldr	r6, .L28
 227 0006 83B0     		sub	sp, sp, #12
 228              		.cfi_def_cfa_offset 40
ARM GAS  C:\Users\Moi\AppData\Local\Temp\ccDZonDd.s 			page 5


 229              		.loc 1 178 0
 230 0008 3468     		ldr	r4, [r6]
 231 000a 0194     		str	r4, [sp, #4]
 232 000c 0546     		mov	r5, r0
 233              	.LVL12:
 234 000e DDF82890 		ldr	r9, [sp, #40]
 235 0012 0C46     		mov	r4, r1
 236 0014 1746     		mov	r7, r2
 237 0016 9846     		mov	r8, r3
 238              		.loc 1 183 0
 239 0018 FFF7FEFF 		bl	chDbgCheckClassI
 240              	.LVL13:
 241              		.loc 1 184 0
 242 001c 15B1     		cbz	r5, .L18
 243              		.loc 1 184 0 is_stmt 0 discriminator 3
 244 001e B4F5BC7F 		cmp	r4, #376
 245 0022 17D2     		bcs	.L26
 246              	.L18:
 247              		.loc 1 184 0 discriminator 8
 248 0024 1048     		ldr	r0, .L28+4
 249 0026 FFF7FEFF 		bl	chSysHalt
 250              	.LVL14:
 251              	.L19:
 252              		.loc 1 189 0 is_stmt 1
 253 002a 019A     		ldr	r2, [sp, #4]
 254 002c 3368     		ldr	r3, [r6]
 255              		.loc 1 187 0
 256 002e 0F48     		ldr	r0, .L28+8
 257 0030 A4F16401 		sub	r1, r4, #100
 258 0034 2944     		add	r1, r1, r5
 259              		.loc 1 189 0
 260 0036 9A42     		cmp	r2, r3
 261              		.loc 1 187 0
 262 0038 E960     		str	r1, [r5, #12]
 263 003a C1F84080 		str	r8, [r1, #64]
 264 003e C1F84490 		str	r9, [r1, #68]
 265 0042 0866     		str	r0, [r1, #96]
 266              		.loc 1 189 0
 267 0044 0CD1     		bne	.L27
 268 0046 3946     		mov	r1, r7
 269 0048 2846     		mov	r0, r5
 270              		.loc 1 190 0
 271 004a 03B0     		add	sp, sp, #12
 272              		.cfi_remember_state
 273              		.cfi_def_cfa_offset 28
 274              		@ sp needed
 275 004c BDE8F043 		pop	{r4, r5, r6, r7, r8, r9, lr}
 276              		.cfi_restore 14
 277              		.cfi_restore 9
 278              		.cfi_restore 8
 279              		.cfi_restore 7
 280              		.cfi_restore 6
 281              		.cfi_restore 5
 282              		.cfi_restore 4
 283              		.cfi_def_cfa_offset 0
 284              	.LVL15:
 285              		.loc 1 189 0
ARM GAS  C:\Users\Moi\AppData\Local\Temp\ccDZonDd.s 			page 6


 286 0050 FFF7FEBF 		b	_thread_init
 287              	.LVL16:
 288              	.L26:
 289              		.cfi_restore_state
 290              		.loc 1 184 0 discriminator 5
 291 0054 7F2F     		cmp	r7, #127
 292 0056 E5D8     		bhi	.L18
 293              		.loc 1 184 0 is_stmt 0 discriminator 7
 294 0058 B8F1000F 		cmp	r8, #0
 295 005c E5D1     		bne	.L19
 296 005e E1E7     		b	.L18
 297              	.L27:
 298              		.loc 1 189 0 is_stmt 1
 299 0060 FFF7FEFF 		bl	__stack_chk_fail
 300              	.LVL17:
 301              	.L29:
 302              		.align	2
 303              	.L28:
 304 0064 00000000 		.word	__stack_chk_guard
 305 0068 00000000 		.word	.LANCHOR0
 306 006c 00000000 		.word	_port_thread_start
 307              		.cfi_endproc
 308              	.LFE221:
 309              		.size	chThdCreateI, .-chThdCreateI
 310              		.section	.text.chThdCreateStatic,"ax",%progbits
 311              		.align	1
 312              		.p2align 4,,15
 313              		.global	chThdCreateStatic
 314              		.syntax unified
 315              		.thumb
 316              		.thumb_func
 317              		.fpu fpv4-sp-d16
 318              		.type	chThdCreateStatic, %function
 319              	chThdCreateStatic:
 320              	.LFB222:
 321              		.loc 1 209 0
 322              		.cfi_startproc
 323              		@ args = 4, pretend = 0, frame = 16
 324              		@ frame_needed = 0, uses_anonymous_args = 0
 325              	.LVL18:
 326 0000 2DE9F04F 		push	{r4, r5, r6, r7, r8, r9, r10, fp, lr}
 327              		.cfi_def_cfa_offset 36
 328              		.cfi_offset 4, -36
 329              		.cfi_offset 5, -32
 330              		.cfi_offset 6, -28
 331              		.cfi_offset 7, -24
 332              		.cfi_offset 8, -20
 333              		.cfi_offset 9, -16
 334              		.cfi_offset 10, -12
 335              		.cfi_offset 11, -8
 336              		.cfi_offset 14, -4
 337 0004 DFF8A480 		ldr	r8, .L41+8
 338 0008 87B0     		sub	sp, sp, #28
 339              		.cfi_def_cfa_offset 64
 340              		.loc 1 209 0
 341 000a D8F80040 		ldr	r4, [r8]
 342 000e DDF84090 		ldr	r9, [sp, #64]
ARM GAS  C:\Users\Moi\AppData\Local\Temp\ccDZonDd.s 			page 7


 343 0012 0594     		str	r4, [sp, #20]
 344 0014 0746     		mov	r7, r0
 345 0016 8A46     		mov	r10, r1
 346 0018 9346     		mov	fp, r2
 347              		.loc 1 213 0
 348 001a 00F16806 		add	r6, r0, #104
 349              	.LVL19:
 350 001e 0446     		mov	r4, r0
 351              	.LBB125:
 352              	.LBB126:
 353              		.loc 1 148 0
 354 0020 FF25     		movs	r5, #255
 355              	.LVL20:
 356              	.L31:
 357 0022 04F8015B 		strb	r5, [r4], #1
 358              	.LVL21:
 359              		.loc 1 147 0
 360 0026 A642     		cmp	r6, r4
 361 0028 FBD1     		bne	.L31
 362              	.LVL22:
 363              	.LBE126:
 364              	.LBE125:
 365              		.loc 1 216 0
 366 002a 07EB0A05 		add	r5, r7, r10
 367              	.LVL23:
 368              	.LBB127:
 369              	.LBB128:
 370              		.loc 1 147 0
 371 002e A542     		cmp	r5, r4
 372 0030 04D9     		bls	.L32
 373              		.loc 1 148 0
 374 0032 5526     		movs	r6, #85
 375              	.L33:
 376 0034 04F8016B 		strb	r6, [r4], #1
 377              	.LVL24:
 378              		.loc 1 147 0
 379 0038 A542     		cmp	r5, r4
 380 003a FBD1     		bne	.L33
 381              	.L32:
 382 003c 0393     		str	r3, [sp, #12]
 383              	.LVL25:
 384              	.LBE128:
 385              	.LBE127:
 386              	.LBB129:
 387              	.LBB130:
 388              	.LBB131:
 389              	.LBB132:
 390              	.LBB133:
 391              		.file 3 "..//ChibiOS//os/ext/CMSIS/include/core_cmFunc.h"
 392              		.loc 3 546 0
 393 003e 2022     		movs	r2, #32
 394              	.LVL26:
 395              		.syntax unified
 396              	@ 546 "..//ChibiOS//os/ext/CMSIS/include/core_cmFunc.h" 1
 397 0040 82F31188 		MSR basepri, r2
 398              	@ 0 "" 2
 399              	.LVL27:
ARM GAS  C:\Users\Moi\AppData\Local\Temp\ccDZonDd.s 			page 8


 400              		.thumb
 401              		.syntax unified
 402              	.LBE133:
 403              	.LBE132:
 404              	.LBE131:
 405              		.file 4 "..//ChibiOS//os/rt/include/chsys.h"
 406              		.loc 4 349 0
 407 0044 FFF7FEFF 		bl	_stats_start_measure_crit_thd
 408              	.LVL28:
 409              		.loc 4 350 0
 410 0048 FFF7FEFF 		bl	_dbg_check_lock
 411              	.LVL29:
 412              	.LBE130:
 413              	.LBE129:
 414              		.loc 1 222 0
 415 004c 039B     		ldr	r3, [sp, #12]
 416 004e CDF80090 		str	r9, [sp]
 417 0052 5A46     		mov	r2, fp
 418 0054 5146     		mov	r1, r10
 419 0056 3846     		mov	r0, r7
 420 0058 FFF7FEFF 		bl	chThdCreateI
 421              	.LVL30:
 422              		.loc 1 223 0
 423 005c 0021     		movs	r1, #0
 424              		.loc 1 222 0
 425 005e 0446     		mov	r4, r0
 426              	.LVL31:
 427              		.loc 1 223 0
 428 0060 FFF7FEFF 		bl	chSchWakeupS
 429              	.LVL32:
 430              	.LBB134:
 431              	.LBB135:
 432              		.loc 4 360 0
 433 0064 FFF7FEFF 		bl	_dbg_check_unlock
 434              	.LVL33:
 435              		.loc 4 361 0
 436 0068 FFF7FEFF 		bl	_stats_stop_measure_crit_thd
 437              	.LVL34:
 438              		.loc 4 367 0
 439 006c 0D4B     		ldr	r3, .L41
 440 006e 1A68     		ldr	r2, [r3]
 441 0070 9A42     		cmp	r2, r3
 442 0072 04D0     		beq	.L34
 443 0074 9969     		ldr	r1, [r3, #24]
 444 0076 9368     		ldr	r3, [r2, #8]
 445 0078 8A68     		ldr	r2, [r1, #8]
 446 007a 9A42     		cmp	r2, r3
 447 007c 0BD3     		bcc	.L39
 448              	.L34:
 449              	.LVL35:
 450              	.LBB136:
 451              	.LBB137:
 452              	.LBB138:
 453              		.loc 3 546 0
 454 007e 0023     		movs	r3, #0
 455              		.syntax unified
 456              	@ 546 "..//ChibiOS//os/ext/CMSIS/include/core_cmFunc.h" 1
ARM GAS  C:\Users\Moi\AppData\Local\Temp\ccDZonDd.s 			page 9


 457 0080 83F31188 		MSR basepri, r3
 458              	@ 0 "" 2
 459              	.LVL36:
 460              		.thumb
 461              		.syntax unified
 462              	.LBE138:
 463              	.LBE137:
 464              	.LBE136:
 465              	.LBE135:
 466              	.LBE134:
 467              		.loc 1 227 0
 468 0084 059A     		ldr	r2, [sp, #20]
 469 0086 D8F80030 		ldr	r3, [r8]
 470 008a 9A42     		cmp	r2, r3
 471 008c 2046     		mov	r0, r4
 472 008e 06D1     		bne	.L40
 473              	.LVL37:
 474 0090 07B0     		add	sp, sp, #28
 475              		.cfi_remember_state
 476              		.cfi_def_cfa_offset 36
 477              		@ sp needed
 478 0092 BDE8F08F 		pop	{r4, r5, r6, r7, r8, r9, r10, fp, pc}
 479              	.LVL38:
 480              	.L39:
 481              		.cfi_restore_state
 482              	.LBB140:
 483              	.LBB139:
 484              		.loc 4 367 0
 485 0096 0448     		ldr	r0, .L41+4
 486 0098 FFF7FEFF 		bl	chSysHalt
 487              	.LVL39:
 488 009c EFE7     		b	.L34
 489              	.LVL40:
 490              	.L40:
 491              	.LBE139:
 492              	.LBE140:
 493              		.loc 1 227 0
 494 009e FFF7FEFF 		bl	__stack_chk_fail
 495              	.LVL41:
 496              	.L42:
 497 00a2 00BF     		.align	2
 498              	.L41:
 499 00a4 00000000 		.word	ch
 500 00a8 00000000 		.word	.LANCHOR1
 501 00ac 00000000 		.word	__stack_chk_guard
 502              		.cfi_endproc
 503              	.LFE222:
 504              		.size	chThdCreateStatic, .-chThdCreateStatic
 505              		.section	.text.chThdStart,"ax",%progbits
 506              		.align	1
 507              		.p2align 4,,15
 508              		.global	chThdStart
 509              		.syntax unified
 510              		.thumb
 511              		.thumb_func
 512              		.fpu fpv4-sp-d16
 513              		.type	chThdStart, %function
ARM GAS  C:\Users\Moi\AppData\Local\Temp\ccDZonDd.s 			page 10


 514              	chThdStart:
 515              	.LFB223:
 516              		.loc 1 238 0
 517              		.cfi_startproc
 518              		@ args = 0, pretend = 0, frame = 8
 519              		@ frame_needed = 0, uses_anonymous_args = 0
 520              	.LVL42:
 521 0000 30B5     		push	{r4, r5, lr}
 522              		.cfi_def_cfa_offset 12
 523              		.cfi_offset 4, -12
 524              		.cfi_offset 5, -8
 525              		.cfi_offset 14, -4
 526 0002 1A4C     		ldr	r4, .L53
 527 0004 83B0     		sub	sp, sp, #12
 528              		.cfi_def_cfa_offset 24
 529              		.loc 1 238 0
 530 0006 2368     		ldr	r3, [r4]
 531 0008 0193     		str	r3, [sp, #4]
 532              	.LVL43:
 533 000a 0546     		mov	r5, r0
 534              	.LBB153:
 535              	.LBB154:
 536              	.LBB155:
 537              	.LBB156:
 538              	.LBB157:
 539              		.loc 3 546 0
 540 000c 2023     		movs	r3, #32
 541              		.syntax unified
 542              	@ 546 "..//ChibiOS//os/ext/CMSIS/include/core_cmFunc.h" 1
 543 000e 83F31188 		MSR basepri, r3
 544              	@ 0 "" 2
 545              	.LVL44:
 546              		.thumb
 547              		.syntax unified
 548              	.LBE157:
 549              	.LBE156:
 550              	.LBE155:
 551              		.loc 4 349 0
 552 0012 FFF7FEFF 		bl	_stats_start_measure_crit_thd
 553              	.LVL45:
 554              		.loc 4 350 0
 555 0016 FFF7FEFF 		bl	_dbg_check_lock
 556              	.LVL46:
 557              	.LBE154:
 558              	.LBE153:
 559              	.LBB158:
 560              	.LBB159:
 561              		.file 5 "..//ChibiOS//os/rt/include/chthreads.h"
 562              		.loc 5 247 0
 563 001a 95F82030 		ldrb	r3, [r5, #32]	@ zero_extendqisi2
 564 001e 022B     		cmp	r3, #2
 565 0020 02D0     		beq	.L44
 566 0022 1348     		ldr	r0, .L53+4
 567 0024 FFF7FEFF 		bl	chSysHalt
 568              	.LVL47:
 569              	.L44:
 570              		.loc 5 249 0
ARM GAS  C:\Users\Moi\AppData\Local\Temp\ccDZonDd.s 			page 11


 571 0028 2846     		mov	r0, r5
 572 002a FFF7FEFF 		bl	chSchReadyI
 573              	.LVL48:
 574 002e 0546     		mov	r5, r0
 575              	.LVL49:
 576              	.LBE159:
 577              	.LBE158:
 578              	.LBB160:
 579              	.LBB161:
 580              		.loc 4 360 0
 581 0030 FFF7FEFF 		bl	_dbg_check_unlock
 582              	.LVL50:
 583              		.loc 4 361 0
 584 0034 FFF7FEFF 		bl	_stats_stop_measure_crit_thd
 585              	.LVL51:
 586              		.loc 4 367 0
 587 0038 0E4B     		ldr	r3, .L53+8
 588 003a 1A68     		ldr	r2, [r3]
 589 003c 9A42     		cmp	r2, r3
 590 003e 04D0     		beq	.L45
 591 0040 9969     		ldr	r1, [r3, #24]
 592 0042 9368     		ldr	r3, [r2, #8]
 593 0044 8A68     		ldr	r2, [r1, #8]
 594 0046 9A42     		cmp	r2, r3
 595 0048 09D3     		bcc	.L51
 596              	.L45:
 597              	.LVL52:
 598              	.LBB162:
 599              	.LBB163:
 600              	.LBB164:
 601              		.loc 3 546 0
 602 004a 0023     		movs	r3, #0
 603              		.syntax unified
 604              	@ 546 "..//ChibiOS//os/ext/CMSIS/include/core_cmFunc.h" 1
 605 004c 83F31188 		MSR basepri, r3
 606              	@ 0 "" 2
 607              	.LVL53:
 608              		.thumb
 609              		.syntax unified
 610              	.LBE164:
 611              	.LBE163:
 612              	.LBE162:
 613              	.LBE161:
 614              	.LBE160:
 615              		.loc 1 245 0
 616 0050 019A     		ldr	r2, [sp, #4]
 617 0052 2368     		ldr	r3, [r4]
 618 0054 9A42     		cmp	r2, r3
 619 0056 2846     		mov	r0, r5
 620 0058 05D1     		bne	.L52
 621 005a 03B0     		add	sp, sp, #12
 622              		.cfi_remember_state
 623              		.cfi_def_cfa_offset 12
 624              		@ sp needed
 625 005c 30BD     		pop	{r4, r5, pc}
 626              	.L51:
 627              		.cfi_restore_state
ARM GAS  C:\Users\Moi\AppData\Local\Temp\ccDZonDd.s 			page 12


 628              	.LBB166:
 629              	.LBB165:
 630              		.loc 4 367 0
 631 005e 0648     		ldr	r0, .L53+12
 632 0060 FFF7FEFF 		bl	chSysHalt
 633              	.LVL54:
 634 0064 F1E7     		b	.L45
 635              	.L52:
 636              	.LBE165:
 637              	.LBE166:
 638              		.loc 1 245 0
 639 0066 FFF7FEFF 		bl	__stack_chk_fail
 640              	.LVL55:
 641              	.L54:
 642 006a 00BF     		.align	2
 643              	.L53:
 644 006c 00000000 		.word	__stack_chk_guard
 645 0070 00000000 		.word	.LANCHOR2
 646 0074 00000000 		.word	ch
 647 0078 00000000 		.word	.LANCHOR1
 648              		.cfi_endproc
 649              	.LFE223:
 650              		.size	chThdStart, .-chThdStart
 651              		.section	.text.chThdSetPriority,"ax",%progbits
 652              		.align	1
 653              		.p2align 4,,15
 654              		.global	chThdSetPriority
 655              		.syntax unified
 656              		.thumb
 657              		.thumb_func
 658              		.fpu fpv4-sp-d16
 659              		.type	chThdSetPriority, %function
 660              	chThdSetPriority:
 661              	.LFB224:
 662              		.loc 1 259 0
 663              		.cfi_startproc
 664              		@ args = 0, pretend = 0, frame = 8
 665              		@ frame_needed = 0, uses_anonymous_args = 0
 666              	.LVL56:
 667 0000 F0B5     		push	{r4, r5, r6, r7, lr}
 668              		.cfi_def_cfa_offset 20
 669              		.cfi_offset 4, -20
 670              		.cfi_offset 5, -16
 671              		.cfi_offset 6, -12
 672              		.cfi_offset 7, -8
 673              		.cfi_offset 14, -4
 674 0002 1D4F     		ldr	r7, .L65
 675 0004 83B0     		sub	sp, sp, #12
 676              		.cfi_def_cfa_offset 32
 677              		.loc 1 259 0
 678 0006 3B68     		ldr	r3, [r7]
 679 0008 0193     		str	r3, [sp, #4]
 680              		.loc 1 262 0
 681 000a 7F28     		cmp	r0, #127
 682              		.loc 1 259 0
 683 000c 0546     		mov	r5, r0
 684              		.loc 1 262 0
ARM GAS  C:\Users\Moi\AppData\Local\Temp\ccDZonDd.s 			page 13


 685 000e 2CD8     		bhi	.L62
 686              	.LVL57:
 687              	.L56:
 688              	.LBB177:
 689              	.LBB178:
 690              	.LBB179:
 691              	.LBB180:
 692              	.LBB181:
 693              		.loc 3 546 0
 694 0010 2023     		movs	r3, #32
 695              		.syntax unified
 696              	@ 546 "..//ChibiOS//os/ext/CMSIS/include/core_cmFunc.h" 1
 697 0012 83F31188 		MSR basepri, r3
 698              	@ 0 "" 2
 699              	.LVL58:
 700              		.thumb
 701              		.syntax unified
 702              	.LBE181:
 703              	.LBE180:
 704              	.LBE179:
 705              	.LBE178:
 706              	.LBE177:
 707              		.loc 1 266 0
 708 0016 194C     		ldr	r4, .L65+4
 709              	.LBB183:
 710              	.LBB182:
 711              		.loc 4 349 0
 712 0018 FFF7FEFF 		bl	_stats_start_measure_crit_thd
 713              	.LVL59:
 714              		.loc 4 350 0
 715 001c FFF7FEFF 		bl	_dbg_check_lock
 716              	.LVL60:
 717              	.LBE182:
 718              	.LBE183:
 719              		.loc 1 266 0
 720 0020 A369     		ldr	r3, [r4, #24]
 721 0022 5E6C     		ldr	r6, [r3, #68]
 722              	.LVL61:
 723              		.loc 1 267 0
 724 0024 9A68     		ldr	r2, [r3, #8]
 725 0026 B242     		cmp	r2, r6
 726 0028 01D0     		beq	.L57
 727              		.loc 1 267 0 is_stmt 0 discriminator 1
 728 002a AA42     		cmp	r2, r5
 729 002c 00D2     		bcs	.L58
 730              	.L57:
 731              		.loc 1 268 0 is_stmt 1
 732 002e 9D60     		str	r5, [r3, #8]
 733              	.L58:
 734              		.loc 1 270 0
 735 0030 5D64     		str	r5, [r3, #68]
 736              		.loc 1 275 0
 737 0032 FFF7FEFF 		bl	chSchRescheduleS
 738              	.LVL62:
 739              	.LBB184:
 740              	.LBB185:
 741              		.loc 4 360 0
ARM GAS  C:\Users\Moi\AppData\Local\Temp\ccDZonDd.s 			page 14


 742 0036 FFF7FEFF 		bl	_dbg_check_unlock
 743              	.LVL63:
 744              		.loc 4 361 0
 745 003a FFF7FEFF 		bl	_stats_stop_measure_crit_thd
 746              	.LVL64:
 747              		.loc 4 367 0
 748 003e 2368     		ldr	r3, [r4]
 749 0040 A342     		cmp	r3, r4
 750 0042 04D0     		beq	.L59
 751 0044 A269     		ldr	r2, [r4, #24]
 752 0046 9B68     		ldr	r3, [r3, #8]
 753 0048 9268     		ldr	r2, [r2, #8]
 754 004a 9A42     		cmp	r2, r3
 755 004c 09D3     		bcc	.L63
 756              	.L59:
 757              	.LVL65:
 758              	.LBB186:
 759              	.LBB187:
 760              	.LBB188:
 761              		.loc 3 546 0
 762 004e 0023     		movs	r3, #0
 763              		.syntax unified
 764              	@ 546 "..//ChibiOS//os/ext/CMSIS/include/core_cmFunc.h" 1
 765 0050 83F31188 		MSR basepri, r3
 766              	@ 0 "" 2
 767              	.LVL66:
 768              		.thumb
 769              		.syntax unified
 770              	.LBE188:
 771              	.LBE187:
 772              	.LBE186:
 773              	.LBE185:
 774              	.LBE184:
 775              		.loc 1 279 0
 776 0054 019A     		ldr	r2, [sp, #4]
 777 0056 3B68     		ldr	r3, [r7]
 778 0058 9A42     		cmp	r2, r3
 779 005a 3046     		mov	r0, r6
 780 005c 09D1     		bne	.L64
 781              	.LVL67:
 782 005e 03B0     		add	sp, sp, #12
 783              		.cfi_remember_state
 784              		.cfi_def_cfa_offset 20
 785              		@ sp needed
 786 0060 F0BD     		pop	{r4, r5, r6, r7, pc}
 787              	.LVL68:
 788              	.L63:
 789              		.cfi_restore_state
 790              	.LBB190:
 791              	.LBB189:
 792              		.loc 4 367 0
 793 0062 0748     		ldr	r0, .L65+8
 794 0064 FFF7FEFF 		bl	chSysHalt
 795              	.LVL69:
 796 0068 F1E7     		b	.L59
 797              	.LVL70:
 798              	.L62:
ARM GAS  C:\Users\Moi\AppData\Local\Temp\ccDZonDd.s 			page 15


 799              	.LBE189:
 800              	.LBE190:
 801              		.loc 1 262 0 discriminator 2
 802 006a 0648     		ldr	r0, .L65+12
 803              	.LVL71:
 804 006c FFF7FEFF 		bl	chSysHalt
 805              	.LVL72:
 806 0070 CEE7     		b	.L56
 807              	.LVL73:
 808              	.L64:
 809              		.loc 1 279 0
 810 0072 FFF7FEFF 		bl	__stack_chk_fail
 811              	.LVL74:
 812              	.L66:
 813 0076 00BF     		.align	2
 814              	.L65:
 815 0078 00000000 		.word	__stack_chk_guard
 816 007c 00000000 		.word	ch
 817 0080 00000000 		.word	.LANCHOR1
 818 0084 00000000 		.word	.LANCHOR3
 819              		.cfi_endproc
 820              	.LFE224:
 821              		.size	chThdSetPriority, .-chThdSetPriority
 822              		.section	.text.chThdTerminate,"ax",%progbits
 823              		.align	1
 824              		.p2align 4,,15
 825              		.global	chThdTerminate
 826              		.syntax unified
 827              		.thumb
 828              		.thumb_func
 829              		.fpu fpv4-sp-d16
 830              		.type	chThdTerminate, %function
 831              	chThdTerminate:
 832              	.LFB225:
 833              		.loc 1 293 0
 834              		.cfi_startproc
 835              		@ args = 0, pretend = 0, frame = 8
 836              		@ frame_needed = 0, uses_anonymous_args = 0
 837              	.LVL75:
 838 0000 30B5     		push	{r4, r5, lr}
 839              		.cfi_def_cfa_offset 12
 840              		.cfi_offset 4, -12
 841              		.cfi_offset 5, -8
 842              		.cfi_offset 14, -4
 843 0002 174C     		ldr	r4, .L73
 844 0004 83B0     		sub	sp, sp, #12
 845              		.cfi_def_cfa_offset 24
 846              		.loc 1 293 0
 847 0006 2368     		ldr	r3, [r4]
 848 0008 0193     		str	r3, [sp, #4]
 849              	.LVL76:
 850 000a 0546     		mov	r5, r0
 851              	.LBB201:
 852              	.LBB202:
 853              	.LBB203:
 854              	.LBB204:
 855              	.LBB205:
ARM GAS  C:\Users\Moi\AppData\Local\Temp\ccDZonDd.s 			page 16


 856              		.loc 3 546 0
 857 000c 2023     		movs	r3, #32
 858              		.syntax unified
 859              	@ 546 "..//ChibiOS//os/ext/CMSIS/include/core_cmFunc.h" 1
 860 000e 83F31188 		MSR basepri, r3
 861              	@ 0 "" 2
 862              	.LVL77:
 863              		.thumb
 864              		.syntax unified
 865              	.LBE205:
 866              	.LBE204:
 867              	.LBE203:
 868              		.loc 4 349 0
 869 0012 FFF7FEFF 		bl	_stats_start_measure_crit_thd
 870              	.LVL78:
 871              		.loc 4 350 0
 872 0016 FFF7FEFF 		bl	_dbg_check_lock
 873              	.LVL79:
 874              	.LBE202:
 875              	.LBE201:
 876              		.loc 1 296 0
 877 001a 95F82130 		ldrb	r3, [r5, #33]	@ zero_extendqisi2
 878 001e 43F00403 		orr	r3, r3, #4
 879 0022 85F82130 		strb	r3, [r5, #33]
 880              	.LBB206:
 881              	.LBB207:
 882              		.loc 4 360 0
 883 0026 FFF7FEFF 		bl	_dbg_check_unlock
 884              	.LVL80:
 885              		.loc 4 361 0
 886 002a FFF7FEFF 		bl	_stats_stop_measure_crit_thd
 887              	.LVL81:
 888              		.loc 4 367 0
 889 002e 0D4B     		ldr	r3, .L73+4
 890 0030 1A68     		ldr	r2, [r3]
 891 0032 9A42     		cmp	r2, r3
 892 0034 04D0     		beq	.L68
 893 0036 9969     		ldr	r1, [r3, #24]
 894 0038 9368     		ldr	r3, [r2, #8]
 895 003a 8A68     		ldr	r2, [r1, #8]
 896 003c 9A42     		cmp	r2, r3
 897 003e 08D3     		bcc	.L71
 898              	.L68:
 899              	.LVL82:
 900              	.LBB208:
 901              	.LBB209:
 902              	.LBB210:
 903              		.loc 3 546 0
 904 0040 0023     		movs	r3, #0
 905              		.syntax unified
 906              	@ 546 "..//ChibiOS//os/ext/CMSIS/include/core_cmFunc.h" 1
 907 0042 83F31188 		MSR basepri, r3
 908              	@ 0 "" 2
 909              	.LVL83:
 910              		.thumb
 911              		.syntax unified
 912              	.LBE210:
ARM GAS  C:\Users\Moi\AppData\Local\Temp\ccDZonDd.s 			page 17


 913              	.LBE209:
 914              	.LBE208:
 915              	.LBE207:
 916              	.LBE206:
 917              		.loc 1 298 0
 918 0046 019A     		ldr	r2, [sp, #4]
 919 0048 2368     		ldr	r3, [r4]
 920 004a 9A42     		cmp	r2, r3
 921 004c 05D1     		bne	.L72
 922 004e 03B0     		add	sp, sp, #12
 923              		.cfi_remember_state
 924              		.cfi_def_cfa_offset 12
 925              		@ sp needed
 926 0050 30BD     		pop	{r4, r5, pc}
 927              	.LVL84:
 928              	.L71:
 929              		.cfi_restore_state
 930              	.LBB212:
 931              	.LBB211:
 932              		.loc 4 367 0
 933 0052 0548     		ldr	r0, .L73+8
 934 0054 FFF7FEFF 		bl	chSysHalt
 935              	.LVL85:
 936 0058 F2E7     		b	.L68
 937              	.L72:
 938              	.LBE211:
 939              	.LBE212:
 940              		.loc 1 298 0
 941 005a FFF7FEFF 		bl	__stack_chk_fail
 942              	.LVL86:
 943              	.L74:
 944 005e 00BF     		.align	2
 945              	.L73:
 946 0060 00000000 		.word	__stack_chk_guard
 947 0064 00000000 		.word	ch
 948 0068 00000000 		.word	.LANCHOR1
 949              		.cfi_endproc
 950              	.LFE225:
 951              		.size	chThdTerminate, .-chThdTerminate
 952              		.section	.text.chThdSleep,"ax",%progbits
 953              		.align	1
 954              		.p2align 4,,15
 955              		.global	chThdSleep
 956              		.syntax unified
 957              		.thumb
 958              		.thumb_func
 959              		.fpu fpv4-sp-d16
 960              		.type	chThdSleep, %function
 961              	chThdSleep:
 962              	.LFB226:
 963              		.loc 1 312 0
 964              		.cfi_startproc
 965              		@ args = 0, pretend = 0, frame = 8
 966              		@ frame_needed = 0, uses_anonymous_args = 0
 967              	.LVL87:
 968 0000 30B5     		push	{r4, r5, lr}
 969              		.cfi_def_cfa_offset 12
ARM GAS  C:\Users\Moi\AppData\Local\Temp\ccDZonDd.s 			page 18


 970              		.cfi_offset 4, -12
 971              		.cfi_offset 5, -8
 972              		.cfi_offset 14, -4
 973 0002 184C     		ldr	r4, .L82
 974 0004 83B0     		sub	sp, sp, #12
 975              		.cfi_def_cfa_offset 24
 976              		.loc 1 312 0
 977 0006 2368     		ldr	r3, [r4]
 978 0008 0193     		str	r3, [sp, #4]
 979              	.LVL88:
 980 000a 0546     		mov	r5, r0
 981              	.LBB225:
 982              	.LBB226:
 983              	.LBB227:
 984              	.LBB228:
 985              	.LBB229:
 986              		.loc 3 546 0
 987 000c 2023     		movs	r3, #32
 988              		.syntax unified
 989              	@ 546 "..//ChibiOS//os/ext/CMSIS/include/core_cmFunc.h" 1
 990 000e 83F31188 		MSR basepri, r3
 991              	@ 0 "" 2
 992              	.LVL89:
 993              		.thumb
 994              		.syntax unified
 995              	.LBE229:
 996              	.LBE228:
 997              	.LBE227:
 998              		.loc 4 349 0
 999 0012 FFF7FEFF 		bl	_stats_start_measure_crit_thd
 1000              	.LVL90:
 1001              		.loc 4 350 0
 1002 0016 FFF7FEFF 		bl	_dbg_check_lock
 1003              	.LVL91:
 1004              	.LBE226:
 1005              	.LBE225:
 1006              	.LBB230:
 1007              	.LBB231:
 1008              		.loc 5 266 0
 1009 001a 15B9     		cbnz	r5, .L76
 1010 001c 1248     		ldr	r0, .L82+4
 1011 001e FFF7FEFF 		bl	chSysHalt
 1012              	.LVL92:
 1013              	.L76:
 1014              		.loc 5 268 0
 1015 0022 2946     		mov	r1, r5
 1016 0024 0820     		movs	r0, #8
 1017 0026 FFF7FEFF 		bl	chSchGoSleepTimeoutS
 1018              	.LVL93:
 1019              	.LBE231:
 1020              	.LBE230:
 1021              	.LBB232:
 1022              	.LBB233:
 1023              		.loc 4 360 0
 1024 002a FFF7FEFF 		bl	_dbg_check_unlock
 1025              	.LVL94:
 1026              		.loc 4 361 0
ARM GAS  C:\Users\Moi\AppData\Local\Temp\ccDZonDd.s 			page 19


 1027 002e FFF7FEFF 		bl	_stats_stop_measure_crit_thd
 1028              	.LVL95:
 1029              		.loc 4 367 0
 1030 0032 0E4B     		ldr	r3, .L82+8
 1031 0034 1A68     		ldr	r2, [r3]
 1032 0036 9A42     		cmp	r2, r3
 1033 0038 04D0     		beq	.L77
 1034 003a 9969     		ldr	r1, [r3, #24]
 1035 003c 9368     		ldr	r3, [r2, #8]
 1036 003e 8A68     		ldr	r2, [r1, #8]
 1037 0040 9A42     		cmp	r2, r3
 1038 0042 08D3     		bcc	.L80
 1039              	.L77:
 1040              	.LVL96:
 1041              	.LBB234:
 1042              	.LBB235:
 1043              	.LBB236:
 1044              		.loc 3 546 0
 1045 0044 0023     		movs	r3, #0
 1046              		.syntax unified
 1047              	@ 546 "..//ChibiOS//os/ext/CMSIS/include/core_cmFunc.h" 1
 1048 0046 83F31188 		MSR basepri, r3
 1049              	@ 0 "" 2
 1050              	.LVL97:
 1051              		.thumb
 1052              		.syntax unified
 1053              	.LBE236:
 1054              	.LBE235:
 1055              	.LBE234:
 1056              	.LBE233:
 1057              	.LBE232:
 1058              		.loc 1 317 0
 1059 004a 019A     		ldr	r2, [sp, #4]
 1060 004c 2368     		ldr	r3, [r4]
 1061 004e 9A42     		cmp	r2, r3
 1062 0050 05D1     		bne	.L81
 1063 0052 03B0     		add	sp, sp, #12
 1064              		.cfi_remember_state
 1065              		.cfi_def_cfa_offset 12
 1066              		@ sp needed
 1067 0054 30BD     		pop	{r4, r5, pc}
 1068              	.LVL98:
 1069              	.L80:
 1070              		.cfi_restore_state
 1071              	.LBB238:
 1072              	.LBB237:
 1073              		.loc 4 367 0
 1074 0056 0648     		ldr	r0, .L82+12
 1075 0058 FFF7FEFF 		bl	chSysHalt
 1076              	.LVL99:
 1077 005c F2E7     		b	.L77
 1078              	.L81:
 1079              	.LBE237:
 1080              	.LBE238:
 1081              		.loc 1 317 0
 1082 005e FFF7FEFF 		bl	__stack_chk_fail
 1083              	.LVL100:
ARM GAS  C:\Users\Moi\AppData\Local\Temp\ccDZonDd.s 			page 20


 1084              	.L83:
 1085 0062 00BF     		.align	2
 1086              	.L82:
 1087 0064 00000000 		.word	__stack_chk_guard
 1088 0068 00000000 		.word	.LANCHOR4
 1089 006c 00000000 		.word	ch
 1090 0070 00000000 		.word	.LANCHOR1
 1091              		.cfi_endproc
 1092              	.LFE226:
 1093              		.size	chThdSleep, .-chThdSleep
 1094              		.section	.text.chThdSleepUntil,"ax",%progbits
 1095              		.align	1
 1096              		.p2align 4,,15
 1097              		.global	chThdSleepUntil
 1098              		.syntax unified
 1099              		.thumb
 1100              		.thumb_func
 1101              		.fpu fpv4-sp-d16
 1102              		.type	chThdSleepUntil, %function
 1103              	chThdSleepUntil:
 1104              	.LFB227:
 1105              		.loc 1 332 0
 1106              		.cfi_startproc
 1107              		@ args = 0, pretend = 0, frame = 8
 1108              		@ frame_needed = 0, uses_anonymous_args = 0
 1109              	.LVL101:
 1110 0000 70B5     		push	{r4, r5, r6, lr}
 1111              		.cfi_def_cfa_offset 16
 1112              		.cfi_offset 4, -16
 1113              		.cfi_offset 5, -12
 1114              		.cfi_offset 6, -8
 1115              		.cfi_offset 14, -4
 1116 0002 174E     		ldr	r6, .L94
 1117 0004 82B0     		sub	sp, sp, #8
 1118              		.cfi_def_cfa_offset 24
 1119              		.loc 1 332 0
 1120 0006 3368     		ldr	r3, [r6]
 1121 0008 0193     		str	r3, [sp, #4]
 1122              	.LVL102:
 1123 000a 0546     		mov	r5, r0
 1124              	.LBB253:
 1125              	.LBB254:
 1126              	.LBB255:
 1127              	.LBB256:
 1128              	.LBB257:
 1129              		.loc 3 546 0
 1130 000c 2023     		movs	r3, #32
 1131              		.syntax unified
 1132              	@ 546 "..//ChibiOS//os/ext/CMSIS/include/core_cmFunc.h" 1
 1133 000e 83F31188 		MSR basepri, r3
 1134              	@ 0 "" 2
 1135              	.LVL103:
 1136              		.thumb
 1137              		.syntax unified
 1138              	.LBE257:
 1139              	.LBE256:
 1140              	.LBE255:
ARM GAS  C:\Users\Moi\AppData\Local\Temp\ccDZonDd.s 			page 21


 1141              	.LBE254:
 1142              	.LBE253:
 1143              	.LBB259:
 1144              	.LBB260:
 1145              		.file 6 "..//ChibiOS//os/rt/include/chvt.h"
 1146              		.loc 6 231 0
 1147 0012 144C     		ldr	r4, .L94+4
 1148              	.LBE260:
 1149              	.LBE259:
 1150              	.LBB262:
 1151              	.LBB258:
 1152              		.loc 4 349 0
 1153 0014 FFF7FEFF 		bl	_stats_start_measure_crit_thd
 1154              	.LVL104:
 1155              		.loc 4 350 0
 1156 0018 FFF7FEFF 		bl	_dbg_check_lock
 1157              	.LVL105:
 1158              	.LBE258:
 1159              	.LBE262:
 1160              	.LBB263:
 1161              	.LBB261:
 1162              		.loc 6 231 0
 1163 001c A16A     		ldr	r1, [r4, #40]
 1164              	.LVL106:
 1165              	.LBE261:
 1166              	.LBE263:
 1167              		.loc 1 336 0
 1168 001e 691A     		subs	r1, r5, r1
 1169              	.LVL107:
 1170 0020 02D0     		beq	.L85
 1171              	.LVL108:
 1172              	.LBB264:
 1173              	.LBB265:
 1174              		.loc 5 268 0
 1175 0022 0820     		movs	r0, #8
 1176 0024 FFF7FEFF 		bl	chSchGoSleepTimeoutS
 1177              	.LVL109:
 1178              	.L85:
 1179              	.LBE265:
 1180              	.LBE264:
 1181              	.LBB266:
 1182              	.LBB267:
 1183              		.loc 4 360 0
 1184 0028 FFF7FEFF 		bl	_dbg_check_unlock
 1185              	.LVL110:
 1186              		.loc 4 361 0
 1187 002c FFF7FEFF 		bl	_stats_stop_measure_crit_thd
 1188              	.LVL111:
 1189              		.loc 4 367 0
 1190 0030 2368     		ldr	r3, [r4]
 1191 0032 A342     		cmp	r3, r4
 1192 0034 04D0     		beq	.L86
 1193 0036 A269     		ldr	r2, [r4, #24]
 1194 0038 9B68     		ldr	r3, [r3, #8]
 1195 003a 9268     		ldr	r2, [r2, #8]
 1196 003c 9A42     		cmp	r2, r3
 1197 003e 08D3     		bcc	.L92
ARM GAS  C:\Users\Moi\AppData\Local\Temp\ccDZonDd.s 			page 22


 1198              	.L86:
 1199              	.LVL112:
 1200              	.LBB268:
 1201              	.LBB269:
 1202              	.LBB270:
 1203              		.loc 3 546 0
 1204 0040 0023     		movs	r3, #0
 1205              		.syntax unified
 1206              	@ 546 "..//ChibiOS//os/ext/CMSIS/include/core_cmFunc.h" 1
 1207 0042 83F31188 		MSR basepri, r3
 1208              	@ 0 "" 2
 1209              	.LVL113:
 1210              		.thumb
 1211              		.syntax unified
 1212              	.LBE270:
 1213              	.LBE269:
 1214              	.LBE268:
 1215              	.LBE267:
 1216              	.LBE266:
 1217              		.loc 1 340 0
 1218 0046 019A     		ldr	r2, [sp, #4]
 1219 0048 3368     		ldr	r3, [r6]
 1220 004a 9A42     		cmp	r2, r3
 1221 004c 05D1     		bne	.L93
 1222 004e 02B0     		add	sp, sp, #8
 1223              		.cfi_remember_state
 1224              		.cfi_def_cfa_offset 16
 1225              		@ sp needed
 1226 0050 70BD     		pop	{r4, r5, r6, pc}
 1227              	.L92:
 1228              		.cfi_restore_state
 1229              	.LBB272:
 1230              	.LBB271:
 1231              		.loc 4 367 0
 1232 0052 0548     		ldr	r0, .L94+8
 1233 0054 FFF7FEFF 		bl	chSysHalt
 1234              	.LVL114:
 1235 0058 F2E7     		b	.L86
 1236              	.L93:
 1237              	.LBE271:
 1238              	.LBE272:
 1239              		.loc 1 340 0
 1240 005a FFF7FEFF 		bl	__stack_chk_fail
 1241              	.LVL115:
 1242              	.L95:
 1243 005e 00BF     		.align	2
 1244              	.L94:
 1245 0060 00000000 		.word	__stack_chk_guard
 1246 0064 00000000 		.word	ch
 1247 0068 00000000 		.word	.LANCHOR1
 1248              		.cfi_endproc
 1249              	.LFE227:
 1250              		.size	chThdSleepUntil, .-chThdSleepUntil
 1251              		.section	.text.chThdSleepUntilWindowed,"ax",%progbits
 1252              		.align	1
 1253              		.p2align 4,,15
 1254              		.global	chThdSleepUntilWindowed
ARM GAS  C:\Users\Moi\AppData\Local\Temp\ccDZonDd.s 			page 23


 1255              		.syntax unified
 1256              		.thumb
 1257              		.thumb_func
 1258              		.fpu fpv4-sp-d16
 1259              		.type	chThdSleepUntilWindowed, %function
 1260              	chThdSleepUntilWindowed:
 1261              	.LFB228:
 1262              		.loc 1 356 0
 1263              		.cfi_startproc
 1264              		@ args = 0, pretend = 0, frame = 8
 1265              		@ frame_needed = 0, uses_anonymous_args = 0
 1266              	.LVL116:
 1267 0000 F0B5     		push	{r4, r5, r6, r7, lr}
 1268              		.cfi_def_cfa_offset 20
 1269              		.cfi_offset 4, -20
 1270              		.cfi_offset 5, -16
 1271              		.cfi_offset 6, -12
 1272              		.cfi_offset 7, -8
 1273              		.cfi_offset 14, -4
 1274 0002 1C4F     		ldr	r7, .L105
 1275 0004 83B0     		sub	sp, sp, #12
 1276              		.cfi_def_cfa_offset 32
 1277              		.loc 1 356 0
 1278 0006 3B68     		ldr	r3, [r7]
 1279 0008 0193     		str	r3, [sp, #4]
 1280              	.LVL117:
 1281 000a 0446     		mov	r4, r0
 1282 000c 0E46     		mov	r6, r1
 1283              	.LBB289:
 1284              	.LBB290:
 1285              	.LBB291:
 1286              	.LBB292:
 1287              	.LBB293:
 1288              		.loc 3 546 0
 1289 000e 2023     		movs	r3, #32
 1290              		.syntax unified
 1291              	@ 546 "..//ChibiOS//os/ext/CMSIS/include/core_cmFunc.h" 1
 1292 0010 83F31188 		MSR basepri, r3
 1293              	@ 0 "" 2
 1294              	.LVL118:
 1295              		.thumb
 1296              		.syntax unified
 1297              	.LBE293:
 1298              	.LBE292:
 1299              	.LBE291:
 1300              	.LBE290:
 1301              	.LBE289:
 1302              	.LBB295:
 1303              	.LBB296:
 1304              		.loc 6 231 0
 1305 0014 184D     		ldr	r5, .L105+4
 1306              	.LBE296:
 1307              	.LBE295:
 1308              	.LBB298:
 1309              	.LBB294:
 1310              		.loc 4 349 0
 1311 0016 FFF7FEFF 		bl	_stats_start_measure_crit_thd
ARM GAS  C:\Users\Moi\AppData\Local\Temp\ccDZonDd.s 			page 24


 1312              	.LVL119:
 1313              		.loc 4 350 0
 1314 001a FFF7FEFF 		bl	_dbg_check_lock
 1315              	.LVL120:
 1316              	.LBE294:
 1317              	.LBE298:
 1318              	.LBB299:
 1319              	.LBB297:
 1320              		.loc 6 231 0
 1321 001e A96A     		ldr	r1, [r5, #40]
 1322              	.LBE297:
 1323              	.LBE299:
 1324              	.LBB300:
 1325              	.LBB301:
 1326              		.loc 6 288 0
 1327 0020 331B     		subs	r3, r6, r4
 1328 0022 0C1B     		subs	r4, r1, r4
 1329              	.LVL121:
 1330              	.LBE301:
 1331              	.LBE300:
 1332              		.loc 1 361 0
 1333 0024 9C42     		cmp	r4, r3
 1334 0026 19D3     		bcc	.L102
 1335              	.L97:
 1336              	.LBB302:
 1337              	.LBB303:
 1338              		.loc 4 360 0
 1339 0028 FFF7FEFF 		bl	_dbg_check_unlock
 1340              	.LVL122:
 1341              		.loc 4 361 0
 1342 002c FFF7FEFF 		bl	_stats_stop_measure_crit_thd
 1343              	.LVL123:
 1344              		.loc 4 367 0
 1345 0030 2B68     		ldr	r3, [r5]
 1346 0032 AB42     		cmp	r3, r5
 1347 0034 04D0     		beq	.L99
 1348 0036 AA69     		ldr	r2, [r5, #24]
 1349 0038 9B68     		ldr	r3, [r3, #8]
 1350 003a 9268     		ldr	r2, [r2, #8]
 1351 003c 9A42     		cmp	r2, r3
 1352 003e 09D3     		bcc	.L103
 1353              	.L99:
 1354              	.LVL124:
 1355              	.LBB304:
 1356              	.LBB305:
 1357              	.LBB306:
 1358              		.loc 3 546 0
 1359 0040 0023     		movs	r3, #0
 1360              		.syntax unified
 1361              	@ 546 "..//ChibiOS//os/ext/CMSIS/include/core_cmFunc.h" 1
 1362 0042 83F31188 		MSR basepri, r3
 1363              	@ 0 "" 2
 1364              	.LVL125:
 1365              		.thumb
 1366              		.syntax unified
 1367              	.LBE306:
 1368              	.LBE305:
ARM GAS  C:\Users\Moi\AppData\Local\Temp\ccDZonDd.s 			page 25


 1369              	.LBE304:
 1370              	.LBE303:
 1371              	.LBE302:
 1372              		.loc 1 367 0
 1373 0046 019A     		ldr	r2, [sp, #4]
 1374 0048 3B68     		ldr	r3, [r7]
 1375 004a 9A42     		cmp	r2, r3
 1376 004c 3046     		mov	r0, r6
 1377 004e 0FD1     		bne	.L104
 1378              	.LVL126:
 1379 0050 03B0     		add	sp, sp, #12
 1380              		.cfi_remember_state
 1381              		.cfi_def_cfa_offset 20
 1382              		@ sp needed
 1383 0052 F0BD     		pop	{r4, r5, r6, r7, pc}
 1384              	.LVL127:
 1385              	.L103:
 1386              		.cfi_restore_state
 1387              	.LBB308:
 1388              	.LBB307:
 1389              		.loc 4 367 0
 1390 0054 0948     		ldr	r0, .L105+8
 1391 0056 FFF7FEFF 		bl	chSysHalt
 1392              	.LVL128:
 1393 005a F1E7     		b	.L99
 1394              	.L102:
 1395              	.LVL129:
 1396              	.LBE307:
 1397              	.LBE308:
 1398              	.LBB309:
 1399              	.LBB310:
 1400              		.loc 5 266 0
 1401 005c 741A     		subs	r4, r6, r1
 1402              	.LVL130:
 1403 005e 02D1     		bne	.L98
 1404 0060 0748     		ldr	r0, .L105+12
 1405 0062 FFF7FEFF 		bl	chSysHalt
 1406              	.LVL131:
 1407              	.L98:
 1408              		.loc 5 268 0
 1409 0066 2146     		mov	r1, r4
 1410 0068 0820     		movs	r0, #8
 1411 006a FFF7FEFF 		bl	chSchGoSleepTimeoutS
 1412              	.LVL132:
 1413 006e DBE7     		b	.L97
 1414              	.LVL133:
 1415              	.L104:
 1416              	.LBE310:
 1417              	.LBE309:
 1418              		.loc 1 367 0
 1419 0070 FFF7FEFF 		bl	__stack_chk_fail
 1420              	.LVL134:
 1421              	.L106:
 1422              		.align	2
 1423              	.L105:
 1424 0074 00000000 		.word	__stack_chk_guard
 1425 0078 00000000 		.word	ch
ARM GAS  C:\Users\Moi\AppData\Local\Temp\ccDZonDd.s 			page 26


 1426 007c 00000000 		.word	.LANCHOR1
 1427 0080 00000000 		.word	.LANCHOR4
 1428              		.cfi_endproc
 1429              	.LFE228:
 1430              		.size	chThdSleepUntilWindowed, .-chThdSleepUntilWindowed
 1431              		.section	.text.chThdYield,"ax",%progbits
 1432              		.align	1
 1433              		.p2align 4,,15
 1434              		.global	chThdYield
 1435              		.syntax unified
 1436              		.thumb
 1437              		.thumb_func
 1438              		.fpu fpv4-sp-d16
 1439              		.type	chThdYield, %function
 1440              	chThdYield:
 1441              	.LFB229:
 1442              		.loc 1 376 0
 1443              		.cfi_startproc
 1444              		@ args = 0, pretend = 0, frame = 8
 1445              		@ frame_needed = 0, uses_anonymous_args = 0
 1446 0000 30B5     		push	{r4, r5, lr}
 1447              		.cfi_def_cfa_offset 12
 1448              		.cfi_offset 4, -12
 1449              		.cfi_offset 5, -8
 1450              		.cfi_offset 14, -4
 1451 0002 194D     		ldr	r5, .L114
 1452 0004 83B0     		sub	sp, sp, #12
 1453              		.cfi_def_cfa_offset 24
 1454              		.loc 1 376 0
 1455 0006 2B68     		ldr	r3, [r5]
 1456 0008 0193     		str	r3, [sp, #4]
 1457              	.LVL135:
 1458              	.LBB325:
 1459              	.LBB326:
 1460              	.LBB327:
 1461              	.LBB328:
 1462              	.LBB329:
 1463              		.loc 3 546 0
 1464 000a 2023     		movs	r3, #32
 1465              		.syntax unified
 1466              	@ 546 "..//ChibiOS//os/ext/CMSIS/include/core_cmFunc.h" 1
 1467 000c 83F31188 		MSR basepri, r3
 1468              	@ 0 "" 2
 1469              	.LVL136:
 1470              		.thumb
 1471              		.syntax unified
 1472              	.LBE329:
 1473              	.LBE328:
 1474              	.LBE327:
 1475              	.LBE326:
 1476              	.LBE325:
 1477              	.LBB331:
 1478              	.LBB332:
 1479              	.LBB333:
 1480              	.LBB334:
 1481              		.loc 2 731 0
 1482 0010 164C     		ldr	r4, .L114+4
ARM GAS  C:\Users\Moi\AppData\Local\Temp\ccDZonDd.s 			page 27


 1483              	.LBE334:
 1484              	.LBE333:
 1485              	.LBE332:
 1486              	.LBE331:
 1487              	.LBB338:
 1488              	.LBB330:
 1489              		.loc 4 349 0
 1490 0012 FFF7FEFF 		bl	_stats_start_measure_crit_thd
 1491              	.LVL137:
 1492              		.loc 4 350 0
 1493 0016 FFF7FEFF 		bl	_dbg_check_lock
 1494              	.LVL138:
 1495              	.LBE330:
 1496              	.LBE338:
 1497              	.LBB339:
 1498              	.LBB337:
 1499              		.loc 2 743 0
 1500 001a FFF7FEFF 		bl	chDbgCheckClassS
 1501              	.LVL139:
 1502              	.LBB336:
 1503              	.LBB335:
 1504              		.loc 2 729 0
 1505 001e FFF7FEFF 		bl	chDbgCheckClassS
 1506              	.LVL140:
 1507              		.loc 2 731 0
 1508 0022 2268     		ldr	r2, [r4]
 1509 0024 A369     		ldr	r3, [r4, #24]
 1510              	.LBE335:
 1511              	.LBE336:
 1512              		.loc 2 745 0
 1513 0026 9268     		ldr	r2, [r2, #8]
 1514 0028 9B68     		ldr	r3, [r3, #8]
 1515 002a 9A42     		cmp	r2, r3
 1516 002c 01D3     		bcc	.L108
 1517              		.loc 2 746 0
 1518 002e FFF7FEFF 		bl	chSchDoRescheduleBehind
 1519              	.LVL141:
 1520              	.L108:
 1521              	.LBE337:
 1522              	.LBE339:
 1523              	.LBB340:
 1524              	.LBB341:
 1525              		.loc 4 360 0
 1526 0032 FFF7FEFF 		bl	_dbg_check_unlock
 1527              	.LVL142:
 1528              		.loc 4 361 0
 1529 0036 FFF7FEFF 		bl	_stats_stop_measure_crit_thd
 1530              	.LVL143:
 1531              		.loc 4 367 0
 1532 003a 2368     		ldr	r3, [r4]
 1533 003c A342     		cmp	r3, r4
 1534 003e 04D0     		beq	.L109
 1535 0040 A269     		ldr	r2, [r4, #24]
 1536 0042 9B68     		ldr	r3, [r3, #8]
 1537 0044 9268     		ldr	r2, [r2, #8]
 1538 0046 9A42     		cmp	r2, r3
 1539 0048 08D3     		bcc	.L112
ARM GAS  C:\Users\Moi\AppData\Local\Temp\ccDZonDd.s 			page 28


 1540              	.L109:
 1541              	.LVL144:
 1542              	.LBB342:
 1543              	.LBB343:
 1544              	.LBB344:
 1545              		.loc 3 546 0
 1546 004a 0023     		movs	r3, #0
 1547              		.syntax unified
 1548              	@ 546 "..//ChibiOS//os/ext/CMSIS/include/core_cmFunc.h" 1
 1549 004c 83F31188 		MSR basepri, r3
 1550              	@ 0 "" 2
 1551              	.LVL145:
 1552              		.thumb
 1553              		.syntax unified
 1554              	.LBE344:
 1555              	.LBE343:
 1556              	.LBE342:
 1557              	.LBE341:
 1558              	.LBE340:
 1559              		.loc 1 381 0
 1560 0050 019A     		ldr	r2, [sp, #4]
 1561 0052 2B68     		ldr	r3, [r5]
 1562 0054 9A42     		cmp	r2, r3
 1563 0056 05D1     		bne	.L113
 1564 0058 03B0     		add	sp, sp, #12
 1565              		.cfi_remember_state
 1566              		.cfi_def_cfa_offset 12
 1567              		@ sp needed
 1568 005a 30BD     		pop	{r4, r5, pc}
 1569              	.L112:
 1570              		.cfi_restore_state
 1571              	.LBB346:
 1572              	.LBB345:
 1573              		.loc 4 367 0
 1574 005c 0448     		ldr	r0, .L114+8
 1575 005e FFF7FEFF 		bl	chSysHalt
 1576              	.LVL146:
 1577 0062 F2E7     		b	.L109
 1578              	.L113:
 1579              	.LBE345:
 1580              	.LBE346:
 1581              		.loc 1 381 0
 1582 0064 FFF7FEFF 		bl	__stack_chk_fail
 1583              	.LVL147:
 1584              	.L115:
 1585              		.align	2
 1586              	.L114:
 1587 0068 00000000 		.word	__stack_chk_guard
 1588 006c 00000000 		.word	ch
 1589 0070 00000000 		.word	.LANCHOR1
 1590              		.cfi_endproc
 1591              	.LFE229:
 1592              		.size	chThdYield, .-chThdYield
 1593              		.section	.text.chThdExitS,"ax",%progbits
 1594              		.align	1
 1595              		.p2align 4,,15
 1596              		.global	chThdExitS
ARM GAS  C:\Users\Moi\AppData\Local\Temp\ccDZonDd.s 			page 29


 1597              		.syntax unified
 1598              		.thumb
 1599              		.thumb_func
 1600              		.fpu fpv4-sp-d16
 1601              		.type	chThdExitS, %function
 1602              	chThdExitS:
 1603              	.LFB231:
 1604              		.loc 1 418 0
 1605              		.cfi_startproc
 1606              		@ args = 0, pretend = 0, frame = 8
 1607              		@ frame_needed = 0, uses_anonymous_args = 0
 1608              	.LVL148:
 1609 0000 70B5     		push	{r4, r5, r6, lr}
 1610              		.cfi_def_cfa_offset 16
 1611              		.cfi_offset 4, -16
 1612              		.cfi_offset 5, -12
 1613              		.cfi_offset 6, -8
 1614              		.cfi_offset 14, -4
 1615              		.loc 1 419 0
 1616 0002 164B     		ldr	r3, .L125
 1617              		.loc 1 418 0
 1618 0004 164E     		ldr	r6, .L125+4
 1619              		.loc 1 419 0
 1620 0006 9C69     		ldr	r4, [r3, #24]
 1621              	.LVL149:
 1622              		.loc 1 418 0
 1623 0008 3268     		ldr	r2, [r6]
 1624              	.LBB347:
 1625              	.LBB348:
 1626              		.loc 2 592 0
 1627 000a E36A     		ldr	r3, [r4, #44]
 1628              	.LBE348:
 1629              	.LBE347:
 1630              		.loc 1 421 0
 1631 000c A062     		str	r0, [r4, #40]
 1632              		.loc 1 418 0
 1633 000e 82B0     		sub	sp, sp, #8
 1634              		.cfi_def_cfa_offset 24
 1635              		.loc 1 426 0
 1636 0010 04F12C05 		add	r5, r4, #44
 1637 0014 AB42     		cmp	r3, r5
 1638              		.loc 1 418 0
 1639 0016 0192     		str	r2, [sp, #4]
 1640              		.loc 1 426 0
 1641 0018 07D0     		beq	.L117
 1642              	.LVL150:
 1643              	.L118:
 1644              	.LBB350:
 1645              	.LBB351:
 1646              		.loc 2 646 0
 1647 001a 1A68     		ldr	r2, [r3]
 1648 001c E262     		str	r2, [r4, #44]
 1649              	.LVL151:
 1650              	.LBE351:
 1651              	.LBE350:
 1652              		.loc 1 427 0
 1653 001e 1846     		mov	r0, r3
ARM GAS  C:\Users\Moi\AppData\Local\Temp\ccDZonDd.s 			page 30


 1654 0020 FFF7FEFF 		bl	chSchReadyI
 1655              	.LVL152:
 1656              	.LBB352:
 1657              	.LBB349:
 1658              		.loc 2 592 0
 1659 0024 E36A     		ldr	r3, [r4, #44]
 1660              	.LVL153:
 1661              	.LBE349:
 1662              	.LBE352:
 1663              		.loc 1 426 0
 1664 0026 AB42     		cmp	r3, r5
 1665 0028 F7D1     		bne	.L118
 1666              	.L117:
 1667              		.loc 1 433 0
 1668 002a 94F82130 		ldrb	r3, [r4, #33]	@ zero_extendqisi2
 1669 002e 9B07     		lsls	r3, r3, #30
 1670 0030 04D1     		bne	.L119
 1671              		.loc 1 434 0
 1672 0032 D4E90423 		ldrd	r2, r3, [r4, #16]
 1673 0036 1A61     		str	r2, [r3, #16]
 1674 0038 2269     		ldr	r2, [r4, #16]
 1675 003a 5361     		str	r3, [r2, #20]
 1676              	.L119:
 1677              		.loc 1 437 0
 1678 003c 0F20     		movs	r0, #15
 1679 003e FFF7FEFF 		bl	chSchGoSleepS
 1680              	.LVL154:
 1681              		.loc 1 440 0
 1682 0042 019A     		ldr	r2, [sp, #4]
 1683 0044 3368     		ldr	r3, [r6]
 1684 0046 9A42     		cmp	r2, r3
 1685 0048 05D1     		bne	.L124
 1686 004a 0648     		ldr	r0, .L125+8
 1687              		.loc 1 441 0
 1688 004c 02B0     		add	sp, sp, #8
 1689              		.cfi_remember_state
 1690              		.cfi_def_cfa_offset 16
 1691              		@ sp needed
 1692 004e BDE87040 		pop	{r4, r5, r6, lr}
 1693              		.cfi_restore 14
 1694              		.cfi_restore 6
 1695              		.cfi_restore 5
 1696              		.cfi_restore 4
 1697              		.cfi_def_cfa_offset 0
 1698              	.LVL155:
 1699              		.loc 1 440 0
 1700 0052 FFF7FEBF 		b	chSysHalt
 1701              	.LVL156:
 1702              	.L124:
 1703              		.cfi_restore_state
 1704 0056 FFF7FEFF 		bl	__stack_chk_fail
 1705              	.LVL157:
 1706              	.L126:
 1707 005a 00BF     		.align	2
 1708              	.L125:
 1709 005c 00000000 		.word	ch
 1710 0060 00000000 		.word	__stack_chk_guard
ARM GAS  C:\Users\Moi\AppData\Local\Temp\ccDZonDd.s 			page 31


 1711 0064 00000000 		.word	.LANCHOR5
 1712              		.cfi_endproc
 1713              	.LFE231:
 1714              		.size	chThdExitS, .-chThdExitS
 1715              		.section	.text.chThdExit,"ax",%progbits
 1716              		.align	1
 1717              		.p2align 4,,15
 1718              		.global	chThdExit
 1719              		.syntax unified
 1720              		.thumb
 1721              		.thumb_func
 1722              		.fpu fpv4-sp-d16
 1723              		.type	chThdExit, %function
 1724              	chThdExit:
 1725              	.LFB230:
 1726              		.loc 1 397 0
 1727              		.cfi_startproc
 1728              		@ args = 0, pretend = 0, frame = 8
 1729              		@ frame_needed = 0, uses_anonymous_args = 0
 1730              	.LVL158:
 1731 0000 30B5     		push	{r4, r5, lr}
 1732              		.cfi_def_cfa_offset 12
 1733              		.cfi_offset 4, -12
 1734              		.cfi_offset 5, -8
 1735              		.cfi_offset 14, -4
 1736 0002 0C4C     		ldr	r4, .L132
 1737 0004 83B0     		sub	sp, sp, #12
 1738              		.cfi_def_cfa_offset 24
 1739              		.loc 1 397 0
 1740 0006 2368     		ldr	r3, [r4]
 1741 0008 0193     		str	r3, [sp, #4]
 1742              	.LVL159:
 1743 000a 0546     		mov	r5, r0
 1744              	.LBB353:
 1745              	.LBB354:
 1746              	.LBB355:
 1747              	.LBB356:
 1748              	.LBB357:
 1749              		.loc 3 546 0
 1750 000c 2023     		movs	r3, #32
 1751              		.syntax unified
 1752              	@ 546 "..//ChibiOS//os/ext/CMSIS/include/core_cmFunc.h" 1
 1753 000e 83F31188 		MSR basepri, r3
 1754              	@ 0 "" 2
 1755              	.LVL160:
 1756              		.thumb
 1757              		.syntax unified
 1758              	.LBE357:
 1759              	.LBE356:
 1760              	.LBE355:
 1761              		.loc 4 349 0
 1762 0012 FFF7FEFF 		bl	_stats_start_measure_crit_thd
 1763              	.LVL161:
 1764              		.loc 4 350 0
 1765 0016 FFF7FEFF 		bl	_dbg_check_lock
 1766              	.LVL162:
 1767              	.LBE354:
ARM GAS  C:\Users\Moi\AppData\Local\Temp\ccDZonDd.s 			page 32


 1768              	.LBE353:
 1769              		.loc 1 400 0
 1770 001a 019A     		ldr	r2, [sp, #4]
 1771 001c 2368     		ldr	r3, [r4]
 1772 001e 9A42     		cmp	r2, r3
 1773 0020 05D1     		bne	.L131
 1774 0022 2846     		mov	r0, r5
 1775              		.loc 1 402 0
 1776 0024 03B0     		add	sp, sp, #12
 1777              		.cfi_remember_state
 1778              		.cfi_def_cfa_offset 12
 1779              		@ sp needed
 1780 0026 BDE83040 		pop	{r4, r5, lr}
 1781              		.cfi_restore 14
 1782              		.cfi_restore 5
 1783              		.cfi_restore 4
 1784              		.cfi_def_cfa_offset 0
 1785              	.LVL163:
 1786              		.loc 1 400 0
 1787 002a FFF7FEBF 		b	chThdExitS
 1788              	.LVL164:
 1789              	.L131:
 1790              		.cfi_restore_state
 1791 002e FFF7FEFF 		bl	__stack_chk_fail
 1792              	.LVL165:
 1793              	.L133:
 1794 0032 00BF     		.align	2
 1795              	.L132:
 1796 0034 00000000 		.word	__stack_chk_guard
 1797              		.cfi_endproc
 1798              	.LFE230:
 1799              		.size	chThdExit, .-chThdExit
 1800              		.section	.text.chThdWait,"ax",%progbits
 1801              		.align	1
 1802              		.p2align 4,,15
 1803              		.global	chThdWait
 1804              		.syntax unified
 1805              		.thumb
 1806              		.thumb_func
 1807              		.fpu fpv4-sp-d16
 1808              		.type	chThdWait, %function
 1809              	chThdWait:
 1810              	.LFB232:
 1811              		.loc 1 475 0
 1812              		.cfi_startproc
 1813              		@ args = 0, pretend = 0, frame = 8
 1814              		@ frame_needed = 0, uses_anonymous_args = 0
 1815              	.LVL166:
 1816 0000 F0B5     		push	{r4, r5, r6, r7, lr}
 1817              		.cfi_def_cfa_offset 20
 1818              		.cfi_offset 4, -20
 1819              		.cfi_offset 5, -16
 1820              		.cfi_offset 6, -12
 1821              		.cfi_offset 7, -8
 1822              		.cfi_offset 14, -4
 1823 0002 264E     		ldr	r6, .L150
 1824 0004 83B0     		sub	sp, sp, #12
ARM GAS  C:\Users\Moi\AppData\Local\Temp\ccDZonDd.s 			page 33


 1825              		.cfi_def_cfa_offset 32
 1826              		.loc 1 475 0
 1827 0006 3368     		ldr	r3, [r6]
 1828 0008 0193     		str	r3, [sp, #4]
 1829              		.loc 1 478 0
 1830 000a 0446     		mov	r4, r0
 1831 000c 0028     		cmp	r0, #0
 1832 000e 3ED0     		beq	.L145
 1833              	.LVL167:
 1834              	.L135:
 1835              	.LBB370:
 1836              	.LBB371:
 1837              	.LBB372:
 1838              	.LBB373:
 1839              	.LBB374:
 1840              		.loc 3 546 0
 1841 0010 2023     		movs	r3, #32
 1842              		.syntax unified
 1843              	@ 546 "..//ChibiOS//os/ext/CMSIS/include/core_cmFunc.h" 1
 1844 0012 83F31188 		MSR basepri, r3
 1845              	@ 0 "" 2
 1846              	.LVL168:
 1847              		.thumb
 1848              		.syntax unified
 1849              	.LBE374:
 1850              	.LBE373:
 1851              	.LBE372:
 1852              	.LBE371:
 1853              	.LBE370:
 1854              		.loc 1 481 0
 1855 0016 224D     		ldr	r5, .L150+4
 1856              	.LBB376:
 1857              	.LBB375:
 1858              		.loc 4 349 0
 1859 0018 FFF7FEFF 		bl	_stats_start_measure_crit_thd
 1860              	.LVL169:
 1861              		.loc 4 350 0
 1862 001c FFF7FEFF 		bl	_dbg_check_lock
 1863              	.LVL170:
 1864              	.LBE375:
 1865              	.LBE376:
 1866              		.loc 1 481 0
 1867 0020 AB69     		ldr	r3, [r5, #24]
 1868 0022 A342     		cmp	r3, r4
 1869 0024 2FD0     		beq	.L146
 1870              	.L136:
 1871              		.loc 1 483 0 discriminator 1
 1872 0026 94F82230 		ldrb	r3, [r4, #34]	@ zero_extendqisi2
 1873 002a 43B3     		cbz	r3, .L147
 1874              	.L137:
 1875              		.loc 1 485 0
 1876 002c 94F82030 		ldrb	r3, [r4, #32]	@ zero_extendqisi2
 1877 0030 0F2B     		cmp	r3, #15
 1878 0032 06D0     		beq	.L138
 1879              		.loc 1 486 0
 1880 0034 AB69     		ldr	r3, [r5, #24]
 1881              	.LVL171:
ARM GAS  C:\Users\Moi\AppData\Local\Temp\ccDZonDd.s 			page 34


 1882              	.LBB377:
 1883              	.LBB378:
 1884              		.loc 2 639 0
 1885 0036 E26A     		ldr	r2, [r4, #44]
 1886 0038 1A60     		str	r2, [r3]
 1887              	.LBE378:
 1888              	.LBE377:
 1889              		.loc 1 487 0
 1890 003a 0920     		movs	r0, #9
 1891              	.LBB380:
 1892              	.LBB379:
 1893              		.loc 2 640 0
 1894 003c E362     		str	r3, [r4, #44]
 1895              	.LVL172:
 1896              	.LBE379:
 1897              	.LBE380:
 1898              		.loc 1 487 0
 1899 003e FFF7FEFF 		bl	chSchGoSleepS
 1900              	.LVL173:
 1901              	.L138:
 1902              		.loc 1 489 0
 1903 0042 A76A     		ldr	r7, [r4, #40]
 1904              	.LVL174:
 1905              	.LBB381:
 1906              	.LBB382:
 1907              		.loc 4 360 0
 1908 0044 FFF7FEFF 		bl	_dbg_check_unlock
 1909              	.LVL175:
 1910              		.loc 4 361 0
 1911 0048 FFF7FEFF 		bl	_stats_stop_measure_crit_thd
 1912              	.LVL176:
 1913              		.loc 4 367 0
 1914 004c 2B68     		ldr	r3, [r5]
 1915 004e AB42     		cmp	r3, r5
 1916 0050 04D0     		beq	.L139
 1917 0052 AA69     		ldr	r2, [r5, #24]
 1918 0054 9B68     		ldr	r3, [r3, #8]
 1919 0056 9268     		ldr	r2, [r2, #8]
 1920 0058 9A42     		cmp	r2, r3
 1921 005a 0CD3     		bcc	.L148
 1922              	.L139:
 1923              	.LVL177:
 1924              	.LBB383:
 1925              	.LBB384:
 1926              	.LBB385:
 1927              		.loc 3 546 0
 1928 005c 0023     		movs	r3, #0
 1929              		.syntax unified
 1930              	@ 546 "..//ChibiOS//os/ext/CMSIS/include/core_cmFunc.h" 1
 1931 005e 83F31188 		MSR basepri, r3
 1932              	@ 0 "" 2
 1933              	.LVL178:
 1934              		.thumb
 1935              		.syntax unified
 1936              	.LBE385:
 1937              	.LBE384:
 1938              	.LBE383:
ARM GAS  C:\Users\Moi\AppData\Local\Temp\ccDZonDd.s 			page 35


 1939              	.LBE382:
 1940              	.LBE381:
 1941              		.loc 1 494 0
 1942 0062 2046     		mov	r0, r4
 1943 0064 FFF7FEFF 		bl	chThdRelease
 1944              	.LVL179:
 1945              		.loc 1 498 0
 1946 0068 019A     		ldr	r2, [sp, #4]
 1947 006a 3368     		ldr	r3, [r6]
 1948 006c 9A42     		cmp	r2, r3
 1949 006e 3846     		mov	r0, r7
 1950 0070 11D1     		bne	.L149
 1951              	.LVL180:
 1952 0072 03B0     		add	sp, sp, #12
 1953              		.cfi_remember_state
 1954              		.cfi_def_cfa_offset 20
 1955              		@ sp needed
 1956 0074 F0BD     		pop	{r4, r5, r6, r7, pc}
 1957              	.LVL181:
 1958              	.L148:
 1959              		.cfi_restore_state
 1960              	.LBB387:
 1961              	.LBB386:
 1962              		.loc 4 367 0
 1963 0076 0B48     		ldr	r0, .L150+8
 1964 0078 FFF7FEFF 		bl	chSysHalt
 1965              	.LVL182:
 1966 007c EEE7     		b	.L139
 1967              	.LVL183:
 1968              	.L147:
 1969              	.LBE386:
 1970              	.LBE387:
 1971              		.loc 1 483 0 discriminator 2
 1972 007e 0A48     		ldr	r0, .L150+12
 1973 0080 FFF7FEFF 		bl	chSysHalt
 1974              	.LVL184:
 1975 0084 D2E7     		b	.L137
 1976              	.L146:
 1977              		.loc 1 481 0 discriminator 2
 1978 0086 0848     		ldr	r0, .L150+12
 1979 0088 FFF7FEFF 		bl	chSysHalt
 1980              	.LVL185:
 1981 008c CBE7     		b	.L136
 1982              	.LVL186:
 1983              	.L145:
 1984              		.loc 1 478 0 discriminator 2
 1985 008e 0648     		ldr	r0, .L150+12
 1986              	.LVL187:
 1987 0090 FFF7FEFF 		bl	chSysHalt
 1988              	.LVL188:
 1989 0094 BCE7     		b	.L135
 1990              	.LVL189:
 1991              	.L149:
 1992              		.loc 1 498 0
 1993 0096 FFF7FEFF 		bl	__stack_chk_fail
 1994              	.LVL190:
 1995              	.L151:
ARM GAS  C:\Users\Moi\AppData\Local\Temp\ccDZonDd.s 			page 36


 1996 009a 00BF     		.align	2
 1997              	.L150:
 1998 009c 00000000 		.word	__stack_chk_guard
 1999 00a0 00000000 		.word	ch
 2000 00a4 00000000 		.word	.LANCHOR1
 2001 00a8 00000000 		.word	.LANCHOR6
 2002              		.cfi_endproc
 2003              	.LFE232:
 2004              		.size	chThdWait, .-chThdWait
 2005              		.section	.text.chThdSuspendS,"ax",%progbits
 2006              		.align	1
 2007              		.p2align 4,,15
 2008              		.global	chThdSuspendS
 2009              		.syntax unified
 2010              		.thumb
 2011              		.thumb_func
 2012              		.fpu fpv4-sp-d16
 2013              		.type	chThdSuspendS, %function
 2014              	chThdSuspendS:
 2015              	.LFB233:
 2016              		.loc 1 511 0
 2017              		.cfi_startproc
 2018              		@ args = 0, pretend = 0, frame = 8
 2019              		@ frame_needed = 0, uses_anonymous_args = 0
 2020              	.LVL191:
 2021 0000 F0B5     		push	{r4, r5, r6, r7, lr}
 2022              		.cfi_def_cfa_offset 20
 2023              		.cfi_offset 4, -20
 2024              		.cfi_offset 5, -16
 2025              		.cfi_offset 6, -12
 2026              		.cfi_offset 7, -8
 2027              		.cfi_offset 14, -4
 2028 0002 0D4D     		ldr	r5, .L160
 2029              	.LBB388:
 2030              	.LBB389:
 2031              		.loc 5 176 0
 2032 0004 0D4E     		ldr	r6, .L160+4
 2033              	.LBE389:
 2034              	.LBE388:
 2035              		.loc 1 514 0
 2036 0006 0368     		ldr	r3, [r0]
 2037              		.loc 1 511 0
 2038 0008 2A68     		ldr	r2, [r5]
 2039              	.LBB391:
 2040              	.LBB390:
 2041              		.loc 5 176 0
 2042 000a B769     		ldr	r7, [r6, #24]
 2043              	.LBE390:
 2044              	.LBE391:
 2045              		.loc 1 511 0
 2046 000c 83B0     		sub	sp, sp, #12
 2047              		.cfi_def_cfa_offset 32
 2048              		.loc 1 511 0
 2049 000e 0446     		mov	r4, r0
 2050 0010 0192     		str	r2, [sp, #4]
 2051              		.loc 1 514 0
 2052 0012 13B1     		cbz	r3, .L153
ARM GAS  C:\Users\Moi\AppData\Local\Temp\ccDZonDd.s 			page 37


 2053              		.loc 1 514 0 is_stmt 0 discriminator 2
 2054 0014 0A48     		ldr	r0, .L160+8
 2055              	.LVL192:
 2056 0016 FFF7FEFF 		bl	chSysHalt
 2057              	.LVL193:
 2058              	.L153:
 2059              		.loc 1 516 0 is_stmt 1
 2060 001a 2760     		str	r7, [r4]
 2061              		.loc 1 518 0
 2062 001c 0320     		movs	r0, #3
 2063              		.loc 1 517 0
 2064 001e BC62     		str	r4, [r7, #40]
 2065              		.loc 1 518 0
 2066 0020 FFF7FEFF 		bl	chSchGoSleepS
 2067              	.LVL194:
 2068              		.loc 1 521 0
 2069 0024 019A     		ldr	r2, [sp, #4]
 2070 0026 2B68     		ldr	r3, [r5]
 2071              		.loc 1 520 0
 2072 0028 B169     		ldr	r1, [r6, #24]
 2073              		.loc 1 521 0
 2074 002a 9A42     		cmp	r2, r3
 2075 002c 886A     		ldr	r0, [r1, #40]
 2076 002e 01D1     		bne	.L159
 2077 0030 03B0     		add	sp, sp, #12
 2078              		.cfi_remember_state
 2079              		.cfi_def_cfa_offset 20
 2080              		@ sp needed
 2081 0032 F0BD     		pop	{r4, r5, r6, r7, pc}
 2082              	.LVL195:
 2083              	.L159:
 2084              		.cfi_restore_state
 2085 0034 FFF7FEFF 		bl	__stack_chk_fail
 2086              	.LVL196:
 2087              	.L161:
 2088              		.align	2
 2089              	.L160:
 2090 0038 00000000 		.word	__stack_chk_guard
 2091 003c 00000000 		.word	ch
 2092 0040 00000000 		.word	.LANCHOR7
 2093              		.cfi_endproc
 2094              	.LFE233:
 2095              		.size	chThdSuspendS, .-chThdSuspendS
 2096              		.section	.text.chThdSuspendTimeoutS,"ax",%progbits
 2097              		.align	1
 2098              		.p2align 4,,15
 2099              		.global	chThdSuspendTimeoutS
 2100              		.syntax unified
 2101              		.thumb
 2102              		.thumb_func
 2103              		.fpu fpv4-sp-d16
 2104              		.type	chThdSuspendTimeoutS, %function
 2105              	chThdSuspendTimeoutS:
 2106              	.LFB234:
 2107              		.loc 1 542 0
 2108              		.cfi_startproc
 2109              		@ args = 0, pretend = 0, frame = 8
ARM GAS  C:\Users\Moi\AppData\Local\Temp\ccDZonDd.s 			page 38


 2110              		@ frame_needed = 0, uses_anonymous_args = 0
 2111              	.LVL197:
 2112 0000 F0B5     		push	{r4, r5, r6, r7, lr}
 2113              		.cfi_def_cfa_offset 20
 2114              		.cfi_offset 4, -20
 2115              		.cfi_offset 5, -16
 2116              		.cfi_offset 6, -12
 2117              		.cfi_offset 7, -8
 2118              		.cfi_offset 14, -4
 2119 0002 124D     		ldr	r5, .L172
 2120              		.loc 1 545 0
 2121 0004 0368     		ldr	r3, [r0]
 2122              	.LBB392:
 2123              	.LBB393:
 2124              		.loc 5 176 0
 2125 0006 124A     		ldr	r2, .L172+4
 2126              	.LBE393:
 2127              	.LBE392:
 2128              		.loc 1 542 0
 2129 0008 83B0     		sub	sp, sp, #12
 2130              		.cfi_def_cfa_offset 32
 2131              		.loc 1 542 0
 2132 000a 0446     		mov	r4, r0
 2133 000c 2868     		ldr	r0, [r5]
 2134              	.LVL198:
 2135 000e 0190     		str	r0, [sp, #4]
 2136 0010 0E46     		mov	r6, r1
 2137              	.LBB395:
 2138              	.LBB394:
 2139              		.loc 5 176 0
 2140 0012 9769     		ldr	r7, [r2, #24]
 2141              	.LBE394:
 2142              	.LBE395:
 2143              		.loc 1 545 0
 2144 0014 13B1     		cbz	r3, .L163
 2145              		.loc 1 545 0 is_stmt 0 discriminator 2
 2146 0016 0F48     		ldr	r0, .L172+8
 2147 0018 FFF7FEFF 		bl	chSysHalt
 2148              	.LVL199:
 2149              	.L163:
 2150              		.loc 1 547 0 is_stmt 1
 2151 001c 66B1     		cbz	r6, .L164
 2152              		.loc 1 551 0
 2153 001e 2760     		str	r7, [r4]
 2154              		.loc 1 554 0
 2155 0020 019A     		ldr	r2, [sp, #4]
 2156 0022 2B68     		ldr	r3, [r5]
 2157              		.loc 1 552 0
 2158 0024 BC62     		str	r4, [r7, #40]
 2159              		.loc 1 554 0
 2160 0026 9A42     		cmp	r2, r3
 2161 0028 0ED1     		bne	.L171
 2162 002a 3146     		mov	r1, r6
 2163 002c 0320     		movs	r0, #3
 2164              		.loc 1 555 0
 2165 002e 03B0     		add	sp, sp, #12
 2166              		.cfi_remember_state
ARM GAS  C:\Users\Moi\AppData\Local\Temp\ccDZonDd.s 			page 39


 2167              		.cfi_def_cfa_offset 20
 2168              		@ sp needed
 2169 0030 BDE8F040 		pop	{r4, r5, r6, r7, lr}
 2170              		.cfi_restore 14
 2171              		.cfi_restore 7
 2172              		.cfi_restore 6
 2173              		.cfi_restore 5
 2174              		.cfi_restore 4
 2175              		.cfi_def_cfa_offset 0
 2176              	.LVL200:
 2177              		.loc 1 554 0
 2178 0034 FFF7FEBF 		b	chSchGoSleepTimeoutS
 2179              	.LVL201:
 2180              	.L164:
 2181              		.cfi_restore_state
 2182              		.loc 1 555 0
 2183 0038 019A     		ldr	r2, [sp, #4]
 2184 003a 2B68     		ldr	r3, [r5]
 2185 003c 9A42     		cmp	r2, r3
 2186 003e 4FF0FF30 		mov	r0, #-1
 2187 0042 01D1     		bne	.L171
 2188 0044 03B0     		add	sp, sp, #12
 2189              		.cfi_remember_state
 2190              		.cfi_def_cfa_offset 20
 2191              		@ sp needed
 2192 0046 F0BD     		pop	{r4, r5, r6, r7, pc}
 2193              	.LVL202:
 2194              	.L171:
 2195              		.cfi_restore_state
 2196 0048 FFF7FEFF 		bl	__stack_chk_fail
 2197              	.LVL203:
 2198              	.L173:
 2199              		.align	2
 2200              	.L172:
 2201 004c 00000000 		.word	__stack_chk_guard
 2202 0050 00000000 		.word	ch
 2203 0054 00000000 		.word	.LANCHOR8
 2204              		.cfi_endproc
 2205              	.LFE234:
 2206              		.size	chThdSuspendTimeoutS, .-chThdSuspendTimeoutS
 2207              		.section	.text.chThdResumeI,"ax",%progbits
 2208              		.align	1
 2209              		.p2align 4,,15
 2210              		.global	chThdResumeI
 2211              		.syntax unified
 2212              		.thumb
 2213              		.thumb_func
 2214              		.fpu fpv4-sp-d16
 2215              		.type	chThdResumeI, %function
 2216              	chThdResumeI:
 2217              	.LFB235:
 2218              		.loc 1 567 0
 2219              		.cfi_startproc
 2220              		@ args = 0, pretend = 0, frame = 8
 2221              		@ frame_needed = 0, uses_anonymous_args = 0
 2222              	.LVL204:
 2223 0000 F0B5     		push	{r4, r5, r6, r7, lr}
ARM GAS  C:\Users\Moi\AppData\Local\Temp\ccDZonDd.s 			page 40


 2224              		.cfi_def_cfa_offset 20
 2225              		.cfi_offset 4, -20
 2226              		.cfi_offset 5, -16
 2227              		.cfi_offset 6, -12
 2228              		.cfi_offset 7, -8
 2229              		.cfi_offset 14, -4
 2230 0002 124D     		ldr	r5, .L185
 2231              		.loc 1 569 0
 2232 0004 0468     		ldr	r4, [r0]
 2233              		.loc 1 567 0
 2234 0006 2B68     		ldr	r3, [r5]
 2235 0008 83B0     		sub	sp, sp, #12
 2236              		.cfi_def_cfa_offset 32
 2237              		.loc 1 567 0
 2238 000a 0193     		str	r3, [sp, #4]
 2239              		.loc 1 569 0
 2240 000c B4B1     		cbz	r4, .L174
 2241              	.LBB396:
 2242              		.loc 1 572 0
 2243 000e 94F82030 		ldrb	r3, [r4, #32]	@ zero_extendqisi2
 2244 0012 032B     		cmp	r3, #3
 2245 0014 0646     		mov	r6, r0
 2246 0016 0F46     		mov	r7, r1
 2247              	.LVL205:
 2248 0018 0CD1     		bne	.L184
 2249              	.LVL206:
 2250              	.L176:
 2251              		.loc 1 575 0
 2252 001a 0023     		movs	r3, #0
 2253 001c 3360     		str	r3, [r6]
 2254              		.loc 1 577 0
 2255 001e 019A     		ldr	r2, [sp, #4]
 2256 0020 2B68     		ldr	r3, [r5]
 2257              		.loc 1 576 0
 2258 0022 A762     		str	r7, [r4, #40]
 2259              		.loc 1 577 0
 2260 0024 9A42     		cmp	r2, r3
 2261 0026 0FD1     		bne	.L183
 2262 0028 2046     		mov	r0, r4
 2263              	.LBE396:
 2264              		.loc 1 579 0
 2265 002a 03B0     		add	sp, sp, #12
 2266              		.cfi_remember_state
 2267              		.cfi_def_cfa_offset 20
 2268              		@ sp needed
 2269 002c BDE8F040 		pop	{r4, r5, r6, r7, lr}
 2270              		.cfi_restore 14
 2271              		.cfi_restore 7
 2272              		.cfi_restore 6
 2273              		.cfi_restore 5
 2274              		.cfi_restore 4
 2275              		.cfi_def_cfa_offset 0
 2276              	.LVL207:
 2277              	.LBB397:
 2278              		.loc 1 577 0
 2279 0030 FFF7FEBF 		b	chSchReadyI
 2280              	.LVL208:
ARM GAS  C:\Users\Moi\AppData\Local\Temp\ccDZonDd.s 			page 41


 2281              	.L184:
 2282              		.cfi_restore_state
 2283              		.loc 1 572 0 discriminator 2
 2284 0034 0648     		ldr	r0, .L185+4
 2285              	.LVL209:
 2286 0036 FFF7FEFF 		bl	chSysHalt
 2287              	.LVL210:
 2288 003a EEE7     		b	.L176
 2289              	.LVL211:
 2290              	.L174:
 2291              	.LBE397:
 2292              		.loc 1 579 0
 2293 003c 019A     		ldr	r2, [sp, #4]
 2294 003e 2B68     		ldr	r3, [r5]
 2295 0040 9A42     		cmp	r2, r3
 2296 0042 01D1     		bne	.L183
 2297 0044 03B0     		add	sp, sp, #12
 2298              		.cfi_remember_state
 2299              		.cfi_def_cfa_offset 20
 2300              		@ sp needed
 2301 0046 F0BD     		pop	{r4, r5, r6, r7, pc}
 2302              	.LVL212:
 2303              	.L183:
 2304              		.cfi_restore_state
 2305 0048 FFF7FEFF 		bl	__stack_chk_fail
 2306              	.LVL213:
 2307              	.L186:
 2308              		.align	2
 2309              	.L185:
 2310 004c 00000000 		.word	__stack_chk_guard
 2311 0050 00000000 		.word	.LANCHOR9
 2312              		.cfi_endproc
 2313              	.LFE235:
 2314              		.size	chThdResumeI, .-chThdResumeI
 2315              		.section	.text.chThdResumeS,"ax",%progbits
 2316              		.align	1
 2317              		.p2align 4,,15
 2318              		.global	chThdResumeS
 2319              		.syntax unified
 2320              		.thumb
 2321              		.thumb_func
 2322              		.fpu fpv4-sp-d16
 2323              		.type	chThdResumeS, %function
 2324              	chThdResumeS:
 2325              	.LFB236:
 2326              		.loc 1 591 0
 2327              		.cfi_startproc
 2328              		@ args = 0, pretend = 0, frame = 8
 2329              		@ frame_needed = 0, uses_anonymous_args = 0
 2330              	.LVL214:
 2331 0000 F0B5     		push	{r4, r5, r6, r7, lr}
 2332              		.cfi_def_cfa_offset 20
 2333              		.cfi_offset 4, -20
 2334              		.cfi_offset 5, -16
 2335              		.cfi_offset 6, -12
 2336              		.cfi_offset 7, -8
 2337              		.cfi_offset 14, -4
ARM GAS  C:\Users\Moi\AppData\Local\Temp\ccDZonDd.s 			page 42


 2338 0002 124D     		ldr	r5, .L198
 2339              		.loc 1 593 0
 2340 0004 0468     		ldr	r4, [r0]
 2341              		.loc 1 591 0
 2342 0006 2B68     		ldr	r3, [r5]
 2343 0008 83B0     		sub	sp, sp, #12
 2344              		.cfi_def_cfa_offset 32
 2345              		.loc 1 591 0
 2346 000a 0193     		str	r3, [sp, #4]
 2347              		.loc 1 593 0
 2348 000c B4B1     		cbz	r4, .L187
 2349              	.LBB398:
 2350              		.loc 1 596 0
 2351 000e 94F82030 		ldrb	r3, [r4, #32]	@ zero_extendqisi2
 2352 0012 032B     		cmp	r3, #3
 2353 0014 0646     		mov	r6, r0
 2354 0016 0F46     		mov	r7, r1
 2355              	.LVL215:
 2356 0018 0CD1     		bne	.L197
 2357              	.LVL216:
 2358              	.L189:
 2359              		.loc 1 599 0
 2360 001a 0023     		movs	r3, #0
 2361 001c 3360     		str	r3, [r6]
 2362              		.loc 1 600 0
 2363 001e 019A     		ldr	r2, [sp, #4]
 2364 0020 2B68     		ldr	r3, [r5]
 2365 0022 9A42     		cmp	r2, r3
 2366 0024 10D1     		bne	.L196
 2367 0026 3946     		mov	r1, r7
 2368 0028 2046     		mov	r0, r4
 2369              	.LBE398:
 2370              		.loc 1 602 0
 2371 002a 03B0     		add	sp, sp, #12
 2372              		.cfi_remember_state
 2373              		.cfi_def_cfa_offset 20
 2374              		@ sp needed
 2375 002c BDE8F040 		pop	{r4, r5, r6, r7, lr}
 2376              		.cfi_restore 14
 2377              		.cfi_restore 7
 2378              		.cfi_restore 6
 2379              		.cfi_restore 5
 2380              		.cfi_restore 4
 2381              		.cfi_def_cfa_offset 0
 2382              	.LVL217:
 2383              	.LBB399:
 2384              		.loc 1 600 0
 2385 0030 FFF7FEBF 		b	chSchWakeupS
 2386              	.LVL218:
 2387              	.L197:
 2388              		.cfi_restore_state
 2389              		.loc 1 596 0 discriminator 2
 2390 0034 0648     		ldr	r0, .L198+4
 2391              	.LVL219:
 2392 0036 FFF7FEFF 		bl	chSysHalt
 2393              	.LVL220:
 2394 003a EEE7     		b	.L189
ARM GAS  C:\Users\Moi\AppData\Local\Temp\ccDZonDd.s 			page 43


 2395              	.LVL221:
 2396              	.L187:
 2397              	.LBE399:
 2398              		.loc 1 602 0
 2399 003c 019A     		ldr	r2, [sp, #4]
 2400 003e 2B68     		ldr	r3, [r5]
 2401 0040 9A42     		cmp	r2, r3
 2402 0042 01D1     		bne	.L196
 2403 0044 03B0     		add	sp, sp, #12
 2404              		.cfi_remember_state
 2405              		.cfi_def_cfa_offset 20
 2406              		@ sp needed
 2407 0046 F0BD     		pop	{r4, r5, r6, r7, pc}
 2408              	.LVL222:
 2409              	.L196:
 2410              		.cfi_restore_state
 2411 0048 FFF7FEFF 		bl	__stack_chk_fail
 2412              	.LVL223:
 2413              	.L199:
 2414              		.align	2
 2415              	.L198:
 2416 004c 00000000 		.word	__stack_chk_guard
 2417 0050 00000000 		.word	.LANCHOR10
 2418              		.cfi_endproc
 2419              	.LFE236:
 2420              		.size	chThdResumeS, .-chThdResumeS
 2421              		.section	.text.chThdResume,"ax",%progbits
 2422              		.align	1
 2423              		.p2align 4,,15
 2424              		.global	chThdResume
 2425              		.syntax unified
 2426              		.thumb
 2427              		.thumb_func
 2428              		.fpu fpv4-sp-d16
 2429              		.type	chThdResume, %function
 2430              	chThdResume:
 2431              	.LFB237:
 2432              		.loc 1 614 0
 2433              		.cfi_startproc
 2434              		@ args = 0, pretend = 0, frame = 8
 2435              		@ frame_needed = 0, uses_anonymous_args = 0
 2436              	.LVL224:
 2437 0000 70B5     		push	{r4, r5, r6, lr}
 2438              		.cfi_def_cfa_offset 16
 2439              		.cfi_offset 4, -16
 2440              		.cfi_offset 5, -12
 2441              		.cfi_offset 6, -8
 2442              		.cfi_offset 14, -4
 2443 0002 164C     		ldr	r4, .L206
 2444 0004 82B0     		sub	sp, sp, #8
 2445              		.cfi_def_cfa_offset 24
 2446              		.loc 1 614 0
 2447 0006 2368     		ldr	r3, [r4]
 2448 0008 0193     		str	r3, [sp, #4]
 2449              	.LVL225:
 2450 000a 0546     		mov	r5, r0
 2451 000c 0E46     		mov	r6, r1
ARM GAS  C:\Users\Moi\AppData\Local\Temp\ccDZonDd.s 			page 44


 2452              	.LBB410:
 2453              	.LBB411:
 2454              	.LBB412:
 2455              	.LBB413:
 2456              	.LBB414:
 2457              		.loc 3 546 0
 2458 000e 2023     		movs	r3, #32
 2459              		.syntax unified
 2460              	@ 546 "..//ChibiOS//os/ext/CMSIS/include/core_cmFunc.h" 1
 2461 0010 83F31188 		MSR basepri, r3
 2462              	@ 0 "" 2
 2463              	.LVL226:
 2464              		.thumb
 2465              		.syntax unified
 2466              	.LBE414:
 2467              	.LBE413:
 2468              	.LBE412:
 2469              		.loc 4 349 0
 2470 0014 FFF7FEFF 		bl	_stats_start_measure_crit_thd
 2471              	.LVL227:
 2472              		.loc 4 350 0
 2473 0018 FFF7FEFF 		bl	_dbg_check_lock
 2474              	.LVL228:
 2475              	.LBE411:
 2476              	.LBE410:
 2477              		.loc 1 617 0
 2478 001c 3146     		mov	r1, r6
 2479 001e 2846     		mov	r0, r5
 2480 0020 FFF7FEFF 		bl	chThdResumeS
 2481              	.LVL229:
 2482              	.LBB415:
 2483              	.LBB416:
 2484              		.loc 4 360 0
 2485 0024 FFF7FEFF 		bl	_dbg_check_unlock
 2486              	.LVL230:
 2487              		.loc 4 361 0
 2488 0028 FFF7FEFF 		bl	_stats_stop_measure_crit_thd
 2489              	.LVL231:
 2490              		.loc 4 367 0
 2491 002c 0C4B     		ldr	r3, .L206+4
 2492 002e 1A68     		ldr	r2, [r3]
 2493 0030 9A42     		cmp	r2, r3
 2494 0032 04D0     		beq	.L201
 2495 0034 9969     		ldr	r1, [r3, #24]
 2496 0036 9368     		ldr	r3, [r2, #8]
 2497 0038 8A68     		ldr	r2, [r1, #8]
 2498 003a 9A42     		cmp	r2, r3
 2499 003c 08D3     		bcc	.L204
 2500              	.L201:
 2501              	.LVL232:
 2502              	.LBB417:
 2503              	.LBB418:
 2504              	.LBB419:
 2505              		.loc 3 546 0
 2506 003e 0023     		movs	r3, #0
 2507              		.syntax unified
 2508              	@ 546 "..//ChibiOS//os/ext/CMSIS/include/core_cmFunc.h" 1
ARM GAS  C:\Users\Moi\AppData\Local\Temp\ccDZonDd.s 			page 45


 2509 0040 83F31188 		MSR basepri, r3
 2510              	@ 0 "" 2
 2511              	.LVL233:
 2512              		.thumb
 2513              		.syntax unified
 2514              	.LBE419:
 2515              	.LBE418:
 2516              	.LBE417:
 2517              	.LBE416:
 2518              	.LBE415:
 2519              		.loc 1 619 0
 2520 0044 019A     		ldr	r2, [sp, #4]
 2521 0046 2368     		ldr	r3, [r4]
 2522 0048 9A42     		cmp	r2, r3
 2523 004a 05D1     		bne	.L205
 2524 004c 02B0     		add	sp, sp, #8
 2525              		.cfi_remember_state
 2526              		.cfi_def_cfa_offset 16
 2527              		@ sp needed
 2528 004e 70BD     		pop	{r4, r5, r6, pc}
 2529              	.LVL234:
 2530              	.L204:
 2531              		.cfi_restore_state
 2532              	.LBB421:
 2533              	.LBB420:
 2534              		.loc 4 367 0
 2535 0050 0448     		ldr	r0, .L206+8
 2536 0052 FFF7FEFF 		bl	chSysHalt
 2537              	.LVL235:
 2538 0056 F2E7     		b	.L201
 2539              	.L205:
 2540              	.LBE420:
 2541              	.LBE421:
 2542              		.loc 1 619 0
 2543 0058 FFF7FEFF 		bl	__stack_chk_fail
 2544              	.LVL236:
 2545              	.L207:
 2546              		.align	2
 2547              	.L206:
 2548 005c 00000000 		.word	__stack_chk_guard
 2549 0060 00000000 		.word	ch
 2550 0064 00000000 		.word	.LANCHOR1
 2551              		.cfi_endproc
 2552              	.LFE237:
 2553              		.size	chThdResume, .-chThdResume
 2554              		.section	.text.chThdEnqueueTimeoutS,"ax",%progbits
 2555              		.align	1
 2556              		.p2align 4,,15
 2557              		.global	chThdEnqueueTimeoutS
 2558              		.syntax unified
 2559              		.thumb
 2560              		.thumb_func
 2561              		.fpu fpv4-sp-d16
 2562              		.type	chThdEnqueueTimeoutS, %function
 2563              	chThdEnqueueTimeoutS:
 2564              	.LFB238:
 2565              		.loc 1 644 0
ARM GAS  C:\Users\Moi\AppData\Local\Temp\ccDZonDd.s 			page 46


 2566              		.cfi_startproc
 2567              		@ args = 0, pretend = 0, frame = 8
 2568              		@ frame_needed = 0, uses_anonymous_args = 0
 2569              	.LVL237:
 2570 0000 30B5     		push	{r4, r5, lr}
 2571              		.cfi_def_cfa_offset 12
 2572              		.cfi_offset 4, -12
 2573              		.cfi_offset 5, -8
 2574              		.cfi_offset 14, -4
 2575 0002 104A     		ldr	r2, .L214
 2576 0004 83B0     		sub	sp, sp, #12
 2577              		.cfi_def_cfa_offset 24
 2578              		.loc 1 644 0
 2579 0006 1368     		ldr	r3, [r2]
 2580 0008 0193     		str	r3, [sp, #4]
 2581              		.loc 1 646 0
 2582 000a 81B1     		cbz	r1, .L209
 2583              		.loc 1 650 0
 2584 000c 0E4B     		ldr	r3, .L214+4
 2585              		.loc 1 652 0
 2586 000e 019D     		ldr	r5, [sp, #4]
 2587 0010 1268     		ldr	r2, [r2]
 2588              	.LBB422:
 2589              	.LBB423:
 2590              		.loc 2 666 0
 2591 0012 4468     		ldr	r4, [r0, #4]
 2592              	.LBE423:
 2593              	.LBE422:
 2594              		.loc 1 650 0
 2595 0014 9B69     		ldr	r3, [r3, #24]
 2596              	.LVL238:
 2597              		.loc 1 652 0
 2598 0016 9542     		cmp	r5, r2
 2599              	.LBB425:
 2600              	.LBB424:
 2601              		.loc 2 666 0
 2602 0018 C3E90004 		strd	r0, r4, [r3]
 2603              		.loc 2 667 0
 2604 001c 2360     		str	r3, [r4]
 2605              		.loc 2 668 0
 2606 001e 4360     		str	r3, [r0, #4]
 2607              	.LVL239:
 2608              	.LBE424:
 2609              	.LBE425:
 2610              		.loc 1 652 0
 2611 0020 0DD1     		bne	.L213
 2612 0022 0420     		movs	r0, #4
 2613              	.LVL240:
 2614              		.loc 1 653 0
 2615 0024 03B0     		add	sp, sp, #12
 2616              		.cfi_remember_state
 2617              		.cfi_def_cfa_offset 12
 2618              		@ sp needed
 2619 0026 BDE83040 		pop	{r4, r5, lr}
 2620              		.cfi_restore 14
 2621              		.cfi_restore 5
 2622              		.cfi_restore 4
ARM GAS  C:\Users\Moi\AppData\Local\Temp\ccDZonDd.s 			page 47


 2623              		.cfi_def_cfa_offset 0
 2624              		.loc 1 652 0
 2625 002a FFF7FEBF 		b	chSchGoSleepTimeoutS
 2626              	.LVL241:
 2627              	.L209:
 2628              		.cfi_restore_state
 2629              		.loc 1 653 0
 2630 002e 0199     		ldr	r1, [sp, #4]
 2631              	.LVL242:
 2632 0030 1368     		ldr	r3, [r2]
 2633 0032 9942     		cmp	r1, r3
 2634 0034 4FF0FF30 		mov	r0, #-1
 2635              	.LVL243:
 2636 0038 01D1     		bne	.L213
 2637 003a 03B0     		add	sp, sp, #12
 2638              		.cfi_remember_state
 2639              		.cfi_def_cfa_offset 12
 2640              		@ sp needed
 2641 003c 30BD     		pop	{r4, r5, pc}
 2642              	.L213:
 2643              		.cfi_restore_state
 2644 003e FFF7FEFF 		bl	__stack_chk_fail
 2645              	.LVL244:
 2646              	.L215:
 2647 0042 00BF     		.align	2
 2648              	.L214:
 2649 0044 00000000 		.word	__stack_chk_guard
 2650 0048 00000000 		.word	ch
 2651              		.cfi_endproc
 2652              	.LFE238:
 2653              		.size	chThdEnqueueTimeoutS, .-chThdEnqueueTimeoutS
 2654              		.section	.text.chThdDequeueNextI,"ax",%progbits
 2655              		.align	1
 2656              		.p2align 4,,15
 2657              		.global	chThdDequeueNextI
 2658              		.syntax unified
 2659              		.thumb
 2660              		.thumb_func
 2661              		.fpu fpv4-sp-d16
 2662              		.type	chThdDequeueNextI, %function
 2663              	chThdDequeueNextI:
 2664              	.LFB239:
 2665              		.loc 1 664 0
 2666              		.cfi_startproc
 2667              		@ args = 0, pretend = 0, frame = 8
 2668              		@ frame_needed = 0, uses_anonymous_args = 0
 2669              	.LVL245:
 2670 0000 70B5     		push	{r4, r5, r6, lr}
 2671              		.cfi_def_cfa_offset 16
 2672              		.cfi_offset 4, -16
 2673              		.cfi_offset 5, -12
 2674              		.cfi_offset 6, -8
 2675              		.cfi_offset 14, -4
 2676 0002 124D     		ldr	r5, .L226
 2677              	.LBB434:
 2678              	.LBB435:
 2679              		.loc 2 631 0
ARM GAS  C:\Users\Moi\AppData\Local\Temp\ccDZonDd.s 			page 48


 2680 0004 0468     		ldr	r4, [r0]
 2681              	.LBE435:
 2682              	.LBE434:
 2683              		.loc 1 664 0
 2684 0006 2B68     		ldr	r3, [r5]
 2685 0008 82B0     		sub	sp, sp, #8
 2686              		.cfi_def_cfa_offset 24
 2687              		.loc 1 666 0
 2688 000a A042     		cmp	r0, r4
 2689              		.loc 1 664 0
 2690 000c 0193     		str	r3, [sp, #4]
 2691              		.loc 1 666 0
 2692 000e 15D0     		beq	.L216
 2693              	.LBB436:
 2694              	.LBB437:
 2695              	.LBB438:
 2696              	.LBB439:
 2697              		.loc 2 674 0
 2698 0010 2368     		ldr	r3, [r4]
 2699 0012 0360     		str	r3, [r0]
 2700              		.loc 2 675 0
 2701 0014 5860     		str	r0, [r3, #4]
 2702              	.LBE439:
 2703              	.LBE438:
 2704              		.loc 5 319 0
 2705 0016 94F82030 		ldrb	r3, [r4, #32]	@ zero_extendqisi2
 2706 001a 042B     		cmp	r3, #4
 2707 001c 0E46     		mov	r6, r1
 2708              	.LVL246:
 2709 001e 02D0     		beq	.L218
 2710 0020 0B48     		ldr	r0, .L226+4
 2711              	.LVL247:
 2712 0022 FFF7FEFF 		bl	chSysHalt
 2713              	.LVL248:
 2714              	.L218:
 2715              		.loc 5 322 0
 2716 0026 019A     		ldr	r2, [sp, #4]
 2717 0028 2B68     		ldr	r3, [r5]
 2718              		.loc 5 321 0
 2719 002a A662     		str	r6, [r4, #40]
 2720              		.loc 5 322 0
 2721 002c 9A42     		cmp	r2, r3
 2722 002e 0BD1     		bne	.L225
 2723 0030 2046     		mov	r0, r4
 2724              	.LBE437:
 2725              	.LBE436:
 2726              		.loc 1 669 0
 2727 0032 02B0     		add	sp, sp, #8
 2728              		.cfi_remember_state
 2729              		.cfi_def_cfa_offset 16
 2730              		@ sp needed
 2731 0034 BDE87040 		pop	{r4, r5, r6, lr}
 2732              		.cfi_restore 14
 2733              		.cfi_restore 6
 2734              		.cfi_restore 5
 2735              		.cfi_restore 4
 2736              		.cfi_def_cfa_offset 0
ARM GAS  C:\Users\Moi\AppData\Local\Temp\ccDZonDd.s 			page 49


 2737              	.LVL249:
 2738              	.LBB441:
 2739              	.LBB440:
 2740              		.loc 5 322 0
 2741 0038 FFF7FEBF 		b	chSchReadyI
 2742              	.LVL250:
 2743              	.L216:
 2744              		.cfi_restore_state
 2745              	.LBE440:
 2746              	.LBE441:
 2747              		.loc 1 669 0
 2748 003c 019A     		ldr	r2, [sp, #4]
 2749 003e 2B68     		ldr	r3, [r5]
 2750 0040 9A42     		cmp	r2, r3
 2751 0042 01D1     		bne	.L225
 2752 0044 02B0     		add	sp, sp, #8
 2753              		.cfi_remember_state
 2754              		.cfi_def_cfa_offset 16
 2755              		@ sp needed
 2756 0046 70BD     		pop	{r4, r5, r6, pc}
 2757              	.LVL251:
 2758              	.L225:
 2759              		.cfi_restore_state
 2760 0048 FFF7FEFF 		bl	__stack_chk_fail
 2761              	.LVL252:
 2762              	.L227:
 2763              		.align	2
 2764              	.L226:
 2765 004c 00000000 		.word	__stack_chk_guard
 2766 0050 00000000 		.word	.LANCHOR11
 2767              		.cfi_endproc
 2768              	.LFE239:
 2769              		.size	chThdDequeueNextI, .-chThdDequeueNextI
 2770              		.section	.text.chThdDequeueAllI,"ax",%progbits
 2771              		.align	1
 2772              		.p2align 4,,15
 2773              		.global	chThdDequeueAllI
 2774              		.syntax unified
 2775              		.thumb
 2776              		.thumb_func
 2777              		.fpu fpv4-sp-d16
 2778              		.type	chThdDequeueAllI, %function
 2779              	chThdDequeueAllI:
 2780              	.LFB240:
 2781              		.loc 1 679 0
 2782              		.cfi_startproc
 2783              		@ args = 0, pretend = 0, frame = 8
 2784              		@ frame_needed = 0, uses_anonymous_args = 0
 2785              	.LVL253:
 2786 0000 2DE9F041 		push	{r4, r5, r6, r7, r8, lr}
 2787              		.cfi_def_cfa_offset 24
 2788              		.cfi_offset 4, -24
 2789              		.cfi_offset 5, -20
 2790              		.cfi_offset 6, -16
 2791              		.cfi_offset 7, -12
 2792              		.cfi_offset 8, -8
 2793              		.cfi_offset 14, -4
ARM GAS  C:\Users\Moi\AppData\Local\Temp\ccDZonDd.s 			page 50


 2794 0004 DFF85080 		ldr	r8, .L239+4
 2795              	.LBB450:
 2796              	.LBB451:
 2797              		.loc 2 631 0
 2798 0008 0468     		ldr	r4, [r0]
 2799              	.LBE451:
 2800              	.LBE450:
 2801              		.loc 1 679 0
 2802 000a D8F80030 		ldr	r3, [r8]
 2803 000e 82B0     		sub	sp, sp, #8
 2804              		.cfi_def_cfa_offset 32
 2805              		.loc 1 681 0
 2806 0010 A042     		cmp	r0, r4
 2807              		.loc 1 679 0
 2808 0012 0193     		str	r3, [sp, #4]
 2809              		.loc 1 681 0
 2810 0014 13D0     		beq	.L228
 2811              	.LBB453:
 2812              	.LBB454:
 2813              		.loc 5 319 0
 2814 0016 0F4F     		ldr	r7, .L239
 2815 0018 0546     		mov	r5, r0
 2816 001a 0E46     		mov	r6, r1
 2817              	.LVL254:
 2818              	.L231:
 2819              	.LBB455:
 2820              	.LBB456:
 2821              		.loc 2 674 0
 2822 001c 2368     		ldr	r3, [r4]
 2823 001e 2B60     		str	r3, [r5]
 2824              	.LVL255:
 2825              		.loc 2 675 0
 2826 0020 5D60     		str	r5, [r3, #4]
 2827              	.LVL256:
 2828              	.LBE456:
 2829              	.LBE455:
 2830              		.loc 5 319 0
 2831 0022 94F82030 		ldrb	r3, [r4, #32]	@ zero_extendqisi2
 2832 0026 042B     		cmp	r3, #4
 2833 0028 02D0     		beq	.L230
 2834 002a 3846     		mov	r0, r7
 2835 002c FFF7FEFF 		bl	chSysHalt
 2836              	.LVL257:
 2837              	.L230:
 2838              		.loc 5 321 0
 2839 0030 A662     		str	r6, [r4, #40]
 2840              		.loc 5 322 0
 2841 0032 2046     		mov	r0, r4
 2842 0034 FFF7FEFF 		bl	chSchReadyI
 2843              	.LVL258:
 2844              	.LBE454:
 2845              	.LBE453:
 2846              	.LBB457:
 2847              	.LBB452:
 2848              		.loc 2 631 0
 2849 0038 2C68     		ldr	r4, [r5]
 2850              	.LVL259:
ARM GAS  C:\Users\Moi\AppData\Local\Temp\ccDZonDd.s 			page 51


 2851              	.LBE452:
 2852              	.LBE457:
 2853              		.loc 1 681 0
 2854 003a A542     		cmp	r5, r4
 2855 003c EED1     		bne	.L231
 2856              	.LVL260:
 2857              	.L228:
 2858              		.loc 1 684 0
 2859 003e 019A     		ldr	r2, [sp, #4]
 2860 0040 D8F80030 		ldr	r3, [r8]
 2861 0044 9A42     		cmp	r2, r3
 2862 0046 02D1     		bne	.L238
 2863 0048 02B0     		add	sp, sp, #8
 2864              		.cfi_remember_state
 2865              		.cfi_def_cfa_offset 24
 2866              		@ sp needed
 2867 004a BDE8F081 		pop	{r4, r5, r6, r7, r8, pc}
 2868              	.L238:
 2869              		.cfi_restore_state
 2870 004e FFF7FEFF 		bl	__stack_chk_fail
 2871              	.LVL261:
 2872              	.L240:
 2873 0052 00BF     		.align	2
 2874              	.L239:
 2875 0054 00000000 		.word	.LANCHOR11
 2876 0058 00000000 		.word	__stack_chk_guard
 2877              		.cfi_endproc
 2878              	.LFE240:
 2879              		.size	chThdDequeueAllI, .-chThdDequeueAllI
 2880              		.section	.rodata.__func__.7153,"a",%progbits
 2881              		.align	2
 2882              		.set	.LANCHOR1,. + 0
 2883              		.type	__func__.7153, %object
 2884              		.size	__func__.7153, 12
 2885              	__func__.7153:
 2886 0000 63685379 		.ascii	"chSysUnlock\000"
 2886      73556E6C 
 2886      6F636B00 
 2887              		.section	.rodata.__func__.7320,"a",%progbits
 2888              		.align	2
 2889              		.set	.LANCHOR2,. + 0
 2890              		.type	__func__.7320, %object
 2891              		.size	__func__.7320, 12
 2892              	__func__.7320:
 2893 0000 63685468 		.ascii	"chThdStartI\000"
 2893      64537461 
 2893      72744900 
 2894              		.section	.rodata.__func__.7324,"a",%progbits
 2895              		.align	2
 2896              		.set	.LANCHOR4,. + 0
 2897              		.type	__func__.7324, %object
 2898              		.size	__func__.7324, 12
 2899              	__func__.7324:
 2900 0000 63685468 		.ascii	"chThdSleepS\000"
 2900      64536C65 
 2900      65705300 
 2901              		.section	.rodata.__func__.7336,"a",%progbits
ARM GAS  C:\Users\Moi\AppData\Local\Temp\ccDZonDd.s 			page 52


 2902              		.align	2
 2903              		.set	.LANCHOR11,. + 0
 2904              		.type	__func__.7336, %object
 2905              		.size	__func__.7336, 20
 2906              	__func__.7336:
 2907 0000 63685468 		.ascii	"chThdDoDequeueNextI\000"
 2907      64446F44 
 2907      65717565 
 2907      75654E65 
 2907      78744900 
 2908              		.section	.rodata.__func__.7866,"a",%progbits
 2909              		.align	2
 2910              		.set	.LANCHOR0,. + 0
 2911              		.type	__func__.7866, %object
 2912              		.size	__func__.7866, 13
 2913              	__func__.7866:
 2914 0000 63685468 		.ascii	"chThdCreateI\000"
 2914      64437265 
 2914      61746549 
 2914      00
 2915              		.section	.rodata.__func__.7882,"a",%progbits
 2916              		.align	2
 2917              		.set	.LANCHOR3,. + 0
 2918              		.type	__func__.7882, %object
 2919              		.size	__func__.7882, 17
 2920              	__func__.7882:
 2921 0000 63685468 		.ascii	"chThdSetPriority\000"
 2921      64536574 
 2921      5072696F 
 2921      72697479 
 2921      00
 2922              		.section	.rodata.__func__.7910,"a",%progbits
 2923              		.align	2
 2924              		.set	.LANCHOR5,. + 0
 2925              		.type	__func__.7910, %object
 2926              		.size	__func__.7910, 11
 2927              	__func__.7910:
 2928 0000 63685468 		.ascii	"chThdExitS\000"
 2928      64457869 
 2928      745300
 2929              		.section	.rodata.__func__.7915,"a",%progbits
 2930              		.align	2
 2931              		.set	.LANCHOR6,. + 0
 2932              		.type	__func__.7915, %object
 2933              		.size	__func__.7915, 10
 2934              	__func__.7915:
 2935 0000 63685468 		.ascii	"chThdWait\000"
 2935      64576169 
 2935      7400
 2936              		.section	.rodata.__func__.7920,"a",%progbits
 2937              		.align	2
 2938              		.set	.LANCHOR7,. + 0
 2939              		.type	__func__.7920, %object
 2940              		.size	__func__.7920, 14
 2941              	__func__.7920:
 2942 0000 63685468 		.ascii	"chThdSuspendS\000"
 2942      64537573 
ARM GAS  C:\Users\Moi\AppData\Local\Temp\ccDZonDd.s 			page 53


 2942      70656E64 
 2942      5300
 2943              		.section	.rodata.__func__.7926,"a",%progbits
 2944              		.align	2
 2945              		.set	.LANCHOR8,. + 0
 2946              		.type	__func__.7926, %object
 2947              		.size	__func__.7926, 21
 2948              	__func__.7926:
 2949 0000 63685468 		.ascii	"chThdSuspendTimeoutS\000"
 2949      64537573 
 2949      70656E64 
 2949      54696D65 
 2949      6F757453 
 2950              		.section	.rodata.__func__.7932,"a",%progbits
 2951              		.align	2
 2952              		.set	.LANCHOR9,. + 0
 2953              		.type	__func__.7932, %object
 2954              		.size	__func__.7932, 13
 2955              	__func__.7932:
 2956 0000 63685468 		.ascii	"chThdResumeI\000"
 2956      64526573 
 2956      756D6549 
 2956      00
 2957              		.section	.rodata.__func__.7938,"a",%progbits
 2958              		.align	2
 2959              		.set	.LANCHOR10,. + 0
 2960              		.type	__func__.7938, %object
 2961              		.size	__func__.7938, 13
 2962              	__func__.7938:
 2963 0000 63685468 		.ascii	"chThdResumeS\000"
 2963      64526573 
 2963      756D6553 
 2963      00
 2964              		.text
 2965              	.Letext0:
 2966              		.file 7 "c:\\users\\moi\\documents\\_microinfo\\epuck-eclipse\\tools\\gcc-arm-none-eabi-7-2017-q4-
 2967              		.file 8 "c:\\users\\moi\\documents\\_microinfo\\epuck-eclipse\\tools\\gcc-arm-none-eabi-7-2017-q4-
 2968              		.file 9 "c:\\users\\moi\\documents\\_microinfo\\epuck-eclipse\\tools\\gcc-arm-none-eabi-7-2017-q4-
 2969              		.file 10 "..//ChibiOS//os/rt/ports/ARMCMx/compilers/GCC/chtypes.h"
 2970              		.file 11 "..//ChibiOS//os/rt/include/chsystypes.h"
 2971              		.file 12 "..//ChibiOS//os/ext/CMSIS/include/core_cm4.h"
 2972              		.file 13 "..//ChibiOS//os/ext/CMSIS/ST/system_stm32f4xx.h"
 2973              		.file 14 "..//ChibiOS//os/rt/ports/ARMCMx/chcore.h"
 2974              		.file 15 "..//ChibiOS//os/rt/ports/ARMCMx/chcore_v7m.h"
 2975              		.file 16 "..//ChibiOS//os/rt/include/chdebug.h"
 2976              		.file 17 "..//ChibiOS//os/rt/include/chtm.h"
 2977              		.file 18 "..//ChibiOS//os/rt/include/chstats.h"
 2978              		.file 19 "..//ChibiOS//os/rt/include/chsem.h"
 2979              		.file 20 "..//ChibiOS//os/rt/include/chmtx.h"
 2980              		.file 21 "..//ChibiOS//os/rt/include/chregistry.h"
 2981              		.file 22 "..//ChibiOS//os/rt/include/chdynamic.h"