ARM GAS  C:\Users\Moi\AppData\Local\Temp\cchaECY7.s 			page 1


   1              		.cpu cortex-m4
   2              		.eabi_attribute 27, 1
   3              		.eabi_attribute 28, 1
   4              		.eabi_attribute 20, 1
   5              		.eabi_attribute 21, 1
   6              		.eabi_attribute 23, 3
   7              		.eabi_attribute 24, 1
   8              		.eabi_attribute 25, 1
   9              		.eabi_attribute 26, 1
  10              		.eabi_attribute 30, 6
  11              		.eabi_attribute 34, 1
  12              		.eabi_attribute 18, 4
  13              		.file	"cmd.c"
  14              		.text
  15              	.Ltext0:
  16              		.cfi_sections	.debug_frame
  17              		.section	.text.port_lock,"ax",%progbits
  18              		.align	1
  19              		.p2align 4,,15
  20              		.syntax unified
  21              		.thumb
  22              		.thumb_func
  23              		.fpu fpv4-sp-d16
  24              		.type	port_lock, %function
  25              	port_lock:
  26              	.LFB119:
  27              		.file 1 "..//ChibiOS//os/rt/ports/ARMCMx/chcore_v7m.h"
  28              		.loc 1 444 0
  29              		.cfi_startproc
  30              		@ args = 0, pretend = 0, frame = 8
  31              		@ frame_needed = 0, uses_anonymous_args = 0
  32 0000 00B5     		push	{lr}
  33              		.cfi_def_cfa_offset 4
  34              		.cfi_offset 14, -4
  35 0002 83B0     		sub	sp, sp, #12
  36              		.cfi_def_cfa_offset 16
  37              		.loc 1 444 0
  38 0004 094B     		ldr	r3, .L3
  39 0006 1B68     		ldr	r3, [r3]
  40 0008 0193     		str	r3, [sp, #4]
  41 000a 2023     		movs	r3, #32
  42 000c 0093     		str	r3, [sp]
  43              	.LBB6:
  44              	.LBB7:
  45              		.file 2 "..//ChibiOS//os/ext/CMSIS/include/core_cmFunc.h"
  46              		.loc 2 546 0
  47 000e 009B     		ldr	r3, [sp]
  48              		.syntax unified
  49              	@ 546 "..//ChibiOS//os/ext/CMSIS/include/core_cmFunc.h" 1
  50 0010 83F31188 		MSR basepri, r3
  51              	@ 0 "" 2
  52              		.thumb
  53              		.syntax unified
  54              	.LBE7:
  55              	.LBE6:
  56              		.loc 1 451 0
  57 0014 00BF     		nop
ARM GAS  C:\Users\Moi\AppData\Local\Temp\cchaECY7.s 			page 2


  58 0016 054B     		ldr	r3, .L3
  59 0018 019A     		ldr	r2, [sp, #4]
  60 001a 1B68     		ldr	r3, [r3]
  61 001c 9A42     		cmp	r2, r3
  62 001e 01D0     		beq	.L2
  63 0020 FFF7FEFF 		bl	__stack_chk_fail
  64              	.L2:
  65 0024 03B0     		add	sp, sp, #12
  66              		.cfi_def_cfa_offset 4
  67              		@ sp needed
  68 0026 5DF804FB 		ldr	pc, [sp], #4
  69              	.L4:
  70 002a 00BF     		.align	2
  71              	.L3:
  72 002c 00000000 		.word	__stack_chk_guard
  73              		.cfi_endproc
  74              	.LFE119:
  75              		.size	port_lock, .-port_lock
  76              		.section	.text.port_unlock,"ax",%progbits
  77              		.align	1
  78              		.p2align 4,,15
  79              		.syntax unified
  80              		.thumb
  81              		.thumb_func
  82              		.fpu fpv4-sp-d16
  83              		.type	port_unlock, %function
  84              	port_unlock:
  85              	.LFB120:
  86              		.loc 1 458 0
  87              		.cfi_startproc
  88              		@ args = 0, pretend = 0, frame = 8
  89              		@ frame_needed = 0, uses_anonymous_args = 0
  90 0000 00B5     		push	{lr}
  91              		.cfi_def_cfa_offset 4
  92              		.cfi_offset 14, -4
  93 0002 83B0     		sub	sp, sp, #12
  94              		.cfi_def_cfa_offset 16
  95              		.loc 1 458 0
  96 0004 094B     		ldr	r3, .L7
  97 0006 1B68     		ldr	r3, [r3]
  98 0008 0193     		str	r3, [sp, #4]
  99 000a 0023     		movs	r3, #0
 100 000c 0093     		str	r3, [sp]
 101              	.LBB8:
 102              	.LBB9:
 103              		.loc 2 546 0
 104 000e 009B     		ldr	r3, [sp]
 105              		.syntax unified
 106              	@ 546 "..//ChibiOS//os/ext/CMSIS/include/core_cmFunc.h" 1
 107 0010 83F31188 		MSR basepri, r3
 108              	@ 0 "" 2
 109              		.thumb
 110              		.syntax unified
 111              	.LBE9:
 112              	.LBE8:
 113              		.loc 1 465 0
 114 0014 00BF     		nop
ARM GAS  C:\Users\Moi\AppData\Local\Temp\cchaECY7.s 			page 3


 115 0016 054B     		ldr	r3, .L7
 116 0018 019A     		ldr	r2, [sp, #4]
 117 001a 1B68     		ldr	r3, [r3]
 118 001c 9A42     		cmp	r2, r3
 119 001e 01D0     		beq	.L6
 120 0020 FFF7FEFF 		bl	__stack_chk_fail
 121              	.L6:
 122 0024 03B0     		add	sp, sp, #12
 123              		.cfi_def_cfa_offset 4
 124              		@ sp needed
 125 0026 5DF804FB 		ldr	pc, [sp], #4
 126              	.L8:
 127 002a 00BF     		.align	2
 128              	.L7:
 129 002c 00000000 		.word	__stack_chk_guard
 130              		.cfi_endproc
 131              	.LFE120:
 132              		.size	port_unlock, .-port_unlock
 133              		.section	.text.chSysLock,"ax",%progbits
 134              		.align	1
 135              		.p2align 4,,15
 136              		.syntax unified
 137              		.thumb
 138              		.thumb_func
 139              		.fpu fpv4-sp-d16
 140              		.type	chSysLock, %function
 141              	chSysLock:
 142              	.LFB148:
 143              		.file 3 "..//ChibiOS//os/rt/include/chsys.h"
 144              		.loc 3 346 0
 145              		.cfi_startproc
 146              		@ args = 0, pretend = 0, frame = 8
 147              		@ frame_needed = 0, uses_anonymous_args = 0
 148 0000 00B5     		push	{lr}
 149              		.cfi_def_cfa_offset 4
 150              		.cfi_offset 14, -4
 151 0002 83B0     		sub	sp, sp, #12
 152              		.cfi_def_cfa_offset 16
 153              		.loc 3 346 0
 154 0004 094B     		ldr	r3, .L11
 155 0006 1B68     		ldr	r3, [r3]
 156 0008 0193     		str	r3, [sp, #4]
 157              		.loc 3 348 0
 158 000a FFF7FEFF 		bl	port_lock
 159              		.loc 3 349 0
 160 000e FFF7FEFF 		bl	_stats_start_measure_crit_thd
 161              		.loc 3 350 0
 162 0012 FFF7FEFF 		bl	_dbg_check_lock
 163              		.loc 3 351 0
 164 0016 00BF     		nop
 165 0018 044B     		ldr	r3, .L11
 166 001a 019A     		ldr	r2, [sp, #4]
 167 001c 1B68     		ldr	r3, [r3]
 168 001e 9A42     		cmp	r2, r3
 169 0020 01D0     		beq	.L10
 170 0022 FFF7FEFF 		bl	__stack_chk_fail
 171              	.L10:
ARM GAS  C:\Users\Moi\AppData\Local\Temp\cchaECY7.s 			page 4


 172 0026 03B0     		add	sp, sp, #12
 173              		.cfi_def_cfa_offset 4
 174              		@ sp needed
 175 0028 5DF804FB 		ldr	pc, [sp], #4
 176              	.L12:
 177              		.align	2
 178              	.L11:
 179 002c 00000000 		.word	__stack_chk_guard
 180              		.cfi_endproc
 181              	.LFE148:
 182              		.size	chSysLock, .-chSysLock
 183              		.section	.text.chSysUnlock,"ax",%progbits
 184              		.align	1
 185              		.p2align 4,,15
 186              		.syntax unified
 187              		.thumb
 188              		.thumb_func
 189              		.fpu fpv4-sp-d16
 190              		.type	chSysUnlock, %function
 191              	chSysUnlock:
 192              	.LFB149:
 193              		.loc 3 358 0
 194              		.cfi_startproc
 195              		@ args = 0, pretend = 0, frame = 8
 196              		@ frame_needed = 0, uses_anonymous_args = 0
 197 0000 00B5     		push	{lr}
 198              		.cfi_def_cfa_offset 4
 199              		.cfi_offset 14, -4
 200 0002 83B0     		sub	sp, sp, #12
 201              		.cfi_def_cfa_offset 16
 202              		.loc 3 358 0
 203 0004 114B     		ldr	r3, .L16
 204 0006 1B68     		ldr	r3, [r3]
 205 0008 0193     		str	r3, [sp, #4]
 206              		.loc 3 360 0
 207 000a FFF7FEFF 		bl	_dbg_check_unlock
 208              		.loc 3 361 0
 209 000e FFF7FEFF 		bl	_stats_stop_measure_crit_thd
 210              		.loc 3 367 0
 211 0012 0F4B     		ldr	r3, .L16+4
 212 0014 1B68     		ldr	r3, [r3]
 213 0016 0E4A     		ldr	r2, .L16+4
 214 0018 9342     		cmp	r3, r2
 215 001a 0AD0     		beq	.L14
 216              		.loc 3 367 0 is_stmt 0 discriminator 2
 217 001c 0C4B     		ldr	r3, .L16+4
 218 001e 9B69     		ldr	r3, [r3, #24]
 219 0020 9A68     		ldr	r2, [r3, #8]
 220 0022 0B4B     		ldr	r3, .L16+4
 221 0024 1B68     		ldr	r3, [r3]
 222 0026 9B68     		ldr	r3, [r3, #8]
 223 0028 9A42     		cmp	r2, r3
 224 002a 02D2     		bcs	.L14
 225              		.loc 3 367 0 discriminator 3
 226 002c 0948     		ldr	r0, .L16+8
 227 002e FFF7FEFF 		bl	chSysHalt
 228              	.L14:
ARM GAS  C:\Users\Moi\AppData\Local\Temp\cchaECY7.s 			page 5


 229              		.loc 3 371 0 is_stmt 1
 230 0032 FFF7FEFF 		bl	port_unlock
 231              		.loc 3 372 0
 232 0036 00BF     		nop
 233 0038 044B     		ldr	r3, .L16
 234 003a 019A     		ldr	r2, [sp, #4]
 235 003c 1B68     		ldr	r3, [r3]
 236 003e 9A42     		cmp	r2, r3
 237 0040 01D0     		beq	.L15
 238 0042 FFF7FEFF 		bl	__stack_chk_fail
 239              	.L15:
 240 0046 03B0     		add	sp, sp, #12
 241              		.cfi_def_cfa_offset 4
 242              		@ sp needed
 243 0048 5DF804FB 		ldr	pc, [sp], #4
 244              	.L17:
 245              		.align	2
 246              	.L16:
 247 004c 00000000 		.word	__stack_chk_guard
 248 0050 00000000 		.word	ch
 249 0054 00000000 		.word	__func__.8875
 250              		.cfi_endproc
 251              	.LFE149:
 252              		.size	chSysUnlock, .-chSysUnlock
 253              		.section	.text.chVTGetSystemTimeX,"ax",%progbits
 254              		.align	1
 255              		.p2align 4,,15
 256              		.syntax unified
 257              		.thumb
 258              		.thumb_func
 259              		.fpu fpv4-sp-d16
 260              		.type	chVTGetSystemTimeX, %function
 261              	chVTGetSystemTimeX:
 262              	.LFB156:
 263              		.file 4 "..//ChibiOS//os/rt/include/chvt.h"
 264              		.loc 4 228 0
 265              		.cfi_startproc
 266              		@ args = 0, pretend = 0, frame = 8
 267              		@ frame_needed = 0, uses_anonymous_args = 0
 268 0000 00B5     		push	{lr}
 269              		.cfi_def_cfa_offset 4
 270              		.cfi_offset 14, -4
 271 0002 83B0     		sub	sp, sp, #12
 272              		.cfi_def_cfa_offset 16
 273              		.loc 4 228 0
 274 0004 074B     		ldr	r3, .L21
 275 0006 1B68     		ldr	r3, [r3]
 276 0008 0193     		str	r3, [sp, #4]
 277              		.loc 4 231 0
 278 000a 074B     		ldr	r3, .L21+4
 279 000c 9B6A     		ldr	r3, [r3, #40]
 280              		.loc 4 235 0
 281 000e 1846     		mov	r0, r3
 282 0010 044B     		ldr	r3, .L21
 283 0012 019A     		ldr	r2, [sp, #4]
 284 0014 1B68     		ldr	r3, [r3]
 285 0016 9A42     		cmp	r2, r3
ARM GAS  C:\Users\Moi\AppData\Local\Temp\cchaECY7.s 			page 6


 286 0018 01D0     		beq	.L20
 287 001a FFF7FEFF 		bl	__stack_chk_fail
 288              	.L20:
 289 001e 03B0     		add	sp, sp, #12
 290              		.cfi_def_cfa_offset 4
 291              		@ sp needed
 292 0020 5DF804FB 		ldr	pc, [sp], #4
 293              	.L22:
 294              		.align	2
 295              	.L21:
 296 0024 00000000 		.word	__stack_chk_guard
 297 0028 00000000 		.word	ch
 298              		.cfi_endproc
 299              	.LFE156:
 300              		.size	chVTGetSystemTimeX, .-chVTGetSystemTimeX
 301              		.section	.text.chVTGetSystemTime,"ax",%progbits
 302              		.align	1
 303              		.p2align 4,,15
 304              		.syntax unified
 305              		.thumb
 306              		.thumb_func
 307              		.fpu fpv4-sp-d16
 308              		.type	chVTGetSystemTime, %function
 309              	chVTGetSystemTime:
 310              	.LFB157:
 311              		.loc 4 247 0
 312              		.cfi_startproc
 313              		@ args = 0, pretend = 0, frame = 8
 314              		@ frame_needed = 0, uses_anonymous_args = 0
 315 0000 00B5     		push	{lr}
 316              		.cfi_def_cfa_offset 4
 317              		.cfi_offset 14, -4
 318 0002 83B0     		sub	sp, sp, #12
 319              		.cfi_def_cfa_offset 16
 320              		.loc 4 247 0
 321 0004 0A4B     		ldr	r3, .L26
 322 0006 1B68     		ldr	r3, [r3]
 323 0008 0193     		str	r3, [sp, #4]
 324              		.loc 4 250 0
 325 000a FFF7FEFF 		bl	chSysLock
 326              		.loc 4 251 0
 327 000e FFF7FEFF 		bl	chVTGetSystemTimeX
 328 0012 0090     		str	r0, [sp]
 329              		.loc 4 252 0
 330 0014 FFF7FEFF 		bl	chSysUnlock
 331              		.loc 4 254 0
 332 0018 009B     		ldr	r3, [sp]
 333              		.loc 4 255 0
 334 001a 1846     		mov	r0, r3
 335 001c 044B     		ldr	r3, .L26
 336 001e 019A     		ldr	r2, [sp, #4]
 337 0020 1B68     		ldr	r3, [r3]
 338 0022 9A42     		cmp	r2, r3
 339 0024 01D0     		beq	.L25
 340 0026 FFF7FEFF 		bl	__stack_chk_fail
 341              	.L25:
 342 002a 03B0     		add	sp, sp, #12
ARM GAS  C:\Users\Moi\AppData\Local\Temp\cchaECY7.s 			page 7


 343              		.cfi_def_cfa_offset 4
 344              		@ sp needed
 345 002c 5DF804FB 		ldr	pc, [sp], #4
 346              	.L27:
 347              		.align	2
 348              	.L26:
 349 0030 00000000 		.word	__stack_chk_guard
 350              		.cfi_endproc
 351              	.LFE157:
 352              		.size	chVTGetSystemTime, .-chVTGetSystemTime
 353              		.section	.text.chVTIsTimeWithinX,"ax",%progbits
 354              		.align	1
 355              		.p2align 4,,15
 356              		.syntax unified
 357              		.thumb
 358              		.thumb_func
 359              		.fpu fpv4-sp-d16
 360              		.type	chVTIsTimeWithinX, %function
 361              	chVTIsTimeWithinX:
 362              	.LFB159:
 363              		.loc 4 286 0
 364              		.cfi_startproc
 365              		@ args = 0, pretend = 0, frame = 24
 366              		@ frame_needed = 0, uses_anonymous_args = 0
 367 0000 00B5     		push	{lr}
 368              		.cfi_def_cfa_offset 4
 369              		.cfi_offset 14, -4
 370 0002 87B0     		sub	sp, sp, #28
 371              		.cfi_def_cfa_offset 32
 372 0004 0390     		str	r0, [sp, #12]
 373 0006 0291     		str	r1, [sp, #8]
 374 0008 0192     		str	r2, [sp, #4]
 375              		.loc 4 286 0
 376 000a 0C4B     		ldr	r3, .L31
 377 000c 1B68     		ldr	r3, [r3]
 378 000e 0593     		str	r3, [sp, #20]
 379              		.loc 4 288 0
 380 0010 039A     		ldr	r2, [sp, #12]
 381 0012 029B     		ldr	r3, [sp, #8]
 382 0014 D21A     		subs	r2, r2, r3
 383 0016 0199     		ldr	r1, [sp, #4]
 384 0018 029B     		ldr	r3, [sp, #8]
 385 001a CB1A     		subs	r3, r1, r3
 386 001c 9A42     		cmp	r2, r3
 387 001e 34BF     		ite	cc
 388 0020 0123     		movcc	r3, #1
 389 0022 0023     		movcs	r3, #0
 390 0024 DBB2     		uxtb	r3, r3
 391              		.loc 4 289 0
 392 0026 1846     		mov	r0, r3
 393 0028 044B     		ldr	r3, .L31
 394 002a 059A     		ldr	r2, [sp, #20]
 395 002c 1B68     		ldr	r3, [r3]
 396 002e 9A42     		cmp	r2, r3
 397 0030 01D0     		beq	.L30
 398 0032 FFF7FEFF 		bl	__stack_chk_fail
 399              	.L30:
ARM GAS  C:\Users\Moi\AppData\Local\Temp\cchaECY7.s 			page 8


 400 0036 07B0     		add	sp, sp, #28
 401              		.cfi_def_cfa_offset 4
 402              		@ sp needed
 403 0038 5DF804FB 		ldr	pc, [sp], #4
 404              	.L32:
 405              		.align	2
 406              	.L31:
 407 003c 00000000 		.word	__stack_chk_guard
 408              		.cfi_endproc
 409              	.LFE159:
 410              		.size	chVTIsTimeWithinX, .-chVTIsTimeWithinX
 411              		.section	.text.chVTIsSystemTimeWithin,"ax",%progbits
 412              		.align	1
 413              		.p2align 4,,15
 414              		.syntax unified
 415              		.thumb
 416              		.thumb_func
 417              		.fpu fpv4-sp-d16
 418              		.type	chVTIsSystemTimeWithin, %function
 419              	chVTIsSystemTimeWithin:
 420              	.LFB161:
 421              		.loc 4 322 0
 422              		.cfi_startproc
 423              		@ args = 0, pretend = 0, frame = 16
 424              		@ frame_needed = 0, uses_anonymous_args = 0
 425 0000 00B5     		push	{lr}
 426              		.cfi_def_cfa_offset 4
 427              		.cfi_offset 14, -4
 428 0002 85B0     		sub	sp, sp, #20
 429              		.cfi_def_cfa_offset 24
 430 0004 0190     		str	r0, [sp, #4]
 431 0006 0091     		str	r1, [sp]
 432              		.loc 4 322 0
 433 0008 0B4B     		ldr	r3, .L36
 434 000a 1B68     		ldr	r3, [r3]
 435 000c 0393     		str	r3, [sp, #12]
 436              		.loc 4 324 0
 437 000e FFF7FEFF 		bl	chVTGetSystemTime
 438 0012 0346     		mov	r3, r0
 439 0014 009A     		ldr	r2, [sp]
 440 0016 0199     		ldr	r1, [sp, #4]
 441 0018 1846     		mov	r0, r3
 442 001a FFF7FEFF 		bl	chVTIsTimeWithinX
 443 001e 0346     		mov	r3, r0
 444              		.loc 4 325 0
 445 0020 1846     		mov	r0, r3
 446 0022 054B     		ldr	r3, .L36
 447 0024 039A     		ldr	r2, [sp, #12]
 448 0026 1B68     		ldr	r3, [r3]
 449 0028 9A42     		cmp	r2, r3
 450 002a 01D0     		beq	.L35
 451 002c FFF7FEFF 		bl	__stack_chk_fail
 452              	.L35:
 453 0030 05B0     		add	sp, sp, #20
 454              		.cfi_def_cfa_offset 4
 455              		@ sp needed
 456 0032 5DF804FB 		ldr	pc, [sp], #4
ARM GAS  C:\Users\Moi\AppData\Local\Temp\cchaECY7.s 			page 9


 457              	.L37:
 458 0036 00BF     		.align	2
 459              	.L36:
 460 0038 00000000 		.word	__stack_chk_guard
 461              		.cfi_endproc
 462              	.LFE161:
 463              		.size	chVTIsSystemTimeWithin, .-chVTIsSystemTimeWithin
 464              		.section	.text.chThdGetSelfX,"ax",%progbits
 465              		.align	1
 466              		.p2align 4,,15
 467              		.syntax unified
 468              		.thumb
 469              		.thumb_func
 470              		.fpu fpv4-sp-d16
 471              		.type	chThdGetSelfX, %function
 472              	chThdGetSelfX:
 473              	.LFB169:
 474              		.file 5 "..//ChibiOS//os/rt/include/chthreads.h"
 475              		.loc 5 174 0
 476              		.cfi_startproc
 477              		@ args = 0, pretend = 0, frame = 8
 478              		@ frame_needed = 0, uses_anonymous_args = 0
 479 0000 00B5     		push	{lr}
 480              		.cfi_def_cfa_offset 4
 481              		.cfi_offset 14, -4
 482 0002 83B0     		sub	sp, sp, #12
 483              		.cfi_def_cfa_offset 16
 484              		.loc 5 174 0
 485 0004 074B     		ldr	r3, .L41
 486 0006 1B68     		ldr	r3, [r3]
 487 0008 0193     		str	r3, [sp, #4]
 488              		.loc 5 176 0
 489 000a 074B     		ldr	r3, .L41+4
 490 000c 9B69     		ldr	r3, [r3, #24]
 491              		.loc 5 177 0
 492 000e 1846     		mov	r0, r3
 493 0010 044B     		ldr	r3, .L41
 494 0012 019A     		ldr	r2, [sp, #4]
 495 0014 1B68     		ldr	r3, [r3]
 496 0016 9A42     		cmp	r2, r3
 497 0018 01D0     		beq	.L40
 498 001a FFF7FEFF 		bl	__stack_chk_fail
 499              	.L40:
 500 001e 03B0     		add	sp, sp, #12
 501              		.cfi_def_cfa_offset 4
 502              		@ sp needed
 503 0020 5DF804FB 		ldr	pc, [sp], #4
 504              	.L42:
 505              		.align	2
 506              	.L41:
 507 0024 00000000 		.word	__stack_chk_guard
 508 0028 00000000 		.word	ch
 509              		.cfi_endproc
 510              	.LFE169:
 511              		.size	chThdGetSelfX, .-chThdGetSelfX
 512              		.section	.text.chThdGetPriorityX,"ax",%progbits
 513              		.align	1
ARM GAS  C:\Users\Moi\AppData\Local\Temp\cchaECY7.s 			page 10


 514              		.p2align 4,,15
 515              		.syntax unified
 516              		.thumb
 517              		.thumb_func
 518              		.fpu fpv4-sp-d16
 519              		.type	chThdGetPriorityX, %function
 520              	chThdGetPriorityX:
 521              	.LFB170:
 522              		.loc 5 187 0
 523              		.cfi_startproc
 524              		@ args = 0, pretend = 0, frame = 8
 525              		@ frame_needed = 0, uses_anonymous_args = 0
 526 0000 00B5     		push	{lr}
 527              		.cfi_def_cfa_offset 4
 528              		.cfi_offset 14, -4
 529 0002 83B0     		sub	sp, sp, #12
 530              		.cfi_def_cfa_offset 16
 531              		.loc 5 187 0
 532 0004 084B     		ldr	r3, .L46
 533 0006 1B68     		ldr	r3, [r3]
 534 0008 0193     		str	r3, [sp, #4]
 535              		.loc 5 189 0
 536 000a FFF7FEFF 		bl	chThdGetSelfX
 537 000e 0346     		mov	r3, r0
 538 0010 9B68     		ldr	r3, [r3, #8]
 539              		.loc 5 190 0
 540 0012 1846     		mov	r0, r3
 541 0014 044B     		ldr	r3, .L46
 542 0016 019A     		ldr	r2, [sp, #4]
 543 0018 1B68     		ldr	r3, [r3]
 544 001a 9A42     		cmp	r2, r3
 545 001c 01D0     		beq	.L45
 546 001e FFF7FEFF 		bl	__stack_chk_fail
 547              	.L45:
 548 0022 03B0     		add	sp, sp, #12
 549              		.cfi_def_cfa_offset 4
 550              		@ sp needed
 551 0024 5DF804FB 		ldr	pc, [sp], #4
 552              	.L47:
 553              		.align	2
 554              	.L46:
 555 0028 00000000 		.word	__stack_chk_guard
 556              		.cfi_endproc
 557              	.LFE170:
 558              		.size	chThdGetPriorityX, .-chThdGetPriorityX
 559              		.section	.text.chThdTerminatedX,"ax",%progbits
 560              		.align	1
 561              		.p2align 4,,15
 562              		.syntax unified
 563              		.thumb
 564              		.thumb_func
 565              		.fpu fpv4-sp-d16
 566              		.type	chThdTerminatedX, %function
 567              	chThdTerminatedX:
 568              	.LFB172:
 569              		.loc 5 218 0
 570              		.cfi_startproc
ARM GAS  C:\Users\Moi\AppData\Local\Temp\cchaECY7.s 			page 11


 571              		@ args = 0, pretend = 0, frame = 16
 572              		@ frame_needed = 0, uses_anonymous_args = 0
 573 0000 00B5     		push	{lr}
 574              		.cfi_def_cfa_offset 4
 575              		.cfi_offset 14, -4
 576 0002 85B0     		sub	sp, sp, #20
 577              		.cfi_def_cfa_offset 24
 578 0004 0190     		str	r0, [sp, #4]
 579              		.loc 5 218 0
 580 0006 0B4B     		ldr	r3, .L51
 581 0008 1B68     		ldr	r3, [r3]
 582 000a 0393     		str	r3, [sp, #12]
 583              		.loc 5 220 0
 584 000c 019B     		ldr	r3, [sp, #4]
 585 000e 93F82030 		ldrb	r3, [r3, #32]	@ zero_extendqisi2
 586 0012 0F2B     		cmp	r3, #15
 587 0014 0CBF     		ite	eq
 588 0016 0123     		moveq	r3, #1
 589 0018 0023     		movne	r3, #0
 590 001a DBB2     		uxtb	r3, r3
 591              		.loc 5 221 0
 592 001c 1846     		mov	r0, r3
 593 001e 054B     		ldr	r3, .L51
 594 0020 039A     		ldr	r2, [sp, #12]
 595 0022 1B68     		ldr	r3, [r3]
 596 0024 9A42     		cmp	r2, r3
 597 0026 01D0     		beq	.L50
 598 0028 FFF7FEFF 		bl	__stack_chk_fail
 599              	.L50:
 600 002c 05B0     		add	sp, sp, #20
 601              		.cfi_def_cfa_offset 4
 602              		@ sp needed
 603 002e 5DF804FB 		ldr	pc, [sp], #4
 604              	.L52:
 605 0032 00BF     		.align	2
 606              	.L51:
 607 0034 00000000 		.word	__stack_chk_guard
 608              		.cfi_endproc
 609              	.LFE172:
 610              		.size	chThdTerminatedX, .-chThdTerminatedX
 611              		.section	.text.chprintf,"ax",%progbits
 612              		.align	1
 613              		.p2align 4,,15
 614              		.syntax unified
 615              		.thumb
 616              		.thumb_func
 617              		.fpu fpv4-sp-d16
 618              		.type	chprintf, %function
 619              	chprintf:
 620              	.LFB259:
 621              		.file 6 "..//ChibiOS//os/hal/lib/streams/chprintf.h"
 622              		.loc 6 69 0
 623              		.cfi_startproc
 624              		@ args = 4, pretend = 12, frame = 24
 625              		@ frame_needed = 0, uses_anonymous_args = 1
 626 0000 0EB4     		push	{r1, r2, r3}
 627              		.cfi_def_cfa_offset 12
ARM GAS  C:\Users\Moi\AppData\Local\Temp\cchaECY7.s 			page 12


 628              		.cfi_offset 1, -12
 629              		.cfi_offset 2, -8
 630              		.cfi_offset 3, -4
 631 0002 00B5     		push	{lr}
 632              		.cfi_def_cfa_offset 16
 633              		.cfi_offset 14, -16
 634 0004 86B0     		sub	sp, sp, #24
 635              		.cfi_def_cfa_offset 40
 636 0006 0190     		str	r0, [sp, #4]
 637 0008 079B     		ldr	r3, [sp, #28]
 638 000a 0093     		str	r3, [sp]
 639              		.loc 6 69 0
 640 000c 0C4B     		ldr	r3, .L56
 641 000e 1B68     		ldr	r3, [r3]
 642 0010 0593     		str	r3, [sp, #20]
 643              		.loc 6 73 0
 644 0012 08AB     		add	r3, sp, #32
 645 0014 0393     		str	r3, [sp, #12]
 646              		.loc 6 74 0
 647 0016 039A     		ldr	r2, [sp, #12]
 648 0018 0099     		ldr	r1, [sp]
 649 001a 0198     		ldr	r0, [sp, #4]
 650 001c FFF7FEFF 		bl	chvprintf
 651 0020 0490     		str	r0, [sp, #16]
 652              		.loc 6 77 0
 653 0022 049B     		ldr	r3, [sp, #16]
 654              		.loc 6 78 0
 655 0024 1846     		mov	r0, r3
 656 0026 064B     		ldr	r3, .L56
 657 0028 059A     		ldr	r2, [sp, #20]
 658 002a 1B68     		ldr	r3, [r3]
 659 002c 9A42     		cmp	r2, r3
 660 002e 01D0     		beq	.L55
 661 0030 FFF7FEFF 		bl	__stack_chk_fail
 662              	.L55:
 663 0034 06B0     		add	sp, sp, #24
 664              		.cfi_def_cfa_offset 16
 665              		@ sp needed
 666 0036 5DF804EB 		ldr	lr, [sp], #4
 667              		.cfi_restore 14
 668              		.cfi_def_cfa_offset 12
 669 003a 03B0     		add	sp, sp, #12
 670              		.cfi_restore 3
 671              		.cfi_restore 2
 672              		.cfi_restore 1
 673              		.cfi_def_cfa_offset 0
 674 003c 7047     		bx	lr
 675              	.L57:
 676 003e 00BF     		.align	2
 677              	.L56:
 678 0040 00000000 		.word	__stack_chk_guard
 679              		.cfi_endproc
 680              	.LFE259:
 681              		.size	chprintf, .-chprintf
 682              		.section	.bss.buf,"aw",%nobits
 683              		.align	2
 684              		.type	buf, %object
ARM GAS  C:\Users\Moi\AppData\Local\Temp\cchaECY7.s 			page 13


 685              		.size	buf, 8196
 686              	buf:
 687 0000 00000000 		.space	8196
 687      00000000 
 687      00000000 
 687      00000000 
 687      00000000 
 688              		.section	.bss.buf2,"aw",%nobits
 689              		.align	2
 690              		.type	buf2, %object
 691              		.size	buf2, 8192
 692              	buf2:
 693 0000 00000000 		.space	8192
 693      00000000 
 693      00000000 
 693      00000000 
 693      00000000 
 694              		.section	.bss.cmd_fmt,"aw",%nobits
 695              		.type	cmd_fmt, %object
 696              		.size	cmd_fmt, 1
 697              	cmd_fmt:
 698 0000 00       		.space	1
 699              		.section	.bss.cmd_subx,"aw",%nobits
 700              		.type	cmd_subx, %object
 701              		.size	cmd_subx, 1
 702              	cmd_subx:
 703 0000 00       		.space	1
 704              		.section	.bss.cmd_suby,"aw",%nobits
 705              		.type	cmd_suby, %object
 706              		.size	cmd_suby, 1
 707              	cmd_suby:
 708 0000 00       		.space	1
 709              		.section	.bss.cmd_x1,"aw",%nobits
 710              		.align	1
 711              		.type	cmd_x1, %object
 712              		.size	cmd_x1, 2
 713              	cmd_x1:
 714 0000 0000     		.space	2
 715              		.section	.bss.cmd_y1,"aw",%nobits
 716              		.align	1
 717              		.type	cmd_y1, %object
 718              		.size	cmd_y1, 2
 719              	cmd_y1:
 720 0000 0000     		.space	2
 721              		.section	.bss.cmd_width,"aw",%nobits
 722              		.align	1
 723              		.type	cmd_width, %object
 724              		.size	cmd_width, 2
 725              	cmd_width:
 726 0000 0000     		.space	2
 727              		.section	.bss.cmd_height,"aw",%nobits
 728              		.align	1
 729              		.type	cmd_height, %object
 730              		.size	cmd_height, 2
 731              	cmd_height:
 732 0000 0000     		.space	2
 733              		.section	.bss.fbuff,"aw",%nobits
ARM GAS  C:\Users\Moi\AppData\Local\Temp\cchaECY7.s 			page 14


 734              		.align	2
 735              		.type	fbuff, %object
 736              		.size	fbuff, 256
 737              	fbuff:
 738 0000 00000000 		.space	256
 738      00000000 
 738      00000000 
 738      00000000 
 738      00000000 
 739              		.section	.rodata
 740              		.align	2
 741              	.LC0:
 742 0000 46533A20 		.ascii	"FS: f_mount() failed. Is the SD card inserted?\015\012"
 742      665F6D6F 
 742      756E7428 
 742      29206661 
 742      696C6564 
 743 0030 00       		.ascii	"\000"
 744 0031 000000   		.align	2
 745              	.LC1:
 746 0034 46533A20 		.ascii	"FS: f_mount() succeeded\015\012\000"
 746      665F6D6F 
 746      756E7428 
 746      29207375 
 746      63636565 
 747              		.section	.text.cmd_mount,"ax",%progbits
 748              		.align	1
 749              		.p2align 4,,15
 750              		.global	cmd_mount
 751              		.syntax unified
 752              		.thumb
 753              		.thumb_func
 754              		.fpu fpv4-sp-d16
 755              		.type	cmd_mount, %function
 756              	cmd_mount:
 757              	.LFB260:
 758              		.file 7 "..//src/cmd.c"
 759              		.loc 7 53 0
 760              		.cfi_startproc
 761              		@ args = 0, pretend = 0, frame = 24
 762              		@ frame_needed = 0, uses_anonymous_args = 0
 763 0000 00B5     		push	{lr}
 764              		.cfi_def_cfa_offset 4
 765              		.cfi_offset 14, -4
 766 0002 87B0     		sub	sp, sp, #28
 767              		.cfi_def_cfa_offset 32
 768 0004 0390     		str	r0, [sp, #12]
 769 0006 0291     		str	r1, [sp, #8]
 770 0008 0192     		str	r2, [sp, #4]
 771              		.loc 7 53 0
 772 000a 0F4B     		ldr	r3, .L62
 773 000c 1B68     		ldr	r3, [r3]
 774 000e 0593     		str	r3, [sp, #20]
 775              		.loc 7 60 0
 776 0010 FFF7FEFF 		bl	mountSDCard
 777 0014 0346     		mov	r3, r0
 778 0016 83F00103 		eor	r3, r3, #1
ARM GAS  C:\Users\Moi\AppData\Local\Temp\cchaECY7.s 			page 15


 779 001a DBB2     		uxtb	r3, r3
 780 001c 002B     		cmp	r3, #0
 781 001e 04D0     		beq	.L59
 782              		.loc 7 61 0
 783 0020 0A49     		ldr	r1, .L62+4
 784 0022 0398     		ldr	r0, [sp, #12]
 785 0024 FFF7FEFF 		bl	chprintf
 786              		.loc 7 62 0
 787 0028 03E0     		b	.L58
 788              	.L59:
 789              		.loc 7 64 0
 790 002a 0949     		ldr	r1, .L62+8
 791 002c 0398     		ldr	r0, [sp, #12]
 792 002e FFF7FEFF 		bl	chprintf
 793              	.L58:
 794              		.loc 7 65 0
 795 0032 054B     		ldr	r3, .L62
 796 0034 059A     		ldr	r2, [sp, #20]
 797 0036 1B68     		ldr	r3, [r3]
 798 0038 9A42     		cmp	r2, r3
 799 003a 01D0     		beq	.L61
 800 003c FFF7FEFF 		bl	__stack_chk_fail
 801              	.L61:
 802 0040 07B0     		add	sp, sp, #28
 803              		.cfi_def_cfa_offset 4
 804              		@ sp needed
 805 0042 5DF804FB 		ldr	pc, [sp], #4
 806              	.L63:
 807 0046 00BF     		.align	2
 808              	.L62:
 809 0048 00000000 		.word	__stack_chk_guard
 810 004c 00000000 		.word	.LC0
 811 0050 34000000 		.word	.LC1
 812              		.cfi_endproc
 813              	.LFE260:
 814              		.size	cmd_mount, .-cmd_mount
 815              		.section	.rodata
 816 004e 0000     		.align	2
 817              	.LC2:
 818 0050 46533A20 		.ascii	"FS: f_mount() unmount failed\015\012\000"
 818      665F6D6F 
 818      756E7428 
 818      2920756E 
 818      6D6F756E 
 819              		.section	.text.cmd_unmount,"ax",%progbits
 820              		.align	1
 821              		.p2align 4,,15
 822              		.global	cmd_unmount
 823              		.syntax unified
 824              		.thumb
 825              		.thumb_func
 826              		.fpu fpv4-sp-d16
 827              		.type	cmd_unmount, %function
 828              	cmd_unmount:
 829              	.LFB261:
 830              		.loc 7 67 0
 831              		.cfi_startproc
ARM GAS  C:\Users\Moi\AppData\Local\Temp\cchaECY7.s 			page 16


 832              		@ args = 0, pretend = 0, frame = 24
 833              		@ frame_needed = 0, uses_anonymous_args = 0
 834 0000 00B5     		push	{lr}
 835              		.cfi_def_cfa_offset 4
 836              		.cfi_offset 14, -4
 837 0002 87B0     		sub	sp, sp, #28
 838              		.cfi_def_cfa_offset 32
 839 0004 0390     		str	r0, [sp, #12]
 840 0006 0291     		str	r1, [sp, #8]
 841 0008 0192     		str	r2, [sp, #4]
 842              		.loc 7 67 0
 843 000a 0D4B     		ldr	r3, .L67
 844 000c 1B68     		ldr	r3, [r3]
 845 000e 0593     		str	r3, [sp, #20]
 846              		.loc 7 71 0
 847 0010 FFF7FEFF 		bl	unmountSDCard
 848 0014 0346     		mov	r3, r0
 849 0016 83F00103 		eor	r3, r3, #1
 850 001a DBB2     		uxtb	r3, r3
 851 001c 002B     		cmp	r3, #0
 852 001e 04D0     		beq	.L64
 853              		.loc 7 72 0
 854 0020 0849     		ldr	r1, .L67+4
 855 0022 0398     		ldr	r0, [sp, #12]
 856 0024 FFF7FEFF 		bl	chprintf
 857              		.loc 7 73 0
 858 0028 00BF     		nop
 859              	.L64:
 860              		.loc 7 75 0
 861 002a 054B     		ldr	r3, .L67
 862 002c 059A     		ldr	r2, [sp, #20]
 863 002e 1B68     		ldr	r3, [r3]
 864 0030 9A42     		cmp	r2, r3
 865 0032 01D0     		beq	.L66
 866 0034 FFF7FEFF 		bl	__stack_chk_fail
 867              	.L66:
 868 0038 07B0     		add	sp, sp, #28
 869              		.cfi_def_cfa_offset 4
 870              		@ sp needed
 871 003a 5DF804FB 		ldr	pc, [sp], #4
 872              	.L68:
 873 003e 00BF     		.align	2
 874              	.L67:
 875 0040 00000000 		.word	__stack_chk_guard
 876 0044 50000000 		.word	.LC2
 877              		.cfi_endproc
 878              	.LFE261:
 879              		.size	cmd_unmount, .-cmd_unmount
 880              		.section	.rodata
 881 006f 00       		.align	2
 882              	.LC3:
 883 0070 2F00     		.ascii	"/\000"
 884 0072 0000     		.align	2
 885              	.LC4:
 886 0074 46533A20 		.ascii	"FS: f_getfree() failed\015\012\000"
 886      665F6765 
 886      74667265 
ARM GAS  C:\Users\Moi\AppData\Local\Temp\cchaECY7.s 			page 17


 886      65282920 
 886      6661696C 
 887 008d 000000   		.align	2
 888              	.LC5:
 889 0090 46533A20 		.ascii	"FS: %lu free clusters\015\012    %lu sectors per cl"
 889      256C7520 
 889      66726565 
 889      20636C75 
 889      73746572 
 890 00bd 75737465 		.ascii	"uster\015\012\000"
 890      720D0A00 
 891 00c5 000000   		.align	2
 892              	.LC6:
 893 00c8 256C7520 		.ascii	"%lu B free\015\012\000"
 893      42206672 
 893      65650D0A 
 893      00
 894 00d5 000000   		.align	2
 895              	.LC7:
 896 00d8 256C7520 		.ascii	"%lu KB free\015\012\000"
 896      4B422066 
 896      7265650D 
 896      0A00
 897 00e6 0000     		.align	2
 898              	.LC8:
 899 00e8 256C7520 		.ascii	"%lu MB free\015\012\000"
 899      4D422066 
 899      7265650D 
 899      0A00
 900              		.section	.text.cmd_free,"ax",%progbits
 901              		.align	1
 902              		.p2align 4,,15
 903              		.global	cmd_free
 904              		.syntax unified
 905              		.thumb
 906              		.thumb_func
 907              		.fpu fpv4-sp-d16
 908              		.type	cmd_free, %function
 909              	cmd_free:
 910              	.LFB262:
 911              		.loc 7 77 0
 912              		.cfi_startproc
 913              		@ args = 0, pretend = 0, frame = 32
 914              		@ frame_needed = 0, uses_anonymous_args = 0
 915 0000 00B5     		push	{lr}
 916              		.cfi_def_cfa_offset 4
 917              		.cfi_offset 14, -4
 918 0002 89B0     		sub	sp, sp, #36
 919              		.cfi_def_cfa_offset 40
 920 0004 0390     		str	r0, [sp, #12]
 921 0006 0291     		str	r1, [sp, #8]
 922 0008 0192     		str	r2, [sp, #4]
 923              		.loc 7 77 0
 924 000a 274B     		ldr	r3, .L73
 925 000c 1B68     		ldr	r3, [r3]
 926 000e 0793     		str	r3, [sp, #28]
 927              		.loc 7 85 0
ARM GAS  C:\Users\Moi\AppData\Local\Temp\cchaECY7.s 			page 18


 928 0010 06AA     		add	r2, sp, #24
 929 0012 05AB     		add	r3, sp, #20
 930 0014 1946     		mov	r1, r3
 931 0016 2548     		ldr	r0, .L73+4
 932 0018 FFF7FEFF 		bl	f_getfree
 933 001c 0346     		mov	r3, r0
 934 001e 8DF81230 		strb	r3, [sp, #18]
 935              		.loc 7 86 0
 936 0022 9DF81230 		ldrb	r3, [sp, #18]	@ zero_extendqisi2
 937 0026 002B     		cmp	r3, #0
 938 0028 04D0     		beq	.L70
 939              		.loc 7 87 0
 940 002a 2149     		ldr	r1, .L73+8
 941 002c 0398     		ldr	r0, [sp, #12]
 942 002e FFF7FEFF 		bl	chprintf
 943 0032 2EE0     		b	.L69
 944              	.L70:
 945              		.loc 7 91 0
 946 0034 FFF7FEFF 		bl	getSDCardClusterSize
 947 0038 0346     		mov	r3, r0
 948 003a 8DF81330 		strb	r3, [sp, #19]
 949              		.loc 7 95 0
 950 003e 059A     		ldr	r2, [sp, #20]
 951 0040 9DF81330 		ldrb	r3, [sp, #19]	@ zero_extendqisi2
 952 0044 1B49     		ldr	r1, .L73+12
 953 0046 0398     		ldr	r0, [sp, #12]
 954 0048 FFF7FEFF 		bl	chprintf
 955              		.loc 7 98 0
 956 004c 9DF81330 		ldrb	r3, [sp, #19]	@ zero_extendqisi2
 957 0050 059A     		ldr	r2, [sp, #20]
 958 0052 02FB03F3 		mul	r3, r2, r3
 959              		.loc 7 97 0
 960 0056 5B02     		lsls	r3, r3, #9
 961 0058 1A46     		mov	r2, r3
 962 005a 1749     		ldr	r1, .L73+16
 963 005c 0398     		ldr	r0, [sp, #12]
 964 005e FFF7FEFF 		bl	chprintf
 965              		.loc 7 100 0
 966 0062 9DF81330 		ldrb	r3, [sp, #19]	@ zero_extendqisi2
 967 0066 059A     		ldr	r2, [sp, #20]
 968 0068 02FB03F3 		mul	r3, r2, r3
 969 006c 5B02     		lsls	r3, r3, #9
 970              		.loc 7 99 0
 971 006e 9B0A     		lsrs	r3, r3, #10
 972 0070 1A46     		mov	r2, r3
 973 0072 1249     		ldr	r1, .L73+20
 974 0074 0398     		ldr	r0, [sp, #12]
 975 0076 FFF7FEFF 		bl	chprintf
 976              		.loc 7 102 0
 977 007a 9DF81330 		ldrb	r3, [sp, #19]	@ zero_extendqisi2
 978 007e 059A     		ldr	r2, [sp, #20]
 979 0080 02FB03F3 		mul	r3, r2, r3
 980 0084 5B02     		lsls	r3, r3, #9
 981              		.loc 7 101 0
 982 0086 1B0D     		lsrs	r3, r3, #20
 983 0088 1A46     		mov	r2, r3
 984 008a 0D49     		ldr	r1, .L73+24
ARM GAS  C:\Users\Moi\AppData\Local\Temp\cchaECY7.s 			page 19


 985 008c 0398     		ldr	r0, [sp, #12]
 986 008e FFF7FEFF 		bl	chprintf
 987              	.L69:
 988              		.loc 7 103 0
 989 0092 054B     		ldr	r3, .L73
 990 0094 079A     		ldr	r2, [sp, #28]
 991 0096 1B68     		ldr	r3, [r3]
 992 0098 9A42     		cmp	r2, r3
 993 009a 01D0     		beq	.L72
 994 009c FFF7FEFF 		bl	__stack_chk_fail
 995              	.L72:
 996 00a0 09B0     		add	sp, sp, #36
 997              		.cfi_def_cfa_offset 4
 998              		@ sp needed
 999 00a2 5DF804FB 		ldr	pc, [sp], #4
 1000              	.L74:
 1001 00a6 00BF     		.align	2
 1002              	.L73:
 1003 00a8 00000000 		.word	__stack_chk_guard
 1004 00ac 70000000 		.word	.LC3
 1005 00b0 74000000 		.word	.LC4
 1006 00b4 90000000 		.word	.LC5
 1007 00b8 C8000000 		.word	.LC6
 1008 00bc D8000000 		.word	.LC7
 1009 00c0 E8000000 		.word	.LC8
 1010              		.cfi_endproc
 1011              	.LFE262:
 1012              		.size	cmd_free, .-cmd_free
 1013              		.section	.text.cmd_tree,"ax",%progbits
 1014              		.align	1
 1015              		.p2align 4,,15
 1016              		.global	cmd_tree
 1017              		.syntax unified
 1018              		.thumb
 1019              		.thumb_func
 1020              		.fpu fpv4-sp-d16
 1021              		.type	cmd_tree, %function
 1022              	cmd_tree:
 1023              	.LFB263:
 1024              		.loc 7 105 0
 1025              		.cfi_startproc
 1026              		@ args = 0, pretend = 0, frame = 24
 1027              		@ frame_needed = 0, uses_anonymous_args = 0
 1028 0000 00B5     		push	{lr}
 1029              		.cfi_def_cfa_offset 4
 1030              		.cfi_offset 14, -4
 1031 0002 87B0     		sub	sp, sp, #28
 1032              		.cfi_def_cfa_offset 32
 1033 0004 0390     		str	r0, [sp, #12]
 1034 0006 0291     		str	r1, [sp, #8]
 1035 0008 0192     		str	r2, [sp, #4]
 1036              		.loc 7 105 0
 1037 000a 0C4B     		ldr	r3, .L77
 1038 000c 1B68     		ldr	r3, [r3]
 1039 000e 0593     		str	r3, [sp, #20]
 1040              		.loc 7 112 0
 1041 0010 4FF48072 		mov	r2, #256
ARM GAS  C:\Users\Moi\AppData\Local\Temp\cchaECY7.s 			page 20


 1042 0014 0021     		movs	r1, #0
 1043 0016 0A48     		ldr	r0, .L77+4
 1044 0018 FFF7FEFF 		bl	memset
 1045              		.loc 7 114 0
 1046 001c 0849     		ldr	r1, .L77+4
 1047 001e 0398     		ldr	r0, [sp, #12]
 1048 0020 FFF7FEFF 		bl	scan_files
 1049              		.loc 7 115 0
 1050 0024 00BF     		nop
 1051 0026 054B     		ldr	r3, .L77
 1052 0028 059A     		ldr	r2, [sp, #20]
 1053 002a 1B68     		ldr	r3, [r3]
 1054 002c 9A42     		cmp	r2, r3
 1055 002e 01D0     		beq	.L76
 1056 0030 FFF7FEFF 		bl	__stack_chk_fail
 1057              	.L76:
 1058 0034 07B0     		add	sp, sp, #28
 1059              		.cfi_def_cfa_offset 4
 1060              		@ sp needed
 1061 0036 5DF804FB 		ldr	pc, [sp], #4
 1062              	.L78:
 1063 003a 00BF     		.align	2
 1064              	.L77:
 1065 003c 00000000 		.word	__stack_chk_guard
 1066 0040 00000000 		.word	fbuff
 1067              		.cfi_endproc
 1068              	.LFE263:
 1069              		.size	cmd_tree, .-cmd_tree
 1070              		.section	.rodata
 1071 00f6 0000     		.align	2
 1072              	.LC9:
 1073 00f8 55736167 		.ascii	"Usage: hello\015\012\000"
 1073      653A2068 
 1073      656C6C6F 
 1073      0D0A00
 1074 0107 00       		.align	2
 1075              	.LC10:
 1076 0108 20202020 		.ascii	"       Creates hello.txt with 'Hello World'\015\012"
 1076      20202043 
 1076      72656174 
 1076      65732068 
 1076      656C6C6F 
 1077 0135 00       		.ascii	"\000"
 1078 0136 0000     		.align	2
 1079              	.LC11:
 1080 0138 68656C6C 		.ascii	"hello.txt\000"
 1080      6F2E7478 
 1080      7400
 1081 0142 0000     		.align	2
 1082              	.LC12:
 1083 0144 46533A20 		.ascii	"FS: f_open(\"hello.txt\") failed.\015\012\000"
 1083      665F6F70 
 1083      656E2822 
 1083      68656C6C 
 1083      6F2E7478 
 1084 0166 0000     		.align	2
 1085              	.LC13:
ARM GAS  C:\Users\Moi\AppData\Local\Temp\cchaECY7.s 			page 21


 1086 0168 46533A20 		.ascii	"FS: f_open(\"hello.txt\") succeeded\015\012\000"
 1086      665F6F70 
 1086      656E2822 
 1086      68656C6C 
 1086      6F2E7478 
 1087              		.align	2
 1088              	.LC14:
 1089 018c 48656C6C 		.ascii	"Hello World\000"
 1089      6F20576F 
 1089      726C6400 
 1090              		.align	2
 1091              	.LC15:
 1092 0198 46533A20 		.ascii	"FS: f_puts(\"Hello World\",\"hello.txt\") failed\015"
 1092      665F7075 
 1092      74732822 
 1092      48656C6C 
 1092      6F20576F 
 1093 01c5 0A00     		.ascii	"\012\000"
 1094 01c7 00       		.align	2
 1095              	.LC16:
 1096 01c8 46533A20 		.ascii	"FS: f_puts(\"Hello World\",\"hello.txt\") succeeded"
 1096      665F7075 
 1096      74732822 
 1096      48656C6C 
 1096      6F20576F 
 1097 01f7 0D0A00   		.ascii	"\015\012\000"
 1098              		.section	.text.cmd_hello,"ax",%progbits
 1099              		.align	1
 1100              		.p2align 4,,15
 1101              		.global	cmd_hello
 1102              		.syntax unified
 1103              		.thumb
 1104              		.thumb_func
 1105              		.fpu fpv4-sp-d16
 1106              		.type	cmd_hello, %function
 1107              	cmd_hello:
 1108              	.LFB264:
 1109              		.loc 7 118 0
 1110              		.cfi_startproc
 1111              		@ args = 0, pretend = 0, frame = 584
 1112              		@ frame_needed = 0, uses_anonymous_args = 0
 1113 0000 10B5     		push	{r4, lr}
 1114              		.cfi_def_cfa_offset 8
 1115              		.cfi_offset 4, -8
 1116              		.cfi_offset 14, -4
 1117 0002 ADF5127D 		sub	sp, sp, #584
 1118              		.cfi_def_cfa_offset 592
 1119 0006 03AB     		add	r3, sp, #12
 1120 0008 1860     		str	r0, [r3]
 1121 000a 02AB     		add	r3, sp, #8
 1122 000c 1960     		str	r1, [r3]
 1123 000e 01AB     		add	r3, sp, #4
 1124 0010 1A60     		str	r2, [r3]
 1125              		.loc 7 118 0
 1126 0012 2C4B     		ldr	r3, .L87
 1127 0014 1B68     		ldr	r3, [r3]
 1128 0016 9193     		str	r3, [sp, #580]
ARM GAS  C:\Users\Moi\AppData\Local\Temp\cchaECY7.s 			page 22


 1129              		.loc 7 126 0
 1130 0018 02AB     		add	r3, sp, #8
 1131 001a 1B68     		ldr	r3, [r3]
 1132 001c 002B     		cmp	r3, #0
 1133 001e 0ADD     		ble	.L80
 1134              		.loc 7 127 0
 1135 0020 03AB     		add	r3, sp, #12
 1136 0022 2949     		ldr	r1, .L87+4
 1137 0024 1868     		ldr	r0, [r3]
 1138 0026 FFF7FEFF 		bl	chprintf
 1139              		.loc 7 128 0
 1140 002a 03AB     		add	r3, sp, #12
 1141 002c 2749     		ldr	r1, .L87+8
 1142 002e 1868     		ldr	r0, [r3]
 1143 0030 FFF7FEFF 		bl	chprintf
 1144              		.loc 7 129 0
 1145 0034 3CE0     		b	.L79
 1146              	.L80:
 1147              		.loc 7 134 0
 1148 0036 0DF11704 		add	r4, sp, #23
 1149 003a 07AB     		add	r3, sp, #28
 1150 003c 0B22     		movs	r2, #11
 1151 003e 2449     		ldr	r1, .L87+12
 1152 0040 1846     		mov	r0, r3
 1153 0042 FFF7FEFF 		bl	f_open
 1154 0046 0346     		mov	r3, r0
 1155 0048 2370     		strb	r3, [r4]
 1156              		.loc 7 135 0
 1157 004a 0DF11703 		add	r3, sp, #23
 1158 004e 1B78     		ldrb	r3, [r3]	@ zero_extendqisi2
 1159 0050 002B     		cmp	r3, #0
 1160 0052 0DD0     		beq	.L82
 1161              		.loc 7 136 0
 1162 0054 03AB     		add	r3, sp, #12
 1163 0056 1F49     		ldr	r1, .L87+16
 1164 0058 1868     		ldr	r0, [r3]
 1165 005a FFF7FEFF 		bl	chprintf
 1166              		.loc 7 137 0
 1167 005e 0DF11703 		add	r3, sp, #23
 1168 0062 1A78     		ldrb	r2, [r3]	@ zero_extendqisi2
 1169 0064 03AB     		add	r3, sp, #12
 1170 0066 1146     		mov	r1, r2
 1171 0068 1868     		ldr	r0, [r3]
 1172 006a FFF7FEFF 		bl	fverbose_error
 1173              		.loc 7 138 0
 1174 006e 1FE0     		b	.L79
 1175              	.L82:
 1176              		.loc 7 140 0
 1177 0070 03AB     		add	r3, sp, #12
 1178 0072 1949     		ldr	r1, .L87+20
 1179 0074 1868     		ldr	r0, [r3]
 1180 0076 FFF7FEFF 		bl	chprintf
 1181              		.loc 7 145 0
 1182 007a 06AC     		add	r4, sp, #24
 1183 007c 07AB     		add	r3, sp, #28
 1184 007e 1946     		mov	r1, r3
 1185 0080 1648     		ldr	r0, .L87+24
ARM GAS  C:\Users\Moi\AppData\Local\Temp\cchaECY7.s 			page 23


 1186 0082 FFF7FEFF 		bl	f_puts
 1187 0086 2060     		str	r0, [r4]
 1188              		.loc 7 146 0
 1189 0088 06AB     		add	r3, sp, #24
 1190 008a 1B68     		ldr	r3, [r3]
 1191 008c B3F1FF3F 		cmp	r3, #-1
 1192 0090 05D1     		bne	.L83
 1193              		.loc 7 147 0
 1194 0092 03AB     		add	r3, sp, #12
 1195 0094 1249     		ldr	r1, .L87+28
 1196 0096 1868     		ldr	r0, [r3]
 1197 0098 FFF7FEFF 		bl	chprintf
 1198 009c 04E0     		b	.L84
 1199              	.L83:
 1200              		.loc 7 149 0
 1201 009e 03AB     		add	r3, sp, #12
 1202 00a0 1049     		ldr	r1, .L87+32
 1203 00a2 1868     		ldr	r0, [r3]
 1204 00a4 FFF7FEFF 		bl	chprintf
 1205              	.L84:
 1206              		.loc 7 154 0
 1207 00a8 07AB     		add	r3, sp, #28
 1208 00aa 1846     		mov	r0, r3
 1209 00ac FFF7FEFF 		bl	f_close
 1210              	.L79:
 1211              		.loc 7 155 0
 1212 00b0 044B     		ldr	r3, .L87
 1213 00b2 919A     		ldr	r2, [sp, #580]
 1214 00b4 1B68     		ldr	r3, [r3]
 1215 00b6 9A42     		cmp	r2, r3
 1216 00b8 01D0     		beq	.L86
 1217 00ba FFF7FEFF 		bl	__stack_chk_fail
 1218              	.L86:
 1219 00be 0DF5127D 		add	sp, sp, #584
 1220              		.cfi_def_cfa_offset 8
 1221              		@ sp needed
 1222 00c2 10BD     		pop	{r4, pc}
 1223              	.L88:
 1224              		.align	2
 1225              	.L87:
 1226 00c4 00000000 		.word	__stack_chk_guard
 1227 00c8 F8000000 		.word	.LC9
 1228 00cc 08010000 		.word	.LC10
 1229 00d0 38010000 		.word	.LC11
 1230 00d4 44010000 		.word	.LC12
 1231 00d8 68010000 		.word	.LC13
 1232 00dc 8C010000 		.word	.LC14
 1233 00e0 98010000 		.word	.LC15
 1234 00e4 C8010000 		.word	.LC16
 1235              		.cfi_endproc
 1236              	.LFE264:
 1237              		.size	cmd_hello, .-cmd_hello
 1238              		.section	.rodata
 1239 01fa 0000     		.align	2
 1240              	.LC17:
 1241 01fc 55736167 		.ascii	"Usage: mkdir dirName\015\012\000"
 1241      653A206D 
ARM GAS  C:\Users\Moi\AppData\Local\Temp\cchaECY7.s 			page 24


 1241      6B646972 
 1241      20646972 
 1241      4E616D65 
 1242 0213 00       		.align	2
 1243              	.LC18:
 1244 0214 20202020 		.ascii	"       Creates directory with dirName (no spaces)\015"
 1244      20202043 
 1244      72656174 
 1244      65732064 
 1244      69726563 
 1245 0246 0A00     		.ascii	"\012\000"
 1246              		.align	2
 1247              	.LC19:
 1248 0248 46533A20 		.ascii	"FS: f_mkdir(%s) failed\015\012\000"
 1248      665F6D6B 
 1248      64697228 
 1248      25732920 
 1248      6661696C 
 1249 0261 000000   		.align	2
 1250              	.LC20:
 1251 0264 46533A20 		.ascii	"FS: f_mkdir(%s) succeeded\015\012\000"
 1251      665F6D6B 
 1251      64697228 
 1251      25732920 
 1251      73756363 
 1252              		.section	.text.cmd_mkdir,"ax",%progbits
 1253              		.align	1
 1254              		.p2align 4,,15
 1255              		.global	cmd_mkdir
 1256              		.syntax unified
 1257              		.thumb
 1258              		.thumb_func
 1259              		.fpu fpv4-sp-d16
 1260              		.type	cmd_mkdir, %function
 1261              	cmd_mkdir:
 1262              	.LFB265:
 1263              		.loc 7 157 0
 1264              		.cfi_startproc
 1265              		@ args = 0, pretend = 0, frame = 24
 1266              		@ frame_needed = 0, uses_anonymous_args = 0
 1267 0000 00B5     		push	{lr}
 1268              		.cfi_def_cfa_offset 4
 1269              		.cfi_offset 14, -4
 1270 0002 87B0     		sub	sp, sp, #28
 1271              		.cfi_def_cfa_offset 32
 1272 0004 0390     		str	r0, [sp, #12]
 1273 0006 0291     		str	r1, [sp, #8]
 1274 0008 0192     		str	r2, [sp, #4]
 1275              		.loc 7 157 0
 1276 000a 1D4B     		ldr	r3, .L94
 1277 000c 1B68     		ldr	r3, [r3]
 1278 000e 0593     		str	r3, [sp, #20]
 1279              		.loc 7 159 0
 1280 0010 029B     		ldr	r3, [sp, #8]
 1281 0012 012B     		cmp	r3, #1
 1282 0014 08D0     		beq	.L90
 1283              		.loc 7 160 0
ARM GAS  C:\Users\Moi\AppData\Local\Temp\cchaECY7.s 			page 25


 1284 0016 1B49     		ldr	r1, .L94+4
 1285 0018 0398     		ldr	r0, [sp, #12]
 1286 001a FFF7FEFF 		bl	chprintf
 1287              		.loc 7 161 0
 1288 001e 1A49     		ldr	r1, .L94+8
 1289 0020 0398     		ldr	r0, [sp, #12]
 1290 0022 FFF7FEFF 		bl	chprintf
 1291              		.loc 7 162 0
 1292 0026 21E0     		b	.L89
 1293              	.L90:
 1294              		.loc 7 167 0
 1295 0028 019B     		ldr	r3, [sp, #4]
 1296 002a 1B68     		ldr	r3, [r3]
 1297 002c 1846     		mov	r0, r3
 1298 002e FFF7FEFF 		bl	f_mkdir
 1299 0032 0346     		mov	r3, r0
 1300 0034 8DF81330 		strb	r3, [sp, #19]
 1301              		.loc 7 168 0
 1302 0038 9DF81330 		ldrb	r3, [sp, #19]	@ zero_extendqisi2
 1303 003c 002B     		cmp	r3, #0
 1304 003e 0DD0     		beq	.L92
 1305              		.loc 7 172 0
 1306 0040 019B     		ldr	r3, [sp, #4]
 1307 0042 1B68     		ldr	r3, [r3]
 1308 0044 1A46     		mov	r2, r3
 1309 0046 1149     		ldr	r1, .L94+12
 1310 0048 0398     		ldr	r0, [sp, #12]
 1311 004a FFF7FEFF 		bl	chprintf
 1312              		.loc 7 173 0
 1313 004e 9DF81330 		ldrb	r3, [sp, #19]	@ zero_extendqisi2
 1314 0052 1946     		mov	r1, r3
 1315 0054 0398     		ldr	r0, [sp, #12]
 1316 0056 FFF7FEFF 		bl	fverbose_error
 1317              		.loc 7 174 0
 1318 005a 07E0     		b	.L89
 1319              	.L92:
 1320              		.loc 7 176 0
 1321 005c 019B     		ldr	r3, [sp, #4]
 1322 005e 1B68     		ldr	r3, [r3]
 1323 0060 1A46     		mov	r2, r3
 1324 0062 0B49     		ldr	r1, .L94+16
 1325 0064 0398     		ldr	r0, [sp, #12]
 1326 0066 FFF7FEFF 		bl	chprintf
 1327              		.loc 7 178 0
 1328 006a 00BF     		nop
 1329              	.L89:
 1330              		.loc 7 179 0
 1331 006c 044B     		ldr	r3, .L94
 1332 006e 059A     		ldr	r2, [sp, #20]
 1333 0070 1B68     		ldr	r3, [r3]
 1334 0072 9A42     		cmp	r2, r3
 1335 0074 01D0     		beq	.L93
 1336 0076 FFF7FEFF 		bl	__stack_chk_fail
 1337              	.L93:
 1338 007a 07B0     		add	sp, sp, #28
 1339              		.cfi_def_cfa_offset 4
 1340              		@ sp needed
ARM GAS  C:\Users\Moi\AppData\Local\Temp\cchaECY7.s 			page 26


 1341 007c 5DF804FB 		ldr	pc, [sp], #4
 1342              	.L95:
 1343              		.align	2
 1344              	.L94:
 1345 0080 00000000 		.word	__stack_chk_guard
 1346 0084 FC010000 		.word	.LC17
 1347 0088 14020000 		.word	.LC18
 1348 008c 48020000 		.word	.LC19
 1349 0090 64020000 		.word	.LC20
 1350              		.cfi_endproc
 1351              	.LFE265:
 1352              		.size	cmd_mkdir, .-cmd_mkdir
 1353              		.section	.rodata
 1354              		.align	2
 1355              	.LC21:
 1356 0280 55736167 		.ascii	"Usage: setlabel label\015\012\000"
 1356      653A2073 
 1356      65746C61 
 1356      62656C20 
 1356      6C616265 
 1357              		.align	2
 1358              	.LC22:
 1359 0298 20202020 		.ascii	"       Sets FAT label (no spaces)\015\012\000"
 1359      20202053 
 1359      65747320 
 1359      46415420 
 1359      6C616265 
 1360              		.align	2
 1361              	.LC23:
 1362 02bc 46533A20 		.ascii	"FS: f_setlabel(%s) failed.\015\012\000"
 1362      665F7365 
 1362      746C6162 
 1362      656C2825 
 1362      73292066 
 1363 02d9 000000   		.align	2
 1364              	.LC24:
 1365 02dc 46533A20 		.ascii	"FS: f_setlabel(%s) succeeded.\015\012\000"
 1365      665F7365 
 1365      746C6162 
 1365      656C2825 
 1365      73292073 
 1366              		.section	.text.cmd_setlabel,"ax",%progbits
 1367              		.align	1
 1368              		.p2align 4,,15
 1369              		.global	cmd_setlabel
 1370              		.syntax unified
 1371              		.thumb
 1372              		.thumb_func
 1373              		.fpu fpv4-sp-d16
 1374              		.type	cmd_setlabel, %function
 1375              	cmd_setlabel:
 1376              	.LFB266:
 1377              		.loc 7 181 0
 1378              		.cfi_startproc
 1379              		@ args = 0, pretend = 0, frame = 24
 1380              		@ frame_needed = 0, uses_anonymous_args = 0
 1381 0000 00B5     		push	{lr}
ARM GAS  C:\Users\Moi\AppData\Local\Temp\cchaECY7.s 			page 27


 1382              		.cfi_def_cfa_offset 4
 1383              		.cfi_offset 14, -4
 1384 0002 87B0     		sub	sp, sp, #28
 1385              		.cfi_def_cfa_offset 32
 1386 0004 0390     		str	r0, [sp, #12]
 1387 0006 0291     		str	r1, [sp, #8]
 1388 0008 0192     		str	r2, [sp, #4]
 1389              		.loc 7 181 0
 1390 000a 1A4B     		ldr	r3, .L101
 1391 000c 1B68     		ldr	r3, [r3]
 1392 000e 0593     		str	r3, [sp, #20]
 1393              		.loc 7 183 0
 1394 0010 029B     		ldr	r3, [sp, #8]
 1395 0012 012B     		cmp	r3, #1
 1396 0014 08D0     		beq	.L97
 1397              		.loc 7 184 0
 1398 0016 1849     		ldr	r1, .L101+4
 1399 0018 0398     		ldr	r0, [sp, #12]
 1400 001a FFF7FEFF 		bl	chprintf
 1401              		.loc 7 185 0
 1402 001e 1749     		ldr	r1, .L101+8
 1403 0020 0398     		ldr	r0, [sp, #12]
 1404 0022 FFF7FEFF 		bl	chprintf
 1405              		.loc 7 186 0
 1406 0026 1BE0     		b	.L96
 1407              	.L97:
 1408              		.loc 7 191 0
 1409 0028 019B     		ldr	r3, [sp, #4]
 1410 002a 1B68     		ldr	r3, [r3]
 1411 002c 1846     		mov	r0, r3
 1412 002e FFF7FEFF 		bl	f_setlabel
 1413 0032 0346     		mov	r3, r0
 1414 0034 8DF81330 		strb	r3, [sp, #19]
 1415              		.loc 7 192 0
 1416 0038 9DF81330 		ldrb	r3, [sp, #19]	@ zero_extendqisi2
 1417 003c 002B     		cmp	r3, #0
 1418 003e 0AD0     		beq	.L99
 1419              		.loc 7 193 0
 1420 0040 0F49     		ldr	r1, .L101+12
 1421 0042 0398     		ldr	r0, [sp, #12]
 1422 0044 FFF7FEFF 		bl	chprintf
 1423              		.loc 7 194 0
 1424 0048 9DF81330 		ldrb	r3, [sp, #19]	@ zero_extendqisi2
 1425 004c 1946     		mov	r1, r3
 1426 004e 0398     		ldr	r0, [sp, #12]
 1427 0050 FFF7FEFF 		bl	fverbose_error
 1428              		.loc 7 195 0
 1429 0054 04E0     		b	.L96
 1430              	.L99:
 1431              		.loc 7 197 0
 1432 0056 0B49     		ldr	r1, .L101+16
 1433 0058 0398     		ldr	r0, [sp, #12]
 1434 005a FFF7FEFF 		bl	chprintf
 1435              		.loc 7 199 0
 1436 005e 00BF     		nop
 1437              	.L96:
 1438              		.loc 7 200 0
ARM GAS  C:\Users\Moi\AppData\Local\Temp\cchaECY7.s 			page 28


 1439 0060 044B     		ldr	r3, .L101
 1440 0062 059A     		ldr	r2, [sp, #20]
 1441 0064 1B68     		ldr	r3, [r3]
 1442 0066 9A42     		cmp	r2, r3
 1443 0068 01D0     		beq	.L100
 1444 006a FFF7FEFF 		bl	__stack_chk_fail
 1445              	.L100:
 1446 006e 07B0     		add	sp, sp, #28
 1447              		.cfi_def_cfa_offset 4
 1448              		@ sp needed
 1449 0070 5DF804FB 		ldr	pc, [sp], #4
 1450              	.L102:
 1451              		.align	2
 1452              	.L101:
 1453 0074 00000000 		.word	__stack_chk_guard
 1454 0078 80020000 		.word	.LC21
 1455 007c 98020000 		.word	.LC22
 1456 0080 BC020000 		.word	.LC23
 1457 0084 DC020000 		.word	.LC24
 1458              		.cfi_endproc
 1459              	.LFE266:
 1460              		.size	cmd_setlabel, .-cmd_setlabel
 1461              		.section	.rodata
 1462              		.align	2
 1463              	.LC25:
 1464 02fc 55736167 		.ascii	"Usage: getlabel\015\012\000"
 1464      653A2067 
 1464      65746C61 
 1464      62656C0D 
 1464      0A00
 1465 030e 0000     		.align	2
 1466              	.LC26:
 1467 0310 20202020 		.ascii	"       Gets and prints FAT label\015\012\000"
 1467      20202047 
 1467      65747320 
 1467      616E6420 
 1467      7072696E 
 1468 0333 00       		.align	2
 1469              	.LC27:
 1470 0334 00       		.ascii	"\000"
 1471 0335 000000   		.align	2
 1472              	.LC28:
 1473 0338 46533A20 		.ascii	"FS: f_getlabel failed.\015\012\000"
 1473      665F6765 
 1473      746C6162 
 1473      656C2066 
 1473      61696C65 
 1474 0351 000000   		.align	2
 1475              	.LC29:
 1476 0354 4C414245 		.ascii	"LABEL: %s\015\012\000"
 1476      4C3A2025 
 1476      730D0A00 
 1477              		.align	2
 1478              	.LC30:
 1479 0360 2020532F 		.ascii	"  S/N: 0x%X\015\012\000"
 1479      4E3A2030 
 1479      7825580D 
ARM GAS  C:\Users\Moi\AppData\Local\Temp\cchaECY7.s 			page 29


 1479      0A00
 1480              		.section	.text.cmd_getlabel,"ax",%progbits
 1481              		.align	1
 1482              		.p2align 4,,15
 1483              		.global	cmd_getlabel
 1484              		.syntax unified
 1485              		.thumb
 1486              		.thumb_func
 1487              		.fpu fpv4-sp-d16
 1488              		.type	cmd_getlabel, %function
 1489              	cmd_getlabel:
 1490              	.LFB267:
 1491              		.loc 7 202 0
 1492              		.cfi_startproc
 1493              		@ args = 0, pretend = 0, frame = 40
 1494              		@ frame_needed = 0, uses_anonymous_args = 0
 1495 0000 00B5     		push	{lr}
 1496              		.cfi_def_cfa_offset 4
 1497              		.cfi_offset 14, -4
 1498 0002 8BB0     		sub	sp, sp, #44
 1499              		.cfi_def_cfa_offset 48
 1500 0004 0390     		str	r0, [sp, #12]
 1501 0006 0291     		str	r1, [sp, #8]
 1502 0008 0192     		str	r2, [sp, #4]
 1503              		.loc 7 202 0
 1504 000a 224B     		ldr	r3, .L109
 1505 000c 1B68     		ldr	r3, [r3]
 1506 000e 0993     		str	r3, [sp, #36]
 1507              		.loc 7 207 0
 1508 0010 029B     		ldr	r3, [sp, #8]
 1509 0012 002B     		cmp	r3, #0
 1510 0014 08DD     		ble	.L104
 1511              		.loc 7 208 0
 1512 0016 2049     		ldr	r1, .L109+4
 1513 0018 0398     		ldr	r0, [sp, #12]
 1514 001a FFF7FEFF 		bl	chprintf
 1515              		.loc 7 209 0
 1516 001e 1F49     		ldr	r1, .L109+8
 1517 0020 0398     		ldr	r0, [sp, #12]
 1518 0022 FFF7FEFF 		bl	chprintf
 1519              		.loc 7 210 0
 1520 0026 2AE0     		b	.L103
 1521              	.L104:
 1522              		.loc 7 212 0
 1523 0028 06AB     		add	r3, sp, #24
 1524 002a 0C22     		movs	r2, #12
 1525 002c 0021     		movs	r1, #0
 1526 002e 1846     		mov	r0, r3
 1527 0030 FFF7FEFF 		bl	memset
 1528              		.loc 7 216 0
 1529 0034 05AA     		add	r2, sp, #20
 1530 0036 06AB     		add	r3, sp, #24
 1531 0038 1946     		mov	r1, r3
 1532 003a 1948     		ldr	r0, .L109+12
 1533 003c FFF7FEFF 		bl	f_getlabel
 1534 0040 0346     		mov	r3, r0
 1535 0042 8DF81330 		strb	r3, [sp, #19]
ARM GAS  C:\Users\Moi\AppData\Local\Temp\cchaECY7.s 			page 30


 1536              		.loc 7 217 0
 1537 0046 9DF81330 		ldrb	r3, [sp, #19]	@ zero_extendqisi2
 1538 004a 002B     		cmp	r3, #0
 1539 004c 0AD0     		beq	.L106
 1540              		.loc 7 218 0
 1541 004e 1549     		ldr	r1, .L109+16
 1542 0050 0398     		ldr	r0, [sp, #12]
 1543 0052 FFF7FEFF 		bl	chprintf
 1544              		.loc 7 219 0
 1545 0056 9DF81330 		ldrb	r3, [sp, #19]	@ zero_extendqisi2
 1546 005a 1946     		mov	r1, r3
 1547 005c 0398     		ldr	r0, [sp, #12]
 1548 005e FFF7FEFF 		bl	fverbose_error
 1549              		.loc 7 220 0
 1550 0062 0CE0     		b	.L103
 1551              	.L106:
 1552              		.loc 7 225 0
 1553 0064 06AB     		add	r3, sp, #24
 1554 0066 1A46     		mov	r2, r3
 1555 0068 0F49     		ldr	r1, .L109+20
 1556 006a 0398     		ldr	r0, [sp, #12]
 1557 006c FFF7FEFF 		bl	chprintf
 1558              		.loc 7 226 0
 1559 0070 059B     		ldr	r3, [sp, #20]
 1560 0072 1A46     		mov	r2, r3
 1561 0074 0D49     		ldr	r1, .L109+24
 1562 0076 0398     		ldr	r0, [sp, #12]
 1563 0078 FFF7FEFF 		bl	chprintf
 1564              		.loc 7 227 0
 1565 007c 00BF     		nop
 1566              	.L103:
 1567              		.loc 7 228 0
 1568 007e 054B     		ldr	r3, .L109
 1569 0080 099A     		ldr	r2, [sp, #36]
 1570 0082 1B68     		ldr	r3, [r3]
 1571 0084 9A42     		cmp	r2, r3
 1572 0086 01D0     		beq	.L108
 1573 0088 FFF7FEFF 		bl	__stack_chk_fail
 1574              	.L108:
 1575 008c 0BB0     		add	sp, sp, #44
 1576              		.cfi_def_cfa_offset 4
 1577              		@ sp needed
 1578 008e 5DF804FB 		ldr	pc, [sp], #4
 1579              	.L110:
 1580 0092 00BF     		.align	2
 1581              	.L109:
 1582 0094 00000000 		.word	__stack_chk_guard
 1583 0098 FC020000 		.word	.LC25
 1584 009c 10030000 		.word	.LC26
 1585 00a0 34030000 		.word	.LC27
 1586 00a4 38030000 		.word	.LC28
 1587 00a8 54030000 		.word	.LC29
 1588 00ac 60030000 		.word	.LC30
 1589              		.cfi_endproc
 1590              	.LFE267:
 1591              		.size	cmd_getlabel, .-cmd_getlabel
 1592              		.section	.rodata
ARM GAS  C:\Users\Moi\AppData\Local\Temp\cchaECY7.s 			page 31


 1593 036e 0000     		.align	2
 1594              	.LC31:
 1595 0370 55736167 		.ascii	"Usage: cat filename\015\012\000"
 1595      653A2063 
 1595      61742066 
 1595      696C656E 
 1595      616D650D 
 1596 0386 0000     		.align	2
 1597              	.LC32:
 1598 0388 20202020 		.ascii	"       Echos filename (no spaces)\015\012\000"
 1598      20202045 
 1598      63686F73 
 1598      2066696C 
 1598      656E616D 
 1599              		.align	2
 1600              	.LC33:
 1601 03ac 46533A20 		.ascii	"FS: f_open(%s) failed.\015\012\000"
 1601      665F6F70 
 1601      656E2825 
 1601      73292066 
 1601      61696C65 
 1602 03c5 000000   		.align	2
 1603              	.LC34:
 1604 03c8 46533A20 		.ascii	"FS: f_read() failed\015\012\000"
 1604      665F7265 
 1604      61642829 
 1604      20666169 
 1604      6C65640D 
 1605 03de 0000     		.align	2
 1606              	.LC35:
 1607 03e0 257300   		.ascii	"%s\000"
 1608 03e3 00       		.align	2
 1609              	.LC36:
 1610 03e4 0D0A00   		.ascii	"\015\012\000"
 1611              		.section	.text.cmd_cat,"ax",%progbits
 1612              		.align	1
 1613              		.p2align 4,,15
 1614              		.global	cmd_cat
 1615              		.syntax unified
 1616              		.thumb
 1617              		.thumb_func
 1618              		.fpu fpv4-sp-d16
 1619              		.type	cmd_cat, %function
 1620              	cmd_cat:
 1621              	.LFB268:
 1622              		.loc 7 233 0
 1623              		.cfi_startproc
 1624              		@ args = 0, pretend = 0, frame = 840
 1625              		@ frame_needed = 0, uses_anonymous_args = 0
 1626 0000 10B5     		push	{r4, lr}
 1627              		.cfi_def_cfa_offset 8
 1628              		.cfi_offset 4, -8
 1629              		.cfi_offset 14, -4
 1630 0002 ADF5527D 		sub	sp, sp, #840
 1631              		.cfi_def_cfa_offset 848
 1632 0006 03AB     		add	r3, sp, #12
 1633 0008 1860     		str	r0, [r3]
ARM GAS  C:\Users\Moi\AppData\Local\Temp\cchaECY7.s 			page 32


 1634 000a 02AB     		add	r3, sp, #8
 1635 000c 1960     		str	r1, [r3]
 1636 000e 01AB     		add	r3, sp, #4
 1637 0010 1A60     		str	r2, [r3]
 1638              		.loc 7 233 0
 1639 0012 3F4B     		ldr	r3, .L118
 1640 0014 1B68     		ldr	r3, [r3]
 1641 0016 D193     		str	r3, [sp, #836]
 1642              		.loc 7 237 0
 1643 0018 06AB     		add	r3, sp, #24
 1644 001a FF22     		movs	r2, #255
 1645 001c 1A60     		str	r2, [r3]
 1646              		.loc 7 242 0
 1647 001e 02AB     		add	r3, sp, #8
 1648 0020 1B68     		ldr	r3, [r3]
 1649 0022 012B     		cmp	r3, #1
 1650 0024 0AD0     		beq	.L112
 1651              		.loc 7 243 0
 1652 0026 03AB     		add	r3, sp, #12
 1653 0028 3A49     		ldr	r1, .L118+4
 1654 002a 1868     		ldr	r0, [r3]
 1655 002c FFF7FEFF 		bl	chprintf
 1656              		.loc 7 244 0
 1657 0030 03AB     		add	r3, sp, #12
 1658 0032 3949     		ldr	r1, .L118+8
 1659 0034 1868     		ldr	r0, [r3]
 1660 0036 FFF7FEFF 		bl	chprintf
 1661              		.loc 7 245 0
 1662 003a 5FE0     		b	.L111
 1663              	.L112:
 1664              		.loc 7 250 0
 1665 003c 01AB     		add	r3, sp, #4
 1666 003e 1B68     		ldr	r3, [r3]
 1667 0040 1968     		ldr	r1, [r3]
 1668 0042 0DF11304 		add	r4, sp, #19
 1669 0046 07AB     		add	r3, sp, #28
 1670 0048 0122     		movs	r2, #1
 1671 004a 1846     		mov	r0, r3
 1672 004c FFF7FEFF 		bl	f_open
 1673 0050 0346     		mov	r3, r0
 1674 0052 2370     		strb	r3, [r4]
 1675              		.loc 7 251 0
 1676 0054 0DF11303 		add	r3, sp, #19
 1677 0058 1B78     		ldrb	r3, [r3]	@ zero_extendqisi2
 1678 005a 002B     		cmp	r3, #0
 1679 005c 10D0     		beq	.L114
 1680              		.loc 7 252 0
 1681 005e 01AB     		add	r3, sp, #4
 1682 0060 1B68     		ldr	r3, [r3]
 1683 0062 1A68     		ldr	r2, [r3]
 1684 0064 03AB     		add	r3, sp, #12
 1685 0066 2D49     		ldr	r1, .L118+12
 1686 0068 1868     		ldr	r0, [r3]
 1687 006a FFF7FEFF 		bl	chprintf
 1688              		.loc 7 253 0
 1689 006e 0DF11303 		add	r3, sp, #19
 1690 0072 1A78     		ldrb	r2, [r3]	@ zero_extendqisi2
ARM GAS  C:\Users\Moi\AppData\Local\Temp\cchaECY7.s 			page 33


 1691 0074 03AB     		add	r3, sp, #12
 1692 0076 1146     		mov	r1, r2
 1693 0078 1868     		ldr	r0, [r3]
 1694 007a FFF7FEFF 		bl	fverbose_error
 1695              		.loc 7 254 0
 1696 007e 3DE0     		b	.L111
 1697              	.L114:
 1698              		.loc 7 264 0
 1699 0080 91AB     		add	r3, sp, #580
 1700 0082 FF22     		movs	r2, #255
 1701 0084 0021     		movs	r1, #0
 1702 0086 1846     		mov	r0, r3
 1703 0088 FFF7FEFF 		bl	memset
 1704              		.loc 7 268 0
 1705 008c 0DF11304 		add	r4, sp, #19
 1706 0090 05AB     		add	r3, sp, #20
 1707 0092 06AA     		add	r2, sp, #24
 1708 0094 91A9     		add	r1, sp, #580
 1709 0096 07A8     		add	r0, sp, #28
 1710 0098 1268     		ldr	r2, [r2]
 1711 009a FFF7FEFF 		bl	f_read
 1712 009e 0346     		mov	r3, r0
 1713 00a0 2370     		strb	r3, [r4]
 1714              		.loc 7 269 0
 1715 00a2 0DF11303 		add	r3, sp, #19
 1716 00a6 1B78     		ldrb	r3, [r3]	@ zero_extendqisi2
 1717 00a8 002B     		cmp	r3, #0
 1718 00aa 11D0     		beq	.L115
 1719              		.loc 7 270 0
 1720 00ac 03AB     		add	r3, sp, #12
 1721 00ae 1C49     		ldr	r1, .L118+16
 1722 00b0 1868     		ldr	r0, [r3]
 1723 00b2 FFF7FEFF 		bl	chprintf
 1724              		.loc 7 271 0
 1725 00b6 0DF11303 		add	r3, sp, #19
 1726 00ba 1A78     		ldrb	r2, [r3]	@ zero_extendqisi2
 1727 00bc 03AB     		add	r3, sp, #12
 1728 00be 1146     		mov	r1, r2
 1729 00c0 1868     		ldr	r0, [r3]
 1730 00c2 FFF7FEFF 		bl	fverbose_error
 1731              		.loc 7 272 0
 1732 00c6 07AB     		add	r3, sp, #28
 1733 00c8 1846     		mov	r0, r3
 1734 00ca FFF7FEFF 		bl	f_close
 1735              		.loc 7 273 0
 1736 00ce 15E0     		b	.L111
 1737              	.L115:
 1738              		.loc 7 275 0
 1739 00d0 91AA     		add	r2, sp, #580
 1740 00d2 03AB     		add	r3, sp, #12
 1741 00d4 1349     		ldr	r1, .L118+20
 1742 00d6 1868     		ldr	r0, [r3]
 1743 00d8 FFF7FEFF 		bl	chprintf
 1744              		.loc 7 276 0
 1745 00dc 05AB     		add	r3, sp, #20
 1746 00de 1B68     		ldr	r3, [r3]
 1747 00e0 06AA     		add	r2, sp, #24
ARM GAS  C:\Users\Moi\AppData\Local\Temp\cchaECY7.s 			page 34


 1748 00e2 1268     		ldr	r2, [r2]
 1749 00e4 9A42     		cmp	r2, r3
 1750 00e6 CBD9     		bls	.L114
 1751              		.loc 7 277 0
 1752 00e8 03AB     		add	r3, sp, #12
 1753 00ea 0F49     		ldr	r1, .L118+24
 1754 00ec 1868     		ldr	r0, [r3]
 1755 00ee FFF7FEFF 		bl	chprintf
 1756              		.loc 7 281 0
 1757 00f2 07AB     		add	r3, sp, #28
 1758 00f4 1846     		mov	r0, r3
 1759 00f6 FFF7FEFF 		bl	f_close
 1760              		.loc 7 282 0
 1761 00fa 00BF     		nop
 1762              	.L111:
 1763              		.loc 7 283 0
 1764 00fc 044B     		ldr	r3, .L118
 1765 00fe D19A     		ldr	r2, [sp, #836]
 1766 0100 1B68     		ldr	r3, [r3]
 1767 0102 9A42     		cmp	r2, r3
 1768 0104 01D0     		beq	.L117
 1769 0106 FFF7FEFF 		bl	__stack_chk_fail
 1770              	.L117:
 1771 010a 0DF5527D 		add	sp, sp, #840
 1772              		.cfi_def_cfa_offset 8
 1773              		@ sp needed
 1774 010e 10BD     		pop	{r4, pc}
 1775              	.L119:
 1776              		.align	2
 1777              	.L118:
 1778 0110 00000000 		.word	__stack_chk_guard
 1779 0114 70030000 		.word	.LC31
 1780 0118 88030000 		.word	.LC32
 1781 011c AC030000 		.word	.LC33
 1782 0120 C8030000 		.word	.LC34
 1783 0124 E0030000 		.word	.LC35
 1784 0128 E4030000 		.word	.LC36
 1785              		.cfi_endproc
 1786              	.LFE268:
 1787              		.size	cmd_cat, .-cmd_cat
 1788              		.section	.rodata
 1789 03e7 00       		.align	2
 1790              	.LC37:
 1791 03e8 55736167 		.ascii	"Usage: sf_play pathToTheMusic\015\012\000"
 1791      653A2073 
 1791      665F706C 
 1791      61792070 
 1791      61746854 
 1792              		.section	.text.cmd_sound_file_play,"ax",%progbits
 1793              		.align	1
 1794              		.p2align 4,,15
 1795              		.syntax unified
 1796              		.thumb
 1797              		.thumb_func
 1798              		.fpu fpv4-sp-d16
 1799              		.type	cmd_sound_file_play, %function
 1800              	cmd_sound_file_play:
ARM GAS  C:\Users\Moi\AppData\Local\Temp\cchaECY7.s 			page 35


 1801              	.LFB269:
 1802              		.loc 7 286 0
 1803              		.cfi_startproc
 1804              		@ args = 0, pretend = 0, frame = 24
 1805              		@ frame_needed = 0, uses_anonymous_args = 0
 1806 0000 00B5     		push	{lr}
 1807              		.cfi_def_cfa_offset 4
 1808              		.cfi_offset 14, -4
 1809 0002 87B0     		sub	sp, sp, #28
 1810              		.cfi_def_cfa_offset 32
 1811 0004 0390     		str	r0, [sp, #12]
 1812 0006 0291     		str	r1, [sp, #8]
 1813 0008 0192     		str	r2, [sp, #4]
 1814              		.loc 7 286 0
 1815 000a 0D4B     		ldr	r3, .L124
 1816 000c 1B68     		ldr	r3, [r3]
 1817 000e 0593     		str	r3, [sp, #20]
 1818              		.loc 7 288 0
 1819 0010 029B     		ldr	r3, [sp, #8]
 1820 0012 012B     		cmp	r3, #1
 1821 0014 04D0     		beq	.L121
 1822              		.loc 7 289 0
 1823 0016 0B49     		ldr	r1, .L124+4
 1824 0018 0398     		ldr	r0, [sp, #12]
 1825 001a FFF7FEFF 		bl	chprintf
 1826              		.loc 7 290 0
 1827 001e 05E0     		b	.L120
 1828              	.L121:
 1829              		.loc 7 293 0
 1830 0020 019B     		ldr	r3, [sp, #4]
 1831 0022 1B68     		ldr	r3, [r3]
 1832 0024 0221     		movs	r1, #2
 1833 0026 1846     		mov	r0, r3
 1834 0028 FFF7FEFF 		bl	playSoundFile
 1835              	.L120:
 1836              		.loc 7 295 0
 1837 002c 044B     		ldr	r3, .L124
 1838 002e 059A     		ldr	r2, [sp, #20]
 1839 0030 1B68     		ldr	r3, [r3]
 1840 0032 9A42     		cmp	r2, r3
 1841 0034 01D0     		beq	.L123
 1842 0036 FFF7FEFF 		bl	__stack_chk_fail
 1843              	.L123:
 1844 003a 07B0     		add	sp, sp, #28
 1845              		.cfi_def_cfa_offset 4
 1846              		@ sp needed
 1847 003c 5DF804FB 		ldr	pc, [sp], #4
 1848              	.L125:
 1849              		.align	2
 1850              	.L124:
 1851 0040 00000000 		.word	__stack_chk_guard
 1852 0044 E8030000 		.word	.LC37
 1853              		.cfi_endproc
 1854              	.LFE269:
 1855              		.size	cmd_sound_file_play, .-cmd_sound_file_play
 1856              		.section	.text.cmd_sound_file_stop,"ax",%progbits
 1857              		.align	1
ARM GAS  C:\Users\Moi\AppData\Local\Temp\cchaECY7.s 			page 36


 1858              		.p2align 4,,15
 1859              		.syntax unified
 1860              		.thumb
 1861              		.thumb_func
 1862              		.fpu fpv4-sp-d16
 1863              		.type	cmd_sound_file_stop, %function
 1864              	cmd_sound_file_stop:
 1865              	.LFB270:
 1866              		.loc 7 298 0
 1867              		.cfi_startproc
 1868              		@ args = 0, pretend = 0, frame = 24
 1869              		@ frame_needed = 0, uses_anonymous_args = 0
 1870 0000 00B5     		push	{lr}
 1871              		.cfi_def_cfa_offset 4
 1872              		.cfi_offset 14, -4
 1873 0002 87B0     		sub	sp, sp, #28
 1874              		.cfi_def_cfa_offset 32
 1875 0004 0390     		str	r0, [sp, #12]
 1876 0006 0291     		str	r1, [sp, #8]
 1877 0008 0192     		str	r2, [sp, #4]
 1878              		.loc 7 298 0
 1879 000a 084B     		ldr	r3, .L128
 1880 000c 1B68     		ldr	r3, [r3]
 1881 000e 0593     		str	r3, [sp, #20]
 1882              		.loc 7 303 0
 1883 0010 FFF7FEFF 		bl	stopCurrentSoundFile
 1884              		.loc 7 304 0
 1885 0014 00BF     		nop
 1886 0016 054B     		ldr	r3, .L128
 1887 0018 059A     		ldr	r2, [sp, #20]
 1888 001a 1B68     		ldr	r3, [r3]
 1889 001c 9A42     		cmp	r2, r3
 1890 001e 01D0     		beq	.L127
 1891 0020 FFF7FEFF 		bl	__stack_chk_fail
 1892              	.L127:
 1893 0024 07B0     		add	sp, sp, #28
 1894              		.cfi_def_cfa_offset 4
 1895              		@ sp needed
 1896 0026 5DF804FB 		ldr	pc, [sp], #4
 1897              	.L129:
 1898 002a 00BF     		.align	2
 1899              	.L128:
 1900 002c 00000000 		.word	__stack_chk_guard
 1901              		.cfi_endproc
 1902              	.LFE270:
 1903              		.size	cmd_sound_file_stop, .-cmd_sound_file_stop
 1904              		.section	.rodata
 1905              		.align	2
 1906              	.LC38:
 1907 0408 55736167 		.ascii	"Usage: sf_volume value\015\012\000"
 1907      653A2073 
 1907      665F766F 
 1907      6C756D65 
 1907      2076616C 
 1908              		.section	.text.cmd_sound_file_volume,"ax",%progbits
 1909              		.align	1
 1910              		.p2align 4,,15
ARM GAS  C:\Users\Moi\AppData\Local\Temp\cchaECY7.s 			page 37


 1911              		.syntax unified
 1912              		.thumb
 1913              		.thumb_func
 1914              		.fpu fpv4-sp-d16
 1915              		.type	cmd_sound_file_volume, %function
 1916              	cmd_sound_file_volume:
 1917              	.LFB271:
 1918              		.loc 7 307 0
 1919              		.cfi_startproc
 1920              		@ args = 0, pretend = 0, frame = 24
 1921              		@ frame_needed = 0, uses_anonymous_args = 0
 1922 0000 00B5     		push	{lr}
 1923              		.cfi_def_cfa_offset 4
 1924              		.cfi_offset 14, -4
 1925 0002 87B0     		sub	sp, sp, #28
 1926              		.cfi_def_cfa_offset 32
 1927 0004 0390     		str	r0, [sp, #12]
 1928 0006 0291     		str	r1, [sp, #8]
 1929 0008 0192     		str	r2, [sp, #4]
 1930              		.loc 7 307 0
 1931 000a 0F4B     		ldr	r3, .L134
 1932 000c 1B68     		ldr	r3, [r3]
 1933 000e 0593     		str	r3, [sp, #20]
 1934              		.loc 7 309 0
 1935 0010 029B     		ldr	r3, [sp, #8]
 1936 0012 012B     		cmp	r3, #1
 1937 0014 04D0     		beq	.L131
 1938              		.loc 7 310 0
 1939 0016 0D49     		ldr	r1, .L134+4
 1940 0018 0398     		ldr	r0, [sp, #12]
 1941 001a FFF7FEFF 		bl	chprintf
 1942              		.loc 7 311 0
 1943 001e 09E0     		b	.L130
 1944              	.L131:
 1945              		.loc 7 314 0
 1946 0020 019B     		ldr	r3, [sp, #4]
 1947 0022 1B68     		ldr	r3, [r3]
 1948 0024 1846     		mov	r0, r3
 1949 0026 FFF7FEFF 		bl	atoi
 1950 002a 0346     		mov	r3, r0
 1951 002c DBB2     		uxtb	r3, r3
 1952 002e 1846     		mov	r0, r3
 1953 0030 FFF7FEFF 		bl	setSoundFileVolume
 1954              	.L130:
 1955              		.loc 7 315 0
 1956 0034 044B     		ldr	r3, .L134
 1957 0036 059A     		ldr	r2, [sp, #20]
 1958 0038 1B68     		ldr	r3, [r3]
 1959 003a 9A42     		cmp	r2, r3
 1960 003c 01D0     		beq	.L133
 1961 003e FFF7FEFF 		bl	__stack_chk_fail
 1962              	.L133:
 1963 0042 07B0     		add	sp, sp, #28
 1964              		.cfi_def_cfa_offset 4
 1965              		@ sp needed
 1966 0044 5DF804FB 		ldr	pc, [sp], #4
 1967              	.L135:
ARM GAS  C:\Users\Moi\AppData\Local\Temp\cchaECY7.s 			page 38


 1968              		.align	2
 1969              	.L134:
 1970 0048 00000000 		.word	__stack_chk_guard
 1971 004c 08040000 		.word	.LC38
 1972              		.cfi_endproc
 1973              	.LFE271:
 1974              		.size	cmd_sound_file_volume, .-cmd_sound_file_volume
 1975              		.section	.rodata
 1976 0421 000000   		.align	2
 1977              	.LC39:
 1978 0424 55736167 		.ascii	"Usage: ml_play numberOfTheMelody\015\012\000"
 1978      653A206D 
 1978      6C5F706C 
 1978      6179206E 
 1978      756D6265 
 1979 0447 00       		.align	2
 1980              	.LC40:
 1981 0448 6D656C6F 		.ascii	"melodies availables :\015\012\000"
 1981      64696573 
 1981      20617661 
 1981      696C6162 
 1981      6C657320 
 1982              		.align	2
 1983              	.LC41:
 1984 0460 31292049 		.ascii	"1) IMPOSSIBLE_MISSION,\015\012\000"
 1984      4D504F53 
 1984      5349424C 
 1984      455F4D49 
 1984      5353494F 
 1985 0479 000000   		.align	2
 1986              	.LC42:
 1987 047c 32292057 		.ascii	"2) WE_ARE_THE_CHAMPIONS,\015\012\000"
 1987      455F4152 
 1987      455F5448 
 1987      455F4348 
 1987      414D5049 
 1988 0497 00       		.align	2
 1989              	.LC43:
 1990 0498 33292052 		.ascii	"3) RUSSIA,\015\012\000"
 1990      55535349 
 1990      412C0D0A 
 1990      00
 1991 04a5 000000   		.align	2
 1992              	.LC44:
 1993 04a8 3429204D 		.ascii	"4) MARIO,\015\012\000"
 1993      4152494F 
 1993      2C0D0A00 
 1994              		.align	2
 1995              	.LC45:
 1996 04b4 35292055 		.ascii	"5) UNDERWORLD,\015\012\000"
 1996      4E444552 
 1996      574F524C 
 1996      442C0D0A 
 1996      00
 1997 04c5 000000   		.align	2
 1998              	.LC46:
 1999 04c8 3629204D 		.ascii	"6) MARIO_START,\015\012\000"
ARM GAS  C:\Users\Moi\AppData\Local\Temp\cchaECY7.s 			page 39


 1999      4152494F 
 1999      5F535441 
 1999      52542C0D 
 1999      0A00
 2000 04da 0000     		.align	2
 2001              	.LC47:
 2002 04dc 3729204D 		.ascii	"7) MARIO_DEATH,\015\012\000"
 2002      4152494F 
 2002      5F444541 
 2002      54482C0D 
 2002      0A00
 2003 04ee 0000     		.align	2
 2004              	.LC48:
 2005 04f0 3829204D 		.ascii	"8) MARIO_FLAG,\015\012\000"
 2005      4152494F 
 2005      5F464C41 
 2005      472C0D0A 
 2005      00
 2006 0501 000000   		.align	2
 2007              	.LC49:
 2008 0504 39292057 		.ascii	"9) WALKING,\015\012\000"
 2008      414C4B49 
 2008      4E472C0D 
 2008      0A00
 2009 0512 0000     		.align	2
 2010              	.LC50:
 2011 0514 31302920 		.ascii	"10) PIRATES_OF_THE_CARIBBEAN,\015\012\000"
 2011      50495241 
 2011      5445535F 
 2011      4F465F54 
 2011      48455F43 
 2012              		.align	2
 2013              	.LC51:
 2014 0534 31312920 		.ascii	"11) SIMPSON,\015\012\000"
 2014      53494D50 
 2014      534F4E2C 
 2014      0D0A00
 2015 0543 00       		.align	2
 2016              	.LC52:
 2017 0544 31322920 		.ascii	"12) STARWARS,\015\012\000"
 2017      53544152 
 2017      57415253 
 2017      2C0D0A00 
 2018              		.align	2
 2019              	.LC53:
 2020 0554 31332920 		.ascii	"13) SANDSTORMS,\015\012\000"
 2020      53414E44 
 2020      53544F52 
 2020      4D532C0D 
 2020      0A00
 2021 0566 0000     		.align	2
 2022              	.LC54:
 2023 0568 31342920 		.ascii	"14) SEVEN_NATION_ARMY\015\012\000"
 2023      53455645 
 2023      4E5F4E41 
 2023      54494F4E 
 2023      5F41524D 
ARM GAS  C:\Users\Moi\AppData\Local\Temp\cchaECY7.s 			page 40


 2024              		.section	.text.cmd_melody_play,"ax",%progbits
 2025              		.align	1
 2026              		.p2align 4,,15
 2027              		.syntax unified
 2028              		.thumb
 2029              		.thumb_func
 2030              		.fpu fpv4-sp-d16
 2031              		.type	cmd_melody_play, %function
 2032              	cmd_melody_play:
 2033              	.LFB272:
 2034              		.loc 7 318 0
 2035              		.cfi_startproc
 2036              		@ args = 0, pretend = 0, frame = 24
 2037              		@ frame_needed = 0, uses_anonymous_args = 0
 2038 0000 00B5     		push	{lr}
 2039              		.cfi_def_cfa_offset 4
 2040              		.cfi_offset 14, -4
 2041 0002 87B0     		sub	sp, sp, #28
 2042              		.cfi_def_cfa_offset 32
 2043 0004 0390     		str	r0, [sp, #12]
 2044 0006 0291     		str	r1, [sp, #8]
 2045 0008 0192     		str	r2, [sp, #4]
 2046              		.loc 7 318 0
 2047 000a 2F4B     		ldr	r3, .L140
 2048 000c 1B68     		ldr	r3, [r3]
 2049 000e 0593     		str	r3, [sp, #20]
 2050              		.loc 7 320 0
 2051 0010 029B     		ldr	r3, [sp, #8]
 2052 0012 012B     		cmp	r3, #1
 2053 0014 40D0     		beq	.L137
 2054              		.loc 7 321 0
 2055 0016 2D49     		ldr	r1, .L140+4
 2056 0018 0398     		ldr	r0, [sp, #12]
 2057 001a FFF7FEFF 		bl	chprintf
 2058              		.loc 7 322 0
 2059 001e 2C49     		ldr	r1, .L140+8
 2060 0020 0398     		ldr	r0, [sp, #12]
 2061 0022 FFF7FEFF 		bl	chprintf
 2062              		.loc 7 323 0
 2063 0026 2B49     		ldr	r1, .L140+12
 2064 0028 0398     		ldr	r0, [sp, #12]
 2065 002a FFF7FEFF 		bl	chprintf
 2066              		.loc 7 324 0
 2067 002e 2A49     		ldr	r1, .L140+16
 2068 0030 0398     		ldr	r0, [sp, #12]
 2069 0032 FFF7FEFF 		bl	chprintf
 2070              		.loc 7 325 0
 2071 0036 2949     		ldr	r1, .L140+20
 2072 0038 0398     		ldr	r0, [sp, #12]
 2073 003a FFF7FEFF 		bl	chprintf
 2074              		.loc 7 326 0
 2075 003e 2849     		ldr	r1, .L140+24
 2076 0040 0398     		ldr	r0, [sp, #12]
 2077 0042 FFF7FEFF 		bl	chprintf
 2078              		.loc 7 327 0
 2079 0046 2749     		ldr	r1, .L140+28
 2080 0048 0398     		ldr	r0, [sp, #12]
ARM GAS  C:\Users\Moi\AppData\Local\Temp\cchaECY7.s 			page 41


 2081 004a FFF7FEFF 		bl	chprintf
 2082              		.loc 7 328 0
 2083 004e 2649     		ldr	r1, .L140+32
 2084 0050 0398     		ldr	r0, [sp, #12]
 2085 0052 FFF7FEFF 		bl	chprintf
 2086              		.loc 7 329 0
 2087 0056 2549     		ldr	r1, .L140+36
 2088 0058 0398     		ldr	r0, [sp, #12]
 2089 005a FFF7FEFF 		bl	chprintf
 2090              		.loc 7 330 0
 2091 005e 2449     		ldr	r1, .L140+40
 2092 0060 0398     		ldr	r0, [sp, #12]
 2093 0062 FFF7FEFF 		bl	chprintf
 2094              		.loc 7 331 0
 2095 0066 2349     		ldr	r1, .L140+44
 2096 0068 0398     		ldr	r0, [sp, #12]
 2097 006a FFF7FEFF 		bl	chprintf
 2098              		.loc 7 332 0
 2099 006e 2249     		ldr	r1, .L140+48
 2100 0070 0398     		ldr	r0, [sp, #12]
 2101 0072 FFF7FEFF 		bl	chprintf
 2102              		.loc 7 333 0
 2103 0076 2149     		ldr	r1, .L140+52
 2104 0078 0398     		ldr	r0, [sp, #12]
 2105 007a FFF7FEFF 		bl	chprintf
 2106              		.loc 7 334 0
 2107 007e 2049     		ldr	r1, .L140+56
 2108 0080 0398     		ldr	r0, [sp, #12]
 2109 0082 FFF7FEFF 		bl	chprintf
 2110              		.loc 7 335 0
 2111 0086 1F49     		ldr	r1, .L140+60
 2112 0088 0398     		ldr	r0, [sp, #12]
 2113 008a FFF7FEFF 		bl	chprintf
 2114              		.loc 7 336 0
 2115 008e 1E49     		ldr	r1, .L140+64
 2116 0090 0398     		ldr	r0, [sp, #12]
 2117 0092 FFF7FEFF 		bl	chprintf
 2118              		.loc 7 337 0
 2119 0096 0DE0     		b	.L136
 2120              	.L137:
 2121              		.loc 7 339 0
 2122 0098 019B     		ldr	r3, [sp, #4]
 2123 009a 1B68     		ldr	r3, [r3]
 2124 009c 1846     		mov	r0, r3
 2125 009e FFF7FEFF 		bl	atoi
 2126 00a2 0346     		mov	r3, r0
 2127 00a4 DBB2     		uxtb	r3, r3
 2128 00a6 013B     		subs	r3, r3, #1
 2129 00a8 DBB2     		uxtb	r3, r3
 2130 00aa 0022     		movs	r2, #0
 2131 00ac 0221     		movs	r1, #2
 2132 00ae 1846     		mov	r0, r3
 2133 00b0 FFF7FEFF 		bl	playMelody
 2134              	.L136:
 2135              		.loc 7 340 0
 2136 00b4 044B     		ldr	r3, .L140
 2137 00b6 059A     		ldr	r2, [sp, #20]
ARM GAS  C:\Users\Moi\AppData\Local\Temp\cchaECY7.s 			page 42


 2138 00b8 1B68     		ldr	r3, [r3]
 2139 00ba 9A42     		cmp	r2, r3
 2140 00bc 01D0     		beq	.L139
 2141 00be FFF7FEFF 		bl	__stack_chk_fail
 2142              	.L139:
 2143 00c2 07B0     		add	sp, sp, #28
 2144              		.cfi_def_cfa_offset 4
 2145              		@ sp needed
 2146 00c4 5DF804FB 		ldr	pc, [sp], #4
 2147              	.L141:
 2148              		.align	2
 2149              	.L140:
 2150 00c8 00000000 		.word	__stack_chk_guard
 2151 00cc 24040000 		.word	.LC39
 2152 00d0 48040000 		.word	.LC40
 2153 00d4 60040000 		.word	.LC41
 2154 00d8 7C040000 		.word	.LC42
 2155 00dc 98040000 		.word	.LC43
 2156 00e0 A8040000 		.word	.LC44
 2157 00e4 B4040000 		.word	.LC45
 2158 00e8 C8040000 		.word	.LC46
 2159 00ec DC040000 		.word	.LC47
 2160 00f0 F0040000 		.word	.LC48
 2161 00f4 04050000 		.word	.LC49
 2162 00f8 14050000 		.word	.LC50
 2163 00fc 34050000 		.word	.LC51
 2164 0100 44050000 		.word	.LC52
 2165 0104 54050000 		.word	.LC53
 2166 0108 68050000 		.word	.LC54
 2167              		.cfi_endproc
 2168              	.LFE272:
 2169              		.size	cmd_melody_play, .-cmd_melody_play
 2170              		.section	.text.cmd_melody_stop,"ax",%progbits
 2171              		.align	1
 2172              		.p2align 4,,15
 2173              		.syntax unified
 2174              		.thumb
 2175              		.thumb_func
 2176              		.fpu fpv4-sp-d16
 2177              		.type	cmd_melody_stop, %function
 2178              	cmd_melody_stop:
 2179              	.LFB273:
 2180              		.loc 7 343 0
 2181              		.cfi_startproc
 2182              		@ args = 0, pretend = 0, frame = 24
 2183              		@ frame_needed = 0, uses_anonymous_args = 0
 2184 0000 00B5     		push	{lr}
 2185              		.cfi_def_cfa_offset 4
 2186              		.cfi_offset 14, -4
 2187 0002 87B0     		sub	sp, sp, #28
 2188              		.cfi_def_cfa_offset 32
 2189 0004 0390     		str	r0, [sp, #12]
 2190 0006 0291     		str	r1, [sp, #8]
 2191 0008 0192     		str	r2, [sp, #4]
 2192              		.loc 7 343 0
 2193 000a 084B     		ldr	r3, .L144
 2194 000c 1B68     		ldr	r3, [r3]
ARM GAS  C:\Users\Moi\AppData\Local\Temp\cchaECY7.s 			page 43


 2195 000e 0593     		str	r3, [sp, #20]
 2196              		.loc 7 348 0
 2197 0010 FFF7FEFF 		bl	stopCurrentMelody
 2198              		.loc 7 349 0
 2199 0014 00BF     		nop
 2200 0016 054B     		ldr	r3, .L144
 2201 0018 059A     		ldr	r2, [sp, #20]
 2202 001a 1B68     		ldr	r3, [r3]
 2203 001c 9A42     		cmp	r2, r3
 2204 001e 01D0     		beq	.L143
 2205 0020 FFF7FEFF 		bl	__stack_chk_fail
 2206              	.L143:
 2207 0024 07B0     		add	sp, sp, #28
 2208              		.cfi_def_cfa_offset 4
 2209              		@ sp needed
 2210 0026 5DF804FB 		ldr	pc, [sp], #4
 2211              	.L145:
 2212 002a 00BF     		.align	2
 2213              	.L144:
 2214 002c 00000000 		.word	__stack_chk_guard
 2215              		.cfi_endproc
 2216              	.LFE273:
 2217              		.size	cmd_melody_stop, .-cmd_melody_stop
 2218              		.section	.rodata
 2219              		.align	2
 2220              	.LC55:
 2221 0580 55736167 		.ascii	"Usage: mem\015\012\000"
 2221      653A206D 
 2221      656D0D0A 
 2221      00
 2222 058d 000000   		.align	2
 2223              	.LC56:
 2224 0590 636F7265 		.ascii	"core free memory : %u bytes\015\012\000"
 2224      20667265 
 2224      65206D65 
 2224      6D6F7279 
 2224      203A2025 
 2225 05ae 0000     		.align	2
 2226              	.LC57:
 2227 05b0 68656170 		.ascii	"heap fragments     : %u\015\012\000"
 2227      20667261 
 2227      676D656E 
 2227      74732020 
 2227      2020203A 
 2228 05ca 0000     		.align	2
 2229              	.LC58:
 2230 05cc 68656170 		.ascii	"heap free total    : %u bytes\015\012\000"
 2230      20667265 
 2230      6520746F 
 2230      74616C20 
 2230      2020203A 
 2231              		.section	.text.cmd_mem,"ax",%progbits
 2232              		.align	1
 2233              		.p2align 4,,15
 2234              		.syntax unified
 2235              		.thumb
 2236              		.thumb_func
ARM GAS  C:\Users\Moi\AppData\Local\Temp\cchaECY7.s 			page 44


 2237              		.fpu fpv4-sp-d16
 2238              		.type	cmd_mem, %function
 2239              	cmd_mem:
 2240              	.LFB274:
 2241              		.loc 7 352 0
 2242              		.cfi_startproc
 2243              		@ args = 0, pretend = 0, frame = 32
 2244              		@ frame_needed = 0, uses_anonymous_args = 0
 2245 0000 00B5     		push	{lr}
 2246              		.cfi_def_cfa_offset 4
 2247              		.cfi_offset 14, -4
 2248 0002 89B0     		sub	sp, sp, #36
 2249              		.cfi_def_cfa_offset 40
 2250 0004 0390     		str	r0, [sp, #12]
 2251 0006 0291     		str	r1, [sp, #8]
 2252 0008 0192     		str	r2, [sp, #4]
 2253              		.loc 7 352 0
 2254 000a 174B     		ldr	r3, .L150
 2255 000c 1B68     		ldr	r3, [r3]
 2256 000e 0793     		str	r3, [sp, #28]
 2257              		.loc 7 356 0
 2258 0010 029B     		ldr	r3, [sp, #8]
 2259 0012 002B     		cmp	r3, #0
 2260 0014 04DD     		ble	.L147
 2261              		.loc 7 357 0
 2262 0016 1549     		ldr	r1, .L150+4
 2263 0018 0398     		ldr	r0, [sp, #12]
 2264 001a FFF7FEFF 		bl	chprintf
 2265 001e 18E0     		b	.L146
 2266              	.L147:
 2267              		.loc 7 360 0
 2268 0020 05AB     		add	r3, sp, #20
 2269 0022 1946     		mov	r1, r3
 2270 0024 0020     		movs	r0, #0
 2271 0026 FFF7FEFF 		bl	chHeapStatus
 2272 002a 0690     		str	r0, [sp, #24]
 2273              		.loc 7 361 0
 2274 002c FFF7FEFF 		bl	chCoreGetStatusX
 2275 0030 0346     		mov	r3, r0
 2276 0032 1A46     		mov	r2, r3
 2277 0034 0E49     		ldr	r1, .L150+8
 2278 0036 0398     		ldr	r0, [sp, #12]
 2279 0038 FFF7FEFF 		bl	chprintf
 2280              		.loc 7 362 0
 2281 003c 069A     		ldr	r2, [sp, #24]
 2282 003e 0D49     		ldr	r1, .L150+12
 2283 0040 0398     		ldr	r0, [sp, #12]
 2284 0042 FFF7FEFF 		bl	chprintf
 2285              		.loc 7 363 0
 2286 0046 059B     		ldr	r3, [sp, #20]
 2287 0048 1A46     		mov	r2, r3
 2288 004a 0B49     		ldr	r1, .L150+16
 2289 004c 0398     		ldr	r0, [sp, #12]
 2290 004e FFF7FEFF 		bl	chprintf
 2291              	.L146:
 2292              		.loc 7 364 0
 2293 0052 054B     		ldr	r3, .L150
ARM GAS  C:\Users\Moi\AppData\Local\Temp\cchaECY7.s 			page 45


 2294 0054 079A     		ldr	r2, [sp, #28]
 2295 0056 1B68     		ldr	r3, [r3]
 2296 0058 9A42     		cmp	r2, r3
 2297 005a 01D0     		beq	.L149
 2298 005c FFF7FEFF 		bl	__stack_chk_fail
 2299              	.L149:
 2300 0060 09B0     		add	sp, sp, #36
 2301              		.cfi_def_cfa_offset 4
 2302              		@ sp needed
 2303 0062 5DF804FB 		ldr	pc, [sp], #4
 2304              	.L151:
 2305 0066 00BF     		.align	2
 2306              	.L150:
 2307 0068 00000000 		.word	__stack_chk_guard
 2308 006c 80050000 		.word	.LC55
 2309 0070 90050000 		.word	.LC56
 2310 0074 B0050000 		.word	.LC57
 2311 0078 CC050000 		.word	.LC58
 2312              		.cfi_endproc
 2313              	.LFE274:
 2314              		.size	cmd_mem, .-cmd_mem
 2315              		.section	.rodata
 2316              		.align	2
 2317              	.LC59:
 2318 05ec 55736167 		.ascii	"Usage: threads\015\012\000"
 2318      653A2074 
 2318      68726561 
 2318      64730D0A 
 2318      00
 2319 05fd 000000   		.align	2
 2320              	.LC60:
 2321 0600 20202020 		.ascii	"        addr        stack prio refs         state\015"
 2321      20202020 
 2321      61646472 
 2321      20202020 
 2321      20202020 
 2322 0632 0A00     		.ascii	"\012\000"
 2323              		.align	2
 2324              	.LC61:
 2325 0634 2530386C 		.ascii	"%08lx %08lx %4lu %4lu %9s\015\012\000"
 2325      78202530 
 2325      386C7820 
 2325      25346C75 
 2325      2025346C 
 2326              		.section	.text.cmd_threads,"ax",%progbits
 2327              		.align	1
 2328              		.p2align 4,,15
 2329              		.syntax unified
 2330              		.thumb
 2331              		.thumb_func
 2332              		.fpu fpv4-sp-d16
 2333              		.type	cmd_threads, %function
 2334              	cmd_threads:
 2335              	.LFB275:
 2336              		.loc 7 367 0
 2337              		.cfi_startproc
 2338              		@ args = 0, pretend = 0, frame = 24
ARM GAS  C:\Users\Moi\AppData\Local\Temp\cchaECY7.s 			page 46


 2339              		@ frame_needed = 0, uses_anonymous_args = 0
 2340 0000 30B5     		push	{r4, r5, lr}
 2341              		.cfi_def_cfa_offset 12
 2342              		.cfi_offset 4, -12
 2343              		.cfi_offset 5, -8
 2344              		.cfi_offset 14, -4
 2345 0002 8BB0     		sub	sp, sp, #44
 2346              		.cfi_def_cfa_offset 56
 2347 0004 0790     		str	r0, [sp, #28]
 2348 0006 0691     		str	r1, [sp, #24]
 2349 0008 0592     		str	r2, [sp, #20]
 2350              		.loc 7 367 0
 2351 000a 1E4B     		ldr	r3, .L157
 2352 000c 1B68     		ldr	r3, [r3]
 2353 000e 0993     		str	r3, [sp, #36]
 2354              		.loc 7 372 0
 2355 0010 069B     		ldr	r3, [sp, #24]
 2356 0012 002B     		cmp	r3, #0
 2357 0014 04DD     		ble	.L153
 2358              		.loc 7 373 0
 2359 0016 1C49     		ldr	r1, .L157+4
 2360 0018 0798     		ldr	r0, [sp, #28]
 2361 001a FFF7FEFF 		bl	chprintf
 2362              		.loc 7 374 0
 2363 001e 28E0     		b	.L152
 2364              	.L153:
 2365              		.loc 7 376 0
 2366 0020 1A49     		ldr	r1, .L157+8
 2367 0022 0798     		ldr	r0, [sp, #28]
 2368 0024 FFF7FEFF 		bl	chprintf
 2369              		.loc 7 377 0
 2370 0028 FFF7FEFF 		bl	chRegFirstThread
 2371 002c 0890     		str	r0, [sp, #32]
 2372              	.L155:
 2373              		.loc 7 379 0 discriminator 1
 2374 002e 0899     		ldr	r1, [sp, #32]
 2375              		.loc 7 380 0 discriminator 1
 2376 0030 089B     		ldr	r3, [sp, #32]
 2377 0032 DB68     		ldr	r3, [r3, #12]
 2378              		.loc 7 379 0 discriminator 1
 2379 0034 1D46     		mov	r5, r3
 2380              		.loc 7 381 0 discriminator 1
 2381 0036 089B     		ldr	r3, [sp, #32]
 2382 0038 9B68     		ldr	r3, [r3, #8]
 2383 003a 089A     		ldr	r2, [sp, #32]
 2384 003c 92F82220 		ldrb	r2, [r2, #34]	@ zero_extendqisi2
 2385 0040 013A     		subs	r2, r2, #1
 2386              		.loc 7 379 0 discriminator 1
 2387 0042 1046     		mov	r0, r2
 2388              		.loc 7 382 0 discriminator 1
 2389 0044 089A     		ldr	r2, [sp, #32]
 2390 0046 92F82020 		ldrb	r2, [r2, #32]	@ zero_extendqisi2
 2391 004a 1446     		mov	r4, r2
 2392              		.loc 7 379 0 discriminator 1
 2393 004c 104A     		ldr	r2, .L157+12
 2394 004e 52F82420 		ldr	r2, [r2, r4, lsl #2]
 2395 0052 0292     		str	r2, [sp, #8]
ARM GAS  C:\Users\Moi\AppData\Local\Temp\cchaECY7.s 			page 47


 2396 0054 0190     		str	r0, [sp, #4]
 2397 0056 0093     		str	r3, [sp]
 2398 0058 2B46     		mov	r3, r5
 2399 005a 0A46     		mov	r2, r1
 2400 005c 0D49     		ldr	r1, .L157+16
 2401 005e 0798     		ldr	r0, [sp, #28]
 2402 0060 FFF7FEFF 		bl	chprintf
 2403              		.loc 7 383 0 discriminator 1
 2404 0064 0898     		ldr	r0, [sp, #32]
 2405 0066 FFF7FEFF 		bl	chRegNextThread
 2406 006a 0890     		str	r0, [sp, #32]
 2407              		.loc 7 384 0 discriminator 1
 2408 006c 089B     		ldr	r3, [sp, #32]
 2409 006e 002B     		cmp	r3, #0
 2410 0070 DDD1     		bne	.L155
 2411              	.L152:
 2412              		.loc 7 385 0
 2413 0072 044B     		ldr	r3, .L157
 2414 0074 099A     		ldr	r2, [sp, #36]
 2415 0076 1B68     		ldr	r3, [r3]
 2416 0078 9A42     		cmp	r2, r3
 2417 007a 01D0     		beq	.L156
 2418 007c FFF7FEFF 		bl	__stack_chk_fail
 2419              	.L156:
 2420 0080 0BB0     		add	sp, sp, #44
 2421              		.cfi_def_cfa_offset 12
 2422              		@ sp needed
 2423 0082 30BD     		pop	{r4, r5, pc}
 2424              	.L158:
 2425              		.align	2
 2426              	.L157:
 2427 0084 00000000 		.word	__stack_chk_guard
 2428 0088 EC050000 		.word	.LC59
 2429 008c 00060000 		.word	.LC60
 2430 0090 00000000 		.word	states.13326
 2431 0094 34060000 		.word	.LC61
 2432              		.cfi_endproc
 2433              	.LFE275:
 2434              		.size	cmd_threads, .-cmd_threads
 2435              		.section	.rodata
 2436              		.align	2
 2437              	.LC62:
 2438 0650 55736167 		.ascii	"Usage: test\015\012\000"
 2438      653A2074 
 2438      6573740D 
 2438      0A00
 2439 065e 0000     		.align	2
 2440              	.LC63:
 2441 0660 6F757420 		.ascii	"out of memory\015\012\000"
 2441      6F66206D 
 2441      656D6F72 
 2441      790D0A00 
 2442              		.section	.text.cmd_test,"ax",%progbits
 2443              		.align	1
 2444              		.p2align 4,,15
 2445              		.syntax unified
 2446              		.thumb
ARM GAS  C:\Users\Moi\AppData\Local\Temp\cchaECY7.s 			page 48


 2447              		.thumb_func
 2448              		.fpu fpv4-sp-d16
 2449              		.type	cmd_test, %function
 2450              	cmd_test:
 2451              	.LFB276:
 2452              		.loc 7 388 0
 2453              		.cfi_startproc
 2454              		@ args = 0, pretend = 0, frame = 24
 2455              		@ frame_needed = 0, uses_anonymous_args = 0
 2456 0000 00B5     		push	{lr}
 2457              		.cfi_def_cfa_offset 4
 2458              		.cfi_offset 14, -4
 2459 0002 89B0     		sub	sp, sp, #36
 2460              		.cfi_def_cfa_offset 40
 2461 0004 0590     		str	r0, [sp, #20]
 2462 0006 0491     		str	r1, [sp, #16]
 2463 0008 0392     		str	r2, [sp, #12]
 2464              		.loc 7 388 0
 2465 000a 164B     		ldr	r3, .L164
 2466 000c 1B68     		ldr	r3, [r3]
 2467 000e 0793     		str	r3, [sp, #28]
 2468              		.loc 7 392 0
 2469 0010 049B     		ldr	r3, [sp, #16]
 2470 0012 002B     		cmp	r3, #0
 2471 0014 04DD     		ble	.L160
 2472              		.loc 7 393 0
 2473 0016 1449     		ldr	r1, .L164+4
 2474 0018 0598     		ldr	r0, [sp, #20]
 2475 001a FFF7FEFF 		bl	chprintf
 2476              		.loc 7 394 0
 2477 001e 16E0     		b	.L159
 2478              	.L160:
 2479              		.loc 7 396 0
 2480 0020 FFF7FEFF 		bl	chThdGetPriorityX
 2481 0024 0246     		mov	r2, r0
 2482 0026 059B     		ldr	r3, [sp, #20]
 2483 0028 0093     		str	r3, [sp]
 2484 002a 104B     		ldr	r3, .L164+8
 2485 002c 4FF41E71 		mov	r1, #632
 2486 0030 0020     		movs	r0, #0
 2487 0032 FFF7FEFF 		bl	chThdCreateFromHeap
 2488 0036 0690     		str	r0, [sp, #24]
 2489              		.loc 7 398 0
 2490 0038 069B     		ldr	r3, [sp, #24]
 2491 003a 002B     		cmp	r3, #0
 2492 003c 04D1     		bne	.L162
 2493              		.loc 7 399 0
 2494 003e 0C49     		ldr	r1, .L164+12
 2495 0040 0598     		ldr	r0, [sp, #20]
 2496 0042 FFF7FEFF 		bl	chprintf
 2497              		.loc 7 400 0
 2498 0046 02E0     		b	.L159
 2499              	.L162:
 2500              		.loc 7 402 0
 2501 0048 0698     		ldr	r0, [sp, #24]
 2502 004a FFF7FEFF 		bl	chThdWait
 2503              	.L159:
ARM GAS  C:\Users\Moi\AppData\Local\Temp\cchaECY7.s 			page 49


 2504              		.loc 7 403 0
 2505 004e 054B     		ldr	r3, .L164
 2506 0050 079A     		ldr	r2, [sp, #28]
 2507 0052 1B68     		ldr	r3, [r3]
 2508 0054 9A42     		cmp	r2, r3
 2509 0056 01D0     		beq	.L163
 2510 0058 FFF7FEFF 		bl	__stack_chk_fail
 2511              	.L163:
 2512 005c 09B0     		add	sp, sp, #36
 2513              		.cfi_def_cfa_offset 4
 2514              		@ sp needed
 2515 005e 5DF804FB 		ldr	pc, [sp], #4
 2516              	.L165:
 2517 0062 00BF     		.align	2
 2518              	.L164:
 2519 0064 00000000 		.word	__stack_chk_guard
 2520 0068 50060000 		.word	.LC62
 2521 006c 00000000 		.word	TestThread
 2522 0070 60060000 		.word	.LC63
 2523              		.cfi_endproc
 2524              	.LFE276:
 2525              		.size	cmd_test, .-cmd_test
 2526              		.section	.rodata
 2527              		.align	2
 2528              	.LC64:
 2529 0670 53595343 		.ascii	"SYSCLK: %i \012 HCLK: %i \012 PCLK1  %i \012 PCLK2 "
 2529      4C4B3A20 
 2529      2569200A 
 2529      2048434C 
 2529      4B3A2025 
 2530 069a 2569200A 		.ascii	"%i \012\000"
 2530      00
 2531              		.section	.text.cmd_readclock,"ax",%progbits
 2532              		.align	1
 2533              		.p2align 4,,15
 2534              		.syntax unified
 2535              		.thumb
 2536              		.thumb_func
 2537              		.fpu fpv4-sp-d16
 2538              		.type	cmd_readclock, %function
 2539              	cmd_readclock:
 2540              	.LFB277:
 2541              		.loc 7 406 0
 2542              		.cfi_startproc
 2543              		@ args = 0, pretend = 0, frame = 24
 2544              		@ frame_needed = 0, uses_anonymous_args = 0
 2545 0000 00B5     		push	{lr}
 2546              		.cfi_def_cfa_offset 4
 2547              		.cfi_offset 14, -4
 2548 0002 89B0     		sub	sp, sp, #36
 2549              		.cfi_def_cfa_offset 40
 2550 0004 0590     		str	r0, [sp, #20]
 2551 0006 0491     		str	r1, [sp, #16]
 2552 0008 0392     		str	r2, [sp, #12]
 2553              		.loc 7 406 0
 2554 000a 0C4B     		ldr	r3, .L168
 2555 000c 1B68     		ldr	r3, [r3]
ARM GAS  C:\Users\Moi\AppData\Local\Temp\cchaECY7.s 			page 50


 2556 000e 0793     		str	r3, [sp, #28]
 2557              		.loc 7 409 0
 2558 0010 0B4B     		ldr	r3, .L168+4
 2559 0012 0193     		str	r3, [sp, #4]
 2560 0014 0B4B     		ldr	r3, .L168+8
 2561 0016 0093     		str	r3, [sp]
 2562 0018 0B4B     		ldr	r3, .L168+12
 2563 001a 0B4A     		ldr	r2, .L168+12
 2564 001c 0B49     		ldr	r1, .L168+16
 2565 001e 0598     		ldr	r0, [sp, #20]
 2566 0020 FFF7FEFF 		bl	chprintf
 2567              		.loc 7 411 0
 2568 0024 00BF     		nop
 2569 0026 054B     		ldr	r3, .L168
 2570 0028 079A     		ldr	r2, [sp, #28]
 2571 002a 1B68     		ldr	r3, [r3]
 2572 002c 9A42     		cmp	r2, r3
 2573 002e 01D0     		beq	.L167
 2574 0030 FFF7FEFF 		bl	__stack_chk_fail
 2575              	.L167:
 2576 0034 09B0     		add	sp, sp, #36
 2577              		.cfi_def_cfa_offset 4
 2578              		@ sp needed
 2579 0036 5DF804FB 		ldr	pc, [sp], #4
 2580              	.L169:
 2581 003a 00BF     		.align	2
 2582              	.L168:
 2583 003c 00000000 		.word	__stack_chk_guard
 2584 0040 00BD0105 		.word	84000000
 2585 0044 80DE8002 		.word	42000000
 2586 0048 007A030A 		.word	168000000
 2587 004c 70060000 		.word	.LC64
 2588              		.cfi_endproc
 2589              	.LFE277:
 2590              		.size	cmd_readclock, .-cmd_readclock
 2591              		.section	.rodata
 2592 069f 00       		.align	2
 2593              	.LC65:
 2594 06a0 55736167 		.ascii	"Usage: sqrt mode int\015\012Modes: m (math), a (ass"
 2594      653A2073 
 2594      71727420 
 2594      6D6F6465 
 2594      20696E74 
 2595 06cd 656D626C 		.ascii	"embler) is default mode\015\012\000"
 2595      65722920 
 2595      69732064 
 2595      65666175 
 2595      6C74206D 
 2596 06e7 00       		.align	2
 2597              	.LC66:
 2598 06e8 6D00     		.ascii	"m\000"
 2599 06ea 0000     		.align	2
 2600              	.LC67:
 2601 06ec 73717274 		.ascii	"sqrt(%u) = %u \015\012\000"
 2601      28257529 
 2601      203D2025 
 2601      75200D0A 
ARM GAS  C:\Users\Moi\AppData\Local\Temp\cchaECY7.s 			page 51


 2601      00
 2602 06fd 000000   		.align	2
 2603              	.LC68:
 2604 0700 74696D65 		.ascii	"time: %u \015\012\000"
 2604      3A202575 
 2604      200D0A00 
 2605              		.section	.text.cmd_sqrt,"ax",%progbits
 2606              		.align	1
 2607              		.p2align 4,,15
 2608              		.syntax unified
 2609              		.thumb
 2610              		.thumb_func
 2611              		.fpu fpv4-sp-d16
 2612              		.type	cmd_sqrt, %function
 2613              	cmd_sqrt:
 2614              	.LFB278:
 2615              		.loc 7 414 0
 2616              		.cfi_startproc
 2617              		@ args = 0, pretend = 0, frame = 56
 2618              		@ frame_needed = 0, uses_anonymous_args = 0
 2619 0000 00B5     		push	{lr}
 2620              		.cfi_def_cfa_offset 4
 2621              		.cfi_offset 14, -4
 2622 0002 8FB0     		sub	sp, sp, #60
 2623              		.cfi_def_cfa_offset 64
 2624 0004 0390     		str	r0, [sp, #12]
 2625 0006 0291     		str	r1, [sp, #8]
 2626 0008 0192     		str	r2, [sp, #4]
 2627              		.loc 7 414 0
 2628 000a 3E4B     		ldr	r3, .L177
 2629 000c 1B68     		ldr	r3, [r3]
 2630 000e 0D93     		str	r3, [sp, #52]
 2631              		.loc 7 418 0
 2632 0010 06AB     		add	r3, sp, #24
 2633 0012 1846     		mov	r0, r3
 2634 0014 FFF7FEFF 		bl	chTMObjectInit
 2635              		.loc 7 420 0
 2636 0018 029B     		ldr	r3, [sp, #8]
 2637 001a 022B     		cmp	r3, #2
 2638 001c 04D0     		beq	.L171
 2639              		.loc 7 421 0
 2640 001e 3A49     		ldr	r1, .L177+4
 2641 0020 0398     		ldr	r0, [sp, #12]
 2642 0022 FFF7FEFF 		bl	chprintf
 2643              		.loc 7 448 0
 2644 0026 61E0     		b	.L176
 2645              	.L171:
 2646              		.loc 7 424 0
 2647 0028 019B     		ldr	r3, [sp, #4]
 2648 002a 0433     		adds	r3, r3, #4
 2649 002c 1B68     		ldr	r3, [r3]
 2650 002e 1846     		mov	r0, r3
 2651 0030 FFF7FEFF 		bl	atoi
 2652 0034 0346     		mov	r3, r0
 2653 0036 ADF81230 		strh	r3, [sp, #18]	@ movhi
 2654              		.loc 7 426 0
 2655 003a 019B     		ldr	r3, [sp, #4]
ARM GAS  C:\Users\Moi\AppData\Local\Temp\cchaECY7.s 			page 52


 2656 003c 1B68     		ldr	r3, [r3]
 2657 003e 3349     		ldr	r1, .L177+8
 2658 0040 1846     		mov	r0, r3
 2659 0042 FFF7FEFF 		bl	strcmp
 2660 0046 0346     		mov	r3, r0
 2661 0048 002B     		cmp	r3, #0
 2662 004a 1ED1     		bne	.L173
 2663              		.loc 7 427 0
 2664 004c FFF7FEFF 		bl	chSysLock
 2665              		.loc 7 428 0
 2666 0050 06AB     		add	r3, sp, #24
 2667 0052 1846     		mov	r0, r3
 2668 0054 FFF7FEFF 		bl	chTMStartMeasurementX
 2669              		.loc 7 429 0
 2670 0058 BDF81230 		ldrh	r3, [sp, #18]
 2671 005c 07EE903A 		vmov	s15, r3	@ int
 2672 0060 F8EE677A 		vcvt.f32.u32	s15, s15
 2673 0064 B0EE670A 		vmov.f32	s0, s15
 2674 0068 FFF7FEFF 		bl	sqrtf
 2675 006c F0EE407A 		vmov.f32	s15, s0
 2676 0070 FCEEE77A 		vcvt.u32.f32	s15, s15
 2677 0074 17EE903A 		vmov	r3, s15	@ int
 2678 0078 ADF81030 		strh	r3, [sp, #16]	@ movhi
 2679              		.loc 7 430 0
 2680 007c 06AB     		add	r3, sp, #24
 2681 007e 1846     		mov	r0, r3
 2682 0080 FFF7FEFF 		bl	chTMStopMeasurementX
 2683              		.loc 7 431 0
 2684 0084 FFF7FEFF 		bl	chSysUnlock
 2685 0088 22E0     		b	.L174
 2686              	.L173:
 2687              		.loc 7 433 0
 2688 008a FFF7FEFF 		bl	chSysLock
 2689              		.loc 7 434 0
 2690 008e 06AB     		add	r3, sp, #24
 2691 0090 1846     		mov	r0, r3
 2692 0092 FFF7FEFF 		bl	chTMStartMeasurementX
 2693              		.loc 7 435 0
 2694 0096 BDF81230 		ldrh	r3, [sp, #18]
 2695 009a 07EE903A 		vmov	s15, r3	@ int
 2696 009e F8EE677A 		vcvt.f32.u32	s15, s15
 2697 00a2 CDED057A 		vstr.32	s15, [sp, #20]
 2698              		.loc 7 436 0
 2699 00a6 059B     		ldr	r3, [sp, #20]	@ float
 2700 00a8 07EE903A 		vmov	s15, r3
 2701              		.syntax unified
 2702              	@ 436 "..//src/cmd.c" 1
 2703 00ac F1EEE77A 		vsqrt.f32 s15, s15
 2704              	@ 0 "" 2
 2705              		.thumb
 2706              		.syntax unified
 2707 00b0 CDED057A 		vstr.32	s15, [sp, #20]
 2708              		.loc 7 440 0
 2709 00b4 DDED057A 		vldr.32	s15, [sp, #20]
 2710 00b8 FCEEE77A 		vcvt.u32.f32	s15, s15
 2711 00bc 17EE903A 		vmov	r3, s15	@ int
 2712 00c0 ADF81030 		strh	r3, [sp, #16]	@ movhi
ARM GAS  C:\Users\Moi\AppData\Local\Temp\cchaECY7.s 			page 53


 2713              		.loc 7 441 0
 2714 00c4 06AB     		add	r3, sp, #24
 2715 00c6 1846     		mov	r0, r3
 2716 00c8 FFF7FEFF 		bl	chTMStopMeasurementX
 2717              		.loc 7 442 0
 2718 00cc FFF7FEFF 		bl	chSysUnlock
 2719              	.L174:
 2720              		.loc 7 445 0
 2721 00d0 BDF81220 		ldrh	r2, [sp, #18]
 2722 00d4 BDF81030 		ldrh	r3, [sp, #16]
 2723 00d8 0D49     		ldr	r1, .L177+12
 2724 00da 0398     		ldr	r0, [sp, #12]
 2725 00dc FFF7FEFF 		bl	chprintf
 2726              		.loc 7 446 0
 2727 00e0 089B     		ldr	r3, [sp, #32]
 2728 00e2 1A46     		mov	r2, r3
 2729 00e4 0B49     		ldr	r1, .L177+16
 2730 00e6 0398     		ldr	r0, [sp, #12]
 2731 00e8 FFF7FEFF 		bl	chprintf
 2732              	.L176:
 2733              		.loc 7 448 0
 2734 00ec 00BF     		nop
 2735 00ee 054B     		ldr	r3, .L177
 2736 00f0 0D9A     		ldr	r2, [sp, #52]
 2737 00f2 1B68     		ldr	r3, [r3]
 2738 00f4 9A42     		cmp	r2, r3
 2739 00f6 01D0     		beq	.L175
 2740 00f8 FFF7FEFF 		bl	__stack_chk_fail
 2741              	.L175:
 2742 00fc 0FB0     		add	sp, sp, #60
 2743              		.cfi_def_cfa_offset 4
 2744              		@ sp needed
 2745 00fe 5DF804FB 		ldr	pc, [sp], #4
 2746              	.L178:
 2747 0102 00BF     		.align	2
 2748              	.L177:
 2749 0104 00000000 		.word	__stack_chk_guard
 2750 0108 A0060000 		.word	.LC65
 2751 010c E8060000 		.word	.LC66
 2752 0110 EC060000 		.word	.LC67
 2753 0114 00070000 		.word	.LC68
 2754              		.cfi_endproc
 2755              	.LFE278:
 2756              		.size	cmd_sqrt, .-cmd_sqrt
 2757              		.section	.rodata
 2758              		.align	2
 2759              	.LC69:
 2760 070c 55736167 		.ascii	"Usage: atan2 mode a b\015\012Modes: m (math) is def"
 2760      653A2061 
 2760      74616E32 
 2760      206D6F64 
 2760      65206120 
 2761 0739 61756C74 		.ascii	"ault mode\015\012\000"
 2761      206D6F64 
 2761      650D0A00 
 2762 0745 000000   		.align	2
 2763              	.LC70:
ARM GAS  C:\Users\Moi\AppData\Local\Temp\cchaECY7.s 			page 54


 2764 0748 6174616E 		.ascii	"atan2(%d, %d) = %d \015\012\000"
 2764      32282564 
 2764      2C202564 
 2764      29203D20 
 2764      2564200D 
 2765              		.section	.text.cmd_atan2,"ax",%progbits
 2766              		.align	1
 2767              		.p2align 4,,15
 2768              		.syntax unified
 2769              		.thumb
 2770              		.thumb_func
 2771              		.fpu fpv4-sp-d16
 2772              		.type	cmd_atan2, %function
 2773              	cmd_atan2:
 2774              	.LFB279:
 2775              		.loc 7 452 0
 2776              		.cfi_startproc
 2777              		@ args = 0, pretend = 0, frame = 56
 2778              		@ frame_needed = 0, uses_anonymous_args = 0
 2779 0000 00B5     		push	{lr}
 2780              		.cfi_def_cfa_offset 4
 2781              		.cfi_offset 14, -4
 2782 0002 91B0     		sub	sp, sp, #68
 2783              		.cfi_def_cfa_offset 72
 2784 0004 0590     		str	r0, [sp, #20]
 2785 0006 0491     		str	r1, [sp, #16]
 2786 0008 0392     		str	r2, [sp, #12]
 2787              		.loc 7 452 0
 2788 000a 364B     		ldr	r3, .L184
 2789 000c 1B68     		ldr	r3, [r3]
 2790 000e 0F93     		str	r3, [sp, #60]
 2791              		.loc 7 455 0
 2792 0010 08AB     		add	r3, sp, #32
 2793 0012 1846     		mov	r0, r3
 2794 0014 FFF7FEFF 		bl	chTMObjectInit
 2795              		.loc 7 457 0
 2796 0018 049B     		ldr	r3, [sp, #16]
 2797 001a 032B     		cmp	r3, #3
 2798 001c 04D0     		beq	.L180
 2799              		.loc 7 458 0
 2800 001e 3249     		ldr	r1, .L184+4
 2801 0020 0598     		ldr	r0, [sp, #20]
 2802 0022 FFF7FEFF 		bl	chprintf
 2803              		.loc 7 473 0
 2804 0026 51E0     		b	.L183
 2805              	.L180:
 2806              		.loc 7 460 0
 2807 0028 039B     		ldr	r3, [sp, #12]
 2808 002a 0433     		adds	r3, r3, #4
 2809 002c 1B68     		ldr	r3, [r3]
 2810 002e 1846     		mov	r0, r3
 2811 0030 FFF7FEFF 		bl	atoi
 2812 0034 0346     		mov	r3, r0
 2813 0036 ADF81A30 		strh	r3, [sp, #26]	@ movhi
 2814              		.loc 7 461 0
 2815 003a 039B     		ldr	r3, [sp, #12]
 2816 003c 0833     		adds	r3, r3, #8
ARM GAS  C:\Users\Moi\AppData\Local\Temp\cchaECY7.s 			page 55


 2817 003e 1B68     		ldr	r3, [r3]
 2818 0040 1846     		mov	r0, r3
 2819 0042 FFF7FEFF 		bl	atoi
 2820 0046 0346     		mov	r3, r0
 2821 0048 ADF81C30 		strh	r3, [sp, #28]	@ movhi
 2822              		.loc 7 463 0
 2823 004c FFF7FEFF 		bl	chSysLock
 2824              		.loc 7 464 0
 2825 0050 08AB     		add	r3, sp, #32
 2826 0052 1846     		mov	r0, r3
 2827 0054 FFF7FEFF 		bl	chTMStartMeasurementX
 2828              		.loc 7 465 0
 2829 0058 BDF91A30 		ldrsh	r3, [sp, #26]
 2830 005c 07EE903A 		vmov	s15, r3	@ int
 2831 0060 F8EEE77A 		vcvt.f32.s32	s15, s15
 2832 0064 BDF91C30 		ldrsh	r3, [sp, #28]
 2833 0068 07EE103A 		vmov	s14, r3	@ int
 2834 006c B8EEC77A 		vcvt.f32.s32	s14, s14
 2835 0070 F0EE470A 		vmov.f32	s1, s14
 2836 0074 B0EE670A 		vmov.f32	s0, s15
 2837 0078 FFF7FEFF 		bl	atan2f
 2838 007c B0EE407A 		vmov.f32	s14, s0
 2839 0080 DFED1A7A 		vldr.32	s15, .L184+8
 2840 0084 27EE277A 		vmul.f32	s14, s14, s15
 2841 0088 DFED196A 		vldr.32	s13, .L184+12
 2842 008c C7EE267A 		vdiv.f32	s15, s14, s13
 2843 0090 FDEEE77A 		vcvt.s32.f32	s15, s15
 2844 0094 17EE903A 		vmov	r3, s15	@ int
 2845 0098 ADF81E30 		strh	r3, [sp, #30]	@ movhi
 2846              		.loc 7 466 0
 2847 009c 08AB     		add	r3, sp, #32
 2848 009e 1846     		mov	r0, r3
 2849 00a0 FFF7FEFF 		bl	chTMStopMeasurementX
 2850              		.loc 7 467 0
 2851 00a4 FFF7FEFF 		bl	chSysUnlock
 2852              		.loc 7 470 0
 2853 00a8 BDF91A20 		ldrsh	r2, [sp, #26]
 2854 00ac BDF91C10 		ldrsh	r1, [sp, #28]
 2855 00b0 BDF91E30 		ldrsh	r3, [sp, #30]
 2856 00b4 0093     		str	r3, [sp]
 2857 00b6 0B46     		mov	r3, r1
 2858 00b8 0E49     		ldr	r1, .L184+16
 2859 00ba 0598     		ldr	r0, [sp, #20]
 2860 00bc FFF7FEFF 		bl	chprintf
 2861              		.loc 7 471 0
 2862 00c0 0A9B     		ldr	r3, [sp, #40]
 2863 00c2 1A46     		mov	r2, r3
 2864 00c4 0C49     		ldr	r1, .L184+20
 2865 00c6 0598     		ldr	r0, [sp, #20]
 2866 00c8 FFF7FEFF 		bl	chprintf
 2867              	.L183:
 2868              		.loc 7 473 0
 2869 00cc 00BF     		nop
 2870 00ce 054B     		ldr	r3, .L184
 2871 00d0 0F9A     		ldr	r2, [sp, #60]
 2872 00d2 1B68     		ldr	r3, [r3]
 2873 00d4 9A42     		cmp	r2, r3
ARM GAS  C:\Users\Moi\AppData\Local\Temp\cchaECY7.s 			page 56


 2874 00d6 01D0     		beq	.L182
 2875 00d8 FFF7FEFF 		bl	__stack_chk_fail
 2876              	.L182:
 2877 00dc 11B0     		add	sp, sp, #68
 2878              		.cfi_def_cfa_offset 4
 2879              		@ sp needed
 2880 00de 5DF804FB 		ldr	pc, [sp], #4
 2881              	.L185:
 2882 00e2 00BF     		.align	2
 2883              	.L184:
 2884 00e4 00000000 		.word	__stack_chk_guard
 2885 00e8 0C070000 		.word	.LC69
 2886 00ec 00000047 		.word	1191182336
 2887 00f0 DB0F4940 		.word	1078530011
 2888 00f4 48070000 		.word	.LC70
 2889 00f8 00070000 		.word	.LC68
 2890              		.cfi_endproc
 2891              	.LFE279:
 2892              		.size	cmd_atan2, .-cmd_atan2
 2893              		.section	.rodata
 2894 075e 0000     		.align	2
 2895              	.LC71:
 2896 0760 202000   		.ascii	"  \000"
 2897              		.section	.text.tree_indent,"ax",%progbits
 2898              		.align	1
 2899              		.p2align 4,,15
 2900              		.syntax unified
 2901              		.thumb
 2902              		.thumb_func
 2903              		.fpu fpv4-sp-d16
 2904              		.type	tree_indent, %function
 2905              	tree_indent:
 2906              	.LFB280:
 2907              		.loc 7 476 0
 2908              		.cfi_startproc
 2909              		@ args = 0, pretend = 0, frame = 16
 2910              		@ frame_needed = 0, uses_anonymous_args = 0
 2911 0000 00B5     		push	{lr}
 2912              		.cfi_def_cfa_offset 4
 2913              		.cfi_offset 14, -4
 2914 0002 85B0     		sub	sp, sp, #20
 2915              		.cfi_def_cfa_offset 24
 2916 0004 0190     		str	r0, [sp, #4]
 2917 0006 0091     		str	r1, [sp]
 2918              		.loc 7 476 0
 2919 0008 0D4B     		ldr	r3, .L190
 2920 000a 1B68     		ldr	r3, [r3]
 2921 000c 0393     		str	r3, [sp, #12]
 2922              		.loc 7 478 0
 2923 000e 0023     		movs	r3, #0
 2924 0010 0293     		str	r3, [sp, #8]
 2925 0012 06E0     		b	.L187
 2926              	.L188:
 2927              		.loc 7 479 0 discriminator 3
 2928 0014 0B49     		ldr	r1, .L190+4
 2929 0016 0198     		ldr	r0, [sp, #4]
 2930 0018 FFF7FEFF 		bl	chprintf
ARM GAS  C:\Users\Moi\AppData\Local\Temp\cchaECY7.s 			page 57


 2931              		.loc 7 478 0 discriminator 3
 2932 001c 029B     		ldr	r3, [sp, #8]
 2933 001e 0133     		adds	r3, r3, #1
 2934 0020 0293     		str	r3, [sp, #8]
 2935              	.L187:
 2936              		.loc 7 478 0 is_stmt 0 discriminator 1
 2937 0022 029A     		ldr	r2, [sp, #8]
 2938 0024 009B     		ldr	r3, [sp]
 2939 0026 9A42     		cmp	r2, r3
 2940 0028 F4DB     		blt	.L188
 2941              		.loc 7 481 0 is_stmt 1
 2942 002a 00BF     		nop
 2943 002c 044B     		ldr	r3, .L190
 2944 002e 039A     		ldr	r2, [sp, #12]
 2945 0030 1B68     		ldr	r3, [r3]
 2946 0032 9A42     		cmp	r2, r3
 2947 0034 01D0     		beq	.L189
 2948 0036 FFF7FEFF 		bl	__stack_chk_fail
 2949              	.L189:
 2950 003a 05B0     		add	sp, sp, #20
 2951              		.cfi_def_cfa_offset 4
 2952              		@ sp needed
 2953 003c 5DF804FB 		ldr	pc, [sp], #4
 2954              	.L191:
 2955              		.align	2
 2956              	.L190:
 2957 0040 00000000 		.word	__stack_chk_guard
 2958 0044 60070000 		.word	.LC71
 2959              		.cfi_endproc
 2960              	.LFE280:
 2961              		.size	tree_indent, .-tree_indent
 2962              		.section	.rodata
 2963 0763 00       		.align	2
 2964              	.LC72:
 2965 0764 25733A0D 		.ascii	"%s:\015\012\000"
 2965      0A00
 2966              		.global	__aeabi_f2d
 2967 076a 0000     		.align	2
 2968              	.LC73:
 2969 076c 25733A20 		.ascii	"%s: %f\015\012\000"
 2969      25660D0A 
 2969      00
 2970 0775 000000   		.align	2
 2971              	.LC74:
 2972 0778 25733A20 		.ascii	"%s: %d\015\012\000"
 2972      25640D0A 
 2972      00
 2973 0781 000000   		.align	2
 2974              	.LC75:
 2975 0784 74727565 		.ascii	"true\000"
 2975      00
 2976 0789 000000   		.align	2
 2977              	.LC76:
 2978 078c 66616C73 		.ascii	"false\000"
 2978      6500
 2979 0792 0000     		.align	2
 2980              	.LC77:
ARM GAS  C:\Users\Moi\AppData\Local\Temp\cchaECY7.s 			page 58


 2981 0794 25733A20 		.ascii	"%s: %s\015\012\000"
 2981      25730D0A 
 2981      00
 2982 079d 000000   		.align	2
 2983              	.LC78:
 2984 07a0 25733A20 		.ascii	"%s: unknown type %d\015\012\000"
 2984      756E6B6E 
 2984      6F776E20 
 2984      74797065 
 2984      2025640D 
 2985 07b6 0000     		.align	2
 2986              	.LC79:
 2987 07b8 25733A20 		.ascii	"%s: [not set]\015\012\000"
 2987      5B6E6F74 
 2987      20736574 
 2987      5D0D0A00 
 2988              		.section	.text.show_config_tree,"ax",%progbits
 2989              		.align	1
 2990              		.p2align 4,,15
 2991              		.syntax unified
 2992              		.thumb
 2993              		.thumb_func
 2994              		.fpu fpv4-sp-d16
 2995              		.type	show_config_tree, %function
 2996              	show_config_tree:
 2997              	.LFB281:
 2998              		.loc 7 484 0
 2999              		.cfi_startproc
 3000              		@ args = 0, pretend = 0, frame = 88
 3001              		@ frame_needed = 0, uses_anonymous_args = 0
 3002 0000 30B5     		push	{r4, r5, lr}
 3003              		.cfi_def_cfa_offset 12
 3004              		.cfi_offset 4, -12
 3005              		.cfi_offset 5, -8
 3006              		.cfi_offset 14, -4
 3007 0002 99B0     		sub	sp, sp, #100
 3008              		.cfi_def_cfa_offset 112
 3009 0004 0590     		str	r0, [sp, #20]
 3010 0006 0491     		str	r1, [sp, #16]
 3011 0008 0392     		str	r2, [sp, #12]
 3012              		.loc 7 484 0
 3013 000a 534B     		ldr	r3, .L210
 3014 000c 1B68     		ldr	r3, [r3]
 3015 000e 1793     		str	r3, [sp, #92]
 3016              		.loc 7 488 0
 3017 0010 0399     		ldr	r1, [sp, #12]
 3018 0012 0598     		ldr	r0, [sp, #20]
 3019 0014 FFF7FEFF 		bl	tree_indent
 3020              		.loc 7 489 0
 3021 0018 049B     		ldr	r3, [sp, #16]
 3022 001a 1B68     		ldr	r3, [r3]
 3023 001c 1A46     		mov	r2, r3
 3024 001e 4F49     		ldr	r1, .L210+4
 3025 0020 0598     		ldr	r0, [sp, #20]
 3026 0022 FFF7FEFF 		bl	chprintf
 3027              		.loc 7 491 0
 3028 0026 049B     		ldr	r3, [sp, #16]
ARM GAS  C:\Users\Moi\AppData\Local\Temp\cchaECY7.s 			page 59


 3029 0028 5B69     		ldr	r3, [r3, #20]
 3030 002a 0693     		str	r3, [sp, #24]
 3031 002c 6FE0     		b	.L193
 3032              	.L205:
 3033              		.loc 7 492 0
 3034 002e 039B     		ldr	r3, [sp, #12]
 3035 0030 0133     		adds	r3, r3, #1
 3036 0032 1946     		mov	r1, r3
 3037 0034 0598     		ldr	r0, [sp, #20]
 3038 0036 FFF7FEFF 		bl	tree_indent
 3039              		.loc 7 493 0
 3040 003a 0698     		ldr	r0, [sp, #24]
 3041 003c FFF7FEFF 		bl	parameter_defined
 3042 0040 0346     		mov	r3, r0
 3043 0042 002B     		cmp	r3, #0
 3044 0044 59D0     		beq	.L194
 3045              		.loc 7 494 0
 3046 0046 069B     		ldr	r3, [sp, #24]
 3047 0048 9B7B     		ldrb	r3, [r3, #14]	@ zero_extendqisi2
 3048 004a 013B     		subs	r3, r3, #1
 3049 004c 032B     		cmp	r3, #3
 3050 004e 4AD8     		bhi	.L195
 3051 0050 01A2     		adr	r2, .L197
 3052 0052 52F823F0 		ldr	pc, [r2, r3, lsl #2]
 3053 0056 00BF     		.p2align 2
 3054              	.L197:
 3055 0058 69000000 		.word	.L196+1
 3056 005c A9000000 		.word	.L198+1
 3057 0060 91000000 		.word	.L199+1
 3058 0064 CB000000 		.word	.L200+1
 3059              		.p2align 1
 3060              	.L196:
 3061              		.loc 7 496 0
 3062 0068 069B     		ldr	r3, [sp, #24]
 3063 006a 1D68     		ldr	r5, [r3]
 3064 006c 0698     		ldr	r0, [sp, #24]
 3065 006e FFF7FEFF 		bl	parameter_scalar_get
 3066 0072 10EE103A 		vmov	r3, s0
 3067 0076 1846     		mov	r0, r3	@ float
 3068 0078 FFF7FEFF 		bl	__aeabi_f2d
 3069              	.LVL0:
 3070 007c 0346     		mov	r3, r0
 3071 007e 0C46     		mov	r4, r1
 3072 0080 CDE90034 		strd	r3, [sp]
 3073 0084 2A46     		mov	r2, r5
 3074 0086 3649     		ldr	r1, .L210+8
 3075 0088 0598     		ldr	r0, [sp, #20]
 3076 008a FFF7FEFF 		bl	chprintf
 3077              		.loc 7 497 0
 3078 008e 3BE0     		b	.L204
 3079              	.L199:
 3080              		.loc 7 500 0
 3081 0090 069B     		ldr	r3, [sp, #24]
 3082 0092 1C68     		ldr	r4, [r3]
 3083 0094 0698     		ldr	r0, [sp, #24]
 3084 0096 FFF7FEFF 		bl	parameter_integer_get
 3085 009a 0346     		mov	r3, r0
ARM GAS  C:\Users\Moi\AppData\Local\Temp\cchaECY7.s 			page 60


 3086 009c 2246     		mov	r2, r4
 3087 009e 3149     		ldr	r1, .L210+12
 3088 00a0 0598     		ldr	r0, [sp, #20]
 3089 00a2 FFF7FEFF 		bl	chprintf
 3090              		.loc 7 501 0
 3091 00a6 2FE0     		b	.L204
 3092              	.L198:
 3093              		.loc 7 504 0
 3094 00a8 069B     		ldr	r3, [sp, #24]
 3095 00aa 1C68     		ldr	r4, [r3]
 3096 00ac 0698     		ldr	r0, [sp, #24]
 3097 00ae FFF7FEFF 		bl	parameter_boolean_get
 3098 00b2 0346     		mov	r3, r0
 3099 00b4 002B     		cmp	r3, #0
 3100 00b6 01D0     		beq	.L202
 3101              		.loc 7 504 0 is_stmt 0 discriminator 1
 3102 00b8 2B4B     		ldr	r3, .L210+16
 3103 00ba 00E0     		b	.L203
 3104              	.L202:
 3105              		.loc 7 504 0 discriminator 2
 3106 00bc 2B4B     		ldr	r3, .L210+20
 3107              	.L203:
 3108              		.loc 7 504 0 discriminator 4
 3109 00be 2246     		mov	r2, r4
 3110 00c0 2B49     		ldr	r1, .L210+24
 3111 00c2 0598     		ldr	r0, [sp, #20]
 3112 00c4 FFF7FEFF 		bl	chprintf
 3113              		.loc 7 505 0 is_stmt 1 discriminator 4
 3114 00c8 1EE0     		b	.L204
 3115              	.L200:
 3116              		.loc 7 508 0
 3117 00ca 07AB     		add	r3, sp, #28
 3118 00cc 4022     		movs	r2, #64
 3119 00ce 1946     		mov	r1, r3
 3120 00d0 0698     		ldr	r0, [sp, #24]
 3121 00d2 FFF7FEFF 		bl	parameter_string_get
 3122              		.loc 7 509 0
 3123 00d6 069B     		ldr	r3, [sp, #24]
 3124 00d8 1A68     		ldr	r2, [r3]
 3125 00da 07AB     		add	r3, sp, #28
 3126 00dc 2449     		ldr	r1, .L210+24
 3127 00de 0598     		ldr	r0, [sp, #20]
 3128 00e0 FFF7FEFF 		bl	chprintf
 3129              		.loc 7 510 0
 3130 00e4 10E0     		b	.L204
 3131              	.L195:
 3132              		.loc 7 513 0
 3133 00e6 069B     		ldr	r3, [sp, #24]
 3134 00e8 1A68     		ldr	r2, [r3]
 3135 00ea 069B     		ldr	r3, [sp, #24]
 3136 00ec 9B7B     		ldrb	r3, [r3, #14]	@ zero_extendqisi2
 3137 00ee 2149     		ldr	r1, .L210+28
 3138 00f0 0598     		ldr	r0, [sp, #20]
 3139 00f2 FFF7FEFF 		bl	chprintf
 3140              		.loc 7 514 0
 3141 00f6 00BF     		nop
 3142 00f8 06E0     		b	.L204
ARM GAS  C:\Users\Moi\AppData\Local\Temp\cchaECY7.s 			page 61


 3143              	.L194:
 3144              		.loc 7 517 0
 3145 00fa 069B     		ldr	r3, [sp, #24]
 3146 00fc 1B68     		ldr	r3, [r3]
 3147 00fe 1A46     		mov	r2, r3
 3148 0100 1D49     		ldr	r1, .L210+32
 3149 0102 0598     		ldr	r0, [sp, #20]
 3150 0104 FFF7FEFF 		bl	chprintf
 3151              	.L204:
 3152              		.loc 7 491 0 discriminator 2
 3153 0108 069B     		ldr	r3, [sp, #24]
 3154 010a 9B68     		ldr	r3, [r3, #8]
 3155 010c 0693     		str	r3, [sp, #24]
 3156              	.L193:
 3157              		.loc 7 491 0 is_stmt 0 discriminator 1
 3158 010e 069B     		ldr	r3, [sp, #24]
 3159 0110 002B     		cmp	r3, #0
 3160 0112 8CD1     		bne	.L205
 3161              		.loc 7 521 0 is_stmt 1
 3162 0114 049B     		ldr	r3, [sp, #16]
 3163 0116 DB68     		ldr	r3, [r3, #12]
 3164 0118 002B     		cmp	r3, #0
 3165 011a 07D0     		beq	.L206
 3166              		.loc 7 522 0
 3167 011c 049B     		ldr	r3, [sp, #16]
 3168 011e D968     		ldr	r1, [r3, #12]
 3169 0120 039B     		ldr	r3, [sp, #12]
 3170 0122 0133     		adds	r3, r3, #1
 3171 0124 1A46     		mov	r2, r3
 3172 0126 0598     		ldr	r0, [sp, #20]
 3173 0128 FFF76AFF 		bl	show_config_tree
 3174              	.L206:
 3175              		.loc 7 525 0
 3176 012c 049B     		ldr	r3, [sp, #16]
 3177 012e 1B69     		ldr	r3, [r3, #16]
 3178 0130 002B     		cmp	r3, #0
 3179 0132 06D0     		beq	.L209
 3180              		.loc 7 526 0
 3181 0134 049B     		ldr	r3, [sp, #16]
 3182 0136 1B69     		ldr	r3, [r3, #16]
 3183 0138 039A     		ldr	r2, [sp, #12]
 3184 013a 1946     		mov	r1, r3
 3185 013c 0598     		ldr	r0, [sp, #20]
 3186 013e FFF75FFF 		bl	show_config_tree
 3187              	.L209:
 3188              		.loc 7 528 0
 3189 0142 00BF     		nop
 3190 0144 044B     		ldr	r3, .L210
 3191 0146 179A     		ldr	r2, [sp, #92]
 3192 0148 1B68     		ldr	r3, [r3]
 3193 014a 9A42     		cmp	r2, r3
 3194 014c 01D0     		beq	.L208
 3195 014e FFF7FEFF 		bl	__stack_chk_fail
 3196              	.L208:
 3197 0152 19B0     		add	sp, sp, #100
 3198              		.cfi_def_cfa_offset 12
 3199              		@ sp needed
ARM GAS  C:\Users\Moi\AppData\Local\Temp\cchaECY7.s 			page 62


 3200 0154 30BD     		pop	{r4, r5, pc}
 3201              	.L211:
 3202 0156 00BF     		.align	2
 3203              	.L210:
 3204 0158 00000000 		.word	__stack_chk_guard
 3205 015c 64070000 		.word	.LC72
 3206 0160 6C070000 		.word	.LC73
 3207 0164 78070000 		.word	.LC74
 3208 0168 84070000 		.word	.LC75
 3209 016c 8C070000 		.word	.LC76
 3210 0170 94070000 		.word	.LC77
 3211 0174 A0070000 		.word	.LC78
 3212 0178 B8070000 		.word	.LC79
 3213              		.cfi_endproc
 3214              	.LFE281:
 3215              		.size	show_config_tree, .-show_config_tree
 3216              		.section	.rodata
 3217              		.align	2
 3218              	.LC80:
 3219 07c8 43616E6E 		.ascii	"Cannot find subtree.\015\012\000"
 3219      6F742066 
 3219      696E6420 
 3219      73756274 
 3219      7265652E 
 3220              		.section	.text.cmd_config_tree,"ax",%progbits
 3221              		.align	1
 3222              		.p2align 4,,15
 3223              		.syntax unified
 3224              		.thumb
 3225              		.thumb_func
 3226              		.fpu fpv4-sp-d16
 3227              		.type	cmd_config_tree, %function
 3228              	cmd_config_tree:
 3229              	.LFB282:
 3230              		.loc 7 531 0
 3231              		.cfi_startproc
 3232              		@ args = 0, pretend = 0, frame = 24
 3233              		@ frame_needed = 0, uses_anonymous_args = 0
 3234 0000 00B5     		push	{lr}
 3235              		.cfi_def_cfa_offset 4
 3236              		.cfi_offset 14, -4
 3237 0002 87B0     		sub	sp, sp, #28
 3238              		.cfi_def_cfa_offset 32
 3239 0004 0390     		str	r0, [sp, #12]
 3240 0006 0291     		str	r1, [sp, #8]
 3241 0008 0192     		str	r2, [sp, #4]
 3242              		.loc 7 531 0
 3243 000a 134B     		ldr	r3, .L217
 3244 000c 1B68     		ldr	r3, [r3]
 3245 000e 0593     		str	r3, [sp, #20]
 3246              		.loc 7 533 0
 3247 0010 029B     		ldr	r3, [sp, #8]
 3248 0012 012B     		cmp	r3, #1
 3249 0014 02D0     		beq	.L213
 3250              		.loc 7 534 0
 3251 0016 114B     		ldr	r3, .L217+4
 3252 0018 0493     		str	r3, [sp, #16]
ARM GAS  C:\Users\Moi\AppData\Local\Temp\cchaECY7.s 			page 63


 3253 001a 0EE0     		b	.L214
 3254              	.L213:
 3255              		.loc 7 536 0
 3256 001c 019B     		ldr	r3, [sp, #4]
 3257 001e 1B68     		ldr	r3, [r3]
 3258 0020 1946     		mov	r1, r3
 3259 0022 0E48     		ldr	r0, .L217+4
 3260 0024 FFF7FEFF 		bl	parameter_namespace_find
 3261 0028 0490     		str	r0, [sp, #16]
 3262              		.loc 7 537 0
 3263 002a 049B     		ldr	r3, [sp, #16]
 3264 002c 002B     		cmp	r3, #0
 3265 002e 04D1     		bne	.L214
 3266              		.loc 7 538 0
 3267 0030 0B49     		ldr	r1, .L217+8
 3268 0032 0398     		ldr	r0, [sp, #12]
 3269 0034 FFF7FEFF 		bl	chprintf
 3270              		.loc 7 539 0
 3271 0038 04E0     		b	.L212
 3272              	.L214:
 3273              		.loc 7 543 0
 3274 003a 0022     		movs	r2, #0
 3275 003c 0499     		ldr	r1, [sp, #16]
 3276 003e 0398     		ldr	r0, [sp, #12]
 3277 0040 FFF7FEFF 		bl	show_config_tree
 3278              	.L212:
 3279              		.loc 7 544 0
 3280 0044 044B     		ldr	r3, .L217
 3281 0046 059A     		ldr	r2, [sp, #20]
 3282 0048 1B68     		ldr	r3, [r3]
 3283 004a 9A42     		cmp	r2, r3
 3284 004c 01D0     		beq	.L216
 3285 004e FFF7FEFF 		bl	__stack_chk_fail
 3286              	.L216:
 3287 0052 07B0     		add	sp, sp, #28
 3288              		.cfi_def_cfa_offset 4
 3289              		@ sp needed
 3290 0054 5DF804FB 		ldr	pc, [sp], #4
 3291              	.L218:
 3292              		.align	2
 3293              	.L217:
 3294 0058 00000000 		.word	__stack_chk_guard
 3295 005c 00000000 		.word	parameter_root
 3296 0060 C8070000 		.word	.LC80
 3297              		.cfi_endproc
 3298              	.LFE282:
 3299              		.size	cmd_config_tree, .-cmd_config_tree
 3300              		.section	.rodata
 3301 07df 00       		.align	2
 3302              	.LC81:
 3303 07e0 55736167 		.ascii	"Usage: config_set /parameter/url value.\015\012\000"
 3303      653A2063 
 3303      6F6E6669 
 3303      675F7365 
 3303      74202F70 
 3304 080a 0000     		.align	2
 3305              	.LC82:
ARM GAS  C:\Users\Moi\AppData\Local\Temp\cchaECY7.s 			page 64


 3306 080c 436F756C 		.ascii	"Could not find parameter \"%s\"\015\012\000"
 3306      64206E6F 
 3306      74206669 
 3306      6E642070 
 3306      6172616D 
 3307              		.align	2
 3308              	.LC83:
 3309 082c 256400   		.ascii	"%d\000"
 3310 082f 00       		.align	2
 3311              	.LC84:
 3312 0830 496E7661 		.ascii	"Invalid value for integer parameter.\015\012\000"
 3312      6C696420 
 3312      76616C75 
 3312      6520666F 
 3312      7220696E 
 3313 0857 00       		.align	2
 3314              	.LC85:
 3315 0858 496E7661 		.ascii	"Invalid value for boolean parameter, must be true o"
 3315      6C696420 
 3315      76616C75 
 3315      6520666F 
 3315      7220626F 
 3316 088b 72206661 		.ascii	"r false.\015\012\000"
 3316      6C73652E 
 3316      0D0A00
 3317 0896 0000     		.align	2
 3318              	.LC86:
 3319 0898 496E7661 		.ascii	"Invalid value for string parameter, must not use sp"
 3319      6C696420 
 3319      76616C75 
 3319      6520666F 
 3319      72207374 
 3320 08cb 61636573 		.ascii	"aces.\015\012\000"
 3320      2E0D0A00 
 3321              		.section	.text.cmd_config_set,"ax",%progbits
 3322              		.align	1
 3323              		.p2align 4,,15
 3324              		.syntax unified
 3325              		.thumb
 3326              		.thumb_func
 3327              		.fpu fpv4-sp-d16
 3328              		.type	cmd_config_set, %function
 3329              	cmd_config_set:
 3330              	.LFB283:
 3331              		.loc 7 547 0
 3332              		.cfi_startproc
 3333              		@ args = 0, pretend = 0, frame = 32
 3334              		@ frame_needed = 0, uses_anonymous_args = 0
 3335 0000 00B5     		push	{lr}
 3336              		.cfi_def_cfa_offset 4
 3337              		.cfi_offset 14, -4
 3338 0002 89B0     		sub	sp, sp, #36
 3339              		.cfi_def_cfa_offset 40
 3340 0004 0390     		str	r0, [sp, #12]
 3341 0006 0291     		str	r1, [sp, #8]
 3342 0008 0192     		str	r2, [sp, #4]
 3343              		.loc 7 547 0
ARM GAS  C:\Users\Moi\AppData\Local\Temp\cchaECY7.s 			page 65


 3344 000a 414B     		ldr	r3, .L238
 3345 000c 1B68     		ldr	r3, [r3]
 3346 000e 0793     		str	r3, [sp, #28]
 3347              		.loc 7 551 0
 3348 0010 029B     		ldr	r3, [sp, #8]
 3349 0012 022B     		cmp	r3, #2
 3350 0014 04D0     		beq	.L220
 3351              		.loc 7 552 0
 3352 0016 3F49     		ldr	r1, .L238+4
 3353 0018 0398     		ldr	r0, [sp, #12]
 3354 001a FFF7FEFF 		bl	chprintf
 3355              		.loc 7 553 0
 3356 001e 6CE0     		b	.L219
 3357              	.L220:
 3358              		.loc 7 556 0
 3359 0020 019B     		ldr	r3, [sp, #4]
 3360 0022 1B68     		ldr	r3, [r3]
 3361 0024 1946     		mov	r1, r3
 3362 0026 3C48     		ldr	r0, .L238+8
 3363 0028 FFF7FEFF 		bl	parameter_find
 3364 002c 0690     		str	r0, [sp, #24]
 3365              		.loc 7 558 0
 3366 002e 069B     		ldr	r3, [sp, #24]
 3367 0030 002B     		cmp	r3, #0
 3368 0032 07D1     		bne	.L222
 3369              		.loc 7 559 0
 3370 0034 019B     		ldr	r3, [sp, #4]
 3371 0036 1B68     		ldr	r3, [r3]
 3372 0038 1A46     		mov	r2, r3
 3373 003a 3849     		ldr	r1, .L238+12
 3374 003c 0398     		ldr	r0, [sp, #12]
 3375 003e FFF7FEFF 		bl	chprintf
 3376              		.loc 7 560 0
 3377 0042 5AE0     		b	.L219
 3378              	.L222:
 3379              		.loc 7 563 0
 3380 0044 069B     		ldr	r3, [sp, #24]
 3381 0046 9B7B     		ldrb	r3, [r3, #14]	@ zero_extendqisi2
 3382 0048 032B     		cmp	r3, #3
 3383 004a 04D0     		beq	.L224
 3384 004c 042B     		cmp	r3, #4
 3385 004e 3BD0     		beq	.L225
 3386 0050 022B     		cmp	r3, #2
 3387 0052 16D0     		beq	.L226
 3388 0054 48E0     		b	.L237
 3389              	.L224:
 3390              		.loc 7 565 0
 3391 0056 019B     		ldr	r3, [sp, #4]
 3392 0058 0433     		adds	r3, r3, #4
 3393 005a 1B68     		ldr	r3, [r3]
 3394 005c 05AA     		add	r2, sp, #20
 3395 005e 3049     		ldr	r1, .L238+16
 3396 0060 1846     		mov	r0, r3
 3397 0062 FFF7FEFF 		bl	sscanf
 3398 0066 0346     		mov	r3, r0
 3399 0068 012B     		cmp	r3, #1
 3400 006a 05D1     		bne	.L227
ARM GAS  C:\Users\Moi\AppData\Local\Temp\cchaECY7.s 			page 66


 3401              		.loc 7 566 0
 3402 006c 059B     		ldr	r3, [sp, #20]
 3403 006e 1946     		mov	r1, r3
 3404 0070 0698     		ldr	r0, [sp, #24]
 3405 0072 FFF7FEFF 		bl	parameter_integer_set
 3406              		.loc 7 570 0
 3407 0076 40E0     		b	.L219
 3408              	.L227:
 3409              		.loc 7 568 0
 3410 0078 2A49     		ldr	r1, .L238+20
 3411 007a 0398     		ldr	r0, [sp, #12]
 3412 007c FFF7FEFF 		bl	chprintf
 3413              		.loc 7 570 0
 3414 0080 3BE0     		b	.L219
 3415              	.L226:
 3416              		.loc 7 573 0
 3417 0082 019B     		ldr	r3, [sp, #4]
 3418 0084 0433     		adds	r3, r3, #4
 3419 0086 1B68     		ldr	r3, [r3]
 3420 0088 2749     		ldr	r1, .L238+24
 3421 008a 1846     		mov	r0, r3
 3422 008c FFF7FEFF 		bl	strcmp
 3423 0090 0346     		mov	r3, r0
 3424 0092 002B     		cmp	r3, #0
 3425 0094 04D1     		bne	.L230
 3426              		.loc 7 574 0
 3427 0096 0121     		movs	r1, #1
 3428 0098 0698     		ldr	r0, [sp, #24]
 3429 009a FFF7FEFF 		bl	parameter_boolean_set
 3430              		.loc 7 580 0
 3431 009e 2CE0     		b	.L219
 3432              	.L230:
 3433              		.loc 7 575 0
 3434 00a0 019B     		ldr	r3, [sp, #4]
 3435 00a2 0433     		adds	r3, r3, #4
 3436 00a4 1B68     		ldr	r3, [r3]
 3437 00a6 2149     		ldr	r1, .L238+28
 3438 00a8 1846     		mov	r0, r3
 3439 00aa FFF7FEFF 		bl	strcmp
 3440 00ae 0346     		mov	r3, r0
 3441 00b0 002B     		cmp	r3, #0
 3442 00b2 04D1     		bne	.L232
 3443              		.loc 7 576 0
 3444 00b4 0021     		movs	r1, #0
 3445 00b6 0698     		ldr	r0, [sp, #24]
 3446 00b8 FFF7FEFF 		bl	parameter_boolean_set
 3447              		.loc 7 580 0
 3448 00bc 1DE0     		b	.L219
 3449              	.L232:
 3450              		.loc 7 578 0
 3451 00be 1C49     		ldr	r1, .L238+32
 3452 00c0 0398     		ldr	r0, [sp, #12]
 3453 00c2 FFF7FEFF 		bl	chprintf
 3454              		.loc 7 580 0
 3455 00c6 18E0     		b	.L219
 3456              	.L225:
 3457              		.loc 7 583 0
ARM GAS  C:\Users\Moi\AppData\Local\Temp\cchaECY7.s 			page 67


 3458 00c8 029B     		ldr	r3, [sp, #8]
 3459 00ca 022B     		cmp	r3, #2
 3460 00cc 07D1     		bne	.L233
 3461              		.loc 7 584 0
 3462 00ce 019B     		ldr	r3, [sp, #4]
 3463 00d0 0433     		adds	r3, r3, #4
 3464 00d2 1B68     		ldr	r3, [r3]
 3465 00d4 1946     		mov	r1, r3
 3466 00d6 0698     		ldr	r0, [sp, #24]
 3467 00d8 FFF7FEFF 		bl	parameter_string_set
 3468              		.loc 7 588 0
 3469 00dc 0DE0     		b	.L219
 3470              	.L233:
 3471              		.loc 7 586 0
 3472 00de 1549     		ldr	r1, .L238+36
 3473 00e0 0398     		ldr	r0, [sp, #12]
 3474 00e2 FFF7FEFF 		bl	chprintf
 3475              		.loc 7 588 0
 3476 00e6 08E0     		b	.L219
 3477              	.L237:
 3478              		.loc 7 591 0
 3479 00e8 069B     		ldr	r3, [sp, #24]
 3480 00ea 1A68     		ldr	r2, [r3]
 3481 00ec 069B     		ldr	r3, [sp, #24]
 3482 00ee 9B7B     		ldrb	r3, [r3, #14]	@ zero_extendqisi2
 3483 00f0 1149     		ldr	r1, .L238+40
 3484 00f2 0398     		ldr	r0, [sp, #12]
 3485 00f4 FFF7FEFF 		bl	chprintf
 3486              		.loc 7 592 0
 3487 00f8 00BF     		nop
 3488              	.L219:
 3489              		.loc 7 594 0
 3490 00fa 054B     		ldr	r3, .L238
 3491 00fc 079A     		ldr	r2, [sp, #28]
 3492 00fe 1B68     		ldr	r3, [r3]
 3493 0100 9A42     		cmp	r2, r3
 3494 0102 01D0     		beq	.L236
 3495 0104 FFF7FEFF 		bl	__stack_chk_fail
 3496              	.L236:
 3497 0108 09B0     		add	sp, sp, #36
 3498              		.cfi_def_cfa_offset 4
 3499              		@ sp needed
 3500 010a 5DF804FB 		ldr	pc, [sp], #4
 3501              	.L239:
 3502 010e 00BF     		.align	2
 3503              	.L238:
 3504 0110 00000000 		.word	__stack_chk_guard
 3505 0114 E0070000 		.word	.LC81
 3506 0118 00000000 		.word	parameter_root
 3507 011c 0C080000 		.word	.LC82
 3508 0120 2C080000 		.word	.LC83
 3509 0124 30080000 		.word	.LC84
 3510 0128 84070000 		.word	.LC75
 3511 012c 8C070000 		.word	.LC76
 3512 0130 58080000 		.word	.LC85
 3513 0134 98080000 		.word	.LC86
 3514 0138 A0070000 		.word	.LC78
ARM GAS  C:\Users\Moi\AppData\Local\Temp\cchaECY7.s 			page 68


 3515              		.cfi_endproc
 3516              	.LFE283:
 3517              		.size	cmd_config_set, .-cmd_config_set
 3518              		.section	.text.cmd_config_erase,"ax",%progbits
 3519              		.align	1
 3520              		.p2align 4,,15
 3521              		.syntax unified
 3522              		.thumb
 3523              		.thumb_func
 3524              		.fpu fpv4-sp-d16
 3525              		.type	cmd_config_erase, %function
 3526              	cmd_config_erase:
 3527              	.LFB284:
 3528              		.loc 7 597 0
 3529              		.cfi_startproc
 3530              		@ args = 0, pretend = 0, frame = 24
 3531              		@ frame_needed = 0, uses_anonymous_args = 0
 3532 0000 00B5     		push	{lr}
 3533              		.cfi_def_cfa_offset 4
 3534              		.cfi_offset 14, -4
 3535 0002 87B0     		sub	sp, sp, #28
 3536              		.cfi_def_cfa_offset 32
 3537 0004 0390     		str	r0, [sp, #12]
 3538 0006 0291     		str	r1, [sp, #8]
 3539 0008 0192     		str	r2, [sp, #4]
 3540              		.loc 7 597 0
 3541 000a 084B     		ldr	r3, .L242
 3542 000c 1B68     		ldr	r3, [r3]
 3543 000e 0593     		str	r3, [sp, #20]
 3544              		.loc 7 603 0
 3545 0010 0748     		ldr	r0, .L242+4
 3546 0012 FFF7FEFF 		bl	config_erase
 3547              		.loc 7 604 0
 3548 0016 00BF     		nop
 3549 0018 044B     		ldr	r3, .L242
 3550 001a 059A     		ldr	r2, [sp, #20]
 3551 001c 1B68     		ldr	r3, [r3]
 3552 001e 9A42     		cmp	r2, r3
 3553 0020 01D0     		beq	.L241
 3554 0022 FFF7FEFF 		bl	__stack_chk_fail
 3555              	.L241:
 3556 0026 07B0     		add	sp, sp, #28
 3557              		.cfi_def_cfa_offset 4
 3558              		@ sp needed
 3559 0028 5DF804FB 		ldr	pc, [sp], #4
 3560              	.L243:
 3561              		.align	2
 3562              	.L242:
 3563 002c 00000000 		.word	__stack_chk_guard
 3564 0030 00000000 		.word	_config_start
 3565              		.cfi_endproc
 3566              	.LFE284:
 3567              		.size	cmd_config_erase, .-cmd_config_erase
 3568              		.section	.rodata
 3569 08d3 00       		.align	2
 3570              	.LC87:
 3571 08d4 4F4B2E0D 		.ascii	"OK.\015\012\000"
ARM GAS  C:\Users\Moi\AppData\Local\Temp\cchaECY7.s 			page 69


 3571      0A00
 3572 08da 0000     		.align	2
 3573              	.LC88:
 3574 08dc 53617665 		.ascii	"Save failed.\015\012\000"
 3574      20666169 
 3574      6C65642E 
 3574      0D0A00
 3575              		.section	.text.cmd_config_save,"ax",%progbits
 3576              		.align	1
 3577              		.p2align 4,,15
 3578              		.syntax unified
 3579              		.thumb
 3580              		.thumb_func
 3581              		.fpu fpv4-sp-d16
 3582              		.type	cmd_config_save, %function
 3583              	cmd_config_save:
 3584              	.LFB285:
 3585              		.loc 7 607 0
 3586              		.cfi_startproc
 3587              		@ args = 0, pretend = 0, frame = 32
 3588              		@ frame_needed = 0, uses_anonymous_args = 0
 3589 0000 00B5     		push	{lr}
 3590              		.cfi_def_cfa_offset 4
 3591              		.cfi_offset 14, -4
 3592 0002 89B0     		sub	sp, sp, #36
 3593              		.cfi_def_cfa_offset 40
 3594 0004 0390     		str	r0, [sp, #12]
 3595 0006 0291     		str	r1, [sp, #8]
 3596 0008 0192     		str	r2, [sp, #4]
 3597              		.loc 7 607 0
 3598 000a 154B     		ldr	r3, .L249
 3599 000c 1B68     		ldr	r3, [r3]
 3600 000e 0793     		str	r3, [sp, #28]
 3601              		.loc 7 611 0
 3602 0010 144A     		ldr	r2, .L249+4
 3603 0012 154B     		ldr	r3, .L249+8
 3604 0014 D31A     		subs	r3, r2, r3
 3605 0016 0693     		str	r3, [sp, #24]
 3606              		.loc 7 615 0
 3607 0018 144A     		ldr	r2, .L249+12
 3608 001a 0699     		ldr	r1, [sp, #24]
 3609 001c 1248     		ldr	r0, .L249+8
 3610 001e FFF7FEFF 		bl	config_save
 3611              		.loc 7 618 0
 3612 0022 1149     		ldr	r1, .L249+8
 3613 0024 1148     		ldr	r0, .L249+12
 3614 0026 FFF7FEFF 		bl	config_load
 3615 002a 0346     		mov	r3, r0
 3616 002c 8DF81730 		strb	r3, [sp, #23]
 3617              		.loc 7 620 0
 3618 0030 9DF81730 		ldrb	r3, [sp, #23]	@ zero_extendqisi2
 3619 0034 002B     		cmp	r3, #0
 3620 0036 04D0     		beq	.L245
 3621              		.loc 7 621 0
 3622 0038 0D49     		ldr	r1, .L249+16
 3623 003a 0398     		ldr	r0, [sp, #12]
 3624 003c FFF7FEFF 		bl	chprintf
ARM GAS  C:\Users\Moi\AppData\Local\Temp\cchaECY7.s 			page 70


 3625              		.loc 7 625 0
 3626 0040 03E0     		b	.L248
 3627              	.L245:
 3628              		.loc 7 623 0
 3629 0042 0C49     		ldr	r1, .L249+20
 3630 0044 0398     		ldr	r0, [sp, #12]
 3631 0046 FFF7FEFF 		bl	chprintf
 3632              	.L248:
 3633              		.loc 7 625 0
 3634 004a 00BF     		nop
 3635 004c 044B     		ldr	r3, .L249
 3636 004e 079A     		ldr	r2, [sp, #28]
 3637 0050 1B68     		ldr	r3, [r3]
 3638 0052 9A42     		cmp	r2, r3
 3639 0054 01D0     		beq	.L247
 3640 0056 FFF7FEFF 		bl	__stack_chk_fail
 3641              	.L247:
 3642 005a 09B0     		add	sp, sp, #36
 3643              		.cfi_def_cfa_offset 4
 3644              		@ sp needed
 3645 005c 5DF804FB 		ldr	pc, [sp], #4
 3646              	.L250:
 3647              		.align	2
 3648              	.L249:
 3649 0060 00000000 		.word	__stack_chk_guard
 3650 0064 00000000 		.word	_config_end
 3651 0068 00000000 		.word	_config_start
 3652 006c 00000000 		.word	parameter_root
 3653 0070 D4080000 		.word	.LC87
 3654 0074 DC080000 		.word	.LC88
 3655              		.cfi_endproc
 3656              	.LFE285:
 3657              		.size	cmd_config_save, .-cmd_config_save
 3658              		.section	.rodata
 3659 08eb 00       		.align	2
 3660              	.LC89:
 3661 08ec 4C6F6164 		.ascii	"Load failed.\015\012\000"
 3661      20666169 
 3661      6C65642E 
 3661      0D0A00
 3662              		.section	.text.cmd_config_load,"ax",%progbits
 3663              		.align	1
 3664              		.p2align 4,,15
 3665              		.syntax unified
 3666              		.thumb
 3667              		.thumb_func
 3668              		.fpu fpv4-sp-d16
 3669              		.type	cmd_config_load, %function
 3670              	cmd_config_load:
 3671              	.LFB286:
 3672              		.loc 7 628 0
 3673              		.cfi_startproc
 3674              		@ args = 0, pretend = 0, frame = 24
 3675              		@ frame_needed = 0, uses_anonymous_args = 0
 3676 0000 00B5     		push	{lr}
 3677              		.cfi_def_cfa_offset 4
 3678              		.cfi_offset 14, -4
ARM GAS  C:\Users\Moi\AppData\Local\Temp\cchaECY7.s 			page 71


 3679 0002 87B0     		sub	sp, sp, #28
 3680              		.cfi_def_cfa_offset 32
 3681 0004 0390     		str	r0, [sp, #12]
 3682 0006 0291     		str	r1, [sp, #8]
 3683 0008 0192     		str	r2, [sp, #4]
 3684              		.loc 7 628 0
 3685 000a 114B     		ldr	r3, .L256
 3686 000c 1B68     		ldr	r3, [r3]
 3687 000e 0593     		str	r3, [sp, #20]
 3688              		.loc 7 634 0
 3689 0010 1049     		ldr	r1, .L256+4
 3690 0012 1148     		ldr	r0, .L256+8
 3691 0014 FFF7FEFF 		bl	config_load
 3692 0018 0346     		mov	r3, r0
 3693 001a 8DF81330 		strb	r3, [sp, #19]
 3694              		.loc 7 636 0
 3695 001e 9DF81330 		ldrb	r3, [sp, #19]	@ zero_extendqisi2
 3696 0022 002B     		cmp	r3, #0
 3697 0024 04D0     		beq	.L252
 3698              		.loc 7 637 0
 3699 0026 0D49     		ldr	r1, .L256+12
 3700 0028 0398     		ldr	r0, [sp, #12]
 3701 002a FFF7FEFF 		bl	chprintf
 3702              		.loc 7 641 0
 3703 002e 03E0     		b	.L255
 3704              	.L252:
 3705              		.loc 7 639 0
 3706 0030 0B49     		ldr	r1, .L256+16
 3707 0032 0398     		ldr	r0, [sp, #12]
 3708 0034 FFF7FEFF 		bl	chprintf
 3709              	.L255:
 3710              		.loc 7 641 0
 3711 0038 00BF     		nop
 3712 003a 054B     		ldr	r3, .L256
 3713 003c 059A     		ldr	r2, [sp, #20]
 3714 003e 1B68     		ldr	r3, [r3]
 3715 0040 9A42     		cmp	r2, r3
 3716 0042 01D0     		beq	.L254
 3717 0044 FFF7FEFF 		bl	__stack_chk_fail
 3718              	.L254:
 3719 0048 07B0     		add	sp, sp, #28
 3720              		.cfi_def_cfa_offset 4
 3721              		@ sp needed
 3722 004a 5DF804FB 		ldr	pc, [sp], #4
 3723              	.L257:
 3724 004e 00BF     		.align	2
 3725              	.L256:
 3726 0050 00000000 		.word	__stack_chk_guard
 3727 0054 00000000 		.word	_config_start
 3728 0058 00000000 		.word	parameter_root
 3729 005c D4080000 		.word	.LC87
 3730 0060 EC080000 		.word	.LC89
 3731              		.cfi_endproc
 3732              	.LFE286:
 3733              		.size	cmd_config_load, .-cmd_config_load
 3734              		.section	.rodata
 3735 08fb 00       		.align	2
ARM GAS  C:\Users\Moi\AppData\Local\Temp\cchaECY7.s 			page 72


 3736              	.LC90:
 3737 08fc 55736167 		.ascii	"Usage: cam_brightness value.\015\012Default=0, max="
 3737      653A2063 
 3737      616D5F62 
 3737      72696768 
 3737      746E6573 
 3738 0929 3132372C 		.ascii	"127, min=-128.\015\012\000"
 3738      206D696E 
 3738      3D2D3132 
 3738      382E0D0A 
 3738      00
 3739 093a 0000     		.align	2
 3740              	.LC91:
 3741 093c 43616E6E 		.ascii	"Cannot write register (%d)\015\012\000"
 3741      6F742077 
 3741      72697465 
 3741      20726567 
 3741      69737465 
 3742 0959 000000   		.align	2
 3743              	.LC92:
 3744 095c 52656769 		.ascii	"Register written correctly\015\012\000"
 3744      73746572 
 3744      20777269 
 3744      7474656E 
 3744      20636F72 
 3745              		.section	.text.cmd_cam_set_brightness,"ax",%progbits
 3746              		.align	1
 3747              		.p2align 4,,15
 3748              		.syntax unified
 3749              		.thumb
 3750              		.thumb_func
 3751              		.fpu fpv4-sp-d16
 3752              		.type	cmd_cam_set_brightness, %function
 3753              	cmd_cam_set_brightness:
 3754              	.LFB287:
 3755              		.loc 7 644 0
 3756              		.cfi_startproc
 3757              		@ args = 0, pretend = 0, frame = 24
 3758              		@ frame_needed = 0, uses_anonymous_args = 0
 3759 0000 00B5     		push	{lr}
 3760              		.cfi_def_cfa_offset 4
 3761              		.cfi_offset 14, -4
 3762 0002 87B0     		sub	sp, sp, #28
 3763              		.cfi_def_cfa_offset 32
 3764 0004 0390     		str	r0, [sp, #12]
 3765 0006 0291     		str	r1, [sp, #8]
 3766 0008 0192     		str	r2, [sp, #4]
 3767              		.loc 7 644 0
 3768 000a 1B4B     		ldr	r3, .L264
 3769 000c 1B68     		ldr	r3, [r3]
 3770 000e 0593     		str	r3, [sp, #20]
 3771              		.loc 7 647 0
 3772 0010 029B     		ldr	r3, [sp, #8]
 3773 0012 012B     		cmp	r3, #1
 3774 0014 04D0     		beq	.L259
 3775              		.loc 7 648 0
 3776 0016 1949     		ldr	r1, .L264+4
ARM GAS  C:\Users\Moi\AppData\Local\Temp\cchaECY7.s 			page 73


 3777 0018 0398     		ldr	r0, [sp, #12]
 3778 001a FFF7FEFF 		bl	chprintf
 3779              		.loc 7 659 0
 3780 001e 1FE0     		b	.L263
 3781              	.L259:
 3782              		.loc 7 651 0
 3783 0020 019B     		ldr	r3, [sp, #4]
 3784 0022 1B68     		ldr	r3, [r3]
 3785 0024 1846     		mov	r0, r3
 3786 0026 FFF7FEFF 		bl	atoi
 3787 002a 0346     		mov	r3, r0
 3788 002c 8DF81230 		strb	r3, [sp, #18]
 3789              		.loc 7 652 0
 3790 0030 9DF81230 		ldrb	r3, [sp, #18]	@ zero_extendqisi2
 3791 0034 1846     		mov	r0, r3
 3792 0036 FFF7FEFF 		bl	po8030_set_brightness
 3793 003a 0346     		mov	r3, r0
 3794 003c 8DF81330 		strb	r3, [sp, #19]
 3795              		.loc 7 653 0
 3796 0040 9DF91330 		ldrsb	r3, [sp, #19]
 3797 0044 002B     		cmp	r3, #0
 3798 0046 07D0     		beq	.L261
 3799              		.loc 7 654 0
 3800 0048 9DF91330 		ldrsb	r3, [sp, #19]
 3801 004c 1A46     		mov	r2, r3
 3802 004e 0C49     		ldr	r1, .L264+8
 3803 0050 0398     		ldr	r0, [sp, #12]
 3804 0052 FFF7FEFF 		bl	chprintf
 3805              		.loc 7 659 0
 3806 0056 03E0     		b	.L263
 3807              	.L261:
 3808              		.loc 7 656 0
 3809 0058 0A49     		ldr	r1, .L264+12
 3810 005a 0398     		ldr	r0, [sp, #12]
 3811 005c FFF7FEFF 		bl	chprintf
 3812              	.L263:
 3813              		.loc 7 659 0
 3814 0060 00BF     		nop
 3815 0062 054B     		ldr	r3, .L264
 3816 0064 059A     		ldr	r2, [sp, #20]
 3817 0066 1B68     		ldr	r3, [r3]
 3818 0068 9A42     		cmp	r2, r3
 3819 006a 01D0     		beq	.L262
 3820 006c FFF7FEFF 		bl	__stack_chk_fail
 3821              	.L262:
 3822 0070 07B0     		add	sp, sp, #28
 3823              		.cfi_def_cfa_offset 4
 3824              		@ sp needed
 3825 0072 5DF804FB 		ldr	pc, [sp], #4
 3826              	.L265:
 3827 0076 00BF     		.align	2
 3828              	.L264:
 3829 0078 00000000 		.word	__stack_chk_guard
 3830 007c FC080000 		.word	.LC90
 3831 0080 3C090000 		.word	.LC91
 3832 0084 5C090000 		.word	.LC92
 3833              		.cfi_endproc
ARM GAS  C:\Users\Moi\AppData\Local\Temp\cchaECY7.s 			page 74


 3834              	.LFE287:
 3835              		.size	cmd_cam_set_brightness, .-cmd_cam_set_brightness
 3836              		.section	.rodata
 3837 0979 000000   		.align	2
 3838              	.LC93:
 3839 097c 55736167 		.ascii	"Usage: cam_contrast value.\015\012Default=64, max=2"
 3839      653A2063 
 3839      616D5F63 
 3839      6F6E7472 
 3839      61737420 
 3840 09a9 35352C20 		.ascii	"55, min=0.\015\012\000"
 3840      6D696E3D 
 3840      302E0D0A 
 3840      00
 3841              		.section	.text.cmd_cam_set_contrast,"ax",%progbits
 3842              		.align	1
 3843              		.p2align 4,,15
 3844              		.syntax unified
 3845              		.thumb
 3846              		.thumb_func
 3847              		.fpu fpv4-sp-d16
 3848              		.type	cmd_cam_set_contrast, %function
 3849              	cmd_cam_set_contrast:
 3850              	.LFB288:
 3851              		.loc 7 662 0
 3852              		.cfi_startproc
 3853              		@ args = 0, pretend = 0, frame = 24
 3854              		@ frame_needed = 0, uses_anonymous_args = 0
 3855 0000 00B5     		push	{lr}
 3856              		.cfi_def_cfa_offset 4
 3857              		.cfi_offset 14, -4
 3858 0002 87B0     		sub	sp, sp, #28
 3859              		.cfi_def_cfa_offset 32
 3860 0004 0390     		str	r0, [sp, #12]
 3861 0006 0291     		str	r1, [sp, #8]
 3862 0008 0192     		str	r2, [sp, #4]
 3863              		.loc 7 662 0
 3864 000a 1B4B     		ldr	r3, .L272
 3865 000c 1B68     		ldr	r3, [r3]
 3866 000e 0593     		str	r3, [sp, #20]
 3867              		.loc 7 665 0
 3868 0010 029B     		ldr	r3, [sp, #8]
 3869 0012 012B     		cmp	r3, #1
 3870 0014 04D0     		beq	.L267
 3871              		.loc 7 666 0
 3872 0016 1949     		ldr	r1, .L272+4
 3873 0018 0398     		ldr	r0, [sp, #12]
 3874 001a FFF7FEFF 		bl	chprintf
 3875              		.loc 7 677 0
 3876 001e 1FE0     		b	.L271
 3877              	.L267:
 3878              		.loc 7 669 0
 3879 0020 019B     		ldr	r3, [sp, #4]
 3880 0022 1B68     		ldr	r3, [r3]
 3881 0024 1846     		mov	r0, r3
 3882 0026 FFF7FEFF 		bl	atoi
 3883 002a 0346     		mov	r3, r0
ARM GAS  C:\Users\Moi\AppData\Local\Temp\cchaECY7.s 			page 75


 3884 002c 8DF81230 		strb	r3, [sp, #18]
 3885              		.loc 7 670 0
 3886 0030 9DF81230 		ldrb	r3, [sp, #18]	@ zero_extendqisi2
 3887 0034 1846     		mov	r0, r3
 3888 0036 FFF7FEFF 		bl	po8030_set_contrast
 3889 003a 0346     		mov	r3, r0
 3890 003c 8DF81330 		strb	r3, [sp, #19]
 3891              		.loc 7 671 0
 3892 0040 9DF91330 		ldrsb	r3, [sp, #19]
 3893 0044 002B     		cmp	r3, #0
 3894 0046 07D0     		beq	.L269
 3895              		.loc 7 672 0
 3896 0048 9DF91330 		ldrsb	r3, [sp, #19]
 3897 004c 1A46     		mov	r2, r3
 3898 004e 0C49     		ldr	r1, .L272+8
 3899 0050 0398     		ldr	r0, [sp, #12]
 3900 0052 FFF7FEFF 		bl	chprintf
 3901              		.loc 7 677 0
 3902 0056 03E0     		b	.L271
 3903              	.L269:
 3904              		.loc 7 674 0
 3905 0058 0A49     		ldr	r1, .L272+12
 3906 005a 0398     		ldr	r0, [sp, #12]
 3907 005c FFF7FEFF 		bl	chprintf
 3908              	.L271:
 3909              		.loc 7 677 0
 3910 0060 00BF     		nop
 3911 0062 054B     		ldr	r3, .L272
 3912 0064 059A     		ldr	r2, [sp, #20]
 3913 0066 1B68     		ldr	r3, [r3]
 3914 0068 9A42     		cmp	r2, r3
 3915 006a 01D0     		beq	.L270
 3916 006c FFF7FEFF 		bl	__stack_chk_fail
 3917              	.L270:
 3918 0070 07B0     		add	sp, sp, #28
 3919              		.cfi_def_cfa_offset 4
 3920              		@ sp needed
 3921 0072 5DF804FB 		ldr	pc, [sp], #4
 3922              	.L273:
 3923 0076 00BF     		.align	2
 3924              	.L272:
 3925 0078 00000000 		.word	__stack_chk_guard
 3926 007c 7C090000 		.word	.LC93
 3927 0080 3C090000 		.word	.LC91
 3928 0084 5C090000 		.word	.LC92
 3929              		.cfi_endproc
 3930              	.LFE288:
 3931              		.size	cmd_cam_set_contrast, .-cmd_cam_set_contrast
 3932              		.section	.rodata
 3933 09b6 0000     		.align	2
 3934              	.LC94:
 3935 09b8 55736167 		.ascii	"Usage: cam_conf1 format subsampling_x subsampling_y"
 3935      653A2063 
 3935      616D5F63 
 3935      6F6E6631 
 3935      20666F72 
 3936 09eb 0D0A666F 		.ascii	"\015\012format: 0=color, 1=grey\015\012subsampling:"
ARM GAS  C:\Users\Moi\AppData\Local\Temp\cchaECY7.s 			page 76


 3936      726D6174 
 3936      3A20303D 
 3936      636F6C6F 
 3936      722C2031 
 3937 0a12 20312C20 		.ascii	" 1, 2, 4\015\012\000"
 3937      322C2034 
 3937      0D0A00
 3938 0a1d 000000   		.align	2
 3939              	.LC95:
 3940 0a20 52656769 		.ascii	"Registered color format\015\012\000"
 3940      73746572 
 3940      65642063 
 3940      6F6C6F72 
 3940      20666F72 
 3941 0a3a 0000     		.align	2
 3942              	.LC96:
 3943 0a3c 52656769 		.ascii	"Registered greyscale format\015\012\000"
 3943      73746572 
 3943      65642067 
 3943      72657973 
 3943      63616C65 
 3944 0a5a 0000     		.align	2
 3945              	.LC97:
 3946 0a5c 52656769 		.ascii	"Registered x subsampling x1\015\012\000"
 3946      73746572 
 3946      65642078 
 3946      20737562 
 3946      73616D70 
 3947 0a7a 0000     		.align	2
 3948              	.LC98:
 3949 0a7c 52656769 		.ascii	"Registered x subsampling x2\015\012\000"
 3949      73746572 
 3949      65642078 
 3949      20737562 
 3949      73616D70 
 3950 0a9a 0000     		.align	2
 3951              	.LC99:
 3952 0a9c 52656769 		.ascii	"Registered x subsampling x4\015\012\000"
 3952      73746572 
 3952      65642078 
 3952      20737562 
 3952      73616D70 
 3953 0aba 0000     		.align	2
 3954              	.LC100:
 3955 0abc 52656769 		.ascii	"Registered y subsampling x1\015\012\000"
 3955      73746572 
 3955      65642079 
 3955      20737562 
 3955      73616D70 
 3956 0ada 0000     		.align	2
 3957              	.LC101:
 3958 0adc 52656769 		.ascii	"Registered y subsampling x2\015\012\000"
 3958      73746572 
 3958      65642079 
 3958      20737562 
 3958      73616D70 
 3959 0afa 0000     		.align	2
ARM GAS  C:\Users\Moi\AppData\Local\Temp\cchaECY7.s 			page 77


 3960              	.LC102:
 3961 0afc 52656769 		.ascii	"Registered y subsampling x4\015\012\000"
 3961      73746572 
 3961      65642079 
 3961      20737562 
 3961      73616D70 
 3962              		.section	.text.cmd_cam_set_conf1,"ax",%progbits
 3963              		.align	1
 3964              		.p2align 4,,15
 3965              		.syntax unified
 3966              		.thumb
 3967              		.thumb_func
 3968              		.fpu fpv4-sp-d16
 3969              		.type	cmd_cam_set_conf1, %function
 3970              	cmd_cam_set_conf1:
 3971              	.LFB289:
 3972              		.loc 7 680 0
 3973              		.cfi_startproc
 3974              		@ args = 0, pretend = 0, frame = 24
 3975              		@ frame_needed = 0, uses_anonymous_args = 0
 3976 0000 00B5     		push	{lr}
 3977              		.cfi_def_cfa_offset 4
 3978              		.cfi_offset 14, -4
 3979 0002 87B0     		sub	sp, sp, #28
 3980              		.cfi_def_cfa_offset 32
 3981 0004 0390     		str	r0, [sp, #12]
 3982 0006 0291     		str	r1, [sp, #8]
 3983 0008 0192     		str	r2, [sp, #4]
 3984              		.loc 7 680 0
 3985 000a 414B     		ldr	r3, .L286
 3986 000c 1B68     		ldr	r3, [r3]
 3987 000e 0593     		str	r3, [sp, #20]
 3988              		.loc 7 684 0
 3989 0010 029B     		ldr	r3, [sp, #8]
 3990 0012 032B     		cmp	r3, #3
 3991 0014 04D0     		beq	.L275
 3992              		.loc 7 685 0
 3993 0016 3F49     		ldr	r1, .L286+4
 3994 0018 0398     		ldr	r0, [sp, #12]
 3995 001a FFF7FEFF 		bl	chprintf
 3996              		.loc 7 721 0
 3997 001e 6BE0     		b	.L285
 3998              	.L275:
 3999              		.loc 7 688 0
 4000 0020 019B     		ldr	r3, [sp, #4]
 4001 0022 1B68     		ldr	r3, [r3]
 4002 0024 1846     		mov	r0, r3
 4003 0026 FFF7FEFF 		bl	atoi
 4004 002a 0346     		mov	r3, r0
 4005 002c DBB2     		uxtb	r3, r3
 4006 002e ADF81230 		strh	r3, [sp, #18]	@ movhi
 4007              		.loc 7 689 0
 4008 0032 019B     		ldr	r3, [sp, #4]
 4009 0034 0433     		adds	r3, r3, #4
 4010 0036 1B68     		ldr	r3, [r3]
 4011 0038 1846     		mov	r0, r3
 4012 003a FFF7FEFF 		bl	atoi
ARM GAS  C:\Users\Moi\AppData\Local\Temp\cchaECY7.s 			page 78


 4013 003e 0346     		mov	r3, r0
 4014 0040 8DF81030 		strb	r3, [sp, #16]
 4015              		.loc 7 690 0
 4016 0044 019B     		ldr	r3, [sp, #4]
 4017 0046 0833     		adds	r3, r3, #8
 4018 0048 1B68     		ldr	r3, [r3]
 4019 004a 1846     		mov	r0, r3
 4020 004c FFF7FEFF 		bl	atoi
 4021 0050 0346     		mov	r3, r0
 4022 0052 8DF81130 		strb	r3, [sp, #17]
 4023              		.loc 7 692 0
 4024 0056 BDF81230 		ldrh	r3, [sp, #18]
 4025 005a 002B     		cmp	r3, #0
 4026 005c 07D1     		bne	.L277
 4027              		.loc 7 693 0
 4028 005e 2E4B     		ldr	r3, .L286+8
 4029 0060 0222     		movs	r2, #2
 4030 0062 1A70     		strb	r2, [r3]
 4031              		.loc 7 694 0
 4032 0064 2D49     		ldr	r1, .L286+12
 4033 0066 0398     		ldr	r0, [sp, #12]
 4034 0068 FFF7FEFF 		bl	chprintf
 4035 006c 06E0     		b	.L278
 4036              	.L277:
 4037              		.loc 7 696 0
 4038 006e 2A4B     		ldr	r3, .L286+8
 4039 0070 4422     		movs	r2, #68
 4040 0072 1A70     		strb	r2, [r3]
 4041              		.loc 7 697 0
 4042 0074 2A49     		ldr	r1, .L286+16
 4043 0076 0398     		ldr	r0, [sp, #12]
 4044 0078 FFF7FEFF 		bl	chprintf
 4045              	.L278:
 4046              		.loc 7 700 0
 4047 007c 9DF81030 		ldrb	r3, [sp, #16]	@ zero_extendqisi2
 4048 0080 012B     		cmp	r3, #1
 4049 0082 07D1     		bne	.L279
 4050              		.loc 7 701 0
 4051 0084 274B     		ldr	r3, .L286+20
 4052 0086 2022     		movs	r2, #32
 4053 0088 1A70     		strb	r2, [r3]
 4054              		.loc 7 702 0
 4055 008a 2749     		ldr	r1, .L286+24
 4056 008c 0398     		ldr	r0, [sp, #12]
 4057 008e FFF7FEFF 		bl	chprintf
 4058 0092 12E0     		b	.L280
 4059              	.L279:
 4060              		.loc 7 703 0
 4061 0094 9DF81030 		ldrb	r3, [sp, #16]	@ zero_extendqisi2
 4062 0098 022B     		cmp	r3, #2
 4063 009a 07D1     		bne	.L281
 4064              		.loc 7 704 0
 4065 009c 214B     		ldr	r3, .L286+20
 4066 009e 4022     		movs	r2, #64
 4067 00a0 1A70     		strb	r2, [r3]
 4068              		.loc 7 705 0
 4069 00a2 2249     		ldr	r1, .L286+28
ARM GAS  C:\Users\Moi\AppData\Local\Temp\cchaECY7.s 			page 79


 4070 00a4 0398     		ldr	r0, [sp, #12]
 4071 00a6 FFF7FEFF 		bl	chprintf
 4072 00aa 06E0     		b	.L280
 4073              	.L281:
 4074              		.loc 7 707 0
 4075 00ac 1D4B     		ldr	r3, .L286+20
 4076 00ae 8022     		movs	r2, #128
 4077 00b0 1A70     		strb	r2, [r3]
 4078              		.loc 7 708 0
 4079 00b2 1F49     		ldr	r1, .L286+32
 4080 00b4 0398     		ldr	r0, [sp, #12]
 4081 00b6 FFF7FEFF 		bl	chprintf
 4082              	.L280:
 4083              		.loc 7 710 0
 4084 00ba 9DF81130 		ldrb	r3, [sp, #17]	@ zero_extendqisi2
 4085 00be 012B     		cmp	r3, #1
 4086 00c0 07D1     		bne	.L282
 4087              		.loc 7 711 0
 4088 00c2 1C4B     		ldr	r3, .L286+36
 4089 00c4 2022     		movs	r2, #32
 4090 00c6 1A70     		strb	r2, [r3]
 4091              		.loc 7 712 0
 4092 00c8 1B49     		ldr	r1, .L286+40
 4093 00ca 0398     		ldr	r0, [sp, #12]
 4094 00cc FFF7FEFF 		bl	chprintf
 4095              		.loc 7 721 0
 4096 00d0 12E0     		b	.L285
 4097              	.L282:
 4098              		.loc 7 713 0
 4099 00d2 9DF81130 		ldrb	r3, [sp, #17]	@ zero_extendqisi2
 4100 00d6 022B     		cmp	r3, #2
 4101 00d8 07D1     		bne	.L283
 4102              		.loc 7 714 0
 4103 00da 164B     		ldr	r3, .L286+36
 4104 00dc 4022     		movs	r2, #64
 4105 00de 1A70     		strb	r2, [r3]
 4106              		.loc 7 715 0
 4107 00e0 1649     		ldr	r1, .L286+44
 4108 00e2 0398     		ldr	r0, [sp, #12]
 4109 00e4 FFF7FEFF 		bl	chprintf
 4110              		.loc 7 721 0
 4111 00e8 06E0     		b	.L285
 4112              	.L283:
 4113              		.loc 7 717 0
 4114 00ea 124B     		ldr	r3, .L286+36
 4115 00ec 8022     		movs	r2, #128
 4116 00ee 1A70     		strb	r2, [r3]
 4117              		.loc 7 718 0
 4118 00f0 1349     		ldr	r1, .L286+48
 4119 00f2 0398     		ldr	r0, [sp, #12]
 4120 00f4 FFF7FEFF 		bl	chprintf
 4121              	.L285:
 4122              		.loc 7 721 0
 4123 00f8 00BF     		nop
 4124 00fa 054B     		ldr	r3, .L286
 4125 00fc 059A     		ldr	r2, [sp, #20]
 4126 00fe 1B68     		ldr	r3, [r3]
ARM GAS  C:\Users\Moi\AppData\Local\Temp\cchaECY7.s 			page 80


 4127 0100 9A42     		cmp	r2, r3
 4128 0102 01D0     		beq	.L284
 4129 0104 FFF7FEFF 		bl	__stack_chk_fail
 4130              	.L284:
 4131 0108 07B0     		add	sp, sp, #28
 4132              		.cfi_def_cfa_offset 4
 4133              		@ sp needed
 4134 010a 5DF804FB 		ldr	pc, [sp], #4
 4135              	.L287:
 4136 010e 00BF     		.align	2
 4137              	.L286:
 4138 0110 00000000 		.word	__stack_chk_guard
 4139 0114 B8090000 		.word	.LC94
 4140 0118 00000000 		.word	cmd_fmt
 4141 011c 200A0000 		.word	.LC95
 4142 0120 3C0A0000 		.word	.LC96
 4143 0124 00000000 		.word	cmd_subx
 4144 0128 5C0A0000 		.word	.LC97
 4145 012c 7C0A0000 		.word	.LC98
 4146 0130 9C0A0000 		.word	.LC99
 4147 0134 00000000 		.word	cmd_suby
 4148 0138 BC0A0000 		.word	.LC100
 4149 013c DC0A0000 		.word	.LC101
 4150 0140 FC0A0000 		.word	.LC102
 4151              		.cfi_endproc
 4152              	.LFE289:
 4153              		.size	cmd_cam_set_conf1, .-cmd_cam_set_conf1
 4154              		.section	.rodata
 4155 0b1a 0000     		.align	2
 4156              	.LC103:
 4157 0b1c 55736167 		.ascii	"Usage: cam_conf2 x1 y1 width height\015\012\000"
 4157      653A2063 
 4157      616D5F63 
 4157      6F6E6632 
 4157      20783120 
 4158 0b42 0000     		.align	2
 4159              	.LC104:
 4160 0b44 43616E6E 		.ascii	"Cannot set configuration (%d)\015\012\000"
 4160      6F742073 
 4160      65742063 
 4160      6F6E6669 
 4160      67757261 
 4161              		.align	2
 4162              	.LC105:
 4163 0b64 436F6E66 		.ascii	"Configuration set correctly\015\012\000"
 4163      69677572 
 4163      6174696F 
 4163      6E207365 
 4163      7420636F 
 4164              		.section	.text.cmd_cam_set_conf2,"ax",%progbits
 4165              		.align	1
 4166              		.p2align 4,,15
 4167              		.syntax unified
 4168              		.thumb
 4169              		.thumb_func
 4170              		.fpu fpv4-sp-d16
 4171              		.type	cmd_cam_set_conf2, %function
ARM GAS  C:\Users\Moi\AppData\Local\Temp\cchaECY7.s 			page 81


 4172              	cmd_cam_set_conf2:
 4173              	.LFB290:
 4174              		.loc 7 724 0
 4175              		.cfi_startproc
 4176              		@ args = 0, pretend = 0, frame = 24
 4177              		@ frame_needed = 0, uses_anonymous_args = 0
 4178 0000 70B5     		push	{r4, r5, r6, lr}
 4179              		.cfi_def_cfa_offset 16
 4180              		.cfi_offset 4, -16
 4181              		.cfi_offset 5, -12
 4182              		.cfi_offset 6, -8
 4183              		.cfi_offset 14, -4
 4184 0002 8AB0     		sub	sp, sp, #40
 4185              		.cfi_def_cfa_offset 56
 4186 0004 0790     		str	r0, [sp, #28]
 4187 0006 0691     		str	r1, [sp, #24]
 4188 0008 0592     		str	r2, [sp, #20]
 4189              		.loc 7 724 0
 4190 000a 344B     		ldr	r3, .L294
 4191 000c 1B68     		ldr	r3, [r3]
 4192 000e 0993     		str	r3, [sp, #36]
 4193              		.loc 7 727 0
 4194 0010 069B     		ldr	r3, [sp, #24]
 4195 0012 042B     		cmp	r3, #4
 4196 0014 04D0     		beq	.L289
 4197              		.loc 7 728 0
 4198 0016 3249     		ldr	r1, .L294+4
 4199 0018 0798     		ldr	r0, [sp, #28]
 4200 001a FFF7FEFF 		bl	chprintf
 4201              		.loc 7 742 0
 4202 001e 53E0     		b	.L293
 4203              	.L289:
 4204              		.loc 7 730 0
 4205 0020 059B     		ldr	r3, [sp, #20]
 4206 0022 1B68     		ldr	r3, [r3]
 4207 0024 1846     		mov	r0, r3
 4208 0026 FFF7FEFF 		bl	atoi
 4209 002a 0346     		mov	r3, r0
 4210 002c 9AB2     		uxth	r2, r3
 4211 002e 2D4B     		ldr	r3, .L294+8
 4212 0030 1A80     		strh	r2, [r3]	@ movhi
 4213              		.loc 7 731 0
 4214 0032 059B     		ldr	r3, [sp, #20]
 4215 0034 0433     		adds	r3, r3, #4
 4216 0036 1B68     		ldr	r3, [r3]
 4217 0038 1846     		mov	r0, r3
 4218 003a FFF7FEFF 		bl	atoi
 4219 003e 0346     		mov	r3, r0
 4220 0040 9AB2     		uxth	r2, r3
 4221 0042 294B     		ldr	r3, .L294+12
 4222 0044 1A80     		strh	r2, [r3]	@ movhi
 4223              		.loc 7 732 0
 4224 0046 059B     		ldr	r3, [sp, #20]
 4225 0048 0833     		adds	r3, r3, #8
 4226 004a 1B68     		ldr	r3, [r3]
 4227 004c 1846     		mov	r0, r3
 4228 004e FFF7FEFF 		bl	atoi
ARM GAS  C:\Users\Moi\AppData\Local\Temp\cchaECY7.s 			page 82


 4229 0052 0346     		mov	r3, r0
 4230 0054 9AB2     		uxth	r2, r3
 4231 0056 254B     		ldr	r3, .L294+16
 4232 0058 1A80     		strh	r2, [r3]	@ movhi
 4233              		.loc 7 733 0
 4234 005a 059B     		ldr	r3, [sp, #20]
 4235 005c 0C33     		adds	r3, r3, #12
 4236 005e 1B68     		ldr	r3, [r3]
 4237 0060 1846     		mov	r0, r3
 4238 0062 FFF7FEFF 		bl	atoi
 4239 0066 0346     		mov	r3, r0
 4240 0068 9AB2     		uxth	r2, r3
 4241 006a 214B     		ldr	r3, .L294+20
 4242 006c 1A80     		strh	r2, [r3]	@ movhi
 4243              		.loc 7 735 0
 4244 006e 214B     		ldr	r3, .L294+24
 4245 0070 1878     		ldrb	r0, [r3]	@ zero_extendqisi2
 4246 0072 1C4B     		ldr	r3, .L294+8
 4247 0074 1B88     		ldrh	r3, [r3]
 4248 0076 1C46     		mov	r4, r3
 4249 0078 1B4B     		ldr	r3, .L294+12
 4250 007a 1B88     		ldrh	r3, [r3]
 4251 007c 1D46     		mov	r5, r3
 4252 007e 1B4B     		ldr	r3, .L294+16
 4253 0080 1B88     		ldrh	r3, [r3]
 4254 0082 1E46     		mov	r6, r3
 4255 0084 1A4B     		ldr	r3, .L294+20
 4256 0086 1B88     		ldrh	r3, [r3]
 4257 0088 1946     		mov	r1, r3
 4258 008a 1B4B     		ldr	r3, .L294+28
 4259 008c 1B78     		ldrb	r3, [r3]	@ zero_extendqisi2
 4260 008e 1B4A     		ldr	r2, .L294+32
 4261 0090 1278     		ldrb	r2, [r2]	@ zero_extendqisi2
 4262 0092 0292     		str	r2, [sp, #8]
 4263 0094 0193     		str	r3, [sp, #4]
 4264 0096 0091     		str	r1, [sp]
 4265 0098 3346     		mov	r3, r6
 4266 009a 2A46     		mov	r2, r5
 4267 009c 2146     		mov	r1, r4
 4268 009e FFF7FEFF 		bl	po8030_advanced_config
 4269 00a2 0346     		mov	r3, r0
 4270 00a4 8DF82330 		strb	r3, [sp, #35]
 4271              		.loc 7 736 0
 4272 00a8 9DF92330 		ldrsb	r3, [sp, #35]
 4273 00ac 002B     		cmp	r3, #0
 4274 00ae 07D0     		beq	.L291
 4275              		.loc 7 737 0
 4276 00b0 9DF92330 		ldrsb	r3, [sp, #35]
 4277 00b4 1A46     		mov	r2, r3
 4278 00b6 1249     		ldr	r1, .L294+36
 4279 00b8 0798     		ldr	r0, [sp, #28]
 4280 00ba FFF7FEFF 		bl	chprintf
 4281              		.loc 7 742 0
 4282 00be 03E0     		b	.L293
 4283              	.L291:
 4284              		.loc 7 739 0
 4285 00c0 1049     		ldr	r1, .L294+40
ARM GAS  C:\Users\Moi\AppData\Local\Temp\cchaECY7.s 			page 83


 4286 00c2 0798     		ldr	r0, [sp, #28]
 4287 00c4 FFF7FEFF 		bl	chprintf
 4288              	.L293:
 4289              		.loc 7 742 0
 4290 00c8 00BF     		nop
 4291 00ca 044B     		ldr	r3, .L294
 4292 00cc 099A     		ldr	r2, [sp, #36]
 4293 00ce 1B68     		ldr	r3, [r3]
 4294 00d0 9A42     		cmp	r2, r3
 4295 00d2 01D0     		beq	.L292
 4296 00d4 FFF7FEFF 		bl	__stack_chk_fail
 4297              	.L292:
 4298 00d8 0AB0     		add	sp, sp, #40
 4299              		.cfi_def_cfa_offset 16
 4300              		@ sp needed
 4301 00da 70BD     		pop	{r4, r5, r6, pc}
 4302              	.L295:
 4303              		.align	2
 4304              	.L294:
 4305 00dc 00000000 		.word	__stack_chk_guard
 4306 00e0 1C0B0000 		.word	.LC103
 4307 00e4 00000000 		.word	cmd_x1
 4308 00e8 00000000 		.word	cmd_y1
 4309 00ec 00000000 		.word	cmd_width
 4310 00f0 00000000 		.word	cmd_height
 4311 00f4 00000000 		.word	cmd_fmt
 4312 00f8 00000000 		.word	cmd_subx
 4313 00fc 00000000 		.word	cmd_suby
 4314 0100 440B0000 		.word	.LC104
 4315 0104 640B0000 		.word	.LC105
 4316              		.cfi_endproc
 4317              	.LFE290:
 4318              		.size	cmd_cam_set_conf2, .-cmd_cam_set_conf2
 4319              		.section	.rodata
 4320 0b82 0000     		.align	2
 4321              	.LC106:
 4322 0b84 55736167 		.ascii	"Usage: cam_mirror vertical_en horizontal_en\015\012"
 4322      653A2063 
 4322      616D5F6D 
 4322      6972726F 
 4322      72207665 
 4323 0bb1 313D656E 		.ascii	"1=enabled, 0=disabled\015\012\000"
 4323      61626C65 
 4323      642C2030 
 4323      3D646973 
 4323      61626C65 
 4324 0bc9 000000   		.align	2
 4325              	.LC107:
 4326 0bcc 43616E6E 		.ascii	"Cannot set mirroring (%d)\015\012\000"
 4326      6F742073 
 4326      6574206D 
 4326      6972726F 
 4326      72696E67 
 4327              		.align	2
 4328              	.LC108:
 4329 0be8 4D697272 		.ascii	"Mirroring set correctly\015\012\000"
 4329      6F72696E 
ARM GAS  C:\Users\Moi\AppData\Local\Temp\cchaECY7.s 			page 84


 4329      67207365 
 4329      7420636F 
 4329      72726563 
 4330              		.section	.text.cmd_cam_set_mirror,"ax",%progbits
 4331              		.align	1
 4332              		.p2align 4,,15
 4333              		.syntax unified
 4334              		.thumb
 4335              		.thumb_func
 4336              		.fpu fpv4-sp-d16
 4337              		.type	cmd_cam_set_mirror, %function
 4338              	cmd_cam_set_mirror:
 4339              	.LFB291:
 4340              		.loc 7 745 0
 4341              		.cfi_startproc
 4342              		@ args = 0, pretend = 0, frame = 24
 4343              		@ frame_needed = 0, uses_anonymous_args = 0
 4344 0000 00B5     		push	{lr}
 4345              		.cfi_def_cfa_offset 4
 4346              		.cfi_offset 14, -4
 4347 0002 87B0     		sub	sp, sp, #28
 4348              		.cfi_def_cfa_offset 32
 4349 0004 0390     		str	r0, [sp, #12]
 4350 0006 0291     		str	r1, [sp, #8]
 4351 0008 0192     		str	r2, [sp, #4]
 4352              		.loc 7 745 0
 4353 000a 214B     		ldr	r3, .L302
 4354 000c 1B68     		ldr	r3, [r3]
 4355 000e 0593     		str	r3, [sp, #20]
 4356              		.loc 7 749 0
 4357 0010 029B     		ldr	r3, [sp, #8]
 4358 0012 022B     		cmp	r3, #2
 4359 0014 04D0     		beq	.L297
 4360              		.loc 7 750 0
 4361 0016 1F49     		ldr	r1, .L302+4
 4362 0018 0398     		ldr	r0, [sp, #12]
 4363 001a FFF7FEFF 		bl	chprintf
 4364              		.loc 7 763 0
 4365 001e 2BE0     		b	.L301
 4366              	.L297:
 4367              		.loc 7 753 0
 4368 0020 019B     		ldr	r3, [sp, #4]
 4369 0022 1B68     		ldr	r3, [r3]
 4370 0024 1846     		mov	r0, r3
 4371 0026 FFF7FEFF 		bl	atoi
 4372 002a 0346     		mov	r3, r0
 4373 002c 8DF81130 		strb	r3, [sp, #17]
 4374              		.loc 7 754 0
 4375 0030 019B     		ldr	r3, [sp, #4]
 4376 0032 0433     		adds	r3, r3, #4
 4377 0034 1B68     		ldr	r3, [r3]
 4378 0036 1846     		mov	r0, r3
 4379 0038 FFF7FEFF 		bl	atoi
 4380 003c 0346     		mov	r3, r0
 4381 003e 8DF81230 		strb	r3, [sp, #18]
 4382              		.loc 7 756 0
 4383 0042 9DF81220 		ldrb	r2, [sp, #18]	@ zero_extendqisi2
ARM GAS  C:\Users\Moi\AppData\Local\Temp\cchaECY7.s 			page 85


 4384 0046 9DF81130 		ldrb	r3, [sp, #17]	@ zero_extendqisi2
 4385 004a 1146     		mov	r1, r2
 4386 004c 1846     		mov	r0, r3
 4387 004e FFF7FEFF 		bl	po8030_set_mirror
 4388 0052 0346     		mov	r3, r0
 4389 0054 8DF81330 		strb	r3, [sp, #19]
 4390              		.loc 7 757 0
 4391 0058 9DF91330 		ldrsb	r3, [sp, #19]
 4392 005c 002B     		cmp	r3, #0
 4393 005e 07D0     		beq	.L299
 4394              		.loc 7 758 0
 4395 0060 9DF91330 		ldrsb	r3, [sp, #19]
 4396 0064 1A46     		mov	r2, r3
 4397 0066 0C49     		ldr	r1, .L302+8
 4398 0068 0398     		ldr	r0, [sp, #12]
 4399 006a FFF7FEFF 		bl	chprintf
 4400              		.loc 7 763 0
 4401 006e 03E0     		b	.L301
 4402              	.L299:
 4403              		.loc 7 760 0
 4404 0070 0A49     		ldr	r1, .L302+12
 4405 0072 0398     		ldr	r0, [sp, #12]
 4406 0074 FFF7FEFF 		bl	chprintf
 4407              	.L301:
 4408              		.loc 7 763 0
 4409 0078 00BF     		nop
 4410 007a 054B     		ldr	r3, .L302
 4411 007c 059A     		ldr	r2, [sp, #20]
 4412 007e 1B68     		ldr	r3, [r3]
 4413 0080 9A42     		cmp	r2, r3
 4414 0082 01D0     		beq	.L300
 4415 0084 FFF7FEFF 		bl	__stack_chk_fail
 4416              	.L300:
 4417 0088 07B0     		add	sp, sp, #28
 4418              		.cfi_def_cfa_offset 4
 4419              		@ sp needed
 4420 008a 5DF804FB 		ldr	pc, [sp], #4
 4421              	.L303:
 4422 008e 00BF     		.align	2
 4423              	.L302:
 4424 0090 00000000 		.word	__stack_chk_guard
 4425 0094 840B0000 		.word	.LC106
 4426 0098 CC0B0000 		.word	.LC107
 4427 009c E80B0000 		.word	.LC108
 4428              		.cfi_endproc
 4429              	.LFE291:
 4430              		.size	cmd_cam_set_mirror, .-cmd_cam_set_mirror
 4431              		.section	.rodata
 4432 0c02 0000     		.align	2
 4433              	.LC109:
 4434 0c04 55736167 		.ascii	"Usage: cam_gain red_gain green_gain blue_gain\015\012"
 4434      653A2063 
 4434      616D5F67 
 4434      61696E20 
 4434      7265645F 
 4435 0c33 54686973 		.ascii	"This command disable auto white balance.\015\012Def"
 4435      20636F6D 
ARM GAS  C:\Users\Moi\AppData\Local\Temp\cchaECY7.s 			page 86


 4435      6D616E64 
 4435      20646973 
 4435      61626C65 
 4436 0c60 61756C74 		.ascii	"ault: r=94, g=64, b=93\015\012\000"
 4436      3A20723D 
 4436      39342C20 
 4436      673D3634 
 4436      2C20623D 
 4437 0c79 000000   		.align	2
 4438              	.LC110:
 4439 0c7c 43616E6E 		.ascii	"Cannot set gain (%d)\015\012\000"
 4439      6F742073 
 4439      65742067 
 4439      61696E20 
 4439      28256429 
 4440 0c93 00       		.align	2
 4441              	.LC111:
 4442 0c94 4761696E 		.ascii	"Gain set correctly\015\012\000"
 4442      20736574 
 4442      20636F72 
 4442      72656374 
 4442      6C790D0A 
 4443              		.section	.text.cmd_cam_set_gain,"ax",%progbits
 4444              		.align	1
 4445              		.p2align 4,,15
 4446              		.syntax unified
 4447              		.thumb
 4448              		.thumb_func
 4449              		.fpu fpv4-sp-d16
 4450              		.type	cmd_cam_set_gain, %function
 4451              	cmd_cam_set_gain:
 4452              	.LFB292:
 4453              		.loc 7 766 0
 4454              		.cfi_startproc
 4455              		@ args = 0, pretend = 0, frame = 24
 4456              		@ frame_needed = 0, uses_anonymous_args = 0
 4457 0000 00B5     		push	{lr}
 4458              		.cfi_def_cfa_offset 4
 4459              		.cfi_offset 14, -4
 4460 0002 87B0     		sub	sp, sp, #28
 4461              		.cfi_def_cfa_offset 32
 4462 0004 0390     		str	r0, [sp, #12]
 4463 0006 0291     		str	r1, [sp, #8]
 4464 0008 0192     		str	r2, [sp, #4]
 4465              		.loc 7 766 0
 4466 000a 264B     		ldr	r3, .L310
 4467 000c 1B68     		ldr	r3, [r3]
 4468 000e 0593     		str	r3, [sp, #20]
 4469              		.loc 7 770 0
 4470 0010 029B     		ldr	r3, [sp, #8]
 4471 0012 032B     		cmp	r3, #3
 4472 0014 04D0     		beq	.L305
 4473              		.loc 7 771 0
 4474 0016 2449     		ldr	r1, .L310+4
 4475 0018 0398     		ldr	r0, [sp, #12]
 4476 001a FFF7FEFF 		bl	chprintf
 4477              		.loc 7 785 0
ARM GAS  C:\Users\Moi\AppData\Local\Temp\cchaECY7.s 			page 87


 4478 001e 35E0     		b	.L309
 4479              	.L305:
 4480              		.loc 7 774 0
 4481 0020 019B     		ldr	r3, [sp, #4]
 4482 0022 1B68     		ldr	r3, [r3]
 4483 0024 1846     		mov	r0, r3
 4484 0026 FFF7FEFF 		bl	atoi
 4485 002a 0346     		mov	r3, r0
 4486 002c 8DF81030 		strb	r3, [sp, #16]
 4487              		.loc 7 775 0
 4488 0030 019B     		ldr	r3, [sp, #4]
 4489 0032 0433     		adds	r3, r3, #4
 4490 0034 1B68     		ldr	r3, [r3]
 4491 0036 1846     		mov	r0, r3
 4492 0038 FFF7FEFF 		bl	atoi
 4493 003c 0346     		mov	r3, r0
 4494 003e 8DF81130 		strb	r3, [sp, #17]
 4495              		.loc 7 776 0
 4496 0042 019B     		ldr	r3, [sp, #4]
 4497 0044 0833     		adds	r3, r3, #8
 4498 0046 1B68     		ldr	r3, [r3]
 4499 0048 1846     		mov	r0, r3
 4500 004a FFF7FEFF 		bl	atoi
 4501 004e 0346     		mov	r3, r0
 4502 0050 8DF81230 		strb	r3, [sp, #18]
 4503              		.loc 7 778 0
 4504 0054 9DF81220 		ldrb	r2, [sp, #18]	@ zero_extendqisi2
 4505 0058 9DF81110 		ldrb	r1, [sp, #17]	@ zero_extendqisi2
 4506 005c 9DF81030 		ldrb	r3, [sp, #16]	@ zero_extendqisi2
 4507 0060 1846     		mov	r0, r3
 4508 0062 FFF7FEFF 		bl	po8030_set_rgb_gain
 4509 0066 0346     		mov	r3, r0
 4510 0068 8DF81330 		strb	r3, [sp, #19]
 4511              		.loc 7 779 0
 4512 006c 9DF91330 		ldrsb	r3, [sp, #19]
 4513 0070 002B     		cmp	r3, #0
 4514 0072 07D0     		beq	.L307
 4515              		.loc 7 780 0
 4516 0074 9DF91330 		ldrsb	r3, [sp, #19]
 4517 0078 1A46     		mov	r2, r3
 4518 007a 0C49     		ldr	r1, .L310+8
 4519 007c 0398     		ldr	r0, [sp, #12]
 4520 007e FFF7FEFF 		bl	chprintf
 4521              		.loc 7 785 0
 4522 0082 03E0     		b	.L309
 4523              	.L307:
 4524              		.loc 7 782 0
 4525 0084 0A49     		ldr	r1, .L310+12
 4526 0086 0398     		ldr	r0, [sp, #12]
 4527 0088 FFF7FEFF 		bl	chprintf
 4528              	.L309:
 4529              		.loc 7 785 0
 4530 008c 00BF     		nop
 4531 008e 054B     		ldr	r3, .L310
 4532 0090 059A     		ldr	r2, [sp, #20]
 4533 0092 1B68     		ldr	r3, [r3]
 4534 0094 9A42     		cmp	r2, r3
ARM GAS  C:\Users\Moi\AppData\Local\Temp\cchaECY7.s 			page 88


 4535 0096 01D0     		beq	.L308
 4536 0098 FFF7FEFF 		bl	__stack_chk_fail
 4537              	.L308:
 4538 009c 07B0     		add	sp, sp, #28
 4539              		.cfi_def_cfa_offset 4
 4540              		@ sp needed
 4541 009e 5DF804FB 		ldr	pc, [sp], #4
 4542              	.L311:
 4543 00a2 00BF     		.align	2
 4544              	.L310:
 4545 00a4 00000000 		.word	__stack_chk_guard
 4546 00a8 040C0000 		.word	.LC109
 4547 00ac 7C0C0000 		.word	.LC110
 4548 00b0 940C0000 		.word	.LC111
 4549              		.cfi_endproc
 4550              	.LFE292:
 4551              		.size	cmd_cam_set_gain, .-cmd_cam_set_gain
 4552              		.section	.rodata
 4553 0ca9 000000   		.align	2
 4554              	.LC112:
 4555 0cac 55736167 		.ascii	"Usage: cam_awb awb_en.\015\0121=enabled, 0=disabled"
 4555      653A2063 
 4555      616D5F61 
 4555      77622061 
 4555      77625F65 
 4556 0cd9 0D0A00   		.ascii	"\015\012\000"
 4557              		.align	2
 4558              	.LC113:
 4559 0cdc 43616E6E 		.ascii	"Cannot set white balance (%d)\015\012\000"
 4559      6F742073 
 4559      65742077 
 4559      68697465 
 4559      2062616C 
 4560              		.align	2
 4561              	.LC114:
 4562 0cfc 57686974 		.ascii	"White balance set correctly\015\012\000"
 4562      65206261 
 4562      6C616E63 
 4562      65207365 
 4562      7420636F 
 4563              		.section	.text.cmd_cam_set_awb,"ax",%progbits
 4564              		.align	1
 4565              		.p2align 4,,15
 4566              		.syntax unified
 4567              		.thumb
 4568              		.thumb_func
 4569              		.fpu fpv4-sp-d16
 4570              		.type	cmd_cam_set_awb, %function
 4571              	cmd_cam_set_awb:
 4572              	.LFB293:
 4573              		.loc 7 788 0
 4574              		.cfi_startproc
 4575              		@ args = 0, pretend = 0, frame = 24
 4576              		@ frame_needed = 0, uses_anonymous_args = 0
 4577 0000 00B5     		push	{lr}
 4578              		.cfi_def_cfa_offset 4
 4579              		.cfi_offset 14, -4
ARM GAS  C:\Users\Moi\AppData\Local\Temp\cchaECY7.s 			page 89


 4580 0002 87B0     		sub	sp, sp, #28
 4581              		.cfi_def_cfa_offset 32
 4582 0004 0390     		str	r0, [sp, #12]
 4583 0006 0291     		str	r1, [sp, #8]
 4584 0008 0192     		str	r2, [sp, #4]
 4585              		.loc 7 788 0
 4586 000a 1B4B     		ldr	r3, .L318
 4587 000c 1B68     		ldr	r3, [r3]
 4588 000e 0593     		str	r3, [sp, #20]
 4589              		.loc 7 792 0
 4590 0010 029B     		ldr	r3, [sp, #8]
 4591 0012 012B     		cmp	r3, #1
 4592 0014 04D0     		beq	.L313
 4593              		.loc 7 793 0
 4594 0016 1949     		ldr	r1, .L318+4
 4595 0018 0398     		ldr	r0, [sp, #12]
 4596 001a FFF7FEFF 		bl	chprintf
 4597              		.loc 7 805 0
 4598 001e 1FE0     		b	.L317
 4599              	.L313:
 4600              		.loc 7 796 0
 4601 0020 019B     		ldr	r3, [sp, #4]
 4602 0022 1B68     		ldr	r3, [r3]
 4603 0024 1846     		mov	r0, r3
 4604 0026 FFF7FEFF 		bl	atoi
 4605 002a 0346     		mov	r3, r0
 4606 002c 8DF81230 		strb	r3, [sp, #18]
 4607              		.loc 7 798 0
 4608 0030 9DF81230 		ldrb	r3, [sp, #18]	@ zero_extendqisi2
 4609 0034 1846     		mov	r0, r3
 4610 0036 FFF7FEFF 		bl	po8030_set_awb
 4611 003a 0346     		mov	r3, r0
 4612 003c 8DF81330 		strb	r3, [sp, #19]
 4613              		.loc 7 799 0
 4614 0040 9DF91330 		ldrsb	r3, [sp, #19]
 4615 0044 002B     		cmp	r3, #0
 4616 0046 07D0     		beq	.L315
 4617              		.loc 7 800 0
 4618 0048 9DF91330 		ldrsb	r3, [sp, #19]
 4619 004c 1A46     		mov	r2, r3
 4620 004e 0C49     		ldr	r1, .L318+8
 4621 0050 0398     		ldr	r0, [sp, #12]
 4622 0052 FFF7FEFF 		bl	chprintf
 4623              		.loc 7 805 0
 4624 0056 03E0     		b	.L317
 4625              	.L315:
 4626              		.loc 7 802 0
 4627 0058 0A49     		ldr	r1, .L318+12
 4628 005a 0398     		ldr	r0, [sp, #12]
 4629 005c FFF7FEFF 		bl	chprintf
 4630              	.L317:
 4631              		.loc 7 805 0
 4632 0060 00BF     		nop
 4633 0062 054B     		ldr	r3, .L318
 4634 0064 059A     		ldr	r2, [sp, #20]
 4635 0066 1B68     		ldr	r3, [r3]
 4636 0068 9A42     		cmp	r2, r3
ARM GAS  C:\Users\Moi\AppData\Local\Temp\cchaECY7.s 			page 90


 4637 006a 01D0     		beq	.L316
 4638 006c FFF7FEFF 		bl	__stack_chk_fail
 4639              	.L316:
 4640 0070 07B0     		add	sp, sp, #28
 4641              		.cfi_def_cfa_offset 4
 4642              		@ sp needed
 4643 0072 5DF804FB 		ldr	pc, [sp], #4
 4644              	.L319:
 4645 0076 00BF     		.align	2
 4646              	.L318:
 4647 0078 00000000 		.word	__stack_chk_guard
 4648 007c AC0C0000 		.word	.LC112
 4649 0080 DC0C0000 		.word	.LC113
 4650 0084 FC0C0000 		.word	.LC114
 4651              		.cfi_endproc
 4652              	.LFE293:
 4653              		.size	cmd_cam_set_awb, .-cmd_cam_set_awb
 4654              		.section	.rodata
 4655 0d1a 0000     		.align	2
 4656              	.LC115:
 4657 0d1c 55736167 		.ascii	"Usage: cam_ae ae_en.\015\0121=enabled, 0=disabled\015"
 4657      653A2063 
 4657      616D5F61 
 4657      65206165 
 4657      5F656E2E 
 4658 0d48 0A00     		.ascii	"\012\000"
 4659 0d4a 0000     		.align	2
 4660              	.LC116:
 4661 0d4c 43616E6E 		.ascii	"Cannot set auto exposure (%d)\015\012\000"
 4661      6F742073 
 4661      65742061 
 4661      75746F20 
 4661      6578706F 
 4662              		.align	2
 4663              	.LC117:
 4664 0d6c 4175746F 		.ascii	"Auto exposure set correctly\015\012\000"
 4664      20657870 
 4664      6F737572 
 4664      65207365 
 4664      7420636F 
 4665              		.section	.text.cmd_cam_set_ae,"ax",%progbits
 4666              		.align	1
 4667              		.p2align 4,,15
 4668              		.syntax unified
 4669              		.thumb
 4670              		.thumb_func
 4671              		.fpu fpv4-sp-d16
 4672              		.type	cmd_cam_set_ae, %function
 4673              	cmd_cam_set_ae:
 4674              	.LFB294:
 4675              		.loc 7 808 0
 4676              		.cfi_startproc
 4677              		@ args = 0, pretend = 0, frame = 24
 4678              		@ frame_needed = 0, uses_anonymous_args = 0
 4679 0000 00B5     		push	{lr}
 4680              		.cfi_def_cfa_offset 4
 4681              		.cfi_offset 14, -4
ARM GAS  C:\Users\Moi\AppData\Local\Temp\cchaECY7.s 			page 91


 4682 0002 87B0     		sub	sp, sp, #28
 4683              		.cfi_def_cfa_offset 32
 4684 0004 0390     		str	r0, [sp, #12]
 4685 0006 0291     		str	r1, [sp, #8]
 4686 0008 0192     		str	r2, [sp, #4]
 4687              		.loc 7 808 0
 4688 000a 1B4B     		ldr	r3, .L326
 4689 000c 1B68     		ldr	r3, [r3]
 4690 000e 0593     		str	r3, [sp, #20]
 4691              		.loc 7 812 0
 4692 0010 029B     		ldr	r3, [sp, #8]
 4693 0012 012B     		cmp	r3, #1
 4694 0014 04D0     		beq	.L321
 4695              		.loc 7 813 0
 4696 0016 1949     		ldr	r1, .L326+4
 4697 0018 0398     		ldr	r0, [sp, #12]
 4698 001a FFF7FEFF 		bl	chprintf
 4699              		.loc 7 825 0
 4700 001e 1FE0     		b	.L325
 4701              	.L321:
 4702              		.loc 7 816 0
 4703 0020 019B     		ldr	r3, [sp, #4]
 4704 0022 1B68     		ldr	r3, [r3]
 4705 0024 1846     		mov	r0, r3
 4706 0026 FFF7FEFF 		bl	atoi
 4707 002a 0346     		mov	r3, r0
 4708 002c 8DF81230 		strb	r3, [sp, #18]
 4709              		.loc 7 818 0
 4710 0030 9DF81230 		ldrb	r3, [sp, #18]	@ zero_extendqisi2
 4711 0034 1846     		mov	r0, r3
 4712 0036 FFF7FEFF 		bl	po8030_set_ae
 4713 003a 0346     		mov	r3, r0
 4714 003c 8DF81330 		strb	r3, [sp, #19]
 4715              		.loc 7 819 0
 4716 0040 9DF91330 		ldrsb	r3, [sp, #19]
 4717 0044 002B     		cmp	r3, #0
 4718 0046 07D0     		beq	.L323
 4719              		.loc 7 820 0
 4720 0048 9DF91330 		ldrsb	r3, [sp, #19]
 4721 004c 1A46     		mov	r2, r3
 4722 004e 0C49     		ldr	r1, .L326+8
 4723 0050 0398     		ldr	r0, [sp, #12]
 4724 0052 FFF7FEFF 		bl	chprintf
 4725              		.loc 7 825 0
 4726 0056 03E0     		b	.L325
 4727              	.L323:
 4728              		.loc 7 822 0
 4729 0058 0A49     		ldr	r1, .L326+12
 4730 005a 0398     		ldr	r0, [sp, #12]
 4731 005c FFF7FEFF 		bl	chprintf
 4732              	.L325:
 4733              		.loc 7 825 0
 4734 0060 00BF     		nop
 4735 0062 054B     		ldr	r3, .L326
 4736 0064 059A     		ldr	r2, [sp, #20]
 4737 0066 1B68     		ldr	r3, [r3]
 4738 0068 9A42     		cmp	r2, r3
ARM GAS  C:\Users\Moi\AppData\Local\Temp\cchaECY7.s 			page 92


 4739 006a 01D0     		beq	.L324
 4740 006c FFF7FEFF 		bl	__stack_chk_fail
 4741              	.L324:
 4742 0070 07B0     		add	sp, sp, #28
 4743              		.cfi_def_cfa_offset 4
 4744              		@ sp needed
 4745 0072 5DF804FB 		ldr	pc, [sp], #4
 4746              	.L327:
 4747 0076 00BF     		.align	2
 4748              	.L326:
 4749 0078 00000000 		.word	__stack_chk_guard
 4750 007c 1C0D0000 		.word	.LC115
 4751 0080 4C0D0000 		.word	.LC116
 4752 0084 6C0D0000 		.word	.LC117
 4753              		.cfi_endproc
 4754              	.LFE294:
 4755              		.size	cmd_cam_set_ae, .-cmd_cam_set_ae
 4756              		.section	.rodata
 4757 0d8a 0000     		.align	2
 4758              	.LC118:
 4759 0d8c 55736167 		.ascii	"Usage: cam_exposure integral fractional\015\012Unit"
 4759      653A2063 
 4759      616D5F65 
 4759      78706F73 
 4759      75726520 
 4760 0db9 20697320 		.ascii	" is line time; total integration time = (integral +"
 4760      6C696E65 
 4760      2074696D 
 4760      653B2074 
 4760      6F74616C 
 4761 0dec 20667261 		.ascii	" fractional/256) line time.\015\012Default: integra"
 4761      6374696F 
 4761      6E616C2F 
 4761      32353629 
 4761      206C696E 
 4762 0e19 6C3D3132 		.ascii	"l=128, fractional=0\015\012\000"
 4762      382C2066 
 4762      72616374 
 4762      696F6E61 
 4762      6C3D300D 
 4763 0e2f 00       		.align	2
 4764              	.LC119:
 4765 0e30 43616E6E 		.ascii	"Cannot set exposure time (%d)\015\012\000"
 4765      6F742073 
 4765      65742065 
 4765      78706F73 
 4765      75726520 
 4766              		.align	2
 4767              	.LC120:
 4768 0e50 4578706F 		.ascii	"Exposure time set correctly\015\012\000"
 4768      73757265 
 4768      2074696D 
 4768      65207365 
 4768      7420636F 
 4769              		.section	.text.cmd_cam_set_exposure,"ax",%progbits
 4770              		.align	1
 4771              		.p2align 4,,15
ARM GAS  C:\Users\Moi\AppData\Local\Temp\cchaECY7.s 			page 93


 4772              		.syntax unified
 4773              		.thumb
 4774              		.thumb_func
 4775              		.fpu fpv4-sp-d16
 4776              		.type	cmd_cam_set_exposure, %function
 4777              	cmd_cam_set_exposure:
 4778              	.LFB295:
 4779              		.loc 7 828 0
 4780              		.cfi_startproc
 4781              		@ args = 0, pretend = 0, frame = 24
 4782              		@ frame_needed = 0, uses_anonymous_args = 0
 4783 0000 00B5     		push	{lr}
 4784              		.cfi_def_cfa_offset 4
 4785              		.cfi_offset 14, -4
 4786 0002 87B0     		sub	sp, sp, #28
 4787              		.cfi_def_cfa_offset 32
 4788 0004 0390     		str	r0, [sp, #12]
 4789 0006 0291     		str	r1, [sp, #8]
 4790 0008 0192     		str	r2, [sp, #4]
 4791              		.loc 7 828 0
 4792 000a 214B     		ldr	r3, .L334
 4793 000c 1B68     		ldr	r3, [r3]
 4794 000e 0593     		str	r3, [sp, #20]
 4795              		.loc 7 833 0
 4796 0010 029B     		ldr	r3, [sp, #8]
 4797 0012 022B     		cmp	r3, #2
 4798 0014 04D0     		beq	.L329
 4799              		.loc 7 834 0
 4800 0016 1F49     		ldr	r1, .L334+4
 4801 0018 0398     		ldr	r0, [sp, #12]
 4802 001a FFF7FEFF 		bl	chprintf
 4803              		.loc 7 847 0
 4804 001e 2BE0     		b	.L333
 4805              	.L329:
 4806              		.loc 7 837 0
 4807 0020 019B     		ldr	r3, [sp, #4]
 4808 0022 1B68     		ldr	r3, [r3]
 4809 0024 1846     		mov	r0, r3
 4810 0026 FFF7FEFF 		bl	atoi
 4811 002a 0346     		mov	r3, r0
 4812 002c ADF81230 		strh	r3, [sp, #18]	@ movhi
 4813              		.loc 7 838 0
 4814 0030 019B     		ldr	r3, [sp, #4]
 4815 0032 0433     		adds	r3, r3, #4
 4816 0034 1B68     		ldr	r3, [r3]
 4817 0036 1846     		mov	r0, r3
 4818 0038 FFF7FEFF 		bl	atoi
 4819 003c 0346     		mov	r3, r0
 4820 003e 8DF81030 		strb	r3, [sp, #16]
 4821              		.loc 7 840 0
 4822 0042 9DF81020 		ldrb	r2, [sp, #16]	@ zero_extendqisi2
 4823 0046 BDF81230 		ldrh	r3, [sp, #18]
 4824 004a 1146     		mov	r1, r2
 4825 004c 1846     		mov	r0, r3
 4826 004e FFF7FEFF 		bl	po8030_set_exposure
 4827 0052 0346     		mov	r3, r0
 4828 0054 8DF81130 		strb	r3, [sp, #17]
ARM GAS  C:\Users\Moi\AppData\Local\Temp\cchaECY7.s 			page 94


 4829              		.loc 7 841 0
 4830 0058 9DF91130 		ldrsb	r3, [sp, #17]
 4831 005c 002B     		cmp	r3, #0
 4832 005e 07D0     		beq	.L331
 4833              		.loc 7 842 0
 4834 0060 9DF91130 		ldrsb	r3, [sp, #17]
 4835 0064 1A46     		mov	r2, r3
 4836 0066 0C49     		ldr	r1, .L334+8
 4837 0068 0398     		ldr	r0, [sp, #12]
 4838 006a FFF7FEFF 		bl	chprintf
 4839              		.loc 7 847 0
 4840 006e 03E0     		b	.L333
 4841              	.L331:
 4842              		.loc 7 844 0
 4843 0070 0A49     		ldr	r1, .L334+12
 4844 0072 0398     		ldr	r0, [sp, #12]
 4845 0074 FFF7FEFF 		bl	chprintf
 4846              	.L333:
 4847              		.loc 7 847 0
 4848 0078 00BF     		nop
 4849 007a 054B     		ldr	r3, .L334
 4850 007c 059A     		ldr	r2, [sp, #20]
 4851 007e 1B68     		ldr	r3, [r3]
 4852 0080 9A42     		cmp	r2, r3
 4853 0082 01D0     		beq	.L332
 4854 0084 FFF7FEFF 		bl	__stack_chk_fail
 4855              	.L332:
 4856 0088 07B0     		add	sp, sp, #28
 4857              		.cfi_def_cfa_offset 4
 4858              		@ sp needed
 4859 008a 5DF804FB 		ldr	pc, [sp], #4
 4860              	.L335:
 4861 008e 00BF     		.align	2
 4862              	.L334:
 4863 0090 00000000 		.word	__stack_chk_guard
 4864 0094 8C0D0000 		.word	.LC118
 4865 0098 300E0000 		.word	.LC119
 4866 009c 500E0000 		.word	.LC120
 4867              		.cfi_endproc
 4868              	.LFE295:
 4869              		.size	cmd_cam_set_exposure, .-cmd_cam_set_exposure
 4870              		.section	.rodata
 4871 0e6e 0000     		.align	2
 4872              	.LC121:
 4873 0e70 55736167 		.ascii	"Usage: cam_dcmi_prepare capture_mode\015\012capture"
 4873      653A2063 
 4873      616D5F64 
 4873      636D695F 
 4873      70726570 
 4874 0e9d 5F6D6F64 		.ascii	"_mode: 0=oneshot, 1=continuous\015\012\000"
 4874      653A2030 
 4874      3D6F6E65 
 4874      73686F74 
 4874      2C20313D 
 4875 0ebe 0000     		.align	2
 4876              	.LC122:
 4877 0ec0 44434D49 		.ascii	"DCMI prepared.\015\012\000"
ARM GAS  C:\Users\Moi\AppData\Local\Temp\cchaECY7.s 			page 95


 4877      20707265 
 4877      70617265 
 4877      642E0D0A 
 4877      00
 4878 0ed1 000000   		.align	2
 4879              	.LC123:
 4880 0ed4 43616E6E 		.ascii	"Cannot prepare dcmi, image size too big.\015\012\000"
 4880      6F742070 
 4880      72657061 
 4880      72652064 
 4880      636D692C 
 4881              		.section	.text.cmd_cam_dcmi_prepare,"ax",%progbits
 4882              		.align	1
 4883              		.p2align 4,,15
 4884              		.syntax unified
 4885              		.thumb
 4886              		.thumb_func
 4887              		.fpu fpv4-sp-d16
 4888              		.type	cmd_cam_dcmi_prepare, %function
 4889              	cmd_cam_dcmi_prepare:
 4890              	.LFB296:
 4891              		.loc 7 850 0
 4892              		.cfi_startproc
 4893              		@ args = 0, pretend = 0, frame = 24
 4894              		@ frame_needed = 0, uses_anonymous_args = 0
 4895 0000 00B5     		push	{lr}
 4896              		.cfi_def_cfa_offset 4
 4897              		.cfi_offset 14, -4
 4898 0002 87B0     		sub	sp, sp, #28
 4899              		.cfi_def_cfa_offset 32
 4900 0004 0390     		str	r0, [sp, #12]
 4901 0006 0291     		str	r1, [sp, #8]
 4902 0008 0192     		str	r2, [sp, #4]
 4903              		.loc 7 850 0
 4904 000a 1E4B     		ldr	r3, .L343
 4905 000c 1B68     		ldr	r3, [r3]
 4906 000e 0593     		str	r3, [sp, #20]
 4907              		.loc 7 851 0
 4908 0010 0023     		movs	r3, #0
 4909 0012 8DF81330 		strb	r3, [sp, #19]
 4910              		.loc 7 853 0
 4911 0016 029B     		ldr	r3, [sp, #8]
 4912 0018 012B     		cmp	r3, #1
 4913 001a 04D0     		beq	.L337
 4914              		.loc 7 854 0
 4915 001c 1A49     		ldr	r1, .L343+4
 4916 001e 0398     		ldr	r0, [sp, #12]
 4917 0020 FFF7FEFF 		bl	chprintf
 4918 0024 24E0     		b	.L336
 4919              	.L337:
 4920              		.loc 7 856 0
 4921 0026 019B     		ldr	r3, [sp, #4]
 4922 0028 1B68     		ldr	r3, [r3]
 4923 002a 1846     		mov	r0, r3
 4924 002c FFF7FEFF 		bl	atoi
 4925 0030 0346     		mov	r3, r0
 4926 0032 8DF81330 		strb	r3, [sp, #19]
ARM GAS  C:\Users\Moi\AppData\Local\Temp\cchaECY7.s 			page 96


 4927              		.loc 7 858 0
 4928 0036 9DF81330 		ldrb	r3, [sp, #19]	@ zero_extendqisi2
 4929 003a 1846     		mov	r0, r3
 4930 003c FFF7FEFF 		bl	dcmi_set_capture_mode
 4931              		.loc 7 860 0
 4932 0040 9DF81330 		ldrb	r3, [sp, #19]	@ zero_extendqisi2
 4933 0044 002B     		cmp	r3, #0
 4934 0046 02D1     		bne	.L339
 4935              		.loc 7 861 0
 4936 0048 FFF7FEFF 		bl	dcmi_disable_double_buffering
 4937 004c 01E0     		b	.L340
 4938              	.L339:
 4939              		.loc 7 863 0
 4940 004e FFF7FEFF 		bl	dcmi_enable_double_buffering
 4941              	.L340:
 4942              		.loc 7 866 0
 4943 0052 FFF7FEFF 		bl	dcmi_prepare
 4944 0056 0346     		mov	r3, r0
 4945 0058 002B     		cmp	r3, #0
 4946 005a 04D1     		bne	.L341
 4947              		.loc 7 867 0
 4948 005c 0B49     		ldr	r1, .L343+8
 4949 005e 0398     		ldr	r0, [sp, #12]
 4950 0060 FFF7FEFF 		bl	chprintf
 4951 0064 04E0     		b	.L336
 4952              	.L341:
 4953              		.loc 7 869 0
 4954 0066 0A49     		ldr	r1, .L343+12
 4955 0068 0398     		ldr	r0, [sp, #12]
 4956 006a FFF7FEFF 		bl	chprintf
 4957              		.loc 7 870 0
 4958 006e 00BF     		nop
 4959              	.L336:
 4960              		.loc 7 874 0
 4961 0070 044B     		ldr	r3, .L343
 4962 0072 059A     		ldr	r2, [sp, #20]
 4963 0074 1B68     		ldr	r3, [r3]
 4964 0076 9A42     		cmp	r2, r3
 4965 0078 01D0     		beq	.L342
 4966 007a FFF7FEFF 		bl	__stack_chk_fail
 4967              	.L342:
 4968 007e 07B0     		add	sp, sp, #28
 4969              		.cfi_def_cfa_offset 4
 4970              		@ sp needed
 4971 0080 5DF804FB 		ldr	pc, [sp], #4
 4972              	.L344:
 4973              		.align	2
 4974              	.L343:
 4975 0084 00000000 		.word	__stack_chk_guard
 4976 0088 700E0000 		.word	.LC121
 4977 008c C00E0000 		.word	.LC122
 4978 0090 D40E0000 		.word	.LC123
 4979              		.cfi_endproc
 4980              	.LFE296:
 4981              		.size	cmd_cam_dcmi_prepare, .-cmd_cam_dcmi_prepare
 4982              		.section	.rodata
 4983 0eff 00       		.align	2
ARM GAS  C:\Users\Moi\AppData\Local\Temp\cchaECY7.s 			page 97


 4984              	.LC124:
 4985 0f00 44434D49 		.ascii	"DCMI released correctly\015\012\000"
 4985      2072656C 
 4985      65617365 
 4985      6420636F 
 4985      72726563 
 4986              		.section	.text.cmd_cam_dcmi_unprepare,"ax",%progbits
 4987              		.align	1
 4988              		.p2align 4,,15
 4989              		.syntax unified
 4990              		.thumb
 4991              		.thumb_func
 4992              		.fpu fpv4-sp-d16
 4993              		.type	cmd_cam_dcmi_unprepare, %function
 4994              	cmd_cam_dcmi_unprepare:
 4995              	.LFB297:
 4996              		.loc 7 877 0
 4997              		.cfi_startproc
 4998              		@ args = 0, pretend = 0, frame = 24
 4999              		@ frame_needed = 0, uses_anonymous_args = 0
 5000 0000 00B5     		push	{lr}
 5001              		.cfi_def_cfa_offset 4
 5002              		.cfi_offset 14, -4
 5003 0002 87B0     		sub	sp, sp, #28
 5004              		.cfi_def_cfa_offset 32
 5005 0004 0390     		str	r0, [sp, #12]
 5006 0006 0291     		str	r1, [sp, #8]
 5007 0008 0192     		str	r2, [sp, #4]
 5008              		.loc 7 877 0
 5009 000a 0A4B     		ldr	r3, .L347
 5010 000c 1B68     		ldr	r3, [r3]
 5011 000e 0593     		str	r3, [sp, #20]
 5012              		.loc 7 881 0
 5013 0010 FFF7FEFF 		bl	dcmi_unprepare
 5014              		.loc 7 883 0
 5015 0014 0849     		ldr	r1, .L347+4
 5016 0016 0398     		ldr	r0, [sp, #12]
 5017 0018 FFF7FEFF 		bl	chprintf
 5018              		.loc 7 885 0
 5019 001c 00BF     		nop
 5020 001e 054B     		ldr	r3, .L347
 5021 0020 059A     		ldr	r2, [sp, #20]
 5022 0022 1B68     		ldr	r3, [r3]
 5023 0024 9A42     		cmp	r2, r3
 5024 0026 01D0     		beq	.L346
 5025 0028 FFF7FEFF 		bl	__stack_chk_fail
 5026              	.L346:
 5027 002c 07B0     		add	sp, sp, #28
 5028              		.cfi_def_cfa_offset 4
 5029              		@ sp needed
 5030 002e 5DF804FB 		ldr	pc, [sp], #4
 5031              	.L348:
 5032 0032 00BF     		.align	2
 5033              	.L347:
 5034 0034 00000000 		.word	__stack_chk_guard
 5035 0038 000F0000 		.word	.LC124
 5036              		.cfi_endproc
ARM GAS  C:\Users\Moi\AppData\Local\Temp\cchaECY7.s 			page 98


 5037              	.LFE297:
 5038              		.size	cmd_cam_dcmi_unprepare, .-cmd_cam_dcmi_unprepare
 5039              		.section	.text.cmd_cam_capture,"ax",%progbits
 5040              		.align	1
 5041              		.p2align 4,,15
 5042              		.syntax unified
 5043              		.thumb
 5044              		.thumb_func
 5045              		.fpu fpv4-sp-d16
 5046              		.type	cmd_cam_capture, %function
 5047              	cmd_cam_capture:
 5048              	.LFB298:
 5049              		.loc 7 888 0
 5050              		.cfi_startproc
 5051              		@ args = 0, pretend = 0, frame = 24
 5052              		@ frame_needed = 0, uses_anonymous_args = 0
 5053 0000 00B5     		push	{lr}
 5054              		.cfi_def_cfa_offset 4
 5055              		.cfi_offset 14, -4
 5056 0002 87B0     		sub	sp, sp, #28
 5057              		.cfi_def_cfa_offset 32
 5058 0004 0390     		str	r0, [sp, #12]
 5059 0006 0291     		str	r1, [sp, #8]
 5060 0008 0192     		str	r2, [sp, #4]
 5061              		.loc 7 888 0
 5062 000a 084B     		ldr	r3, .L351
 5063 000c 1B68     		ldr	r3, [r3]
 5064 000e 0593     		str	r3, [sp, #20]
 5065              		.loc 7 892 0
 5066 0010 FFF7FEFF 		bl	dcmi_capture_start
 5067              		.loc 7 893 0
 5068 0014 00BF     		nop
 5069 0016 054B     		ldr	r3, .L351
 5070 0018 059A     		ldr	r2, [sp, #20]
 5071 001a 1B68     		ldr	r3, [r3]
 5072 001c 9A42     		cmp	r2, r3
 5073 001e 01D0     		beq	.L350
 5074 0020 FFF7FEFF 		bl	__stack_chk_fail
 5075              	.L350:
 5076 0024 07B0     		add	sp, sp, #28
 5077              		.cfi_def_cfa_offset 4
 5078              		@ sp needed
 5079 0026 5DF804FB 		ldr	pc, [sp], #4
 5080              	.L352:
 5081 002a 00BF     		.align	2
 5082              	.L351:
 5083 002c 00000000 		.word	__stack_chk_guard
 5084              		.cfi_endproc
 5085              	.LFE298:
 5086              		.size	cmd_cam_capture, .-cmd_cam_capture
 5087              		.section	.rodata
 5088 0f1a 0000     		.align	2
 5089              	.LC125:
 5090 0f1c 44434D49 		.ascii	"DCMI stop stream error\015\012\000"
 5090      2073746F 
 5090      70207374 
 5090      7265616D 
ARM GAS  C:\Users\Moi\AppData\Local\Temp\cchaECY7.s 			page 99


 5090      20657272 
 5091 0f35 000000   		.align	2
 5092              	.LC126:
 5093 0f38 54686520 		.ascii	"The 2 images will be sent within 5 seconds\015\012\000"
 5093      3220696D 
 5093      61676573 
 5093      2077696C 
 5093      6C206265 
 5094 0f65 000000   		.align	2
 5095              	.LC127:
 5096 0f68 54686520 		.ascii	"The image will be sent within 5 seconds\015\012\000"
 5096      696D6167 
 5096      65207769 
 5096      6C6C2062 
 5096      65207365 
 5097              		.section	.text.cmd_cam_send,"ax",%progbits
 5098              		.align	1
 5099              		.p2align 4,,15
 5100              		.syntax unified
 5101              		.thumb
 5102              		.thumb_func
 5103              		.fpu fpv4-sp-d16
 5104              		.type	cmd_cam_send, %function
 5105              	cmd_cam_send:
 5106              	.LFB299:
 5107              		.loc 7 896 0
 5108              		.cfi_startproc
 5109              		@ args = 0, pretend = 0, frame = 24
 5110              		@ frame_needed = 0, uses_anonymous_args = 0
 5111 0000 10B5     		push	{r4, lr}
 5112              		.cfi_def_cfa_offset 8
 5113              		.cfi_offset 4, -8
 5114              		.cfi_offset 14, -4
 5115 0002 86B0     		sub	sp, sp, #24
 5116              		.cfi_def_cfa_offset 32
 5117 0004 0390     		str	r0, [sp, #12]
 5118 0006 0291     		str	r1, [sp, #8]
 5119 0008 0192     		str	r2, [sp, #4]
 5120              		.loc 7 896 0
 5121 000a 2C4B     		ldr	r3, .L359
 5122 000c 1B68     		ldr	r3, [r3]
 5123 000e 0593     		str	r3, [sp, #20]
 5124              		.loc 7 901 0
 5125 0010 FFF7FEFF 		bl	dcmi_capture_stop
 5126 0014 0346     		mov	r3, r0
 5127 0016 002B     		cmp	r3, #0
 5128 0018 04D0     		beq	.L354
 5129              		.loc 7 902 0
 5130 001a 2949     		ldr	r1, .L359+4
 5131 001c 0398     		ldr	r0, [sp, #12]
 5132 001e FFF7FEFF 		bl	chprintf
 5133              		.loc 7 919 0
 5134 0022 40E0     		b	.L358
 5135              	.L354:
 5136              		.loc 7 904 0
 5137 0024 FFF7FEFF 		bl	dcmi_double_buffering_enabled
 5138 0028 0346     		mov	r3, r0
ARM GAS  C:\Users\Moi\AppData\Local\Temp\cchaECY7.s 			page 100


 5139 002a 002B     		cmp	r3, #0
 5140 002c 26D0     		beq	.L356
 5141              		.loc 7 905 0
 5142 002e 2549     		ldr	r1, .L359+8
 5143 0030 0398     		ldr	r0, [sp, #12]
 5144 0032 FFF7FEFF 		bl	chprintf
 5145              		.loc 7 906 0
 5146 0036 41F28830 		movw	r0, #5000
 5147 003a FFF7FEFF 		bl	chThdSleep
 5148              		.loc 7 907 0
 5149 003e FFF7FEFF 		bl	dcmi_get_first_buffer_ptr
 5150 0042 0490     		str	r0, [sp, #16]
 5151              		.loc 7 908 0
 5152 0044 204B     		ldr	r3, .L359+12
 5153 0046 1B68     		ldr	r3, [r3]
 5154 0048 1C68     		ldr	r4, [r3]
 5155 004a FFF7FEFF 		bl	po8030_get_image_size
 5156 004e 0346     		mov	r3, r0
 5157 0050 1A46     		mov	r2, r3
 5158 0052 0499     		ldr	r1, [sp, #16]
 5159 0054 1C48     		ldr	r0, .L359+12
 5160 0056 A047     		blx	r4
 5161              	.LVL1:
 5162              		.loc 7 909 0
 5163 0058 40F6B830 		movw	r0, #3000
 5164 005c FFF7FEFF 		bl	chThdSleep
 5165              		.loc 7 910 0
 5166 0060 FFF7FEFF 		bl	dcmi_get_second_buffer_ptr
 5167 0064 0490     		str	r0, [sp, #16]
 5168              		.loc 7 911 0
 5169 0066 184B     		ldr	r3, .L359+12
 5170 0068 1B68     		ldr	r3, [r3]
 5171 006a 1C68     		ldr	r4, [r3]
 5172 006c FFF7FEFF 		bl	po8030_get_image_size
 5173 0070 0346     		mov	r3, r0
 5174 0072 1A46     		mov	r2, r3
 5175 0074 0499     		ldr	r1, [sp, #16]
 5176 0076 1448     		ldr	r0, .L359+12
 5177 0078 A047     		blx	r4
 5178              	.LVL2:
 5179              		.loc 7 919 0
 5180 007a 14E0     		b	.L358
 5181              	.L356:
 5182              		.loc 7 913 0
 5183 007c 1349     		ldr	r1, .L359+16
 5184 007e 0398     		ldr	r0, [sp, #12]
 5185 0080 FFF7FEFF 		bl	chprintf
 5186              		.loc 7 914 0
 5187 0084 41F28830 		movw	r0, #5000
 5188 0088 FFF7FEFF 		bl	chThdSleep
 5189              		.loc 7 915 0
 5190 008c FFF7FEFF 		bl	dcmi_get_first_buffer_ptr
 5191 0090 0490     		str	r0, [sp, #16]
 5192              		.loc 7 916 0
 5193 0092 0D4B     		ldr	r3, .L359+12
 5194 0094 1B68     		ldr	r3, [r3]
 5195 0096 1C68     		ldr	r4, [r3]
ARM GAS  C:\Users\Moi\AppData\Local\Temp\cchaECY7.s 			page 101


 5196 0098 FFF7FEFF 		bl	po8030_get_image_size
 5197 009c 0346     		mov	r3, r0
 5198 009e 1A46     		mov	r2, r3
 5199 00a0 0499     		ldr	r1, [sp, #16]
 5200 00a2 0948     		ldr	r0, .L359+12
 5201 00a4 A047     		blx	r4
 5202              	.LVL3:
 5203              	.L358:
 5204              		.loc 7 919 0
 5205 00a6 00BF     		nop
 5206 00a8 044B     		ldr	r3, .L359
 5207 00aa 059A     		ldr	r2, [sp, #20]
 5208 00ac 1B68     		ldr	r3, [r3]
 5209 00ae 9A42     		cmp	r2, r3
 5210 00b0 01D0     		beq	.L357
 5211 00b2 FFF7FEFF 		bl	__stack_chk_fail
 5212              	.L357:
 5213 00b6 06B0     		add	sp, sp, #24
 5214              		.cfi_def_cfa_offset 8
 5215              		@ sp needed
 5216 00b8 10BD     		pop	{r4, pc}
 5217              	.L360:
 5218 00ba 00BF     		.align	2
 5219              	.L359:
 5220 00bc 00000000 		.word	__stack_chk_guard
 5221 00c0 1C0F0000 		.word	.LC125
 5222 00c4 380F0000 		.word	.LC126
 5223 00c8 00000000 		.word	SDU1
 5224 00cc 680F0000 		.word	.LC127
 5225              		.cfi_endproc
 5226              	.LFE299:
 5227              		.size	cmd_cam_send, .-cmd_cam_send
 5228              		.section	.rodata
 5229 0f92 0000     		.align	2
 5230              	.LC128:
 5231 0f94 55736167 		.ascii	"Usage: set_led led_num led_value\015\012led_num: 0-"
 5231      653A2073 
 5231      65745F6C 
 5231      6564206C 
 5231      65645F6E 
 5232 0fc1 333D736D 		.ascii	"3=small leds, 4=body led, 5=front led\015\012value:"
 5232      616C6C20 
 5232      6C656473 
 5232      2C20343D 
 5232      626F6479 
 5233 0fee 20303D6F 		.ascii	" 0=off, 1=on, 2=toggle\015\012\000"
 5233      66662C20 
 5233      313D6F6E 
 5233      2C20323D 
 5233      746F6767 
 5234              		.section	.text.cmd_set_led,"ax",%progbits
 5235              		.align	1
 5236              		.p2align 4,,15
 5237              		.syntax unified
 5238              		.thumb
 5239              		.thumb_func
 5240              		.fpu fpv4-sp-d16
ARM GAS  C:\Users\Moi\AppData\Local\Temp\cchaECY7.s 			page 102


 5241              		.type	cmd_set_led, %function
 5242              	cmd_set_led:
 5243              	.LFB300:
 5244              		.loc 7 922 0
 5245              		.cfi_startproc
 5246              		@ args = 0, pretend = 0, frame = 24
 5247              		@ frame_needed = 0, uses_anonymous_args = 0
 5248 0000 00B5     		push	{lr}
 5249              		.cfi_def_cfa_offset 4
 5250              		.cfi_offset 14, -4
 5251 0002 87B0     		sub	sp, sp, #28
 5252              		.cfi_def_cfa_offset 32
 5253 0004 0390     		str	r0, [sp, #12]
 5254 0006 0291     		str	r1, [sp, #8]
 5255 0008 0192     		str	r2, [sp, #4]
 5256              		.loc 7 922 0
 5257 000a 264B     		ldr	r3, .L368
 5258 000c 1B68     		ldr	r3, [r3]
 5259 000e 0593     		str	r3, [sp, #20]
 5260              		.loc 7 923 0
 5261 0010 0023     		movs	r3, #0
 5262 0012 8DF81230 		strb	r3, [sp, #18]
 5263              		.loc 7 924 0
 5264 0016 0023     		movs	r3, #0
 5265 0018 8DF81330 		strb	r3, [sp, #19]
 5266              		.loc 7 926 0
 5267 001c 029B     		ldr	r3, [sp, #8]
 5268 001e 022B     		cmp	r3, #2
 5269 0020 04D0     		beq	.L362
 5270              		.loc 7 927 0
 5271 0022 2149     		ldr	r1, .L368+4
 5272 0024 0398     		ldr	r0, [sp, #12]
 5273 0026 FFF7FEFF 		bl	chprintf
 5274              		.loc 7 940 0
 5275 002a 30E0     		b	.L367
 5276              	.L362:
 5277              		.loc 7 929 0
 5278 002c 019B     		ldr	r3, [sp, #4]
 5279 002e 1B68     		ldr	r3, [r3]
 5280 0030 1846     		mov	r0, r3
 5281 0032 FFF7FEFF 		bl	atoi
 5282 0036 0346     		mov	r3, r0
 5283 0038 8DF81230 		strb	r3, [sp, #18]
 5284              		.loc 7 930 0
 5285 003c 019B     		ldr	r3, [sp, #4]
 5286 003e 0433     		adds	r3, r3, #4
 5287 0040 1B68     		ldr	r3, [r3]
 5288 0042 1846     		mov	r0, r3
 5289 0044 FFF7FEFF 		bl	atoi
 5290 0048 0346     		mov	r3, r0
 5291 004a 8DF81330 		strb	r3, [sp, #19]
 5292              		.loc 7 932 0
 5293 004e 9DF81230 		ldrb	r3, [sp, #18]	@ zero_extendqisi2
 5294 0052 032B     		cmp	r3, #3
 5295 0054 08D8     		bhi	.L364
 5296              		.loc 7 933 0
 5297 0056 9DF81320 		ldrb	r2, [sp, #19]	@ zero_extendqisi2
ARM GAS  C:\Users\Moi\AppData\Local\Temp\cchaECY7.s 			page 103


 5298 005a 9DF81230 		ldrb	r3, [sp, #18]	@ zero_extendqisi2
 5299 005e 1146     		mov	r1, r2
 5300 0060 1846     		mov	r0, r3
 5301 0062 FFF7FEFF 		bl	set_led
 5302              		.loc 7 940 0
 5303 0066 12E0     		b	.L367
 5304              	.L364:
 5305              		.loc 7 934 0
 5306 0068 9DF81230 		ldrb	r3, [sp, #18]	@ zero_extendqisi2
 5307 006c 042B     		cmp	r3, #4
 5308 006e 05D1     		bne	.L365
 5309              		.loc 7 935 0
 5310 0070 9DF81330 		ldrb	r3, [sp, #19]	@ zero_extendqisi2
 5311 0074 1846     		mov	r0, r3
 5312 0076 FFF7FEFF 		bl	set_body_led
 5313              		.loc 7 940 0
 5314 007a 08E0     		b	.L367
 5315              	.L365:
 5316              		.loc 7 936 0
 5317 007c 9DF81230 		ldrb	r3, [sp, #18]	@ zero_extendqisi2
 5318 0080 052B     		cmp	r3, #5
 5319 0082 04D1     		bne	.L367
 5320              		.loc 7 937 0
 5321 0084 9DF81330 		ldrb	r3, [sp, #19]	@ zero_extendqisi2
 5322 0088 1846     		mov	r0, r3
 5323 008a FFF7FEFF 		bl	set_front_led
 5324              	.L367:
 5325              		.loc 7 940 0
 5326 008e 00BF     		nop
 5327 0090 044B     		ldr	r3, .L368
 5328 0092 059A     		ldr	r2, [sp, #20]
 5329 0094 1B68     		ldr	r3, [r3]
 5330 0096 9A42     		cmp	r2, r3
 5331 0098 01D0     		beq	.L366
 5332 009a FFF7FEFF 		bl	__stack_chk_fail
 5333              	.L366:
 5334 009e 07B0     		add	sp, sp, #28
 5335              		.cfi_def_cfa_offset 4
 5336              		@ sp needed
 5337 00a0 5DF804FB 		ldr	pc, [sp], #4
 5338              	.L369:
 5339              		.align	2
 5340              	.L368:
 5341 00a4 00000000 		.word	__stack_chk_guard
 5342 00a8 940F0000 		.word	.LC128
 5343              		.cfi_endproc
 5344              	.LFE300:
 5345              		.size	cmd_set_led, .-cmd_set_led
 5346              		.section	.rodata
 5347 1007 00       		.align	2
 5348              	.LC129:
 5349 1008 55736167 		.ascii	"Usage: set_speed left right\015\012speed: %d..%d\015"
 5349      653A2073 
 5349      65745F73 
 5349      70656564 
 5349      206C6566 
 5350 1033 0A00     		.ascii	"\012\000"
ARM GAS  C:\Users\Moi\AppData\Local\Temp\cchaECY7.s 			page 104


 5351 1035 000000   		.align	2
 5352              	.LC130:
 5353 1038 6C737065 		.ascii	"lspeed=%d, rspeed=%d\015\012\000"
 5353      65643D25 
 5353      642C2072 
 5353      73706565 
 5353      643D2564 
 5354              		.section	.text.cmd_set_speed,"ax",%progbits
 5355              		.align	1
 5356              		.p2align 4,,15
 5357              		.syntax unified
 5358              		.thumb
 5359              		.thumb_func
 5360              		.fpu fpv4-sp-d16
 5361              		.type	cmd_set_speed, %function
 5362              	cmd_set_speed:
 5363              	.LFB301:
 5364              		.loc 7 943 0
 5365              		.cfi_startproc
 5366              		@ args = 0, pretend = 0, frame = 24
 5367              		@ frame_needed = 0, uses_anonymous_args = 0
 5368 0000 00B5     		push	{lr}
 5369              		.cfi_def_cfa_offset 4
 5370              		.cfi_offset 14, -4
 5371 0002 87B0     		sub	sp, sp, #28
 5372              		.cfi_def_cfa_offset 32
 5373 0004 0390     		str	r0, [sp, #12]
 5374 0006 0291     		str	r1, [sp, #8]
 5375 0008 0192     		str	r2, [sp, #4]
 5376              		.loc 7 943 0
 5377 000a 214B     		ldr	r3, .L375
 5378 000c 1B68     		ldr	r3, [r3]
 5379 000e 0593     		str	r3, [sp, #20]
 5380              		.loc 7 944 0
 5381 0010 0023     		movs	r3, #0
 5382 0012 ADF81030 		strh	r3, [sp, #16]	@ movhi
 5383              		.loc 7 945 0
 5384 0016 0023     		movs	r3, #0
 5385 0018 ADF81230 		strh	r3, [sp, #18]	@ movhi
 5386              		.loc 7 947 0
 5387 001c 029B     		ldr	r3, [sp, #8]
 5388 001e 022B     		cmp	r3, #2
 5389 0020 07D0     		beq	.L371
 5390              		.loc 7 948 0
 5391 0022 40F24C43 		movw	r3, #1100
 5392 0026 1B4A     		ldr	r2, .L375+4
 5393 0028 1B49     		ldr	r1, .L375+8
 5394 002a 0398     		ldr	r0, [sp, #12]
 5395 002c FFF7FEFF 		bl	chprintf
 5396              		.loc 7 956 0
 5397 0030 22E0     		b	.L374
 5398              	.L371:
 5399              		.loc 7 950 0
 5400 0032 019B     		ldr	r3, [sp, #4]
 5401 0034 1B68     		ldr	r3, [r3]
 5402 0036 1846     		mov	r0, r3
 5403 0038 FFF7FEFF 		bl	atoi
ARM GAS  C:\Users\Moi\AppData\Local\Temp\cchaECY7.s 			page 105


 5404 003c 0346     		mov	r3, r0
 5405 003e ADF81030 		strh	r3, [sp, #16]	@ movhi
 5406              		.loc 7 951 0
 5407 0042 019B     		ldr	r3, [sp, #4]
 5408 0044 0433     		adds	r3, r3, #4
 5409 0046 1B68     		ldr	r3, [r3]
 5410 0048 1846     		mov	r0, r3
 5411 004a FFF7FEFF 		bl	atoi
 5412 004e 0346     		mov	r3, r0
 5413 0050 ADF81230 		strh	r3, [sp, #18]	@ movhi
 5414              		.loc 7 952 0
 5415 0054 BDF91020 		ldrsh	r2, [sp, #16]
 5416 0058 BDF91230 		ldrsh	r3, [sp, #18]
 5417 005c 0F49     		ldr	r1, .L375+12
 5418 005e 0398     		ldr	r0, [sp, #12]
 5419 0060 FFF7FEFF 		bl	chprintf
 5420              		.loc 7 953 0
 5421 0064 BDF91230 		ldrsh	r3, [sp, #18]
 5422 0068 1846     		mov	r0, r3
 5423 006a FFF7FEFF 		bl	right_motor_set_speed
 5424              		.loc 7 954 0
 5425 006e BDF91030 		ldrsh	r3, [sp, #16]
 5426 0072 1846     		mov	r0, r3
 5427 0074 FFF7FEFF 		bl	left_motor_set_speed
 5428              	.L374:
 5429              		.loc 7 956 0
 5430 0078 00BF     		nop
 5431 007a 054B     		ldr	r3, .L375
 5432 007c 059A     		ldr	r2, [sp, #20]
 5433 007e 1B68     		ldr	r3, [r3]
 5434 0080 9A42     		cmp	r2, r3
 5435 0082 01D0     		beq	.L373
 5436 0084 FFF7FEFF 		bl	__stack_chk_fail
 5437              	.L373:
 5438 0088 07B0     		add	sp, sp, #28
 5439              		.cfi_def_cfa_offset 4
 5440              		@ sp needed
 5441 008a 5DF804FB 		ldr	pc, [sp], #4
 5442              	.L376:
 5443 008e 00BF     		.align	2
 5444              	.L375:
 5445 0090 00000000 		.word	__stack_chk_guard
 5446 0094 B4FBFFFF 		.word	-1100
 5447 0098 08100000 		.word	.LC129
 5448 009c 38100000 		.word	.LC130
 5449              		.cfi_endproc
 5450              	.LFE301:
 5451              		.size	cmd_set_speed, .-cmd_set_speed
 5452              		.section	.rodata
 5453 104f 00       		.align	2
 5454              	.LC131:
 5455 1050 42617474 		.ascii	"Battery raw value = %d\015\012\000"
 5455      65727920 
 5455      72617720 
 5455      76616C75 
 5455      65203D20 
 5456              		.section	.text.cmd_get_battery,"ax",%progbits
ARM GAS  C:\Users\Moi\AppData\Local\Temp\cchaECY7.s 			page 106


 5457              		.align	1
 5458              		.p2align 4,,15
 5459              		.syntax unified
 5460              		.thumb
 5461              		.thumb_func
 5462              		.fpu fpv4-sp-d16
 5463              		.type	cmd_get_battery, %function
 5464              	cmd_get_battery:
 5465              	.LFB302:
 5466              		.loc 7 959 0
 5467              		.cfi_startproc
 5468              		@ args = 0, pretend = 0, frame = 24
 5469              		@ frame_needed = 0, uses_anonymous_args = 0
 5470 0000 00B5     		push	{lr}
 5471              		.cfi_def_cfa_offset 4
 5472              		.cfi_offset 14, -4
 5473 0002 87B0     		sub	sp, sp, #28
 5474              		.cfi_def_cfa_offset 32
 5475 0004 0390     		str	r0, [sp, #12]
 5476 0006 0291     		str	r1, [sp, #8]
 5477 0008 0192     		str	r2, [sp, #4]
 5478              		.loc 7 959 0
 5479 000a 0B4B     		ldr	r3, .L379
 5480 000c 1B68     		ldr	r3, [r3]
 5481 000e 0593     		str	r3, [sp, #20]
 5482              		.loc 7 963 0
 5483 0010 FFF7FEFF 		bl	get_battery_raw
 5484 0014 0346     		mov	r3, r0
 5485 0016 1A46     		mov	r2, r3
 5486 0018 0849     		ldr	r1, .L379+4
 5487 001a 0398     		ldr	r0, [sp, #12]
 5488 001c FFF7FEFF 		bl	chprintf
 5489              		.loc 7 964 0
 5490 0020 00BF     		nop
 5491 0022 054B     		ldr	r3, .L379
 5492 0024 059A     		ldr	r2, [sp, #20]
 5493 0026 1B68     		ldr	r3, [r3]
 5494 0028 9A42     		cmp	r2, r3
 5495 002a 01D0     		beq	.L378
 5496 002c FFF7FEFF 		bl	__stack_chk_fail
 5497              	.L378:
 5498 0030 07B0     		add	sp, sp, #28
 5499              		.cfi_def_cfa_offset 4
 5500              		@ sp needed
 5501 0032 5DF804FB 		ldr	pc, [sp], #4
 5502              	.L380:
 5503 0036 00BF     		.align	2
 5504              	.L379:
 5505 0038 00000000 		.word	__stack_chk_guard
 5506 003c 50100000 		.word	.LC131
 5507              		.cfi_endproc
 5508              	.LFE302:
 5509              		.size	cmd_get_battery, .-cmd_get_battery
 5510              		.section	.rodata
 5511 1069 000000   		.align	2
 5512              	.LC132:
 5513 106c 55736167 		.ascii	"Usage: audio_play freq\015\012freq=100..20000 Hz\015"
ARM GAS  C:\Users\Moi\AppData\Local\Temp\cchaECY7.s 			page 107


 5513      653A2061 
 5513      7564696F 
 5513      5F706C61 
 5513      79206672 
 5514 1097 0A00     		.ascii	"\012\000"
 5515              		.section	.text.cmd_audio_play,"ax",%progbits
 5516              		.align	1
 5517              		.p2align 4,,15
 5518              		.syntax unified
 5519              		.thumb
 5520              		.thumb_func
 5521              		.fpu fpv4-sp-d16
 5522              		.type	cmd_audio_play, %function
 5523              	cmd_audio_play:
 5524              	.LFB303:
 5525              		.loc 7 967 0
 5526              		.cfi_startproc
 5527              		@ args = 0, pretend = 0, frame = 24
 5528              		@ frame_needed = 0, uses_anonymous_args = 0
 5529 0000 00B5     		push	{lr}
 5530              		.cfi_def_cfa_offset 4
 5531              		.cfi_offset 14, -4
 5532 0002 87B0     		sub	sp, sp, #28
 5533              		.cfi_def_cfa_offset 32
 5534 0004 0390     		str	r0, [sp, #12]
 5535 0006 0291     		str	r1, [sp, #8]
 5536 0008 0192     		str	r2, [sp, #4]
 5537              		.loc 7 967 0
 5538 000a 114B     		ldr	r3, .L386
 5539 000c 1B68     		ldr	r3, [r3]
 5540 000e 0593     		str	r3, [sp, #20]
 5541              		.loc 7 969 0
 5542 0010 029B     		ldr	r3, [sp, #8]
 5543 0012 012B     		cmp	r3, #1
 5544 0014 04D0     		beq	.L382
 5545              		.loc 7 970 0
 5546 0016 0F49     		ldr	r1, .L386+4
 5547 0018 0398     		ldr	r0, [sp, #12]
 5548 001a FFF7FEFF 		bl	chprintf
 5549              		.loc 7 976 0
 5550 001e 0CE0     		b	.L385
 5551              	.L382:
 5552              		.loc 7 973 0
 5553 0020 019B     		ldr	r3, [sp, #4]
 5554 0022 1B68     		ldr	r3, [r3]
 5555 0024 1846     		mov	r0, r3
 5556 0026 FFF7FEFF 		bl	atoi
 5557 002a 0346     		mov	r3, r0
 5558 002c ADF81230 		strh	r3, [sp, #18]	@ movhi
 5559              		.loc 7 974 0
 5560 0030 BDF81230 		ldrh	r3, [sp, #18]
 5561 0034 1846     		mov	r0, r3
 5562 0036 FFF7FEFF 		bl	dac_play
 5563              	.L385:
 5564              		.loc 7 976 0
 5565 003a 00BF     		nop
 5566 003c 044B     		ldr	r3, .L386
ARM GAS  C:\Users\Moi\AppData\Local\Temp\cchaECY7.s 			page 108


 5567 003e 059A     		ldr	r2, [sp, #20]
 5568 0040 1B68     		ldr	r3, [r3]
 5569 0042 9A42     		cmp	r2, r3
 5570 0044 01D0     		beq	.L384
 5571 0046 FFF7FEFF 		bl	__stack_chk_fail
 5572              	.L384:
 5573 004a 07B0     		add	sp, sp, #28
 5574              		.cfi_def_cfa_offset 4
 5575              		@ sp needed
 5576 004c 5DF804FB 		ldr	pc, [sp], #4
 5577              	.L387:
 5578              		.align	2
 5579              	.L386:
 5580 0050 00000000 		.word	__stack_chk_guard
 5581 0054 6C100000 		.word	.LC132
 5582              		.cfi_endproc
 5583              	.LFE303:
 5584              		.size	cmd_audio_play, .-cmd_audio_play
 5585              		.section	.text.cmd_audio_stop,"ax",%progbits
 5586              		.align	1
 5587              		.p2align 4,,15
 5588              		.syntax unified
 5589              		.thumb
 5590              		.thumb_func
 5591              		.fpu fpv4-sp-d16
 5592              		.type	cmd_audio_stop, %function
 5593              	cmd_audio_stop:
 5594              	.LFB304:
 5595              		.loc 7 979 0
 5596              		.cfi_startproc
 5597              		@ args = 0, pretend = 0, frame = 24
 5598              		@ frame_needed = 0, uses_anonymous_args = 0
 5599 0000 00B5     		push	{lr}
 5600              		.cfi_def_cfa_offset 4
 5601              		.cfi_offset 14, -4
 5602 0002 87B0     		sub	sp, sp, #28
 5603              		.cfi_def_cfa_offset 32
 5604 0004 0390     		str	r0, [sp, #12]
 5605 0006 0291     		str	r1, [sp, #8]
 5606 0008 0192     		str	r2, [sp, #4]
 5607              		.loc 7 979 0
 5608 000a 084B     		ldr	r3, .L390
 5609 000c 1B68     		ldr	r3, [r3]
 5610 000e 0593     		str	r3, [sp, #20]
 5611              		.loc 7 983 0
 5612 0010 FFF7FEFF 		bl	dac_stop
 5613              		.loc 7 984 0
 5614 0014 00BF     		nop
 5615 0016 054B     		ldr	r3, .L390
 5616 0018 059A     		ldr	r2, [sp, #20]
 5617 001a 1B68     		ldr	r3, [r3]
 5618 001c 9A42     		cmp	r2, r3
 5619 001e 01D0     		beq	.L389
 5620 0020 FFF7FEFF 		bl	__stack_chk_fail
 5621              	.L389:
 5622 0024 07B0     		add	sp, sp, #28
 5623              		.cfi_def_cfa_offset 4
ARM GAS  C:\Users\Moi\AppData\Local\Temp\cchaECY7.s 			page 109


 5624              		@ sp needed
 5625 0026 5DF804FB 		ldr	pc, [sp], #4
 5626              	.L391:
 5627 002a 00BF     		.align	2
 5628              	.L390:
 5629 002c 00000000 		.word	__stack_chk_guard
 5630              		.cfi_endproc
 5631              	.LFE304:
 5632              		.size	cmd_audio_stop, .-cmd_audio_stop
 5633              		.section	.rodata
 5634 1099 000000   		.align	2
 5635              	.LC133:
 5636 109c 55736167 		.ascii	"Usage: volume mic_num.\015\012mic_num=0..3\015\012\000"
 5636      653A2076 
 5636      6F6C756D 
 5636      65206D69 
 5636      635F6E75 
 5637 10c3 00       		.align	2
 5638              	.LC134:
 5639 10c4 25640D0A 		.ascii	"%d\015\012\000"
 5639      00
 5640              		.section	.text.cmd_volume,"ax",%progbits
 5641              		.align	1
 5642              		.p2align 4,,15
 5643              		.syntax unified
 5644              		.thumb
 5645              		.thumb_func
 5646              		.fpu fpv4-sp-d16
 5647              		.type	cmd_volume, %function
 5648              	cmd_volume:
 5649              	.LFB305:
 5650              		.loc 7 987 0
 5651              		.cfi_startproc
 5652              		@ args = 0, pretend = 0, frame = 24
 5653              		@ frame_needed = 0, uses_anonymous_args = 0
 5654 0000 00B5     		push	{lr}
 5655              		.cfi_def_cfa_offset 4
 5656              		.cfi_offset 14, -4
 5657 0002 87B0     		sub	sp, sp, #28
 5658              		.cfi_def_cfa_offset 32
 5659 0004 0390     		str	r0, [sp, #12]
 5660 0006 0291     		str	r1, [sp, #8]
 5661 0008 0192     		str	r2, [sp, #4]
 5662              		.loc 7 987 0
 5663 000a 144B     		ldr	r3, .L397
 5664 000c 1B68     		ldr	r3, [r3]
 5665 000e 0593     		str	r3, [sp, #20]
 5666              		.loc 7 989 0
 5667 0010 029B     		ldr	r3, [sp, #8]
 5668 0012 012B     		cmp	r3, #1
 5669 0014 04D0     		beq	.L393
 5670              		.loc 7 990 0
 5671 0016 1249     		ldr	r1, .L397+4
 5672 0018 0398     		ldr	r0, [sp, #12]
 5673 001a FFF7FEFF 		bl	chprintf
 5674              		.loc 7 995 0
 5675 001e 12E0     		b	.L396
ARM GAS  C:\Users\Moi\AppData\Local\Temp\cchaECY7.s 			page 110


 5676              	.L393:
 5677              		.loc 7 992 0
 5678 0020 019B     		ldr	r3, [sp, #4]
 5679 0022 1B68     		ldr	r3, [r3]
 5680 0024 1846     		mov	r0, r3
 5681 0026 FFF7FEFF 		bl	atoi
 5682 002a 0346     		mov	r3, r0
 5683 002c 8DF81330 		strb	r3, [sp, #19]
 5684              		.loc 7 993 0
 5685 0030 9DF81330 		ldrb	r3, [sp, #19]	@ zero_extendqisi2
 5686 0034 1846     		mov	r0, r3
 5687 0036 FFF7FEFF 		bl	mic_get_volume
 5688 003a 0346     		mov	r3, r0
 5689 003c 1A46     		mov	r2, r3
 5690 003e 0949     		ldr	r1, .L397+8
 5691 0040 0398     		ldr	r0, [sp, #12]
 5692 0042 FFF7FEFF 		bl	chprintf
 5693              	.L396:
 5694              		.loc 7 995 0
 5695 0046 00BF     		nop
 5696 0048 044B     		ldr	r3, .L397
 5697 004a 059A     		ldr	r2, [sp, #20]
 5698 004c 1B68     		ldr	r3, [r3]
 5699 004e 9A42     		cmp	r2, r3
 5700 0050 01D0     		beq	.L395
 5701 0052 FFF7FEFF 		bl	__stack_chk_fail
 5702              	.L395:
 5703 0056 07B0     		add	sp, sp, #28
 5704              		.cfi_def_cfa_offset 4
 5705              		@ sp needed
 5706 0058 5DF804FB 		ldr	pc, [sp], #4
 5707              	.L398:
 5708              		.align	2
 5709              	.L397:
 5710 005c 00000000 		.word	__stack_chk_guard
 5711 0060 9C100000 		.word	.LC133
 5712 0064 C4100000 		.word	.LC134
 5713              		.cfi_endproc
 5714              	.LFE305:
 5715              		.size	cmd_volume, .-cmd_volume
 5716              		.section	.text.cmd_mic_data,"ax",%progbits
 5717              		.align	1
 5718              		.p2align 4,,15
 5719              		.syntax unified
 5720              		.thumb
 5721              		.thumb_func
 5722              		.fpu fpv4-sp-d16
 5723              		.type	cmd_mic_data, %function
 5724              	cmd_mic_data:
 5725              	.LFB306:
 5726              		.loc 7 998 0
 5727              		.cfi_startproc
 5728              		@ args = 0, pretend = 0, frame = 32
 5729              		@ frame_needed = 0, uses_anonymous_args = 0
 5730 0000 00B5     		push	{lr}
 5731              		.cfi_def_cfa_offset 4
 5732              		.cfi_offset 14, -4
ARM GAS  C:\Users\Moi\AppData\Local\Temp\cchaECY7.s 			page 111


 5733 0002 89B0     		sub	sp, sp, #36
 5734              		.cfi_def_cfa_offset 40
 5735 0004 0390     		str	r0, [sp, #12]
 5736 0006 0291     		str	r1, [sp, #8]
 5737 0008 0192     		str	r2, [sp, #4]
 5738              		.loc 7 998 0
 5739 000a 214B     		ldr	r3, .L402
 5740 000c 1B68     		ldr	r3, [r3]
 5741 000e 0793     		str	r3, [sp, #28]
 5742              		.loc 7 1003 0
 5743 0010 FFF7FEFF 		bl	mic_buffer_get_size
 5744 0014 0346     		mov	r3, r0
 5745 0016 ADF81230 		strh	r3, [sp, #18]	@ movhi
 5746              		.loc 7 1004 0
 5747 001a AA23     		movs	r3, #170
 5748 001c 8DF81830 		strb	r3, [sp, #24]
 5749 0020 5523     		movs	r3, #85
 5750 0022 8DF81930 		strb	r3, [sp, #25]
 5751 0026 BDF81230 		ldrh	r3, [sp, #18]
 5752 002a 1B0A     		lsrs	r3, r3, #8
 5753 002c 9BB2     		uxth	r3, r3
 5754 002e DBB2     		uxtb	r3, r3
 5755 0030 8DF81A30 		strb	r3, [sp, #26]
 5756 0034 BDF81230 		ldrh	r3, [sp, #18]	@ movhi
 5757 0038 DBB2     		uxtb	r3, r3
 5758 003a 8DF81B30 		strb	r3, [sp, #27]
 5759              		.loc 7 1006 0
 5760 003e 154B     		ldr	r3, .L402+4
 5761 0040 1B68     		ldr	r3, [r3]
 5762 0042 1B68     		ldr	r3, [r3]
 5763 0044 06A9     		add	r1, sp, #24
 5764 0046 0422     		movs	r2, #4
 5765 0048 1248     		ldr	r0, .L402+4
 5766 004a 9847     		blx	r3
 5767              	.LVL4:
 5768              		.loc 7 1007 0
 5769 004c FFF7FEFF 		bl	mic_buffer_ready_reset
 5770              		.loc 7 1008 0
 5771 0050 00BF     		nop
 5772              	.L400:
 5773              		.loc 7 1008 0 is_stmt 0 discriminator 1
 5774 0052 FFF7FEFF 		bl	mic_buffer_is_ready
 5775 0056 0346     		mov	r3, r0
 5776 0058 83F00103 		eor	r3, r3, #1
 5777 005c DBB2     		uxtb	r3, r3
 5778 005e 002B     		cmp	r3, #0
 5779 0060 F7D1     		bne	.L400
 5780              		.loc 7 1009 0 is_stmt 1
 5781 0062 FFF7FEFF 		bl	mic_get_buffer_ptr
 5782 0066 0590     		str	r0, [sp, #20]
 5783              		.loc 7 1010 0
 5784 0068 0A4B     		ldr	r3, .L402+4
 5785 006a 1B68     		ldr	r3, [r3]
 5786 006c 1B68     		ldr	r3, [r3]
 5787 006e BDF81220 		ldrh	r2, [sp, #18]
 5788 0072 0599     		ldr	r1, [sp, #20]
 5789 0074 0748     		ldr	r0, .L402+4
ARM GAS  C:\Users\Moi\AppData\Local\Temp\cchaECY7.s 			page 112


 5790 0076 9847     		blx	r3
 5791              	.LVL5:
 5792              		.loc 7 1011 0
 5793 0078 00BF     		nop
 5794 007a 054B     		ldr	r3, .L402
 5795 007c 079A     		ldr	r2, [sp, #28]
 5796 007e 1B68     		ldr	r3, [r3]
 5797 0080 9A42     		cmp	r2, r3
 5798 0082 01D0     		beq	.L401
 5799 0084 FFF7FEFF 		bl	__stack_chk_fail
 5800              	.L401:
 5801 0088 09B0     		add	sp, sp, #36
 5802              		.cfi_def_cfa_offset 4
 5803              		@ sp needed
 5804 008a 5DF804FB 		ldr	pc, [sp], #4
 5805              	.L403:
 5806 008e 00BF     		.align	2
 5807              	.L402:
 5808 0090 00000000 		.word	__stack_chk_guard
 5809 0094 00000000 		.word	SDU1
 5810              		.cfi_endproc
 5811              	.LFE306:
 5812              		.size	cmd_mic_data, .-cmd_mic_data
 5813              		.section	.rodata
 5814 10c9 000000   		.align	2
 5815              	.LC135:
 5816 10cc 55736167 		.ascii	"Usage: sdc read|write|erase|all\015\012\000"
 5816      653A2073 
 5816      64632072 
 5816      6561647C 
 5816      77726974 
 5817 10ee 0000     		.align	2
 5818              	.LC136:
 5819 10f0 43617264 		.ascii	"Card not inserted, aborting.\015\012\000"
 5819      206E6F74 
 5819      20696E73 
 5819      65727465 
 5819      642C2061 
 5820 110f 00       		.align	2
 5821              	.LC137:
 5822 1110 436F6E6E 		.ascii	"Connecting... \000"
 5822      65637469 
 5822      6E672E2E 
 5822      2E2000
 5823 111f 00       		.align	2
 5824              	.LC138:
 5825 1120 6661696C 		.ascii	"failed\015\012\000"
 5825      65640D0A 
 5825      00
 5826 1129 000000   		.align	2
 5827              	.LC139:
 5828 112c 4F4B0D0A 		.ascii	"OK\015\012\015\012Card Info\015\012\000"
 5828      0D0A4361 
 5828      72642049 
 5828      6E666F0D 
 5828      0A00
 5829 113e 0000     		.align	2
ARM GAS  C:\Users\Moi\AppData\Local\Temp\cchaECY7.s 			page 113


 5830              	.LC140:
 5831 1140 43534420 		.ascii	"CSD      : %08X %8X %08X %08X \015\012\000"
 5831      20202020 
 5831      203A2025 
 5831      30385820 
 5831      25385820 
 5832 1161 000000   		.align	2
 5833              	.LC141:
 5834 1164 43494420 		.ascii	"CID      : %08X %8X %08X %08X \015\012\000"
 5834      20202020 
 5834      203A2025 
 5834      30385820 
 5834      25385820 
 5835 1185 000000   		.align	2
 5836              	.LC142:
 5837 1188 4D6F6465 		.ascii	"Mode     : %s\015\012\000"
 5837      20202020 
 5837      203A2025 
 5837      730D0A00 
 5838              		.align	2
 5839              	.LC143:
 5840 1198 43617061 		.ascii	"Capacity : %DMB\015\012\000"
 5840      63697479 
 5840      203A2025 
 5840      444D420D 
 5840      0A00
 5841 11aa 0000     		.align	2
 5842              	.LC144:
 5843 11ac 72656164 		.ascii	"read\000"
 5843      00
 5844 11b1 000000   		.align	2
 5845              	.LC145:
 5846 11b4 616C6C00 		.ascii	"all\000"
 5847              		.align	2
 5848              	.LC146:
 5849 11b8 53696E67 		.ascii	"Single block aligned read performance:           \000"
 5849      6C652062 
 5849      6C6F636B 
 5849      20616C69 
 5849      676E6564 
 5850 11ea 0000     		.align	2
 5851              	.LC147:
 5852 11ec 25442062 		.ascii	"%D blocks/S, %D bytes/S\015\012\000"
 5852      6C6F636B 
 5852      732F532C 
 5852      20254420 
 5852      62797465 
 5853 1206 0000     		.align	2
 5854              	.LC148:
 5855 1208 31362073 		.ascii	"16 sequential blocks aligned read performance:   \000"
 5855      65717565 
 5855      6E746961 
 5855      6C20626C 
 5855      6F636B73 
 5856 123a 0000     		.align	2
 5857              	.LC149:
 5858 123c 53696E67 		.ascii	"Single block unaligned read performance:         \000"
ARM GAS  C:\Users\Moi\AppData\Local\Temp\cchaECY7.s 			page 114


 5858      6C652062 
 5858      6C6F636B 
 5858      20756E61 
 5858      6C69676E 
 5859 126e 0000     		.align	2
 5860              	.LC150:
 5861 1270 31362073 		.ascii	"16 sequential blocks unaligned read performance: \000"
 5861      65717565 
 5861      6E746961 
 5861      6C20626C 
 5861      6F636B73 
 5862 12a2 0000     		.align	2
 5863              	.LC151:
 5864 12a4 77726974 		.ascii	"write\000"
 5864      6500
 5865 12aa 0000     		.align	2
 5866              	.LC152:
 5867 12ac 57726974 		.ascii	"Writing...\000"
 5867      696E672E 
 5867      2E2E00
 5868 12b7 00       		.align	2
 5869              	.LC153:
 5870 12b8 4F4B0D0A 		.ascii	"OK\015\012\000"
 5870      00
 5871 12bd 000000   		.align	2
 5872              	.LC154:
 5873 12c0 52656164 		.ascii	"Reading...\000"
 5873      696E672E 
 5873      2E2E00
 5874 12cb 00       		.align	2
 5875              	.LC155:
 5876 12cc 65726173 		.ascii	"erase\000"
 5876      6500
 5877 12d2 0000     		.align	2
 5878              	.LC156:
 5879 12d4 73646345 		.ascii	"sdcErase() test write failed\015\012\000"
 5879      72617365 
 5879      28292074 
 5879      65737420 
 5879      77726974 
 5880 12f3 00       		.align	2
 5881              	.LC157:
 5882 12f4 73646345 		.ascii	"sdcErase() failed\015\012\000"
 5882      72617365 
 5882      28292066 
 5882      61696C65 
 5882      640D0A00 
 5883              		.align	2
 5884              	.LC158:
 5885 1308 73646345 		.ascii	"sdcErase() yielded error flags: %d\015\012\000"
 5885      72617365 
 5885      28292079 
 5885      69656C64 
 5885      65642065 
 5886 132d 000000   		.align	2
 5887              	.LC159:
 5888 1330 73696E67 		.ascii	"single-block sdcErase() failed\015\012\000"
ARM GAS  C:\Users\Moi\AppData\Local\Temp\cchaECY7.s 			page 115


 5888      6C652D62 
 5888      6C6F636B 
 5888      20736463 
 5888      45726173 
 5889 1351 000000   		.align	2
 5890              	.LC160:
 5891 1354 73646345 		.ascii	"sdcErase() non-erased block compare failed\015\012\000"
 5891      72617365 
 5891      2829206E 
 5891      6F6E2D65 
 5891      72617365 
 5892 1381 000000   		.align	2
 5893              	.LC161:
 5894 1384 73646345 		.ascii	"sdcErase() erased block compare failed\015\012\000"
 5894      72617365 
 5894      28292065 
 5894      72617365 
 5894      6420626C 
 5895 13ad 000000   		.align	2
 5896              	.LC162:
 5897 13b0 6D756C74 		.ascii	"multi-block sdcErase() failed\015\012\000"
 5897      692D626C 
 5897      6F636B20 
 5897      73646345 
 5897      72617365 
 5898              		.align	2
 5899              	.LC163:
 5900 13d0 6D756C74 		.ascii	"multi-block sdcErase() erased block compare failed\015"
 5900      692D626C 
 5900      6F636B20 
 5900      73646345 
 5900      72617365 
 5901 1403 0A00     		.ascii	"\012\000"
 5902              		.section	.text.cmd_sdc,"ax",%progbits
 5903              		.align	1
 5904              		.p2align 4,,15
 5905              		.global	cmd_sdc
 5906              		.syntax unified
 5907              		.thumb
 5908              		.thumb_func
 5909              		.fpu fpv4-sp-d16
 5910              		.type	cmd_sdc, %function
 5911              	cmd_sdc:
 5912              	.LFB307:
 5913              		.loc 7 1013 0
 5914              		.cfi_startproc
 5915              		@ args = 0, pretend = 0, frame = 48
 5916              		@ frame_needed = 0, uses_anonymous_args = 0
 5917 0000 10B5     		push	{r4, lr}
 5918              		.cfi_def_cfa_offset 8
 5919              		.cfi_offset 4, -8
 5920              		.cfi_offset 14, -4
 5921 0002 8EB0     		sub	sp, sp, #56
 5922              		.cfi_def_cfa_offset 64
 5923 0004 0590     		str	r0, [sp, #20]
 5924 0006 0491     		str	r1, [sp, #16]
 5925 0008 0392     		str	r2, [sp, #12]
ARM GAS  C:\Users\Moi\AppData\Local\Temp\cchaECY7.s 			page 116


 5926              		.loc 7 1013 0
 5927 000a 904B     		ldr	r3, .L442
 5928 000c 1B68     		ldr	r3, [r3]
 5929 000e 0D93     		str	r3, [sp, #52]
 5930              		.loc 7 1018 0
 5931 0010 049B     		ldr	r3, [sp, #16]
 5932 0012 012B     		cmp	r3, #1
 5933 0014 04D0     		beq	.L405
 5934              		.loc 7 1019 0
 5935 0016 8E49     		ldr	r1, .L442+4
 5936 0018 0598     		ldr	r0, [sp, #20]
 5937 001a FFF7FEFF 		bl	chprintf
 5938              		.loc 7 1020 0
 5939 001e DEE2     		b	.L404
 5940              	.L405:
 5941              		.loc 7 1024 0
 5942 0020 8C4B     		ldr	r3, .L442+8
 5943 0022 1B68     		ldr	r3, [r3]
 5944 0024 1B68     		ldr	r3, [r3]
 5945 0026 8B48     		ldr	r0, .L442+8
 5946 0028 9847     		blx	r3
 5947              	.LVL6:
 5948 002a 0346     		mov	r3, r0
 5949 002c 83F00103 		eor	r3, r3, #1
 5950 0030 DBB2     		uxtb	r3, r3
 5951 0032 002B     		cmp	r3, #0
 5952 0034 04D0     		beq	.L407
 5953              		.loc 7 1025 0
 5954 0036 8849     		ldr	r1, .L442+12
 5955 0038 0598     		ldr	r0, [sp, #20]
 5956 003a FFF7FEFF 		bl	chprintf
 5957              		.loc 7 1026 0
 5958 003e CEE2     		b	.L404
 5959              	.L407:
 5960              		.loc 7 1030 0
 5961 0040 8649     		ldr	r1, .L442+16
 5962 0042 0598     		ldr	r0, [sp, #20]
 5963 0044 FFF7FEFF 		bl	chprintf
 5964              		.loc 7 1031 0
 5965 0048 8248     		ldr	r0, .L442+8
 5966 004a FFF7FEFF 		bl	sdcConnect
 5967 004e 0346     		mov	r3, r0
 5968 0050 002B     		cmp	r3, #0
 5969 0052 04D0     		beq	.L408
 5970              		.loc 7 1032 0
 5971 0054 8249     		ldr	r1, .L442+20
 5972 0056 0598     		ldr	r0, [sp, #20]
 5973 0058 FFF7FEFF 		bl	chprintf
 5974              		.loc 7 1033 0
 5975 005c BFE2     		b	.L404
 5976              	.L408:
 5977              		.loc 7 1036 0
 5978 005e 8149     		ldr	r1, .L442+24
 5979 0060 0598     		ldr	r0, [sp, #20]
 5980 0062 FFF7FEFF 		bl	chprintf
 5981              		.loc 7 1037 0
 5982 0066 7B4B     		ldr	r3, .L442+8
ARM GAS  C:\Users\Moi\AppData\Local\Temp\cchaECY7.s 			page 117


 5983 0068 596A     		ldr	r1, [r3, #36]
 5984 006a 7A4B     		ldr	r3, .L442+8
 5985 006c 186A     		ldr	r0, [r3, #32]
 5986 006e 794B     		ldr	r3, .L442+8
 5987 0070 DB69     		ldr	r3, [r3, #28]
 5988 0072 784A     		ldr	r2, .L442+8
 5989 0074 9269     		ldr	r2, [r2, #24]
 5990 0076 0192     		str	r2, [sp, #4]
 5991 0078 0093     		str	r3, [sp]
 5992 007a 0346     		mov	r3, r0
 5993 007c 0A46     		mov	r2, r1
 5994 007e 7A49     		ldr	r1, .L442+28
 5995 0080 0598     		ldr	r0, [sp, #20]
 5996 0082 FFF7FEFF 		bl	chprintf
 5997              		.loc 7 1039 0
 5998 0086 734B     		ldr	r3, .L442+8
 5999 0088 5969     		ldr	r1, [r3, #20]
 6000 008a 724B     		ldr	r3, .L442+8
 6001 008c 1869     		ldr	r0, [r3, #16]
 6002 008e 714B     		ldr	r3, .L442+8
 6003 0090 DB68     		ldr	r3, [r3, #12]
 6004 0092 704A     		ldr	r2, .L442+8
 6005 0094 9268     		ldr	r2, [r2, #8]
 6006 0096 0192     		str	r2, [sp, #4]
 6007 0098 0093     		str	r3, [sp]
 6008 009a 0346     		mov	r3, r0
 6009 009c 0A46     		mov	r2, r1
 6010 009e 7349     		ldr	r1, .L442+32
 6011 00a0 0598     		ldr	r0, [sp, #20]
 6012 00a2 FFF7FEFF 		bl	chprintf
 6013              		.loc 7 1041 0
 6014 00a6 6B4B     		ldr	r3, .L442+8
 6015 00a8 1B6B     		ldr	r3, [r3, #48]
 6016 00aa 03F00303 		and	r3, r3, #3
 6017 00ae 704A     		ldr	r2, .L442+36
 6018 00b0 52F82330 		ldr	r3, [r2, r3, lsl #2]
 6019 00b4 1A46     		mov	r2, r3
 6020 00b6 6F49     		ldr	r1, .L442+40
 6021 00b8 0598     		ldr	r0, [sp, #20]
 6022 00ba FFF7FEFF 		bl	chprintf
 6023              		.loc 7 1042 0
 6024 00be 654B     		ldr	r3, .L442+8
 6025 00c0 9B6A     		ldr	r3, [r3, #40]
 6026 00c2 DB0A     		lsrs	r3, r3, #11
 6027 00c4 1A46     		mov	r2, r3
 6028 00c6 6C49     		ldr	r1, .L442+44
 6029 00c8 0598     		ldr	r0, [sp, #20]
 6030 00ca FFF7FEFF 		bl	chprintf
 6031              		.loc 7 1045 0
 6032 00ce 614B     		ldr	r3, .L442+8
 6033 00d0 9B6A     		ldr	r3, [r3, #40]
 6034 00d2 9B0A     		lsrs	r3, r3, #10
 6035 00d4 0993     		str	r3, [sp, #36]
 6036              		.loc 7 1047 0
 6037 00d6 039B     		ldr	r3, [sp, #12]
 6038 00d8 1B68     		ldr	r3, [r3]
 6039 00da 6849     		ldr	r1, .L442+48
ARM GAS  C:\Users\Moi\AppData\Local\Temp\cchaECY7.s 			page 118


 6040 00dc 1846     		mov	r0, r3
 6041 00de FFF7FEFF 		bl	strcmp
 6042 00e2 0346     		mov	r3, r0
 6043 00e4 002B     		cmp	r3, #0
 6044 00e6 09D0     		beq	.L409
 6045              		.loc 7 1048 0 discriminator 1
 6046 00e8 039B     		ldr	r3, [sp, #12]
 6047 00ea 1B68     		ldr	r3, [r3]
 6048 00ec 6449     		ldr	r1, .L442+52
 6049 00ee 1846     		mov	r0, r3
 6050 00f0 FFF7FEFF 		bl	strcmp
 6051 00f4 0346     		mov	r3, r0
 6052              		.loc 7 1047 0 discriminator 1
 6053 00f6 002B     		cmp	r3, #0
 6054 00f8 40F0E380 		bne	.L410
 6055              	.L409:
 6056              		.loc 7 1051 0
 6057 00fc 6149     		ldr	r1, .L442+56
 6058 00fe 0598     		ldr	r0, [sp, #20]
 6059 0100 FFF7FEFF 		bl	chprintf
 6060              		.loc 7 1052 0
 6061 0104 FFF7FEFF 		bl	chVTGetSystemTime
 6062 0108 0A90     		str	r0, [sp, #40]
 6063              		.loc 7 1053 0
 6064 010a 0A9B     		ldr	r3, [sp, #40]
 6065 010c 03F57A73 		add	r3, r3, #1000
 6066 0110 0B93     		str	r3, [sp, #44]
 6067              		.loc 7 1054 0
 6068 0112 0023     		movs	r3, #0
 6069 0114 0693     		str	r3, [sp, #24]
 6070              	.L413:
 6071              		.loc 7 1056 0
 6072 0116 4F4B     		ldr	r3, .L442+8
 6073 0118 1B68     		ldr	r3, [r3]
 6074 011a 1C69     		ldr	r4, [r3, #16]
 6075 011c 0123     		movs	r3, #1
 6076 011e 5A4A     		ldr	r2, .L442+60
 6077 0120 0999     		ldr	r1, [sp, #36]
 6078 0122 4C48     		ldr	r0, .L442+8
 6079 0124 A047     		blx	r4
 6080              	.LVL7:
 6081 0126 0346     		mov	r3, r0
 6082 0128 002B     		cmp	r3, #0
 6083 012a 04D0     		beq	.L411
 6084              		.loc 7 1057 0
 6085 012c 4C49     		ldr	r1, .L442+20
 6086 012e 0598     		ldr	r0, [sp, #20]
 6087 0130 FFF7FEFF 		bl	chprintf
 6088              		.loc 7 1058 0
 6089 0134 50E2     		b	.L412
 6090              	.L411:
 6091              		.loc 7 1060 0
 6092 0136 069B     		ldr	r3, [sp, #24]
 6093 0138 0133     		adds	r3, r3, #1
 6094 013a 0693     		str	r3, [sp, #24]
 6095              		.loc 7 1061 0
 6096 013c 0B99     		ldr	r1, [sp, #44]
ARM GAS  C:\Users\Moi\AppData\Local\Temp\cchaECY7.s 			page 119


 6097 013e 0A98     		ldr	r0, [sp, #40]
 6098 0140 FFF7FEFF 		bl	chVTIsSystemTimeWithin
 6099 0144 0346     		mov	r3, r0
 6100 0146 002B     		cmp	r3, #0
 6101 0148 E5D1     		bne	.L413
 6102              		.loc 7 1062 0
 6103 014a 069B     		ldr	r3, [sp, #24]
 6104 014c 5B02     		lsls	r3, r3, #9
 6105 014e 069A     		ldr	r2, [sp, #24]
 6106 0150 4E49     		ldr	r1, .L442+64
 6107 0152 0598     		ldr	r0, [sp, #20]
 6108 0154 FFF7FEFF 		bl	chprintf
 6109              		.loc 7 1065 0
 6110 0158 4D49     		ldr	r1, .L442+68
 6111 015a 0598     		ldr	r0, [sp, #20]
 6112 015c FFF7FEFF 		bl	chprintf
 6113              		.loc 7 1066 0
 6114 0160 FFF7FEFF 		bl	chVTGetSystemTime
 6115 0164 0A90     		str	r0, [sp, #40]
 6116              		.loc 7 1067 0
 6117 0166 0A9B     		ldr	r3, [sp, #40]
 6118 0168 03F57A73 		add	r3, r3, #1000
 6119 016c 0B93     		str	r3, [sp, #44]
 6120              		.loc 7 1068 0
 6121 016e 0023     		movs	r3, #0
 6122 0170 0693     		str	r3, [sp, #24]
 6123              	.L415:
 6124              		.loc 7 1070 0
 6125 0172 384B     		ldr	r3, .L442+8
 6126 0174 1B68     		ldr	r3, [r3]
 6127 0176 1C69     		ldr	r4, [r3, #16]
