ARM GAS  C:\Users\Moi\AppData\Local\Temp\cchaECY7.s 			page 1


   1              		.cpu cortex-m4
   2              		.eabi_attribute 27, 1
   3              		.eabi_attribute 28, 1
   4              		.eabi_attribute 20, 1
   5              		.eabi_attribute 21, 1
   6              		.eabi_attribute 23, 3
   7              		.eabi_attribute 24, 1
   8              		.eabi_attribute 25, 1
   9              		.eabi_attribute 26, 1
  10              		.eabi_attribute 30, 6
  11              		.eabi_attribute 34, 1
  12              		.eabi_attribute 18, 4
  13              		.file	"cmd.c"
  14              		.text
  15              	.Ltext0:
  16              		.cfi_sections	.debug_frame
  17              		.section	.text.port_lock,"ax",%progbits
  18              		.align	1
  19              		.p2align 4,,15
  20              		.syntax unified
  21              		.thumb
  22              		.thumb_func
  23              		.fpu fpv4-sp-d16
  24              		.type	port_lock, %function
  25              	port_lock:
  26              	.LFB119:
  27              		.file 1 "..//ChibiOS//os/rt/ports/ARMCMx/chcore_v7m.h"
  28              		.loc 1 444 0
  29              		.cfi_startproc
  30              		@ args = 0, pretend = 0, frame = 8
  31              		@ frame_needed = 0, uses_anonymous_args = 0
  32 0000 00B5     		push	{lr}
  33              		.cfi_def_cfa_offset 4
  34              		.cfi_offset 14, -4
  35 0002 83B0     		sub	sp, sp, #12
  36              		.cfi_def_cfa_offset 16
  37              		.loc 1 444 0
  38 0004 094B     		ldr	r3, .L3
  39 0006 1B68     		ldr	r3, [r3]
  40 0008 0193     		str	r3, [sp, #4]
  41 000a 2023     		movs	r3, #32
  42 000c 0093     		str	r3, [sp]
  43              	.LBB6:
  44              	.LBB7:
  45              		.file 2 "..//ChibiOS//os/ext/CMSIS/include/core_cmFunc.h"
  46              		.loc 2 546 0
  47 000e 009B     		ldr	r3, [sp]
  48              		.syntax unified
  49              	@ 546 "..//ChibiOS//os/ext/CMSIS/include/core_cmFunc.h" 1
  50 0010 83F31188 		MSR basepri, r3
  51              	@ 0 "" 2
  52              		.thumb
  53              		.syntax unified
  54              	.LBE7:
  55              	.LBE6:
  56              		.loc 1 451 0
  57 0014 00BF     		nop
ARM GAS  C:\Users\Moi\AppData\Local\Temp\cchaECY7.s 			page 2


  58 0016 054B     		ldr	r3, .L3
  59 0018 019A     		ldr	r2, [sp, #4]
  60 001a 1B68     		ldr	r3, [r3]
  61 001c 9A42     		cmp	r2, r3
  62 001e 01D0     		beq	.L2
  63 0020 FFF7FEFF 		bl	__stack_chk_fail
  64              	.L2:
  65 0024 03B0     		add	sp, sp, #12
  66              		.cfi_def_cfa_offset 4
  67              		@ sp needed
  68 0026 5DF804FB 		ldr	pc, [sp], #4
  69              	.L4:
  70 002a 00BF     		.align	2
  71              	.L3:
  72 002c 00000000 		.word	__stack_chk_guard
  73              		.cfi_endproc
  74              	.LFE119:
  75              		.size	port_lock, .-port_lock
  76              		.section	.text.port_unlock,"ax",%progbits
  77              		.align	1
  78              		.p2align 4,,15
  79              		.syntax unified
  80              		.thumb
  81              		.thumb_func
  82              		.fpu fpv4-sp-d16
  83              		.type	port_unlock, %function
  84              	port_unlock:
  85              	.LFB120:
  86              		.loc 1 458 0
  87              		.cfi_startproc
  88              		@ args = 0, pretend = 0, frame = 8
  89              		@ frame_needed = 0, uses_anonymous_args = 0
  90 0000 00B5     		push	{lr}
  91              		.cfi_def_cfa_offset 4
  92              		.cfi_offset 14, -4
  93 0002 83B0     		sub	sp, sp, #12
  94              		.cfi_def_cfa_offset 16
  95              		.loc 1 458 0
  96 0004 094B     		ldr	r3, .L7
  97 0006 1B68     		ldr	r3, [r3]
  98 0008 0193     		str	r3, [sp, #4]
  99 000a 0023     		movs	r3, #0
 100 000c 0093     		str	r3, [sp]
 101              	.LBB8:
 102              	.LBB9:
 103              		.loc 2 546 0
 104 000e 009B     		ldr	r3, [sp]
 105              		.syntax unified
 106              	@ 546 "..//ChibiOS//os/ext/CMSIS/include/core_cmFunc.h" 1
 107 0010 83F31188 		MSR basepri, r3
 108              	@ 0 "" 2
 109              		.thumb
 110              		.syntax unified
 111              	.LBE9:
 112              	.LBE8:
 113              		.loc 1 465 0
 114 0014 00BF     		nop
ARM GAS  C:\Users\Moi\AppData\Local\Temp\cchaECY7.s 			page 3


 115 0016 054B     		ldr	r3, .L7
 116 0018 019A     		ldr	r2, [sp, #4]
 117 001a 1B68     		ldr	r3, [r3]
 118 001c 9A42     		cmp	r2, r3
 119 001e 01D0     		beq	.L6
 120 0020 FFF7FEFF 		bl	__stack_chk_fail
 121              	.L6:
 122 0024 03B0     		add	sp, sp, #12
 123              		.cfi_def_cfa_offset 4
 124              		@ sp needed
 125 0026 5DF804FB 		ldr	pc, [sp], #4
 126              	.L8:
 127 002a 00BF     		.align	2
 128              	.L7:
 129 002c 00000000 		.word	__stack_chk_guard
 130              		.cfi_endproc
 131              	.LFE120:
 132              		.size	port_unlock, .-port_unlock
 133              		.section	.text.chSysLock,"ax",%progbits
 134              		.align	1
 135              		.p2align 4,,15
 136              		.syntax unified
 137              		.thumb
 138              		.thumb_func
 139              		.fpu fpv4-sp-d16
 140              		.type	chSysLock, %function
 141              	chSysLock:
 142              	.LFB148:
 143              		.file 3 "..//ChibiOS//os/rt/include/chsys.h"
 144              		.loc 3 346 0
 145              		.cfi_startproc
 146              		@ args = 0, pretend = 0, frame = 8
 147              		@ frame_needed = 0, uses_anonymous_args = 0
 148 0000 00B5     		push	{lr}
 149              		.cfi_def_cfa_offset 4
 150              		.cfi_offset 14, -4
 151 0002 83B0     		sub	sp, sp, #12
 152              		.cfi_def_cfa_offset 16
 153              		.loc 3 346 0
 154 0004 094B     		ldr	r3, .L11
 155 0006 1B68     		ldr	r3, [r3]
 156 0008 0193     		str	r3, [sp, #4]
 157              		.loc 3 348 0
 158 000a FFF7FEFF 		bl	port_lock
 159              		.loc 3 349 0
 160 000e FFF7FEFF 		bl	_stats_start_measure_crit_thd
 161              		.loc 3 350 0
 162 0012 FFF7FEFF 		bl	_dbg_check_lock
 163              		.loc 3 351 0
 164 0016 00BF     		nop
 165 0018 044B     		ldr	r3, .L11
 166 001a 019A     		ldr	r2, [sp, #4]
 167 001c 1B68     		ldr	r3, [r3]
 168 001e 9A42     		cmp	r2, r3
 169 0020 01D0     		beq	.L10
 170 0022 FFF7FEFF 		bl	__stack_chk_fail
 171              	.L10:
ARM GAS  C:\Users\Moi\AppData\Local\Temp\cchaECY7.s 			page 4


 172 0026 03B0     		add	sp, sp, #12
 173              		.cfi_def_cfa_offset 4
 174              		@ sp needed
 175 0028 5DF804FB 		ldr	pc, [sp], #4
 176              	.L12:
 177              		.align	2
 178              	.L11:
 179 002c 00000000 		.word	__stack_chk_guard
 180              		.cfi_endproc
 181              	.LFE148:
 182              		.size	chSysLock, .-chSysLock
 183              		.section	.text.chSysUnlock,"ax",%progbits
 184              		.align	1
 185              		.p2align 4,,15
 186              		.syntax unified
 187              		.thumb
 188              		.thumb_func
 189              		.fpu fpv4-sp-d16
 190              		.type	chSysUnlock, %function
 191              	chSysUnlock:
 192              	.LFB149:
 193              		.loc 3 358 0
 194              		.cfi_startproc
 195              		@ args = 0, pretend = 0, frame = 8
 196              		@ frame_needed = 0, uses_anonymous_args = 0
 197 0000 00B5     		push	{lr}
 198              		.cfi_def_cfa_offset 4
 199              		.cfi_offset 14, -4
 200 0002 83B0     		sub	sp, sp, #12
 201              		.cfi_def_cfa_offset 16
 202              		.loc 3 358 0
 203 0004 114B     		ldr	r3, .L16
 204 0006 1B68     		ldr	r3, [r3]
 205 0008 0193     		str	r3, [sp, #4]
 206              		.loc 3 360 0
 207 000a FFF7FEFF 		bl	_dbg_check_unlock
 208              		.loc 3 361 0
 209 000e FFF7FEFF 		bl	_stats_stop_measure_crit_thd
 210              		.loc 3 367 0
 211 0012 0F4B     		ldr	r3, .L16+4
 212 0014 1B68     		ldr	r3, [r3]
 213 0016 0E4A     		ldr	r2, .L16+4
 214 0018 9342     		cmp	r3, r2
 215 001a 0AD0     		beq	.L14
 216              		.loc 3 367 0 is_stmt 0 discriminator 2
 217 001c 0C4B     		ldr	r3, .L16+4
 218 001e 9B69     		ldr	r3, [r3, #24]
 219 0020 9A68     		ldr	r2, [r3, #8]
 220 0022 0B4B     		ldr	r3, .L16+4
 221 0024 1B68     		ldr	r3, [r3]
 222 0026 9B68     		ldr	r3, [r3, #8]
 223 0028 9A42     		cmp	r2, r3
 224 002a 02D2     		bcs	.L14
 225              		.loc 3 367 0 discriminator 3
 226 002c 0948     		ldr	r0, .L16+8
 227 002e FFF7FEFF 		bl	chSysHalt
 228              	.L14:
ARM GAS  C:\Users\Moi\AppData\Local\Temp\cchaECY7.s 			page 5


 229              		.loc 3 371 0 is_stmt 1
 230 0032 FFF7FEFF 		bl	port_unlock
 231              		.loc 3 372 0
 232 0036 00BF     		nop
 233 0038 044B     		ldr	r3, .L16
 234 003a 019A     		ldr	r2, [sp, #4]
 235 003c 1B68     		ldr	r3, [r3]
 236 003e 9A42     		cmp	r2, r3
 237 0040 01D0     		beq	.L15
 238 0042 FFF7FEFF 		bl	__stack_chk_fail
 239              	.L15:
 240 0046 03B0     		add	sp, sp, #12
 241              		.cfi_def_cfa_offset 4
 242              		@ sp needed
 243 0048 5DF804FB 		ldr	pc, [sp], #4
 244              	.L17:
 245              		.align	2
 246              	.L16:
 247 004c 00000000 		.word	__stack_chk_guard
 248 0050 00000000 		.word	ch
 249 0054 00000000 		.word	__func__.8875
 250              		.cfi_endproc
 251              	.LFE149:
 252              		.size	chSysUnlock, .-chSysUnlock
 253              		.section	.text.chVTGetSystemTimeX,"ax",%progbits
 254              		.align	1
 255              		.p2align 4,,15
 256              		.syntax unified
 257              		.thumb
 258              		.thumb_func
 259              		.fpu fpv4-sp-d16
 260              		.type	chVTGetSystemTimeX, %function
 261              	chVTGetSystemTimeX:
 262              	.LFB156:
 263              		.file 4 "..//ChibiOS//os/rt/include/chvt.h"
 264              		.loc 4 228 0
 265              		.cfi_startproc
 266              		@ args = 0, pretend = 0, frame = 8
 267              		@ frame_needed = 0, uses_anonymous_args = 0
 268 0000 00B5     		push	{lr}
 269              		.cfi_def_cfa_offset 4
 270              		.cfi_offset 14, -4
 271 0002 83B0     		sub	sp, sp, #12
 272              		.cfi_def_cfa_offset 16
 273              		.loc 4 228 0
 274 0004 074B     		ldr	r3, .L21
 275 0006 1B68     		ldr	r3, [r3]
 276 0008 0193     		str	r3, [sp, #4]
 277              		.loc 4 231 0
 278 000a 074B     		ldr	r3, .L21+4
 279 000c 9B6A     		ldr	r3, [r3, #40]
 280              		.loc 4 235 0
 281 000e 1846     		mov	r0, r3
 282 0010 044B     		ldr	r3, .L21
 283 0012 019A     		ldr	r2, [sp, #4]
 284 0014 1B68     		ldr	r3, [r3]
 285 0016 9A42     		cmp	r2, r3
ARM GAS  C:\Users\Moi\AppData\Local\Temp\cchaECY7.s 			page 6


 286 0018 01D0     		beq	.L20
 287 001a FFF7FEFF 		bl	__stack_chk_fail
 288              	.L20:
 289 001e 03B0     		add	sp, sp, #12
 290              		.cfi_def_cfa_offset 4
 291              		@ sp needed
 292 0020 5DF804FB 		ldr	pc, [sp], #4
 293              	.L22:
 294              		.align	2
 295              	.L21:
 296 0024 00000000 		.word	__stack_chk_guard
 297 0028 00000000 		.word	ch
 298              		.cfi_endproc
 299              	.LFE156:
 300              		.size	chVTGetSystemTimeX, .-chVTGetSystemTimeX
 301              		.section	.text.chVTGetSystemTime,"ax",%progbits
 302              		.align	1
 303              		.p2align 4,,15
 304              		.syntax unified
 305              		.thumb
 306              		.thumb_func
 307              		.fpu fpv4-sp-d16
 308              		.type	chVTGetSystemTime, %function
 309              	chVTGetSystemTime:
 310              	.LFB157:
 311              		.loc 4 247 0
 312              		.cfi_startproc
 313              		@ args = 0, pretend = 0, frame = 8
 314              		@ frame_needed = 0, uses_anonymous_args = 0
 315 0000 00B5     		push	{lr}
 316              		.cfi_def_cfa_offset 4
 317              		.cfi_offset 14, -4
 318 0002 83B0     		sub	sp, sp, #12
 319              		.cfi_def_cfa_offset 16
 320              		.loc 4 247 0
 321 0004 0A4B     		ldr	r3, .L26
 322 0006 1B68     		ldr	r3, [r3]
 323 0008 0193     		str	r3, [sp, #4]
 324              		.loc 4 250 0
 325 000a FFF7FEFF 		bl	chSysLock
 326              		.loc 4 251 0
 327 000e FFF7FEFF 		bl	chVTGetSystemTimeX
 328 0012 0090     		str	r0, [sp]
 329              		.loc 4 252 0
 330 0014 FFF7FEFF 		bl	chSysUnlock
 331              		.loc 4 254 0
 332 0018 009B     		ldr	r3, [sp]
 333              		.loc 4 255 0
 334 001a 1846     		mov	r0, r3
 335 001c 044B     		ldr	r3, .L26
 336 001e 019A     		ldr	r2, [sp, #4]
 337 0020 1B68     		ldr	r3, [r3]
 338 0022 9A42     		cmp	r2, r3
 339 0024 01D0     		beq	.L25
 340 0026 FFF7FEFF 		bl	__stack_chk_fail
 341              	.L25:
 342 002a 03B0     		add	sp, sp, #12
ARM GAS  C:\Users\Moi\AppData\Local\Temp\cchaECY7.s 			page 7


 343              		.cfi_def_cfa_offset 4
 344              		@ sp needed
 345 002c 5DF804FB 		ldr	pc, [sp], #4
 346              	.L27:
 347              		.align	2
 348              	.L26:
 349 0030 00000000 		.word	__stack_chk_guard
 350              		.cfi_endproc
 351              	.LFE157:
 352              		.size	chVTGetSystemTime, .-chVTGetSystemTime
 353              		.section	.text.chVTIsTimeWithinX,"ax",%progbits
 354              		.align	1
 355              		.p2align 4,,15
 356              		.syntax unified
 357              		.thumb
 358              		.thumb_func
 359              		.fpu fpv4-sp-d16
 360              		.type	chVTIsTimeWithinX, %function
 361              	chVTIsTimeWithinX:
 362              	.LFB159:
 363              		.loc 4 286 0
 364              		.cfi_startproc
 365              		@ args = 0, pretend = 0, frame = 24
 366              		@ frame_needed = 0, uses_anonymous_args = 0
 367 0000 00B5     		push	{lr}
 368              		.cfi_def_cfa_offset 4
 369              		.cfi_offset 14, -4
 370 0002 87B0     		sub	sp, sp, #28
 371              		.cfi_def_cfa_offset 32
 372 0004 0390     		str	r0, [sp, #12]
 373 0006 0291     		str	r1, [sp, #8]
 374 0008 0192     		str	r2, [sp, #4]
 375              		.loc 4 286 0
 376 000a 0C4B     		ldr	r3, .L31
 377 000c 1B68     		ldr	r3, [r3]
 378 000e 0593     		str	r3, [sp, #20]
 379              		.loc 4 288 0
 380 0010 039A     		ldr	r2, [sp, #12]
 381 0012 029B     		ldr	r3, [sp, #8]
 382 0014 D21A     		subs	r2, r2, r3
 383 0016 0199     		ldr	r1, [sp, #4]
 384 0018 029B     		ldr	r3, [sp, #8]
 385 001a CB1A     		subs	r3, r1, r3
 386 001c 9A42     		cmp	r2, r3
 387 001e 34BF     		ite	cc
 388 0020 0123     		movcc	r3, #1
 389 0022 0023     		movcs	r3, #0
 390 0024 DBB2     		uxtb	r3, r3
 391              		.loc 4 289 0
 392 0026 1846     		mov	r0, r3
 393 0028 044B     		ldr	r3, .L31
 394 002a 059A     		ldr	r2, [sp, #20]
 395 002c 1B68     		ldr	r3, [r3]
 396 002e 9A42     		cmp	r2, r3
 397 0030 01D0     		beq	.L30
 398 0032 FFF7FEFF 		bl	__stack_chk_fail
 399              	.L30:
ARM GAS  C:\Users\Moi\AppData\Local\Temp\cchaECY7.s 			page 8


 400 0036 07B0     		add	sp, sp, #28
 401              		.cfi_def_cfa_offset 4
 402              		@ sp needed
 403 0038 5DF804FB 		ldr	pc, [sp], #4
 404              	.L32:
 405              		.align	2
 406              	.L31:
 407 003c 00000000 		.word	__stack_chk_guard
 408              		.cfi_endproc
 409              	.LFE159:
 410              		.size	chVTIsTimeWithinX, .-chVTIsTimeWithinX
 411              		.section	.text.chVTIsSystemTimeWithin,"ax",%progbits
 412              		.align	1
 413              		.p2align 4,,15
 414              		.syntax unified
 415              		.thumb
 416              		.thumb_func
 417              		.fpu fpv4-sp-d16
 418              		.type	chVTIsSystemTimeWithin, %function
 419              	chVTIsSystemTimeWithin:
 420              	.LFB161:
 421              		.loc 4 322 0
 422              		.cfi_startproc
 423              		@ args = 0, pretend = 0, frame = 16
 424              		@ frame_needed = 0, uses_anonymous_args = 0
 425 0000 00B5     		push	{lr}
 426              		.cfi_def_cfa_offset 4
 427              		.cfi_offset 14, -4
 428 0002 85B0     		sub	sp, sp, #20
 429              		.cfi_def_cfa_offset 24
 430 0004 0190     		str	r0, [sp, #4]
 431 0006 0091     		str	r1, [sp]
 432              		.loc 4 322 0
 433 0008 0B4B     		ldr	r3, .L36
 434 000a 1B68     		ldr	r3, [r3]
 435 000c 0393     		str	r3, [sp, #12]
 436              		.loc 4 324 0
 437 000e FFF7FEFF 		bl	chVTGetSystemTime
 438 0012 0346     		mov	r3, r0
 439 0014 009A     		ldr	r2, [sp]
 440 0016 0199     		ldr	r1, [sp, #4]
 441 0018 1846     		mov	r0, r3
 442 001a FFF7FEFF 		bl	chVTIsTimeWithinX
 443 001e 0346     		mov	r3, r0
 444              		.loc 4 325 0
 445 0020 1846     		mov	r0, r3
 446 0022 054B     		ldr	r3, .L36
 447 0024 039A     		ldr	r2, [sp, #12]
 448 0026 1B68     		ldr	r3, [r3]
 449 0028 9A42     		cmp	r2, r3
 450 002a 01D0     		beq	.L35
 451 002c FFF7FEFF 		bl	__stack_chk_fail
 452              	.L35:
 453 0030 05B0     		add	sp, sp, #20
 454              		.cfi_def_cfa_offset 4
 455              		@ sp needed
 456 0032 5DF804FB 		ldr	pc, [sp], #4
ARM GAS  C:\Users\Moi\AppData\Local\Temp\cchaECY7.s 			page 9


 457              	.L37:
 458 0036 00BF     		.align	2
 459              	.L36:
 460 0038 00000000 		.word	__stack_chk_guard
 461              		.cfi_endproc
 462              	.LFE161:
 463              		.size	chVTIsSystemTimeWithin, .-chVTIsSystemTimeWithin
 464              		.section	.text.chThdGetSelfX,"ax",%progbits
 465              		.align	1
 466              		.p2align 4,,15
 467              		.syntax unified
 468              		.thumb
 469              		.thumb_func
 470              		.fpu fpv4-sp-d16
 471              		.type	chThdGetSelfX, %function
 472              	chThdGetSelfX:
 473              	.LFB169:
 474              		.file 5 "..//ChibiOS//os/rt/include/chthreads.h"
 475              		.loc 5 174 0
 476              		.cfi_startproc
 477              		@ args = 0, pretend = 0, frame = 8
 478              		@ frame_needed = 0, uses_anonymous_args = 0
 479 0000 00B5     		push	{lr}
 480              		.cfi_def_cfa_offset 4
 481              		.cfi_offset 14, -4
 482 0002 83B0     		sub	sp, sp, #12
 483              		.cfi_def_cfa_offset 16
 484              		.loc 5 174 0
 485 0004 074B     		ldr	r3, .L41
 486 0006 1B68     		ldr	r3, [r3]
 487 0008 0193     		str	r3, [sp, #4]
 488              		.loc 5 176 0
 489 000a 074B     		ldr	r3, .L41+4
 490 000c 9B69     		ldr	r3, [r3, #24]
 491              		.loc 5 177 0
 492 000e 1846     		mov	r0, r3
 493 0010 044B     		ldr	r3, .L41
 494 0012 019A     		ldr	r2, [sp, #4]
 495 0014 1B68     		ldr	r3, [r3]
 496 0016 9A42     		cmp	r2, r3
 497 0018 01D0     		beq	.L40
 498 001a FFF7FEFF 		bl	__stack_chk_fail
 499              	.L40:
 500 001e 03B0     		add	sp, sp, #12
 501              		.cfi_def_cfa_offset 4
 502              		@ sp needed
 503 0020 5DF804FB 		ldr	pc, [sp], #4
 504              	.L42:
 505              		.align	2
 506              	.L41:
 507 0024 00000000 		.word	__stack_chk_guard
 508 0028 00000000 		.word	ch
 509              		.cfi_endproc
 510              	.LFE169:
 511              		.size	chThdGetSelfX, .-chThdGetSelfX
 512              		.section	.text.chThdGetPriorityX,"ax",%progbits
 513              		.align	1
ARM GAS  C:\Users\Moi\AppData\Local\Temp\cchaECY7.s 			page 10


 514              		.p2align 4,,15
 515              		.syntax unified
 516              		.thumb
 517              		.thumb_func
 518              		.fpu fpv4-sp-d16
 519              		.type	chThdGetPriorityX, %function
 520              	chThdGetPriorityX:
 521              	.LFB170:
 522              		.loc 5 187 0
 523              		.cfi_startproc
 524              		@ args = 0, pretend = 0, frame = 8
 525              		@ frame_needed = 0, uses_anonymous_args = 0
 526 0000 00B5     		push	{lr}
 527              		.cfi_def_cfa_offset 4
 528              		.cfi_offset 14, -4
 529 0002 83B0     		sub	sp, sp, #12
 530              		.cfi_def_cfa_offset 16
 531              		.loc 5 187 0
 532 0004 084B     		ldr	r3, .L46
 533 0006 1B68     		ldr	r3, [r3]
 534 0008 0193     		str	r3, [sp, #4]
 535              		.loc 5 189 0
 536 000a FFF7FEFF 		bl	chThdGetSelfX
 537 000e 0346     		mov	r3, r0
 538 0010 9B68     		ldr	r3, [r3, #8]
 539              		.loc 5 190 0
 540 0012 1846     		mov	r0, r3
 541 0014 044B     		ldr	r3, .L46
 542 0016 019A     		ldr	r2, [sp, #4]
 543 0018 1B68     		ldr	r3, [r3]
 544 001a 9A42     		cmp	r2, r3
 545 001c 01D0     		beq	.L45
 546 001e FFF7FEFF 		bl	__stack_chk_fail
 547              	.L45:
 548 0022 03B0     		add	sp, sp, #12
 549              		.cfi_def_cfa_offset 4
 550              		@ sp needed
 551 0024 5DF804FB 		ldr	pc, [sp], #4
 552              	.L47:
 553              		.align	2
 554              	.L46:
 555 0028 00000000 		.word	__stack_chk_guard
 556              		.cfi_endproc
 557              	.LFE170:
 558              		.size	chThdGetPriorityX, .-chThdGetPriorityX
 559              		.section	.text.chThdTerminatedX,"ax",%progbits
 560              		.align	1
 561              		.p2align 4,,15
 562              		.syntax unified
 563              		.thumb
 564              		.thumb_func
 565              		.fpu fpv4-sp-d16
 566              		.type	chThdTerminatedX, %function
 567              	chThdTerminatedX:
 568              	.LFB172:
 569              		.loc 5 218 0
 570              		.cfi_startproc
ARM GAS  C:\Users\Moi\AppData\Local\Temp\cchaECY7.s 			page 11


 571              		@ args = 0, pretend = 0, frame = 16
 572              		@ frame_needed = 0, uses_anonymous_args = 0
 573 0000 00B5     		push	{lr}
 574              		.cfi_def_cfa_offset 4
 575              		.cfi_offset 14, -4
 576 0002 85B0     		sub	sp, sp, #20
 577              		.cfi_def_cfa_offset 24
 578 0004 0190     		str	r0, [sp, #4]
 579              		.loc 5 218 0
 580 0006 0B4B     		ldr	r3, .L51
 581 0008 1B68     		ldr	r3, [r3]
 582 000a 0393     		str	r3, [sp, #12]
 583              		.loc 5 220 0
 584 000c 019B     		ldr	r3, [sp, #4]
 585 000e 93F82030 		ldrb	r3, [r3, #32]	@ zero_extendqisi2
 586 0012 0F2B     		cmp	r3, #15
 587 0014 0CBF     		ite	eq
 588 0016 0123     		moveq	r3, #1
 589 0018 0023     		movne	r3, #0
 590 001a DBB2     		uxtb	r3, r3
 591              		.loc 5 221 0
 592 001c 1846     		mov	r0, r3
 593 001e 054B     		ldr	r3, .L51
 594 0020 039A     		ldr	r2, [sp, #12]
 595 0022 1B68     		ldr	r3, [r3]
 596 0024 9A42     		cmp	r2, r3
 597 0026 01D0     		beq	.L50
 598 0028 FFF7FEFF 		bl	__stack_chk_fail
 599              	.L50:
 600 002c 05B0     		add	sp, sp, #20
 601              		.cfi_def_cfa_offset 4
 602              		@ sp needed
 603 002e 5DF804FB 		ldr	pc, [sp], #4
 604              	.L52:
 605 0032 00BF     		.align	2
 606              	.L51:
 607 0034 00000000 		.word	__stack_chk_guard
 608              		.cfi_endproc
 609              	.LFE172:
 610              		.size	chThdTerminatedX, .-chThdTerminatedX
 611              		.section	.text.chprintf,"ax",%progbits
 612              		.align	1
 613              		.p2align 4,,15
 614              		.syntax unified
 615              		.thumb
 616              		.thumb_func
 617              		.fpu fpv4-sp-d16
 618              		.type	chprintf, %function
 619              	chprintf:
 620              	.LFB259:
 621              		.file 6 "..//ChibiOS//os/hal/lib/streams/chprintf.h"
 622              		.loc 6 69 0
 623              		.cfi_startproc
 624              		@ args = 4, pretend = 12, frame = 24
 625              		@ frame_needed = 0, uses_anonymous_args = 1
 626 0000 0EB4     		push	{r1, r2, r3}
 627              		.cfi_def_cfa_offset 12
ARM GAS  C:\Users\Moi\AppData\Local\Temp\cchaECY7.s 			page 12


 628              		.cfi_offset 1, -12
 629              		.cfi_offset 2, -8
 630              		.cfi_offset 3, -4
 631 0002 00B5     		push	{lr}
 632              		.cfi_def_cfa_offset 16
 633              		.cfi_offset 14, -16
 634 0004 86B0     		sub	sp, sp, #24
 635              		.cfi_def_cfa_offset 40
 636 0006 0190     		str	r0, [sp, #4]
 637 0008 079B     		ldr	r3, [sp, #28]
 638 000a 0093     		str	r3, [sp]
 639              		.loc 6 69 0
 640 000c 0C4B     		ldr	r3, .L56
 641 000e 1B68     		ldr	r3, [r3]
 642 0010 0593     		str	r3, [sp, #20]
 643              		.loc 6 73 0
 644 0012 08AB     		add	r3, sp, #32
 645 0014 0393     		str	r3, [sp, #12]
 646              		.loc 6 74 0
 647 0016 039A     		ldr	r2, [sp, #12]
 648 0018 0099     		ldr	r1, [sp]
 649 001a 0198     		ldr	r0, [sp, #4]
 650 001c FFF7FEFF 		bl	chvprintf
 651 0020 0490     		str	r0, [sp, #16]
 652              		.loc 6 77 0
 653 0022 049B     		ldr	r3, [sp, #16]
 654              		.loc 6 78 0
 655 0024 1846     		mov	r0, r3
 656 0026 064B     		ldr	r3, .L56
 657 0028 059A     		ldr	r2, [sp, #20]
 658 002a 1B68     		ldr	r3, [r3]
 659 002c 9A42     		cmp	r2, r3
 660 002e 01D0     		beq	.L55
 661 0030 FFF7FEFF 		bl	__stack_chk_fail
 662              	.L55:
 663 0034 06B0     		add	sp, sp, #24
 664              		.cfi_def_cfa_offset 16
 665              		@ sp needed
 666 0036 5DF804EB 		ldr	lr, [sp], #4
 667              		.cfi_restore 14
 668              		.cfi_def_cfa_offset 12
 669 003a 03B0     		add	sp, sp, #12
 670              		.cfi_restore 3
 671              		.cfi_restore 2
 672              		.cfi_restore 1
 673              		.cfi_def_cfa_offset 0
 674 003c 7047     		bx	lr
 675              	.L57:
 676 003e 00BF     		.align	2
 677              	.L56:
 678 0040 00000000 		.word	__stack_chk_guard
 679              		.cfi_endproc
 680              	.LFE259:
 681              		.size	chprintf, .-chprintf
 682              		.section	.bss.buf,"aw",%nobits
 683              		.align	2
 684              		.type	buf, %object
ARM GAS  C:\Users\Moi\AppData\Local\Temp\cchaECY7.s 			page 13


 685              		.size	buf, 8196
 686              	buf:
 687 0000 00000000 		.space	8196
 687      00000000 
 687      00000000 
 687      00000000 
 687      00000000 
 688              		.section	.bss.buf2,"aw",%nobits
 689              		.align	2
 690              		.type	buf2, %object
 691              		.size	buf2, 8192
 692              	buf2:
 693 0000 00000000 		.space	8192
 693      00000000 
 693      00000000 
 693      00000000 
 693      00000000 
 694              		.section	.bss.cmd_fmt,"aw",%nobits
 695              		.type	cmd_fmt, %object
 696              		.size	cmd_fmt, 1
 697              	cmd_fmt:
 698 0000 00       		.space	1
 699              		.section	.bss.cmd_subx,"aw",%nobits
 700              		.type	cmd_subx, %object
 701              		.size	cmd_subx, 1
 702              	cmd_subx:
 703 0000 00       		.space	1
 704              		.section	.bss.cmd_suby,"aw",%nobits
 705              		.type	cmd_suby, %object
 706              		.size	cmd_suby, 1
 707              	cmd_suby:
 708 0000 00       		.space	1
 709              		.section	.bss.cmd_x1,"aw",%nobits
 710              		.align	1
 711              		.type	cmd_x1, %object
 712              		.size	cmd_x1, 2
 713              	cmd_x1:
 714 0000 0000     		.space	2
 715              		.section	.bss.cmd_y1,"aw",%nobits
 716              		.align	1
 717              		.type	cmd_y1, %object
 718              		.size	cmd_y1, 2
 719              	cmd_y1:
 720 0000 0000     		.space	2
 721              		.section	.bss.cmd_width,"aw",%nobits
 722              		.align	1
 723              		.type	cmd_width, %object
 724              		.size	cmd_width, 2
 725              	cmd_width:
 726 0000 0000     		.space	2
 727              		.section	.bss.cmd_height,"aw",%nobits
 728              		.align	1
 729              		.type	cmd_height, %object
 730              		.size	cmd_height, 2
 731              	cmd_height:
 732 0000 0000     		.space	2
 733              		.section	.bss.fbuff,"aw",%nobits
ARM GAS  C:\Users\Moi\AppData\Local\Temp\cchaECY7.s 			page 14


 734              		.align	2
 735              		.type	fbuff, %object
 736              		.size	fbuff, 256
 737              	fbuff:
 738 0000 00000000 		.space	256
 738      00000000 
 738      00000000 
 738      00000000 
 738      00000000 
 739              		.section	.rodata
 740              		.align	2
 741              	.LC0:
 742 0000 46533A20 		.ascii	"FS: f_mount() failed. Is the SD card inserted?\015\012"
 742      665F6D6F 
 742      756E7428 
 742      29206661 
 742      696C6564 
 743 0030 00       		.ascii	"\000"
 744 0031 000000   		.align	2
 745              	.LC1:
 746 0034 46533A20 		.ascii	"FS: f_mount() succeeded\015\012\000"
 746      665F6D6F 
 746      756E7428 
 746      29207375 
 746      63636565 
 747              		.section	.text.cmd_mount,"ax",%progbits
 748              		.align	1
 749              		.p2align 4,,15
 750              		.global	cmd_mount
 751              		.syntax unified
 752              		.thumb
 753              		.thumb_func
 754              		.fpu fpv4-sp-d16
 755              		.type	cmd_mount, %function
 756              	cmd_mount:
 757              	.LFB260:
 758              		.file 7 "..//src/cmd.c"
 759              		.loc 7 53 0
 760              		.cfi_startproc
 761              		@ args = 0, pretend = 0, frame = 24
 762              		@ frame_needed = 0, uses_anonymous_args = 0
 763 0000 00B5     		push	{lr}
 764              		.cfi_def_cfa_offset 4
 765              		.cfi_offset 14, -4
 766 0002 87B0     		sub	sp, sp, #28
 767              		.cfi_def_cfa_offset 32
 768 0004 0390     		str	r0, [sp, #12]
 769 0006 0291     		str	r1, [sp, #8]
 770 0008 0192     		str	r2, [sp, #4]
 771              		.loc 7 53 0
 772 000a 0F4B     		ldr	r3, .L62
 773 000c 1B68     		ldr	r3, [r3]
 774 000e 0593     		str	r3, [sp, #20]
 775              		.loc 7 60 0
 776 0010 FFF7FEFF 		bl	mountSDCard
 777 0014 0346     		mov	r3, r0
 778 0016 83F00103 		eor	r3, r3, #1
ARM GAS  C:\Users\Moi\AppData\Local\Temp\cchaECY7.s 			page 15


 779 001a DBB2     		uxtb	r3, r3
 780 001c 002B     		cmp	r3, #0
 781 001e 04D0     		beq	.L59
 782              		.loc 7 61 0
 783 0020 0A49     		ldr	r1, .L62+4
 784 0022 0398     		ldr	r0, [sp, #12]
 785 0024 FFF7FEFF 		bl	chprintf
 786              		.loc 7 62 0
 787 0028 03E0     		b	.L58
 788              	.L59:
 789              		.loc 7 64 0
 790 002a 0949     		ldr	r1, .L62+8
 791 002c 0398     		ldr	r0, [sp, #12]
 792 002e FFF7FEFF 		bl	chprintf
 793              	.L58:
 794              		.loc 7 65 0
 795 0032 054B     		ldr	r3, .L62
 796 0034 059A     		ldr	r2, [sp, #20]
 797 0036 1B68     		ldr	r3, [r3]
 798 0038 9A42     		cmp	r2, r3
 799 003a 01D0     		beq	.L61
 800 003c FFF7FEFF 		bl	__stack_chk_fail
 801              	.L61:
 802 0040 07B0     		add	sp, sp, #28
 803              		.cfi_def_cfa_offset 4
 804              		@ sp needed
 805 0042 5DF804FB 		ldr	pc, [sp], #4
 806              	.L63:
 807 0046 00BF     		.align	2
 808              	.L62:
 809 0048 00000000 		.word	__stack_chk_guard
 810 004c 00000000 		.word	.LC0
 811 0050 34000000 		.word	.LC1
 812              		.cfi_endproc
 813              	.LFE260:
 814              		.size	cmd_mount, .-cmd_mount
 815              		.section	.rodata
 816 004e 0000     		.align	2
 817              	.LC2:
 818 0050 46533A20 		.ascii	"FS: f_mount() unmount failed\015\012\000"
 818      665F6D6F 
 818      756E7428 
 818      2920756E 
 818      6D6F756E 
 819              		.section	.text.cmd_unmount,"ax",%progbits
 820              		.align	1
 821              		.p2align 4,,15
 822              		.global	cmd_unmount
 823              		.syntax unified
 824              		.thumb
 825              		.thumb_func
 826              		.fpu fpv4-sp-d16
 827              		.type	cmd_unmount, %function
 828              	cmd_unmount:
 829              	.LFB261:
 830              		.loc 7 67 0
 831              		.cfi_startproc
ARM GAS  C:\Users\Moi\AppData\Local\Temp\cchaECY7.s 			page 16


 832              		@ args = 0, pretend = 0, frame = 24
 833              		@ frame_needed = 0, uses_anonymous_args = 0
 834 0000 00B5     		push	{lr}
 835              		.cfi_def_cfa_offset 4
 836              		.cfi_offset 14, -4
 837 0002 87B0     		sub	sp, sp, #28
 838              		.cfi_def_cfa_offset 32
 839 0004 0390     		str	r0, [sp, #12]
 840 0006 0291     		str	r1, [sp, #8]
 841 0008 0192     		str	r2, [sp, #4]
 842              		.loc 7 67 0
 843 000a 0D4B     		ldr	r3, .L67
 844 000c 1B68     		ldr	r3, [r3]
 845 000e 0593     		str	r3, [sp, #20]
 846              		.loc 7 71 0
 847 0010 FFF7FEFF 		bl	unmountSDCard
 848 0014 0346     		mov	r3, r0
 849 0016 83F00103 		eor	r3, r3, #1
 850 001a DBB2     		uxtb	r3, r3
 851 001c 002B     		cmp	r3, #0
 852 001e 04D0     		beq	.L64
 853              		.loc 7 72 0
 854 0020 0849     		ldr	r1, .L67+4
 855 0022 0398     		ldr	r0, [sp, #12]
 856 0024 FFF7FEFF 		bl	chprintf
 857              		.loc 7 73 0
 858 0028 00BF     		nop
 859              	.L64:
 860              		.loc 7 75 0
 861 002a 054B     		ldr	r3, .L67
 862 002c 059A     		ldr	r2, [sp, #20]
 863 002e 1B68     		ldr	r3, [r3]
 864 0030 9A42     		cmp	r2, r3
 865 0032 01D0     		beq	.L66
 866 0034 FFF7FEFF 		bl	__stack_chk_fail
 867              	.L66:
 868 0038 07B0     		add	sp, sp, #28
 869              		.cfi_def_cfa_offset 4
 870              		@ sp needed
 871 003a 5DF804FB 		ldr	pc, [sp], #4
 872              	.L68:
 873 003e 00BF     		.align	2
 874              	.L67:
 875 0040 00000000 		.word	__stack_chk_guard
 876 0044 50000000 		.word	.LC2
 877              		.cfi_endproc
 878              	.LFE261:
 879              		.size	cmd_unmount, .-cmd_unmount
 880              		.section	.rodata
 881 006f 00       		.align	2
 882              	.LC3:
 883 0070 2F00     		.ascii	"/\000"
 884 0072 0000     		.align	2
 885              	.LC4:
 886 0074 46533A20 		.ascii	"FS: f_getfree() failed\015\012\000"
 886      665F6765 
 886      74667265 
ARM GAS  C:\Users\Moi\AppData\Local\Temp\cchaECY7.s 			page 17


 886      65282920 
 886      6661696C 
 887 008d 000000   		.align	2
 888              	.LC5:
 889 0090 46533A20 		.ascii	"FS: %lu free clusters\015\012    %lu sectors per cl"
 889      256C7520 
 889      66726565 
 889      20636C75 
 889      73746572 
 890 00bd 75737465 		.ascii	"uster\015\012\000"
 890      720D0A00 
 891 00c5 000000   		.align	2
 892              	.LC6:
 893 00c8 256C7520 		.ascii	"%lu B free\015\012\000"
 893      42206672 
 893      65650D0A 
 893      00
 894 00d5 000000   		.align	2
 895              	.LC7:
 896 00d8 256C7520 		.ascii	"%lu KB free\015\012\000"
 896      4B422066 
 896      7265650D 
 896      0A00
 897 00e6 0000     		.align	2
 898              	.LC8:
 899 00e8 256C7520 		.ascii	"%lu MB free\015\012\000"
 899      4D422066 
 899      7265650D 
 899      0A00
 900              		.section	.text.cmd_free,"ax",%progbits
 901              		.align	1
 902              		.p2align 4,,15
 903              		.global	cmd_free
 904              		.syntax unified
 905              		.thumb
 906              		.thumb_func
 907              		.fpu fpv4-sp-d16
 908              		.type	cmd_free, %function
 909              	cmd_free:
 910              	.LFB262:
 911              		.loc 7 77 0
 912              		.cfi_startproc
 913              		@ args = 0, pretend = 0, frame = 32
 914              		@ frame_needed = 0, uses_anonymous_args = 0
 915 0000 00B5     		push	{lr}
 916              		.cfi_def_cfa_offset 4
 917              		.cfi_offset 14, -4
 918 0002 89B0     		sub	sp, sp, #36
 919              		.cfi_def_cfa_offset 40
 920 0004 0390     		str	r0, [sp, #12]
 921 0006 0291     		str	r1, [sp, #8]
 922 0008 0192     		str	r2, [sp, #4]
 923              		.loc 7 77 0
 924 000a 274B     		ldr	r3, .L73
 925 000c 1B68     		ldr	r3, [r3]
 926 000e 0793     		str	r3, [sp, #28]
 927              		.loc 7 85 0
ARM GAS  C:\Users\Moi\AppData\Local\Temp\cchaECY7.s 			page 18


 928 0010 06AA     		add	r2, sp, #24
 929 0012 05AB     		add	r3, sp, #20
 930 0014 1946     		mov	r1, r3
 931 0016 2548     		ldr	r0, .L73+4
 932 0018 FFF7FEFF 		bl	f_getfree
 933 001c 0346     		mov	r3, r0
 934 001e 8DF81230 		strb	r3, [sp, #18]
 935              		.loc 7 86 0
 936 0022 9DF81230 		ldrb	r3, [sp, #18]	@ zero_extendqisi2
 937 0026 002B     		cmp	r3, #0
 938 0028 04D0     		beq	.L70
 939              		.loc 7 87 0
 940 002a 2149     		ldr	r1, .L73+8
 941 002c 0398     		ldr	r0, [sp, #12]
 942 002e FFF7FEFF 		bl	chprintf
 943 0032 2EE0     		b	.L69
 944              	.L70:
 945              		.loc 7 91 0
 946 0034 FFF7FEFF 		bl	getSDCardClusterSize
 947 0038 0346     		mov	r3, r0
 948 003a 8DF81330 		strb	r3, [sp, #19]
 949              		.loc 7 95 0
 950 003e 059A     		ldr	r2, [sp, #20]
 951 0040 9DF81330 		ldrb	r3, [sp, #19]	@ zero_extendqisi2
 952 0044 1B49     		ldr	r1, .L73+12
 953 0046 0398     		ldr	r0, [sp, #12]
 954 0048 FFF7FEFF 		bl	chprintf
 955              		.loc 7 98 0
 956 004c 9DF81330 		ldrb	r3, [sp, #19]	@ zero_extendqisi2
 957 0050 059A     		ldr	r2, [sp, #20]
 958 0052 02FB03F3 		mul	r3, r2, r3
 959              		.loc 7 97 0
 960 0056 5B02     		lsls	r3, r3, #9
 961 0058 1A46     		mov	r2, r3
 962 005a 1749     		ldr	r1, .L73+16
 963 005c 0398     		ldr	r0, [sp, #12]
 964 005e FFF7FEFF 		bl	chprintf
 965              		.loc 7 100 0
 966 0062 9DF81330 		ldrb	r3, [sp, #19]	@ zero_extendqisi2
 967 0066 059A     		ldr	r2, [sp, #20]
 968 0068 02FB03F3 		mul	r3, r2, r3
 969 006c 5B02     		lsls	r3, r3, #9
 970              		.loc 7 99 0
 971 006e 9B0A     		lsrs	r3, r3, #10
 972 0070 1A46     		mov	r2, r3
 973 0072 1249     		ldr	r1, .L73+20
 974 0074 0398     		ldr	r0, [sp, #12]
 975 0076 FFF7FEFF 		bl	chprintf
 976              		.loc 7 102 0
 977 007a 9DF81330 		ldrb	r3, [sp, #19]	@ zero_extendqisi2
 978 007e 059A     		ldr	r2, [sp, #20]
 979 0080 02FB03F3 		mul	r3, r2, r3
 980 0084 5B02     		lsls	r3, r3, #9
 981              		.loc 7 101 0
 982 0086 1B0D     		lsrs	r3, r3, #20
 983 0088 1A46     		mov	r2, r3
 984 008a 0D49     		ldr	r1, .L73+24
ARM GAS  C:\Users\Moi\AppData\Local\Temp\cchaECY7.s 			page 19


 985 008c 0398     		ldr	r0, [sp, #12]
 986 008e FFF7FEFF 		bl	chprintf
 987              	.L69:
 988              		.loc 7 103 0
 989 0092 054B     		ldr	r3, .L73
 990 0094 079A     		ldr	r2, [sp, #28]
 991 0096 1B68     		ldr	r3, [r3]
 992 0098 9A42     		cmp	r2, r3
 993 009a 01D0     		beq	.L72
 994 009c FFF7FEFF 		bl	__stack_chk_fail
 995              	.L72:
 996 00a0 09B0     		add	sp, sp, #36
 997              		.cfi_def_cfa_offset 4
 998              		@ sp needed
 999 00a2 5DF804FB 		ldr	pc, [sp], #4
 1000              	.L74:
 1001 00a6 00BF     		.align	2
 1002              	.L73:
 1003 00a8 00000000 		.word	__stack_chk_guard
 1004 00ac 70000000 		.word	.LC3
 1005 00b0 74000000 		.word	.LC4
 1006 00b4 90000000 		.word	.LC5
 1007 00b8 C8000000 		.word	.LC6
 1008 00bc D8000000 		.word	.LC7
 1009 00c0 E8000000 		.word	.LC8
 1010              		.cfi_endproc
 1011              	.LFE262:
 1012              		.size	cmd_free, .-cmd_free
 1013              		.section	.text.cmd_tree,"ax",%progbits
 1014              		.align	1
 1015              		.p2align 4,,15
 1016              		.global	cmd_tree
 1017              		.syntax unified
 1018              		.thumb
 1019              		.thumb_func
 1020              		.fpu fpv4-sp-d16
 1021              		.type	cmd_tree, %function
 1022              	cmd_tree:
 1023              	.LFB263:
 1024              		.loc 7 105 0
 1025              		.cfi_startproc
 1026              		@ args = 0, pretend = 0, frame = 24
 1027              		@ frame_needed = 0, uses_anonymous_args = 0
 1028 0000 00B5     		push	{lr}
 1029              		.cfi_def_cfa_offset 4
 1030              		.cfi_offset 14, -4
 1031 0002 87B0     		sub	sp, sp, #28
 1032              		.cfi_def_cfa_offset 32
 1033 0004 0390     		str	r0, [sp, #12]
 1034 0006 0291     		str	r1, [sp, #8]
 1035 0008 0192     		str	r2, [sp, #4]
 1036              		.loc 7 105 0
 1037 000a 0C4B     		ldr	r3, .L77
 1038 000c 1B68     		ldr	r3, [r3]
 1039 000e 0593     		str	r3, [sp, #20]
 1040              		.loc 7 112 0
 1041 0010 4FF48072 		mov	r2, #256
ARM GAS  C:\Users\Moi\AppData\Local\Temp\cchaECY7.s 			page 20


 1042 0014 0021     		movs	r1, #0
 1043 0016 0A48     		ldr	r0, .L77+4
 1044 0018 FFF7FEFF 		bl	memset
 1045              		.loc 7 114 0
 1046 001c 0849     		ldr	r1, .L77+4
 1047 001e 0398     		ldr	r0, [sp, #12]
 1048 0020 FFF7FEFF 		bl	scan_files
 1049              		.loc 7 115 0
 1050 0024 00BF     		nop
 1051 0026 054B     		ldr	r3, .L77
 1052 0028 059A     		ldr	r2, [sp, #20]
 1053 002a 1B68     		ldr	r3, [r3]
 1054 002c 9A42     		cmp	r2, r3
 1055 002e 01D0     		beq	.L76
 1056 0030 FFF7FEFF 		bl	__stack_chk_fail
 1057              	.L76:
 1058 0034 07B0     		add	sp, sp, #28
 1059              		.cfi_def_cfa_offset 4
 1060              		@ sp needed
 1061 0036 5DF804FB 		ldr	pc, [sp], #4
 1062              	.L78:
 1063 003a 00BF     		.align	2
 1064              	.L77:
 1065 003c 00000000 		.word	__stack_chk_guard
 1066 0040 00000000 		.word	fbuff
 1067              		.cfi_endproc
 1068              	.LFE263:
 1069              		.size	cmd_tree, .-cmd_tree
 1070              		.section	.rodata
 1071 00f6 0000     		.align	2
 1072              	.LC9:
 1073 00f8 55736167 		.ascii	"Usage: hello\015\012\000"
 1073      653A2068 
 1073      656C6C6F 
 1073      0D0A00
 1074 0107 00       		.align	2
 1075              	.LC10:
 1076 0108 20202020 		.ascii	"       Creates hello.txt with 'Hello World'\015\012"
 1076      20202043 
 1076      72656174 
 1076      65732068 
 1076      656C6C6F 
 1077 0135 00       		.ascii	"\000"
 1078 0136 0000     		.align	2
 1079              	.LC11:
 1080 0138 68656C6C 		.ascii	"hello.txt\000"
 1080      6F2E7478 
 1080      7400
 1081 0142 0000     		.align	2
 1082              	.LC12:
 1083 0144 46533A20 		.ascii	"FS: f_open(\"hello.txt\") failed.\015\012\000"
 1083      665F6F70 
 1083      656E2822 
 1083      68656C6C 
 1083      6F2E7478 
 1084 0166 0000     		.align	2
 1085              	.LC13:
ARM GAS  C:\Users\Moi\AppData\Local\Temp\cchaECY7.s 			page 21


 1086 0168 46533A20 		.ascii	"FS: f_open(\"hello.txt\") succeeded\015\012\000"
 1086      665F6F70 
 1086      656E2822 
 1086      68656C6C 
 1086      6F2E7478 
 1087              		.align	2
 1088              	.LC14:
 1089 018c 48656C6C 		.ascii	"Hello World\000"
 1089      6F20576F 
 1089      726C6400 
 1090              		.align	2
 1091              	.LC15:
 1092 0198 46533A20 		.ascii	"FS: f_puts(\"Hello World\",\"hello.txt\") failed\015"
 1092      665F7075 
 1092      74732822 
 1092      48656C6C 
 1092      6F20576F 
 1093 01c5 0A00     		.ascii	"\012\000"
 1094 01c7 00       		.align	2
 1095              	.LC16:
 1096 01c8 46533A20 		.ascii	"FS: f_puts(\"Hello World\",\"hello.txt\") succeeded"
 1096      665F7075 
 1096      74732822 
 1096      48656C6C 
 1096      6F20576F 
 1097 01f7 0D0A00   		.ascii	"\015\012\000"
 1098              		.section	.text.cmd_hello,"ax",%progbits
 1099              		.align	1
 1100              		.p2align 4,,15
 1101              		.global	cmd_hello
 1102              		.syntax unified
 1103              		.thumb
 1104              		.thumb_func
 1105              		.fpu fpv4-sp-d16
 1106              		.type	cmd_hello, %function
 1107              	cmd_hello:
 1108              	.LFB264:
 1109              		.loc 7 118 0
 1110              		.cfi_startproc
 1111              		@ args = 0, pretend = 0, frame = 584
 1112              		@ frame_needed = 0, uses_anonymous_args = 0
 1113 0000 10B5     		push	{r4, lr}
 1114              		.cfi_def_cfa_offset 8
 1115              		.cfi_offset 4, -8
 1116              		.cfi_offset 14, -4
 1117 0002 ADF5127D 		sub	sp, sp, #584
 1118              		.cfi_def_cfa_offset 592
 1119 0006 03AB     		add	r3, sp, #12
 1120 0008 1860     		str	r0, [r3]
 1121 000a 02AB     		add	r3, sp, #8
 1122 000c 1960     		str	r1, [r3]
 1123 000e 01AB     		add	r3, sp, #4
 1124 0010 1A60     		str	r2, [r3]
 1125              		.loc 7 118 0
 1126 0012 2C4B     		ldr	r3, .L87
 1127 0014 1B68     		ldr	r3, [r3]
 1128 0016 9193     		str	r3, [sp, #580]
ARM GAS  C:\Users\Moi\AppData\Local\Temp\cchaECY7.s 			page 22


 1129              		.loc 7 126 0
 1130 0018 02AB     		add	r3, sp, #8
 1131 001a 1B68     		ldr	r3, [r3]
 1132 001c 002B     		cmp	r3, #0
 1133 001e 0ADD     		ble	.L80
 1134              		.loc 7 127 0
 1135 0020 03AB     		add	r3, sp, #12
 1136 0022 2949     		ldr	r1, .L87+4
 1137 0024 1868     		ldr	r0, [r3]
 1138 0026 FFF7FEFF 		bl	chprintf
 1139              		.loc 7 128 0
 1140 002a 03AB     		add	r3, sp, #12
 1141 002c 2749     		ldr	r1, .L87+8
 1142 002e 1868     		ldr	r0, [r3]
 1143 0030 FFF7FEFF 		bl	chprintf
 1144              		.loc 7 129 0
 1145 0034 3CE0     		b	.L79
 1146              	.L80:
 1147              		.loc 7 134 0
 1148 0036 0DF11704 		add	r4, sp, #23
 1149 003a 07AB     		add	r3, sp, #28
 1150 003c 0B22     		movs	r2, #11
 1151 003e 2449     		ldr	r1, .L87+12
 1152 0040 1846     		mov	r0, r3
 1153 0042 FFF7FEFF 		bl	f_open
 1154 0046 0346     		mov	r3, r0
 1155 0048 2370     		strb	r3, [r4]
 1156              		.loc 7 135 0
 1157 004a 0DF11703 		add	r3, sp, #23
 1158 004e 1B78     		ldrb	r3, [r3]	@ zero_extendqisi2
 1159 0050 002B     		cmp	r3, #0
 1160 0052 0DD0     		beq	.L82
 1161              		.loc 7 136 0
 1162 0054 03AB     		add	r3, sp, #12
 1163 0056 1F49     		ldr	r1, .L87+16
 1164 0058 1868     		ldr	r0, [r3]
 1165 005a FFF7FEFF 		bl	chprintf
 1166              		.loc 7 137 0
 1167 005e 0DF11703 		add	r3, sp, #23
 1168 0062 1A78     		ldrb	r2, [r3]	@ zero_extendqisi2
 1169 0064 03AB     		add	r3, sp, #12
 1170 0066 1146     		mov	r1, r2
 1171 0068 1868     		ldr	r0, [r3]
 1172 006a FFF7FEFF 		bl	fverbose_error
 1173              		.loc 7 138 0
 1174 006e 1FE0     		b	.L79
 1175              	.L82:
 1176              		.loc 7 140 0
 1177 0070 03AB     		add	r3, sp, #12
 1178 0072 1949     		ldr	r1, .L87+20
 1179 0074 1868     		ldr	r0, [r3]
 1180 0076 FFF7FEFF 		bl	chprintf
 1181              		.loc 7 145 0
 1182 007a 06AC     		add	r4, sp, #24
 1183 007c 07AB     		add	r3, sp, #28
 1184 007e 1946     		mov	r1, r3
 1185 0080 1648     		ldr	r0, .L87+24
ARM GAS  C:\Users\Moi\AppData\Local\Temp\cchaECY7.s 			page 23


 1186 0082 FFF7FEFF 		bl	f_puts
 1187 0086 2060     		str	r0, [r4]
 1188              		.loc 7 146 0
 1189 0088 06AB     		add	r3, sp, #24
 1190 008a 1B68     		ldr	r3, [r3]
 1191 008c B3F1FF3F 		cmp	r3, #-1
 1192 0090 05D1     		bne	.L83
 1193              		.loc 7 147 0
 1194 0092 03AB     		add	r3, sp, #12
 1195 0094 1249     		ldr	r1, .L87+28
 1196 0096 1868     		ldr	r0, [r3]
 1197 0098 FFF7FEFF 		bl	chprintf
 1198 009c 04E0     		b	.L84
 1199              	.L83:
 1200              		.loc 7 149 0
 1201 009e 03AB     		add	r3, sp, #12
 1202 00a0 1049     		ldr	r1, .L87+32
 1203 00a2 1868     		ldr	r0, [r3]
 1204 00a4 FFF7FEFF 		bl	chprintf
 1205              	.L84:
 1206              		.loc 7 154 0
 1207 00a8 07AB     		add	r3, sp, #28
 1208 00aa 1846     		mov	r0, r3
 1209 00ac FFF7FEFF 		bl	f_close
 1210              	.L79:
 1211              		.loc 7 155 0
 1212 00b0 044B     		ldr	r3, .L87
 1213 00b2 919A     		ldr	r2, [sp, #580]
 1214 00b4 1B68     		ldr	r3, [r3]
 1215 00b6 9A42     		cmp	r2, r3
 1216 00b8 01D0     		beq	.L86
 1217 00ba FFF7FEFF 		bl	__stack_chk_fail
 1218              	.L86:
 1219 00be 0DF5127D 		add	sp, sp, #584
 1220              		.cfi_def_cfa_offset 8
 1221              		@ sp needed
 1222 00c2 10BD     		pop	{r4, pc}
 1223              	.L88:
 1224              		.align	2
 1225              	.L87:
 1226 00c4 00000000 		.word	__stack_chk_guard
 1227 00c8 F8000000 		.word	.LC9
 1228 00cc 08010000 		.word	.LC10
 1229 00d0 38010000 		.word	.LC11
 1230 00d4 44010000 		.word	.LC12
 1231 00d8 68010000 		.word	.LC13
 1232 00dc 8C010000 		.word	.LC14
 1233 00e0 98010000 		.word	.LC15
 1234 00e4 C8010000 		.word	.LC16
 1235              		.cfi_endproc
 1236              	.LFE264:
 1237              		.size	cmd_hello, .-cmd_hello
 1238              		.section	.rodata
 1239 01fa 0000     		.align	2
 1240              	.LC17:
 1241 01fc 55736167 		.ascii	"Usage: mkdir dirName\015\012\000"
 1241      653A206D 
ARM GAS  C:\Users\Moi\AppData\Local\Temp\cchaECY7.s 			page 24


 1241      6B646972 
 1241      20646972 
 1241      4E616D65 
 1242 0213 00       		.align	2
 1243              	.LC18:
 1244 0214 20202020 		.ascii	"       Creates directory with dirName (no spaces)\015"
 1244      20202043 
 1244      72656174 
 1244      65732064 
 1244      69726563 
 1245 0246 0A00     		.ascii	"\012\000"
 1246              		.align	2
 1247              	.LC19:
 1248 0248 46533A20 		.ascii	"FS: f_mkdir(%s) failed\015\012\000"
 1248      665F6D6B 
 1248      64697228 
 1248      25732920 
 1248      6661696C 
 1249 0261 000000   		.align	2
 1250              	.LC20:
 1251 0264 46533A20 		.ascii	"FS: f_mkdir(%s) succeeded\015\012\000"
 1251      665F6D6B 
 1251      64697228 
 1251      25732920 
 1251      73756363 
 1252              		.section	.text.cmd_mkdir,"ax",%progbits
 1253              		.align	1
 1254              		.p2align 4,,15
 1255              		.global	cmd_mkdir
 1256              		.syntax unified
 1257              		.thumb
 1258              		.thumb_func
 1259              		.fpu fpv4-sp-d16
 1260              		.type	cmd_mkdir, %function
 1261              	cmd_mkdir:
 1262              	.LFB265:
 1263              		.loc 7 157 0
 1264              		.cfi_startproc
 1265              		@ args = 0, pretend = 0, frame = 24
 1266              		@ frame_needed = 0, uses_anonymous_args = 0
 1267 0000 00B5     		push	{lr}
 1268              		.cfi_def_cfa_offset 4
 1269              		.cfi_offset 14, -4
 1270 0002 87B0     		sub	sp, sp, #28
 1271              		.cfi_def_cfa_offset 32
 1272 0004 0390     		str	r0, [sp, #12]
 1273 0006 0291     		str	r1, [sp, #8]
 1274 0008 0192     		str	r2, [sp, #4]
 1275              		.loc 7 157 0
 1276 000a 1D4B     		ldr	r3, .L94
 1277 000c 1B68     		ldr	r3, [r3]
 1278 000e 0593     		str	r3, [sp, #20]
 1279              		.loc 7 159 0
 1280 0010 029B     		ldr	r3, [sp, #8]
 1281 0012 012B     		cmp	r3, #1
 1282 0014 08D0     		beq	.L90
 1283              		.loc 7 160 0
ARM GAS  C:\Users\Moi\AppData\Local\Temp\cchaECY7.s 			page 25


 1284 0016 1B49     		ldr	r1, .L94+4
 1285 0018 0398     		ldr	r0, [sp, #12]
 1286 001a FFF7FEFF 		bl	chprintf
 1287              		.loc 7 161 0
 1288 001e 1A49     		ldr	r1, .L94+8
 1289 0020 0398     		ldr	r0, [sp, #12]
 1290 0022 FFF7FEFF 		bl	chprintf
 1291              		.loc 7 162 0
 1292 0026 21E0     		b	.L89
 1293              	.L90:
 1294              		.loc 7 167 0
 1295 0028 019B     		ldr	r3, [sp, #4]
 1296 002a 1B68     		ldr	r3, [r3]
 1297 002c 1846     		mov	r0, r3
 1298 002e FFF7FEFF 		bl	f_mkdir
 1299 0032 0346     		mov	r3, r0
 1300 0034 8DF81330 		strb	r3, [sp, #19]
 1301              		.loc 7 168 0
 1302 0038 9DF81330 		ldrb	r3, [sp, #19]	@ zero_extendqisi2
 1303 003c 002B     		cmp	r3, #0
 1304 003e 0DD0     		beq	.L92
 1305              		.loc 7 172 0
 1306 0040 019B     		ldr	r3, [sp, #4]
 1307 0042 1B68     		ldr	r3, [r3]
 1308 0044 1A46     		mov	r2, r3
 1309 0046 1149     		ldr	r1, .L94+12
 1310 0048 0398     		ldr	r0, [sp, #12]
 1311 004a FFF7FEFF 		bl	chprintf
 1312              		.loc 7 173 0
 1313 004e 9DF81330 		ldrb	r3, [sp, #19]	@ zero_extendqisi2
 1314 0052 1946     		mov	r1, r3
 1315 0054 0398     		ldr	r0, [sp, #12]
 1316 0056 FFF7FEFF 		bl	fverbose_error
 1317              		.loc 7 174 0
 1318 005a 07E0     		b	.L89
 1319              	.L92:
 1320              		.loc 7 176 0
 1321 005c 019B     		ldr	r3, [sp, #4]
 1322 005e 1B68     		ldr	r3, [r3]
 1323 0060 1A46     		mov	r2, r3
 1324 0062 0B49     		ldr	r1, .L94+16
 1325 0064 0398     		ldr	r0, [sp, #12]
 1326 0066 FFF7FEFF 		bl	chprintf
 1327              		.loc 7 178 0
 1328 006a 00BF     		nop
 1329              	.L89:
 1330              		.loc 7 179 0
 1331 006c 044B     		ldr	r3, .L94
 1332 006e 059A     		ldr	r2, [sp, #20]
 1333 0070 1B68     		ldr	r3, [r3]
 1334 0072 9A42     		cmp	r2, r3
 1335 0074 01D0     		beq	.L93
 1336 0076 FFF7FEFF 		bl	__stack_chk_fail
 1337              	.L93:
 1338 007a 07B0     		add	sp, sp, #28
 1339              		.cfi_def_cfa_offset 4
 1340              		@ sp needed
ARM GAS  C:\Users\Moi\AppData\Local\Temp\cchaECY7.s 			page 26


 1341 007c 5DF804FB 		ldr	pc, [sp], #4
 1342              	.L95:
 1343              		.align	2
 1344              	.L94:
 1345 0080 00000000 		.word	__stack_chk_guard
 1346 0084 FC010000 		.word	.LC17
 1347 0088 14020000 		.word	.LC18
 1348 008c 48020000 		.word	.LC19
 1349 0090 64020000 		.word	.LC20
 1350              		.cfi_endproc
 1351              	.LFE265:
 1352              		.size	cmd_mkdir, .-cmd_mkdir
 1353              		.section	.rodata
 1354              		.align	2
 1355              	.LC21:
 1356 0280 55736167 		.ascii	"Usage: setlabel label\015\012\000"
 1356      653A2073 
 1356      65746C61 
 1356      62656C20 
 1356      6C616265 
 1357              		.align	2
 1358              	.LC22:
 1359 0298 20202020 		.ascii	"       Sets FAT label (no spaces)\015\012\000"
 1359      20202053 
 1359      65747320 
 1359      46415420 
 1359      6C616265 
 1360              		.align	2
 1361              	.LC23:
 1362 02bc 46533A20 		.ascii	"FS: f_setlabel(%s) failed.\015\012\000"
 1362      665F7365 
 1362      746C6162 
 1362      656C2825 
 1362      73292066 
 1363 02d9 000000   		.align	2
 1364              	.LC24:
 1365 02dc 46533A20 		.ascii	"FS: f_setlabel(%s) succeeded.\015\012\000"
 1365      665F7365 
 1365      746C6162 
 1365      656C2825 
 1365      73292073 
 1366              		.section	.text.cmd_setlabel,"ax",%progbits
 1367              		.align	1
 1368              		.p2align 4,,15
 1369              		.global	cmd_setlabel
 1370              		.syntax unified
 1371              		.thumb
 1372              		.thumb_func
 1373              		.fpu fpv4-sp-d16
 1374              		.type	cmd_setlabel, %function
 1375              	cmd_setlabel:
 1376              	.LFB266:
 1377              		.loc 7 181 0
 1378              		.cfi_startproc
 1379              		@ args = 0, pretend = 0, frame = 24
 1380              		@ frame_needed = 0, uses_anonymous_args = 0
 1381 0000 00B5     		push	{lr}
ARM GAS  C:\Users\Moi\AppData\Local\Temp\cchaECY7.s 			page 27


 1382              		.cfi_def_cfa_offset 4
 1383              		.cfi_offset 14, -4
 1384 0002 87B0     		sub	sp, sp, #28
 1385              		.cfi_def_cfa_offset 32
 1386 0004 0390     		str	r0, [sp, #12]
 1387 0006 0291     		str	r1, [sp, #8]
 1388 0008 0192     		str	r2, [sp, #4]
 1389              		.loc 7 181 0
 1390 000a 1A4B     		ldr	r3, .L101
 1391 000c 1B68     		ldr	r3, [r3]
 1392 000e 0593     		str	r3, [sp, #20]
 1393              		.loc 7 183 0
 1394 0010 029B     		ldr	r3, [sp, #8]
 1395 0012 012B     		cmp	r3, #1
 1396 0014 08D0     		beq	.L97
 1397              		.loc 7 184 0
 1398 0016 1849     		ldr	r1, .L101+4
 1399 0018 0398     		ldr	r0, [sp, #12]
 1400 001a FFF7FEFF 		bl	chprintf
 1401              		.loc 7 185 0
 1402 001e 1749     		ldr	r1, .L101+8
 1403 0020 0398     		ldr	r0, [sp, #12]
 1404 0022 FFF7FEFF 		bl	chprintf
 1405              		.loc 7 186 0
 1406 0026 1BE0     		b	.L96
 1407              	.L97:
 1408              		.loc 7 191 0
 1409 0028 019B     		ldr	r3, [sp, #4]
 1410 002a 1B68     		ldr	r3, [r3]
 1411 002c 1846     		mov	r0, r3
 1412 002e FFF7FEFF 		bl	f_setlabel
 1413 0032 0346     		mov	r3, r0
 1414 0034 8DF81330 		strb	r3, [sp, #19]
 1415              		.loc 7 192 0
 1416 0038 9DF81330 		ldrb	r3, [sp, #19]	@ zero_extendqisi2
 1417 003c 002B     		cmp	r3, #0
 1418 003e 0AD0     		beq	.L99
 1419              		.loc 7 193 0
 1420 0040 0F49     		ldr	r1, .L101+12
 1421 0042 0398     		ldr	r0, [sp, #12]
 1422 0044 FFF7FEFF 		bl	chprintf
 1423              		.loc 7 194 0
 1424 0048 9DF81330 		ldrb	r3, [sp, #19]	@ zero_extendqisi2
 1425 004c 1946     		mov	r1, r3
 1426 004e 0398     		ldr	r0, [sp, #12]
 1427 0050 FFF7FEFF 		bl	fverbose_error
 1428              		.loc 7 195 0
 1429 0054 04E0     		b	.L96
 1430              	.L99:
 1431              		.loc 7 197 0
 1432 0056 0B49     		ldr	r1, .L101+16
 1433 0058 0398     		ldr	r0, [sp, #12]
 1434 005a FFF7FEFF 		bl	chprintf
 1435              		.loc 7 199 0
 1436 005e 00BF     		nop
 1437              	.L96:
 1438              		.loc 7 200 0
ARM GAS  C:\Users\Moi\AppData\Local\Temp\cchaECY7.s 			page 28


 1439 0060 044B     		ldr	r3, .L101
 1440 0062 059A     		ldr	r2, [sp, #20]
 1441 0064 1B68     		ldr	r3, [r3]
 1442 0066 9A42     		cmp	r2, r3
 1443 0068 01D0     		beq	.L100
 1444 006a FFF7FEFF 		bl	__stack_chk_fail
 1445              	.L100:
 1446 006e 07B0     		add	sp, sp, #28
 1447              		.cfi_def_cfa_offset 4
 1448              		@ sp needed
 1449 0070 5DF804FB 		ldr	pc, [sp], #4
 1450              	.L102:
 1451              		.align	2
 1452              	.L101:
 1453 0074 00000000 		.word	__stack_chk_guard
 1454 0078 80020000 		.word	.LC21
 1455 007c 98020000 		.word	.LC22
 1456 0080 BC020000 		.word	.LC23
 1457 0084 DC020000 		.word	.LC24
 1458              		.cfi_endproc
 1459              	.LFE266:
 1460              		.size	cmd_setlabel, .-cmd_setlabel
 1461              		.section	.rodata
 1462              		.align	2
 1463              	.LC25:
 1464 02fc 55736167 		.ascii	"Usage: getlabel\015\012\000"
 1464      653A2067 
 1464      65746C61 
 1464      62656C0D 
 1464      0A00
 1465 030e 0000     		.align	2
 1466              	.LC26:
 1467 0310 20202020 		.ascii	"       Gets and prints FAT label\015\012\000"
 1467      20202047 
 1467      65747320 
 1467      616E6420 
 1467      7072696E 
 1468 0333 00       		.align	2
 1469              	.LC27:
 1470 0334 00       		.ascii	"\000"
 1471 0335 000000   		.align	2
 1472              	.LC28:
 1473 0338 46533A20 		.ascii	"FS: f_getlabel failed.\015\012\000"
 1473      665F6765 
 1473      746C6162 
 1473      656C2066 
 1473      61696C65 
 1474 0351 000000   		.align	2
 1475              	.LC29:
 1476 0354 4C414245 		.ascii	"LABEL: %s\015\012\000"
 1476      4C3A2025 
 1476      730D0A00 
 1477              		.align	2
 1478              	.LC30:
 1479 0360 2020532F 		.ascii	"  S/N: 0x%X\015\012\000"
 1479      4E3A2030 
 1479      7825580D 
ARM GAS  C:\Users\Moi\AppData\Local\Temp\cchaECY7.s 			page 29


 1479      0A00
 1480              		.section	.text.cmd_getlabel,"ax",%progbits
 1481              		.align	1
 1482              		.p2align 4,,15
 1483              		.global	cmd_getlabel
 1484              		.syntax unified
 1485              		.thumb
 1486              		.thumb_func
 1487              		.fpu fpv4-sp-d16
 1488              		.type	cmd_getlabel, %function
 1489              	cmd_getlabel:
 1490              	.LFB267:
 1491              		.loc 7 202 0
 1492              		.cfi_startproc
 1493              		@ args = 0, pretend = 0, frame = 40
 1494              		@ frame_needed = 0, uses_anonymous_args = 0
 1495 0000 00B5     		push	{lr}
 1496              		.cfi_def_cfa_offset 4
 1497              		.cfi_offset 14, -4
 1498 0002 8BB0     		sub	sp, sp, #44
 1499              		.cfi_def_cfa_offset 48
 1500 0004 0390     		str	r0, [sp, #12]
 1501 0006 0291     		str	r1, [sp, #8]
 1502 0008 0192     		str	r2, [sp, #4]
 1503              		.loc 7 202 0
 1504 000a 224B     		ldr	r3, .L109
 1505 000c 1B68     		ldr	r3, [r3]
 1506 000e 0993     		str	r3, [sp, #36]
 1507              		.loc 7 207 0
 1508 0010 029B     		ldr	r3, [sp, #8]
 1509 0012 002B     		cmp	r3, #0
 1510 0014 08DD     		ble	.L104
 1511              		.loc 7 208 0
 1512 0016 2049     		ldr	r1, .L109+4
 1513 0018 0398     		ldr	r0, [sp, #12]
 1514 001a FFF7FEFF 		bl	chprintf
 1515              		.loc 7 209 0
 1516 001e 1F49     		ldr	r1, .L109+8
 1517 0020 0398     		ldr	r0, [sp, #12]
 1518 0022 FFF7FEFF 		bl	chprintf
 1519              		.loc 7 210 0
 1520 0026 2AE0     		b	.L103
 1521              	.L104:
 1522              		.loc 7 212 0
 1523 0028 06AB     		add	r3, sp, #24
 1524 002a 0C22     		movs	r2, #12
 1525 002c 0021     		movs	r1, #0
 1526 002e 1846     		mov	r0, r3
 1527 0030 FFF7FEFF 		bl	memset
 1528              		.loc 7 216 0
 1529 0034 05AA     		add	r2, sp, #20
 1530 0036 06AB     		add	r3, sp, #24
 1531 0038 1946     		mov	r1, r3
 1532 003a 1948     		ldr	r0, .L109+12
 1533 003c FFF7FEFF 		bl	f_getlabel
 1534 0040 0346     		mov	r3, r0
 1535 0042 8DF81330 		strb	r3, [sp, #19]
ARM GAS  C:\Users\Moi\AppData\Local\Temp\cchaECY7.s 			page 30


 1536              		.loc 7 217 0
 1537 0046 9DF81330 		ldrb	r3, [sp, #19]	@ zero_extendqisi2
 1538 004a 002B     		cmp	r3, #0
 1539 004c 0AD0     		beq	.L106
 1540              		.loc 7 218 0
 1541 004e 1549     		ldr	r1, .L109+16
 1542 0050 0398     		ldr	r0, [sp, #12]
 1543 0052 FFF7FEFF 		bl	chprintf
 1544              		.loc 7 219 0
 1545 0056 9DF81330 		ldrb	r3, [sp, #19]	@ zero_extendqisi2
 1546 005a 1946     		mov	r1, r3
 1547 005c 0398     		ldr	r0, [sp, #12]
 1548 005e FFF7FEFF 		bl	fverbose_error
 1549              		.loc 7 220 0
 1550 0062 0CE0     		b	.L103
 1551              	.L106:
 1552              		.loc 7 225 0
 1553 0064 06AB     		add	r3, sp, #24
 1554 0066 1A46     		mov	r2, r3
 1555 0068 0F49     		ldr	r1, .L109+20
 1556 006a 0398     		ldr	r0, [sp, #12]
 1557 006c FFF7FEFF 		bl	chprintf
 1558              		.loc 7 226 0
 1559 0070 059B     		ldr	r3, [sp, #20]
 1560 0072 1A46     		mov	r2, r3
 1561 0074 0D49     		ldr	r1, .L109+24
 1562 0076 0398     		ldr	r0, [sp, #12]
 1563 0078 FFF7FEFF 		bl	chprintf
 1564              		.loc 7 227 0
 1565 007c 00BF     		nop
 1566              	.L103:
 1567              		.loc 7 228 0
 1568 007e 054B     		ldr	r3, .L109
 1569 0080 099A     		ldr	r2, [sp, #36]
 1570 0082 1B68     		ldr	r3, [r3]
 1571 0084 9A42     		cmp	r2, r3
 1572 0086 01D0     		beq	.L108
 1573 0088 FFF7FEFF 		bl	__stack_chk_fail
 1574              	.L108:
 1575 008c 0BB0     		add	sp, sp, #44
 1576              		.cfi_def_cfa_offset 4
 1577              		@ sp needed
 1578 008e 5DF804FB 		ldr	pc, [sp], #4
 1579              	.L110:
 1580 0092 00BF     		.align	2
 1581              	.L109:
 1582 0094 00000000 		.word	__stack_chk_guard
 1583 0098 FC020000 		.word	.LC25
 1584 009c 10030000 		.word	.LC26
 1585 00a0 34030000 		.word	.LC27
 1586 00a4 38030000 		.word	.LC28
 1587 00a8 54030000 		.word	.LC29
 1588 00ac 60030000 		.word	.LC30
 1589              		.cfi_endproc
 1590              	.LFE267:
 1591              		.size	cmd_getlabel, .-cmd_getlabel
 1592              		.section	.rodata
ARM GAS  C:\Users\Moi\AppData\Local\Temp\cchaECY7.s 			page 31


 1593 036e 0000     		.align	2
 1594              	.LC31:
 1595 0370 55736167 		.ascii	"Usage: cat filename\015\012\000"
 1595      653A2063 
 1595      61742066 
 1595      696C656E 
 1595      616D650D 
 1596 0386 0000     		.align	2
 1597              	.LC32:
 1598 0388 20202020 		.ascii	"       Echos filename (no spaces)\015\012\000"
 1598      20202045 
 1598      63686F73 
 1598      2066696C 
 1598      656E616D 
 1599              		.align	2
 1600              	.LC33:
 1601 03ac 46533A20 		.ascii	"FS: f_open(%s) failed.\015\012\000"
 1601      665F6F70 
 1601      656E2825 
 1601      73292066 
 1601      61696C65 
 1602 03c5 000000   		.align	2
 1603              	.LC34:
 1604 03c8 46533A20 		.ascii	"FS: f_read() failed\015\012\000"
 1604      665F7265 
 1604      61642829 
 1604      20666169 
 1604      6C65640D 
 1605 03de 0000     		.align	2
 1606              	.LC35:
 1607 03e0 257300   		.ascii	"%s\000"
 1608 03e3 00       		.align	2
 1609              	.LC36:
 1610 03e4 0D0A00   		.ascii	"\015\012\000"
 1611              		.section	.text.cmd_cat,"ax",%progbits
 1612              		.align	1
 1613              		.p2align 4,,15
 1614              		.global	cmd_cat
 1615              		.syntax unified
 1616              		.thumb
 1617              		.thumb_func
 1618              		.fpu fpv4-sp-d16
 1619              		.type	cmd_cat, %function
 1620              	cmd_cat:
 1621              	.LFB268:
 1622              		.loc 7 233 0
 1623              		.cfi_startproc
 1624              		@ args = 0, pretend = 0, frame = 840
 1625              		@ frame_needed = 0, uses_anonymous_args = 0
 1626 0000 10B5     		push	{r4, lr}
 1627              		.cfi_def_cfa_offset 8
 1628              		.cfi_offset 4, -8
 1629              		.cfi_offset 14, -4
 1630 0002 ADF5527D 		sub	sp, sp, #840
 1631              		.cfi_def_cfa_offset 848
 1632 0006 03AB     		add	r3, sp, #12
 1633 0008 1860     		str	r0, [r3]
ARM GAS  C:\Users\Moi\AppData\Local\Temp\cchaECY7.s 			page 32


 1634 000a 02AB     		add	r3, sp, #8
 1635 000c 1960     		str	r1, [r3]
 1636 000e 01AB     		add	r3, sp, #4
 1637 0010 1A60     		str	r2, [r3]
 1638              		.loc 7 233 0
 1639 0012 3F4B     		ldr	r3, .L118
 1640 0014 1B68     		ldr	r3, [r3]
 1641 0016 D193     		str	r3, [sp, #836]
 1642              		.loc 7 237 0
 1643 0018 06AB     		add	r3, sp, #24
 1644 001a FF22     		movs	r2, #255
 1645 001c 1A60     		str	r2, [r3]
 1646              		.loc 7 242 0
 1647 001e 02AB     		add	r3, sp, #8
 1648 0020 1B68     		ldr	r3, [r3]
 1649 0022 012B     		cmp	r3, #1
 1650 0024 0AD0     		beq	.L112
 1651              		.loc 7 243 0
 1652 0026 03AB     		add	r3, sp, #12
 1653 0028 3A49     		ldr	r1, .L118+4
 1654 002a 1868     		ldr	r0, [r3]
 1655 002c FFF7FEFF 		bl	chprintf
 1656              		.loc 7 244 0
 1657 0030 03AB     		add	r3, sp, #12
 1658 0032 3949     		ldr	r1, .L118+8
 1659 0034 1868     		ldr	r0, [r3]
 1660 0036 FFF7FEFF 		bl	chprintf
 1661              		.loc 7 245 0
 1662 003a 5FE0     		b	.L111
 1663              	.L112:
 1664              		.loc 7 250 0
 1665 003c 01AB     		add	r3, sp, #4
 1666 003e 1B68     		ldr	r3, [r3]
 1667 0040 1968     		ldr	r1, [r3]
 1668 0042 0DF11304 		add	r4, sp, #19
 1669 0046 07AB     		add	r3, sp, #28
 1670 0048 0122     		movs	r2, #1
 1671 004a 1846     		mov	r0, r3
 1672 004c FFF7FEFF 		bl	f_open
 1673 0050 0346     		mov	r3, r0
 1674 0052 2370     		strb	r3, [r4]
 1675              		.loc 7 251 0
 1676 0054 0DF11303 		add	r3, sp, #19
 1677 0058 1B78     		ldrb	r3, [r3]	@ zero_extendqisi2
 1678 005a 002B     		cmp	r3, #0
 1679 005c 10D0     		beq	.L114
 1680              		.loc 7 252 0
 1681 005e 01AB     		add	r3, sp, #4
 1682 0060 1B68     		ldr	r3, [r3]
 1683 0062 1A68     		ldr	r2, [r3]
 1684 0064 03AB     		add	r3, sp, #12
 1685 0066 2D49     		ldr	r1, .L118+12
 1686 0068 1868     		ldr	r0, [r3]
 1687 006a FFF7FEFF 		bl	chprintf
 1688              		.loc 7 253 0
 1689 006e 0DF11303 		add	r3, sp, #19
 1690 0072 1A78     		ldrb	r2, [r3]	@ zero_extendqisi2
ARM GAS  C:\Users\Moi\AppData\Local\Temp\cchaECY7.s 			page 33


 1691 0074 03AB     		add	r3, sp, #12
 1692 0076 1146     		mov	r1, r2
 1693 0078 1868     		ldr	r0, [r3]
 1694 007a FFF7FEFF 		bl	fverbose_error
 1695              		.loc 7 254 0
 1696 007e 3DE0     		b	.L111
 1697              	.L114:
 1698              		.loc 7 264 0
 1699 0080 91AB     		add	r3, sp, #580
 1700 0082 FF22     		movs	r2, #255
 1701 0084 0021     		movs	r1, #0
 1702 0086 1846     		mov	r0, r3
 1703 0088 FFF7FEFF 		bl	memset
 1704              		.loc 7 268 0
 1705 008c 0DF11304 		add	r4, sp, #19
 1706 0090 05AB     		add	r3, sp, #20
 1707 0092 06AA     		add	r2, sp, #24
 1708 0094 91A9     		add	r1, sp, #580
 1709 0096 07A8     		add	r0, sp, #28
 1710 0098 1268     		ldr	r2, [r2]
 1711 009a FFF7FEFF 		bl	f_read
 1712 009e 0346     		mov	r3, r0
 1713 00a0 2370     		strb	r3, [r4]
 1714              		.loc 7 269 0
 1715 00a2 0DF11303 		add	r3, sp, #19
 1716 00a6 1B78     		ldrb	r3, [r3]	@ zero_extendqisi2
 1717 00a8 002B     		cmp	r3, #0
 1718 00aa 11D0     		beq	.L115
 1719              		.loc 7 270 0
 1720 00ac 03AB     		add	r3, sp, #12
 1721 00ae 1C49     		ldr	r1, .L118+16
 1722 00b0 1868     		ldr	r0, [r3]
 1723 00b2 FFF7FEFF 		bl	chprintf
 1724              		.loc 7 271 0
 1725 00b6 0DF11303 		add	r3, sp, #19
 1726 00ba 1A78     		ldrb	r2, [r3]	@ zero_extendqisi2
 1727 00bc 03AB     		add	r3, sp, #12
 1728 00be 1146     		mov	r1, r2
 1729 00c0 1868     		ldr	r0, [r3]
 1730 00c2 FFF7FEFF 		bl	fverbose_error
 1731              		.loc 7 272 0
 1732 00c6 07AB     		add	r3, sp, #28
 1733 00c8 1846     		mov	r0, r3
 1734 00ca FFF7FEFF 		bl	f_close
 1735              		.loc 7 273 0
 1736 00ce 15E0     		b	.L111
 1737              	.L115:
 1738              		.loc 7 275 0
 1739 00d0 91AA     		add	r2, sp, #580
 1740 00d2 03AB     		add	r3, sp, #12
 1741 00d4 1349     		ldr	r1, .L118+20
 1742 00d6 1868     		ldr	r0, [r3]
 1743 00d8 FFF7FEFF 		bl	chprintf
 1744              		.loc 7 276 0
 1745 00dc 05AB     		add	r3, sp, #20
 1746 00de 1B68     		ldr	r3, [r3]
 1747 00e0 06AA     		add	r2, sp, #24
ARM GAS  C:\Users\Moi\AppData\Local\Temp\cchaECY7.s 			page 34


 1748 00e2 1268     		ldr	r2, [r2]
 1749 00e4 9A42     		cmp	r2, r3
 1750 00e6 CBD9     		bls	.L114
 1751              		.loc 7 277 0
 1752 00e8 03AB     		add	r3, sp, #12
 1753 00ea 0F49     		ldr	r1, .L118+24
 1754 00ec 1868     		ldr	r0, [r3]
 1755 00ee FFF7FEFF 		bl	chprintf
 1756              		.loc 7 281 0
 1757 00f2 07AB     		add	r3, sp, #28
 1758 00f4 1846     		mov	r0, r3
 1759 00f6 FFF7FEFF 		bl	f_close
 1760              		.loc 7 282 0
 1761 00fa 00BF     		nop
 1762              	.L111:
 1763              		.loc 7 283 0
 1764 00fc 044B     		ldr	r3, .L118
 1765 00fe D19A     		ldr	r2, [sp, #836]
 1766 0100 1B68     		ldr	r3, [r3]
 1767 0102 9A42     		cmp	r2, r3
 1768 0104 01D0     		beq	.L117
 1769 0106 FFF7FEFF 		bl	__stack_chk_fail
 1770              	.L117:
 1771 010a 0DF5527D 		add	sp, sp, #840
 1772              		.cfi_def_cfa_offset 8
 1773              		@ sp needed
 1774 010e 10BD     		pop	{r4, pc}
 1775              	.L119:
 1776              		.align	2
 1777              	.L118:
 1778 0110 00000000 		.word	__stack_chk_guard
 1779 0114 70030000 		.word	.LC31
 1780 0118 88030000 		.word	.LC32
 1781 011c AC030000 		.word	.LC33
 1782 0120 C8030000 		.word	.LC34
 1783 0124 E0030000 		.word	.LC35
 1784 0128 E4030000 		.word	.LC36
 1785              		.cfi_endproc
 1786              	.LFE268:
 1787              		.size	cmd_cat, .-cmd_cat
 1788              		.section	.rodata
 1789 03e7 00       		.align	2
 1790              	.LC37:
 1791 03e8 55736167 		.ascii	"Usage: sf_play pathToTheMusic\015\012\000"
 1791      653A2073 
 1791      665F706C 
 1791      61792070 
 1791      61746854 
 1792              		.section	.text.cmd_sound_file_play,"ax",%progbits
 1793              		.align	1
 1794              		.p2align 4,,15
 1795              		.syntax unified
 1796              		.thumb
 1797              		.thumb_func
 1798              		.fpu fpv4-sp-d16
 1799              		.type	cmd_sound_file_play, %function
 1800              	cmd_sound_file_play:
ARM GAS  C:\Users\Moi\AppData\Local\Temp\cchaECY7.s 			page 35


 1801              	.LFB269:
 1802              		.loc 7 286 0
 1803              		.cfi_startproc
 1804              		@ args = 0, pretend = 0, frame = 24
 1805              		@ frame_needed = 0, uses_anonymous_args = 0
 1806 0000 00B5     		push	{lr}
 1807              		.cfi_def_cfa_offset 4
 1808              		.cfi_offset 14, -4
 1809 0002 87B0     		sub	sp, sp, #28
 1810              		.cfi_def_cfa_offset 32
 1811 0004 0390     		str	r0, [sp, #12]
 1812 0006 0291     		str	r1, [sp, #8]
 1813 0008 0192     		str	r2, [sp, #4]
 1814              		.loc 7 286 0
 1815 000a 0D4B     		ldr	r3, .L124
 1816 000c 1B68     		ldr	r3, [r3]
 1817 000e 0593     		str	r3, [sp, #20]
 1818              		.loc 7 288 0
 1819 0010 029B     		ldr	r3, [sp, #8]
 1820 0012 012B     		cmp	r3, #1
 1821 0014 04D0     		beq	.L121
 1822              		.loc 7 289 0
 1823 0016 0B49     		ldr	r1, .L124+4
 1824 0018 0398     		ldr	r0, [sp, #12]
 1825 001a FFF7FEFF 		bl	chprintf
 1826              		.loc 7 290 0
 1827 001e 05E0     		b	.L120
 1828              	.L121:
 1829              		.loc 7 293 0
 1830 0020 019B     		ldr	r3, [sp, #4]
 1831 0022 1B68     		ldr	r3, [r3]
 1832 0024 0221     		movs	r1, #2
 1833 0026 1846     		mov	r0, r3
 1834 0028 FFF7FEFF 		bl	playSoundFile
 1835              	.L120:
 1836              		.loc 7 295 0
 1837 002c 044B     		ldr	r3, .L124
 1838 002e 059A     		ldr	r2, [sp, #20]
 1839 0030 1B68     		ldr	r3, [r3]
 1840 0032 9A42     		cmp	r2, r3
 1841 0034 01D0     		beq	.L123
 1842 0036 FFF7FEFF 		bl	__stack_chk_fail
 1843              	.L123:
 1844 003a 07B0     		add	sp, sp, #28
 1845              		.cfi_def_cfa_offset 4
 1846              		@ sp needed
 1847 003c 5DF804FB 		ldr	pc, [sp], #4
 1848              	.L125:
 1849              		.align	2
 1850              	.L124:
 1851 0040 00000000 		.word	__stack_chk_guard
 1852 0044 E8030000 		.word	.LC37
 1853              		.cfi_endproc
 1854              	.LFE269:
 1855              		.size	cmd_sound_file_play, .-cmd_sound_file_play
 1856              		.section	.text.cmd_sound_file_stop,"ax",%progbits
 1857              		.align	1
ARM GAS  C:\Users\Moi\AppData\Local\Temp\cchaECY7.s 			page 36


 1858              		.p2align 4,,15
 1859              		.syntax unified
 1860              		.thumb
 1861              		.thumb_func
 1862              		.fpu fpv4-sp-d16
 1863              		.type	cmd_sound_file_stop, %function
 1864              	cmd_sound_file_stop:
 1865              	.LFB270:
 1866              		.loc 7 298 0
 1867              		.cfi_startproc
 1868              		@ args = 0, pretend = 0, frame = 24
 1869              		@ frame_needed = 0, uses_anonymous_args = 0
 1870 0000 00B5     		push	{lr}
 1871              		.cfi_def_cfa_offset 4
 1872              		.cfi_offset 14, -4
 1873 0002 87B0     		sub	sp, sp, #28
 1874              		.cfi_def_cfa_offset 32
 1875 0004 0390     		str	r0, [sp, #12]
 1876 0006 0291     		str	r1, [sp, #8]
 1877 0008 0192     		str	r2, [sp, #4]
 1878              		.loc 7 298 0
 1879 000a 084B     		ldr	r3, .L128
 1880 000c 1B68     		ldr	r3, [r3]
 1881 000e 0593     		str	r3, [sp, #20]
 1882              		.loc 7 303 0
 1883 0010 FFF7FEFF 		bl	stopCurrentSoundFile
 1884              		.loc 7 304 0
 1885 0014 00BF     		nop
 1886 0016 054B     		ldr	r3, .L128
 1887 0018 059A     		ldr	r2, [sp, #20]
 1888 001a 1B68     		ldr	r3, [r3]
 1889 001c 9A42     		cmp	r2, r3
 1890 001e 01D0     		beq	.L127
 1891 0020 FFF7FEFF 		bl	__stack_chk_fail
 1892              	.L127:
 1893 0024 07B0     		add	sp, sp, #28
 1894              		.cfi_def_cfa_offset 4
 1895              		@ sp needed
 1896 0026 5DF804FB 		ldr	pc, [sp], #4
 1897              	.L129:
 1898 002a 00BF     		.align	2
 1899              	.L128:
 1900 002c 00000000 		.word	__stack_chk_guard
 1901              		.cfi_endproc
 1902              	.LFE270:
 1903              		.size	cmd_sound_file_stop, .-cmd_sound_file_stop
 1904              		.section	.rodata
 1905              		.align	2
 1906              	.LC38:
 1907 0408 55736167 		.ascii	"Usage: sf_volume value\015\012\000"
 1907      653A2073 
 1907      665F766F 
 1907      6C756D65 
 1907      2076616C 
 1908              		.section	.text.cmd_sound_file_volume,"ax",%progbits
 1909              		.align	1
 1910              		.p2align 4,,15
ARM GAS  C:\Users\Moi\AppData\Local\Temp\cchaECY7.s 			page 37


 1911              		.syntax unified
 1912              		.thumb
 1913              		.thumb_func
 1914              		.fpu fpv4-sp-d16
 1915              		.type	cmd_sound_file_volume, %function
 1916              	cmd_sound_file_volume:
 1917              	.LFB271:
 1918              		.loc 7 307 0
 1919              		.cfi_startproc
 1920              		@ args = 0, pretend = 0, frame = 24
 1921              		@ frame_needed = 0, uses_anonymous_args = 0
 1922 0000 00B5     		push	{lr}
 1923              		.cfi_def_cfa_offset 4
 1924              		.cfi_offset 14, -4
 1925 0002 87B0     		sub	sp, sp, #28
 1926              		.cfi_def_cfa_offset 32
 1927 0004 0390     		str	r0, [sp, #12]
 1928 0006 0291     		str	r1, [sp, #8]
 1929 0008 0192     		str	r2, [sp, #4]
 1930              		.loc 7 307 0
 1931 000a 0F4B     		ldr	r3, .L134
 1932 000c 1B68     		ldr	r3, [r3]
 1933 000e 0593     		str	r3, [sp, #20]
 1934              		.loc 7 309 0
 1935 0010 029B     		ldr	r3, [sp, #8]
 1936 0012 012B     		cmp	r3, #1
 1937 0014 04D0     		beq	.L131
 1938              		.loc 7 310 0
 1939 0016 0D49     		ldr	r1, .L134+4
 1940 0018 0398     		ldr	r0, [sp, #12]
 1941 001a FFF7FEFF 		bl	chprintf
 1942              		.loc 7 311 0
 1943 001e 09E0     		b	.L130
 1944              	.L131:
 1945              		.loc 7 314 0
 1946 0020 019B     		ldr	r3, [sp, #4]
 1947 0022 1B68     		ldr	r3, [r3]
 1948 0024 1846     		mov	r0, r3
 1949 0026 FFF7FEFF 		bl	atoi
 1950 002a 0346     		mov	r3, r0
 1951 002c DBB2     		uxtb	r3, r3
 1952 002e 1846     		mov	r0, r3
 1953 0030 FFF7FEFF 		bl	setSoundFileVolume
 1954              	.L130:
 1955              		.loc 7 315 0
 1956 0034 044B     		ldr	r3, .L134
 1957 0036 059A     		ldr	r2, [sp, #20]
 1958 0038 1B68     		ldr	r3, [r3]
 1959 003a 9A42     		cmp	r2, r3
 1960 003c 01D0     		beq	.L133
 1961 003e FFF7FEFF 		bl	__stack_chk_fail
 1962              	.L133:
 1963 0042 07B0     		add	sp, sp, #28
 1964              		.cfi_def_cfa_offset 4
 1965              		@ sp needed
 1966 0044 5DF804FB 		ldr	pc, [sp], #4
 1967              	.L135:
ARM GAS  C:\Users\Moi\AppData\Local\Temp\cchaECY7.s 			page 38


 1968              		.align	2
 1969              	.L134:
 1970 0048 00000000 		.word	__stack_chk_guard
 1971 004c 08040000 		.word	.LC38
 1972              		.cfi_endproc
 1973              	.LFE271:
 1974              		.size	cmd_sound_file_volume, .-cmd_sound_file_volume
 1975              		.section	.rodata
 1976 0421 000000   		.align	2
 1977              	.LC39:
 1978 0424 55736167 		.ascii	"Usage: ml_play numberOfTheMelody\015\012\000"
 1978      653A206D 
 1978      6C5F706C 
 1978      6179206E 
 1978      756D6265 
 1979 0447 00       		.align	2
 1980              	.LC40:
 1981 0448 6D656C6F 		.ascii	"melodies availables :\015\012\000"
 1981      64696573 
 1981      20617661 
 1981      696C6162 
 1981      6C657320 
 1982              		.align	2
 1983              	.LC41:
 1984 0460 31292049 		.ascii	"1) IMPOSSIBLE_MISSION,\015\012\000"
 1984      4D504F53 
 1984      5349424C 
 1984      455F4D49 
 1984      5353494F 
 1985 0479 000000   		.align	2
 1986              	.LC42:
 1987 047c 32292057 		.ascii	"2) WE_ARE_THE_CHAMPIONS,\015\012\000"
 1987      455F4152 
 1987      455F5448 
 1987      455F4348 
 1987      414D5049 
 1988 0497 00       		.align	2
 1989              	.LC43:
 1990 0498 33292052 		.ascii	"3) RUSSIA,\015\012\000"
 1990      55535349 
 1990      412C0D0A 
 1990      00
 1991 04a5 000000   		.align	2
 1992              	.LC44:
 1993 04a8 3429204D 		.ascii	"4) MARIO,\015\012\000"
 1993      4152494F 
 1993      2C0D0A00 
 1994              		.align	2
 1995              	.LC45:
 1996 04b4 35292055 		.ascii	"5) UNDERWORLD,\015\012\000"
 1996      4E444552 
 1996      574F524C 
 1996      442C0D0A 
 1996      00
 1997 04c5 000000   		.align	2
 1998              	.LC46:
 1999 04c8 3629204D 		.ascii	"6) MARIO_START,\015\012\000"
ARM GAS  C:\Users\Moi\AppData\Local\Temp\cchaECY7.s 			page 39


 1999      4152494F 
 1999      5F535441 
 1999      52542C0D 
 1999      0A00
 2000 04da 0000     		.align	2
 2001              	.LC47:
 2002 04dc 3729204D 		.ascii	"7) MARIO_DEATH,\015\012\000"
 2002      4152494F 
 2002      5F444541 
 2002      54482C0D 
 2002      0A00
 2003 04ee 0000     		.align	2
 2004              	.LC48:
 2005 04f0 3829204D 		.ascii	"8) MARIO_FLAG,\015\012\000"
 2005      4152494F 
 2005      5F464C41 
 2005      472C0D0A 
 2005      00
 2006 0501 000000   		.align	2
 2007              	.LC49:
 2008 0504 39292057 		.ascii	"9) WALKING,\015\012\000"
 2008      414C4B49 
 2008      4E472C0D 
 2008      0A00
 2009 0512 0000     		.align	2
 2010              	.LC50:
 2011 0514 31302920 		.ascii	"10) PIRATES_OF_THE_CARIBBEAN,\015\012\000"
 2011      50495241 
 2011      5445535F 
 2011      4F465F54 
 2011      48455F43 
 2012              		.align	2
 2013              	.LC51:
 2014 0534 31312920 		.ascii	"11) SIMPSON,\015\012\000"
 2014      53494D50 
 2014      534F4E2C 
 2014      0D0A00
 2015 0543 00       		.align	2
 2016              	.LC52:
 2017 0544 31322920 		.ascii	"12) STARWARS,\015\012\000"
 2017      53544152 
 2017      57415253 
 2017      2C0D0A00 
 2018              		.align	2
 2019              	.LC53:
 2020 0554 31332920 		.ascii	"13) SANDSTORMS,\015\012\000"
 2020      53414E44 
 2020      53544F52 
 2020      4D532C0D 
 2020      0A00
 2021 0566 0000     		.align	2
 2022              	.LC54:
 2023 0568 31342920 		.ascii	"14) SEVEN_NATION_ARMY\015\012\000"
 2023      53455645 
 2023      4E5F4E41 
 2023      54494F4E 
 2023      5F41524D 
ARM GAS  C:\Users\Moi\AppData\Local\Temp\cchaECY7.s 			page 40


 2024              		.section	.text.cmd_melody_play,"ax",%progbits
 2025              		.align	1
 2026              		.p2align 4,,15
 2027              		.syntax unified
 2028              		.thumb
 2029              		.thumb_func
 2030              		.fpu fpv4-sp-d16
 2031              		.type	cmd_melody_play, %function
 2032              	cmd_melody_play:
 2033              	.LFB272:
 2034              		.loc 7 318 0
 2035              		.cfi_startproc
 2036              		@ args = 0, pretend = 0, frame = 24
 2037              		@ frame_needed = 0, uses_anonymous_args = 0
 2038 0000 00B5     		push	{lr}
 2039              		.cfi_def_cfa_offset 4
 2040              		.cfi_offset 14, -4
 2041 0002 87B0     		sub	sp, sp, #28
 2042              		.cfi_def_cfa_offset 32
 2043 0004 0390     		str	r0, [sp, #12]
 2044 0006 0291     		str	r1, [sp, #8]
 2045 0008 0192     		str	r2, [sp, #4]
 2046              		.loc 7 318 0
 2047 000a 2F4B     		ldr	r3, .L140
 2048 000c 1B68     		ldr	r3, [r3]
 2049 000e 0593     		str	r3, [sp, #20]
 2050              		.loc 7 320 0
 2051 0010 029B     		ldr	r3, [sp, #8]
 2052 0012 012B     		cmp	r3, #1
 2053 0014 40D0     		beq	.L137
 2054              		.loc 7 321 0
 2055 0016 2D49     		ldr	r1, .L140+4
 2056 0018 0398     		ldr	r0, [sp, #12]
 2057 001a FFF7FEFF 		bl	chprintf
 2058              		.loc 7 322 0
 2059 001e 2C49     		ldr	r1, .L140+8
 2060 0020 0398     		ldr	r0, [sp, #12]
 2061 0022 FFF7FEFF 		bl	chprintf
 2062              		.loc 7 323 0
 2063 0026 2B49     		ldr	r1, .L140+12
 2064 0028 0398     		ldr	r0, [sp, #12]
 2065 002a FFF7FEFF 		bl	chprintf
 2066              		.loc 7 324 0
 2067 002e 2A49     		ldr	r1, .L140+16
 2068 0030 0398     		ldr	r0, [sp, #12]
 2069 0032 FFF7FEFF 		bl	chprintf
 2070              		.loc 7 325 0
 2071 0036 2949     		ldr	r1, .L140+20
 2072 0038 0398     		ldr	r0, [sp, #12]
 2073 003a FFF7FEFF 		bl	chprintf
 2074              		.loc 7 326 0
 2075 003e 2849     		ldr	r1, .L140+24
 2076 0040 0398     		ldr	r0, [sp, #12]
 2077 0042 FFF7FEFF 		bl	chprintf
 2078              		.loc 7 327 0
 2079 0046 2749     		ldr	r1, .L140+28
 2080 0048 0398     		ldr	r0, [sp, #12]
ARM GAS  C:\Users\Moi\AppData\Local\Temp\cchaECY7.s 			page 41


 2081 004a FFF7FEFF 		bl	chprintf
 2082              		.loc 7 328 0
 2083 004e 2649     		ldr	r1, .L140+32
 2084 0050 0398     		ldr	r0, [sp, #12]
 2085 0052 FFF7FEFF 		bl	chprintf
 2086              		.loc 7 329 0
 2087 0056 2549     		ldr	r1, .L140+36
 2088 0058 0398     		ldr	r0, [sp, #12]
 2089 005a FFF7FEFF 		bl	chprintf
 2090              		.loc 7 330 0
 2091 005e 2449     		ldr	r1, .L140+40
 2092 0060 0398     		ldr	r0, [sp, #12]
 2093 0062 FFF7FEFF 		bl	chprintf
 2094              		.loc 7 331 0
 2095 0066 2349     		ldr	r1, .L140+44
 2096 0068 0398     		ldr	r0, [sp, #12]
 2097 006a FFF7FEFF 		bl	chprintf
 2098              		.loc 7 332 0
 2099 006e 2249     		ldr	r1, .L140+48
 2100 0070 0398     		ldr	r0, [sp, #12]
 2101 0072 FFF7FEFF 		bl	chprintf
 2102              		.loc 7 333 0
 2103 0076 2149     		ldr	r1, .L140+52
 2104 0078 0398     		ldr	r0, [sp, #12]
 2105 007a FFF7FEFF 		bl	chprintf
 2106              		.loc 7 334 0
 2107 007e 2049     		ldr	r1, .L140+56
 2108 0080 0398     		ldr	r0, [sp, #12]
 2109 0082 FFF7FEFF 		bl	chprintf
 2110              		.loc 7 335 0
 2111 0086 1F49     		ldr	r1, .L140+60
 2112 0088 0398     		ldr	r0, [sp, #12]
 2113 008a FFF7FEFF 		bl	chprintf
 2114              		.loc 7 336 0
 2115 008e 1E49     		ldr	r1, .L140+64
 2116 0090 0398     		ldr	r0, [sp, #12]
 2117 0092 FFF7FEFF 		bl	chprintf
 2118              		.loc 7 337 0
 2119 0096 0DE0     		b	.L136
 2120              	.L137:
 2121              		.loc 7 339 0
 2122 0098 019B     		ldr	r3, [sp, #4]
 2123 009a 1B68     		ldr	r3, [r3]
 2124 009c 1846     		mov	r0, r3
 2125 009e FFF7FEFF 		bl	atoi
 2126 00a2 0346     		mov	r3, r0
 2127 00a4 DBB2     		uxtb	r3, r3
 2128 00a6 013B     		subs	r3, r3, #1
 2129 00a8 DBB2     		uxtb	r3, r3
 2130 00aa 0022     		movs	r2, #0
 2131 00ac 0221     		movs	r1, #2
 2132 00ae 1846     		mov	r0, r3
 2133 00b0 FFF7FEFF 		bl	playMelody
 2134              	.L136:
 2135              		.loc 7 340 0
 2136 00b4 044B     		ldr	r3, .L140
 2137 00b6 059A     		ldr	r2, [sp, #20]
ARM GAS  C:\Users\Moi\AppData\Local\Temp\cchaECY7.s 			page 42


 2138 00b8 1B68     		ldr	r3, [r3]
 2139 00ba 9A42     		cmp	r2, r3
 2140 00bc 01D0     		beq	.L139
 2141 00be FFF7FEFF 		bl	__stack_chk_fail
 2142              	.L139:
 2143 00c2 07B0     		add	sp, sp, #28
 2144              		.cfi_def_cfa_offset 4
 2145              		@ sp needed
 2146 00c4 5DF804FB 		ldr	pc, [sp], #4
 2147              	.L141:
 2148              		.align	2
 2149              	.L140:
 2150 00c8 00000000 		.word	__stack_chk_guard
 2151 00cc 24040000 		.word	.LC39
 2152 00d0 48040000 		.word	.LC40
 2153 00d4 60040000 		.word	.LC41
 2154 00d8 7C040000 		.word	.LC42
 2155 00dc 98040000 		.word	.LC43
 2156 00e0 A8040000 		.word	.LC44
 2157 00e4 B4040000 		.word	.LC45
 2158 00e8 C8040000 		.word	.LC46
 2159 00ec DC040000 		.word	.LC47
 2160 00f0 F0040000 		.word	.LC48
 2161 00f4 04050000 		.word	.LC49
 2162 00f8 14050000 		.word	.LC50
 2163 00fc 34050000 		.word	.LC51
 2164 0100 44050000 		.word	.LC52
 2165 0104 54050000 		.word	.LC53
 2166 0108 68050000 		.word	.LC54
 2167              		.cfi_endproc
 2168              	.LFE272:
 2169              		.size	cmd_melody_play, .-cmd_melody_play
 2170              		.section	.text.cmd_melody_stop,"ax",%progbits
 2171              		.align	1
 2172              		.p2align 4,,15
 2173              		.syntax unified
 2174              		.thumb
 2175              		.thumb_func
 2176              		.fpu fpv4-sp-d16
 2177              		.type	cmd_melody_stop, %function
 2178              	cmd_melody_stop:
 2179              	.LFB273:
 2180              		.loc 7 343 0
 2181              		.cfi_startproc
 2182              		@ args = 0, pretend = 0, frame = 24
 2183              		@ frame_needed = 0, uses_anonymous_args = 0
 2184 0000 00B5     		push	{lr}
 2185              		.cfi_def_cfa_offset 4
 2186              		.cfi_offset 14, -4
 2187 0002 87B0     		sub	sp, sp, #28
 2188              		.cfi_def_cfa_offset 32
 2189 0004 0390     		str	r0, [sp, #12]
 2190 0006 0291     		str	r1, [sp, #8]
 2191 0008 0192     		str	r2, [sp, #4]
 2192              		.loc 7 343 0
 2193 000a 084B     		ldr	r3, .L144
 2194 000c 1B68     		ldr	r3, [r3]
ARM GAS  C:\Users\Moi\AppData\Local\Temp\cchaECY7.s 			page 43


 2195 000e 0593     		str	r3, [sp, #20]
 2196              		.loc 7 348 0
 2197 0010 FFF7FEFF 		bl	stopCurrentMelody
 2198              		.loc 7 349 0
 2199 0014 00BF     		nop
 2200 0016 054B     		ldr	r3, .L144
 2201 0018 059A     		ldr	r2, [sp, #20]
 2202 001a 1B68     		ldr	r3, [r3]
 2203 001c 9A42     		cmp	r2, r3
 2204 001e 01D0     		beq	.L143
 2205 0020 FFF7FEFF 		bl	__stack_chk_fail
 2206              	.L143:
 2207 0024 07B0     		add	sp, sp, #28
 2208              		.cfi_def_cfa_offset 4
 2209              		@ sp needed
 2210 0026 5DF804FB 		ldr	pc, [sp], #4
 2211              	.L145:
 2212 002a 00BF     		.align	2
 2213              	.L144:
 2214 002c 00000000 		.word	__stack_chk_guard
 2215              		.cfi_endproc
 2216              	.LFE273:
 2217              		.size	cmd_melody_stop, .-cmd_melody_stop
 2218              		.section	.rodata
 2219              		.align	2
 2220              	.LC55:
 2221 0580 55736167 		.ascii	"Usage: mem\015\012\000"
 2221      653A206D 
 2221      656D0D0A 
 2221      00
 2222 058d 000000   		.align	2
 2223              	.LC56:
 2224 0590 636F7265 		.ascii	"core free memory : %u bytes\015\012\000"
 2224      20667265 
 2224      65206D65 
 2224      6D6F7279 
 2224      203A2025 
 2225 05ae 0000     		.align	2
 2226              	.LC57:
 2227 05b0 68656170 		.ascii	"heap fragments     : %u\015\012\000"
 2227      20667261 
 2227      676D656E 
 2227      74732020 
 2227      2020203A 
 2228 05ca 0000     		.align	2
 2229              	.LC58:
 2230 05cc 68656170 		.ascii	"heap free total    : %u bytes\015\012\000"
 2230      20667265 
 2230      6520746F 
 2230      74616C20 
 2230      2020203A 
 2231              		.section	.text.cmd_mem,"ax",%progbits
 2232              		.align	1
 2233              		.p2align 4,,15
 2234              		.syntax unified
 2235              		.thumb
 2236              		.thumb_func
ARM GAS  C:\Users\Moi\AppData\Local\Temp\cchaECY7.s 			page 44


 2237              		.fpu fpv4-sp-d16
 2238              		.type	cmd_mem, %function
 2239              	cmd_mem:
 2240              	.LFB274:
 2241              		.loc 7 352 0
 2242              		.cfi_startproc
 2243              		@ args = 0, pretend = 0, frame = 32
 2244              		@ frame_needed = 0, uses_anonymous_args = 0
 2245 0000 00B5     		push	{lr}
 2246              		.cfi_def_cfa_offset 4
 2247              		.cfi_offset 14, -4
 2248 0002 89B0     		sub	sp, sp, #36
 2249              		.cfi_def_cfa_offset 40
 2250 0004 0390     		str	r0, [sp, #12]
 2251 0006 0291     		str	r1, [sp, #8]
 2252 0008 0192     		str	r2, [sp, #4]
 2253              		.loc 7 352 0
 2254 000a 174B     		ldr	r3, .L150
 2255 000c 1B68     		ldr	r3, [r3]
 2256 000e 0793     		str	r3, [sp, #28]
 2257              		.loc 7 356 0
 2258 0010 029B     		ldr	r3, [sp, #8]
 2259 0012 002B     		cmp	r3, #0
 2260 0014 04DD     		ble	.L147
 2261              		.loc 7 357 0
 2262 0016 1549     		ldr	r1, .L150+4
 2263 0018 0398     		ldr	r0, [sp, #12]
 2264 001a FFF7FEFF 		bl	chprintf
 2265 001e 18E0     		b	.L146
 2266              	.L147:
 2267              		.loc 7 360 0
 2268 0020 05AB     		add	r3, sp, #20
 2269 0022 1946     		mov	r1, r3
 2270 0024 0020     		movs	r0, #0
 2271 0026 FFF7FEFF 		bl	chHeapStatus
 2272 002a 0690     		str	r0, [sp, #24]
 2273              		.loc 7 361 0
 2274 002c FFF7FEFF 		bl	chCoreGetStatusX
 2275 0030 0346     		mov	r3, r0
 2276 0032 1A46     		mov	r2, r3
 2277 0034 0E49     		ldr	r1, .L150+8
 2278 0036 0398     		ldr	r0, [sp, #12]
 2279 0038 FFF7FEFF 		bl	chprintf
 2280              		.loc 7 362 0
 2281 003c 069A     		ldr	r2, [sp, #24]
 2282 003e 0D49     		ldr	r1, .L150+12
 2283 0040 0398     		ldr	r0, [sp, #12]
 2284 0042 FFF7FEFF 		bl	chprintf
 2285              		.loc 7 363 0
 2286 0046 059B     		ldr	r3, [sp, #20]
 2287 0048 1A46     		mov	r2, r3
 2288 004a 0B49     		ldr	r1, .L150+16
 2289 004c 0398     		ldr	r0, [sp, #12]
 2290 004e FFF7FEFF 		bl	chprintf
 2291              	.L146:
 2292              		.loc 7 364 0
 2293 0052 054B     		ldr	r3, .L150
ARM GAS  C:\Users\Moi\AppData\Local\Temp\cchaECY7.s 			page 45


 2294 0054 079A     		ldr	r2, [sp, #28]
 2295 0056 1B68     		ldr	r3, [r3]
 2296 0058 9A42     		cmp	r2, r3
 2297 005a 01D0     		beq	.L149
 2298 005c FFF7FEFF 		bl	__stack_chk_fail
 2299              	.L149:
 2300 0060 09B0     		add	sp, sp, #36
 2301              		.cfi_def_cfa_offset 4
 2302              		@ sp needed
 2303 0062 5DF804FB 		ldr	pc, [sp], #4
 2304              	.L151:
 2305 0066 00BF     		.align	2
 2306              	.L150:
 2307 0068 00000000 		.word	__stack_chk_guard
 2308 006c 80050000 		.word	.LC55
 2309 0070 90050000 		.word	.LC56
 2310 0074 B0050000 		.word	.LC57
 2311 0078 CC050000 		.word	.LC58
 2312              		.cfi_endproc
 2313              	.LFE274:
 2314              		.size	cmd_mem, .-cmd_mem
 2315              		.section	.rodata
 2316              		.align	2
 2317              	.LC59:
 2318 05ec 55736167 		.ascii	"Usage: threads\015\012\000"
 2318      653A2074 
 2318      68726561 
 2318      64730D0A 
 2318      00
 2319 05fd 000000   		.align	2
 2320              	.LC60:
 2321 0600 20202020 		.ascii	"        addr        stack prio refs         state\015"
 2321      20202020 
 2321      61646472 
 2321      20202020 
 2321      20202020 
 2322 0632 0A00     		.ascii	"\012\000"
 2323              		.align	2
 2324              	.LC61:
 2325 0634 2530386C 		.ascii	"%08lx %08lx %4lu %4lu %9s\015\012\000"
 2325      78202530 
 2325      386C7820 
 2325      25346C75 
 2325      2025346C 
 2326              		.section	.text.cmd_threads,"ax",%progbits
 2327              		.align	1
 2328              		.p2align 4,,15
 2329              		.syntax unified
 2330              		.thumb
 2331              		.thumb_func
 2332              		.fpu fpv4-sp-d16
 2333              		.type	cmd_threads, %function
 2334              	cmd_threads:
 2335              	.LFB275:
 2336              		.loc 7 367 0
 2337              		.cfi_startproc
 2338              		@ args = 0, pretend = 0, frame = 24
ARM GAS  C:\Users\Moi\AppData\Local\Temp\cchaECY7.s 			page 46


 2339              		@ frame_needed = 0, uses_anonymous_args = 0
 2340 0000 30B5     		push	{r4, r5, lr}
 2341              		.cfi_def_cfa_offset 12
 2342              		.cfi_offset 4, -12
 2343              		.cfi_offset 5, -8
 2344              		.cfi_offset 14, -4
 2345 0002 8BB0     		sub	sp, sp, #44
 2346              		.cfi_def_cfa_offset 56
 2347 0004 0790     		str	r0, [sp, #28]
 2348 0006 0691     		str	r1, [sp, #24]
 2349 0008 0592     		str	r2, [sp, #20]
 2350              		.loc 7 367 0
 2351 000a 1E4B     		ldr	r3, .L157
 2352 000c 1B68     		ldr	r3, [r3]
 2353 000e 0993     		str	r3, [sp, #36]
 2354              		.loc 7 372 0
 2355 0010 069B     		ldr	r3, [sp, #24]
 2356 0012 002B     		cmp	r3, #0
 2357 0014 04DD     		ble	.L153
 2358              		.loc 7 373 0
 2359 0016 1C49     		ldr	r1, .L157+4
 2360 0018 0798     		ldr	r0, [sp, #28]
 2361 001a FFF7FEFF 		bl	chprintf
 2362              		.loc 7 374 0
 2363 001e 28E0     		b	.L152
 2364              	.L153:
 2365              		.loc 7 376 0
 2366 0020 1A49     		ldr	r1, .L157+8
 2367 0022 0798     		ldr	r0, [sp, #28]
 2368 0024 FFF7FEFF 		bl	chprintf
 2369              		.loc 7 377 0
 2370 0028 FFF7FEFF 		bl	chRegFirstThread
 2371 002c 0890     		str	r0, [sp, #32]
 2372              	.L155:
 2373              		.loc 7 379 0 discriminator 1
 2374 002e 0899     		ldr	r1, [sp, #32]
 2375              		.loc 7 380 0 discriminator 1
 2376 0030 089B     		ldr	r3, [sp, #32]
 2377 0032 DB68     		ldr	r3, [r3, #12]
 2378              		.loc 7 379 0 discriminator 1
 2379 0034 1D46     		mov	r5, r3
 2380              		.loc 7 381 0 discriminator 1
 2381 0036 089B     		ldr	r3, [sp, #32]
 2382 0038 9B68     		ldr	r3, [r3, #8]
 2383 003a 089A     		ldr	r2, [sp, #32]
 2384 003c 92F82220 		ldrb	r2, [r2, #34]	@ zero_extendqisi2
 2385 0040 013A     		subs	r2, r2, #1
 2386              		.loc 7 379 0 discriminator 1
 2387 0042 1046     		mov	r0, r2
 2388              		.loc 7 382 0 discriminator 1
 2389 0044 089A     		ldr	r2, [sp, #32]
 2390 0046 92F82020 		ldrb	r2, [r2, #32]	@ zero_extendqisi2
 2391 004a 1446     		mov	r4, r2
 2392              		.loc 7 379 0 discriminator 1
 2393 004c 104A     		ldr	r2, .L157+12
 2394 004e 52F82420 		ldr	r2, [r2, r4, lsl #2]
 2395 0052 0292     		str	r2, [sp, #8]
ARM GAS  C:\Users\Moi\AppData\Local\Temp\cchaECY7.s 			page 47


 2396 0054 0190     		str	r0, [sp, #4]
 2397 0056 0093     		str	r3, [sp]
 2398 0058 2B46     		mov	r3, r5
 2399 005a 0A46     		mov	r2, r1
 2400 005c 0D49     		ldr	r1, .L157+16
 2401 005e 0798     		ldr	r0, [sp, #28]
 2402 0060 FFF7FEFF 		bl	chprintf
 2403              		.loc 7 383 0 discriminator 1
 2404 0064 0898     		ldr	r0, [sp, #32]
 2405 0066 FFF7FEFF 		bl	chRegNextThread
 2406 006a 0890     		str	r0, [sp, #32]
 2407              		.loc 7 384 0 discriminator 1
 2408 006c 089B     		ldr	r3, [sp, #32]
 2409 006e 002B     		cmp	r3, #0
 2410 0070 DDD1     		bne	.L155
 2411              	.L152:
 2412              		.loc 7 385 0
 2413 0072 044B     		ldr	r3, .L157
 2414 0074 099A     		ldr	r2, [sp, #36]
 2415 0076 1B68     		ldr	r3, [r3]
 2416 0078 9A42     		cmp	r2, r3
 2417 007a 01D0     		beq	.L156
 2418 007c FFF7FEFF 		bl	__stack_chk_fail
 2419              	.L156:
 2420 0080 0BB0     		add	sp, sp, #44
 2421              		.cfi_def_cfa_offset 12
 2422              		@ sp needed
 2423 0082 30BD     		pop	{r4, r5, pc}
 2424              	.L158:
 2425              		.align	2
 2426              	.L157:
 2427 0084 00000000 		.word	__stack_chk_guard
 2428 0088 EC050000 		.word	.LC59
 2429 008c 00060000 		.word	.LC60
 2430 0090 00000000 		.word	states.13326
 2431 0094 34060000 		.word	.LC61
 2432              		.cfi_endproc
 2433              	.LFE275:
 2434              		.size	cmd_threads, .-cmd_threads
 2435              		.section	.rodata
 2436              		.align	2
 2437              	.LC62:
 2438 0650 55736167 		.ascii	"Usage: test\015\012\000"
 2438      653A2074 
 2438      6573740D 
 2438      0A00
 2439 065e 0000     		.align	2
 2440              	.LC63:
 2441 0660 6F757420 		.ascii	"out of memory\015\012\000"
 2441      6F66206D 
 2441      656D6F72 
 2441      790D0A00 
 2442              		.section	.text.cmd_test,"ax",%progbits
 2443              		.align	1
 2444              		.p2align 4,,15
 2445              		.syntax unified
 2446              		.thumb
ARM GAS  C:\Users\Moi\AppData\Local\Temp\cchaECY7.s 			page 48


 2447              		.thumb_func
 2448              		.fpu fpv4-sp-d16
 2449              		.type	cmd_test, %function
 2450              	cmd_test:
 2451              	.LFB276:
 2452              		.loc 7 388 0
 2453              		.cfi_startproc
 2454              		@ args = 0, pretend = 0, frame = 24
 2455              		@ frame_needed = 0, uses_anonymous_args = 0
 2456 0000 00B5     		push	{lr}
 2457              		.cfi_def_cfa_offset 4
 2458              		.cfi_offset 14, -4
 2459 0002 89B0     		sub	sp, sp, #36
 2460              		.cfi_def_cfa_offset 40
 2461 0004 0590     		str	r0, [sp, #20]
 2462 0006 0491     		str	r1, [sp, #16]
 2463 0008 0392     		str	r2, [sp, #12]
 2464              		.loc 7 388 0
 2465 000a 164B     		ldr	r3, .L164
 2466 000c 1B68     		ldr	r3, [r3]
 2467 000e 0793     		str	r3, [sp, #28]
 2468              		.loc 7 392 0
 2469 0010 049B     		ldr	r3, [sp, #16]
 2470 0012 002B     		cmp	r3, #0
 2471 0014 04DD     		ble	.L160
 2472              		.loc 7 393 0
 2473 0016 1449     		ldr	r1, .L164+4
 2474 0018 0598     		ldr	r0, [sp, #20]
 2475 001a FFF7FEFF 		bl	chprintf
 2476              		.loc 7 394 0
 2477 001e 16E0     		b	.L159
 2478              	.L160:
 2479              		.loc 7 396 0
 2480 0020 FFF7FEFF 		bl	chThdGetPriorityX
 2481 0024 0246     		mov	r2, r0
 2482 0026 059B     		ldr	r3, [sp, #20]
 2483 0028 0093     		str	r3, [sp]
 2484 002a 104B     		ldr	r3, .L164+8
 2485 002c 4FF41E71 		mov	r1, #632
 2486 0030 0020     		movs	r0, #0
 2487 0032 FFF7FEFF 		bl	chThdCreateFromHeap
 2488 0036 0690     		str	r0, [sp, #24]
 2489              		.loc 7 398 0
 2490 0038 069B     		ldr	r3, [sp, #24]
 2491 003a 002B     		cmp	r3, #0
 2492 003c 04D1     		bne	.L162
 2493              		.loc 7 399 0
 2494 003e 0C49     		ldr	r1, .L164+12
 2495 0040 0598     		ldr	r0, [sp, #20]
 2496 0042 FFF7FEFF 		bl	chprintf
 2497              		.loc 7 400 0
 2498 0046 02E0     		b	.L159
 2499              	.L162:
 2500              		.loc 7 402 0
 2501 0048 0698     		ldr	r0, [sp, #24]
 2502 004a FFF7FEFF 		bl	chThdWait
 2503              	.L159:
ARM GAS  C:\Users\Moi\AppData\Local\Temp\cchaECY7.s 			page 49


 2504              		.loc 7 403 0
 2505 004e 054B     		ldr	r3, .L164
 2506 0050 079A     		ldr	r2, [sp, #28]
 2507 0052 1B68     		ldr	r3, [r3]
 2508 0054 9A42     		cmp	r2, r3
 2509 0056 01D0     		beq	.L163
 2510 0058 FFF7FEFF 		bl	__stack_chk_fail
 2511              	.L163:
 2512 005c 09B0     		add	sp, sp, #36
 2513              		.cfi_def_cfa_offset 4
 2514              		@ sp needed
 2515 005e 5DF804FB 		ldr	pc, [sp], #4
 2516              	.L165:
 2517 0062 00BF     		.align	2
 2518              	.L164:
 2519 0064 00000000 		.word	__stack_chk_guard
 2520 0068 50060000 		.word	.LC62
 2521 006c 00000000 		.word	TestThread
 2522 0070 60060000 		.word	.LC63
 2523              		.cfi_endproc
 2524              	.LFE276:
 2525              		.size	cmd_test, .-cmd_test
 2526              		.section	.rodata
 2527              		.align	2
 2528              	.LC64:
 2529 0670 53595343 		.ascii	"SYSCLK: %i \012 HCLK: %i \012 PCLK1  %i \012 PCLK2 "
 2529      4C4B3A20 
 2529      2569200A 
 2529      2048434C 
 2529      4B3A2025 
 2530 069a 2569200A 		.ascii	"%i \012\000"
 2530      00
 2531              		.section	.text.cmd_readclock,"ax",%progbits
 2532              		.align	1
 2533              		.p2align 4,,15
 2534              		.syntax unified
 2535              		.thumb
 2536              		.thumb_func
 2537              		.fpu fpv4-sp-d16
 2538              		.type	cmd_readclock, %function
 2539              	cmd_readclock:
 2540              	.LFB277:
 2541              		.loc 7 406 0
 2542              		.cfi_startproc
 2543              		@ args = 0, pretend = 0, frame = 24
 2544              		@ frame_needed = 0, uses_anonymous_args = 0
 2545 0000 00B5     		push	{lr}
 2546              		.cfi_def_cfa_offset 4
 2547              		.cfi_offset 14, -4
 2548 0002 89B0     		sub	sp, sp, #36
 2549              		.cfi_def_cfa_offset 40
 2550 0004 0590     		str	r0, [sp, #20]
 2551 0006 0491     		str	r1, [sp, #16]
 2552 0008 0392     		str	r2, [sp, #12]
 2553              		.loc 7 406 0
 2554 000a 0C4B     		ldr	r3, .L168
 2555 000c 1B68     		ldr	r3, [r3]
ARM GAS  C:\Users\Moi\AppData\Local\Temp\cchaECY7.s 			page 50


 2556 000e 0793     		str	r3, [sp, #28]
 2557              		.loc 7 409 0
 2558 0010 0B4B     		ldr	r3, .L168+4
 2559 0012 0193     		str	r3, [sp, #4]
 2560 0014 0B4B     		ldr	r3, .L168+8
 2561 0016 0093     		str	r3, [sp]
 2562 0018 0B4B     		ldr	r3, .L168+12
 2563 001a 0B4A     		ldr	r2, .L168+12
 2564 001c 0B49     		ldr	r1, .L168+16
 2565 001e 0598     		ldr	r0, [sp, #20]
 2566 0020 FFF7FEFF 		bl	chprintf
 2567              		.loc 7 411 0
 2568 0024 00BF     		nop
 2569 0026 054B     		ldr	r3, .L168
 2570 0028 079A     		ldr	r2, [sp, #28]
 2571 002a 1B68     		ldr	r3, [r3]
 2572 002c 9A42     		cmp	r2, r3
 2573 002e 01D0     		beq	.L167
 2574 0030 FFF7FEFF 		bl	__stack_chk_fail
 2575              	.L167:
 2576 0034 09B0     		add	sp, sp, #36
 2577              		.cfi_def_cfa_offset 4
 2578              		@ sp needed
 2579 0036 5DF804FB 		ldr	pc, [sp], #4
 2580              	.L169:
 2581 003a 00BF     		.align	2
 2582              	.L168:
 2583 003c 00000000 		.word	__stack_chk_guard
 2584 0040 00BD0105 		.word	84000000
 2585 0044 80DE8002 		.word	42000000
 2586 0048 007A030A 		.word	168000000
 2587 004c 70060000 		.word	.LC64
 2588              		.cfi_endproc
 2589              	.LFE277:
 2590              		.size	cmd_readclock, .-cmd_readclock
 2591              		.section	.rodata
 2592 069f 00       		.align	2
 2593              	.LC65:
 2594 06a0 55736167 		.ascii	"Usage: sqrt mode int\015\012Modes: m (math), a (ass"
 2594      653A2073 
 2594      71727420 
 2594      6D6F6465 
 2594      20696E74 
 2595 06cd 656D626C 		.ascii	"embler) is default mode\015\012\000"
 2595      65722920 
 2595      69732064 
 2595      65666175 
 2595      6C74206D 
 2596 06e7 00       		.align	2
 2597              	.LC66:
 2598 06e8 6D00     		.ascii	"m\000"
 2599 06ea 0000     		.align	2
 2600              	.LC67:
 2601 06ec 73717274 		.ascii	"sqrt(%u) = %u \015\012\000"
 2601      28257529 
 2601      203D2025 
 2601      75200D0A 
ARM GAS  C:\Users\Moi\AppData\Local\Temp\cchaECY7.s 			page 51


 2601      00
 2602 06fd 000000   		.align	2
 2603              	.LC68:
 2604 0700 74696D65 		.ascii	"time: %u \015\012\000"
 2604      3A202575 
 2604      200D0A00 
 2605              		.section	.text.cmd_sqrt,"ax",%progbits
 2606              		.align	1
 2607              		.p2align 4,,15
 2608              		.syntax unified
 2609              		.thumb
 2610              		.thumb_func
 2611              		.fpu fpv4-sp-d16
 2612              		.type	cmd_sqrt, %function
 2613              	cmd_sqrt:
 2614              	.LFB278:
 2615              		.loc 7 414 0
 2616              		.cfi_startproc
 2617              		@ args = 0, pretend = 0, frame = 56
 2618              		@ frame_needed = 0, uses_anonymous_args = 0
 2619 0000 00B5     		push	{lr}
 2620              		.cfi_def_cfa_offset 4
 2621              		.cfi_offset 14, -4
 2622 0002 8FB0     		sub	sp, sp, #60
 2623              		.cfi_def_cfa_offset 64
 2624 0004 0390     		str	r0, [sp, #12]
 2625 0006 0291     		str	r1, [sp, #8]
 2626 0008 0192     		str	r2, [sp, #4]
 2627              		.loc 7 414 0
 2628 000a 3E4B     		ldr	r3, .L177
 2629 000c 1B68     		ldr	r3, [r3]
 2630 000e 0D93     		str	r3, [sp, #52]
 2631              		.loc 7 418 0
 2632 0010 06AB     		add	r3, sp, #24
 2633 0012 1846     		mov	r0, r3
 2634 0014 FFF7FEFF 		bl	chTMObjectInit
 2635              		.loc 7 420 0
 2636 0018 029B     		ldr	r3, [sp, #8]
 2637 001a 022B     		cmp	r3, #2
 2638 001c 04D0     		beq	.L171
 2639              		.loc 7 421 0
 2640 001e 3A49     		ldr	r1, .L177+4
 2641 0020 0398     		ldr	r0, [sp, #12]
 2642 0022 FFF7FEFF 		bl	chprintf
 2643              		.loc 7 448 0
 2644 0026 61E0     		b	.L176
 2645              	.L171:
 2646              		.loc 7 424 0
 2647 0028 019B     		ldr	r3, [sp, #4]
 2648 002a 0433     		adds	r3, r3, #4
 2649 002c 1B68     		ldr	r3, [r3]
 2650 002e 1846     		mov	r0, r3
 2651 0030 FFF7FEFF 		bl	atoi
 2652 0034 0346     		mov	r3, r0
 2653 0036 ADF81230 		strh	r3, [sp, #18]	@ movhi
 2654              		.loc 7 426 0
 2655 003a 019B     		ldr	r3, [sp, #4]
ARM GAS  C:\Users\Moi\AppData\Local\Temp\cchaECY7.s 			page 52


 2656 003c 1B68     		ldr	r3, [r3]
 2657 003e 3349     		ldr	r1, .L177+8
 2658 0040 1846     		mov	r0, r3
 2659 0042 FFF7FEFF 		bl	strcmp
 2660 0046 0346     		mov	r3, r0
 2661 0048 002B     		cmp	r3, #0
 2662 004a 1ED1     		bne	.L173
 2663              		.loc 7 427 0
 2664 004c FFF7FEFF 		bl	chSysLock
 2665              		.loc 7 428 0
 2666 0050 06AB     		add	r3, sp, #24
 2667 0052 1846     		mov	r0, r3
 2668 0054 FFF7FEFF 		bl	chTMStartMeasurementX
 2669              		.loc 7 429 0
 2670 0058 BDF81230 		ldrh	r3, [sp, #18]
 2671 005c 07EE903A 		vmov	s15, r3	@ int
 2672 0060 F8EE677A 		vcvt.f32.u32	s15, s15
 2673 0064 B0EE670A 		vmov.f32	s0, s15
 2674 0068 FFF7FEFF 		bl	sqrtf
 2675 006c F0EE407A 		vmov.f32	s15, s0
 2676 0070 FCEEE77A 		vcvt.u32.f32	s15, s15
 2677 0074 17EE903A 		vmov	r3, s15	@ int
 2678 0078 ADF81030 		strh	r3, [sp, #16]	@ movhi
 2679              		.loc 7 430 0
 2680 007c 06AB     		add	r3, sp, #24
 2681 007e 1846     		mov	r0, r3
 2682 0080 FFF7FEFF 		bl	chTMStopMeasurementX
 2683              		.loc 7 431 0
 2684 0084 FFF7FEFF 		bl	chSysUnlock
 2685 0088 22E0     		b	.L174
 2686              	.L173:
 2687              		.loc 7 433 0
 2688 008a FFF7FEFF 		bl	chSysLock
 2689              		.loc 7 434 0
 2690 008e 06AB     		add	r3, sp, #24
 2691 0090 1846     		mov	r0, r3
 2692 0092 FFF7FEFF 		bl	chTMStartMeasurementX
 2693              		.loc 7 435 0
 2694 0096 BDF81230 		ldrh	r3, [sp, #18]
 2695 009a 07EE903A 		vmov	s15, r3	@ int
 2696 009e F8EE677A 		vcvt.f32.u32	s15, s15
 2697 00a2 CDED057A 		vstr.32	s15, [sp, #20]
 2698              		.loc 7 436 0
 2699 00a6 059B     		ldr	r3, [sp, #20]	@ float
 2700 00a8 07EE903A 		vmov	s15, r3
 2701              		.syntax unified
 2702              	@ 436 "..//src/cmd.c" 1
 2703 00ac F1EEE77A 		vsqrt.f32 s15, s15
 2704              	@ 0 "" 2
 2705              		.thumb
 2706              		.syntax unified
 2707 00b0 CDED057A 		vstr.32	s15, [sp, #20]
 2708              		.loc 7 440 0
 2709 00b4 DDED057A 		vldr.32	s15, [sp, #20]
 2710 00b8 FCEEE77A 		vcvt.u32.f32	s15, s15
 2711 00bc 17EE903A 		vmov	r3, s15	@ int
 2712 00c0 ADF81030 		strh	r3, [sp, #16]	@ movhi
ARM GAS  C:\Users\Moi\AppData\Local\Temp\cchaECY7.s 			page 53


 2713              		.loc 7 441 0
 2714 00c4 06AB     		add	r3, sp, #24
 2715 00c6 1846     		mov	r0, r3
 2716 00c8 FFF7FEFF 		bl	chTMStopMeasurementX
 2717              		.loc 7 442 0
 2718 00cc FFF7FEFF 		bl	chSysUnlock
 2719              	.L174:
 2720              		.loc 7 445 0
 2721 00d0 BDF81220 		ldrh	r2, [sp, #18]
 2722 00d4 BDF81030 		ldrh	r3, [sp, #16]
 2723 00d8 0D49     		ldr	r1, .L177+12
 2724 00da 0398     		ldr	r0, [sp, #12]
 2725 00dc FFF7FEFF 		bl	chprintf
 2726              		.loc 7 446 0
 2727 00e0 089B     		ldr	r3, [sp, #32]
 2728 00e2 1A46     		mov	r2, r3
 2729 00e4 0B49     		ldr	r1, .L177+16
 2730 00e6 0398     		ldr	r0, [sp, #12]
 2731 00e8 FFF7FEFF 		bl	chprintf
 2732              	.L176:
 2733              		.loc 7 448 0
 2734 00ec 00BF     		nop
 2735 00ee 054B     		ldr	r3, .L177
 2736 00f0 0D9A     		ldr	r2, [sp, #52]
 2737 00f2 1B68     		ldr	r3, [r3]
 2738 00f4 9A42     		cmp	r2, r3
 2739 00f6 01D0     		beq	.L175
 2740 00f8 FFF7FEFF 		bl	__stack_chk_fail
 2741              	.L175:
 2742 00fc 0FB0     		add	sp, sp, #60
 2743              		.cfi_def_cfa_offset 4
 2744              		@ sp needed
 2745 00fe 5DF804FB 		ldr	pc, [sp], #4
 2746              	.L178:
 2747 0102 00BF     		.align	2
 2748              	.L177:
 2749 0104 00000000 		.word	__stack_chk_guard
 2750 0108 A0060000 		.word	.LC65
 2751 010c E8060000 		.word	.LC66
 2752 0110 EC060000 		.word	.LC67
 2753 0114 00070000 		.word	.LC68
 2754              		.cfi_endproc
 2755              	.LFE278:
 2756              		.size	cmd_sqrt, .-cmd_sqrt
 2757              		.section	.rodata
 2758              		.align	2
 2759              	.LC69:
 2760 070c 55736167 		.ascii	"Usage: atan2 mode a b\015\012Modes: m (math) is def"
 2760      653A2061 
 2760      74616E32 
 2760      206D6F64 
 2760      65206120 
 2761 0739 61756C74 		.ascii	"ault mode\015\012\000"
 2761      206D6F64 
 2761      650D0A00 
 2762 0745 000000   		.align	2
 2763              	.LC70:
ARM GAS  C:\Users\Moi\AppData\Local\Temp\cchaECY7.s 			page 54


 2764 0748 6174616E 		.ascii	"atan2(%d, %d) = %d \015\012\000"
 2764      32282564 
 2764      2C202564 
 2764      29203D20 
 2764      2564200D 
 2765              		.section	.text.cmd_atan2,"ax",%progbits
 2766              		.align	1
 2767              		.p2align 4,,15
 2768              		.syntax unified
 2769              		.thumb
 2770              		.thumb_func
 2771              		.fpu fpv4-sp-d16
 2772              		.type	cmd_atan2, %function
 2773              	cmd_atan2:
 2774              	.LFB279:
 2775              		.loc 7 452 0
 2776              		.cfi_startproc
 2777              		@ args = 0, pretend = 0, frame = 56
 2778              		@ frame_needed = 0, uses_anonymous_args = 0
 2779 0000 00B5     		push	{lr}
 2780              		.cfi_def_cfa_offset 4
 2781              		.cfi_offset 14, -4
 2782 0002 91B0     		sub	sp, sp, #68
 2783              		.cfi_def_cfa_offset 72
 2784 0004 0590     		str	r0, [sp, #20]
 2785 0006 0491     		str	r1, [sp, #16]
 2786 0008 0392     		str	r2, [sp, #12]
 2787              		.loc 7 452 0
 2788 000a 364B     		ldr	r3, .L184
 2789 000c 1B68     		ldr	r3, [r3]
 2790 000e 0F93     		str	r3, [sp, #60]
 2791              		.loc 7 455 0
 2792 0010 08AB     		add	r3, sp, #32
 2793 0012 1846     		mov	r0, r3
 2794 0014 FFF7FEFF 		bl	chTMObjectInit
 2795              		.loc 7 457 0
 2796 0018 049B     		ldr	r3, [sp, #16]
 2797 001a 032B     		cmp	r3, #3
 2798 001c 04D0     		beq	.L180
 2799              		.loc 7 458 0
 2800 001e 3249     		ldr	r1, .L184+4
 2801 0020 0598     		ldr	r0, [sp, #20]
 2802 0022 FFF7FEFF 		bl	chprintf
 2803              		.loc 7 473 0
 2804 0026 51E0     		b	.L183
 2805              	.L180:
 2806              		.loc 7 460 0
 2807 0028 039B     		ldr	r3, [sp, #12]
 2808 002a 0433     		adds	r3, r3, #4
 2809 002c 1B68     		ldr	r3, [r3]
 2810 002e 1846     		mov	r0, r3
 2811 0030 FFF7FEFF 		bl	atoi
 2812 0034 0346     		mov	r3, r0
 2813 0036 ADF81A30 		strh	r3, [sp, #26]	@ movhi
 2814              		.loc 7 461 0
 2815 003a 039B     		ldr	r3, [sp, #12]
 2816 003c 0833     		adds	r3, r3, #8
ARM GAS  C:\Users\Moi\AppData\Local\Temp\cchaECY7.s 			page 55


 2817 003e 1B68     		ldr	r3, [r3]
 2818 0040 1846     		mov	r0, r3
 2819 0042 FFF7FEFF 		bl	atoi
 2820 0046 0346     		mov	r3, r0
 2821 0048 ADF81C30 		strh	r3, [sp, #28]	@ movhi
 2822              		.loc 7 463 0
 2823 004c FFF7FEFF 		bl	chSysLock
 2824              		.loc 7 464 0
 2825 0050 08AB     		add	r3, sp, #32
 2826 0052 1846     		mov	r0, r3
 2827 0054 FFF7FEFF 		bl	chTMStartMeasurementX
 2828              		.loc 7 465 0
 2829 0058 BDF91A30 		ldrsh	r3, [sp, #26]
 2830 005c 07EE903A 		vmov	s15, r3	@ int
 2831 0060 F8EEE77A 		vcvt.f32.s32	s15, s15
 2832 0064 BDF91C30 		ldrsh	r3, [sp, #28]
 2833 0068 07EE103A 		vmov	s14, r3	@ int
 2834 006c B8EEC77A 		vcvt.f32.s32	s14, s14
 2835 0070 F0EE470A 		vmov.f32	s1, s14
 2836 0074 B0EE670A 		vmov.f32	s0, s15
 2837 0078 FFF7FEFF 		bl	atan2f
 2838 007c B0EE407A 		vmov.f32	s14, s0
 2839 0080 DFED1A7A 		vldr.32	s15, .L184+8
 2840 0084 27EE277A 		vmul.f32	s14, s14, s15
 2841 0088 DFED196A 		vldr.32	s13, .L184+12
 2842 008c C7EE267A 		vdiv.f32	s15, s14, s13
 2843 0090 FDEEE77A 		vcvt.s32.f32	s15, s15
 2844 0094 17EE903A 		vmov	r3, s15	@ int
 2845 0098 ADF81E30 		strh	r3, [sp, #30]	@ movhi
 2846              		.loc 7 466 0
 2847 009c 08AB     		add	r3, sp, #32
 2848 009e 1846     		mov	r0, r3
 2849 00a0 FFF7FEFF 		bl	chTMStopMeasurementX
 2850              		.loc 7 467 0
 2851 00a4 FFF7FEFF 		bl	chSysUnlock
 2852              		.loc 7 470 0
 2853 00a8 BDF91A20 		ldrsh	r2, [sp, #26]
 2854 00ac BDF91C10 		ldrsh	r1, [sp, #28]
 2855 00b0 BDF91E30 		ldrsh	r3, [sp, #30]
 2856 00b4 0093     		str	r3, [sp]
 2857 00b6 0B46     		mov	r3, r1
 2858 00b8 0E49     		ldr	r1, .L184+16
 2859 00ba 0598     		ldr	r0, [sp, #20]
 2860 00bc FFF7FEFF 		bl	chprintf
 2861              		.loc 7 471 0
 2862 00c0 0A9B     		ldr	r3, [sp, #40]
 2863 00c2 1A46     		mov	r2, r3
 2864 00c4 0C49     		ldr	r1, .L184+20
 2865 00c6 0598     		ldr	r0, [sp, #20]
 2866 00c8 FFF7FEFF 		bl	chprintf
 2867              	.L183:
 2868              		.loc 7 473 0
 2869 00cc 00BF     		nop
 2870 00ce 054B     		ldr	r3, .L184
 2871 00d0 0F9A     		ldr	r2, [sp, #60]
 2872 00d2 1B68     		ldr	r3, [r3]
 2873 00d4 9A42     		cmp	r2, r3
ARM GAS  C:\Users\Moi\AppData\Local\Temp\cchaECY7.s 			page 56


 2874 00d6 01D0     		beq	.L182
 2875 00d8 FFF7FEFF 		bl	__stack_chk_fail
 2876              	.L182:
 2877 00dc 11B0     		add	sp, sp, #68
 2878              		.cfi_def_cfa_offset 4
 2879              		@ sp needed
 2880 00de 5DF804FB 		ldr	pc, [sp], #4
 2881              	.L185:
 2882 00e2 00BF     		.align	2
 2883              	.L184:
 2884 00e4 00000000 		.word	__stack_chk_guard
 2885 00e8 0C070000 		.word	.LC69
 2886 00ec 00000047 		.word	1191182336
 2887 00f0 DB0F4940 		.word	1078530011
 2888 00f4 48070000 		.word	.LC70
 2889 00f8 00070000 		.word	.LC68
 2890              		.cfi_endproc
 2891              	.LFE279:
 2892              		.size	cmd_atan2, .-cmd_atan2
 2893              		.section	.rodata
 2894 075e 0000     		.align	2
 2895              	.LC71:
 2896 0760 202000   		.ascii	"  \000"
 2897              		.section	.text.tree_indent,"ax",%progbits
 2898              		.align	1
 2899              		.p2align 4,,15
 2900              		.syntax unified
 2901              		.thumb
 2902              		.thumb_func
 2903              		.fpu fpv4-sp-d16
 2904              		.type	tree_indent, %function
 2905              	tree_indent:
 2906              	.LFB280:
 2907              		.loc 7 476 0
 2908              		.cfi_startproc
 2909              		@ args = 0, pretend = 0, frame = 16
 2910              		@ frame_needed = 0, uses_anonymous_args = 0
 2911 0000 00B5     		push	{lr}
 2912              		.cfi_def_cfa_offset 4
 2913              		.cfi_offset 14, -4
 2914 0002 85B0     		sub	sp, sp, #20
 2915              		.cfi_def_cfa_offset 24
 2916 0004 0190     		str	r0, [sp, #4]
 2917 0006 0091     		str	r1, [sp]
 2918              		.loc 7 476 0
 2919 0008 0D4B     		ldr	r3, .L190
 2920 000a 1B68     		ldr	r3, [r3]
 2921 000c 0393     		str	r3, [sp, #12]
 2922              		.loc 7 478 0
 2923 000e 0023     		movs	r3, #0
 2924 0010 0293     		str	r3, [sp, #8]
 2925 0012 06E0     		b	.L187
 2926              	.L188:
 2927              		.loc 7 479 0 discriminator 3
 2928 0014 0B49     		ldr	r1, .L190+4
 2929 0016 0198     		ldr	r0, [sp, #4]
 2930 0018 FFF7FEFF 		bl	chprintf
ARM GAS  C:\Users\Moi\AppData\Local\Temp\cchaECY7.s 			page 57


 2931              		.loc 7 478 0 discriminator 3
 2932 001c 029B     		ldr	r3, [sp, #8]
 2933 001e 0133     		adds	r3, r3, #1
 2934 0020 0293     		str	r3, [sp, #8]
 2935              	.L187:
 2936              		.loc 7 478 0 is_stmt 0 discriminator 1
 2937 0022 029A     		ldr	r2, [sp, #8]
 2938 0024 009B     		ldr	r3, [sp]
 2939 0026 9A42     		cmp	r2, r3
 2940 0028 F4DB     		blt	.L188
 2941              		.loc 7 481 0 is_stmt 1
 2942 002a 00BF     		nop
 2943 002c 044B     		ldr	r3, .L190
 2944 002e 039A     		ldr	r2, [sp, #12]
 2945 0030 1B68     		ldr	r3, [r3]
 2946 0032 9A42     		cmp	r2, r3
 2947 0034 01D0     		beq	.L189
 2948 0036 FFF7FEFF 		bl	__stack_chk_fail
 2949              	.L189:
 2950 003a 05B0     		add	sp, sp, #20
 2951              		.cfi_def_cfa_offset 4
 2952              		@ sp needed
 2953 003c 5DF804FB 		ldr	pc, [sp], #4
 2954              	.L191:
 2955              		.align	2
 2956              	.L190:
 2957 0040 00000000 		.word	__stack_chk_guard
 2958 0044 60070000 		.word	.LC71
 2959              		.cfi_endproc
 2960              	.LFE280:
 2961              		.size	tree_indent, .-tree_indent
 2962              		.section	.rodata
 2963 0763 00       		.align	2
 2964              	.LC72:
 2965 0764 25733A0D 		.ascii	"%s:\015\012\000"
 2965      0A00
 2966              		.global	__aeabi_f2d
 2967 076a 0000     		.align	2
 2968              	.LC73:
 2969 076c 25733A20 		.ascii	"%s: %f\015\012\000"
 2969      25660D0A 
 2969      00
 2970 0775 000000   		.align	2
 2971              	.LC74:
 2972 0778 25733A20 		.ascii	"%s: %d\015\012\000"
 2972      25640D0A 
 2972      00
 2973 0781 000000   		.align	2
 2974              	.LC75:
 2975 0784 74727565 		.ascii	"true\000"
 2975      00
 2976 0789 000000   		.align	2
 2977              	.LC76:
 2978 078c 66616C73 		.ascii	"false\000"
 2978      6500
 2979 0792 0000     		.align	2
 2980              	.LC77:
ARM GAS  C:\Users\Moi\AppData\Local\Temp\cchaECY7.s 			page 58


 2981 0794 25733A20 		.ascii	"%s: %s\015\012\000"
 2981      25730D0A 
 2981      00
 2982 079d 000000   		.align	2
 2983              	.LC78:
 2984 07a0 25733A20 		.ascii	"%s: unknown type %d\015\012\000"
 2984      756E6B6E 
 2984      6F776E20 
 2984      74797065 
 2984      2025640D 
 2985 07b6 0000     		.align	2
 2986              	.LC79:
 2987 07b8 25733A20 		.ascii	"%s: [not set]\015\012\000"
 2987      5B6E6F74 
 2987      20736574 
 2987      5D0D0A00 
 2988              		.section	.text.show_config_tree,"ax",%progbits
 2989              		.align	1
 2990              		.p2align 4,,15
 2991              		.syntax unified
 2992              		.thumb
 2993              		.thumb_func
 2994              		.fpu fpv4-sp-d16
 2995              		.type	show_config_tree, %function
 2996              	show_config_tree:
 2997              	.LFB281:
 2998              		.loc 7 484 0
 2999              		.cfi_startproc
 3000              		@ args = 0, pretend = 0, frame = 88
 3001              		@ frame_needed = 0, uses_anonymous_args = 0
 3002 0000 30B5     		push	{r4, r5, lr}
 3003              		.cfi_def_cfa_offset 12
 3004              		.cfi_offset 4, -12
 3005              		.cfi_offset 5, -8
 3006              		.cfi_offset 14, -4
 3007 0002 99B0     		sub	sp, sp, #100
 3008              		.cfi_def_cfa_offset 112
 3009 0004 0590     		str	r0, [sp, #20]
 3010 0006 0491     		str	r1, [sp, #16]
 3011 0008 0392     		str	r2, [sp, #12]
 3012              		.loc 7 484 0
 3013 000a 534B     		ldr	r3, .L210
 3014 000c 1B68     		ldr	r3, [r3]
 3015 000e 1793     		str	r3, [sp, #92]
 3016              		.loc 7 488 0
 3017 0010 0399     		ldr	r1, [sp, #12]
 3018 0012 0598     		ldr	r0, [sp, #20]
 3019 0014 FFF7FEFF 		bl	tree_indent
 3020              		.loc 7 489 0
 3021 0018 049B     		ldr	r3, [sp, #16]
 3022 001a 1B68     		ldr	r3, [r3]
 3023 001c 1A46     		mov	r2, r3
 3024 001e 4F49     		ldr	r1, .L210+4
 3025 0020 0598     		ldr	r0, [sp, #20]
 3026 0022 FFF7FEFF 		bl	chprintf
 3027              		.loc 7 491 0
 3028 0026 049B     		ldr	r3, [sp, #16]
ARM GAS  C:\Users\Moi\AppData\Local\Temp\cchaECY7.s 			page 59


 3029 0028 5B69     		ldr	r3, [r3, #20]
 3030 002a 0693     		str	r3, [sp, #24]
 3031 002c 6FE0     		b	.L193
 3032              	.L205:
 3033              		.loc 7 492 0
 3034 002e 039B     		ldr	r3, [sp, #12]
 3035 0030 0133     		adds	r3, r3, #1
 3036 0032 1946     		mov	r1, r3
 3037 0034 0598     		ldr	r0, [sp, #20]
 3038 0036 FFF7FEFF 		bl	tree_indent
 3039              		.loc 7 493 0
 3040 003a 0698     		ldr	r0, [sp, #24]
 3041 003c FFF7FEFF 		bl	parameter_defined
 3042 0040 0346     		mov	r3, r0
 3043 0042 002B     		cmp	r3, #0
 3044 0044 59D0     		beq	.L194
 3045              		.loc 7 494 0
 3046 0046 069B     		ldr	r3, [sp, #24]
 3047 0048 9B7B     		ldrb	r3, [r3, #14]	@ zero_extendqisi2
 3048 004a 013B     		subs	r3, r3, #1
 3049 004c 032B     		cmp	r3, #3
 3050 004e 4AD8     		bhi	.L195
 3051 0050 01A2     		adr	r2, .L197
 3052 0052 52F823F0 		ldr	pc, [r2, r3, lsl #2]
 3053 0056 00BF     		.p2align 2
 3054              	.L197:
 3055 0058 69000000 		.word	.L196+1
 3056 005c A9000000 		.word	.L198+1
 3057 0060 91000000 		.word	.L199+1
 3058 0064 CB000000 		.word	.L200+1
 3059              		.p2align 1
 3060              	.L196:
 3061              		.loc 7 496 0
 3062 0068 069B     		ldr	r3, [sp, #24]
 3063 006a 1D68     		ldr	r5, [r3]
 3064 006c 0698     		ldr	r0, [sp, #24]
 3065 006e FFF7FEFF 		bl	parameter_scalar_get
 3066 0072 10EE103A 		vmov	r3, s0
 3067 0076 1846     		mov	r0, r3	@ float
 3068 0078 FFF7FEFF 		bl	__aeabi_f2d
 3069              	.LVL0:
 3070 007c 0346     		mov	r3, r0
 3071 007e 0C46     		mov	r4, r1
 3072 0080 CDE90034 		strd	r3, [sp]
 3073 0084 2A46     		mov	r2, r5
 3074 0086 3649     		ldr	r1, .L210+8
 3075 0088 0598     		ldr	r0, [sp, #20]
 3076 008a FFF7FEFF 		bl	chprintf
 3077              		.loc 7 497 0
 3078 008e 3BE0     		b	.L204
 3079              	.L199:
 3080              		.loc 7 500 0
 3081 0090 069B     		ldr	r3, [sp, #24]
 3082 0092 1C68     		ldr	r4, [r3]
 3083 0094 0698     		ldr	r0, [sp, #24]
 3084 0096 FFF7FEFF 		bl	parameter_integer_get
 3085 009a 0346     		mov	r3, r0
ARM GAS  C:\Users\Moi\AppData\Local\Temp\cchaECY7.s 			page 60


 3086 009c 2246     		mov	r2, r4
 3087 009e 3149     		ldr	r1, .L210+12
 3088 00a0 0598     		ldr	r0, [sp, #20]
 3089 00a2 FFF7FEFF 		bl	chprintf
 3090              		.loc 7 501 0
 3091 00a6 2FE0     		b	.L204
 3092              	.L198:
 3093              		.loc 7 504 0
 3094 00a8 069B     		ldr	r3, [sp, #24]
 3095 00aa 1C68     		ldr	r4, [r3]
 3096 00ac 0698     		ldr	r0, [sp, #24]
 3097 00ae FFF7FEFF 		bl	parameter_boolean_get
 3098 00b2 0346     		mov	r3, r0
 3099 00b4 002B     		cmp	r3, #0
 3100 00b6 01D0     		beq	.L202
 3101              		.loc 7 504 0 is_stmt 0 discriminator 1
 3102 00b8 2B4B     		ldr	r3, .L210+16
 3103 00ba 00E0     		b	.L203
 3104              	.L202:
 3105              		.loc 7 504 0 discriminator 2
 3106 00bc 2B4B     		ldr	r3, .L210+20
 3107              	.L203:
 3108              		.loc 7 504 0 discriminator 4
 3109 00be 2246     		mov	r2, r4
 3110 00c0 2B49     		ldr	r1, .L210+24
 3111 00c2 0598     		ldr	r0, [sp, #20]
 3112 00c4 FFF7FEFF 		bl	chprintf
 3113              		.loc 7 505 0 is_stmt 1 discriminator 4
 3114 00c8 1EE0     		b	.L204
 3115              	.L200:
 3116              		.loc 7 508 0
 3117 00ca 07AB     		add	r3, sp, #28
 3118 00cc 4022     		movs	r2, #64
 3119 00ce 1946     		mov	r1, r3
 3120 00d0 0698     		ldr	r0, [sp, #24]
 3121 00d2 FFF7FEFF 		bl	parameter_string_get
 3122              		.loc 7 509 0
 3123 00d6 069B     		ldr	r3, [sp, #24]
 3124 00d8 1A68     		ldr	r2, [r3]
 3125 00da 07AB     		add	r3, sp, #28
 3126 00dc 2449     		ldr	r1, .L210+24
 3127 00de 0598     		ldr	r0, [sp, #20]
 3128 00e0 FFF7FEFF 		bl	chprintf
 3129              		.loc 7 510 0
 3130 00e4 10E0     		b	.L204
 3131              	.L195:
 3132              		.loc 7 513 0
 3133 00e6 069B     		ldr	r3, [sp, #24]
 3134 00e8 1A68     		ldr	r2, [r3]
 3135 00ea 069B     		ldr	r3, [sp, #24]
 3136 00ec 9B7B     		ldrb	r3, [r3, #14]	@ zero_extendqisi2
 3137 00ee 2149     		ldr	r1, .L210+28
 3138 00f0 0598     		ldr	r0, [sp, #20]
 3139 00f2 FFF7FEFF 		bl	chprintf
 3140              		.loc 7 514 0
 3141 00f6 00BF     		nop
 3142 00f8 06E0     		b	.L204
ARM GAS  C:\Users\Moi\AppData\Local\Temp\cchaECY7.s 			page 61


 3143              	.L194:
 3144              		.loc 7 517 0
 3145 00fa 069B     		ldr	r3, [sp, #24]
 3146 00fc 1B68     		ldr	r3, [r3]
 3147 00fe 1A46     		mov	r2, r3
 3148 0100 1D49     		ldr	r1, .L210+32
 3149 0102 0598     		ldr	r0, [sp, #20]
 3150 0104 FFF7FEFF 		bl	chprintf
 3151              	.L204:
 3152              		.loc 7 491 0 discriminator 2
 3153 0108 069B     		ldr	r3, [sp, #24]
 3154 010a 9B68     		ldr	r3, [r3, #8]
 3155 010c 0693     		str	r3, [sp, #24]
 3156              	.L193:
 3157              		.loc 7 491 0 is_stmt 0 discriminator 1
 3158 010e 069B     		ldr	r3, [sp, #24]
 3159 0110 002B     		cmp	r3, #0
 3160 0112 8CD1     		bne	.L205
 3161              		.loc 7 521 0 is_stmt 1
 3162 0114 049B     		ldr	r3, [sp, #16]
 3163 0116 DB68     		ldr	r3, [r3, #12]
 3164 0118 002B     		cmp	r3, #0
 3165 011a 07D0     		beq	.L206
 3166              		.loc 7 522 0
 3167 011c 049B     		ldr	r3, [sp, #16]
 3168 011e D968     		ldr	r1, [r3, #12]
 3169 0120 039B     		ldr	r3, [sp, #12]
 3170 0122 0133     		adds	r3, r3, #1
 3171 0124 1A46     		mov	r2, r3
 3172 0126 0598     		ldr	r0, [sp, #20]
 3173 0128 FFF76AFF 		bl	show_config_tree
 3174              	.L206:
 3175              		.loc 7 525 0
 3176 012c 049B     		ldr	r3, [sp, #16]
 3177 012e 1B69     		ldr	r3, [r3, #16]
 3178 0130 002B     		cmp	r3, #0
 3179 0132 06D0     		beq	.L209
 3180              		.loc 7 526 0
 3181 0134 049B     		ldr	r3, [sp, #16]
 3182 0136 1B69     		ldr	r3, [r3, #16]
 3183 0138 039A     		ldr	r2, [sp, #12]
 3184 013a 1946     		mov	r1, r3
 3185 013c 0598     		ldr	r0, [sp, #20]
 3186 013e FFF75FFF 		bl	show_config_tree
 3187              	.L209:
 3188              		.loc 7 528 0
 3189 0142 00BF     		nop
 3190 0144 044B     		ldr	r3, .L210
 3191 0146 179A     		ldr	r2, [sp, #92]
 3192 0148 1B68     		ldr	r3, [r3]
 3193 014a 9A42     		cmp	r2, r3
 3194 014c 01D0     		beq	.L208
 3195 014e FFF7FEFF 		bl	__stack_chk_fail
 3196              	.L208:
 3197 0152 19B0     		add	sp, sp, #100
 3198              		.cfi_def_cfa_offset 12
 3199              		@ sp needed
ARM GAS  C:\Users\Moi\AppData\Local\Temp\cchaECY7.s 			page 62


 3200 0154 30BD     		pop	{r4, r5, pc}
 3201              	.L211:
 3202 0156 00BF     		.align	2
 3203              	.L210:
 3204 0158 00000000 		.word	__stack_chk_guard
 3205 015c 64070000 		.word	.LC72
 3206 0160 6C070000 		.word	.LC73
 3207 0164 78070000 		.word	.LC74
 3208 0168 84070000 		.word	.LC75
 3209 016c 8C070000 		.word	.LC76
 3210 0170 94070000 		.word	.LC77
 3211 0174 A0070000 		.word	.LC78
 3212 0178 B8070000 		.word	.LC79
 3213              		.cfi_endproc
 3214              	.LFE281:
 3215              		.size	show_config_tree, .-show_config_tree
 3216              		.section	.rodata
 3217              		.align	2
 3218              	.LC80:
 3219 07c8 43616E6E 		.ascii	"Cannot find subtree.\015\012\000"
 3219      6F742066 
 3219      696E6420 
 3219      73756274 
 3219      7265652E 
 3220              		.section	.text.cmd_config_tree,"ax",%progbits
 3221              		.align	1
 3222              		.p2align 4,,15
 3223              		.syntax unified
 3224              		.thumb
 3225              		.thumb_func
 3226              		.fpu fpv4-sp-d16
 3227              		.type	cmd_config_tree, %function
 3228              	cmd_config_tree:
 3229              	.LFB282:
 3230              		.loc 7 531 0
 3231              		.cfi_startproc
 3232              		@ args = 0, pretend = 0, frame = 24
 3233              		@ frame_needed = 0, uses_anonymous_args = 0
 3234 0000 00B5     		push	{lr}
 3235              		.cfi_def_cfa_offset 4
 3236              		.cfi_offset 14, -4
 3237 0002 87B0     		sub	sp, sp, #28
 3238              		.cfi_def_cfa_offset 32
 3239 0004 0390     		str	r0, [sp, #12]
 3240 0006 0291     		str	r1, [sp, #8]
 3241 0008 0192     		str	r2, [sp, #4]
 3242              		.loc 7 531 0
 3243 000a 134B     		ldr	r3, .L217
 3244 000c 1B68     		ldr	r3, [r3]
 3245 000e 0593     		str	r3, [sp, #20]
 3246              		.loc 7 533 0
 3247 0010 029B     		ldr	r3, [sp, #8]
 3248 0012 012B     		cmp	r3, #1
 3249 0014 02D0     		beq	.L213
 3250              		.loc 7 534 0
 3251 0016 114B     		ldr	r3, .L217+4
 3252 0018 0493     		str	r3, [sp, #16]
ARM GAS  C:\Users\Moi\AppData\Local\Temp\cchaECY7.s 			page 63


 3253 001a 0EE0     		b	.L214
 3254              	.L213:
 3255              		.loc 7 536 0
 3256 001c 019B     		ldr	r3, [sp, #4]
 3257 001e 1B68     		ldr	r3, [r3]
 3258 0020 1946     		mov	r1, r3
 3259 0022 0E48     		ldr	r0, .L217+4
 3260 0024 FFF7FEFF 		bl	parameter_namespace_find
 3261 0028 0490     		str	r0, [sp, #16]
 3262              		.loc 7 537 0
 3263 002a 049B     		ldr	r3, [sp, #16]
 3264 002c 002B     		cmp	r3, #0
 3265 002e 04D1     		bne	.L214
 3266              		.loc 7 538 0
 3267 0030 0B49     		ldr	r1, .L217+8
 3268 0032 0398     		ldr	r0, [sp, #12]
 3269 0034 FFF7FEFF 		bl	chprintf
 3270              		.loc 7 539 0
 3271 0038 04E0     		b	.L212
 3272              	.L214:
 3273              		.loc 7 543 0
 3274 003a 0022     		movs	r2, #0
 3275 003c 0499     		ldr	r1, [sp, #16]
 3276 003e 0398     		ldr	r0, [sp, #12]
 3277 0040 FFF7FEFF 		bl	show_config_tree
 3278              	.L212:
 3279              		.loc 7 544 0
 3280 0044 044B     		ldr	r3, .L217
 3281 0046 059A     		ldr	r2, [sp, #20]
 3282 0048 1B68     		ldr	r3, [r3]
 3283 004a 9A42     		cmp	r2, r3
 3284 004c 01D0     		beq	.L216
 3285 004e FFF7FEFF 		bl	__stack_chk_fail
 3286              	.L216:
 3287 0052 07B0     		add	sp, sp, #28
 3288              		.cfi_def_cfa_offset 4
 3289              		@ sp needed
 3290 0054 5DF804FB 		ldr	pc, [sp], #4
 3291              	.L218:
 3292              		.align	2
 3293              	.L217:
 3294 0058 00000000 		.word	__stack_chk_guard
 3295 005c 00000000 		.word	parameter_root
 3296 0060 C8070000 		.word	.LC80
 3297              		.cfi_endproc
 3298              	.LFE282:
 3299              		.size	cmd_config_tree, .-cmd_config_tree
 3300              		.section	.rodata
 3301 07df 00       		.align	2
 3302              	.LC81:
 3303 07e0 55736167 		.ascii	"Usage: config_set /parameter/url value.\015\012\000"
 3303      653A2063 
 3303      6F6E6669 
 3303      675F7365 
 3303      74202F70 
 3304 080a 0000     		.align	2
 3305              	.LC82:
ARM GAS  C:\Users\Moi\AppData\Local\Temp\cchaECY7.s 			page 64


 3306 080c 436F756C 		.ascii	"Could not find parameter \"%s\"\015\012\000"
 3306      64206E6F 
 3306      74206669 
 3306      6E642070 
 3306      6172616D 
 3307              		.align	2
 3308              	.LC83:
 3309 082c 256400   		.ascii	"%d\000"
 3310 082f 00       		.align	2
 3311              	.LC84:
 3312 0830 496E7661 		.ascii	"Invalid value for integer parameter.\015\012\000"
 3312      6C696420 
 3312      76616C75 
 3312      6520666F 
 3312      7220696E 
 3313 0857 00       		.align	2
 3314              	.LC85:
 3315 0858 496E7661 		.ascii	"Invalid value for boolean parameter, must be true o"
 3315      6C696420 
 3315      76616C75 
 3315      6520666F 
 3315      7220626F 
 3316 088b 72206661 		.ascii	"r false.\015\012\000"
 3316      6C73652E 
 3316      0D0A00
 3317 0896 0000     		.align	2
 3318              	.LC86:
 3319 0898 496E7661 		.ascii	"Invalid value for string parameter, must not use sp"
 3319      6C696420 
 3319      76616C75 
 3319      6520666F 
 3319      72207374 
 3320 08cb 61636573 		.ascii	"aces.\015\012\000"
 3320      2E0D0A00 
 3321              		.section	.text.cmd_config_set,"ax",%progbits
 3322              		.align	1
 3323              		.p2align 4,,15
 3324              		.syntax unified
 3325              		.thumb
 3326              		.thumb_func
 3327              		.fpu fpv4-sp-d16
 3328              		.type	cmd_config_set, %function
 3329              	cmd_config_set:
 3330              	.LFB283:
 3331              		.loc 7 547 0
 3332              		.cfi_startproc
 3333              		@ args = 0, pretend = 0, frame = 32
 3334              		@ frame_needed = 0, uses_anonymous_args = 0
 3335 0000 00B5     		push	{lr}
 3336              		.cfi_def_cfa_offset 4
 3337              		.cfi_offset 14, -4
 3338 0002 89B0     		sub	sp, sp, #36
 3339              		.cfi_def_cfa_offset 40
 3340 0004 0390     		str	r0, [sp, #12]
 3341 0006 0291     		str	r1, [sp, #8]
 3342 0008 0192     		str	r2, [sp, #4]
 3343              		.loc 7 547 0
ARM GAS  C:\Users\Moi\AppData\Local\Temp\cchaECY7.s 			page 65


 3344 000a 414B     		ldr	r3, .L238
 3345 000c 1B68     		ldr	r3, [r3]
 3346 000e 0793     		str	r3, [sp, #28]
 3347              		.loc 7 551 0
 3348 0010 029B     		ldr	r3, [sp, #8]
 3349 0012 022B     		cmp	r3, #2
 3350 0014 04D0     		beq	.L220
 3351              		.loc 7 552 0
 3352 0016 3F49     		ldr	r1, .L238+4
 3353 0018 0398     		ldr	r0, [sp, #12]
 3354 001a FFF7FEFF 		bl	chprintf
 3355              		.loc 7 553 0
 3356 001e 6CE0     		b	.L219
 3357              	.L220:
 3358              		.loc 7 556 0
 3359 0020 019B     		ldr	r3, [sp, #4]
 3360 0022 1B68     		ldr	r3, [r3]
 3361 0024 1946     		mov	r1, r3
 3362 0026 3C48     		ldr	r0, .L238+8
 3363 0028 FFF7FEFF 		bl	parameter_find
 3364 002c 0690     		str	r0, [sp, #24]
 3365              		.loc 7 558 0
 3366 002e 069B     		ldr	r3, [sp, #24]
 3367 0030 002B     		cmp	r3, #0
 3368 0032 07D1     		bne	.L222
 3369              		.loc 7 559 0
 3370 0034 019B     		ldr	r3, [sp, #4]
 3371 0036 1B68     		ldr	r3, [r3]
 3372 0038 1A46     		mov	r2, r3
 3373 003a 3849     		ldr	r1, .L238+12
 3374 003c 0398     		ldr	r0, [sp, #12]
 3375 003e FFF7FEFF 		bl	chprintf
 3376              		.loc 7 560 0
 3377 0042 5AE0     		b	.L219
 3378              	.L222:
 3379              		.loc 7 563 0
 3380 0044 069B     		ldr	r3, [sp, #24]
 3381 0046 9B7B     		ldrb	r3, [r3, #14]	@ zero_extendqisi2
 3382 0048 032B     		cmp	r3, #3
 3383 004a 04D0     		beq	.L224
 3384 004c 042B     		cmp	r3, #4
 3385 004e 3BD0     		beq	.L225
 3386 0050 022B     		cmp	r3, #2
 3387 0052 16D0     		beq	.L226
 3388 0054 48E0     		b	.L237
 3389              	.L224:
 3390              		.loc 7 565 0
 3391 0056 019B     		ldr	r3, [sp, #4]
 3392 0058 0433     		adds	r3, r3, #4
 3393 005a 1B68     		ldr	r3, [r3]
 3394 005c 05AA     		add	r2, sp, #20
 3395 005e 3049     		ldr	r1, .L238+16
 3396 0060 1846     		mov	r0, r3
 3397 0062 FFF7FEFF 		bl	sscanf
 3398 0066 0346     		mov	r3, r0
 3399 0068 012B     		cmp	r3, #1
 3400 006a 05D1     		bne	.L227
ARM GAS  C:\Users\Moi\AppData\Local\Temp\cchaECY7.s 			page 66


 3401              		.loc 7 566 0
 3402 006c 059B     		ldr	r3, [sp, #20]
 3403 006e 1946     		mov	r1, r3
 3404 0070 0698     		ldr	r0, [sp, #24]
 3405 0072 FFF7FEFF 		bl	parameter_integer_set
 3406              		.loc 7 570 0
 3407 0076 40E0     		b	.L219
 3408              	.L227:
 3409              		.loc 7 568 0
 3410 0078 2A49     		ldr	r1, .L238+20
 3411 007a 0398     		ldr	r0, [sp, #12]
 3412 007c FFF7FEFF 		bl	chprintf
 3413              		.loc 7 570 0
 3414 0080 3BE0     		b	.L219
 3415              	.L226:
 3416              		.loc 7 573 0
 3417 0082 019B     		ldr	r3, [sp, #4]
 3418 0084 0433     		adds	r3, r3, #4
 3419 0086 1B68     		ldr	r3, [r3]
 3420 0088 2749     		ldr	r1, .L238+24
 3421 008a 1846     		mov	r0, r3
 3422 008c FFF7FEFF 		bl	strcmp
 3423 0090 0346     		mov	r3, r0
 3424 0092 002B     		cmp	r3, #0
 3425 0094 04D1     		bne	.L230
 3426              		.loc 7 574 0
 3427 0096 0121     		movs	r1, #1
 3428 0098 0698     		ldr	r0, [sp, #24]
 3429 009a FFF7FEFF 		bl	parameter_boolean_set
 3430              		.loc 7 580 0
 3431 009e 2CE0     		b	.L219
 3432              	.L230:
 3433              		.loc 7 575 0
 3434 00a0 019B     		ldr	r3, [sp, #4]
 3435 00a2 0433     		adds	r3, r3, #4
 3436 00a4 1B68     		ldr	r3, [r3]
 3437 00a6 2149     		ldr	r1, .L238+28
 3438 00a8 1846     		mov	r0, r3
 3439 00aa FFF7FEFF 		bl	strcmp
 3440 00ae 0346     		mov	r3, r0
 3441 00b0 002B     		cmp	r3, #0
 3442 00b2 04D1     		bne	.L232
 3443              		.loc 7 576 0
 3444 00b4 0021     		movs	r1, #0
 3445 00b6 0698     		ldr	r0, [sp, #24]
 3446 00b8 FFF7FEFF 		bl	parameter_boolean_set
 3447              		.loc 7 580 0
 3448 00bc 1DE0     		b	.L219
 3449              	.L232:
 3450              		.loc 7 578 0
 3451 00be 1C49     		ldr	r1, .L238+32
 3452 00c0 0398     		ldr	r0, [sp, #12]
 3453 00c2 FFF7FEFF 		bl	chprintf
 3454              		.loc 7 580 0
 3455 00c6 18E0     		b	.L219
 3456              	.L225:
 3457              		.loc 7 583 0
ARM GAS  C:\Users\Moi\AppData\Local\Temp\cchaECY7.s 			page 67


 3458 00c8 029B     		ldr	r3, [sp, #8]
 3459 00ca 022B     		cmp	r3, #2
 3460 00cc 07D1     		bne	.L233
 3461              		.loc 7 584 0
 3462 00ce 019B     		ldr	r3, [sp, #4]
 3463 00d0 0433     		adds	r3, r3, #4
 3464 00d2 1B68     		ldr	r3, [r3]
 3465 00d4 1946     		mov	r1, r3
 3466 00d6 0698     		ldr	r0, [sp, #24]
 3467 00d8 FFF7FEFF 		bl	parameter_string_set
 3468              		.loc 7 588 0
 3469 00dc 0DE0     		b	.L219
 3470              	.L233:
 3471              		.loc 7 586 0
 3472 00de 1549     		ldr	r1, .L238+36
 3473 00e0 0398     		ldr	r0, [sp, #12]
 3474 00e2 FFF7FEFF 		bl	chprintf
 3475              		.loc 7 588 0
 3476 00e6 08E0     		b	.L219
 3477              	.L237:
 3478              		.loc 7 591 0
 3479 00e8 069B     		ldr	r3, [sp, #24]
 3480 00ea 1A68     		ldr	r2, [r3]
 3481 00ec 069B     		ldr	r3, [sp, #24]
 3482 00ee 9B7B     		ldrb	r3, [r3, #14]	@ zero_extendqisi2
 3483 00f0 1149     		ldr	r1, .L238+40
 3484 00f2 0398     		ldr	r0, [sp, #12]
 3485 00f4 FFF7FEFF 		bl	chprintf
 3486              		.loc 7 592 0
 3487 00f8 00BF     		nop
 3488              	.L219:
 3489              		.loc 7 594 0
 3490 00fa 054B     		ldr	r3, .L238
 3491 00fc 079A     		ldr	r2, [sp, #28]
 3492 00fe 1B68     		ldr	r3, [r3]
 3493 0100 9A42     		cmp	r2, r3
 3494 0102 01D0     		beq	.L236
 3495 0104 FFF7FEFF 		bl	__stack_chk_fail
 3496              	.L236:
 3497 0108 09B0     		add	sp, sp, #36
 3498              		.cfi_def_cfa_offset 4
 3499              		@ sp needed
 3500 010a 5DF804FB 		ldr	pc, [sp], #4
 3501              	.L239:
 3502 010e 00BF     		.align	2
 3503              	.L238:
 3504 0110 00000000 		.word	__stack_chk_guard
 3505 0114 E0070000 		.word	.LC81
 3506 0118 00000000 		.word	parameter_root
 3507 011c 0C080000 		.word	.LC82
 3508 0120 2C080000 		.word	.LC83
 3509 0124 30080000 		.word	.LC84
 3510 0128 84070000 		.word	.LC75
 3511 012c 8C070000 		.word	.LC76
 3512 0130 58080000 		.word	.LC85
 3513 0134 98080000 		.word	.LC86
 3514 0138 A0070000 		.word	.LC78
ARM GAS  C:\Users\Moi\AppData\Local\Temp\cchaECY7.s 			page 68


 3515              		.cfi_endproc
 3516              	.LFE283:
 3517              		.size	cmd_config_set, .-cmd_config_set
 3518              		.section	.text.cmd_config_erase,"ax",%progbits
 3519              		.align	1
 3520              		.p2align 4,,15
 3521              		.syntax unified
 3522              		.thumb
 3523              		.thumb_func
 3524              		.fpu fpv4-sp-d16
 3525              		.type	cmd_config_erase, %function
 3526              	cmd_config_erase:
 3527              	.LFB284:
 3528              		.loc 7 597 0
 3529              		.cfi_startproc
 3530              		@ args = 0, pretend = 0, frame = 24
 3531              		@ frame_needed = 0, uses_anonymous_args = 0
 3532 0000 00B5     		push	{lr}
 3533              		.cfi_def_cfa_offset 4
 3534              		.cfi_offset 14, -4
 3535 0002 87B0     		sub	sp, sp, #28
 3536              		.cfi_def_cfa_offset 32
 3537 0004 0390     		str	r0, [sp, #12]
 3538 0006 0291     		str	r1, [sp, #8]
 3539 0008 0192     		str	r2, [sp, #4]
 3540              		.loc 7 597 0
 3541 000a 084B     		ldr	r3, .L242
 3542 000c 1B68     		ldr	r3, [r3]
 3543 000e 0593     		str	r3, [sp, #20]
 3544              		.loc 7 603 0
 3545 0010 0748     		ldr	r0, .L242+4
 3546 0012 FFF7FEFF 		bl	config_erase
 3547              		.loc 7 604 0
 3548 0016 00BF     		nop
 3549 0018 044B     		ldr	r3, .L242
 3550 001a 059A     		ldr	r2, [sp, #20]
 3551 001c 1B68     		ldr	r3, [r3]
 3552 001e 9A42     		cmp	r2, r3
 3553 0020 01D0     		beq	.L241
 3554 0022 FFF7FEFF 		bl	__stack_chk_fail
 3555              	.L241:
 3556 0026 07B0     		add	sp, sp, #28
 3557              		.cfi_def_cfa_offset 4
 3558              		@ sp needed
 3559 0028 5DF804FB 		ldr	pc, [sp], #4
 3560              	.L243:
 3561              		.align	2
 3562              	.L242:
 3563 002c 00000000 		.word	__stack_chk_guard
 3564 0030 00000000 		.word	_config_start
 3565              		.cfi_endproc
 3566              	.LFE284:
 3567              		.size	cmd_config_erase, .-cmd_config_erase
 3568              		.section	.rodata
 3569 08d3 00       		.align	2
 3570              	.LC87:
 3571 08d4 4F4B2E0D 		.ascii	"OK.\015\012\000"
ARM GAS  C:\Users\Moi\AppData\Local\Temp\cchaECY7.s 			page 69


 3571      0A00
 3572 08da 0000     		.align	2
 3573              	.LC88:
 3574 08dc 53617665 		.ascii	"Save failed.\015\012\000"
 3574      20666169 
 3574      6C65642E 
 3574      0D0A00
 3575              		.section	.text.cmd_config_save,"ax",%progbits
 3576              		.align	1
 3577              		.p2align 4,,15
 3578              		.syntax unified
 3579              		.thumb
 3580              		.thumb_func
 3581              		.fpu fpv4-sp-d16
 3582              		.type	cmd_config_save, %function
 3583              	cmd_config_save:
 3584              	.LFB285:
 3585              		.loc 7 607 0
 3586              		.cfi_startproc
 3587              		@ args = 0, pretend = 0, frame = 32
 3588              		@ frame_needed = 0, uses_anonymous_args = 0
 3589 0000 00B5     		push	{lr}
 3590              		.cfi_def_cfa_offset 4
 3591              		.cfi_offset 14, -4
 3592 0002 89B0     		sub	sp, sp, #36
 3593              		.cfi_def_cfa_offset 40
 3594 0004 0390     		str	r0, [sp, #12]
 3595 0006 0291     		str	r1, [sp, #8]
 3596 0008 0192     		str	r2, [sp, #4]
 3597              		.loc 7 607 0
 3598 000a 154B     		ldr	r3, .L249
 3599 000c 1B68     		ldr	r3, [r3]
 3600 000e 0793     		str	r3, [sp, #28]
 3601              		.loc 7 611 0
 3602 0010 144A     		ldr	r2, .L249+4
 3603 0012 154B     		ldr	r3, .L249+8
 3604 0014 D31A     		subs	r3, r2, r3
 3605 0016 0693     		str	r3, [sp, #24]
 3606              		.loc 7 615 0
 3607 0018 144A     		ldr	r2, .L249+12
 3608 001a 0699     		ldr	r1, [sp, #24]
 3609 001c 1248     		ldr	r0, .L249+8
 3610 001e FFF7FEFF 		bl	config_save
 3611              		.loc 7 618 0
 3612 0022 1149     		ldr	r1, .L249+8
 3613 0024 1148     		ldr	r0, .L249+12
 3614 0026 FFF7FEFF 		bl	config_load
 3615 002a 0346     		mov	r3, r0
 3616 002c 8DF81730 		strb	r3, [sp, #23]
 3617              		.loc 7 620 0
 3618 0030 9DF81730 		ldrb	r3, [sp, #23]	@ zero_extendqisi2
 3619 0034 002B     		cmp	r3, #0
 3620 0036 04D0     		beq	.L245
 3621              		.loc 7 621 0
 3622 0038 0D49     		ldr	r1, .L249+16
 3623 003a 0398     		ldr	r0, [sp, #12]
 3624 003c FFF7FEFF 		bl	chprintf
ARM GAS  C:\Users\Moi\AppData\Local\Temp\cchaECY7.s 			page 70


 3625              		.loc 7 625 0
 3626 0040 03E0     		b	.L248
 3627              	.L245:
 3628              		.loc 7 623 0
 3629 0042 0C49     		ldr	r1, .L249+20
 3630 0044 0398     		ldr	r0, [sp, #12]
 3631 0046 FFF7FEFF 		bl	chprintf
 3632              	.L248:
 3633              		.loc 7 625 0
 3634 004a 00BF     		nop
 3635 004c 044B     		ldr	r3, .L249
 3636 004e 079A     		ldr	r2, [sp, #28]
 3637 0050 1B68     		ldr	r3, [r3]
 3638 0052 9A42     		cmp	r2, r3
 3639 0054 01D0     		beq	.L247
 3640 0056 FFF7FEFF 		bl	__stack_chk_fail
 3641              	.L247:
 3642 005a 09B0     		add	sp, sp, #36
 3643              		.cfi_def_cfa_offset 4
 3644              		@ sp needed
 3645 005c 5DF804FB 		ldr	pc, [sp], #4
 3646              	.L250:
 3647              		.align	2
 3648              	.L249:
 3649 0060 00000000 		.word	__stack_chk_guard
 3650 0064 00000000 		.word	_config_end
 3651 0068 00000000 		.word	_config_start
 3652 006c 00000000 		.word	parameter_root
 3653 0070 D4080000 		.word	.LC87
 3654 0074 DC080000 		.word	.LC88
 3655              		.cfi_endproc
 3656              	.LFE285:
 3657              		.size	cmd_config_save, .-cmd_config_save
 3658              		.section	.rodata
 3659 08eb 00       		.align	2
 3660              	.LC89:
 3661 08ec 4C6F6164 		.ascii	"Load failed.\015\012\000"
 3661      20666169 
 3661      6C65642E 
 3661      0D0A00
 3662              		.section	.text.cmd_config_load,"ax",%progbits
 3663              		.align	1
 3664              		.p2align 4,,15
 3665              		.syntax unified
 3666              		.thumb
 3667              		.thumb_func
 3668              		.fpu fpv4-sp-d16
 3669              		.type	cmd_config_load, %function
 3670              	cmd_config_load:
 3671              	.LFB286:
 3672              		.loc 7 628 0
 3673              		.cfi_startproc
 3674              		@ args = 0, pretend = 0, frame = 24
 3675              		@ frame_needed = 0, uses_anonymous_args = 0
 3676 0000 00B5     		push	{lr}
 3677              		.cfi_def_cfa_offset 4
 3678              		.cfi_offset 14, -4
ARM GAS  C:\Users\Moi\AppData\Local\Temp\cchaECY7.s 			page 71


 3679 0002 87B0     		sub	sp, sp, #28
 3680              		.cfi_def_cfa_offset 32
 3681 0004 0390     		str	r0, [sp, #12]
 3682 0006 0291     		str	r1, [sp, #8]
 3683 0008 0192     		str	r2, [sp, #4]
 3684              		.loc 7 628 0
 3685 000a 114B     		ldr	r3, .L256
 3686 000c 1B68     		ldr	r3, [r3]
 3687 000e 0593     		str	r3, [sp, #20]
 3688              		.loc 7 634 0
 3689 0010 1049     		ldr	r1, .L256+4
 3690 0012 1148     		ldr	r0, .L256+8
 3691 0014 FFF7FEFF 		bl	config_load
 3692 0018 0346     		mov	r3, r0
 3693 001a 8DF81330 		strb	r3, [sp, #19]
 3694              		.loc 7 636 0
 3695 001e 9DF81330 		ldrb	r3, [sp, #19]	@ zero_extendqisi2
 3696 0022 002B     		cmp	r3, #0
 3697 0024 04D0     		beq	.L252
 3698              		.loc 7 637 0
 3699 0026 0D49     		ldr	r1, .L256+12
 3700 0028 0398     		ldr	r0, [sp, #12]
 3701 002a FFF7FEFF 		bl	chprintf
 3702              		.loc 7 641 0
 3703 002e 03E0     		b	.L255
 3704              	.L252:
 3705              		.loc 7 639 0
 3706 0030 0B49     		ldr	r1, .L256+16
 3707 0032 0398     		ldr	r0, [sp, #12]
 3708 0034 FFF7FEFF 		bl	chprintf
 3709              	.L255:
 3710              		.loc 7 641 0
 3711 0038 00BF     		nop
 3712 003a 054B     		ldr	r3, .L256
 3713 003c 059A     		ldr	r2, [sp, #20]
 3714 003e 1B68     		ldr	r3, [r3]
 3715 0040 9A42     		cmp	r2, r3
 3716 0042 01D0     		beq	.L254
 3717 0044 FFF7FEFF 		bl	__stack_chk_fail
 3718              	.L254:
 3719 0048 07B0     		add	sp, sp, #28
 3720              		.cfi_def_cfa_offset 4
 3721              		@ sp needed
 3722 004a 5DF804FB 		ldr	pc, [sp], #4
 3723              	.L257:
 3724 004e 00BF     		.align	2
 3725              	.L256:
 3726 0050 00000000 		.word	__stack_chk_guard
 3727 0054 00000000 		.word	_config_start
 3728 0058 00000000 		.word	parameter_root
 3729 005c D4080000 		.word	.LC87
 3730 0060 EC080000 		.word	.LC89
 3731              		.cfi_endproc
 3732              	.LFE286:
 3733              		.size	cmd_config_load, .-cmd_config_load
 3734              		.section	.rodata
 3735 08fb 00       		.align	2
ARM GAS  C:\Users\Moi\AppData\Local\Temp\cchaECY7.s 			page 72


 3736              	.LC90:
 3737 08fc 55736167 		.ascii	"Usage: cam_brightness value.\015\012Default=0, max="
 3737      653A2063 
 3737      616D5F62 
 3737      72696768 
 3737      746E6573 
 3738 0929 3132372C 		.ascii	"127, min=-128.\015\012\000"
 3738      206D696E 
 3738      3D2D3132 
 3738      382E0D0A 
 3738      00
 3739 093a 0000     		.align	2
 3740              	.LC91:
 3741 093c 43616E6E 		.ascii	"Cannot write register (%d)\015\012\000"
 3741      6F742077 
 3741      72697465 
 3741      20726567 
 3741      69737465 
 3742 0959 000000   		.align	2
 3743              	.LC92:
 3744 095c 52656769 		.ascii	"Register written correctly\015\012\000"
 3744      73746572 
 3744      20777269 
 3744      7474656E 
 3744      20636F72 
 3745              		.section	.text.cmd_cam_set_brightness,"ax",%progbits
 3746              		.align	1
 3747              		.p2align 4,,15
 3748              		.syntax unified
 3749              		.thumb
 3750              		.thumb_func
 3751              		.fpu fpv4-sp-d16
 3752              		.type	cmd_cam_set_brightness, %function
 3753              	cmd_cam_set_brightness:
 3754              	.LFB287:
 3755              		.loc 7 644 0
 3756              		.cfi_startproc
 3757              		@ args = 0, pretend = 0, frame = 24
 3758              		@ frame_needed = 0, uses_anonymous_args = 0
 3759 0000 00B5     		push	{lr}
 3760              		.cfi_def_cfa_offset 4
 3761              		.cfi_offset 14, -4
 3762 0002 87B0     		sub	sp, sp, #28
 3763              		.cfi_def_cfa_offset 32
 3764 0004 0390     		str	r0, [sp, #12]
 3765 0006 0291     		str	r1, [sp, #8]
 3766 0008 0192     		str	r2, [sp, #4]
 3767              		.loc 7 644 0
 3768 000a 1B4B     		ldr	r3, .L264
 3769 000c 1B68     		ldr	r3, [r3]
 3770 000e 0593     		str	r3, [sp, #20]
 3771              		.loc 7 647 0
 3772 0010 029B     		ldr	r3, [sp, #8]
 3773 0012 012B     		cmp	r3, #1
 3774 0014 04D0     		beq	.L259
 3775              		.loc 7 648 0
 3776 0016 1949     		ldr	r1, .L264+4
ARM GAS  C:\Users\Moi\AppData\Local\Temp\cchaECY7.s 			page 73


 3777 0018 0398     		ldr	r0, [sp, #12]
 3778 001a FFF7FEFF 		bl	chprintf
 3779              		.loc 7 659 0
 3780 001e 1FE0     		b	.L263
 3781              	.L259:
 3782              		.loc 7 651 0
 3783 0020 019B     		ldr	r3, [sp, #4]
 3784 0022 1B68     		ldr	r3, [r3]
 3785 0024 1846     		mov	r0, r3
 3786 0026 FFF7FEFF 		bl	atoi
 3787 002a 0346     		mov	r3, r0
 3788 002c 8DF81230 		strb	r3, [sp, #18]
 3789              		.loc 7 652 0
 3790 0030 9DF81230 		ldrb	r3, [sp, #18]	@ zero_extendqisi2
 3791 0034 1846     		mov	r0, r3
 3792 0036 FFF7FEFF 		bl	po8030_set_brightness
 3793 003a 0346     		mov	r3, r0
 3794 003c 8DF81330 		strb	r3, [sp, #19]
 3795              		.loc 7 653 0
 3796 0040 9DF91330 		ldrsb	r3, [sp, #19]
 3797 0044 002B     		cmp	r3, #0
 3798 0046 07D0     		beq	.L261
 3799              		.loc 7 654 0
 3800 0048 9DF91330 		ldrsb	r3, [sp, #19]
 3801 004c 1A46     		mov	r2, r3
 3802 004e 0C49     		ldr	r1, .L264+8
 3803 0050 0398     		ldr	r0, [sp, #12]
 3804 0052 FFF7FEFF 		bl	chprintf
 3805              		.loc 7 659 0
 3806 0056 03E0     		b	.L263
 3807              	.L261:
 3808              		.loc 7 656 0
 3809 0058 0A49     		ldr	r1, .L264+12
 3810 005a 0398     		ldr	r0, [sp, #12]
 3811 005c FFF7FEFF 		bl	chprintf
 3812              	.L263:
 3813              		.loc 7 659 0
 3814 0060 00BF     		nop
 3815 0062 054B     		ldr	r3, .L264
 3816 0064 059A     		ldr	r2, [sp, #20]
 3817 0066 1B68     		ldr	r3, [r3]
 3818 0068 9A42     		cmp	r2, r3
 3819 006a 01D0     		beq	.L262
 3820 006c FFF7FEFF 		bl	__stack_chk_fail
 3821              	.L262:
 3822 0070 07B0     		add	sp, sp, #28
 3823              		.cfi_def_cfa_offset 4
 3824              		@ sp needed
 3825 0072 5DF804FB 		ldr	pc, [sp], #4
 3826              	.L265:
 3827 0076 00BF     		.align	2
 3828              	.L264:
 3829 0078 00000000 		.word	__stack_chk_guard
 3830 007c FC080000 		.word	.LC90
 3831 0080 3C090000 		.word	.LC91
 3832 0084 5C090000 		.word	.LC92
 3833              		.cfi_endproc
ARM GAS  C:\Users\Moi\AppData\Local\Temp\cchaECY7.s 			page 74


 3834              	.LFE287:
 3835              		.size	cmd_cam_set_brightness, .-cmd_cam_set_brightness
 3836              		.section	.rodata
 3837 0979 000000   		.align	2
 3838              	.LC93:
 3839 097c 55736167 		.ascii	"Usage: cam_contrast value.\015\012Default=64, max=2"
 3839      653A2063 
 3839      616D5F63 
 3839      6F6E7472 
 3839      61737420 
 3840 09a9 35352C20 		.ascii	"55, min=0.\015\012\000"
 3840      6D696E3D 
 3840      302E0D0A 
 3840      00
 3841              		.section	.text.cmd_cam_set_contrast,"ax",%progbits
 3842              		.align	1
 3843              		.p2align 4,,15
 3844              		.syntax unified
 3845              		.thumb
 3846              		.thumb_func
 3847              		.fpu fpv4-sp-d16
 3848              		.type	cmd_cam_set_contrast, %function
 3849              	cmd_cam_set_contrast:
 3850              	.LFB288:
 3851              		.loc 7 662 0
 3852              		.cfi_startproc
 3853              		@ args = 0, pretend = 0, frame = 24
 3854              		@ frame_needed = 0, uses_anonymous_args = 0
 3855 0000 00B5     		push	{lr}
 3856              		.cfi_def_cfa_offset 4
 3857              		.cfi_offset 14, -4
 3858 0002 87B0     		sub	sp, sp, #28
 3859              		.cfi_def_cfa_offset 32
 3860 0004 0390     		str	r0, [sp, #12]
 3861 0006 0291     		str	r1, [sp, #8]
 3862 0008 0192     		str	r2, [sp, #4]
 3863              		.loc 7 662 0
 3864 000a 1B4B     		ldr	r3, .L272
 3865 000c 1B68     		ldr	r3, [r3]
 3866 000e 0593     		str	r3, [sp, #20]
 3867              		.loc 7 665 0
 3868 0010 029B     		ldr	r3, [sp, #8]
 3869 0012 012B     		cmp	r3, #1
 3870 0014 04D0     		beq	.L267
 3871              		.loc 7 666 0
 3872 0016 1949     		ldr	r1, .L272+4
 3873 0018 0398     		ldr	r0, [sp, #12]
 3874 001a FFF7FEFF 		bl	chprintf
 3875              		.loc 7 677 0
 3876 001e 1FE0     		b	.L271
 3877              	.L267:
 3878              		.loc 7 669 0
 3879 0020 019B     		ldr	r3, [sp, #4]
 3880 0022 1B68     		ldr	r3, [r3]
 3881 0024 1846     		mov	r0, r3
 3882 0026 FFF7FEFF 		bl	atoi
 3883 002a 0346     		mov	r3, r0
ARM GAS  C:\Users\Moi\AppData\Local\Temp\cchaECY7.s 			page 75


 3884 002c 8DF81230 		strb	r3, [sp, #18]
 3885              		.loc 7 670 0
 3886 0030 9DF81230 		ldrb	r3, [sp, #18]	@ zero_extendqisi2
 3887 0034 1846     		mov	r0, r3
 3888 0036 FFF7FEFF 		bl	po8030_set_contrast
 3889 003a 0346     		mov	r3, r0
 3890 003c 8DF81330 		strb	r3, [sp, #19]
 3891              		.loc 7 671 0
 3892 0040 9DF91330 		ldrsb	r3, [sp, #19]
 3893 0044 002B     		cmp	r3, #0
 3894 0046 07D0     		beq	.L269
 3895              		.loc 7 672 0
 3896 0048 9DF91330 		ldrsb	r3, [sp, #19]
 3897 004c 1A46     		mov	r2, r3
 3898 004e 0C49     		ldr	r1, .L272+8
 3899 0050 0398     		ldr	r0, [sp, #12]
 3900 0052 FFF7FEFF 		bl	chprintf
 3901              		.loc 7 677 0
 3902 0056 03E0     		b	.L271
 3903              	.L269:
 3904              		.loc 7 674 0
 3905 0058 0A49     		ldr	r1, .L272+12
 3906 005a 0398     		ldr	r0, [sp, #12]
 3907 005c FFF7FEFF 		bl	chprintf
 3908              	.L271:
 3909              		.loc 7 677 0
 3910 0060 00BF     		nop
 3911 0062 054B     		ldr	r3, .L272
 3912 0064 059A     		ldr	r2, [sp, #20]
 3913 0066 1B68     		ldr	r3, [r3]
 3914 0068 9A42     		cmp	r2, r3
 3915 006a 01D0     		beq	.L270
 3916 006c FFF7FEFF 		bl	__stack_chk_fail
 3917              	.L270:
 3918 0070 07B0     		add	sp, sp, #28
 3919              		.cfi_def_cfa_offset 4
 3920              		@ sp needed
 3921 0072 5DF804FB 		ldr	pc, [sp], #4
 3922              	.L273:
 3923 0076 00BF     		.align	2
 3924              	.L272:
 3925 0078 00000000 		.word	__stack_chk_guard
 3926 007c 7C090000 		.word	.LC93
 3927 0080 3C090000 		.word	.LC91
 3928 0084 5C090000 		.word	.LC92
 3929              		.cfi_endproc
 3930              	.LFE288:
 3931              		.size	cmd_cam_set_contrast, .-cmd_cam_set_contrast
 3932              		.section	.rodata
 3933 09b6 0000     		.align	2
 3934              	.LC94:
 3935 09b8 55736167 		.ascii	"Usage: cam_conf1 format subsampling_x subsampling_y"
 3935      653A2063 
 3935      616D5F63 
 3935      6F6E6631 
 3935      20666F72 
 3936 09eb 0D0A666F 		.ascii	"\015\012format: 0=color, 1=grey\015\012subsampling:"
ARM GAS  C:\Users\Moi\AppData\Local\Temp\cchaECY7.s 			page 76


 3936      726D6174 
 3936      3A20303D 
 3936      636F6C6F 
 3936      722C2031 
 3937 0a12 20312C20 		.ascii	" 1, 2, 4\015\012\000"
 3937      322C2034 
 3937      0D0A00
 3938 0a1d 000000   		.align	2
 3939              	.LC95:
 3940 0a20 52656769 		.ascii	"Registered color format\015\012\000"
 3940      73746572 
 3940      65642063 
 3940      6F6C6F72 
 3940      20666F72 
 3941 0a3a 0000     		.align	2
 3942              	.LC96:
 3943 0a3c 52656769 		.ascii	"Registered greyscale format\015\012\000"
 3943      73746572 
 3943      65642067 
 3943      72657973 
 3943      63616C65 
 3944 0a5a 0000     		.align	2
 3945              	.LC97:
 3946 0a5c 52656769 		.ascii	"Registered x subsampling x1\015\012\000"
 3946      73746572 
 3946      65642078 
 3946      20737562 
 3946      73616D70 
 3947 0a7a 0000     		.align	2
 3948              	.LC98:
 3949 0a7c 52656769 		.ascii	"Registered x subsampling x2\015\012\000"
 3949      73746572 
 3949      65642078 
 3949      20737562 
 3949      73616D70 
 3950 0a9a 0000     		.align	2
 3951              	.LC99:
 3952 0a9c 52656769 		.ascii	"Registered x subsampling x4\015\012\000"
 3952      73746572 
 3952      65642078 
 3952      20737562 
 3952      73616D70 
 3953 0aba 0000     		.align	2
 3954              	.LC100:
 3955 0abc 52656769 		.ascii	"Registered y subsampling x1\015\012\000"
 3955      73746572 
 3955      65642079 
 3955      20737562 
 3955      73616D70 
 3956 0ada 0000     		.align	2
 3957              	.LC101:
 3958 0adc 52656769 		.ascii	"Registered y subsampling x2\015\012\000"
 3958      73746572 
 3958      65642079 
 3958      20737562 
 3958      73616D70 
 3959 0afa 0000     		.align	2
ARM GAS  C:\Users\Moi\AppData\Local\Temp\cchaECY7.s 			page 77


 3960              	.LC102:
 3961 0afc 52656769 		.ascii	"Registered y subsampling x4\015\012\000"
 3961      73746572 
 3961      65642079 
 3961      20737562 
 3961      73616D70 
 3962              		.section	.text.cmd_cam_set_conf1,"ax",%progbits
 3963              		.align	1
 3964              		.p2align 4,,15
 3965              		.syntax unified
 3966              		.thumb
 3967              		.thumb_func
 3968              		.fpu fpv4-sp-d16
 3969              		.type	cmd_cam_set_conf1, %function
 3970              	cmd_cam_set_conf1:
 3971              	.LFB289:
 3972              		.loc 7 680 0
 3973              		.cfi_startproc
 3974              		@ args = 0, pretend = 0, frame = 24
 3975              		@ frame_needed = 0, uses_anonymous_args = 0
 3976 0000 00B5     		push	{lr}
 3977              		.cfi_def_cfa_offset 4
 3978              		.cfi_offset 14, -4
 3979 0002 87B0     		sub	sp, sp, #28
 3980              		.cfi_def_cfa_offset 32
 3981 0004 0390     		str	r0, [sp, #12]
 3982 0006 0291     		str	r1, [sp, #8]
 3983 0008 0192     		str	r2, [sp, #4]
 3984              		.loc 7 680 0
 3985 000a 414B     		ldr	r3, .L286
 3986 000c 1B68     		ldr	r3, [r3]
 3987 000e 0593     		str	r3, [sp, #20]
 3988              		.loc 7 684 0
 3989 0010 029B     		ldr	r3, [sp, #8]
 3990 0012 032B     		cmp	r3, #3
 3991 0014 04D0     		beq	.L275
 3992              		.loc 7 685 0
 3993 0016 3F49     		ldr	r1, .L286+4
 3994 0018 0398     		ldr	r0, [sp, #12]
 3995 001a FFF7FEFF 		bl	chprintf
 3996              		.loc 7 721 0
 3997 001e 6BE0     		b	.L285
 3998              	.L275:
 3999              		.loc 7 688 0
 4000 0020 019B     		ldr	r3, [sp, #4]
 4001 0022 1B68     		ldr	r3, [r3]
 4002 0024 1846     		mov	r0, r3
 4003 0026 FFF7FEFF 		bl	atoi
 4004 002a 0346     		mov	r3, r0
 4005 002c DBB2     		uxtb	r3, r3
 4006 002e ADF81230 		strh	r3, [sp, #18]	@ movhi
 4007              		.loc 7 689 0
 4008 0032 019B     		ldr	r3, [sp, #4]
 4009 0034 0433     		adds	r3, r3, #4
 4010 0036 1B68     		ldr	r3, [r3]
 4011 0038 1846     		mov	r0, r3
 4012 003a FFF7FEFF 		bl	atoi
ARM GAS  C:\Users\Moi\AppData\Local\Temp\cchaECY7.s 			page 78


 4013 003e 0346     		mov	r3, r0
 4014 0040 8DF81030 		strb	r3, [sp, #16]
 4015              		.loc 7 690 0
 4016 0044 019B     		ldr	r3, [sp, #4]
 4017 0046 0833     		adds	r3, r3, #8
 4018 0048 1B68     		ldr	r3, [r3]
 4019 004a 1846     		mov	r0, r3
 4020 004c FFF7FEFF 		bl	atoi
 4021 0050 0346     		mov	r3, r0
 4022 0052 8DF81130 		strb	r3, [sp, #17]
 4023              		.loc 7 692 0
 4024 0056 BDF81230 		ldrh	r3, [sp, #18]
 4025 005a 002B     		cmp	r3, #0
 4026 005c 07D1     		bne	.L277
 4027              		.loc 7 693 0
 4028 005e 2E4B     		ldr	r3, .L286+8
 4029 0060 0222     		movs	r2, #2
 4030 0062 1A70     		strb	r2, [r3]
 4031              		.loc 7 694 0
 4032 0064 2D49     		ldr	r1, .L286+12
 4033 0066 0398     		ldr	r0, [sp, #12]
 4034 0068 FFF7FEFF 		bl	chprintf
 4035 006c 06E0     		b	.L278
 4036              	.L277:
 4037              		.loc 7 696 0
 4038 006e 2A4B     		ldr	r3, .L286+8
 4039 0070 4422     		movs	r2, #68
 4040 0072 1A70     		strb	r2, [r3]
 4041              		.loc 7 697 0
 4042 0074 2A49     		ldr	r1, .L286+16
 4043 0076 0398     		ldr	r0, [sp, #12]
 4044 0078 FFF7FEFF 		bl	chprintf
 4045              	.L278:
 4046              		.loc 7 700 0
 4047 007c 9DF81030 		ldrb	r3, [sp, #16]	@ zero_extendqisi2
 4048 0080 012B     		cmp	r3, #1
 4049 0082 07D1     		bne	.L279
 4050              		.loc 7 701 0
 4051 0084 274B     		ldr	r3, .L286+20
 4052 0086 2022     		movs	r2, #32
 4053 0088 1A70     		strb	r2, [r3]
 4054              		.loc 7 702 0
 4055 008a 2749     		ldr	r1, .L286+24
 4056 008c 0398     		ldr	r0, [sp, #12]
 4057 008e FFF7FEFF 		bl	chprintf
 4058 0092 12E0     		b	.L280
 4059              	.L279:
 4060              		.loc 7 703 0
 4061 0094 9DF81030 		ldrb	r3, [sp, #16]	@ zero_extendqisi2
 4062 0098 022B     		cmp	r3, #2
 4063 009a 07D1     		bne	.L281
 4064              		.loc 7 704 0
 4065 009c 214B     		ldr	r3, .L286+20
 4066 009e 4022     		movs	r2, #64
 4067 00a0 1A70     		strb	r2, [r3]
 4068              		.loc 7 705 0
 4069 00a2 2249     		ldr	r1, .L286+28
ARM GAS  C:\Users\Moi\AppData\Local\Temp\cchaECY7.s 			page 79


 4070 00a4 0398     		ldr	r0, [sp, #12]
 4071 00a6 FFF7FEFF 		bl	chprintf
 4072 00aa 06E0     		b	.L280
 4073              	.L281:
 4074              		.loc 7 707 0
 4075 00ac 1D4B     		ldr	r3, .L286+20
 4076 00ae 8022     		movs	r2, #128
 4077 00b0 1A70     		strb	r2, [r3]
 4078              		.loc 7 708 0
 4079 00b2 1F49     		ldr	r1, .L286+32
 4080 00b4 0398     		ldr	r0, [sp, #12]
 4081 00b6 FFF7FEFF 		bl	chprintf
 4082              	.L280:
 4083              		.loc 7 710 0
 4084 00ba 9DF81130 		ldrb	r3, [sp, #17]	@ zero_extendqisi2
 4085 00be 012B     		cmp	r3, #1
 4086 00c0 07D1     		bne	.L282
 4087              		.loc 7 711 0
 4088 00c2 1C4B     		ldr	r3, .L286+36
 4089 00c4 2022     		movs	r2, #32
 4090 00c6 1A70     		strb	r2, [r3]
 4091              		.loc 7 712 0
 4092 00c8 1B49     		ldr	r1, .L286+40
 4093 00ca 0398     		ldr	r0, [sp, #12]
 4094 00cc FFF7FEFF 		bl	chprintf
 4095              		.loc 7 721 0
 4096 00d0 12E0     		b	.L285
 4097              	.L282:
 4098              		.loc 7 713 0
 4099 00d2 9DF81130 		ldrb	r3, [sp, #17]	@ zero_extendqisi2
 4100 00d6 022B     		cmp	r3, #2
 4101 00d8 07D1     		bne	.L283
 4102              		.loc 7 714 0
 4103 00da 164B     		ldr	r3, .L286+36
 4104 00dc 4022     		movs	r2, #64
 4105 00de 1A70     		strb	r2, [r3]
 4106              		.loc 7 715 0
 4107 00e0 1649     		ldr	r1, .L286+44
 4108 00e2 0398     		ldr	r0, [sp, #12]
 4109 00e4 FFF7FEFF 		bl	chprintf
 4110              		.loc 7 721 0
 4111 00e8 06E0     		b	.L285
 4112              	.L283:
 4113              		.loc 7 717 0
 4114 00ea 124B     		ldr	r3, .L286+36
 4115 00ec 8022     		movs	r2, #128
 4116 00ee 1A70     		strb	r2, [r3]
 4117              		.loc 7 718 0
 4118 00f0 1349     		ldr	r1, .L286+48
 4119 00f2 0398     		ldr	r0, [sp, #12]
 4120 00f4 FFF7FEFF 		bl	chprintf
 4121              	.L285:
 4122              		.loc 7 721 0
 4123 00f8 00BF     		nop
 4124 00fa 054B     		ldr	r3, .L286
 4125 00fc 059A     		ldr	r2, [sp, #20]
 4126 00fe 1B68     		ldr	r3, [r3]
ARM GAS  C:\Users\Moi\AppData\Local\Temp\cchaECY7.s 			page 80


 4127 0100 9A42     		cmp	r2, r3
 4128 0102 01D0     		beq	.L284
 4129 0104 FFF7FEFF 		bl	__stack_chk_fail
 4130              	.L284:
 4131 0108 07B0     		add	sp, sp, #28
 4132              		.cfi_def_cfa_offset 4
 4133              		@ sp needed
 4134 010a 5DF804FB 		ldr	pc, [sp], #4
 4135              	.L287:
 4136 010e 00BF     		.align	2
 4137              	.L286:
 4138 0110 00000000 		.word	__stack_chk_guard
 4139 0114 B8090000 		.word	.LC94
 4140 0118 00000000 		.word	cmd_fmt
 4141 011c 200A0000 		.word	.LC95
 4142 0120 3C0A0000 		.word	.LC96
 4143 0124 00000000 		.word	cmd_subx
 4144 0128 5C0A0000 		.word	.LC97
 4145 012c 7C0A0000 		.word	.LC98
 4146 0130 9C0A0000 		.word	.LC99
 4147 0134 00000000 		.word	cmd_suby
 4148 0138 BC0A0000 		.word	.LC100
 4149 013c DC0A0000 		.word	.LC101
 4150 0140 FC0A0000 		.word	.LC102
 4151              		.cfi_endproc
 4152              	.LFE289:
 4153              		.size	cmd_cam_set_conf1, .-cmd_cam_set_conf1
 4154              		.section	.rodata
 4155 0b1a 0000     		.align	2
 4156              	.LC103:
 4157 0b1c 55736167 		.ascii	"Usage: cam_conf2 x1 y1 width height\015\012\000"
 4157      653A2063 
 4157      616D5F63 
 4157      6F6E6632 
 4157      20783120 
 4158 0b42 0000     		.align	2
 4159              	.LC104:
 4160 0b44 43616E6E 		.ascii	"Cannot set configuration (%d)\015\012\000"
 4160      6F742073 
 4160      65742063 
 4160      6F6E6669 
 4160      67757261 
 4161              		.align	2
 4162              	.LC105:
 4163 0b64 436F6E66 		.ascii	"Configuration set correctly\015\012\000"
 4163      69677572 
 4163      6174696F 
 4163      6E207365 
 4163      7420636F 
 4164              		.section	.text.cmd_cam_set_conf2,"ax",%progbits
 4165              		.align	1
 4166              		.p2align 4,,15
 4167              		.syntax unified
 4168              		.thumb
 4169              		.thumb_func
 4170              		.fpu fpv4-sp-d16
 4171              		.type	cmd_cam_set_conf2, %function
ARM GAS  C:\Users\Moi\AppData\Local\Temp\cchaECY7.s 			page 81


 4172              	cmd_cam_set_conf2:
 4173              	.LFB290:
 4174              		.loc 7 724 0
 4175              		.cfi_startproc
 4176              		@ args = 0, pretend = 0, frame = 24
 4177              		@ frame_needed = 0, uses_anonymous_args = 0
 4178 0000 70B5     		push	{r4, r5, r6, lr}
 4179              		.cfi_def_cfa_offset 16
 4180              		.cfi_offset 4, -16
 4181              		.cfi_offset 5, -12
 4182              		.cfi_offset 6, -8
 4183              		.cfi_offset 14, -4
 4184 0002 8AB0     		sub	sp, sp, #40
 4185              		.cfi_def_cfa_offset 56
 4186 0004 0790     		str	r0, [sp, #28]
 4187 0006 0691     		str	r1, [sp, #24]
 4188 0008 0592     		str	r2, [sp, #20]
 4189              		.loc 7 724 0
 4190 000a 344B     		ldr	r3, .L294
 4191 000c 1B68     		ldr	r3, [r3]
 4192 000e 0993     		str	r3, [sp, #36]
 4193              		.loc 7 727 0
 4194 0010 069B     		ldr	r3, [sp, #24]
 4195 0012 042B     		cmp	r3, #4
 4196 0014 04D0     		beq	.L289
 4197              		.loc 7 728 0
 4198 0016 3249     		ldr	r1, .L294+4
 4199 0018 0798     		ldr	r0, [sp, #28]
 4200 001a FFF7FEFF 		bl	chprintf
 4201              		.loc 7 742 0
 4202 001e 53E0     		b	.L293
 4203              	.L289:
 4204              		.loc 7 730 0
 4205 0020 059B     		ldr	r3, [sp, #20]
 4206 0022 1B68     		ldr	r3, [r3]
 4207 0024 1846     		mov	r0, r3
 4208 0026 FFF7FEFF 		bl	atoi
 4209 002a 0346     		mov	r3, r0
 4210 002c 9AB2     		uxth	r2, r3
 4211 002e 2D4B     		ldr	r3, .L294+8
 4212 0030 1A80     		strh	r2, [r3]	@ movhi
 4213              		.loc 7 731 0
 4214 0032 059B     		ldr	r3, [sp, #20]
 4215 0034 0433     		adds	r3, r3, #4
 4216 0036 1B68     		ldr	r3, [r3]
 4217 0038 1846     		mov	r0, r3
 4218 003a FFF7FEFF 		bl	atoi
 4219 003e 0346     		mov	r3, r0
 4220 0040 9AB2     		uxth	r2, r3
 4221 0042 294B     		ldr	r3, .L294+12
 4222 0044 1A80     		strh	r2, [r3]	@ movhi
 4223              		.loc 7 732 0
 4224 0046 059B     		ldr	r3, [sp, #20]
 4225 0048 0833     		adds	r3, r3, #8
 4226 004a 1B68     		ldr	r3, [r3]
 4227 004c 1846     		mov	r0, r3
 4228 004e FFF7FEFF 		bl	atoi
ARM GAS  C:\Users\Moi\AppData\Local\Temp\cchaECY7.s 			page 82


 4229 0052 0346     		mov	r3, r0
 4230 0054 9AB2     		uxth	r2, r3
 4231 0056 254B     		ldr	r3, .L294+16
 4232 0058 1A80     		strh	r2, [r3]	@ movhi
 4233              		.loc 7 733 0
 4234 005a 059B     		ldr	r3, [sp, #20]
 4235 005c 0C33     		adds	r3, r3, #12
 4236 005e 1B68     		ldr	r3, [r3]
 4237 0060 1846     		mov	r0, r3
 4238 0062 FFF7FEFF 		bl	atoi
 4239 0066 0346     		mov	r3, r0
 4240 0068 9AB2     		uxth	r2, r3
 4241 006a 214B     		ldr	r3, .L294+20
 4242 006c 1A80     		strh	r2, [r3]	@ movhi
 4243              		.loc 7 735 0
 4244 006e 214B     		ldr	r3, .L294+24
 4245 0070 1878     		ldrb	r0, [r3]	@ zero_extendqisi2
 4246 0072 1C4B     		ldr	r3, .L294+8
 4247 0074 1B88     		ldrh	r3, [r3]
 4248 0076 1C46     		mov	r4, r3
 4249 0078 1B4B     		ldr	r3, .L294+12
 4250 007a 1B88     		ldrh	r3, [r3]
 4251 007c 1D46     		mov	r5, r3
 4252 007e 1B4B     		ldr	r3, .L294+16
 4253 0080 1B88     		ldrh	r3, [r3]
 4254 0082 1E46     		mov	r6, r3
 4255 0084 1A4B     		ldr	r3, .L294+20
 4256 0086 1B88     		ldrh	r3, [r3]
 4257 0088 1946     		mov	r1, r3
 4258 008a 1B4B     		ldr	r3, .L294+28
 4259 008c 1B78     		ldrb	r3, [r3]	@ zero_extendqisi2
 4260 008e 1B4A     		ldr	r2, .L294+32
 4261 0090 1278     		ldrb	r2, [r2]	@ zero_extendqisi2
 4262 0092 0292     		str	r2, [sp, #8]
 4263 0094 0193     		str	r3, [sp, #4]
 4264 0096 0091     		str	r1, [sp]
 4265 0098 3346     		mov	r3, r6
 4266 009a 2A46     		mov	r2, r5
 4267 009c 2146     		mov	r1, r4
 4268 009e FFF7FEFF 		bl	po8030_advanced_config
 4269 00a2 0346     		mov	r3, r0
 4270 00a4 8DF82330 		strb	r3, [sp, #35]
 4271              		.loc 7 736 0
 4272 00a8 9DF92330 		ldrsb	r3, [sp, #35]
 4273 00ac 002B     		cmp	r3, #0
 4274 00ae 07D0     		beq	.L291
 4275              		.loc 7 737 0
 4276 00b0 9DF92330 		ldrsb	r3, [sp, #35]
 4277 00b4 1A46     		mov	r2, r3
 4278 00b6 1249     		ldr	r1, .L294+36
 4279 00b8 0798     		ldr	r0, [sp, #28]
 4280 00ba FFF7FEFF 		bl	chprintf
 4281              		.loc 7 742 0
 4282 00be 03E0     		b	.L293
 4283              	.L291:
 4284              		.loc 7 739 0
 4285 00c0 1049     		ldr	r1, .L294+40
ARM GAS  C:\Users\Moi\AppData\Local\Temp\cchaECY7.s 			page 83


 4286 00c2 0798     		ldr	r0, [sp, #28]
 4287 00c4 FFF7FEFF 		bl	chprintf
 4288              	.L293:
 4289              		.loc 7 742 0
 4290 00c8 00BF     		nop
 4291 00ca 044B     		ldr	r3, .L294
 4292 00cc 099A     		ldr	r2, [sp, #36]
 4293 00ce 1B68     		ldr	r3, [r3]
 4294 00d0 9A42     		cmp	r2, r3
 4295 00d2 01D0     		beq	.L292
 4296 00d4 FFF7FEFF 		bl	__stack_chk_fail
 4297              	.L292:
 4298 00d8 0AB0     		add	sp, sp, #40
 4299              		.cfi_def_cfa_offset 16
 4300              		@ sp needed
 4301 00da 70BD     		pop	{r4, r5, r6, pc}
 4302              	.L295:
 4303              		.align	2
 4304              	.L294:
 4305 00dc 00000000 		.word	__stack_chk_guard
 4306 00e0 1C0B0000 		.word	.LC103
 4307 00e4 00000000 		.word	cmd_x1
 4308 00e8 00000000 		.word	cmd_y1
 4309 00ec 00000000 		.word	cmd_width
 4310 00f0 00000000 		.word	cmd_height
 4311 00f4 00000000 		.word	cmd_fmt
 4312 00f8 00000000 		.word	cmd_subx
 4313 00fc 00000000 		.word	cmd_suby
 4314 0100 440B0000 		.word	.LC104
 4315 0104 640B0000 		.word	.LC105
 4316              		.cfi_endproc
 4317              	.LFE290:
 4318              		.size	cmd_cam_set_conf2, .-cmd_cam_set_conf2
 4319              		.section	.rodata
 4320 0b82 0000     		.align	2
 4321              	.LC106:
 4322 0b84 55736167 		.ascii	"Usage: cam_mirror vertical_en horizontal_en\015\012"
 4322      653A2063 
 4322      616D5F6D 
 4322      6972726F 
 4322      72207665 
 4323 0bb1 313D656E 		.ascii	"1=enabled, 0=disabled\015\012\000"
 4323      61626C65 
 4323      642C2030 
 4323      3D646973 
 4323      61626C65 
 4324 0bc9 000000   		.align	2
 4325              	.LC107:
 4326 0bcc 43616E6E 		.ascii	"Cannot set mirroring (%d)\015\012\000"
 4326      6F742073 
 4326      6574206D 
 4326      6972726F 
 4326      72696E67 
 4327              		.align	2
 4328              	.LC108:
 4329 0be8 4D697272 		.ascii	"Mirroring set correctly\015\012\000"
 4329      6F72696E 
ARM GAS  C:\Users\Moi\AppData\Local\Temp\cchaECY7.s 			page 84


 4329      67207365 
 4329      7420636F 
 4329      72726563 
 4330              		.section	.text.cmd_cam_set_mirror,"ax",%progbits
 4331              		.align	1
 4332              		.p2align 4,,15
 4333              		.syntax unified
 4334              		.thumb
 4335              		.thumb_func
 4336              		.fpu fpv4-sp-d16
 4337              		.type	cmd_cam_set_mirror, %function
 4338              	cmd_cam_set_mirror:
 4339              	.LFB291:
 4340              		.loc 7 745 0
 4341              		.cfi_startproc
 4342              		@ args = 0, pretend = 0, frame = 24
 4343              		@ frame_needed = 0, uses_anonymous_args = 0
 4344 0000 00B5     		push	{lr}
 4345              		.cfi_def_cfa_offset 4
 4346              		.cfi_offset 14, -4
 4347 0002 87B0     		sub	sp, sp, #28
 4348              		.cfi_def_cfa_offset 32
 4349 0004 0390     		str	r0, [sp, #12]
 4350 0006 0291     		str	r1, [sp, #8]
 4351 0008 0192     		str	r2, [sp, #4]
 4352              		.loc 7 745 0
 4353 000a 214B     		ldr	r3, .L302
 4354 000c 1B68     		ldr	r3, [r3]
 4355 000e 0593     		str	r3, [sp, #20]
 4356              		.loc 7 749 0
 4357 0010 029B     		ldr	r3, [sp, #8]
 4358 0012 022B     		cmp	r3, #2
 4359 0014 04D0     		beq	.L297
 4360              		.loc 7 750 0
 4361 0016 1F49     		ldr	r1, .L302+4
 4362 0018 0398     		ldr	r0, [sp, #12]
 4363 001a FFF7FEFF 		bl	chprintf
 4364              		.loc 7 763 0
 4365 001e 2BE0     		b	.L301
 4366              	.L297:
 4367              		.loc 7 753 0
 4368 0020 019B     		ldr	r3, [sp, #4]
 4369 0022 1B68     		ldr	r3, [r3]
 4370 0024 1846     		mov	r0, r3
 4371 0026 FFF7FEFF 		bl	atoi
 4372 002a 0346     		mov	r3, r0
 4373 002c 8DF81130 		strb	r3, [sp, #17]
 4374              		.loc 7 754 0
 4375 0030 019B     		ldr	r3, [sp, #4]
 4376 0032 0433     		adds	r3, r3, #4
 4377 0034 1B68     		ldr	r3, [r3]
 4378 0036 1846     		mov	r0, r3
 4379 0038 FFF7FEFF 		bl	atoi
 4380 003c 0346     		mov	r3, r0
 4381 003e 8DF81230 		strb	r3, [sp, #18]
 4382              		.loc 7 756 0
 4383 0042 9DF81220 		ldrb	r2, [sp, #18]	@ zero_extendqisi2
ARM GAS  C:\Users\Moi\AppData\Local\Temp\cchaECY7.s 			page 85


 4384 0046 9DF81130 		ldrb	r3, [sp, #17]	@ zero_extendqisi2
 4385 004a 1146     		mov	r1, r2
 4386 004c 1846     		mov	r0, r3
 4387 004e FFF7FEFF 		bl	po8030_set_mirror
 4388 0052 0346     		mov	r3, r0
 4389 0054 8DF81330 		strb	r3, [sp, #19]
 4390              		.loc 7 757 0
 4391 0058 9DF91330 		ldrsb	r3, [sp, #19]
 4392 005c 002B     		cmp	r3, #0
 4393 005e 07D0     		beq	.L299
 4394              		.loc 7 758 0
 4395 0060 9DF91330 		ldrsb	r3, [sp, #19]
 4396 0064 1A46     		mov	r2, r3
 4397 0066 0C49     		ldr	r1, .L302+8
 4398 0068 0398     		ldr	r0, [sp, #12]
 4399 006a FFF7FEFF 		bl	chprintf
 4400              		.loc 7 763 0
 4401 006e 03E0     		b	.L301
 4402              	.L299:
 4403              		.loc 7 760 0
 4404 0070 0A49     		ldr	r1, .L302+12
 4405 0072 0398     		ldr	r0, [sp, #12]
 4406 0074 FFF7FEFF 		bl	chprintf
 4407              	.L301:
 4408              		.loc 7 763 0
 4409 0078 00BF     		nop
 4410 007a 054B     		ldr	r3, .L302
 4411 007c 059A     		ldr	r2, [sp, #20]
 4412 007e 1B68     		ldr	r3, [r3]
 4413 0080 9A42     		cmp	r2, r3
 4414 0082 01D0     		beq	.L300
 4415 0084 FFF7FEFF 		bl	__stack_chk_fail
 4416              	.L300:
 4417 0088 07B0     		add	sp, sp, #28
 4418              		.cfi_def_cfa_offset 4
 4419              		@ sp needed
 4420 008a 5DF804FB 		ldr	pc, [sp], #4
 4421              	.L303:
 4422 008e 00BF     		.align	2
 4423              	.L302:
 4424 0090 00000000 		.word	__stack_chk_guard
 4425 0094 840B0000 		.word	.LC106
 4426 0098 CC0B0000 		.word	.LC107
 4427 009c E80B0000 		.word	.LC108
 4428              		.cfi_endproc
 4429              	.LFE291:
 4430              		.size	cmd_cam_set_mirror, .-cmd_cam_set_mirror
 4431              		.section	.rodata
 4432 0c02 0000     		.align	2
 4433              	.LC109:
 4434 0c04 55736167 		.ascii	"Usage: cam_gain red_gain green_gain blue_gain\015\012"
 4434      653A2063 
 4434      616D5F67 
 4434      61696E20 
 4434      7265645F 
 4435 0c33 54686973 		.ascii	"This command disable auto white balance.\015\012Def"
 4435      20636F6D 
ARM GAS  C:\Users\Moi\AppData\Local\Temp\cchaECY7.s 			page 86


 4435      6D616E64 
 4435      20646973 
 4435      61626C65 
 4436 0c60 61756C74 		.ascii	"ault: r=94, g=64, b=93\015\012\000"
 4436      3A20723D 
 4436      39342C20 
 4436      673D3634 
 4436      2C20623D 
 4437 0c79 000000   		.align	2
 4438              	.LC110:
 4439 0c7c 43616E6E 		.ascii	"Cannot set gain (%d)\015\012\000"
 4439      6F742073 
 4439      65742067 
 4439      61696E20 
 4439      28256429 
 4440 0c93 00       		.align	2
 4441              	.LC111:
 4442 0c94 4761696E 		.ascii	"Gain set correctly\015\012\000"
 4442      20736574 
 4442      20636F72 
 4442      72656374 
 4442      6C790D0A 
 4443              		.section	.text.cmd_cam_set_gain,"ax",%progbits
 4444              		.align	1
 4445              		.p2align 4,,15
 4446              		.syntax unified
 4447              		.thumb
 4448              		.thumb_func
 4449              		.fpu fpv4-sp-d16
 4450              		.type	cmd_cam_set_gain, %function
 4451              	cmd_cam_set_gain:
 4452              	.LFB292:
 4453              		.loc 7 766 0
 4454              		.cfi_startproc
 4455              		@ args = 0, pretend = 0, frame = 24
 4456              		@ frame_needed = 0, uses_anonymous_args = 0
 4457 0000 00B5     		push	{lr}
 4458              		.cfi_def_cfa_offset 4
 4459              		.cfi_offset 14, -4
 4460 0002 87B0     		sub	sp, sp, #28
 4461              		.cfi_def_cfa_offset 32
 4462 0004 0390     		str	r0, [sp, #12]
 4463 0006 0291     		str	r1, [sp, #8]
 4464 0008 0192     		str	r2, [sp, #4]
 4465              		.loc 7 766 0
 4466 000a 264B     		ldr	r3, .L310
 4467 000c 1B68     		ldr	r3, [r3]
 4468 000e 0593     		str	r3, [sp, #20]
 4469              		.loc 7 770 0
 4470 0010 029B     		ldr	r3, [sp, #8]
 4471 0012 032B     		cmp	r3, #3
 4472 0014 04D0     		beq	.L305
 4473              		.loc 7 771 0
 4474 0016 2449     		ldr	r1, .L310+4
 4475 0018 0398     		ldr	r0, [sp, #12]
 4476 001a FFF7FEFF 		bl	chprintf
 4477              		.loc 7 785 0
ARM GAS  C:\Users\Moi\AppData\Local\Temp\cchaECY7.s 			page 87


 4478 001e 35E0     		b	.L309
 4479              	.L305:
 4480              		.loc 7 774 0
 4481 0020 019B     		ldr	r3, [sp, #4]
 4482 0022 1B68     		ldr	r3, [r3]
 4483 0024 1846     		mov	r0, r3
 4484 0026 FFF7FEFF 		bl	atoi
 4485 002a 0346     		mov	r3, r0
 4486 002c 8DF81030 		strb	r3, [sp, #16]
 4487              		.loc 7 775 0
 4488 0030 019B     		ldr	r3, [sp, #4]
 4489 0032 0433     		adds	r3, r3, #4
 4490 0034 1B68     		ldr	r3, [r3]
 4491 0036 1846     		mov	r0, r3
 4492 0038 FFF7FEFF 		bl	atoi
 4493 003c 0346     		mov	r3, r0
 4494 003e 8DF81130 		strb	r3, [sp, #17]
 4495              		.loc 7 776 0
 4496 0042 019B     		ldr	r3, [sp, #4]
 4497 0044 0833     		adds	r3, r3, #8
 4498 0046 1B68     		ldr	r3, [r3]
 4499 0048 1846     		mov	r0, r3
 4500 004a FFF7FEFF 		bl	atoi
 4501 004e 0346     		mov	r3, r0
 4502 0050 8DF81230 		strb	r3, [sp, #18]
 4503              		.loc 7 778 0
 4504 0054 9DF81220 		ldrb	r2, [sp, #18]	@ zero_extendqisi2
 4505 0058 9DF81110 		ldrb	r1, [sp, #17]	@ zero_extendqisi2
 4506 005c 9DF81030 		ldrb	r3, [sp, #16]	@ zero_extendqisi2
 4507 0060 1846     		mov	r0, r3
 4508 0062 FFF7FEFF 		bl	po8030_set_rgb_gain
 4509 0066 0346     		mov	r3, r0
 4510 0068 8DF81330 		strb	r3, [sp, #19]
 4511              		.loc 7 779 0
 4512 006c 9DF91330 		ldrsb	r3, [sp, #19]
 4513 0070 002B     		cmp	r3, #0
 4514 0072 07D0     		beq	.L307
 4515              		.loc 7 780 0
 4516 0074 9DF91330 		ldrsb	r3, [sp, #19]
 4517 0078 1A46     		mov	r2, r3
 4518 007a 0C49     		ldr	r1, .L310+8
 4519 007c 0398     		ldr	r0, [sp, #12]
 4520 007e FFF7FEFF 		bl	chprintf
 4521              		.loc 7 785 0
 4522 0082 03E0     		b	.L309
 4523              	.L307:
 4524              		.loc 7 782 0
 4525 0084 0A49     		ldr	r1, .L310+12
 4526 0086 0398     		ldr	r0, [sp, #12]
 4527 0088 FFF7FEFF 		bl	chprintf
 4528              	.L309:
 4529              		.loc 7 785 0
 4530 008c 00BF     		nop
 4531 008e 054B     		ldr	r3, .L310
 4532 0090 059A     		ldr	r2, [sp, #20]
 4533 0092 1B68     		ldr	r3, [r3]
 4534 0094 9A42     		cmp	r2, r3
ARM GAS  C:\Users\Moi\AppData\Local\Temp\cchaECY7.s 			page 88


 4535 0096 01D0     		beq	.L308
 4536 0098 FFF7FEFF 		bl	__stack_chk_fail
 4537              	.L308:
 4538 009c 07B0     		add	sp, sp, #28
 4539              		.cfi_def_cfa_offset 4
 4540              		@ sp needed
 4541 009e 5DF804FB 		ldr	pc, [sp], #4
 4542              	.L311:
 4543 00a2 00BF     		.align	2
 4544              	.L310:
 4545 00a4 00000000 		.word	__stack_chk_guard
 4546 00a8 040C0000 		.word	.LC109
 4547 00ac 7C0C0000 		.word	.LC110
 4548 00b0 940C0000 		.word	.LC111
 4549              		.cfi_endproc
 4550              	.LFE292:
 4551              		.size	cmd_cam_set_gain, .-cmd_cam_set_gain
 4552              		.section	.rodata
 4553 0ca9 000000   		.align	2
 4554              	.LC112:
 4555 0cac 55736167 		.ascii	"Usage: cam_awb awb_en.\015\0121=enabled, 0=disabled"
 4555      653A2063 
 4555      616D5F61 
 4555      77622061 
 4555      77625F65 
 4556 0cd9 0D0A00   		.ascii	"\015\012\000"
 4557              		.align	2
 4558              	.LC113:
 4559 0cdc 43616E6E 		.ascii	"Cannot set white balance (%d)\015\012\000"
 4559      6F742073 
 4559      65742077 
 4559      68697465 
 4559      2062616C 
 4560              		.align	2
 4561              	.LC114:
 4562 0cfc 57686974 		.ascii	"White balance set correctly\015\012\000"
 4562      65206261 
 4562      6C616E63 
 4562      65207365 
 4562      7420636F 
 4563              		.section	.text.cmd_cam_set_awb,"ax",%progbits
 4564              		.align	1
 4565              		.p2align 4,,15
 4566              		.syntax unified
 4567              		.thumb
 4568              		.thumb_func
 4569              		.fpu fpv4-sp-d16
 4570              		.type	cmd_cam_set_awb, %function
 4571              	cmd_cam_set_awb:
 4572              	.LFB293:
 4573              		.loc 7 788 0
 4574              		.cfi_startproc
 4575              		@ args = 0, pretend = 0, frame = 24
 4576              		@ frame_needed = 0, uses_anonymous_args = 0
 4577 0000 00B5     		push	{lr}
 4578              		.cfi_def_cfa_offset 4
 4579              		.cfi_offset 14, -4
ARM GAS  C:\Users\Moi\AppData\Local\Temp\cchaECY7.s 			page 89


 4580 0002 87B0     		sub	sp, sp, #28
 4581              		.cfi_def_cfa_offset 32
 4582 0004 0390     		str	r0, [sp, #12]
 4583 0006 0291     		str	r1, [sp, #8]
 4584 0008 0192     		str	r2, [sp, #4]
 4585              		.loc 7 788 0
 4586 000a 1B4B     		ldr	r3, .L318
 4587 000c 1B68     		ldr	r3, [r3]
 4588 000e 0593     		str	r3, [sp, #20]
 4589              		.loc 7 792 0
 4590 0010 029B     		ldr	r3, [sp, #8]
 4591 0012 012B     		cmp	r3, #1
 4592 0014 04D0     		beq	.L313
 4593              		.loc 7 793 0
 4594 0016 1949     		ldr	r1, .L318+4
 4595 0018 0398     		ldr	r0, [sp, #12]
 4596 001a FFF7FEFF 		bl	chprintf
 4597              		.loc 7 805 0
 4598 001e 1FE0     		b	.L317
 4599              	.L313:
 4600              		.loc 7 796 0
 4601 0020 019B     		ldr	r3, [sp, #4]
 4602 0022 1B68     		ldr	r3, [r3]
 4603 0024 1846     		mov	r0, r3
 4604 0026 FFF7FEFF 		bl	atoi
 4605 002a 0346     		mov	r3, r0
 4606 002c 8DF81230 		strb	r3, [sp, #18]
 4607              		.loc 7 798 0
 4608 0030 9DF81230 		ldrb	r3, [sp, #18]	@ zero_extendqisi2
 4609 0034 1846     		mov	r0, r3
 4610 0036 FFF7FEFF 		bl	po8030_set_awb
 4611 003a 0346     		mov	r3, r0
 4612 003c 8DF81330 		strb	r3, [sp, #19]
 4613              		.loc 7 799 0
 4614 0040 9DF91330 		ldrsb	r3, [sp, #19]
 4615 0044 002B     		cmp	r3, #0
 4616 0046 07D0     		beq	.L315
 4617              		.loc 7 800 0
 4618 0048 9DF91330 		ldrsb	r3, [sp, #19]
 4619 004c 1A46     		mov	r2, r3
 4620 004e 0C49     		ldr	r1, .L318+8
 4621 0050 0398     		ldr	r0, [sp, #12]
 4622 0052 FFF7FEFF 		bl	chprintf
 4623              		.loc 7 805 0
 4624 0056 03E0     		b	.L317
 4625              	.L315:
 4626              		.loc 7 802 0
 4627 0058 0A49     		ldr	r1, .L318+12
 4628 005a 0398     		ldr	r0, [sp, #12]
 4629 005c FFF7FEFF 		bl	chprintf
 4630              	.L317:
 4631              		.loc 7 805 0
 4632 0060 00BF     		nop
 4633 0062 054B     		ldr	r3, .L318
 4634 0064 059A     		ldr	r2, [sp, #20]
 4635 0066 1B68     		ldr	r3, [r3]
 4636 0068 9A42     		cmp	r2, r3
ARM GAS  C:\Users\Moi\AppData\Local\Temp\cchaECY7.s 			page 90


 4637 006a 01D0     		beq	.L316
 4638 006c FFF7FEFF 		bl	__stack_chk_fail
 4639              	.L316:
 4640 0070 07B0     		add	sp, sp, #28
 4641              		.cfi_def_cfa_offset 4
 4642              		@ sp needed
 4643 0072 5DF804FB 		ldr	pc, [sp], #4
 4644              	.L319:
 4645 0076 00BF     		.align	2
 4646              	.L318:
 4647 0078 00000000 		.word	__stack_chk_guard
 4648 007c AC0C0000 		.word	.LC112
 4649 0080 DC0C0000 		.word	.LC113
 4650 0084 FC0C0000 		.word	.LC114
 4651              		.cfi_endproc
 4652              	.LFE293:
 4653              		.size	cmd_cam_set_awb, .-cmd_cam_set_awb
 4654              		.section	.rodata
 4655 0d1a 0000     		.align	2
 4656              	.LC115:
 4657 0d1c 55736167 		.ascii	"Usage: cam_ae ae_en.\015\0121=enabled, 0=disabled\015"
 4657      653A2063 
 4657      616D5F61 
 4657      65206165 
 4657      5F656E2E 
 4658 0d48 0A00     		.ascii	"\012\000"
 4659 0d4a 0000     		.align	2
 4660              	.LC116:
 4661 0d4c 43616E6E 		.ascii	"Cannot set auto exposure (%d)\015\012\000"
 4661      6F742073 
 4661      65742061 
 4661      75746F20 
 4661      6578706F 
 4662              		.align	2
 4663              	.LC117:
 4664 0d6c 4175746F 		.ascii	"Auto exposure set correctly\015\012\000"
 4664      20657870 
 4664      6F737572 
 4664      65207365 
 4664      7420636F 
 4665              		.section	.text.cmd_cam_set_ae,"ax",%progbits
 4666              		.align	1
 4667              		.p2align 4,,15
 4668              		.syntax unified
 4669              		.thumb
 4670              		.thumb_func
 4671              		.fpu fpv4-sp-d16
 4672              		.type	cmd_cam_set_ae, %function
 4673              	cmd_cam_set_ae:
 4674              	.LFB294:
 4675              		.loc 7 808 0
 4676              		.cfi_startproc
 4677              		@ args = 0, pretend = 0, frame = 24
 4678              		@ frame_needed = 0, uses_anonymous_args = 0
 4679 0000 00B5     		push	{lr}
 4680              		.cfi_def_cfa_offset 4
 4681              		.cfi_offset 14, -4
ARM GAS  C:\Users\Moi\AppData\Local\Temp\cchaECY7.s 			page 91


 4682 0002 87B0     		sub	sp, sp, #28
 4683              		.cfi_def_cfa_offset 32
 4684 0004 0390     		str	r0, [sp, #12]
 4685 0006 0291     		str	r1, [sp, #8]
 4686 0008 0192     		str	r2, [sp, #4]
 4687              		.loc 7 808 0
 4688 000a 1B4B     		ldr	r3, .L326
 4689 000c 1B68     		ldr	r3, [r3]
 4690 000e 0593     		str	r3, [sp, #20]
 4691              		.loc 7 812 0
 4692 0010 029B     		ldr	r3, [sp, #8]
 4693 0012 012B     		cmp	r3, #1
 4694 0014 04D0     		beq	.L321
 4695              		.loc 7 813 0
 4696 0016 1949     		ldr	r1, .L326+4
 4697 0018 0398     		ldr	r0, [sp, #12]
 4698 001a FFF7FEFF 		bl	chprintf
 4699              		.loc 7 825 0
 4700 001e 1FE0     		b	.L325
 4701              	.L321:
 4702              		.loc 7 816 0
 4703 0020 019B     		ldr	r3, [sp, #4]
 4704 0022 1B68     		ldr	r3, [r3]
 4705 0024 1846     		mov	r0, r3
 4706 0026 FFF7FEFF 		bl	atoi
 4707 002a 0346     		mov	r3, r0
 4708 002c 8DF81230 		strb	r3, [sp, #18]
 4709              		.loc 7 818 0
 4710 0030 9DF81230 		ldrb	r3, [sp, #18]	@ zero_extendqisi2
 4711 0034 1846     		mov	r0, r3
 4712 0036 FFF7FEFF 		bl	po8030_set_ae
 4713 003a 0346     		mov	r3, r0
 4714 003c 8DF81330 		strb	r3, [sp, #19]
 4715              		.loc 7 819 0
 4716 0040 9DF91330 		ldrsb	r3, [sp, #19]
 4717 0044 002B     		cmp	r3, #0
 4718 0046 07D0     		beq	.L323
 4719              		.loc 7 820 0
 4720 0048 9DF91330 		ldrsb	r3, [sp, #19]
 4721 004c 1A46     		mov	r2, r3
 4722 004e 0C49     		ldr	r1, .L326+8
 4723 0050 0398     		ldr	r0, [sp, #12]
 4724 0052 FFF7FEFF 		bl	chprintf
 4725              		.loc 7 825 0
 4726 0056 03E0     		b	.L325
 4727              	.L323:
 4728              		.loc 7 822 0
 4729 0058 0A49     		ldr	r1, .L326+12
 4730 005a 0398     		ldr	r0, [sp, #12]
 4731 005c FFF7FEFF 		bl	chprintf
 4732              	.L325:
 4733              		.loc 7 825 0
 4734 0060 00BF     		nop
 4735 0062 054B     		ldr	r3, .L326
 4736 0064 059A     		ldr	r2, [sp, #20]
 4737 0066 1B68     		ldr	r3, [r3]
 4738 0068 9A42     		cmp	r2, r3
ARM GAS  C:\Users\Moi\AppData\Local\Temp\cchaECY7.s 			page 92


 4739 006a 01D0     		beq	.L324
 4740 006c FFF7FEFF 		bl	__stack_chk_fail
 4741              	.L324:
 4742 0070 07B0     		add	sp, sp, #28
 4743              		.cfi_def_cfa_offset 4
 4744              		@ sp needed
 4745 0072 5DF804FB 		ldr	pc, [sp], #4
 4746              	.L327:
 4747 0076 00BF     		.align	2
 4748              	.L326:
 4749 0078 00000000 		.word	__stack_chk_guard
 4750 007c 1C0D0000 		.word	.LC115
 4751 0080 4C0D0000 		.word	.LC116
 4752 0084 6C0D0000 		.word	.LC117
 4753              		.cfi_endproc
 4754              	.LFE294:
 4755              		.size	cmd_cam_set_ae, .-cmd_cam_set_ae
 4756              		.section	.rodata
 4757 0d8a 0000     		.align	2
 4758              	.LC118:
 4759 0d8c 55736167 		.ascii	"Usage: cam_exposure integral fractional\015\012Unit"
 4759      653A2063 
 4759      616D5F65 
 4759      78706F73 
 4759      75726520 
 4760 0db9 20697320 		.ascii	" is line time; total integration time = (integral +"
 4760      6C696E65 
 4760      2074696D 
 4760      653B2074 
 4760      6F74616C 
 4761 0dec 20667261 		.ascii	" fractional/256) line time.\015\012Default: integra"
 4761      6374696F 
 4761      6E616C2F 
 4761      32353629 
 4761      206C696E 
 4762 0e19 6C3D3132 		.ascii	"l=128, fractional=0\015\012\000"
 4762      382C2066 
 4762      72616374 
 4762      696F6E61 
 4762      6C3D300D 
 4763 0e2f 00       		.align	2
 4764              	.LC119:
 4765 0e30 43616E6E 		.ascii	"Cannot set exposure time (%d)\015\012\000"
 4765      6F742073 
 4765      65742065 
 4765      78706F73 
 4765      75726520 
 4766              		.align	2
 4767              	.LC120:
 4768 0e50 4578706F 		.ascii	"Exposure time set correctly\015\012\000"
 4768      73757265 
 4768      2074696D 
 4768      65207365 
 4768      7420636F 
 4769              		.section	.text.cmd_cam_set_exposure,"ax",%progbits
 4770              		.align	1
 4771              		.p2align 4,,15
ARM GAS  C:\Users\Moi\AppData\Local\Temp\cchaECY7.s 			page 93


 4772              		.syntax unified
 4773              		.thumb
 4774              		.thumb_func
 4775              		.fpu fpv4-sp-d16
 4776              		.type	cmd_cam_set_exposure, %function
 4777              	cmd_cam_set_exposure:
 4778              	.LFB295:
 4779              		.loc 7 828 0
 4780              		.cfi_startproc
 4781              		@ args = 0, pretend = 0, frame = 24
 4782              		@ frame_needed = 0, uses_anonymous_args = 0
 4783 0000 00B5     		push	{lr}
 4784              		.cfi_def_cfa_offset 4
 4785              		.cfi_offset 14, -4
 4786 0002 87B0     		sub	sp, sp, #28
 4787              		.cfi_def_cfa_offset 32
 4788 0004 0390     		str	r0, [sp, #12]
 4789 0006 0291     		str	r1, [sp, #8]
 4790 0008 0192     		str	r2, [sp, #4]
 4791              		.loc 7 828 0
 4792 000a 214B     		ldr	r3, .L334
 4793 000c 1B68     		ldr	r3, [r3]
 4794 000e 0593     		str	r3, [sp, #20]
 4795              		.loc 7 833 0
 4796 0010 029B     		ldr	r3, [sp, #8]
 4797 0012 022B     		cmp	r3, #2
 4798 0014 04D0     		beq	.L329
 4799              		.loc 7 834 0
 4800 0016 1F49     		ldr	r1, .L334+4
 4801 0018 0398     		ldr	r0, [sp, #12]
 4802 001a FFF7FEFF 		bl	chprintf
 4803              		.loc 7 847 0
 4804 001e 2BE0     		b	.L333
 4805              	.L329:
 4806              		.loc 7 837 0
 4807 0020 019B     		ldr	r3, [sp, #4]
 4808 0022 1B68     		ldr	r3, [r3]
 4809 0024 1846     		mov	r0, r3
 4810 0026 FFF7FEFF 		bl	atoi
 4811 002a 0346     		mov	r3, r0
 4812 002c ADF81230 		strh	r3, [sp, #18]	@ movhi
 4813              		.loc 7 838 0
 4814 0030 019B     		ldr	r3, [sp, #4]
 4815 0032 0433     		adds	r3, r3, #4
 4816 0034 1B68     		ldr	r3, [r3]
 4817 0036 1846     		mov	r0, r3
 4818 0038 FFF7FEFF 		bl	atoi
 4819 003c 0346     		mov	r3, r0
 4820 003e 8DF81030 		strb	r3, [sp, #16]
 4821              		.loc 7 840 0
 4822 0042 9DF81020 		ldrb	r2, [sp, #16]	@ zero_extendqisi2
 4823 0046 BDF81230 		ldrh	r3, [sp, #18]
 4824 004a 1146     		mov	r1, r2
 4825 004c 1846     		mov	r0, r3
 4826 004e FFF7FEFF 		bl	po8030_set_exposure
 4827 0052 0346     		mov	r3, r0
 4828 0054 8DF81130 		strb	r3, [sp, #17]
ARM GAS  C:\Users\Moi\AppData\Local\Temp\cchaECY7.s 			page 94


 4829              		.loc 7 841 0
 4830 0058 9DF91130 		ldrsb	r3, [sp, #17]
 4831 005c 002B     		cmp	r3, #0
 4832 005e 07D0     		beq	.L331
 4833              		.loc 7 842 0
 4834 0060 9DF91130 		ldrsb	r3, [sp, #17]
 4835 0064 1A46     		mov	r2, r3
 4836 0066 0C49     		ldr	r1, .L334+8
 4837 0068 0398     		ldr	r0, [sp, #12]
 4838 006a FFF7FEFF 		bl	chprintf
 4839              		.loc 7 847 0
 4840 006e 03E0     		b	.L333
 4841              	.L331:
 4842              		.loc 7 844 0
 4843 0070 0A49     		ldr	r1, .L334+12
 4844 0072 0398     		ldr	r0, [sp, #12]
 4845 0074 FFF7FEFF 		bl	chprintf
 4846              	.L333:
 4847              		.loc 7 847 0
 4848 0078 00BF     		nop
 4849 007a 054B     		ldr	r3, .L334
 4850 007c 059A     		ldr	r2, [sp, #20]
 4851 007e 1B68     		ldr	r3, [r3]
 4852 0080 9A42     		cmp	r2, r3
 4853 0082 01D0     		beq	.L332
 4854 0084 FFF7FEFF 		bl	__stack_chk_fail
 4855              	.L332:
 4856 0088 07B0     		add	sp, sp, #28
 4857              		.cfi_def_cfa_offset 4
 4858              		@ sp needed
 4859 008a 5DF804FB 		ldr	pc, [sp], #4
 4860              	.L335:
 4861 008e 00BF     		.align	2
 4862              	.L334:
 4863 0090 00000000 		.word	__stack_chk_guard
 4864 0094 8C0D0000 		.word	.LC118
 4865 0098 300E0000 		.word	.LC119
 4866 009c 500E0000 		.word	.LC120
 4867              		.cfi_endproc
 4868              	.LFE295:
 4869              		.size	cmd_cam_set_exposure, .-cmd_cam_set_exposure
 4870              		.section	.rodata
 4871 0e6e 0000     		.align	2
 4872              	.LC121:
 4873 0e70 55736167 		.ascii	"Usage: cam_dcmi_prepare capture_mode\015\012capture"
 4873      653A2063 
 4873      616D5F64 
 4873      636D695F 
 4873      70726570 
 4874 0e9d 5F6D6F64 		.ascii	"_mode: 0=oneshot, 1=continuous\015\012\000"
 4874      653A2030 
 4874      3D6F6E65 
 4874      73686F74 
 4874      2C20313D 
 4875 0ebe 0000     		.align	2
 4876              	.LC122:
 4877 0ec0 44434D49 		.ascii	"DCMI prepared.\015\012\000"
ARM GAS  C:\Users\Moi\AppData\Local\Temp\cchaECY7.s 			page 95


 4877      20707265 
 4877      70617265 
 4877      642E0D0A 
 4877      00
 4878 0ed1 000000   		.align	2
 4879              	.LC123:
 4880 0ed4 43616E6E 		.ascii	"Cannot prepare dcmi, image size too big.\015\012\000"
 4880      6F742070 
 4880      72657061 
 4880      72652064 
 4880      636D692C 
 4881              		.section	.text.cmd_cam_dcmi_prepare,"ax",%progbits
 4882              		.align	1
 4883              		.p2align 4,,15
 4884              		.syntax unified
 4885              		.thumb
 4886              		.thumb_func
 4887              		.fpu fpv4-sp-d16
 4888              		.type	cmd_cam_dcmi_prepare, %function
 4889              	cmd_cam_dcmi_prepare:
 4890              	.LFB296:
 4891              		.loc 7 850 0
 4892              		.cfi_startproc
 4893              		@ args = 0, pretend = 0, frame = 24
 4894              		@ frame_needed = 0, uses_anonymous_args = 0
 4895 0000 00B5     		push	{lr}
 4896              		.cfi_def_cfa_offset 4
 4897              		.cfi_offset 14, -4
 4898 0002 87B0     		sub	sp, sp, #28
 4899              		.cfi_def_cfa_offset 32
 4900 0004 0390     		str	r0, [sp, #12]
 4901 0006 0291     		str	r1, [sp, #8]
 4902 0008 0192     		str	r2, [sp, #4]
 4903              		.loc 7 850 0
 4904 000a 1E4B     		ldr	r3, .L343
 4905 000c 1B68     		ldr	r3, [r3]
 4906 000e 0593     		str	r3, [sp, #20]
 4907              		.loc 7 851 0
 4908 0010 0023     		movs	r3, #0
 4909 0012 8DF81330 		strb	r3, [sp, #19]
 4910              		.loc 7 853 0
 4911 0016 029B     		ldr	r3, [sp, #8]
 4912 0018 012B     		cmp	r3, #1
 4913 001a 04D0     		beq	.L337
 4914              		.loc 7 854 0
 4915 001c 1A49     		ldr	r1, .L343+4
 4916 001e 0398     		ldr	r0, [sp, #12]
 4917 0020 FFF7FEFF 		bl	chprintf
 4918 0024 24E0     		b	.L336
 4919              	.L337:
 4920              		.loc 7 856 0
 4921 0026 019B     		ldr	r3, [sp, #4]
 4922 0028 1B68     		ldr	r3, [r3]
 4923 002a 1846     		mov	r0, r3
 4924 002c FFF7FEFF 		bl	atoi
 4925 0030 0346     		mov	r3, r0
 4926 0032 8DF81330 		strb	r3, [sp, #19]
ARM GAS  C:\Users\Moi\AppData\Local\Temp\cchaECY7.s 			page 96


 4927              		.loc 7 858 0
 4928 0036 9DF81330 		ldrb	r3, [sp, #19]	@ zero_extendqisi2
 4929 003a 1846     		mov	r0, r3
 4930 003c FFF7FEFF 		bl	dcmi_set_capture_mode
 4931              		.loc 7 860 0
 4932 0040 9DF81330 		ldrb	r3, [sp, #19]	@ zero_extendqisi2
 4933 0044 002B     		cmp	r3, #0
 4934 0046 02D1     		bne	.L339
 4935              		.loc 7 861 0
 4936 0048 FFF7FEFF 		bl	dcmi_disable_double_buffering
 4937 004c 01E0     		b	.L340
 4938              	.L339:
 4939              		.loc 7 863 0
 4940 004e FFF7FEFF 		bl	dcmi_enable_double_buffering
 4941              	.L340:
 4942              		.loc 7 866 0
 4943 0052 FFF7FEFF 		bl	dcmi_prepare
 4944 0056 0346     		mov	r3, r0
 4945 0058 002B     		cmp	r3, #0
 4946 005a 04D1     		bne	.L341
 4947              		.loc 7 867 0
 4948 005c 0B49     		ldr	r1, .L343+8
 4949 005e 0398     		ldr	r0, [sp, #12]
 4950 0060 FFF7FEFF 		bl	chprintf
 4951 0064 04E0     		b	.L336
 4952              	.L341:
 4953              		.loc 7 869 0
 4954 0066 0A49     		ldr	r1, .L343+12
 4955 0068 0398     		ldr	r0, [sp, #12]
 4956 006a FFF7FEFF 		bl	chprintf
 4957              		.loc 7 870 0
 4958 006e 00BF     		nop
 4959              	.L336:
 4960              		.loc 7 874 0
 4961 0070 044B     		ldr	r3, .L343
 4962 0072 059A     		ldr	r2, [sp, #20]
 4963 0074 1B68     		ldr	r3, [r3]
 4964 0076 9A42     		cmp	r2, r3
 4965 0078 01D0     		beq	.L342
 4966 007a FFF7FEFF 		bl	__stack_chk_fail
 4967              	.L342:
 4968 007e 07B0     		add	sp, sp, #28
 4969              		.cfi_def_cfa_offset 4
 4970              		@ sp needed
 4971 0080 5DF804FB 		ldr	pc, [sp], #4
 4972              	.L344:
 4973              		.align	2
 4974              	.L343:
 4975 0084 00000000 		.word	__stack_chk_guard
 4976 0088 700E0000 		.word	.LC121
 4977 008c C00E0000 		.word	.LC122
 4978 0090 D40E0000 		.word	.LC123
 4979              		.cfi_endproc
 4980              	.LFE296:
 4981              		.size	cmd_cam_dcmi_prepare, .-cmd_cam_dcmi_prepare
 4982              		.section	.rodata
 4983 0eff 00       		.align	2
ARM GAS  C:\Users\Moi\AppData\Local\Temp\cchaECY7.s 			page 97


 4984              	.LC124:
 4985 0f00 44434D49 		.ascii	"DCMI released correctly\015\012\000"
 4985      2072656C 
 4985      65617365 
 4985      6420636F 
 4985      72726563 
 4986              		.section	.text.cmd_cam_dcmi_unprepare,"ax",%progbits
 4987              		.align	1
 4988              		.p2align 4,,15
 4989              		.syntax unified
 4990              		.thumb
 4991              		.thumb_func
 4992              		.fpu fpv4-sp-d16
 4993              		.type	cmd_cam_dcmi_unprepare, %function
 4994              	cmd_cam_dcmi_unprepare:
 4995              	.LFB297:
 4996              		.loc 7 877 0
 4997              		.cfi_startproc
 4998              		@ args = 0, pretend = 0, frame = 24
 4999              		@ frame_needed = 0, uses_anonymous_args = 0
 5000 0000 00B5     		push	{lr}
 5001              		.cfi_def_cfa_offset 4
 5002              		.cfi_offset 14, -4
 5003 0002 87B0     		sub	sp, sp, #28
 5004              		.cfi_def_cfa_offset 32
 5005 0004 0390     		str	r0, [sp, #12]
 5006 0006 0291     		str	r1, [sp, #8]
 5007 0008 0192     		str	r2, [sp, #4]
 5008              		.loc 7 877 0
 5009 000a 0A4B     		ldr	r3, .L347
 5010 000c 1B68     		ldr	r3, [r3]
 5011 000e 0593     		str	r3, [sp, #20]
 5012              		.loc 7 881 0
 5013 0010 FFF7FEFF 		bl	dcmi_unprepare
 5014              		.loc 7 883 0
 5015 0014 0849     		ldr	r1, .L347+4
 5016 0016 0398     		ldr	r0, [sp, #12]
 5017 0018 FFF7FEFF 		bl	chprintf
 5018              		.loc 7 885 0
 5019 001c 00BF     		nop
 5020 001e 054B     		ldr	r3, .L347
 5021 0020 059A     		ldr	r2, [sp, #20]
 5022 0022 1B68     		ldr	r3, [r3]
 5023 0024 9A42     		cmp	r2, r3
 5024 0026 01D0     		beq	.L346
 5025 0028 FFF7FEFF 		bl	__stack_chk_fail
 5026              	.L346:
 5027 002c 07B0     		add	sp, sp, #28
 5028              		.cfi_def_cfa_offset 4
 5029              		@ sp needed
 5030 002e 5DF804FB 		ldr	pc, [sp], #4
 5031              	.L348:
 5032 0032 00BF     		.align	2
 5033              	.L347:
 5034 0034 00000000 		.word	__stack_chk_guard
 5035 0038 000F0000 		.word	.LC124
 5036              		.cfi_endproc
ARM GAS  C:\Users\Moi\AppData\Local\Temp\cchaECY7.s 			page 98


 5037              	.LFE297:
 5038              		.size	cmd_cam_dcmi_unprepare, .-cmd_cam_dcmi_unprepare
 5039              		.section	.text.cmd_cam_capture,"ax",%progbits
 5040              		.align	1
 5041              		.p2align 4,,15
 5042              		.syntax unified
 5043              		.thumb
 5044              		.thumb_func
 5045              		.fpu fpv4-sp-d16
 5046              		.type	cmd_cam_capture, %function
 5047              	cmd_cam_capture:
 5048              	.LFB298:
 5049              		.loc 7 888 0
 5050              		.cfi_startproc
 5051              		@ args = 0, pretend = 0, frame = 24
 5052              		@ frame_needed = 0, uses_anonymous_args = 0
 5053 0000 00B5     		push	{lr}
 5054              		.cfi_def_cfa_offset 4
 5055              		.cfi_offset 14, -4
 5056 0002 87B0     		sub	sp, sp, #28
 5057              		.cfi_def_cfa_offset 32
 5058 0004 0390     		str	r0, [sp, #12]
 5059 0006 0291     		str	r1, [sp, #8]
 5060 0008 0192     		str	r2, [sp, #4]
 5061              		.loc 7 888 0
 5062 000a 084B     		ldr	r3, .L351
 5063 000c 1B68     		ldr	r3, [r3]
 5064 000e 0593     		str	r3, [sp, #20]
 5065              		.loc 7 892 0
 5066 0010 FFF7FEFF 		bl	dcmi_capture_start
 5067              		.loc 7 893 0
 5068 0014 00BF     		nop
 5069 0016 054B     		ldr	r3, .L351
 5070 0018 059A     		ldr	r2, [sp, #20]
 5071 001a 1B68     		ldr	r3, [r3]
 5072 001c 9A42     		cmp	r2, r3
 5073 001e 01D0     		beq	.L350
 5074 0020 FFF7FEFF 		bl	__stack_chk_fail
 5075              	.L350:
 5076 0024 07B0     		add	sp, sp, #28
 5077              		.cfi_def_cfa_offset 4
 5078              		@ sp needed
 5079 0026 5DF804FB 		ldr	pc, [sp], #4
 5080              	.L352:
 5081 002a 00BF     		.align	2
 5082              	.L351:
 5083 002c 00000000 		.word	__stack_chk_guard
 5084              		.cfi_endproc
 5085              	.LFE298:
 5086              		.size	cmd_cam_capture, .-cmd_cam_capture
 5087              		.section	.rodata
 5088 0f1a 0000     		.align	2
 5089              	.LC125:
 5090 0f1c 44434D49 		.ascii	"DCMI stop stream error\015\012\000"
 5090      2073746F 
 5090      70207374 
 5090      7265616D 
ARM GAS  C:\Users\Moi\AppData\Local\Temp\cchaECY7.s 			page 99


 5090      20657272 
 5091 0f35 000000   		.align	2
 5092              	.LC126:
 5093 0f38 54686520 		.ascii	"The 2 images will be sent within 5 seconds\015\012\000"
 5093      3220696D 
 5093      61676573 
 5093      2077696C 
 5093      6C206265 
 5094 0f65 000000   		.align	2
 5095              	.LC127:
 5096 0f68 54686520 		.ascii	"The image will be sent within 5 seconds\015\012\000"
 5096      696D6167 
 5096      65207769 
 5096      6C6C2062 
 5096      65207365 
 5097              		.section	.text.cmd_cam_send,"ax",%progbits
 5098              		.align	1
 5099              		.p2align 4,,15
 5100              		.syntax unified
 5101              		.thumb
 5102              		.thumb_func
 5103              		.fpu fpv4-sp-d16
 5104              		.type	cmd_cam_send, %function
 5105              	cmd_cam_send:
 5106              	.LFB299:
 5107              		.loc 7 896 0
 5108              		.cfi_startproc
 5109              		@ args = 0, pretend = 0, frame = 24
 5110              		@ frame_needed = 0, uses_anonymous_args = 0
 5111 0000 10B5     		push	{r4, lr}
 5112              		.cfi_def_cfa_offset 8
 5113              		.cfi_offset 4, -8
 5114              		.cfi_offset 14, -4
 5115 0002 86B0     		sub	sp, sp, #24
 5116              		.cfi_def_cfa_offset 32
 5117 0004 0390     		str	r0, [sp, #12]
 5118 0006 0291     		str	r1, [sp, #8]
 5119 0008 0192     		str	r2, [sp, #4]
 5120              		.loc 7 896 0
 5121 000a 2C4B     		ldr	r3, .L359
 5122 000c 1B68     		ldr	r3, [r3]
 5123 000e 0593     		str	r3, [sp, #20]
 5124              		.loc 7 901 0
 5125 0010 FFF7FEFF 		bl	dcmi_capture_stop
 5126 0014 0346     		mov	r3, r0
 5127 0016 002B     		cmp	r3, #0
 5128 0018 04D0     		beq	.L354
 5129              		.loc 7 902 0
 5130 001a 2949     		ldr	r1, .L359+4
 5131 001c 0398     		ldr	r0, [sp, #12]
 5132 001e FFF7FEFF 		bl	chprintf
 5133              		.loc 7 919 0
 5134 0022 40E0     		b	.L358
 5135              	.L354:
 5136              		.loc 7 904 0
 5137 0024 FFF7FEFF 		bl	dcmi_double_buffering_enabled
 5138 0028 0346     		mov	r3, r0
ARM GAS  C:\Users\Moi\AppData\Local\Temp\cchaECY7.s 			page 100


 5139 002a 002B     		cmp	r3, #0
 5140 002c 26D0     		beq	.L356
 5141              		.loc 7 905 0
 5142 002e 2549     		ldr	r1, .L359+8
 5143 0030 0398     		ldr	r0, [sp, #12]
 5144 0032 FFF7FEFF 		bl	chprintf
 5145              		.loc 7 906 0
 5146 0036 41F28830 		movw	r0, #5000
 5147 003a FFF7FEFF 		bl	chThdSleep
 5148              		.loc 7 907 0
 5149 003e FFF7FEFF 		bl	dcmi_get_first_buffer_ptr
 5150 0042 0490     		str	r0, [sp, #16]
 5151              		.loc 7 908 0
 5152 0044 204B     		ldr	r3, .L359+12
 5153 0046 1B68     		ldr	r3, [r3]
 5154 0048 1C68     		ldr	r4, [r3]
 5155 004a FFF7FEFF 		bl	po8030_get_image_size
 5156 004e 0346     		mov	r3, r0
 5157 0050 1A46     		mov	r2, r3
 5158 0052 0499     		ldr	r1, [sp, #16]
 5159 0054 1C48     		ldr	r0, .L359+12
 5160 0056 A047     		blx	r4
 5161              	.LVL1:
 5162              		.loc 7 909 0
 5163 0058 40F6B830 		movw	r0, #3000
 5164 005c FFF7FEFF 		bl	chThdSleep
 5165              		.loc 7 910 0
 5166 0060 FFF7FEFF 		bl	dcmi_get_second_buffer_ptr
 5167 0064 0490     		str	r0, [sp, #16]
 5168              		.loc 7 911 0
 5169 0066 184B     		ldr	r3, .L359+12
 5170 0068 1B68     		ldr	r3, [r3]
 5171 006a 1C68     		ldr	r4, [r3]
 5172 006c FFF7FEFF 		bl	po8030_get_image_size
 5173 0070 0346     		mov	r3, r0
 5174 0072 1A46     		mov	r2, r3
 5175 0074 0499     		ldr	r1, [sp, #16]
 5176 0076 1448     		ldr	r0, .L359+12
 5177 0078 A047     		blx	r4
 5178              	.LVL2:
 5179              		.loc 7 919 0
 5180 007a 14E0     		b	.L358
 5181              	.L356:
 5182              		.loc 7 913 0
 5183 007c 1349     		ldr	r1, .L359+16
 5184 007e 0398     		ldr	r0, [sp, #12]
 5185 0080 FFF7FEFF 		bl	chprintf
 5186              		.loc 7 914 0
 5187 0084 41F28830 		movw	r0, #5000
 5188 0088 FFF7FEFF 		bl	chThdSleep
 5189              		.loc 7 915 0
 5190 008c FFF7FEFF 		bl	dcmi_get_first_buffer_ptr
 5191 0090 0490     		str	r0, [sp, #16]
 5192              		.loc 7 916 0
 5193 0092 0D4B     		ldr	r3, .L359+12
 5194 0094 1B68     		ldr	r3, [r3]
 5195 0096 1C68     		ldr	r4, [r3]
ARM GAS  C:\Users\Moi\AppData\Local\Temp\cchaECY7.s 			page 101


 5196 0098 FFF7FEFF 		bl	po8030_get_image_size
 5197 009c 0346     		mov	r3, r0
 5198 009e 1A46     		mov	r2, r3
 5199 00a0 0499     		ldr	r1, [sp, #16]
 5200 00a2 0948     		ldr	r0, .L359+12
 5201 00a4 A047     		blx	r4
 5202              	.LVL3:
 5203              	.L358:
 5204              		.loc 7 919 0
 5205 00a6 00BF     		nop
 5206 00a8 044B     		ldr	r3, .L359
 5207 00aa 059A     		ldr	r2, [sp, #20]
 5208 00ac 1B68     		ldr	r3, [r3]
 5209 00ae 9A42     		cmp	r2, r3
 5210 00b0 01D0     		beq	.L357
 5211 00b2 FFF7FEFF 		bl	__stack_chk_fail
 5212              	.L357:
 5213 00b6 06B0     		add	sp, sp, #24
 5214              		.cfi_def_cfa_offset 8
 5215              		@ sp needed
 5216 00b8 10BD     		pop	{r4, pc}
 5217              	.L360:
 5218 00ba 00BF     		.align	2
 5219              	.L359:
 5220 00bc 00000000 		.word	__stack_chk_guard
 5221 00c0 1C0F0000 		.word	.LC125
 5222 00c4 380F0000 		.word	.LC126
 5223 00c8 00000000 		.word	SDU1
 5224 00cc 680F0000 		.word	.LC127
 5225              		.cfi_endproc
 5226              	.LFE299:
 5227              		.size	cmd_cam_send, .-cmd_cam_send
 5228              		.section	.rodata
 5229 0f92 0000     		.align	2
 5230              	.LC128:
 5231 0f94 55736167 		.ascii	"Usage: set_led led_num led_value\015\012led_num: 0-"
 5231      653A2073 
 5231      65745F6C 
 5231      6564206C 
 5231      65645F6E 
 5232 0fc1 333D736D 		.ascii	"3=small leds, 4=body led, 5=front led\015\012value:"
 5232      616C6C20 
 5232      6C656473 
 5232      2C20343D 
 5232      626F6479 
 5233 0fee 20303D6F 		.ascii	" 0=off, 1=on, 2=toggle\015\012\000"
 5233      66662C20 
 5233      313D6F6E 
 5233      2C20323D 
 5233      746F6767 
 5234              		.section	.text.cmd_set_led,"ax",%progbits
 5235              		.align	1
 5236              		.p2align 4,,15
 5237              		.syntax unified
 5238              		.thumb
 5239              		.thumb_func
 5240              		.fpu fpv4-sp-d16
ARM GAS  C:\Users\Moi\AppData\Local\Temp\cchaECY7.s 			page 102


 5241              		.type	cmd_set_led, %function
 5242              	cmd_set_led:
 5243              	.LFB300:
 5244              		.loc 7 922 0
 5245              		.cfi_startproc
 5246              		@ args = 0, pretend = 0, frame = 24
 5247              		@ frame_needed = 0, uses_anonymous_args = 0
 5248 0000 00B5     		push	{lr}
 5249              		.cfi_def_cfa_offset 4
 5250              		.cfi_offset 14, -4
 5251 0002 87B0     		sub	sp, sp, #28
 5252              		.cfi_def_cfa_offset 32
 5253 0004 0390     		str	r0, [sp, #12]
 5254 0006 0291     		str	r1, [sp, #8]
 5255 0008 0192     		str	r2, [sp, #4]
 5256              		.loc 7 922 0
 5257 000a 264B     		ldr	r3, .L368
 5258 000c 1B68     		ldr	r3, [r3]
 5259 000e 0593     		str	r3, [sp, #20]
 5260              		.loc 7 923 0
 5261 0010 0023     		movs	r3, #0
 5262 0012 8DF81230 		strb	r3, [sp, #18]
 5263              		.loc 7 924 0
 5264 0016 0023     		movs	r3, #0
 5265 0018 8DF81330 		strb	r3, [sp, #19]
 5266              		.loc 7 926 0
 5267 001c 029B     		ldr	r3, [sp, #8]
 5268 001e 022B     		cmp	r3, #2
 5269 0020 04D0     		beq	.L362
 5270              		.loc 7 927 0
 5271 0022 2149     		ldr	r1, .L368+4
 5272 0024 0398     		ldr	r0, [sp, #12]
 5273 0026 FFF7FEFF 		bl	chprintf
 5274              		.loc 7 940 0
 5275 002a 30E0     		b	.L367
 5276              	.L362:
 5277              		.loc 7 929 0
 5278 002c 019B     		ldr	r3, [sp, #4]
 5279 002e 1B68     		ldr	r3, [r3]
 5280 0030 1846     		mov	r0, r3
 5281 0032 FFF7FEFF 		bl	atoi
 5282 0036 0346     		mov	r3, r0
 5283 0038 8DF81230 		strb	r3, [sp, #18]
 5284              		.loc 7 930 0
 5285 003c 019B     		ldr	r3, [sp, #4]
 5286 003e 0433     		adds	r3, r3, #4
 5287 0040 1B68     		ldr	r3, [r3]
 5288 0042 1846     		mov	r0, r3
 5289 0044 FFF7FEFF 		bl	atoi
 5290 0048 0346     		mov	r3, r0
 5291 004a 8DF81330 		strb	r3, [sp, #19]
 5292              		.loc 7 932 0
 5293 004e 9DF81230 		ldrb	r3, [sp, #18]	@ zero_extendqisi2
 5294 0052 032B     		cmp	r3, #3
 5295 0054 08D8     		bhi	.L364
 5296              		.loc 7 933 0
 5297 0056 9DF81320 		ldrb	r2, [sp, #19]	@ zero_extendqisi2
ARM GAS  C:\Users\Moi\AppData\Local\Temp\cchaECY7.s 			page 103


 5298 005a 9DF81230 		ldrb	r3, [sp, #18]	@ zero_extendqisi2
 5299 005e 1146     		mov	r1, r2
 5300 0060 1846     		mov	r0, r3
 5301 0062 FFF7FEFF 		bl	set_led
 5302              		.loc 7 940 0
 5303 0066 12E0     		b	.L367
 5304              	.L364:
 5305              		.loc 7 934 0
 5306 0068 9DF81230 		ldrb	r3, [sp, #18]	@ zero_extendqisi2
 5307 006c 042B     		cmp	r3, #4
 5308 006e 05D1     		bne	.L365
 5309              		.loc 7 935 0
 5310 0070 9DF81330 		ldrb	r3, [sp, #19]	@ zero_extendqisi2
 5311 0074 1846     		mov	r0, r3
 5312 0076 FFF7FEFF 		bl	set_body_led
 5313              		.loc 7 940 0
 5314 007a 08E0     		b	.L367
 5315              	.L365:
 5316              		.loc 7 936 0
 5317 007c 9DF81230 		ldrb	r3, [sp, #18]	@ zero_extendqisi2
 5318 0080 052B     		cmp	r3, #5
 5319 0082 04D1     		bne	.L367
 5320              		.loc 7 937 0
 5321 0084 9DF81330 		ldrb	r3, [sp, #19]	@ zero_extendqisi2
 5322 0088 1846     		mov	r0, r3
 5323 008a FFF7FEFF 		bl	set_front_led
 5324              	.L367:
 5325              		.loc 7 940 0
 5326 008e 00BF     		nop
 5327 0090 044B     		ldr	r3, .L368
 5328 0092 059A     		ldr	r2, [sp, #20]
 5329 0094 1B68     		ldr	r3, [r3]
 5330 0096 9A42     		cmp	r2, r3
 5331 0098 01D0     		beq	.L366
 5332 009a FFF7FEFF 		bl	__stack_chk_fail
 5333              	.L366:
 5334 009e 07B0     		add	sp, sp, #28
 5335              		.cfi_def_cfa_offset 4
 5336              		@ sp needed
 5337 00a0 5DF804FB 		ldr	pc, [sp], #4
 5338              	.L369:
 5339              		.align	2
 5340              	.L368:
 5341 00a4 00000000 		.word	__stack_chk_guard
 5342 00a8 940F0000 		.word	.LC128
 5343              		.cfi_endproc
 5344              	.LFE300:
 5345              		.size	cmd_set_led, .-cmd_set_led
 5346              		.section	.rodata
 5347 1007 00       		.align	2
 5348              	.LC129:
 5349 1008 55736167 		.ascii	"Usage: set_speed left right\015\012speed: %d..%d\015"
 5349      653A2073 
 5349      65745F73 
 5349      70656564 
 5349      206C6566 
 5350 1033 0A00     		.ascii	"\012\000"
ARM GAS  C:\Users\Moi\AppData\Local\Temp\cchaECY7.s 			page 104


 5351 1035 000000   		.align	2
 5352              	.LC130:
 5353 1038 6C737065 		.ascii	"lspeed=%d, rspeed=%d\015\012\000"
 5353      65643D25 
 5353      642C2072 
 5353      73706565 
 5353      643D2564 
 5354              		.section	.text.cmd_set_speed,"ax",%progbits
 5355              		.align	1
 5356              		.p2align 4,,15
 5357              		.syntax unified
 5358              		.thumb
 5359              		.thumb_func
 5360              		.fpu fpv4-sp-d16
 5361              		.type	cmd_set_speed, %function
 5362              	cmd_set_speed:
 5363              	.LFB301:
 5364              		.loc 7 943 0
 5365              		.cfi_startproc
 5366              		@ args = 0, pretend = 0, frame = 24
 5367              		@ frame_needed = 0, uses_anonymous_args = 0
 5368 0000 00B5     		push	{lr}
 5369              		.cfi_def_cfa_offset 4
 5370              		.cfi_offset 14, -4
 5371 0002 87B0     		sub	sp, sp, #28
 5372              		.cfi_def_cfa_offset 32
 5373 0004 0390     		str	r0, [sp, #12]
 5374 0006 0291     		str	r1, [sp, #8]
 5375 0008 0192     		str	r2, [sp, #4]
 5376              		.loc 7 943 0
 5377 000a 214B     		ldr	r3, .L375
 5378 000c 1B68     		ldr	r3, [r3]
 5379 000e 0593     		str	r3, [sp, #20]
 5380              		.loc 7 944 0
 5381 0010 0023     		movs	r3, #0
 5382 0012 ADF81030 		strh	r3, [sp, #16]	@ movhi
 5383              		.loc 7 945 0
 5384 0016 0023     		movs	r3, #0
 5385 0018 ADF81230 		strh	r3, [sp, #18]	@ movhi
 5386              		.loc 7 947 0
 5387 001c 029B     		ldr	r3, [sp, #8]
 5388 001e 022B     		cmp	r3, #2
 5389 0020 07D0     		beq	.L371
 5390              		.loc 7 948 0
 5391 0022 40F24C43 		movw	r3, #1100
 5392 0026 1B4A     		ldr	r2, .L375+4
 5393 0028 1B49     		ldr	r1, .L375+8
 5394 002a 0398     		ldr	r0, [sp, #12]
 5395 002c FFF7FEFF 		bl	chprintf
 5396              		.loc 7 956 0
 5397 0030 22E0     		b	.L374
 5398              	.L371:
 5399              		.loc 7 950 0
 5400 0032 019B     		ldr	r3, [sp, #4]
 5401 0034 1B68     		ldr	r3, [r3]
 5402 0036 1846     		mov	r0, r3
 5403 0038 FFF7FEFF 		bl	atoi
ARM GAS  C:\Users\Moi\AppData\Local\Temp\cchaECY7.s 			page 105


 5404 003c 0346     		mov	r3, r0
 5405 003e ADF81030 		strh	r3, [sp, #16]	@ movhi
 5406              		.loc 7 951 0
 5407 0042 019B     		ldr	r3, [sp, #4]
 5408 0044 0433     		adds	r3, r3, #4
 5409 0046 1B68     		ldr	r3, [r3]
 5410 0048 1846     		mov	r0, r3
 5411 004a FFF7FEFF 		bl	atoi
 5412 004e 0346     		mov	r3, r0
 5413 0050 ADF81230 		strh	r3, [sp, #18]	@ movhi
 5414              		.loc 7 952 0
 5415 0054 BDF91020 		ldrsh	r2, [sp, #16]
 5416 0058 BDF91230 		ldrsh	r3, [sp, #18]
 5417 005c 0F49     		ldr	r1, .L375+12
 5418 005e 0398     		ldr	r0, [sp, #12]
 5419 0060 FFF7FEFF 		bl	chprintf
 5420              		.loc 7 953 0
 5421 0064 BDF91230 		ldrsh	r3, [sp, #18]
 5422 0068 1846     		mov	r0, r3
 5423 006a FFF7FEFF 		bl	right_motor_set_speed
 5424              		.loc 7 954 0
 5425 006e BDF91030 		ldrsh	r3, [sp, #16]
 5426 0072 1846     		mov	r0, r3
 5427 0074 FFF7FEFF 		bl	left_motor_set_speed
 5428              	.L374:
 5429              		.loc 7 956 0
 5430 0078 00BF     		nop
 5431 007a 054B     		ldr	r3, .L375
 5432 007c 059A     		ldr	r2, [sp, #20]
 5433 007e 1B68     		ldr	r3, [r3]
 5434 0080 9A42     		cmp	r2, r3
 5435 0082 01D0     		beq	.L373
 5436 0084 FFF7FEFF 		bl	__stack_chk_fail
 5437              	.L373:
 5438 0088 07B0     		add	sp, sp, #28
 5439              		.cfi_def_cfa_offset 4
 5440              		@ sp needed
 5441 008a 5DF804FB 		ldr	pc, [sp], #4
 5442              	.L376:
 5443 008e 00BF     		.align	2
 5444              	.L375:
 5445 0090 00000000 		.word	__stack_chk_guard
 5446 0094 B4FBFFFF 		.word	-1100
 5447 0098 08100000 		.word	.LC129
 5448 009c 38100000 		.word	.LC130
 5449              		.cfi_endproc
 5450              	.LFE301:
 5451              		.size	cmd_set_speed, .-cmd_set_speed
 5452              		.section	.rodata
 5453 104f 00       		.align	2
 5454              	.LC131:
 5455 1050 42617474 		.ascii	"Battery raw value = %d\015\012\000"
 5455      65727920 
 5455      72617720 
 5455      76616C75 
 5455      65203D20 
 5456              		.section	.text.cmd_get_battery,"ax",%progbits
ARM GAS  C:\Users\Moi\AppData\Local\Temp\cchaECY7.s 			page 106


 5457              		.align	1
 5458              		.p2align 4,,15
 5459              		.syntax unified
 5460              		.thumb
 5461              		.thumb_func
 5462              		.fpu fpv4-sp-d16
 5463              		.type	cmd_get_battery, %function
 5464              	cmd_get_battery:
 5465              	.LFB302:
 5466              		.loc 7 959 0
 5467              		.cfi_startproc
 5468              		@ args = 0, pretend = 0, frame = 24
 5469              		@ frame_needed = 0, uses_anonymous_args = 0
 5470 0000 00B5     		push	{lr}
 5471              		.cfi_def_cfa_offset 4
 5472              		.cfi_offset 14, -4
 5473 0002 87B0     		sub	sp, sp, #28
 5474              		.cfi_def_cfa_offset 32
 5475 0004 0390     		str	r0, [sp, #12]
 5476 0006 0291     		str	r1, [sp, #8]
 5477 0008 0192     		str	r2, [sp, #4]
 5478              		.loc 7 959 0
 5479 000a 0B4B     		ldr	r3, .L379
 5480 000c 1B68     		ldr	r3, [r3]
 5481 000e 0593     		str	r3, [sp, #20]
 5482              		.loc 7 963 0
 5483 0010 FFF7FEFF 		bl	get_battery_raw
 5484 0014 0346     		mov	r3, r0
 5485 0016 1A46     		mov	r2, r3
 5486 0018 0849     		ldr	r1, .L379+4
 5487 001a 0398     		ldr	r0, [sp, #12]
 5488 001c FFF7FEFF 		bl	chprintf
 5489              		.loc 7 964 0
 5490 0020 00BF     		nop
 5491 0022 054B     		ldr	r3, .L379
 5492 0024 059A     		ldr	r2, [sp, #20]
 5493 0026 1B68     		ldr	r3, [r3]
 5494 0028 9A42     		cmp	r2, r3
 5495 002a 01D0     		beq	.L378
 5496 002c FFF7FEFF 		bl	__stack_chk_fail
 5497              	.L378:
 5498 0030 07B0     		add	sp, sp, #28
 5499              		.cfi_def_cfa_offset 4
 5500              		@ sp needed
 5501 0032 5DF804FB 		ldr	pc, [sp], #4
 5502              	.L380:
 5503 0036 00BF     		.align	2
 5504              	.L379:
 5505 0038 00000000 		.word	__stack_chk_guard
 5506 003c 50100000 		.word	.LC131
 5507              		.cfi_endproc
 5508              	.LFE302:
 5509              		.size	cmd_get_battery, .-cmd_get_battery
 5510              		.section	.rodata
 5511 1069 000000   		.align	2
 5512              	.LC132:
 5513 106c 55736167 		.ascii	"Usage: audio_play freq\015\012freq=100..20000 Hz\015"
ARM GAS  C:\Users\Moi\AppData\Local\Temp\cchaECY7.s 			page 107


 5513      653A2061 
 5513      7564696F 
 5513      5F706C61 
 5513      79206672 
 5514 1097 0A00     		.ascii	"\012\000"
 5515              		.section	.text.cmd_audio_play,"ax",%progbits
 5516              		.align	1
 5517              		.p2align 4,,15
 5518              		.syntax unified
 5519              		.thumb
 5520              		.thumb_func
 5521              		.fpu fpv4-sp-d16
 5522              		.type	cmd_audio_play, %function
 5523              	cmd_audio_play:
 5524              	.LFB303:
 5525              		.loc 7 967 0
 5526              		.cfi_startproc
 5527              		@ args = 0, pretend = 0, frame = 24
 5528              		@ frame_needed = 0, uses_anonymous_args = 0
 5529 0000 00B5     		push	{lr}
 5530              		.cfi_def_cfa_offset 4
 5531              		.cfi_offset 14, -4
 5532 0002 87B0     		sub	sp, sp, #28
 5533              		.cfi_def_cfa_offset 32
 5534 0004 0390     		str	r0, [sp, #12]
 5535 0006 0291     		str	r1, [sp, #8]
 5536 0008 0192     		str	r2, [sp, #4]
 5537              		.loc 7 967 0
 5538 000a 114B     		ldr	r3, .L386
 5539 000c 1B68     		ldr	r3, [r3]
 5540 000e 0593     		str	r3, [sp, #20]
 5541              		.loc 7 969 0
 5542 0010 029B     		ldr	r3, [sp, #8]
 5543 0012 012B     		cmp	r3, #1
 5544 0014 04D0     		beq	.L382
 5545              		.loc 7 970 0
 5546 0016 0F49     		ldr	r1, .L386+4
 5547 0018 0398     		ldr	r0, [sp, #12]
 5548 001a FFF7FEFF 		bl	chprintf
 5549              		.loc 7 976 0
 5550 001e 0CE0     		b	.L385
 5551              	.L382:
 5552              		.loc 7 973 0
 5553 0020 019B     		ldr	r3, [sp, #4]
 5554 0022 1B68     		ldr	r3, [r3]
 5555 0024 1846     		mov	r0, r3
 5556 0026 FFF7FEFF 		bl	atoi
 5557 002a 0346     		mov	r3, r0
 5558 002c ADF81230 		strh	r3, [sp, #18]	@ movhi
 5559              		.loc 7 974 0
 5560 0030 BDF81230 		ldrh	r3, [sp, #18]
 5561 0034 1846     		mov	r0, r3
 5562 0036 FFF7FEFF 		bl	dac_play
 5563              	.L385:
 5564              		.loc 7 976 0
 5565 003a 00BF     		nop
 5566 003c 044B     		ldr	r3, .L386
ARM GAS  C:\Users\Moi\AppData\Local\Temp\cchaECY7.s 			page 108


 5567 003e 059A     		ldr	r2, [sp, #20]
 5568 0040 1B68     		ldr	r3, [r3]
 5569 0042 9A42     		cmp	r2, r3
 5570 0044 01D0     		beq	.L384
 5571 0046 FFF7FEFF 		bl	__stack_chk_fail
 5572              	.L384:
 5573 004a 07B0     		add	sp, sp, #28
 5574              		.cfi_def_cfa_offset 4
 5575              		@ sp needed
 5576 004c 5DF804FB 		ldr	pc, [sp], #4
 5577              	.L387:
 5578              		.align	2
 5579              	.L386:
 5580 0050 00000000 		.word	__stack_chk_guard
 5581 0054 6C100000 		.word	.LC132
 5582              		.cfi_endproc
 5583              	.LFE303:
 5584              		.size	cmd_audio_play, .-cmd_audio_play
 5585              		.section	.text.cmd_audio_stop,"ax",%progbits
 5586              		.align	1
 5587              		.p2align 4,,15
 5588              		.syntax unified
 5589              		.thumb
 5590              		.thumb_func
 5591              		.fpu fpv4-sp-d16
 5592              		.type	cmd_audio_stop, %function
 5593              	cmd_audio_stop:
 5594              	.LFB304:
 5595              		.loc 7 979 0
 5596              		.cfi_startproc
 5597              		@ args = 0, pretend = 0, frame = 24
 5598              		@ frame_needed = 0, uses_anonymous_args = 0
 5599 0000 00B5     		push	{lr}
 5600              		.cfi_def_cfa_offset 4
 5601              		.cfi_offset 14, -4
 5602 0002 87B0     		sub	sp, sp, #28
 5603              		.cfi_def_cfa_offset 32
 5604 0004 0390     		str	r0, [sp, #12]
 5605 0006 0291     		str	r1, [sp, #8]
 5606 0008 0192     		str	r2, [sp, #4]
 5607              		.loc 7 979 0
 5608 000a 084B     		ldr	r3, .L390
 5609 000c 1B68     		ldr	r3, [r3]
 5610 000e 0593     		str	r3, [sp, #20]
 5611              		.loc 7 983 0
 5612 0010 FFF7FEFF 		bl	dac_stop
 5613              		.loc 7 984 0
 5614 0014 00BF     		nop
 5615 0016 054B     		ldr	r3, .L390
 5616 0018 059A     		ldr	r2, [sp, #20]
 5617 001a 1B68     		ldr	r3, [r3]
 5618 001c 9A42     		cmp	r2, r3
 5619 001e 01D0     		beq	.L389
 5620 0020 FFF7FEFF 		bl	__stack_chk_fail
 5621              	.L389:
 5622 0024 07B0     		add	sp, sp, #28
 5623              		.cfi_def_cfa_offset 4
ARM GAS  C:\Users\Moi\AppData\Local\Temp\cchaECY7.s 			page 109


 5624              		@ sp needed
 5625 0026 5DF804FB 		ldr	pc, [sp], #4
 5626              	.L391:
 5627 002a 00BF     		.align	2
 5628              	.L390:
 5629 002c 00000000 		.word	__stack_chk_guard
 5630              		.cfi_endproc
 5631              	.LFE304:
 5632              		.size	cmd_audio_stop, .-cmd_audio_stop
 5633              		.section	.rodata
 5634 1099 000000   		.align	2
 5635              	.LC133:
 5636 109c 55736167 		.ascii	"Usage: volume mic_num.\015\012mic_num=0..3\015\012\000"
 5636      653A2076 
 5636      6F6C756D 
 5636      65206D69 
 5636      635F6E75 
 5637 10c3 00       		.align	2
 5638              	.LC134:
 5639 10c4 25640D0A 		.ascii	"%d\015\012\000"
 5639      00
 5640              		.section	.text.cmd_volume,"ax",%progbits
 5641              		.align	1
 5642              		.p2align 4,,15
 5643              		.syntax unified
 5644              		.thumb
 5645              		.thumb_func
 5646              		.fpu fpv4-sp-d16
 5647              		.type	cmd_volume, %function
 5648              	cmd_volume:
 5649              	.LFB305:
 5650              		.loc 7 987 0
 5651              		.cfi_startproc
 5652              		@ args = 0, pretend = 0, frame = 24
 5653              		@ frame_needed = 0, uses_anonymous_args = 0
 5654 0000 00B5     		push	{lr}
 5655              		.cfi_def_cfa_offset 4
 5656              		.cfi_offset 14, -4
 5657 0002 87B0     		sub	sp, sp, #28
 5658              		.cfi_def_cfa_offset 32
 5659 0004 0390     		str	r0, [sp, #12]
 5660 0006 0291     		str	r1, [sp, #8]
 5661 0008 0192     		str	r2, [sp, #4]
 5662              		.loc 7 987 0
 5663 000a 144B     		ldr	r3, .L397
 5664 000c 1B68     		ldr	r3, [r3]
 5665 000e 0593     		str	r3, [sp, #20]
 5666              		.loc 7 989 0
 5667 0010 029B     		ldr	r3, [sp, #8]
 5668 0012 012B     		cmp	r3, #1
 5669 0014 04D0     		beq	.L393
 5670              		.loc 7 990 0
 5671 0016 1249     		ldr	r1, .L397+4
 5672 0018 0398     		ldr	r0, [sp, #12]
 5673 001a FFF7FEFF 		bl	chprintf
 5674              		.loc 7 995 0
 5675 001e 12E0     		b	.L396
ARM GAS  C:\Users\Moi\AppData\Local\Temp\cchaECY7.s 			page 110


 5676              	.L393:
 5677              		.loc 7 992 0
 5678 0020 019B     		ldr	r3, [sp, #4]
 5679 0022 1B68     		ldr	r3, [r3]
 5680 0024 1846     		mov	r0, r3
 5681 0026 FFF7FEFF 		bl	atoi
 5682 002a 0346     		mov	r3, r0
 5683 002c 8DF81330 		strb	r3, [sp, #19]
 5684              		.loc 7 993 0
 5685 0030 9DF81330 		ldrb	r3, [sp, #19]	@ zero_extendqisi2
 5686 0034 1846     		mov	r0, r3
 5687 0036 FFF7FEFF 		bl	mic_get_volume
 5688 003a 0346     		mov	r3, r0
 5689 003c 1A46     		mov	r2, r3
 5690 003e 0949     		ldr	r1, .L397+8
 5691 0040 0398     		ldr	r0, [sp, #12]
 5692 0042 FFF7FEFF 		bl	chprintf
 5693              	.L396:
 5694              		.loc 7 995 0
 5695 0046 00BF     		nop
 5696 0048 044B     		ldr	r3, .L397
 5697 004a 059A     		ldr	r2, [sp, #20]
 5698 004c 1B68     		ldr	r3, [r3]
 5699 004e 9A42     		cmp	r2, r3
 5700 0050 01D0     		beq	.L395
 5701 0052 FFF7FEFF 		bl	__stack_chk_fail
 5702              	.L395:
 5703 0056 07B0     		add	sp, sp, #28
 5704              		.cfi_def_cfa_offset 4
 5705              		@ sp needed
 5706 0058 5DF804FB 		ldr	pc, [sp], #4
 5707              	.L398:
 5708              		.align	2
 5709              	.L397:
 5710 005c 00000000 		.word	__stack_chk_guard
 5711 0060 9C100000 		.word	.LC133
 5712 0064 C4100000 		.word	.LC134
 5713              		.cfi_endproc
 5714              	.LFE305:
 5715              		.size	cmd_volume, .-cmd_volume
 5716              		.section	.text.cmd_mic_data,"ax",%progbits
 5717              		.align	1
 5718              		.p2align 4,,15
 5719              		.syntax unified
 5720              		.thumb
 5721              		.thumb_func
 5722              		.fpu fpv4-sp-d16
 5723              		.type	cmd_mic_data, %function
 5724              	cmd_mic_data:
 5725              	.LFB306:
 5726              		.loc 7 998 0
 5727              		.cfi_startproc
 5728              		@ args = 0, pretend = 0, frame = 32
 5729              		@ frame_needed = 0, uses_anonymous_args = 0
 5730 0000 00B5     		push	{lr}
 5731              		.cfi_def_cfa_offset 4
 5732              		.cfi_offset 14, -4
ARM GAS  C:\Users\Moi\AppData\Local\Temp\cchaECY7.s 			page 111


 5733 0002 89B0     		sub	sp, sp, #36
 5734              		.cfi_def_cfa_offset 40
 5735 0004 0390     		str	r0, [sp, #12]
 5736 0006 0291     		str	r1, [sp, #8]
 5737 0008 0192     		str	r2, [sp, #4]
 5738              		.loc 7 998 0
 5739 000a 214B     		ldr	r3, .L402
 5740 000c 1B68     		ldr	r3, [r3]
 5741 000e 0793     		str	r3, [sp, #28]
 5742              		.loc 7 1003 0
 5743 0010 FFF7FEFF 		bl	mic_buffer_get_size
 5744 0014 0346     		mov	r3, r0
 5745 0016 ADF81230 		strh	r3, [sp, #18]	@ movhi
 5746              		.loc 7 1004 0
 5747 001a AA23     		movs	r3, #170
 5748 001c 8DF81830 		strb	r3, [sp, #24]
 5749 0020 5523     		movs	r3, #85
 5750 0022 8DF81930 		strb	r3, [sp, #25]
 5751 0026 BDF81230 		ldrh	r3, [sp, #18]
 5752 002a 1B0A     		lsrs	r3, r3, #8
 5753 002c 9BB2     		uxth	r3, r3
 5754 002e DBB2     		uxtb	r3, r3
 5755 0030 8DF81A30 		strb	r3, [sp, #26]
 5756 0034 BDF81230 		ldrh	r3, [sp, #18]	@ movhi
 5757 0038 DBB2     		uxtb	r3, r3
 5758 003a 8DF81B30 		strb	r3, [sp, #27]
 5759              		.loc 7 1006 0
 5760 003e 154B     		ldr	r3, .L402+4
 5761 0040 1B68     		ldr	r3, [r3]
 5762 0042 1B68     		ldr	r3, [r3]
 5763 0044 06A9     		add	r1, sp, #24
 5764 0046 0422     		movs	r2, #4
 5765 0048 1248     		ldr	r0, .L402+4
 5766 004a 9847     		blx	r3
 5767              	.LVL4:
 5768              		.loc 7 1007 0
 5769 004c FFF7FEFF 		bl	mic_buffer_ready_reset
 5770              		.loc 7 1008 0
 5771 0050 00BF     		nop
 5772              	.L400:
 5773              		.loc 7 1008 0 is_stmt 0 discriminator 1
 5774 0052 FFF7FEFF 		bl	mic_buffer_is_ready
 5775 0056 0346     		mov	r3, r0
 5776 0058 83F00103 		eor	r3, r3, #1
 5777 005c DBB2     		uxtb	r3, r3
 5778 005e 002B     		cmp	r3, #0
 5779 0060 F7D1     		bne	.L400
 5780              		.loc 7 1009 0 is_stmt 1
 5781 0062 FFF7FEFF 		bl	mic_get_buffer_ptr
 5782 0066 0590     		str	r0, [sp, #20]
 5783              		.loc 7 1010 0
 5784 0068 0A4B     		ldr	r3, .L402+4
 5785 006a 1B68     		ldr	r3, [r3]
 5786 006c 1B68     		ldr	r3, [r3]
 5787 006e BDF81220 		ldrh	r2, [sp, #18]
 5788 0072 0599     		ldr	r1, [sp, #20]
 5789 0074 0748     		ldr	r0, .L402+4
ARM GAS  C:\Users\Moi\AppData\Local\Temp\cchaECY7.s 			page 112


 5790 0076 9847     		blx	r3
 5791              	.LVL5:
 5792              		.loc 7 1011 0
 5793 0078 00BF     		nop
 5794 007a 054B     		ldr	r3, .L402
 5795 007c 079A     		ldr	r2, [sp, #28]
 5796 007e 1B68     		ldr	r3, [r3]
 5797 0080 9A42     		cmp	r2, r3
 5798 0082 01D0     		beq	.L401
 5799 0084 FFF7FEFF 		bl	__stack_chk_fail
 5800              	.L401:
 5801 0088 09B0     		add	sp, sp, #36
 5802              		.cfi_def_cfa_offset 4
 5803              		@ sp needed
 5804 008a 5DF804FB 		ldr	pc, [sp], #4
 5805              	.L403:
 5806 008e 00BF     		.align	2
 5807              	.L402:
 5808 0090 00000000 		.word	__stack_chk_guard
 5809 0094 00000000 		.word	SDU1
 5810              		.cfi_endproc
 5811              	.LFE306:
 5812              		.size	cmd_mic_data, .-cmd_mic_data
 5813              		.section	.rodata
 5814 10c9 000000   		.align	2
 5815              	.LC135:
 5816 10cc 55736167 		.ascii	"Usage: sdc read|write|erase|all\015\012\000"
 5816      653A2073 
 5816      64632072 
 5816      6561647C 
 5816      77726974 
 5817 10ee 0000     		.align	2
 5818              	.LC136:
 5819 10f0 43617264 		.ascii	"Card not inserted, aborting.\015\012\000"
 5819      206E6F74 
 5819      20696E73 
 5819      65727465 
 5819      642C2061 
 5820 110f 00       		.align	2
 5821              	.LC137:
 5822 1110 436F6E6E 		.ascii	"Connecting... \000"
 5822      65637469 
 5822      6E672E2E 
 5822      2E2000
 5823 111f 00       		.align	2
 5824              	.LC138:
 5825 1120 6661696C 		.ascii	"failed\015\012\000"
 5825      65640D0A 
 5825      00
 5826 1129 000000   		.align	2
 5827              	.LC139:
 5828 112c 4F4B0D0A 		.ascii	"OK\015\012\015\012Card Info\015\012\000"
 5828      0D0A4361 
 5828      72642049 
 5828      6E666F0D 
 5828      0A00
 5829 113e 0000     		.align	2
ARM GAS  C:\Users\Moi\AppData\Local\Temp\cchaECY7.s 			page 113


 5830              	.LC140:
 5831 1140 43534420 		.ascii	"CSD      : %08X %8X %08X %08X \015\012\000"
 5831      20202020 
 5831      203A2025 
 5831      30385820 
 5831      25385820 
 5832 1161 000000   		.align	2
 5833              	.LC141:
 5834 1164 43494420 		.ascii	"CID      : %08X %8X %08X %08X \015\012\000"
 5834      20202020 
 5834      203A2025 
 5834      30385820 
 5834      25385820 
 5835 1185 000000   		.align	2
 5836              	.LC142:
 5837 1188 4D6F6465 		.ascii	"Mode     : %s\015\012\000"
 5837      20202020 
 5837      203A2025 
 5837      730D0A00 
 5838              		.align	2
 5839              	.LC143:
 5840 1198 43617061 		.ascii	"Capacity : %DMB\015\012\000"
 5840      63697479 
 5840      203A2025 
 5840      444D420D 
 5840      0A00
 5841 11aa 0000     		.align	2
 5842              	.LC144:
 5843 11ac 72656164 		.ascii	"read\000"
 5843      00
 5844 11b1 000000   		.align	2
 5845              	.LC145:
 5846 11b4 616C6C00 		.ascii	"all\000"
 5847              		.align	2
 5848              	.LC146:
 5849 11b8 53696E67 		.ascii	"Single block aligned read performance:           \000"
 5849      6C652062 
 5849      6C6F636B 
 5849      20616C69 
 5849      676E6564 
 5850 11ea 0000     		.align	2
 5851              	.LC147:
 5852 11ec 25442062 		.ascii	"%D blocks/S, %D bytes/S\015\012\000"
 5852      6C6F636B 
 5852      732F532C 
 5852      20254420 
 5852      62797465 
 5853 1206 0000     		.align	2
 5854              	.LC148:
 5855 1208 31362073 		.ascii	"16 sequential blocks aligned read performance:   \000"
 5855      65717565 
 5855      6E746961 
 5855      6C20626C 
 5855      6F636B73 
 5856 123a 0000     		.align	2
 5857              	.LC149:
 5858 123c 53696E67 		.ascii	"Single block unaligned read performance:         \000"
ARM GAS  C:\Users\Moi\AppData\Local\Temp\cchaECY7.s 			page 114


 5858      6C652062 
 5858      6C6F636B 
 5858      20756E61 
 5858      6C69676E 
 5859 126e 0000     		.align	2
 5860              	.LC150:
 5861 1270 31362073 		.ascii	"16 sequential blocks unaligned read performance: \000"
 5861      65717565 
 5861      6E746961 
 5861      6C20626C 
 5861      6F636B73 
 5862 12a2 0000     		.align	2
 5863              	.LC151:
 5864 12a4 77726974 		.ascii	"write\000"
 5864      6500
 5865 12aa 0000     		.align	2
 5866              	.LC152:
 5867 12ac 57726974 		.ascii	"Writing...\000"
 5867      696E672E 
 5867      2E2E00
 5868 12b7 00       		.align	2
 5869              	.LC153:
 5870 12b8 4F4B0D0A 		.ascii	"OK\015\012\000"
 5870      00
 5871 12bd 000000   		.align	2
 5872              	.LC154:
 5873 12c0 52656164 		.ascii	"Reading...\000"
 5873      696E672E 
 5873      2E2E00
 5874 12cb 00       		.align	2
 5875              	.LC155:
 5876 12cc 65726173 		.ascii	"erase\000"
 5876      6500
 5877 12d2 0000     		.align	2
 5878              	.LC156:
 5879 12d4 73646345 		.ascii	"sdcErase() test write failed\015\012\000"
 5879      72617365 
 5879      28292074 
 5879      65737420 
 5879      77726974 
 5880 12f3 00       		.align	2
 5881              	.LC157:
 5882 12f4 73646345 		.ascii	"sdcErase() failed\015\012\000"
 5882      72617365 
 5882      28292066 
 5882      61696C65 
 5882      640D0A00 
 5883              		.align	2
 5884              	.LC158:
 5885 1308 73646345 		.ascii	"sdcErase() yielded error flags: %d\015\012\000"
 5885      72617365 
 5885      28292079 
 5885      69656C64 
 5885      65642065 
 5886 132d 000000   		.align	2
 5887              	.LC159:
 5888 1330 73696E67 		.ascii	"single-block sdcErase() failed\015\012\000"
ARM GAS  C:\Users\Moi\AppData\Local\Temp\cchaECY7.s 			page 115


 5888      6C652D62 
 5888      6C6F636B 
 5888      20736463 
 5888      45726173 
 5889 1351 000000   		.align	2
 5890              	.LC160:
 5891 1354 73646345 		.ascii	"sdcErase() non-erased block compare failed\015\012\000"
 5891      72617365 
 5891      2829206E 
 5891      6F6E2D65 
 5891      72617365 
 5892 1381 000000   		.align	2
 5893              	.LC161:
 5894 1384 73646345 		.ascii	"sdcErase() erased block compare failed\015\012\000"
 5894      72617365 
 5894      28292065 
 5894      72617365 
 5894      6420626C 
 5895 13ad 000000   		.align	2
 5896              	.LC162:
 5897 13b0 6D756C74 		.ascii	"multi-block sdcErase() failed\015\012\000"
 5897      692D626C 
 5897      6F636B20 
 5897      73646345 
 5897      72617365 
 5898              		.align	2
 5899              	.LC163:
 5900 13d0 6D756C74 		.ascii	"multi-block sdcErase() erased block compare failed\015"
 5900      692D626C 
 5900      6F636B20 
 5900      73646345 
 5900      72617365 
 5901 1403 0A00     		.ascii	"\012\000"
 5902              		.section	.text.cmd_sdc,"ax",%progbits
 5903              		.align	1
 5904              		.p2align 4,,15
 5905              		.global	cmd_sdc
 5906              		.syntax unified
 5907              		.thumb
 5908              		.thumb_func
 5909              		.fpu fpv4-sp-d16
 5910              		.type	cmd_sdc, %function
 5911              	cmd_sdc:
 5912              	.LFB307:
 5913              		.loc 7 1013 0
 5914              		.cfi_startproc
 5915              		@ args = 0, pretend = 0, frame = 48
 5916              		@ frame_needed = 0, uses_anonymous_args = 0
 5917 0000 10B5     		push	{r4, lr}
 5918              		.cfi_def_cfa_offset 8
 5919              		.cfi_offset 4, -8
 5920              		.cfi_offset 14, -4
 5921 0002 8EB0     		sub	sp, sp, #56
 5922              		.cfi_def_cfa_offset 64
 5923 0004 0590     		str	r0, [sp, #20]
 5924 0006 0491     		str	r1, [sp, #16]
 5925 0008 0392     		str	r2, [sp, #12]
ARM GAS  C:\Users\Moi\AppData\Local\Temp\cchaECY7.s 			page 116


 5926              		.loc 7 1013 0
 5927 000a 904B     		ldr	r3, .L442
 5928 000c 1B68     		ldr	r3, [r3]
 5929 000e 0D93     		str	r3, [sp, #52]
 5930              		.loc 7 1018 0
 5931 0010 049B     		ldr	r3, [sp, #16]
 5932 0012 012B     		cmp	r3, #1
 5933 0014 04D0     		beq	.L405
 5934              		.loc 7 1019 0
 5935 0016 8E49     		ldr	r1, .L442+4
 5936 0018 0598     		ldr	r0, [sp, #20]
 5937 001a FFF7FEFF 		bl	chprintf
 5938              		.loc 7 1020 0
 5939 001e DEE2     		b	.L404
 5940              	.L405:
 5941              		.loc 7 1024 0
 5942 0020 8C4B     		ldr	r3, .L442+8
 5943 0022 1B68     		ldr	r3, [r3]
 5944 0024 1B68     		ldr	r3, [r3]
 5945 0026 8B48     		ldr	r0, .L442+8
 5946 0028 9847     		blx	r3
 5947              	.LVL6:
 5948 002a 0346     		mov	r3, r0
 5949 002c 83F00103 		eor	r3, r3, #1
 5950 0030 DBB2     		uxtb	r3, r3
 5951 0032 002B     		cmp	r3, #0
 5952 0034 04D0     		beq	.L407
 5953              		.loc 7 1025 0
 5954 0036 8849     		ldr	r1, .L442+12
 5955 0038 0598     		ldr	r0, [sp, #20]
 5956 003a FFF7FEFF 		bl	chprintf
 5957              		.loc 7 1026 0
 5958 003e CEE2     		b	.L404
 5959              	.L407:
 5960              		.loc 7 1030 0
 5961 0040 8649     		ldr	r1, .L442+16
 5962 0042 0598     		ldr	r0, [sp, #20]
 5963 0044 FFF7FEFF 		bl	chprintf
 5964              		.loc 7 1031 0
 5965 0048 8248     		ldr	r0, .L442+8
 5966 004a FFF7FEFF 		bl	sdcConnect
 5967 004e 0346     		mov	r3, r0
 5968 0050 002B     		cmp	r3, #0
 5969 0052 04D0     		beq	.L408
 5970              		.loc 7 1032 0
 5971 0054 8249     		ldr	r1, .L442+20
 5972 0056 0598     		ldr	r0, [sp, #20]
 5973 0058 FFF7FEFF 		bl	chprintf
 5974              		.loc 7 1033 0
 5975 005c BFE2     		b	.L404
 5976              	.L408:
 5977              		.loc 7 1036 0
 5978 005e 8149     		ldr	r1, .L442+24
 5979 0060 0598     		ldr	r0, [sp, #20]
 5980 0062 FFF7FEFF 		bl	chprintf
 5981              		.loc 7 1037 0
 5982 0066 7B4B     		ldr	r3, .L442+8
ARM GAS  C:\Users\Moi\AppData\Local\Temp\cchaECY7.s 			page 117


 5983 0068 596A     		ldr	r1, [r3, #36]
 5984 006a 7A4B     		ldr	r3, .L442+8
 5985 006c 186A     		ldr	r0, [r3, #32]
 5986 006e 794B     		ldr	r3, .L442+8
 5987 0070 DB69     		ldr	r3, [r3, #28]
 5988 0072 784A     		ldr	r2, .L442+8
 5989 0074 9269     		ldr	r2, [r2, #24]
 5990 0076 0192     		str	r2, [sp, #4]
 5991 0078 0093     		str	r3, [sp]
 5992 007a 0346     		mov	r3, r0
 5993 007c 0A46     		mov	r2, r1
 5994 007e 7A49     		ldr	r1, .L442+28
 5995 0080 0598     		ldr	r0, [sp, #20]
 5996 0082 FFF7FEFF 		bl	chprintf
 5997              		.loc 7 1039 0
 5998 0086 734B     		ldr	r3, .L442+8
 5999 0088 5969     		ldr	r1, [r3, #20]
 6000 008a 724B     		ldr	r3, .L442+8
 6001 008c 1869     		ldr	r0, [r3, #16]
 6002 008e 714B     		ldr	r3, .L442+8
 6003 0090 DB68     		ldr	r3, [r3, #12]
 6004 0092 704A     		ldr	r2, .L442+8
 6005 0094 9268     		ldr	r2, [r2, #8]
 6006 0096 0192     		str	r2, [sp, #4]
 6007 0098 0093     		str	r3, [sp]
 6008 009a 0346     		mov	r3, r0
 6009 009c 0A46     		mov	r2, r1
 6010 009e 7349     		ldr	r1, .L442+32
 6011 00a0 0598     		ldr	r0, [sp, #20]
 6012 00a2 FFF7FEFF 		bl	chprintf
 6013              		.loc 7 1041 0
 6014 00a6 6B4B     		ldr	r3, .L442+8
 6015 00a8 1B6B     		ldr	r3, [r3, #48]
 6016 00aa 03F00303 		and	r3, r3, #3
 6017 00ae 704A     		ldr	r2, .L442+36
 6018 00b0 52F82330 		ldr	r3, [r2, r3, lsl #2]
 6019 00b4 1A46     		mov	r2, r3
 6020 00b6 6F49     		ldr	r1, .L442+40
 6021 00b8 0598     		ldr	r0, [sp, #20]
 6022 00ba FFF7FEFF 		bl	chprintf
 6023              		.loc 7 1042 0
 6024 00be 654B     		ldr	r3, .L442+8
 6025 00c0 9B6A     		ldr	r3, [r3, #40]
 6026 00c2 DB0A     		lsrs	r3, r3, #11
 6027 00c4 1A46     		mov	r2, r3
 6028 00c6 6C49     		ldr	r1, .L442+44
 6029 00c8 0598     		ldr	r0, [sp, #20]
 6030 00ca FFF7FEFF 		bl	chprintf
 6031              		.loc 7 1045 0
 6032 00ce 614B     		ldr	r3, .L442+8
 6033 00d0 9B6A     		ldr	r3, [r3, #40]
 6034 00d2 9B0A     		lsrs	r3, r3, #10
 6035 00d4 0993     		str	r3, [sp, #36]
 6036              		.loc 7 1047 0
 6037 00d6 039B     		ldr	r3, [sp, #12]
 6038 00d8 1B68     		ldr	r3, [r3]
 6039 00da 6849     		ldr	r1, .L442+48
ARM GAS  C:\Users\Moi\AppData\Local\Temp\cchaECY7.s 			page 118


 6040 00dc 1846     		mov	r0, r3
 6041 00de FFF7FEFF 		bl	strcmp
 6042 00e2 0346     		mov	r3, r0
 6043 00e4 002B     		cmp	r3, #0
 6044 00e6 09D0     		beq	.L409
 6045              		.loc 7 1048 0 discriminator 1
 6046 00e8 039B     		ldr	r3, [sp, #12]
 6047 00ea 1B68     		ldr	r3, [r3]
 6048 00ec 6449     		ldr	r1, .L442+52
 6049 00ee 1846     		mov	r0, r3
 6050 00f0 FFF7FEFF 		bl	strcmp
 6051 00f4 0346     		mov	r3, r0
 6052              		.loc 7 1047 0 discriminator 1
 6053 00f6 002B     		cmp	r3, #0
 6054 00f8 40F0E380 		bne	.L410
 6055              	.L409:
 6056              		.loc 7 1051 0
 6057 00fc 6149     		ldr	r1, .L442+56
 6058 00fe 0598     		ldr	r0, [sp, #20]
 6059 0100 FFF7FEFF 		bl	chprintf
 6060              		.loc 7 1052 0
 6061 0104 FFF7FEFF 		bl	chVTGetSystemTime
 6062 0108 0A90     		str	r0, [sp, #40]
 6063              		.loc 7 1053 0
 6064 010a 0A9B     		ldr	r3, [sp, #40]
 6065 010c 03F57A73 		add	r3, r3, #1000
 6066 0110 0B93     		str	r3, [sp, #44]
 6067              		.loc 7 1054 0
 6068 0112 0023     		movs	r3, #0
 6069 0114 0693     		str	r3, [sp, #24]
 6070              	.L413:
 6071              		.loc 7 1056 0
 6072 0116 4F4B     		ldr	r3, .L442+8
 6073 0118 1B68     		ldr	r3, [r3]
 6074 011a 1C69     		ldr	r4, [r3, #16]
 6075 011c 0123     		movs	r3, #1
 6076 011e 5A4A     		ldr	r2, .L442+60
 6077 0120 0999     		ldr	r1, [sp, #36]
 6078 0122 4C48     		ldr	r0, .L442+8
 6079 0124 A047     		blx	r4
 6080              	.LVL7:
 6081 0126 0346     		mov	r3, r0
 6082 0128 002B     		cmp	r3, #0
 6083 012a 04D0     		beq	.L411
 6084              		.loc 7 1057 0
 6085 012c 4C49     		ldr	r1, .L442+20
 6086 012e 0598     		ldr	r0, [sp, #20]
 6087 0130 FFF7FEFF 		bl	chprintf
 6088              		.loc 7 1058 0
 6089 0134 50E2     		b	.L412
 6090              	.L411:
 6091              		.loc 7 1060 0
 6092 0136 069B     		ldr	r3, [sp, #24]
 6093 0138 0133     		adds	r3, r3, #1
 6094 013a 0693     		str	r3, [sp, #24]
 6095              		.loc 7 1061 0
 6096 013c 0B99     		ldr	r1, [sp, #44]
ARM GAS  C:\Users\Moi\AppData\Local\Temp\cchaECY7.s 			page 119


 6097 013e 0A98     		ldr	r0, [sp, #40]
 6098 0140 FFF7FEFF 		bl	chVTIsSystemTimeWithin
 6099 0144 0346     		mov	r3, r0
 6100 0146 002B     		cmp	r3, #0
 6101 0148 E5D1     		bne	.L413
 6102              		.loc 7 1062 0
 6103 014a 069B     		ldr	r3, [sp, #24]
 6104 014c 5B02     		lsls	r3, r3, #9
 6105 014e 069A     		ldr	r2, [sp, #24]
 6106 0150 4E49     		ldr	r1, .L442+64
 6107 0152 0598     		ldr	r0, [sp, #20]
 6108 0154 FFF7FEFF 		bl	chprintf
 6109              		.loc 7 1065 0
 6110 0158 4D49     		ldr	r1, .L442+68
 6111 015a 0598     		ldr	r0, [sp, #20]
 6112 015c FFF7FEFF 		bl	chprintf
 6113              		.loc 7 1066 0
 6114 0160 FFF7FEFF 		bl	chVTGetSystemTime
 6115 0164 0A90     		str	r0, [sp, #40]
 6116              		.loc 7 1067 0
 6117 0166 0A9B     		ldr	r3, [sp, #40]
 6118 0168 03F57A73 		add	r3, r3, #1000
 6119 016c 0B93     		str	r3, [sp, #44]
 6120              		.loc 7 1068 0
 6121 016e 0023     		movs	r3, #0
 6122 0170 0693     		str	r3, [sp, #24]
 6123              	.L415:
 6124              		.loc 7 1070 0
 6125 0172 384B     		ldr	r3, .L442+8
 6126 0174 1B68     		ldr	r3, [r3]
 6127 0176 1C69     		ldr	r4, [r3, #16]
 6128 0178 1023     		movs	r3, #16
 6129 017a 434A     		ldr	r2, .L442+60
 6130 017c 0999     		ldr	r1, [sp, #36]
 6131 017e 3548     		ldr	r0, .L442+8
 6132 0180 A047     		blx	r4
 6133              	.LVL8:
 6134 0182 0346     		mov	r3, r0
 6135 0184 002B     		cmp	r3, #0
 6136 0186 04D0     		beq	.L414
 6137              		.loc 7 1071 0
 6138 0188 3549     		ldr	r1, .L442+20
 6139 018a 0598     		ldr	r0, [sp, #20]
 6140 018c FFF7FEFF 		bl	chprintf
 6141              		.loc 7 1072 0
 6142 0190 22E2     		b	.L412
 6143              	.L414:
 6144              		.loc 7 1074 0
 6145 0192 069B     		ldr	r3, [sp, #24]
 6146 0194 1033     		adds	r3, r3, #16
 6147 0196 0693     		str	r3, [sp, #24]
 6148              		.loc 7 1075 0
 6149 0198 0B99     		ldr	r1, [sp, #44]
 6150 019a 0A98     		ldr	r0, [sp, #40]
 6151 019c FFF7FEFF 		bl	chVTIsSystemTimeWithin
 6152 01a0 0346     		mov	r3, r0
 6153 01a2 002B     		cmp	r3, #0
ARM GAS  C:\Users\Moi\AppData\Local\Temp\cchaECY7.s 			page 120


 6154 01a4 E5D1     		bne	.L415
 6155              		.loc 7 1076 0
 6156 01a6 069B     		ldr	r3, [sp, #24]
 6157 01a8 5B02     		lsls	r3, r3, #9
 6158 01aa 069A     		ldr	r2, [sp, #24]
 6159 01ac 3749     		ldr	r1, .L442+64
 6160 01ae 0598     		ldr	r0, [sp, #20]
 6161 01b0 FFF7FEFF 		bl	chprintf
 6162              		.loc 7 1080 0
 6163 01b4 3749     		ldr	r1, .L442+72
 6164 01b6 0598     		ldr	r0, [sp, #20]
 6165 01b8 FFF7FEFF 		bl	chprintf
 6166              		.loc 7 1081 0
 6167 01bc FFF7FEFF 		bl	chVTGetSystemTime
 6168 01c0 0A90     		str	r0, [sp, #40]
 6169              		.loc 7 1082 0
 6170 01c2 0A9B     		ldr	r3, [sp, #40]
 6171 01c4 03F57A73 		add	r3, r3, #1000
 6172 01c8 0B93     		str	r3, [sp, #44]
 6173              		.loc 7 1083 0
 6174 01ca 0023     		movs	r3, #0
 6175 01cc 0693     		str	r3, [sp, #24]
 6176              	.L417:
 6177              		.loc 7 1085 0
 6178 01ce 214B     		ldr	r3, .L442+8
 6179 01d0 1B68     		ldr	r3, [r3]
 6180 01d2 1C69     		ldr	r4, [r3, #16]
 6181 01d4 304A     		ldr	r2, .L442+76
 6182 01d6 0123     		movs	r3, #1
 6183 01d8 0999     		ldr	r1, [sp, #36]
 6184 01da 1E48     		ldr	r0, .L442+8
 6185 01dc A047     		blx	r4
 6186              	.LVL9:
 6187 01de 0346     		mov	r3, r0
 6188 01e0 002B     		cmp	r3, #0
 6189 01e2 04D0     		beq	.L416
 6190              		.loc 7 1086 0
 6191 01e4 1E49     		ldr	r1, .L442+20
 6192 01e6 0598     		ldr	r0, [sp, #20]
 6193 01e8 FFF7FEFF 		bl	chprintf
 6194              		.loc 7 1087 0
 6195 01ec F4E1     		b	.L412
 6196              	.L416:
 6197              		.loc 7 1089 0
 6198 01ee 069B     		ldr	r3, [sp, #24]
 6199 01f0 0133     		adds	r3, r3, #1
 6200 01f2 0693     		str	r3, [sp, #24]
 6201              		.loc 7 1090 0
 6202 01f4 0B99     		ldr	r1, [sp, #44]
 6203 01f6 0A98     		ldr	r0, [sp, #40]
 6204 01f8 FFF7FEFF 		bl	chVTIsSystemTimeWithin
 6205 01fc 0346     		mov	r3, r0
 6206 01fe 002B     		cmp	r3, #0
 6207 0200 E5D1     		bne	.L417
 6208              		.loc 7 1091 0
 6209 0202 069B     		ldr	r3, [sp, #24]
 6210 0204 5B02     		lsls	r3, r3, #9
ARM GAS  C:\Users\Moi\AppData\Local\Temp\cchaECY7.s 			page 121


 6211 0206 069A     		ldr	r2, [sp, #24]
 6212 0208 2049     		ldr	r1, .L442+64
 6213 020a 0598     		ldr	r0, [sp, #20]
 6214 020c FFF7FEFF 		bl	chprintf
 6215              		.loc 7 1094 0
 6216 0210 2249     		ldr	r1, .L442+80
 6217 0212 0598     		ldr	r0, [sp, #20]
 6218 0214 FFF7FEFF 		bl	chprintf
 6219              		.loc 7 1095 0
 6220 0218 FFF7FEFF 		bl	chVTGetSystemTime
 6221 021c 0A90     		str	r0, [sp, #40]
 6222              		.loc 7 1096 0
 6223 021e 0A9B     		ldr	r3, [sp, #40]
 6224 0220 03F57A73 		add	r3, r3, #1000
 6225 0224 0B93     		str	r3, [sp, #44]
 6226              		.loc 7 1097 0
 6227 0226 0023     		movs	r3, #0
 6228 0228 0693     		str	r3, [sp, #24]
 6229              	.L419:
 6230              		.loc 7 1099 0
 6231 022a 0A4B     		ldr	r3, .L442+8
 6232 022c 1B68     		ldr	r3, [r3]
 6233 022e 1C69     		ldr	r4, [r3, #16]
 6234 0230 194A     		ldr	r2, .L442+76
 6235 0232 1023     		movs	r3, #16
 6236 0234 0999     		ldr	r1, [sp, #36]
 6237 0236 0748     		ldr	r0, .L442+8
 6238 0238 A047     		blx	r4
 6239              	.LVL10:
 6240 023a 0346     		mov	r3, r0
 6241 023c 002B     		cmp	r3, #0
 6242 023e 2FD0     		beq	.L418
 6243              		.loc 7 1100 0
 6244 0240 0749     		ldr	r1, .L442+20
 6245 0242 0598     		ldr	r0, [sp, #20]
 6246 0244 FFF7FEFF 		bl	chprintf
 6247              		.loc 7 1101 0
 6248 0248 C6E1     		b	.L412
 6249              	.L443:
 6250 024a 00BF     		.align	2
 6251              	.L442:
 6252 024c 00000000 		.word	__stack_chk_guard
 6253 0250 CC100000 		.word	.LC135
 6254 0254 00000000 		.word	SDCD1
 6255 0258 F0100000 		.word	.LC136
 6256 025c 10110000 		.word	.LC137
 6257 0260 20110000 		.word	.LC138
 6258 0264 2C110000 		.word	.LC139
 6259 0268 40110000 		.word	.LC140
 6260 026c 64110000 		.word	.LC141
 6261 0270 00000000 		.word	mode.13568
 6262 0274 88110000 		.word	.LC142
 6263 0278 98110000 		.word	.LC143
 6264 027c AC110000 		.word	.LC144
 6265 0280 B4110000 		.word	.LC145
 6266 0284 B8110000 		.word	.LC146
 6267 0288 00000000 		.word	buf
ARM GAS  C:\Users\Moi\AppData\Local\Temp\cchaECY7.s 			page 122


 6268 028c EC110000 		.word	.LC147
 6269 0290 08120000 		.word	.LC148
 6270 0294 3C120000 		.word	.LC149
 6271 0298 01000000 		.word	buf+1
 6272 029c 70120000 		.word	.LC150
 6273              	.L418:
 6274              		.loc 7 1103 0
 6275 02a0 069B     		ldr	r3, [sp, #24]
 6276 02a2 1033     		adds	r3, r3, #16
 6277 02a4 0693     		str	r3, [sp, #24]
 6278              		.loc 7 1104 0
 6279 02a6 0B99     		ldr	r1, [sp, #44]
 6280 02a8 0A98     		ldr	r0, [sp, #40]
 6281 02aa FFF7FEFF 		bl	chVTIsSystemTimeWithin
 6282 02ae 0346     		mov	r3, r0
 6283 02b0 002B     		cmp	r3, #0
 6284 02b2 BAD1     		bne	.L419
 6285              		.loc 7 1105 0
 6286 02b4 069B     		ldr	r3, [sp, #24]
 6287 02b6 5B02     		lsls	r3, r3, #9
 6288 02b8 069A     		ldr	r2, [sp, #24]
 6289 02ba A949     		ldr	r1, .L444
 6290 02bc 0598     		ldr	r0, [sp, #20]
 6291 02be FFF7FEFF 		bl	chprintf
 6292              	.L410:
 6293              		.loc 7 1109 0
 6294 02c2 039B     		ldr	r3, [sp, #12]
 6295 02c4 1B68     		ldr	r3, [r3]
 6296 02c6 A749     		ldr	r1, .L444+4
 6297 02c8 1846     		mov	r0, r3
 6298 02ca FFF7FEFF 		bl	strcmp
 6299 02ce 0346     		mov	r3, r0
 6300 02d0 002B     		cmp	r3, #0
 6301 02d2 09D0     		beq	.L420
 6302              		.loc 7 1110 0 discriminator 1
 6303 02d4 039B     		ldr	r3, [sp, #12]
 6304 02d6 1B68     		ldr	r3, [r3]
 6305 02d8 A349     		ldr	r1, .L444+8
 6306 02da 1846     		mov	r0, r3
 6307 02dc FFF7FEFF 		bl	strcmp
 6308 02e0 0346     		mov	r3, r0
 6309              		.loc 7 1109 0 discriminator 1
 6310 02e2 002B     		cmp	r3, #0
 6311 02e4 40F08180 		bne	.L421
 6312              	.L420:
 6313              	.LBB10:
 6314              		.loc 7 1113 0
 6315 02e8 4FF48062 		mov	r2, #1024
 6316 02ec AA21     		movs	r1, #170
 6317 02ee 9F48     		ldr	r0, .L444+12
 6318 02f0 FFF7FEFF 		bl	memset
 6319              		.loc 7 1114 0
 6320 02f4 9E49     		ldr	r1, .L444+16
 6321 02f6 0598     		ldr	r0, [sp, #20]
 6322 02f8 FFF7FEFF 		bl	chprintf
 6323              		.loc 7 1115 0
 6324 02fc 0223     		movs	r3, #2
ARM GAS  C:\Users\Moi\AppData\Local\Temp\cchaECY7.s 			page 123


 6325 02fe 9B4A     		ldr	r2, .L444+12
 6326 0300 0999     		ldr	r1, [sp, #36]
 6327 0302 9C48     		ldr	r0, .L444+20
 6328 0304 FFF7FEFF 		bl	sdcWrite
 6329 0308 0346     		mov	r3, r0
 6330 030a 002B     		cmp	r3, #0
 6331 030c 04D0     		beq	.L422
 6332              		.loc 7 1116 0
 6333 030e 9A49     		ldr	r1, .L444+24
 6334 0310 0598     		ldr	r0, [sp, #20]
 6335 0312 FFF7FEFF 		bl	chprintf
 6336              		.loc 7 1117 0
 6337 0316 5FE1     		b	.L412
 6338              	.L422:
 6339              		.loc 7 1119 0
 6340 0318 9849     		ldr	r1, .L444+28
 6341 031a 0598     		ldr	r0, [sp, #20]
 6342 031c FFF7FEFF 		bl	chprintf
 6343              		.loc 7 1121 0
 6344 0320 4FF48062 		mov	r2, #1024
 6345 0324 5521     		movs	r1, #85
 6346 0326 9148     		ldr	r0, .L444+12
 6347 0328 FFF7FEFF 		bl	memset
 6348              		.loc 7 1122 0
 6349 032c 9449     		ldr	r1, .L444+32
 6350 032e 0598     		ldr	r0, [sp, #20]
 6351 0330 FFF7FEFF 		bl	chprintf
 6352              		.loc 7 1123 0
 6353 0334 8F4B     		ldr	r3, .L444+20
 6354 0336 1B68     		ldr	r3, [r3]
 6355 0338 1C69     		ldr	r4, [r3, #16]
 6356 033a 0123     		movs	r3, #1
 6357 033c 8B4A     		ldr	r2, .L444+12
 6358 033e 0999     		ldr	r1, [sp, #36]
 6359 0340 8C48     		ldr	r0, .L444+20
 6360 0342 A047     		blx	r4
 6361              	.LVL11:
 6362 0344 0346     		mov	r3, r0
 6363 0346 002B     		cmp	r3, #0
 6364 0348 04D0     		beq	.L423
 6365              		.loc 7 1124 0
 6366 034a 8B49     		ldr	r1, .L444+24
 6367 034c 0598     		ldr	r0, [sp, #20]
 6368 034e FFF7FEFF 		bl	chprintf
 6369              		.loc 7 1125 0
 6370 0352 41E1     		b	.L412
 6371              	.L423:
 6372              		.loc 7 1127 0
 6373 0354 8949     		ldr	r1, .L444+28
 6374 0356 0598     		ldr	r0, [sp, #20]
 6375 0358 FFF7FEFF 		bl	chprintf
 6376              		.loc 7 1129 0
 6377 035c 0023     		movs	r3, #0
 6378 035e 0793     		str	r3, [sp, #28]
 6379 0360 0BE0     		b	.L424
 6380              	.L425:
 6381              		.loc 7 1130 0 discriminator 3
ARM GAS  C:\Users\Moi\AppData\Local\Temp\cchaECY7.s 			page 124


 6382 0362 079B     		ldr	r3, [sp, #28]
 6383 0364 DBB2     		uxtb	r3, r3
 6384 0366 0833     		adds	r3, r3, #8
 6385 0368 D9B2     		uxtb	r1, r3
 6386 036a 804A     		ldr	r2, .L444+12
 6387 036c 079B     		ldr	r3, [sp, #28]
 6388 036e 1344     		add	r3, r3, r2
 6389 0370 0A46     		mov	r2, r1
 6390 0372 1A70     		strb	r2, [r3]
 6391              		.loc 7 1129 0 discriminator 3
 6392 0374 079B     		ldr	r3, [sp, #28]
 6393 0376 0133     		adds	r3, r3, #1
 6394 0378 0793     		str	r3, [sp, #28]
 6395              	.L424:
 6396              		.loc 7 1129 0 is_stmt 0 discriminator 1
 6397 037a 079B     		ldr	r3, [sp, #28]
 6398 037c B3F5007F 		cmp	r3, #512
 6399 0380 EFD3     		bcc	.L425
 6400              		.loc 7 1131 0 is_stmt 1
 6401 0382 7B49     		ldr	r1, .L444+16
 6402 0384 0598     		ldr	r0, [sp, #20]
 6403 0386 FFF7FEFF 		bl	chprintf
 6404              		.loc 7 1132 0
 6405 038a 0223     		movs	r3, #2
 6406 038c 774A     		ldr	r2, .L444+12
 6407 038e 0999     		ldr	r1, [sp, #36]
 6408 0390 7848     		ldr	r0, .L444+20
 6409 0392 FFF7FEFF 		bl	sdcWrite
 6410 0396 0346     		mov	r3, r0
 6411 0398 002B     		cmp	r3, #0
 6412 039a 04D0     		beq	.L426
 6413              		.loc 7 1133 0
 6414 039c 7649     		ldr	r1, .L444+24
 6415 039e 0598     		ldr	r0, [sp, #20]
 6416 03a0 FFF7FEFF 		bl	chprintf
 6417              		.loc 7 1134 0
 6418 03a4 18E1     		b	.L412
 6419              	.L426:
 6420              		.loc 7 1136 0
 6421 03a6 7549     		ldr	r1, .L444+28
 6422 03a8 0598     		ldr	r0, [sp, #20]
 6423 03aa FFF7FEFF 		bl	chprintf
 6424              		.loc 7 1138 0
 6425 03ae 4FF48062 		mov	r2, #1024
 6426 03b2 0021     		movs	r1, #0
 6427 03b4 6D48     		ldr	r0, .L444+12
 6428 03b6 FFF7FEFF 		bl	memset
 6429              		.loc 7 1139 0
 6430 03ba 7149     		ldr	r1, .L444+32
 6431 03bc 0598     		ldr	r0, [sp, #20]
 6432 03be FFF7FEFF 		bl	chprintf
 6433              		.loc 7 1140 0
 6434 03c2 6C4B     		ldr	r3, .L444+20
 6435 03c4 1B68     		ldr	r3, [r3]
 6436 03c6 1C69     		ldr	r4, [r3, #16]
 6437 03c8 0123     		movs	r3, #1
 6438 03ca 684A     		ldr	r2, .L444+12
ARM GAS  C:\Users\Moi\AppData\Local\Temp\cchaECY7.s 			page 125


 6439 03cc 0999     		ldr	r1, [sp, #36]
 6440 03ce 6948     		ldr	r0, .L444+20
 6441 03d0 A047     		blx	r4
 6442              	.LVL12:
 6443 03d2 0346     		mov	r3, r0
 6444 03d4 002B     		cmp	r3, #0
 6445 03d6 04D0     		beq	.L427
 6446              		.loc 7 1141 0
 6447 03d8 6749     		ldr	r1, .L444+24
 6448 03da 0598     		ldr	r0, [sp, #20]
 6449 03dc FFF7FEFF 		bl	chprintf
 6450              		.loc 7 1142 0
 6451 03e0 FAE0     		b	.L412
 6452              	.L427:
 6453              		.loc 7 1144 0
 6454 03e2 6649     		ldr	r1, .L444+28
 6455 03e4 0598     		ldr	r0, [sp, #20]
 6456 03e6 FFF7FEFF 		bl	chprintf
 6457              	.L421:
 6458              	.LBE10:
 6459              		.loc 7 1147 0
 6460 03ea 039B     		ldr	r3, [sp, #12]
 6461 03ec 1B68     		ldr	r3, [r3]
 6462 03ee 6549     		ldr	r1, .L444+36
 6463 03f0 1846     		mov	r0, r3
 6464 03f2 FFF7FEFF 		bl	strcmp
 6465 03f6 0346     		mov	r3, r0
 6466 03f8 002B     		cmp	r3, #0
 6467 03fa 09D0     		beq	.L428
 6468              		.loc 7 1148 0 discriminator 1
 6469 03fc 039B     		ldr	r3, [sp, #12]
 6470 03fe 1B68     		ldr	r3, [r3]
 6471 0400 5949     		ldr	r1, .L444+8
 6472 0402 1846     		mov	r0, r3
 6473 0404 FFF7FEFF 		bl	strcmp
 6474 0408 0346     		mov	r3, r0
 6475              		.loc 7 1147 0 discriminator 1
 6476 040a 002B     		cmp	r3, #0
 6477 040c 40F0E380 		bne	.L441
 6478              	.L428:
 6479              	.LBB11:
 6480              		.loc 7 1161 0
 6481 0410 4FF48062 		mov	r2, #1024
 6482 0414 0021     		movs	r1, #0
 6483 0416 5548     		ldr	r0, .L444+12
 6484 0418 FFF7FEFF 		bl	memset
 6485              		.loc 7 1162 0
 6486 041c 4FF48062 		mov	r2, #1024
 6487 0420 0021     		movs	r1, #0
 6488 0422 5948     		ldr	r0, .L444+40
 6489 0424 FFF7FEFF 		bl	memset
 6490              		.loc 7 1164 0
 6491 0428 0023     		movs	r3, #0
 6492 042a 0893     		str	r3, [sp, #32]
 6493              		.loc 7 1165 0
 6494 042c 13E0     		b	.L429
 6495              	.L430:
ARM GAS  C:\Users\Moi\AppData\Local\Temp\cchaECY7.s 			page 126


 6496              		.loc 7 1166 0 discriminator 2
 6497 042e 089B     		ldr	r3, [sp, #32]
 6498 0430 DA1D     		adds	r2, r3, #7
 6499 0432 9308     		lsrs	r3, r2, #2
 6500 0434 5549     		ldr	r1, .L444+44
 6501 0436 A1FB0313 		umull	r1, r3, r1, r3
 6502 043a 9B08     		lsrs	r3, r3, #2
 6503 043c 5421     		movs	r1, #84
 6504 043e 01FB03F3 		mul	r3, r1, r3
 6505 0442 D31A     		subs	r3, r2, r3
 6506 0444 D9B2     		uxtb	r1, r3
 6507 0446 494A     		ldr	r2, .L444+12
 6508 0448 089B     		ldr	r3, [sp, #32]
 6509 044a 1344     		add	r3, r3, r2
 6510 044c 0A46     		mov	r2, r1
 6511 044e 1A70     		strb	r2, [r3]
 6512              		.loc 7 1165 0 discriminator 2
 6513 0450 089B     		ldr	r3, [sp, #32]
 6514 0452 0133     		adds	r3, r3, #1
 6515 0454 0893     		str	r3, [sp, #32]
 6516              	.L429:
 6517              		.loc 7 1165 0 is_stmt 0 discriminator 1
 6518 0456 089B     		ldr	r3, [sp, #32]
 6519 0458 B3F5806F 		cmp	r3, #1024
 6520 045c E7D3     		bcc	.L430
 6521              		.loc 7 1169 0 is_stmt 1
 6522 045e 0223     		movs	r3, #2
 6523 0460 424A     		ldr	r2, .L444+12
 6524 0462 0999     		ldr	r1, [sp, #36]
 6525 0464 4348     		ldr	r0, .L444+20
 6526 0466 FFF7FEFF 		bl	sdcWrite
 6527 046a 0346     		mov	r3, r0
 6528 046c 002B     		cmp	r3, #0
 6529 046e 04D0     		beq	.L431
 6530              		.loc 7 1170 0
 6531 0470 4749     		ldr	r1, .L444+48
 6532 0472 0598     		ldr	r0, [sp, #20]
 6533 0474 FFF7FEFF 		bl	chprintf
 6534              		.loc 7 1171 0
 6535 0478 AEE0     		b	.L412
 6536              	.L431:
 6537              		.loc 7 1174 0
 6538 047a 099B     		ldr	r3, [sp, #36]
 6539 047c 591C     		adds	r1, r3, #1
 6540 047e 099B     		ldr	r3, [sp, #36]
 6541 0480 0233     		adds	r3, r3, #2
 6542 0482 1A46     		mov	r2, r3
 6543 0484 3B48     		ldr	r0, .L444+20
 6544 0486 FFF7FEFF 		bl	sdcErase
 6545 048a 0346     		mov	r3, r0
 6546 048c 002B     		cmp	r3, #0
 6547 048e 04D0     		beq	.L432
 6548              		.loc 7 1175 0
 6549 0490 4049     		ldr	r1, .L444+52
 6550 0492 0598     		ldr	r0, [sp, #20]
 6551 0494 FFF7FEFF 		bl	chprintf
 6552              		.loc 7 1176 0
ARM GAS  C:\Users\Moi\AppData\Local\Temp\cchaECY7.s 			page 127


 6553 0498 9EE0     		b	.L412
 6554              	.L432:
 6555              		.loc 7 1178 0
 6556 049a 3648     		ldr	r0, .L444+20
 6557 049c FFF7FEFF 		bl	sdcGetAndClearErrors
 6558 04a0 0C90     		str	r0, [sp, #48]
 6559              		.loc 7 1179 0
 6560 04a2 0C9B     		ldr	r3, [sp, #48]
 6561 04a4 002B     		cmp	r3, #0
 6562 04a6 05D0     		beq	.L433
 6563              		.loc 7 1180 0
 6564 04a8 0C9A     		ldr	r2, [sp, #48]
 6565 04aa 3B49     		ldr	r1, .L444+56
 6566 04ac 0598     		ldr	r0, [sp, #20]
 6567 04ae FFF7FEFF 		bl	chprintf
 6568              		.loc 7 1181 0
 6569 04b2 91E0     		b	.L412
 6570              	.L433:
 6571              		.loc 7 1183 0
 6572 04b4 0223     		movs	r3, #2
 6573 04b6 344A     		ldr	r2, .L444+40
 6574 04b8 0999     		ldr	r1, [sp, #36]
 6575 04ba 2E48     		ldr	r0, .L444+20
 6576 04bc FFF7FEFF 		bl	sdcRead
 6577 04c0 0346     		mov	r3, r0
 6578 04c2 002B     		cmp	r3, #0
 6579 04c4 04D0     		beq	.L434
 6580              		.loc 7 1184 0
 6581 04c6 3549     		ldr	r1, .L444+60
 6582 04c8 0598     		ldr	r0, [sp, #20]
 6583 04ca FFF7FEFF 		bl	chprintf
 6584              		.loc 7 1185 0
 6585 04ce 83E0     		b	.L412
 6586              	.L434:
 6587              		.loc 7 1188 0
 6588 04d0 4FF40072 		mov	r2, #512
 6589 04d4 2C49     		ldr	r1, .L444+40
 6590 04d6 2548     		ldr	r0, .L444+12
 6591 04d8 FFF7FEFF 		bl	memcmp
 6592 04dc 0346     		mov	r3, r0
 6593 04de 002B     		cmp	r3, #0
 6594 04e0 04D0     		beq	.L435
 6595              		.loc 7 1189 0
 6596 04e2 2F49     		ldr	r1, .L444+64
 6597 04e4 0598     		ldr	r0, [sp, #20]
 6598 04e6 FFF7FEFF 		bl	chprintf
 6599              		.loc 7 1190 0
 6600 04ea 75E0     		b	.L412
 6601              	.L435:
 6602              		.loc 7 1193 0
 6603 04ec 2D4B     		ldr	r3, .L444+68
 6604 04ee 2E49     		ldr	r1, .L444+72
 6605 04f0 4FF40072 		mov	r2, #512
 6606 04f4 1846     		mov	r0, r3
 6607 04f6 FFF7FEFF 		bl	memcmp
 6608 04fa 0346     		mov	r3, r0
 6609 04fc 002B     		cmp	r3, #0
ARM GAS  C:\Users\Moi\AppData\Local\Temp\cchaECY7.s 			page 128


 6610 04fe 04D1     		bne	.L436
 6611              		.loc 7 1195 0
 6612 0500 2A49     		ldr	r1, .L444+76
 6613 0502 0598     		ldr	r0, [sp, #20]
 6614 0504 FFF7FEFF 		bl	chprintf
 6615              		.loc 7 1196 0
 6616 0508 66E0     		b	.L412
 6617              	.L436:
 6618              		.loc 7 1199 0
 6619 050a 099B     		ldr	r3, [sp, #36]
 6620 050c 0233     		adds	r3, r3, #2
 6621 050e 1A46     		mov	r2, r3
 6622 0510 0999     		ldr	r1, [sp, #36]
 6623 0512 1848     		ldr	r0, .L444+20
 6624 0514 FFF7FEFF 		bl	sdcErase
 6625 0518 0346     		mov	r3, r0
 6626 051a 002B     		cmp	r3, #0
 6627 051c 04D0     		beq	.L437
 6628              		.loc 7 1200 0
 6629 051e 2449     		ldr	r1, .L444+80
 6630 0520 0598     		ldr	r0, [sp, #20]
 6631 0522 FFF7FEFF 		bl	chprintf
 6632              		.loc 7 1201 0
 6633 0526 57E0     		b	.L412
 6634              	.L437:
 6635              		.loc 7 1203 0
 6636 0528 0223     		movs	r3, #2
 6637 052a 174A     		ldr	r2, .L444+40
 6638 052c 0999     		ldr	r1, [sp, #36]
 6639 052e 1148     		ldr	r0, .L444+20
 6640 0530 FFF7FEFF 		bl	sdcRead
 6641 0534 0346     		mov	r3, r0
 6642 0536 002B     		cmp	r3, #0
 6643 0538 04D0     		beq	.L438
 6644              		.loc 7 1204 0
 6645 053a 1849     		ldr	r1, .L444+60
 6646 053c 0598     		ldr	r0, [sp, #20]
 6647 053e FFF7FEFF 		bl	chprintf
 6648              		.loc 7 1205 0
 6649 0542 49E0     		b	.L412
 6650              	.L438:
 6651              		.loc 7 1208 0
 6652 0544 4FF40072 		mov	r2, #512
 6653 0548 0F49     		ldr	r1, .L444+40
 6654 054a 0848     		ldr	r0, .L444+12
 6655 054c FFF7FEFF 		bl	memcmp
 6656 0550 0346     		mov	r3, r0
 6657 0552 002B     		cmp	r3, #0
 6658 0554 30D1     		bne	.L439
 6659              		.loc 7 1209 0
 6660 0556 1749     		ldr	r1, .L444+84
 6661 0558 0598     		ldr	r0, [sp, #20]
 6662 055a FFF7FEFF 		bl	chprintf
 6663              		.loc 7 1210 0
 6664 055e 3BE0     		b	.L412
 6665              	.L445:
 6666              		.align	2
ARM GAS  C:\Users\Moi\AppData\Local\Temp\cchaECY7.s 			page 129


 6667              	.L444:
 6668 0560 EC110000 		.word	.LC147
 6669 0564 A4120000 		.word	.LC151
 6670 0568 B4110000 		.word	.LC145
 6671 056c 00000000 		.word	buf
 6672 0570 AC120000 		.word	.LC152
 6673 0574 00000000 		.word	SDCD1
 6674 0578 20110000 		.word	.LC138
 6675 057c B8120000 		.word	.LC153
 6676 0580 C0120000 		.word	.LC154
 6677 0584 CC120000 		.word	.LC155
 6678 0588 00000000 		.word	buf2
 6679 058c 310CC330 		.word	818089009
 6680 0590 D4120000 		.word	.LC156
 6681 0594 F4120000 		.word	.LC157
 6682 0598 08130000 		.word	.LC158
 6683 059c 30130000 		.word	.LC159
 6684 05a0 54130000 		.word	.LC160
 6685 05a4 00020000 		.word	buf+512
 6686 05a8 00020000 		.word	buf2+512
 6687 05ac 84130000 		.word	.LC161
 6688 05b0 B0130000 		.word	.LC162
 6689 05b4 D0130000 		.word	.LC163
 6690              	.L439:
 6691              		.loc 7 1212 0
 6692 05b8 0D4B     		ldr	r3, .L446
 6693 05ba 0E49     		ldr	r1, .L446+4
 6694 05bc 4FF40072 		mov	r2, #512
 6695 05c0 1846     		mov	r0, r3
 6696 05c2 FFF7FEFF 		bl	memcmp
 6697 05c6 0346     		mov	r3, r0
 6698 05c8 002B     		cmp	r3, #0
 6699 05ca 04D1     		bne	.L441
 6700              		.loc 7 1214 0
 6701 05cc 0A49     		ldr	r1, .L446+8
 6702 05ce 0598     		ldr	r0, [sp, #20]
 6703 05d0 FFF7FEFF 		bl	chprintf
 6704              		.loc 7 1215 0
 6705 05d4 00E0     		b	.L412
 6706              	.L441:
 6707              	.LBE11:
 6708              		.loc 7 1221 0
 6709 05d6 00BF     		nop
 6710              	.L412:
 6711              		.loc 7 1222 0
 6712 05d8 0848     		ldr	r0, .L446+12
 6713 05da FFF7FEFF 		bl	sdcDisconnect
 6714              	.L404:
 6715              		.loc 7 1223 0
 6716 05de 084B     		ldr	r3, .L446+16
 6717 05e0 0D9A     		ldr	r2, [sp, #52]
 6718 05e2 1B68     		ldr	r3, [r3]
 6719 05e4 9A42     		cmp	r2, r3
 6720 05e6 01D0     		beq	.L440
 6721 05e8 FFF7FEFF 		bl	__stack_chk_fail
 6722              	.L440:
 6723 05ec 0EB0     		add	sp, sp, #56
ARM GAS  C:\Users\Moi\AppData\Local\Temp\cchaECY7.s 			page 130


 6724              		.cfi_def_cfa_offset 8
 6725              		@ sp needed
 6726 05ee 10BD     		pop	{r4, pc}
 6727              	.L447:
 6728              		.align	2
 6729              	.L446:
 6730 05f0 00020000 		.word	buf+512
 6731 05f4 00020000 		.word	buf2+512
 6732 05f8 D0130000 		.word	.LC163
 6733 05fc 00000000 		.word	SDCD1
 6734 0600 00000000 		.word	__stack_chk_guard
 6735              		.cfi_endproc
 6736              	.LFE307:
 6737              		.size	cmd_sdc, .-cmd_sdc
 6738              		.global	shell_commands
 6739              		.section	.rodata
 6740 1405 000000   		.align	2
 6741              	.LC164:
 6742 1408 6D6F756E 		.ascii	"mount\000"
 6742      7400
 6743 140e 0000     		.align	2
 6744              	.LC165:
 6745 1410 756E6D6F 		.ascii	"unmount\000"
 6745      756E7400 
 6746              		.align	2
 6747              	.LC166:
 6748 1418 6765746C 		.ascii	"getlabel\000"
 6748      6162656C 
 6748      00
 6749 1421 000000   		.align	2
 6750              	.LC167:
 6751 1424 7365746C 		.ascii	"setlabel\000"
 6751      6162656C 
 6751      00
 6752 142d 000000   		.align	2
 6753              	.LC168:
 6754 1430 74726565 		.ascii	"tree\000"
 6754      00
 6755 1435 000000   		.align	2
 6756              	.LC169:
 6757 1438 66726565 		.ascii	"free\000"
 6757      00
 6758 143d 000000   		.align	2
 6759              	.LC170:
 6760 1440 6D6B6469 		.ascii	"mkdir\000"
 6760      7200
 6761 1446 0000     		.align	2
 6762              	.LC171:
 6763 1448 68656C6C 		.ascii	"hello\000"
 6763      6F00
 6764 144e 0000     		.align	2
 6765              	.LC172:
 6766 1450 63617400 		.ascii	"cat\000"
 6767              		.align	2
 6768              	.LC173:
 6769 1454 73665F70 		.ascii	"sf_play\000"
 6769      6C617900 
ARM GAS  C:\Users\Moi\AppData\Local\Temp\cchaECY7.s 			page 131


 6770              		.align	2
 6771              	.LC174:
 6772 145c 73665F73 		.ascii	"sf_stop\000"
 6772      746F7000 
 6773              		.align	2
 6774              	.LC175:
 6775 1464 73665F76 		.ascii	"sf_volume\000"
 6775      6F6C756D 
 6775      6500
 6776 146e 0000     		.align	2
 6777              	.LC176:
 6778 1470 6D6C5F70 		.ascii	"ml_play\000"
 6778      6C617900 
 6779              		.align	2
 6780              	.LC177:
 6781 1478 6D6C5F73 		.ascii	"ml_stop\000"
 6781      746F7000 
 6782              		.align	2
 6783              	.LC178:
 6784 1480 6D656D00 		.ascii	"mem\000"
 6785              		.align	2
 6786              	.LC179:
 6787 1484 74687265 		.ascii	"threads\000"
 6787      61647300 
 6788              		.align	2
 6789              	.LC180:
 6790 148c 74657374 		.ascii	"test\000"
 6790      00
 6791 1491 000000   		.align	2
 6792              	.LC181:
 6793 1494 636C6F63 		.ascii	"clock\000"
 6793      6B00
 6794 149a 0000     		.align	2
 6795              	.LC182:
 6796 149c 73717274 		.ascii	"sqrt\000"
 6796      00
 6797 14a1 000000   		.align	2
 6798              	.LC183:
 6799 14a4 6174616E 		.ascii	"atan2\000"
 6799      3200
 6800 14aa 0000     		.align	2
 6801              	.LC184:
 6802 14ac 636F6E66 		.ascii	"config_tree\000"
 6802      69675F74 
 6802      72656500 
 6803              		.align	2
 6804              	.LC185:
 6805 14b8 636F6E66 		.ascii	"config_set\000"
 6805      69675F73 
 6805      657400
 6806 14c3 00       		.align	2
 6807              	.LC186:
 6808 14c4 636F6E66 		.ascii	"config_save\000"
 6808      69675F73 
 6808      61766500 
 6809              		.align	2
 6810              	.LC187:
ARM GAS  C:\Users\Moi\AppData\Local\Temp\cchaECY7.s 			page 132


 6811 14d0 636F6E66 		.ascii	"config_load\000"
 6811      69675F6C 
 6811      6F616400 
 6812              		.align	2
 6813              	.LC188:
 6814 14dc 636F6E66 		.ascii	"config_erase\000"
 6814      69675F65 
 6814      72617365 
 6814      00
 6815 14e9 000000   		.align	2
 6816              	.LC189:
 6817 14ec 63616D5F 		.ascii	"cam_brightness\000"
 6817      62726967 
 6817      68746E65 
 6817      737300
 6818 14fb 00       		.align	2
 6819              	.LC190:
 6820 14fc 63616D5F 		.ascii	"cam_contrast\000"
 6820      636F6E74 
 6820      72617374 
 6820      00
 6821 1509 000000   		.align	2
 6822              	.LC191:
 6823 150c 63616D5F 		.ascii	"cam_conf1\000"
 6823      636F6E66 
 6823      3100
 6824 1516 0000     		.align	2
 6825              	.LC192:
 6826 1518 63616D5F 		.ascii	"cam_conf2\000"
 6826      636F6E66 
 6826      3200
 6827 1522 0000     		.align	2
 6828              	.LC193:
 6829 1524 63616D5F 		.ascii	"cam_mirror\000"
 6829      6D697272 
 6829      6F7200
 6830 152f 00       		.align	2
 6831              	.LC194:
 6832 1530 63616D5F 		.ascii	"cam_gain\000"
 6832      6761696E 
 6832      00
 6833 1539 000000   		.align	2
 6834              	.LC195:
 6835 153c 63616D5F 		.ascii	"cam_awb\000"
 6835      61776200 
 6836              		.align	2
 6837              	.LC196:
 6838 1544 63616D5F 		.ascii	"cam_ae\000"
 6838      616500
 6839 154b 00       		.align	2
 6840              	.LC197:
 6841 154c 63616D5F 		.ascii	"cam_exposure\000"
 6841      6578706F 
 6841      73757265 
 6841      00
 6842 1559 000000   		.align	2
 6843              	.LC198:
ARM GAS  C:\Users\Moi\AppData\Local\Temp\cchaECY7.s 			page 133


 6844 155c 63616D5F 		.ascii	"cam_dcmi_prepare\000"
 6844      64636D69 
 6844      5F707265 
 6844      70617265 
 6844      00
 6845 156d 000000   		.align	2
 6846              	.LC199:
 6847 1570 63616D5F 		.ascii	"cam_dcmi_unprepare\000"
 6847      64636D69 
 6847      5F756E70 
 6847      72657061 
 6847      726500
 6848 1583 00       		.align	2
 6849              	.LC200:
 6850 1584 63616D5F 		.ascii	"cam_capture\000"
 6850      63617074 
 6850      75726500 
 6851              		.align	2
 6852              	.LC201:
 6853 1590 63616D5F 		.ascii	"cam_send\000"
 6853      73656E64 
 6853      00
 6854 1599 000000   		.align	2
 6855              	.LC202:
 6856 159c 7365745F 		.ascii	"set_led\000"
 6856      6C656400 
 6857              		.align	2
 6858              	.LC203:
 6859 15a4 7365745F 		.ascii	"set_speed\000"
 6859      73706565 
 6859      6400
 6860 15ae 0000     		.align	2
 6861              	.LC204:
 6862 15b0 62617474 		.ascii	"batt\000"
 6862      00
 6863 15b5 000000   		.align	2
 6864              	.LC205:
 6865 15b8 61756469 		.ascii	"audio_play\000"
 6865      6F5F706C 
 6865      617900
 6866 15c3 00       		.align	2
 6867              	.LC206:
 6868 15c4 61756469 		.ascii	"audio_stop\000"
 6868      6F5F7374 
 6868      6F7000
 6869 15cf 00       		.align	2
 6870              	.LC207:
 6871 15d0 766F6C75 		.ascii	"volume\000"
 6871      6D6500
 6872 15d7 00       		.align	2
 6873              	.LC208:
 6874 15d8 6D69635F 		.ascii	"mic_data\000"
 6874      64617461 
 6874      00
 6875 15e1 000000   		.align	2
 6876              	.LC209:
 6877 15e4 73646300 		.ascii	"sdc\000"
ARM GAS  C:\Users\Moi\AppData\Local\Temp\cchaECY7.s 			page 134


 6878              		.section	.rodata.shell_commands,"a",%progbits
 6879              		.align	2
 6880              		.type	shell_commands, %object
 6881              		.size	shell_commands, 392
 6882              	shell_commands:
 6883 0000 08140000 		.word	.LC164
 6884 0004 00000000 		.word	cmd_mount
 6885 0008 10140000 		.word	.LC165
 6886 000c 00000000 		.word	cmd_unmount
 6887 0010 18140000 		.word	.LC166
 6888 0014 00000000 		.word	cmd_getlabel
 6889 0018 24140000 		.word	.LC167
 6890 001c 00000000 		.word	cmd_setlabel
 6891 0020 30140000 		.word	.LC168
 6892 0024 00000000 		.word	cmd_tree
 6893 0028 38140000 		.word	.LC169
 6894 002c 00000000 		.word	cmd_free
 6895 0030 40140000 		.word	.LC170
 6896 0034 00000000 		.word	cmd_mkdir
 6897 0038 48140000 		.word	.LC171
 6898 003c 00000000 		.word	cmd_hello
 6899 0040 50140000 		.word	.LC172
 6900 0044 00000000 		.word	cmd_cat
 6901 0048 54140000 		.word	.LC173
 6902 004c 00000000 		.word	cmd_sound_file_play
 6903 0050 5C140000 		.word	.LC174
 6904 0054 00000000 		.word	cmd_sound_file_stop
 6905 0058 64140000 		.word	.LC175
 6906 005c 00000000 		.word	cmd_sound_file_volume
 6907 0060 70140000 		.word	.LC176
 6908 0064 00000000 		.word	cmd_melody_play
 6909 0068 78140000 		.word	.LC177
 6910 006c 00000000 		.word	cmd_melody_stop
 6911 0070 80140000 		.word	.LC178
 6912 0074 00000000 		.word	cmd_mem
 6913 0078 84140000 		.word	.LC179
 6914 007c 00000000 		.word	cmd_threads
 6915 0080 80140000 		.word	.LC178
 6916 0084 00000000 		.word	cmd_mem
 6917 0088 84140000 		.word	.LC179
 6918 008c 00000000 		.word	cmd_threads
 6919 0090 8C140000 		.word	.LC180
 6920 0094 00000000 		.word	cmd_test
 6921 0098 94140000 		.word	.LC181
 6922 009c 00000000 		.word	cmd_readclock
 6923 00a0 9C140000 		.word	.LC182
 6924 00a4 00000000 		.word	cmd_sqrt
 6925 00a8 A4140000 		.word	.LC183
 6926 00ac 00000000 		.word	cmd_atan2
 6927 00b0 AC140000 		.word	.LC184
 6928 00b4 00000000 		.word	cmd_config_tree
 6929 00b8 B8140000 		.word	.LC185
 6930 00bc 00000000 		.word	cmd_config_set
 6931 00c0 C4140000 		.word	.LC186
 6932 00c4 00000000 		.word	cmd_config_save
 6933 00c8 D0140000 		.word	.LC187
 6934 00cc 00000000 		.word	cmd_config_load
ARM GAS  C:\Users\Moi\AppData\Local\Temp\cchaECY7.s 			page 135


 6935 00d0 DC140000 		.word	.LC188
 6936 00d4 00000000 		.word	cmd_config_erase
 6937 00d8 EC140000 		.word	.LC189
 6938 00dc 00000000 		.word	cmd_cam_set_brightness
 6939 00e0 FC140000 		.word	.LC190
 6940 00e4 00000000 		.word	cmd_cam_set_contrast
 6941 00e8 0C150000 		.word	.LC191
 6942 00ec 00000000 		.word	cmd_cam_set_conf1
 6943 00f0 18150000 		.word	.LC192
 6944 00f4 00000000 		.word	cmd_cam_set_conf2
 6945 00f8 24150000 		.word	.LC193
 6946 00fc 00000000 		.word	cmd_cam_set_mirror
 6947 0100 30150000 		.word	.LC194
 6948 0104 00000000 		.word	cmd_cam_set_gain
 6949 0108 3C150000 		.word	.LC195
 6950 010c 00000000 		.word	cmd_cam_set_awb
 6951 0110 44150000 		.word	.LC196
 6952 0114 00000000 		.word	cmd_cam_set_ae
 6953 0118 4C150000 		.word	.LC197
 6954 011c 00000000 		.word	cmd_cam_set_exposure
 6955 0120 5C150000 		.word	.LC198
 6956 0124 00000000 		.word	cmd_cam_dcmi_prepare
 6957 0128 70150000 		.word	.LC199
 6958 012c 00000000 		.word	cmd_cam_dcmi_unprepare
 6959 0130 84150000 		.word	.LC200
 6960 0134 00000000 		.word	cmd_cam_capture
 6961 0138 90150000 		.word	.LC201
 6962 013c 00000000 		.word	cmd_cam_send
 6963 0140 9C150000 		.word	.LC202
 6964 0144 00000000 		.word	cmd_set_led
 6965 0148 A4150000 		.word	.LC203
 6966 014c 00000000 		.word	cmd_set_speed
 6967 0150 B0150000 		.word	.LC204
 6968 0154 00000000 		.word	cmd_get_battery
 6969 0158 B8150000 		.word	.LC205
 6970 015c 00000000 		.word	cmd_audio_play
 6971 0160 C4150000 		.word	.LC206
 6972 0164 00000000 		.word	cmd_audio_stop
 6973 0168 D0150000 		.word	.LC207
 6974 016c 00000000 		.word	cmd_volume
 6975 0170 D8150000 		.word	.LC208
 6976 0174 00000000 		.word	cmd_mic_data
 6977 0178 E4150000 		.word	.LC209
 6978 017c 00000000 		.word	cmd_sdc
 6979 0180 00000000 		.word	0
 6980 0184 00000000 		.word	0
 6981              		.section	.text.shell_spawn_thd,"ax",%progbits
 6982              		.align	1
 6983              		.p2align 4,,15
 6984              		.syntax unified
 6985              		.thumb
 6986              		.thumb_func
 6987              		.fpu fpv4-sp-d16
 6988              		.type	shell_spawn_thd, %function
 6989              	shell_spawn_thd:
 6990              	.LFB308:
 6991              		.loc 7 1278 0
ARM GAS  C:\Users\Moi\AppData\Local\Temp\cchaECY7.s 			page 136


 6992              		.cfi_startproc
 6993              		@ args = 0, pretend = 0, frame = 16
 6994              		@ frame_needed = 0, uses_anonymous_args = 0
 6995 0000 00B5     		push	{lr}
 6996              		.cfi_def_cfa_offset 4
 6997              		.cfi_offset 14, -4
 6998 0002 85B0     		sub	sp, sp, #20
 6999              		.cfi_def_cfa_offset 24
 7000 0004 0190     		str	r0, [sp, #4]
 7001              		.loc 7 1278 0
 7002 0006 144B     		ldr	r3, .L454
 7003 0008 1B68     		ldr	r3, [r3]
 7004 000a 0393     		str	r3, [sp, #12]
 7005              		.loc 7 1280 0
 7006 000c 0023     		movs	r3, #0
 7007 000e 0293     		str	r3, [sp, #8]
 7008              		.loc 7 1287 0
 7009 0010 FFF7FEFF 		bl	shellInit
 7010              	.L452:
 7011              		.loc 7 1290 0
 7012 0014 029B     		ldr	r3, [sp, #8]
 7013 0016 002B     		cmp	r3, #0
 7014 0018 0ED1     		bne	.L449
 7015              		.loc 7 1291 0
 7016 001a 104B     		ldr	r3, .L454+4
 7017 001c D3F85432 		ldr	r3, [r3, #596]
 7018 0020 1B68     		ldr	r3, [r3]
 7019 0022 1B78     		ldrb	r3, [r3]	@ zero_extendqisi2
 7020 0024 042B     		cmp	r3, #4
 7021 0026 12D1     		bne	.L451
 7022              		.loc 7 1292 0
 7023 0028 4022     		movs	r2, #64
 7024 002a 40F67811 		movw	r1, #2424
 7025 002e 0C48     		ldr	r0, .L454+8
 7026 0030 FFF7FEFF 		bl	shellCreate
 7027 0034 0290     		str	r0, [sp, #8]
 7028 0036 0AE0     		b	.L451
 7029              	.L449:
 7030              		.loc 7 1295 0
 7031 0038 0298     		ldr	r0, [sp, #8]
 7032 003a FFF7FEFF 		bl	chThdTerminatedX
 7033 003e 0346     		mov	r3, r0
 7034 0040 002B     		cmp	r3, #0
 7035 0042 04D0     		beq	.L451
 7036              		.loc 7 1296 0
 7037 0044 0298     		ldr	r0, [sp, #8]
 7038 0046 FFF7FEFF 		bl	chThdRelease
 7039              		.loc 7 1297 0
 7040 004a 0023     		movs	r3, #0
 7041 004c 0293     		str	r3, [sp, #8]
 7042              	.L451:
 7043              		.loc 7 1300 0
 7044 004e 4FF4FA70 		mov	r0, #500
 7045 0052 FFF7FEFF 		bl	chThdSleep
 7046              		.loc 7 1290 0
 7047 0056 DDE7     		b	.L452
 7048              	.L455:
ARM GAS  C:\Users\Moi\AppData\Local\Temp\cchaECY7.s 			page 137


 7049              		.align	2
 7050              	.L454:
 7051 0058 00000000 		.word	__stack_chk_guard
 7052 005c 00000000 		.word	SDU1
 7053 0060 00000000 		.word	shell_cfg.13596
 7054              		.cfi_endproc
 7055              	.LFE308:
 7056              		.size	shell_spawn_thd, .-shell_spawn_thd
 7057              		.section	.text.shell_start,"ax",%progbits
 7058              		.align	1
 7059              		.p2align 4,,15
 7060              		.global	shell_start
 7061              		.syntax unified
 7062              		.thumb
 7063              		.thumb_func
 7064              		.fpu fpv4-sp-d16
 7065              		.type	shell_start, %function
 7066              	shell_start:
 7067              	.LFB309:
 7068              		.loc 7 1306 0
 7069              		.cfi_startproc
 7070              		@ args = 0, pretend = 0, frame = 8
 7071              		@ frame_needed = 0, uses_anonymous_args = 0
 7072 0000 00B5     		push	{lr}
 7073              		.cfi_def_cfa_offset 4
 7074              		.cfi_offset 14, -4
 7075 0002 85B0     		sub	sp, sp, #20
 7076              		.cfi_def_cfa_offset 24
 7077              		.loc 7 1306 0
 7078 0004 0B4B     		ldr	r3, .L458
 7079 0006 1B68     		ldr	r3, [r3]
 7080 0008 0393     		str	r3, [sp, #12]
 7081              		.loc 7 1309 0
 7082 000a 0023     		movs	r3, #0
 7083 000c 0093     		str	r3, [sp]
 7084 000e 0A4B     		ldr	r3, .L458+4
 7085 0010 4022     		movs	r2, #64
 7086 0012 40F67811 		movw	r1, #2424
 7087 0016 0948     		ldr	r0, .L458+8
 7088 0018 FFF7FEFF 		bl	chThdCreateStatic
 7089              		.loc 7 1310 0
 7090 001c 00BF     		nop
 7091 001e 054B     		ldr	r3, .L458
 7092 0020 039A     		ldr	r2, [sp, #12]
 7093 0022 1B68     		ldr	r3, [r3]
 7094 0024 9A42     		cmp	r2, r3
 7095 0026 01D0     		beq	.L457
 7096 0028 FFF7FEFF 		bl	__stack_chk_fail
 7097              	.L457:
 7098 002c 05B0     		add	sp, sp, #20
 7099              		.cfi_def_cfa_offset 4
 7100              		@ sp needed
 7101 002e 5DF804FB 		ldr	pc, [sp], #4
 7102              	.L459:
 7103 0032 00BF     		.align	2
 7104              	.L458:
 7105 0034 00000000 		.word	__stack_chk_guard
ARM GAS  C:\Users\Moi\AppData\Local\Temp\cchaECY7.s 			page 138


 7106 0038 00000000 		.word	shell_spawn_thd
 7107 003c 00000000 		.word	wa.13601
 7108              		.cfi_endproc
 7109              	.LFE309:
 7110              		.size	shell_start, .-shell_start
 7111              		.section	.rodata
 7112              		.align	2
 7113              	.LC210:
 7114 15e8 52454144 		.ascii	"READY\000"
 7114      5900
 7115 15ee 0000     		.align	2
 7116              	.LC211:
 7117 15f0 43555252 		.ascii	"CURRENT\000"
 7117      454E5400 
 7118              		.align	2
 7119              	.LC212:
 7120 15f8 57545354 		.ascii	"WTSTART\000"
 7120      41525400 
 7121              		.align	2
 7122              	.LC213:
 7123 1600 53555350 		.ascii	"SUSPENDED\000"
 7123      454E4445 
 7123      4400
 7124 160a 0000     		.align	2
 7125              	.LC214:
 7126 160c 51554555 		.ascii	"QUEUED\000"
 7126      454400
 7127 1613 00       		.align	2
 7128              	.LC215:
 7129 1614 57545345 		.ascii	"WTSEM\000"
 7129      4D00
 7130 161a 0000     		.align	2
 7131              	.LC216:
 7132 161c 57544D54 		.ascii	"WTMTX\000"
 7132      5800
 7133 1622 0000     		.align	2
 7134              	.LC217:
 7135 1624 5754434F 		.ascii	"WTCOND\000"
 7135      4E4400
 7136 162b 00       		.align	2
 7137              	.LC218:
 7138 162c 534C4545 		.ascii	"SLEEPING\000"
 7138      50494E47 
 7138      00
 7139 1635 000000   		.align	2
 7140              	.LC219:
 7141 1638 57544558 		.ascii	"WTEXIT\000"
 7141      495400
 7142 163f 00       		.align	2
 7143              	.LC220:
 7144 1640 57544F52 		.ascii	"WTOREVT\000"
 7144      45565400 
 7145              		.align	2
 7146              	.LC221:
 7147 1648 5754414E 		.ascii	"WTANDEVT\000"
 7147      44455654 
 7147      00
ARM GAS  C:\Users\Moi\AppData\Local\Temp\cchaECY7.s 			page 139


 7148 1651 000000   		.align	2
 7149              	.LC222:
 7150 1654 534E444D 		.ascii	"SNDMSGQ\000"
 7150      53475100 
 7151              		.align	2
 7152              	.LC223:
 7153 165c 534E444D 		.ascii	"SNDMSG\000"
 7153      534700
 7154 1663 00       		.align	2
 7155              	.LC224:
 7156 1664 57544D53 		.ascii	"WTMSG\000"
 7156      4700
 7157 166a 0000     		.align	2
 7158              	.LC225:
 7159 166c 46494E41 		.ascii	"FINAL\000"
 7159      4C00
 7160              		.section	.data.states.13326,"aw",%progbits
 7161              		.align	2
 7162              		.type	states.13326, %object
 7163              		.size	states.13326, 64
 7164              	states.13326:
 7165 0000 E8150000 		.word	.LC210
 7166 0004 F0150000 		.word	.LC211
 7167 0008 F8150000 		.word	.LC212
 7168 000c 00160000 		.word	.LC213
 7169 0010 0C160000 		.word	.LC214
 7170 0014 14160000 		.word	.LC215
 7171 0018 1C160000 		.word	.LC216
 7172 001c 24160000 		.word	.LC217
 7173 0020 2C160000 		.word	.LC218
 7174 0024 38160000 		.word	.LC219
 7175 0028 40160000 		.word	.LC220
 7176 002c 48160000 		.word	.LC221
 7177 0030 54160000 		.word	.LC222
 7178 0034 5C160000 		.word	.LC223
 7179 0038 64160000 		.word	.LC224
 7180 003c 6C160000 		.word	.LC225
 7181              		.section	.rodata.__func__.8875,"a",%progbits
 7182              		.align	2
 7183              		.type	__func__.8875, %object
 7184              		.size	__func__.8875, 12
 7185              	__func__.8875:
 7186 0000 63685379 		.ascii	"chSysUnlock\000"
 7186      73556E6C 
 7186      6F636B00 
 7187              		.section	.rodata
 7188 1672 0000     		.align	2
 7189              	.LC226:
 7190 1674 53445631 		.ascii	"SDV11\000"
 7190      3100
 7191 167a 0000     		.align	2
 7192              	.LC227:
 7193 167c 53445632 		.ascii	"SDV20\000"
 7193      3000
 7194 1682 0000     		.align	2
 7195              	.LC228:
 7196 1684 4D4D4300 		.ascii	"MMC\000"
ARM GAS  C:\Users\Moi\AppData\Local\Temp\cchaECY7.s 			page 140


 7197              		.section	.data.mode.13568,"aw",%progbits
 7198              		.align	2
 7199              		.type	mode.13568, %object
 7200              		.size	mode.13568, 16
 7201              	mode.13568:
 7202 0000 74160000 		.word	.LC226
 7203 0004 7C160000 		.word	.LC227
 7204 0008 84160000 		.word	.LC228
 7205 000c 00000000 		.word	0
 7206              		.section	.rodata.shell_cfg.13596,"a",%progbits
 7207              		.align	2
 7208              		.type	shell_cfg.13596, %object
 7209              		.size	shell_cfg.13596, 8
 7210              	shell_cfg.13596:
 7211 0000 00000000 		.word	SDU1
 7212 0004 00000000 		.word	shell_commands
 7213              		.section	.bss.wa.13601,"aw",%nobits
 7214              		.align	3
 7215              		.type	wa.13601, %object
 7216              		.size	wa.13601, 2424
 7217              	wa.13601:
 7218 0000 00000000 		.space	2424
 7218      00000000 
 7218      00000000 
 7218      00000000 
 7218      00000000 
 7219              		.text
 7220              	.Letext0:
 7221              		.file 8 "c:\\users\\moi\\documents\\_microinfo\\epuck-eclipse\\tools\\gcc-arm-none-eabi-7-2017-q4-
 7222              		.file 9 "c:\\users\\moi\\documents\\_microinfo\\epuck-eclipse\\tools\\gcc-arm-none-eabi-7-2017-q4-
 7223              		.file 10 "c:\\users\\moi\\documents\\_microinfo\\epuck-eclipse\\tools\\gcc-arm-none-eabi-7-2017-q4
 7224              		.file 11 "c:\\users\\moi\\documents\\_microinfo\\epuck-eclipse\\tools\\gcc-arm-none-eabi-7-2017-q4
 7225              		.file 12 "c:\\users\\moi\\documents\\_microinfo\\epuck-eclipse\\tools\\gcc-arm-none-eabi-7-2017-q4
 7226              		.file 13 "c:\\users\\moi\\documents\\_microinfo\\epuck-eclipse\\tools\\gcc-arm-none-eabi-7-2017-q4
 7227              		.file 14 "c:\\users\\moi\\documents\\_microinfo\\epuck-eclipse\\tools\\gcc-arm-none-eabi-7-2017-q4
 7228              		.file 15 "<built-in>"
 7229              		.file 16 "c:\\users\\moi\\documents\\_microinfo\\epuck-eclipse\\tools\\gcc-arm-none-eabi-7-2017-q4
 7230              		.file 17 "c:\\users\\moi\\documents\\_microinfo\\epuck-eclipse\\tools\\gcc-arm-none-eabi-7-2017-q4
 7231              		.file 18 "..//ChibiOS//os/rt/ports/ARMCMx/compilers/GCC/chtypes.h"
 7232              		.file 19 "..//ChibiOS//os/rt/include/chsystypes.h"
 7233              		.file 20 "..//ChibiOS//os/rt/include/chschd.h"
 7234              		.file 21 "..//ChibiOS//os/ext/CMSIS/include/core_cm4.h"
 7235              		.file 22 "..//ChibiOS//os/ext/CMSIS/ST/system_stm32f4xx.h"
 7236              		.file 23 "..//ChibiOS//os/ext/CMSIS/ST/stm32f407xx.h"
 7237              		.file 24 "..//ChibiOS//os/rt/ports/ARMCMx/chcore.h"
 7238              		.file 25 "..//ChibiOS//os/rt/include/chdebug.h"
 7239              		.file 26 "..//ChibiOS//os/rt/include/chtm.h"
 7240              		.file 27 "..//ChibiOS//os/rt/include/chstats.h"
 7241              		.file 28 "..//ChibiOS//os/rt/include/chsem.h"
 7242              		.file 29 "..//ChibiOS//os/rt/include/chmtx.h"
 7243              		.file 30 "..//ChibiOS//os/rt/include/chregistry.h"
 7244              		.file 31 "..//ChibiOS//os/rt/include/chevents.h"
 7245              		.file 32 "..//ChibiOS//os/rt/include/chqueues.h"
 7246              		.file 33 "..//ChibiOS//os/rt/include/chstreams.h"
 7247              		.file 34 "..//ChibiOS//os/hal/ports/STM32/STM32F4xx/stm32_dma.h"
 7248              		.file 35 "..//ChibiOS//os/hal/include/hal_ioblock.h"
 7249              		.file 36 "..//ChibiOS//os/hal/ports/STM32/LLD/GPIOv2/pal_lld.h"
ARM GAS  C:\Users\Moi\AppData\Local\Temp\cchaECY7.s 			page 141


 7250              		.file 37 "..//ChibiOS//os/hal/include/adc.h"
 7251              		.file 38 "..//ChibiOS//os/hal/ports/STM32/STM32F4xx/adc_lld.h"
 7252              		.file 39 "..//ChibiOS//os/hal/include/can.h"
 7253              		.file 40 "..//ChibiOS//os/hal/ports/STM32/LLD/can_lld.h"
 7254              		.file 41 "..//ChibiOS//os/hal/include/dac.h"
 7255              		.file 42 "..//ChibiOS//os/hal/ports/STM32/LLD/DACv1/dac_lld.h"
 7256              		.file 43 "..//ChibiOS//os/hal/include/ext.h"
 7257              		.file 44 "..//ChibiOS//os/hal/ports/STM32/LLD/ext_lld.h"
 7258              		.file 45 "..//ChibiOS//os/hal/include/gpt.h"
 7259              		.file 46 "..//ChibiOS//os/hal/ports/STM32/LLD/TIMv1/gpt_lld.h"
 7260              		.file 47 "..//ChibiOS//os/hal/ports/STM32/LLD/TIMv1/stm32_tim.h"
 7261              		.file 48 "..//ChibiOS//os/hal/include/i2c.h"
 7262              		.file 49 "..//ChibiOS//os/hal/ports/STM32/LLD/I2Cv1/i2c_lld.h"
 7263              		.file 50 "..//ChibiOS//os/hal/include/i2s.h"
 7264              		.file 51 "..//ChibiOS//os/hal/ports/STM32/LLD/SPIv1/i2s_lld.h"
 7265              		.file 52 "..//ChibiOS//os/hal/include/pwm.h"
 7266              		.file 53 "..//ChibiOS//os/hal/ports/STM32/LLD/TIMv1/pwm_lld.h"
 7267              		.file 54 "..//ChibiOS//os/hal/include/serial.h"
 7268              		.file 55 "..//ChibiOS//os/hal/ports/STM32/LLD/USARTv1/serial_lld.h"
 7269              		.file 56 "..//ChibiOS//os/hal/include/sdc.h"
 7270              		.file 57 "..//ChibiOS//os/hal/ports/STM32/LLD/sdc_lld.h"
 7271              		.file 58 "..//ChibiOS//os/hal/include/spi.h"
 7272              		.file 59 "..//ChibiOS//os/hal/ports/STM32/LLD/SPIv1/spi_lld.h"
 7273              		.file 60 "..//ChibiOS//os/hal/include/usb.h"
 7274              		.file 61 "..//ChibiOS//os/hal/ports/STM32/LLD/OTGv1/usb_lld.h"
 7275              		.file 62 "..//ChibiOS//os/hal/ports/STM32/LLD/OTGv1/stm32_otg.h"
 7276              		.file 63 "..//ChibiOS//os/hal/include/serial_usb.h"
 7277              		.file 64 "..//ChibiOS//test/rt/test.h"
 7278              		.file 65 "..//ChibiOS//os/various/shell.h"
 7279              		.file 66 "..//src/usbcfg.h"
 7280              		.file 67 "..//src/camera/po8030.h"
 7281              		.file 68 "..//ChibiOS_ext/os/hal/include/../ports/STM32/STM32F4xx/dcmi_lld.h"
 7282              		.file 69 "..//src/camera/dcmi_camera.h"
 7283              		.file 70 "c:\\users\\moi\\documents\\_microinfo\\epuck-eclipse\\tools\\gcc-arm-none-eabi-7-2017-q4
 7284              		.file 71 "..//src/parameter/parameter.h"
 7285              		.file 72 "c:\\users\\moi\\documents\\_microinfo\\epuck-eclipse\\tools\\gcc-arm-none-eabi-7-2017-q4
 7286              		.file 73 "..//src/msgbus/messagebus.h"
 7287              		.file 74 "./main.h"
 7288              		.file 75 "..//ChibiOS_ext//ext/fatfs/src/integer.h"
 7289              		.file 76 "..//ChibiOS_ext//ext/fatfs/src/ff.h"
 7290              		.file 77 "..//src/audio/play_sound_file.h"
 7291              		.file 78 "..//src/audio/play_melody.h"
 7292              		.section	.debug_info,"",%progbits
 7293              	.Ldebug_info0:
 7294 0000 485F0000 		.4byte	0x5f48
 7295 0004 0400     		.2byte	0x4
 7296 0006 00000000 		.4byte	.Ldebug_abbrev0
 7297 000a 04       		.byte	0x4
 7298 000b 01       		.uleb128 0x1
 7299 000c 8F220000 		.4byte	.LASF1118
 7300 0010 0C       		.byte	0xc
 7301 0011 4D010000 		.4byte	.LASF1119
 7302 0015 FF170000 		.4byte	.LASF1120
 7303 0019 00000000 		.4byte	.Ldebug_ranges0+0
 7304 001d 00000000 		.4byte	0
 7305 0021 00000000 		.4byte	.Ldebug_line0
 7306 0025 02       		.uleb128 0x2
ARM GAS  C:\Users\Moi\AppData\Local\Temp\cchaECY7.s 			page 142


 7307 0026 04       		.byte	0x4
 7308 0027 05       		.byte	0x5
 7309 0028 696E7400 		.ascii	"int\000"
 7310 002c 03       		.uleb128 0x3
 7311 002d 8A0F0000 		.4byte	.LASF3
 7312 0031 08       		.byte	0x8
 7313 0032 D8       		.byte	0xd8
 7314 0033 37000000 		.4byte	0x37
 7315 0037 04       		.uleb128 0x4
 7316 0038 04       		.byte	0x4
 7317 0039 07       		.byte	0x7
 7318 003a 2C2D0000 		.4byte	.LASF0
 7319 003e 04       		.uleb128 0x4
 7320 003f 08       		.byte	0x8
 7321 0040 05       		.byte	0x5
 7322 0041 1A2A0000 		.4byte	.LASF1
 7323 0045 04       		.uleb128 0x4
 7324 0046 08       		.byte	0x8
 7325 0047 04       		.byte	0x4
 7326 0048 F71C0000 		.4byte	.LASF2
 7327 004c 03       		.uleb128 0x3
 7328 004d B22C0000 		.4byte	.LASF4
 7329 0051 09       		.byte	0x9
 7330 0052 29       		.byte	0x29
 7331 0053 57000000 		.4byte	0x57
 7332 0057 04       		.uleb128 0x4
 7333 0058 01       		.byte	0x1
 7334 0059 06       		.byte	0x6
 7335 005a C7170000 		.4byte	.LASF5
 7336 005e 03       		.uleb128 0x3
 7337 005f 43010000 		.4byte	.LASF6
 7338 0063 09       		.byte	0x9
 7339 0064 2B       		.byte	0x2b
 7340 0065 69000000 		.4byte	0x69
 7341 0069 04       		.uleb128 0x4
 7342 006a 01       		.byte	0x1
 7343 006b 08       		.byte	0x8
 7344 006c 3B0B0000 		.4byte	.LASF7
 7345 0070 03       		.uleb128 0x3
 7346 0071 33090000 		.4byte	.LASF8
 7347 0075 09       		.byte	0x9
 7348 0076 37       		.byte	0x37
 7349 0077 7B000000 		.4byte	0x7b
 7350 007b 04       		.uleb128 0x4
 7351 007c 02       		.byte	0x2
 7352 007d 05       		.byte	0x5
 7353 007e 902D0000 		.4byte	.LASF9
 7354 0082 03       		.uleb128 0x3
 7355 0083 3D090000 		.4byte	.LASF10
 7356 0087 09       		.byte	0x9
 7357 0088 39       		.byte	0x39
 7358 0089 8D000000 		.4byte	0x8d
 7359 008d 04       		.uleb128 0x4
 7360 008e 02       		.byte	0x2
 7361 008f 07       		.byte	0x7
 7362 0090 AC170000 		.4byte	.LASF11
 7363 0094 03       		.uleb128 0x3
ARM GAS  C:\Users\Moi\AppData\Local\Temp\cchaECY7.s 			page 143


 7364 0095 14240000 		.4byte	.LASF12
 7365 0099 09       		.byte	0x9
 7366 009a 4D       		.byte	0x4d
 7367 009b 9F000000 		.4byte	0x9f
 7368 009f 04       		.uleb128 0x4
 7369 00a0 04       		.byte	0x4
 7370 00a1 05       		.byte	0x5
 7371 00a2 401B0000 		.4byte	.LASF13
 7372 00a6 03       		.uleb128 0x3
 7373 00a7 35240000 		.4byte	.LASF14
 7374 00ab 09       		.byte	0x9
 7375 00ac 4F       		.byte	0x4f
 7376 00ad B1000000 		.4byte	0xb1
 7377 00b1 04       		.uleb128 0x4
 7378 00b2 04       		.byte	0x4
 7379 00b3 07       		.byte	0x7
 7380 00b4 4B1D0000 		.4byte	.LASF15
 7381 00b8 03       		.uleb128 0x3
 7382 00b9 36130000 		.4byte	.LASF16
 7383 00bd 09       		.byte	0x9
 7384 00be 69       		.byte	0x69
 7385 00bf C3000000 		.4byte	0xc3
 7386 00c3 04       		.uleb128 0x4
 7387 00c4 08       		.byte	0x8
 7388 00c5 07       		.byte	0x7
 7389 00c6 E1260000 		.4byte	.LASF17
 7390 00ca 03       		.uleb128 0x3
 7391 00cb 12090000 		.4byte	.LASF18
 7392 00cf 0A       		.byte	0xa
 7393 00d0 22       		.byte	0x22
 7394 00d1 D5000000 		.4byte	0xd5
 7395 00d5 05       		.uleb128 0x5
 7396 00d6 04       		.byte	0x4
 7397 00d7 DB000000 		.4byte	0xdb
 7398 00db 06       		.uleb128 0x6
 7399 00dc E0060000 		.4byte	.LASF125
 7400 00e0 03       		.uleb128 0x3
 7401 00e1 5A0F0000 		.4byte	.LASF19
 7402 00e5 0B       		.byte	0xb
 7403 00e6 2C       		.byte	0x2c
 7404 00e7 9F000000 		.4byte	0x9f
 7405 00eb 03       		.uleb128 0x3
 7406 00ec A5210000 		.4byte	.LASF20
 7407 00f0 0B       		.byte	0xb
 7408 00f1 72       		.byte	0x72
 7409 00f2 9F000000 		.4byte	0x9f
 7410 00f6 07       		.uleb128 0x7
 7411 00f7 7A110000 		.4byte	.LASF21
 7412 00fb 08       		.byte	0x8
 7413 00fc 6501     		.2byte	0x165
 7414 00fe 37000000 		.4byte	0x37
 7415 0102 08       		.uleb128 0x8
 7416 0103 04       		.byte	0x4
 7417 0104 0B       		.byte	0xb
 7418 0105 A6       		.byte	0xa6
 7419 0106 21010000 		.4byte	0x121
 7420 010a 09       		.uleb128 0x9
ARM GAS  C:\Users\Moi\AppData\Local\Temp\cchaECY7.s 			page 144


 7421 010b 511A0000 		.4byte	.LASF22
 7422 010f 0B       		.byte	0xb
 7423 0110 A8       		.byte	0xa8
 7424 0111 F6000000 		.4byte	0xf6
 7425 0115 09       		.uleb128 0x9
 7426 0116 28110000 		.4byte	.LASF23
 7427 011a 0B       		.byte	0xb
 7428 011b A9       		.byte	0xa9
 7429 011c 21010000 		.4byte	0x121
 7430 0120 00       		.byte	0
 7431 0121 0A       		.uleb128 0xa
 7432 0122 69000000 		.4byte	0x69
 7433 0126 31010000 		.4byte	0x131
 7434 012a 0B       		.uleb128 0xb
 7435 012b 37000000 		.4byte	0x37
 7436 012f 03       		.byte	0x3
 7437 0130 00       		.byte	0
 7438 0131 0C       		.uleb128 0xc
 7439 0132 08       		.byte	0x8
 7440 0133 0B       		.byte	0xb
 7441 0134 A3       		.byte	0xa3
 7442 0135 52010000 		.4byte	0x152
 7443 0139 0D       		.uleb128 0xd
 7444 013a B80F0000 		.4byte	.LASF24
 7445 013e 0B       		.byte	0xb
 7446 013f A5       		.byte	0xa5
 7447 0140 25000000 		.4byte	0x25
 7448 0144 00       		.byte	0
 7449 0145 0D       		.uleb128 0xd
 7450 0146 99240000 		.4byte	.LASF25
 7451 014a 0B       		.byte	0xb
 7452 014b AA       		.byte	0xaa
 7453 014c 02010000 		.4byte	0x102
 7454 0150 04       		.byte	0x4
 7455 0151 00       		.byte	0
 7456 0152 03       		.uleb128 0x3
 7457 0153 5F220000 		.4byte	.LASF26
 7458 0157 0B       		.byte	0xb
 7459 0158 AB       		.byte	0xab
 7460 0159 31010000 		.4byte	0x131
 7461 015d 03       		.uleb128 0x3
 7462 015e 34290000 		.4byte	.LASF27
 7463 0162 0B       		.byte	0xb
 7464 0163 AF       		.byte	0xaf
 7465 0164 CA000000 		.4byte	0xca
 7466 0168 0E       		.uleb128 0xe
 7467 0169 04       		.byte	0x4
 7468 016a 0F       		.uleb128 0xf
 7469 016b 68010000 		.4byte	0x168
 7470 016f 05       		.uleb128 0x5
 7471 0170 04       		.byte	0x4
 7472 0171 75010000 		.4byte	0x175
 7473 0175 04       		.uleb128 0x4
 7474 0176 01       		.byte	0x1
 7475 0177 08       		.byte	0x8
 7476 0178 0E1E0000 		.4byte	.LASF28
 7477 017c 0F       		.uleb128 0xf
ARM GAS  C:\Users\Moi\AppData\Local\Temp\cchaECY7.s 			page 145


 7478 017d 75010000 		.4byte	0x175
 7479 0181 03       		.uleb128 0x3
 7480 0182 61160000 		.4byte	.LASF29
 7481 0186 0C       		.byte	0xc
 7482 0187 16       		.byte	0x16
 7483 0188 B1000000 		.4byte	0xb1
 7484 018c 10       		.uleb128 0x10
 7485 018d FA1E0000 		.4byte	.LASF34
 7486 0191 18       		.byte	0x18
 7487 0192 0C       		.byte	0xc
 7488 0193 2F       		.byte	0x2f
 7489 0194 DF010000 		.4byte	0x1df
 7490 0198 0D       		.uleb128 0xd
 7491 0199 73130000 		.4byte	.LASF30
 7492 019d 0C       		.byte	0xc
 7493 019e 31       		.byte	0x31
 7494 019f DF010000 		.4byte	0x1df
 7495 01a3 00       		.byte	0
 7496 01a4 11       		.uleb128 0x11
 7497 01a5 5F6B00   		.ascii	"_k\000"
 7498 01a8 0C       		.byte	0xc
 7499 01a9 32       		.byte	0x32
 7500 01aa 25000000 		.4byte	0x25
 7501 01ae 04       		.byte	0x4
 7502 01af 0D       		.uleb128 0xd
 7503 01b0 C31C0000 		.4byte	.LASF31
 7504 01b4 0C       		.byte	0xc
 7505 01b5 32       		.byte	0x32
 7506 01b6 25000000 		.4byte	0x25
 7507 01ba 08       		.byte	0x8
 7508 01bb 0D       		.uleb128 0xd
 7509 01bc AC2C0000 		.4byte	.LASF32
 7510 01c0 0C       		.byte	0xc
 7511 01c1 32       		.byte	0x32
 7512 01c2 25000000 		.4byte	0x25
 7513 01c6 0C       		.byte	0xc
 7514 01c7 0D       		.uleb128 0xd
 7515 01c8 BF0B0000 		.4byte	.LASF33
 7516 01cc 0C       		.byte	0xc
 7517 01cd 32       		.byte	0x32
 7518 01ce 25000000 		.4byte	0x25
 7519 01d2 10       		.byte	0x10
 7520 01d3 11       		.uleb128 0x11
 7521 01d4 5F7800   		.ascii	"_x\000"
 7522 01d7 0C       		.byte	0xc
 7523 01d8 33       		.byte	0x33
 7524 01d9 E5010000 		.4byte	0x1e5
 7525 01dd 14       		.byte	0x14
 7526 01de 00       		.byte	0
 7527 01df 05       		.uleb128 0x5
 7528 01e0 04       		.byte	0x4
 7529 01e1 8C010000 		.4byte	0x18c
 7530 01e5 0A       		.uleb128 0xa
 7531 01e6 81010000 		.4byte	0x181
 7532 01ea F5010000 		.4byte	0x1f5
 7533 01ee 0B       		.uleb128 0xb
 7534 01ef 37000000 		.4byte	0x37
ARM GAS  C:\Users\Moi\AppData\Local\Temp\cchaECY7.s 			page 146


 7535 01f3 00       		.byte	0
 7536 01f4 00       		.byte	0
 7537 01f5 10       		.uleb128 0x10
 7538 01f6 3B080000 		.4byte	.LASF35
 7539 01fa 24       		.byte	0x24
 7540 01fb 0C       		.byte	0xc
 7541 01fc 37       		.byte	0x37
 7542 01fd 6E020000 		.4byte	0x26e
 7543 0201 0D       		.uleb128 0xd
 7544 0202 2A150000 		.4byte	.LASF36
 7545 0206 0C       		.byte	0xc
 7546 0207 39       		.byte	0x39
 7547 0208 25000000 		.4byte	0x25
 7548 020c 00       		.byte	0
 7549 020d 0D       		.uleb128 0xd
 7550 020e CD2C0000 		.4byte	.LASF37
 7551 0212 0C       		.byte	0xc
 7552 0213 3A       		.byte	0x3a
 7553 0214 25000000 		.4byte	0x25
 7554 0218 04       		.byte	0x4
 7555 0219 0D       		.uleb128 0xd
 7556 021a 49110000 		.4byte	.LASF38
 7557 021e 0C       		.byte	0xc
 7558 021f 3B       		.byte	0x3b
 7559 0220 25000000 		.4byte	0x25
 7560 0224 08       		.byte	0x8
 7561 0225 0D       		.uleb128 0xd
 7562 0226 4F120000 		.4byte	.LASF39
 7563 022a 0C       		.byte	0xc
 7564 022b 3C       		.byte	0x3c
 7565 022c 25000000 		.4byte	0x25
 7566 0230 0C       		.byte	0xc
 7567 0231 0D       		.uleb128 0xd
 7568 0232 2D020000 		.4byte	.LASF40
 7569 0236 0C       		.byte	0xc
 7570 0237 3D       		.byte	0x3d
 7571 0238 25000000 		.4byte	0x25
 7572 023c 10       		.byte	0x10
 7573 023d 0D       		.uleb128 0xd
 7574 023e 620D0000 		.4byte	.LASF41
 7575 0242 0C       		.byte	0xc
 7576 0243 3E       		.byte	0x3e
 7577 0244 25000000 		.4byte	0x25
 7578 0248 14       		.byte	0x14
 7579 0249 0D       		.uleb128 0xd
 7580 024a AC0A0000 		.4byte	.LASF42
 7581 024e 0C       		.byte	0xc
 7582 024f 3F       		.byte	0x3f
 7583 0250 25000000 		.4byte	0x25
 7584 0254 18       		.byte	0x18
 7585 0255 0D       		.uleb128 0xd
 7586 0256 BE080000 		.4byte	.LASF43
 7587 025a 0C       		.byte	0xc
 7588 025b 40       		.byte	0x40
 7589 025c 25000000 		.4byte	0x25
 7590 0260 1C       		.byte	0x1c
 7591 0261 0D       		.uleb128 0xd
ARM GAS  C:\Users\Moi\AppData\Local\Temp\cchaECY7.s 			page 147


 7592 0262 C10A0000 		.4byte	.LASF44
 7593 0266 0C       		.byte	0xc
 7594 0267 41       		.byte	0x41
 7595 0268 25000000 		.4byte	0x25
 7596 026c 20       		.byte	0x20
 7597 026d 00       		.byte	0
 7598 026e 12       		.uleb128 0x12
 7599 026f 4B150000 		.4byte	.LASF45
 7600 0273 0801     		.2byte	0x108
 7601 0275 0C       		.byte	0xc
 7602 0276 4A       		.byte	0x4a
 7603 0277 AE020000 		.4byte	0x2ae
 7604 027b 0D       		.uleb128 0xd
 7605 027c 85120000 		.4byte	.LASF46
 7606 0280 0C       		.byte	0xc
 7607 0281 4B       		.byte	0x4b
 7608 0282 AE020000 		.4byte	0x2ae
 7609 0286 00       		.byte	0
 7610 0287 0D       		.uleb128 0xd
 7611 0288 550A0000 		.4byte	.LASF47
 7612 028c 0C       		.byte	0xc
 7613 028d 4C       		.byte	0x4c
 7614 028e AE020000 		.4byte	0x2ae
 7615 0292 80       		.byte	0x80
 7616 0293 13       		.uleb128 0x13
 7617 0294 36020000 		.4byte	.LASF48
 7618 0298 0C       		.byte	0xc
 7619 0299 4E       		.byte	0x4e
 7620 029a 81010000 		.4byte	0x181
 7621 029e 0001     		.2byte	0x100
 7622 02a0 13       		.uleb128 0x13
 7623 02a1 B7240000 		.4byte	.LASF49
 7624 02a5 0C       		.byte	0xc
 7625 02a6 51       		.byte	0x51
 7626 02a7 81010000 		.4byte	0x181
 7627 02ab 0401     		.2byte	0x104
 7628 02ad 00       		.byte	0
 7629 02ae 0A       		.uleb128 0xa
 7630 02af 68010000 		.4byte	0x168
 7631 02b3 BE020000 		.4byte	0x2be
 7632 02b7 0B       		.uleb128 0xb
 7633 02b8 37000000 		.4byte	0x37
 7634 02bc 1F       		.byte	0x1f
 7635 02bd 00       		.byte	0
 7636 02be 12       		.uleb128 0x12
 7637 02bf B7010000 		.4byte	.LASF50
 7638 02c3 9001     		.2byte	0x190
 7639 02c5 0C       		.byte	0xc
 7640 02c6 5D       		.byte	0x5d
 7641 02c7 FC020000 		.4byte	0x2fc
 7642 02cb 0D       		.uleb128 0xd
 7643 02cc 73130000 		.4byte	.LASF30
 7644 02d0 0C       		.byte	0xc
 7645 02d1 5E       		.byte	0x5e
 7646 02d2 FC020000 		.4byte	0x2fc
 7647 02d6 00       		.byte	0
 7648 02d7 0D       		.uleb128 0xd
ARM GAS  C:\Users\Moi\AppData\Local\Temp\cchaECY7.s 			page 148


 7649 02d8 69020000 		.4byte	.LASF51
 7650 02dc 0C       		.byte	0xc
 7651 02dd 5F       		.byte	0x5f
 7652 02de 25000000 		.4byte	0x25
 7653 02e2 04       		.byte	0x4
 7654 02e3 0D       		.uleb128 0xd
 7655 02e4 15220000 		.4byte	.LASF52
 7656 02e8 0C       		.byte	0xc
 7657 02e9 61       		.byte	0x61
 7658 02ea 02030000 		.4byte	0x302
 7659 02ee 08       		.byte	0x8
 7660 02ef 0D       		.uleb128 0xd
 7661 02f0 4B150000 		.4byte	.LASF45
 7662 02f4 0C       		.byte	0xc
 7663 02f5 62       		.byte	0x62
 7664 02f6 6E020000 		.4byte	0x26e
 7665 02fa 88       		.byte	0x88
 7666 02fb 00       		.byte	0
 7667 02fc 05       		.uleb128 0x5
 7668 02fd 04       		.byte	0x4
 7669 02fe BE020000 		.4byte	0x2be
 7670 0302 0A       		.uleb128 0xa
 7671 0303 12030000 		.4byte	0x312
 7672 0307 12030000 		.4byte	0x312
 7673 030b 0B       		.uleb128 0xb
 7674 030c 37000000 		.4byte	0x37
 7675 0310 1F       		.byte	0x1f
 7676 0311 00       		.byte	0
 7677 0312 05       		.uleb128 0x5
 7678 0313 04       		.byte	0x4
 7679 0314 18030000 		.4byte	0x318
 7680 0318 14       		.uleb128 0x14
 7681 0319 10       		.uleb128 0x10
 7682 031a A5190000 		.4byte	.LASF53
 7683 031e 08       		.byte	0x8
 7684 031f 0C       		.byte	0xc
 7685 0320 75       		.byte	0x75
 7686 0321 3E030000 		.4byte	0x33e
 7687 0325 0D       		.uleb128 0xd
 7688 0326 4B070000 		.4byte	.LASF54
 7689 032a 0C       		.byte	0xc
 7690 032b 76       		.byte	0x76
 7691 032c 3E030000 		.4byte	0x33e
 7692 0330 00       		.byte	0
 7693 0331 0D       		.uleb128 0xd
 7694 0332 070C0000 		.4byte	.LASF55
 7695 0336 0C       		.byte	0xc
 7696 0337 77       		.byte	0x77
 7697 0338 25000000 		.4byte	0x25
 7698 033c 04       		.byte	0x4
 7699 033d 00       		.byte	0
 7700 033e 05       		.uleb128 0x5
 7701 033f 04       		.byte	0x4
 7702 0340 69000000 		.4byte	0x69
 7703 0344 10       		.uleb128 0x10
 7704 0345 FC210000 		.4byte	.LASF56
 7705 0349 68       		.byte	0x68
ARM GAS  C:\Users\Moi\AppData\Local\Temp\cchaECY7.s 			page 149


 7706 034a 0C       		.byte	0xc
 7707 034b B5       		.byte	0xb5
 7708 034c 6E040000 		.4byte	0x46e
 7709 0350 11       		.uleb128 0x11
 7710 0351 5F7000   		.ascii	"_p\000"
 7711 0354 0C       		.byte	0xc
 7712 0355 B6       		.byte	0xb6
 7713 0356 3E030000 		.4byte	0x33e
 7714 035a 00       		.byte	0
 7715 035b 11       		.uleb128 0x11
 7716 035c 5F7200   		.ascii	"_r\000"
 7717 035f 0C       		.byte	0xc
 7718 0360 B7       		.byte	0xb7
 7719 0361 25000000 		.4byte	0x25
 7720 0365 04       		.byte	0x4
 7721 0366 11       		.uleb128 0x11
 7722 0367 5F7700   		.ascii	"_w\000"
 7723 036a 0C       		.byte	0xc
 7724 036b B8       		.byte	0xb8
 7725 036c 25000000 		.4byte	0x25
 7726 0370 08       		.byte	0x8
 7727 0371 0D       		.uleb128 0xd
 7728 0372 CA020000 		.4byte	.LASF57
 7729 0376 0C       		.byte	0xc
 7730 0377 B9       		.byte	0xb9
 7731 0378 7B000000 		.4byte	0x7b
 7732 037c 0C       		.byte	0xc
 7733 037d 0D       		.uleb128 0xd
 7734 037e C2210000 		.4byte	.LASF58
 7735 0382 0C       		.byte	0xc
 7736 0383 BA       		.byte	0xba
 7737 0384 7B000000 		.4byte	0x7b
 7738 0388 0E       		.byte	0xe
 7739 0389 11       		.uleb128 0x11
 7740 038a 5F626600 		.ascii	"_bf\000"
 7741 038e 0C       		.byte	0xc
 7742 038f BB       		.byte	0xbb
 7743 0390 19030000 		.4byte	0x319
 7744 0394 10       		.byte	0x10
 7745 0395 0D       		.uleb128 0xd
 7746 0396 AD050000 		.4byte	.LASF59
 7747 039a 0C       		.byte	0xc
 7748 039b BC       		.byte	0xbc
 7749 039c 25000000 		.4byte	0x25
 7750 03a0 18       		.byte	0x18
 7751 03a1 0D       		.uleb128 0xd
 7752 03a2 C5130000 		.4byte	.LASF60
 7753 03a6 0C       		.byte	0xc
 7754 03a7 C3       		.byte	0xc3
 7755 03a8 68010000 		.4byte	0x168
 7756 03ac 1C       		.byte	0x1c
 7757 03ad 0D       		.uleb128 0xd
 7758 03ae A82D0000 		.4byte	.LASF61
 7759 03b2 0C       		.byte	0xc
 7760 03b3 C5       		.byte	0xc5
 7761 03b4 C9050000 		.4byte	0x5c9
 7762 03b8 20       		.byte	0x20
ARM GAS  C:\Users\Moi\AppData\Local\Temp\cchaECY7.s 			page 150


 7763 03b9 0D       		.uleb128 0xd
 7764 03ba 730C0000 		.4byte	.LASF62
 7765 03be 0C       		.byte	0xc
 7766 03bf C7       		.byte	0xc7
 7767 03c0 F8050000 		.4byte	0x5f8
 7768 03c4 24       		.byte	0x24
 7769 03c5 0D       		.uleb128 0xd
 7770 03c6 6F170000 		.4byte	.LASF63
 7771 03ca 0C       		.byte	0xc
 7772 03cb CA       		.byte	0xca
 7773 03cc 1C060000 		.4byte	0x61c
 7774 03d0 28       		.byte	0x28
 7775 03d1 0D       		.uleb128 0xd
 7776 03d2 071E0000 		.4byte	.LASF64
 7777 03d6 0C       		.byte	0xc
 7778 03d7 CB       		.byte	0xcb
 7779 03d8 36060000 		.4byte	0x636
 7780 03dc 2C       		.byte	0x2c
 7781 03dd 11       		.uleb128 0x11
 7782 03de 5F756200 		.ascii	"_ub\000"
 7783 03e2 0C       		.byte	0xc
 7784 03e3 CE       		.byte	0xce
 7785 03e4 19030000 		.4byte	0x319
 7786 03e8 30       		.byte	0x30
 7787 03e9 11       		.uleb128 0x11
 7788 03ea 5F757000 		.ascii	"_up\000"
 7789 03ee 0C       		.byte	0xc
 7790 03ef CF       		.byte	0xcf
 7791 03f0 3E030000 		.4byte	0x33e
 7792 03f4 38       		.byte	0x38
 7793 03f5 11       		.uleb128 0x11
 7794 03f6 5F757200 		.ascii	"_ur\000"
 7795 03fa 0C       		.byte	0xc
 7796 03fb D0       		.byte	0xd0
 7797 03fc 25000000 		.4byte	0x25
 7798 0400 3C       		.byte	0x3c
 7799 0401 0D       		.uleb128 0xd
 7800 0402 E6200000 		.4byte	.LASF65
 7801 0406 0C       		.byte	0xc
 7802 0407 D3       		.byte	0xd3
 7803 0408 3C060000 		.4byte	0x63c
 7804 040c 40       		.byte	0x40
 7805 040d 0D       		.uleb128 0xd
 7806 040e B8030000 		.4byte	.LASF66
 7807 0412 0C       		.byte	0xc
 7808 0413 D4       		.byte	0xd4
 7809 0414 4C060000 		.4byte	0x64c
 7810 0418 43       		.byte	0x43
 7811 0419 11       		.uleb128 0x11
 7812 041a 5F6C6200 		.ascii	"_lb\000"
 7813 041e 0C       		.byte	0xc
 7814 041f D7       		.byte	0xd7
 7815 0420 19030000 		.4byte	0x319
 7816 0424 44       		.byte	0x44
 7817 0425 0D       		.uleb128 0xd
 7818 0426 C8200000 		.4byte	.LASF67
 7819 042a 0C       		.byte	0xc
ARM GAS  C:\Users\Moi\AppData\Local\Temp\cchaECY7.s 			page 151


 7820 042b DA       		.byte	0xda
 7821 042c 25000000 		.4byte	0x25
 7822 0430 4C       		.byte	0x4c
 7823 0431 0D       		.uleb128 0xd
 7824 0432 1E190000 		.4byte	.LASF68
 7825 0436 0C       		.byte	0xc
 7826 0437 DB       		.byte	0xdb
 7827 0438 E0000000 		.4byte	0xe0
 7828 043c 50       		.byte	0x50
 7829 043d 0D       		.uleb128 0xd
 7830 043e 2C060000 		.4byte	.LASF69
 7831 0442 0C       		.byte	0xc
 7832 0443 DE       		.byte	0xde
 7833 0444 8C040000 		.4byte	0x48c
 7834 0448 54       		.byte	0x54
 7835 0449 0D       		.uleb128 0xd
 7836 044a B2030000 		.4byte	.LASF70
 7837 044e 0C       		.byte	0xc
 7838 044f E2       		.byte	0xe2
 7839 0450 5D010000 		.4byte	0x15d
 7840 0454 58       		.byte	0x58
 7841 0455 0D       		.uleb128 0xd
 7842 0456 9E010000 		.4byte	.LASF71
 7843 045a 0C       		.byte	0xc
 7844 045b E4       		.byte	0xe4
 7845 045c 52010000 		.4byte	0x152
 7846 0460 5C       		.byte	0x5c
 7847 0461 0D       		.uleb128 0xd
 7848 0462 522A0000 		.4byte	.LASF72
 7849 0466 0C       		.byte	0xc
 7850 0467 E5       		.byte	0xe5
 7851 0468 25000000 		.4byte	0x25
 7852 046c 64       		.byte	0x64
 7853 046d 00       		.byte	0
 7854 046e 15       		.uleb128 0x15
 7855 046f 25000000 		.4byte	0x25
 7856 0473 8C040000 		.4byte	0x48c
 7857 0477 16       		.uleb128 0x16
 7858 0478 8C040000 		.4byte	0x48c
 7859 047c 16       		.uleb128 0x16
 7860 047d 68010000 		.4byte	0x168
 7861 0481 16       		.uleb128 0x16
 7862 0482 6F010000 		.4byte	0x16f
 7863 0486 16       		.uleb128 0x16
 7864 0487 25000000 		.4byte	0x25
 7865 048b 00       		.byte	0
 7866 048c 05       		.uleb128 0x5
 7867 048d 04       		.byte	0x4
 7868 048e 97040000 		.4byte	0x497
 7869 0492 0F       		.uleb128 0xf
 7870 0493 8C040000 		.4byte	0x48c
 7871 0497 17       		.uleb128 0x17
 7872 0498 F6060000 		.4byte	.LASF73
 7873 049c 2804     		.2byte	0x428
 7874 049e 0C       		.byte	0xc
 7875 049f 3902     		.2byte	0x239
 7876 04a1 C9050000 		.4byte	0x5c9
ARM GAS  C:\Users\Moi\AppData\Local\Temp\cchaECY7.s 			page 152


 7877 04a5 18       		.uleb128 0x18
 7878 04a6 1B120000 		.4byte	.LASF74
 7879 04aa 0C       		.byte	0xc
 7880 04ab 3B02     		.2byte	0x23b
 7881 04ad 25000000 		.4byte	0x25
 7882 04b1 00       		.byte	0
 7883 04b2 18       		.uleb128 0x18
 7884 04b3 930E0000 		.4byte	.LASF75
 7885 04b7 0C       		.byte	0xc
 7886 04b8 4002     		.2byte	0x240
 7887 04ba A3060000 		.4byte	0x6a3
 7888 04be 04       		.byte	0x4
 7889 04bf 18       		.uleb128 0x18
 7890 04c0 490B0000 		.4byte	.LASF76
 7891 04c4 0C       		.byte	0xc
 7892 04c5 4002     		.2byte	0x240
 7893 04c7 A3060000 		.4byte	0x6a3
 7894 04cb 08       		.byte	0x8
 7895 04cc 18       		.uleb128 0x18
 7896 04cd 240A0000 		.4byte	.LASF77
 7897 04d1 0C       		.byte	0xc
 7898 04d2 4002     		.2byte	0x240
 7899 04d4 A3060000 		.4byte	0x6a3
 7900 04d8 0C       		.byte	0xc
 7901 04d9 18       		.uleb128 0x18
 7902 04da 64020000 		.4byte	.LASF78
 7903 04de 0C       		.byte	0xc
 7904 04df 4202     		.2byte	0x242
 7905 04e1 25000000 		.4byte	0x25
 7906 04e5 10       		.byte	0x10
 7907 04e6 18       		.uleb128 0x18
 7908 04e7 221C0000 		.4byte	.LASF79
 7909 04eb 0C       		.byte	0xc
 7910 04ec 4302     		.2byte	0x243
 7911 04ee 85080000 		.4byte	0x885
 7912 04f2 14       		.byte	0x14
 7913 04f3 18       		.uleb128 0x18
 7914 04f4 57280000 		.4byte	.LASF80
 7915 04f8 0C       		.byte	0xc
 7916 04f9 4602     		.2byte	0x246
 7917 04fb 25000000 		.4byte	0x25
 7918 04ff 30       		.byte	0x30
 7919 0500 18       		.uleb128 0x18
 7920 0501 B52A0000 		.4byte	.LASF81
 7921 0505 0C       		.byte	0xc
 7922 0506 4702     		.2byte	0x247
 7923 0508 9A080000 		.4byte	0x89a
 7924 050c 34       		.byte	0x34
 7925 050d 18       		.uleb128 0x18
 7926 050e CE280000 		.4byte	.LASF82
 7927 0512 0C       		.byte	0xc
 7928 0513 4902     		.2byte	0x249
 7929 0515 25000000 		.4byte	0x25
 7930 0519 38       		.byte	0x38
 7931 051a 18       		.uleb128 0x18
 7932 051b 29210000 		.4byte	.LASF83
 7933 051f 0C       		.byte	0xc
ARM GAS  C:\Users\Moi\AppData\Local\Temp\cchaECY7.s 			page 153


 7934 0520 4B02     		.2byte	0x24b
 7935 0522 AB080000 		.4byte	0x8ab
 7936 0526 3C       		.byte	0x3c
 7937 0527 18       		.uleb128 0x18
 7938 0528 2C0A0000 		.4byte	.LASF84
 7939 052c 0C       		.byte	0xc
 7940 052d 4E02     		.2byte	0x24e
 7941 052f DF010000 		.4byte	0x1df
 7942 0533 40       		.byte	0x40
 7943 0534 18       		.uleb128 0x18
 7944 0535 150A0000 		.4byte	.LASF85
 7945 0539 0C       		.byte	0xc
 7946 053a 4F02     		.2byte	0x24f
 7947 053c 25000000 		.4byte	0x25
 7948 0540 44       		.byte	0x44
 7949 0541 18       		.uleb128 0x18
 7950 0542 15250000 		.4byte	.LASF86
 7951 0546 0C       		.byte	0xc
 7952 0547 5002     		.2byte	0x250
 7953 0549 DF010000 		.4byte	0x1df
 7954 054d 48       		.byte	0x48
 7955 054e 18       		.uleb128 0x18
 7956 054f D3180000 		.4byte	.LASF87
 7957 0553 0C       		.byte	0xc
 7958 0554 5102     		.2byte	0x251
 7959 0556 B1080000 		.4byte	0x8b1
 7960 055a 4C       		.byte	0x4c
 7961 055b 18       		.uleb128 0x18
 7962 055c 0F030000 		.4byte	.LASF88
 7963 0560 0C       		.byte	0xc
 7964 0561 5402     		.2byte	0x254
 7965 0563 25000000 		.4byte	0x25
 7966 0567 50       		.byte	0x50
 7967 0568 18       		.uleb128 0x18
 7968 0569 68100000 		.4byte	.LASF89
 7969 056d 0C       		.byte	0xc
 7970 056e 5502     		.2byte	0x255
 7971 0570 6F010000 		.4byte	0x16f
 7972 0574 54       		.byte	0x54
 7973 0575 18       		.uleb128 0x18
 7974 0576 91110000 		.4byte	.LASF90
 7975 057a 0C       		.byte	0xc
 7976 057b 7802     		.2byte	0x278
 7977 057d 63080000 		.4byte	0x863
 7978 0581 58       		.byte	0x58
 7979 0582 19       		.uleb128 0x19
 7980 0583 B7010000 		.4byte	.LASF50
 7981 0587 0C       		.byte	0xc
 7982 0588 7C02     		.2byte	0x27c
 7983 058a FC020000 		.4byte	0x2fc
 7984 058e 4801     		.2byte	0x148
 7985 0590 19       		.uleb128 0x19
 7986 0591 5E1F0000 		.4byte	.LASF91
 7987 0595 0C       		.byte	0xc
 7988 0596 7D02     		.2byte	0x27d
 7989 0598 BE020000 		.4byte	0x2be
 7990 059c 4C01     		.2byte	0x14c
ARM GAS  C:\Users\Moi\AppData\Local\Temp\cchaECY7.s 			page 154


 7991 059e 19       		.uleb128 0x19
 7992 059f 54030000 		.4byte	.LASF92
 7993 05a3 0C       		.byte	0xc
 7994 05a4 8102     		.2byte	0x281
 7995 05a6 C2080000 		.4byte	0x8c2
 7996 05aa DC02     		.2byte	0x2dc
 7997 05ac 19       		.uleb128 0x19
 7998 05ad 07210000 		.4byte	.LASF93
 7999 05b1 0C       		.byte	0xc
 8000 05b2 8602     		.2byte	0x286
 8001 05b4 68060000 		.4byte	0x668
 8002 05b8 E002     		.2byte	0x2e0
 8003 05ba 19       		.uleb128 0x19
 8004 05bb 3D070000 		.4byte	.LASF94
 8005 05bf 0C       		.byte	0xc
 8006 05c0 8802     		.2byte	0x288
 8007 05c2 CE080000 		.4byte	0x8ce
 8008 05c6 EC02     		.2byte	0x2ec
 8009 05c8 00       		.byte	0
 8010 05c9 05       		.uleb128 0x5
 8011 05ca 04       		.byte	0x4
 8012 05cb 6E040000 		.4byte	0x46e
 8013 05cf 15       		.uleb128 0x15
 8014 05d0 25000000 		.4byte	0x25
 8015 05d4 ED050000 		.4byte	0x5ed
 8016 05d8 16       		.uleb128 0x16
 8017 05d9 8C040000 		.4byte	0x48c
 8018 05dd 16       		.uleb128 0x16
 8019 05de 68010000 		.4byte	0x168
 8020 05e2 16       		.uleb128 0x16
 8021 05e3 ED050000 		.4byte	0x5ed
 8022 05e7 16       		.uleb128 0x16
 8023 05e8 25000000 		.4byte	0x25
 8024 05ec 00       		.byte	0
 8025 05ed 05       		.uleb128 0x5
 8026 05ee 04       		.byte	0x4
 8027 05ef 7C010000 		.4byte	0x17c
 8028 05f3 1A       		.uleb128 0x1a
 8029 05f4 ED050000 		.4byte	0x5ed
 8030 05f8 05       		.uleb128 0x5
 8031 05f9 04       		.byte	0x4
 8032 05fa CF050000 		.4byte	0x5cf
 8033 05fe 15       		.uleb128 0x15
 8034 05ff EB000000 		.4byte	0xeb
 8035 0603 1C060000 		.4byte	0x61c
 8036 0607 16       		.uleb128 0x16
 8037 0608 8C040000 		.4byte	0x48c
 8038 060c 16       		.uleb128 0x16
 8039 060d 68010000 		.4byte	0x168
 8040 0611 16       		.uleb128 0x16
 8041 0612 EB000000 		.4byte	0xeb
 8042 0616 16       		.uleb128 0x16
 8043 0617 25000000 		.4byte	0x25
 8044 061b 00       		.byte	0
 8045 061c 05       		.uleb128 0x5
 8046 061d 04       		.byte	0x4
 8047 061e FE050000 		.4byte	0x5fe
ARM GAS  C:\Users\Moi\AppData\Local\Temp\cchaECY7.s 			page 155


 8048 0622 15       		.uleb128 0x15
 8049 0623 25000000 		.4byte	0x25
 8050 0627 36060000 		.4byte	0x636
 8051 062b 16       		.uleb128 0x16
 8052 062c 8C040000 		.4byte	0x48c
 8053 0630 16       		.uleb128 0x16
 8054 0631 68010000 		.4byte	0x168
 8055 0635 00       		.byte	0
 8056 0636 05       		.uleb128 0x5
 8057 0637 04       		.byte	0x4
 8058 0638 22060000 		.4byte	0x622
 8059 063c 0A       		.uleb128 0xa
 8060 063d 69000000 		.4byte	0x69
 8061 0641 4C060000 		.4byte	0x64c
 8062 0645 0B       		.uleb128 0xb
 8063 0646 37000000 		.4byte	0x37
 8064 064a 02       		.byte	0x2
 8065 064b 00       		.byte	0
 8066 064c 0A       		.uleb128 0xa
 8067 064d 69000000 		.4byte	0x69
 8068 0651 5C060000 		.4byte	0x65c
 8069 0655 0B       		.uleb128 0xb
 8070 0656 37000000 		.4byte	0x37
 8071 065a 00       		.byte	0
 8072 065b 00       		.byte	0
 8073 065c 07       		.uleb128 0x7
 8074 065d 612C0000 		.4byte	.LASF95
 8075 0661 0C       		.byte	0xc
 8076 0662 1F01     		.2byte	0x11f
 8077 0664 44030000 		.4byte	0x344
 8078 0668 1B       		.uleb128 0x1b
 8079 0669 431E0000 		.4byte	.LASF96
 8080 066d 0C       		.byte	0xc
 8081 066e 0C       		.byte	0xc
 8082 066f 2301     		.2byte	0x123
 8083 0671 9D060000 		.4byte	0x69d
 8084 0675 18       		.uleb128 0x18
 8085 0676 73130000 		.4byte	.LASF30
 8086 067a 0C       		.byte	0xc
 8087 067b 2501     		.2byte	0x125
 8088 067d 9D060000 		.4byte	0x69d
 8089 0681 00       		.byte	0
 8090 0682 18       		.uleb128 0x18
 8091 0683 D4110000 		.4byte	.LASF97
 8092 0687 0C       		.byte	0xc
 8093 0688 2601     		.2byte	0x126
 8094 068a 25000000 		.4byte	0x25
 8095 068e 04       		.byte	0x4
 8096 068f 18       		.uleb128 0x18
 8097 0690 1C1C0000 		.4byte	.LASF98
 8098 0694 0C       		.byte	0xc
 8099 0695 2701     		.2byte	0x127
 8100 0697 A3060000 		.4byte	0x6a3
 8101 069b 08       		.byte	0x8
 8102 069c 00       		.byte	0
 8103 069d 05       		.uleb128 0x5
 8104 069e 04       		.byte	0x4
ARM GAS  C:\Users\Moi\AppData\Local\Temp\cchaECY7.s 			page 156


 8105 069f 68060000 		.4byte	0x668
 8106 06a3 05       		.uleb128 0x5
 8107 06a4 04       		.byte	0x4
 8108 06a5 5C060000 		.4byte	0x65c
 8109 06a9 1B       		.uleb128 0x1b
 8110 06aa D32D0000 		.4byte	.LASF99
 8111 06ae 0E       		.byte	0xe
 8112 06af 0C       		.byte	0xc
 8113 06b0 3F01     		.2byte	0x13f
 8114 06b2 DE060000 		.4byte	0x6de
 8115 06b6 18       		.uleb128 0x18
 8116 06b7 5A170000 		.4byte	.LASF100
 8117 06bb 0C       		.byte	0xc
 8118 06bc 4001     		.2byte	0x140
 8119 06be DE060000 		.4byte	0x6de
 8120 06c2 00       		.byte	0
 8121 06c3 18       		.uleb128 0x18
 8122 06c4 BC0D0000 		.4byte	.LASF101
 8123 06c8 0C       		.byte	0xc
 8124 06c9 4101     		.2byte	0x141
 8125 06cb DE060000 		.4byte	0x6de
 8126 06cf 06       		.byte	0x6
 8127 06d0 18       		.uleb128 0x18
 8128 06d1 DF040000 		.4byte	.LASF102
 8129 06d5 0C       		.byte	0xc
 8130 06d6 4201     		.2byte	0x142
 8131 06d8 8D000000 		.4byte	0x8d
 8132 06dc 0C       		.byte	0xc
 8133 06dd 00       		.byte	0
 8134 06de 0A       		.uleb128 0xa
 8135 06df 8D000000 		.4byte	0x8d
 8136 06e3 EE060000 		.4byte	0x6ee
 8137 06e7 0B       		.uleb128 0xb
 8138 06e8 37000000 		.4byte	0x37
 8139 06ec 02       		.byte	0x2
 8140 06ed 00       		.byte	0
 8141 06ee 1C       		.uleb128 0x1c
 8142 06ef D0       		.byte	0xd0
 8143 06f0 0C       		.byte	0xc
 8144 06f1 5902     		.2byte	0x259
 8145 06f3 EF070000 		.4byte	0x7ef
 8146 06f7 18       		.uleb128 0x18
 8147 06f8 66090000 		.4byte	.LASF103
 8148 06fc 0C       		.byte	0xc
 8149 06fd 5B02     		.2byte	0x25b
 8150 06ff 37000000 		.4byte	0x37
 8151 0703 00       		.byte	0
 8152 0704 18       		.uleb128 0x18
 8153 0705 0B170000 		.4byte	.LASF104
 8154 0709 0C       		.byte	0xc
 8155 070a 5C02     		.2byte	0x25c
 8156 070c 6F010000 		.4byte	0x16f
 8157 0710 04       		.byte	0x4
 8158 0711 18       		.uleb128 0x18
 8159 0712 251A0000 		.4byte	.LASF105
 8160 0716 0C       		.byte	0xc
 8161 0717 5D02     		.2byte	0x25d
ARM GAS  C:\Users\Moi\AppData\Local\Temp\cchaECY7.s 			page 157


 8162 0719 EF070000 		.4byte	0x7ef
 8163 071d 08       		.byte	0x8
 8164 071e 18       		.uleb128 0x18
 8165 071f 910F0000 		.4byte	.LASF106
 8166 0723 0C       		.byte	0xc
 8167 0724 5E02     		.2byte	0x25e
 8168 0726 F5010000 		.4byte	0x1f5
 8169 072a 24       		.byte	0x24
 8170 072b 18       		.uleb128 0x18
 8171 072c 40270000 		.4byte	.LASF107
 8172 0730 0C       		.byte	0xc
 8173 0731 5F02     		.2byte	0x25f
 8174 0733 25000000 		.4byte	0x25
 8175 0737 48       		.byte	0x48
 8176 0738 18       		.uleb128 0x18
 8177 0739 4D1C0000 		.4byte	.LASF108
 8178 073d 0C       		.byte	0xc
 8179 073e 6002     		.2byte	0x260
 8180 0740 C3000000 		.4byte	0xc3
 8181 0744 50       		.byte	0x50
 8182 0745 18       		.uleb128 0x18
 8183 0746 432D0000 		.4byte	.LASF109
 8184 074a 0C       		.byte	0xc
 8185 074b 6102     		.2byte	0x261
 8186 074d A9060000 		.4byte	0x6a9
 8187 0751 58       		.byte	0x58
 8188 0752 18       		.uleb128 0x18
 8189 0753 FA200000 		.4byte	.LASF110
 8190 0757 0C       		.byte	0xc
 8191 0758 6202     		.2byte	0x262
 8192 075a 52010000 		.4byte	0x152
 8193 075e 68       		.byte	0x68
 8194 075f 18       		.uleb128 0x18
 8195 0760 69070000 		.4byte	.LASF111
 8196 0764 0C       		.byte	0xc
 8197 0765 6302     		.2byte	0x263
 8198 0767 52010000 		.4byte	0x152
 8199 076b 70       		.byte	0x70
 8200 076c 18       		.uleb128 0x18
 8201 076d 781B0000 		.4byte	.LASF112
 8202 0771 0C       		.byte	0xc
 8203 0772 6402     		.2byte	0x264
 8204 0774 52010000 		.4byte	0x152
 8205 0778 78       		.byte	0x78
 8206 0779 18       		.uleb128 0x18
 8207 077a CD190000 		.4byte	.LASF113
 8208 077e 0C       		.byte	0xc
 8209 077f 6502     		.2byte	0x265
 8210 0781 FF070000 		.4byte	0x7ff
 8211 0785 80       		.byte	0x80
 8212 0786 18       		.uleb128 0x18
 8213 0787 A7130000 		.4byte	.LASF114
 8214 078b 0C       		.byte	0xc
 8215 078c 6602     		.2byte	0x266
 8216 078e 0F080000 		.4byte	0x80f
 8217 0792 88       		.byte	0x88
 8218 0793 18       		.uleb128 0x18
ARM GAS  C:\Users\Moi\AppData\Local\Temp\cchaECY7.s 			page 158


 8219 0794 B01F0000 		.4byte	.LASF115
 8220 0798 0C       		.byte	0xc
 8221 0799 6702     		.2byte	0x267
 8222 079b 25000000 		.4byte	0x25
 8223 079f A0       		.byte	0xa0
 8224 07a0 18       		.uleb128 0x18
 8225 07a1 1F0E0000 		.4byte	.LASF116
 8226 07a5 0C       		.byte	0xc
 8227 07a6 6802     		.2byte	0x268
 8228 07a8 52010000 		.4byte	0x152
 8229 07ac A4       		.byte	0xa4
 8230 07ad 18       		.uleb128 0x18
 8231 07ae 2F110000 		.4byte	.LASF117
 8232 07b2 0C       		.byte	0xc
 8233 07b3 6902     		.2byte	0x269
 8234 07b5 52010000 		.4byte	0x152
 8235 07b9 AC       		.byte	0xac
 8236 07ba 18       		.uleb128 0x18
 8237 07bb A60B0000 		.4byte	.LASF118
 8238 07bf 0C       		.byte	0xc
 8239 07c0 6A02     		.2byte	0x26a
 8240 07c2 52010000 		.4byte	0x152
 8241 07c6 B4       		.byte	0xb4
 8242 07c7 18       		.uleb128 0x18
 8243 07c8 BC150000 		.4byte	.LASF119
 8244 07cc 0C       		.byte	0xc
 8245 07cd 6B02     		.2byte	0x26b
 8246 07cf 52010000 		.4byte	0x152
 8247 07d3 BC       		.byte	0xbc
 8248 07d4 18       		.uleb128 0x18
 8249 07d5 7B1A0000 		.4byte	.LASF120
 8250 07d9 0C       		.byte	0xc
 8251 07da 6C02     		.2byte	0x26c
 8252 07dc 52010000 		.4byte	0x152
 8253 07e0 C4       		.byte	0xc4
 8254 07e1 18       		.uleb128 0x18
 8255 07e2 6A220000 		.4byte	.LASF121
 8256 07e6 0C       		.byte	0xc
 8257 07e7 6D02     		.2byte	0x26d
 8258 07e9 25000000 		.4byte	0x25
 8259 07ed CC       		.byte	0xcc
 8260 07ee 00       		.byte	0
 8261 07ef 0A       		.uleb128 0xa
 8262 07f0 75010000 		.4byte	0x175
 8263 07f4 FF070000 		.4byte	0x7ff
 8264 07f8 0B       		.uleb128 0xb
 8265 07f9 37000000 		.4byte	0x37
 8266 07fd 19       		.byte	0x19
 8267 07fe 00       		.byte	0
 8268 07ff 0A       		.uleb128 0xa
 8269 0800 75010000 		.4byte	0x175
 8270 0804 0F080000 		.4byte	0x80f
 8271 0808 0B       		.uleb128 0xb
 8272 0809 37000000 		.4byte	0x37
 8273 080d 07       		.byte	0x7
 8274 080e 00       		.byte	0
 8275 080f 0A       		.uleb128 0xa
ARM GAS  C:\Users\Moi\AppData\Local\Temp\cchaECY7.s 			page 159


 8276 0810 75010000 		.4byte	0x175
 8277 0814 1F080000 		.4byte	0x81f
 8278 0818 0B       		.uleb128 0xb
 8279 0819 37000000 		.4byte	0x37
 8280 081d 17       		.byte	0x17
 8281 081e 00       		.byte	0
 8282 081f 1C       		.uleb128 0x1c
 8283 0820 F0       		.byte	0xf0
 8284 0821 0C       		.byte	0xc
 8285 0822 7202     		.2byte	0x272
 8286 0824 43080000 		.4byte	0x843
 8287 0828 18       		.uleb128 0x18
 8288 0829 401C0000 		.4byte	.LASF122
 8289 082d 0C       		.byte	0xc
 8290 082e 7502     		.2byte	0x275
 8291 0830 43080000 		.4byte	0x843
 8292 0834 00       		.byte	0
 8293 0835 18       		.uleb128 0x18
 8294 0836 9A0E0000 		.4byte	.LASF123
 8295 083a 0C       		.byte	0xc
 8296 083b 7602     		.2byte	0x276
 8297 083d 53080000 		.4byte	0x853
 8298 0841 78       		.byte	0x78
 8299 0842 00       		.byte	0
 8300 0843 0A       		.uleb128 0xa
 8301 0844 3E030000 		.4byte	0x33e
 8302 0848 53080000 		.4byte	0x853
 8303 084c 0B       		.uleb128 0xb
 8304 084d 37000000 		.4byte	0x37
 8305 0851 1D       		.byte	0x1d
 8306 0852 00       		.byte	0
 8307 0853 0A       		.uleb128 0xa
 8308 0854 37000000 		.4byte	0x37
 8309 0858 63080000 		.4byte	0x863
 8310 085c 0B       		.uleb128 0xb
 8311 085d 37000000 		.4byte	0x37
 8312 0861 1D       		.byte	0x1d
 8313 0862 00       		.byte	0
 8314 0863 1D       		.uleb128 0x1d
 8315 0864 F0       		.byte	0xf0
 8316 0865 0C       		.byte	0xc
 8317 0866 5702     		.2byte	0x257
 8318 0868 85080000 		.4byte	0x885
 8319 086c 1E       		.uleb128 0x1e
 8320 086d F6060000 		.4byte	.LASF73
 8321 0871 0C       		.byte	0xc
 8322 0872 6E02     		.2byte	0x26e
 8323 0874 EE060000 		.4byte	0x6ee
 8324 0878 1E       		.uleb128 0x1e
 8325 0879 DC030000 		.4byte	.LASF124
 8326 087d 0C       		.byte	0xc
 8327 087e 7702     		.2byte	0x277
 8328 0880 1F080000 		.4byte	0x81f
 8329 0884 00       		.byte	0
 8330 0885 0A       		.uleb128 0xa
 8331 0886 75010000 		.4byte	0x175
 8332 088a 95080000 		.4byte	0x895
ARM GAS  C:\Users\Moi\AppData\Local\Temp\cchaECY7.s 			page 160


 8333 088e 0B       		.uleb128 0xb
 8334 088f 37000000 		.4byte	0x37
 8335 0893 18       		.byte	0x18
 8336 0894 00       		.byte	0
 8337 0895 06       		.uleb128 0x6
 8338 0896 0F210000 		.4byte	.LASF126
 8339 089a 05       		.uleb128 0x5
 8340 089b 04       		.byte	0x4
 8341 089c 95080000 		.4byte	0x895
 8342 08a0 1F       		.uleb128 0x1f
 8343 08a1 AB080000 		.4byte	0x8ab
 8344 08a5 16       		.uleb128 0x16
 8345 08a6 8C040000 		.4byte	0x48c
 8346 08aa 00       		.byte	0
 8347 08ab 05       		.uleb128 0x5
 8348 08ac 04       		.byte	0x4
 8349 08ad A0080000 		.4byte	0x8a0
 8350 08b1 05       		.uleb128 0x5
 8351 08b2 04       		.byte	0x4
 8352 08b3 DF010000 		.4byte	0x1df
 8353 08b7 1F       		.uleb128 0x1f
 8354 08b8 C2080000 		.4byte	0x8c2
 8355 08bc 16       		.uleb128 0x16
 8356 08bd 25000000 		.4byte	0x25
 8357 08c1 00       		.byte	0
 8358 08c2 05       		.uleb128 0x5
 8359 08c3 04       		.byte	0x4
 8360 08c4 C8080000 		.4byte	0x8c8
 8361 08c8 05       		.uleb128 0x5
 8362 08c9 04       		.byte	0x4
 8363 08ca B7080000 		.4byte	0x8b7
 8364 08ce 0A       		.uleb128 0xa
 8365 08cf 5C060000 		.4byte	0x65c
 8366 08d3 DE080000 		.4byte	0x8de
 8367 08d7 0B       		.uleb128 0xb
 8368 08d8 37000000 		.4byte	0x37
 8369 08dc 02       		.byte	0x2
 8370 08dd 00       		.byte	0
 8371 08de 20       		.uleb128 0x20
 8372 08df 98200000 		.4byte	.LASF127
 8373 08e3 0C       		.byte	0xc
 8374 08e4 0703     		.2byte	0x307
 8375 08e6 8C040000 		.4byte	0x48c
 8376 08ea 20       		.uleb128 0x20
 8377 08eb 34280000 		.4byte	.LASF128
 8378 08ef 0C       		.byte	0xc
 8379 08f0 0803     		.2byte	0x308
 8380 08f2 92040000 		.4byte	0x492
 8381 08f6 04       		.uleb128 0x4
 8382 08f7 04       		.byte	0x4
 8383 08f8 04       		.byte	0x4
 8384 08f9 C40B0000 		.4byte	.LASF129
 8385 08fd 04       		.uleb128 0x4
 8386 08fe 08       		.byte	0x8
 8387 08ff 04       		.byte	0x4
 8388 0900 0E220000 		.4byte	.LASF130
 8389 0904 21       		.uleb128 0x21
ARM GAS  C:\Users\Moi\AppData\Local\Temp\cchaECY7.s 			page 161


 8390 0905 F81A0000 		.4byte	.LASF1121
 8391 0909 05       		.byte	0x5
 8392 090a 01       		.byte	0x1
 8393 090b 57000000 		.4byte	0x57
 8394 090f 0D       		.byte	0xd
 8395 0910 8202     		.2byte	0x282
 8396 0912 2F090000 		.4byte	0x92f
 8397 0916 22       		.uleb128 0x22
 8398 0917 4E180000 		.4byte	.LASF131
 8399 091b 7F       		.sleb128 -1
 8400 091c 23       		.uleb128 0x23
 8401 091d 46030000 		.4byte	.LASF132
 8402 0921 00       		.byte	0
 8403 0922 23       		.uleb128 0x23
 8404 0923 0E010000 		.4byte	.LASF133
 8405 0927 01       		.byte	0x1
 8406 0928 23       		.uleb128 0x23
 8407 0929 EB280000 		.4byte	.LASF134
 8408 092d 02       		.byte	0x2
 8409 092e 00       		.byte	0
 8410 092f 20       		.uleb128 0x20
 8411 0930 E00A0000 		.4byte	.LASF135
 8412 0934 0D       		.byte	0xd
 8413 0935 8D02     		.2byte	0x28d
 8414 0937 04090000 		.4byte	0x904
 8415 093b 03       		.uleb128 0x3
 8416 093c 7F0A0000 		.4byte	.LASF136
 8417 0940 0E       		.byte	0xe
 8418 0941 28       		.byte	0x28
 8419 0942 46090000 		.4byte	0x946
 8420 0946 10       		.uleb128 0x10
 8421 0947 452E0000 		.4byte	.LASF137
 8422 094b 04       		.byte	0x4
 8423 094c 0F       		.byte	0xf
 8424 094d 00       		.byte	0
 8425 094e 5D090000 		.4byte	0x95d
 8426 0952 24       		.uleb128 0x24
 8427 0953 0D290000 		.4byte	.LASF138
 8428 0957 68010000 		.4byte	0x168
 8429 095b 00       		.byte	0
 8430 095c 00       		.byte	0
 8431 095d 03       		.uleb128 0x3
 8432 095e 8B0E0000 		.4byte	.LASF139
 8433 0962 10       		.byte	0x10
 8434 0963 2E       		.byte	0x2e
 8435 0964 3B090000 		.4byte	0x93b
 8436 0968 03       		.uleb128 0x3
 8437 0969 5A160000 		.4byte	.LASF140
 8438 096d 11       		.byte	0x11
 8439 096e 14       		.byte	0x14
 8440 096f 4C000000 		.4byte	0x4c
 8441 0973 03       		.uleb128 0x3
 8442 0974 C00F0000 		.4byte	.LASF141
 8443 0978 11       		.byte	0x11
 8444 0979 18       		.byte	0x18
 8445 097a 5E000000 		.4byte	0x5e
 8446 097e 0F       		.uleb128 0xf
ARM GAS  C:\Users\Moi\AppData\Local\Temp\cchaECY7.s 			page 162


 8447 097f 73090000 		.4byte	0x973
 8448 0983 03       		.uleb128 0x3
 8449 0984 87170000 		.4byte	.LASF142
 8450 0988 11       		.byte	0x11
 8451 0989 20       		.byte	0x20
 8452 098a 70000000 		.4byte	0x70
 8453 098e 03       		.uleb128 0x3
 8454 098f A3020000 		.4byte	.LASF143
 8455 0993 11       		.byte	0x11
 8456 0994 24       		.byte	0x24
 8457 0995 82000000 		.4byte	0x82
 8458 0999 03       		.uleb128 0x3
 8459 099a B1040000 		.4byte	.LASF144
 8460 099e 11       		.byte	0x11
 8461 099f 2C       		.byte	0x2c
 8462 09a0 94000000 		.4byte	0x94
 8463 09a4 1A       		.uleb128 0x1a
 8464 09a5 99090000 		.4byte	0x999
 8465 09a9 03       		.uleb128 0x3
 8466 09aa 971C0000 		.4byte	.LASF145
 8467 09ae 11       		.byte	0x11
 8468 09af 30       		.byte	0x30
 8469 09b0 A6000000 		.4byte	0xa6
 8470 09b4 1A       		.uleb128 0x1a
 8471 09b5 A9090000 		.4byte	0x9a9
 8472 09b9 0F       		.uleb128 0xf
 8473 09ba B4090000 		.4byte	0x9b4
 8474 09be 03       		.uleb128 0x3
 8475 09bf E70C0000 		.4byte	.LASF146
 8476 09c3 11       		.byte	0x11
 8477 09c4 3C       		.byte	0x3c
 8478 09c5 B8000000 		.4byte	0xb8
 8479 09c9 03       		.uleb128 0x3
 8480 09ca 040F0000 		.4byte	.LASF147
 8481 09ce 12       		.byte	0x12
 8482 09cf 45       		.byte	0x45
 8483 09d0 A9090000 		.4byte	0x9a9
 8484 09d4 03       		.uleb128 0x3
 8485 09d5 0A070000 		.4byte	.LASF148
 8486 09d9 12       		.byte	0x12
 8487 09da 46       		.byte	0x46
 8488 09db BE090000 		.4byte	0x9be
 8489 09df 03       		.uleb128 0x3
 8490 09e0 61150000 		.4byte	.LASF149
 8491 09e4 12       		.byte	0x12
 8492 09e5 48       		.byte	0x48
 8493 09e6 73090000 		.4byte	0x973
 8494 09ea 03       		.uleb128 0x3
 8495 09eb 2B280000 		.4byte	.LASF150
 8496 09ef 12       		.byte	0x12
 8497 09f0 49       		.byte	0x49
 8498 09f1 73090000 		.4byte	0x973
 8499 09f5 03       		.uleb128 0x3
 8500 09f6 D7140000 		.4byte	.LASF151
 8501 09fa 12       		.byte	0x12
 8502 09fb 4A       		.byte	0x4a
 8503 09fc 73090000 		.4byte	0x973
ARM GAS  C:\Users\Moi\AppData\Local\Temp\cchaECY7.s 			page 163


 8504 0a00 03       		.uleb128 0x3
 8505 0a01 01170000 		.4byte	.LASF152
 8506 0a05 12       		.byte	0x12
 8507 0a06 4B       		.byte	0x4b
 8508 0a07 73090000 		.4byte	0x973
 8509 0a0b 03       		.uleb128 0x3
 8510 0a0c 10080000 		.4byte	.LASF153
 8511 0a10 12       		.byte	0x12
 8512 0a11 4C       		.byte	0x4c
 8513 0a12 A9090000 		.4byte	0x9a9
 8514 0a16 03       		.uleb128 0x3
 8515 0a17 A1000000 		.4byte	.LASF154
 8516 0a1b 12       		.byte	0x12
 8517 0a1c 4D       		.byte	0x4d
 8518 0a1d 99090000 		.4byte	0x999
 8519 0a21 03       		.uleb128 0x3
 8520 0a22 0C1D0000 		.4byte	.LASF155
 8521 0a26 12       		.byte	0x12
 8522 0a27 4F       		.byte	0x4f
 8523 0a28 A9090000 		.4byte	0x9a9
 8524 0a2c 03       		.uleb128 0x3
 8525 0a2d C62A0000 		.4byte	.LASF156
 8526 0a31 12       		.byte	0x12
 8527 0a32 50       		.byte	0x50
 8528 0a33 A9090000 		.4byte	0x9a9
 8529 0a37 03       		.uleb128 0x3
 8530 0a38 28200000 		.4byte	.LASF157
 8531 0a3c 12       		.byte	0x12
 8532 0a3d 51       		.byte	0x51
 8533 0a3e 99090000 		.4byte	0x999
 8534 0a42 03       		.uleb128 0x3
 8535 0a43 F60E0000 		.4byte	.LASF158
 8536 0a47 12       		.byte	0x12
 8537 0a48 52       		.byte	0x52
 8538 0a49 A9090000 		.4byte	0x9a9
 8539 0a4d 03       		.uleb128 0x3
 8540 0a4e C5040000 		.4byte	.LASF159
 8541 0a52 13       		.byte	0x13
 8542 0a53 33       		.byte	0x33
 8543 0a54 A9090000 		.4byte	0x9a9
 8544 0a58 1A       		.uleb128 0x1a
 8545 0a59 4D0A0000 		.4byte	0xa4d
 8546 0a5d 03       		.uleb128 0x3
 8547 0a5e 57040000 		.4byte	.LASF160
 8548 0a62 13       		.byte	0x13
 8549 0a63 3F       		.byte	0x3f
 8550 0a64 680A0000 		.4byte	0xa68
 8551 0a68 10       		.uleb128 0x10
 8552 0a69 800B0000 		.4byte	.LASF161
 8553 0a6d 68       		.byte	0x68
 8554 0a6e 14       		.byte	0x14
 8555 0a6f C2       		.byte	0xc2
 8556 0a70 860B0000 		.4byte	0xb86
 8557 0a74 0D       		.uleb128 0xd
 8558 0a75 37140000 		.4byte	.LASF162
 8559 0a79 14       		.byte	0x14
 8560 0a7a C3       		.byte	0xc3
ARM GAS  C:\Users\Moi\AppData\Local\Temp\cchaECY7.s 			page 164


 8561 0a7b 910B0000 		.4byte	0xb91
 8562 0a7f 00       		.byte	0
 8563 0a80 0D       		.uleb128 0xd
 8564 0a81 EB0F0000 		.4byte	.LASF163
 8565 0a85 14       		.byte	0x14
 8566 0a86 C5       		.byte	0xc5
 8567 0a87 910B0000 		.4byte	0xb91
 8568 0a8b 04       		.byte	0x4
 8569 0a8c 0D       		.uleb128 0xd
 8570 0a8d F1120000 		.4byte	.LASF164
 8571 0a91 14       		.byte	0x14
 8572 0a92 C7       		.byte	0xc7
 8573 0a93 0B0A0000 		.4byte	0xa0b
 8574 0a97 08       		.byte	0x8
 8575 0a98 0D       		.uleb128 0xd
 8576 0a99 3A0C0000 		.4byte	.LASF165
 8577 0a9d 14       		.byte	0x14
 8578 0a9e C8       		.byte	0xc8
 8579 0a9f 3B160000 		.4byte	0x163b
 8580 0aa3 0C       		.byte	0xc
 8581 0aa4 0D       		.uleb128 0xd
 8582 0aa5 6C030000 		.4byte	.LASF166
 8583 0aa9 14       		.byte	0x14
 8584 0aaa CA       		.byte	0xca
 8585 0aab 910B0000 		.4byte	0xb91
 8586 0aaf 10       		.byte	0x10
 8587 0ab0 0D       		.uleb128 0xd
 8588 0ab1 572B0000 		.4byte	.LASF167
 8589 0ab5 14       		.byte	0x14
 8590 0ab6 CB       		.byte	0xcb
 8591 0ab7 910B0000 		.4byte	0xb91
 8592 0abb 14       		.byte	0x14
 8593 0abc 0D       		.uleb128 0xd
 8594 0abd C7280000 		.4byte	.LASF168
 8595 0ac1 14       		.byte	0x14
 8596 0ac2 D2       		.byte	0xd2
 8597 0ac3 ED050000 		.4byte	0x5ed
 8598 0ac7 18       		.byte	0x18
 8599 0ac8 0D       		.uleb128 0xd
 8600 0ac9 05200000 		.4byte	.LASF169
 8601 0acd 14       		.byte	0x14
 8602 0ace D8       		.byte	0xd8
 8603 0acf B1190000 		.4byte	0x19b1
 8604 0ad3 1C       		.byte	0x1c
 8605 0ad4 0D       		.uleb128 0xd
 8606 0ad5 5F2E0000 		.4byte	.LASF170
 8607 0ad9 14       		.byte	0x14
 8608 0ada DD       		.byte	0xdd
 8609 0adb EA090000 		.4byte	0x9ea
 8610 0adf 20       		.byte	0x20
 8611 0ae0 0D       		.uleb128 0xd
 8612 0ae1 D2270000 		.4byte	.LASF171
 8613 0ae5 14       		.byte	0x14
 8614 0ae6 E1       		.byte	0xe1
 8615 0ae7 DF090000 		.4byte	0x9df
 8616 0aeb 21       		.byte	0x21
 8617 0aec 0D       		.uleb128 0xd
ARM GAS  C:\Users\Moi\AppData\Local\Temp\cchaECY7.s 			page 165


 8618 0aed 1A1B0000 		.4byte	.LASF172
 8619 0af1 14       		.byte	0x14
 8620 0af2 E6       		.byte	0xe6
 8621 0af3 F5090000 		.4byte	0x9f5
 8622 0af7 22       		.byte	0x22
 8623 0af8 0D       		.uleb128 0xd
 8624 0af9 EB170000 		.4byte	.LASF173
 8625 0afd 14       		.byte	0x14
 8626 0afe EC       		.byte	0xec
 8627 0aff 000A0000 		.4byte	0xa00
 8628 0b03 23       		.byte	0x23
 8629 0b04 0D       		.uleb128 0xd
 8630 0b05 131B0000 		.4byte	.LASF174
 8631 0b09 14       		.byte	0x14
 8632 0b0a F3       		.byte	0xf3
 8633 0b0b 580A0000 		.4byte	0xa58
 8634 0b0f 24       		.byte	0x24
 8635 0b10 25       		.uleb128 0x25
 8636 0b11 705F7500 		.ascii	"p_u\000"
 8637 0b15 14       		.byte	0x14
 8638 0b16 3101     		.2byte	0x131
 8639 0b18 E0180000 		.4byte	0x18e0
 8640 0b1c 28       		.byte	0x28
 8641 0b1d 18       		.uleb128 0x18
 8642 0b1e 5B060000 		.4byte	.LASF175
 8643 0b22 14       		.byte	0x14
 8644 0b23 3601     		.2byte	0x136
 8645 0b25 970B0000 		.4byte	0xb97
 8646 0b29 2C       		.byte	0x2c
 8647 0b2a 18       		.uleb128 0x18
 8648 0b2b F2180000 		.4byte	.LASF176
 8649 0b2f 14       		.byte	0x14
 8650 0b30 3C01     		.2byte	0x13c
 8651 0b32 BB0B0000 		.4byte	0xbbb
 8652 0b36 30       		.byte	0x30
 8653 0b37 18       		.uleb128 0x18
 8654 0b38 60090000 		.4byte	.LASF177
 8655 0b3c 14       		.byte	0x14
 8656 0b3d 4001     		.2byte	0x140
 8657 0b3f 160A0000 		.4byte	0xa16
 8658 0b43 38       		.byte	0x38
 8659 0b44 18       		.uleb128 0x18
 8660 0b45 1A250000 		.4byte	.LASF178
 8661 0b49 14       		.byte	0x14
 8662 0b4a 4601     		.2byte	0x146
 8663 0b4c 210A0000 		.4byte	0xa21
 8664 0b50 3C       		.byte	0x3c
 8665 0b51 18       		.uleb128 0x18
 8666 0b52 02280000 		.4byte	.LASF179
 8667 0b56 14       		.byte	0x14
 8668 0b57 4D01     		.2byte	0x14d
 8669 0b59 AB190000 		.4byte	0x19ab
 8670 0b5d 40       		.byte	0x40
 8671 0b5e 18       		.uleb128 0x18
 8672 0b5f C8210000 		.4byte	.LASF180
 8673 0b63 14       		.byte	0x14
 8674 0b64 5101     		.2byte	0x151
ARM GAS  C:\Users\Moi\AppData\Local\Temp\cchaECY7.s 			page 166


 8675 0b66 0B0A0000 		.4byte	0xa0b
 8676 0b6a 44       		.byte	0x44
 8677 0b6b 18       		.uleb128 0x18
 8678 0b6c DF140000 		.4byte	.LASF181
 8679 0b70 14       		.byte	0x14
 8680 0b71 5801     		.2byte	0x158
 8681 0b73 68010000 		.4byte	0x168
 8682 0b77 48       		.byte	0x48
 8683 0b78 18       		.uleb128 0x18
 8684 0b79 A42E0000 		.4byte	.LASF182
 8685 0b7d 14       		.byte	0x14
 8686 0b7e 5E01     		.2byte	0x15e
 8687 0b80 91180000 		.4byte	0x1891
 8688 0b84 50       		.byte	0x50
 8689 0b85 00       		.byte	0
 8690 0b86 03       		.uleb128 0x3
 8691 0b87 062C0000 		.4byte	.LASF183
 8692 0b8b 13       		.byte	0x13
 8693 0b8c 44       		.byte	0x44
 8694 0b8d 910B0000 		.4byte	0xb91
 8695 0b91 05       		.uleb128 0x5
 8696 0b92 04       		.byte	0x4
 8697 0b93 5D0A0000 		.4byte	0xa5d
 8698 0b97 03       		.uleb128 0x3
 8699 0b98 9A060000 		.4byte	.LASF184
 8700 0b9c 13       		.byte	0x13
 8701 0b9d 49       		.byte	0x49
 8702 0b9e A20B0000 		.4byte	0xba2
 8703 0ba2 10       		.uleb128 0x10
 8704 0ba3 792E0000 		.4byte	.LASF185
 8705 0ba7 04       		.byte	0x4
 8706 0ba8 14       		.byte	0x14
 8707 0ba9 B0       		.byte	0xb0
 8708 0baa BB0B0000 		.4byte	0xbbb
 8709 0bae 0D       		.uleb128 0xd
 8710 0baf 37140000 		.4byte	.LASF162
 8711 0bb3 14       		.byte	0x14
 8712 0bb4 B1       		.byte	0xb1
 8713 0bb5 910B0000 		.4byte	0xb91
 8714 0bb9 00       		.byte	0
 8715 0bba 00       		.byte	0
 8716 0bbb 03       		.uleb128 0x3
 8717 0bbc DD1A0000 		.4byte	.LASF186
 8718 0bc0 13       		.byte	0x13
 8719 0bc1 50       		.byte	0x50
 8720 0bc2 C60B0000 		.4byte	0xbc6
 8721 0bc6 10       		.uleb128 0x10
 8722 0bc7 35030000 		.4byte	.LASF187
 8723 0bcb 08       		.byte	0x8
 8724 0bcc 14       		.byte	0x14
 8725 0bcd B7       		.byte	0xb7
 8726 0bce EB0B0000 		.4byte	0xbeb
 8727 0bd2 0D       		.uleb128 0xd
 8728 0bd3 37140000 		.4byte	.LASF162
 8729 0bd7 14       		.byte	0x14
 8730 0bd8 B8       		.byte	0xb8
 8731 0bd9 910B0000 		.4byte	0xb91
ARM GAS  C:\Users\Moi\AppData\Local\Temp\cchaECY7.s 			page 167


 8732 0bdd 00       		.byte	0
 8733 0bde 0D       		.uleb128 0xd
 8734 0bdf EB0F0000 		.4byte	.LASF163
 8735 0be3 14       		.byte	0x14
 8736 0be4 B9       		.byte	0xb9
 8737 0be5 910B0000 		.4byte	0xb91
 8738 0be9 04       		.byte	0x4
 8739 0bea 00       		.byte	0
 8740 0beb 03       		.uleb128 0x3
 8741 0bec 730B0000 		.4byte	.LASF188
 8742 0bf0 13       		.byte	0x13
 8743 0bf1 57       		.byte	0x57
 8744 0bf2 F60B0000 		.4byte	0xbf6
 8745 0bf6 1B       		.uleb128 0x1b
 8746 0bf7 F0230000 		.4byte	.LASF189
 8747 0bfb 1C       		.byte	0x1c
 8748 0bfc 14       		.byte	0x14
 8749 0bfd 9001     		.2byte	0x190
 8750 0bff 520C0000 		.4byte	0xc52
 8751 0c03 18       		.uleb128 0x18
 8752 0c04 3B1E0000 		.4byte	.LASF190
 8753 0c08 14       		.byte	0x14
 8754 0c09 9101     		.2byte	0x191
 8755 0c0b BB0B0000 		.4byte	0xbbb
 8756 0c0f 00       		.byte	0
 8757 0c10 18       		.uleb128 0x18
 8758 0c11 9A260000 		.4byte	.LASF191
 8759 0c15 14       		.byte	0x14
 8760 0c16 9201     		.2byte	0x192
 8761 0c18 0B0A0000 		.4byte	0xa0b
 8762 0c1c 08       		.byte	0x8
 8763 0c1d 18       		.uleb128 0x18
 8764 0c1e D10E0000 		.4byte	.LASF192
 8765 0c22 14       		.byte	0x14
 8766 0c23 9401     		.2byte	0x194
 8767 0c25 3B160000 		.4byte	0x163b
 8768 0c29 0C       		.byte	0xc
 8769 0c2a 18       		.uleb128 0x18
 8770 0c2b 98160000 		.4byte	.LASF193
 8771 0c2f 14       		.byte	0x14
 8772 0c30 9701     		.2byte	0x197
 8773 0c32 910B0000 		.4byte	0xb91
 8774 0c36 10       		.byte	0x10
 8775 0c37 18       		.uleb128 0x18
 8776 0c38 E30F0000 		.4byte	.LASF194
 8777 0c3c 14       		.byte	0x14
 8778 0c3d 9801     		.2byte	0x198
 8779 0c3f 910B0000 		.4byte	0xb91
 8780 0c43 14       		.byte	0x14
 8781 0c44 18       		.uleb128 0x18
 8782 0c45 11120000 		.4byte	.LASF195
 8783 0c49 14       		.byte	0x14
 8784 0c4a 9B01     		.2byte	0x19b
 8785 0c4c 910B0000 		.4byte	0xb91
 8786 0c50 18       		.byte	0x18
 8787 0c51 00       		.byte	0
 8788 0c52 03       		.uleb128 0x3
ARM GAS  C:\Users\Moi\AppData\Local\Temp\cchaECY7.s 			page 168


 8789 0c53 51210000 		.4byte	.LASF196
 8790 0c57 13       		.byte	0x13
 8791 0c58 5C       		.byte	0x5c
 8792 0c59 5D0C0000 		.4byte	0xc5d
 8793 0c5d 05       		.uleb128 0x5
 8794 0c5e 04       		.byte	0x4
 8795 0c5f 630C0000 		.4byte	0xc63
 8796 0c63 1F       		.uleb128 0x1f
 8797 0c64 6E0C0000 		.4byte	0xc6e
 8798 0c68 16       		.uleb128 0x16
 8799 0c69 68010000 		.4byte	0x168
 8800 0c6d 00       		.byte	0
 8801 0c6e 03       		.uleb128 0x3
 8802 0c6f B50E0000 		.4byte	.LASF197
 8803 0c73 13       		.byte	0x13
 8804 0c74 61       		.byte	0x61
 8805 0c75 790C0000 		.4byte	0xc79
 8806 0c79 1B       		.uleb128 0x1b
 8807 0c7a C1270000 		.4byte	.LASF198
 8808 0c7e 14       		.byte	0x14
 8809 0c7f 14       		.byte	0x14
 8810 0c80 6B01     		.2byte	0x16b
 8811 0c82 C80C0000 		.4byte	0xcc8
 8812 0c86 18       		.uleb128 0x18
 8813 0c87 D70E0000 		.4byte	.LASF199
 8814 0c8b 14       		.byte	0x14
 8815 0c8c 6C01     		.2byte	0x16c
 8816 0c8e B7190000 		.4byte	0x19b7
 8817 0c92 00       		.byte	0
 8818 0c93 18       		.uleb128 0x18
 8819 0c94 230B0000 		.4byte	.LASF200
 8820 0c98 14       		.byte	0x14
 8821 0c99 6D01     		.2byte	0x16d
 8822 0c9b B7190000 		.4byte	0x19b7
 8823 0c9f 04       		.byte	0x4
 8824 0ca0 18       		.uleb128 0x18
 8825 0ca1 51170000 		.4byte	.LASF201
 8826 0ca5 14       		.byte	0x14
 8827 0ca6 6E01     		.2byte	0x16e
 8828 0ca8 4D0A0000 		.4byte	0xa4d
 8829 0cac 08       		.byte	0x8
 8830 0cad 18       		.uleb128 0x18
 8831 0cae 87270000 		.4byte	.LASF202
 8832 0cb2 14       		.byte	0x14
 8833 0cb3 6F01     		.2byte	0x16f
 8834 0cb5 520C0000 		.4byte	0xc52
 8835 0cb9 0C       		.byte	0xc
 8836 0cba 18       		.uleb128 0x18
 8837 0cbb 400C0000 		.4byte	.LASF203
 8838 0cbf 14       		.byte	0x14
 8839 0cc0 7101     		.2byte	0x171
 8840 0cc2 68010000 		.4byte	0x168
 8841 0cc6 10       		.byte	0x10
 8842 0cc7 00       		.byte	0
 8843 0cc8 03       		.uleb128 0x3
 8844 0cc9 3D290000 		.4byte	.LASF204
 8845 0ccd 13       		.byte	0x13
ARM GAS  C:\Users\Moi\AppData\Local\Temp\cchaECY7.s 			page 169


 8846 0cce 66       		.byte	0x66
 8847 0ccf D30C0000 		.4byte	0xcd3
 8848 0cd3 1B       		.uleb128 0x1b
 8849 0cd4 81040000 		.4byte	.LASF205
 8850 0cd8 10       		.byte	0x10
 8851 0cd9 14       		.byte	0x14
 8852 0cda 7B01     		.2byte	0x17b
 8853 0cdc 150D0000 		.4byte	0xd15
 8854 0ce0 18       		.uleb128 0x18
 8855 0ce1 D70E0000 		.4byte	.LASF199
 8856 0ce5 14       		.byte	0x14
 8857 0ce6 7C01     		.2byte	0x17c
 8858 0ce8 B7190000 		.4byte	0x19b7
 8859 0cec 00       		.byte	0
 8860 0ced 18       		.uleb128 0x18
 8861 0cee 230B0000 		.4byte	.LASF200
 8862 0cf2 14       		.byte	0x14
 8863 0cf3 7E01     		.2byte	0x17e
 8864 0cf5 B7190000 		.4byte	0x19b7
 8865 0cf9 04       		.byte	0x4
 8866 0cfa 18       		.uleb128 0x18
 8867 0cfb 51170000 		.4byte	.LASF201
 8868 0cff 14       		.byte	0x14
 8869 0d00 8001     		.2byte	0x180
 8870 0d02 4D0A0000 		.4byte	0xa4d
 8871 0d06 08       		.byte	0x8
 8872 0d07 18       		.uleb128 0x18
 8873 0d08 06020000 		.4byte	.LASF206
 8874 0d0c 14       		.byte	0x14
 8875 0d0d 8201     		.2byte	0x182
 8876 0d0f 580A0000 		.4byte	0xa58
 8877 0d13 0C       		.byte	0xc
 8878 0d14 00       		.byte	0
 8879 0d15 03       		.uleb128 0x3
 8880 0d16 130C0000 		.4byte	.LASF207
 8881 0d1a 13       		.byte	0x13
 8882 0d1b 6B       		.byte	0x6b
 8883 0d1c 200D0000 		.4byte	0xd20
 8884 0d20 17       		.uleb128 0x17
 8885 0d21 40240000 		.4byte	.LASF208
 8886 0d25 1404     		.2byte	0x414
 8887 0d27 14       		.byte	0x14
 8888 0d28 A201     		.2byte	0x1a2
 8889 0d2a 630D0000 		.4byte	0xd63
 8890 0d2e 18       		.uleb128 0x18
 8891 0d2f 69160000 		.4byte	.LASF209
 8892 0d33 14       		.byte	0x14
 8893 0d34 AA01     		.2byte	0x1aa
 8894 0d36 F3050000 		.4byte	0x5f3
 8895 0d3a 00       		.byte	0
 8896 0d3b 18       		.uleb128 0x18
 8897 0d3c 17160000 		.4byte	.LASF210
 8898 0d40 14       		.byte	0x14
 8899 0d41 AF01     		.2byte	0x1af
 8900 0d43 370A0000 		.4byte	0xa37
 8901 0d47 04       		.byte	0x4
 8902 0d48 18       		.uleb128 0x18
ARM GAS  C:\Users\Moi\AppData\Local\Temp\cchaECY7.s 			page 170


 8903 0d49 2C030000 		.4byte	.LASF211
 8904 0d4d 14       		.byte	0x14
 8905 0d4e B301     		.2byte	0x1b3
 8906 0d50 370A0000 		.4byte	0xa37
 8907 0d54 08       		.byte	0x8
 8908 0d55 18       		.uleb128 0x18
 8909 0d56 181A0000 		.4byte	.LASF212
 8910 0d5a 14       		.byte	0x14
 8911 0d5b B901     		.2byte	0x1b9
 8912 0d5d 23180000 		.4byte	0x1823
 8913 0d61 0C       		.byte	0xc
 8914 0d62 00       		.byte	0
 8915 0d63 03       		.uleb128 0x3
 8916 0d64 37010000 		.4byte	.LASF213
 8917 0d68 13       		.byte	0x13
 8918 0d69 70       		.byte	0x70
 8919 0d6a 6E0D0000 		.4byte	0xd6e
 8920 0d6e 17       		.uleb128 0x17
 8921 0d6f FC190000 		.4byte	.LASF214
 8922 0d73 7006     		.2byte	0x670
 8923 0d75 14       		.byte	0x14
 8924 0d76 C201     		.2byte	0x1c2
 8925 0d78 DB0D0000 		.4byte	0xddb
 8926 0d7c 18       		.uleb128 0x18
 8927 0d7d 94060000 		.4byte	.LASF215
 8928 0d81 14       		.byte	0x14
 8929 0d82 C601     		.2byte	0x1c6
 8930 0d84 EB0B0000 		.4byte	0xbeb
 8931 0d88 00       		.byte	0
 8932 0d89 18       		.uleb128 0x18
 8933 0d8a 32060000 		.4byte	.LASF216
 8934 0d8e 14       		.byte	0x14
 8935 0d8f CA01     		.2byte	0x1ca
 8936 0d91 C80C0000 		.4byte	0xcc8
 8937 0d95 1C       		.byte	0x1c
 8938 0d96 25       		.uleb128 0x25
 8939 0d97 64626700 		.ascii	"dbg\000"
 8940 0d9b 14       		.byte	0x14
 8941 0d9c CE01     		.2byte	0x1ce
 8942 0d9e 150D0000 		.4byte	0xd15
 8943 0da2 2C       		.byte	0x2c
 8944 0da3 19       		.uleb128 0x19
 8945 0da4 491B0000 		.4byte	.LASF217
 8946 0da8 14       		.byte	0x14
 8947 0da9 D201     		.2byte	0x1d2
 8948 0dab 5D0A0000 		.4byte	0xa5d
 8949 0daf 4004     		.2byte	0x440
 8950 0db1 26       		.uleb128 0x26
 8951 0db2 746D00   		.ascii	"tm\000"
 8952 0db5 14       		.byte	0x14
 8953 0db6 D701     		.2byte	0x1d7
 8954 0db8 43180000 		.4byte	0x1843
 8955 0dbc A804     		.2byte	0x4a8
 8956 0dbe 19       		.uleb128 0x19
 8957 0dbf D21F0000 		.4byte	.LASF218
 8958 0dc3 14       		.byte	0x14
 8959 0dc4 DD01     		.2byte	0x1dd
ARM GAS  C:\Users\Moi\AppData\Local\Temp\cchaECY7.s 			page 171


 8960 0dc6 D5180000 		.4byte	0x18d5
 8961 0dca B004     		.2byte	0x4b0
 8962 0dcc 19       		.uleb128 0x19
 8963 0dcd 57270000 		.4byte	.LASF219
 8964 0dd1 14       		.byte	0x14
 8965 0dd2 E301     		.2byte	0x1e3
 8966 0dd4 BD190000 		.4byte	0x19bd
 8967 0dd8 E804     		.2byte	0x4e8
 8968 0dda 00       		.byte	0
 8969 0ddb 0A       		.uleb128 0xa
 8970 0ddc A9090000 		.4byte	0x9a9
 8971 0de0 EB0D0000 		.4byte	0xdeb
 8972 0de4 0B       		.uleb128 0xb
 8973 0de5 37000000 		.4byte	0x37
 8974 0de9 01       		.byte	0x1
 8975 0dea 00       		.byte	0
 8976 0deb 0A       		.uleb128 0xa
 8977 0dec A9090000 		.4byte	0x9a9
 8978 0df0 FB0D0000 		.4byte	0xdfb
 8979 0df4 0B       		.uleb128 0xb
 8980 0df5 37000000 		.4byte	0x37
 8981 0df9 07       		.byte	0x7
 8982 0dfa 00       		.byte	0
 8983 0dfb 20       		.uleb128 0x20
 8984 0dfc A6260000 		.4byte	.LASF220
 8985 0e00 15       		.byte	0x15
 8986 0e01 A706     		.2byte	0x6a7
 8987 0e03 A4090000 		.4byte	0x9a4
 8988 0e07 27       		.uleb128 0x27
 8989 0e08 3A190000 		.4byte	.LASF221
 8990 0e0c 16       		.byte	0x16
 8991 0e0d 4C       		.byte	0x4c
 8992 0e0e A9090000 		.4byte	0x9a9
 8993 0e12 0C       		.uleb128 0xc
 8994 0e13 50       		.byte	0x50
 8995 0e14 17       		.byte	0x17
 8996 0e15 C4       		.byte	0xc4
 8997 0e16 090F0000 		.4byte	0xf09
 8998 0e1a 11       		.uleb128 0x11
 8999 0e1b 535200   		.ascii	"SR\000"
 9000 0e1e 17       		.byte	0x17
 9001 0e1f C6       		.byte	0xc6
 9002 0e20 B4090000 		.4byte	0x9b4
 9003 0e24 00       		.byte	0
 9004 0e25 11       		.uleb128 0x11
 9005 0e26 43523100 		.ascii	"CR1\000"
 9006 0e2a 17       		.byte	0x17
 9007 0e2b C7       		.byte	0xc7
 9008 0e2c B4090000 		.4byte	0x9b4
 9009 0e30 04       		.byte	0x4
 9010 0e31 11       		.uleb128 0x11
 9011 0e32 43523200 		.ascii	"CR2\000"
 9012 0e36 17       		.byte	0x17
 9013 0e37 C8       		.byte	0xc8
 9014 0e38 B4090000 		.4byte	0x9b4
 9015 0e3c 08       		.byte	0x8
 9016 0e3d 0D       		.uleb128 0xd
ARM GAS  C:\Users\Moi\AppData\Local\Temp\cchaECY7.s 			page 172


 9017 0e3e 99030000 		.4byte	.LASF222
 9018 0e42 17       		.byte	0x17
 9019 0e43 C9       		.byte	0xc9
 9020 0e44 B4090000 		.4byte	0x9b4
 9021 0e48 0C       		.byte	0xc
 9022 0e49 0D       		.uleb128 0xd
 9023 0e4a 9F030000 		.4byte	.LASF223
 9024 0e4e 17       		.byte	0x17
 9025 0e4f CA       		.byte	0xca
 9026 0e50 B4090000 		.4byte	0x9b4
 9027 0e54 10       		.byte	0x10
 9028 0e55 0D       		.uleb128 0xd
 9029 0e56 470C0000 		.4byte	.LASF224
 9030 0e5a 17       		.byte	0x17
 9031 0e5b CB       		.byte	0xcb
 9032 0e5c B4090000 		.4byte	0x9b4
 9033 0e60 14       		.byte	0x14
 9034 0e61 0D       		.uleb128 0xd
 9035 0e62 4D0C0000 		.4byte	.LASF225
 9036 0e66 17       		.byte	0x17
 9037 0e67 CC       		.byte	0xcc
 9038 0e68 B4090000 		.4byte	0x9b4
 9039 0e6c 18       		.byte	0x18
 9040 0e6d 0D       		.uleb128 0xd
 9041 0e6e D0120000 		.4byte	.LASF226
 9042 0e72 17       		.byte	0x17
 9043 0e73 CD       		.byte	0xcd
 9044 0e74 B4090000 		.4byte	0x9b4
 9045 0e78 1C       		.byte	0x1c
 9046 0e79 0D       		.uleb128 0xd
 9047 0e7a 530C0000 		.4byte	.LASF227
 9048 0e7e 17       		.byte	0x17
 9049 0e7f CE       		.byte	0xce
 9050 0e80 B4090000 		.4byte	0x9b4
 9051 0e84 20       		.byte	0x20
 9052 0e85 11       		.uleb128 0x11
 9053 0e86 48545200 		.ascii	"HTR\000"
 9054 0e8a 17       		.byte	0x17
 9055 0e8b CF       		.byte	0xcf
 9056 0e8c B4090000 		.4byte	0x9b4
 9057 0e90 24       		.byte	0x24
 9058 0e91 11       		.uleb128 0x11
 9059 0e92 4C545200 		.ascii	"LTR\000"
 9060 0e96 17       		.byte	0x17
 9061 0e97 D0       		.byte	0xd0
 9062 0e98 B4090000 		.4byte	0x9b4
 9063 0e9c 28       		.byte	0x28
 9064 0e9d 0D       		.uleb128 0xd
 9065 0e9e 7F150000 		.4byte	.LASF228
 9066 0ea2 17       		.byte	0x17
 9067 0ea3 D1       		.byte	0xd1
 9068 0ea4 B4090000 		.4byte	0x9b4
 9069 0ea8 2C       		.byte	0x2c
 9070 0ea9 0D       		.uleb128 0xd
 9071 0eaa 84150000 		.4byte	.LASF229
 9072 0eae 17       		.byte	0x17
 9073 0eaf D2       		.byte	0xd2
ARM GAS  C:\Users\Moi\AppData\Local\Temp\cchaECY7.s 			page 173


 9074 0eb0 B4090000 		.4byte	0x9b4
 9075 0eb4 30       		.byte	0x30
 9076 0eb5 0D       		.uleb128 0xd
 9077 0eb6 89150000 		.4byte	.LASF230
 9078 0eba 17       		.byte	0x17
 9079 0ebb D3       		.byte	0xd3
 9080 0ebc B4090000 		.4byte	0x9b4
 9081 0ec0 34       		.byte	0x34
 9082 0ec1 0D       		.uleb128 0xd
 9083 0ec2 860E0000 		.4byte	.LASF231
 9084 0ec6 17       		.byte	0x17
 9085 0ec7 D4       		.byte	0xd4
 9086 0ec8 B4090000 		.4byte	0x9b4
 9087 0ecc 38       		.byte	0x38
 9088 0ecd 0D       		.uleb128 0xd
 9089 0ece E6280000 		.4byte	.LASF232
 9090 0ed2 17       		.byte	0x17
 9091 0ed3 D5       		.byte	0xd5
 9092 0ed4 B4090000 		.4byte	0x9b4
 9093 0ed8 3C       		.byte	0x3c
 9094 0ed9 0D       		.uleb128 0xd
 9095 0eda E80E0000 		.4byte	.LASF233
 9096 0ede 17       		.byte	0x17
 9097 0edf D6       		.byte	0xd6
 9098 0ee0 B4090000 		.4byte	0x9b4
 9099 0ee4 40       		.byte	0x40
 9100 0ee5 0D       		.uleb128 0xd
 9101 0ee6 FA280000 		.4byte	.LASF234
 9102 0eea 17       		.byte	0x17
 9103 0eeb D7       		.byte	0xd7
 9104 0eec B4090000 		.4byte	0x9b4
 9105 0ef0 44       		.byte	0x44
 9106 0ef1 0D       		.uleb128 0xd
 9107 0ef2 FF280000 		.4byte	.LASF235
 9108 0ef6 17       		.byte	0x17
 9109 0ef7 D8       		.byte	0xd8
 9110 0ef8 B4090000 		.4byte	0x9b4
 9111 0efc 48       		.byte	0x48
 9112 0efd 11       		.uleb128 0x11
 9113 0efe 445200   		.ascii	"DR\000"
 9114 0f01 17       		.byte	0x17
 9115 0f02 D9       		.byte	0xd9
 9116 0f03 B4090000 		.4byte	0x9b4
 9117 0f07 4C       		.byte	0x4c
 9118 0f08 00       		.byte	0
 9119 0f09 03       		.uleb128 0x3
 9120 0f0a 98170000 		.4byte	.LASF236
 9121 0f0e 17       		.byte	0x17
 9122 0f0f DA       		.byte	0xda
 9123 0f10 120E0000 		.4byte	0xe12
 9124 0f14 0C       		.uleb128 0xc
 9125 0f15 10       		.byte	0x10
 9126 0f16 17       		.byte	0x17
 9127 0f17 E9       		.byte	0xe9
 9128 0f18 4D0F0000 		.4byte	0xf4d
 9129 0f1c 11       		.uleb128 0x11
 9130 0f1d 54495200 		.ascii	"TIR\000"
ARM GAS  C:\Users\Moi\AppData\Local\Temp\cchaECY7.s 			page 174


 9131 0f21 17       		.byte	0x17
 9132 0f22 EB       		.byte	0xeb
 9133 0f23 B4090000 		.4byte	0x9b4
 9134 0f27 00       		.byte	0
 9135 0f28 0D       		.uleb128 0xd
 9136 0f29 97120000 		.4byte	.LASF237
 9137 0f2d 17       		.byte	0x17
 9138 0f2e EC       		.byte	0xec
 9139 0f2f B4090000 		.4byte	0x9b4
 9140 0f33 04       		.byte	0x4
 9141 0f34 0D       		.uleb128 0xd
 9142 0f35 3B1B0000 		.4byte	.LASF238
 9143 0f39 17       		.byte	0x17
 9144 0f3a ED       		.byte	0xed
 9145 0f3b B4090000 		.4byte	0x9b4
 9146 0f3f 08       		.byte	0x8
 9147 0f40 0D       		.uleb128 0xd
 9148 0f41 2F180000 		.4byte	.LASF239
 9149 0f45 17       		.byte	0x17
 9150 0f46 EE       		.byte	0xee
 9151 0f47 B4090000 		.4byte	0x9b4
 9152 0f4b 0C       		.byte	0xc
 9153 0f4c 00       		.byte	0
 9154 0f4d 03       		.uleb128 0x3
 9155 0f4e 7E060000 		.4byte	.LASF240
 9156 0f52 17       		.byte	0x17
 9157 0f53 EF       		.byte	0xef
 9158 0f54 140F0000 		.4byte	0xf14
 9159 0f58 0C       		.uleb128 0xc
 9160 0f59 10       		.byte	0x10
 9161 0f5a 17       		.byte	0x17
 9162 0f5b F5       		.byte	0xf5
 9163 0f5c 910F0000 		.4byte	0xf91
 9164 0f60 11       		.uleb128 0x11
 9165 0f61 52495200 		.ascii	"RIR\000"
 9166 0f65 17       		.byte	0x17
 9167 0f66 F7       		.byte	0xf7
 9168 0f67 B4090000 		.4byte	0x9b4
 9169 0f6b 00       		.byte	0
 9170 0f6c 0D       		.uleb128 0xd
 9171 0f6d 82220000 		.4byte	.LASF241
 9172 0f71 17       		.byte	0x17
 9173 0f72 F8       		.byte	0xf8
 9174 0f73 B4090000 		.4byte	0x9b4
 9175 0f77 04       		.byte	0x4
 9176 0f78 0D       		.uleb128 0xd
 9177 0f79 D71C0000 		.4byte	.LASF242
 9178 0f7d 17       		.byte	0x17
 9179 0f7e F9       		.byte	0xf9
 9180 0f7f B4090000 		.4byte	0x9b4
 9181 0f83 08       		.byte	0x8
 9182 0f84 0D       		.uleb128 0xd
 9183 0f85 D7190000 		.4byte	.LASF243
 9184 0f89 17       		.byte	0x17
 9185 0f8a FA       		.byte	0xfa
 9186 0f8b B4090000 		.4byte	0x9b4
 9187 0f8f 0C       		.byte	0xc
ARM GAS  C:\Users\Moi\AppData\Local\Temp\cchaECY7.s 			page 175


 9188 0f90 00       		.byte	0
 9189 0f91 03       		.uleb128 0x3
 9190 0f92 5A210000 		.4byte	.LASF244
 9191 0f96 17       		.byte	0x17
 9192 0f97 FB       		.byte	0xfb
 9193 0f98 580F0000 		.4byte	0xf58
 9194 0f9c 1C       		.uleb128 0x1c
 9195 0f9d 08       		.byte	0x8
 9196 0f9e 17       		.byte	0x17
 9197 0f9f 0101     		.2byte	0x101
 9198 0fa1 C00F0000 		.4byte	0xfc0
 9199 0fa5 25       		.uleb128 0x25
 9200 0fa6 46523100 		.ascii	"FR1\000"
 9201 0faa 17       		.byte	0x17
 9202 0fab 0301     		.2byte	0x103
 9203 0fad B4090000 		.4byte	0x9b4
 9204 0fb1 00       		.byte	0
 9205 0fb2 25       		.uleb128 0x25
 9206 0fb3 46523200 		.ascii	"FR2\000"
 9207 0fb7 17       		.byte	0x17
 9208 0fb8 0401     		.2byte	0x104
 9209 0fba B4090000 		.4byte	0x9b4
 9210 0fbe 04       		.byte	0x4
 9211 0fbf 00       		.byte	0
 9212 0fc0 07       		.uleb128 0x7
 9213 0fc1 9C120000 		.4byte	.LASF245
 9214 0fc5 17       		.byte	0x17
 9215 0fc6 0501     		.2byte	0x105
 9216 0fc8 9C0F0000 		.4byte	0xf9c
 9217 0fcc 28       		.uleb128 0x28
 9218 0fcd 2003     		.2byte	0x320
 9219 0fcf 17       		.byte	0x17
 9220 0fd0 0B01     		.2byte	0x10b
 9221 0fd2 02110000 		.4byte	0x1102
 9222 0fd6 25       		.uleb128 0x25
 9223 0fd7 4D435200 		.ascii	"MCR\000"
 9224 0fdb 17       		.byte	0x17
 9225 0fdc 0D01     		.2byte	0x10d
 9226 0fde B4090000 		.4byte	0x9b4
 9227 0fe2 00       		.byte	0
 9228 0fe3 25       		.uleb128 0x25
 9229 0fe4 4D535200 		.ascii	"MSR\000"
 9230 0fe8 17       		.byte	0x17
 9231 0fe9 0E01     		.2byte	0x10e
 9232 0feb B4090000 		.4byte	0x9b4
 9233 0fef 04       		.byte	0x4
 9234 0ff0 25       		.uleb128 0x25
 9235 0ff1 54535200 		.ascii	"TSR\000"
 9236 0ff5 17       		.byte	0x17
 9237 0ff6 0F01     		.2byte	0x10f
 9238 0ff8 B4090000 		.4byte	0x9b4
 9239 0ffc 08       		.byte	0x8
 9240 0ffd 18       		.uleb128 0x18
 9241 0ffe CE100000 		.4byte	.LASF246
 9242 1002 17       		.byte	0x17
 9243 1003 1001     		.2byte	0x110
 9244 1005 B4090000 		.4byte	0x9b4
ARM GAS  C:\Users\Moi\AppData\Local\Temp\cchaECY7.s 			page 176


 9245 1009 0C       		.byte	0xc
 9246 100a 18       		.uleb128 0x18
 9247 100b 2F1D0000 		.4byte	.LASF247
 9248 100f 17       		.byte	0x17
 9249 1010 1101     		.2byte	0x111
 9250 1012 B4090000 		.4byte	0x9b4
 9251 1016 10       		.byte	0x10
 9252 1017 25       		.uleb128 0x25
 9253 1018 49455200 		.ascii	"IER\000"
 9254 101c 17       		.byte	0x17
 9255 101d 1201     		.2byte	0x112
 9256 101f B4090000 		.4byte	0x9b4
 9257 1023 14       		.byte	0x14
 9258 1024 25       		.uleb128 0x25
 9259 1025 45535200 		.ascii	"ESR\000"
 9260 1029 17       		.byte	0x17
 9261 102a 1301     		.2byte	0x113
 9262 102c B4090000 		.4byte	0x9b4
 9263 1030 18       		.byte	0x18
 9264 1031 25       		.uleb128 0x25
 9265 1032 42545200 		.ascii	"BTR\000"
 9266 1036 17       		.byte	0x17
 9267 1037 1401     		.2byte	0x114
 9268 1039 B4090000 		.4byte	0x9b4
 9269 103d 1C       		.byte	0x1c
 9270 103e 18       		.uleb128 0x18
 9271 103f 88250000 		.4byte	.LASF248
 9272 1043 17       		.byte	0x17
 9273 1044 1501     		.2byte	0x115
 9274 1046 02110000 		.4byte	0x1102
 9275 104a 20       		.byte	0x20
 9276 104b 19       		.uleb128 0x19
 9277 104c 09140000 		.4byte	.LASF249
 9278 1050 17       		.byte	0x17
 9279 1051 1601     		.2byte	0x116
 9280 1053 12110000 		.4byte	0x1112
 9281 1057 8001     		.2byte	0x180
 9282 1059 19       		.uleb128 0x19
 9283 105a F22A0000 		.4byte	.LASF250
 9284 105e 17       		.byte	0x17
 9285 105f 1701     		.2byte	0x117
 9286 1061 22110000 		.4byte	0x1122
 9287 1065 B001     		.2byte	0x1b0
 9288 1067 19       		.uleb128 0x19
 9289 1068 92250000 		.4byte	.LASF251
 9290 106c 17       		.byte	0x17
 9291 106d 1801     		.2byte	0x118
 9292 106f 32110000 		.4byte	0x1132
 9293 1073 D001     		.2byte	0x1d0
 9294 1075 26       		.uleb128 0x26
 9295 1076 464D5200 		.ascii	"FMR\000"
 9296 107a 17       		.byte	0x17
 9297 107b 1901     		.2byte	0x119
 9298 107d B4090000 		.4byte	0x9b4
 9299 1081 0002     		.2byte	0x200
 9300 1083 19       		.uleb128 0x19
 9301 1084 1C0D0000 		.4byte	.LASF252
ARM GAS  C:\Users\Moi\AppData\Local\Temp\cchaECY7.s 			page 177


 9302 1088 17       		.byte	0x17
 9303 1089 1A01     		.2byte	0x11a
 9304 108b B4090000 		.4byte	0x9b4
 9305 108f 0402     		.2byte	0x204
 9306 1091 19       		.uleb128 0x19
 9307 1092 9C250000 		.4byte	.LASF253
 9308 1096 17       		.byte	0x17
 9309 1097 1B01     		.2byte	0x11b
 9310 1099 A9090000 		.4byte	0x9a9
 9311 109d 0802     		.2byte	0x208
 9312 109f 19       		.uleb128 0x19
 9313 10a0 1F280000 		.4byte	.LASF254
 9314 10a4 17       		.byte	0x17
 9315 10a5 1C01     		.2byte	0x11c
 9316 10a7 B4090000 		.4byte	0x9b4
 9317 10ab 0C02     		.2byte	0x20c
 9318 10ad 19       		.uleb128 0x19
 9319 10ae A6250000 		.4byte	.LASF255
 9320 10b2 17       		.byte	0x17
 9321 10b3 1D01     		.2byte	0x11d
 9322 10b5 A9090000 		.4byte	0x9a9
 9323 10b9 1002     		.2byte	0x210
 9324 10bb 19       		.uleb128 0x19
 9325 10bc 291D0000 		.4byte	.LASF256
 9326 10c0 17       		.byte	0x17
 9327 10c1 1E01     		.2byte	0x11e
 9328 10c3 B4090000 		.4byte	0x9b4
 9329 10c7 1402     		.2byte	0x214
 9330 10c9 19       		.uleb128 0x19
 9331 10ca B0250000 		.4byte	.LASF257
 9332 10ce 17       		.byte	0x17
 9333 10cf 1F01     		.2byte	0x11f
 9334 10d1 A9090000 		.4byte	0x9a9
 9335 10d5 1802     		.2byte	0x218
 9336 10d7 19       		.uleb128 0x19
 9337 10d8 08050000 		.4byte	.LASF258
 9338 10dc 17       		.byte	0x17
 9339 10dd 2001     		.2byte	0x120
 9340 10df B4090000 		.4byte	0x9b4
 9341 10e3 1C02     		.2byte	0x21c
 9342 10e5 19       		.uleb128 0x19
 9343 10e6 BA250000 		.4byte	.LASF259
 9344 10ea 17       		.byte	0x17
 9345 10eb 2101     		.2byte	0x121
 9346 10ed EB0D0000 		.4byte	0xdeb
 9347 10f1 2002     		.2byte	0x220
 9348 10f3 19       		.uleb128 0x19
 9349 10f4 2D070000 		.4byte	.LASF260
 9350 10f8 17       		.byte	0x17
 9351 10f9 2201     		.2byte	0x122
 9352 10fb 42110000 		.4byte	0x1142
 9353 10ff 4002     		.2byte	0x240
 9354 1101 00       		.byte	0
 9355 1102 0A       		.uleb128 0xa
 9356 1103 A9090000 		.4byte	0x9a9
 9357 1107 12110000 		.4byte	0x1112
 9358 110b 0B       		.uleb128 0xb
ARM GAS  C:\Users\Moi\AppData\Local\Temp\cchaECY7.s 			page 178


 9359 110c 37000000 		.4byte	0x37
 9360 1110 57       		.byte	0x57
 9361 1111 00       		.byte	0
 9362 1112 0A       		.uleb128 0xa
 9363 1113 4D0F0000 		.4byte	0xf4d
 9364 1117 22110000 		.4byte	0x1122
 9365 111b 0B       		.uleb128 0xb
 9366 111c 37000000 		.4byte	0x37
 9367 1120 02       		.byte	0x2
 9368 1121 00       		.byte	0
 9369 1122 0A       		.uleb128 0xa
 9370 1123 910F0000 		.4byte	0xf91
 9371 1127 32110000 		.4byte	0x1132
 9372 112b 0B       		.uleb128 0xb
 9373 112c 37000000 		.4byte	0x37
 9374 1130 01       		.byte	0x1
 9375 1131 00       		.byte	0
 9376 1132 0A       		.uleb128 0xa
 9377 1133 A9090000 		.4byte	0x9a9
 9378 1137 42110000 		.4byte	0x1142
 9379 113b 0B       		.uleb128 0xb
 9380 113c 37000000 		.4byte	0x37
 9381 1140 0B       		.byte	0xb
 9382 1141 00       		.byte	0
 9383 1142 0A       		.uleb128 0xa
 9384 1143 C00F0000 		.4byte	0xfc0
 9385 1147 52110000 		.4byte	0x1152
 9386 114b 0B       		.uleb128 0xb
 9387 114c 37000000 		.4byte	0x37
 9388 1150 1B       		.byte	0x1b
 9389 1151 00       		.byte	0
 9390 1152 07       		.uleb128 0x7
 9391 1153 4E0F0000 		.4byte	.LASF261
 9392 1157 17       		.byte	0x17
 9393 1158 2301     		.2byte	0x123
 9394 115a CC0F0000 		.4byte	0xfcc
 9395 115e 1C       		.uleb128 0x1c
 9396 115f 38       		.byte	0x38
 9397 1160 17       		.byte	0x17
 9398 1161 3601     		.2byte	0x136
 9399 1163 1C120000 		.4byte	0x121c
 9400 1167 25       		.uleb128 0x25
 9401 1168 435200   		.ascii	"CR\000"
 9402 116b 17       		.byte	0x17
 9403 116c 3801     		.2byte	0x138
 9404 116e B4090000 		.4byte	0x9b4
 9405 1172 00       		.byte	0
 9406 1173 18       		.uleb128 0x18
 9407 1174 B1190000 		.4byte	.LASF262
 9408 1178 17       		.byte	0x17
 9409 1179 3901     		.2byte	0x139
 9410 117b B4090000 		.4byte	0x9b4
 9411 117f 04       		.byte	0x4
 9412 1180 18       		.uleb128 0x18
 9413 1181 D6250000 		.4byte	.LASF263
 9414 1185 17       		.byte	0x17
 9415 1186 3A01     		.2byte	0x13a
ARM GAS  C:\Users\Moi\AppData\Local\Temp\cchaECY7.s 			page 179


 9416 1188 B4090000 		.4byte	0x9b4
 9417 118c 08       		.byte	0x8
 9418 118d 18       		.uleb128 0x18
 9419 118e A01F0000 		.4byte	.LASF264
 9420 1192 17       		.byte	0x17
 9421 1193 3B01     		.2byte	0x13b
 9422 1195 B4090000 		.4byte	0x9b4
 9423 1199 0C       		.byte	0xc
 9424 119a 18       		.uleb128 0x18
 9425 119b 220C0000 		.4byte	.LASF265
 9426 119f 17       		.byte	0x17
 9427 11a0 3C01     		.2byte	0x13c
 9428 11a2 B4090000 		.4byte	0x9b4
 9429 11a6 10       		.byte	0x10
 9430 11a7 18       		.uleb128 0x18
 9431 11a8 DE250000 		.4byte	.LASF266
 9432 11ac 17       		.byte	0x17
 9433 11ad 3D01     		.2byte	0x13d
 9434 11af B4090000 		.4byte	0x9b4
 9435 11b3 14       		.byte	0x14
 9436 11b4 18       		.uleb128 0x18
 9437 11b5 A81F0000 		.4byte	.LASF267
 9438 11b9 17       		.byte	0x17
 9439 11ba 3E01     		.2byte	0x13e
 9440 11bc B4090000 		.4byte	0x9b4
 9441 11c0 18       		.byte	0x18
 9442 11c1 18       		.uleb128 0x18
 9443 11c2 290C0000 		.4byte	.LASF268
 9444 11c6 17       		.byte	0x17
 9445 11c7 3F01     		.2byte	0x13f
 9446 11c9 B4090000 		.4byte	0x9b4
 9447 11cd 1C       		.byte	0x1c
 9448 11ce 18       		.uleb128 0x18
 9449 11cf 31260000 		.4byte	.LASF269
 9450 11d3 17       		.byte	0x17
 9451 11d4 4001     		.2byte	0x140
 9452 11d6 B4090000 		.4byte	0x9b4
 9453 11da 20       		.byte	0x20
 9454 11db 18       		.uleb128 0x18
 9455 11dc CA1F0000 		.4byte	.LASF270
 9456 11e0 17       		.byte	0x17
 9457 11e1 4101     		.2byte	0x141
 9458 11e3 B4090000 		.4byte	0x9b4
 9459 11e7 24       		.byte	0x24
 9460 11e8 18       		.uleb128 0x18
 9461 11e9 092B0000 		.4byte	.LASF271
 9462 11ed 17       		.byte	0x17
 9463 11ee 4201     		.2byte	0x142
 9464 11f0 B4090000 		.4byte	0x9b4
 9465 11f4 28       		.byte	0x28
 9466 11f5 18       		.uleb128 0x18
 9467 11f6 11020000 		.4byte	.LASF272
 9468 11fa 17       		.byte	0x17
 9469 11fb 4301     		.2byte	0x143
 9470 11fd B4090000 		.4byte	0x9b4
 9471 1201 2C       		.byte	0x2c
 9472 1202 18       		.uleb128 0x18
ARM GAS  C:\Users\Moi\AppData\Local\Temp\cchaECY7.s 			page 180


 9473 1203 16020000 		.4byte	.LASF273
 9474 1207 17       		.byte	0x17
 9475 1208 4401     		.2byte	0x144
 9476 120a B4090000 		.4byte	0x9b4
 9477 120e 30       		.byte	0x30
 9478 120f 25       		.uleb128 0x25
 9479 1210 535200   		.ascii	"SR\000"
 9480 1213 17       		.byte	0x17
 9481 1214 4501     		.2byte	0x145
 9482 1216 B4090000 		.4byte	0x9b4
 9483 121a 34       		.byte	0x34
 9484 121b 00       		.byte	0
 9485 121c 07       		.uleb128 0x7
 9486 121d 72210000 		.4byte	.LASF274
 9487 1221 17       		.byte	0x17
 9488 1222 4601     		.2byte	0x146
 9489 1224 5E110000 		.4byte	0x115e
 9490 1228 1C       		.uleb128 0x1c
 9491 1229 2C       		.byte	0x2c
 9492 122a 17       		.byte	0x17
 9493 122b 5801     		.2byte	0x158
 9494 122d BE120000 		.4byte	0x12be
 9495 1231 25       		.uleb128 0x25
 9496 1232 435200   		.ascii	"CR\000"
 9497 1235 17       		.byte	0x17
 9498 1236 5A01     		.2byte	0x15a
 9499 1238 B4090000 		.4byte	0x9b4
 9500 123c 00       		.byte	0
 9501 123d 25       		.uleb128 0x25
 9502 123e 535200   		.ascii	"SR\000"
 9503 1241 17       		.byte	0x17
 9504 1242 5B01     		.2byte	0x15b
 9505 1244 B4090000 		.4byte	0x9b4
 9506 1248 04       		.byte	0x4
 9507 1249 18       		.uleb128 0x18
 9508 124a 680B0000 		.4byte	.LASF275
 9509 124e 17       		.byte	0x17
 9510 124f 5C01     		.2byte	0x15c
 9511 1251 B4090000 		.4byte	0x9b4
 9512 1255 08       		.byte	0x8
 9513 1256 25       		.uleb128 0x25
 9514 1257 49455200 		.ascii	"IER\000"
 9515 125b 17       		.byte	0x17
 9516 125c 5D01     		.2byte	0x15d
 9517 125e B4090000 		.4byte	0x9b4
 9518 1262 0C       		.byte	0xc
 9519 1263 18       		.uleb128 0x18
 9520 1264 A1260000 		.4byte	.LASF276
 9521 1268 17       		.byte	0x17
 9522 1269 5E01     		.2byte	0x15e
 9523 126b B4090000 		.4byte	0x9b4
 9524 126f 10       		.byte	0x10
 9525 1270 25       		.uleb128 0x25
 9526 1271 49435200 		.ascii	"ICR\000"
 9527 1275 17       		.byte	0x17
 9528 1276 5F01     		.2byte	0x15f
 9529 1278 B4090000 		.4byte	0x9b4
ARM GAS  C:\Users\Moi\AppData\Local\Temp\cchaECY7.s 			page 181


 9530 127c 14       		.byte	0x14
 9531 127d 18       		.uleb128 0x18
 9532 127e 251E0000 		.4byte	.LASF277
 9533 1282 17       		.byte	0x17
 9534 1283 6001     		.2byte	0x160
 9535 1285 B4090000 		.4byte	0x9b4
 9536 1289 18       		.byte	0x18
 9537 128a 18       		.uleb128 0x18
 9538 128b 7C2D0000 		.4byte	.LASF278
 9539 128f 17       		.byte	0x17
 9540 1290 6101     		.2byte	0x161
 9541 1292 B4090000 		.4byte	0x9b4
 9542 1296 1C       		.byte	0x1c
 9543 1297 18       		.uleb128 0x18
 9544 1298 22150000 		.4byte	.LASF279
 9545 129c 17       		.byte	0x17
 9546 129d 6201     		.2byte	0x162
 9547 129f B4090000 		.4byte	0x9b4
 9548 12a3 20       		.byte	0x20
 9549 12a4 18       		.uleb128 0x18
 9550 12a5 A71E0000 		.4byte	.LASF280
 9551 12a9 17       		.byte	0x17
 9552 12aa 6301     		.2byte	0x163
 9553 12ac B4090000 		.4byte	0x9b4
 9554 12b0 24       		.byte	0x24
 9555 12b1 25       		.uleb128 0x25
 9556 12b2 445200   		.ascii	"DR\000"
 9557 12b5 17       		.byte	0x17
 9558 12b6 6401     		.2byte	0x164
 9559 12b8 B4090000 		.4byte	0x9b4
 9560 12bc 28       		.byte	0x28
 9561 12bd 00       		.byte	0
 9562 12be 07       		.uleb128 0x7
 9563 12bf 17050000 		.4byte	.LASF281
 9564 12c3 17       		.byte	0x17
 9565 12c4 6501     		.2byte	0x165
 9566 12c6 28120000 		.4byte	0x1228
 9567 12ca 1C       		.uleb128 0x1c
 9568 12cb 18       		.byte	0x18
 9569 12cc 17       		.byte	0x17
 9570 12cd 6B01     		.2byte	0x16b
 9571 12cf 21130000 		.4byte	0x1321
 9572 12d3 25       		.uleb128 0x25
 9573 12d4 435200   		.ascii	"CR\000"
 9574 12d7 17       		.byte	0x17
 9575 12d8 6D01     		.2byte	0x16d
 9576 12da B4090000 		.4byte	0x9b4
 9577 12de 00       		.byte	0
 9578 12df 18       		.uleb128 0x18
 9579 12e0 33270000 		.4byte	.LASF282
 9580 12e4 17       		.byte	0x17
 9581 12e5 6E01     		.2byte	0x16e
 9582 12e7 B4090000 		.4byte	0x9b4
 9583 12eb 04       		.byte	0x4
 9584 12ec 25       		.uleb128 0x25
 9585 12ed 50415200 		.ascii	"PAR\000"
 9586 12f1 17       		.byte	0x17
ARM GAS  C:\Users\Moi\AppData\Local\Temp\cchaECY7.s 			page 182


 9587 12f2 6F01     		.2byte	0x16f
 9588 12f4 B4090000 		.4byte	0x9b4
 9589 12f8 08       		.byte	0x8
 9590 12f9 18       		.uleb128 0x18
 9591 12fa E4040000 		.4byte	.LASF283
 9592 12fe 17       		.byte	0x17
 9593 12ff 7001     		.2byte	0x170
 9594 1301 B4090000 		.4byte	0x9b4
 9595 1305 0C       		.byte	0xc
 9596 1306 18       		.uleb128 0x18
 9597 1307 AF090000 		.4byte	.LASF284
 9598 130b 17       		.byte	0x17
 9599 130c 7101     		.2byte	0x171
 9600 130e B4090000 		.4byte	0x9b4
 9601 1312 10       		.byte	0x10
 9602 1313 25       		.uleb128 0x25
 9603 1314 46435200 		.ascii	"FCR\000"
 9604 1318 17       		.byte	0x17
 9605 1319 7201     		.2byte	0x172
 9606 131b B4090000 		.4byte	0x9b4
 9607 131f 14       		.byte	0x14
 9608 1320 00       		.byte	0
 9609 1321 07       		.uleb128 0x7
 9610 1322 B9090000 		.4byte	.LASF285
 9611 1326 17       		.byte	0x17
 9612 1327 7301     		.2byte	0x173
 9613 1329 CA120000 		.4byte	0x12ca
 9614 132d 0A       		.uleb128 0xa
 9615 132e B4090000 		.4byte	0x9b4
 9616 1332 3D130000 		.4byte	0x133d
 9617 1336 0B       		.uleb128 0xb
 9618 1337 37000000 		.4byte	0x37
 9619 133b 01       		.byte	0x1
 9620 133c 00       		.byte	0
 9621 133d 1A       		.uleb128 0x1a
 9622 133e 2D130000 		.4byte	0x132d
 9623 1342 0A       		.uleb128 0xa
 9624 1343 B4090000 		.4byte	0x9b4
 9625 1347 52130000 		.4byte	0x1352
 9626 134b 0B       		.uleb128 0xb
 9627 134c 37000000 		.4byte	0x37
 9628 1350 03       		.byte	0x3
 9629 1351 00       		.byte	0
 9630 1352 1A       		.uleb128 0x1a
 9631 1353 42130000 		.4byte	0x1342
 9632 1357 1C       		.uleb128 0x1c
 9633 1358 28       		.byte	0x28
 9634 1359 17       		.byte	0x17
 9635 135a 3F02     		.2byte	0x23f
 9636 135c E2130000 		.4byte	0x13e2
 9637 1360 25       		.uleb128 0x25
 9638 1361 43523100 		.ascii	"CR1\000"
 9639 1365 17       		.byte	0x17
 9640 1366 4102     		.2byte	0x241
 9641 1368 B4090000 		.4byte	0x9b4
 9642 136c 00       		.byte	0
 9643 136d 25       		.uleb128 0x25
ARM GAS  C:\Users\Moi\AppData\Local\Temp\cchaECY7.s 			page 183


 9644 136e 43523200 		.ascii	"CR2\000"
 9645 1372 17       		.byte	0x17
 9646 1373 4202     		.2byte	0x242
 9647 1375 B4090000 		.4byte	0x9b4
 9648 1379 04       		.byte	0x4
 9649 137a 18       		.uleb128 0x18
 9650 137b 9A2E0000 		.4byte	.LASF286
 9651 137f 17       		.byte	0x17
 9652 1380 4302     		.2byte	0x243
 9653 1382 B4090000 		.4byte	0x9b4
 9654 1386 08       		.byte	0x8
 9655 1387 18       		.uleb128 0x18
 9656 1388 9F2E0000 		.4byte	.LASF287
 9657 138c 17       		.byte	0x17
 9658 138d 4402     		.2byte	0x244
 9659 138f B4090000 		.4byte	0x9b4
 9660 1393 0C       		.byte	0xc
 9661 1394 25       		.uleb128 0x25
 9662 1395 445200   		.ascii	"DR\000"
 9663 1398 17       		.byte	0x17
 9664 1399 4502     		.2byte	0x245
 9665 139b B4090000 		.4byte	0x9b4
 9666 139f 10       		.byte	0x10
 9667 13a0 25       		.uleb128 0x25
 9668 13a1 53523100 		.ascii	"SR1\000"
 9669 13a5 17       		.byte	0x17
 9670 13a6 4602     		.2byte	0x246
 9671 13a8 B4090000 		.4byte	0x9b4
 9672 13ac 14       		.byte	0x14
 9673 13ad 25       		.uleb128 0x25
 9674 13ae 53523200 		.ascii	"SR2\000"
 9675 13b2 17       		.byte	0x17
 9676 13b3 4702     		.2byte	0x247
 9677 13b5 B4090000 		.4byte	0x9b4
 9678 13b9 18       		.byte	0x18
 9679 13ba 25       		.uleb128 0x25
 9680 13bb 43435200 		.ascii	"CCR\000"
 9681 13bf 17       		.byte	0x17
 9682 13c0 4802     		.2byte	0x248
 9683 13c2 B4090000 		.4byte	0x9b4
 9684 13c6 1C       		.byte	0x1c
 9685 13c7 18       		.uleb128 0x18
 9686 13c8 4C060000 		.4byte	.LASF288
 9687 13cc 17       		.byte	0x17
 9688 13cd 4902     		.2byte	0x249
 9689 13cf B4090000 		.4byte	0x9b4
 9690 13d3 20       		.byte	0x20
 9691 13d4 18       		.uleb128 0x18
 9692 13d5 152D0000 		.4byte	.LASF289
 9693 13d9 17       		.byte	0x17
 9694 13da 4A02     		.2byte	0x24a
 9695 13dc B4090000 		.4byte	0x9b4
 9696 13e0 24       		.byte	0x24
 9697 13e1 00       		.byte	0
 9698 13e2 07       		.uleb128 0x7
 9699 13e3 E7140000 		.4byte	.LASF290
 9700 13e7 17       		.byte	0x17
ARM GAS  C:\Users\Moi\AppData\Local\Temp\cchaECY7.s 			page 184


 9701 13e8 4B02     		.2byte	0x24b
 9702 13ea 57130000 		.4byte	0x1357
 9703 13ee 1C       		.uleb128 0x1c
 9704 13ef 84       		.byte	0x84
 9705 13f0 17       		.byte	0x17
 9706 13f1 BF02     		.2byte	0x2bf
 9707 13f3 FC140000 		.4byte	0x14fc
 9708 13f7 18       		.uleb128 0x18
 9709 13f8 061A0000 		.4byte	.LASF291
 9710 13fc 17       		.byte	0x17
 9711 13fd C102     		.2byte	0x2c1
 9712 13ff B4090000 		.4byte	0x9b4
 9713 1403 00       		.byte	0
 9714 1404 18       		.uleb128 0x18
 9715 1405 AC280000 		.4byte	.LASF292
 9716 1409 17       		.byte	0x17
 9717 140a C202     		.2byte	0x2c2
 9718 140c B4090000 		.4byte	0x9b4
 9719 1410 04       		.byte	0x4
 9720 1411 25       		.uleb128 0x25
 9721 1412 41524700 		.ascii	"ARG\000"
 9722 1416 17       		.byte	0x17
 9723 1417 C302     		.2byte	0x2c3
 9724 1419 B4090000 		.4byte	0x9b4
 9725 141d 08       		.byte	0x8
 9726 141e 25       		.uleb128 0x25
 9727 141f 434D4400 		.ascii	"CMD\000"
 9728 1423 17       		.byte	0x17
 9729 1424 C402     		.2byte	0x2c4
 9730 1426 B4090000 		.4byte	0x9b4
 9731 142a 0C       		.byte	0xc
 9732 142b 18       		.uleb128 0x18
 9733 142c E71D0000 		.4byte	.LASF293
 9734 1430 17       		.byte	0x17
 9735 1431 C502     		.2byte	0x2c5
 9736 1433 B9090000 		.4byte	0x9b9
 9737 1437 10       		.byte	0x10
 9738 1438 18       		.uleb128 0x18
 9739 1439 51070000 		.4byte	.LASF294
 9740 143d 17       		.byte	0x17
 9741 143e C602     		.2byte	0x2c6
 9742 1440 B9090000 		.4byte	0x9b9
 9743 1444 14       		.byte	0x14
 9744 1445 18       		.uleb128 0x18
 9745 1446 57070000 		.4byte	.LASF295
 9746 144a 17       		.byte	0x17
 9747 144b C702     		.2byte	0x2c7
 9748 144d B9090000 		.4byte	0x9b9
 9749 1451 18       		.byte	0x18
 9750 1452 18       		.uleb128 0x18
 9751 1453 5D070000 		.4byte	.LASF296
 9752 1457 17       		.byte	0x17
 9753 1458 C802     		.2byte	0x2c8
 9754 145a B9090000 		.4byte	0x9b9
 9755 145e 1C       		.byte	0x1c
 9756 145f 18       		.uleb128 0x18
 9757 1460 63070000 		.4byte	.LASF297
ARM GAS  C:\Users\Moi\AppData\Local\Temp\cchaECY7.s 			page 185


 9758 1464 17       		.byte	0x17
 9759 1465 C902     		.2byte	0x2c9
 9760 1467 B9090000 		.4byte	0x9b9
 9761 146b 20       		.byte	0x20
 9762 146c 18       		.uleb128 0x18
 9763 146d 91160000 		.4byte	.LASF298
 9764 1471 17       		.byte	0x17
 9765 1472 CA02     		.2byte	0x2ca
 9766 1474 B4090000 		.4byte	0x9b4
 9767 1478 24       		.byte	0x24
 9768 1479 18       		.uleb128 0x18
 9769 147a 78180000 		.4byte	.LASF299
 9770 147e 17       		.byte	0x17
 9771 147f CB02     		.2byte	0x2cb
 9772 1481 B4090000 		.4byte	0x9b4
 9773 1485 28       		.byte	0x28
 9774 1486 18       		.uleb128 0x18
 9775 1487 012D0000 		.4byte	.LASF300
 9776 148b 17       		.byte	0x17
 9777 148c CC02     		.2byte	0x2cc
 9778 148e B4090000 		.4byte	0x9b4
 9779 1492 2C       		.byte	0x2c
 9780 1493 18       		.uleb128 0x18
 9781 1494 932E0000 		.4byte	.LASF301
 9782 1498 17       		.byte	0x17
 9783 1499 CD02     		.2byte	0x2cd
 9784 149b B9090000 		.4byte	0x9b9
 9785 149f 30       		.byte	0x30
 9786 14a0 25       		.uleb128 0x25
 9787 14a1 53544100 		.ascii	"STA\000"
 9788 14a5 17       		.byte	0x17
 9789 14a6 CE02     		.2byte	0x2ce
 9790 14a8 B9090000 		.4byte	0x9b9
 9791 14ac 34       		.byte	0x34
 9792 14ad 25       		.uleb128 0x25
 9793 14ae 49435200 		.ascii	"ICR\000"
 9794 14b2 17       		.byte	0x17
 9795 14b3 CF02     		.2byte	0x2cf
 9796 14b5 B4090000 		.4byte	0x9b4
 9797 14b9 38       		.byte	0x38
 9798 14ba 18       		.uleb128 0x18
 9799 14bb 6E020000 		.4byte	.LASF302
 9800 14bf 17       		.byte	0x17
 9801 14c0 D002     		.2byte	0x2d0
 9802 14c2 B4090000 		.4byte	0x9b4
 9803 14c6 3C       		.byte	0x3c
 9804 14c7 18       		.uleb128 0x18
 9805 14c8 88250000 		.4byte	.LASF248
 9806 14cc 17       		.byte	0x17
 9807 14cd D102     		.2byte	0x2d1
 9808 14cf DB0D0000 		.4byte	0xddb
 9809 14d3 40       		.byte	0x40
 9810 14d4 18       		.uleb128 0x18
 9811 14d5 31170000 		.4byte	.LASF303
 9812 14d9 17       		.byte	0x17
 9813 14da D202     		.2byte	0x2d2
 9814 14dc B9090000 		.4byte	0x9b9
ARM GAS  C:\Users\Moi\AppData\Local\Temp\cchaECY7.s 			page 186


 9815 14e0 48       		.byte	0x48
 9816 14e1 18       		.uleb128 0x18
 9817 14e2 92250000 		.4byte	.LASF251
 9818 14e6 17       		.byte	0x17
 9819 14e7 D302     		.2byte	0x2d3
 9820 14e9 FC140000 		.4byte	0x14fc
 9821 14ed 4C       		.byte	0x4c
 9822 14ee 18       		.uleb128 0x18
 9823 14ef 510B0000 		.4byte	.LASF304
 9824 14f3 17       		.byte	0x17
 9825 14f4 D402     		.2byte	0x2d4
 9826 14f6 B4090000 		.4byte	0x9b4
 9827 14fa 80       		.byte	0x80
 9828 14fb 00       		.byte	0
 9829 14fc 0A       		.uleb128 0xa
 9830 14fd A9090000 		.4byte	0x9a9
 9831 1501 0C150000 		.4byte	0x150c
 9832 1505 0B       		.uleb128 0xb
 9833 1506 37000000 		.4byte	0x37
 9834 150a 0C       		.byte	0xc
 9835 150b 00       		.byte	0
 9836 150c 07       		.uleb128 0x7
 9837 150d F8260000 		.4byte	.LASF305
 9838 1511 17       		.byte	0x17
 9839 1512 D502     		.2byte	0x2d5
 9840 1514 EE130000 		.4byte	0x13ee
 9841 1518 1C       		.uleb128 0x1c
 9842 1519 24       		.byte	0x24
 9843 151a 17       		.byte	0x17
 9844 151b DB02     		.2byte	0x2db
 9845 151d 95150000 		.4byte	0x1595
 9846 1521 25       		.uleb128 0x25
 9847 1522 43523100 		.ascii	"CR1\000"
 9848 1526 17       		.byte	0x17
 9849 1527 DD02     		.2byte	0x2dd
 9850 1529 B4090000 		.4byte	0x9b4
 9851 152d 00       		.byte	0
 9852 152e 25       		.uleb128 0x25
 9853 152f 43523200 		.ascii	"CR2\000"
 9854 1533 17       		.byte	0x17
 9855 1534 DE02     		.2byte	0x2de
 9856 1536 B4090000 		.4byte	0x9b4
 9857 153a 04       		.byte	0x4
 9858 153b 25       		.uleb128 0x25
 9859 153c 535200   		.ascii	"SR\000"
 9860 153f 17       		.byte	0x17
 9861 1540 DF02     		.2byte	0x2df
 9862 1542 B4090000 		.4byte	0x9b4
 9863 1546 08       		.byte	0x8
 9864 1547 25       		.uleb128 0x25
 9865 1548 445200   		.ascii	"DR\000"
 9866 154b 17       		.byte	0x17
 9867 154c E002     		.2byte	0x2e0
 9868 154e B4090000 		.4byte	0x9b4
 9869 1552 0C       		.byte	0xc
 9870 1553 18       		.uleb128 0x18
 9871 1554 23090000 		.4byte	.LASF306
ARM GAS  C:\Users\Moi\AppData\Local\Temp\cchaECY7.s 			page 187


 9872 1558 17       		.byte	0x17
 9873 1559 E102     		.2byte	0x2e1
 9874 155b B4090000 		.4byte	0x9b4
 9875 155f 10       		.byte	0x10
 9876 1560 18       		.uleb128 0x18
 9877 1561 AF0D0000 		.4byte	.LASF307
 9878 1565 17       		.byte	0x17
 9879 1566 E202     		.2byte	0x2e2
 9880 1568 B4090000 		.4byte	0x9b4
 9881 156c 14       		.byte	0x14
 9882 156d 18       		.uleb128 0x18
 9883 156e 7A0C0000 		.4byte	.LASF308
 9884 1572 17       		.byte	0x17
 9885 1573 E302     		.2byte	0x2e3
 9886 1575 B4090000 		.4byte	0x9b4
 9887 1579 18       		.byte	0x18
 9888 157a 18       		.uleb128 0x18
 9889 157b CD290000 		.4byte	.LASF309
 9890 157f 17       		.byte	0x17
 9891 1580 E402     		.2byte	0x2e4
 9892 1582 B4090000 		.4byte	0x9b4
 9893 1586 1C       		.byte	0x1c
 9894 1587 18       		.uleb128 0x18
 9895 1588 D7080000 		.4byte	.LASF310
 9896 158c 17       		.byte	0x17
 9897 158d E502     		.2byte	0x2e5
 9898 158f B4090000 		.4byte	0x9b4
 9899 1593 20       		.byte	0x20
 9900 1594 00       		.byte	0
 9901 1595 07       		.uleb128 0x7
 9902 1596 7B270000 		.4byte	.LASF311
 9903 159a 17       		.byte	0x17
 9904 159b E602     		.2byte	0x2e6
 9905 159d 18150000 		.4byte	0x1518
 9906 15a1 1C       		.uleb128 0x1c
 9907 15a2 1C       		.byte	0x1c
 9908 15a3 17       		.byte	0x17
 9909 15a4 0903     		.2byte	0x309
 9910 15a6 04160000 		.4byte	0x1604
 9911 15aa 25       		.uleb128 0x25
 9912 15ab 535200   		.ascii	"SR\000"
 9913 15ae 17       		.byte	0x17
 9914 15af 0B03     		.2byte	0x30b
 9915 15b1 B4090000 		.4byte	0x9b4
 9916 15b5 00       		.byte	0
 9917 15b6 25       		.uleb128 0x25
 9918 15b7 445200   		.ascii	"DR\000"
 9919 15ba 17       		.byte	0x17
 9920 15bb 0C03     		.2byte	0x30c
 9921 15bd B4090000 		.4byte	0x9b4
 9922 15c1 04       		.byte	0x4
 9923 15c2 25       		.uleb128 0x25
 9924 15c3 42525200 		.ascii	"BRR\000"
 9925 15c7 17       		.byte	0x17
 9926 15c8 0D03     		.2byte	0x30d
 9927 15ca B4090000 		.4byte	0x9b4
 9928 15ce 08       		.byte	0x8
ARM GAS  C:\Users\Moi\AppData\Local\Temp\cchaECY7.s 			page 188


 9929 15cf 25       		.uleb128 0x25
 9930 15d0 43523100 		.ascii	"CR1\000"
 9931 15d4 17       		.byte	0x17
 9932 15d5 0E03     		.2byte	0x30e
 9933 15d7 B4090000 		.4byte	0x9b4
 9934 15db 0C       		.byte	0xc
 9935 15dc 25       		.uleb128 0x25
 9936 15dd 43523200 		.ascii	"CR2\000"
 9937 15e1 17       		.byte	0x17
 9938 15e2 0F03     		.2byte	0x30f
 9939 15e4 B4090000 		.4byte	0x9b4
 9940 15e8 10       		.byte	0x10
 9941 15e9 25       		.uleb128 0x25
 9942 15ea 43523300 		.ascii	"CR3\000"
 9943 15ee 17       		.byte	0x17
 9944 15ef 1003     		.2byte	0x310
 9945 15f1 B4090000 		.4byte	0x9b4
 9946 15f5 14       		.byte	0x14
 9947 15f6 18       		.uleb128 0x18
 9948 15f7 F1100000 		.4byte	.LASF312
 9949 15fb 17       		.byte	0x17
 9950 15fc 1103     		.2byte	0x311
 9951 15fe B4090000 		.4byte	0x9b4
 9952 1602 18       		.byte	0x18
 9953 1603 00       		.byte	0
 9954 1604 07       		.uleb128 0x7
 9955 1605 B62D0000 		.4byte	.LASF313
 9956 1609 17       		.byte	0x17
 9957 160a 1203     		.2byte	0x312
 9958 160c A1150000 		.4byte	0x15a1
 9959 1610 0A       		.uleb128 0xa
 9960 1611 B4090000 		.4byte	0x9b4
 9961 1615 20160000 		.4byte	0x1620
 9962 1619 0B       		.uleb128 0xb
 9963 161a 37000000 		.4byte	0x37
 9964 161e 0E       		.byte	0xe
 9965 161f 00       		.byte	0
 9966 1620 1A       		.uleb128 0x1a
 9967 1621 10160000 		.4byte	0x1610
 9968 1625 03       		.uleb128 0x3
 9969 1626 031D0000 		.4byte	.LASF314
 9970 162a 18       		.byte	0x18
 9971 162b 65       		.byte	0x65
 9972 162c 68010000 		.4byte	0x168
 9973 1630 03       		.uleb128 0x3
 9974 1631 610F0000 		.4byte	.LASF315
 9975 1635 18       		.byte	0x18
 9976 1636 6D       		.byte	0x6d
 9977 1637 BE090000 		.4byte	0x9be
 9978 163b 10       		.uleb128 0x10
 9979 163c 59150000 		.4byte	.LASF316
 9980 1640 04       		.byte	0x4
 9981 1641 18       		.byte	0x18
 9982 1642 89       		.byte	0x89
 9983 1643 54160000 		.4byte	0x1654
 9984 1647 11       		.uleb128 0x11
 9985 1648 72313300 		.ascii	"r13\000"
ARM GAS  C:\Users\Moi\AppData\Local\Temp\cchaECY7.s 			page 189


 9986 164c 18       		.byte	0x18
 9987 164d 8A       		.byte	0x8a
 9988 164e 95170000 		.4byte	0x1795
 9989 1652 00       		.byte	0
 9990 1653 00       		.byte	0
 9991 1654 10       		.uleb128 0x10
 9992 1655 09000000 		.4byte	.LASF317
 9993 1659 64       		.byte	0x64
 9994 165a 01       		.byte	0x1
 9995 165b F4       		.byte	0xf4
 9996 165c 95170000 		.4byte	0x1795
 9997 1660 11       		.uleb128 0x11
 9998 1661 73313600 		.ascii	"s16\000"
 9999 1665 01       		.byte	0x1
 10000 1666 F6       		.byte	0xf6
 10001 1667 25160000 		.4byte	0x1625
 10002 166b 00       		.byte	0
 10003 166c 11       		.uleb128 0x11
 10004 166d 73313700 		.ascii	"s17\000"
 10005 1671 01       		.byte	0x1
 10006 1672 F7       		.byte	0xf7
 10007 1673 25160000 		.4byte	0x1625
 10008 1677 04       		.byte	0x4
 10009 1678 11       		.uleb128 0x11
 10010 1679 73313800 		.ascii	"s18\000"
 10011 167d 01       		.byte	0x1
 10012 167e F8       		.byte	0xf8
 10013 167f 25160000 		.4byte	0x1625
 10014 1683 08       		.byte	0x8
 10015 1684 11       		.uleb128 0x11
 10016 1685 73313900 		.ascii	"s19\000"
 10017 1689 01       		.byte	0x1
 10018 168a F9       		.byte	0xf9
 10019 168b 25160000 		.4byte	0x1625
 10020 168f 0C       		.byte	0xc
 10021 1690 11       		.uleb128 0x11
 10022 1691 73323000 		.ascii	"s20\000"
 10023 1695 01       		.byte	0x1
 10024 1696 FA       		.byte	0xfa
 10025 1697 25160000 		.4byte	0x1625
 10026 169b 10       		.byte	0x10
 10027 169c 11       		.uleb128 0x11
 10028 169d 73323100 		.ascii	"s21\000"
 10029 16a1 01       		.byte	0x1
 10030 16a2 FB       		.byte	0xfb
 10031 16a3 25160000 		.4byte	0x1625
 10032 16a7 14       		.byte	0x14
 10033 16a8 11       		.uleb128 0x11
 10034 16a9 73323200 		.ascii	"s22\000"
 10035 16ad 01       		.byte	0x1
 10036 16ae FC       		.byte	0xfc
 10037 16af 25160000 		.4byte	0x1625
 10038 16b3 18       		.byte	0x18
 10039 16b4 11       		.uleb128 0x11
 10040 16b5 73323300 		.ascii	"s23\000"
 10041 16b9 01       		.byte	0x1
 10042 16ba FD       		.byte	0xfd
ARM GAS  C:\Users\Moi\AppData\Local\Temp\cchaECY7.s 			page 190


 10043 16bb 25160000 		.4byte	0x1625
 10044 16bf 1C       		.byte	0x1c
 10045 16c0 11       		.uleb128 0x11
 10046 16c1 73323400 		.ascii	"s24\000"
 10047 16c5 01       		.byte	0x1
 10048 16c6 FE       		.byte	0xfe
 10049 16c7 25160000 		.4byte	0x1625
 10050 16cb 20       		.byte	0x20
 10051 16cc 11       		.uleb128 0x11
 10052 16cd 73323500 		.ascii	"s25\000"
 10053 16d1 01       		.byte	0x1
 10054 16d2 FF       		.byte	0xff
 10055 16d3 25160000 		.4byte	0x1625
 10056 16d7 24       		.byte	0x24
 10057 16d8 25       		.uleb128 0x25
 10058 16d9 73323600 		.ascii	"s26\000"
 10059 16dd 01       		.byte	0x1
 10060 16de 0001     		.2byte	0x100
 10061 16e0 25160000 		.4byte	0x1625
 10062 16e4 28       		.byte	0x28
 10063 16e5 25       		.uleb128 0x25
 10064 16e6 73323700 		.ascii	"s27\000"
 10065 16ea 01       		.byte	0x1
 10066 16eb 0101     		.2byte	0x101
 10067 16ed 25160000 		.4byte	0x1625
 10068 16f1 2C       		.byte	0x2c
 10069 16f2 25       		.uleb128 0x25
 10070 16f3 73323800 		.ascii	"s28\000"
 10071 16f7 01       		.byte	0x1
 10072 16f8 0201     		.2byte	0x102
 10073 16fa 25160000 		.4byte	0x1625
 10074 16fe 30       		.byte	0x30
 10075 16ff 25       		.uleb128 0x25
 10076 1700 73323900 		.ascii	"s29\000"
 10077 1704 01       		.byte	0x1
 10078 1705 0301     		.2byte	0x103
 10079 1707 25160000 		.4byte	0x1625
 10080 170b 34       		.byte	0x34
 10081 170c 25       		.uleb128 0x25
 10082 170d 73333000 		.ascii	"s30\000"
 10083 1711 01       		.byte	0x1
 10084 1712 0401     		.2byte	0x104
 10085 1714 25160000 		.4byte	0x1625
 10086 1718 38       		.byte	0x38
 10087 1719 25       		.uleb128 0x25
 10088 171a 73333100 		.ascii	"s31\000"
 10089 171e 01       		.byte	0x1
 10090 171f 0501     		.2byte	0x105
 10091 1721 25160000 		.4byte	0x1625
 10092 1725 3C       		.byte	0x3c
 10093 1726 25       		.uleb128 0x25
 10094 1727 723400   		.ascii	"r4\000"
 10095 172a 01       		.byte	0x1
 10096 172b 0701     		.2byte	0x107
 10097 172d 25160000 		.4byte	0x1625
 10098 1731 40       		.byte	0x40
 10099 1732 25       		.uleb128 0x25
ARM GAS  C:\Users\Moi\AppData\Local\Temp\cchaECY7.s 			page 191


 10100 1733 723500   		.ascii	"r5\000"
 10101 1736 01       		.byte	0x1
 10102 1737 0801     		.2byte	0x108
 10103 1739 25160000 		.4byte	0x1625
 10104 173d 44       		.byte	0x44
 10105 173e 25       		.uleb128 0x25
 10106 173f 723600   		.ascii	"r6\000"
 10107 1742 01       		.byte	0x1
 10108 1743 0901     		.2byte	0x109
 10109 1745 25160000 		.4byte	0x1625
 10110 1749 48       		.byte	0x48
 10111 174a 25       		.uleb128 0x25
 10112 174b 723700   		.ascii	"r7\000"
 10113 174e 01       		.byte	0x1
 10114 174f 0A01     		.2byte	0x10a
 10115 1751 25160000 		.4byte	0x1625
 10116 1755 4C       		.byte	0x4c
 10117 1756 25       		.uleb128 0x25
 10118 1757 723800   		.ascii	"r8\000"
 10119 175a 01       		.byte	0x1
 10120 175b 0B01     		.2byte	0x10b
 10121 175d 25160000 		.4byte	0x1625
 10122 1761 50       		.byte	0x50
 10123 1762 25       		.uleb128 0x25
 10124 1763 723900   		.ascii	"r9\000"
 10125 1766 01       		.byte	0x1
 10126 1767 0C01     		.2byte	0x10c
 10127 1769 25160000 		.4byte	0x1625
 10128 176d 54       		.byte	0x54
 10129 176e 25       		.uleb128 0x25
 10130 176f 72313000 		.ascii	"r10\000"
 10131 1773 01       		.byte	0x1
 10132 1774 0D01     		.2byte	0x10d
 10133 1776 25160000 		.4byte	0x1625
 10134 177a 58       		.byte	0x58
 10135 177b 25       		.uleb128 0x25
 10136 177c 72313100 		.ascii	"r11\000"
 10137 1780 01       		.byte	0x1
 10138 1781 0E01     		.2byte	0x10e
 10139 1783 25160000 		.4byte	0x1625
 10140 1787 5C       		.byte	0x5c
 10141 1788 25       		.uleb128 0x25
 10142 1789 6C7200   		.ascii	"lr\000"
 10143 178c 01       		.byte	0x1
 10144 178d 0F01     		.2byte	0x10f
 10145 178f 25160000 		.4byte	0x1625
 10146 1793 60       		.byte	0x60
 10147 1794 00       		.byte	0
 10148 1795 05       		.uleb128 0x5
 10149 1796 04       		.byte	0x4
 10150 1797 54160000 		.4byte	0x1654
 10151 179b 0C       		.uleb128 0xc
 10152 179c 10       		.byte	0x10
 10153 179d 19       		.byte	0x19
 10154 179e 51       		.byte	0x51
 10155 179f D4170000 		.4byte	0x17d4
 10156 17a3 0D       		.uleb128 0xd
ARM GAS  C:\Users\Moi\AppData\Local\Temp\cchaECY7.s 			page 192


 10157 17a4 FC250000 		.4byte	.LASF318
 10158 17a8 19       		.byte	0x19
 10159 17a9 55       		.byte	0x55
 10160 17aa 4D0A0000 		.4byte	0xa4d
 10161 17ae 00       		.byte	0
 10162 17af 0D       		.uleb128 0xd
 10163 17b0 A11D0000 		.4byte	.LASF319
 10164 17b4 19       		.byte	0x19
 10165 17b5 59       		.byte	0x59
 10166 17b6 910B0000 		.4byte	0xb91
 10167 17ba 04       		.byte	0x4
 10168 17bb 0D       		.uleb128 0xd
 10169 17bc 7C0E0000 		.4byte	.LASF320
 10170 17c0 19       		.byte	0x19
 10171 17c1 5D       		.byte	0x5d
 10172 17c2 68010000 		.4byte	0x168
 10173 17c6 08       		.byte	0x8
 10174 17c7 0D       		.uleb128 0xd
 10175 17c8 FE0B0000 		.4byte	.LASF321
 10176 17cc 19       		.byte	0x19
 10177 17cd 61       		.byte	0x61
 10178 17ce 73090000 		.4byte	0x973
 10179 17d2 0C       		.byte	0xc
 10180 17d3 00       		.byte	0
 10181 17d4 03       		.uleb128 0x3
 10182 17d5 6C0F0000 		.4byte	.LASF322
 10183 17d9 19       		.byte	0x19
 10184 17da 62       		.byte	0x62
 10185 17db 9B170000 		.4byte	0x179b
 10186 17df 29       		.uleb128 0x29
 10187 17e0 0804     		.2byte	0x408
 10188 17e2 19       		.byte	0x19
 10189 17e3 67       		.byte	0x67
 10190 17e4 0D180000 		.4byte	0x180d
 10191 17e8 0D       		.uleb128 0xd
 10192 17e9 4E100000 		.4byte	.LASF323
 10193 17ed 19       		.byte	0x19
 10194 17ee 6B       		.byte	0x6b
 10195 17ef 37000000 		.4byte	0x37
 10196 17f3 00       		.byte	0
 10197 17f4 0D       		.uleb128 0xd
 10198 17f5 60170000 		.4byte	.LASF324
 10199 17f9 19       		.byte	0x19
 10200 17fa 6F       		.byte	0x6f
 10201 17fb 0D180000 		.4byte	0x180d
 10202 17ff 04       		.byte	0x4
 10203 1800 0D       		.uleb128 0xd
 10204 1801 560B0000 		.4byte	.LASF325
 10205 1805 19       		.byte	0x19
 10206 1806 73       		.byte	0x73
 10207 1807 13180000 		.4byte	0x1813
 10208 180b 08       		.byte	0x8
 10209 180c 00       		.byte	0
 10210 180d 05       		.uleb128 0x5
 10211 180e 04       		.byte	0x4
 10212 180f D4170000 		.4byte	0x17d4
 10213 1813 0A       		.uleb128 0xa
ARM GAS  C:\Users\Moi\AppData\Local\Temp\cchaECY7.s 			page 193


 10214 1814 D4170000 		.4byte	0x17d4
 10215 1818 23180000 		.4byte	0x1823
 10216 181c 0B       		.uleb128 0xb
 10217 181d 37000000 		.4byte	0x37
 10218 1821 3F       		.byte	0x3f
 10219 1822 00       		.byte	0
 10220 1823 03       		.uleb128 0x3
 10221 1824 15000000 		.4byte	.LASF326
 10222 1828 19       		.byte	0x19
 10223 1829 74       		.byte	0x74
 10224 182a DF170000 		.4byte	0x17df
 10225 182e 0C       		.uleb128 0xc
 10226 182f 04       		.byte	0x4
 10227 1830 1A       		.byte	0x1a
 10228 1831 38       		.byte	0x38
 10229 1832 43180000 		.4byte	0x1843
 10230 1836 0D       		.uleb128 0xd
 10231 1837 05270000 		.4byte	.LASF327
 10232 183b 1A       		.byte	0x1a
 10233 183c 3C       		.byte	0x3c
 10234 183d C9090000 		.4byte	0x9c9
 10235 1841 00       		.byte	0
 10236 1842 00       		.byte	0
 10237 1843 03       		.uleb128 0x3
 10238 1844 A9060000 		.4byte	.LASF328
 10239 1848 1A       		.byte	0x1a
 10240 1849 3D       		.byte	0x3d
 10241 184a 2E180000 		.4byte	0x182e
 10242 184e 0C       		.uleb128 0xc
 10243 184f 18       		.byte	0x18
 10244 1850 1A       		.byte	0x1a
 10245 1851 48       		.byte	0x48
 10246 1852 91180000 		.4byte	0x1891
 10247 1856 0D       		.uleb128 0xd
 10248 1857 E8080000 		.4byte	.LASF329
 10249 185b 1A       		.byte	0x1a
 10250 185c 49       		.byte	0x49
 10251 185d C9090000 		.4byte	0x9c9
 10252 1861 00       		.byte	0
 10253 1862 0D       		.uleb128 0xd
 10254 1863 00020000 		.4byte	.LASF330
 10255 1867 1A       		.byte	0x1a
 10256 1868 4A       		.byte	0x4a
 10257 1869 C9090000 		.4byte	0x9c9
 10258 186d 04       		.byte	0x4
 10259 186e 0D       		.uleb128 0xd
 10260 186f 6D1C0000 		.4byte	.LASF331
 10261 1873 1A       		.byte	0x1a
 10262 1874 4B       		.byte	0x4b
 10263 1875 C9090000 		.4byte	0x9c9
 10264 1879 08       		.byte	0x8
 10265 187a 11       		.uleb128 0x11
 10266 187b 6E00     		.ascii	"n\000"
 10267 187d 1A       		.byte	0x1a
 10268 187e 4C       		.byte	0x4c
 10269 187f 420A0000 		.4byte	0xa42
 10270 1883 0C       		.byte	0xc
ARM GAS  C:\Users\Moi\AppData\Local\Temp\cchaECY7.s 			page 194


 10271 1884 0D       		.uleb128 0xd
 10272 1885 111C0000 		.4byte	.LASF332
 10273 1889 1A       		.byte	0x1a
 10274 188a 4D       		.byte	0x4d
 10275 188b D4090000 		.4byte	0x9d4
 10276 188f 10       		.byte	0x10
 10277 1890 00       		.byte	0
 10278 1891 03       		.uleb128 0x3
 10279 1892 6A2A0000 		.4byte	.LASF333
 10280 1896 1A       		.byte	0x1a
 10281 1897 4E       		.byte	0x4e
 10282 1898 4E180000 		.4byte	0x184e
 10283 189c 0C       		.uleb128 0xc
 10284 189d 38       		.byte	0x38
 10285 189e 1B       		.byte	0x1b
 10286 189f 38       		.byte	0x38
 10287 18a0 D5180000 		.4byte	0x18d5
 10288 18a4 0D       		.uleb128 0xd
 10289 18a5 18080000 		.4byte	.LASF334
 10290 18a9 1B       		.byte	0x1b
 10291 18aa 39       		.byte	0x39
 10292 18ab 420A0000 		.4byte	0xa42
 10293 18af 00       		.byte	0
 10294 18b0 0D       		.uleb128 0xd
 10295 18b1 F00C0000 		.4byte	.LASF335
 10296 18b5 1B       		.byte	0x1b
 10297 18b6 3A       		.byte	0x3a
 10298 18b7 420A0000 		.4byte	0xa42
 10299 18bb 04       		.byte	0x4
 10300 18bc 0D       		.uleb128 0xd
 10301 18bd B0290000 		.4byte	.LASF336
 10302 18c1 1B       		.byte	0x1b
 10303 18c2 3B       		.byte	0x3b
 10304 18c3 91180000 		.4byte	0x1891
 10305 18c7 08       		.byte	0x8
 10306 18c8 0D       		.uleb128 0xd
 10307 18c9 C0000000 		.4byte	.LASF337
 10308 18cd 1B       		.byte	0x1b
 10309 18ce 3D       		.byte	0x3d
 10310 18cf 91180000 		.4byte	0x1891
 10311 18d3 20       		.byte	0x20
 10312 18d4 00       		.byte	0
 10313 18d5 03       		.uleb128 0x3
 10314 18d6 65060000 		.4byte	.LASF338
 10315 18da 1B       		.byte	0x1b
 10316 18db 3F       		.byte	0x3f
 10317 18dc 9C180000 		.4byte	0x189c
 10318 18e0 08       		.uleb128 0x8
 10319 18e1 04       		.byte	0x4
 10320 18e2 14       		.byte	0x14
 10321 18e3 FA       		.byte	0xfa
 10322 18e4 3D190000 		.4byte	0x193d
 10323 18e8 1E       		.uleb128 0x1e
 10324 18e9 7E120000 		.4byte	.LASF339
 10325 18ed 14       		.byte	0x14
 10326 18ee 0101     		.2byte	0x101
 10327 18f0 160A0000 		.4byte	0xa16
ARM GAS  C:\Users\Moi\AppData\Local\Temp\cchaECY7.s 			page 195


 10328 18f4 1E       		.uleb128 0x1e
 10329 18f5 A6090000 		.4byte	.LASF340
 10330 18f9 14       		.byte	0x14
 10331 18fa 0801     		.2byte	0x108
 10332 18fc 160A0000 		.4byte	0xa16
 10333 1900 1E       		.uleb128 0x1e
 10334 1901 90210000 		.4byte	.LASF341
 10335 1905 14       		.byte	0x14
 10336 1906 0F01     		.2byte	0x10f
 10337 1908 68010000 		.4byte	0x168
 10338 190c 1E       		.uleb128 0x1e
 10339 190d 321C0000 		.4byte	.LASF342
 10340 1911 14       		.byte	0x14
 10341 1912 1601     		.2byte	0x116
 10342 1914 3D190000 		.4byte	0x193d
 10343 1918 1E       		.uleb128 0x1e
 10344 1919 5B010000 		.4byte	.LASF343
 10345 191d 14       		.byte	0x14
 10346 191e 1E01     		.2byte	0x11e
 10347 1920 68190000 		.4byte	0x1968
 10348 1924 1E       		.uleb128 0x1e
 10349 1925 F5210000 		.4byte	.LASF344
 10350 1929 14       		.byte	0x14
 10351 192a 2701     		.2byte	0x127
 10352 192c AB190000 		.4byte	0x19ab
 10353 1930 1E       		.uleb128 0x1e
 10354 1931 DA270000 		.4byte	.LASF345
 10355 1935 14       		.byte	0x14
 10356 1936 2F01     		.2byte	0x12f
 10357 1938 210A0000 		.4byte	0xa21
 10358 193c 00       		.byte	0
 10359 193d 05       		.uleb128 0x5
 10360 193e 04       		.byte	0x4
 10361 193f 860B0000 		.4byte	0xb86
 10362 1943 10       		.uleb128 0x10
 10363 1944 671A0000 		.4byte	.LASF346
 10364 1948 0C       		.byte	0xc
 10365 1949 1C       		.byte	0x1c
 10366 194a 34       		.byte	0x34
 10367 194b 68190000 		.4byte	0x1968
 10368 194f 0D       		.uleb128 0xd
 10369 1950 A8290000 		.4byte	.LASF347
 10370 1954 1C       		.byte	0x1c
 10371 1955 35       		.byte	0x35
 10372 1956 BB0B0000 		.4byte	0xbbb
 10373 195a 00       		.byte	0
 10374 195b 0D       		.uleb128 0xd
 10375 195c 6D0B0000 		.4byte	.LASF348
 10376 1960 1C       		.byte	0x1c
 10377 1961 37       		.byte	0x37
 10378 1962 370A0000 		.4byte	0xa37
 10379 1966 08       		.byte	0x8
 10380 1967 00       		.byte	0
 10381 1968 05       		.uleb128 0x5
 10382 1969 04       		.byte	0x4
 10383 196a 43190000 		.4byte	0x1943
 10384 196e 10       		.uleb128 0x10
ARM GAS  C:\Users\Moi\AppData\Local\Temp\cchaECY7.s 			page 196


 10385 196f C20D0000 		.4byte	.LASF349
 10386 1973 14       		.byte	0x14
 10387 1974 1D       		.byte	0x1d
 10388 1975 39       		.byte	0x39
 10389 1976 AB190000 		.4byte	0x19ab
 10390 197a 0D       		.uleb128 0xd
 10391 197b 04160000 		.4byte	.LASF350
 10392 197f 1D       		.byte	0x1d
 10393 1980 3A       		.byte	0x3a
 10394 1981 BB0B0000 		.4byte	0xbbb
 10395 1985 00       		.byte	0
 10396 1986 0D       		.uleb128 0xd
 10397 1987 16190000 		.4byte	.LASF351
 10398 198b 1D       		.byte	0x1d
 10399 198c 3C       		.byte	0x3c
 10400 198d 910B0000 		.4byte	0xb91
 10401 1991 08       		.byte	0x8
 10402 1992 0D       		.uleb128 0xd
 10403 1993 3F020000 		.4byte	.LASF352
 10404 1997 1D       		.byte	0x1d
 10405 1998 3E       		.byte	0x3e
 10406 1999 EF1A0000 		.4byte	0x1aef
 10407 199d 0C       		.byte	0xc
 10408 199e 0D       		.uleb128 0xd
 10409 199f 340A0000 		.4byte	.LASF353
 10410 19a3 1D       		.byte	0x1d
 10411 19a4 41       		.byte	0x41
 10412 19a5 370A0000 		.4byte	0xa37
 10413 19a9 10       		.byte	0x10
 10414 19aa 00       		.byte	0
 10415 19ab 05       		.uleb128 0x5
 10416 19ac 04       		.byte	0x4
 10417 19ad 6E190000 		.4byte	0x196e
 10418 19b1 05       		.uleb128 0x5
 10419 19b2 04       		.byte	0x4
 10420 19b3 30160000 		.4byte	0x1630
 10421 19b7 05       		.uleb128 0x5
 10422 19b8 04       		.byte	0x4
 10423 19b9 6E0C0000 		.4byte	0xc6e
 10424 19bd 0A       		.uleb128 0xa
 10425 19be 30160000 		.4byte	0x1630
 10426 19c2 CD190000 		.4byte	0x19cd
 10427 19c6 0B       		.uleb128 0xb
 10428 19c7 37000000 		.4byte	0x37
 10429 19cb 30       		.byte	0x30
 10430 19cc 00       		.byte	0
 10431 19cd 2A       		.uleb128 0x2a
 10432 19ce 636800   		.ascii	"ch\000"
 10433 19d1 14       		.byte	0x14
 10434 19d2 0902     		.2byte	0x209
 10435 19d4 630D0000 		.4byte	0xd63
 10436 19d8 0C       		.uleb128 0xc
 10437 19d9 16       		.byte	0x16
 10438 19da 1E       		.byte	0x1e
 10439 19db 34       		.byte	0x34
 10440 19dc B91A0000 		.4byte	0x1ab9
 10441 19e0 0D       		.uleb128 0xd
ARM GAS  C:\Users\Moi\AppData\Local\Temp\cchaECY7.s 			page 197


 10442 19e1 F4290000 		.4byte	.LASF354
 10443 19e5 1E       		.byte	0x1e
 10444 19e6 35       		.byte	0x35
 10445 19e7 B91A0000 		.4byte	0x1ab9
 10446 19eb 00       		.byte	0
 10447 19ec 0D       		.uleb128 0xd
 10448 19ed DF2C0000 		.4byte	.LASF355
 10449 19f1 1E       		.byte	0x1e
 10450 19f2 36       		.byte	0x36
 10451 19f3 73090000 		.4byte	0x973
 10452 19f7 04       		.byte	0x4
 10453 19f8 0D       		.uleb128 0xd
 10454 19f9 EB030000 		.4byte	.LASF356
 10455 19fd 1E       		.byte	0x1e
 10456 19fe 37       		.byte	0x37
 10457 19ff 73090000 		.4byte	0x973
 10458 1a03 05       		.byte	0x5
 10459 1a04 0D       		.uleb128 0xd
 10460 1a05 9A190000 		.4byte	.LASF357
 10461 1a09 1E       		.byte	0x1e
 10462 1a0a 38       		.byte	0x38
 10463 1a0b 8E090000 		.4byte	0x98e
 10464 1a0f 06       		.byte	0x6
 10465 1a10 0D       		.uleb128 0xd
 10466 1a11 27000000 		.4byte	.LASF358
 10467 1a15 1E       		.byte	0x1e
 10468 1a16 39       		.byte	0x39
 10469 1a17 73090000 		.4byte	0x973
 10470 1a1b 08       		.byte	0x8
 10471 1a1c 0D       		.uleb128 0xd
 10472 1a1d 1D170000 		.4byte	.LASF359
 10473 1a21 1E       		.byte	0x1e
 10474 1a22 3A       		.byte	0x3a
 10475 1a23 73090000 		.4byte	0x973
 10476 1a27 09       		.byte	0x9
 10477 1a28 0D       		.uleb128 0xd
 10478 1a29 072D0000 		.4byte	.LASF360
 10479 1a2d 1E       		.byte	0x1e
 10480 1a2e 3B       		.byte	0x3b
 10481 1a2f 73090000 		.4byte	0x973
 10482 1a33 0A       		.byte	0xa
 10483 1a34 0D       		.uleb128 0xd
 10484 1a35 462A0000 		.4byte	.LASF361
 10485 1a39 1E       		.byte	0x1e
 10486 1a3a 3C       		.byte	0x3c
 10487 1a3b 73090000 		.4byte	0x973
 10488 1a3f 0B       		.byte	0xb
 10489 1a40 0D       		.uleb128 0xd
 10490 1a41 24290000 		.4byte	.LASF362
 10491 1a45 1E       		.byte	0x1e
 10492 1a46 3D       		.byte	0x3d
 10493 1a47 73090000 		.4byte	0x973
 10494 1a4b 0C       		.byte	0xc
 10495 1a4c 0D       		.uleb128 0xd
 10496 1a4d 380E0000 		.4byte	.LASF363
 10497 1a51 1E       		.byte	0x1e
 10498 1a52 3E       		.byte	0x3e
ARM GAS  C:\Users\Moi\AppData\Local\Temp\cchaECY7.s 			page 198


 10499 1a53 73090000 		.4byte	0x973
 10500 1a57 0D       		.byte	0xd
 10501 1a58 0D       		.uleb128 0xd
 10502 1a59 FD060000 		.4byte	.LASF364
 10503 1a5d 1E       		.byte	0x1e
 10504 1a5e 3F       		.byte	0x3f
 10505 1a5f 73090000 		.4byte	0x973
 10506 1a63 0E       		.byte	0xe
 10507 1a64 0D       		.uleb128 0xd
 10508 1a65 F20F0000 		.4byte	.LASF365
 10509 1a69 1E       		.byte	0x1e
 10510 1a6a 40       		.byte	0x40
 10511 1a6b 73090000 		.4byte	0x973
 10512 1a6f 0F       		.byte	0xf
 10513 1a70 0D       		.uleb128 0xd
 10514 1a71 DB110000 		.4byte	.LASF366
 10515 1a75 1E       		.byte	0x1e
 10516 1a76 41       		.byte	0x41
 10517 1a77 73090000 		.4byte	0x973
 10518 1a7b 10       		.byte	0x10
 10519 1a7c 0D       		.uleb128 0xd
 10520 1a7d 09190000 		.4byte	.LASF367
 10521 1a81 1E       		.byte	0x1e
 10522 1a82 43       		.byte	0x43
 10523 1a83 73090000 		.4byte	0x973
 10524 1a87 11       		.byte	0x11
 10525 1a88 0D       		.uleb128 0xd
 10526 1a89 A5030000 		.4byte	.LASF368
 10527 1a8d 1E       		.byte	0x1e
 10528 1a8e 44       		.byte	0x44
 10529 1a8f 73090000 		.4byte	0x973
 10530 1a93 12       		.byte	0x12
 10531 1a94 0D       		.uleb128 0xd
 10532 1a95 FD180000 		.4byte	.LASF369
 10533 1a99 1E       		.byte	0x1e
 10534 1a9a 45       		.byte	0x45
 10535 1a9b 73090000 		.4byte	0x973
 10536 1a9f 13       		.byte	0x13
 10537 1aa0 0D       		.uleb128 0xd
 10538 1aa1 A4200000 		.4byte	.LASF370
 10539 1aa5 1E       		.byte	0x1e
 10540 1aa6 46       		.byte	0x46
 10541 1aa7 73090000 		.4byte	0x973
 10542 1aab 14       		.byte	0x14
 10543 1aac 0D       		.uleb128 0xd
 10544 1aad 2B010000 		.4byte	.LASF371
 10545 1ab1 1E       		.byte	0x1e
 10546 1ab2 48       		.byte	0x48
 10547 1ab3 73090000 		.4byte	0x973
 10548 1ab7 15       		.byte	0x15
 10549 1ab8 00       		.byte	0
 10550 1ab9 0A       		.uleb128 0xa
 10551 1aba 75010000 		.4byte	0x175
 10552 1abe C91A0000 		.4byte	0x1ac9
 10553 1ac2 0B       		.uleb128 0xb
 10554 1ac3 37000000 		.4byte	0x37
 10555 1ac7 03       		.byte	0x3
ARM GAS  C:\Users\Moi\AppData\Local\Temp\cchaECY7.s 			page 199


 10556 1ac8 00       		.byte	0
 10557 1ac9 03       		.uleb128 0x3
 10558 1aca B7160000 		.4byte	.LASF372
 10559 1ace 1E       		.byte	0x1e
 10560 1acf 49       		.byte	0x49
 10561 1ad0 D8190000 		.4byte	0x19d8
 10562 1ad4 0F       		.uleb128 0xf
 10563 1ad5 C91A0000 		.4byte	0x1ac9
 10564 1ad9 27       		.uleb128 0x27
 10565 1ada F90C0000 		.4byte	.LASF373
 10566 1ade 1E       		.byte	0x1e
 10567 1adf 6E       		.byte	0x6e
 10568 1ae0 D41A0000 		.4byte	0x1ad4
 10569 1ae4 03       		.uleb128 0x3
 10570 1ae5 0D250000 		.4byte	.LASF374
 10571 1ae9 1D       		.byte	0x1d
 10572 1aea 34       		.byte	0x34
 10573 1aeb 6E190000 		.4byte	0x196e
 10574 1aef 05       		.uleb128 0x5
 10575 1af0 04       		.byte	0x4
 10576 1af1 E41A0000 		.4byte	0x1ae4
 10577 1af5 03       		.uleb128 0x3
 10578 1af6 6C0D0000 		.4byte	.LASF375
 10579 1afa 1F       		.byte	0x1f
 10580 1afb 34       		.byte	0x34
 10581 1afc 001B0000 		.4byte	0x1b00
 10582 1b00 10       		.uleb128 0x10
 10583 1b01 812D0000 		.4byte	.LASF376
 10584 1b05 14       		.byte	0x14
 10585 1b06 1F       		.byte	0x1f
 10586 1b07 39       		.byte	0x39
 10587 1b08 491B0000 		.4byte	0x1b49
 10588 1b0c 0D       		.uleb128 0xd
 10589 1b0d E6020000 		.4byte	.LASF377
 10590 1b11 1F       		.byte	0x1f
 10591 1b12 3A       		.byte	0x3a
 10592 1b13 491B0000 		.4byte	0x1b49
 10593 1b17 00       		.byte	0
 10594 1b18 0D       		.uleb128 0xd
 10595 1b19 39260000 		.4byte	.LASF378
 10596 1b1d 1F       		.byte	0x1f
 10597 1b1e 3D       		.byte	0x3d
 10598 1b1f 910B0000 		.4byte	0xb91
 10599 1b23 04       		.byte	0x4
 10600 1b24 0D       		.uleb128 0xd
 10601 1b25 60040000 		.4byte	.LASF379
 10602 1b29 1F       		.byte	0x1f
 10603 1b2a 3F       		.byte	0x3f
 10604 1b2b 210A0000 		.4byte	0xa21
 10605 1b2f 08       		.byte	0x8
 10606 1b30 0D       		.uleb128 0xd
 10607 1b31 E1270000 		.4byte	.LASF380
 10608 1b35 1F       		.byte	0x1f
 10609 1b36 41       		.byte	0x41
 10610 1b37 2C0A0000 		.4byte	0xa2c
 10611 1b3b 0C       		.byte	0xc
 10612 1b3c 0D       		.uleb128 0xd
ARM GAS  C:\Users\Moi\AppData\Local\Temp\cchaECY7.s 			page 200


 10613 1b3d 3A100000 		.4byte	.LASF381
 10614 1b41 1F       		.byte	0x1f
 10615 1b42 43       		.byte	0x43
 10616 1b43 2C0A0000 		.4byte	0xa2c
 10617 1b47 10       		.byte	0x10
 10618 1b48 00       		.byte	0
 10619 1b49 05       		.uleb128 0x5
 10620 1b4a 04       		.byte	0x4
 10621 1b4b F51A0000 		.4byte	0x1af5
 10622 1b4f 10       		.uleb128 0x10
 10623 1b50 F5270000 		.4byte	.LASF382
 10624 1b54 04       		.byte	0x4
 10625 1b55 1F       		.byte	0x1f
 10626 1b56 4A       		.byte	0x4a
 10627 1b57 681B0000 		.4byte	0x1b68
 10628 1b5b 0D       		.uleb128 0xd
 10629 1b5c 38270000 		.4byte	.LASF383
 10630 1b60 1F       		.byte	0x1f
 10631 1b61 4B       		.byte	0x4b
 10632 1b62 491B0000 		.4byte	0x1b49
 10633 1b66 00       		.byte	0
 10634 1b67 00       		.byte	0
 10635 1b68 03       		.uleb128 0x3
 10636 1b69 39170000 		.4byte	.LASF384
 10637 1b6d 1F       		.byte	0x1f
 10638 1b6e 4E       		.byte	0x4e
 10639 1b6f 4F1B0000 		.4byte	0x1b4f
 10640 1b73 03       		.uleb128 0x3
 10641 1b74 7A100000 		.4byte	.LASF385
 10642 1b78 20       		.byte	0x20
 10643 1b79 3F       		.byte	0x3f
 10644 1b7a 7E1B0000 		.4byte	0x1b7e
 10645 1b7e 10       		.uleb128 0x10
 10646 1b7f 0A130000 		.4byte	.LASF386
 10647 1b83 24       		.byte	0x24
 10648 1b84 20       		.byte	0x20
 10649 1b85 4D       		.byte	0x4d
 10650 1b86 EB1B0000 		.4byte	0x1beb
 10651 1b8a 0D       		.uleb128 0xd
 10652 1b8b 74060000 		.4byte	.LASF387
 10653 1b8f 20       		.byte	0x20
 10654 1b90 4E       		.byte	0x4e
 10655 1b91 BB0B0000 		.4byte	0xbbb
 10656 1b95 00       		.byte	0
 10657 1b96 0D       		.uleb128 0xd
 10658 1b97 B81B0000 		.4byte	.LASF388
 10659 1b9b 20       		.byte	0x20
 10660 1b9c 4F       		.byte	0x4f
 10661 1b9d 2C000000 		.4byte	0x2c
 10662 1ba1 08       		.byte	0x8
 10663 1ba2 0D       		.uleb128 0xd
 10664 1ba3 2E140000 		.4byte	.LASF389
 10665 1ba7 20       		.byte	0x20
 10666 1ba8 50       		.byte	0x50
 10667 1ba9 0D1C0000 		.4byte	0x1c0d
 10668 1bad 0C       		.byte	0xc
 10669 1bae 0D       		.uleb128 0xd
ARM GAS  C:\Users\Moi\AppData\Local\Temp\cchaECY7.s 			page 201


 10670 1baf A7050000 		.4byte	.LASF390
 10671 1bb3 20       		.byte	0x20
 10672 1bb4 51       		.byte	0x51
 10673 1bb5 0D1C0000 		.4byte	0x1c0d
 10674 1bb9 10       		.byte	0x10
 10675 1bba 0D       		.uleb128 0xd
 10676 1bbb A71D0000 		.4byte	.LASF391
 10677 1bbf 20       		.byte	0x20
 10678 1bc0 53       		.byte	0x53
 10679 1bc1 0D1C0000 		.4byte	0x1c0d
 10680 1bc5 14       		.byte	0x14
 10681 1bc6 0D       		.uleb128 0xd
 10682 1bc7 381C0000 		.4byte	.LASF392
 10683 1bcb 20       		.byte	0x20
 10684 1bcc 54       		.byte	0x54
 10685 1bcd 0D1C0000 		.4byte	0x1c0d
 10686 1bd1 18       		.byte	0x18
 10687 1bd2 0D       		.uleb128 0xd
 10688 1bd3 EC210000 		.4byte	.LASF393
 10689 1bd7 20       		.byte	0x20
 10690 1bd8 55       		.byte	0x55
 10691 1bd9 EB1B0000 		.4byte	0x1beb
 10692 1bdd 1C       		.byte	0x1c
 10693 1bde 0D       		.uleb128 0xd
 10694 1bdf B91E0000 		.4byte	.LASF394
 10695 1be3 20       		.byte	0x20
 10696 1be4 56       		.byte	0x56
 10697 1be5 68010000 		.4byte	0x168
 10698 1be9 20       		.byte	0x20
 10699 1bea 00       		.byte	0
 10700 1beb 03       		.uleb128 0x3
 10701 1bec 56050000 		.4byte	.LASF395
 10702 1bf0 20       		.byte	0x20
 10703 1bf1 42       		.byte	0x42
 10704 1bf2 F61B0000 		.4byte	0x1bf6
 10705 1bf6 05       		.uleb128 0x5
 10706 1bf7 04       		.byte	0x4
 10707 1bf8 FC1B0000 		.4byte	0x1bfc
 10708 1bfc 1F       		.uleb128 0x1f
 10709 1bfd 071C0000 		.4byte	0x1c07
 10710 1c01 16       		.uleb128 0x16
 10711 1c02 071C0000 		.4byte	0x1c07
 10712 1c06 00       		.byte	0
 10713 1c07 05       		.uleb128 0x5
 10714 1c08 04       		.byte	0x4
 10715 1c09 731B0000 		.4byte	0x1b73
 10716 1c0d 05       		.uleb128 0x5
 10717 1c0e 04       		.byte	0x4
 10718 1c0f 73090000 		.4byte	0x973
 10719 1c13 03       		.uleb128 0x3
 10720 1c14 BA060000 		.4byte	.LASF396
 10721 1c18 20       		.byte	0x20
 10722 1c19 64       		.byte	0x64
 10723 1c1a 731B0000 		.4byte	0x1b73
 10724 1c1e 03       		.uleb128 0x3
 10725 1c1f C42D0000 		.4byte	.LASF397
 10726 1c23 20       		.byte	0x20
ARM GAS  C:\Users\Moi\AppData\Local\Temp\cchaECY7.s 			page 202


 10727 1c24 71       		.byte	0x71
 10728 1c25 731B0000 		.4byte	0x1b73
 10729 1c29 10       		.uleb128 0x10
 10730 1c2a EE2B0000 		.4byte	.LASF398
 10731 1c2e 10       		.byte	0x10
 10732 1c2f 21       		.byte	0x21
 10733 1c30 40       		.byte	0x40
 10734 1c31 661C0000 		.4byte	0x1c66
 10735 1c35 0D       		.uleb128 0xd
 10736 1c36 471C0000 		.4byte	.LASF399
 10737 1c3a 21       		.byte	0x21
 10738 1c3b 41       		.byte	0x41
 10739 1c3c 8A1C0000 		.4byte	0x1c8a
 10740 1c40 00       		.byte	0
 10741 1c41 0D       		.uleb128 0xd
 10742 1c42 E9050000 		.4byte	.LASF400
 10743 1c46 21       		.byte	0x21
 10744 1c47 41       		.byte	0x41
 10745 1c48 A91C0000 		.4byte	0x1ca9
 10746 1c4c 04       		.byte	0x4
 10747 1c4d 11       		.uleb128 0x11
 10748 1c4e 70757400 		.ascii	"put\000"
 10749 1c52 21       		.byte	0x21
 10750 1c53 41       		.byte	0x41
 10751 1c54 C31C0000 		.4byte	0x1cc3
 10752 1c58 08       		.byte	0x8
 10753 1c59 11       		.uleb128 0x11
 10754 1c5a 67657400 		.ascii	"get\000"
 10755 1c5e 21       		.byte	0x21
 10756 1c5f 41       		.byte	0x41
 10757 1c60 D81C0000 		.4byte	0x1cd8
 10758 1c64 0C       		.byte	0xc
 10759 1c65 00       		.byte	0
 10760 1c66 0F       		.uleb128 0xf
 10761 1c67 291C0000 		.4byte	0x1c29
 10762 1c6b 15       		.uleb128 0x15
 10763 1c6c 2C000000 		.4byte	0x2c
 10764 1c70 841C0000 		.4byte	0x1c84
 10765 1c74 16       		.uleb128 0x16
 10766 1c75 68010000 		.4byte	0x168
 10767 1c79 16       		.uleb128 0x16
 10768 1c7a 841C0000 		.4byte	0x1c84
 10769 1c7e 16       		.uleb128 0x16
 10770 1c7f 2C000000 		.4byte	0x2c
 10771 1c83 00       		.byte	0
 10772 1c84 05       		.uleb128 0x5
 10773 1c85 04       		.byte	0x4
 10774 1c86 7E090000 		.4byte	0x97e
 10775 1c8a 05       		.uleb128 0x5
 10776 1c8b 04       		.byte	0x4
 10777 1c8c 6B1C0000 		.4byte	0x1c6b
 10778 1c90 15       		.uleb128 0x15
 10779 1c91 2C000000 		.4byte	0x2c
 10780 1c95 A91C0000 		.4byte	0x1ca9
 10781 1c99 16       		.uleb128 0x16
 10782 1c9a 68010000 		.4byte	0x168
 10783 1c9e 16       		.uleb128 0x16
ARM GAS  C:\Users\Moi\AppData\Local\Temp\cchaECY7.s 			page 203


 10784 1c9f 0D1C0000 		.4byte	0x1c0d
 10785 1ca3 16       		.uleb128 0x16
 10786 1ca4 2C000000 		.4byte	0x2c
 10787 1ca8 00       		.byte	0
 10788 1ca9 05       		.uleb128 0x5
 10789 1caa 04       		.byte	0x4
 10790 1cab 901C0000 		.4byte	0x1c90
 10791 1caf 15       		.uleb128 0x15
 10792 1cb0 160A0000 		.4byte	0xa16
 10793 1cb4 C31C0000 		.4byte	0x1cc3
 10794 1cb8 16       		.uleb128 0x16
 10795 1cb9 68010000 		.4byte	0x168
 10796 1cbd 16       		.uleb128 0x16
 10797 1cbe 73090000 		.4byte	0x973
 10798 1cc2 00       		.byte	0
 10799 1cc3 05       		.uleb128 0x5
 10800 1cc4 04       		.byte	0x4
 10801 1cc5 AF1C0000 		.4byte	0x1caf
 10802 1cc9 15       		.uleb128 0x15
 10803 1cca 160A0000 		.4byte	0xa16
 10804 1cce D81C0000 		.4byte	0x1cd8
 10805 1cd2 16       		.uleb128 0x16
 10806 1cd3 68010000 		.4byte	0x168
 10807 1cd7 00       		.byte	0
 10808 1cd8 05       		.uleb128 0x5
 10809 1cd9 04       		.byte	0x4
 10810 1cda C91C0000 		.4byte	0x1cc9
 10811 1cde 0C       		.uleb128 0xc
 10812 1cdf 04       		.byte	0x4
 10813 1ce0 21       		.byte	0x21
 10814 1ce1 49       		.byte	0x49
 10815 1ce2 F31C0000 		.4byte	0x1cf3
 10816 1ce6 11       		.uleb128 0x11
 10817 1ce7 766D7400 		.ascii	"vmt\000"
 10818 1ceb 21       		.byte	0x21
 10819 1cec 4B       		.byte	0x4b
 10820 1ced F31C0000 		.4byte	0x1cf3
 10821 1cf1 00       		.byte	0
 10822 1cf2 00       		.byte	0
 10823 1cf3 05       		.uleb128 0x5
 10824 1cf4 04       		.byte	0x4
 10825 1cf5 661C0000 		.4byte	0x1c66
 10826 1cf9 03       		.uleb128 0x3
 10827 1cfa C7030000 		.4byte	.LASF401
 10828 1cfe 21       		.byte	0x21
 10829 1cff 4D       		.byte	0x4d
 10830 1d00 DE1C0000 		.4byte	0x1cde
 10831 1d04 0C       		.uleb128 0xc
 10832 1d05 0C       		.byte	0xc
 10833 1d06 22       		.byte	0x22
 10834 1d07 DA       		.byte	0xda
 10835 1d08 491D0000 		.4byte	0x1d49
 10836 1d0c 0D       		.uleb128 0xd
 10837 1d0d 632D0000 		.4byte	.LASF402
 10838 1d11 22       		.byte	0x22
 10839 1d12 DB       		.byte	0xdb
 10840 1d13 491D0000 		.4byte	0x1d49
ARM GAS  C:\Users\Moi\AppData\Local\Temp\cchaECY7.s 			page 204


 10841 1d17 00       		.byte	0
 10842 1d18 0D       		.uleb128 0xd
 10843 1d19 59120000 		.4byte	.LASF403
 10844 1d1d 22       		.byte	0x22
 10845 1d1e DC       		.byte	0xdc
 10846 1d1f 4F1D0000 		.4byte	0x1d4f
 10847 1d23 04       		.byte	0x4
 10848 1d24 0D       		.uleb128 0xd
 10849 1d25 8A050000 		.4byte	.LASF404
 10850 1d29 22       		.byte	0x22
 10851 1d2a DD       		.byte	0xdd
 10852 1d2b 73090000 		.4byte	0x973
 10853 1d2f 08       		.byte	0x8
 10854 1d30 0D       		.uleb128 0xd
 10855 1d31 03250000 		.4byte	.LASF405
 10856 1d35 22       		.byte	0x22
 10857 1d36 DF       		.byte	0xdf
 10858 1d37 73090000 		.4byte	0x973
 10859 1d3b 09       		.byte	0x9
 10860 1d3c 0D       		.uleb128 0xd
 10861 1d3d 98040000 		.4byte	.LASF406
 10862 1d41 22       		.byte	0x22
 10863 1d42 E0       		.byte	0xe0
 10864 1d43 73090000 		.4byte	0x973
 10865 1d47 0A       		.byte	0xa
 10866 1d48 00       		.byte	0
 10867 1d49 05       		.uleb128 0x5
 10868 1d4a 04       		.byte	0x4
 10869 1d4b 21130000 		.4byte	0x1321
 10870 1d4f 05       		.uleb128 0x5
 10871 1d50 04       		.byte	0x4
 10872 1d51 B4090000 		.4byte	0x9b4
 10873 1d55 03       		.uleb128 0x3
 10874 1d56 93150000 		.4byte	.LASF407
 10875 1d5a 22       		.byte	0x22
 10876 1d5b E1       		.byte	0xe1
 10877 1d5c 041D0000 		.4byte	0x1d04
 10878 1d60 0F       		.uleb128 0xf
 10879 1d61 551D0000 		.4byte	0x1d55
 10880 1d65 0A       		.uleb128 0xa
 10881 1d66 601D0000 		.4byte	0x1d60
 10882 1d6a 751D0000 		.4byte	0x1d75
 10883 1d6e 0B       		.uleb128 0xb
 10884 1d6f 37000000 		.4byte	0x37
 10885 1d73 0F       		.byte	0xf
 10886 1d74 00       		.byte	0
 10887 1d75 0F       		.uleb128 0xf
 10888 1d76 651D0000 		.4byte	0x1d65
 10889 1d7a 20       		.uleb128 0x20
 10890 1d7b 8D1F0000 		.4byte	.LASF408
 10891 1d7f 22       		.byte	0x22
 10892 1d80 BB01     		.2byte	0x1bb
 10893 1d82 751D0000 		.4byte	0x1d75
 10894 1d86 15       		.uleb128 0x15
 10895 1d87 160A0000 		.4byte	0xa16
 10896 1d8b 9F1D0000 		.4byte	0x1d9f
 10897 1d8f 16       		.uleb128 0x16
ARM GAS  C:\Users\Moi\AppData\Local\Temp\cchaECY7.s 			page 205


 10898 1d90 68010000 		.4byte	0x168
 10899 1d94 16       		.uleb128 0x16
 10900 1d95 73090000 		.4byte	0x973
 10901 1d99 16       		.uleb128 0x16
 10902 1d9a 4D0A0000 		.4byte	0xa4d
 10903 1d9e 00       		.byte	0
 10904 1d9f 05       		.uleb128 0x5
 10905 1da0 04       		.byte	0x4
 10906 1da1 861D0000 		.4byte	0x1d86
 10907 1da5 15       		.uleb128 0x15
 10908 1da6 160A0000 		.4byte	0xa16
 10909 1daa B91D0000 		.4byte	0x1db9
 10910 1dae 16       		.uleb128 0x16
 10911 1daf 68010000 		.4byte	0x168
 10912 1db3 16       		.uleb128 0x16
 10913 1db4 4D0A0000 		.4byte	0xa4d
 10914 1db8 00       		.byte	0
 10915 1db9 05       		.uleb128 0x5
 10916 1dba 04       		.byte	0x4
 10917 1dbb A51D0000 		.4byte	0x1da5
 10918 1dbf 15       		.uleb128 0x15
 10919 1dc0 2C000000 		.4byte	0x2c
 10920 1dc4 DD1D0000 		.4byte	0x1ddd
 10921 1dc8 16       		.uleb128 0x16
 10922 1dc9 68010000 		.4byte	0x168
 10923 1dcd 16       		.uleb128 0x16
 10924 1dce 841C0000 		.4byte	0x1c84
 10925 1dd2 16       		.uleb128 0x16
 10926 1dd3 2C000000 		.4byte	0x2c
 10927 1dd7 16       		.uleb128 0x16
 10928 1dd8 4D0A0000 		.4byte	0xa4d
 10929 1ddc 00       		.byte	0
 10930 1ddd 05       		.uleb128 0x5
 10931 1dde 04       		.byte	0x4
 10932 1ddf BF1D0000 		.4byte	0x1dbf
 10933 1de3 15       		.uleb128 0x15
 10934 1de4 2C000000 		.4byte	0x2c
 10935 1de8 011E0000 		.4byte	0x1e01
 10936 1dec 16       		.uleb128 0x16
 10937 1ded 68010000 		.4byte	0x168
 10938 1df1 16       		.uleb128 0x16
 10939 1df2 0D1C0000 		.4byte	0x1c0d
 10940 1df6 16       		.uleb128 0x16
 10941 1df7 2C000000 		.4byte	0x2c
 10942 1dfb 16       		.uleb128 0x16
 10943 1dfc 4D0A0000 		.4byte	0xa4d
 10944 1e00 00       		.byte	0
 10945 1e01 05       		.uleb128 0x5
 10946 1e02 04       		.byte	0x4
 10947 1e03 E31D0000 		.4byte	0x1de3
 10948 1e07 2B       		.uleb128 0x2b
 10949 1e08 07       		.byte	0x7
 10950 1e09 01       		.byte	0x1
 10951 1e0a 69000000 		.4byte	0x69
 10952 1e0e 23       		.byte	0x23
 10953 1e0f 28       		.byte	0x28
 10954 1e10 4B1E0000 		.4byte	0x1e4b
ARM GAS  C:\Users\Moi\AppData\Local\Temp\cchaECY7.s 			page 206


 10955 1e14 23       		.uleb128 0x23
 10956 1e15 E4010000 		.4byte	.LASF409
 10957 1e19 00       		.byte	0
 10958 1e1a 23       		.uleb128 0x23
 10959 1e1b 53110000 		.4byte	.LASF410
 10960 1e1f 01       		.byte	0x1
 10961 1e20 23       		.uleb128 0x23
 10962 1e21 570D0000 		.4byte	.LASF411
 10963 1e25 02       		.byte	0x2
 10964 1e26 23       		.uleb128 0x23
 10965 1e27 1A210000 		.4byte	.LASF412
 10966 1e2b 03       		.byte	0x3
 10967 1e2c 23       		.uleb128 0x23
 10968 1e2d CD2B0000 		.4byte	.LASF413
 10969 1e31 04       		.byte	0x4
 10970 1e32 23       		.uleb128 0x23
 10971 1e33 29090000 		.4byte	.LASF414
 10972 1e37 05       		.byte	0x5
 10973 1e38 23       		.uleb128 0x23
 10974 1e39 BF240000 		.4byte	.LASF415
 10975 1e3d 06       		.byte	0x6
 10976 1e3e 23       		.uleb128 0x23
 10977 1e3f CB1C0000 		.4byte	.LASF416
 10978 1e43 07       		.byte	0x7
 10979 1e44 23       		.uleb128 0x23
 10980 1e45 5F2B0000 		.4byte	.LASF417
 10981 1e49 08       		.byte	0x8
 10982 1e4a 00       		.byte	0
 10983 1e4b 03       		.uleb128 0x3
 10984 1e4c ED1A0000 		.4byte	.LASF418
 10985 1e50 23       		.byte	0x23
 10986 1e51 32       		.byte	0x32
 10987 1e52 071E0000 		.4byte	0x1e07
 10988 1e56 0C       		.uleb128 0xc
 10989 1e57 08       		.byte	0x8
 10990 1e58 23       		.byte	0x23
 10991 1e59 37       		.byte	0x37
 10992 1e5a 771E0000 		.4byte	0x1e77
 10993 1e5e 0D       		.uleb128 0xd
 10994 1e5f AB080000 		.4byte	.LASF419
 10995 1e63 23       		.byte	0x23
 10996 1e64 38       		.byte	0x38
 10997 1e65 A9090000 		.4byte	0x9a9
 10998 1e69 00       		.byte	0
 10999 1e6a 0D       		.uleb128 0xd
 11000 1e6b 87220000 		.4byte	.LASF420
 11001 1e6f 23       		.byte	0x23
 11002 1e70 39       		.byte	0x39
 11003 1e71 A9090000 		.4byte	0x9a9
 11004 1e75 04       		.byte	0x4
 11005 1e76 00       		.byte	0
 11006 1e77 03       		.uleb128 0x3
 11007 1e78 D1260000 		.4byte	.LASF421
 11008 1e7c 23       		.byte	0x23
 11009 1e7d 3A       		.byte	0x3a
 11010 1e7e 561E0000 		.4byte	0x1e56
 11011 1e82 15       		.uleb128 0x15
ARM GAS  C:\Users\Moi\AppData\Local\Temp\cchaECY7.s 			page 207


 11012 1e83 911E0000 		.4byte	0x1e91
 11013 1e87 911E0000 		.4byte	0x1e91
 11014 1e8b 16       		.uleb128 0x16
 11015 1e8c 68010000 		.4byte	0x168
 11016 1e90 00       		.byte	0
 11017 1e91 04       		.uleb128 0x4
 11018 1e92 01       		.byte	0x1
 11019 1e93 02       		.byte	0x2
 11020 1e94 71010000 		.4byte	.LASF422
 11021 1e98 05       		.uleb128 0x5
 11022 1e99 04       		.byte	0x4
 11023 1e9a 821E0000 		.4byte	0x1e82
 11024 1e9e 15       		.uleb128 0x15
 11025 1e9f 911E0000 		.4byte	0x1e91
 11026 1ea3 BC1E0000 		.4byte	0x1ebc
 11027 1ea7 16       		.uleb128 0x16
 11028 1ea8 68010000 		.4byte	0x168
 11029 1eac 16       		.uleb128 0x16
 11030 1ead A9090000 		.4byte	0x9a9
 11031 1eb1 16       		.uleb128 0x16
 11032 1eb2 0D1C0000 		.4byte	0x1c0d
 11033 1eb6 16       		.uleb128 0x16
 11034 1eb7 A9090000 		.4byte	0x9a9
 11035 1ebb 00       		.byte	0
 11036 1ebc 05       		.uleb128 0x5
 11037 1ebd 04       		.byte	0x4
 11038 1ebe 9E1E0000 		.4byte	0x1e9e
 11039 1ec2 15       		.uleb128 0x15
 11040 1ec3 911E0000 		.4byte	0x1e91
 11041 1ec7 E01E0000 		.4byte	0x1ee0
 11042 1ecb 16       		.uleb128 0x16
 11043 1ecc 68010000 		.4byte	0x168
 11044 1ed0 16       		.uleb128 0x16
 11045 1ed1 A9090000 		.4byte	0x9a9
 11046 1ed5 16       		.uleb128 0x16
 11047 1ed6 841C0000 		.4byte	0x1c84
 11048 1eda 16       		.uleb128 0x16
 11049 1edb A9090000 		.4byte	0x9a9
 11050 1edf 00       		.byte	0
 11051 1ee0 05       		.uleb128 0x5
 11052 1ee1 04       		.byte	0x4
 11053 1ee2 C21E0000 		.4byte	0x1ec2
 11054 1ee6 15       		.uleb128 0x15
 11055 1ee7 911E0000 		.4byte	0x1e91
 11056 1eeb FA1E0000 		.4byte	0x1efa
 11057 1eef 16       		.uleb128 0x16
 11058 1ef0 68010000 		.4byte	0x168
 11059 1ef4 16       		.uleb128 0x16
 11060 1ef5 FA1E0000 		.4byte	0x1efa
 11061 1ef9 00       		.byte	0
 11062 1efa 05       		.uleb128 0x5
 11063 1efb 04       		.byte	0x4
 11064 1efc 771E0000 		.4byte	0x1e77
 11065 1f00 05       		.uleb128 0x5
 11066 1f01 04       		.byte	0x4
 11067 1f02 E61E0000 		.4byte	0x1ee6
 11068 1f06 0A       		.uleb128 0xa
ARM GAS  C:\Users\Moi\AppData\Local\Temp\cchaECY7.s 			page 208


 11069 1f07 A9090000 		.4byte	0x9a9
 11070 1f0b 161F0000 		.4byte	0x1f16
 11071 1f0f 0B       		.uleb128 0xb
 11072 1f10 37000000 		.4byte	0x37
 11073 1f14 03       		.byte	0x3
 11074 1f15 00       		.byte	0
 11075 1f16 0C       		.uleb128 0xc
 11076 1f17 04       		.byte	0x4
 11077 1f18 24       		.byte	0x24
 11078 1f19 B3       		.byte	0xb3
 11079 1f1a 371F0000 		.4byte	0x1f37
 11080 1f1e 11       		.uleb128 0x11
 11081 1f1f 73657400 		.ascii	"set\000"
 11082 1f23 24       		.byte	0x24
 11083 1f24 B4       		.byte	0xb4
 11084 1f25 8E090000 		.4byte	0x98e
 11085 1f29 00       		.byte	0
 11086 1f2a 0D       		.uleb128 0xd
 11087 1f2b 430F0000 		.4byte	.LASF423
 11088 1f2f 24       		.byte	0x24
 11089 1f30 B5       		.byte	0xb5
 11090 1f31 8E090000 		.4byte	0x98e
 11091 1f35 02       		.byte	0x2
 11092 1f36 00       		.byte	0
 11093 1f37 08       		.uleb128 0x8
 11094 1f38 04       		.byte	0x4
 11095 1f39 24       		.byte	0x24
 11096 1f3a B1       		.byte	0xb1
 11097 1f3b 521F0000 		.4byte	0x1f52
 11098 1f3f 2C       		.uleb128 0x2c
 11099 1f40 5700     		.ascii	"W\000"
 11100 1f42 24       		.byte	0x24
 11101 1f43 B2       		.byte	0xb2
 11102 1f44 A9090000 		.4byte	0x9a9
 11103 1f48 2C       		.uleb128 0x2c
 11104 1f49 4800     		.ascii	"H\000"
 11105 1f4b 24       		.byte	0x24
 11106 1f4c B6       		.byte	0xb6
 11107 1f4d 161F0000 		.4byte	0x1f16
 11108 1f51 00       		.byte	0
 11109 1f52 1A       		.uleb128 0x1a
 11110 1f53 371F0000 		.4byte	0x1f37
 11111 1f57 0C       		.uleb128 0xc
 11112 1f58 2C       		.byte	0x2c
 11113 1f59 24       		.byte	0x24
 11114 1f5a A9       		.byte	0xa9
 11115 1f5b E41F0000 		.4byte	0x1fe4
 11116 1f5f 0D       		.uleb128 0xd
 11117 1f60 36250000 		.4byte	.LASF424
 11118 1f64 24       		.byte	0x24
 11119 1f65 AB       		.byte	0xab
 11120 1f66 B4090000 		.4byte	0x9b4
 11121 1f6a 00       		.byte	0
 11122 1f6b 0D       		.uleb128 0xd
 11123 1f6c 19040000 		.4byte	.LASF425
 11124 1f70 24       		.byte	0x24
 11125 1f71 AC       		.byte	0xac
ARM GAS  C:\Users\Moi\AppData\Local\Temp\cchaECY7.s 			page 209


 11126 1f72 B4090000 		.4byte	0x9b4
 11127 1f76 04       		.byte	0x4
 11128 1f77 0D       		.uleb128 0xd
 11129 1f78 0E110000 		.4byte	.LASF426
 11130 1f7c 24       		.byte	0x24
 11131 1f7d AD       		.byte	0xad
 11132 1f7e B4090000 		.4byte	0x9b4
 11133 1f82 08       		.byte	0x8
 11134 1f83 0D       		.uleb128 0xd
 11135 1f84 04240000 		.4byte	.LASF427
 11136 1f88 24       		.byte	0x24
 11137 1f89 AE       		.byte	0xae
 11138 1f8a B4090000 		.4byte	0x9b4
 11139 1f8e 0C       		.byte	0xc
 11140 1f8f 11       		.uleb128 0x11
 11141 1f90 49445200 		.ascii	"IDR\000"
 11142 1f94 24       		.byte	0x24
 11143 1f95 AF       		.byte	0xaf
 11144 1f96 B4090000 		.4byte	0x9b4
 11145 1f9a 10       		.byte	0x10
 11146 1f9b 11       		.uleb128 0x11
 11147 1f9c 4F445200 		.ascii	"ODR\000"
 11148 1fa0 24       		.byte	0x24
 11149 1fa1 B0       		.byte	0xb0
 11150 1fa2 B4090000 		.4byte	0x9b4
 11151 1fa6 14       		.byte	0x14
 11152 1fa7 0D       		.uleb128 0xd
 11153 1fa8 8E150000 		.4byte	.LASF428
 11154 1fac 24       		.byte	0x24
 11155 1fad B7       		.byte	0xb7
 11156 1fae 521F0000 		.4byte	0x1f52
 11157 1fb2 18       		.byte	0x18
 11158 1fb3 0D       		.uleb128 0xd
 11159 1fb4 801C0000 		.4byte	.LASF429
 11160 1fb8 24       		.byte	0x24
 11161 1fb9 B8       		.byte	0xb8
 11162 1fba B4090000 		.4byte	0x9b4
 11163 1fbe 1C       		.byte	0x1c
 11164 1fbf 0D       		.uleb128 0xd
 11165 1fc0 76200000 		.4byte	.LASF430
 11166 1fc4 24       		.byte	0x24
 11167 1fc5 B9       		.byte	0xb9
 11168 1fc6 B4090000 		.4byte	0x9b4
 11169 1fca 20       		.byte	0x20
 11170 1fcb 0D       		.uleb128 0xd
 11171 1fcc 6A200000 		.4byte	.LASF431
 11172 1fd0 24       		.byte	0x24
 11173 1fd1 BA       		.byte	0xba
 11174 1fd2 B4090000 		.4byte	0x9b4
 11175 1fd6 24       		.byte	0x24
 11176 1fd7 11       		.uleb128 0x11
 11177 1fd8 42525200 		.ascii	"BRR\000"
 11178 1fdc 24       		.byte	0x24
 11179 1fdd BB       		.byte	0xbb
 11180 1fde B4090000 		.4byte	0x9b4
 11181 1fe2 28       		.byte	0x28
 11182 1fe3 00       		.byte	0
ARM GAS  C:\Users\Moi\AppData\Local\Temp\cchaECY7.s 			page 210


 11183 1fe4 03       		.uleb128 0x3
 11184 1fe5 71120000 		.4byte	.LASF432
 11185 1fe9 24       		.byte	0x24
 11186 1fea BC       		.byte	0xbc
 11187 1feb 571F0000 		.4byte	0x1f57
 11188 1fef 0C       		.uleb128 0xc
 11189 1ff0 1C       		.byte	0x1c
 11190 1ff1 24       		.byte	0x24
 11191 1ff2 C1       		.byte	0xc1
 11192 1ff3 4C200000 		.4byte	0x204c
 11193 1ff7 0D       		.uleb128 0xd
 11194 1ff8 98290000 		.4byte	.LASF433
 11195 1ffc 24       		.byte	0x24
 11196 1ffd C3       		.byte	0xc3
 11197 1ffe A9090000 		.4byte	0x9a9
 11198 2002 00       		.byte	0
 11199 2003 0D       		.uleb128 0xd
 11200 2004 05040000 		.4byte	.LASF434
 11201 2008 24       		.byte	0x24
 11202 2009 C5       		.byte	0xc5
 11203 200a A9090000 		.4byte	0x9a9
 11204 200e 04       		.byte	0x4
 11205 200f 0D       		.uleb128 0xd
 11206 2010 D6020000 		.4byte	.LASF435
 11207 2014 24       		.byte	0x24
 11208 2015 C7       		.byte	0xc7
 11209 2016 A9090000 		.4byte	0x9a9
 11210 201a 08       		.byte	0x8
 11211 201b 0D       		.uleb128 0xd
 11212 201c 70280000 		.4byte	.LASF436
 11213 2020 24       		.byte	0x24
 11214 2021 C9       		.byte	0xc9
 11215 2022 A9090000 		.4byte	0x9a9
 11216 2026 0C       		.byte	0xc
 11217 2027 11       		.uleb128 0x11
 11218 2028 6F647200 		.ascii	"odr\000"
 11219 202c 24       		.byte	0x24
 11220 202d CB       		.byte	0xcb
 11221 202e A9090000 		.4byte	0x9a9
 11222 2032 10       		.byte	0x10
 11223 2033 0D       		.uleb128 0xd
 11224 2034 DB240000 		.4byte	.LASF437
 11225 2038 24       		.byte	0x24
 11226 2039 CD       		.byte	0xcd
 11227 203a A9090000 		.4byte	0x9a9
 11228 203e 14       		.byte	0x14
 11229 203f 0D       		.uleb128 0xd
 11230 2040 A7000000 		.4byte	.LASF438
 11231 2044 24       		.byte	0x24
 11232 2045 CF       		.byte	0xcf
 11233 2046 A9090000 		.4byte	0x9a9
 11234 204a 18       		.byte	0x18
 11235 204b 00       		.byte	0
 11236 204c 03       		.uleb128 0x3
 11237 204d 671F0000 		.4byte	.LASF439
 11238 2051 24       		.byte	0x24
 11239 2052 D0       		.byte	0xd0
ARM GAS  C:\Users\Moi\AppData\Local\Temp\cchaECY7.s 			page 211


 11240 2053 EF1F0000 		.4byte	0x1fef
 11241 2057 0C       		.uleb128 0xc
 11242 2058 FC       		.byte	0xfc
 11243 2059 24       		.byte	0x24
 11244 205a D9       		.byte	0xd9
 11245 205b CC200000 		.4byte	0x20cc
 11246 205f 0D       		.uleb128 0xd
 11247 2060 29130000 		.4byte	.LASF440
 11248 2064 24       		.byte	0x24
 11249 2065 DC       		.byte	0xdc
 11250 2066 4C200000 		.4byte	0x204c
 11251 206a 00       		.byte	0
 11252 206b 0D       		.uleb128 0xd
 11253 206c E4030000 		.4byte	.LASF441
 11254 2070 24       		.byte	0x24
 11255 2071 E0       		.byte	0xe0
 11256 2072 4C200000 		.4byte	0x204c
 11257 2076 1C       		.byte	0x1c
 11258 2077 0D       		.uleb128 0xd
 11259 2078 46020000 		.4byte	.LASF442
 11260 207c 24       		.byte	0x24
 11261 207d E4       		.byte	0xe4
 11262 207e 4C200000 		.4byte	0x204c
 11263 2082 38       		.byte	0x38
 11264 2083 0D       		.uleb128 0xd
 11265 2084 56100000 		.4byte	.LASF443
 11266 2088 24       		.byte	0x24
 11267 2089 E8       		.byte	0xe8
 11268 208a 4C200000 		.4byte	0x204c
 11269 208e 54       		.byte	0x54
 11270 208f 0D       		.uleb128 0xd
 11271 2090 341E0000 		.4byte	.LASF444
 11272 2094 24       		.byte	0x24
 11273 2095 EC       		.byte	0xec
 11274 2096 4C200000 		.4byte	0x204c
 11275 209a 70       		.byte	0x70
 11276 209b 0D       		.uleb128 0xd
 11277 209c 4F2E0000 		.4byte	.LASF445
 11278 20a0 24       		.byte	0x24
 11279 20a1 F0       		.byte	0xf0
 11280 20a2 4C200000 		.4byte	0x204c
 11281 20a6 8C       		.byte	0x8c
 11282 20a7 0D       		.uleb128 0xd
 11283 20a8 0E0E0000 		.4byte	.LASF446
 11284 20ac 24       		.byte	0x24
 11285 20ad F4       		.byte	0xf4
 11286 20ae 4C200000 		.4byte	0x204c
 11287 20b2 A8       		.byte	0xa8
 11288 20b3 0D       		.uleb128 0xd
 11289 20b4 C21B0000 		.4byte	.LASF447
 11290 20b8 24       		.byte	0x24
 11291 20b9 F8       		.byte	0xf8
 11292 20ba 4C200000 		.4byte	0x204c
 11293 20be C4       		.byte	0xc4
 11294 20bf 0D       		.uleb128 0xd
 11295 20c0 6B2B0000 		.4byte	.LASF448
 11296 20c4 24       		.byte	0x24
ARM GAS  C:\Users\Moi\AppData\Local\Temp\cchaECY7.s 			page 212


 11297 20c5 FC       		.byte	0xfc
 11298 20c6 4C200000 		.4byte	0x204c
 11299 20ca E0       		.byte	0xe0
 11300 20cb 00       		.byte	0
 11301 20cc 03       		.uleb128 0x3
 11302 20cd 280D0000 		.4byte	.LASF449
 11303 20d1 24       		.byte	0x24
 11304 20d2 FE       		.byte	0xfe
 11305 20d3 57200000 		.4byte	0x2057
 11306 20d7 0F       		.uleb128 0xf
 11307 20d8 CC200000 		.4byte	0x20cc
 11308 20dc 07       		.uleb128 0x7
 11309 20dd C91B0000 		.4byte	.LASF450
 11310 20e1 24       		.byte	0x24
 11311 20e2 1B01     		.2byte	0x11b
 11312 20e4 E8200000 		.4byte	0x20e8
 11313 20e8 05       		.uleb128 0x5
 11314 20e9 04       		.byte	0x4
 11315 20ea E41F0000 		.4byte	0x1fe4
 11316 20ee 20       		.uleb128 0x20
 11317 20ef 0D260000 		.4byte	.LASF451
 11318 20f3 24       		.byte	0x24
 11319 20f4 DA01     		.2byte	0x1da
 11320 20f6 D7200000 		.4byte	0x20d7
 11321 20fa 2B       		.uleb128 0x2b
 11322 20fb 07       		.byte	0x7
 11323 20fc 01       		.byte	0x1
 11324 20fd 69000000 		.4byte	0x69
 11325 2101 25       		.byte	0x25
 11326 2102 46       		.byte	0x46
 11327 2103 2C210000 		.4byte	0x212c
 11328 2107 23       		.uleb128 0x23
 11329 2108 000A0000 		.4byte	.LASF452
 11330 210c 00       		.byte	0
 11331 210d 23       		.uleb128 0x23
 11332 210e 3A180000 		.4byte	.LASF453
 11333 2112 01       		.byte	0x1
 11334 2113 23       		.uleb128 0x23
 11335 2114 1A290000 		.4byte	.LASF454
 11336 2118 02       		.byte	0x2
 11337 2119 23       		.uleb128 0x23
 11338 211a 74150000 		.4byte	.LASF455
 11339 211e 03       		.byte	0x3
 11340 211f 23       		.uleb128 0x23
 11341 2120 C8070000 		.4byte	.LASF456
 11342 2124 04       		.byte	0x4
 11343 2125 23       		.uleb128 0x23
 11344 2126 41150000 		.4byte	.LASF457
 11345 212a 05       		.byte	0x5
 11346 212b 00       		.byte	0
 11347 212c 03       		.uleb128 0x3
 11348 212d 60050000 		.4byte	.LASF458
 11349 2131 25       		.byte	0x25
 11350 2132 4D       		.byte	0x4d
 11351 2133 FA200000 		.4byte	0x20fa
 11352 2137 07       		.uleb128 0x7
 11353 2138 14140000 		.4byte	.LASF459
ARM GAS  C:\Users\Moi\AppData\Local\Temp\cchaECY7.s 			page 213


 11354 213c 26       		.byte	0x26
 11355 213d 2701     		.2byte	0x127
 11356 213f 8E090000 		.4byte	0x98e
 11357 2143 07       		.uleb128 0x7
 11358 2144 3E210000 		.4byte	.LASF460
 11359 2148 26       		.byte	0x26
 11360 2149 2C01     		.2byte	0x12c
 11361 214b 8E090000 		.4byte	0x98e
 11362 214f 2D       		.uleb128 0x2d
 11363 2150 07       		.byte	0x7
 11364 2151 01       		.byte	0x1
 11365 2152 69000000 		.4byte	0x69
 11366 2156 26       		.byte	0x26
 11367 2157 3301     		.2byte	0x133
 11368 2159 6A210000 		.4byte	0x216a
 11369 215d 23       		.uleb128 0x23
 11370 215e D3100000 		.4byte	.LASF461
 11371 2162 00       		.byte	0
 11372 2163 23       		.uleb128 0x23
 11373 2164 EE020000 		.4byte	.LASF462
 11374 2168 01       		.byte	0x1
 11375 2169 00       		.byte	0
 11376 216a 07       		.uleb128 0x7
 11377 216b 982A0000 		.4byte	.LASF463
 11378 216f 26       		.byte	0x26
 11379 2170 3601     		.2byte	0x136
 11380 2172 4F210000 		.4byte	0x214f
 11381 2176 07       		.uleb128 0x7
 11382 2177 96110000 		.4byte	.LASF464
 11383 217b 26       		.byte	0x26
 11384 217c 3B01     		.2byte	0x13b
 11385 217e 82210000 		.4byte	0x2182
 11386 2182 1B       		.uleb128 0x1b
 11387 2183 96110000 		.4byte	.LASF464
 11388 2187 38       		.byte	0x38
 11389 2188 26       		.byte	0x26
 11390 2189 9F01     		.2byte	0x19f
 11391 218b 12220000 		.4byte	0x2212
 11392 218f 18       		.uleb128 0x18
 11393 2190 86190000 		.4byte	.LASF465
 11394 2194 26       		.byte	0x26
 11395 2195 A301     		.2byte	0x1a3
 11396 2197 2C210000 		.4byte	0x212c
 11397 219b 00       		.byte	0
 11398 219c 18       		.uleb128 0x18
 11399 219d EC200000 		.4byte	.LASF466
 11400 21a1 26       		.byte	0x26
 11401 21a2 A701     		.2byte	0x1a7
 11402 21a4 39230000 		.4byte	0x2339
 11403 21a8 04       		.byte	0x4
 11404 21a9 18       		.uleb128 0x18
 11405 21aa 73020000 		.4byte	.LASF467
 11406 21ae 26       		.byte	0x26
 11407 21af AB01     		.2byte	0x1ab
 11408 21b1 3F220000 		.4byte	0x223f
 11409 21b5 08       		.byte	0x8
 11410 21b6 18       		.uleb128 0x18
ARM GAS  C:\Users\Moi\AppData\Local\Temp\cchaECY7.s 			page 214


 11411 21b7 231D0000 		.4byte	.LASF468
 11412 21bb 26       		.byte	0x26
 11413 21bc AF01     		.2byte	0x1af
 11414 21be 2C000000 		.4byte	0x2c
 11415 21c2 0C       		.byte	0xc
 11416 21c3 18       		.uleb128 0x18
 11417 21c4 2C260000 		.4byte	.LASF469
 11418 21c8 26       		.byte	0x26
 11419 21c9 B301     		.2byte	0x1b3
 11420 21cb 3F230000 		.4byte	0x233f
 11421 21cf 10       		.byte	0x10
 11422 21d0 18       		.uleb128 0x18
 11423 21d1 82080000 		.4byte	.LASF470
 11424 21d5 26       		.byte	0x26
 11425 21d6 B801     		.2byte	0x1b8
 11426 21d8 860B0000 		.4byte	0xb86
 11427 21dc 14       		.byte	0x14
 11428 21dd 18       		.uleb128 0x18
 11429 21de 0C0F0000 		.4byte	.LASF471
 11430 21e2 26       		.byte	0x26
 11431 21e3 BE01     		.2byte	0x1be
 11432 21e5 E41A0000 		.4byte	0x1ae4
 11433 21e9 18       		.byte	0x18
 11434 21ea 25       		.uleb128 0x25
 11435 21eb 61646300 		.ascii	"adc\000"
 11436 21ef 26       		.byte	0x26
 11437 21f0 C701     		.2byte	0x1c7
 11438 21f2 45230000 		.4byte	0x2345
 11439 21f6 2C       		.byte	0x2c
 11440 21f7 18       		.uleb128 0x18
 11441 21f8 970C0000 		.4byte	.LASF472
 11442 21fc 26       		.byte	0x26
 11443 21fd CB01     		.2byte	0x1cb
 11444 21ff 4B230000 		.4byte	0x234b
 11445 2203 30       		.byte	0x30
 11446 2204 18       		.uleb128 0x18
 11447 2205 091C0000 		.4byte	.LASF473
 11448 2209 26       		.byte	0x26
 11449 220a CF01     		.2byte	0x1cf
 11450 220c A9090000 		.4byte	0x9a9
 11451 2210 34       		.byte	0x34
 11452 2211 00       		.byte	0
 11453 2212 07       		.uleb128 0x7
 11454 2213 DF1F0000 		.4byte	.LASF474
 11455 2217 26       		.byte	0x26
 11456 2218 4501     		.2byte	0x145
 11457 221a 1E220000 		.4byte	0x221e
 11458 221e 05       		.uleb128 0x5
 11459 221f 04       		.byte	0x4
 11460 2220 24220000 		.4byte	0x2224
 11461 2224 1F       		.uleb128 0x1f
 11462 2225 39220000 		.4byte	0x2239
 11463 2229 16       		.uleb128 0x16
 11464 222a 39220000 		.4byte	0x2239
 11465 222e 16       		.uleb128 0x16
 11466 222f 3F220000 		.4byte	0x223f
 11467 2233 16       		.uleb128 0x16
ARM GAS  C:\Users\Moi\AppData\Local\Temp\cchaECY7.s 			page 215


 11468 2234 2C000000 		.4byte	0x2c
 11469 2238 00       		.byte	0
 11470 2239 05       		.uleb128 0x5
 11471 223a 04       		.byte	0x4
 11472 223b 76210000 		.4byte	0x2176
 11473 223f 05       		.uleb128 0x5
 11474 2240 04       		.byte	0x4
 11475 2241 37210000 		.4byte	0x2137
 11476 2245 07       		.uleb128 0x7
 11477 2246 4A190000 		.4byte	.LASF475
 11478 224a 26       		.byte	0x26
 11479 224b 4E01     		.2byte	0x14e
 11480 224d 51220000 		.4byte	0x2251
 11481 2251 05       		.uleb128 0x5
 11482 2252 04       		.byte	0x4
 11483 2253 57220000 		.4byte	0x2257
 11484 2257 1F       		.uleb128 0x1f
 11485 2258 67220000 		.4byte	0x2267
 11486 225c 16       		.uleb128 0x16
 11487 225d 39220000 		.4byte	0x2239
 11488 2261 16       		.uleb128 0x16
 11489 2262 6A210000 		.4byte	0x216a
 11490 2266 00       		.byte	0
 11491 2267 1C       		.uleb128 0x1c
 11492 2268 28       		.byte	0x28
 11493 2269 26       		.byte	0x26
 11494 226a 5801     		.2byte	0x158
 11495 226c 00230000 		.4byte	0x2300
 11496 2270 18       		.uleb128 0x18
 11497 2271 84290000 		.4byte	.LASF476
 11498 2275 26       		.byte	0x26
 11499 2276 5C01     		.2byte	0x15c
 11500 2278 911E0000 		.4byte	0x1e91
 11501 227c 00       		.byte	0
 11502 227d 18       		.uleb128 0x18
 11503 227e C3120000 		.4byte	.LASF477
 11504 2282 26       		.byte	0x26
 11505 2283 6001     		.2byte	0x160
 11506 2285 43210000 		.4byte	0x2143
 11507 2289 02       		.byte	0x2
 11508 228a 18       		.uleb128 0x18
 11509 228b 2B0B0000 		.4byte	.LASF478
 11510 228f 26       		.byte	0x26
 11511 2290 6401     		.2byte	0x164
 11512 2292 12220000 		.4byte	0x2212
 11513 2296 04       		.byte	0x4
 11514 2297 18       		.uleb128 0x18
 11515 2298 B72B0000 		.4byte	.LASF479
 11516 229c 26       		.byte	0x26
 11517 229d 6801     		.2byte	0x168
 11518 229f 45220000 		.4byte	0x2245
 11519 22a3 08       		.byte	0x8
 11520 22a4 25       		.uleb128 0x25
 11521 22a5 63723100 		.ascii	"cr1\000"
 11522 22a9 26       		.byte	0x26
 11523 22aa 6F01     		.2byte	0x16f
 11524 22ac A9090000 		.4byte	0x9a9
ARM GAS  C:\Users\Moi\AppData\Local\Temp\cchaECY7.s 			page 216


 11525 22b0 0C       		.byte	0xc
 11526 22b1 25       		.uleb128 0x25
 11527 22b2 63723200 		.ascii	"cr2\000"
 11528 22b6 26       		.byte	0x26
 11529 22b7 7601     		.2byte	0x176
 11530 22b9 A9090000 		.4byte	0x9a9
 11531 22bd 10       		.byte	0x10
 11532 22be 18       		.uleb128 0x18
 11533 22bf D11A0000 		.4byte	.LASF480
 11534 22c3 26       		.byte	0x26
 11535 22c4 7C01     		.2byte	0x17c
 11536 22c6 A9090000 		.4byte	0x9a9
 11537 22ca 14       		.byte	0x14
 11538 22cb 18       		.uleb128 0x18
 11539 22cc D71A0000 		.4byte	.LASF481
 11540 22d0 26       		.byte	0x26
 11541 22d1 8201     		.2byte	0x182
 11542 22d3 A9090000 		.4byte	0x9a9
 11543 22d7 18       		.byte	0x18
 11544 22d8 18       		.uleb128 0x18
 11545 22d9 D5010000 		.4byte	.LASF482
 11546 22dd 26       		.byte	0x26
 11547 22de 8701     		.2byte	0x187
 11548 22e0 A9090000 		.4byte	0x9a9
 11549 22e4 1C       		.byte	0x1c
 11550 22e5 18       		.uleb128 0x18
 11551 22e6 392D0000 		.4byte	.LASF483
 11552 22ea 26       		.byte	0x26
 11553 22eb 8C01     		.2byte	0x18c
 11554 22ed A9090000 		.4byte	0x9a9
 11555 22f1 20       		.byte	0x20
 11556 22f2 18       		.uleb128 0x18
 11557 22f3 3E2D0000 		.4byte	.LASF484
 11558 22f7 26       		.byte	0x26
 11559 22f8 9101     		.2byte	0x191
 11560 22fa A9090000 		.4byte	0x9a9
 11561 22fe 24       		.byte	0x24
 11562 22ff 00       		.byte	0
 11563 2300 07       		.uleb128 0x7
 11564 2301 C8060000 		.4byte	.LASF485
 11565 2305 26       		.byte	0x26
 11566 2306 9201     		.2byte	0x192
 11567 2308 67220000 		.4byte	0x2267
 11568 230c 0F       		.uleb128 0xf
 11569 230d 00230000 		.4byte	0x2300
 11570 2311 1C       		.uleb128 0x1c
 11571 2312 04       		.byte	0x4
 11572 2313 26       		.byte	0x26
 11573 2314 9801     		.2byte	0x198
 11574 2316 28230000 		.4byte	0x2328
 11575 231a 18       		.uleb128 0x18
 11576 231b 6A2D0000 		.4byte	.LASF486
 11577 231f 26       		.byte	0x26
 11578 2320 9901     		.2byte	0x199
 11579 2322 A9090000 		.4byte	0x9a9
 11580 2326 00       		.byte	0
 11581 2327 00       		.byte	0
ARM GAS  C:\Users\Moi\AppData\Local\Temp\cchaECY7.s 			page 217


 11582 2328 07       		.uleb128 0x7
 11583 2329 AE110000 		.4byte	.LASF487
 11584 232d 26       		.byte	0x26
 11585 232e 9A01     		.2byte	0x19a
 11586 2330 11230000 		.4byte	0x2311
 11587 2334 0F       		.uleb128 0xf
 11588 2335 28230000 		.4byte	0x2328
 11589 2339 05       		.uleb128 0x5
 11590 233a 04       		.byte	0x4
 11591 233b 34230000 		.4byte	0x2334
 11592 233f 05       		.uleb128 0x5
 11593 2340 04       		.byte	0x4
 11594 2341 0C230000 		.4byte	0x230c
 11595 2345 05       		.uleb128 0x5
 11596 2346 04       		.byte	0x4
 11597 2347 090F0000 		.4byte	0xf09
 11598 234b 05       		.uleb128 0x5
 11599 234c 04       		.byte	0x4
 11600 234d 601D0000 		.4byte	0x1d60
 11601 2351 20       		.uleb128 0x20
 11602 2352 E71B0000 		.4byte	.LASF488
 11603 2356 26       		.byte	0x26
 11604 2357 1402     		.2byte	0x214
 11605 2359 76210000 		.4byte	0x2176
 11606 235d 20       		.uleb128 0x20
 11607 235e ED1B0000 		.4byte	.LASF489
 11608 2362 26       		.byte	0x26
 11609 2363 1802     		.2byte	0x218
 11610 2365 76210000 		.4byte	0x2176
 11611 2369 20       		.uleb128 0x20
 11612 236a F31B0000 		.4byte	.LASF490
 11613 236e 26       		.byte	0x26
 11614 236f 1C02     		.2byte	0x21c
 11615 2371 76210000 		.4byte	0x2176
 11616 2375 2B       		.uleb128 0x2b
 11617 2376 07       		.byte	0x7
 11618 2377 01       		.byte	0x1
 11619 2378 69000000 		.4byte	0x69
 11620 237c 27       		.byte	0x27
 11621 237d 5F       		.byte	0x5f
 11622 237e A1230000 		.4byte	0x23a1
 11623 2382 23       		.uleb128 0x23
 11624 2383 D00F0000 		.4byte	.LASF491
 11625 2387 00       		.byte	0
 11626 2388 23       		.uleb128 0x23
 11627 2389 1D010000 		.4byte	.LASF492
 11628 238d 01       		.byte	0x1
 11629 238e 23       		.uleb128 0x23
 11630 238f 73000000 		.4byte	.LASF493
 11631 2393 02       		.byte	0x2
 11632 2394 23       		.uleb128 0x23
 11633 2395 411D0000 		.4byte	.LASF494
 11634 2399 03       		.byte	0x3
 11635 239a 23       		.uleb128 0x23
 11636 239b E80B0000 		.4byte	.LASF495
 11637 239f 04       		.byte	0x4
 11638 23a0 00       		.byte	0
ARM GAS  C:\Users\Moi\AppData\Local\Temp\cchaECY7.s 			page 218


 11639 23a1 03       		.uleb128 0x3
 11640 23a2 22070000 		.4byte	.LASF496
 11641 23a6 27       		.byte	0x27
 11642 23a7 65       		.byte	0x65
 11643 23a8 75230000 		.4byte	0x2375
 11644 23ac 0A       		.uleb128 0xa
 11645 23ad 73090000 		.4byte	0x973
 11646 23b1 BC230000 		.4byte	0x23bc
 11647 23b5 0B       		.uleb128 0xb
 11648 23b6 37000000 		.4byte	0x37
 11649 23ba 07       		.byte	0x7
 11650 23bb 00       		.byte	0
 11651 23bc 0C       		.uleb128 0xc
 11652 23bd 08       		.byte	0x8
 11653 23be 28       		.byte	0x28
 11654 23bf F4       		.byte	0xf4
 11655 23c0 DE230000 		.4byte	0x23de
 11656 23c4 11       		.uleb128 0x11
 11657 23c5 6D637200 		.ascii	"mcr\000"
 11658 23c9 28       		.byte	0x28
 11659 23ca FA       		.byte	0xfa
 11660 23cb A9090000 		.4byte	0x9a9
 11661 23cf 00       		.byte	0
 11662 23d0 25       		.uleb128 0x25
 11663 23d1 62747200 		.ascii	"btr\000"
 11664 23d5 28       		.byte	0x28
 11665 23d6 0001     		.2byte	0x100
 11666 23d8 A9090000 		.4byte	0x9a9
 11667 23dc 04       		.byte	0x4
 11668 23dd 00       		.byte	0
 11669 23de 07       		.uleb128 0x7
 11670 23df 2A1E0000 		.4byte	.LASF497
 11671 23e3 28       		.byte	0x28
 11672 23e4 0101     		.2byte	0x101
 11673 23e6 BC230000 		.4byte	0x23bc
 11674 23ea 0F       		.uleb128 0xf
 11675 23eb DE230000 		.4byte	0x23de
 11676 23ef 1C       		.uleb128 0x1c
 11677 23f0 30       		.byte	0x30
 11678 23f1 28       		.byte	0x28
 11679 23f2 0601     		.2byte	0x106
 11680 23f4 7B240000 		.4byte	0x247b
 11681 23f8 18       		.uleb128 0x18
 11682 23f9 86190000 		.4byte	.LASF465
 11683 23fd 28       		.byte	0x28
 11684 23fe 0A01     		.2byte	0x10a
 11685 2400 A1230000 		.4byte	0x23a1
 11686 2404 00       		.byte	0
 11687 2405 18       		.uleb128 0x18
 11688 2406 EC200000 		.4byte	.LASF466
 11689 240a 28       		.byte	0x28
 11690 240b 0E01     		.2byte	0x10e
 11691 240d 7B240000 		.4byte	0x247b
 11692 2411 04       		.byte	0x4
 11693 2412 18       		.uleb128 0x18
 11694 2413 600B0000 		.4byte	.LASF498
 11695 2417 28       		.byte	0x28
ARM GAS  C:\Users\Moi\AppData\Local\Temp\cchaECY7.s 			page 219


 11696 2418 1201     		.2byte	0x112
 11697 241a BB0B0000 		.4byte	0xbbb
 11698 241e 08       		.byte	0x8
 11699 241f 18       		.uleb128 0x18
 11700 2420 F4250000 		.4byte	.LASF499
 11701 2424 28       		.byte	0x28
 11702 2425 1601     		.2byte	0x116
 11703 2427 BB0B0000 		.4byte	0xbbb
 11704 242b 10       		.byte	0x10
 11705 242c 18       		.uleb128 0x18
 11706 242d EF1D0000 		.4byte	.LASF500
 11707 2431 28       		.byte	0x28
 11708 2432 2301     		.2byte	0x123
 11709 2434 681B0000 		.4byte	0x1b68
 11710 2438 18       		.byte	0x18
 11711 2439 18       		.uleb128 0x18
 11712 243a D40D0000 		.4byte	.LASF501
 11713 243e 28       		.byte	0x28
 11714 243f 2A01     		.2byte	0x12a
 11715 2441 681B0000 		.4byte	0x1b68
 11716 2445 1C       		.byte	0x1c
 11717 2446 18       		.uleb128 0x18
 11718 2447 B7120000 		.4byte	.LASF502
 11719 244b 28       		.byte	0x28
 11720 244c 3001     		.2byte	0x130
 11721 244e 681B0000 		.4byte	0x1b68
 11722 2452 20       		.byte	0x20
 11723 2453 18       		.uleb128 0x18
 11724 2454 75040000 		.4byte	.LASF503
 11725 2458 28       		.byte	0x28
 11726 2459 3501     		.2byte	0x135
 11727 245b 681B0000 		.4byte	0x1b68
 11728 245f 24       		.byte	0x24
 11729 2460 18       		.uleb128 0x18
 11730 2461 0A0B0000 		.4byte	.LASF504
 11731 2465 28       		.byte	0x28
 11732 2466 3901     		.2byte	0x139
 11733 2468 681B0000 		.4byte	0x1b68
 11734 246c 28       		.byte	0x28
 11735 246d 25       		.uleb128 0x25
 11736 246e 63616E00 		.ascii	"can\000"
 11737 2472 28       		.byte	0x28
 11738 2473 3F01     		.2byte	0x13f
 11739 2475 81240000 		.4byte	0x2481
 11740 2479 2C       		.byte	0x2c
 11741 247a 00       		.byte	0
 11742 247b 05       		.uleb128 0x5
 11743 247c 04       		.byte	0x4
 11744 247d EA230000 		.4byte	0x23ea
 11745 2481 05       		.uleb128 0x5
 11746 2482 04       		.byte	0x4
 11747 2483 52110000 		.4byte	0x1152
 11748 2487 07       		.uleb128 0x7
 11749 2488 D5040000 		.4byte	.LASF505
 11750 248c 28       		.byte	0x28
 11751 248d 4001     		.2byte	0x140
 11752 248f EF230000 		.4byte	0x23ef
ARM GAS  C:\Users\Moi\AppData\Local\Temp\cchaECY7.s 			page 220


 11753 2493 20       		.uleb128 0x20
 11754 2494 19280000 		.4byte	.LASF506
 11755 2498 28       		.byte	0x28
 11756 2499 4B01     		.2byte	0x14b
 11757 249b 87240000 		.4byte	0x2487
 11758 249f 2B       		.uleb128 0x2b
 11759 24a0 07       		.byte	0x7
 11760 24a1 01       		.byte	0x1
 11761 24a2 69000000 		.4byte	0x69
 11762 24a6 29       		.byte	0x29
 11763 24a7 46       		.byte	0x46
 11764 24a8 D1240000 		.4byte	0x24d1
 11765 24ac 23       		.uleb128 0x23
 11766 24ad 33210000 		.4byte	.LASF507
 11767 24b1 00       		.byte	0
 11768 24b2 23       		.uleb128 0x23
 11769 24b3 BB290000 		.4byte	.LASF508
 11770 24b7 01       		.byte	0x1
 11771 24b8 23       		.uleb128 0x23
 11772 24b9 16110000 		.4byte	.LASF509
 11773 24bd 02       		.byte	0x2
 11774 24be 23       		.uleb128 0x23
 11775 24bf 5D190000 		.4byte	.LASF510
 11776 24c3 03       		.byte	0x3
 11777 24c4 23       		.uleb128 0x23
 11778 24c5 BB200000 		.4byte	.LASF511
 11779 24c9 04       		.byte	0x4
 11780 24ca 23       		.uleb128 0x23
 11781 24cb 07120000 		.4byte	.LASF512
 11782 24cf 05       		.byte	0x5
 11783 24d0 00       		.byte	0
 11784 24d1 03       		.uleb128 0x3
 11785 24d2 891D0000 		.4byte	.LASF513
 11786 24d6 29       		.byte	0x29
 11787 24d7 4D       		.byte	0x4d
 11788 24d8 9F240000 		.4byte	0x249f
 11789 24dc 0C       		.uleb128 0xc
 11790 24dd 1C       		.byte	0x1c
 11791 24de 2A       		.byte	0x2a
 11792 24df F9       		.byte	0xf9
 11793 24e0 3F250000 		.4byte	0x253f
 11794 24e4 11       		.uleb128 0x11
 11795 24e5 64616300 		.ascii	"dac\000"
 11796 24e9 2A       		.byte	0x2a
 11797 24ea FD       		.byte	0xfd
 11798 24eb 3F250000 		.4byte	0x253f
 11799 24ef 00       		.byte	0
 11800 24f0 18       		.uleb128 0x18
 11801 24f1 B81C0000 		.4byte	.LASF514
 11802 24f5 2A       		.byte	0x2a
 11803 24f6 0101     		.2byte	0x101
 11804 24f8 A9090000 		.4byte	0x9a9
 11805 24fc 04       		.byte	0x4
 11806 24fd 18       		.uleb128 0x18
 11807 24fe 89080000 		.4byte	.LASF515
 11808 2502 2A       		.byte	0x2a
 11809 2503 0501     		.2byte	0x105
ARM GAS  C:\Users\Moi\AppData\Local\Temp\cchaECY7.s 			page 221


 11810 2505 A9090000 		.4byte	0x9a9
 11811 2509 08       		.byte	0x8
 11812 250a 18       		.uleb128 0x18
 11813 250b 91020000 		.4byte	.LASF516
 11814 250f 2A       		.byte	0x2a
 11815 2510 0901     		.2byte	0x109
 11816 2512 A9090000 		.4byte	0x9a9
 11817 2516 0C       		.byte	0xc
 11818 2517 25       		.uleb128 0x25
 11819 2518 646D6100 		.ascii	"dma\000"
 11820 251c 2A       		.byte	0x2a
 11821 251d 0D01     		.2byte	0x10d
 11822 251f 4B230000 		.4byte	0x234b
 11823 2523 10       		.byte	0x10
 11824 2524 18       		.uleb128 0x18
 11825 2525 091C0000 		.4byte	.LASF473
 11826 2529 2A       		.byte	0x2a
 11827 252a 1101     		.2byte	0x111
 11828 252c A9090000 		.4byte	0x9a9
 11829 2530 14       		.byte	0x14
 11830 2531 18       		.uleb128 0x18
 11831 2532 861B0000 		.4byte	.LASF517
 11832 2536 2A       		.byte	0x2a
 11833 2537 1501     		.2byte	0x115
 11834 2539 A9090000 		.4byte	0x9a9
 11835 253d 18       		.byte	0x18
 11836 253e 00       		.byte	0
 11837 253f 05       		.uleb128 0x5
 11838 2540 04       		.byte	0x4
 11839 2541 1C120000 		.4byte	0x121c
 11840 2545 07       		.uleb128 0x7
 11841 2546 20040000 		.4byte	.LASF518
 11842 254a 2A       		.byte	0x2a
 11843 254b 1601     		.2byte	0x116
 11844 254d DC240000 		.4byte	0x24dc
 11845 2551 0F       		.uleb128 0xf
 11846 2552 45250000 		.4byte	0x2545
 11847 2556 07       		.uleb128 0x7
 11848 2557 170F0000 		.4byte	.LASF519
 11849 255b 2A       		.byte	0x2a
 11850 255c 1B01     		.2byte	0x11b
 11851 255e 62250000 		.4byte	0x2562
 11852 2562 1B       		.uleb128 0x1b
 11853 2563 170F0000 		.4byte	.LASF519
 11854 2567 30       		.byte	0x30
 11855 2568 2A       		.byte	0x2a
 11856 2569 7B01     		.2byte	0x17b
 11857 256b D8250000 		.4byte	0x25d8
 11858 256f 18       		.uleb128 0x18
 11859 2570 86190000 		.4byte	.LASF465
 11860 2574 2A       		.byte	0x2a
 11861 2575 7F01     		.2byte	0x17f
 11862 2577 D1240000 		.4byte	0x24d1
 11863 257b 00       		.byte	0
 11864 257c 18       		.uleb128 0x18
 11865 257d 2C260000 		.4byte	.LASF469
 11866 2581 2A       		.byte	0x2a
ARM GAS  C:\Users\Moi\AppData\Local\Temp\cchaECY7.s 			page 222


 11867 2582 8301     		.2byte	0x183
 11868 2584 16270000 		.4byte	0x2716
 11869 2588 04       		.byte	0x4
 11870 2589 18       		.uleb128 0x18
 11871 258a 73020000 		.4byte	.LASF467
 11872 258e 2A       		.byte	0x2a
 11873 258f 8701     		.2byte	0x187
 11874 2591 3D260000 		.4byte	0x263d
 11875 2595 08       		.byte	0x8
 11876 2596 18       		.uleb128 0x18
 11877 2597 231D0000 		.4byte	.LASF468
 11878 259b 2A       		.byte	0x2a
 11879 259c 8B01     		.2byte	0x18b
 11880 259e 8E090000 		.4byte	0x98e
 11881 25a2 0C       		.byte	0xc
 11882 25a3 18       		.uleb128 0x18
 11883 25a4 EC200000 		.4byte	.LASF466
 11884 25a8 2A       		.byte	0x2a
 11885 25a9 8F01     		.2byte	0x18f
 11886 25ab 1C270000 		.4byte	0x271c
 11887 25af 10       		.byte	0x10
 11888 25b0 18       		.uleb128 0x18
 11889 25b1 82080000 		.4byte	.LASF470
 11890 25b5 2A       		.byte	0x2a
 11891 25b6 9401     		.2byte	0x194
 11892 25b8 860B0000 		.4byte	0xb86
 11893 25bc 14       		.byte	0x14
 11894 25bd 18       		.uleb128 0x18
 11895 25be 0C0F0000 		.4byte	.LASF471
 11896 25c2 2A       		.byte	0x2a
 11897 25c3 9A01     		.2byte	0x19a
 11898 25c5 E41A0000 		.4byte	0x1ae4
 11899 25c9 18       		.byte	0x18
 11900 25ca 18       		.uleb128 0x18
 11901 25cb 8C130000 		.4byte	.LASF520
 11902 25cf 2A       		.byte	0x2a
 11903 25d0 A301     		.2byte	0x1a3
 11904 25d2 22270000 		.4byte	0x2722
 11905 25d6 2C       		.byte	0x2c
 11906 25d7 00       		.byte	0
 11907 25d8 07       		.uleb128 0x7
 11908 25d9 B81D0000 		.4byte	.LASF521
 11909 25dd 2A       		.byte	0x2a
 11910 25de 2001     		.2byte	0x120
 11911 25e0 8E090000 		.4byte	0x98e
 11912 25e4 0F       		.uleb128 0xf
 11913 25e5 D8250000 		.4byte	0x25d8
 11914 25e9 2D       		.uleb128 0x2d
 11915 25ea 07       		.byte	0x7
 11916 25eb 01       		.byte	0x1
 11917 25ec 69000000 		.4byte	0x69
 11918 25f0 2A       		.byte	0x2a
 11919 25f1 2701     		.2byte	0x127
 11920 25f3 04260000 		.4byte	0x2604
 11921 25f7 23       		.uleb128 0x23
 11922 25f8 7C1E0000 		.4byte	.LASF522
 11923 25fc 00       		.byte	0
ARM GAS  C:\Users\Moi\AppData\Local\Temp\cchaECY7.s 			page 223


 11924 25fd 23       		.uleb128 0x23
 11925 25fe F80A0000 		.4byte	.LASF523
 11926 2602 01       		.byte	0x1
 11927 2603 00       		.byte	0
 11928 2604 07       		.uleb128 0x7
 11929 2605 FE130000 		.4byte	.LASF524
 11930 2609 2A       		.byte	0x2a
 11931 260a 2A01     		.2byte	0x12a
 11932 260c E9250000 		.4byte	0x25e9
 11933 2610 07       		.uleb128 0x7
 11934 2611 FA080000 		.4byte	.LASF525
 11935 2615 2A       		.byte	0x2a
 11936 2616 3401     		.2byte	0x134
 11937 2618 1C260000 		.4byte	0x261c
 11938 261c 05       		.uleb128 0x5
 11939 261d 04       		.byte	0x4
 11940 261e 22260000 		.4byte	0x2622
 11941 2622 1F       		.uleb128 0x1f
 11942 2623 37260000 		.4byte	0x2637
 11943 2627 16       		.uleb128 0x16
 11944 2628 37260000 		.4byte	0x2637
 11945 262c 16       		.uleb128 0x16
 11946 262d 3D260000 		.4byte	0x263d
 11947 2631 16       		.uleb128 0x16
 11948 2632 2C000000 		.4byte	0x2c
 11949 2636 00       		.byte	0
 11950 2637 05       		.uleb128 0x5
 11951 2638 04       		.byte	0x4
 11952 2639 56250000 		.4byte	0x2556
 11953 263d 05       		.uleb128 0x5
 11954 263e 04       		.byte	0x4
 11955 263f E4250000 		.4byte	0x25e4
 11956 2643 07       		.uleb128 0x7
 11957 2644 76280000 		.4byte	.LASF526
 11958 2648 2A       		.byte	0x2a
 11959 2649 3F01     		.2byte	0x13f
 11960 264b 4F260000 		.4byte	0x264f
 11961 264f 05       		.uleb128 0x5
 11962 2650 04       		.byte	0x4
 11963 2651 55260000 		.4byte	0x2655
 11964 2655 1F       		.uleb128 0x1f
 11965 2656 65260000 		.4byte	0x2665
 11966 265a 16       		.uleb128 0x16
 11967 265b 37260000 		.4byte	0x2637
 11968 265f 16       		.uleb128 0x16
 11969 2660 04260000 		.4byte	0x2604
 11970 2664 00       		.byte	0
 11971 2665 2D       		.uleb128 0x2d
 11972 2666 07       		.byte	0x7
 11973 2667 01       		.byte	0x1
 11974 2668 69000000 		.4byte	0x69
 11975 266c 2A       		.byte	0x2a
 11976 266d 4401     		.2byte	0x144
 11977 266f 86260000 		.4byte	0x2686
 11978 2673 23       		.uleb128 0x23
 11979 2674 AD210000 		.4byte	.LASF527
 11980 2678 00       		.byte	0
ARM GAS  C:\Users\Moi\AppData\Local\Temp\cchaECY7.s 			page 224


 11981 2679 23       		.uleb128 0x23
 11982 267a E9150000 		.4byte	.LASF528
 11983 267e 01       		.byte	0x1
 11984 267f 23       		.uleb128 0x23
 11985 2680 321A0000 		.4byte	.LASF529
 11986 2684 02       		.byte	0x2
 11987 2685 00       		.byte	0
 11988 2686 07       		.uleb128 0x7
 11989 2687 8A0C0000 		.4byte	.LASF530
 11990 268b 2A       		.byte	0x2a
 11991 268c 4D01     		.2byte	0x14d
 11992 268e 65260000 		.4byte	0x2665
 11993 2692 1C       		.uleb128 0x1c
 11994 2693 10       		.byte	0x10
 11995 2694 2A       		.byte	0x2a
 11996 2695 5201     		.2byte	0x152
 11997 2697 D0260000 		.4byte	0x26d0
 11998 269b 18       		.uleb128 0x18
 11999 269c C3120000 		.4byte	.LASF477
 12000 26a0 2A       		.byte	0x2a
 12001 26a1 5601     		.2byte	0x156
 12002 26a3 A9090000 		.4byte	0x9a9
 12003 26a7 00       		.byte	0
 12004 26a8 18       		.uleb128 0x18
 12005 26a9 2B0B0000 		.4byte	.LASF478
 12006 26ad 2A       		.byte	0x2a
 12007 26ae 5A01     		.2byte	0x15a
 12008 26b0 10260000 		.4byte	0x2610
 12009 26b4 04       		.byte	0x4
 12010 26b5 18       		.uleb128 0x18
 12011 26b6 B72B0000 		.4byte	.LASF479
 12012 26ba 2A       		.byte	0x2a
 12013 26bb 5E01     		.2byte	0x15e
 12014 26bd 43260000 		.4byte	0x2643
 12015 26c1 08       		.byte	0x8
 12016 26c2 18       		.uleb128 0x18
 12017 26c3 67170000 		.4byte	.LASF531
 12018 26c7 2A       		.byte	0x2a
 12019 26c8 6601     		.2byte	0x166
 12020 26ca A9090000 		.4byte	0x9a9
 12021 26ce 0C       		.byte	0xc
 12022 26cf 00       		.byte	0
 12023 26d0 07       		.uleb128 0x7
 12024 26d1 06150000 		.4byte	.LASF532
 12025 26d5 2A       		.byte	0x2a
 12026 26d6 6701     		.2byte	0x167
 12027 26d8 92260000 		.4byte	0x2692
 12028 26dc 0F       		.uleb128 0xf
 12029 26dd D0260000 		.4byte	0x26d0
 12030 26e1 1C       		.uleb128 0x1c
 12031 26e2 04       		.byte	0x4
 12032 26e3 2A       		.byte	0x2a
 12033 26e4 6C01     		.2byte	0x16c
 12034 26e6 05270000 		.4byte	0x2705
 12035 26ea 18       		.uleb128 0x18
 12036 26eb 0B0D0000 		.4byte	.LASF533
 12037 26ef 2A       		.byte	0x2a
ARM GAS  C:\Users\Moi\AppData\Local\Temp\cchaECY7.s 			page 225


 12038 26f0 7101     		.2byte	0x171
 12039 26f2 D8250000 		.4byte	0x25d8
 12040 26f6 00       		.byte	0
 12041 26f7 18       		.uleb128 0x18
 12042 26f8 77010000 		.4byte	.LASF534
 12043 26fc 2A       		.byte	0x2a
 12044 26fd 7501     		.2byte	0x175
 12045 26ff 86260000 		.4byte	0x2686
 12046 2703 02       		.byte	0x2
 12047 2704 00       		.byte	0
 12048 2705 07       		.uleb128 0x7
 12049 2706 290F0000 		.4byte	.LASF535
 12050 270a 2A       		.byte	0x2a
 12051 270b 7601     		.2byte	0x176
 12052 270d E1260000 		.4byte	0x26e1
 12053 2711 0F       		.uleb128 0xf
 12054 2712 05270000 		.4byte	0x2705
 12055 2716 05       		.uleb128 0x5
 12056 2717 04       		.byte	0x4
 12057 2718 DC260000 		.4byte	0x26dc
 12058 271c 05       		.uleb128 0x5
 12059 271d 04       		.byte	0x4
 12060 271e 11270000 		.4byte	0x2711
 12061 2722 05       		.uleb128 0x5
 12062 2723 04       		.byte	0x4
 12063 2724 51250000 		.4byte	0x2551
 12064 2728 20       		.uleb128 0x20
 12065 2729 CF040000 		.4byte	.LASF536
 12066 272d 2A       		.byte	0x2a
 12067 272e B301     		.2byte	0x1b3
 12068 2730 56250000 		.4byte	0x2556
 12069 2734 2B       		.uleb128 0x2b
 12070 2735 07       		.byte	0x7
 12071 2736 01       		.byte	0x1
 12072 2737 69000000 		.4byte	0x69
 12073 273b 2B       		.byte	0x2b
 12074 273c 3F       		.byte	0x3f
 12075 273d 54270000 		.4byte	0x2754
 12076 2741 23       		.uleb128 0x23
 12077 2742 DD0B0000 		.4byte	.LASF537
 12078 2746 00       		.byte	0
 12079 2747 23       		.uleb128 0x23
 12080 2748 562E0000 		.4byte	.LASF538
 12081 274c 01       		.byte	0x1
 12082 274d 23       		.uleb128 0x23
 12083 274e BF020000 		.4byte	.LASF539
 12084 2752 02       		.byte	0x2
 12085 2753 00       		.byte	0
 12086 2754 03       		.uleb128 0x3
 12087 2755 2E200000 		.4byte	.LASF540
 12088 2759 2B       		.byte	0x2b
 12089 275a 43       		.byte	0x43
 12090 275b 34270000 		.4byte	0x2734
 12091 275f 03       		.uleb128 0x3
 12092 2760 4B0A0000 		.4byte	.LASF541
 12093 2764 2B       		.byte	0x2b
 12094 2765 48       		.byte	0x48
ARM GAS  C:\Users\Moi\AppData\Local\Temp\cchaECY7.s 			page 226


 12095 2766 6A270000 		.4byte	0x276a
 12096 276a 10       		.uleb128 0x10
 12097 276b 4B0A0000 		.4byte	.LASF541
 12098 276f 08       		.byte	0x8
 12099 2770 2C       		.byte	0x2c
 12100 2771 71       		.byte	0x71
 12101 2772 8F270000 		.4byte	0x278f
 12102 2776 0D       		.uleb128 0xd
 12103 2777 86190000 		.4byte	.LASF465
 12104 277b 2C       		.byte	0x2c
 12105 277c 75       		.byte	0x75
 12106 277d 54270000 		.4byte	0x2754
 12107 2781 00       		.byte	0
 12108 2782 0D       		.uleb128 0xd
 12109 2783 EC200000 		.4byte	.LASF466
 12110 2787 2C       		.byte	0x2c
 12111 2788 79       		.byte	0x79
 12112 2789 21280000 		.4byte	0x2821
 12113 278d 04       		.byte	0x4
 12114 278e 00       		.byte	0
 12115 278f 03       		.uleb128 0x3
 12116 2790 252C0000 		.4byte	.LASF542
 12117 2794 2C       		.byte	0x2c
 12118 2795 47       		.byte	0x47
 12119 2796 A9090000 		.4byte	0x9a9
 12120 279a 03       		.uleb128 0x3
 12121 279b E6250000 		.4byte	.LASF543
 12122 279f 2C       		.byte	0x2c
 12123 27a0 4F       		.byte	0x4f
 12124 27a1 A5270000 		.4byte	0x27a5
 12125 27a5 05       		.uleb128 0x5
 12126 27a6 04       		.byte	0x4
 12127 27a7 AB270000 		.4byte	0x27ab
 12128 27ab 1F       		.uleb128 0x1f
 12129 27ac BB270000 		.4byte	0x27bb
 12130 27b0 16       		.uleb128 0x16
 12131 27b1 BB270000 		.4byte	0x27bb
 12132 27b5 16       		.uleb128 0x16
 12133 27b6 8F270000 		.4byte	0x278f
 12134 27ba 00       		.byte	0
 12135 27bb 05       		.uleb128 0x5
 12136 27bc 04       		.byte	0x4
 12137 27bd 5F270000 		.4byte	0x275f
 12138 27c1 0C       		.uleb128 0xc
 12139 27c2 08       		.byte	0x8
 12140 27c3 2C       		.byte	0x2c
 12141 27c4 54       		.byte	0x54
 12142 27c5 E1270000 		.4byte	0x27e1
 12143 27c9 0D       		.uleb128 0xd
 12144 27ca 1F0A0000 		.4byte	.LASF544
 12145 27ce 2C       		.byte	0x2c
 12146 27cf 58       		.byte	0x58
 12147 27d0 A9090000 		.4byte	0x9a9
 12148 27d4 00       		.byte	0
 12149 27d5 11       		.uleb128 0x11
 12150 27d6 636200   		.ascii	"cb\000"
 12151 27d9 2C       		.byte	0x2c
ARM GAS  C:\Users\Moi\AppData\Local\Temp\cchaECY7.s 			page 227


 12152 27da 5F       		.byte	0x5f
 12153 27db 9A270000 		.4byte	0x279a
 12154 27df 04       		.byte	0x4
 12155 27e0 00       		.byte	0
 12156 27e1 03       		.uleb128 0x3
 12157 27e2 F6100000 		.4byte	.LASF545
 12158 27e6 2C       		.byte	0x2c
 12159 27e7 60       		.byte	0x60
 12160 27e8 C1270000 		.4byte	0x27c1
 12161 27ec 0C       		.uleb128 0xc
 12162 27ed B8       		.byte	0xb8
 12163 27ee 2C       		.byte	0x2c
 12164 27ef 66       		.byte	0x66
 12165 27f0 01280000 		.4byte	0x2801
 12166 27f4 0D       		.uleb128 0xd
 12167 27f5 A3280000 		.4byte	.LASF546
 12168 27f9 2C       		.byte	0x2c
 12169 27fa 6A       		.byte	0x6a
 12170 27fb 01280000 		.4byte	0x2801
 12171 27ff 00       		.byte	0
 12172 2800 00       		.byte	0
 12173 2801 0A       		.uleb128 0xa
 12174 2802 E1270000 		.4byte	0x27e1
 12175 2806 11280000 		.4byte	0x2811
 12176 280a 0B       		.uleb128 0xb
 12177 280b 37000000 		.4byte	0x37
 12178 280f 16       		.byte	0x16
 12179 2810 00       		.byte	0
 12180 2811 03       		.uleb128 0x3
 12181 2812 79240000 		.4byte	.LASF547
 12182 2816 2C       		.byte	0x2c
 12183 2817 6C       		.byte	0x6c
 12184 2818 EC270000 		.4byte	0x27ec
 12185 281c 0F       		.uleb128 0xf
 12186 281d 11280000 		.4byte	0x2811
 12187 2821 05       		.uleb128 0x5
 12188 2822 04       		.byte	0x4
 12189 2823 1C280000 		.4byte	0x281c
 12190 2827 27       		.uleb128 0x27
 12191 2828 13070000 		.4byte	.LASF548
 12192 282c 2C       		.byte	0x2c
 12193 282d 86       		.byte	0x86
 12194 282e 5F270000 		.4byte	0x275f
 12195 2832 2B       		.uleb128 0x2b
 12196 2833 07       		.byte	0x7
 12197 2834 01       		.byte	0x1
 12198 2835 69000000 		.4byte	0x69
 12199 2839 2D       		.byte	0x2d
 12200 283a 31       		.byte	0x31
 12201 283b 5E280000 		.4byte	0x285e
 12202 283f 23       		.uleb128 0x23
 12203 2840 461A0000 		.4byte	.LASF549
 12204 2844 00       		.byte	0
 12205 2845 23       		.uleb128 0x23
 12206 2846 8F170000 		.4byte	.LASF550
 12207 284a 01       		.byte	0x1
 12208 284b 23       		.uleb128 0x23
ARM GAS  C:\Users\Moi\AppData\Local\Temp\cchaECY7.s 			page 228


 12209 284c 7F1D0000 		.4byte	.LASF551
 12210 2850 02       		.byte	0x2
 12211 2851 23       		.uleb128 0x23
 12212 2852 48090000 		.4byte	.LASF552
 12213 2856 03       		.byte	0x3
 12214 2857 23       		.uleb128 0x23
 12215 2858 9B050000 		.4byte	.LASF553
 12216 285c 04       		.byte	0x4
 12217 285d 00       		.byte	0
 12218 285e 03       		.uleb128 0x3
 12219 285f 4F160000 		.4byte	.LASF554
 12220 2863 2D       		.byte	0x2d
 12221 2864 37       		.byte	0x37
 12222 2865 32280000 		.4byte	0x2832
 12223 2869 03       		.uleb128 0x3
 12224 286a 911B0000 		.4byte	.LASF555
 12225 286e 2D       		.byte	0x2d
 12226 286f 3C       		.byte	0x3c
 12227 2870 74280000 		.4byte	0x2874
 12228 2874 1B       		.uleb128 0x1b
 12229 2875 911B0000 		.4byte	.LASF555
 12230 2879 10       		.byte	0x10
 12231 287a 2E       		.byte	0x2e
 12232 287b 9701     		.2byte	0x197
 12233 287d B6280000 		.4byte	0x28b6
 12234 2881 18       		.uleb128 0x18
 12235 2882 86190000 		.4byte	.LASF465
 12236 2886 2E       		.byte	0x2e
 12237 2887 9B01     		.2byte	0x19b
 12238 2889 5E280000 		.4byte	0x285e
 12239 288d 00       		.byte	0
 12240 288e 18       		.uleb128 0x18
 12241 288f EC200000 		.4byte	.LASF466
 12242 2893 2E       		.byte	0x2e
 12243 2894 9F01     		.2byte	0x19f
 12244 2896 4B2A0000 		.4byte	0x2a4b
 12245 289a 04       		.byte	0x4
 12246 289b 18       		.uleb128 0x18
 12247 289c 3D0F0000 		.4byte	.LASF556
 12248 28a0 2E       		.byte	0x2e
 12249 28a1 A701     		.2byte	0x1a7
 12250 28a3 A9090000 		.4byte	0x9a9
 12251 28a7 08       		.byte	0x8
 12252 28a8 25       		.uleb128 0x25
 12253 28a9 74696D00 		.ascii	"tim\000"
 12254 28ad 2E       		.byte	0x2e
 12255 28ae AB01     		.2byte	0x1ab
 12256 28b0 512A0000 		.4byte	0x2a51
 12257 28b4 0C       		.byte	0xc
 12258 28b5 00       		.byte	0
 12259 28b6 03       		.uleb128 0x3
 12260 28b7 20140000 		.4byte	.LASF557
 12261 28bb 2D       		.byte	0x2d
 12262 28bc 43       		.byte	0x43
 12263 28bd C1280000 		.4byte	0x28c1
 12264 28c1 05       		.uleb128 0x5
 12265 28c2 04       		.byte	0x4
ARM GAS  C:\Users\Moi\AppData\Local\Temp\cchaECY7.s 			page 229


 12266 28c3 C7280000 		.4byte	0x28c7
 12267 28c7 1F       		.uleb128 0x1f
 12268 28c8 D2280000 		.4byte	0x28d2
 12269 28cc 16       		.uleb128 0x16
 12270 28cd D2280000 		.4byte	0x28d2
 12271 28d1 00       		.byte	0
 12272 28d2 05       		.uleb128 0x5
 12273 28d3 04       		.byte	0x4
 12274 28d4 69280000 		.4byte	0x2869
 12275 28d8 1C       		.uleb128 0x1c
 12276 28d9 60       		.byte	0x60
 12277 28da 2F       		.byte	0x2f
 12278 28db 9E01     		.2byte	0x19e
 12279 28dd E4290000 		.4byte	0x29e4
 12280 28e1 25       		.uleb128 0x25
 12281 28e2 43523100 		.ascii	"CR1\000"
 12282 28e6 2F       		.byte	0x2f
 12283 28e7 9F01     		.2byte	0x19f
 12284 28e9 B4090000 		.4byte	0x9b4
 12285 28ed 00       		.byte	0
 12286 28ee 25       		.uleb128 0x25
 12287 28ef 43523200 		.ascii	"CR2\000"
 12288 28f3 2F       		.byte	0x2f
 12289 28f4 A001     		.2byte	0x1a0
 12290 28f6 B4090000 		.4byte	0x9b4
 12291 28fa 04       		.byte	0x4
 12292 28fb 18       		.uleb128 0x18
 12293 28fc 8F270000 		.4byte	.LASF558
 12294 2900 2F       		.byte	0x2f
 12295 2901 A101     		.2byte	0x1a1
 12296 2903 B4090000 		.4byte	0x9b4
 12297 2907 08       		.byte	0x8
 12298 2908 18       		.uleb128 0x18
 12299 2909 300C0000 		.4byte	.LASF559
 12300 290d 2F       		.byte	0x2f
 12301 290e A201     		.2byte	0x1a2
 12302 2910 B4090000 		.4byte	0x9b4
 12303 2914 0C       		.byte	0xc
 12304 2915 25       		.uleb128 0x25
 12305 2916 535200   		.ascii	"SR\000"
 12306 2919 2F       		.byte	0x2f
 12307 291a A301     		.2byte	0x1a3
 12308 291c B4090000 		.4byte	0x9b4
 12309 2920 10       		.byte	0x10
 12310 2921 25       		.uleb128 0x25
 12311 2922 45475200 		.ascii	"EGR\000"
 12312 2926 2F       		.byte	0x2f
 12313 2927 A401     		.2byte	0x1a4
 12314 2929 B4090000 		.4byte	0x9b4
 12315 292d 14       		.byte	0x14
 12316 292e 18       		.uleb128 0x18
 12317 292f 1A2D0000 		.4byte	.LASF560
 12318 2933 2F       		.byte	0x2f
 12319 2934 A501     		.2byte	0x1a5
 12320 2936 B4090000 		.4byte	0x9b4
 12321 293a 18       		.byte	0x18
 12322 293b 18       		.uleb128 0x18
ARM GAS  C:\Users\Moi\AppData\Local\Temp\cchaECY7.s 			page 230


 12323 293c 202D0000 		.4byte	.LASF561
 12324 2940 2F       		.byte	0x2f
 12325 2941 A601     		.2byte	0x1a6
 12326 2943 B4090000 		.4byte	0x9b4
 12327 2947 1C       		.byte	0x1c
 12328 2948 18       		.uleb128 0x18
 12329 2949 D2080000 		.4byte	.LASF562
 12330 294d 2F       		.byte	0x2f
 12331 294e A701     		.2byte	0x1a7
 12332 2950 B4090000 		.4byte	0x9b4
 12333 2954 20       		.byte	0x20
 12334 2955 25       		.uleb128 0x25
 12335 2956 434E5400 		.ascii	"CNT\000"
 12336 295a 2F       		.byte	0x2f
 12337 295b A801     		.2byte	0x1a8
 12338 295d B4090000 		.4byte	0x9b4
 12339 2961 24       		.byte	0x24
 12340 2962 25       		.uleb128 0x25
 12341 2963 50534300 		.ascii	"PSC\000"
 12342 2967 2F       		.byte	0x2f
 12343 2968 A901     		.2byte	0x1a9
 12344 296a B4090000 		.4byte	0x9b4
 12345 296e 28       		.byte	0x28
 12346 296f 25       		.uleb128 0x25
 12347 2970 41525200 		.ascii	"ARR\000"
 12348 2974 2F       		.byte	0x2f
 12349 2975 AA01     		.2byte	0x1aa
 12350 2977 B4090000 		.4byte	0x9b4
 12351 297b 2C       		.byte	0x2c
 12352 297c 25       		.uleb128 0x25
 12353 297d 52435200 		.ascii	"RCR\000"
 12354 2981 2F       		.byte	0x2f
 12355 2982 AB01     		.2byte	0x1ab
 12356 2984 B4090000 		.4byte	0x9b4
 12357 2988 30       		.byte	0x30
 12358 2989 25       		.uleb128 0x25
 12359 298a 43435200 		.ascii	"CCR\000"
 12360 298e 2F       		.byte	0x2f
 12361 298f AC01     		.2byte	0x1ac
 12362 2991 52130000 		.4byte	0x1352
 12363 2995 34       		.byte	0x34
 12364 2996 18       		.uleb128 0x18
 12365 2997 8C020000 		.4byte	.LASF563
 12366 299b 2F       		.byte	0x2f
 12367 299c AD01     		.2byte	0x1ad
 12368 299e B4090000 		.4byte	0x9b4
 12369 29a2 44       		.byte	0x44
 12370 29a3 25       		.uleb128 0x25
 12371 29a4 44435200 		.ascii	"DCR\000"
 12372 29a8 2F       		.byte	0x2f
 12373 29a9 AE01     		.2byte	0x1ae
 12374 29ab B4090000 		.4byte	0x9b4
 12375 29af 48       		.byte	0x48
 12376 29b0 18       		.uleb128 0x18
 12377 29b1 EE190000 		.4byte	.LASF564
 12378 29b5 2F       		.byte	0x2f
 12379 29b6 AF01     		.2byte	0x1af
ARM GAS  C:\Users\Moi\AppData\Local\Temp\cchaECY7.s 			page 231


 12380 29b8 B4090000 		.4byte	0x9b4
 12381 29bc 4C       		.byte	0x4c
 12382 29bd 25       		.uleb128 0x25
 12383 29be 4F5200   		.ascii	"OR\000"
 12384 29c1 2F       		.byte	0x2f
 12385 29c2 B001     		.2byte	0x1b0
 12386 29c4 B4090000 		.4byte	0x9b4
 12387 29c8 50       		.byte	0x50
 12388 29c9 18       		.uleb128 0x18
 12389 29ca 262D0000 		.4byte	.LASF565
 12390 29ce 2F       		.byte	0x2f
 12391 29cf B101     		.2byte	0x1b1
 12392 29d1 B4090000 		.4byte	0x9b4
 12393 29d5 54       		.byte	0x54
 12394 29d6 18       		.uleb128 0x18
 12395 29d7 490F0000 		.4byte	.LASF566
 12396 29db 2F       		.byte	0x2f
 12397 29dc B201     		.2byte	0x1b2
 12398 29de 3D130000 		.4byte	0x133d
 12399 29e2 58       		.byte	0x58
 12400 29e3 00       		.byte	0
 12401 29e4 07       		.uleb128 0x7
 12402 29e5 70260000 		.4byte	.LASF567
 12403 29e9 2F       		.byte	0x2f
 12404 29ea B301     		.2byte	0x1b3
 12405 29ec D8280000 		.4byte	0x28d8
 12406 29f0 07       		.uleb128 0x7
 12407 29f1 960A0000 		.4byte	.LASF568
 12408 29f5 2E       		.byte	0x2e
 12409 29f6 6D01     		.2byte	0x16d
 12410 29f8 A9090000 		.4byte	0x9a9
 12411 29fc 1C       		.uleb128 0x1c
 12412 29fd 10       		.byte	0x10
 12413 29fe 2E       		.byte	0x2e
 12414 29ff 7801     		.2byte	0x178
 12415 2a01 3A2A0000 		.4byte	0x2a3a
 12416 2a05 18       		.uleb128 0x18
 12417 2a06 682C0000 		.4byte	.LASF569
 12418 2a0a 2E       		.byte	0x2e
 12419 2a0b 7E01     		.2byte	0x17e
 12420 2a0d F0290000 		.4byte	0x29f0
 12421 2a11 00       		.byte	0
 12422 2a12 18       		.uleb128 0x18
 12423 2a13 F3190000 		.4byte	.LASF570
 12424 2a17 2E       		.byte	0x2e
 12425 2a18 8501     		.2byte	0x185
 12426 2a1a B6280000 		.4byte	0x28b6
 12427 2a1e 04       		.byte	0x4
 12428 2a1f 25       		.uleb128 0x25
 12429 2a20 63723200 		.ascii	"cr2\000"
 12430 2a24 2E       		.byte	0x2e
 12431 2a25 8B01     		.2byte	0x18b
 12432 2a27 A9090000 		.4byte	0x9a9
 12433 2a2b 08       		.byte	0x8
 12434 2a2c 18       		.uleb128 0x18
 12435 2a2d A30E0000 		.4byte	.LASF571
 12436 2a31 2E       		.byte	0x2e
ARM GAS  C:\Users\Moi\AppData\Local\Temp\cchaECY7.s 			page 232


 12437 2a32 9101     		.2byte	0x191
 12438 2a34 A9090000 		.4byte	0x9a9
 12439 2a38 0C       		.byte	0xc
 12440 2a39 00       		.byte	0
 12441 2a3a 07       		.uleb128 0x7
 12442 2a3b D5070000 		.4byte	.LASF572
 12443 2a3f 2E       		.byte	0x2e
 12444 2a40 9201     		.2byte	0x192
 12445 2a42 FC290000 		.4byte	0x29fc
 12446 2a46 0F       		.uleb128 0xf
 12447 2a47 3A2A0000 		.4byte	0x2a3a
 12448 2a4b 05       		.uleb128 0x5
 12449 2a4c 04       		.byte	0x4
 12450 2a4d 462A0000 		.4byte	0x2a46
 12451 2a51 05       		.uleb128 0x5
 12452 2a52 04       		.byte	0x4
 12453 2a53 E4290000 		.4byte	0x29e4
 12454 2a57 20       		.uleb128 0x20
 12455 2a58 9D2B0000 		.4byte	.LASF573
 12456 2a5c 2E       		.byte	0x2e
 12457 2a5d F201     		.2byte	0x1f2
 12458 2a5f 69280000 		.4byte	0x2869
 12459 2a63 20       		.uleb128 0x20
 12460 2a64 F3200000 		.4byte	.LASF574
 12461 2a68 2E       		.byte	0x2e
 12462 2a69 0202     		.2byte	0x202
 12463 2a6b 69280000 		.4byte	0x2869
 12464 2a6f 2B       		.uleb128 0x2b
 12465 2a70 07       		.byte	0x7
 12466 2a71 01       		.byte	0x1
 12467 2a72 69000000 		.4byte	0x69
 12468 2a76 30       		.byte	0x30
 12469 2a77 4C       		.byte	0x4c
 12470 2a78 A12A0000 		.4byte	0x2aa1
 12471 2a7c 23       		.uleb128 0x23
 12472 2a7d AD070000 		.4byte	.LASF575
 12473 2a81 00       		.byte	0
 12474 2a82 23       		.uleb128 0x23
 12475 2a83 AB100000 		.4byte	.LASF576
 12476 2a87 01       		.byte	0x1
 12477 2a88 23       		.uleb128 0x23
 12478 2a89 B4080000 		.4byte	.LASF577
 12479 2a8d 02       		.byte	0x2
 12480 2a8e 23       		.uleb128 0x23
 12481 2a8f D5050000 		.4byte	.LASF578
 12482 2a93 03       		.byte	0x3
 12483 2a94 23       		.uleb128 0x23
 12484 2a95 49040000 		.4byte	.LASF579
 12485 2a99 04       		.byte	0x4
 12486 2a9a 23       		.uleb128 0x23
 12487 2a9b 0C160000 		.4byte	.LASF580
 12488 2a9f 05       		.byte	0x5
 12489 2aa0 00       		.byte	0
 12490 2aa1 03       		.uleb128 0x3
 12491 2aa2 BA130000 		.4byte	.LASF581
 12492 2aa6 30       		.byte	0x30
 12493 2aa7 53       		.byte	0x53
ARM GAS  C:\Users\Moi\AppData\Local\Temp\cchaECY7.s 			page 233


 12494 2aa8 6F2A0000 		.4byte	0x2a6f
 12495 2aac 07       		.uleb128 0x7
 12496 2aad 6E1B0000 		.4byte	.LASF582
 12497 2ab1 31       		.byte	0x31
 12498 2ab2 6A01     		.2byte	0x16a
 12499 2ab4 8E090000 		.4byte	0x98e
 12500 2ab8 07       		.uleb128 0x7
 12501 2ab9 F7040000 		.4byte	.LASF583
 12502 2abd 31       		.byte	0x31
 12503 2abe 6F01     		.2byte	0x16f
 12504 2ac0 A9090000 		.4byte	0x9a9
 12505 2ac4 2D       		.uleb128 0x2d
 12506 2ac5 07       		.byte	0x7
 12507 2ac6 01       		.byte	0x1
 12508 2ac7 69000000 		.4byte	0x69
 12509 2acb 31       		.byte	0x31
 12510 2acc 7401     		.2byte	0x174
 12511 2ace E52A0000 		.4byte	0x2ae5
 12512 2ad2 23       		.uleb128 0x23
 12513 2ad3 EE050000 		.4byte	.LASF584
 12514 2ad7 01       		.byte	0x1
 12515 2ad8 23       		.uleb128 0x23
 12516 2ad9 AC000000 		.4byte	.LASF585
 12517 2add 02       		.byte	0x2
 12518 2ade 23       		.uleb128 0x23
 12519 2adf 8A0B0000 		.4byte	.LASF586
 12520 2ae3 03       		.byte	0x3
 12521 2ae4 00       		.byte	0
 12522 2ae5 07       		.uleb128 0x7
 12523 2ae6 702D0000 		.4byte	.LASF587
 12524 2aea 31       		.byte	0x31
 12525 2aeb 7801     		.2byte	0x178
 12526 2aed C42A0000 		.4byte	0x2ac4
 12527 2af1 2D       		.uleb128 0x2d
 12528 2af2 07       		.byte	0x7
 12529 2af3 01       		.byte	0x1
 12530 2af4 69000000 		.4byte	0x69
 12531 2af8 31       		.byte	0x31
 12532 2af9 7D01     		.2byte	0x17d
 12533 2afb 122B0000 		.4byte	0x2b12
 12534 2aff 23       		.uleb128 0x23
 12535 2b00 E7060000 		.4byte	.LASF588
 12536 2b04 01       		.byte	0x1
 12537 2b05 23       		.uleb128 0x23
 12538 2b06 EF2C0000 		.4byte	.LASF589
 12539 2b0a 02       		.byte	0x2
 12540 2b0b 23       		.uleb128 0x23
 12541 2b0c B20C0000 		.4byte	.LASF590
 12542 2b10 03       		.byte	0x3
 12543 2b11 00       		.byte	0
 12544 2b12 07       		.uleb128 0x7
 12545 2b13 49080000 		.4byte	.LASF591
 12546 2b17 31       		.byte	0x31
 12547 2b18 8101     		.2byte	0x181
 12548 2b1a F12A0000 		.4byte	0x2af1
 12549 2b1e 1C       		.uleb128 0x1c
 12550 2b1f 0C       		.byte	0xc
ARM GAS  C:\Users\Moi\AppData\Local\Temp\cchaECY7.s 			page 234


 12551 2b20 31       		.byte	0x31
 12552 2b21 8601     		.2byte	0x186
 12553 2b23 4F2B0000 		.4byte	0x2b4f
 12554 2b27 18       		.uleb128 0x18
 12555 2b28 BF170000 		.4byte	.LASF592
 12556 2b2c 31       		.byte	0x31
 12557 2b2d 8801     		.2byte	0x188
 12558 2b2f E52A0000 		.4byte	0x2ae5
 12559 2b33 00       		.byte	0
 12560 2b34 18       		.uleb128 0x18
 12561 2b35 B9040000 		.4byte	.LASF593
 12562 2b39 31       		.byte	0x31
 12563 2b3a 8901     		.2byte	0x189
 12564 2b3c A9090000 		.4byte	0x9a9
 12565 2b40 04       		.byte	0x4
 12566 2b41 18       		.uleb128 0x18
 12567 2b42 F12D0000 		.4byte	.LASF594
 12568 2b46 31       		.byte	0x31
 12569 2b47 8C01     		.2byte	0x18c
 12570 2b49 122B0000 		.4byte	0x2b12
 12571 2b4d 08       		.byte	0x8
 12572 2b4e 00       		.byte	0
 12573 2b4f 07       		.uleb128 0x7
 12574 2b50 99020000 		.4byte	.LASF595
 12575 2b54 31       		.byte	0x31
 12576 2b55 8E01     		.2byte	0x18e
 12577 2b57 1E2B0000 		.4byte	0x2b1e
 12578 2b5b 0F       		.uleb128 0xf
 12579 2b5c 4F2B0000 		.4byte	0x2b4f
 12580 2b60 07       		.uleb128 0x7
 12581 2b61 C0050000 		.4byte	.LASF596
 12582 2b65 31       		.byte	0x31
 12583 2b66 9301     		.2byte	0x193
 12584 2b68 6C2B0000 		.4byte	0x2b6c
 12585 2b6c 1B       		.uleb128 0x1b
 12586 2b6d C0050000 		.4byte	.LASF596
 12587 2b71 3C       		.byte	0x3c
 12588 2b72 31       		.byte	0x31
 12589 2b73 9801     		.2byte	0x198
 12590 2b75 092C0000 		.4byte	0x2c09
 12591 2b79 18       		.uleb128 0x18
 12592 2b7a 86190000 		.4byte	.LASF465
 12593 2b7e 31       		.byte	0x31
 12594 2b7f 9C01     		.2byte	0x19c
 12595 2b81 A12A0000 		.4byte	0x2aa1
 12596 2b85 00       		.byte	0
 12597 2b86 18       		.uleb128 0x18
 12598 2b87 EC200000 		.4byte	.LASF466
 12599 2b8b 31       		.byte	0x31
 12600 2b8c A001     		.2byte	0x1a0
 12601 2b8e 092C0000 		.4byte	0x2c09
 12602 2b92 04       		.byte	0x4
 12603 2b93 18       		.uleb128 0x18
 12604 2b94 F9010000 		.4byte	.LASF597
 12605 2b98 31       		.byte	0x31
 12606 2b99 A401     		.2byte	0x1a4
 12607 2b9b B82A0000 		.4byte	0x2ab8
ARM GAS  C:\Users\Moi\AppData\Local\Temp\cchaECY7.s 			page 235


 12608 2b9f 08       		.byte	0x8
 12609 2ba0 18       		.uleb128 0x18
 12610 2ba1 0C0F0000 		.4byte	.LASF471
 12611 2ba5 31       		.byte	0x31
 12612 2ba6 A901     		.2byte	0x1a9
 12613 2ba8 E41A0000 		.4byte	0x1ae4
 12614 2bac 0C       		.byte	0xc
 12615 2bad 18       		.uleb128 0x18
 12616 2bae 82080000 		.4byte	.LASF470
 12617 2bb2 31       		.byte	0x31
 12618 2bb3 B201     		.2byte	0x1b2
 12619 2bb5 860B0000 		.4byte	0xb86
 12620 2bb9 20       		.byte	0x20
 12621 2bba 18       		.uleb128 0x18
 12622 2bbb B4100000 		.4byte	.LASF598
 12623 2bbf 31       		.byte	0x31
 12624 2bc0 B601     		.2byte	0x1b6
 12625 2bc2 AC2A0000 		.4byte	0x2aac
 12626 2bc6 24       		.byte	0x24
 12627 2bc7 18       		.uleb128 0x18
 12628 2bc8 0B0A0000 		.4byte	.LASF599
 12629 2bcc 31       		.byte	0x31
 12630 2bcd BA01     		.2byte	0x1ba
 12631 2bcf A9090000 		.4byte	0x9a9
 12632 2bd3 28       		.byte	0x28
 12633 2bd4 18       		.uleb128 0x18
 12634 2bd5 750A0000 		.4byte	.LASF600
 12635 2bd9 31       		.byte	0x31
 12636 2bda BE01     		.2byte	0x1be
 12637 2bdc A9090000 		.4byte	0x9a9
 12638 2be0 2C       		.byte	0x2c
 12639 2be1 18       		.uleb128 0x18
 12640 2be2 80010000 		.4byte	.LASF601
 12641 2be6 31       		.byte	0x31
 12642 2be7 C201     		.2byte	0x1c2
 12643 2be9 4B230000 		.4byte	0x234b
 12644 2bed 30       		.byte	0x30
 12645 2bee 18       		.uleb128 0x18
 12646 2bef AC020000 		.4byte	.LASF602
 12647 2bf3 31       		.byte	0x31
 12648 2bf4 C601     		.2byte	0x1c6
 12649 2bf6 4B230000 		.4byte	0x234b
 12650 2bfa 34       		.byte	0x34
 12651 2bfb 25       		.uleb128 0x25
 12652 2bfc 69326300 		.ascii	"i2c\000"
 12653 2c00 31       		.byte	0x31
 12654 2c01 CA01     		.2byte	0x1ca
 12655 2c03 0F2C0000 		.4byte	0x2c0f
 12656 2c07 38       		.byte	0x38
 12657 2c08 00       		.byte	0
 12658 2c09 05       		.uleb128 0x5
 12659 2c0a 04       		.byte	0x4
 12660 2c0b 5B2B0000 		.4byte	0x2b5b
 12661 2c0f 05       		.uleb128 0x5
 12662 2c10 04       		.byte	0x4
 12663 2c11 E2130000 		.4byte	0x13e2
 12664 2c15 20       		.uleb128 0x20
ARM GAS  C:\Users\Moi\AppData\Local\Temp\cchaECY7.s 			page 236


 12665 2c16 52140000 		.4byte	.LASF603
 12666 2c1a 31       		.byte	0x31
 12667 2c1b E001     		.2byte	0x1e0
 12668 2c1d 602B0000 		.4byte	0x2b60
 12669 2c21 2B       		.uleb128 0x2b
 12670 2c22 07       		.byte	0x7
 12671 2c23 01       		.byte	0x1
 12672 2c24 69000000 		.4byte	0x69
 12673 2c28 32       		.byte	0x32
 12674 2c29 39       		.byte	0x39
 12675 2c2a 4D2C0000 		.4byte	0x2c4d
 12676 2c2e 23       		.uleb128 0x23
 12677 2c2f 5E120000 		.4byte	.LASF604
 12678 2c33 00       		.byte	0
 12679 2c34 23       		.uleb128 0x23
 12680 2c35 DF0E0000 		.4byte	.LASF605
 12681 2c39 01       		.byte	0x1
 12682 2c3a 23       		.uleb128 0x23
 12683 2c3b F5170000 		.4byte	.LASF606
 12684 2c3f 02       		.byte	0x2
 12685 2c40 23       		.uleb128 0x23
 12686 2c41 741D0000 		.4byte	.LASF607
 12687 2c45 03       		.byte	0x3
 12688 2c46 23       		.uleb128 0x23
 12689 2c47 5A250000 		.4byte	.LASF608
 12690 2c4b 04       		.byte	0x4
 12691 2c4c 00       		.byte	0
 12692 2c4d 03       		.uleb128 0x3
 12693 2c4e 8D290000 		.4byte	.LASF609
 12694 2c52 32       		.byte	0x32
 12695 2c53 3F       		.byte	0x3f
 12696 2c54 212C0000 		.4byte	0x2c21
 12697 2c58 03       		.uleb128 0x3
 12698 2c59 E72D0000 		.4byte	.LASF610
 12699 2c5d 33       		.byte	0x33
 12700 2c5e E2       		.byte	0xe2
 12701 2c5f 632C0000 		.4byte	0x2c63
 12702 2c63 1B       		.uleb128 0x1b
 12703 2c64 E72D0000 		.4byte	.LASF610
 12704 2c68 20       		.byte	0x20
 12705 2c69 33       		.byte	0x33
 12706 2c6a 1B01     		.2byte	0x11b
 12707 2c6c D92C0000 		.4byte	0x2cd9
 12708 2c70 18       		.uleb128 0x18
 12709 2c71 86190000 		.4byte	.LASF465
 12710 2c75 33       		.byte	0x33
 12711 2c76 1F01     		.2byte	0x11f
 12712 2c78 4D2C0000 		.4byte	0x2c4d
 12713 2c7c 00       		.byte	0
 12714 2c7d 18       		.uleb128 0x18
 12715 2c7e EC200000 		.4byte	.LASF466
 12716 2c82 33       		.byte	0x33
 12717 2c83 2301     		.2byte	0x123
 12718 2c85 712D0000 		.4byte	0x2d71
 12719 2c89 04       		.byte	0x4
 12720 2c8a 25       		.uleb128 0x25
 12721 2c8b 73706900 		.ascii	"spi\000"
ARM GAS  C:\Users\Moi\AppData\Local\Temp\cchaECY7.s 			page 237


 12722 2c8f 33       		.byte	0x33
 12723 2c90 2801     		.2byte	0x128
 12724 2c92 772D0000 		.4byte	0x2d77
 12725 2c96 08       		.byte	0x8
 12726 2c97 25       		.uleb128 0x25
 12727 2c98 63666700 		.ascii	"cfg\000"
 12728 2c9c 33       		.byte	0x33
 12729 2c9d 2C01     		.2byte	0x12c
 12730 2c9f 8E090000 		.4byte	0x98e
 12731 2ca3 0C       		.byte	0xc
 12732 2ca4 18       		.uleb128 0x18
 12733 2ca5 80010000 		.4byte	.LASF601
 12734 2ca9 33       		.byte	0x33
 12735 2caa 3001     		.2byte	0x130
 12736 2cac 4B230000 		.4byte	0x234b
 12737 2cb0 10       		.byte	0x10
 12738 2cb1 18       		.uleb128 0x18
 12739 2cb2 AC020000 		.4byte	.LASF602
 12740 2cb6 33       		.byte	0x33
 12741 2cb7 3401     		.2byte	0x134
 12742 2cb9 4B230000 		.4byte	0x234b
 12743 2cbd 14       		.byte	0x14
 12744 2cbe 18       		.uleb128 0x18
 12745 2cbf 0B0A0000 		.4byte	.LASF599
 12746 2cc3 33       		.byte	0x33
 12747 2cc4 3801     		.2byte	0x138
 12748 2cc6 A9090000 		.4byte	0x9a9
 12749 2cca 18       		.byte	0x18
 12750 2ccb 18       		.uleb128 0x18
 12751 2ccc 750A0000 		.4byte	.LASF600
 12752 2cd0 33       		.byte	0x33
 12753 2cd1 3C01     		.2byte	0x13c
 12754 2cd3 A9090000 		.4byte	0x9a9
 12755 2cd7 1C       		.byte	0x1c
 12756 2cd8 00       		.byte	0
 12757 2cd9 03       		.uleb128 0x3
 12758 2cda 610A0000 		.4byte	.LASF611
 12759 2cde 33       		.byte	0x33
 12760 2cdf EB       		.byte	0xeb
 12761 2ce0 E42C0000 		.4byte	0x2ce4
 12762 2ce4 05       		.uleb128 0x5
 12763 2ce5 04       		.byte	0x4
 12764 2ce6 EA2C0000 		.4byte	0x2cea
 12765 2cea 1F       		.uleb128 0x1f
 12766 2ceb FF2C0000 		.4byte	0x2cff
 12767 2cef 16       		.uleb128 0x16
 12768 2cf0 FF2C0000 		.4byte	0x2cff
 12769 2cf4 16       		.uleb128 0x16
 12770 2cf5 2C000000 		.4byte	0x2c
 12771 2cf9 16       		.uleb128 0x16
 12772 2cfa 2C000000 		.4byte	0x2c
 12773 2cfe 00       		.byte	0
 12774 2cff 05       		.uleb128 0x5
 12775 2d00 04       		.byte	0x4
 12776 2d01 582C0000 		.4byte	0x2c58
 12777 2d05 0C       		.uleb128 0xc
 12778 2d06 14       		.byte	0x14
ARM GAS  C:\Users\Moi\AppData\Local\Temp\cchaECY7.s 			page 238


 12779 2d07 33       		.byte	0x33
 12780 2d08 F1       		.byte	0xf1
 12781 2d09 592D0000 		.4byte	0x2d59
 12782 2d0d 0D       		.uleb128 0xd
 12783 2d0e 1B020000 		.4byte	.LASF612
 12784 2d12 33       		.byte	0x33
 12785 2d13 F6       		.byte	0xf6
 12786 2d14 592D0000 		.4byte	0x2d59
 12787 2d18 00       		.byte	0
 12788 2d19 0D       		.uleb128 0xd
 12789 2d1a EF010000 		.4byte	.LASF613
 12790 2d1e 33       		.byte	0x33
 12791 2d1f FB       		.byte	0xfb
 12792 2d20 68010000 		.4byte	0x168
 12793 2d24 04       		.byte	0x4
 12794 2d25 0D       		.uleb128 0xd
 12795 2d26 120F0000 		.4byte	.LASF614
 12796 2d2a 33       		.byte	0x33
 12797 2d2b FF       		.byte	0xff
 12798 2d2c 2C000000 		.4byte	0x2c
 12799 2d30 08       		.byte	0x8
 12800 2d31 18       		.uleb128 0x18
 12801 2d32 2B0B0000 		.4byte	.LASF478
 12802 2d36 33       		.byte	0x33
 12803 2d37 0301     		.2byte	0x103
 12804 2d39 D92C0000 		.4byte	0x2cd9
 12805 2d3d 0C       		.byte	0xc
 12806 2d3e 18       		.uleb128 0x18
 12807 2d3f D61D0000 		.4byte	.LASF615
 12808 2d43 33       		.byte	0x33
 12809 2d44 0F01     		.2byte	0x10f
 12810 2d46 83090000 		.4byte	0x983
 12811 2d4a 10       		.byte	0x10
 12812 2d4b 18       		.uleb128 0x18
 12813 2d4c 26080000 		.4byte	.LASF616
 12814 2d50 33       		.byte	0x33
 12815 2d51 1501     		.2byte	0x115
 12816 2d53 83090000 		.4byte	0x983
 12817 2d57 12       		.byte	0x12
 12818 2d58 00       		.byte	0
 12819 2d59 05       		.uleb128 0x5
 12820 2d5a 04       		.byte	0x4
 12821 2d5b 5F2D0000 		.4byte	0x2d5f
 12822 2d5f 2E       		.uleb128 0x2e
 12823 2d60 07       		.uleb128 0x7
 12824 2d61 FC2D0000 		.4byte	.LASF617
 12825 2d65 33       		.byte	0x33
 12826 2d66 1601     		.2byte	0x116
 12827 2d68 052D0000 		.4byte	0x2d05
 12828 2d6c 0F       		.uleb128 0xf
 12829 2d6d 602D0000 		.4byte	0x2d60
 12830 2d71 05       		.uleb128 0x5
 12831 2d72 04       		.byte	0x4
 12832 2d73 6C2D0000 		.4byte	0x2d6c
 12833 2d77 05       		.uleb128 0x5
 12834 2d78 04       		.byte	0x4
 12835 2d79 95150000 		.4byte	0x1595
ARM GAS  C:\Users\Moi\AppData\Local\Temp\cchaECY7.s 			page 239


 12836 2d7d 20       		.uleb128 0x20
 12837 2d7e 672E0000 		.4byte	.LASF618
 12838 2d82 33       		.byte	0x33
 12839 2d83 4801     		.2byte	0x148
 12840 2d85 582C0000 		.4byte	0x2c58
 12841 2d89 2B       		.uleb128 0x2b
 12842 2d8a 07       		.byte	0x7
 12843 2d8b 01       		.byte	0x1
 12844 2d8c 69000000 		.4byte	0x69
 12845 2d90 34       		.byte	0x34
 12846 2d91 4A       		.byte	0x4a
 12847 2d92 A92D0000 		.4byte	0x2da9
 12848 2d96 23       		.uleb128 0x23
 12849 2d97 DD080000 		.4byte	.LASF619
 12850 2d9b 00       		.byte	0
 12851 2d9c 23       		.uleb128 0x23
 12852 2d9d ED0E0000 		.4byte	.LASF620
 12853 2da1 01       		.byte	0x1
 12854 2da2 23       		.uleb128 0x23
 12855 2da3 8D120000 		.4byte	.LASF621
 12856 2da7 02       		.byte	0x2
 12857 2da8 00       		.byte	0
 12858 2da9 03       		.uleb128 0x3
 12859 2daa 6A040000 		.4byte	.LASF622
 12860 2dae 34       		.byte	0x34
 12861 2daf 4E       		.byte	0x4e
 12862 2db0 892D0000 		.4byte	0x2d89
 12863 2db4 03       		.uleb128 0x3
 12864 2db5 040E0000 		.4byte	.LASF623
 12865 2db9 34       		.byte	0x34
 12866 2dba 53       		.byte	0x53
 12867 2dbb BF2D0000 		.4byte	0x2dbf
 12868 2dbf 1B       		.uleb128 0x1b
 12869 2dc0 040E0000 		.4byte	.LASF623
 12870 2dc4 1C       		.byte	0x1c
 12871 2dc5 35       		.byte	0x35
 12872 2dc6 7901     		.2byte	0x179
 12873 2dc8 282E0000 		.4byte	0x2e28
 12874 2dcc 18       		.uleb128 0x18
 12875 2dcd 86190000 		.4byte	.LASF465
 12876 2dd1 35       		.byte	0x35
 12877 2dd2 7D01     		.2byte	0x17d
 12878 2dd4 A92D0000 		.4byte	0x2da9
 12879 2dd8 00       		.byte	0
 12880 2dd9 18       		.uleb128 0x18
 12881 2dda EC200000 		.4byte	.LASF466
 12882 2dde 35       		.byte	0x35
 12883 2ddf 8101     		.2byte	0x181
 12884 2de1 232F0000 		.4byte	0x2f23
 12885 2de5 04       		.byte	0x4
 12886 2de6 18       		.uleb128 0x18
 12887 2de7 FD150000 		.4byte	.LASF624
 12888 2deb 35       		.byte	0x35
 12889 2dec 8501     		.2byte	0x185
 12890 2dee 6E2E0000 		.4byte	0x2e6e
 12891 2df2 08       		.byte	0x8
 12892 2df3 18       		.uleb128 0x18
ARM GAS  C:\Users\Moi\AppData\Local\Temp\cchaECY7.s 			page 240


 12893 2df4 741E0000 		.4byte	.LASF625
 12894 2df8 35       		.byte	0x35
 12895 2df9 8901     		.2byte	0x189
 12896 2dfb 622E0000 		.4byte	0x2e62
 12897 2dff 0C       		.byte	0xc
 12898 2e00 18       		.uleb128 0x18
 12899 2e01 A3280000 		.4byte	.LASF546
 12900 2e05 35       		.byte	0x35
 12901 2e06 8D01     		.2byte	0x18d
 12902 2e08 562E0000 		.4byte	0x2e56
 12903 2e0c 10       		.byte	0x10
 12904 2e0d 18       		.uleb128 0x18
 12905 2e0e 3D0F0000 		.4byte	.LASF556
 12906 2e12 35       		.byte	0x35
 12907 2e13 9501     		.2byte	0x195
 12908 2e15 A9090000 		.4byte	0x9a9
 12909 2e19 14       		.byte	0x14
 12910 2e1a 25       		.uleb128 0x25
 12911 2e1b 74696D00 		.ascii	"tim\000"
 12912 2e1f 35       		.byte	0x35
 12913 2e20 9901     		.2byte	0x199
 12914 2e22 512A0000 		.4byte	0x2a51
 12915 2e26 18       		.byte	0x18
 12916 2e27 00       		.byte	0
 12917 2e28 03       		.uleb128 0x3
 12918 2e29 7E130000 		.4byte	.LASF626
 12919 2e2d 34       		.byte	0x34
 12920 2e2e 5A       		.byte	0x5a
 12921 2e2f 332E0000 		.4byte	0x2e33
 12922 2e33 05       		.uleb128 0x5
 12923 2e34 04       		.byte	0x4
 12924 2e35 392E0000 		.4byte	0x2e39
 12925 2e39 1F       		.uleb128 0x1f
 12926 2e3a 442E0000 		.4byte	0x2e44
 12927 2e3e 16       		.uleb128 0x16
 12928 2e3f 442E0000 		.4byte	0x2e44
 12929 2e43 00       		.byte	0
 12930 2e44 05       		.uleb128 0x5
 12931 2e45 04       		.byte	0x4
 12932 2e46 B42D0000 		.4byte	0x2db4
 12933 2e4a 07       		.uleb128 0x7
 12934 2e4b 5C180000 		.4byte	.LASF627
 12935 2e4f 35       		.byte	0x35
 12936 2e50 2501     		.2byte	0x125
 12937 2e52 A9090000 		.4byte	0x9a9
 12938 2e56 07       		.uleb128 0x7
 12939 2e57 291B0000 		.4byte	.LASF628
 12940 2e5b 35       		.byte	0x35
 12941 2e5c 2A01     		.2byte	0x12a
 12942 2e5e 73090000 		.4byte	0x973
 12943 2e62 07       		.uleb128 0x7
 12944 2e63 DF170000 		.4byte	.LASF629
 12945 2e67 35       		.byte	0x35
 12946 2e68 2F01     		.2byte	0x12f
 12947 2e6a A9090000 		.4byte	0x9a9
 12948 2e6e 07       		.uleb128 0x7
 12949 2e6f 0F100000 		.4byte	.LASF630
ARM GAS  C:\Users\Moi\AppData\Local\Temp\cchaECY7.s 			page 241


 12950 2e73 35       		.byte	0x35
 12951 2e74 3401     		.2byte	0x134
 12952 2e76 A9090000 		.4byte	0x9a9
 12953 2e7a 1C       		.uleb128 0x1c
 12954 2e7b 08       		.byte	0x8
 12955 2e7c 35       		.byte	0x35
 12956 2e7d 3901     		.2byte	0x139
 12957 2e7f 9E2E0000 		.4byte	0x2e9e
 12958 2e83 18       		.uleb128 0x18
 12959 2e84 1F0A0000 		.4byte	.LASF544
 12960 2e88 35       		.byte	0x35
 12961 2e89 3D01     		.2byte	0x13d
 12962 2e8b 4A2E0000 		.4byte	0x2e4a
 12963 2e8f 00       		.byte	0
 12964 2e90 18       		.uleb128 0x18
 12965 2e91 F3190000 		.4byte	.LASF570
 12966 2e95 35       		.byte	0x35
 12967 2e96 4301     		.2byte	0x143
 12968 2e98 282E0000 		.4byte	0x2e28
 12969 2e9c 04       		.byte	0x4
 12970 2e9d 00       		.byte	0
 12971 2e9e 07       		.uleb128 0x7
 12972 2e9f FE0F0000 		.4byte	.LASF631
 12973 2ea3 35       		.byte	0x35
 12974 2ea4 4501     		.2byte	0x145
 12975 2ea6 7A2E0000 		.4byte	0x2e7a
 12976 2eaa 1C       		.uleb128 0x1c
 12977 2eab 34       		.byte	0x34
 12978 2eac 35       		.byte	0x35
 12979 2ead 4A01     		.2byte	0x14a
 12980 2eaf 022F0000 		.4byte	0x2f02
 12981 2eb3 18       		.uleb128 0x18
 12982 2eb4 682C0000 		.4byte	.LASF569
 12983 2eb8 35       		.byte	0x35
 12984 2eb9 5001     		.2byte	0x150
 12985 2ebb A9090000 		.4byte	0x9a9
 12986 2ebf 00       		.byte	0
 12987 2ec0 18       		.uleb128 0x18
 12988 2ec1 FD150000 		.4byte	.LASF624
 12989 2ec5 35       		.byte	0x35
 12990 2ec6 5601     		.2byte	0x156
 12991 2ec8 6E2E0000 		.4byte	0x2e6e
 12992 2ecc 04       		.byte	0x4
 12993 2ecd 18       		.uleb128 0x18
 12994 2ece F3190000 		.4byte	.LASF570
 12995 2ed2 35       		.byte	0x35
 12996 2ed3 5C01     		.2byte	0x15c
 12997 2ed5 282E0000 		.4byte	0x2e28
 12998 2ed9 08       		.byte	0x8
 12999 2eda 18       		.uleb128 0x18
 13000 2edb A3280000 		.4byte	.LASF546
 13001 2edf 35       		.byte	0x35
 13002 2ee0 6001     		.2byte	0x160
 13003 2ee2 022F0000 		.4byte	0x2f02
 13004 2ee6 0C       		.byte	0xc
 13005 2ee7 25       		.uleb128 0x25
 13006 2ee8 63723200 		.ascii	"cr2\000"
ARM GAS  C:\Users\Moi\AppData\Local\Temp\cchaECY7.s 			page 242


 13007 2eec 35       		.byte	0x35
 13008 2eed 6601     		.2byte	0x166
 13009 2eef A9090000 		.4byte	0x9a9
 13010 2ef3 2C       		.byte	0x2c
 13011 2ef4 18       		.uleb128 0x18
 13012 2ef5 A30E0000 		.4byte	.LASF571
 13013 2ef9 35       		.byte	0x35
 13014 2efa 7301     		.2byte	0x173
 13015 2efc A9090000 		.4byte	0x9a9
 13016 2f00 30       		.byte	0x30
 13017 2f01 00       		.byte	0
 13018 2f02 0A       		.uleb128 0xa
 13019 2f03 9E2E0000 		.4byte	0x2e9e
 13020 2f07 122F0000 		.4byte	0x2f12
 13021 2f0b 0B       		.uleb128 0xb
 13022 2f0c 37000000 		.4byte	0x37
 13023 2f10 03       		.byte	0x3
 13024 2f11 00       		.byte	0
 13025 2f12 07       		.uleb128 0x7
 13026 2f13 150E0000 		.4byte	.LASF632
 13027 2f17 35       		.byte	0x35
 13028 2f18 7401     		.2byte	0x174
 13029 2f1a AA2E0000 		.4byte	0x2eaa
 13030 2f1e 0F       		.uleb128 0xf
 13031 2f1f 122F0000 		.4byte	0x2f12
 13032 2f23 05       		.uleb128 0x5
 13033 2f24 04       		.byte	0x4
 13034 2f25 1E2F0000 		.4byte	0x2f1e
 13035 2f29 20       		.uleb128 0x20
 13036 2f2a 97140000 		.4byte	.LASF633
 13037 2f2e 35       		.byte	0x35
 13038 2f2f BC01     		.2byte	0x1bc
 13039 2f31 B42D0000 		.4byte	0x2db4
 13040 2f35 20       		.uleb128 0x20
 13041 2f36 9D140000 		.4byte	.LASF634
 13042 2f3a 35       		.byte	0x35
 13043 2f3b C001     		.2byte	0x1c0
 13044 2f3d B42D0000 		.4byte	0x2db4
 13045 2f41 20       		.uleb128 0x20
 13046 2f42 A3140000 		.4byte	.LASF635
 13047 2f46 35       		.byte	0x35
 13048 2f47 C401     		.2byte	0x1c4
 13049 2f49 B42D0000 		.4byte	0x2db4
 13050 2f4d 20       		.uleb128 0x20
 13051 2f4e A9140000 		.4byte	.LASF636
 13052 2f52 35       		.byte	0x35
 13053 2f53 C801     		.2byte	0x1c8
 13054 2f55 B42D0000 		.4byte	0x2db4
 13055 2f59 2B       		.uleb128 0x2b
 13056 2f5a 07       		.byte	0x7
 13057 2f5b 01       		.byte	0x1
 13058 2f5c 69000000 		.4byte	0x69
 13059 2f60 36       		.byte	0x36
 13060 2f61 55       		.byte	0x55
 13061 2f62 792F0000 		.4byte	0x2f79
 13062 2f66 23       		.uleb128 0x23
 13063 2f67 DF070000 		.4byte	.LASF637
ARM GAS  C:\Users\Moi\AppData\Local\Temp\cchaECY7.s 			page 243


 13064 2f6b 00       		.byte	0
 13065 2f6c 23       		.uleb128 0x23
 13066 2f6d 7B0F0000 		.4byte	.LASF638
 13067 2f71 01       		.byte	0x1
 13068 2f72 23       		.uleb128 0x23
 13069 2f73 EB110000 		.4byte	.LASF639
 13070 2f77 02       		.byte	0x2
 13071 2f78 00       		.byte	0
 13072 2f79 03       		.uleb128 0x3
 13073 2f7a 851C0000 		.4byte	.LASF640
 13074 2f7e 36       		.byte	0x36
 13075 2f7f 59       		.byte	0x59
 13076 2f80 592F0000 		.4byte	0x2f59
 13077 2f84 03       		.uleb128 0x3
 13078 2f85 D9280000 		.4byte	.LASF641
 13079 2f89 36       		.byte	0x36
 13080 2f8a 5E       		.byte	0x5e
 13081 2f8b 8F2F0000 		.4byte	0x2f8f
 13082 2f8f 10       		.uleb128 0x10
 13083 2f90 D9280000 		.4byte	.LASF641
 13084 2f94 78       		.byte	0x78
 13085 2f95 36       		.byte	0x36
 13086 2f96 78       		.byte	0x78
 13087 2f97 FA2F0000 		.4byte	0x2ffa
 13088 2f9b 11       		.uleb128 0x11
 13089 2f9c 766D7400 		.ascii	"vmt\000"
 13090 2fa0 36       		.byte	0x36
 13091 2fa1 7A       		.byte	0x7a
 13092 2fa2 78300000 		.4byte	0x3078
 13093 2fa6 00       		.byte	0
 13094 2fa7 0D       		.uleb128 0xd
 13095 2fa8 64000000 		.4byte	.LASF642
 13096 2fac 36       		.byte	0x36
 13097 2fad 7B       		.byte	0x7b
 13098 2fae 681B0000 		.4byte	0x1b68
 13099 2fb2 04       		.byte	0x4
 13100 2fb3 0D       		.uleb128 0xd
 13101 2fb4 86190000 		.4byte	.LASF465
 13102 2fb8 36       		.byte	0x36
 13103 2fb9 7B       		.byte	0x7b
 13104 2fba 792F0000 		.4byte	0x2f79
 13105 2fbe 08       		.byte	0x8
 13106 2fbf 0D       		.uleb128 0xd
 13107 2fc0 581C0000 		.4byte	.LASF643
 13108 2fc4 36       		.byte	0x36
 13109 2fc5 7B       		.byte	0x7b
 13110 2fc6 131C0000 		.4byte	0x1c13
 13111 2fca 0C       		.byte	0xc
 13112 2fcb 0D       		.uleb128 0xd
 13113 2fcc D0140000 		.4byte	.LASF644
 13114 2fd0 36       		.byte	0x36
 13115 2fd1 7B       		.byte	0x7b
 13116 2fd2 1E1C0000 		.4byte	0x1c1e
 13117 2fd6 30       		.byte	0x30
 13118 2fd7 11       		.uleb128 0x11
 13119 2fd8 696200   		.ascii	"ib\000"
 13120 2fdb 36       		.byte	0x36
ARM GAS  C:\Users\Moi\AppData\Local\Temp\cchaECY7.s 			page 244


 13121 2fdc 7B       		.byte	0x7b
 13122 2fdd 7E300000 		.4byte	0x307e
 13123 2fe1 54       		.byte	0x54
 13124 2fe2 11       		.uleb128 0x11
 13125 2fe3 6F6200   		.ascii	"ob\000"
 13126 2fe6 36       		.byte	0x36
 13127 2fe7 7B       		.byte	0x7b
 13128 2fe8 7E300000 		.4byte	0x307e
 13129 2fec 64       		.byte	0x64
 13130 2fed 0D       		.uleb128 0xd
 13131 2fee 9C1E0000 		.4byte	.LASF645
 13132 2ff2 36       		.byte	0x36
 13133 2ff3 7B       		.byte	0x7b
 13134 2ff4 8E300000 		.4byte	0x308e
 13135 2ff8 74       		.byte	0x74
 13136 2ff9 00       		.byte	0
 13137 2ffa 2A       		.uleb128 0x2a
 13138 2ffb 53443300 		.ascii	"SD3\000"
 13139 2fff 37       		.byte	0x37
 13140 3000 1501     		.2byte	0x115
 13141 3002 842F0000 		.4byte	0x2f84
 13142 3006 10       		.uleb128 0x10
 13143 3007 5C110000 		.4byte	.LASF646
 13144 300b 20       		.byte	0x20
 13145 300c 36       		.byte	0x36
 13146 300d 6D       		.byte	0x6d
 13147 300e 73300000 		.4byte	0x3073
 13148 3012 0D       		.uleb128 0xd
 13149 3013 471C0000 		.4byte	.LASF399
 13150 3017 36       		.byte	0x36
 13151 3018 6E       		.byte	0x6e
 13152 3019 8A1C0000 		.4byte	0x1c8a
 13153 301d 00       		.byte	0
 13154 301e 0D       		.uleb128 0xd
 13155 301f E9050000 		.4byte	.LASF400
 13156 3023 36       		.byte	0x36
 13157 3024 6E       		.byte	0x6e
 13158 3025 A91C0000 		.4byte	0x1ca9
 13159 3029 04       		.byte	0x4
 13160 302a 11       		.uleb128 0x11
 13161 302b 70757400 		.ascii	"put\000"
 13162 302f 36       		.byte	0x36
 13163 3030 6E       		.byte	0x6e
 13164 3031 C31C0000 		.4byte	0x1cc3
 13165 3035 08       		.byte	0x8
 13166 3036 11       		.uleb128 0x11
 13167 3037 67657400 		.ascii	"get\000"
 13168 303b 36       		.byte	0x36
 13169 303c 6E       		.byte	0x6e
 13170 303d D81C0000 		.4byte	0x1cd8
 13171 3041 0C       		.byte	0xc
 13172 3042 0D       		.uleb128 0xd
 13173 3043 FC160000 		.4byte	.LASF647
 13174 3047 36       		.byte	0x36
 13175 3048 6E       		.byte	0x6e
 13176 3049 9F1D0000 		.4byte	0x1d9f
 13177 304d 10       		.byte	0x10
ARM GAS  C:\Users\Moi\AppData\Local\Temp\cchaECY7.s 			page 245


 13178 304e 0D       		.uleb128 0xd
 13179 304f 2D1C0000 		.4byte	.LASF648
 13180 3053 36       		.byte	0x36
 13181 3054 6E       		.byte	0x6e
 13182 3055 B91D0000 		.4byte	0x1db9
 13183 3059 14       		.byte	0x14
 13184 305a 0D       		.uleb128 0xd
 13185 305b 022A0000 		.4byte	.LASF649
 13186 305f 36       		.byte	0x36
 13187 3060 6E       		.byte	0x6e
 13188 3061 DD1D0000 		.4byte	0x1ddd
 13189 3065 18       		.byte	0x18
 13190 3066 0D       		.uleb128 0xd
 13191 3067 41160000 		.4byte	.LASF650
 13192 306b 36       		.byte	0x36
 13193 306c 6E       		.byte	0x6e
 13194 306d 011E0000 		.4byte	0x1e01
 13195 3071 1C       		.byte	0x1c
 13196 3072 00       		.byte	0
 13197 3073 0F       		.uleb128 0xf
 13198 3074 06300000 		.4byte	0x3006
 13199 3078 05       		.uleb128 0x5
 13200 3079 04       		.byte	0x4
 13201 307a 73300000 		.4byte	0x3073
 13202 307e 0A       		.uleb128 0xa
 13203 307f 73090000 		.4byte	0x973
 13204 3083 8E300000 		.4byte	0x308e
 13205 3087 0B       		.uleb128 0xb
 13206 3088 37000000 		.4byte	0x37
 13207 308c 0F       		.byte	0xf
 13208 308d 00       		.byte	0
 13209 308e 05       		.uleb128 0x5
 13210 308f 04       		.byte	0x4
 13211 3090 04160000 		.4byte	0x1604
 13212 3094 2B       		.uleb128 0x2b
 13213 3095 07       		.byte	0x7
 13214 3096 01       		.byte	0x1
 13215 3097 69000000 		.4byte	0x69
 13216 309b 38       		.byte	0x38
 13217 309c 6C       		.byte	0x6c
 13218 309d B4300000 		.4byte	0x30b4
 13219 30a1 23       		.uleb128 0x23
 13220 30a2 34040000 		.4byte	.LASF651
 13221 30a6 00       		.byte	0
 13222 30a7 23       		.uleb128 0x23
 13223 30a8 7D180000 		.4byte	.LASF652
 13224 30ac 01       		.byte	0x1
 13225 30ad 23       		.uleb128 0x23
 13226 30ae CB150000 		.4byte	.LASF653
 13227 30b2 02       		.byte	0x2
 13228 30b3 00       		.byte	0
 13229 30b4 03       		.uleb128 0x3
 13230 30b5 BD1F0000 		.4byte	.LASF654
 13231 30b9 38       		.byte	0x38
 13232 30ba 70       		.byte	0x70
 13233 30bb 94300000 		.4byte	0x3094
 13234 30bf 03       		.uleb128 0x3
ARM GAS  C:\Users\Moi\AppData\Local\Temp\cchaECY7.s 			page 246


 13235 30c0 AF1E0000 		.4byte	.LASF655
 13236 30c4 39       		.byte	0x39
 13237 30c5 BF       		.byte	0xbf
 13238 30c6 A9090000 		.4byte	0x9a9
 13239 30ca 03       		.uleb128 0x3
 13240 30cb F5000000 		.4byte	.LASF656
 13241 30cf 39       		.byte	0x39
 13242 30d0 C4       		.byte	0xc4
 13243 30d1 A9090000 		.4byte	0x9a9
 13244 30d5 03       		.uleb128 0x3
 13245 30d6 B2280000 		.4byte	.LASF657
 13246 30da 39       		.byte	0x39
 13247 30db C9       		.byte	0xc9
 13248 30dc E0300000 		.4byte	0x30e0
 13249 30e0 10       		.uleb128 0x10
 13250 30e1 B2280000 		.4byte	.LASF657
 13251 30e5 4C       		.byte	0x4c
 13252 30e6 39       		.byte	0x39
 13253 30e7 F2       		.byte	0xf2
 13254 30e8 8F310000 		.4byte	0x318f
 13255 30ec 11       		.uleb128 0x11
 13256 30ed 766D7400 		.ascii	"vmt\000"
 13257 30f1 39       		.byte	0x39
 13258 30f2 F6       		.byte	0xf6
 13259 30f3 32320000 		.4byte	0x3232
 13260 30f7 00       		.byte	0
 13261 30f8 0D       		.uleb128 0xd
 13262 30f9 86190000 		.4byte	.LASF465
 13263 30fd 39       		.byte	0x39
 13264 30fe F7       		.byte	0xf7
 13265 30ff 4B1E0000 		.4byte	0x1e4b
 13266 3103 04       		.byte	0x4
 13267 3104 11       		.uleb128 0x11
 13268 3105 63696400 		.ascii	"cid\000"
 13269 3109 39       		.byte	0x39
 13270 310a F7       		.byte	0xf7
 13271 310b 061F0000 		.4byte	0x1f06
 13272 310f 08       		.byte	0x8
 13273 3110 11       		.uleb128 0x11
 13274 3111 63736400 		.ascii	"csd\000"
 13275 3115 39       		.byte	0x39
 13276 3116 F7       		.byte	0xf7
 13277 3117 061F0000 		.4byte	0x1f06
 13278 311b 18       		.byte	0x18
 13279 311c 0D       		.uleb128 0xd
 13280 311d D3210000 		.4byte	.LASF658
 13281 3121 39       		.byte	0x39
 13282 3122 F7       		.byte	0xf7
 13283 3123 A9090000 		.4byte	0x9a9
 13284 3127 28       		.byte	0x28
 13285 3128 0D       		.uleb128 0xd
 13286 3129 EC200000 		.4byte	.LASF466
 13287 312d 39       		.byte	0x39
 13288 312e FB       		.byte	0xfb
 13289 312f 38320000 		.4byte	0x3238
 13290 3133 2C       		.byte	0x2c
 13291 3134 0D       		.uleb128 0xd
ARM GAS  C:\Users\Moi\AppData\Local\Temp\cchaECY7.s 			page 247


 13292 3135 81050000 		.4byte	.LASF659
 13293 3139 39       		.byte	0x39
 13294 313a FF       		.byte	0xff
 13295 313b BF300000 		.4byte	0x30bf
 13296 313f 30       		.byte	0x30
 13297 3140 18       		.uleb128 0x18
 13298 3141 F9010000 		.4byte	.LASF597
 13299 3145 39       		.byte	0x39
 13300 3146 0301     		.2byte	0x103
 13301 3148 CA300000 		.4byte	0x30ca
 13302 314c 34       		.byte	0x34
 13303 314d 25       		.uleb128 0x25
 13304 314e 72636100 		.ascii	"rca\000"
 13305 3152 39       		.byte	0x39
 13306 3153 0701     		.2byte	0x107
 13307 3155 A9090000 		.4byte	0x9a9
 13308 3159 38       		.byte	0x38
 13309 315a 18       		.uleb128 0x18
 13310 315b 82080000 		.4byte	.LASF470
 13311 315f 39       		.byte	0x39
 13312 3160 0C01     		.2byte	0x10c
 13313 3162 860B0000 		.4byte	0xb86
 13314 3166 3C       		.byte	0x3c
 13315 3167 18       		.uleb128 0x18
 13316 3168 091C0000 		.4byte	.LASF473
 13317 316c 39       		.byte	0x39
 13318 316d 1001     		.2byte	0x110
 13319 316f A9090000 		.4byte	0x9a9
 13320 3173 40       		.byte	0x40
 13321 3174 25       		.uleb128 0x25
 13322 3175 646D6100 		.ascii	"dma\000"
 13323 3179 39       		.byte	0x39
 13324 317a 1401     		.2byte	0x114
 13325 317c 4B230000 		.4byte	0x234b
 13326 3180 44       		.byte	0x44
 13327 3181 18       		.uleb128 0x18
 13328 3182 AC190000 		.4byte	.LASF660
 13329 3186 39       		.byte	0x39
 13330 3187 1901     		.2byte	0x119
 13331 3189 3E320000 		.4byte	0x323e
 13332 318d 48       		.byte	0x48
 13333 318e 00       		.byte	0
 13334 318f 0C       		.uleb128 0xc
 13335 3190 08       		.byte	0x8
 13336 3191 39       		.byte	0x39
 13337 3192 CF       		.byte	0xcf
 13338 3193 B0310000 		.4byte	0x31b0
 13339 3197 0D       		.uleb128 0xd
 13340 3198 5D100000 		.4byte	.LASF661
 13341 319c 39       		.byte	0x39
 13342 319d D8       		.byte	0xd8
 13343 319e 0D1C0000 		.4byte	0x1c0d
 13344 31a2 00       		.byte	0
 13345 31a3 0D       		.uleb128 0xd
 13346 31a4 FF2A0000 		.4byte	.LASF662
 13347 31a8 39       		.byte	0x39
 13348 31a9 DC       		.byte	0xdc
ARM GAS  C:\Users\Moi\AppData\Local\Temp\cchaECY7.s 			page 248


 13349 31aa B4300000 		.4byte	0x30b4
 13350 31ae 04       		.byte	0x4
 13351 31af 00       		.byte	0
 13352 31b0 03       		.uleb128 0x3
 13353 31b1 6A1E0000 		.4byte	.LASF663
 13354 31b5 39       		.byte	0x39
 13355 31b6 DE       		.byte	0xde
 13356 31b7 8F310000 		.4byte	0x318f
 13357 31bb 0F       		.uleb128 0xf
 13358 31bc B0310000 		.4byte	0x31b0
 13359 31c0 10       		.uleb128 0x10
 13360 31c1 152B0000 		.4byte	.LASF664
 13361 31c5 20       		.byte	0x20
 13362 31c6 39       		.byte	0x39
 13363 31c7 EB       		.byte	0xeb
 13364 31c8 2D320000 		.4byte	0x322d
 13365 31cc 0D       		.uleb128 0xd
 13366 31cd 6D2E0000 		.4byte	.LASF665
 13367 31d1 39       		.byte	0x39
 13368 31d2 EC       		.byte	0xec
 13369 31d3 981E0000 		.4byte	0x1e98
 13370 31d7 00       		.byte	0
 13371 31d8 0D       		.uleb128 0xd
 13372 31d9 A80E0000 		.4byte	.LASF666
 13373 31dd 39       		.byte	0x39
 13374 31de EC       		.byte	0xec
 13375 31df 981E0000 		.4byte	0x1e98
 13376 31e3 04       		.byte	0x4
 13377 31e4 0D       		.uleb128 0xd
 13378 31e5 89110000 		.4byte	.LASF667
 13379 31e9 39       		.byte	0x39
 13380 31ea EC       		.byte	0xec
 13381 31eb 981E0000 		.4byte	0x1e98
 13382 31ef 08       		.byte	0x8
 13383 31f0 0D       		.uleb128 0xd
 13384 31f1 EA160000 		.4byte	.LASF668
 13385 31f5 39       		.byte	0x39
 13386 31f6 EC       		.byte	0xec
 13387 31f7 981E0000 		.4byte	0x1e98
 13388 31fb 0C       		.byte	0xc
 13389 31fc 0D       		.uleb128 0xd
 13390 31fd E9050000 		.4byte	.LASF400
 13391 3201 39       		.byte	0x39
 13392 3202 EC       		.byte	0xec
 13393 3203 BC1E0000 		.4byte	0x1ebc
 13394 3207 10       		.byte	0x10
 13395 3208 0D       		.uleb128 0xd
 13396 3209 471C0000 		.4byte	.LASF399
 13397 320d 39       		.byte	0x39
 13398 320e EC       		.byte	0xec
 13399 320f E01E0000 		.4byte	0x1ee0
 13400 3213 14       		.byte	0x14
 13401 3214 0D       		.uleb128 0xd
 13402 3215 971E0000 		.4byte	.LASF669
 13403 3219 39       		.byte	0x39
 13404 321a EC       		.byte	0xec
 13405 321b 981E0000 		.4byte	0x1e98
ARM GAS  C:\Users\Moi\AppData\Local\Temp\cchaECY7.s 			page 249


 13406 321f 18       		.byte	0x18
 13407 3220 0D       		.uleb128 0xd
 13408 3221 8F2A0000 		.4byte	.LASF670
 13409 3225 39       		.byte	0x39
 13410 3226 EC       		.byte	0xec
 13411 3227 001F0000 		.4byte	0x1f00
 13412 322b 1C       		.byte	0x1c
 13413 322c 00       		.byte	0
 13414 322d 0F       		.uleb128 0xf
 13415 322e C0310000 		.4byte	0x31c0
 13416 3232 05       		.uleb128 0x5
 13417 3233 04       		.byte	0x4
 13418 3234 2D320000 		.4byte	0x322d
 13419 3238 05       		.uleb128 0x5
 13420 3239 04       		.byte	0x4
 13421 323a BB310000 		.4byte	0x31bb
 13422 323e 05       		.uleb128 0x5
 13423 323f 04       		.byte	0x4
 13424 3240 0C150000 		.4byte	0x150c
 13425 3244 20       		.uleb128 0x20
 13426 3245 0D0C0000 		.4byte	.LASF671
 13427 3249 39       		.byte	0x39
 13428 324a 2501     		.2byte	0x125
 13429 324c D5300000 		.4byte	0x30d5
 13430 3250 2B       		.uleb128 0x2b
 13431 3251 07       		.byte	0x7
 13432 3252 01       		.byte	0x1
 13433 3253 69000000 		.4byte	0x69
 13434 3257 3A       		.byte	0x3a
 13435 3258 46       		.byte	0x46
 13436 3259 7C320000 		.4byte	0x327c
 13437 325d 23       		.uleb128 0x23
 13438 325e 98080000 		.4byte	.LASF672
 13439 3262 00       		.byte	0
 13440 3263 23       		.uleb128 0x23
 13441 3264 BE030000 		.4byte	.LASF673
 13442 3268 01       		.byte	0x1
 13443 3269 23       		.uleb128 0x23
 13444 326a D32A0000 		.4byte	.LASF674
 13445 326e 02       		.byte	0x2
 13446 326f 23       		.uleb128 0x23
 13447 3270 E6100000 		.4byte	.LASF675
 13448 3274 03       		.byte	0x3
 13449 3275 23       		.uleb128 0x23
 13450 3276 84160000 		.4byte	.LASF676
 13451 327a 04       		.byte	0x4
 13452 327b 00       		.byte	0
 13453 327c 03       		.uleb128 0x3
 13454 327d 85100000 		.4byte	.LASF677
 13455 3281 3A       		.byte	0x3a
 13456 3282 4C       		.byte	0x4c
 13457 3283 50320000 		.4byte	0x3250
 13458 3287 07       		.uleb128 0x7
 13459 3288 9E290000 		.4byte	.LASF678
 13460 328c 3B       		.byte	0x3b
 13461 328d 9601     		.2byte	0x196
 13462 328f 93320000 		.4byte	0x3293
ARM GAS  C:\Users\Moi\AppData\Local\Temp\cchaECY7.s 			page 250


 13463 3293 1B       		.uleb128 0x1b
 13464 3294 9E290000 		.4byte	.LASF678
 13465 3298 34       		.byte	0x34
 13466 3299 3B       		.byte	0x3b
 13467 329a BA01     		.2byte	0x1ba
 13468 329c 16330000 		.4byte	0x3316
 13469 32a0 18       		.uleb128 0x18
 13470 32a1 86190000 		.4byte	.LASF465
 13471 32a5 3B       		.byte	0x3b
 13472 32a6 BE01     		.2byte	0x1be
 13473 32a8 7C320000 		.4byte	0x327c
 13474 32ac 00       		.byte	0
 13475 32ad 18       		.uleb128 0x18
 13476 32ae EC200000 		.4byte	.LASF466
 13477 32b2 3B       		.byte	0x3b
 13478 32b3 C201     		.2byte	0x1c2
 13479 32b5 88330000 		.4byte	0x3388
 13480 32b9 04       		.byte	0x4
 13481 32ba 18       		.uleb128 0x18
 13482 32bb 82080000 		.4byte	.LASF470
 13483 32bf 3B       		.byte	0x3b
 13484 32c0 C701     		.2byte	0x1c7
 13485 32c2 860B0000 		.4byte	0xb86
 13486 32c6 08       		.byte	0x8
 13487 32c7 18       		.uleb128 0x18
 13488 32c8 0C0F0000 		.4byte	.LASF471
 13489 32cc 3B       		.byte	0x3b
 13490 32cd CD01     		.2byte	0x1cd
 13491 32cf E41A0000 		.4byte	0x1ae4
 13492 32d3 0C       		.byte	0xc
 13493 32d4 25       		.uleb128 0x25
 13494 32d5 73706900 		.ascii	"spi\000"
 13495 32d9 3B       		.byte	0x3b
 13496 32da D601     		.2byte	0x1d6
 13497 32dc 772D0000 		.4byte	0x2d77
 13498 32e0 20       		.byte	0x20
 13499 32e1 18       		.uleb128 0x18
 13500 32e2 80010000 		.4byte	.LASF601
 13501 32e6 3B       		.byte	0x3b
 13502 32e7 DA01     		.2byte	0x1da
 13503 32e9 4B230000 		.4byte	0x234b
 13504 32ed 24       		.byte	0x24
 13505 32ee 18       		.uleb128 0x18
 13506 32ef AC020000 		.4byte	.LASF602
 13507 32f3 3B       		.byte	0x3b
 13508 32f4 DE01     		.2byte	0x1de
 13509 32f6 4B230000 		.4byte	0x234b
 13510 32fa 28       		.byte	0x28
 13511 32fb 18       		.uleb128 0x18
 13512 32fc 0B0A0000 		.4byte	.LASF599
 13513 3300 3B       		.byte	0x3b
 13514 3301 E201     		.2byte	0x1e2
 13515 3303 A9090000 		.4byte	0x9a9
 13516 3307 2C       		.byte	0x2c
 13517 3308 18       		.uleb128 0x18
 13518 3309 750A0000 		.4byte	.LASF600
 13519 330d 3B       		.byte	0x3b
ARM GAS  C:\Users\Moi\AppData\Local\Temp\cchaECY7.s 			page 251


 13520 330e E601     		.2byte	0x1e6
 13521 3310 A9090000 		.4byte	0x9a9
 13522 3314 30       		.byte	0x30
 13523 3315 00       		.byte	0
 13524 3316 07       		.uleb128 0x7
 13525 3317 AA180000 		.4byte	.LASF679
 13526 331b 3B       		.byte	0x3b
 13527 331c 9E01     		.2byte	0x19e
 13528 331e 22330000 		.4byte	0x3322
 13529 3322 05       		.uleb128 0x5
 13530 3323 04       		.byte	0x4
 13531 3324 28330000 		.4byte	0x3328
 13532 3328 1F       		.uleb128 0x1f
 13533 3329 33330000 		.4byte	0x3333
 13534 332d 16       		.uleb128 0x16
 13535 332e 33330000 		.4byte	0x3333
 13536 3332 00       		.byte	0
 13537 3333 05       		.uleb128 0x5
 13538 3334 04       		.byte	0x4
 13539 3335 87320000 		.4byte	0x3287
 13540 3339 1C       		.uleb128 0x1c
 13541 333a 0C       		.byte	0xc
 13542 333b 3B       		.byte	0x3b
 13543 333c A301     		.2byte	0x1a3
 13544 333e 77330000 		.4byte	0x3377
 13545 3342 18       		.uleb128 0x18
 13546 3343 2B0B0000 		.4byte	.LASF478
 13547 3347 3B       		.byte	0x3b
 13548 3348 A701     		.2byte	0x1a7
 13549 334a 16330000 		.4byte	0x3316
 13550 334e 00       		.byte	0
 13551 334f 18       		.uleb128 0x18
 13552 3350 DF2B0000 		.4byte	.LASF680
 13553 3354 3B       		.byte	0x3b
 13554 3355 AC01     		.2byte	0x1ac
 13555 3357 DC200000 		.4byte	0x20dc
 13556 335b 04       		.byte	0x4
 13557 335c 18       		.uleb128 0x18
 13558 335d 6F0A0000 		.4byte	.LASF681
 13559 3361 3B       		.byte	0x3b
 13560 3362 B001     		.2byte	0x1b0
 13561 3364 8E090000 		.4byte	0x98e
 13562 3368 08       		.byte	0x8
 13563 3369 25       		.uleb128 0x25
 13564 336a 63723100 		.ascii	"cr1\000"
 13565 336e 3B       		.byte	0x3b
 13566 336f B401     		.2byte	0x1b4
 13567 3371 8E090000 		.4byte	0x98e
 13568 3375 0A       		.byte	0xa
 13569 3376 00       		.byte	0
 13570 3377 07       		.uleb128 0x7
 13571 3378 4D280000 		.4byte	.LASF682
 13572 337c 3B       		.byte	0x3b
 13573 337d B501     		.2byte	0x1b5
 13574 337f 39330000 		.4byte	0x3339
 13575 3383 0F       		.uleb128 0xf
 13576 3384 77330000 		.4byte	0x3377
ARM GAS  C:\Users\Moi\AppData\Local\Temp\cchaECY7.s 			page 252


 13577 3388 05       		.uleb128 0x5
 13578 3389 04       		.byte	0x4
 13579 338a 83330000 		.4byte	0x3383
 13580 338e 20       		.uleb128 0x20
 13581 338f 1A270000 		.4byte	.LASF683
 13582 3393 3B       		.byte	0x3b
 13583 3394 F201     		.2byte	0x1f2
 13584 3396 87320000 		.4byte	0x3287
 13585 339a 03       		.uleb128 0x3
 13586 339b 6B140000 		.4byte	.LASF684
 13587 339f 3C       		.byte	0x3c
 13588 33a0 FA       		.byte	0xfa
 13589 33a1 A5330000 		.4byte	0x33a5
 13590 33a5 17       		.uleb128 0x17
 13591 33a6 6B140000 		.4byte	.LASF684
 13592 33aa 6002     		.2byte	0x260
 13593 33ac 3D       		.byte	0x3d
 13594 33ad 7701     		.2byte	0x177
 13595 33af D1340000 		.4byte	0x34d1
 13596 33b3 18       		.uleb128 0x18
 13597 33b4 86190000 		.4byte	.LASF465
 13598 33b8 3D       		.byte	0x3d
 13599 33b9 7B01     		.2byte	0x17b
 13600 33bb 09350000 		.4byte	0x3509
 13601 33bf 00       		.byte	0
 13602 33c0 18       		.uleb128 0x18
 13603 33c1 EC200000 		.4byte	.LASF466
 13604 33c5 3D       		.byte	0x3d
 13605 33c6 7F01     		.2byte	0x17f
 13606 33c8 2C3E0000 		.4byte	0x3e2c
 13607 33cc 04       		.byte	0x4
 13608 33cd 18       		.uleb128 0x18
 13609 33ce 96280000 		.4byte	.LASF685
 13610 33d2 3D       		.byte	0x3d
 13611 33d3 8301     		.2byte	0x183
 13612 33d5 8E090000 		.4byte	0x98e
 13613 33d9 08       		.byte	0x8
 13614 33da 18       		.uleb128 0x18
 13615 33db 392C0000 		.4byte	.LASF686
 13616 33df 3D       		.byte	0x3d
 13617 33e0 8701     		.2byte	0x187
 13618 33e2 8E090000 		.4byte	0x98e
 13619 33e6 0A       		.byte	0xa
 13620 33e7 25       		.uleb128 0x25
 13621 33e8 65706300 		.ascii	"epc\000"
 13622 33ec 3D       		.byte	0x3d
 13623 33ed 8B01     		.2byte	0x18b
 13624 33ef 323E0000 		.4byte	0x3e32
 13625 33f3 0C       		.byte	0xc
 13626 33f4 18       		.uleb128 0x18
 13627 33f5 C8080000 		.4byte	.LASF687
 13628 33f9 3D       		.byte	0x3d
 13629 33fa 9201     		.2byte	0x192
 13630 33fc 483E0000 		.4byte	0x3e48
 13631 3400 1C       		.byte	0x1c
 13632 3401 18       		.uleb128 0x18
 13633 3402 710E0000 		.4byte	.LASF688
ARM GAS  C:\Users\Moi\AppData\Local\Temp\cchaECY7.s 			page 253


 13634 3406 3D       		.byte	0x3d
 13635 3407 9901     		.2byte	0x199
 13636 3409 483E0000 		.4byte	0x3e48
 13637 340d 28       		.byte	0x28
 13638 340e 18       		.uleb128 0x18
 13639 340f 3A120000 		.4byte	.LASF689
 13640 3413 3D       		.byte	0x3d
 13641 3414 9D01     		.2byte	0x19d
 13642 3416 4E350000 		.4byte	0x354e
 13643 341a 34       		.byte	0x34
 13644 341b 18       		.uleb128 0x18
 13645 341c 4D200000 		.4byte	.LASF690
 13646 3420 3D       		.byte	0x3d
 13647 3421 A101     		.2byte	0x1a1
 13648 3423 0D1C0000 		.4byte	0x1c0d
 13649 3427 38       		.byte	0x38
 13650 3428 18       		.uleb128 0x18
 13651 3429 601B0000 		.4byte	.LASF691
 13652 342d 3D       		.byte	0x3d
 13653 342e A501     		.2byte	0x1a5
 13654 3430 2C000000 		.4byte	0x2c
 13655 3434 3C       		.byte	0x3c
 13656 3435 18       		.uleb128 0x18
 13657 3436 FA240000 		.4byte	.LASF692
 13658 343a 3D       		.byte	0x3d
 13659 343b A901     		.2byte	0x1a9
 13660 343d CE350000 		.4byte	0x35ce
 13661 3441 40       		.byte	0x40
 13662 3442 18       		.uleb128 0x18
 13663 3443 92080000 		.4byte	.LASF693
 13664 3447 3D       		.byte	0x3d
 13665 3448 AD01     		.2byte	0x1ad
 13666 344a AC230000 		.4byte	0x23ac
 13667 344e 44       		.byte	0x44
 13668 344f 18       		.uleb128 0x18
 13669 3450 71180000 		.4byte	.LASF694
 13670 3454 3D       		.byte	0x3d
 13671 3455 B101     		.2byte	0x1b1
 13672 3457 8E090000 		.4byte	0x98e
 13673 345b 4C       		.byte	0x4c
 13674 345c 18       		.uleb128 0x18
 13675 345d EA180000 		.4byte	.LASF695
 13676 3461 3D       		.byte	0x3d
 13677 3462 B501     		.2byte	0x1b5
 13678 3464 73090000 		.4byte	0x973
 13679 3468 4E       		.byte	0x4e
 13680 3469 18       		.uleb128 0x18
 13681 346a 441F0000 		.4byte	.LASF696
 13682 346e 3D       		.byte	0x3d
 13683 346f B901     		.2byte	0x1b9
 13684 3471 73090000 		.4byte	0x973
 13685 3475 4F       		.byte	0x4f
 13686 3476 25       		.uleb128 0x25
 13687 3477 6F746700 		.ascii	"otg\000"
 13688 347b 3D       		.byte	0x3d
 13689 347c C101     		.2byte	0x1c1
 13690 347e 583E0000 		.4byte	0x3e58
ARM GAS  C:\Users\Moi\AppData\Local\Temp\cchaECY7.s 			page 254


 13691 3482 50       		.byte	0x50
 13692 3483 18       		.uleb128 0x18
 13693 3484 44100000 		.4byte	.LASF697
 13694 3488 3D       		.byte	0x3d
 13695 3489 C501     		.2byte	0x1c5
 13696 348b 5E3E0000 		.4byte	0x3e5e
 13697 348f 54       		.byte	0x54
 13698 3490 18       		.uleb128 0x18
 13699 3491 5D1D0000 		.4byte	.LASF698
 13700 3495 3D       		.byte	0x3d
 13701 3496 C901     		.2byte	0x1c9
 13702 3498 A9090000 		.4byte	0x9a9
 13703 349c 58       		.byte	0x58
 13704 349d 18       		.uleb128 0x18
 13705 349e 330F0000 		.4byte	.LASF699
 13706 34a2 3D       		.byte	0x3d
 13707 34a3 CD01     		.2byte	0x1cd
 13708 34a5 A9090000 		.4byte	0x9a9
 13709 34a9 5C       		.byte	0x5c
 13710 34aa 18       		.uleb128 0x18
 13711 34ab B4090000 		.4byte	.LASF700
 13712 34af 3D       		.byte	0x3d
 13713 34b0 D101     		.2byte	0x1d1
 13714 34b2 860B0000 		.4byte	0xb86
 13715 34b6 60       		.byte	0x60
 13716 34b7 25       		.uleb128 0x25
 13717 34b8 747200   		.ascii	"tr\000"
 13718 34bb 3D       		.byte	0x3d
 13719 34bc D601     		.2byte	0x1d6
 13720 34be 860B0000 		.4byte	0xb86
 13721 34c2 64       		.byte	0x64
 13722 34c3 18       		.uleb128 0x18
 13723 34c4 29170000 		.4byte	.LASF701
 13724 34c8 3D       		.byte	0x3d
 13725 34c9 DA01     		.2byte	0x1da
 13726 34cb 643E0000 		.4byte	0x3e64
 13727 34cf 68       		.byte	0x68
 13728 34d0 00       		.byte	0
 13729 34d1 03       		.uleb128 0x3
 13730 34d2 B70B0000 		.4byte	.LASF702
 13731 34d6 3C       		.byte	0x3c
 13732 34d7 FF       		.byte	0xff
 13733 34d8 73090000 		.4byte	0x973
 13734 34dc 2D       		.uleb128 0x2d
 13735 34dd 07       		.byte	0x7
 13736 34de 01       		.byte	0x1
 13737 34df 69000000 		.4byte	0x69
 13738 34e3 3C       		.byte	0x3c
 13739 34e4 0401     		.2byte	0x104
 13740 34e6 09350000 		.4byte	0x3509
 13741 34ea 23       		.uleb128 0x23
 13742 34eb 582D0000 		.4byte	.LASF703
 13743 34ef 00       		.byte	0
 13744 34f0 23       		.uleb128 0x23
 13745 34f1 00000000 		.4byte	.LASF704
 13746 34f5 01       		.byte	0x1
 13747 34f6 23       		.uleb128 0x23
ARM GAS  C:\Users\Moi\AppData\Local\Temp\cchaECY7.s 			page 255


 13748 34f7 37160000 		.4byte	.LASF705
 13749 34fb 02       		.byte	0x2
 13750 34fc 23       		.uleb128 0x23
 13751 34fd 341D0000 		.4byte	.LASF706
 13752 3501 03       		.byte	0x3
 13753 3502 23       		.uleb128 0x23
 13754 3503 CC090000 		.4byte	.LASF707
 13755 3507 04       		.byte	0x4
 13756 3508 00       		.byte	0
 13757 3509 07       		.uleb128 0x7
 13758 350a AC2E0000 		.4byte	.LASF708
 13759 350e 3C       		.byte	0x3c
 13760 350f 0A01     		.2byte	0x10a
 13761 3511 DC340000 		.4byte	0x34dc
 13762 3515 2D       		.uleb128 0x2d
 13763 3516 07       		.byte	0x7
 13764 3517 01       		.byte	0x1
 13765 3518 69000000 		.4byte	0x69
 13766 351c 3C       		.byte	0x3c
 13767 351d 1801     		.2byte	0x118
 13768 351f 4E350000 		.4byte	0x354e
 13769 3523 23       		.uleb128 0x23
 13770 3524 A1240000 		.4byte	.LASF709
 13771 3528 00       		.byte	0
 13772 3529 23       		.uleb128 0x23
 13773 352a 2F120000 		.4byte	.LASF710
 13774 352e 01       		.byte	0x1
 13775 352f 23       		.uleb128 0x23
 13776 3530 39200000 		.4byte	.LASF711
 13777 3534 02       		.byte	0x2
 13778 3535 23       		.uleb128 0x23
 13779 3536 B9190000 		.4byte	.LASF712
 13780 353a 03       		.byte	0x3
 13781 353b 23       		.uleb128 0x23
 13782 353c 43180000 		.4byte	.LASF713
 13783 3540 04       		.byte	0x4
 13784 3541 23       		.uleb128 0x23
 13785 3542 93130000 		.4byte	.LASF714
 13786 3546 05       		.byte	0x5
 13787 3547 23       		.uleb128 0x23
 13788 3548 6C110000 		.4byte	.LASF715
 13789 354c 06       		.byte	0x6
 13790 354d 00       		.byte	0
 13791 354e 07       		.uleb128 0x7
 13792 354f F0130000 		.4byte	.LASF716
 13793 3553 3C       		.byte	0x3c
 13794 3554 2001     		.2byte	0x120
 13795 3556 15350000 		.4byte	0x3515
 13796 355a 2D       		.uleb128 0x2d
 13797 355b 07       		.byte	0x7
 13798 355c 01       		.byte	0x1
 13799 355d 69000000 		.4byte	0x69
 13800 3561 3C       		.byte	0x3c
 13801 3562 2501     		.2byte	0x125
 13802 3564 8D350000 		.4byte	0x358d
 13803 3568 23       		.uleb128 0x23
 13804 3569 D4230000 		.4byte	.LASF717
ARM GAS  C:\Users\Moi\AppData\Local\Temp\cchaECY7.s 			page 256


 13805 356d 00       		.byte	0
 13806 356e 23       		.uleb128 0x23
 13807 356f C41D0000 		.4byte	.LASF718
 13808 3573 01       		.byte	0x1
 13809 3574 23       		.uleb128 0x23
 13810 3575 D5160000 		.4byte	.LASF719
 13811 3579 02       		.byte	0x2
 13812 357a 23       		.uleb128 0x23
 13813 357b 75170000 		.4byte	.LASF720
 13814 357f 03       		.byte	0x3
 13815 3580 23       		.uleb128 0x23
 13816 3581 382B0000 		.4byte	.LASF721
 13817 3585 04       		.byte	0x4
 13818 3586 23       		.uleb128 0x23
 13819 3587 A0160000 		.4byte	.LASF722
 13820 358b 05       		.byte	0x5
 13821 358c 00       		.byte	0
 13822 358d 07       		.uleb128 0x7
 13823 358e FC1D0000 		.4byte	.LASF723
 13824 3592 3C       		.byte	0x3c
 13825 3593 2C01     		.2byte	0x12c
 13826 3595 5A350000 		.4byte	0x355a
 13827 3599 1C       		.uleb128 0x1c
 13828 359a 08       		.byte	0x8
 13829 359b 3C       		.byte	0x3c
 13830 359c 3101     		.2byte	0x131
 13831 359e BD350000 		.4byte	0x35bd
 13832 35a2 18       		.uleb128 0x18
 13833 35a3 0E2E0000 		.4byte	.LASF724
 13834 35a7 3C       		.byte	0x3c
 13835 35a8 3501     		.2byte	0x135
 13836 35aa 2C000000 		.4byte	0x2c
 13837 35ae 00       		.byte	0
 13838 35af 18       		.uleb128 0x18
 13839 35b0 B6050000 		.4byte	.LASF725
 13840 35b4 3C       		.byte	0x3c
 13841 35b5 3901     		.2byte	0x139
 13842 35b7 841C0000 		.4byte	0x1c84
 13843 35bb 04       		.byte	0x4
 13844 35bc 00       		.byte	0
 13845 35bd 07       		.uleb128 0x7
 13846 35be 8B180000 		.4byte	.LASF726
 13847 35c2 3C       		.byte	0x3c
 13848 35c3 3A01     		.2byte	0x13a
 13849 35c5 99350000 		.4byte	0x3599
 13850 35c9 0F       		.uleb128 0xf
 13851 35ca BD350000 		.4byte	0x35bd
 13852 35ce 07       		.uleb128 0x7
 13853 35cf 9A2D0000 		.4byte	.LASF727
 13854 35d3 3C       		.byte	0x3c
 13855 35d4 4201     		.2byte	0x142
 13856 35d6 DA350000 		.4byte	0x35da
 13857 35da 05       		.uleb128 0x5
 13858 35db 04       		.byte	0x4
 13859 35dc E0350000 		.4byte	0x35e0
 13860 35e0 1F       		.uleb128 0x1f
 13861 35e1 EB350000 		.4byte	0x35eb
ARM GAS  C:\Users\Moi\AppData\Local\Temp\cchaECY7.s 			page 257


 13862 35e5 16       		.uleb128 0x16
 13863 35e6 EB350000 		.4byte	0x35eb
 13864 35ea 00       		.byte	0
 13865 35eb 05       		.uleb128 0x5
 13866 35ec 04       		.byte	0x4
 13867 35ed 9A330000 		.4byte	0x339a
 13868 35f1 07       		.uleb128 0x7
 13869 35f2 1C060000 		.4byte	.LASF728
 13870 35f6 3C       		.byte	0x3c
 13871 35f7 4B01     		.2byte	0x14b
 13872 35f9 FD350000 		.4byte	0x35fd
 13873 35fd 05       		.uleb128 0x5
 13874 35fe 04       		.byte	0x4
 13875 35ff 03360000 		.4byte	0x3603
 13876 3603 1F       		.uleb128 0x1f
 13877 3604 13360000 		.4byte	0x3613
 13878 3608 16       		.uleb128 0x16
 13879 3609 EB350000 		.4byte	0x35eb
 13880 360d 16       		.uleb128 0x16
 13881 360e D1340000 		.4byte	0x34d1
 13882 3612 00       		.byte	0
 13883 3613 07       		.uleb128 0x7
 13884 3614 420D0000 		.4byte	.LASF729
 13885 3618 3C       		.byte	0x3c
 13886 3619 5401     		.2byte	0x154
 13887 361b 1F360000 		.4byte	0x361f
 13888 361f 05       		.uleb128 0x5
 13889 3620 04       		.byte	0x4
 13890 3621 25360000 		.4byte	0x3625
 13891 3625 1F       		.uleb128 0x1f
 13892 3626 35360000 		.4byte	0x3635
 13893 362a 16       		.uleb128 0x16
 13894 362b EB350000 		.4byte	0x35eb
 13895 362f 16       		.uleb128 0x16
 13896 3630 8D350000 		.4byte	0x358d
 13897 3634 00       		.byte	0
 13898 3635 07       		.uleb128 0x7
 13899 3636 B8070000 		.4byte	.LASF730
 13900 363a 3C       		.byte	0x3c
 13901 363b 6001     		.2byte	0x160
 13902 363d 41360000 		.4byte	0x3641
 13903 3641 05       		.uleb128 0x5
 13904 3642 04       		.byte	0x4
 13905 3643 47360000 		.4byte	0x3647
 13906 3647 15       		.uleb128 0x15
 13907 3648 911E0000 		.4byte	0x1e91
 13908 364c 56360000 		.4byte	0x3656
 13909 3650 16       		.uleb128 0x16
 13910 3651 EB350000 		.4byte	0x35eb
 13911 3655 00       		.byte	0
 13912 3656 07       		.uleb128 0x7
 13913 3657 F4110000 		.4byte	.LASF731
 13914 365b 3C       		.byte	0x3c
 13915 365c 6501     		.2byte	0x165
 13916 365e 62360000 		.4byte	0x3662
 13917 3662 05       		.uleb128 0x5
 13918 3663 04       		.byte	0x4
ARM GAS  C:\Users\Moi\AppData\Local\Temp\cchaECY7.s 			page 258


 13919 3664 68360000 		.4byte	0x3668
 13920 3668 15       		.uleb128 0x15
 13921 3669 86360000 		.4byte	0x3686
 13922 366d 86360000 		.4byte	0x3686
 13923 3671 16       		.uleb128 0x16
 13924 3672 EB350000 		.4byte	0x35eb
 13925 3676 16       		.uleb128 0x16
 13926 3677 73090000 		.4byte	0x973
 13927 367b 16       		.uleb128 0x16
 13928 367c 73090000 		.4byte	0x973
 13929 3680 16       		.uleb128 0x16
 13930 3681 8E090000 		.4byte	0x98e
 13931 3685 00       		.byte	0
 13932 3686 05       		.uleb128 0x5
 13933 3687 04       		.byte	0x4
 13934 3688 C9350000 		.4byte	0x35c9
 13935 368c 0C       		.uleb128 0xc
 13936 368d 20       		.byte	0x20
 13937 368e 3E       		.byte	0x3e
 13938 368f 35       		.byte	0x35
 13939 3690 F5360000 		.4byte	0x36f5
 13940 3694 0D       		.uleb128 0xd
 13941 3695 42040000 		.4byte	.LASF732
 13942 3699 3E       		.byte	0x3e
 13943 369a 36       		.byte	0x36
 13944 369b B4090000 		.4byte	0x9b4
 13945 369f 00       		.byte	0
 13946 36a0 0D       		.uleb128 0xd
 13947 36a1 830F0000 		.4byte	.LASF733
 13948 36a5 3E       		.byte	0x3e
 13949 36a6 38       		.byte	0x38
 13950 36a7 B4090000 		.4byte	0x9b4
 13951 36ab 04       		.byte	0x4
 13952 36ac 0D       		.uleb128 0xd
 13953 36ad 88030000 		.4byte	.LASF734
 13954 36b1 3E       		.byte	0x3e
 13955 36b2 39       		.byte	0x39
 13956 36b3 B4090000 		.4byte	0x9b4
 13957 36b7 08       		.byte	0x8
 13958 36b8 0D       		.uleb128 0xd
 13959 36b9 DD200000 		.4byte	.LASF735
 13960 36bd 3E       		.byte	0x3e
 13961 36be 3A       		.byte	0x3a
 13962 36bf B4090000 		.4byte	0x9b4
 13963 36c3 0C       		.byte	0xc
 13964 36c4 0D       		.uleb128 0xd
 13965 36c5 CE160000 		.4byte	.LASF736
 13966 36c9 3E       		.byte	0x3e
 13967 36ca 3C       		.byte	0x3c
 13968 36cb B4090000 		.4byte	0x9b4
 13969 36cf 10       		.byte	0x10
 13970 36d0 0D       		.uleb128 0xd
 13971 36d1 C80F0000 		.4byte	.LASF737
 13972 36d5 3E       		.byte	0x3e
 13973 36d6 3E       		.byte	0x3e
 13974 36d7 B4090000 		.4byte	0x9b4
 13975 36db 14       		.byte	0x14
ARM GAS  C:\Users\Moi\AppData\Local\Temp\cchaECY7.s 			page 259


 13976 36dc 0D       		.uleb128 0xd
 13977 36dd DB0F0000 		.4byte	.LASF738
 13978 36e1 3E       		.byte	0x3e
 13979 36e2 3F       		.byte	0x3f
 13980 36e3 B4090000 		.4byte	0x9b4
 13981 36e7 18       		.byte	0x18
 13982 36e8 0D       		.uleb128 0xd
 13983 36e9 E9040000 		.4byte	.LASF739
 13984 36ed 3E       		.byte	0x3e
 13985 36ee 40       		.byte	0x40
 13986 36ef B4090000 		.4byte	0x9b4
 13987 36f3 1C       		.byte	0x1c
 13988 36f4 00       		.byte	0
 13989 36f5 03       		.uleb128 0x3
 13990 36f6 55200000 		.4byte	.LASF740
 13991 36fa 3E       		.byte	0x3e
 13992 36fb 41       		.byte	0x41
 13993 36fc 8C360000 		.4byte	0x368c
 13994 3700 0C       		.uleb128 0xc
 13995 3701 20       		.byte	0x20
 13996 3702 3E       		.byte	0x3e
 13997 3703 46       		.byte	0x46
 13998 3704 69370000 		.4byte	0x3769
 13999 3708 0D       		.uleb128 0xd
 14000 3709 32100000 		.4byte	.LASF741
 14001 370d 3E       		.byte	0x3e
 14002 370e 47       		.byte	0x47
 14003 370f B4090000 		.4byte	0x9b4
 14004 3713 00       		.byte	0
 14005 3714 0D       		.uleb128 0xd
 14006 3715 58140000 		.4byte	.LASF742
 14007 3719 3E       		.byte	0x3e
 14008 371a 49       		.byte	0x49
 14009 371b B4090000 		.4byte	0x9b4
 14010 371f 04       		.byte	0x4
 14011 3720 0D       		.uleb128 0xd
 14012 3721 66270000 		.4byte	.LASF743
 14013 3725 3E       		.byte	0x3e
 14014 3726 4A       		.byte	0x4a
 14015 3727 B4090000 		.4byte	0x9b4
 14016 372b 08       		.byte	0x8
 14017 372c 0D       		.uleb128 0xd
 14018 372d 88140000 		.4byte	.LASF744
 14019 3731 3E       		.byte	0x3e
 14020 3732 4C       		.byte	0x4c
 14021 3733 B4090000 		.4byte	0x9b4
 14022 3737 0C       		.byte	0xc
 14023 3738 0D       		.uleb128 0xd
 14024 3739 AB1A0000 		.4byte	.LASF745
 14025 373d 3E       		.byte	0x3e
 14026 373e 4D       		.byte	0x4d
 14027 373f B4090000 		.4byte	0x9b4
 14028 3743 10       		.byte	0x10
 14029 3744 0D       		.uleb128 0xd
 14030 3745 C80F0000 		.4byte	.LASF737
 14031 3749 3E       		.byte	0x3e
 14032 374a 4F       		.byte	0x4f
ARM GAS  C:\Users\Moi\AppData\Local\Temp\cchaECY7.s 			page 260


 14033 374b B4090000 		.4byte	0x9b4
 14034 374f 14       		.byte	0x14
 14035 3750 0D       		.uleb128 0xd
 14036 3751 A3080000 		.4byte	.LASF746
 14037 3755 3E       		.byte	0x3e
 14038 3756 50       		.byte	0x50
 14039 3757 B4090000 		.4byte	0x9b4
 14040 375b 18       		.byte	0x18
 14041 375c 0D       		.uleb128 0xd
 14042 375d 4F270000 		.4byte	.LASF747
 14043 3761 3E       		.byte	0x3e
 14044 3762 52       		.byte	0x52
 14045 3763 B4090000 		.4byte	0x9b4
 14046 3767 1C       		.byte	0x1c
 14047 3768 00       		.byte	0
 14048 3769 03       		.uleb128 0x3
 14049 376a E0090000 		.4byte	.LASF748
 14050 376e 3E       		.byte	0x3e
 14051 376f 53       		.byte	0x53
 14052 3770 00370000 		.4byte	0x3700
 14053 3774 0C       		.uleb128 0xc
 14054 3775 20       		.byte	0x20
 14055 3776 3E       		.byte	0x3e
 14056 3777 58       		.byte	0x58
 14057 3778 DD370000 		.4byte	0x37dd
 14058 377c 0D       		.uleb128 0xd
 14059 377d A4170000 		.4byte	.LASF749
 14060 3781 3E       		.byte	0x3e
 14061 3782 59       		.byte	0x59
 14062 3783 B4090000 		.4byte	0x9b4
 14063 3787 00       		.byte	0
 14064 3788 0D       		.uleb128 0xd
 14065 3789 58140000 		.4byte	.LASF742
 14066 378d 3E       		.byte	0x3e
 14067 378e 5B       		.byte	0x5b
 14068 378f B4090000 		.4byte	0x9b4
 14069 3793 04       		.byte	0x4
 14070 3794 0D       		.uleb128 0xd
 14071 3795 651C0000 		.4byte	.LASF750
 14072 3799 3E       		.byte	0x3e
 14073 379a 5C       		.byte	0x5c
 14074 379b B4090000 		.4byte	0x9b4
 14075 379f 08       		.byte	0x8
 14076 37a0 0D       		.uleb128 0xd
 14077 37a1 88140000 		.4byte	.LASF744
 14078 37a5 3E       		.byte	0x3e
 14079 37a6 5E       		.byte	0x5e
 14080 37a7 B4090000 		.4byte	0x9b4
 14081 37ab 0C       		.byte	0xc
 14082 37ac 0D       		.uleb128 0xd
 14083 37ad 04290000 		.4byte	.LASF751
 14084 37b1 3E       		.byte	0x3e
 14085 37b2 5F       		.byte	0x5f
 14086 37b3 B4090000 		.4byte	0x9b4
 14087 37b7 10       		.byte	0x10
 14088 37b8 0D       		.uleb128 0xd
 14089 37b9 C80F0000 		.4byte	.LASF737
ARM GAS  C:\Users\Moi\AppData\Local\Temp\cchaECY7.s 			page 261


 14090 37bd 3E       		.byte	0x3e
 14091 37be 61       		.byte	0x61
 14092 37bf B4090000 		.4byte	0x9b4
 14093 37c3 14       		.byte	0x14
 14094 37c4 0D       		.uleb128 0xd
 14095 37c5 DB0F0000 		.4byte	.LASF738
 14096 37c9 3E       		.byte	0x3e
 14097 37ca 62       		.byte	0x62
 14098 37cb B4090000 		.4byte	0x9b4
 14099 37cf 18       		.byte	0x18
 14100 37d0 0D       		.uleb128 0xd
 14101 37d1 4F270000 		.4byte	.LASF747
 14102 37d5 3E       		.byte	0x3e
 14103 37d6 63       		.byte	0x63
 14104 37d7 B4090000 		.4byte	0x9b4
 14105 37db 1C       		.byte	0x1c
 14106 37dc 00       		.byte	0
 14107 37dd 03       		.uleb128 0x3
 14108 37de 73090000 		.4byte	.LASF752
 14109 37e2 3E       		.byte	0x3e
 14110 37e3 64       		.byte	0x64
 14111 37e4 74370000 		.4byte	0x3774
 14112 37e8 2F       		.uleb128 0x2f
 14113 37e9 00100100 		.4byte	0x11000
 14114 37ed 3E       		.byte	0x3e
 14115 37ee 69       		.byte	0x69
 14116 37ef C53A0000 		.4byte	0x3ac5
 14117 37f3 0D       		.uleb128 0xd
 14118 37f4 0B060000 		.4byte	.LASF753
 14119 37f8 3E       		.byte	0x3e
 14120 37f9 6A       		.byte	0x6a
 14121 37fa B4090000 		.4byte	0x9b4
 14122 37fe 00       		.byte	0
 14123 37ff 0D       		.uleb128 0xd
 14124 3800 4D0E0000 		.4byte	.LASF754
 14125 3804 3E       		.byte	0x3e
 14126 3805 6B       		.byte	0x6b
 14127 3806 B4090000 		.4byte	0x9b4
 14128 380a 04       		.byte	0x4
 14129 380b 0D       		.uleb128 0xd
 14130 380c F2080000 		.4byte	.LASF755
 14131 3810 3E       		.byte	0x3e
 14132 3811 6C       		.byte	0x6c
 14133 3812 B4090000 		.4byte	0x9b4
 14134 3816 08       		.byte	0x8
 14135 3817 0D       		.uleb128 0xd
 14136 3818 AE2D0000 		.4byte	.LASF756
 14137 381c 3E       		.byte	0x3e
 14138 381d 6D       		.byte	0x6d
 14139 381e B4090000 		.4byte	0x9b4
 14140 3822 0C       		.byte	0xc
 14141 3823 0D       		.uleb128 0xd
 14142 3824 47160000 		.4byte	.LASF757
 14143 3828 3E       		.byte	0x3e
 14144 3829 6E       		.byte	0x6e
 14145 382a B4090000 		.4byte	0x9b4
 14146 382e 10       		.byte	0x10
ARM GAS  C:\Users\Moi\AppData\Local\Temp\cchaECY7.s 			page 262


 14147 382f 0D       		.uleb128 0xd
 14148 3830 9F040000 		.4byte	.LASF758
 14149 3834 3E       		.byte	0x3e
 14150 3835 6F       		.byte	0x6f
 14151 3836 B4090000 		.4byte	0x9b4
 14152 383a 14       		.byte	0x14
 14153 383b 0D       		.uleb128 0xd
 14154 383c 271F0000 		.4byte	.LASF759
 14155 3840 3E       		.byte	0x3e
 14156 3841 70       		.byte	0x70
 14157 3842 B4090000 		.4byte	0x9b4
 14158 3846 18       		.byte	0x18
 14159 3847 0D       		.uleb128 0xd
 14160 3848 8E090000 		.4byte	.LASF760
 14161 384c 3E       		.byte	0x3e
 14162 384d 71       		.byte	0x71
 14163 384e B4090000 		.4byte	0x9b4
 14164 3852 1C       		.byte	0x1c
 14165 3853 0D       		.uleb128 0xd
 14166 3854 86090000 		.4byte	.LASF761
 14167 3858 3E       		.byte	0x3e
 14168 3859 73       		.byte	0x73
 14169 385a B4090000 		.4byte	0x9b4
 14170 385e 20       		.byte	0x20
 14171 385f 0D       		.uleb128 0xd
 14172 3860 8F1E0000 		.4byte	.LASF762
 14173 3864 3E       		.byte	0x3e
 14174 3865 75       		.byte	0x75
 14175 3866 B4090000 		.4byte	0x9b4
 14176 386a 24       		.byte	0x24
 14177 386b 0D       		.uleb128 0xd
 14178 386c 05010000 		.4byte	.LASF763
 14179 3870 3E       		.byte	0x3e
 14180 3871 76       		.byte	0x76
 14181 3872 B4090000 		.4byte	0x9b4
 14182 3876 28       		.byte	0x28
 14183 3877 0D       		.uleb128 0xd
 14184 3878 3B1F0000 		.4byte	.LASF764
 14185 387c 3E       		.byte	0x3e
 14186 387d 78       		.byte	0x78
 14187 387e B4090000 		.4byte	0x9b4
 14188 3882 2C       		.byte	0x2c
 14189 3883 0D       		.uleb128 0xd
 14190 3884 20110000 		.4byte	.LASF765
 14191 3888 3E       		.byte	0x3e
 14192 3889 7A       		.byte	0x7a
 14193 388a B4090000 		.4byte	0x9b4
 14194 388e 30       		.byte	0x30
 14195 388f 0D       		.uleb128 0xd
 14196 3890 952B0000 		.4byte	.LASF766
 14197 3894 3E       		.byte	0x3e
 14198 3895 7B       		.byte	0x7b
 14199 3896 B4090000 		.4byte	0x9b4
 14200 389a 34       		.byte	0x34
 14201 389b 0D       		.uleb128 0xd
 14202 389c 7B020000 		.4byte	.LASF767
 14203 38a0 3E       		.byte	0x3e
ARM GAS  C:\Users\Moi\AppData\Local\Temp\cchaECY7.s 			page 263


 14204 38a1 7C       		.byte	0x7c
 14205 38a2 B4090000 		.4byte	0x9b4
 14206 38a6 38       		.byte	0x38
 14207 38a7 11       		.uleb128 0x11
 14208 38a8 43494400 		.ascii	"CID\000"
 14209 38ac 3E       		.byte	0x3e
 14210 38ad 7D       		.byte	0x7d
 14211 38ae B4090000 		.4byte	0x9b4
 14212 38b2 3C       		.byte	0x3c
 14213 38b3 0D       		.uleb128 0xd
 14214 38b4 D6120000 		.4byte	.LASF768
 14215 38b8 3E       		.byte	0x3e
 14216 38b9 7E       		.byte	0x7e
 14217 38ba D53A0000 		.4byte	0x3ad5
 14218 38be 40       		.byte	0x40
 14219 38bf 13       		.uleb128 0x13
 14220 38c0 282A0000 		.4byte	.LASF769
 14221 38c4 3E       		.byte	0x3e
 14222 38c5 7F       		.byte	0x7f
 14223 38c6 B4090000 		.4byte	0x9b4
 14224 38ca 0001     		.2byte	0x100
 14225 38cc 13       		.uleb128 0x13
 14226 38cd DE020000 		.4byte	.LASF770
 14227 38d1 3E       		.byte	0x3e
 14228 38d2 81       		.byte	0x81
 14229 38d3 20160000 		.4byte	0x1620
 14230 38d7 0401     		.2byte	0x104
 14231 38d9 13       		.uleb128 0x13
 14232 38da 48170000 		.4byte	.LASF771
 14233 38de 3E       		.byte	0x3e
 14234 38df 83       		.byte	0x83
 14235 38e0 EA3A0000 		.4byte	0x3aea
 14236 38e4 4001     		.2byte	0x140
 14237 38e6 13       		.uleb128 0x13
 14238 38e7 041C0000 		.4byte	.LASF772
 14239 38eb 3E       		.byte	0x3e
 14240 38ec 84       		.byte	0x84
 14241 38ed B4090000 		.4byte	0x9b4
 14242 38f1 0004     		.2byte	0x400
 14243 38f3 13       		.uleb128 0x13
 14244 38f4 482D0000 		.4byte	.LASF773
 14245 38f8 3E       		.byte	0x3e
 14246 38f9 85       		.byte	0x85
 14247 38fa B4090000 		.4byte	0x9b4
 14248 38fe 0404     		.2byte	0x404
 14249 3900 13       		.uleb128 0x13
 14250 3901 3F050000 		.4byte	.LASF774
 14251 3905 3E       		.byte	0x3e
 14252 3906 86       		.byte	0x86
 14253 3907 B4090000 		.4byte	0x9b4
 14254 390b 0804     		.2byte	0x408
 14255 390d 13       		.uleb128 0x13
 14256 390e 7B290000 		.4byte	.LASF775
 14257 3912 3E       		.byte	0x3e
 14258 3913 88       		.byte	0x88
 14259 3914 B4090000 		.4byte	0x9b4
 14260 3918 0C04     		.2byte	0x40c
ARM GAS  C:\Users\Moi\AppData\Local\Temp\cchaECY7.s 			page 264


 14261 391a 13       		.uleb128 0x13
 14262 391b FD030000 		.4byte	.LASF776
 14263 391f 3E       		.byte	0x3e
 14264 3920 89       		.byte	0x89
 14265 3921 B4090000 		.4byte	0x9b4
 14266 3925 1004     		.2byte	0x410
 14267 3927 13       		.uleb128 0x13
 14268 3928 02050000 		.4byte	.LASF777
 14269 392c 3E       		.byte	0x3e
 14270 392d 8B       		.byte	0x8b
 14271 392e B4090000 		.4byte	0x9b4
 14272 3932 1404     		.2byte	0x414
 14273 3934 13       		.uleb128 0x13
 14274 3935 680E0000 		.4byte	.LASF778
 14275 3939 3E       		.byte	0x3e
 14276 393a 8D       		.byte	0x8d
 14277 393b B4090000 		.4byte	0x9b4
 14278 393f 1804     		.2byte	0x418
 14279 3941 13       		.uleb128 0x13
 14280 3942 4E220000 		.4byte	.LASF779
 14281 3946 3E       		.byte	0x3e
 14282 3947 8F       		.byte	0x8f
 14283 3948 FF3A0000 		.4byte	0x3aff
 14284 394c 1C04     		.2byte	0x41c
 14285 394e 13       		.uleb128 0x13
 14286 394f 74030000 		.4byte	.LASF780
 14287 3953 3E       		.byte	0x3e
 14288 3954 90       		.byte	0x90
 14289 3955 B4090000 		.4byte	0x9b4
 14290 3959 4004     		.2byte	0x440
 14291 395b 13       		.uleb128 0x13
 14292 395c 04260000 		.4byte	.LASF781
 14293 3960 3E       		.byte	0x3e
 14294 3961 92       		.byte	0x92
 14295 3962 143B0000 		.4byte	0x3b14
 14296 3966 4404     		.2byte	0x444
 14297 3968 30       		.uleb128 0x30
 14298 3969 686300   		.ascii	"hc\000"
 14299 396c 3E       		.byte	0x3e
 14300 396d 93       		.byte	0x93
 14301 396e 193B0000 		.4byte	0x3b19
 14302 3972 0005     		.2byte	0x500
 14303 3974 13       		.uleb128 0x13
 14304 3975 C4290000 		.4byte	.LASF782
 14305 3979 3E       		.byte	0x3e
 14306 397a 94       		.byte	0x94
 14307 397b 393B0000 		.4byte	0x3b39
 14308 397f 0007     		.2byte	0x700
 14309 3981 13       		.uleb128 0x13
 14310 3982 F51E0000 		.4byte	.LASF783
 14311 3986 3E       		.byte	0x3e
 14312 3987 95       		.byte	0x95
 14313 3988 B4090000 		.4byte	0x9b4
 14314 398c 0008     		.2byte	0x800
 14315 398e 13       		.uleb128 0x13
 14316 398f 102B0000 		.4byte	.LASF784
 14317 3993 3E       		.byte	0x3e
ARM GAS  C:\Users\Moi\AppData\Local\Temp\cchaECY7.s 			page 265


 14318 3994 96       		.byte	0x96
 14319 3995 B4090000 		.4byte	0x9b4
 14320 3999 0408     		.2byte	0x804
 14321 399b 13       		.uleb128 0x13
 14322 399c DB060000 		.4byte	.LASF785
 14323 39a0 3E       		.byte	0x3e
 14324 39a1 97       		.byte	0x97
 14325 39a2 B4090000 		.4byte	0x9b4
 14326 39a6 0808     		.2byte	0x808
 14327 39a8 13       		.uleb128 0x13
 14328 39a9 F9050000 		.4byte	.LASF786
 14329 39ad 3E       		.byte	0x3e
 14330 39ae 98       		.byte	0x98
 14331 39af B4090000 		.4byte	0x9b4
 14332 39b3 0C08     		.2byte	0x80c
 14333 39b5 13       		.uleb128 0x13
 14334 39b6 450E0000 		.4byte	.LASF787
 14335 39ba 3E       		.byte	0x3e
 14336 39bb 99       		.byte	0x99
 14337 39bc B4090000 		.4byte	0x9b4
 14338 39c0 1008     		.2byte	0x810
 14339 39c2 13       		.uleb128 0x13
 14340 39c3 9B270000 		.4byte	.LASF788
 14341 39c7 3E       		.byte	0x3e
 14342 39c8 9B       		.byte	0x9b
 14343 39c9 B4090000 		.4byte	0x9b4
 14344 39cd 1408     		.2byte	0x814
 14345 39cf 13       		.uleb128 0x13
 14346 39d0 47280000 		.4byte	.LASF789
 14347 39d4 3E       		.byte	0x3e
 14348 39d5 9D       		.byte	0x9d
 14349 39d6 B4090000 		.4byte	0x9b4
 14350 39da 1808     		.2byte	0x818
 14351 39dc 13       		.uleb128 0x13
 14352 39dd 50240000 		.4byte	.LASF790
 14353 39e1 3E       		.byte	0x3e
 14354 39e2 9F       		.byte	0x9f
 14355 39e3 B4090000 		.4byte	0x9b4
 14356 39e7 1C08     		.2byte	0x81c
 14357 39e9 13       		.uleb128 0x13
 14358 39ea 42070000 		.4byte	.LASF791
 14359 39ee 3E       		.byte	0x3e
 14360 39ef A1       		.byte	0xa1
 14361 39f0 B4090000 		.4byte	0x9b4
 14362 39f4 2008     		.2byte	0x820
 14363 39f6 13       		.uleb128 0x13
 14364 39f7 52060000 		.4byte	.LASF792
 14365 39fb 3E       		.byte	0x3e
 14366 39fc A2       		.byte	0xa2
 14367 39fd B4090000 		.4byte	0x9b4
 14368 3a01 2408     		.2byte	0x824
 14369 3a03 13       		.uleb128 0x13
 14370 3a04 101F0000 		.4byte	.LASF793
 14371 3a08 3E       		.byte	0x3e
 14372 3a09 A3       		.byte	0xa3
 14373 3a0a B4090000 		.4byte	0x9b4
 14374 3a0e 2808     		.2byte	0x828
ARM GAS  C:\Users\Moi\AppData\Local\Temp\cchaECY7.s 			page 266


 14375 3a10 13       		.uleb128 0x13
 14376 3a11 3E110000 		.4byte	.LASF794
 14377 3a15 3E       		.byte	0x3e
 14378 3a16 A5       		.byte	0xa5
 14379 3a17 B4090000 		.4byte	0x9b4
 14380 3a1b 2C08     		.2byte	0x82c
 14381 3a1d 13       		.uleb128 0x13
 14382 3a1e 32080000 		.4byte	.LASF795
 14383 3a22 3E       		.byte	0x3e
 14384 3a23 A7       		.byte	0xa7
 14385 3a24 B4090000 		.4byte	0x9b4
 14386 3a28 3008     		.2byte	0x830
 14387 3a2a 13       		.uleb128 0x13
 14388 3a2b 18100000 		.4byte	.LASF796
 14389 3a2f 3E       		.byte	0x3e
 14390 3a30 A8       		.byte	0xa8
 14391 3a31 B4090000 		.4byte	0x9b4
 14392 3a35 3408     		.2byte	0x834
 14393 3a37 13       		.uleb128 0x13
 14394 3a38 40080000 		.4byte	.LASF797
 14395 3a3c 3E       		.byte	0x3e
 14396 3a3d AA       		.byte	0xaa
 14397 3a3e B4090000 		.4byte	0x9b4
 14398 3a42 3808     		.2byte	0x838
 14399 3a44 13       		.uleb128 0x13
 14400 3a45 79080000 		.4byte	.LASF798
 14401 3a49 3E       		.byte	0x3e
 14402 3a4a AB       		.byte	0xab
 14403 3a4b B4090000 		.4byte	0x9b4
 14404 3a4f 3C08     		.2byte	0x83c
 14405 3a51 13       		.uleb128 0x13
 14406 3a52 1A090000 		.4byte	.LASF799
 14407 3a56 3E       		.byte	0x3e
 14408 3a57 AC       		.byte	0xac
 14409 3a58 4E3B0000 		.4byte	0x3b4e
 14410 3a5c 4008     		.2byte	0x840
 14411 3a5e 13       		.uleb128 0x13
 14412 3a5f A00F0000 		.4byte	.LASF800
 14413 3a63 3E       		.byte	0x3e
 14414 3a64 AD       		.byte	0xad
 14415 3a65 4E3B0000 		.4byte	0x3b4e
 14416 3a69 8008     		.2byte	0x880
 14417 3a6b 13       		.uleb128 0x13
 14418 3a6c 75140000 		.4byte	.LASF801
 14419 3a70 3E       		.byte	0x3e
 14420 3a71 AE       		.byte	0xae
 14421 3a72 4E3B0000 		.4byte	0x3b4e
 14422 3a76 C008     		.2byte	0x8c0
 14423 3a78 30       		.uleb128 0x30
 14424 3a79 696500   		.ascii	"ie\000"
 14425 3a7c 3E       		.byte	0x3e
 14426 3a7d AF       		.byte	0xaf
 14427 3a7e 533B0000 		.4byte	0x3b53
 14428 3a82 0009     		.2byte	0x900
 14429 3a84 30       		.uleb128 0x30
 14430 3a85 6F6500   		.ascii	"oe\000"
 14431 3a88 3E       		.byte	0x3e
ARM GAS  C:\Users\Moi\AppData\Local\Temp\cchaECY7.s 			page 267


 14432 3a89 B0       		.byte	0xb0
 14433 3a8a 633B0000 		.4byte	0x3b63
 14434 3a8e 000B     		.2byte	0xb00
 14435 3a90 13       		.uleb128 0x13
 14436 3a91 A60D0000 		.4byte	.LASF802
 14437 3a95 3E       		.byte	0x3e
 14438 3a96 B1       		.byte	0xb1
 14439 3a97 393B0000 		.4byte	0x3b39
 14440 3a9b 000D     		.2byte	0xd00
 14441 3a9d 13       		.uleb128 0x13
 14442 3a9e 302B0000 		.4byte	.LASF803
 14443 3aa2 3E       		.byte	0x3e
 14444 3aa3 B2       		.byte	0xb2
 14445 3aa4 B4090000 		.4byte	0x9b4
 14446 3aa8 000E     		.2byte	0xe00
 14447 3aaa 13       		.uleb128 0x13
 14448 3aab 651B0000 		.4byte	.LASF804
 14449 3aaf 3E       		.byte	0x3e
 14450 3ab0 B4       		.byte	0xb4
 14451 3ab1 833B0000 		.4byte	0x3b83
 14452 3ab5 040E     		.2byte	0xe04
 14453 3ab7 13       		.uleb128 0x13
 14454 3ab8 510B0000 		.4byte	.LASF304
 14455 3abc 3E       		.byte	0x3e
 14456 3abd B5       		.byte	0xb5
 14457 3abe 9F3B0000 		.4byte	0x3b9f
 14458 3ac2 0010     		.2byte	0x1000
 14459 3ac4 00       		.byte	0
 14460 3ac5 0A       		.uleb128 0xa
 14461 3ac6 B4090000 		.4byte	0x9b4
 14462 3aca D53A0000 		.4byte	0x3ad5
 14463 3ace 0B       		.uleb128 0xb
 14464 3acf 37000000 		.4byte	0x37
 14465 3ad3 2F       		.byte	0x2f
 14466 3ad4 00       		.byte	0
 14467 3ad5 1A       		.uleb128 0x1a
 14468 3ad6 C53A0000 		.4byte	0x3ac5
 14469 3ada 0A       		.uleb128 0xa
 14470 3adb B4090000 		.4byte	0x9b4
 14471 3adf EA3A0000 		.4byte	0x3aea
 14472 3ae3 0B       		.uleb128 0xb
 14473 3ae4 37000000 		.4byte	0x37
 14474 3ae8 AF       		.byte	0xaf
 14475 3ae9 00       		.byte	0
 14476 3aea 1A       		.uleb128 0x1a
 14477 3aeb DA3A0000 		.4byte	0x3ada
 14478 3aef 0A       		.uleb128 0xa
 14479 3af0 B4090000 		.4byte	0x9b4
 14480 3af4 FF3A0000 		.4byte	0x3aff
 14481 3af8 0B       		.uleb128 0xb
 14482 3af9 37000000 		.4byte	0x37
 14483 3afd 08       		.byte	0x8
 14484 3afe 00       		.byte	0
 14485 3aff 1A       		.uleb128 0x1a
 14486 3b00 EF3A0000 		.4byte	0x3aef
 14487 3b04 0A       		.uleb128 0xa
 14488 3b05 B4090000 		.4byte	0x9b4
ARM GAS  C:\Users\Moi\AppData\Local\Temp\cchaECY7.s 			page 268


 14489 3b09 143B0000 		.4byte	0x3b14
 14490 3b0d 0B       		.uleb128 0xb
 14491 3b0e 37000000 		.4byte	0x37
 14492 3b12 2E       		.byte	0x2e
 14493 3b13 00       		.byte	0
 14494 3b14 1A       		.uleb128 0x1a
 14495 3b15 043B0000 		.4byte	0x3b04
 14496 3b19 0A       		.uleb128 0xa
 14497 3b1a F5360000 		.4byte	0x36f5
 14498 3b1e 293B0000 		.4byte	0x3b29
 14499 3b22 0B       		.uleb128 0xb
 14500 3b23 37000000 		.4byte	0x37
 14501 3b27 0F       		.byte	0xf
 14502 3b28 00       		.byte	0
 14503 3b29 0A       		.uleb128 0xa
 14504 3b2a B4090000 		.4byte	0x9b4
 14505 3b2e 393B0000 		.4byte	0x3b39
 14506 3b32 0B       		.uleb128 0xb
 14507 3b33 37000000 		.4byte	0x37
 14508 3b37 3F       		.byte	0x3f
 14509 3b38 00       		.byte	0
 14510 3b39 1A       		.uleb128 0x1a
 14511 3b3a 293B0000 		.4byte	0x3b29
 14512 3b3e 0A       		.uleb128 0xa
 14513 3b3f B4090000 		.4byte	0x9b4
 14514 3b43 4E3B0000 		.4byte	0x3b4e
 14515 3b47 0B       		.uleb128 0xb
 14516 3b48 37000000 		.4byte	0x37
 14517 3b4c 0F       		.byte	0xf
 14518 3b4d 00       		.byte	0
 14519 3b4e 1A       		.uleb128 0x1a
 14520 3b4f 3E3B0000 		.4byte	0x3b3e
 14521 3b53 0A       		.uleb128 0xa
 14522 3b54 69370000 		.4byte	0x3769
 14523 3b58 633B0000 		.4byte	0x3b63
 14524 3b5c 0B       		.uleb128 0xb
 14525 3b5d 37000000 		.4byte	0x37
 14526 3b61 0F       		.byte	0xf
 14527 3b62 00       		.byte	0
 14528 3b63 0A       		.uleb128 0xa
 14529 3b64 DD370000 		.4byte	0x37dd
 14530 3b68 733B0000 		.4byte	0x3b73
 14531 3b6c 0B       		.uleb128 0xb
 14532 3b6d 37000000 		.4byte	0x37
 14533 3b71 0F       		.byte	0xf
 14534 3b72 00       		.byte	0
 14535 3b73 0A       		.uleb128 0xa
 14536 3b74 B4090000 		.4byte	0x9b4
 14537 3b78 833B0000 		.4byte	0x3b83
 14538 3b7c 0B       		.uleb128 0xb
 14539 3b7d 37000000 		.4byte	0x37
 14540 3b81 7E       		.byte	0x7e
 14541 3b82 00       		.byte	0
 14542 3b83 1A       		.uleb128 0x1a
 14543 3b84 733B0000 		.4byte	0x3b73
 14544 3b88 0A       		.uleb128 0xa
 14545 3b89 B4090000 		.4byte	0x9b4
ARM GAS  C:\Users\Moi\AppData\Local\Temp\cchaECY7.s 			page 269


 14546 3b8d 9F3B0000 		.4byte	0x3b9f
 14547 3b91 0B       		.uleb128 0xb
 14548 3b92 37000000 		.4byte	0x37
 14549 3b96 0F       		.byte	0xf
 14550 3b97 31       		.uleb128 0x31
 14551 3b98 37000000 		.4byte	0x37
 14552 3b9c FF03     		.2byte	0x3ff
 14553 3b9e 00       		.byte	0
 14554 3b9f 1A       		.uleb128 0x1a
 14555 3ba0 883B0000 		.4byte	0x3b88
 14556 3ba4 03       		.uleb128 0x3
 14557 3ba5 DB2D0000 		.4byte	.LASF805
 14558 3ba9 3E       		.byte	0x3e
 14559 3baa B6       		.byte	0xb6
 14560 3bab E8370000 		.4byte	0x37e8
 14561 3baf 0C       		.uleb128 0xc
 14562 3bb0 0C       		.byte	0xc
 14563 3bb1 3D       		.byte	0x3d
 14564 3bb2 C6       		.byte	0xc6
 14565 3bb3 DC3B0000 		.4byte	0x3bdc
 14566 3bb7 0D       		.uleb128 0xd
 14567 3bb8 D30A0000 		.4byte	.LASF806
 14568 3bbc 3D       		.byte	0x3d
 14569 3bbd C7       		.byte	0xc7
 14570 3bbe A9090000 		.4byte	0x9a9
 14571 3bc2 00       		.byte	0
 14572 3bc3 0D       		.uleb128 0xd
 14573 3bc4 7D0D0000 		.4byte	.LASF807
 14574 3bc8 3D       		.byte	0x3d
 14575 3bc9 C8       		.byte	0xc8
 14576 3bca A9090000 		.4byte	0x9a9
 14577 3bce 04       		.byte	0x4
 14578 3bcf 0D       		.uleb128 0xd
 14579 3bd0 A0110000 		.4byte	.LASF808
 14580 3bd4 3D       		.byte	0x3d
 14581 3bd5 C9       		.byte	0xc9
 14582 3bd6 A9090000 		.4byte	0x9a9
 14583 3bda 08       		.byte	0x8
 14584 3bdb 00       		.byte	0
 14585 3bdc 03       		.uleb128 0x3
 14586 3bdd 930D0000 		.4byte	.LASF809
 14587 3be1 3D       		.byte	0x3d
 14588 3be2 CA       		.byte	0xca
 14589 3be3 AF3B0000 		.4byte	0x3baf
 14590 3be7 0F       		.uleb128 0xf
 14591 3be8 DC3B0000 		.4byte	0x3bdc
 14592 3bec 0C       		.uleb128 0xc
 14593 3bed 04       		.byte	0x4
 14594 3bee 3D       		.byte	0x3d
 14595 3bef DD       		.byte	0xdd
 14596 3bf0 013C0000 		.4byte	0x3c01
 14597 3bf4 0D       		.uleb128 0xd
 14598 3bf5 2A2B0000 		.4byte	.LASF810
 14599 3bf9 3D       		.byte	0x3d
 14600 3bfa E1       		.byte	0xe1
 14601 3bfb 841C0000 		.4byte	0x1c84
 14602 3bff 00       		.byte	0
ARM GAS  C:\Users\Moi\AppData\Local\Temp\cchaECY7.s 			page 270


 14603 3c00 00       		.byte	0
 14604 3c01 0C       		.uleb128 0xc
 14605 3c02 04       		.byte	0x4
 14606 3c03 3D       		.byte	0x3d
 14607 3c04 E3       		.byte	0xe3
 14608 3c05 163C0000 		.4byte	0x3c16
 14609 3c09 0D       		.uleb128 0xd
 14610 3c0a 600B0000 		.4byte	.LASF498
 14611 3c0e 3D       		.byte	0x3d
 14612 3c0f E7       		.byte	0xe7
 14613 3c10 163C0000 		.4byte	0x3c16
 14614 3c14 00       		.byte	0
 14615 3c15 00       		.byte	0
 14616 3c16 05       		.uleb128 0x5
 14617 3c17 04       		.byte	0x4
 14618 3c18 1E1C0000 		.4byte	0x1c1e
 14619 3c1c 08       		.uleb128 0x8
 14620 3c1d 04       		.byte	0x4
 14621 3c1e 3D       		.byte	0x3d
 14622 3c1f DC       		.byte	0xdc
 14623 3c20 3B3C0000 		.4byte	0x3c3b
 14624 3c24 09       		.uleb128 0x9
 14625 3c25 45260000 		.4byte	.LASF811
 14626 3c29 3D       		.byte	0x3d
 14627 3c2a E2       		.byte	0xe2
 14628 3c2b EC3B0000 		.4byte	0x3bec
 14629 3c2f 09       		.uleb128 0x9
 14630 3c30 E0240000 		.4byte	.LASF812
 14631 3c34 3D       		.byte	0x3d
 14632 3c35 E8       		.byte	0xe8
 14633 3c36 013C0000 		.4byte	0x3c01
 14634 3c3a 00       		.byte	0
 14635 3c3b 0C       		.uleb128 0xc
 14636 3c3c 14       		.byte	0x14
 14637 3c3d 3D       		.byte	0x3d
 14638 3c3e CF       		.byte	0xcf
 14639 3c3f 803C0000 		.4byte	0x3c80
 14640 3c43 0D       		.uleb128 0xd
 14641 3c44 57090000 		.4byte	.LASF813
 14642 3c48 3D       		.byte	0x3d
 14643 3c49 D3       		.byte	0xd3
 14644 3c4a 911E0000 		.4byte	0x1e91
 14645 3c4e 00       		.byte	0
 14646 3c4f 0D       		.uleb128 0xd
 14647 3c50 D9150000 		.4byte	.LASF814
 14648 3c54 3D       		.byte	0x3d
 14649 3c55 D7       		.byte	0xd7
 14650 3c56 2C000000 		.4byte	0x2c
 14651 3c5a 04       		.byte	0x4
 14652 3c5b 0D       		.uleb128 0xd
 14653 3c5c 320D0000 		.4byte	.LASF815
 14654 3c60 3D       		.byte	0x3d
 14655 3c61 DB       		.byte	0xdb
 14656 3c62 2C000000 		.4byte	0x2c
 14657 3c66 08       		.byte	0x8
 14658 3c67 0D       		.uleb128 0xd
 14659 3c68 1F0A0000 		.4byte	.LASF544
ARM GAS  C:\Users\Moi\AppData\Local\Temp\cchaECY7.s 			page 271


 14660 3c6c 3D       		.byte	0x3d
 14661 3c6d E9       		.byte	0xe9
 14662 3c6e 1C3C0000 		.4byte	0x3c1c
 14663 3c72 0C       		.byte	0xc
 14664 3c73 0D       		.uleb128 0xd
 14665 3c74 B8110000 		.4byte	.LASF816
 14666 3c78 3D       		.byte	0x3d
 14667 3c79 ED       		.byte	0xed
 14668 3c7a 2C000000 		.4byte	0x2c
 14669 3c7e 10       		.byte	0x10
 14670 3c7f 00       		.byte	0
 14671 3c80 03       		.uleb128 0x3
 14672 3c81 DE120000 		.4byte	.LASF817
 14673 3c85 3D       		.byte	0x3d
 14674 3c86 EE       		.byte	0xee
 14675 3c87 3B3C0000 		.4byte	0x3c3b
 14676 3c8b 1C       		.uleb128 0x1c
 14677 3c8c 04       		.byte	0x4
 14678 3c8d 3D       		.byte	0x3d
 14679 3c8e 0101     		.2byte	0x101
 14680 3c90 A23C0000 		.4byte	0x3ca2
 14681 3c94 18       		.uleb128 0x18
 14682 3c95 B60D0000 		.4byte	.LASF818
 14683 3c99 3D       		.byte	0x3d
 14684 3c9a 0501     		.2byte	0x105
 14685 3c9c 0D1C0000 		.4byte	0x1c0d
 14686 3ca0 00       		.byte	0
 14687 3ca1 00       		.byte	0
 14688 3ca2 1C       		.uleb128 0x1c
 14689 3ca3 04       		.byte	0x4
 14690 3ca4 3D       		.byte	0x3d
 14691 3ca5 0701     		.2byte	0x107
 14692 3ca7 B93C0000 		.4byte	0x3cb9
 14693 3cab 18       		.uleb128 0x18
 14694 3cac F4250000 		.4byte	.LASF499
 14695 3cb0 3D       		.byte	0x3d
 14696 3cb1 0B01     		.2byte	0x10b
 14697 3cb3 B93C0000 		.4byte	0x3cb9
 14698 3cb7 00       		.byte	0
 14699 3cb8 00       		.byte	0
 14700 3cb9 05       		.uleb128 0x5
 14701 3cba 04       		.byte	0x4
 14702 3cbb 131C0000 		.4byte	0x1c13
 14703 3cbf 1D       		.uleb128 0x1d
 14704 3cc0 04       		.byte	0x4
 14705 3cc1 3D       		.byte	0x3d
 14706 3cc2 0001     		.2byte	0x100
 14707 3cc4 E13C0000 		.4byte	0x3ce1
 14708 3cc8 1E       		.uleb128 0x1e
 14709 3cc9 45260000 		.4byte	.LASF811
 14710 3ccd 3D       		.byte	0x3d
 14711 3cce 0601     		.2byte	0x106
 14712 3cd0 8B3C0000 		.4byte	0x3c8b
 14713 3cd4 1E       		.uleb128 0x1e
 14714 3cd5 E0240000 		.4byte	.LASF812
 14715 3cd9 3D       		.byte	0x3d
 14716 3cda 0C01     		.2byte	0x10c
ARM GAS  C:\Users\Moi\AppData\Local\Temp\cchaECY7.s 			page 272


 14717 3cdc A23C0000 		.4byte	0x3ca2
 14718 3ce0 00       		.byte	0
 14719 3ce1 0C       		.uleb128 0xc
 14720 3ce2 14       		.byte	0x14
 14721 3ce3 3D       		.byte	0x3d
 14722 3ce4 F3       		.byte	0xf3
 14723 3ce5 283D0000 		.4byte	0x3d28
 14724 3ce9 0D       		.uleb128 0xd
 14725 3cea 19070000 		.4byte	.LASF819
 14726 3cee 3D       		.byte	0x3d
 14727 3cef F7       		.byte	0xf7
 14728 3cf0 911E0000 		.4byte	0x1e91
 14729 3cf4 00       		.byte	0
 14730 3cf5 0D       		.uleb128 0xd
 14731 3cf6 C7160000 		.4byte	.LASF820
 14732 3cfa 3D       		.byte	0x3d
 14733 3cfb FB       		.byte	0xfb
 14734 3cfc 2C000000 		.4byte	0x2c
 14735 3d00 04       		.byte	0x4
 14736 3d01 0D       		.uleb128 0xd
 14737 3d02 FA090000 		.4byte	.LASF821
 14738 3d06 3D       		.byte	0x3d
 14739 3d07 FF       		.byte	0xff
 14740 3d08 2C000000 		.4byte	0x2c
 14741 3d0c 08       		.byte	0x8
 14742 3d0d 18       		.uleb128 0x18
 14743 3d0e 1F0A0000 		.4byte	.LASF544
 14744 3d12 3D       		.byte	0x3d
 14745 3d13 0D01     		.2byte	0x10d
 14746 3d15 BF3C0000 		.4byte	0x3cbf
 14747 3d19 0C       		.byte	0xc
 14748 3d1a 18       		.uleb128 0x18
 14749 3d1b B8110000 		.4byte	.LASF816
 14750 3d1f 3D       		.byte	0x3d
 14751 3d20 1101     		.2byte	0x111
 14752 3d22 2C000000 		.4byte	0x2c
 14753 3d26 10       		.byte	0x10
 14754 3d27 00       		.byte	0
 14755 3d28 07       		.uleb128 0x7
 14756 3d29 3A220000 		.4byte	.LASF822
 14757 3d2d 3D       		.byte	0x3d
 14758 3d2e 1201     		.2byte	0x112
 14759 3d30 E13C0000 		.4byte	0x3ce1
 14760 3d34 1C       		.uleb128 0x1c
 14761 3d35 24       		.byte	0x24
 14762 3d36 3D       		.byte	0x3d
 14763 3d37 1801     		.2byte	0x118
 14764 3d39 C03D0000 		.4byte	0x3dc0
 14765 3d3d 18       		.uleb128 0x18
 14766 3d3e 211B0000 		.4byte	.LASF823
 14767 3d42 3D       		.byte	0x3d
 14768 3d43 1C01     		.2byte	0x11c
 14769 3d45 A9090000 		.4byte	0x9a9
 14770 3d49 00       		.byte	0
 14771 3d4a 18       		.uleb128 0x18
 14772 3d4b 320B0000 		.4byte	.LASF824
 14773 3d4f 3D       		.byte	0x3d
ARM GAS  C:\Users\Moi\AppData\Local\Temp\cchaECY7.s 			page 273


 14774 3d50 2701     		.2byte	0x127
 14775 3d52 F1350000 		.4byte	0x35f1
 14776 3d56 04       		.byte	0x4
 14777 3d57 18       		.uleb128 0x18
 14778 3d58 5F1C0000 		.4byte	.LASF825
 14779 3d5c 3D       		.byte	0x3d
 14780 3d5d 2D01     		.2byte	0x12d
 14781 3d5f F1350000 		.4byte	0x35f1
 14782 3d63 08       		.byte	0x8
 14783 3d64 18       		.uleb128 0x18
 14784 3d65 550E0000 		.4byte	.LASF826
 14785 3d69 3D       		.byte	0x3d
 14786 3d6a 3301     		.2byte	0x133
 14787 3d6c F1350000 		.4byte	0x35f1
 14788 3d70 0C       		.byte	0xc
 14789 3d71 18       		.uleb128 0x18
 14790 3d72 3A2E0000 		.4byte	.LASF827
 14791 3d76 3D       		.byte	0x3d
 14792 3d77 3901     		.2byte	0x139
 14793 3d79 8E090000 		.4byte	0x98e
 14794 3d7d 10       		.byte	0x10
 14795 3d7e 18       		.uleb128 0x18
 14796 3d7f C50E0000 		.4byte	.LASF828
 14797 3d83 3D       		.byte	0x3d
 14798 3d84 3F01     		.2byte	0x13f
 14799 3d86 8E090000 		.4byte	0x98e
 14800 3d8a 12       		.byte	0x12
 14801 3d8b 18       		.uleb128 0x18
 14802 3d8c BB2C0000 		.4byte	.LASF829
 14803 3d90 3D       		.byte	0x3d
 14804 3d91 4401     		.2byte	0x144
 14805 3d93 C03D0000 		.4byte	0x3dc0
 14806 3d97 14       		.byte	0x14
 14807 3d98 18       		.uleb128 0x18
 14808 3d99 70100000 		.4byte	.LASF830
 14809 3d9d 3D       		.byte	0x3d
 14810 3d9e 4901     		.2byte	0x149
 14811 3da0 C63D0000 		.4byte	0x3dc6
 14812 3da4 18       		.byte	0x18
 14813 3da5 18       		.uleb128 0x18
 14814 3da6 33150000 		.4byte	.LASF831
 14815 3daa 3D       		.byte	0x3d
 14816 3dab 5001     		.2byte	0x150
 14817 3dad 8E090000 		.4byte	0x98e
 14818 3db1 1C       		.byte	0x1c
 14819 3db2 18       		.uleb128 0x18
 14820 3db3 8B2B0000 		.4byte	.LASF832
 14821 3db7 3D       		.byte	0x3d
 14822 3db8 5601     		.2byte	0x156
 14823 3dba 0D1C0000 		.4byte	0x1c0d
 14824 3dbe 20       		.byte	0x20
 14825 3dbf 00       		.byte	0
 14826 3dc0 05       		.uleb128 0x5
 14827 3dc1 04       		.byte	0x4
 14828 3dc2 803C0000 		.4byte	0x3c80
 14829 3dc6 05       		.uleb128 0x5
 14830 3dc7 04       		.byte	0x4
ARM GAS  C:\Users\Moi\AppData\Local\Temp\cchaECY7.s 			page 274


 14831 3dc8 283D0000 		.4byte	0x3d28
 14832 3dcc 07       		.uleb128 0x7
 14833 3dcd C4250000 		.4byte	.LASF833
 14834 3dd1 3D       		.byte	0x3d
 14835 3dd2 5701     		.2byte	0x157
 14836 3dd4 343D0000 		.4byte	0x3d34
 14837 3dd8 0F       		.uleb128 0xf
 14838 3dd9 CC3D0000 		.4byte	0x3dcc
 14839 3ddd 1C       		.uleb128 0x1c
 14840 3dde 10       		.byte	0x10
 14841 3ddf 3D       		.byte	0x3d
 14842 3de0 5C01     		.2byte	0x15c
 14843 3de2 1B3E0000 		.4byte	0x3e1b
 14844 3de6 18       		.uleb128 0x18
 14845 3de7 02060000 		.4byte	.LASF834
 14846 3deb 3D       		.byte	0x3d
 14847 3dec 6101     		.2byte	0x161
 14848 3dee 13360000 		.4byte	0x3613
 14849 3df2 00       		.byte	0
 14850 3df3 18       		.uleb128 0x18
 14851 3df4 A32A0000 		.4byte	.LASF835
 14852 3df8 3D       		.byte	0x3d
 14853 3df9 6601     		.2byte	0x166
 14854 3dfb 56360000 		.4byte	0x3656
 14855 3dff 04       		.byte	0x4
 14856 3e00 18       		.uleb128 0x18
 14857 3e01 A6150000 		.4byte	.LASF836
 14858 3e05 3D       		.byte	0x3d
 14859 3e06 6C01     		.2byte	0x16c
 14860 3e08 35360000 		.4byte	0x3635
 14861 3e0c 08       		.byte	0x8
 14862 3e0d 18       		.uleb128 0x18
 14863 3e0e B2020000 		.4byte	.LASF837
 14864 3e12 3D       		.byte	0x3d
 14865 3e13 7001     		.2byte	0x170
 14866 3e15 CE350000 		.4byte	0x35ce
 14867 3e19 0C       		.byte	0xc
 14868 3e1a 00       		.byte	0
 14869 3e1b 07       		.uleb128 0x7
 14870 3e1c 7E140000 		.4byte	.LASF838
 14871 3e20 3D       		.byte	0x3d
 14872 3e21 7201     		.2byte	0x172
 14873 3e23 DD3D0000 		.4byte	0x3ddd
 14874 3e27 0F       		.uleb128 0xf
 14875 3e28 1B3E0000 		.4byte	0x3e1b
 14876 3e2c 05       		.uleb128 0x5
 14877 3e2d 04       		.byte	0x4
 14878 3e2e 273E0000 		.4byte	0x3e27
 14879 3e32 0A       		.uleb128 0xa
 14880 3e33 423E0000 		.4byte	0x3e42
 14881 3e37 423E0000 		.4byte	0x3e42
 14882 3e3b 0B       		.uleb128 0xb
 14883 3e3c 37000000 		.4byte	0x37
 14884 3e40 03       		.byte	0x3
 14885 3e41 00       		.byte	0
 14886 3e42 05       		.uleb128 0x5
 14887 3e43 04       		.byte	0x4
ARM GAS  C:\Users\Moi\AppData\Local\Temp\cchaECY7.s 			page 275


 14888 3e44 D83D0000 		.4byte	0x3dd8
 14889 3e48 0A       		.uleb128 0xa
 14890 3e49 68010000 		.4byte	0x168
 14891 3e4d 583E0000 		.4byte	0x3e58
 14892 3e51 0B       		.uleb128 0xb
 14893 3e52 37000000 		.4byte	0x37
 14894 3e56 02       		.byte	0x2
 14895 3e57 00       		.byte	0
 14896 3e58 05       		.uleb128 0x5
 14897 3e59 04       		.byte	0x4
 14898 3e5a A43B0000 		.4byte	0x3ba4
 14899 3e5e 05       		.uleb128 0x5
 14900 3e5f 04       		.byte	0x4
 14901 3e60 E73B0000 		.4byte	0x3be7
 14902 3e64 0A       		.uleb128 0xa
 14903 3e65 30160000 		.4byte	0x1630
 14904 3e69 743E0000 		.4byte	0x3e74
 14905 3e6d 0B       		.uleb128 0xb
 14906 3e6e 37000000 		.4byte	0x37
 14907 3e72 3E       		.byte	0x3e
 14908 3e73 00       		.byte	0
 14909 3e74 20       		.uleb128 0x20
 14910 3e75 99180000 		.4byte	.LASF839
 14911 3e79 3D       		.byte	0x3d
 14912 3e7a 0602     		.2byte	0x206
 14913 3e7c 9A330000 		.4byte	0x339a
 14914 3e80 0A       		.uleb128 0xa
 14915 3e81 73090000 		.4byte	0x973
 14916 3e85 903E0000 		.4byte	0x3e90
 14917 3e89 0B       		.uleb128 0xb
 14918 3e8a 37000000 		.4byte	0x37
 14919 3e8e 03       		.byte	0x3
 14920 3e8f 00       		.byte	0
 14921 3e90 2B       		.uleb128 0x2b
 14922 3e91 07       		.byte	0x7
 14923 3e92 01       		.byte	0x1
 14924 3e93 69000000 		.4byte	0x69
 14925 3e97 3F       		.byte	0x3f
 14926 3e98 97       		.byte	0x97
 14927 3e99 B03E0000 		.4byte	0x3eb0
 14928 3e9d 23       		.uleb128 0x23
 14929 3e9e F90D0000 		.4byte	.LASF840
 14930 3ea2 00       		.byte	0
 14931 3ea3 23       		.uleb128 0x23
 14932 3ea4 DE1D0000 		.4byte	.LASF841
 14933 3ea8 01       		.byte	0x1
 14934 3ea9 23       		.uleb128 0x23
 14935 3eaa 08090000 		.4byte	.LASF842
 14936 3eae 02       		.byte	0x2
 14937 3eaf 00       		.byte	0
 14938 3eb0 03       		.uleb128 0x3
 14939 3eb1 58080000 		.4byte	.LASF843
 14940 3eb5 3F       		.byte	0x3f
 14941 3eb6 9B       		.byte	0x9b
 14942 3eb7 903E0000 		.4byte	0x3e90
 14943 3ebb 03       		.uleb128 0x3
 14944 3ebc FF020000 		.4byte	.LASF844
ARM GAS  C:\Users\Moi\AppData\Local\Temp\cchaECY7.s 			page 276


 14945 3ec0 3F       		.byte	0x3f
 14946 3ec1 A0       		.byte	0xa0
 14947 3ec2 C63E0000 		.4byte	0x3ec6
 14948 3ec6 12       		.uleb128 0x12
 14949 3ec7 FF020000 		.4byte	.LASF844
 14950 3ecb 5802     		.2byte	0x258
 14951 3ecd 3F       		.byte	0x3f
 14952 3ece E5       		.byte	0xe5
 14953 3ecf 343F0000 		.4byte	0x3f34
 14954 3ed3 11       		.uleb128 0x11
 14955 3ed4 766D7400 		.ascii	"vmt\000"
 14956 3ed8 3F       		.byte	0x3f
 14957 3ed9 E7       		.byte	0xe7
 14958 3eda EF3F0000 		.4byte	0x3fef
 14959 3ede 00       		.byte	0
 14960 3edf 0D       		.uleb128 0xd
 14961 3ee0 64000000 		.4byte	.LASF642
 14962 3ee4 3F       		.byte	0x3f
 14963 3ee5 E8       		.byte	0xe8
 14964 3ee6 681B0000 		.4byte	0x1b68
 14965 3eea 04       		.byte	0x4
 14966 3eeb 0D       		.uleb128 0xd
 14967 3eec 86190000 		.4byte	.LASF465
 14968 3ef0 3F       		.byte	0x3f
 14969 3ef1 E8       		.byte	0xe8
 14970 3ef2 B03E0000 		.4byte	0x3eb0
 14971 3ef6 08       		.byte	0x8
 14972 3ef7 0D       		.uleb128 0xd
 14973 3ef8 581C0000 		.4byte	.LASF643
 14974 3efc 3F       		.byte	0x3f
 14975 3efd E8       		.byte	0xe8
 14976 3efe 131C0000 		.4byte	0x1c13
 14977 3f02 0C       		.byte	0xc
 14978 3f03 0D       		.uleb128 0xd
 14979 3f04 D0140000 		.4byte	.LASF644
 14980 3f08 3F       		.byte	0x3f
 14981 3f09 E8       		.byte	0xe8
 14982 3f0a 1E1C0000 		.4byte	0x1c1e
 14983 3f0e 30       		.byte	0x30
 14984 3f0f 11       		.uleb128 0x11
 14985 3f10 696200   		.ascii	"ib\000"
 14986 3f13 3F       		.byte	0x3f
 14987 3f14 E8       		.byte	0xe8
 14988 3f15 F53F0000 		.4byte	0x3ff5
 14989 3f19 54       		.byte	0x54
 14990 3f1a 30       		.uleb128 0x30
 14991 3f1b 6F6200   		.ascii	"ob\000"
 14992 3f1e 3F       		.byte	0x3f
 14993 3f1f E8       		.byte	0xe8
 14994 3f20 F53F0000 		.4byte	0x3ff5
 14995 3f24 5401     		.2byte	0x154
 14996 3f26 13       		.uleb128 0x13
 14997 3f27 EC200000 		.4byte	.LASF466
 14998 3f2b 3F       		.byte	0x3f
 14999 3f2c E8       		.byte	0xe8
 15000 3f2d 05400000 		.4byte	0x4005
 15001 3f31 5402     		.2byte	0x254
ARM GAS  C:\Users\Moi\AppData\Local\Temp\cchaECY7.s 			page 277


 15002 3f33 00       		.byte	0
 15003 3f34 0C       		.uleb128 0xc
 15004 3f35 08       		.byte	0x8
 15005 3f36 3F       		.byte	0x3f
 15006 3f37 A7       		.byte	0xa7
 15007 3f38 6D3F0000 		.4byte	0x3f6d
 15008 3f3c 0D       		.uleb128 0xd
 15009 3f3d E8290000 		.4byte	.LASF845
 15010 3f41 3F       		.byte	0x3f
 15011 3f42 AB       		.byte	0xab
 15012 3f43 EB350000 		.4byte	0x35eb
 15013 3f47 00       		.byte	0
 15014 3f48 0D       		.uleb128 0xd
 15015 3f49 69120000 		.4byte	.LASF846
 15016 3f4d 3F       		.byte	0x3f
 15017 3f4e AF       		.byte	0xaf
 15018 3f4f D1340000 		.4byte	0x34d1
 15019 3f53 04       		.byte	0x4
 15020 3f54 0D       		.uleb128 0xd
 15021 3f55 13060000 		.4byte	.LASF847
 15022 3f59 3F       		.byte	0x3f
 15023 3f5a B3       		.byte	0xb3
 15024 3f5b D1340000 		.4byte	0x34d1
 15025 3f5f 05       		.byte	0x5
 15026 3f60 0D       		.uleb128 0xd
 15027 3f61 B3130000 		.4byte	.LASF848
 15028 3f65 3F       		.byte	0x3f
 15029 3f66 B9       		.byte	0xb9
 15030 3f67 D1340000 		.4byte	0x34d1
 15031 3f6b 06       		.byte	0x6
 15032 3f6c 00       		.byte	0
 15033 3f6d 03       		.uleb128 0x3
 15034 3f6e DC210000 		.4byte	.LASF849
 15035 3f72 3F       		.byte	0x3f
 15036 3f73 BA       		.byte	0xba
 15037 3f74 343F0000 		.4byte	0x3f34
 15038 3f78 0F       		.uleb128 0xf
 15039 3f79 6D3F0000 		.4byte	0x3f6d
 15040 3f7d 10       		.uleb128 0x10
 15041 3f7e 8C1A0000 		.4byte	.LASF850
 15042 3f82 20       		.byte	0x20
 15043 3f83 3F       		.byte	0x3f
 15044 3f84 DA       		.byte	0xda
 15045 3f85 EA3F0000 		.4byte	0x3fea
 15046 3f89 0D       		.uleb128 0xd
 15047 3f8a 471C0000 		.4byte	.LASF399
 15048 3f8e 3F       		.byte	0x3f
 15049 3f8f DB       		.byte	0xdb
 15050 3f90 8A1C0000 		.4byte	0x1c8a
 15051 3f94 00       		.byte	0
 15052 3f95 0D       		.uleb128 0xd
 15053 3f96 E9050000 		.4byte	.LASF400
 15054 3f9a 3F       		.byte	0x3f
 15055 3f9b DB       		.byte	0xdb
 15056 3f9c A91C0000 		.4byte	0x1ca9
 15057 3fa0 04       		.byte	0x4
 15058 3fa1 11       		.uleb128 0x11
ARM GAS  C:\Users\Moi\AppData\Local\Temp\cchaECY7.s 			page 278


 15059 3fa2 70757400 		.ascii	"put\000"
 15060 3fa6 3F       		.byte	0x3f
 15061 3fa7 DB       		.byte	0xdb
 15062 3fa8 C31C0000 		.4byte	0x1cc3
 15063 3fac 08       		.byte	0x8
 15064 3fad 11       		.uleb128 0x11
 15065 3fae 67657400 		.ascii	"get\000"
 15066 3fb2 3F       		.byte	0x3f
 15067 3fb3 DB       		.byte	0xdb
 15068 3fb4 D81C0000 		.4byte	0x1cd8
 15069 3fb8 0C       		.byte	0xc
 15070 3fb9 0D       		.uleb128 0xd
 15071 3fba FC160000 		.4byte	.LASF647
 15072 3fbe 3F       		.byte	0x3f
 15073 3fbf DB       		.byte	0xdb
 15074 3fc0 9F1D0000 		.4byte	0x1d9f
 15075 3fc4 10       		.byte	0x10
 15076 3fc5 0D       		.uleb128 0xd
 15077 3fc6 2D1C0000 		.4byte	.LASF648
 15078 3fca 3F       		.byte	0x3f
 15079 3fcb DB       		.byte	0xdb
 15080 3fcc B91D0000 		.4byte	0x1db9
 15081 3fd0 14       		.byte	0x14
 15082 3fd1 0D       		.uleb128 0xd
 15083 3fd2 022A0000 		.4byte	.LASF649
 15084 3fd6 3F       		.byte	0x3f
 15085 3fd7 DB       		.byte	0xdb
 15086 3fd8 DD1D0000 		.4byte	0x1ddd
 15087 3fdc 18       		.byte	0x18
 15088 3fdd 0D       		.uleb128 0xd
 15089 3fde 41160000 		.4byte	.LASF650
 15090 3fe2 3F       		.byte	0x3f
 15091 3fe3 DB       		.byte	0xdb
 15092 3fe4 011E0000 		.4byte	0x1e01
 15093 3fe8 1C       		.byte	0x1c
 15094 3fe9 00       		.byte	0
 15095 3fea 0F       		.uleb128 0xf
 15096 3feb 7D3F0000 		.4byte	0x3f7d
 15097 3fef 05       		.uleb128 0x5
 15098 3ff0 04       		.byte	0x4
 15099 3ff1 EA3F0000 		.4byte	0x3fea
 15100 3ff5 0A       		.uleb128 0xa
 15101 3ff6 73090000 		.4byte	0x973
 15102 3ffa 05400000 		.4byte	0x4005
 15103 3ffe 0B       		.uleb128 0xb
 15104 3fff 37000000 		.4byte	0x37
 15105 4003 FF       		.byte	0xff
 15106 4004 00       		.byte	0
 15107 4005 05       		.uleb128 0x5
 15108 4006 04       		.byte	0x4
 15109 4007 783F0000 		.4byte	0x3f78
 15110 400b 29       		.uleb128 0x29
 15111 400c D809     		.2byte	0x9d8
 15112 400e 40       		.byte	0x40
 15113 400f 44       		.byte	0x44
 15114 4010 50400000 		.4byte	0x4050
 15115 4014 11       		.uleb128 0x11
ARM GAS  C:\Users\Moi\AppData\Local\Temp\cchaECY7.s 			page 279


 15116 4015 543000   		.ascii	"T0\000"
 15117 4018 40       		.byte	0x40
 15118 4019 45       		.byte	0x45
 15119 401a 643E0000 		.4byte	0x3e64
 15120 401e 00       		.byte	0
 15121 401f 30       		.uleb128 0x30
 15122 4020 543100   		.ascii	"T1\000"
 15123 4023 40       		.byte	0x40
 15124 4024 46       		.byte	0x46
 15125 4025 643E0000 		.4byte	0x3e64
 15126 4029 F801     		.2byte	0x1f8
 15127 402b 30       		.uleb128 0x30
 15128 402c 543200   		.ascii	"T2\000"
 15129 402f 40       		.byte	0x40
 15130 4030 47       		.byte	0x47
 15131 4031 643E0000 		.4byte	0x3e64
 15132 4035 F003     		.2byte	0x3f0
 15133 4037 30       		.uleb128 0x30
 15134 4038 543300   		.ascii	"T3\000"
 15135 403b 40       		.byte	0x40
 15136 403c 48       		.byte	0x48
 15137 403d 643E0000 		.4byte	0x3e64
 15138 4041 E805     		.2byte	0x5e8
 15139 4043 30       		.uleb128 0x30
 15140 4044 543400   		.ascii	"T4\000"
 15141 4047 40       		.byte	0x40
 15142 4048 49       		.byte	0x49
 15143 4049 643E0000 		.4byte	0x3e64
 15144 404d E007     		.2byte	0x7e0
 15145 404f 00       		.byte	0
 15146 4050 32       		.uleb128 0x32
 15147 4051 0C040000 		.4byte	.LASF1122
 15148 4055 D809     		.2byte	0x9d8
 15149 4057 40       		.byte	0x40
 15150 4058 43       		.byte	0x43
 15151 4059 73400000 		.4byte	0x4073
 15152 405d 2C       		.uleb128 0x2c
 15153 405e 776100   		.ascii	"wa\000"
 15154 4061 40       		.byte	0x40
 15155 4062 4A       		.byte	0x4a
 15156 4063 0B400000 		.4byte	0x400b
 15157 4067 09       		.uleb128 0x9
 15158 4068 6F200000 		.4byte	.LASF851
 15159 406c 40       		.byte	0x40
 15160 406d 4B       		.byte	0x4b
 15161 406e 73400000 		.4byte	0x4073
 15162 4072 00       		.byte	0
 15163 4073 0A       		.uleb128 0xa
 15164 4074 73090000 		.4byte	0x973
 15165 4078 84400000 		.4byte	0x4084
 15166 407c 31       		.uleb128 0x31
 15167 407d 37000000 		.4byte	0x37
 15168 4081 D709     		.2byte	0x9d7
 15169 4083 00       		.byte	0
 15170 4084 27       		.uleb128 0x27
 15171 4085 68190000 		.4byte	.LASF852
 15172 4089 40       		.byte	0x40
ARM GAS  C:\Users\Moi\AppData\Local\Temp\cchaECY7.s 			page 280


 15173 408a 4F       		.byte	0x4f
 15174 408b 911E0000 		.4byte	0x1e91
 15175 408f 0A       		.uleb128 0xa
 15176 4090 910B0000 		.4byte	0xb91
 15177 4094 9F400000 		.4byte	0x409f
 15178 4098 0B       		.uleb128 0xb
 15179 4099 37000000 		.4byte	0x37
 15180 409d 04       		.byte	0x4
 15181 409e 00       		.byte	0
 15182 409f 27       		.uleb128 0x27
 15183 40a0 F2090000 		.4byte	.LASF853
 15184 40a4 40       		.byte	0x40
 15185 40a5 A7       		.byte	0xa7
 15186 40a6 8F400000 		.4byte	0x408f
 15187 40aa 27       		.uleb128 0x27
 15188 40ab 93200000 		.4byte	.LASF854
 15189 40af 40       		.byte	0x40
 15190 40b0 A8       		.byte	0xa8
 15191 40b1 50400000 		.4byte	0x4050
 15192 40b5 0A       		.uleb128 0xa
 15193 40b6 6A010000 		.4byte	0x16a
 15194 40ba C0400000 		.4byte	0x40c0
 15195 40be 33       		.uleb128 0x33
 15196 40bf 00       		.byte	0
 15197 40c0 0F       		.uleb128 0xf
 15198 40c1 B5400000 		.4byte	0x40b5
 15199 40c5 34       		.uleb128 0x34
 15200 40c6 776100   		.ascii	"wa\000"
 15201 40c9 40       		.byte	0x40
 15202 40ca A9       		.byte	0xa9
 15203 40cb C0400000 		.4byte	0x40c0
 15204 40cf 27       		.uleb128 0x27
 15205 40d0 C1260000 		.4byte	.LASF855
 15206 40d4 40       		.byte	0x40
 15207 40d5 AA       		.byte	0xaa
 15208 40d6 911E0000 		.4byte	0x1e91
 15209 40da 03       		.uleb128 0x3
 15210 40db C5140000 		.4byte	.LASF856
 15211 40df 41       		.byte	0x41
 15212 40e0 2D       		.byte	0x2d
 15213 40e1 E5400000 		.4byte	0x40e5
 15214 40e5 05       		.uleb128 0x5
 15215 40e6 04       		.byte	0x4
 15216 40e7 EB400000 		.4byte	0x40eb
 15217 40eb 1F       		.uleb128 0x1f
 15218 40ec 00410000 		.4byte	0x4100
 15219 40f0 16       		.uleb128 0x16
 15220 40f1 00410000 		.4byte	0x4100
 15221 40f5 16       		.uleb128 0x16
 15222 40f6 25000000 		.4byte	0x25
 15223 40fa 16       		.uleb128 0x16
 15224 40fb 06410000 		.4byte	0x4106
 15225 40ff 00       		.byte	0
 15226 4100 05       		.uleb128 0x5
 15227 4101 04       		.byte	0x4
 15228 4102 F91C0000 		.4byte	0x1cf9
 15229 4106 05       		.uleb128 0x5
ARM GAS  C:\Users\Moi\AppData\Local\Temp\cchaECY7.s 			page 281


 15230 4107 04       		.byte	0x4
 15231 4108 6F010000 		.4byte	0x16f
 15232 410c 0C       		.uleb128 0xc
 15233 410d 08       		.byte	0x8
 15234 410e 41       		.byte	0x41
 15235 410f 32       		.byte	0x32
 15236 4110 2D410000 		.4byte	0x412d
 15237 4114 0D       		.uleb128 0xd
 15238 4115 B3200000 		.4byte	.LASF857
 15239 4119 41       		.byte	0x41
 15240 411a 33       		.byte	0x33
 15241 411b ED050000 		.4byte	0x5ed
 15242 411f 00       		.byte	0
 15243 4120 0D       		.uleb128 0xd
 15244 4121 BA230000 		.4byte	.LASF858
 15245 4125 41       		.byte	0x41
 15246 4126 34       		.byte	0x34
 15247 4127 DA400000 		.4byte	0x40da
 15248 412b 04       		.byte	0x4
 15249 412c 00       		.byte	0
 15250 412d 03       		.uleb128 0x3
 15251 412e E3130000 		.4byte	.LASF859
 15252 4132 41       		.byte	0x41
 15253 4133 35       		.byte	0x35
 15254 4134 0C410000 		.4byte	0x410c
 15255 4138 0F       		.uleb128 0xf
 15256 4139 2D410000 		.4byte	0x412d
 15257 413d 0C       		.uleb128 0xc
 15258 413e 08       		.byte	0x8
 15259 413f 41       		.byte	0x41
 15260 4140 3A       		.byte	0x3a
 15261 4141 5E410000 		.4byte	0x415e
 15262 4145 0D       		.uleb128 0xd
 15263 4146 81020000 		.4byte	.LASF860
 15264 414a 41       		.byte	0x41
 15265 414b 3B       		.byte	0x3b
 15266 414c 00410000 		.4byte	0x4100
 15267 4150 00       		.byte	0
 15268 4151 0D       		.uleb128 0xd
 15269 4152 100D0000 		.4byte	.LASF861
 15270 4156 41       		.byte	0x41
 15271 4157 3D       		.byte	0x3d
 15272 4158 5E410000 		.4byte	0x415e
 15273 415c 04       		.byte	0x4
 15274 415d 00       		.byte	0
 15275 415e 05       		.uleb128 0x5
 15276 415f 04       		.byte	0x4
 15277 4160 38410000 		.4byte	0x4138
 15278 4164 03       		.uleb128 0x3
 15279 4165 20260000 		.4byte	.LASF862
 15280 4169 41       		.byte	0x41
 15281 416a 3F       		.byte	0x3f
 15282 416b 3D410000 		.4byte	0x413d
 15283 416f 0F       		.uleb128 0xf
 15284 4170 64410000 		.4byte	0x4164
 15285 4174 27       		.uleb128 0x27
 15286 4175 73160000 		.4byte	.LASF863
ARM GAS  C:\Users\Moi\AppData\Local\Temp\cchaECY7.s 			page 282


 15287 4179 41       		.byte	0x41
 15288 417a 42       		.byte	0x42
 15289 417b 681B0000 		.4byte	0x1b68
 15290 417f 27       		.uleb128 0x27
 15291 4180 CC0A0000 		.4byte	.LASF864
 15292 4184 42       		.byte	0x42
 15293 4185 14       		.byte	0x14
 15294 4186 273E0000 		.4byte	0x3e27
 15295 418a 27       		.uleb128 0x27
 15296 418b 9C0B0000 		.4byte	.LASF865
 15297 418f 42       		.byte	0x42
 15298 4190 15       		.byte	0x15
 15299 4191 6D3F0000 		.4byte	0x3f6d
 15300 4195 27       		.uleb128 0x27
 15301 4196 79130000 		.4byte	.LASF866
 15302 419a 42       		.byte	0x42
 15303 419b 16       		.byte	0x16
 15304 419c BB3E0000 		.4byte	0x3ebb
 15305 41a0 05       		.uleb128 0x5
 15306 41a1 04       		.byte	0x4
 15307 41a2 83090000 		.4byte	0x983
 15308 41a6 2B       		.uleb128 0x2b
 15309 41a7 07       		.byte	0x7
 15310 41a8 01       		.byte	0x1
 15311 41a9 69000000 		.4byte	0x69
 15312 41ad 43       		.byte	0x43
 15313 41ae 10       		.byte	0x10
 15314 41af 14420000 		.4byte	0x4214
 15315 41b3 23       		.uleb128 0x23
 15316 41b4 5E030000 		.4byte	.LASF867
 15317 41b8 00       		.byte	0
 15318 41b9 23       		.uleb128 0x23
 15319 41ba 8C260000 		.4byte	.LASF868
 15320 41be 01       		.byte	0x1
 15321 41bf 23       		.uleb128 0x23
 15322 41c0 0C270000 		.4byte	.LASF869
 15323 41c4 02       		.byte	0x2
 15324 41c5 23       		.uleb128 0x23
 15325 41c6 721C0000 		.4byte	.LASF870
 15326 41ca 03       		.byte	0x3
 15327 41cb 23       		.uleb128 0x23
 15328 41cc E4230000 		.4byte	.LASF871
 15329 41d0 10       		.byte	0x10
 15330 41d1 23       		.uleb128 0x23
 15331 41d2 E2190000 		.4byte	.LASF872
 15332 41d6 11       		.byte	0x11
 15333 41d7 23       		.uleb128 0x23
 15334 41d8 521F0000 		.4byte	.LASF873
 15335 41dc 12       		.byte	0x12
 15336 41dd 23       		.uleb128 0x23
 15337 41de 5C0E0000 		.4byte	.LASF874
 15338 41e2 13       		.byte	0x13
 15339 41e3 23       		.uleb128 0x23
 15340 41e4 191F0000 		.4byte	.LASF875
 15341 41e8 30       		.byte	0x30
 15342 41e9 23       		.uleb128 0x23
 15343 41ea 67250000 		.4byte	.LASF876
ARM GAS  C:\Users\Moi\AppData\Local\Temp\cchaECY7.s 			page 283


 15344 41ee 31       		.byte	0x31
 15345 41ef 23       		.uleb128 0x23
 15346 41f0 F3140000 		.4byte	.LASF877
 15347 41f4 32       		.byte	0x32
 15348 41f5 23       		.uleb128 0x23
 15349 41f6 7B200000 		.4byte	.LASF878
 15350 41fa 33       		.byte	0x33
 15351 41fb 23       		.uleb128 0x23
 15352 41fc 8C190000 		.4byte	.LASF879
 15353 4200 36       		.byte	0x36
 15354 4201 23       		.uleb128 0x23
 15355 4202 86010000 		.4byte	.LASF880
 15356 4206 37       		.byte	0x37
 15357 4207 23       		.uleb128 0x23
 15358 4208 43250000 		.4byte	.LASF881
 15359 420c 41       		.byte	0x41
 15360 420d 23       		.uleb128 0x23
 15361 420e 5F140000 		.4byte	.LASF882
 15362 4212 44       		.byte	0x44
 15363 4213 00       		.byte	0
 15364 4214 03       		.uleb128 0x3
 15365 4215 19150000 		.4byte	.LASF883
 15366 4219 43       		.byte	0x43
 15367 421a 21       		.byte	0x21
 15368 421b A6410000 		.4byte	0x41a6
 15369 421f 2B       		.uleb128 0x2b
 15370 4220 07       		.byte	0x7
 15371 4221 01       		.byte	0x1
 15372 4222 69000000 		.4byte	0x69
 15373 4226 43       		.byte	0x43
 15374 4227 29       		.byte	0x29
 15375 4228 3F420000 		.4byte	0x423f
 15376 422c 23       		.uleb128 0x23
 15377 422d 79030000 		.4byte	.LASF884
 15378 4231 20       		.byte	0x20
 15379 4232 23       		.uleb128 0x23
 15380 4233 A3270000 		.4byte	.LASF885
 15381 4237 40       		.byte	0x40
 15382 4238 23       		.uleb128 0x23
 15383 4239 B2270000 		.4byte	.LASF886
 15384 423d 80       		.byte	0x80
 15385 423e 00       		.byte	0
 15386 423f 03       		.uleb128 0x3
 15387 4240 13130000 		.4byte	.LASF887
 15388 4244 43       		.byte	0x43
 15389 4245 2D       		.byte	0x2d
 15390 4246 1F420000 		.4byte	0x421f
 15391 424a 2B       		.uleb128 0x2b
 15392 424b 07       		.byte	0x7
 15393 424c 01       		.byte	0x1
 15394 424d 69000000 		.4byte	0x69
 15395 4251 44       		.byte	0x44
 15396 4252 83       		.byte	0x83
 15397 4253 64420000 		.4byte	0x4264
 15398 4257 23       		.uleb128 0x23
 15399 4258 A32B0000 		.4byte	.LASF888
 15400 425c 00       		.byte	0
ARM GAS  C:\Users\Moi\AppData\Local\Temp\cchaECY7.s 			page 284


 15401 425d 23       		.uleb128 0x23
 15402 425e 131E0000 		.4byte	.LASF889
 15403 4262 01       		.byte	0x1
 15404 4263 00       		.byte	0
 15405 4264 03       		.uleb128 0x3
 15406 4265 192C0000 		.4byte	.LASF890
 15407 4269 44       		.byte	0x44
 15408 426a 86       		.byte	0x86
 15409 426b 4A420000 		.4byte	0x424a
 15410 426f 2B       		.uleb128 0x2b
 15411 4270 07       		.byte	0x7
 15412 4271 01       		.byte	0x1
 15413 4272 69000000 		.4byte	0x69
 15414 4276 44       		.byte	0x44
 15415 4277 8B       		.byte	0x8b
 15416 4278 AD420000 		.4byte	0x42ad
 15417 427c 23       		.uleb128 0x23
 15418 427d 04080000 		.4byte	.LASF891
 15419 4281 00       		.byte	0
 15420 4282 23       		.uleb128 0x23
 15421 4283 F3030000 		.4byte	.LASF892
 15422 4287 01       		.byte	0x1
 15423 4288 23       		.uleb128 0x23
 15424 4289 4C260000 		.4byte	.LASF893
 15425 428d 02       		.byte	0x2
 15426 428e 23       		.uleb128 0x23
 15427 428f 66240000 		.4byte	.LASF894
 15428 4293 03       		.byte	0x3
 15429 4294 23       		.uleb128 0x23
 15430 4295 8D000000 		.4byte	.LASF895
 15431 4299 04       		.byte	0x4
 15432 429a 23       		.uleb128 0x23
 15433 429b C81E0000 		.4byte	.LASF896
 15434 429f 05       		.byte	0x5
 15435 42a0 23       		.uleb128 0x23
 15436 42a1 69150000 		.4byte	.LASF897
 15437 42a5 06       		.byte	0x6
 15438 42a6 23       		.uleb128 0x23
 15439 42a7 941D0000 		.4byte	.LASF898
 15440 42ab 07       		.byte	0x7
 15441 42ac 00       		.byte	0
 15442 42ad 03       		.uleb128 0x3
 15443 42ae 9F1A0000 		.4byte	.LASF899
 15444 42b2 44       		.byte	0x44
 15445 42b3 94       		.byte	0x94
 15446 42b4 6F420000 		.4byte	0x426f
 15447 42b8 03       		.uleb128 0x3
 15448 42b9 24050000 		.4byte	.LASF900
 15449 42bd 44       		.byte	0x44
 15450 42be 99       		.byte	0x99
 15451 42bf C3420000 		.4byte	0x42c3
 15452 42c3 10       		.uleb128 0x10
 15453 42c4 24050000 		.4byte	.LASF900
 15454 42c8 14       		.byte	0x14
 15455 42c9 44       		.byte	0x44
 15456 42ca C3       		.byte	0xc3
 15457 42cb 0C430000 		.4byte	0x430c
ARM GAS  C:\Users\Moi\AppData\Local\Temp\cchaECY7.s 			page 285


 15458 42cf 0D       		.uleb128 0xd
 15459 42d0 86190000 		.4byte	.LASF465
 15460 42d4 44       		.byte	0x44
 15461 42d5 C7       		.byte	0xc7
 15462 42d6 AD420000 		.4byte	0x42ad
 15463 42da 00       		.byte	0
 15464 42db 0D       		.uleb128 0xd
 15465 42dc EC200000 		.4byte	.LASF466
 15466 42e0 44       		.byte	0x44
 15467 42e1 CB       		.byte	0xcb
 15468 42e2 97430000 		.4byte	0x4397
 15469 42e6 04       		.byte	0x4
 15470 42e7 0D       		.uleb128 0xd
 15471 42e8 91280000 		.4byte	.LASF901
 15472 42ec 44       		.byte	0x44
 15473 42ed CF       		.byte	0xcf
 15474 42ee 9D430000 		.4byte	0x439d
 15475 42f2 08       		.byte	0x8
 15476 42f3 0D       		.uleb128 0xd
 15477 42f4 970C0000 		.4byte	.LASF472
 15478 42f8 44       		.byte	0x44
 15479 42f9 D3       		.byte	0xd3
 15480 42fa 4B230000 		.4byte	0x234b
 15481 42fe 0C       		.byte	0xc
 15482 42ff 0D       		.uleb128 0xd
 15483 4300 091C0000 		.4byte	.LASF473
 15484 4304 44       		.byte	0x44
 15485 4305 D7       		.byte	0xd7
 15486 4306 A9090000 		.4byte	0x9a9
 15487 430a 10       		.byte	0x10
 15488 430b 00       		.byte	0
 15489 430c 03       		.uleb128 0x3
 15490 430d 23100000 		.4byte	.LASF902
 15491 4311 44       		.byte	0x44
 15492 4312 A0       		.byte	0xa0
 15493 4313 17430000 		.4byte	0x4317
 15494 4317 05       		.uleb128 0x5
 15495 4318 04       		.byte	0x4
 15496 4319 1D430000 		.4byte	0x431d
 15497 431d 1F       		.uleb128 0x1f
 15498 431e 28430000 		.4byte	0x4328
 15499 4322 16       		.uleb128 0x16
 15500 4323 28430000 		.4byte	0x4328
 15501 4327 00       		.byte	0
 15502 4328 05       		.uleb128 0x5
 15503 4329 04       		.byte	0x4
 15504 432a B8420000 		.4byte	0x42b8
 15505 432e 03       		.uleb128 0x3
 15506 432f D61E0000 		.4byte	.LASF903
 15507 4333 44       		.byte	0x44
 15508 4334 A8       		.byte	0xa8
 15509 4335 39430000 		.4byte	0x4339
 15510 4339 05       		.uleb128 0x5
 15511 433a 04       		.byte	0x4
 15512 433b 3F430000 		.4byte	0x433f
 15513 433f 1F       		.uleb128 0x1f
 15514 4340 4F430000 		.4byte	0x434f
ARM GAS  C:\Users\Moi\AppData\Local\Temp\cchaECY7.s 			page 286


 15515 4344 16       		.uleb128 0x16
 15516 4345 28430000 		.4byte	0x4328
 15517 4349 16       		.uleb128 0x16
 15518 434a 64420000 		.4byte	0x4264
 15519 434e 00       		.byte	0
 15520 434f 0C       		.uleb128 0xc
 15521 4350 10       		.byte	0x10
 15522 4351 44       		.byte	0x44
 15523 4352 AD       		.byte	0xad
 15524 4353 87430000 		.4byte	0x4387
 15525 4357 0D       		.uleb128 0xd
 15526 4358 1A220000 		.4byte	.LASF904
 15527 435c 44       		.byte	0x44
 15528 435d B1       		.byte	0xb1
 15529 435e 0C430000 		.4byte	0x430c
 15530 4362 00       		.byte	0
 15531 4363 0D       		.uleb128 0xd
 15532 4364 312A0000 		.4byte	.LASF905
 15533 4368 44       		.byte	0x44
 15534 4369 B5       		.byte	0xb5
 15535 436a 0C430000 		.4byte	0x430c
 15536 436e 04       		.byte	0x4
 15537 436f 0D       		.uleb128 0xd
 15538 4370 B72B0000 		.4byte	.LASF479
 15539 4374 44       		.byte	0x44
 15540 4375 B9       		.byte	0xb9
 15541 4376 2E430000 		.4byte	0x432e
 15542 437a 08       		.byte	0x8
 15543 437b 11       		.uleb128 0x11
 15544 437c 637200   		.ascii	"cr\000"
 15545 437f 44       		.byte	0x44
 15546 4380 BD       		.byte	0xbd
 15547 4381 A9090000 		.4byte	0x9a9
 15548 4385 0C       		.byte	0xc
 15549 4386 00       		.byte	0
 15550 4387 03       		.uleb128 0x3
 15551 4388 4D2D0000 		.4byte	.LASF906
 15552 438c 44       		.byte	0x44
 15553 438d BE       		.byte	0xbe
 15554 438e 4F430000 		.4byte	0x434f
 15555 4392 0F       		.uleb128 0xf
 15556 4393 87430000 		.4byte	0x4387
 15557 4397 05       		.uleb128 0x5
 15558 4398 04       		.byte	0x4
 15559 4399 92430000 		.4byte	0x4392
 15560 439d 05       		.uleb128 0x5
 15561 439e 04       		.byte	0x4
 15562 439f BE120000 		.4byte	0x12be
 15563 43a3 27       		.uleb128 0x27
 15564 43a4 7B050000 		.4byte	.LASF907
 15565 43a8 44       		.byte	0x44
 15566 43a9 E3       		.byte	0xe3
 15567 43aa B8420000 		.4byte	0x42b8
 15568 43ae 2B       		.uleb128 0x2b
 15569 43af 07       		.byte	0x7
 15570 43b0 01       		.byte	0x1
 15571 43b1 69000000 		.4byte	0x69
ARM GAS  C:\Users\Moi\AppData\Local\Temp\cchaECY7.s 			page 287


 15572 43b5 45       		.byte	0x45
 15573 43b6 0B       		.byte	0xb
 15574 43b7 C8430000 		.4byte	0x43c8
 15575 43bb 23       		.uleb128 0x23
 15576 43bc DC1C0000 		.4byte	.LASF908
 15577 43c0 00       		.byte	0
 15578 43c1 23       		.uleb128 0x23
 15579 43c2 CA0B0000 		.4byte	.LASF909
 15580 43c6 01       		.byte	0x1
 15581 43c7 00       		.byte	0
 15582 43c8 27       		.uleb128 0x27
 15583 43c9 CB010000 		.4byte	.LASF910
 15584 43cd 46       		.byte	0x46
 15585 43ce 63       		.byte	0x63
 15586 43cf 6F010000 		.4byte	0x16f
 15587 43d3 03       		.uleb128 0x3
 15588 43d4 CD130000 		.4byte	.LASF911
 15589 43d8 47       		.byte	0x47
 15590 43d9 08       		.byte	0x8
 15591 43da DE430000 		.4byte	0x43de
 15592 43de 10       		.uleb128 0x10
 15593 43df 83240000 		.4byte	.LASF912
 15594 43e3 18       		.byte	0x18
 15595 43e4 47       		.byte	0x47
 15596 43e5 0B       		.byte	0xb
 15597 43e6 32440000 		.4byte	0x4432
 15598 43ea 11       		.uleb128 0x11
 15599 43eb 696400   		.ascii	"id\000"
 15600 43ee 47       		.byte	0x47
 15601 43ef 0C       		.byte	0xc
 15602 43f0 ED050000 		.4byte	0x5ed
 15603 43f4 00       		.byte	0
 15604 43f5 0D       		.uleb128 0xd
 15605 43f6 BF010000 		.4byte	.LASF913
 15606 43fa 47       		.byte	0x47
 15607 43fb 0D       		.byte	0xd
 15608 43fc 99090000 		.4byte	0x999
 15609 4400 04       		.byte	0x4
 15610 4401 0D       		.uleb128 0xd
 15611 4402 4F050000 		.4byte	.LASF914
 15612 4406 47       		.byte	0x47
 15613 4407 0E       		.byte	0xe
 15614 4408 9C440000 		.4byte	0x449c
 15615 440c 08       		.byte	0x8
 15616 440d 0D       		.uleb128 0xd
 15617 440e 380D0000 		.4byte	.LASF915
 15618 4412 47       		.byte	0x47
 15619 4413 0F       		.byte	0xf
 15620 4414 9C440000 		.4byte	0x449c
 15621 4418 0C       		.byte	0xc
 15622 4419 0D       		.uleb128 0xd
 15623 441a D1020000 		.4byte	.LASF916
 15624 441e 47       		.byte	0x47
 15625 441f 10       		.byte	0x10
 15626 4420 9C440000 		.4byte	0x449c
 15627 4424 10       		.byte	0x10
 15628 4425 0D       		.uleb128 0xd
ARM GAS  C:\Users\Moi\AppData\Local\Temp\cchaECY7.s 			page 288


 15629 4426 432C0000 		.4byte	.LASF917
 15630 442a 47       		.byte	0x47
 15631 442b 11       		.byte	0x11
 15632 442c A2440000 		.4byte	0x44a2
 15633 4430 14       		.byte	0x14
 15634 4431 00       		.byte	0
 15635 4432 03       		.uleb128 0x3
 15636 4433 D3170000 		.4byte	.LASF918
 15637 4437 47       		.byte	0x47
 15638 4438 09       		.byte	0x9
 15639 4439 3D440000 		.4byte	0x443d
 15640 443d 10       		.uleb128 0x10
 15641 443e 43120000 		.4byte	.LASF919
 15642 4442 18       		.byte	0x18
 15643 4443 47       		.byte	0x47
 15644 4444 2E       		.byte	0x2e
 15645 4445 9C440000 		.4byte	0x449c
 15646 4449 11       		.uleb128 0x11
 15647 444a 696400   		.ascii	"id\000"
 15648 444d 47       		.byte	0x47
 15649 444e 2F       		.byte	0x2f
 15650 444f ED050000 		.4byte	0x5ed
 15651 4453 00       		.byte	0
 15652 4454 11       		.uleb128 0x11
 15653 4455 6E7300   		.ascii	"ns\000"
 15654 4458 47       		.byte	0x47
 15655 4459 30       		.byte	0x30
 15656 445a 9C440000 		.4byte	0x449c
 15657 445e 04       		.byte	0x4
 15658 445f 0D       		.uleb128 0xd
 15659 4460 D1020000 		.4byte	.LASF916
 15660 4464 47       		.byte	0x47
 15661 4465 31       		.byte	0x31
 15662 4466 A2440000 		.4byte	0x44a2
 15663 446a 08       		.byte	0x8
 15664 446b 0D       		.uleb128 0xd
 15665 446c 57220000 		.4byte	.LASF920
 15666 4470 47       		.byte	0x47
 15667 4471 32       		.byte	0x32
 15668 4472 911E0000 		.4byte	0x1e91
 15669 4476 0C       		.byte	0xc
 15670 4477 0D       		.uleb128 0xd
 15671 4478 02130000 		.4byte	.LASF921
 15672 447c 47       		.byte	0x47
 15673 447d 33       		.byte	0x33
 15674 447e 911E0000 		.4byte	0x1e91
 15675 4482 0D       		.byte	0xd
 15676 4483 0D       		.uleb128 0xd
 15677 4484 ED080000 		.4byte	.LASF922
 15678 4488 47       		.byte	0x47
 15679 4489 34       		.byte	0x34
 15680 448a 73090000 		.4byte	0x973
 15681 448e 0E       		.byte	0xe
 15682 448f 0D       		.uleb128 0xd
 15683 4490 320E0000 		.4byte	.LASF923
 15684 4494 47       		.byte	0x47
 15685 4495 3C       		.byte	0x3c
ARM GAS  C:\Users\Moi\AppData\Local\Temp\cchaECY7.s 			page 289


 15686 4496 3D450000 		.4byte	0x453d
 15687 449a 10       		.byte	0x10
 15688 449b 00       		.byte	0
 15689 449c 05       		.uleb128 0x5
 15690 449d 04       		.byte	0x4
 15691 449e D3430000 		.4byte	0x43d3
 15692 44a2 05       		.uleb128 0x5
 15693 44a3 04       		.byte	0x4
 15694 44a4 32440000 		.4byte	0x4432
 15695 44a8 10       		.uleb128 0x10
 15696 44a9 C01A0000 		.4byte	.LASF924
 15697 44ad 08       		.byte	0x8
 15698 44ae 47       		.byte	0x47
 15699 44af 14       		.byte	0x14
 15700 44b0 D9440000 		.4byte	0x44d9
 15701 44b4 11       		.uleb128 0x11
 15702 44b5 62756600 		.ascii	"buf\000"
 15703 44b9 47       		.byte	0x47
 15704 44ba 15       		.byte	0x15
 15705 44bb 6F010000 		.4byte	0x16f
 15706 44bf 00       		.byte	0
 15707 44c0 0D       		.uleb128 0xd
 15708 44c1 E62B0000 		.4byte	.LASF925
 15709 44c5 47       		.byte	0x47
 15710 44c6 16       		.byte	0x16
 15711 44c7 8E090000 		.4byte	0x98e
 15712 44cb 04       		.byte	0x4
 15713 44cc 11       		.uleb128 0x11
 15714 44cd 6C656E00 		.ascii	"len\000"
 15715 44d1 47       		.byte	0x47
 15716 44d2 17       		.byte	0x17
 15717 44d3 8E090000 		.4byte	0x98e
 15718 44d7 06       		.byte	0x6
 15719 44d8 00       		.byte	0
 15720 44d9 10       		.uleb128 0x10
 15721 44da 26190000 		.4byte	.LASF926
 15722 44de 08       		.byte	0x8
 15723 44df 47       		.byte	0x47
 15724 44e0 1A       		.byte	0x1a
 15725 44e1 0A450000 		.4byte	0x450a
 15726 44e5 11       		.uleb128 0x11
 15727 44e6 62756600 		.ascii	"buf\000"
 15728 44ea 47       		.byte	0x47
 15729 44eb 1B       		.byte	0x1b
 15730 44ec 0A450000 		.4byte	0x450a
 15731 44f0 00       		.byte	0
 15732 44f1 0D       		.uleb128 0xd
 15733 44f2 8E0A0000 		.4byte	.LASF927
 15734 44f6 47       		.byte	0x47
 15735 44f7 1C       		.byte	0x1c
 15736 44f8 8E090000 		.4byte	0x98e
 15737 44fc 04       		.byte	0x4
 15738 44fd 11       		.uleb128 0x11
 15739 44fe 64696D00 		.ascii	"dim\000"
 15740 4502 47       		.byte	0x47
 15741 4503 1D       		.byte	0x1d
 15742 4504 8E090000 		.4byte	0x98e
ARM GAS  C:\Users\Moi\AppData\Local\Temp\cchaECY7.s 			page 290


 15743 4508 06       		.byte	0x6
 15744 4509 00       		.byte	0
 15745 450a 05       		.uleb128 0x5
 15746 450b 04       		.byte	0x4
 15747 450c F6080000 		.4byte	0x8f6
 15748 4510 10       		.uleb128 0x10
 15749 4511 C0110000 		.4byte	.LASF928
 15750 4515 08       		.byte	0x8
 15751 4516 47       		.byte	0x47
 15752 4517 20       		.byte	0x20
 15753 4518 3D450000 		.4byte	0x453d
 15754 451c 11       		.uleb128 0x11
 15755 451d 62756600 		.ascii	"buf\000"
 15756 4521 47       		.byte	0x47
 15757 4522 21       		.byte	0x21
 15758 4523 0A450000 		.4byte	0x450a
 15759 4527 00       		.byte	0
 15760 4528 11       		.uleb128 0x11
 15761 4529 6E00     		.ascii	"n\000"
 15762 452b 47       		.byte	0x47
 15763 452c 22       		.byte	0x22
 15764 452d 8E090000 		.4byte	0x98e
 15765 4531 04       		.byte	0x4
 15766 4532 11       		.uleb128 0x11
 15767 4533 6D00     		.ascii	"m\000"
 15768 4535 47       		.byte	0x47
 15769 4536 23       		.byte	0x23
 15770 4537 8E090000 		.4byte	0x98e
 15771 453b 06       		.byte	0x6
 15772 453c 00       		.byte	0
 15773 453d 08       		.uleb128 0x8
 15774 453e 08       		.byte	0x8
 15775 453f 47       		.byte	0x47
 15776 4540 35       		.byte	0x35
 15777 4541 82450000 		.4byte	0x4582
 15778 4545 2C       		.uleb128 0x2c
 15779 4546 6200     		.ascii	"b\000"
 15780 4548 47       		.byte	0x47
 15781 4549 36       		.byte	0x36
 15782 454a 911E0000 		.4byte	0x1e91
 15783 454e 2C       		.uleb128 0x2c
 15784 454f 7300     		.ascii	"s\000"
 15785 4551 47       		.byte	0x47
 15786 4552 37       		.byte	0x37
 15787 4553 F6080000 		.4byte	0x8f6
 15788 4557 2C       		.uleb128 0x2c
 15789 4558 6900     		.ascii	"i\000"
 15790 455a 47       		.byte	0x47
 15791 455b 38       		.byte	0x38
 15792 455c 99090000 		.4byte	0x999
 15793 4560 2C       		.uleb128 0x2c
 15794 4561 73747200 		.ascii	"str\000"
 15795 4565 47       		.byte	0x47
 15796 4566 39       		.byte	0x39
 15797 4567 A8440000 		.4byte	0x44a8
 15798 456b 09       		.uleb128 0x9
 15799 456c 00010000 		.4byte	.LASF929
ARM GAS  C:\Users\Moi\AppData\Local\Temp\cchaECY7.s 			page 291


 15800 4570 47       		.byte	0x47
 15801 4571 3A       		.byte	0x3a
 15802 4572 D9440000 		.4byte	0x44d9
 15803 4576 2C       		.uleb128 0x2c
 15804 4577 6D617400 		.ascii	"mat\000"
 15805 457b 47       		.byte	0x47
 15806 457c 3B       		.byte	0x3b
 15807 457d 10450000 		.4byte	0x4510
 15808 4581 00       		.byte	0
 15809 4582 27       		.uleb128 0x27
 15810 4583 F00A0000 		.4byte	.LASF930
 15811 4587 48       		.byte	0x48
 15812 4588 10       		.byte	0x10
 15813 4589 06410000 		.4byte	0x4106
 15814 458d 27       		.uleb128 0x27
 15815 458e 63080000 		.4byte	.LASF931
 15816 4592 48       		.byte	0x48
 15817 4593 E8       		.byte	0xe8
 15818 4594 6F010000 		.4byte	0x16f
 15819 4598 27       		.uleb128 0x27
 15820 4599 ED290000 		.4byte	.LASF932
 15821 459d 48       		.byte	0x48
 15822 459e E9       		.byte	0xe9
 15823 459f 25000000 		.4byte	0x25
 15824 45a3 27       		.uleb128 0x27
 15825 45a4 FD0E0000 		.4byte	.LASF933
 15826 45a8 48       		.byte	0x48
 15827 45a9 E9       		.byte	0xe9
 15828 45aa 25000000 		.4byte	0x25
 15829 45ae 27       		.uleb128 0x27
 15830 45af F5160000 		.4byte	.LASF934
 15831 45b3 48       		.byte	0x48
 15832 45b4 E9       		.byte	0xe9
 15833 45b5 25000000 		.4byte	0x25
 15834 45b9 27       		.uleb128 0x27
 15835 45ba D7090000 		.4byte	.LASF935
 15836 45be 48       		.byte	0x48
 15837 45bf EB       		.byte	0xeb
 15838 45c0 25000000 		.4byte	0x25
 15839 45c4 10       		.uleb128 0x10
 15840 45c5 B9260000 		.4byte	.LASF936
 15841 45c9 5C       		.byte	0x5c
 15842 45ca 49       		.byte	0x49
 15843 45cb 0C       		.byte	0xc
 15844 45cc 31460000 		.4byte	0x4631
 15845 45d0 0D       		.uleb128 0xd
 15846 45d1 6F200000 		.4byte	.LASF851
 15847 45d5 49       		.byte	0x49
 15848 45d6 0D       		.byte	0xd
 15849 45d7 68010000 		.4byte	0x168
 15850 45db 00       		.byte	0
 15851 45dc 0D       		.uleb128 0xd
 15852 45dd CA050000 		.4byte	.LASF937
 15853 45e1 49       		.byte	0x49
 15854 45e2 0E       		.byte	0xe
 15855 45e3 2C000000 		.4byte	0x2c
 15856 45e7 04       		.byte	0x4
ARM GAS  C:\Users\Moi\AppData\Local\Temp\cchaECY7.s 			page 292


 15857 45e8 0D       		.uleb128 0xd
 15858 45e9 9E0C0000 		.4byte	.LASF938
 15859 45ed 49       		.byte	0x49
 15860 45ee 0F       		.byte	0xf
 15861 45ef 68010000 		.4byte	0x168
 15862 45f3 08       		.byte	0x8
 15863 45f4 0D       		.uleb128 0xd
 15864 45f5 1E080000 		.4byte	.LASF939
 15865 45f9 49       		.byte	0x49
 15866 45fa 10       		.byte	0x10
 15867 45fb 68010000 		.4byte	0x168
 15868 45ff 0C       		.byte	0xc
 15869 4600 0D       		.uleb128 0xd
 15870 4601 2F290000 		.4byte	.LASF940
 15871 4605 49       		.byte	0x49
 15872 4606 11       		.byte	0x11
 15873 4607 31460000 		.4byte	0x4631
 15874 460b 10       		.byte	0x10
 15875 460c 0D       		.uleb128 0xd
 15876 460d DA010000 		.4byte	.LASF941
 15877 4611 49       		.byte	0x49
 15878 4612 12       		.byte	0x12
 15879 4613 911E0000 		.4byte	0x1e91
 15880 4617 51       		.byte	0x51
 15881 4618 0D       		.uleb128 0xd
 15882 4619 7F250000 		.4byte	.LASF942
 15883 461d 49       		.byte	0x49
 15884 461e 13       		.byte	0x13
 15885 461f 66460000 		.4byte	0x4666
 15886 4623 54       		.byte	0x54
 15887 4624 0D       		.uleb128 0xd
 15888 4625 D1020000 		.4byte	.LASF916
 15889 4629 49       		.byte	0x49
 15890 462a 14       		.byte	0x14
 15891 462b 6C460000 		.4byte	0x466c
 15892 462f 58       		.byte	0x58
 15893 4630 00       		.byte	0
 15894 4631 0A       		.uleb128 0xa
 15895 4632 75010000 		.4byte	0x175
 15896 4636 41460000 		.4byte	0x4641
 15897 463a 0B       		.uleb128 0xb
 15898 463b 37000000 		.4byte	0x37
 15899 463f 40       		.byte	0x40
 15900 4640 00       		.byte	0
 15901 4641 10       		.uleb128 0x10
 15902 4642 32000000 		.4byte	.LASF943
 15903 4646 08       		.byte	0x8
 15904 4647 49       		.byte	0x49
 15905 4648 25       		.byte	0x25
 15906 4649 66460000 		.4byte	0x4666
 15907 464d 0D       		.uleb128 0xd
 15908 464e FE230000 		.4byte	.LASF944
 15909 4652 49       		.byte	0x49
 15910 4653 26       		.byte	0x26
 15911 4654 0C470000 		.4byte	0x470c
 15912 4658 00       		.byte	0
 15913 4659 0D       		.uleb128 0xd
ARM GAS  C:\Users\Moi\AppData\Local\Temp\cchaECY7.s 			page 293


 15914 465a D1020000 		.4byte	.LASF916
 15915 465e 49       		.byte	0x49
 15916 465f 27       		.byte	0x27
 15917 4660 66460000 		.4byte	0x4666
 15918 4664 04       		.byte	0x4
 15919 4665 00       		.byte	0
 15920 4666 05       		.uleb128 0x5
 15921 4667 04       		.byte	0x4
 15922 4668 41460000 		.4byte	0x4641
 15923 466c 05       		.uleb128 0x5
 15924 466d 04       		.byte	0x4
 15925 466e C4450000 		.4byte	0x45c4
 15926 4672 03       		.uleb128 0x3
 15927 4673 D41B0000 		.4byte	.LASF945
 15928 4677 49       		.byte	0x49
 15929 4678 15       		.byte	0x15
 15930 4679 C4450000 		.4byte	0x45c4
 15931 467d 0C       		.uleb128 0xc
 15932 467e 04       		.byte	0x4
 15933 467f 49       		.byte	0x49
 15934 4680 18       		.byte	0x18
 15935 4681 92460000 		.4byte	0x4692
 15936 4685 0D       		.uleb128 0xd
 15937 4686 350C0000 		.4byte	.LASF946
 15938 468a 49       		.byte	0x49
 15939 468b 19       		.byte	0x19
 15940 468c 92460000 		.4byte	0x4692
 15941 4690 00       		.byte	0
 15942 4691 00       		.byte	0
 15943 4692 05       		.uleb128 0x5
 15944 4693 04       		.byte	0x4
 15945 4694 72460000 		.4byte	0x4672
 15946 4698 0C       		.uleb128 0xc
 15947 4699 0C       		.byte	0xc
 15948 469a 49       		.byte	0x49
 15949 469b 17       		.byte	0x17
 15950 469c C5460000 		.4byte	0x46c5
 15951 46a0 0D       		.uleb128 0xd
 15952 46a1 20270000 		.4byte	.LASF947
 15953 46a5 49       		.byte	0x49
 15954 46a6 1A       		.byte	0x1a
 15955 46a7 7D460000 		.4byte	0x467d
 15956 46ab 00       		.byte	0
 15957 46ac 0D       		.uleb128 0xd
 15958 46ad 9E0C0000 		.4byte	.LASF938
 15959 46b1 49       		.byte	0x49
 15960 46b2 1B       		.byte	0x1b
 15961 46b3 68010000 		.4byte	0x168
 15962 46b7 04       		.byte	0x4
 15963 46b8 0D       		.uleb128 0xd
 15964 46b9 1E080000 		.4byte	.LASF939
 15965 46bd 49       		.byte	0x49
 15966 46be 1C       		.byte	0x1c
 15967 46bf 68010000 		.4byte	0x168
 15968 46c3 08       		.byte	0x8
 15969 46c4 00       		.byte	0
 15970 46c5 03       		.uleb128 0x3
ARM GAS  C:\Users\Moi\AppData\Local\Temp\cchaECY7.s 			page 294


 15971 46c6 22120000 		.4byte	.LASF948
 15972 46ca 49       		.byte	0x49
 15973 46cb 1D       		.byte	0x1d
 15974 46cc 98460000 		.4byte	0x4698
 15975 46d0 10       		.uleb128 0x10
 15976 46d1 521E0000 		.4byte	.LASF949
 15977 46d5 0C       		.byte	0xc
 15978 46d6 49       		.byte	0x49
 15979 46d7 1F       		.byte	0x1f
 15980 46d8 01470000 		.4byte	0x4701
 15981 46dc 0D       		.uleb128 0xd
 15982 46dd 9E0C0000 		.4byte	.LASF938
 15983 46e1 49       		.byte	0x49
 15984 46e2 20       		.byte	0x20
 15985 46e3 68010000 		.4byte	0x168
 15986 46e7 00       		.byte	0
 15987 46e8 0D       		.uleb128 0xd
 15988 46e9 1E080000 		.4byte	.LASF939
 15989 46ed 49       		.byte	0x49
 15990 46ee 21       		.byte	0x21
 15991 46ef 68010000 		.4byte	0x168
 15992 46f3 04       		.byte	0x4
 15993 46f4 0D       		.uleb128 0xd
 15994 46f5 6B050000 		.4byte	.LASF950
 15995 46f9 49       		.byte	0x49
 15996 46fa 22       		.byte	0x22
 15997 46fb 92460000 		.4byte	0x4692
 15998 46ff 08       		.byte	0x8
 15999 4700 00       		.byte	0
 16000 4701 03       		.uleb128 0x3
 16001 4702 ED1F0000 		.4byte	.LASF951
 16002 4706 49       		.byte	0x49
 16003 4707 23       		.byte	0x23
 16004 4708 D0460000 		.4byte	0x46d0
 16005 470c 05       		.uleb128 0x5
 16006 470d 04       		.byte	0x4
 16007 470e 01470000 		.4byte	0x4701
 16008 4712 34       		.uleb128 0x34
 16009 4713 62757300 		.ascii	"bus\000"
 16010 4717 4A       		.byte	0x4a
 16011 4718 0C       		.byte	0xc
 16012 4719 C5460000 		.4byte	0x46c5
 16013 471d 27       		.uleb128 0x27
 16014 471e A90F0000 		.4byte	.LASF952
 16015 4722 4A       		.byte	0x4a
 16016 4723 0D       		.byte	0xd
 16017 4724 D3430000 		.4byte	0x43d3
 16018 4728 03       		.uleb128 0x3
 16019 4729 94030000 		.4byte	.LASF953
 16020 472d 4B       		.byte	0x4b
 16021 472e 10       		.byte	0x10
 16022 472f 69000000 		.4byte	0x69
 16023 4733 03       		.uleb128 0x3
 16024 4734 B7150000 		.4byte	.LASF954
 16025 4738 4B       		.byte	0x4b
 16026 4739 14       		.byte	0x14
 16027 473a 8D000000 		.4byte	0x8d
ARM GAS  C:\Users\Moi\AppData\Local\Temp\cchaECY7.s 			page 295


 16028 473e 03       		.uleb128 0x3
 16029 473f 361B0000 		.4byte	.LASF955
 16030 4743 4B       		.byte	0x4b
 16031 4744 19       		.byte	0x19
 16032 4745 37000000 		.4byte	0x37
 16033 4749 03       		.uleb128 0x3
 16034 474a F1040000 		.4byte	.LASF956
 16035 474e 4B       		.byte	0x4b
 16036 474f 1D       		.byte	0x1d
 16037 4750 B1000000 		.4byte	0xb1
 16038 4754 29       		.uleb128 0x29
 16039 4755 3002     		.2byte	0x230
 16040 4757 4C       		.byte	0x4c
 16041 4758 4D       		.byte	0x4d
 16042 4759 35480000 		.4byte	0x4835
 16043 475d 0D       		.uleb128 0xd
 16044 475e 89280000 		.4byte	.LASF957
 16045 4762 4C       		.byte	0x4c
 16046 4763 4E       		.byte	0x4e
 16047 4764 28470000 		.4byte	0x4728
 16048 4768 00       		.byte	0
 16049 4769 11       		.uleb128 0x11
 16050 476a 64727600 		.ascii	"drv\000"
 16051 476e 4C       		.byte	0x4c
 16052 476f 4F       		.byte	0x4f
 16053 4770 28470000 		.4byte	0x4728
 16054 4774 01       		.byte	0x1
 16055 4775 0D       		.uleb128 0xd
 16056 4776 C1160000 		.4byte	.LASF958
 16057 477a 4C       		.byte	0x4c
 16058 477b 50       		.byte	0x50
 16059 477c 28470000 		.4byte	0x4728
 16060 4780 02       		.byte	0x2
 16061 4781 0D       		.uleb128 0xd
 16062 4782 322C0000 		.4byte	.LASF959
 16063 4786 4C       		.byte	0x4c
 16064 4787 51       		.byte	0x51
 16065 4788 28470000 		.4byte	0x4728
 16066 478c 03       		.byte	0x3
 16067 478d 0D       		.uleb128 0xd
 16068 478e 6A260000 		.4byte	.LASF960
 16069 4792 4C       		.byte	0x4c
 16070 4793 52       		.byte	0x52
 16071 4794 28470000 		.4byte	0x4728
 16072 4798 04       		.byte	0x4
 16073 4799 0D       		.uleb128 0xd
 16074 479a 10200000 		.4byte	.LASF961
 16075 479e 4C       		.byte	0x4c
 16076 479f 53       		.byte	0x53
 16077 47a0 28470000 		.4byte	0x4728
 16078 47a4 05       		.byte	0x5
 16079 47a5 11       		.uleb128 0x11
 16080 47a6 696400   		.ascii	"id\000"
 16081 47a9 4C       		.byte	0x4c
 16082 47aa 54       		.byte	0x54
 16083 47ab 33470000 		.4byte	0x4733
 16084 47af 06       		.byte	0x6
ARM GAS  C:\Users\Moi\AppData\Local\Temp\cchaECY7.s 			page 296


 16085 47b0 0D       		.uleb128 0xd
 16086 47b1 A22C0000 		.4byte	.LASF962
 16087 47b5 4C       		.byte	0x4c
 16088 47b6 55       		.byte	0x55
 16089 47b7 33470000 		.4byte	0x4733
 16090 47bb 08       		.byte	0x8
 16091 47bc 0D       		.uleb128 0xd
 16092 47bd F91B0000 		.4byte	.LASF963
 16093 47c1 4C       		.byte	0x4c
 16094 47c2 5D       		.byte	0x5d
 16095 47c3 49470000 		.4byte	0x4749
 16096 47c7 0C       		.byte	0xc
 16097 47c8 0D       		.uleb128 0xd
 16098 47c9 EA000000 		.4byte	.LASF964
 16099 47cd 4C       		.byte	0x4c
 16100 47ce 5E       		.byte	0x5e
 16101 47cf 49470000 		.4byte	0x4749
 16102 47d3 10       		.byte	0x10
 16103 47d4 0D       		.uleb128 0xd
 16104 47d5 8A0D0000 		.4byte	.LASF965
 16105 47d9 4C       		.byte	0x4c
 16106 47da 63       		.byte	0x63
 16107 47db 49470000 		.4byte	0x4749
 16108 47df 14       		.byte	0x14
 16109 47e0 0D       		.uleb128 0xd
 16110 47e1 34180000 		.4byte	.LASF966
 16111 47e5 4C       		.byte	0x4c
 16112 47e6 64       		.byte	0x64
 16113 47e7 49470000 		.4byte	0x4749
 16114 47eb 18       		.byte	0x18
 16115 47ec 0D       		.uleb128 0xd
 16116 47ed 210F0000 		.4byte	.LASF967
 16117 47f1 4C       		.byte	0x4c
 16118 47f2 65       		.byte	0x65
 16119 47f3 49470000 		.4byte	0x4749
 16120 47f7 1C       		.byte	0x1c
 16121 47f8 0D       		.uleb128 0xd
 16122 47f9 8F140000 		.4byte	.LASF968
 16123 47fd 4C       		.byte	0x4c
 16124 47fe 66       		.byte	0x66
 16125 47ff 49470000 		.4byte	0x4749
 16126 4803 20       		.byte	0x20
 16127 4804 0D       		.uleb128 0xd
 16128 4805 25020000 		.4byte	.LASF969
 16129 4809 4C       		.byte	0x4c
 16130 480a 67       		.byte	0x67
 16131 480b 49470000 		.4byte	0x4749
 16132 480f 24       		.byte	0x24
 16133 4810 0D       		.uleb128 0xd
 16134 4811 AF1B0000 		.4byte	.LASF970
 16135 4815 4C       		.byte	0x4c
 16136 4816 68       		.byte	0x68
 16137 4817 49470000 		.4byte	0x4749
 16138 481b 28       		.byte	0x28
 16139 481c 0D       		.uleb128 0xd
 16140 481d 4F0D0000 		.4byte	.LASF971
 16141 4821 4C       		.byte	0x4c
ARM GAS  C:\Users\Moi\AppData\Local\Temp\cchaECY7.s 			page 297


 16142 4822 69       		.byte	0x69
 16143 4823 49470000 		.4byte	0x4749
 16144 4827 2C       		.byte	0x2c
 16145 4828 11       		.uleb128 0x11
 16146 4829 77696E00 		.ascii	"win\000"
 16147 482d 4C       		.byte	0x4c
 16148 482e 6A       		.byte	0x6a
 16149 482f 35480000 		.4byte	0x4835
 16150 4833 30       		.byte	0x30
 16151 4834 00       		.byte	0
 16152 4835 0A       		.uleb128 0xa
 16153 4836 28470000 		.4byte	0x4728
 16154 483a 46480000 		.4byte	0x4846
 16155 483e 31       		.uleb128 0x31
 16156 483f 37000000 		.4byte	0x37
 16157 4843 FF01     		.2byte	0x1ff
 16158 4845 00       		.byte	0
 16159 4846 03       		.uleb128 0x3
 16160 4847 30130000 		.4byte	.LASF972
 16161 484b 4C       		.byte	0x4c
 16162 484c 6B       		.byte	0x6b
 16163 484d 54470000 		.4byte	0x4754
 16164 4851 29       		.uleb128 0x29
 16165 4852 2802     		.2byte	0x228
 16166 4854 4C       		.byte	0x4c
 16167 4855 71       		.byte	0x71
 16168 4856 F5480000 		.4byte	0x48f5
 16169 485a 11       		.uleb128 0x11
 16170 485b 667300   		.ascii	"fs\000"
 16171 485e 4C       		.byte	0x4c
 16172 485f 72       		.byte	0x72
 16173 4860 F5480000 		.4byte	0x48f5
 16174 4864 00       		.byte	0
 16175 4865 11       		.uleb128 0x11
 16176 4866 696400   		.ascii	"id\000"
 16177 4869 4C       		.byte	0x4c
 16178 486a 73       		.byte	0x73
 16179 486b 33470000 		.4byte	0x4733
 16180 486f 04       		.byte	0x4
 16181 4870 0D       		.uleb128 0xd
 16182 4871 B2160000 		.4byte	.LASF973
 16183 4875 4C       		.byte	0x4c
 16184 4876 74       		.byte	0x74
 16185 4877 28470000 		.4byte	0x4728
 16186 487b 06       		.byte	0x6
 16187 487c 11       		.uleb128 0x11
 16188 487d 65727200 		.ascii	"err\000"
 16189 4881 4C       		.byte	0x4c
 16190 4882 75       		.byte	0x75
 16191 4883 28470000 		.4byte	0x4728
 16192 4887 07       		.byte	0x7
 16193 4888 0D       		.uleb128 0xd
 16194 4889 26010000 		.4byte	.LASF974
 16195 488d 4C       		.byte	0x4c
 16196 488e 76       		.byte	0x76
 16197 488f 49470000 		.4byte	0x4749
 16198 4893 08       		.byte	0x8
ARM GAS  C:\Users\Moi\AppData\Local\Temp\cchaECY7.s 			page 298


 16199 4894 0D       		.uleb128 0xd
 16200 4895 34180000 		.4byte	.LASF966
 16201 4899 4C       		.byte	0x4c
 16202 489a 77       		.byte	0x77
 16203 489b 49470000 		.4byte	0x4749
 16204 489f 0C       		.byte	0xc
 16205 48a0 0D       		.uleb128 0xd
 16206 48a1 741A0000 		.4byte	.LASF975
 16207 48a5 4C       		.byte	0x4c
 16208 48a6 78       		.byte	0x78
 16209 48a7 49470000 		.4byte	0x4749
 16210 48ab 10       		.byte	0x10
 16211 48ac 0D       		.uleb128 0xd
 16212 48ad 2C080000 		.4byte	.LASF976
 16213 48b1 4C       		.byte	0x4c
 16214 48b2 79       		.byte	0x79
 16215 48b3 49470000 		.4byte	0x4749
 16216 48b7 14       		.byte	0x14
 16217 48b8 0D       		.uleb128 0xd
 16218 48b9 B9020000 		.4byte	.LASF977
 16219 48bd 4C       		.byte	0x4c
 16220 48be 7A       		.byte	0x7a
 16221 48bf 49470000 		.4byte	0x4749
 16222 48c3 18       		.byte	0x18
 16223 48c4 0D       		.uleb128 0xd
 16224 48c5 810C0000 		.4byte	.LASF978
 16225 48c9 4C       		.byte	0x4c
 16226 48ca 7C       		.byte	0x7c
 16227 48cb 49470000 		.4byte	0x4749
 16228 48cf 1C       		.byte	0x1c
 16229 48d0 0D       		.uleb128 0xd
 16230 48d1 F7070000 		.4byte	.LASF979
 16231 48d5 4C       		.byte	0x4c
 16232 48d6 7D       		.byte	0x7d
 16233 48d7 FB480000 		.4byte	0x48fb
 16234 48db 20       		.byte	0x20
 16235 48dc 0D       		.uleb128 0xd
 16236 48dd 54250000 		.4byte	.LASF980
 16237 48e1 4C       		.byte	0x4c
 16238 48e2 80       		.byte	0x80
 16239 48e3 01490000 		.4byte	0x4901
 16240 48e7 24       		.byte	0x24
 16241 48e8 11       		.uleb128 0x11
 16242 48e9 62756600 		.ascii	"buf\000"
 16243 48ed 4C       		.byte	0x4c
 16244 48ee 86       		.byte	0x86
 16245 48ef 35480000 		.4byte	0x4835
 16246 48f3 28       		.byte	0x28
 16247 48f4 00       		.byte	0
 16248 48f5 05       		.uleb128 0x5
 16249 48f6 04       		.byte	0x4
 16250 48f7 46480000 		.4byte	0x4846
 16251 48fb 05       		.uleb128 0x5
 16252 48fc 04       		.byte	0x4
 16253 48fd 28470000 		.4byte	0x4728
 16254 4901 05       		.uleb128 0x5
 16255 4902 04       		.byte	0x4
ARM GAS  C:\Users\Moi\AppData\Local\Temp\cchaECY7.s 			page 299


 16256 4903 49470000 		.4byte	0x4749
 16257 4907 35       		.uleb128 0x35
 16258 4908 46494C00 		.ascii	"FIL\000"
 16259 490c 4C       		.byte	0x4c
 16260 490d 88       		.byte	0x88
 16261 490e 51480000 		.4byte	0x4851
 16262 4912 2B       		.uleb128 0x2b
 16263 4913 07       		.byte	0x7
 16264 4914 01       		.byte	0x1
 16265 4915 69000000 		.4byte	0x69
 16266 4919 4C       		.byte	0x4c
 16267 491a B4       		.byte	0xb4
 16268 491b 98490000 		.4byte	0x4998
 16269 491f 23       		.uleb128 0x23
 16270 4920 B3260000 		.4byte	.LASF981
 16271 4924 00       		.byte	0
 16272 4925 23       		.uleb128 0x23
 16273 4926 962C0000 		.4byte	.LASF982
 16274 492a 01       		.byte	0x1
 16275 492b 23       		.uleb128 0x23
 16276 492c EF240000 		.4byte	.LASF983
 16277 4930 02       		.byte	0x2
 16278 4931 23       		.uleb128 0x23
 16279 4932 6E270000 		.4byte	.LASF984
 16280 4936 03       		.byte	0x3
 16281 4937 23       		.uleb128 0x23
 16282 4938 EA1E0000 		.4byte	.LASF985
 16283 493c 04       		.byte	0x4
 16284 493d 23       		.uleb128 0x23
 16285 493e BC280000 		.4byte	.LASF986
 16286 4942 05       		.byte	0x5
 16287 4943 23       		.uleb128 0x23
 16288 4944 D70C0000 		.4byte	.LASF987
 16289 4948 06       		.byte	0x6
 16290 4949 23       		.uleb128 0x23
 16291 494a 892E0000 		.4byte	.LASF988
 16292 494e 07       		.byte	0x7
 16293 494f 23       		.uleb128 0x23
 16294 4950 E6240000 		.4byte	.LASF989
 16295 4954 08       		.byte	0x8
 16296 4955 23       		.uleb128 0x23
 16297 4956 B8180000 		.4byte	.LASF990
 16298 495a 09       		.byte	0x9
 16299 495b 23       		.uleb128 0x23
 16300 495c 39060000 		.4byte	.LASF991
 16301 4960 0A       		.byte	0xa
 16302 4961 23       		.uleb128 0x23
 16303 4962 25250000 		.4byte	.LASF992
 16304 4966 0B       		.byte	0xb
 16305 4967 23       		.uleb128 0x23
 16306 4968 19200000 		.4byte	.LASF993
 16307 496c 0C       		.byte	0xc
 16308 496d 23       		.uleb128 0x23
 16309 496e 3A0A0000 		.4byte	.LASF994
 16310 4972 0D       		.byte	0xd
 16311 4973 23       		.uleb128 0x23
 16312 4974 A7010000 		.4byte	.LASF995
ARM GAS  C:\Users\Moi\AppData\Local\Temp\cchaECY7.s 			page 300


 16313 4978 0E       		.byte	0xe
 16314 4979 23       		.uleb128 0x23
 16315 497a B60A0000 		.4byte	.LASF996
 16316 497e 0F       		.byte	0xf
 16317 497f 23       		.uleb128 0x23
 16318 4980 5A290000 		.4byte	.LASF997
 16319 4984 10       		.byte	0x10
 16320 4985 23       		.uleb128 0x23
 16321 4986 722C0000 		.4byte	.LASF998
 16322 498a 11       		.byte	0x11
 16323 498b 23       		.uleb128 0x23
 16324 498c D3000000 		.4byte	.LASF999
 16325 4990 12       		.byte	0x12
 16326 4991 23       		.uleb128 0x23
 16327 4992 17030000 		.4byte	.LASF1000
 16328 4996 13       		.byte	0x13
 16329 4997 00       		.byte	0
 16330 4998 03       		.uleb128 0x3
 16331 4999 C01E0000 		.4byte	.LASF1001
 16332 499d 4C       		.byte	0x4c
 16333 499e C9       		.byte	0xc9
 16334 499f 12490000 		.4byte	0x4912
 16335 49a3 2B       		.uleb128 0x2b
 16336 49a4 07       		.byte	0x7
 16337 49a5 01       		.byte	0x1
 16338 49a6 69000000 		.4byte	0x69
 16339 49aa 4D       		.byte	0x4d
 16340 49ab 1B       		.byte	0x1b
 16341 49ac C3490000 		.4byte	0x49c3
 16342 49b0 23       		.uleb128 0x23
 16343 49b1 73220000 		.4byte	.LASF1002
 16344 49b5 00       		.byte	0
 16345 49b6 23       		.uleb128 0x23
 16346 49b7 57260000 		.4byte	.LASF1003
 16347 49bb 01       		.byte	0x1
 16348 49bc 23       		.uleb128 0x23
 16349 49bd 2F050000 		.4byte	.LASF1004
 16350 49c1 02       		.byte	0x2
 16351 49c2 00       		.byte	0
 16352 49c3 2B       		.uleb128 0x2b
 16353 49c4 07       		.byte	0x7
 16354 49c5 01       		.byte	0x1
 16355 49c6 69000000 		.4byte	0x69
 16356 49ca 4E       		.byte	0x4e
 16357 49cb 86       		.byte	0x86
 16358 49cc E3490000 		.4byte	0x49e3
 16359 49d0 23       		.uleb128 0x23
 16360 49d1 62010000 		.4byte	.LASF1005
 16361 49d5 00       		.byte	0
 16362 49d6 23       		.uleb128 0x23
 16363 49d7 7A1F0000 		.4byte	.LASF1006
 16364 49db 01       		.byte	0x1
 16365 49dc 23       		.uleb128 0x23
 16366 49dd 571A0000 		.4byte	.LASF1007
 16367 49e1 02       		.byte	0x2
 16368 49e2 00       		.byte	0
 16369 49e3 0A       		.uleb128 0xa
ARM GAS  C:\Users\Moi\AppData\Local\Temp\cchaECY7.s 			page 301


 16370 49e4 73090000 		.4byte	0x973
 16371 49e8 F4490000 		.4byte	0x49f4
 16372 49ec 31       		.uleb128 0x31
 16373 49ed 37000000 		.4byte	0x37
 16374 49f1 0320     		.2byte	0x2003
 16375 49f3 00       		.byte	0
 16376 49f4 36       		.uleb128 0x36
 16377 49f5 62756600 		.ascii	"buf\000"
 16378 49f9 07       		.byte	0x7
 16379 49fa 23       		.byte	0x23
 16380 49fb E3490000 		.4byte	0x49e3
 16381 49ff 05       		.uleb128 0x5
 16382 4a00 03       		.byte	0x3
 16383 4a01 00000000 		.4byte	buf
 16384 4a05 0A       		.uleb128 0xa
 16385 4a06 73090000 		.4byte	0x973
 16386 4a0a 164A0000 		.4byte	0x4a16
 16387 4a0e 31       		.uleb128 0x31
 16388 4a0f 37000000 		.4byte	0x37
 16389 4a13 FF1F     		.2byte	0x1fff
 16390 4a15 00       		.byte	0
 16391 4a16 37       		.uleb128 0x37
 16392 4a17 18170000 		.4byte	.LASF1008
 16393 4a1b 07       		.byte	0x7
 16394 4a1c 25       		.byte	0x25
 16395 4a1d 054A0000 		.4byte	0x4a05
 16396 4a21 05       		.uleb128 0x5
 16397 4a22 03       		.byte	0x3
 16398 4a23 00000000 		.4byte	buf2
 16399 4a27 37       		.uleb128 0x37
 16400 4a28 12290000 		.4byte	.LASF1009
 16401 4a2c 07       		.byte	0x7
 16402 4a2d 2A       		.byte	0x2a
 16403 4a2e 14420000 		.4byte	0x4214
 16404 4a32 05       		.uleb128 0x5
 16405 4a33 03       		.byte	0x3
 16406 4a34 00000000 		.4byte	cmd_fmt
 16407 4a38 37       		.uleb128 0x37
 16408 4a39 51130000 		.4byte	.LASF1010
 16409 4a3d 07       		.byte	0x7
 16410 4a3e 2B       		.byte	0x2b
 16411 4a3f 3F420000 		.4byte	0x423f
 16412 4a43 05       		.uleb128 0x5
 16413 4a44 03       		.byte	0x3
 16414 4a45 00000000 		.4byte	cmd_subx
 16415 4a49 37       		.uleb128 0x37
 16416 4a4a 5A130000 		.4byte	.LASF1011
 16417 4a4e 07       		.byte	0x7
 16418 4a4f 2B       		.byte	0x2b
 16419 4a50 3F420000 		.4byte	0x423f
 16420 4a54 05       		.uleb128 0x5
 16421 4a55 03       		.byte	0x3
 16422 4a56 00000000 		.4byte	cmd_suby
 16423 4a5a 37       		.uleb128 0x37
 16424 4a5b 94270000 		.4byte	.LASF1012
 16425 4a5f 07       		.byte	0x7
 16426 4a60 2C       		.byte	0x2c
ARM GAS  C:\Users\Moi\AppData\Local\Temp\cchaECY7.s 			page 302


 16427 4a61 8E090000 		.4byte	0x98e
 16428 4a65 05       		.uleb128 0x5
 16429 4a66 03       		.byte	0x3
 16430 4a67 00000000 		.4byte	cmd_x1
 16431 4a6b 37       		.uleb128 0x37
 16432 4a6c 24280000 		.4byte	.LASF1013
 16433 4a70 07       		.byte	0x7
 16434 4a71 2C       		.byte	0x2c
 16435 4a72 8E090000 		.4byte	0x98e
 16436 4a76 05       		.uleb128 0x5
 16437 4a77 03       		.byte	0x3
 16438 4a78 00000000 		.4byte	cmd_y1
 16439 4a7c 37       		.uleb128 0x37
 16440 4a7d A7040000 		.4byte	.LASF1014
 16441 4a81 07       		.byte	0x7
 16442 4a82 2C       		.byte	0x2c
 16443 4a83 8E090000 		.4byte	0x98e
 16444 4a87 05       		.uleb128 0x5
 16445 4a88 03       		.byte	0x3
 16446 4a89 00000000 		.4byte	cmd_width
 16447 4a8d 37       		.uleb128 0x37
 16448 4a8e 9F180000 		.4byte	.LASF1015
 16449 4a92 07       		.byte	0x7
 16450 4a93 2C       		.byte	0x2c
 16451 4a94 8E090000 		.4byte	0x98e
 16452 4a98 05       		.uleb128 0x5
 16453 4a99 03       		.byte	0x3
 16454 4a9a 00000000 		.4byte	cmd_height
 16455 4a9e 0A       		.uleb128 0xa
 16456 4a9f 75010000 		.4byte	0x175
 16457 4aa3 AE4A0000 		.4byte	0x4aae
 16458 4aa7 0B       		.uleb128 0xb
 16459 4aa8 37000000 		.4byte	0x37
 16460 4aac FF       		.byte	0xff
 16461 4aad 00       		.byte	0
 16462 4aae 37       		.uleb128 0x37
 16463 4aaf 8E030000 		.4byte	.LASF1016
 16464 4ab3 07       		.byte	0x7
 16465 4ab4 33       		.byte	0x33
 16466 4ab5 9E4A0000 		.4byte	0x4a9e
 16467 4ab9 05       		.uleb128 0x5
 16468 4aba 03       		.byte	0x3
 16469 4abb 00000000 		.4byte	fbuff
 16470 4abf 0A       		.uleb128 0xa
 16471 4ac0 38410000 		.4byte	0x4138
 16472 4ac4 CF4A0000 		.4byte	0x4acf
 16473 4ac8 0B       		.uleb128 0xb
 16474 4ac9 37000000 		.4byte	0x37
 16475 4acd 30       		.byte	0x30
 16476 4ace 00       		.byte	0
 16477 4acf 0F       		.uleb128 0xf
 16478 4ad0 BF4A0000 		.4byte	0x4abf
 16479 4ad4 38       		.uleb128 0x38
 16480 4ad5 640C0000 		.4byte	.LASF1017
 16481 4ad9 07       		.byte	0x7
 16482 4ada C904     		.2byte	0x4c9
 16483 4adc CF4A0000 		.4byte	0x4acf
ARM GAS  C:\Users\Moi\AppData\Local\Temp\cchaECY7.s 			page 303


 16484 4ae0 05       		.uleb128 0x5
 16485 4ae1 03       		.byte	0x3
 16486 4ae2 00000000 		.4byte	shell_commands
 16487 4ae6 39       		.uleb128 0x39
 16488 4ae7 A00A0000 		.4byte	.LASF1020
 16489 4aeb 07       		.byte	0x7
 16490 4aec 1905     		.2byte	0x519
 16491 4aee 00000000 		.4byte	.LFB309
 16492 4af2 40000000 		.4byte	.LFE309-.LFB309
 16493 4af6 01       		.uleb128 0x1
 16494 4af7 9C       		.byte	0x9c
 16495 4af8 0E4B0000 		.4byte	0x4b0e
 16496 4afc 3A       		.uleb128 0x3a
 16497 4afd 776100   		.ascii	"wa\000"
 16498 4b00 07       		.byte	0x7
 16499 4b01 1B05     		.2byte	0x51b
 16500 4b03 0E4B0000 		.4byte	0x4b0e
 16501 4b07 05       		.uleb128 0x5
 16502 4b08 03       		.byte	0x3
 16503 4b09 00000000 		.4byte	wa.13601
 16504 4b0d 00       		.byte	0
 16505 4b0e 0A       		.uleb128 0xa
 16506 4b0f 30160000 		.4byte	0x1630
 16507 4b13 1F4B0000 		.4byte	0x4b1f
 16508 4b17 31       		.uleb128 0x31
 16509 4b18 37000000 		.4byte	0x37
 16510 4b1c 2E01     		.2byte	0x12e
 16511 4b1e 00       		.byte	0
 16512 4b1f 3B       		.uleb128 0x3b
 16513 4b20 96090000 		.4byte	.LASF1027
 16514 4b24 07       		.byte	0x7
 16515 4b25 FD04     		.2byte	0x4fd
 16516 4b27 00000000 		.4byte	.LFB308
 16517 4b2b 64000000 		.4byte	.LFE308-.LFB308
 16518 4b2f 01       		.uleb128 0x1
 16519 4b30 9C       		.byte	0x9c
 16520 4b31 644B0000 		.4byte	0x4b64
 16521 4b35 3C       		.uleb128 0x3c
 16522 4b36 7000     		.ascii	"p\000"
 16523 4b38 07       		.byte	0x7
 16524 4b39 FD04     		.2byte	0x4fd
 16525 4b3b 68010000 		.4byte	0x168
 16526 4b3f 02       		.uleb128 0x2
 16527 4b40 91       		.byte	0x91
 16528 4b41 6C       		.sleb128 -20
 16529 4b42 3D       		.uleb128 0x3d
 16530 4b43 8F1C0000 		.4byte	.LASF1018
 16531 4b47 07       		.byte	0x7
 16532 4b48 0005     		.2byte	0x500
 16533 4b4a 910B0000 		.4byte	0xb91
 16534 4b4e 02       		.uleb128 0x2
 16535 4b4f 91       		.byte	0x91
 16536 4b50 70       		.sleb128 -16
 16537 4b51 3D       		.uleb128 0x3d
 16538 4b52 0A240000 		.4byte	.LASF1019
 16539 4b56 07       		.byte	0x7
 16540 4b57 0205     		.2byte	0x502
ARM GAS  C:\Users\Moi\AppData\Local\Temp\cchaECY7.s 			page 304


 16541 4b59 6F410000 		.4byte	0x416f
 16542 4b5d 05       		.uleb128 0x5
 16543 4b5e 03       		.byte	0x3
 16544 4b5f 00000000 		.4byte	shell_cfg.13596
 16545 4b63 00       		.byte	0
 16546 4b64 39       		.uleb128 0x39
 16547 4b65 062E0000 		.4byte	.LASF1021
 16548 4b69 07       		.byte	0x7
 16549 4b6a F503     		.2byte	0x3f5
 16550 4b6c 00000000 		.4byte	.LFB307
 16551 4b70 04060000 		.4byte	.LFE307-.LFB307
 16552 4b74 01       		.uleb128 0x1
 16553 4b75 9C       		.byte	0x9c
 16554 4b76 414C0000 		.4byte	0x4c41
 16555 4b7a 3C       		.uleb128 0x3c
 16556 4b7b 63687000 		.ascii	"chp\000"
 16557 4b7f 07       		.byte	0x7
 16558 4b80 F503     		.2byte	0x3f5
 16559 4b82 00410000 		.4byte	0x4100
 16560 4b86 02       		.uleb128 0x2
 16561 4b87 91       		.byte	0x91
 16562 4b88 54       		.sleb128 -44
 16563 4b89 3E       		.uleb128 0x3e
 16564 4b8a FF070000 		.4byte	.LASF1022
 16565 4b8e 07       		.byte	0x7
 16566 4b8f F503     		.2byte	0x3f5
 16567 4b91 25000000 		.4byte	0x25
 16568 4b95 02       		.uleb128 0x2
 16569 4b96 91       		.byte	0x91
 16570 4b97 50       		.sleb128 -48
 16571 4b98 3E       		.uleb128 0x3e
 16572 4b99 C6230000 		.4byte	.LASF1023
 16573 4b9d 07       		.byte	0x7
 16574 4b9e F503     		.2byte	0x3f5
 16575 4ba0 06410000 		.4byte	0x4106
 16576 4ba4 02       		.uleb128 0x2
 16577 4ba5 91       		.byte	0x91
 16578 4ba6 4C       		.sleb128 -52
 16579 4ba7 3D       		.uleb128 0x3d
 16580 4ba8 1F0A0000 		.4byte	.LASF544
 16581 4bac 07       		.byte	0x7
 16582 4bad F603     		.2byte	0x3f6
 16583 4baf 414C0000 		.4byte	0x4c41
 16584 4bb3 05       		.uleb128 0x5
 16585 4bb4 03       		.byte	0x3
 16586 4bb5 00000000 		.4byte	mode.13568
 16587 4bb9 3D       		.uleb128 0x3d
 16588 4bba AF140000 		.4byte	.LASF1024
 16589 4bbe 07       		.byte	0x7
 16590 4bbf F703     		.2byte	0x3f7
 16591 4bc1 4D0A0000 		.4byte	0xa4d
 16592 4bc5 02       		.uleb128 0x2
 16593 4bc6 91       		.byte	0x91
 16594 4bc7 68       		.sleb128 -24
 16595 4bc8 3A       		.uleb128 0x3a
 16596 4bc9 656E6400 		.ascii	"end\000"
 16597 4bcd 07       		.byte	0x7
ARM GAS  C:\Users\Moi\AppData\Local\Temp\cchaECY7.s 			page 305


 16598 4bce F703     		.2byte	0x3f7
 16599 4bd0 4D0A0000 		.4byte	0xa4d
 16600 4bd4 02       		.uleb128 0x2
 16601 4bd5 91       		.byte	0x91
 16602 4bd6 6C       		.sleb128 -20
 16603 4bd7 3A       		.uleb128 0x3a
 16604 4bd8 6E00     		.ascii	"n\000"
 16605 4bda 07       		.byte	0x7
 16606 4bdb F803     		.2byte	0x3f8
 16607 4bdd A9090000 		.4byte	0x9a9
 16608 4be1 02       		.uleb128 0x2
 16609 4be2 91       		.byte	0x91
 16610 4be3 58       		.sleb128 -40
 16611 4be4 3D       		.uleb128 0x3d
 16612 4be5 D62C0000 		.4byte	.LASF1025
 16613 4be9 07       		.byte	0x7
 16614 4bea F803     		.2byte	0x3f8
 16615 4bec A9090000 		.4byte	0x9a9
 16616 4bf0 02       		.uleb128 0x2
 16617 4bf1 91       		.byte	0x91
 16618 4bf2 64       		.sleb128 -28
 16619 4bf3 3F       		.uleb128 0x3f
 16620 4bf4 CB230000 		.4byte	.LASF1123
 16621 4bf8 07       		.byte	0x7
 16622 4bf9 C504     		.2byte	0x4c5
 16623 4bfb D8050000 		.4byte	.L412
 16624 4bff 40       		.uleb128 0x40
 16625 4c00 E8020000 		.4byte	.LBB10
 16626 4c04 02010000 		.4byte	.LBE10-.LBB10
 16627 4c08 1A4C0000 		.4byte	0x4c1a
 16628 4c0c 3A       		.uleb128 0x3a
 16629 4c0d 6900     		.ascii	"i\000"
 16630 4c0f 07       		.byte	0x7
 16631 4c10 5704     		.2byte	0x457
 16632 4c12 37000000 		.4byte	0x37
 16633 4c16 02       		.uleb128 0x2
 16634 4c17 91       		.byte	0x91
 16635 4c18 5C       		.sleb128 -36
 16636 4c19 00       		.byte	0
 16637 4c1a 41       		.uleb128 0x41
 16638 4c1b 10040000 		.4byte	.LBB11
 16639 4c1f C6010000 		.4byte	.LBE11-.LBB11
 16640 4c23 3A       		.uleb128 0x3a
 16641 4c24 6900     		.ascii	"i\000"
 16642 4c26 07       		.byte	0x7
 16643 4c27 8C04     		.2byte	0x48c
 16644 4c29 37000000 		.4byte	0x37
 16645 4c2d 02       		.uleb128 0x2
 16646 4c2e 91       		.byte	0x91
 16647 4c2f 60       		.sleb128 -32
 16648 4c30 3D       		.uleb128 0x3d
 16649 4c31 E0150000 		.4byte	.LASF1026
 16650 4c35 07       		.byte	0x7
 16651 4c36 9A04     		.2byte	0x49a
 16652 4c38 CA300000 		.4byte	0x30ca
 16653 4c3c 02       		.uleb128 0x2
 16654 4c3d 91       		.byte	0x91
ARM GAS  C:\Users\Moi\AppData\Local\Temp\cchaECY7.s 			page 306


 16655 4c3e 70       		.sleb128 -16
 16656 4c3f 00       		.byte	0
 16657 4c40 00       		.byte	0
 16658 4c41 0A       		.uleb128 0xa
 16659 4c42 ED050000 		.4byte	0x5ed
 16660 4c46 514C0000 		.4byte	0x4c51
 16661 4c4a 0B       		.uleb128 0xb
 16662 4c4b 37000000 		.4byte	0x37
 16663 4c4f 03       		.byte	0x3
 16664 4c50 00       		.byte	0
 16665 4c51 3B       		.uleb128 0x3b
 16666 4c52 80000000 		.4byte	.LASF1028
 16667 4c56 07       		.byte	0x7
 16668 4c57 E503     		.2byte	0x3e5
 16669 4c59 00000000 		.4byte	.LFB306
 16670 4c5d 98000000 		.4byte	.LFE306-.LFB306
 16671 4c61 01       		.uleb128 0x1
 16672 4c62 9C       		.byte	0x9c
 16673 4c63 C24C0000 		.4byte	0x4cc2
 16674 4c67 3C       		.uleb128 0x3c
 16675 4c68 63687000 		.ascii	"chp\000"
 16676 4c6c 07       		.byte	0x7
 16677 4c6d E503     		.2byte	0x3e5
 16678 4c6f 00410000 		.4byte	0x4100
 16679 4c73 02       		.uleb128 0x2
 16680 4c74 91       		.byte	0x91
 16681 4c75 64       		.sleb128 -28
 16682 4c76 3E       		.uleb128 0x3e
 16683 4c77 FF070000 		.4byte	.LASF1022
 16684 4c7b 07       		.byte	0x7
 16685 4c7c E503     		.2byte	0x3e5
 16686 4c7e 25000000 		.4byte	0x25
 16687 4c82 02       		.uleb128 0x2
 16688 4c83 91       		.byte	0x91
 16689 4c84 60       		.sleb128 -32
 16690 4c85 3E       		.uleb128 0x3e
 16691 4c86 C6230000 		.4byte	.LASF1023
 16692 4c8a 07       		.byte	0x7
 16693 4c8b E503     		.2byte	0x3e5
 16694 4c8d 06410000 		.4byte	0x4106
 16695 4c91 02       		.uleb128 0x2
 16696 4c92 91       		.byte	0x91
 16697 4c93 5C       		.sleb128 -36
 16698 4c94 3D       		.uleb128 0x3d
 16699 4c95 A2100000 		.4byte	.LASF1029
 16700 4c99 07       		.byte	0x7
 16701 4c9a EA03     		.2byte	0x3ea
 16702 4c9c A0410000 		.4byte	0x41a0
 16703 4ca0 02       		.uleb128 0x2
 16704 4ca1 91       		.byte	0x91
 16705 4ca2 6C       		.sleb128 -20
 16706 4ca3 3D       		.uleb128 0x3d
 16707 4ca4 6A000000 		.4byte	.LASF1030
 16708 4ca8 07       		.byte	0x7
 16709 4ca9 EB03     		.2byte	0x3eb
 16710 4cab 8E090000 		.4byte	0x98e
 16711 4caf 02       		.uleb128 0x2
ARM GAS  C:\Users\Moi\AppData\Local\Temp\cchaECY7.s 			page 307


 16712 4cb0 91       		.byte	0x91
 16713 4cb1 6A       		.sleb128 -22
 16714 4cb2 3D       		.uleb128 0x3d
 16715 4cb3 53290000 		.4byte	.LASF1031
 16716 4cb7 07       		.byte	0x7
 16717 4cb8 EC03     		.2byte	0x3ec
 16718 4cba 803E0000 		.4byte	0x3e80
 16719 4cbe 02       		.uleb128 0x2
 16720 4cbf 91       		.byte	0x91
 16721 4cc0 70       		.sleb128 -16
 16722 4cc1 00       		.byte	0
 16723 4cc2 3B       		.uleb128 0x3b
 16724 4cc3 66180000 		.4byte	.LASF1032
 16725 4cc7 07       		.byte	0x7
 16726 4cc8 DA03     		.2byte	0x3da
 16727 4cca 00000000 		.4byte	.LFB305
 16728 4cce 68000000 		.4byte	.LFE305-.LFB305
 16729 4cd2 01       		.uleb128 0x1
 16730 4cd3 9C       		.byte	0x9c
 16731 4cd4 154D0000 		.4byte	0x4d15
 16732 4cd8 3C       		.uleb128 0x3c
 16733 4cd9 63687000 		.ascii	"chp\000"
 16734 4cdd 07       		.byte	0x7
 16735 4cde DA03     		.2byte	0x3da
 16736 4ce0 00410000 		.4byte	0x4100
 16737 4ce4 02       		.uleb128 0x2
 16738 4ce5 91       		.byte	0x91
 16739 4ce6 6C       		.sleb128 -20
 16740 4ce7 3E       		.uleb128 0x3e
 16741 4ce8 FF070000 		.4byte	.LASF1022
 16742 4cec 07       		.byte	0x7
 16743 4ced DA03     		.2byte	0x3da
 16744 4cef 25000000 		.4byte	0x25
 16745 4cf3 02       		.uleb128 0x2
 16746 4cf4 91       		.byte	0x91
 16747 4cf5 68       		.sleb128 -24
 16748 4cf6 3E       		.uleb128 0x3e
 16749 4cf7 C6230000 		.4byte	.LASF1023
 16750 4cfb 07       		.byte	0x7
 16751 4cfc DA03     		.2byte	0x3da
 16752 4cfe 06410000 		.4byte	0x4106
 16753 4d02 02       		.uleb128 0x2
 16754 4d03 91       		.byte	0x91
 16755 4d04 64       		.sleb128 -28
 16756 4d05 3A       		.uleb128 0x3a
 16757 4d06 6D696300 		.ascii	"mic\000"
 16758 4d0a 07       		.byte	0x7
 16759 4d0b DC03     		.2byte	0x3dc
 16760 4d0d 73090000 		.4byte	0x973
 16761 4d11 02       		.uleb128 0x2
 16762 4d12 91       		.byte	0x91
 16763 4d13 73       		.sleb128 -13
 16764 4d14 00       		.byte	0
 16765 4d15 3B       		.uleb128 0x3b
 16766 4d16 A30C0000 		.4byte	.LASF1033
 16767 4d1a 07       		.byte	0x7
 16768 4d1b D203     		.2byte	0x3d2
ARM GAS  C:\Users\Moi\AppData\Local\Temp\cchaECY7.s 			page 308


 16769 4d1d 00000000 		.4byte	.LFB304
 16770 4d21 30000000 		.4byte	.LFE304-.LFB304
 16771 4d25 01       		.uleb128 0x1
 16772 4d26 9C       		.byte	0x9c
 16773 4d27 594D0000 		.4byte	0x4d59
 16774 4d2b 3C       		.uleb128 0x3c
 16775 4d2c 63687000 		.ascii	"chp\000"
 16776 4d30 07       		.byte	0x7
 16777 4d31 D203     		.2byte	0x3d2
 16778 4d33 00410000 		.4byte	0x4100
 16779 4d37 02       		.uleb128 0x2
 16780 4d38 91       		.byte	0x91
 16781 4d39 6C       		.sleb128 -20
 16782 4d3a 3E       		.uleb128 0x3e
 16783 4d3b FF070000 		.4byte	.LASF1022
 16784 4d3f 07       		.byte	0x7
 16785 4d40 D203     		.2byte	0x3d2
 16786 4d42 25000000 		.4byte	0x25
 16787 4d46 02       		.uleb128 0x2
 16788 4d47 91       		.byte	0x91
 16789 4d48 68       		.sleb128 -24
 16790 4d49 3E       		.uleb128 0x3e
 16791 4d4a C6230000 		.4byte	.LASF1023
 16792 4d4e 07       		.byte	0x7
 16793 4d4f D203     		.2byte	0x3d2
 16794 4d51 06410000 		.4byte	0x4106
 16795 4d55 02       		.uleb128 0x2
 16796 4d56 91       		.byte	0x91
 16797 4d57 64       		.sleb128 -28
 16798 4d58 00       		.byte	0
 16799 4d59 3B       		.uleb128 0x3b
 16800 4d5a A01C0000 		.4byte	.LASF1034
 16801 4d5e 07       		.byte	0x7
 16802 4d5f C603     		.2byte	0x3c6
 16803 4d61 00000000 		.4byte	.LFB303
 16804 4d65 58000000 		.4byte	.LFE303-.LFB303
 16805 4d69 01       		.uleb128 0x1
 16806 4d6a 9C       		.byte	0x9c
 16807 4d6b AC4D0000 		.4byte	0x4dac
 16808 4d6f 3C       		.uleb128 0x3c
 16809 4d70 63687000 		.ascii	"chp\000"
 16810 4d74 07       		.byte	0x7
 16811 4d75 C603     		.2byte	0x3c6
 16812 4d77 00410000 		.4byte	0x4100
 16813 4d7b 02       		.uleb128 0x2
 16814 4d7c 91       		.byte	0x91
 16815 4d7d 6C       		.sleb128 -20
 16816 4d7e 3E       		.uleb128 0x3e
 16817 4d7f FF070000 		.4byte	.LASF1022
 16818 4d83 07       		.byte	0x7
 16819 4d84 C603     		.2byte	0x3c6
 16820 4d86 25000000 		.4byte	0x25
 16821 4d8a 02       		.uleb128 0x2
 16822 4d8b 91       		.byte	0x91
 16823 4d8c 68       		.sleb128 -24
 16824 4d8d 3E       		.uleb128 0x3e
 16825 4d8e C6230000 		.4byte	.LASF1023
ARM GAS  C:\Users\Moi\AppData\Local\Temp\cchaECY7.s 			page 309


 16826 4d92 07       		.byte	0x7
 16827 4d93 C603     		.2byte	0x3c6
 16828 4d95 06410000 		.4byte	0x4106
 16829 4d99 02       		.uleb128 0x2
 16830 4d9a 91       		.byte	0x91
 16831 4d9b 64       		.sleb128 -28
 16832 4d9c 3D       		.uleb128 0x3d
 16833 4d9d A21E0000 		.4byte	.LASF1035
 16834 4da1 07       		.byte	0x7
 16835 4da2 C803     		.2byte	0x3c8
 16836 4da4 8E090000 		.4byte	0x98e
 16837 4da8 02       		.uleb128 0x2
 16838 4da9 91       		.byte	0x91
 16839 4daa 72       		.sleb128 -14
 16840 4dab 00       		.byte	0
 16841 4dac 3B       		.uleb128 0x3b
 16842 4dad 7C260000 		.4byte	.LASF1036
 16843 4db1 07       		.byte	0x7
 16844 4db2 BE03     		.2byte	0x3be
 16845 4db4 00000000 		.4byte	.LFB302
 16846 4db8 40000000 		.4byte	.LFE302-.LFB302
 16847 4dbc 01       		.uleb128 0x1
 16848 4dbd 9C       		.byte	0x9c
 16849 4dbe F04D0000 		.4byte	0x4df0
 16850 4dc2 3C       		.uleb128 0x3c
 16851 4dc3 63687000 		.ascii	"chp\000"
 16852 4dc7 07       		.byte	0x7
 16853 4dc8 BE03     		.2byte	0x3be
 16854 4dca 00410000 		.4byte	0x4100
 16855 4dce 02       		.uleb128 0x2
 16856 4dcf 91       		.byte	0x91
 16857 4dd0 6C       		.sleb128 -20
 16858 4dd1 3E       		.uleb128 0x3e
 16859 4dd2 FF070000 		.4byte	.LASF1022
 16860 4dd6 07       		.byte	0x7
 16861 4dd7 BE03     		.2byte	0x3be
 16862 4dd9 25000000 		.4byte	0x25
 16863 4ddd 02       		.uleb128 0x2
 16864 4dde 91       		.byte	0x91
 16865 4ddf 68       		.sleb128 -24
 16866 4de0 3E       		.uleb128 0x3e
 16867 4de1 C6230000 		.4byte	.LASF1023
 16868 4de5 07       		.byte	0x7
 16869 4de6 BE03     		.2byte	0x3be
 16870 4de8 06410000 		.4byte	0x4106
 16871 4dec 02       		.uleb128 0x2
 16872 4ded 91       		.byte	0x91
 16873 4dee 64       		.sleb128 -28
 16874 4def 00       		.byte	0
 16875 4df0 3B       		.uleb128 0x3b
 16876 4df1 E9070000 		.4byte	.LASF1037
 16877 4df5 07       		.byte	0x7
 16878 4df6 AE03     		.2byte	0x3ae
 16879 4df8 00000000 		.4byte	.LFB301
 16880 4dfc A0000000 		.4byte	.LFE301-.LFB301
 16881 4e00 01       		.uleb128 0x1
 16882 4e01 9C       		.byte	0x9c
ARM GAS  C:\Users\Moi\AppData\Local\Temp\cchaECY7.s 			page 310


 16883 4e02 524E0000 		.4byte	0x4e52
 16884 4e06 3C       		.uleb128 0x3c
 16885 4e07 63687000 		.ascii	"chp\000"
 16886 4e0b 07       		.byte	0x7
 16887 4e0c AE03     		.2byte	0x3ae
 16888 4e0e 00410000 		.4byte	0x4100
 16889 4e12 02       		.uleb128 0x2
 16890 4e13 91       		.byte	0x91
 16891 4e14 6C       		.sleb128 -20
 16892 4e15 3E       		.uleb128 0x3e
 16893 4e16 FF070000 		.4byte	.LASF1022
 16894 4e1a 07       		.byte	0x7
 16895 4e1b AE03     		.2byte	0x3ae
 16896 4e1d 25000000 		.4byte	0x25
 16897 4e21 02       		.uleb128 0x2
 16898 4e22 91       		.byte	0x91
 16899 4e23 68       		.sleb128 -24
 16900 4e24 3E       		.uleb128 0x3e
 16901 4e25 C6230000 		.4byte	.LASF1023
 16902 4e29 07       		.byte	0x7
 16903 4e2a AE03     		.2byte	0x3ae
 16904 4e2c 06410000 		.4byte	0x4106
 16905 4e30 02       		.uleb128 0x2
 16906 4e31 91       		.byte	0x91
 16907 4e32 64       		.sleb128 -28
 16908 4e33 3D       		.uleb128 0x3d
 16909 4e34 590C0000 		.4byte	.LASF1038
 16910 4e38 07       		.byte	0x7
 16911 4e39 B003     		.2byte	0x3b0
 16912 4e3b 83090000 		.4byte	0x983
 16913 4e3f 02       		.uleb128 0x2
 16914 4e40 91       		.byte	0x91
 16915 4e41 70       		.sleb128 -16
 16916 4e42 3D       		.uleb128 0x3d
 16917 4e43 D1200000 		.4byte	.LASF1039
 16918 4e47 07       		.byte	0x7
 16919 4e48 B103     		.2byte	0x3b1
 16920 4e4a 83090000 		.4byte	0x983
 16921 4e4e 02       		.uleb128 0x2
 16922 4e4f 91       		.byte	0x91
 16923 4e50 72       		.sleb128 -14
 16924 4e51 00       		.byte	0
 16925 4e52 3B       		.uleb128 0x3b
 16926 4e53 0C1A0000 		.4byte	.LASF1040
 16927 4e57 07       		.byte	0x7
 16928 4e58 9903     		.2byte	0x399
 16929 4e5a 00000000 		.4byte	.LFB300
 16930 4e5e AC000000 		.4byte	.LFE300-.LFB300
 16931 4e62 01       		.uleb128 0x1
 16932 4e63 9C       		.byte	0x9c
 16933 4e64 B44E0000 		.4byte	0x4eb4
 16934 4e68 3C       		.uleb128 0x3c
 16935 4e69 63687000 		.ascii	"chp\000"
 16936 4e6d 07       		.byte	0x7
 16937 4e6e 9903     		.2byte	0x399
 16938 4e70 00410000 		.4byte	0x4100
 16939 4e74 02       		.uleb128 0x2
ARM GAS  C:\Users\Moi\AppData\Local\Temp\cchaECY7.s 			page 311


 16940 4e75 91       		.byte	0x91
 16941 4e76 6C       		.sleb128 -20
 16942 4e77 3E       		.uleb128 0x3e
 16943 4e78 FF070000 		.4byte	.LASF1022
 16944 4e7c 07       		.byte	0x7
 16945 4e7d 9903     		.2byte	0x399
 16946 4e7f 25000000 		.4byte	0x25
 16947 4e83 02       		.uleb128 0x2
 16948 4e84 91       		.byte	0x91
 16949 4e85 68       		.sleb128 -24
 16950 4e86 3E       		.uleb128 0x3e
 16951 4e87 C6230000 		.4byte	.LASF1023
 16952 4e8b 07       		.byte	0x7
 16953 4e8c 9903     		.2byte	0x399
 16954 4e8e 06410000 		.4byte	0x4106
 16955 4e92 02       		.uleb128 0x2
 16956 4e93 91       		.byte	0x91
 16957 4e94 64       		.sleb128 -28
 16958 4e95 3D       		.uleb128 0x3d
 16959 4e96 2C040000 		.4byte	.LASF1041
 16960 4e9a 07       		.byte	0x7
 16961 4e9b 9B03     		.2byte	0x39b
 16962 4e9d 73090000 		.4byte	0x973
 16963 4ea1 02       		.uleb128 0x2
 16964 4ea2 91       		.byte	0x91
 16965 4ea3 72       		.sleb128 -14
 16966 4ea4 3D       		.uleb128 0x3d
 16967 4ea5 91050000 		.4byte	.LASF1042
 16968 4ea9 07       		.byte	0x7
 16969 4eaa 9C03     		.2byte	0x39c
 16970 4eac 73090000 		.4byte	0x973
 16971 4eb0 02       		.uleb128 0x2
 16972 4eb1 91       		.byte	0x91
 16973 4eb2 73       		.sleb128 -13
 16974 4eb3 00       		.byte	0
 16975 4eb4 3B       		.uleb128 0x3b
 16976 4eb5 79190000 		.4byte	.LASF1043
 16977 4eb9 07       		.byte	0x7
 16978 4eba 7F03     		.2byte	0x37f
 16979 4ebc 00000000 		.4byte	.LFB299
 16980 4ec0 D0000000 		.4byte	.LFE299-.LFB299
 16981 4ec4 01       		.uleb128 0x1
 16982 4ec5 9C       		.byte	0x9c
 16983 4ec6 074F0000 		.4byte	0x4f07
 16984 4eca 3C       		.uleb128 0x3c
 16985 4ecb 63687000 		.ascii	"chp\000"
 16986 4ecf 07       		.byte	0x7
 16987 4ed0 7F03     		.2byte	0x37f
 16988 4ed2 00410000 		.4byte	0x4100
 16989 4ed6 02       		.uleb128 0x2
 16990 4ed7 91       		.byte	0x91
 16991 4ed8 6C       		.sleb128 -20
 16992 4ed9 3E       		.uleb128 0x3e
 16993 4eda FF070000 		.4byte	.LASF1022
 16994 4ede 07       		.byte	0x7
 16995 4edf 7F03     		.2byte	0x37f
 16996 4ee1 25000000 		.4byte	0x25
ARM GAS  C:\Users\Moi\AppData\Local\Temp\cchaECY7.s 			page 312


 16997 4ee5 02       		.uleb128 0x2
 16998 4ee6 91       		.byte	0x91
 16999 4ee7 68       		.sleb128 -24
 17000 4ee8 3E       		.uleb128 0x3e
 17001 4ee9 C6230000 		.4byte	.LASF1023
 17002 4eed 07       		.byte	0x7
 17003 4eee 7F03     		.2byte	0x37f
 17004 4ef0 06410000 		.4byte	0x4106
 17005 4ef4 02       		.uleb128 0x2
 17006 4ef5 91       		.byte	0x91
 17007 4ef6 64       		.sleb128 -28
 17008 4ef7 3D       		.uleb128 0x3d
 17009 4ef8 C02B0000 		.4byte	.LASF1044
 17010 4efc 07       		.byte	0x7
 17011 4efd 8303     		.2byte	0x383
 17012 4eff 0D1C0000 		.4byte	0x1c0d
 17013 4f03 02       		.uleb128 0x2
 17014 4f04 91       		.byte	0x91
 17015 4f05 70       		.sleb128 -16
 17016 4f06 00       		.byte	0
 17017 4f07 3B       		.uleb128 0x3b
 17018 4f08 CB240000 		.4byte	.LASF1045
 17019 4f0c 07       		.byte	0x7
 17020 4f0d 7703     		.2byte	0x377
 17021 4f0f 00000000 		.4byte	.LFB298
 17022 4f13 30000000 		.4byte	.LFE298-.LFB298
 17023 4f17 01       		.uleb128 0x1
 17024 4f18 9C       		.byte	0x9c
 17025 4f19 4B4F0000 		.4byte	0x4f4b
 17026 4f1d 3C       		.uleb128 0x3c
 17027 4f1e 63687000 		.ascii	"chp\000"
 17028 4f22 07       		.byte	0x7
 17029 4f23 7703     		.2byte	0x377
 17030 4f25 00410000 		.4byte	0x4100
 17031 4f29 02       		.uleb128 0x2
 17032 4f2a 91       		.byte	0x91
 17033 4f2b 6C       		.sleb128 -20
 17034 4f2c 3E       		.uleb128 0x3e
 17035 4f2d FF070000 		.4byte	.LASF1022
 17036 4f31 07       		.byte	0x7
 17037 4f32 7703     		.2byte	0x377
 17038 4f34 25000000 		.4byte	0x25
 17039 4f38 02       		.uleb128 0x2
 17040 4f39 91       		.byte	0x91
 17041 4f3a 68       		.sleb128 -24
 17042 4f3b 3E       		.uleb128 0x3e
 17043 4f3c C6230000 		.4byte	.LASF1023
 17044 4f40 07       		.byte	0x7
 17045 4f41 7703     		.2byte	0x377
 17046 4f43 06410000 		.4byte	0x4106
 17047 4f47 02       		.uleb128 0x2
 17048 4f48 91       		.byte	0x91
 17049 4f49 64       		.sleb128 -28
 17050 4f4a 00       		.byte	0
 17051 4f4b 3B       		.uleb128 0x3b
 17052 4f4c 64290000 		.4byte	.LASF1046
 17053 4f50 07       		.byte	0x7
ARM GAS  C:\Users\Moi\AppData\Local\Temp\cchaECY7.s 			page 313


 17054 4f51 6C03     		.2byte	0x36c
 17055 4f53 00000000 		.4byte	.LFB297
 17056 4f57 3C000000 		.4byte	.LFE297-.LFB297
 17057 4f5b 01       		.uleb128 0x1
 17058 4f5c 9C       		.byte	0x9c
 17059 4f5d 8F4F0000 		.4byte	0x4f8f
 17060 4f61 3C       		.uleb128 0x3c
 17061 4f62 63687000 		.ascii	"chp\000"
 17062 4f66 07       		.byte	0x7
 17063 4f67 6C03     		.2byte	0x36c
 17064 4f69 00410000 		.4byte	0x4100
 17065 4f6d 02       		.uleb128 0x2
 17066 4f6e 91       		.byte	0x91
 17067 4f6f 6C       		.sleb128 -20
 17068 4f70 3E       		.uleb128 0x3e
 17069 4f71 FF070000 		.4byte	.LASF1022
 17070 4f75 07       		.byte	0x7
 17071 4f76 6C03     		.2byte	0x36c
 17072 4f78 25000000 		.4byte	0x25
 17073 4f7c 02       		.uleb128 0x2
 17074 4f7d 91       		.byte	0x91
 17075 4f7e 68       		.sleb128 -24
 17076 4f7f 3E       		.uleb128 0x3e
 17077 4f80 C6230000 		.4byte	.LASF1023
 17078 4f84 07       		.byte	0x7
 17079 4f85 6C03     		.2byte	0x36c
 17080 4f87 06410000 		.4byte	0x4106
 17081 4f8b 02       		.uleb128 0x2
 17082 4f8c 91       		.byte	0x91
 17083 4f8d 64       		.sleb128 -28
 17084 4f8e 00       		.byte	0
 17085 4f8f 3B       		.uleb128 0x3b
 17086 4f90 DD2A0000 		.4byte	.LASF1047
 17087 4f94 07       		.byte	0x7
 17088 4f95 5103     		.2byte	0x351
 17089 4f97 00000000 		.4byte	.LFB296
 17090 4f9b 94000000 		.4byte	.LFE296-.LFB296
 17091 4f9f 01       		.uleb128 0x1
 17092 4fa0 9C       		.byte	0x9c
 17093 4fa1 E24F0000 		.4byte	0x4fe2
 17094 4fa5 3C       		.uleb128 0x3c
 17095 4fa6 63687000 		.ascii	"chp\000"
 17096 4faa 07       		.byte	0x7
 17097 4fab 5103     		.2byte	0x351
 17098 4fad 00410000 		.4byte	0x4100
 17099 4fb1 02       		.uleb128 0x2
 17100 4fb2 91       		.byte	0x91
 17101 4fb3 6C       		.sleb128 -20
 17102 4fb4 3E       		.uleb128 0x3e
 17103 4fb5 FF070000 		.4byte	.LASF1022
 17104 4fb9 07       		.byte	0x7
 17105 4fba 5103     		.2byte	0x351
 17106 4fbc 25000000 		.4byte	0x25
 17107 4fc0 02       		.uleb128 0x2
 17108 4fc1 91       		.byte	0x91
 17109 4fc2 68       		.sleb128 -24
 17110 4fc3 3E       		.uleb128 0x3e
ARM GAS  C:\Users\Moi\AppData\Local\Temp\cchaECY7.s 			page 314


 17111 4fc4 C6230000 		.4byte	.LASF1023
 17112 4fc8 07       		.byte	0x7
 17113 4fc9 5103     		.2byte	0x351
 17114 4fcb 06410000 		.4byte	0x4106
 17115 4fcf 02       		.uleb128 0x2
 17116 4fd0 91       		.byte	0x91
 17117 4fd1 64       		.sleb128 -28
 17118 4fd2 3D       		.uleb128 0x3d
 17119 4fd3 59240000 		.4byte	.LASF1048
 17120 4fd7 07       		.byte	0x7
 17121 4fd8 5303     		.2byte	0x353
 17122 4fda 73090000 		.4byte	0x973
 17123 4fde 02       		.uleb128 0x2
 17124 4fdf 91       		.byte	0x91
 17125 4fe0 73       		.sleb128 -13
 17126 4fe1 00       		.byte	0
 17127 4fe2 3B       		.uleb128 0x3b
 17128 4fe3 B9100000 		.4byte	.LASF1049
 17129 4fe7 07       		.byte	0x7
 17130 4fe8 3B03     		.2byte	0x33b
 17131 4fea 00000000 		.4byte	.LFB295
 17132 4fee A0000000 		.4byte	.LFE295-.LFB295
 17133 4ff2 01       		.uleb128 0x1
 17134 4ff3 9C       		.byte	0x9c
 17135 4ff4 53500000 		.4byte	0x5053
 17136 4ff8 3C       		.uleb128 0x3c
 17137 4ff9 63687000 		.ascii	"chp\000"
 17138 4ffd 07       		.byte	0x7
 17139 4ffe 3B03     		.2byte	0x33b
 17140 5000 00410000 		.4byte	0x4100
 17141 5004 02       		.uleb128 0x2
 17142 5005 91       		.byte	0x91
 17143 5006 6C       		.sleb128 -20
 17144 5007 3E       		.uleb128 0x3e
 17145 5008 FF070000 		.4byte	.LASF1022
 17146 500c 07       		.byte	0x7
 17147 500d 3B03     		.2byte	0x33b
 17148 500f 25000000 		.4byte	0x25
 17149 5013 02       		.uleb128 0x2
 17150 5014 91       		.byte	0x91
 17151 5015 68       		.sleb128 -24
 17152 5016 3E       		.uleb128 0x3e
 17153 5017 C6230000 		.4byte	.LASF1023
 17154 501b 07       		.byte	0x7
 17155 501c 3B03     		.2byte	0x33b
 17156 501e 06410000 		.4byte	0x4106
 17157 5022 02       		.uleb128 0x2
 17158 5023 91       		.byte	0x91
 17159 5024 64       		.sleb128 -28
 17160 5025 3A       		.uleb128 0x3a
 17161 5026 65727200 		.ascii	"err\000"
 17162 502a 07       		.byte	0x7
 17163 502b 3D03     		.2byte	0x33d
 17164 502d 68090000 		.4byte	0x968
 17165 5031 02       		.uleb128 0x2
 17166 5032 91       		.byte	0x91
 17167 5033 71       		.sleb128 -15
ARM GAS  C:\Users\Moi\AppData\Local\Temp\cchaECY7.s 			page 315


 17168 5034 3D       		.uleb128 0x3d
 17169 5035 C42C0000 		.4byte	.LASF1050
 17170 5039 07       		.byte	0x7
 17171 503a 3E03     		.2byte	0x33e
 17172 503c 8E090000 		.4byte	0x98e
 17173 5040 02       		.uleb128 0x2
 17174 5041 91       		.byte	0x91
 17175 5042 72       		.sleb128 -14
 17176 5043 3D       		.uleb128 0x3d
 17177 5044 77070000 		.4byte	.LASF1051
 17178 5048 07       		.byte	0x7
 17179 5049 3F03     		.2byte	0x33f
 17180 504b 73090000 		.4byte	0x973
 17181 504f 02       		.uleb128 0x2
 17182 5050 91       		.byte	0x91
 17183 5051 70       		.sleb128 -16
 17184 5052 00       		.byte	0
 17185 5053 3B       		.uleb128 0x3b
 17186 5054 522C0000 		.4byte	.LASF1052
 17187 5058 07       		.byte	0x7
 17188 5059 2703     		.2byte	0x327
 17189 505b 00000000 		.4byte	.LFB294
 17190 505f 88000000 		.4byte	.LFE294-.LFB294
 17191 5063 01       		.uleb128 0x1
 17192 5064 9C       		.byte	0x9c
 17193 5065 B4500000 		.4byte	0x50b4
 17194 5069 3C       		.uleb128 0x3c
 17195 506a 63687000 		.ascii	"chp\000"
 17196 506e 07       		.byte	0x7
 17197 506f 2703     		.2byte	0x327
 17198 5071 00410000 		.4byte	0x4100
 17199 5075 02       		.uleb128 0x2
 17200 5076 91       		.byte	0x91
 17201 5077 6C       		.sleb128 -20
 17202 5078 3E       		.uleb128 0x3e
 17203 5079 FF070000 		.4byte	.LASF1022
 17204 507d 07       		.byte	0x7
 17205 507e 2703     		.2byte	0x327
 17206 5080 25000000 		.4byte	0x25
 17207 5084 02       		.uleb128 0x2
 17208 5085 91       		.byte	0x91
 17209 5086 68       		.sleb128 -24
 17210 5087 3E       		.uleb128 0x3e
 17211 5088 C6230000 		.4byte	.LASF1023
 17212 508c 07       		.byte	0x7
 17213 508d 2703     		.2byte	0x327
 17214 508f 06410000 		.4byte	0x4106
 17215 5093 02       		.uleb128 0x2
 17216 5094 91       		.byte	0x91
 17217 5095 64       		.sleb128 -28
 17218 5096 3A       		.uleb128 0x3a
 17219 5097 65727200 		.ascii	"err\000"
 17220 509b 07       		.byte	0x7
 17221 509c 2903     		.2byte	0x329
 17222 509e 68090000 		.4byte	0x968
 17223 50a2 02       		.uleb128 0x2
 17224 50a3 91       		.byte	0x91
ARM GAS  C:\Users\Moi\AppData\Local\Temp\cchaECY7.s 			page 316


 17225 50a4 73       		.sleb128 -13
 17226 50a5 3A       		.uleb128 0x3a
 17227 50a6 616500   		.ascii	"ae\000"
 17228 50a9 07       		.byte	0x7
 17229 50aa 2A03     		.2byte	0x32a
 17230 50ac 73090000 		.4byte	0x973
 17231 50b0 02       		.uleb128 0x2
 17232 50b1 91       		.byte	0x91
 17233 50b2 72       		.sleb128 -14
 17234 50b3 00       		.byte	0
 17235 50b4 3B       		.uleb128 0x3b
 17236 50b5 5A2A0000 		.4byte	.LASF1053
 17237 50b9 07       		.byte	0x7
 17238 50ba 1303     		.2byte	0x313
 17239 50bc 00000000 		.4byte	.LFB293
 17240 50c0 88000000 		.4byte	.LFE293-.LFB293
 17241 50c4 01       		.uleb128 0x1
 17242 50c5 9C       		.byte	0x9c
 17243 50c6 16510000 		.4byte	0x5116
 17244 50ca 3C       		.uleb128 0x3c
 17245 50cb 63687000 		.ascii	"chp\000"
 17246 50cf 07       		.byte	0x7
 17247 50d0 1303     		.2byte	0x313
 17248 50d2 00410000 		.4byte	0x4100
 17249 50d6 02       		.uleb128 0x2
 17250 50d7 91       		.byte	0x91
 17251 50d8 6C       		.sleb128 -20
 17252 50d9 3E       		.uleb128 0x3e
 17253 50da FF070000 		.4byte	.LASF1022
 17254 50de 07       		.byte	0x7
 17255 50df 1303     		.2byte	0x313
 17256 50e1 25000000 		.4byte	0x25
 17257 50e5 02       		.uleb128 0x2
 17258 50e6 91       		.byte	0x91
 17259 50e7 68       		.sleb128 -24
 17260 50e8 3E       		.uleb128 0x3e
 17261 50e9 C6230000 		.4byte	.LASF1023
 17262 50ed 07       		.byte	0x7
 17263 50ee 1303     		.2byte	0x313
 17264 50f0 06410000 		.4byte	0x4106
 17265 50f4 02       		.uleb128 0x2
 17266 50f5 91       		.byte	0x91
 17267 50f6 64       		.sleb128 -28
 17268 50f7 3A       		.uleb128 0x3a
 17269 50f8 65727200 		.ascii	"err\000"
 17270 50fc 07       		.byte	0x7
 17271 50fd 1503     		.2byte	0x315
 17272 50ff 68090000 		.4byte	0x968
 17273 5103 02       		.uleb128 0x2
 17274 5104 91       		.byte	0x91
 17275 5105 73       		.sleb128 -13
 17276 5106 3A       		.uleb128 0x3a
 17277 5107 61776200 		.ascii	"awb\000"
 17278 510b 07       		.byte	0x7
 17279 510c 1603     		.2byte	0x316
 17280 510e 73090000 		.4byte	0x973
 17281 5112 02       		.uleb128 0x2
ARM GAS  C:\Users\Moi\AppData\Local\Temp\cchaECY7.s 			page 317


 17282 5113 91       		.byte	0x91
 17283 5114 72       		.sleb128 -14
 17284 5115 00       		.byte	0
 17285 5116 3B       		.uleb128 0x3b
 17286 5117 852C0000 		.4byte	.LASF1054
 17287 511b 07       		.byte	0x7
 17288 511c FD02     		.2byte	0x2fd
 17289 511e 00000000 		.4byte	.LFB292
 17290 5122 B4000000 		.4byte	.LFE292-.LFB292
 17291 5126 01       		.uleb128 0x1
 17292 5127 9C       		.byte	0x9c
 17293 5128 90510000 		.4byte	0x5190
 17294 512c 3C       		.uleb128 0x3c
 17295 512d 63687000 		.ascii	"chp\000"
 17296 5131 07       		.byte	0x7
 17297 5132 FD02     		.2byte	0x2fd
 17298 5134 00410000 		.4byte	0x4100
 17299 5138 02       		.uleb128 0x2
 17300 5139 91       		.byte	0x91
 17301 513a 6C       		.sleb128 -20
 17302 513b 3E       		.uleb128 0x3e
 17303 513c FF070000 		.4byte	.LASF1022
 17304 5140 07       		.byte	0x7
 17305 5141 FD02     		.2byte	0x2fd
 17306 5143 25000000 		.4byte	0x25
 17307 5147 02       		.uleb128 0x2
 17308 5148 91       		.byte	0x91
 17309 5149 68       		.sleb128 -24
 17310 514a 3E       		.uleb128 0x3e
 17311 514b C6230000 		.4byte	.LASF1023
 17312 514f 07       		.byte	0x7
 17313 5150 FD02     		.2byte	0x2fd
 17314 5152 06410000 		.4byte	0x4106
 17315 5156 02       		.uleb128 0x2
 17316 5157 91       		.byte	0x91
 17317 5158 64       		.sleb128 -28
 17318 5159 3A       		.uleb128 0x3a
 17319 515a 65727200 		.ascii	"err\000"
 17320 515e 07       		.byte	0x7
 17321 515f FF02     		.2byte	0x2ff
 17322 5161 68090000 		.4byte	0x968
 17323 5165 02       		.uleb128 0x2
 17324 5166 91       		.byte	0x91
 17325 5167 73       		.sleb128 -13
 17326 5168 3A       		.uleb128 0x3a
 17327 5169 7200     		.ascii	"r\000"
 17328 516b 07       		.byte	0x7
 17329 516c 0003     		.2byte	0x300
 17330 516e 73090000 		.4byte	0x973
 17331 5172 02       		.uleb128 0x2
 17332 5173 91       		.byte	0x91
 17333 5174 70       		.sleb128 -16
 17334 5175 3A       		.uleb128 0x3a
 17335 5176 6700     		.ascii	"g\000"
 17336 5178 07       		.byte	0x7
 17337 5179 0003     		.2byte	0x300
 17338 517b 73090000 		.4byte	0x973
ARM GAS  C:\Users\Moi\AppData\Local\Temp\cchaECY7.s 			page 318


 17339 517f 02       		.uleb128 0x2
 17340 5180 91       		.byte	0x91
 17341 5181 71       		.sleb128 -15
 17342 5182 3A       		.uleb128 0x3a
 17343 5183 6200     		.ascii	"b\000"
 17344 5185 07       		.byte	0x7
 17345 5186 0003     		.2byte	0x300
 17346 5188 73090000 		.4byte	0x973
 17347 518c 02       		.uleb128 0x2
 17348 518d 91       		.byte	0x91
 17349 518e 72       		.sleb128 -14
 17350 518f 00       		.byte	0
 17351 5190 3B       		.uleb128 0x3b
 17352 5191 D5290000 		.4byte	.LASF1055
 17353 5195 07       		.byte	0x7
 17354 5196 E802     		.2byte	0x2e8
 17355 5198 00000000 		.4byte	.LFB291
 17356 519c A0000000 		.4byte	.LFE291-.LFB291
 17357 51a0 01       		.uleb128 0x1
 17358 51a1 9C       		.byte	0x9c
 17359 51a2 FD510000 		.4byte	0x51fd
 17360 51a6 3C       		.uleb128 0x3c
 17361 51a7 63687000 		.ascii	"chp\000"
 17362 51ab 07       		.byte	0x7
 17363 51ac E802     		.2byte	0x2e8
 17364 51ae 00410000 		.4byte	0x4100
 17365 51b2 02       		.uleb128 0x2
 17366 51b3 91       		.byte	0x91
 17367 51b4 6C       		.sleb128 -20
 17368 51b5 3E       		.uleb128 0x3e
 17369 51b6 FF070000 		.4byte	.LASF1022
 17370 51ba 07       		.byte	0x7
 17371 51bb E802     		.2byte	0x2e8
 17372 51bd 25000000 		.4byte	0x25
 17373 51c1 02       		.uleb128 0x2
 17374 51c2 91       		.byte	0x91
 17375 51c3 68       		.sleb128 -24
 17376 51c4 3E       		.uleb128 0x3e
 17377 51c5 C6230000 		.4byte	.LASF1023
 17378 51c9 07       		.byte	0x7
 17379 51ca E802     		.2byte	0x2e8
 17380 51cc 06410000 		.4byte	0x4106
 17381 51d0 02       		.uleb128 0x2
 17382 51d1 91       		.byte	0x91
 17383 51d2 64       		.sleb128 -28
 17384 51d3 3A       		.uleb128 0x3a
 17385 51d4 65727200 		.ascii	"err\000"
 17386 51d8 07       		.byte	0x7
 17387 51d9 EA02     		.2byte	0x2ea
 17388 51db 68090000 		.4byte	0x968
 17389 51df 02       		.uleb128 0x2
 17390 51e0 91       		.byte	0x91
 17391 51e1 73       		.sleb128 -13
 17392 51e2 3A       		.uleb128 0x3a
 17393 51e3 7600     		.ascii	"v\000"
 17394 51e5 07       		.byte	0x7
 17395 51e6 EB02     		.2byte	0x2eb
ARM GAS  C:\Users\Moi\AppData\Local\Temp\cchaECY7.s 			page 319


 17396 51e8 73090000 		.4byte	0x973
 17397 51ec 02       		.uleb128 0x2
 17398 51ed 91       		.byte	0x91
 17399 51ee 71       		.sleb128 -15
 17400 51ef 3A       		.uleb128 0x3a
 17401 51f0 6800     		.ascii	"h\000"
 17402 51f2 07       		.byte	0x7
 17403 51f3 EB02     		.2byte	0x2eb
 17404 51f5 73090000 		.4byte	0x973
 17405 51f9 02       		.uleb128 0x2
 17406 51fa 91       		.byte	0x91
 17407 51fb 72       		.sleb128 -14
 17408 51fc 00       		.byte	0
 17409 51fd 3B       		.uleb128 0x3b
 17410 51fe 282E0000 		.4byte	.LASF1056
 17411 5202 07       		.byte	0x7
 17412 5203 D302     		.2byte	0x2d3
 17413 5205 00000000 		.4byte	.LFB290
 17414 5209 08010000 		.4byte	.LFE290-.LFB290
 17415 520d 01       		.uleb128 0x1
 17416 520e 9C       		.byte	0x9c
 17417 520f 50520000 		.4byte	0x5250
 17418 5213 3C       		.uleb128 0x3c
 17419 5214 63687000 		.ascii	"chp\000"
 17420 5218 07       		.byte	0x7
 17421 5219 D302     		.2byte	0x2d3
 17422 521b 00410000 		.4byte	0x4100
 17423 521f 02       		.uleb128 0x2
 17424 5220 91       		.byte	0x91
 17425 5221 64       		.sleb128 -28
 17426 5222 3E       		.uleb128 0x3e
 17427 5223 FF070000 		.4byte	.LASF1022
 17428 5227 07       		.byte	0x7
 17429 5228 D302     		.2byte	0x2d3
 17430 522a 25000000 		.4byte	0x25
 17431 522e 02       		.uleb128 0x2
 17432 522f 91       		.byte	0x91
 17433 5230 60       		.sleb128 -32
 17434 5231 3E       		.uleb128 0x3e
 17435 5232 C6230000 		.4byte	.LASF1023
 17436 5236 07       		.byte	0x7
 17437 5237 D302     		.2byte	0x2d3
 17438 5239 06410000 		.4byte	0x4106
 17439 523d 02       		.uleb128 0x2
 17440 523e 91       		.byte	0x91
 17441 523f 5C       		.sleb128 -36
 17442 5240 3A       		.uleb128 0x3a
 17443 5241 65727200 		.ascii	"err\000"
 17444 5245 07       		.byte	0x7
 17445 5246 D502     		.2byte	0x2d5
 17446 5248 68090000 		.4byte	0x968
 17447 524c 02       		.uleb128 0x2
 17448 524d 91       		.byte	0x91
 17449 524e 6B       		.sleb128 -21
 17450 524f 00       		.byte	0
 17451 5250 3B       		.uleb128 0x3b
 17452 5251 162E0000 		.4byte	.LASF1057
ARM GAS  C:\Users\Moi\AppData\Local\Temp\cchaECY7.s 			page 320


 17453 5255 07       		.byte	0x7
 17454 5256 A702     		.2byte	0x2a7
 17455 5258 00000000 		.4byte	.LFB289
 17456 525c 44010000 		.4byte	.LFE289-.LFB289
 17457 5260 01       		.uleb128 0x1
 17458 5261 9C       		.byte	0x9c
 17459 5262 BD520000 		.4byte	0x52bd
 17460 5266 3C       		.uleb128 0x3c
 17461 5267 63687000 		.ascii	"chp\000"
 17462 526b 07       		.byte	0x7
 17463 526c A702     		.2byte	0x2a7
 17464 526e 00410000 		.4byte	0x4100
 17465 5272 02       		.uleb128 0x2
 17466 5273 91       		.byte	0x91
 17467 5274 6C       		.sleb128 -20
 17468 5275 3E       		.uleb128 0x3e
 17469 5276 FF070000 		.4byte	.LASF1022
 17470 527a 07       		.byte	0x7
 17471 527b A702     		.2byte	0x2a7
 17472 527d 25000000 		.4byte	0x25
 17473 5281 02       		.uleb128 0x2
 17474 5282 91       		.byte	0x91
 17475 5283 68       		.sleb128 -24
 17476 5284 3E       		.uleb128 0x3e
 17477 5285 C6230000 		.4byte	.LASF1023
 17478 5289 07       		.byte	0x7
 17479 528a A702     		.2byte	0x2a7
 17480 528c 06410000 		.4byte	0x4106
 17481 5290 02       		.uleb128 0x2
 17482 5291 91       		.byte	0x91
 17483 5292 64       		.sleb128 -28
 17484 5293 3A       		.uleb128 0x3a
 17485 5294 6600     		.ascii	"f\000"
 17486 5296 07       		.byte	0x7
 17487 5297 A902     		.2byte	0x2a9
 17488 5299 8E090000 		.4byte	0x98e
 17489 529d 02       		.uleb128 0x2
 17490 529e 91       		.byte	0x91
 17491 529f 72       		.sleb128 -14
 17492 52a0 3A       		.uleb128 0x3a
 17493 52a1 737800   		.ascii	"sx\000"
 17494 52a4 07       		.byte	0x7
 17495 52a5 AA02     		.2byte	0x2aa
 17496 52a7 73090000 		.4byte	0x973
 17497 52ab 02       		.uleb128 0x2
 17498 52ac 91       		.byte	0x91
 17499 52ad 70       		.sleb128 -16
 17500 52ae 3A       		.uleb128 0x3a
 17501 52af 737900   		.ascii	"sy\000"
 17502 52b2 07       		.byte	0x7
 17503 52b3 AA02     		.2byte	0x2aa
 17504 52b5 73090000 		.4byte	0x973
 17505 52b9 02       		.uleb128 0x2
 17506 52ba 91       		.byte	0x91
 17507 52bb 71       		.sleb128 -15
 17508 52bc 00       		.byte	0
 17509 52bd 3B       		.uleb128 0x3b
ARM GAS  C:\Users\Moi\AppData\Local\Temp\cchaECY7.s 			page 321


 17510 52be 98070000 		.4byte	.LASF1058
 17511 52c2 07       		.byte	0x7
 17512 52c3 9502     		.2byte	0x295
 17513 52c5 00000000 		.4byte	.LFB288
 17514 52c9 88000000 		.4byte	.LFE288-.LFB288
 17515 52cd 01       		.uleb128 0x1
 17516 52ce 9C       		.byte	0x9c
 17517 52cf 1F530000 		.4byte	0x531f
 17518 52d3 3C       		.uleb128 0x3c
 17519 52d4 63687000 		.ascii	"chp\000"
 17520 52d8 07       		.byte	0x7
 17521 52d9 9502     		.2byte	0x295
 17522 52db 00410000 		.4byte	0x4100
 17523 52df 02       		.uleb128 0x2
 17524 52e0 91       		.byte	0x91
 17525 52e1 6C       		.sleb128 -20
 17526 52e2 3E       		.uleb128 0x3e
 17527 52e3 FF070000 		.4byte	.LASF1022
 17528 52e7 07       		.byte	0x7
 17529 52e8 9502     		.2byte	0x295
 17530 52ea 25000000 		.4byte	0x25
 17531 52ee 02       		.uleb128 0x2
 17532 52ef 91       		.byte	0x91
 17533 52f0 68       		.sleb128 -24
 17534 52f1 3E       		.uleb128 0x3e
 17535 52f2 C6230000 		.4byte	.LASF1023
 17536 52f6 07       		.byte	0x7
 17537 52f7 9502     		.2byte	0x295
 17538 52f9 06410000 		.4byte	0x4106
 17539 52fd 02       		.uleb128 0x2
 17540 52fe 91       		.byte	0x91
 17541 52ff 64       		.sleb128 -28
 17542 5300 3D       		.uleb128 0x3d
 17543 5301 320E0000 		.4byte	.LASF923
 17544 5305 07       		.byte	0x7
 17545 5306 9702     		.2byte	0x297
 17546 5308 68090000 		.4byte	0x968
 17547 530c 02       		.uleb128 0x2
 17548 530d 91       		.byte	0x91
 17549 530e 72       		.sleb128 -14
 17550 530f 3A       		.uleb128 0x3a
 17551 5310 65727200 		.ascii	"err\000"
 17552 5314 07       		.byte	0x7
 17553 5315 9702     		.2byte	0x297
 17554 5317 68090000 		.4byte	0x968
 17555 531b 02       		.uleb128 0x2
 17556 531c 91       		.byte	0x91
 17557 531d 73       		.sleb128 -13
 17558 531e 00       		.byte	0
 17559 531f 3B       		.uleb128 0x3b
 17560 5320 E20D0000 		.4byte	.LASF1059
 17561 5324 07       		.byte	0x7
 17562 5325 8302     		.2byte	0x283
 17563 5327 00000000 		.4byte	.LFB287
 17564 532b 88000000 		.4byte	.LFE287-.LFB287
 17565 532f 01       		.uleb128 0x1
 17566 5330 9C       		.byte	0x9c
ARM GAS  C:\Users\Moi\AppData\Local\Temp\cchaECY7.s 			page 322


 17567 5331 81530000 		.4byte	0x5381
 17568 5335 3C       		.uleb128 0x3c
 17569 5336 63687000 		.ascii	"chp\000"
 17570 533a 07       		.byte	0x7
 17571 533b 8302     		.2byte	0x283
 17572 533d 00410000 		.4byte	0x4100
 17573 5341 02       		.uleb128 0x2
 17574 5342 91       		.byte	0x91
 17575 5343 6C       		.sleb128 -20
 17576 5344 3E       		.uleb128 0x3e
 17577 5345 FF070000 		.4byte	.LASF1022
 17578 5349 07       		.byte	0x7
 17579 534a 8302     		.2byte	0x283
 17580 534c 25000000 		.4byte	0x25
 17581 5350 02       		.uleb128 0x2
 17582 5351 91       		.byte	0x91
 17583 5352 68       		.sleb128 -24
 17584 5353 3E       		.uleb128 0x3e
 17585 5354 C6230000 		.4byte	.LASF1023
 17586 5358 07       		.byte	0x7
 17587 5359 8302     		.2byte	0x283
 17588 535b 06410000 		.4byte	0x4106
 17589 535f 02       		.uleb128 0x2
 17590 5360 91       		.byte	0x91
 17591 5361 64       		.sleb128 -28
 17592 5362 3D       		.uleb128 0x3d
 17593 5363 320E0000 		.4byte	.LASF923
 17594 5367 07       		.byte	0x7
 17595 5368 8502     		.2byte	0x285
 17596 536a 68090000 		.4byte	0x968
 17597 536e 02       		.uleb128 0x2
 17598 536f 91       		.byte	0x91
 17599 5370 72       		.sleb128 -14
 17600 5371 3A       		.uleb128 0x3a
 17601 5372 65727200 		.ascii	"err\000"
 17602 5376 07       		.byte	0x7
 17603 5377 8502     		.2byte	0x285
 17604 5379 68090000 		.4byte	0x968
 17605 537d 02       		.uleb128 0x2
 17606 537e 91       		.byte	0x91
 17607 537f 73       		.sleb128 -13
 17608 5380 00       		.byte	0
 17609 5381 3B       		.uleb128 0x3b
 17610 5382 641D0000 		.4byte	.LASF1060
 17611 5386 07       		.byte	0x7
 17612 5387 7302     		.2byte	0x273
 17613 5389 00000000 		.4byte	.LFB286
 17614 538d 64000000 		.4byte	.LFE286-.LFB286
 17615 5391 01       		.uleb128 0x1
 17616 5392 9C       		.byte	0x9c
 17617 5393 E0530000 		.4byte	0x53e0
 17618 5397 3C       		.uleb128 0x3c
 17619 5398 63687000 		.ascii	"chp\000"
 17620 539c 07       		.byte	0x7
 17621 539d 7302     		.2byte	0x273
 17622 539f 00410000 		.4byte	0x4100
 17623 53a3 02       		.uleb128 0x2
ARM GAS  C:\Users\Moi\AppData\Local\Temp\cchaECY7.s 			page 323


 17624 53a4 91       		.byte	0x91
 17625 53a5 6C       		.sleb128 -20
 17626 53a6 3E       		.uleb128 0x3e
 17627 53a7 FF070000 		.4byte	.LASF1022
 17628 53ab 07       		.byte	0x7
 17629 53ac 7302     		.2byte	0x273
 17630 53ae 25000000 		.4byte	0x25
 17631 53b2 02       		.uleb128 0x2
 17632 53b3 91       		.byte	0x91
 17633 53b4 68       		.sleb128 -24
 17634 53b5 3E       		.uleb128 0x3e
 17635 53b6 C6230000 		.4byte	.LASF1023
 17636 53ba 07       		.byte	0x7
 17637 53bb 7302     		.2byte	0x273
 17638 53bd 06410000 		.4byte	0x4106
 17639 53c1 02       		.uleb128 0x2
 17640 53c2 91       		.byte	0x91
 17641 53c3 64       		.sleb128 -28
 17642 53c4 20       		.uleb128 0x20
 17643 53c5 97210000 		.4byte	.LASF1061
 17644 53c9 07       		.byte	0x7
 17645 53ca 7702     		.2byte	0x277
 17646 53cc 73090000 		.4byte	0x973
 17647 53d0 3D       		.uleb128 0x3d
 17648 53d1 832B0000 		.4byte	.LASF1062
 17649 53d5 07       		.byte	0x7
 17650 53d6 7802     		.2byte	0x278
 17651 53d8 911E0000 		.4byte	0x1e91
 17652 53dc 02       		.uleb128 0x2
 17653 53dd 91       		.byte	0x91
 17654 53de 73       		.sleb128 -13
 17655 53df 00       		.byte	0
 17656 53e0 3B       		.uleb128 0x3b
 17657 53e1 41130000 		.4byte	.LASF1063
 17658 53e5 07       		.byte	0x7
 17659 53e6 5E02     		.2byte	0x25e
 17660 53e8 00000000 		.4byte	.LFB285
 17661 53ec 78000000 		.4byte	.LFE285-.LFB285
 17662 53f0 01       		.uleb128 0x1
 17663 53f1 9C       		.byte	0x9c
 17664 53f2 5A540000 		.4byte	0x545a
 17665 53f6 3C       		.uleb128 0x3c
 17666 53f7 63687000 		.ascii	"chp\000"
 17667 53fb 07       		.byte	0x7
 17668 53fc 5E02     		.2byte	0x25e
 17669 53fe 00410000 		.4byte	0x4100
 17670 5402 02       		.uleb128 0x2
 17671 5403 91       		.byte	0x91
 17672 5404 64       		.sleb128 -28
 17673 5405 3E       		.uleb128 0x3e
 17674 5406 FF070000 		.4byte	.LASF1022
 17675 540a 07       		.byte	0x7
 17676 540b 5E02     		.2byte	0x25e
 17677 540d 25000000 		.4byte	0x25
 17678 5411 02       		.uleb128 0x2
 17679 5412 91       		.byte	0x91
 17680 5413 60       		.sleb128 -32
ARM GAS  C:\Users\Moi\AppData\Local\Temp\cchaECY7.s 			page 324


 17681 5414 3E       		.uleb128 0x3e
 17682 5415 C6230000 		.4byte	.LASF1023
 17683 5419 07       		.byte	0x7
 17684 541a 5E02     		.2byte	0x25e
 17685 541c 06410000 		.4byte	0x4106
 17686 5420 02       		.uleb128 0x2
 17687 5421 91       		.byte	0x91
 17688 5422 5C       		.sleb128 -36
 17689 5423 20       		.uleb128 0x20
 17690 5424 97210000 		.4byte	.LASF1061
 17691 5428 07       		.byte	0x7
 17692 5429 6202     		.2byte	0x262
 17693 542b 73090000 		.4byte	0x973
 17694 542f 20       		.uleb128 0x20
 17695 5430 2F1F0000 		.4byte	.LASF1064
 17696 5434 07       		.byte	0x7
 17697 5435 6202     		.2byte	0x262
 17698 5437 73090000 		.4byte	0x973
 17699 543b 3A       		.uleb128 0x3a
 17700 543c 6C656E00 		.ascii	"len\000"
 17701 5440 07       		.byte	0x7
 17702 5441 6302     		.2byte	0x263
 17703 5443 2C000000 		.4byte	0x2c
 17704 5447 02       		.uleb128 0x2
 17705 5448 91       		.byte	0x91
 17706 5449 70       		.sleb128 -16
 17707 544a 3D       		.uleb128 0x3d
 17708 544b 832B0000 		.4byte	.LASF1062
 17709 544f 07       		.byte	0x7
 17710 5450 6402     		.2byte	0x264
 17711 5452 911E0000 		.4byte	0x1e91
 17712 5456 02       		.uleb128 0x2
 17713 5457 91       		.byte	0x91
 17714 5458 6F       		.sleb128 -17
 17715 5459 00       		.byte	0
 17716 545a 3B       		.uleb128 0x3b
 17717 545b 1F160000 		.4byte	.LASF1065
 17718 545f 07       		.byte	0x7
 17719 5460 5402     		.2byte	0x254
 17720 5462 00000000 		.4byte	.LFB284
 17721 5466 34000000 		.4byte	.LFE284-.LFB284
 17722 546a 01       		.uleb128 0x1
 17723 546b 9C       		.byte	0x9c
 17724 546c AA540000 		.4byte	0x54aa
 17725 5470 3C       		.uleb128 0x3c
 17726 5471 63687000 		.ascii	"chp\000"
 17727 5475 07       		.byte	0x7
 17728 5476 5402     		.2byte	0x254
 17729 5478 00410000 		.4byte	0x4100
 17730 547c 02       		.uleb128 0x2
 17731 547d 91       		.byte	0x91
 17732 547e 6C       		.sleb128 -20
 17733 547f 3E       		.uleb128 0x3e
 17734 5480 FF070000 		.4byte	.LASF1022
 17735 5484 07       		.byte	0x7
 17736 5485 5402     		.2byte	0x254
 17737 5487 25000000 		.4byte	0x25
ARM GAS  C:\Users\Moi\AppData\Local\Temp\cchaECY7.s 			page 325


 17738 548b 02       		.uleb128 0x2
 17739 548c 91       		.byte	0x91
 17740 548d 68       		.sleb128 -24
 17741 548e 3E       		.uleb128 0x3e
 17742 548f C6230000 		.4byte	.LASF1023
 17743 5493 07       		.byte	0x7
 17744 5494 5402     		.2byte	0x254
 17745 5496 06410000 		.4byte	0x4106
 17746 549a 02       		.uleb128 0x2
 17747 549b 91       		.byte	0x91
 17748 549c 64       		.sleb128 -28
 17749 549d 20       		.uleb128 0x20
 17750 549e 97210000 		.4byte	.LASF1061
 17751 54a2 07       		.byte	0x7
 17752 54a3 5902     		.2byte	0x259
 17753 54a5 73090000 		.4byte	0x973
 17754 54a9 00       		.byte	0
 17755 54aa 3B       		.uleb128 0x3b
 17756 54ab 6A080000 		.4byte	.LASF1066
 17757 54af 07       		.byte	0x7
 17758 54b0 2202     		.2byte	0x222
 17759 54b2 00000000 		.4byte	.LFB283
 17760 54b6 3C010000 		.4byte	.LFE283-.LFB283
 17761 54ba 01       		.uleb128 0x1
 17762 54bb 9C       		.byte	0x9c
 17763 54bc 0C550000 		.4byte	0x550c
 17764 54c0 3C       		.uleb128 0x3c
 17765 54c1 63687000 		.ascii	"chp\000"
 17766 54c5 07       		.byte	0x7
 17767 54c6 2202     		.2byte	0x222
 17768 54c8 00410000 		.4byte	0x4100
 17769 54cc 02       		.uleb128 0x2
 17770 54cd 91       		.byte	0x91
 17771 54ce 64       		.sleb128 -28
 17772 54cf 3E       		.uleb128 0x3e
 17773 54d0 FF070000 		.4byte	.LASF1022
 17774 54d4 07       		.byte	0x7
 17775 54d5 2202     		.2byte	0x222
 17776 54d7 25000000 		.4byte	0x25
 17777 54db 02       		.uleb128 0x2
 17778 54dc 91       		.byte	0x91
 17779 54dd 60       		.sleb128 -32
 17780 54de 3E       		.uleb128 0x3e
 17781 54df C6230000 		.4byte	.LASF1023
 17782 54e3 07       		.byte	0x7
 17783 54e4 2202     		.2byte	0x222
 17784 54e6 06410000 		.4byte	0x4106
 17785 54ea 02       		.uleb128 0x2
 17786 54eb 91       		.byte	0x91
 17787 54ec 5C       		.sleb128 -36
 17788 54ed 3D       		.uleb128 0x3d
 17789 54ee E3050000 		.4byte	.LASF1067
 17790 54f2 07       		.byte	0x7
 17791 54f3 2402     		.2byte	0x224
 17792 54f5 A2440000 		.4byte	0x44a2
 17793 54f9 02       		.uleb128 0x2
 17794 54fa 91       		.byte	0x91
ARM GAS  C:\Users\Moi\AppData\Local\Temp\cchaECY7.s 			page 326


 17795 54fb 70       		.sleb128 -16
 17796 54fc 3D       		.uleb128 0x3d
 17797 54fd CB000000 		.4byte	.LASF1068
 17798 5501 07       		.byte	0x7
 17799 5502 2502     		.2byte	0x225
 17800 5504 25000000 		.4byte	0x25
 17801 5508 02       		.uleb128 0x2
 17802 5509 91       		.byte	0x91
 17803 550a 6C       		.sleb128 -20
 17804 550b 00       		.byte	0
 17805 550c 3B       		.uleb128 0x3b
 17806 550d C70C0000 		.4byte	.LASF1069
 17807 5511 07       		.byte	0x7
 17808 5512 1202     		.2byte	0x212
 17809 5514 00000000 		.4byte	.LFB282
 17810 5518 64000000 		.4byte	.LFE282-.LFB282
 17811 551c 01       		.uleb128 0x1
 17812 551d 9C       		.byte	0x9c
 17813 551e 5E550000 		.4byte	0x555e
 17814 5522 3C       		.uleb128 0x3c
 17815 5523 63687000 		.ascii	"chp\000"
 17816 5527 07       		.byte	0x7
 17817 5528 1202     		.2byte	0x212
 17818 552a 00410000 		.4byte	0x4100
 17819 552e 02       		.uleb128 0x2
 17820 552f 91       		.byte	0x91
 17821 5530 6C       		.sleb128 -20
 17822 5531 3E       		.uleb128 0x3e
 17823 5532 FF070000 		.4byte	.LASF1022
 17824 5536 07       		.byte	0x7
 17825 5537 1202     		.2byte	0x212
 17826 5539 25000000 		.4byte	0x25
 17827 553d 02       		.uleb128 0x2
 17828 553e 91       		.byte	0x91
 17829 553f 68       		.sleb128 -24
 17830 5540 3E       		.uleb128 0x3e
 17831 5541 C6230000 		.4byte	.LASF1023
 17832 5545 07       		.byte	0x7
 17833 5546 1202     		.2byte	0x212
 17834 5548 06410000 		.4byte	0x4106
 17835 554c 02       		.uleb128 0x2
 17836 554d 91       		.byte	0x91
 17837 554e 64       		.sleb128 -28
 17838 554f 3A       		.uleb128 0x3a
 17839 5550 6E7300   		.ascii	"ns\000"
 17840 5553 07       		.byte	0x7
 17841 5554 1402     		.2byte	0x214
 17842 5556 9C440000 		.4byte	0x449c
 17843 555a 02       		.uleb128 0x2
 17844 555b 91       		.byte	0x91
 17845 555c 70       		.sleb128 -16
 17846 555d 00       		.byte	0
 17847 555e 3B       		.uleb128 0x3b
 17848 555f 092A0000 		.4byte	.LASF1070
 17849 5563 07       		.byte	0x7
 17850 5564 E301     		.2byte	0x1e3
 17851 5566 00000000 		.4byte	.LFB281
ARM GAS  C:\Users\Moi\AppData\Local\Temp\cchaECY7.s 			page 327


 17852 556a 7C010000 		.4byte	.LFE281-.LFB281
 17853 556e 01       		.uleb128 0x1
 17854 556f 9C       		.byte	0x9c
 17855 5570 C2550000 		.4byte	0x55c2
 17856 5574 3C       		.uleb128 0x3c
 17857 5575 6F757400 		.ascii	"out\000"
 17858 5579 07       		.byte	0x7
 17859 557a E301     		.2byte	0x1e3
 17860 557c 00410000 		.4byte	0x4100
 17861 5580 03       		.uleb128 0x3
 17862 5581 91       		.byte	0x91
 17863 5582 A47F     		.sleb128 -92
 17864 5584 3C       		.uleb128 0x3c
 17865 5585 6E7300   		.ascii	"ns\000"
 17866 5588 07       		.byte	0x7
 17867 5589 E301     		.2byte	0x1e3
 17868 558b 9C440000 		.4byte	0x449c
 17869 558f 03       		.uleb128 0x3
 17870 5590 91       		.byte	0x91
 17871 5591 A07F     		.sleb128 -96
 17872 5593 3E       		.uleb128 0x3e
 17873 5594 07110000 		.4byte	.LASF1071
 17874 5598 07       		.byte	0x7
 17875 5599 E301     		.2byte	0x1e3
 17876 559b 25000000 		.4byte	0x25
 17877 559f 03       		.uleb128 0x3
 17878 55a0 91       		.byte	0x91
 17879 55a1 9C7F     		.sleb128 -100
 17880 55a3 3A       		.uleb128 0x3a
 17881 55a4 7000     		.ascii	"p\000"
 17882 55a6 07       		.byte	0x7
 17883 55a7 E501     		.2byte	0x1e5
 17884 55a9 A2440000 		.4byte	0x44a2
 17885 55ad 03       		.uleb128 0x3
 17886 55ae 91       		.byte	0x91
 17887 55af A87F     		.sleb128 -88
 17888 55b1 3D       		.uleb128 0x3d
 17889 55b2 181D0000 		.4byte	.LASF1072
 17890 55b6 07       		.byte	0x7
 17891 55b7 E601     		.2byte	0x1e6
 17892 55b9 C2550000 		.4byte	0x55c2
 17893 55bd 03       		.uleb128 0x3
 17894 55be 91       		.byte	0x91
 17895 55bf AC7F     		.sleb128 -84
 17896 55c1 00       		.byte	0
 17897 55c2 0A       		.uleb128 0xa
 17898 55c3 75010000 		.4byte	0x175
 17899 55c7 D2550000 		.4byte	0x55d2
 17900 55cb 0B       		.uleb128 0xb
 17901 55cc 37000000 		.4byte	0x37
 17902 55d0 3F       		.byte	0x3f
 17903 55d1 00       		.byte	0
 17904 55d2 3B       		.uleb128 0x3b
 17905 55d3 170B0000 		.4byte	.LASF1073
 17906 55d7 07       		.byte	0x7
 17907 55d8 DB01     		.2byte	0x1db
 17908 55da 00000000 		.4byte	.LFB280
ARM GAS  C:\Users\Moi\AppData\Local\Temp\cchaECY7.s 			page 328


 17909 55de 48000000 		.4byte	.LFE280-.LFB280
 17910 55e2 01       		.uleb128 0x1
 17911 55e3 9C       		.byte	0x9c
 17912 55e4 14560000 		.4byte	0x5614
 17913 55e8 3C       		.uleb128 0x3c
 17914 55e9 6F757400 		.ascii	"out\000"
 17915 55ed 07       		.byte	0x7
 17916 55ee DB01     		.2byte	0x1db
 17917 55f0 00410000 		.4byte	0x4100
 17918 55f4 02       		.uleb128 0x2
 17919 55f5 91       		.byte	0x91
 17920 55f6 6C       		.sleb128 -20
 17921 55f7 3E       		.uleb128 0x3e
 17922 55f8 07110000 		.4byte	.LASF1071
 17923 55fc 07       		.byte	0x7
 17924 55fd DB01     		.2byte	0x1db
 17925 55ff 25000000 		.4byte	0x25
 17926 5603 02       		.uleb128 0x2
 17927 5604 91       		.byte	0x91
 17928 5605 68       		.sleb128 -24
 17929 5606 3A       		.uleb128 0x3a
 17930 5607 6900     		.ascii	"i\000"
 17931 5609 07       		.byte	0x7
 17932 560a DD01     		.2byte	0x1dd
 17933 560c 25000000 		.4byte	0x25
 17934 5610 02       		.uleb128 0x2
 17935 5611 91       		.byte	0x91
 17936 5612 70       		.sleb128 -16
 17937 5613 00       		.byte	0
 17938 5614 3B       		.uleb128 0x3b
 17939 5615 0D050000 		.4byte	.LASF1074
 17940 5619 07       		.byte	0x7
 17941 561a C301     		.2byte	0x1c3
 17942 561c 00000000 		.4byte	.LFB279
 17943 5620 FC000000 		.4byte	.LFE279-.LFB279
 17944 5624 01       		.uleb128 0x1
 17945 5625 9C       		.byte	0x9c
 17946 5626 90560000 		.4byte	0x5690
 17947 562a 3C       		.uleb128 0x3c
 17948 562b 63687000 		.ascii	"chp\000"
 17949 562f 07       		.byte	0x7
 17950 5630 C301     		.2byte	0x1c3
 17951 5632 00410000 		.4byte	0x4100
 17952 5636 02       		.uleb128 0x2
 17953 5637 91       		.byte	0x91
 17954 5638 4C       		.sleb128 -52
 17955 5639 3E       		.uleb128 0x3e
 17956 563a FF070000 		.4byte	.LASF1022
 17957 563e 07       		.byte	0x7
 17958 563f C301     		.2byte	0x1c3
 17959 5641 25000000 		.4byte	0x25
 17960 5645 02       		.uleb128 0x2
 17961 5646 91       		.byte	0x91
 17962 5647 48       		.sleb128 -56
 17963 5648 3E       		.uleb128 0x3e
 17964 5649 C6230000 		.4byte	.LASF1023
 17965 564d 07       		.byte	0x7
ARM GAS  C:\Users\Moi\AppData\Local\Temp\cchaECY7.s 			page 329


 17966 564e C301     		.2byte	0x1c3
 17967 5650 06410000 		.4byte	0x4106
 17968 5654 02       		.uleb128 0x2
 17969 5655 91       		.byte	0x91
 17970 5656 44       		.sleb128 -60
 17971 5657 3A       		.uleb128 0x3a
 17972 5658 6100     		.ascii	"a\000"
 17973 565a 07       		.byte	0x7
 17974 565b C501     		.2byte	0x1c5
 17975 565d 83090000 		.4byte	0x983
 17976 5661 02       		.uleb128 0x2
 17977 5662 91       		.byte	0x91
 17978 5663 52       		.sleb128 -46
 17979 5664 3A       		.uleb128 0x3a
 17980 5665 6200     		.ascii	"b\000"
 17981 5667 07       		.byte	0x7
 17982 5668 C501     		.2byte	0x1c5
 17983 566a 83090000 		.4byte	0x983
 17984 566e 02       		.uleb128 0x2
 17985 566f 91       		.byte	0x91
 17986 5670 54       		.sleb128 -44
 17987 5671 3D       		.uleb128 0x3d
 17988 5672 30160000 		.4byte	.LASF1075
 17989 5676 07       		.byte	0x7
 17990 5677 C501     		.2byte	0x1c5
 17991 5679 83090000 		.4byte	0x983
 17992 567d 02       		.uleb128 0x2
 17993 567e 91       		.byte	0x91
 17994 567f 56       		.sleb128 -42
 17995 5680 3A       		.uleb128 0x3a
 17996 5681 746D7000 		.ascii	"tmp\000"
 17997 5685 07       		.byte	0x7
 17998 5686 C601     		.2byte	0x1c6
 17999 5688 91180000 		.4byte	0x1891
 18000 568c 02       		.uleb128 0x2
 18001 568d 91       		.byte	0x91
 18002 568e 58       		.sleb128 -40
 18003 568f 00       		.byte	0
 18004 5690 3B       		.uleb128 0x3b
 18005 5691 CB0D0000 		.4byte	.LASF1076
 18006 5695 07       		.byte	0x7
 18007 5696 9D01     		.2byte	0x19d
 18008 5698 00000000 		.4byte	.LFB278
 18009 569c 18010000 		.4byte	.LFE278-.LFB278
 18010 56a0 01       		.uleb128 0x1
 18011 56a1 9C       		.byte	0x9c
 18012 56a2 0E570000 		.4byte	0x570e
 18013 56a6 3C       		.uleb128 0x3c
 18014 56a7 63687000 		.ascii	"chp\000"
 18015 56ab 07       		.byte	0x7
 18016 56ac 9D01     		.2byte	0x19d
 18017 56ae 00410000 		.4byte	0x4100
 18018 56b2 02       		.uleb128 0x2
 18019 56b3 91       		.byte	0x91
 18020 56b4 4C       		.sleb128 -52
 18021 56b5 3E       		.uleb128 0x3e
 18022 56b6 FF070000 		.4byte	.LASF1022
ARM GAS  C:\Users\Moi\AppData\Local\Temp\cchaECY7.s 			page 330


 18023 56ba 07       		.byte	0x7
 18024 56bb 9D01     		.2byte	0x19d
 18025 56bd 25000000 		.4byte	0x25
 18026 56c1 02       		.uleb128 0x2
 18027 56c2 91       		.byte	0x91
 18028 56c3 48       		.sleb128 -56
 18029 56c4 3E       		.uleb128 0x3e
 18030 56c5 C6230000 		.4byte	.LASF1023
 18031 56c9 07       		.byte	0x7
 18032 56ca 9D01     		.2byte	0x19d
 18033 56cc 06410000 		.4byte	0x4106
 18034 56d0 02       		.uleb128 0x2
 18035 56d1 91       		.byte	0x91
 18036 56d2 44       		.sleb128 -60
 18037 56d3 3D       		.uleb128 0x3d
 18038 56d4 DC190000 		.4byte	.LASF1077
 18039 56d8 07       		.byte	0x7
 18040 56d9 9F01     		.2byte	0x19f
 18041 56db 8E090000 		.4byte	0x98e
 18042 56df 02       		.uleb128 0x2
 18043 56e0 91       		.byte	0x91
 18044 56e1 52       		.sleb128 -46
 18045 56e2 3D       		.uleb128 0x3d
 18046 56e3 30160000 		.4byte	.LASF1075
 18047 56e7 07       		.byte	0x7
 18048 56e8 9F01     		.2byte	0x19f
 18049 56ea 8E090000 		.4byte	0x98e
 18050 56ee 02       		.uleb128 0x2
 18051 56ef 91       		.byte	0x91
 18052 56f0 50       		.sleb128 -48
 18053 56f1 3A       		.uleb128 0x3a
 18054 56f2 7800     		.ascii	"x\000"
 18055 56f4 07       		.byte	0x7
 18056 56f5 A001     		.2byte	0x1a0
 18057 56f7 F6080000 		.4byte	0x8f6
 18058 56fb 02       		.uleb128 0x2
 18059 56fc 91       		.byte	0x91
 18060 56fd 54       		.sleb128 -44
 18061 56fe 3A       		.uleb128 0x3a
 18062 56ff 746D7000 		.ascii	"tmp\000"
 18063 5703 07       		.byte	0x7
 18064 5704 A101     		.2byte	0x1a1
 18065 5706 91180000 		.4byte	0x1891
 18066 570a 02       		.uleb128 0x2
 18067 570b 91       		.byte	0x91
 18068 570c 58       		.sleb128 -40
 18069 570d 00       		.byte	0
 18070 570e 3B       		.uleb128 0x3b
 18071 570f 56020000 		.4byte	.LASF1078
 18072 5713 07       		.byte	0x7
 18073 5714 9501     		.2byte	0x195
 18074 5716 00000000 		.4byte	.LFB277
 18075 571a 50000000 		.4byte	.LFE277-.LFB277
 18076 571e 01       		.uleb128 0x1
 18077 571f 9C       		.byte	0x9c
 18078 5720 52570000 		.4byte	0x5752
 18079 5724 3C       		.uleb128 0x3c
ARM GAS  C:\Users\Moi\AppData\Local\Temp\cchaECY7.s 			page 331


 18080 5725 63687000 		.ascii	"chp\000"
 18081 5729 07       		.byte	0x7
 18082 572a 9501     		.2byte	0x195
 18083 572c 00410000 		.4byte	0x4100
 18084 5730 02       		.uleb128 0x2
 18085 5731 91       		.byte	0x91
 18086 5732 6C       		.sleb128 -20
 18087 5733 3E       		.uleb128 0x3e
 18088 5734 FF070000 		.4byte	.LASF1022
 18089 5738 07       		.byte	0x7
 18090 5739 9501     		.2byte	0x195
 18091 573b 25000000 		.4byte	0x25
 18092 573f 02       		.uleb128 0x2
 18093 5740 91       		.byte	0x91
 18094 5741 68       		.sleb128 -24
 18095 5742 3E       		.uleb128 0x3e
 18096 5743 C6230000 		.4byte	.LASF1023
 18097 5747 07       		.byte	0x7
 18098 5748 9501     		.2byte	0x195
 18099 574a 06410000 		.4byte	0x4106
 18100 574e 02       		.uleb128 0x2
 18101 574f 91       		.byte	0x91
 18102 5750 64       		.sleb128 -28
 18103 5751 00       		.byte	0
 18104 5752 3B       		.uleb128 0x3b
 18105 5753 AF1C0000 		.4byte	.LASF1079
 18106 5757 07       		.byte	0x7
 18107 5758 8301     		.2byte	0x183
 18108 575a 00000000 		.4byte	.LFB276
 18109 575e 74000000 		.4byte	.LFE276-.LFB276
 18110 5762 01       		.uleb128 0x1
 18111 5763 9C       		.byte	0x9c
 18112 5764 A4570000 		.4byte	0x57a4
 18113 5768 3C       		.uleb128 0x3c
 18114 5769 63687000 		.ascii	"chp\000"
 18115 576d 07       		.byte	0x7
 18116 576e 8301     		.2byte	0x183
 18117 5770 00410000 		.4byte	0x4100
 18118 5774 02       		.uleb128 0x2
 18119 5775 91       		.byte	0x91
 18120 5776 6C       		.sleb128 -20
 18121 5777 3E       		.uleb128 0x3e
 18122 5778 FF070000 		.4byte	.LASF1022
 18123 577c 07       		.byte	0x7
 18124 577d 8301     		.2byte	0x183
 18125 577f 25000000 		.4byte	0x25
 18126 5783 02       		.uleb128 0x2
 18127 5784 91       		.byte	0x91
 18128 5785 68       		.sleb128 -24
 18129 5786 3E       		.uleb128 0x3e
 18130 5787 C6230000 		.4byte	.LASF1023
 18131 578b 07       		.byte	0x7
 18132 578c 8301     		.2byte	0x183
 18133 578e 06410000 		.4byte	0x4106
 18134 5792 02       		.uleb128 0x2
 18135 5793 91       		.byte	0x91
 18136 5794 64       		.sleb128 -28
ARM GAS  C:\Users\Moi\AppData\Local\Temp\cchaECY7.s 			page 332


 18137 5795 3A       		.uleb128 0x3a
 18138 5796 747000   		.ascii	"tp\000"
 18139 5799 07       		.byte	0x7
 18140 579a 8501     		.2byte	0x185
 18141 579c 910B0000 		.4byte	0xb91
 18142 57a0 02       		.uleb128 0x2
 18143 57a1 91       		.byte	0x91
 18144 57a2 70       		.sleb128 -16
 18145 57a3 00       		.byte	0
 18146 57a4 3B       		.uleb128 0x3b
 18147 57a5 F20B0000 		.4byte	.LASF1080
 18148 57a9 07       		.byte	0x7
 18149 57aa 6E01     		.2byte	0x16e
 18150 57ac 00000000 		.4byte	.LFB275
 18151 57b0 98000000 		.4byte	.LFE275-.LFB275
 18152 57b4 01       		.uleb128 0x1
 18153 57b5 9C       		.byte	0x9c
 18154 57b6 08580000 		.4byte	0x5808
 18155 57ba 3C       		.uleb128 0x3c
 18156 57bb 63687000 		.ascii	"chp\000"
 18157 57bf 07       		.byte	0x7
 18158 57c0 6E01     		.2byte	0x16e
 18159 57c2 00410000 		.4byte	0x4100
 18160 57c6 02       		.uleb128 0x2
 18161 57c7 91       		.byte	0x91
 18162 57c8 64       		.sleb128 -28
 18163 57c9 3E       		.uleb128 0x3e
 18164 57ca FF070000 		.4byte	.LASF1022
 18165 57ce 07       		.byte	0x7
 18166 57cf 6E01     		.2byte	0x16e
 18167 57d1 25000000 		.4byte	0x25
 18168 57d5 02       		.uleb128 0x2
 18169 57d6 91       		.byte	0x91
 18170 57d7 60       		.sleb128 -32
 18171 57d8 3E       		.uleb128 0x3e
 18172 57d9 C6230000 		.4byte	.LASF1023
 18173 57dd 07       		.byte	0x7
 18174 57de 6E01     		.2byte	0x16e
 18175 57e0 06410000 		.4byte	0x4106
 18176 57e4 02       		.uleb128 0x2
 18177 57e5 91       		.byte	0x91
 18178 57e6 5C       		.sleb128 -36
 18179 57e7 3D       		.uleb128 0x3d
 18180 57e8 210D0000 		.4byte	.LASF1081
 18181 57ec 07       		.byte	0x7
 18182 57ed 7001     		.2byte	0x170
 18183 57ef 08580000 		.4byte	0x5808
 18184 57f3 05       		.uleb128 0x5
 18185 57f4 03       		.byte	0x3
 18186 57f5 00000000 		.4byte	states.13326
 18187 57f9 3A       		.uleb128 0x3a
 18188 57fa 747000   		.ascii	"tp\000"
 18189 57fd 07       		.byte	0x7
 18190 57fe 7101     		.2byte	0x171
 18191 5800 910B0000 		.4byte	0xb91
 18192 5804 02       		.uleb128 0x2
 18193 5805 91       		.byte	0x91
ARM GAS  C:\Users\Moi\AppData\Local\Temp\cchaECY7.s 			page 333


 18194 5806 68       		.sleb128 -24
 18195 5807 00       		.byte	0
 18196 5808 0A       		.uleb128 0xa
 18197 5809 ED050000 		.4byte	0x5ed
 18198 580d 18580000 		.4byte	0x5818
 18199 5811 0B       		.uleb128 0xb
 18200 5812 37000000 		.4byte	0x37
 18201 5816 0F       		.byte	0xf
 18202 5817 00       		.byte	0
 18203 5818 3B       		.uleb128 0x3b
 18204 5819 21130000 		.4byte	.LASF1082
 18205 581d 07       		.byte	0x7
 18206 581e 5F01     		.2byte	0x15f
 18207 5820 00000000 		.4byte	.LFB274
 18208 5824 7C000000 		.4byte	.LFE274-.LFB274
 18209 5828 01       		.uleb128 0x1
 18210 5829 9C       		.byte	0x9c
 18211 582a 78580000 		.4byte	0x5878
 18212 582e 3C       		.uleb128 0x3c
 18213 582f 63687000 		.ascii	"chp\000"
 18214 5833 07       		.byte	0x7
 18215 5834 5F01     		.2byte	0x15f
 18216 5836 00410000 		.4byte	0x4100
 18217 583a 02       		.uleb128 0x2
 18218 583b 91       		.byte	0x91
 18219 583c 64       		.sleb128 -28
 18220 583d 3E       		.uleb128 0x3e
 18221 583e FF070000 		.4byte	.LASF1022
 18222 5842 07       		.byte	0x7
 18223 5843 5F01     		.2byte	0x15f
 18224 5845 25000000 		.4byte	0x25
 18225 5849 02       		.uleb128 0x2
 18226 584a 91       		.byte	0x91
 18227 584b 60       		.sleb128 -32
 18228 584c 3E       		.uleb128 0x3e
 18229 584d C6230000 		.4byte	.LASF1023
 18230 5851 07       		.byte	0x7
 18231 5852 5F01     		.2byte	0x15f
 18232 5854 06410000 		.4byte	0x4106
 18233 5858 02       		.uleb128 0x2
 18234 5859 91       		.byte	0x91
 18235 585a 5C       		.sleb128 -36
 18236 585b 3A       		.uleb128 0x3a
 18237 585c 6E00     		.ascii	"n\000"
 18238 585e 07       		.byte	0x7
 18239 585f 6101     		.2byte	0x161
 18240 5861 2C000000 		.4byte	0x2c
 18241 5865 02       		.uleb128 0x2
 18242 5866 91       		.byte	0x91
 18243 5867 70       		.sleb128 -16
 18244 5868 3D       		.uleb128 0x3d
 18245 5869 120F0000 		.4byte	.LASF614
 18246 586d 07       		.byte	0x7
 18247 586e 6101     		.2byte	0x161
 18248 5870 2C000000 		.4byte	0x2c
 18249 5874 02       		.uleb128 0x2
 18250 5875 91       		.byte	0x91
ARM GAS  C:\Users\Moi\AppData\Local\Temp\cchaECY7.s 			page 334


 18251 5876 6C       		.sleb128 -20
 18252 5877 00       		.byte	0
 18253 5878 3B       		.uleb128 0x3b
 18254 5879 B5140000 		.4byte	.LASF1083
 18255 587d 07       		.byte	0x7
 18256 587e 5601     		.2byte	0x156
 18257 5880 00000000 		.4byte	.LFB273
 18258 5884 30000000 		.4byte	.LFE273-.LFB273
 18259 5888 01       		.uleb128 0x1
 18260 5889 9C       		.byte	0x9c
 18261 588a BC580000 		.4byte	0x58bc
 18262 588e 3C       		.uleb128 0x3c
 18263 588f 63687000 		.ascii	"chp\000"
 18264 5893 07       		.byte	0x7
 18265 5894 5601     		.2byte	0x156
 18266 5896 00410000 		.4byte	0x4100
 18267 589a 02       		.uleb128 0x2
 18268 589b 91       		.byte	0x91
 18269 589c 6C       		.sleb128 -20
 18270 589d 3E       		.uleb128 0x3e
 18271 589e FF070000 		.4byte	.LASF1022
 18272 58a2 07       		.byte	0x7
 18273 58a3 5601     		.2byte	0x156
 18274 58a5 25000000 		.4byte	0x25
 18275 58a9 02       		.uleb128 0x2
 18276 58aa 91       		.byte	0x91
 18277 58ab 68       		.sleb128 -24
 18278 58ac 3E       		.uleb128 0x3e
 18279 58ad C6230000 		.4byte	.LASF1023
 18280 58b1 07       		.byte	0x7
 18281 58b2 5601     		.2byte	0x156
 18282 58b4 06410000 		.4byte	0x4106
 18283 58b8 02       		.uleb128 0x2
 18284 58b9 91       		.byte	0x91
 18285 58ba 64       		.sleb128 -28
 18286 58bb 00       		.byte	0
 18287 58bc 3B       		.uleb128 0x3b
 18288 58bd 47000000 		.4byte	.LASF1084
 18289 58c1 07       		.byte	0x7
 18290 58c2 3D01     		.2byte	0x13d
 18291 58c4 00000000 		.4byte	.LFB272
 18292 58c8 0C010000 		.4byte	.LFE272-.LFB272
 18293 58cc 01       		.uleb128 0x1
 18294 58cd 9C       		.byte	0x9c
 18295 58ce 00590000 		.4byte	0x5900
 18296 58d2 3C       		.uleb128 0x3c
 18297 58d3 63687000 		.ascii	"chp\000"
 18298 58d7 07       		.byte	0x7
 18299 58d8 3D01     		.2byte	0x13d
 18300 58da 00410000 		.4byte	0x4100
 18301 58de 02       		.uleb128 0x2
 18302 58df 91       		.byte	0x91
 18303 58e0 6C       		.sleb128 -20
 18304 58e1 3E       		.uleb128 0x3e
 18305 58e2 FF070000 		.4byte	.LASF1022
 18306 58e6 07       		.byte	0x7
 18307 58e7 3D01     		.2byte	0x13d
ARM GAS  C:\Users\Moi\AppData\Local\Temp\cchaECY7.s 			page 335


 18308 58e9 25000000 		.4byte	0x25
 18309 58ed 02       		.uleb128 0x2
 18310 58ee 91       		.byte	0x91
 18311 58ef 68       		.sleb128 -24
 18312 58f0 3E       		.uleb128 0x3e
 18313 58f1 C6230000 		.4byte	.LASF1023
 18314 58f5 07       		.byte	0x7
 18315 58f6 3D01     		.2byte	0x13d
 18316 58f8 06410000 		.4byte	0x4106
 18317 58fc 02       		.uleb128 0x2
 18318 58fd 91       		.byte	0x91
 18319 58fe 64       		.sleb128 -28
 18320 58ff 00       		.byte	0
 18321 5900 3B       		.uleb128 0x3b
 18322 5901 82070000 		.4byte	.LASF1085
 18323 5905 07       		.byte	0x7
 18324 5906 3201     		.2byte	0x132
 18325 5908 00000000 		.4byte	.LFB271
 18326 590c 50000000 		.4byte	.LFE271-.LFB271
 18327 5910 01       		.uleb128 0x1
 18328 5911 9C       		.byte	0x9c
 18329 5912 44590000 		.4byte	0x5944
 18330 5916 3C       		.uleb128 0x3c
 18331 5917 63687000 		.ascii	"chp\000"
 18332 591b 07       		.byte	0x7
 18333 591c 3201     		.2byte	0x132
 18334 591e 00410000 		.4byte	0x4100
 18335 5922 02       		.uleb128 0x2
 18336 5923 91       		.byte	0x91
 18337 5924 6C       		.sleb128 -20
 18338 5925 3E       		.uleb128 0x3e
 18339 5926 FF070000 		.4byte	.LASF1022
 18340 592a 07       		.byte	0x7
 18341 592b 3201     		.2byte	0x132
 18342 592d 25000000 		.4byte	0x25
 18343 5931 02       		.uleb128 0x2
 18344 5932 91       		.byte	0x91
 18345 5933 68       		.sleb128 -24
 18346 5934 3E       		.uleb128 0x3e
 18347 5935 C6230000 		.4byte	.LASF1023
 18348 5939 07       		.byte	0x7
 18349 593a 3201     		.2byte	0x132
 18350 593c 06410000 		.4byte	0x4106
 18351 5940 02       		.uleb128 0x2
 18352 5941 91       		.byte	0x91
 18353 5942 64       		.sleb128 -28
 18354 5943 00       		.byte	0
 18355 5944 3B       		.uleb128 0x3b
 18356 5945 9B1B0000 		.4byte	.LASF1086
 18357 5949 07       		.byte	0x7
 18358 594a 2901     		.2byte	0x129
 18359 594c 00000000 		.4byte	.LFB270
 18360 5950 30000000 		.4byte	.LFE270-.LFB270
 18361 5954 01       		.uleb128 0x1
 18362 5955 9C       		.byte	0x9c
 18363 5956 88590000 		.4byte	0x5988
 18364 595a 3C       		.uleb128 0x3c
ARM GAS  C:\Users\Moi\AppData\Local\Temp\cchaECY7.s 			page 336


 18365 595b 63687000 		.ascii	"chp\000"
 18366 595f 07       		.byte	0x7
 18367 5960 2901     		.2byte	0x129
 18368 5962 00410000 		.4byte	0x4100
 18369 5966 02       		.uleb128 0x2
 18370 5967 91       		.byte	0x91
 18371 5968 6C       		.sleb128 -20
 18372 5969 3E       		.uleb128 0x3e
 18373 596a FF070000 		.4byte	.LASF1022
 18374 596e 07       		.byte	0x7
 18375 596f 2901     		.2byte	0x129
 18376 5971 25000000 		.4byte	0x25
 18377 5975 02       		.uleb128 0x2
 18378 5976 91       		.byte	0x91
 18379 5977 68       		.sleb128 -24
 18380 5978 3E       		.uleb128 0x3e
 18381 5979 C6230000 		.4byte	.LASF1023
 18382 597d 07       		.byte	0x7
 18383 597e 2901     		.2byte	0x129
 18384 5980 06410000 		.4byte	0x4106
 18385 5984 02       		.uleb128 0x2
 18386 5985 91       		.byte	0x91
 18387 5986 64       		.sleb128 -28
 18388 5987 00       		.byte	0
 18389 5988 3B       		.uleb128 0x3b
 18390 5989 3E140000 		.4byte	.LASF1087
 18391 598d 07       		.byte	0x7
 18392 598e 1D01     		.2byte	0x11d
 18393 5990 00000000 		.4byte	.LFB269
 18394 5994 48000000 		.4byte	.LFE269-.LFB269
 18395 5998 01       		.uleb128 0x1
 18396 5999 9C       		.byte	0x9c
 18397 599a CC590000 		.4byte	0x59cc
 18398 599e 3C       		.uleb128 0x3c
 18399 599f 63687000 		.ascii	"chp\000"
 18400 59a3 07       		.byte	0x7
 18401 59a4 1D01     		.2byte	0x11d
 18402 59a6 00410000 		.4byte	0x4100
 18403 59aa 02       		.uleb128 0x2
 18404 59ab 91       		.byte	0x91
 18405 59ac 6C       		.sleb128 -20
 18406 59ad 3E       		.uleb128 0x3e
 18407 59ae FF070000 		.4byte	.LASF1022
 18408 59b2 07       		.byte	0x7
 18409 59b3 1D01     		.2byte	0x11d
 18410 59b5 25000000 		.4byte	0x25
 18411 59b9 02       		.uleb128 0x2
 18412 59ba 91       		.byte	0x91
 18413 59bb 68       		.sleb128 -24
 18414 59bc 3E       		.uleb128 0x3e
 18415 59bd C6230000 		.4byte	.LASF1023
 18416 59c1 07       		.byte	0x7
 18417 59c2 1D01     		.2byte	0x11d
 18418 59c4 06410000 		.4byte	0x4106
 18419 59c8 02       		.uleb128 0x2
 18420 59c9 91       		.byte	0x91
 18421 59ca 64       		.sleb128 -28
ARM GAS  C:\Users\Moi\AppData\Local\Temp\cchaECY7.s 			page 337


 18422 59cb 00       		.byte	0
 18423 59cc 42       		.uleb128 0x42
 18424 59cd 81110000 		.4byte	.LASF1088
 18425 59d1 07       		.byte	0x7
 18426 59d2 E9       		.byte	0xe9
 18427 59d3 00000000 		.4byte	.LFB268
 18428 59d7 2C010000 		.4byte	.LFE268-.LFB268
 18429 59db 01       		.uleb128 0x1
 18430 59dc 9C       		.byte	0x9c
 18431 59dd 5A5A0000 		.4byte	0x5a5a
 18432 59e1 43       		.uleb128 0x43
 18433 59e2 63687000 		.ascii	"chp\000"
 18434 59e6 07       		.byte	0x7
 18435 59e7 E9       		.byte	0xe9
 18436 59e8 00410000 		.4byte	0x4100
 18437 59ec 03       		.uleb128 0x3
 18438 59ed 91       		.byte	0x91
 18439 59ee BC79     		.sleb128 -836
 18440 59f0 44       		.uleb128 0x44
 18441 59f1 FF070000 		.4byte	.LASF1022
 18442 59f5 07       		.byte	0x7
 18443 59f6 E9       		.byte	0xe9
 18444 59f7 25000000 		.4byte	0x25
 18445 59fb 03       		.uleb128 0x3
 18446 59fc 91       		.byte	0x91
 18447 59fd B879     		.sleb128 -840
 18448 59ff 44       		.uleb128 0x44
 18449 5a00 C6230000 		.4byte	.LASF1023
 18450 5a04 07       		.byte	0x7
 18451 5a05 E9       		.byte	0xe9
 18452 5a06 06410000 		.4byte	0x4106
 18453 5a0a 03       		.uleb128 0x3
 18454 5a0b 91       		.byte	0x91
 18455 5a0c B479     		.sleb128 -844
 18456 5a0e 36       		.uleb128 0x36
 18457 5a0f 65727200 		.ascii	"err\000"
 18458 5a13 07       		.byte	0x7
 18459 5a14 EA       		.byte	0xea
 18460 5a15 98490000 		.4byte	0x4998
 18461 5a19 03       		.uleb128 0x3
 18462 5a1a 91       		.byte	0x91
 18463 5a1b C379     		.sleb128 -829
 18464 5a1d 37       		.uleb128 0x37
 18465 5a1e 01150000 		.4byte	.LASF1089
 18466 5a22 07       		.byte	0x7
 18467 5a23 EB       		.byte	0xeb
 18468 5a24 07490000 		.4byte	0x4907
 18469 5a28 03       		.uleb128 0x3
 18470 5a29 91       		.byte	0x91
 18471 5a2a CC79     		.sleb128 -820
 18472 5a2c 37       		.uleb128 0x37
 18473 5a2d 3C250000 		.4byte	.LASF1090
 18474 5a31 07       		.byte	0x7
 18475 5a32 EC       		.byte	0xec
 18476 5a33 5A5A0000 		.4byte	0x5a5a
 18477 5a37 03       		.uleb128 0x3
 18478 5a38 91       		.byte	0x91
ARM GAS  C:\Users\Moi\AppData\Local\Temp\cchaECY7.s 			page 338


 18479 5a39 F47D     		.sleb128 -268
 18480 5a3b 37       		.uleb128 0x37
 18481 5a3c EA270000 		.4byte	.LASF1091
 18482 5a40 07       		.byte	0x7
 18483 5a41 ED       		.byte	0xed
 18484 5a42 3E470000 		.4byte	0x473e
 18485 5a46 03       		.uleb128 0x3
 18486 5a47 91       		.byte	0x91
 18487 5a48 C879     		.sleb128 -824
 18488 5a4a 37       		.uleb128 0x37
 18489 5a4b 020D0000 		.4byte	.LASF1092
 18490 5a4f 07       		.byte	0x7
 18491 5a50 EE       		.byte	0xee
 18492 5a51 3E470000 		.4byte	0x473e
 18493 5a55 03       		.uleb128 0x3
 18494 5a56 91       		.byte	0x91
 18495 5a57 C479     		.sleb128 -828
 18496 5a59 00       		.byte	0
 18497 5a5a 0A       		.uleb128 0xa
 18498 5a5b 75010000 		.4byte	0x175
 18499 5a5f 6A5A0000 		.4byte	0x5a6a
 18500 5a63 0B       		.uleb128 0xb
 18501 5a64 37000000 		.4byte	0x37
 18502 5a68 FE       		.byte	0xfe
 18503 5a69 00       		.byte	0
 18504 5a6a 42       		.uleb128 0x42
 18505 5a6b 57000000 		.4byte	.LASF1093
 18506 5a6f 07       		.byte	0x7
 18507 5a70 CA       		.byte	0xca
 18508 5a71 00000000 		.4byte	.LFB267
 18509 5a75 B0000000 		.4byte	.LFE267-.LFB267
 18510 5a79 01       		.uleb128 0x1
 18511 5a7a 9C       		.byte	0x9c
 18512 5a7b D35A0000 		.4byte	0x5ad3
 18513 5a7f 43       		.uleb128 0x43
 18514 5a80 63687000 		.ascii	"chp\000"
 18515 5a84 07       		.byte	0x7
 18516 5a85 CA       		.byte	0xca
 18517 5a86 00410000 		.4byte	0x4100
 18518 5a8a 02       		.uleb128 0x2
 18519 5a8b 91       		.byte	0x91
 18520 5a8c 5C       		.sleb128 -36
 18521 5a8d 44       		.uleb128 0x44
 18522 5a8e FF070000 		.4byte	.LASF1022
 18523 5a92 07       		.byte	0x7
 18524 5a93 CA       		.byte	0xca
 18525 5a94 25000000 		.4byte	0x25
 18526 5a98 02       		.uleb128 0x2
 18527 5a99 91       		.byte	0x91
 18528 5a9a 58       		.sleb128 -40
 18529 5a9b 44       		.uleb128 0x44
 18530 5a9c C6230000 		.4byte	.LASF1023
 18531 5aa0 07       		.byte	0x7
 18532 5aa1 CA       		.byte	0xca
 18533 5aa2 06410000 		.4byte	0x4106
 18534 5aa6 02       		.uleb128 0x2
 18535 5aa7 91       		.byte	0x91
ARM GAS  C:\Users\Moi\AppData\Local\Temp\cchaECY7.s 			page 339


 18536 5aa8 54       		.sleb128 -44
 18537 5aa9 36       		.uleb128 0x36
 18538 5aaa 65727200 		.ascii	"err\000"
 18539 5aae 07       		.byte	0x7
 18540 5aaf CB       		.byte	0xcb
 18541 5ab0 98490000 		.4byte	0x4998
 18542 5ab4 02       		.uleb128 0x2
 18543 5ab5 91       		.byte	0x91
 18544 5ab6 63       		.sleb128 -29
 18545 5ab7 36       		.uleb128 0x36
 18546 5ab8 6C626C00 		.ascii	"lbl\000"
 18547 5abc 07       		.byte	0x7
 18548 5abd CC       		.byte	0xcc
 18549 5abe D35A0000 		.4byte	0x5ad3
 18550 5ac2 02       		.uleb128 0x2
 18551 5ac3 91       		.byte	0x91
 18552 5ac4 68       		.sleb128 -24
 18553 5ac5 36       		.uleb128 0x36
 18554 5ac6 736E00   		.ascii	"sn\000"
 18555 5ac9 07       		.byte	0x7
 18556 5aca CD       		.byte	0xcd
 18557 5acb 49470000 		.4byte	0x4749
 18558 5acf 02       		.uleb128 0x2
 18559 5ad0 91       		.byte	0x91
 18560 5ad1 64       		.sleb128 -28
 18561 5ad2 00       		.byte	0
 18562 5ad3 0A       		.uleb128 0xa
 18563 5ad4 75010000 		.4byte	0x175
 18564 5ad8 E35A0000 		.4byte	0x5ae3
 18565 5adc 0B       		.uleb128 0xb
 18566 5add 37000000 		.4byte	0x37
 18567 5ae1 0B       		.byte	0xb
 18568 5ae2 00       		.byte	0
 18569 5ae3 42       		.uleb128 0x42
 18570 5ae4 DD180000 		.4byte	.LASF1094
 18571 5ae8 07       		.byte	0x7
 18572 5ae9 B5       		.byte	0xb5
 18573 5aea 00000000 		.4byte	.LFB266
 18574 5aee 88000000 		.4byte	.LFE266-.LFB266
 18575 5af2 01       		.uleb128 0x1
 18576 5af3 9C       		.byte	0x9c
 18577 5af4 315B0000 		.4byte	0x5b31
 18578 5af8 43       		.uleb128 0x43
 18579 5af9 63687000 		.ascii	"chp\000"
 18580 5afd 07       		.byte	0x7
 18581 5afe B5       		.byte	0xb5
 18582 5aff 00410000 		.4byte	0x4100
 18583 5b03 02       		.uleb128 0x2
 18584 5b04 91       		.byte	0x91
 18585 5b05 6C       		.sleb128 -20
 18586 5b06 44       		.uleb128 0x44
 18587 5b07 FF070000 		.4byte	.LASF1022
 18588 5b0b 07       		.byte	0x7
 18589 5b0c B5       		.byte	0xb5
 18590 5b0d 25000000 		.4byte	0x25
 18591 5b11 02       		.uleb128 0x2
 18592 5b12 91       		.byte	0x91
ARM GAS  C:\Users\Moi\AppData\Local\Temp\cchaECY7.s 			page 340


 18593 5b13 68       		.sleb128 -24
 18594 5b14 44       		.uleb128 0x44
 18595 5b15 C6230000 		.4byte	.LASF1023
 18596 5b19 07       		.byte	0x7
 18597 5b1a B5       		.byte	0xb5
 18598 5b1b 06410000 		.4byte	0x4106
 18599 5b1f 02       		.uleb128 0x2
 18600 5b20 91       		.byte	0x91
 18601 5b21 64       		.sleb128 -28
 18602 5b22 36       		.uleb128 0x36
 18603 5b23 65727200 		.ascii	"err\000"
 18604 5b27 07       		.byte	0x7
 18605 5b28 B6       		.byte	0xb6
 18606 5b29 98490000 		.4byte	0x4998
 18607 5b2d 02       		.uleb128 0x2
 18608 5b2e 91       		.byte	0x91
 18609 5b2f 73       		.sleb128 -13
 18610 5b30 00       		.byte	0
 18611 5b31 42       		.uleb128 0x42
 18612 5b32 04220000 		.4byte	.LASF1095
 18613 5b36 07       		.byte	0x7
 18614 5b37 9D       		.byte	0x9d
 18615 5b38 00000000 		.4byte	.LFB265
 18616 5b3c 94000000 		.4byte	.LFE265-.LFB265
 18617 5b40 01       		.uleb128 0x1
 18618 5b41 9C       		.byte	0x9c
 18619 5b42 7F5B0000 		.4byte	0x5b7f
 18620 5b46 43       		.uleb128 0x43
 18621 5b47 63687000 		.ascii	"chp\000"
 18622 5b4b 07       		.byte	0x7
 18623 5b4c 9D       		.byte	0x9d
 18624 5b4d 00410000 		.4byte	0x4100
 18625 5b51 02       		.uleb128 0x2
 18626 5b52 91       		.byte	0x91
 18627 5b53 6C       		.sleb128 -20
 18628 5b54 44       		.uleb128 0x44
 18629 5b55 FF070000 		.4byte	.LASF1022
 18630 5b59 07       		.byte	0x7
 18631 5b5a 9D       		.byte	0x9d
 18632 5b5b 25000000 		.4byte	0x25
 18633 5b5f 02       		.uleb128 0x2
 18634 5b60 91       		.byte	0x91
 18635 5b61 68       		.sleb128 -24
 18636 5b62 44       		.uleb128 0x44
 18637 5b63 C6230000 		.4byte	.LASF1023
 18638 5b67 07       		.byte	0x7
 18639 5b68 9D       		.byte	0x9d
 18640 5b69 06410000 		.4byte	0x4106
 18641 5b6d 02       		.uleb128 0x2
 18642 5b6e 91       		.byte	0x91
 18643 5b6f 64       		.sleb128 -28
 18644 5b70 36       		.uleb128 0x36
 18645 5b71 65727200 		.ascii	"err\000"
 18646 5b75 07       		.byte	0x7
 18647 5b76 9E       		.byte	0x9e
 18648 5b77 98490000 		.4byte	0x4998
 18649 5b7b 02       		.uleb128 0x2
ARM GAS  C:\Users\Moi\AppData\Local\Temp\cchaECY7.s 			page 341


 18650 5b7c 91       		.byte	0x91
 18651 5b7d 73       		.sleb128 -13
 18652 5b7e 00       		.byte	0
 18653 5b7f 42       		.uleb128 0x42
 18654 5b80 45050000 		.4byte	.LASF1096
 18655 5b84 07       		.byte	0x7
 18656 5b85 76       		.byte	0x76
 18657 5b86 00000000 		.4byte	.LFB264
 18658 5b8a E8000000 		.4byte	.LFE264-.LFB264
 18659 5b8e 01       		.uleb128 0x1
 18660 5b8f 9C       		.byte	0x9c
 18661 5b90 EF5B0000 		.4byte	0x5bef
 18662 5b94 43       		.uleb128 0x43
 18663 5b95 63687000 		.ascii	"chp\000"
 18664 5b99 07       		.byte	0x7
 18665 5b9a 76       		.byte	0x76
 18666 5b9b 00410000 		.4byte	0x4100
 18667 5b9f 03       		.uleb128 0x3
 18668 5ba0 91       		.byte	0x91
 18669 5ba1 BC7B     		.sleb128 -580
 18670 5ba3 44       		.uleb128 0x44
 18671 5ba4 FF070000 		.4byte	.LASF1022
 18672 5ba8 07       		.byte	0x7
 18673 5ba9 76       		.byte	0x76
 18674 5baa 25000000 		.4byte	0x25
 18675 5bae 03       		.uleb128 0x3
 18676 5baf 91       		.byte	0x91
 18677 5bb0 B87B     		.sleb128 -584
 18678 5bb2 44       		.uleb128 0x44
 18679 5bb3 C6230000 		.4byte	.LASF1023
 18680 5bb7 07       		.byte	0x7
 18681 5bb8 76       		.byte	0x76
 18682 5bb9 06410000 		.4byte	0x4106
 18683 5bbd 03       		.uleb128 0x3
 18684 5bbe 91       		.byte	0x91
 18685 5bbf B47B     		.sleb128 -588
 18686 5bc1 37       		.uleb128 0x37
 18687 5bc2 01150000 		.4byte	.LASF1089
 18688 5bc6 07       		.byte	0x7
 18689 5bc7 77       		.byte	0x77
 18690 5bc8 07490000 		.4byte	0x4907
 18691 5bcc 03       		.uleb128 0x3
 18692 5bcd 91       		.byte	0x91
 18693 5bce CC7B     		.sleb128 -564
 18694 5bd0 36       		.uleb128 0x36
 18695 5bd1 65727200 		.ascii	"err\000"
 18696 5bd5 07       		.byte	0x7
 18697 5bd6 78       		.byte	0x78
 18698 5bd7 98490000 		.4byte	0x4998
 18699 5bdb 03       		.uleb128 0x3
 18700 5bdc 91       		.byte	0x91
 18701 5bdd C77B     		.sleb128 -569
 18702 5bdf 37       		.uleb128 0x37
 18703 5be0 E72C0000 		.4byte	.LASF1097
 18704 5be4 07       		.byte	0x7
 18705 5be5 79       		.byte	0x79
 18706 5be6 25000000 		.4byte	0x25
ARM GAS  C:\Users\Moi\AppData\Local\Temp\cchaECY7.s 			page 342


 18707 5bea 03       		.uleb128 0x3
 18708 5beb 91       		.byte	0x91
 18709 5bec C87B     		.sleb128 -568
 18710 5bee 00       		.byte	0
 18711 5bef 42       		.uleb128 0x42
 18712 5bf0 AF1D0000 		.4byte	.LASF1098
 18713 5bf4 07       		.byte	0x7
 18714 5bf5 69       		.byte	0x69
 18715 5bf6 00000000 		.4byte	.LFB263
 18716 5bfa 44000000 		.4byte	.LFE263-.LFB263
 18717 5bfe 01       		.uleb128 0x1
 18718 5bff 9C       		.byte	0x9c
 18719 5c00 2F5C0000 		.4byte	0x5c2f
 18720 5c04 43       		.uleb128 0x43
 18721 5c05 63687000 		.ascii	"chp\000"
 18722 5c09 07       		.byte	0x7
 18723 5c0a 69       		.byte	0x69
 18724 5c0b 00410000 		.4byte	0x4100
 18725 5c0f 02       		.uleb128 0x2
 18726 5c10 91       		.byte	0x91
 18727 5c11 6C       		.sleb128 -20
 18728 5c12 44       		.uleb128 0x44
 18729 5c13 FF070000 		.4byte	.LASF1022
 18730 5c17 07       		.byte	0x7
 18731 5c18 69       		.byte	0x69
 18732 5c19 25000000 		.4byte	0x25
 18733 5c1d 02       		.uleb128 0x2
 18734 5c1e 91       		.byte	0x91
 18735 5c1f 68       		.sleb128 -24
 18736 5c20 44       		.uleb128 0x44
 18737 5c21 C6230000 		.4byte	.LASF1023
 18738 5c25 07       		.byte	0x7
 18739 5c26 69       		.byte	0x69
 18740 5c27 06410000 		.4byte	0x4106
 18741 5c2b 02       		.uleb128 0x2
 18742 5c2c 91       		.byte	0x91
 18743 5c2d 64       		.sleb128 -28
 18744 5c2e 00       		.byte	0
 18745 5c2f 42       		.uleb128 0x42
 18746 5c30 BD2A0000 		.4byte	.LASF1099
 18747 5c34 07       		.byte	0x7
 18748 5c35 4D       		.byte	0x4d
 18749 5c36 00000000 		.4byte	.LFB262
 18750 5c3a C4000000 		.4byte	.LFE262-.LFB262
 18751 5c3e 01       		.uleb128 0x1
 18752 5c3f 9C       		.byte	0x9c
 18753 5c40 A75C0000 		.4byte	0x5ca7
 18754 5c44 43       		.uleb128 0x43
 18755 5c45 63687000 		.ascii	"chp\000"
 18756 5c49 07       		.byte	0x7
 18757 5c4a 4D       		.byte	0x4d
 18758 5c4b 00410000 		.4byte	0x4100
 18759 5c4f 02       		.uleb128 0x2
 18760 5c50 91       		.byte	0x91
 18761 5c51 64       		.sleb128 -28
 18762 5c52 44       		.uleb128 0x44
 18763 5c53 FF070000 		.4byte	.LASF1022
ARM GAS  C:\Users\Moi\AppData\Local\Temp\cchaECY7.s 			page 343


 18764 5c57 07       		.byte	0x7
 18765 5c58 4D       		.byte	0x4d
 18766 5c59 25000000 		.4byte	0x25
 18767 5c5d 02       		.uleb128 0x2
 18768 5c5e 91       		.byte	0x91
 18769 5c5f 60       		.sleb128 -32
 18770 5c60 44       		.uleb128 0x44
 18771 5c61 C6230000 		.4byte	.LASF1023
 18772 5c65 07       		.byte	0x7
 18773 5c66 4D       		.byte	0x4d
 18774 5c67 06410000 		.4byte	0x4106
 18775 5c6b 02       		.uleb128 0x2
 18776 5c6c 91       		.byte	0x91
 18777 5c6d 5C       		.sleb128 -36
 18778 5c6e 36       		.uleb128 0x36
 18779 5c6f 65727200 		.ascii	"err\000"
 18780 5c73 07       		.byte	0x7
 18781 5c74 4E       		.byte	0x4e
 18782 5c75 98490000 		.4byte	0x4998
 18783 5c79 02       		.uleb128 0x2
 18784 5c7a 91       		.byte	0x91
 18785 5c7b 6A       		.sleb128 -22
 18786 5c7c 37       		.uleb128 0x37
 18787 5c7d 4D020000 		.4byte	.LASF1100
 18788 5c81 07       		.byte	0x7
 18789 5c82 4F       		.byte	0x4f
 18790 5c83 A9090000 		.4byte	0x9a9
 18791 5c87 02       		.uleb128 0x2
 18792 5c88 91       		.byte	0x91
 18793 5c89 6C       		.sleb128 -20
 18794 5c8a 36       		.uleb128 0x36
 18795 5c8b 66737000 		.ascii	"fsp\000"
 18796 5c8f 07       		.byte	0x7
 18797 5c90 50       		.byte	0x50
 18798 5c91 F5480000 		.4byte	0x48f5
 18799 5c95 02       		.uleb128 0x2
 18800 5c96 91       		.byte	0x91
 18801 5c97 70       		.sleb128 -16
 18802 5c98 37       		.uleb128 0x37
 18803 5c99 0C280000 		.4byte	.LASF1101
 18804 5c9d 07       		.byte	0x7
 18805 5c9e 51       		.byte	0x51
 18806 5c9f 28470000 		.4byte	0x4728
 18807 5ca3 02       		.uleb128 0x2
 18808 5ca4 91       		.byte	0x91
 18809 5ca5 6B       		.sleb128 -21
 18810 5ca6 00       		.byte	0
 18811 5ca7 42       		.uleb128 0x42
 18812 5ca8 541B0000 		.4byte	.LASF1102
 18813 5cac 07       		.byte	0x7
 18814 5cad 43       		.byte	0x43
 18815 5cae 00000000 		.4byte	.LFB261
 18816 5cb2 48000000 		.4byte	.LFE261-.LFB261
 18817 5cb6 01       		.uleb128 0x1
 18818 5cb7 9C       		.byte	0x9c
 18819 5cb8 E75C0000 		.4byte	0x5ce7
 18820 5cbc 43       		.uleb128 0x43
ARM GAS  C:\Users\Moi\AppData\Local\Temp\cchaECY7.s 			page 344


 18821 5cbd 63687000 		.ascii	"chp\000"
 18822 5cc1 07       		.byte	0x7
 18823 5cc2 43       		.byte	0x43
 18824 5cc3 00410000 		.4byte	0x4100
 18825 5cc7 02       		.uleb128 0x2
 18826 5cc8 91       		.byte	0x91
 18827 5cc9 6C       		.sleb128 -20
 18828 5cca 44       		.uleb128 0x44
 18829 5ccb FF070000 		.4byte	.LASF1022
 18830 5ccf 07       		.byte	0x7
 18831 5cd0 43       		.byte	0x43
 18832 5cd1 25000000 		.4byte	0x25
 18833 5cd5 02       		.uleb128 0x2
 18834 5cd6 91       		.byte	0x91
 18835 5cd7 68       		.sleb128 -24
 18836 5cd8 44       		.uleb128 0x44
 18837 5cd9 C6230000 		.4byte	.LASF1023
 18838 5cdd 07       		.byte	0x7
 18839 5cde 43       		.byte	0x43
 18840 5cdf 06410000 		.4byte	0x4106
 18841 5ce3 02       		.uleb128 0x2
 18842 5ce4 91       		.byte	0x91
 18843 5ce5 64       		.sleb128 -28
 18844 5ce6 00       		.byte	0
 18845 5ce7 42       		.uleb128 0x42
 18846 5ce8 F8120000 		.4byte	.LASF1103
 18847 5cec 07       		.byte	0x7
 18848 5ced 35       		.byte	0x35
 18849 5cee 00000000 		.4byte	.LFB260
 18850 5cf2 54000000 		.4byte	.LFE260-.LFB260
 18851 5cf6 01       		.uleb128 0x1
 18852 5cf7 9C       		.byte	0x9c
 18853 5cf8 275D0000 		.4byte	0x5d27
 18854 5cfc 43       		.uleb128 0x43
 18855 5cfd 63687000 		.ascii	"chp\000"
 18856 5d01 07       		.byte	0x7
 18857 5d02 35       		.byte	0x35
 18858 5d03 00410000 		.4byte	0x4100
 18859 5d07 02       		.uleb128 0x2
 18860 5d08 91       		.byte	0x91
 18861 5d09 6C       		.sleb128 -20
 18862 5d0a 44       		.uleb128 0x44
 18863 5d0b FF070000 		.4byte	.LASF1022
 18864 5d0f 07       		.byte	0x7
 18865 5d10 35       		.byte	0x35
 18866 5d11 25000000 		.4byte	0x25
 18867 5d15 02       		.uleb128 0x2
 18868 5d16 91       		.byte	0x91
 18869 5d17 68       		.sleb128 -24
 18870 5d18 44       		.uleb128 0x44
 18871 5d19 C6230000 		.4byte	.LASF1023
 18872 5d1d 07       		.byte	0x7
 18873 5d1e 35       		.byte	0x35
 18874 5d1f 06410000 		.4byte	0x4106
 18875 5d23 02       		.uleb128 0x2
 18876 5d24 91       		.byte	0x91
 18877 5d25 64       		.sleb128 -28
ARM GAS  C:\Users\Moi\AppData\Local\Temp\cchaECY7.s 			page 345


 18878 5d26 00       		.byte	0
 18879 5d27 45       		.uleb128 0x45
 18880 5d28 491E0000 		.4byte	.LASF1105
 18881 5d2c 06       		.byte	0x6
 18882 5d2d 45       		.byte	0x45
 18883 5d2e 25000000 		.4byte	0x25
 18884 5d32 00000000 		.4byte	.LFB259
 18885 5d36 44000000 		.4byte	.LFE259-.LFB259
 18886 5d3a 01       		.uleb128 0x1
 18887 5d3b 9C       		.byte	0x9c
 18888 5d3c 795D0000 		.4byte	0x5d79
 18889 5d40 43       		.uleb128 0x43
 18890 5d41 63687000 		.ascii	"chp\000"
 18891 5d45 06       		.byte	0x6
 18892 5d46 45       		.byte	0x45
 18893 5d47 00410000 		.4byte	0x4100
 18894 5d4b 02       		.uleb128 0x2
 18895 5d4c 91       		.byte	0x91
 18896 5d4d 5C       		.sleb128 -36
 18897 5d4e 43       		.uleb128 0x43
 18898 5d4f 666D7400 		.ascii	"fmt\000"
 18899 5d53 06       		.byte	0x6
 18900 5d54 45       		.byte	0x45
 18901 5d55 ED050000 		.4byte	0x5ed
 18902 5d59 02       		.uleb128 0x2
 18903 5d5a 91       		.byte	0x91
 18904 5d5b 58       		.sleb128 -40
 18905 5d5c 46       		.uleb128 0x46
 18906 5d5d 36       		.uleb128 0x36
 18907 5d5e 617000   		.ascii	"ap\000"
 18908 5d61 06       		.byte	0x6
 18909 5d62 46       		.byte	0x46
 18910 5d63 5D090000 		.4byte	0x95d
 18911 5d67 02       		.uleb128 0x2
 18912 5d68 91       		.byte	0x91
 18913 5d69 64       		.sleb128 -28
 18914 5d6a 37       		.uleb128 0x37
 18915 5d6b 63130000 		.4byte	.LASF1104
 18916 5d6f 06       		.byte	0x6
 18917 5d70 47       		.byte	0x47
 18918 5d71 25000000 		.4byte	0x25
 18919 5d75 02       		.uleb128 0x2
 18920 5d76 91       		.byte	0x91
 18921 5d77 68       		.sleb128 -24
 18922 5d78 00       		.byte	0
 18923 5d79 45       		.uleb128 0x45
 18924 5d7a 722B0000 		.4byte	.LASF1106
 18925 5d7e 05       		.byte	0x5
 18926 5d7f DA       		.byte	0xda
 18927 5d80 911E0000 		.4byte	0x1e91
 18928 5d84 00000000 		.4byte	.LFB172
 18929 5d88 38000000 		.4byte	.LFE172-.LFB172
 18930 5d8c 01       		.uleb128 0x1
 18931 5d8d 9C       		.byte	0x9c
 18932 5d8e A05D0000 		.4byte	0x5da0
 18933 5d92 43       		.uleb128 0x43
 18934 5d93 747000   		.ascii	"tp\000"
ARM GAS  C:\Users\Moi\AppData\Local\Temp\cchaECY7.s 			page 346


 18935 5d96 05       		.byte	0x5
 18936 5d97 DA       		.byte	0xda
 18937 5d98 910B0000 		.4byte	0xb91
 18938 5d9c 02       		.uleb128 0x2
 18939 5d9d 91       		.byte	0x91
 18940 5d9e 6C       		.sleb128 -20
 18941 5d9f 00       		.byte	0
 18942 5da0 47       		.uleb128 0x47
 18943 5da1 7E210000 		.4byte	.LASF1107
 18944 5da5 05       		.byte	0x5
 18945 5da6 BB       		.byte	0xbb
 18946 5da7 0B0A0000 		.4byte	0xa0b
 18947 5dab 00000000 		.4byte	.LFB170
 18948 5daf 2C000000 		.4byte	.LFE170-.LFB170
 18949 5db3 01       		.uleb128 0x1
 18950 5db4 9C       		.byte	0x9c
 18951 5db5 47       		.uleb128 0x47
 18952 5db6 021F0000 		.4byte	.LASF1108
 18953 5dba 05       		.byte	0x5
 18954 5dbb AE       		.byte	0xae
 18955 5dbc 910B0000 		.4byte	0xb91
 18956 5dc0 00000000 		.4byte	.LFB169
 18957 5dc4 2C000000 		.4byte	.LFE169-.LFB169
 18958 5dc8 01       		.uleb128 0x1
 18959 5dc9 9C       		.byte	0x9c
 18960 5dca 48       		.uleb128 0x48
 18961 5dcb 1E240000 		.4byte	.LASF1109
 18962 5dcf 04       		.byte	0x4
 18963 5dd0 4201     		.2byte	0x142
 18964 5dd2 911E0000 		.4byte	0x1e91
 18965 5dd6 00000000 		.4byte	.LFB161
 18966 5dda 3C000000 		.4byte	.LFE161-.LFB161
 18967 5dde 01       		.uleb128 0x1
 18968 5ddf 9C       		.byte	0x9c
 18969 5de0 035E0000 		.4byte	0x5e03
 18970 5de4 3E       		.uleb128 0x3e
 18971 5de5 AF140000 		.4byte	.LASF1024
 18972 5de9 04       		.byte	0x4
 18973 5dea 4201     		.2byte	0x142
 18974 5dec 4D0A0000 		.4byte	0xa4d
 18975 5df0 02       		.uleb128 0x2
 18976 5df1 91       		.byte	0x91
 18977 5df2 6C       		.sleb128 -20
 18978 5df3 3C       		.uleb128 0x3c
 18979 5df4 656E6400 		.ascii	"end\000"
 18980 5df8 04       		.byte	0x4
 18981 5df9 4201     		.2byte	0x142
 18982 5dfb 4D0A0000 		.4byte	0xa4d
 18983 5dff 02       		.uleb128 0x2
 18984 5e00 91       		.byte	0x91
 18985 5e01 68       		.sleb128 -24
 18986 5e02 00       		.byte	0
 18987 5e03 48       		.uleb128 0x48
 18988 5e04 90100000 		.4byte	.LASF1110
 18989 5e08 04       		.byte	0x4
 18990 5e09 1C01     		.2byte	0x11c
 18991 5e0b 911E0000 		.4byte	0x1e91
ARM GAS  C:\Users\Moi\AppData\Local\Temp\cchaECY7.s 			page 347


 18992 5e0f 00000000 		.4byte	.LFB159
 18993 5e13 40000000 		.4byte	.LFE159-.LFB159
 18994 5e17 01       		.uleb128 0x1
 18995 5e18 9C       		.byte	0x9c
 18996 5e19 4B5E0000 		.4byte	0x5e4b
 18997 5e1d 3E       		.uleb128 0x3e
 18998 5e1e 2D0E0000 		.4byte	.LASF1111
 18999 5e22 04       		.byte	0x4
 19000 5e23 1C01     		.2byte	0x11c
 19001 5e25 4D0A0000 		.4byte	0xa4d
 19002 5e29 02       		.uleb128 0x2
 19003 5e2a 91       		.byte	0x91
 19004 5e2b 6C       		.sleb128 -20
 19005 5e2c 3E       		.uleb128 0x3e
 19006 5e2d AF140000 		.4byte	.LASF1024
 19007 5e31 04       		.byte	0x4
 19008 5e32 1D01     		.2byte	0x11d
 19009 5e34 4D0A0000 		.4byte	0xa4d
 19010 5e38 02       		.uleb128 0x2
 19011 5e39 91       		.byte	0x91
 19012 5e3a 68       		.sleb128 -24
 19013 5e3b 3C       		.uleb128 0x3c
 19014 5e3c 656E6400 		.ascii	"end\000"
 19015 5e40 04       		.byte	0x4
 19016 5e41 1E01     		.2byte	0x11e
 19017 5e43 4D0A0000 		.4byte	0xa4d
 19018 5e47 02       		.uleb128 0x2
 19019 5e48 91       		.byte	0x91
 19020 5e49 64       		.sleb128 -28
 19021 5e4a 00       		.byte	0
 19022 5e4b 45       		.uleb128 0x45
 19023 5e4c 7D2A0000 		.4byte	.LASF1112
 19024 5e50 04       		.byte	0x4
 19025 5e51 F7       		.byte	0xf7
 19026 5e52 4D0A0000 		.4byte	0xa4d
 19027 5e56 00000000 		.4byte	.LFB157
 19028 5e5a 34000000 		.4byte	.LFE157-.LFB157
 19029 5e5e 01       		.uleb128 0x1
 19030 5e5f 9C       		.byte	0x9c
 19031 5e60 735E0000 		.4byte	0x5e73
 19032 5e64 37       		.uleb128 0x37
 19033 5e65 222B0000 		.4byte	.LASF1113
 19034 5e69 04       		.byte	0x4
 19035 5e6a F8       		.byte	0xf8
 19036 5e6b 4D0A0000 		.4byte	0xa4d
 19037 5e6f 02       		.uleb128 0x2
 19038 5e70 91       		.byte	0x91
 19039 5e71 70       		.sleb128 -16
 19040 5e72 00       		.byte	0
 19041 5e73 47       		.uleb128 0x47
 19042 5e74 27220000 		.4byte	.LASF1114
 19043 5e78 04       		.byte	0x4
 19044 5e79 E4       		.byte	0xe4
 19045 5e7a 4D0A0000 		.4byte	0xa4d
 19046 5e7e 00000000 		.4byte	.LFB156
 19047 5e82 2C000000 		.4byte	.LFE156-.LFB156
 19048 5e86 01       		.uleb128 0x1
ARM GAS  C:\Users\Moi\AppData\Local\Temp\cchaECY7.s 			page 348


 19049 5e87 9C       		.byte	0x9c
 19050 5e88 3B       		.uleb128 0x3b
 19051 5e89 27270000 		.4byte	.LASF1115
 19052 5e8d 03       		.byte	0x3
 19053 5e8e 6601     		.2byte	0x166
 19054 5e90 00000000 		.4byte	.LFB149
 19055 5e94 58000000 		.4byte	.LFE149-.LFB149
 19056 5e98 01       		.uleb128 0x1
 19057 5e99 9C       		.byte	0x9c
 19058 5e9a AE5E0000 		.4byte	0x5eae
 19059 5e9e 49       		.uleb128 0x49
 19060 5e9f CA180000 		.4byte	.LASF1124
 19061 5ea3 BE5E0000 		.4byte	0x5ebe
 19062 5ea7 05       		.uleb128 0x5
 19063 5ea8 03       		.byte	0x3
 19064 5ea9 00000000 		.4byte	__func__.8875
 19065 5ead 00       		.byte	0
 19066 5eae 0A       		.uleb128 0xa
 19067 5eaf 7C010000 		.4byte	0x17c
 19068 5eb3 BE5E0000 		.4byte	0x5ebe
 19069 5eb7 0B       		.uleb128 0xb
 19070 5eb8 37000000 		.4byte	0x37
 19071 5ebc 0B       		.byte	0xb
 19072 5ebd 00       		.byte	0
 19073 5ebe 0F       		.uleb128 0xf
 19074 5ebf AE5E0000 		.4byte	0x5eae
 19075 5ec3 4A       		.uleb128 0x4a
 19076 5ec4 091B0000 		.4byte	.LASF1125
 19077 5ec8 03       		.byte	0x3
 19078 5ec9 5A01     		.2byte	0x15a
 19079 5ecb 00000000 		.4byte	.LFB148
 19080 5ecf 30000000 		.4byte	.LFE148-.LFB148
 19081 5ed3 01       		.uleb128 0x1
 19082 5ed4 9C       		.byte	0x9c
 19083 5ed5 3B       		.uleb128 0x3b
 19084 5ed6 B41A0000 		.4byte	.LASF1116
 19085 5eda 01       		.byte	0x1
 19086 5edb CA01     		.2byte	0x1ca
 19087 5edd 00000000 		.4byte	.LFB120
 19088 5ee1 30000000 		.4byte	.LFE120-.LFB120
 19089 5ee5 01       		.uleb128 0x1
 19090 5ee6 9C       		.byte	0x9c
 19091 5ee7 055F0000 		.4byte	0x5f05
 19092 5eeb 4B       		.uleb128 0x4b
 19093 5eec 355F0000 		.4byte	0x5f35
 19094 5ef0 0E000000 		.4byte	.LBB8
 19095 5ef4 06000000 		.4byte	.LBE8-.LBB8
 19096 5ef8 01       		.byte	0x1
 19097 5ef9 CD01     		.2byte	0x1cd
 19098 5efb 4C       		.uleb128 0x4c
 19099 5efc 3E5F0000 		.4byte	0x5f3e
 19100 5f00 02       		.uleb128 0x2
 19101 5f01 91       		.byte	0x91
 19102 5f02 70       		.sleb128 -16
 19103 5f03 00       		.byte	0
 19104 5f04 00       		.byte	0
 19105 5f05 3B       		.uleb128 0x3b
ARM GAS  C:\Users\Moi\AppData\Local\Temp\cchaECY7.s 			page 349


 19106 5f06 ED1C0000 		.4byte	.LASF1117
 19107 5f0a 01       		.byte	0x1
 19108 5f0b BC01     		.2byte	0x1bc
 19109 5f0d 00000000 		.4byte	.LFB119
 19110 5f11 30000000 		.4byte	.LFE119-.LFB119
 19111 5f15 01       		.uleb128 0x1
 19112 5f16 9C       		.byte	0x9c
 19113 5f17 355F0000 		.4byte	0x5f35
 19114 5f1b 4B       		.uleb128 0x4b
 19115 5f1c 355F0000 		.4byte	0x5f35
 19116 5f20 0E000000 		.4byte	.LBB6
 19117 5f24 06000000 		.4byte	.LBE6-.LBB6
 19118 5f28 01       		.byte	0x1
 19119 5f29 BF01     		.2byte	0x1bf
 19120 5f2b 4C       		.uleb128 0x4c
 19121 5f2c 3E5F0000 		.4byte	0x5f3e
 19122 5f30 02       		.uleb128 0x2
 19123 5f31 91       		.byte	0x91
 19124 5f32 70       		.sleb128 -16
 19125 5f33 00       		.byte	0
 19126 5f34 00       		.byte	0
 19127 5f35 4D       		.uleb128 0x4d
 19128 5f36 492B0000 		.4byte	.LASF1126
 19129 5f3a 02       		.byte	0x2
 19130 5f3b 2002     		.2byte	0x220
 19131 5f3d 03       		.byte	0x3
 19132 5f3e 4E       		.uleb128 0x4e
 19133 5f3f 320E0000 		.4byte	.LASF923
 19134 5f43 02       		.byte	0x2
 19135 5f44 2002     		.2byte	0x220
 19136 5f46 A9090000 		.4byte	0x9a9
 19137 5f4a 00       		.byte	0
 19138 5f4b 00       		.byte	0
 19139              		.section	.debug_abbrev,"",%progbits
 19140              	.Ldebug_abbrev0:
 19141 0000 01       		.uleb128 0x1
 19142 0001 11       		.uleb128 0x11
 19143 0002 01       		.byte	0x1
 19144 0003 25       		.uleb128 0x25
 19145 0004 0E       		.uleb128 0xe
 19146 0005 13       		.uleb128 0x13
 19147 0006 0B       		.uleb128 0xb
 19148 0007 03       		.uleb128 0x3
 19149 0008 0E       		.uleb128 0xe
 19150 0009 1B       		.uleb128 0x1b
 19151 000a 0E       		.uleb128 0xe
 19152 000b 55       		.uleb128 0x55
 19153 000c 17       		.uleb128 0x17
 19154 000d 11       		.uleb128 0x11
 19155 000e 01       		.uleb128 0x1
 19156 000f 10       		.uleb128 0x10
 19157 0010 17       		.uleb128 0x17
 19158 0011 00       		.byte	0
 19159 0012 00       		.byte	0
 19160 0013 02       		.uleb128 0x2
 19161 0014 24       		.uleb128 0x24
 19162 0015 00       		.byte	0
ARM GAS  C:\Users\Moi\AppData\Local\Temp\cchaECY7.s 			page 350


 19163 0016 0B       		.uleb128 0xb
 19164 0017 0B       		.uleb128 0xb
 19165 0018 3E       		.uleb128 0x3e
 19166 0019 0B       		.uleb128 0xb
 19167 001a 03       		.uleb128 0x3
 19168 001b 08       		.uleb128 0x8
 19169 001c 00       		.byte	0
 19170 001d 00       		.byte	0
 19171 001e 03       		.uleb128 0x3
 19172 001f 16       		.uleb128 0x16
 19173 0020 00       		.byte	0
 19174 0021 03       		.uleb128 0x3
 19175 0022 0E       		.uleb128 0xe
 19176 0023 3A       		.uleb128 0x3a
 19177 0024 0B       		.uleb128 0xb
 19178 0025 3B       		.uleb128 0x3b
 19179 0026 0B       		.uleb128 0xb
 19180 0027 49       		.uleb128 0x49
 19181 0028 13       		.uleb128 0x13
 19182 0029 00       		.byte	0
 19183 002a 00       		.byte	0
 19184 002b 04       		.uleb128 0x4
 19185 002c 24       		.uleb128 0x24
 19186 002d 00       		.byte	0
 19187 002e 0B       		.uleb128 0xb
 19188 002f 0B       		.uleb128 0xb
 19189 0030 3E       		.uleb128 0x3e
 19190 0031 0B       		.uleb128 0xb
 19191 0032 03       		.uleb128 0x3
 19192 0033 0E       		.uleb128 0xe
 19193 0034 00       		.byte	0
 19194 0035 00       		.byte	0
 19195 0036 05       		.uleb128 0x5
 19196 0037 0F       		.uleb128 0xf
 19197 0038 00       		.byte	0
 19198 0039 0B       		.uleb128 0xb
 19199 003a 0B       		.uleb128 0xb
 19200 003b 49       		.uleb128 0x49
 19201 003c 13       		.uleb128 0x13
 19202 003d 00       		.byte	0
 19203 003e 00       		.byte	0
 19204 003f 06       		.uleb128 0x6
 19205 0040 13       		.uleb128 0x13
 19206 0041 00       		.byte	0
 19207 0042 03       		.uleb128 0x3
 19208 0043 0E       		.uleb128 0xe
 19209 0044 3C       		.uleb128 0x3c
 19210 0045 19       		.uleb128 0x19
 19211 0046 00       		.byte	0
 19212 0047 00       		.byte	0
 19213 0048 07       		.uleb128 0x7
 19214 0049 16       		.uleb128 0x16
 19215 004a 00       		.byte	0
 19216 004b 03       		.uleb128 0x3
 19217 004c 0E       		.uleb128 0xe
 19218 004d 3A       		.uleb128 0x3a
 19219 004e 0B       		.uleb128 0xb
ARM GAS  C:\Users\Moi\AppData\Local\Temp\cchaECY7.s 			page 351


 19220 004f 3B       		.uleb128 0x3b
 19221 0050 05       		.uleb128 0x5
 19222 0051 49       		.uleb128 0x49
 19223 0052 13       		.uleb128 0x13
 19224 0053 00       		.byte	0
 19225 0054 00       		.byte	0
 19226 0055 08       		.uleb128 0x8
 19227 0056 17       		.uleb128 0x17
 19228 0057 01       		.byte	0x1
 19229 0058 0B       		.uleb128 0xb
 19230 0059 0B       		.uleb128 0xb
 19231 005a 3A       		.uleb128 0x3a
 19232 005b 0B       		.uleb128 0xb
 19233 005c 3B       		.uleb128 0x3b
 19234 005d 0B       		.uleb128 0xb
 19235 005e 01       		.uleb128 0x1
 19236 005f 13       		.uleb128 0x13
 19237 0060 00       		.byte	0
 19238 0061 00       		.byte	0
 19239 0062 09       		.uleb128 0x9
 19240 0063 0D       		.uleb128 0xd
 19241 0064 00       		.byte	0
 19242 0065 03       		.uleb128 0x3
 19243 0066 0E       		.uleb128 0xe
 19244 0067 3A       		.uleb128 0x3a
 19245 0068 0B       		.uleb128 0xb
 19246 0069 3B       		.uleb128 0x3b
 19247 006a 0B       		.uleb128 0xb
 19248 006b 49       		.uleb128 0x49
 19249 006c 13       		.uleb128 0x13
 19250 006d 00       		.byte	0
 19251 006e 00       		.byte	0
 19252 006f 0A       		.uleb128 0xa
 19253 0070 01       		.uleb128 0x1
 19254 0071 01       		.byte	0x1
 19255 0072 49       		.uleb128 0x49
 19256 0073 13       		.uleb128 0x13
 19257 0074 01       		.uleb128 0x1
 19258 0075 13       		.uleb128 0x13
 19259 0076 00       		.byte	0
 19260 0077 00       		.byte	0
 19261 0078 0B       		.uleb128 0xb
 19262 0079 21       		.uleb128 0x21
 19263 007a 00       		.byte	0
 19264 007b 49       		.uleb128 0x49
 19265 007c 13       		.uleb128 0x13
 19266 007d 2F       		.uleb128 0x2f
 19267 007e 0B       		.uleb128 0xb
 19268 007f 00       		.byte	0
 19269 0080 00       		.byte	0
 19270 0081 0C       		.uleb128 0xc
 19271 0082 13       		.uleb128 0x13
 19272 0083 01       		.byte	0x1
 19273 0084 0B       		.uleb128 0xb
 19274 0085 0B       		.uleb128 0xb
 19275 0086 3A       		.uleb128 0x3a
 19276 0087 0B       		.uleb128 0xb
ARM GAS  C:\Users\Moi\AppData\Local\Temp\cchaECY7.s 			page 352


 19277 0088 3B       		.uleb128 0x3b
 19278 0089 0B       		.uleb128 0xb
 19279 008a 01       		.uleb128 0x1
 19280 008b 13       		.uleb128 0x13
 19281 008c 00       		.byte	0
 19282 008d 00       		.byte	0
 19283 008e 0D       		.uleb128 0xd
 19284 008f 0D       		.uleb128 0xd
 19285 0090 00       		.byte	0
 19286 0091 03       		.uleb128 0x3
 19287 0092 0E       		.uleb128 0xe
 19288 0093 3A       		.uleb128 0x3a
 19289 0094 0B       		.uleb128 0xb
 19290 0095 3B       		.uleb128 0x3b
 19291 0096 0B       		.uleb128 0xb
 19292 0097 49       		.uleb128 0x49
 19293 0098 13       		.uleb128 0x13
 19294 0099 38       		.uleb128 0x38
 19295 009a 0B       		.uleb128 0xb
 19296 009b 00       		.byte	0
 19297 009c 00       		.byte	0
 19298 009d 0E       		.uleb128 0xe
 19299 009e 0F       		.uleb128 0xf
 19300 009f 00       		.byte	0
 19301 00a0 0B       		.uleb128 0xb
 19302 00a1 0B       		.uleb128 0xb
 19303 00a2 00       		.byte	0
 19304 00a3 00       		.byte	0
 19305 00a4 0F       		.uleb128 0xf
 19306 00a5 26       		.uleb128 0x26
 19307 00a6 00       		.byte	0
 19308 00a7 49       		.uleb128 0x49
 19309 00a8 13       		.uleb128 0x13
 19310 00a9 00       		.byte	0
 19311 00aa 00       		.byte	0
 19312 00ab 10       		.uleb128 0x10
 19313 00ac 13       		.uleb128 0x13
 19314 00ad 01       		.byte	0x1
 19315 00ae 03       		.uleb128 0x3
 19316 00af 0E       		.uleb128 0xe
 19317 00b0 0B       		.uleb128 0xb
 19318 00b1 0B       		.uleb128 0xb
 19319 00b2 3A       		.uleb128 0x3a
 19320 00b3 0B       		.uleb128 0xb
 19321 00b4 3B       		.uleb128 0x3b
 19322 00b5 0B       		.uleb128 0xb
 19323 00b6 01       		.uleb128 0x1
 19324 00b7 13       		.uleb128 0x13
 19325 00b8 00       		.byte	0
 19326 00b9 00       		.byte	0
 19327 00ba 11       		.uleb128 0x11
 19328 00bb 0D       		.uleb128 0xd
 19329 00bc 00       		.byte	0
 19330 00bd 03       		.uleb128 0x3
 19331 00be 08       		.uleb128 0x8
 19332 00bf 3A       		.uleb128 0x3a
 19333 00c0 0B       		.uleb128 0xb
ARM GAS  C:\Users\Moi\AppData\Local\Temp\cchaECY7.s 			page 353


 19334 00c1 3B       		.uleb128 0x3b
 19335 00c2 0B       		.uleb128 0xb
 19336 00c3 49       		.uleb128 0x49
 19337 00c4 13       		.uleb128 0x13
 19338 00c5 38       		.uleb128 0x38
 19339 00c6 0B       		.uleb128 0xb
 19340 00c7 00       		.byte	0
 19341 00c8 00       		.byte	0
 19342 00c9 12       		.uleb128 0x12
 19343 00ca 13       		.uleb128 0x13
 19344 00cb 01       		.byte	0x1
 19345 00cc 03       		.uleb128 0x3
 19346 00cd 0E       		.uleb128 0xe
 19347 00ce 0B       		.uleb128 0xb
 19348 00cf 05       		.uleb128 0x5
 19349 00d0 3A       		.uleb128 0x3a
 19350 00d1 0B       		.uleb128 0xb
 19351 00d2 3B       		.uleb128 0x3b
 19352 00d3 0B       		.uleb128 0xb
 19353 00d4 01       		.uleb128 0x1
 19354 00d5 13       		.uleb128 0x13
 19355 00d6 00       		.byte	0
 19356 00d7 00       		.byte	0
 19357 00d8 13       		.uleb128 0x13
 19358 00d9 0D       		.uleb128 0xd
 19359 00da 00       		.byte	0
 19360 00db 03       		.uleb128 0x3
 19361 00dc 0E       		.uleb128 0xe
 19362 00dd 3A       		.uleb128 0x3a
 19363 00de 0B       		.uleb128 0xb
 19364 00df 3B       		.uleb128 0x3b
 19365 00e0 0B       		.uleb128 0xb
 19366 00e1 49       		.uleb128 0x49
 19367 00e2 13       		.uleb128 0x13
 19368 00e3 38       		.uleb128 0x38
 19369 00e4 05       		.uleb128 0x5
 19370 00e5 00       		.byte	0
 19371 00e6 00       		.byte	0
 19372 00e7 14       		.uleb128 0x14
 19373 00e8 15       		.uleb128 0x15
 19374 00e9 00       		.byte	0
 19375 00ea 27       		.uleb128 0x27
 19376 00eb 19       		.uleb128 0x19
 19377 00ec 00       		.byte	0
 19378 00ed 00       		.byte	0
 19379 00ee 15       		.uleb128 0x15
 19380 00ef 15       		.uleb128 0x15
 19381 00f0 01       		.byte	0x1
 19382 00f1 27       		.uleb128 0x27
 19383 00f2 19       		.uleb128 0x19
 19384 00f3 49       		.uleb128 0x49
 19385 00f4 13       		.uleb128 0x13
 19386 00f5 01       		.uleb128 0x1
 19387 00f6 13       		.uleb128 0x13
 19388 00f7 00       		.byte	0
 19389 00f8 00       		.byte	0
 19390 00f9 16       		.uleb128 0x16
ARM GAS  C:\Users\Moi\AppData\Local\Temp\cchaECY7.s 			page 354


 19391 00fa 05       		.uleb128 0x5
 19392 00fb 00       		.byte	0
 19393 00fc 49       		.uleb128 0x49
 19394 00fd 13       		.uleb128 0x13
 19395 00fe 00       		.byte	0
 19396 00ff 00       		.byte	0
 19397 0100 17       		.uleb128 0x17
 19398 0101 13       		.uleb128 0x13
 19399 0102 01       		.byte	0x1
 19400 0103 03       		.uleb128 0x3
 19401 0104 0E       		.uleb128 0xe
 19402 0105 0B       		.uleb128 0xb
 19403 0106 05       		.uleb128 0x5
 19404 0107 3A       		.uleb128 0x3a
 19405 0108 0B       		.uleb128 0xb
 19406 0109 3B       		.uleb128 0x3b
 19407 010a 05       		.uleb128 0x5
 19408 010b 01       		.uleb128 0x1
 19409 010c 13       		.uleb128 0x13
 19410 010d 00       		.byte	0
 19411 010e 00       		.byte	0
 19412 010f 18       		.uleb128 0x18
 19413 0110 0D       		.uleb128 0xd
 19414 0111 00       		.byte	0
 19415 0112 03       		.uleb128 0x3
 19416 0113 0E       		.uleb128 0xe
 19417 0114 3A       		.uleb128 0x3a
 19418 0115 0B       		.uleb128 0xb
 19419 0116 3B       		.uleb128 0x3b
 19420 0117 05       		.uleb128 0x5
 19421 0118 49       		.uleb128 0x49
 19422 0119 13       		.uleb128 0x13
 19423 011a 38       		.uleb128 0x38
 19424 011b 0B       		.uleb128 0xb
 19425 011c 00       		.byte	0
 19426 011d 00       		.byte	0
 19427 011e 19       		.uleb128 0x19
 19428 011f 0D       		.uleb128 0xd
 19429 0120 00       		.byte	0
 19430 0121 03       		.uleb128 0x3
 19431 0122 0E       		.uleb128 0xe
 19432 0123 3A       		.uleb128 0x3a
 19433 0124 0B       		.uleb128 0xb
 19434 0125 3B       		.uleb128 0x3b
 19435 0126 05       		.uleb128 0x5
 19436 0127 49       		.uleb128 0x49
 19437 0128 13       		.uleb128 0x13
 19438 0129 38       		.uleb128 0x38
 19439 012a 05       		.uleb128 0x5
 19440 012b 00       		.byte	0
 19441 012c 00       		.byte	0
 19442 012d 1A       		.uleb128 0x1a
 19443 012e 35       		.uleb128 0x35
 19444 012f 00       		.byte	0
 19445 0130 49       		.uleb128 0x49
 19446 0131 13       		.uleb128 0x13
 19447 0132 00       		.byte	0
ARM GAS  C:\Users\Moi\AppData\Local\Temp\cchaECY7.s 			page 355


 19448 0133 00       		.byte	0
 19449 0134 1B       		.uleb128 0x1b
 19450 0135 13       		.uleb128 0x13
 19451 0136 01       		.byte	0x1
 19452 0137 03       		.uleb128 0x3
 19453 0138 0E       		.uleb128 0xe
 19454 0139 0B       		.uleb128 0xb
 19455 013a 0B       		.uleb128 0xb
 19456 013b 3A       		.uleb128 0x3a
 19457 013c 0B       		.uleb128 0xb
 19458 013d 3B       		.uleb128 0x3b
 19459 013e 05       		.uleb128 0x5
 19460 013f 01       		.uleb128 0x1
 19461 0140 13       		.uleb128 0x13
 19462 0141 00       		.byte	0
 19463 0142 00       		.byte	0
 19464 0143 1C       		.uleb128 0x1c
 19465 0144 13       		.uleb128 0x13
 19466 0145 01       		.byte	0x1
 19467 0146 0B       		.uleb128 0xb
 19468 0147 0B       		.uleb128 0xb
 19469 0148 3A       		.uleb128 0x3a
 19470 0149 0B       		.uleb128 0xb
 19471 014a 3B       		.uleb128 0x3b
 19472 014b 05       		.uleb128 0x5
 19473 014c 01       		.uleb128 0x1
 19474 014d 13       		.uleb128 0x13
 19475 014e 00       		.byte	0
 19476 014f 00       		.byte	0
 19477 0150 1D       		.uleb128 0x1d
 19478 0151 17       		.uleb128 0x17
 19479 0152 01       		.byte	0x1
 19480 0153 0B       		.uleb128 0xb
 19481 0154 0B       		.uleb128 0xb
 19482 0155 3A       		.uleb128 0x3a
 19483 0156 0B       		.uleb128 0xb
 19484 0157 3B       		.uleb128 0x3b
 19485 0158 05       		.uleb128 0x5
 19486 0159 01       		.uleb128 0x1
 19487 015a 13       		.uleb128 0x13
 19488 015b 00       		.byte	0
 19489 015c 00       		.byte	0
 19490 015d 1E       		.uleb128 0x1e
 19491 015e 0D       		.uleb128 0xd
 19492 015f 00       		.byte	0
 19493 0160 03       		.uleb128 0x3
 19494 0161 0E       		.uleb128 0xe
 19495 0162 3A       		.uleb128 0x3a
 19496 0163 0B       		.uleb128 0xb
 19497 0164 3B       		.uleb128 0x3b
 19498 0165 05       		.uleb128 0x5
 19499 0166 49       		.uleb128 0x49
 19500 0167 13       		.uleb128 0x13
 19501 0168 00       		.byte	0
 19502 0169 00       		.byte	0
 19503 016a 1F       		.uleb128 0x1f
 19504 016b 15       		.uleb128 0x15
ARM GAS  C:\Users\Moi\AppData\Local\Temp\cchaECY7.s 			page 356


 19505 016c 01       		.byte	0x1
 19506 016d 27       		.uleb128 0x27
 19507 016e 19       		.uleb128 0x19
 19508 016f 01       		.uleb128 0x1
 19509 0170 13       		.uleb128 0x13
 19510 0171 00       		.byte	0
 19511 0172 00       		.byte	0
 19512 0173 20       		.uleb128 0x20
 19513 0174 34       		.uleb128 0x34
 19514 0175 00       		.byte	0
 19515 0176 03       		.uleb128 0x3
 19516 0177 0E       		.uleb128 0xe
 19517 0178 3A       		.uleb128 0x3a
 19518 0179 0B       		.uleb128 0xb
 19519 017a 3B       		.uleb128 0x3b
 19520 017b 05       		.uleb128 0x5
 19521 017c 49       		.uleb128 0x49
 19522 017d 13       		.uleb128 0x13
 19523 017e 3F       		.uleb128 0x3f
 19524 017f 19       		.uleb128 0x19
 19525 0180 3C       		.uleb128 0x3c
 19526 0181 19       		.uleb128 0x19
 19527 0182 00       		.byte	0
 19528 0183 00       		.byte	0
 19529 0184 21       		.uleb128 0x21
 19530 0185 04       		.uleb128 0x4
 19531 0186 01       		.byte	0x1
 19532 0187 03       		.uleb128 0x3
 19533 0188 0E       		.uleb128 0xe
 19534 0189 3E       		.uleb128 0x3e
 19535 018a 0B       		.uleb128 0xb
 19536 018b 0B       		.uleb128 0xb
 19537 018c 0B       		.uleb128 0xb
 19538 018d 49       		.uleb128 0x49
 19539 018e 13       		.uleb128 0x13
 19540 018f 3A       		.uleb128 0x3a
 19541 0190 0B       		.uleb128 0xb
 19542 0191 3B       		.uleb128 0x3b
 19543 0192 05       		.uleb128 0x5
 19544 0193 01       		.uleb128 0x1
 19545 0194 13       		.uleb128 0x13
 19546 0195 00       		.byte	0
 19547 0196 00       		.byte	0
 19548 0197 22       		.uleb128 0x22
 19549 0198 28       		.uleb128 0x28
 19550 0199 00       		.byte	0
 19551 019a 03       		.uleb128 0x3
 19552 019b 0E       		.uleb128 0xe
 19553 019c 1C       		.uleb128 0x1c
 19554 019d 0D       		.uleb128 0xd
 19555 019e 00       		.byte	0
 19556 019f 00       		.byte	0
 19557 01a0 23       		.uleb128 0x23
 19558 01a1 28       		.uleb128 0x28
 19559 01a2 00       		.byte	0
 19560 01a3 03       		.uleb128 0x3
 19561 01a4 0E       		.uleb128 0xe
ARM GAS  C:\Users\Moi\AppData\Local\Temp\cchaECY7.s 			page 357


 19562 01a5 1C       		.uleb128 0x1c
 19563 01a6 0B       		.uleb128 0xb
 19564 01a7 00       		.byte	0
 19565 01a8 00       		.byte	0
 19566 01a9 24       		.uleb128 0x24
 19567 01aa 0D       		.uleb128 0xd
 19568 01ab 00       		.byte	0
 19569 01ac 03       		.uleb128 0x3
 19570 01ad 0E       		.uleb128 0xe
 19571 01ae 49       		.uleb128 0x49
 19572 01af 13       		.uleb128 0x13
 19573 01b0 38       		.uleb128 0x38
 19574 01b1 0B       		.uleb128 0xb
 19575 01b2 34       		.uleb128 0x34
 19576 01b3 19       		.uleb128 0x19
 19577 01b4 00       		.byte	0
 19578 01b5 00       		.byte	0
 19579 01b6 25       		.uleb128 0x25
 19580 01b7 0D       		.uleb128 0xd
 19581 01b8 00       		.byte	0
 19582 01b9 03       		.uleb128 0x3
 19583 01ba 08       		.uleb128 0x8
 19584 01bb 3A       		.uleb128 0x3a
 19585 01bc 0B       		.uleb128 0xb
 19586 01bd 3B       		.uleb128 0x3b
 19587 01be 05       		.uleb128 0x5
 19588 01bf 49       		.uleb128 0x49
 19589 01c0 13       		.uleb128 0x13
 19590 01c1 38       		.uleb128 0x38
 19591 01c2 0B       		.uleb128 0xb
 19592 01c3 00       		.byte	0
 19593 01c4 00       		.byte	0
 19594 01c5 26       		.uleb128 0x26
 19595 01c6 0D       		.uleb128 0xd
 19596 01c7 00       		.byte	0
 19597 01c8 03       		.uleb128 0x3
 19598 01c9 08       		.uleb128 0x8
 19599 01ca 3A       		.uleb128 0x3a
 19600 01cb 0B       		.uleb128 0xb
 19601 01cc 3B       		.uleb128 0x3b
 19602 01cd 05       		.uleb128 0x5
 19603 01ce 49       		.uleb128 0x49
 19604 01cf 13       		.uleb128 0x13
 19605 01d0 38       		.uleb128 0x38
 19606 01d1 05       		.uleb128 0x5
 19607 01d2 00       		.byte	0
 19608 01d3 00       		.byte	0
 19609 01d4 27       		.uleb128 0x27
 19610 01d5 34       		.uleb128 0x34
 19611 01d6 00       		.byte	0
 19612 01d7 03       		.uleb128 0x3
 19613 01d8 0E       		.uleb128 0xe
 19614 01d9 3A       		.uleb128 0x3a
 19615 01da 0B       		.uleb128 0xb
 19616 01db 3B       		.uleb128 0x3b
 19617 01dc 0B       		.uleb128 0xb
 19618 01dd 49       		.uleb128 0x49
ARM GAS  C:\Users\Moi\AppData\Local\Temp\cchaECY7.s 			page 358


 19619 01de 13       		.uleb128 0x13
 19620 01df 3F       		.uleb128 0x3f
 19621 01e0 19       		.uleb128 0x19
 19622 01e1 3C       		.uleb128 0x3c
 19623 01e2 19       		.uleb128 0x19
 19624 01e3 00       		.byte	0
 19625 01e4 00       		.byte	0
 19626 01e5 28       		.uleb128 0x28
 19627 01e6 13       		.uleb128 0x13
 19628 01e7 01       		.byte	0x1
 19629 01e8 0B       		.uleb128 0xb
 19630 01e9 05       		.uleb128 0x5
 19631 01ea 3A       		.uleb128 0x3a
 19632 01eb 0B       		.uleb128 0xb
 19633 01ec 3B       		.uleb128 0x3b
 19634 01ed 05       		.uleb128 0x5
 19635 01ee 01       		.uleb128 0x1
 19636 01ef 13       		.uleb128 0x13
 19637 01f0 00       		.byte	0
 19638 01f1 00       		.byte	0
 19639 01f2 29       		.uleb128 0x29
 19640 01f3 13       		.uleb128 0x13
 19641 01f4 01       		.byte	0x1
 19642 01f5 0B       		.uleb128 0xb
 19643 01f6 05       		.uleb128 0x5
 19644 01f7 3A       		.uleb128 0x3a
 19645 01f8 0B       		.uleb128 0xb
 19646 01f9 3B       		.uleb128 0x3b
 19647 01fa 0B       		.uleb128 0xb
 19648 01fb 01       		.uleb128 0x1
 19649 01fc 13       		.uleb128 0x13
 19650 01fd 00       		.byte	0
 19651 01fe 00       		.byte	0
 19652 01ff 2A       		.uleb128 0x2a
 19653 0200 34       		.uleb128 0x34
 19654 0201 00       		.byte	0
 19655 0202 03       		.uleb128 0x3
 19656 0203 08       		.uleb128 0x8
 19657 0204 3A       		.uleb128 0x3a
 19658 0205 0B       		.uleb128 0xb
 19659 0206 3B       		.uleb128 0x3b
 19660 0207 05       		.uleb128 0x5
 19661 0208 49       		.uleb128 0x49
 19662 0209 13       		.uleb128 0x13
 19663 020a 3F       		.uleb128 0x3f
 19664 020b 19       		.uleb128 0x19
 19665 020c 3C       		.uleb128 0x3c
 19666 020d 19       		.uleb128 0x19
 19667 020e 00       		.byte	0
 19668 020f 00       		.byte	0
 19669 0210 2B       		.uleb128 0x2b
 19670 0211 04       		.uleb128 0x4
 19671 0212 01       		.byte	0x1
 19672 0213 3E       		.uleb128 0x3e
 19673 0214 0B       		.uleb128 0xb
 19674 0215 0B       		.uleb128 0xb
 19675 0216 0B       		.uleb128 0xb
ARM GAS  C:\Users\Moi\AppData\Local\Temp\cchaECY7.s 			page 359


 19676 0217 49       		.uleb128 0x49
 19677 0218 13       		.uleb128 0x13
 19678 0219 3A       		.uleb128 0x3a
 19679 021a 0B       		.uleb128 0xb
 19680 021b 3B       		.uleb128 0x3b
 19681 021c 0B       		.uleb128 0xb
 19682 021d 01       		.uleb128 0x1
 19683 021e 13       		.uleb128 0x13
 19684 021f 00       		.byte	0
 19685 0220 00       		.byte	0
 19686 0221 2C       		.uleb128 0x2c
 19687 0222 0D       		.uleb128 0xd
 19688 0223 00       		.byte	0
 19689 0224 03       		.uleb128 0x3
 19690 0225 08       		.uleb128 0x8
 19691 0226 3A       		.uleb128 0x3a
 19692 0227 0B       		.uleb128 0xb
 19693 0228 3B       		.uleb128 0x3b
 19694 0229 0B       		.uleb128 0xb
 19695 022a 49       		.uleb128 0x49
 19696 022b 13       		.uleb128 0x13
 19697 022c 00       		.byte	0
 19698 022d 00       		.byte	0
 19699 022e 2D       		.uleb128 0x2d
 19700 022f 04       		.uleb128 0x4
 19701 0230 01       		.byte	0x1
 19702 0231 3E       		.uleb128 0x3e
 19703 0232 0B       		.uleb128 0xb
 19704 0233 0B       		.uleb128 0xb
 19705 0234 0B       		.uleb128 0xb
 19706 0235 49       		.uleb128 0x49
 19707 0236 13       		.uleb128 0x13
 19708 0237 3A       		.uleb128 0x3a
 19709 0238 0B       		.uleb128 0xb
 19710 0239 3B       		.uleb128 0x3b
 19711 023a 05       		.uleb128 0x5
 19712 023b 01       		.uleb128 0x1
 19713 023c 13       		.uleb128 0x13
 19714 023d 00       		.byte	0
 19715 023e 00       		.byte	0
 19716 023f 2E       		.uleb128 0x2e
 19717 0240 26       		.uleb128 0x26
 19718 0241 00       		.byte	0
 19719 0242 00       		.byte	0
 19720 0243 00       		.byte	0
 19721 0244 2F       		.uleb128 0x2f
 19722 0245 13       		.uleb128 0x13
 19723 0246 01       		.byte	0x1
 19724 0247 0B       		.uleb128 0xb
 19725 0248 06       		.uleb128 0x6
 19726 0249 3A       		.uleb128 0x3a
 19727 024a 0B       		.uleb128 0xb
 19728 024b 3B       		.uleb128 0x3b
 19729 024c 0B       		.uleb128 0xb
 19730 024d 01       		.uleb128 0x1
 19731 024e 13       		.uleb128 0x13
 19732 024f 00       		.byte	0
ARM GAS  C:\Users\Moi\AppData\Local\Temp\cchaECY7.s 			page 360


 19733 0250 00       		.byte	0
 19734 0251 30       		.uleb128 0x30
 19735 0252 0D       		.uleb128 0xd
 19736 0253 00       		.byte	0
 19737 0254 03       		.uleb128 0x3
 19738 0255 08       		.uleb128 0x8
 19739 0256 3A       		.uleb128 0x3a
 19740 0257 0B       		.uleb128 0xb
 19741 0258 3B       		.uleb128 0x3b
 19742 0259 0B       		.uleb128 0xb
 19743 025a 49       		.uleb128 0x49
 19744 025b 13       		.uleb128 0x13
 19745 025c 38       		.uleb128 0x38
 19746 025d 05       		.uleb128 0x5
 19747 025e 00       		.byte	0
 19748 025f 00       		.byte	0
 19749 0260 31       		.uleb128 0x31
 19750 0261 21       		.uleb128 0x21
 19751 0262 00       		.byte	0
 19752 0263 49       		.uleb128 0x49
 19753 0264 13       		.uleb128 0x13
 19754 0265 2F       		.uleb128 0x2f
 19755 0266 05       		.uleb128 0x5
 19756 0267 00       		.byte	0
 19757 0268 00       		.byte	0
 19758 0269 32       		.uleb128 0x32
 19759 026a 17       		.uleb128 0x17
 19760 026b 01       		.byte	0x1
 19761 026c 03       		.uleb128 0x3
 19762 026d 0E       		.uleb128 0xe
 19763 026e 0B       		.uleb128 0xb
 19764 026f 05       		.uleb128 0x5
 19765 0270 3A       		.uleb128 0x3a
 19766 0271 0B       		.uleb128 0xb
 19767 0272 3B       		.uleb128 0x3b
 19768 0273 0B       		.uleb128 0xb
 19769 0274 01       		.uleb128 0x1
 19770 0275 13       		.uleb128 0x13
 19771 0276 00       		.byte	0
 19772 0277 00       		.byte	0
 19773 0278 33       		.uleb128 0x33
 19774 0279 21       		.uleb128 0x21
 19775 027a 00       		.byte	0
 19776 027b 00       		.byte	0
 19777 027c 00       		.byte	0
 19778 027d 34       		.uleb128 0x34
 19779 027e 34       		.uleb128 0x34
 19780 027f 00       		.byte	0
 19781 0280 03       		.uleb128 0x3
 19782 0281 08       		.uleb128 0x8
 19783 0282 3A       		.uleb128 0x3a
 19784 0283 0B       		.uleb128 0xb
 19785 0284 3B       		.uleb128 0x3b
 19786 0285 0B       		.uleb128 0xb
 19787 0286 49       		.uleb128 0x49
 19788 0287 13       		.uleb128 0x13
 19789 0288 3F       		.uleb128 0x3f
ARM GAS  C:\Users\Moi\AppData\Local\Temp\cchaECY7.s 			page 361


 19790 0289 19       		.uleb128 0x19
 19791 028a 3C       		.uleb128 0x3c
 19792 028b 19       		.uleb128 0x19
 19793 028c 00       		.byte	0
 19794 028d 00       		.byte	0
 19795 028e 35       		.uleb128 0x35
 19796 028f 16       		.uleb128 0x16
 19797 0290 00       		.byte	0
 19798 0291 03       		.uleb128 0x3
 19799 0292 08       		.uleb128 0x8
 19800 0293 3A       		.uleb128 0x3a
 19801 0294 0B       		.uleb128 0xb
 19802 0295 3B       		.uleb128 0x3b
 19803 0296 0B       		.uleb128 0xb
 19804 0297 49       		.uleb128 0x49
 19805 0298 13       		.uleb128 0x13
 19806 0299 00       		.byte	0
 19807 029a 00       		.byte	0
 19808 029b 36       		.uleb128 0x36
 19809 029c 34       		.uleb128 0x34
 19810 029d 00       		.byte	0
 19811 029e 03       		.uleb128 0x3
 19812 029f 08       		.uleb128 0x8
 19813 02a0 3A       		.uleb128 0x3a
 19814 02a1 0B       		.uleb128 0xb
 19815 02a2 3B       		.uleb128 0x3b
 19816 02a3 0B       		.uleb128 0xb
 19817 02a4 49       		.uleb128 0x49
 19818 02a5 13       		.uleb128 0x13
 19819 02a6 02       		.uleb128 0x2
 19820 02a7 18       		.uleb128 0x18
 19821 02a8 00       		.byte	0
 19822 02a9 00       		.byte	0
 19823 02aa 37       		.uleb128 0x37
 19824 02ab 34       		.uleb128 0x34
 19825 02ac 00       		.byte	0
 19826 02ad 03       		.uleb128 0x3
 19827 02ae 0E       		.uleb128 0xe
 19828 02af 3A       		.uleb128 0x3a
 19829 02b0 0B       		.uleb128 0xb
 19830 02b1 3B       		.uleb128 0x3b
 19831 02b2 0B       		.uleb128 0xb
 19832 02b3 49       		.uleb128 0x49
 19833 02b4 13       		.uleb128 0x13
 19834 02b5 02       		.uleb128 0x2
 19835 02b6 18       		.uleb128 0x18
 19836 02b7 00       		.byte	0
 19837 02b8 00       		.byte	0
 19838 02b9 38       		.uleb128 0x38
 19839 02ba 34       		.uleb128 0x34
 19840 02bb 00       		.byte	0
 19841 02bc 03       		.uleb128 0x3
 19842 02bd 0E       		.uleb128 0xe
 19843 02be 3A       		.uleb128 0x3a
 19844 02bf 0B       		.uleb128 0xb
 19845 02c0 3B       		.uleb128 0x3b
 19846 02c1 05       		.uleb128 0x5
ARM GAS  C:\Users\Moi\AppData\Local\Temp\cchaECY7.s 			page 362


 19847 02c2 49       		.uleb128 0x49
 19848 02c3 13       		.uleb128 0x13
 19849 02c4 3F       		.uleb128 0x3f
 19850 02c5 19       		.uleb128 0x19
 19851 02c6 02       		.uleb128 0x2
 19852 02c7 18       		.uleb128 0x18
 19853 02c8 00       		.byte	0
 19854 02c9 00       		.byte	0
 19855 02ca 39       		.uleb128 0x39
 19856 02cb 2E       		.uleb128 0x2e
 19857 02cc 01       		.byte	0x1
 19858 02cd 3F       		.uleb128 0x3f
 19859 02ce 19       		.uleb128 0x19
 19860 02cf 03       		.uleb128 0x3
 19861 02d0 0E       		.uleb128 0xe
 19862 02d1 3A       		.uleb128 0x3a
 19863 02d2 0B       		.uleb128 0xb
 19864 02d3 3B       		.uleb128 0x3b
 19865 02d4 05       		.uleb128 0x5
 19866 02d5 27       		.uleb128 0x27
 19867 02d6 19       		.uleb128 0x19
 19868 02d7 11       		.uleb128 0x11
 19869 02d8 01       		.uleb128 0x1
 19870 02d9 12       		.uleb128 0x12
 19871 02da 06       		.uleb128 0x6
 19872 02db 40       		.uleb128 0x40
 19873 02dc 18       		.uleb128 0x18
 19874 02dd 9642     		.uleb128 0x2116
 19875 02df 19       		.uleb128 0x19
 19876 02e0 01       		.uleb128 0x1
 19877 02e1 13       		.uleb128 0x13
 19878 02e2 00       		.byte	0
 19879 02e3 00       		.byte	0
 19880 02e4 3A       		.uleb128 0x3a
 19881 02e5 34       		.uleb128 0x34
 19882 02e6 00       		.byte	0
 19883 02e7 03       		.uleb128 0x3
 19884 02e8 08       		.uleb128 0x8
 19885 02e9 3A       		.uleb128 0x3a
 19886 02ea 0B       		.uleb128 0xb
 19887 02eb 3B       		.uleb128 0x3b
 19888 02ec 05       		.uleb128 0x5
 19889 02ed 49       		.uleb128 0x49
 19890 02ee 13       		.uleb128 0x13
 19891 02ef 02       		.uleb128 0x2
 19892 02f0 18       		.uleb128 0x18
 19893 02f1 00       		.byte	0
 19894 02f2 00       		.byte	0
 19895 02f3 3B       		.uleb128 0x3b
 19896 02f4 2E       		.uleb128 0x2e
 19897 02f5 01       		.byte	0x1
 19898 02f6 03       		.uleb128 0x3
 19899 02f7 0E       		.uleb128 0xe
 19900 02f8 3A       		.uleb128 0x3a
 19901 02f9 0B       		.uleb128 0xb
 19902 02fa 3B       		.uleb128 0x3b
 19903 02fb 05       		.uleb128 0x5
ARM GAS  C:\Users\Moi\AppData\Local\Temp\cchaECY7.s 			page 363


 19904 02fc 27       		.uleb128 0x27
 19905 02fd 19       		.uleb128 0x19
 19906 02fe 11       		.uleb128 0x11
 19907 02ff 01       		.uleb128 0x1
 19908 0300 12       		.uleb128 0x12
 19909 0301 06       		.uleb128 0x6
 19910 0302 40       		.uleb128 0x40
 19911 0303 18       		.uleb128 0x18
 19912 0304 9642     		.uleb128 0x2116
 19913 0306 19       		.uleb128 0x19
 19914 0307 01       		.uleb128 0x1
 19915 0308 13       		.uleb128 0x13
 19916 0309 00       		.byte	0
 19917 030a 00       		.byte	0
 19918 030b 3C       		.uleb128 0x3c
 19919 030c 05       		.uleb128 0x5
 19920 030d 00       		.byte	0
 19921 030e 03       		.uleb128 0x3
 19922 030f 08       		.uleb128 0x8
 19923 0310 3A       		.uleb128 0x3a
 19924 0311 0B       		.uleb128 0xb
 19925 0312 3B       		.uleb128 0x3b
 19926 0313 05       		.uleb128 0x5
 19927 0314 49       		.uleb128 0x49
 19928 0315 13       		.uleb128 0x13
 19929 0316 02       		.uleb128 0x2
 19930 0317 18       		.uleb128 0x18
 19931 0318 00       		.byte	0
 19932 0319 00       		.byte	0
 19933 031a 3D       		.uleb128 0x3d
 19934 031b 34       		.uleb128 0x34
 19935 031c 00       		.byte	0
 19936 031d 03       		.uleb128 0x3
 19937 031e 0E       		.uleb128 0xe
 19938 031f 3A       		.uleb128 0x3a
 19939 0320 0B       		.uleb128 0xb
 19940 0321 3B       		.uleb128 0x3b
 19941 0322 05       		.uleb128 0x5
 19942 0323 49       		.uleb128 0x49
 19943 0324 13       		.uleb128 0x13
 19944 0325 02       		.uleb128 0x2
 19945 0326 18       		.uleb128 0x18
 19946 0327 00       		.byte	0
 19947 0328 00       		.byte	0
 19948 0329 3E       		.uleb128 0x3e
 19949 032a 05       		.uleb128 0x5
 19950 032b 00       		.byte	0
 19951 032c 03       		.uleb128 0x3
 19952 032d 0E       		.uleb128 0xe
 19953 032e 3A       		.uleb128 0x3a
 19954 032f 0B       		.uleb128 0xb
 19955 0330 3B       		.uleb128 0x3b
 19956 0331 05       		.uleb128 0x5
 19957 0332 49       		.uleb128 0x49
 19958 0333 13       		.uleb128 0x13
 19959 0334 02       		.uleb128 0x2
 19960 0335 18       		.uleb128 0x18
ARM GAS  C:\Users\Moi\AppData\Local\Temp\cchaECY7.s 			page 364


 19961 0336 00       		.byte	0
 19962 0337 00       		.byte	0
 19963 0338 3F       		.uleb128 0x3f
 19964 0339 0A       		.uleb128 0xa
 19965 033a 00       		.byte	0
 19966 033b 03       		.uleb128 0x3
 19967 033c 0E       		.uleb128 0xe
 19968 033d 3A       		.uleb128 0x3a
 19969 033e 0B       		.uleb128 0xb
 19970 033f 3B       		.uleb128 0x3b
 19971 0340 05       		.uleb128 0x5
 19972 0341 11       		.uleb128 0x11
 19973 0342 01       		.uleb128 0x1
 19974 0343 00       		.byte	0
 19975 0344 00       		.byte	0
 19976 0345 40       		.uleb128 0x40
 19977 0346 0B       		.uleb128 0xb
 19978 0347 01       		.byte	0x1
 19979 0348 11       		.uleb128 0x11
 19980 0349 01       		.uleb128 0x1
 19981 034a 12       		.uleb128 0x12
 19982 034b 06       		.uleb128 0x6
 19983 034c 01       		.uleb128 0x1
 19984 034d 13       		.uleb128 0x13
 19985 034e 00       		.byte	0
 19986 034f 00       		.byte	0
 19987 0350 41       		.uleb128 0x41
 19988 0351 0B       		.uleb128 0xb
 19989 0352 01       		.byte	0x1
 19990 0353 11       		.uleb128 0x11
 19991 0354 01       		.uleb128 0x1
 19992 0355 12       		.uleb128 0x12
 19993 0356 06       		.uleb128 0x6
 19994 0357 00       		.byte	0
 19995 0358 00       		.byte	0
 19996 0359 42       		.uleb128 0x42
 19997 035a 2E       		.uleb128 0x2e
 19998 035b 01       		.byte	0x1
 19999 035c 3F       		.uleb128 0x3f
 20000 035d 19       		.uleb128 0x19
 20001 035e 03       		.uleb128 0x3
 20002 035f 0E       		.uleb128 0xe
 20003 0360 3A       		.uleb128 0x3a
 20004 0361 0B       		.uleb128 0xb
 20005 0362 3B       		.uleb128 0x3b
 20006 0363 0B       		.uleb128 0xb
 20007 0364 27       		.uleb128 0x27
 20008 0365 19       		.uleb128 0x19
 20009 0366 11       		.uleb128 0x11
 20010 0367 01       		.uleb128 0x1
 20011 0368 12       		.uleb128 0x12
 20012 0369 06       		.uleb128 0x6
 20013 036a 40       		.uleb128 0x40
 20014 036b 18       		.uleb128 0x18
 20015 036c 9642     		.uleb128 0x2116
 20016 036e 19       		.uleb128 0x19
 20017 036f 01       		.uleb128 0x1
ARM GAS  C:\Users\Moi\AppData\Local\Temp\cchaECY7.s 			page 365


 20018 0370 13       		.uleb128 0x13
 20019 0371 00       		.byte	0
 20020 0372 00       		.byte	0
 20021 0373 43       		.uleb128 0x43
 20022 0374 05       		.uleb128 0x5
 20023 0375 00       		.byte	0
 20024 0376 03       		.uleb128 0x3
 20025 0377 08       		.uleb128 0x8
 20026 0378 3A       		.uleb128 0x3a
 20027 0379 0B       		.uleb128 0xb
 20028 037a 3B       		.uleb128 0x3b
 20029 037b 0B       		.uleb128 0xb
 20030 037c 49       		.uleb128 0x49
 20031 037d 13       		.uleb128 0x13
 20032 037e 02       		.uleb128 0x2
 20033 037f 18       		.uleb128 0x18
 20034 0380 00       		.byte	0
 20035 0381 00       		.byte	0
 20036 0382 44       		.uleb128 0x44
 20037 0383 05       		.uleb128 0x5
 20038 0384 00       		.byte	0
 20039 0385 03       		.uleb128 0x3
 20040 0386 0E       		.uleb128 0xe
 20041 0387 3A       		.uleb128 0x3a
 20042 0388 0B       		.uleb128 0xb
 20043 0389 3B       		.uleb128 0x3b
 20044 038a 0B       		.uleb128 0xb
 20045 038b 49       		.uleb128 0x49
 20046 038c 13       		.uleb128 0x13
 20047 038d 02       		.uleb128 0x2
 20048 038e 18       		.uleb128 0x18
 20049 038f 00       		.byte	0
 20050 0390 00       		.byte	0
 20051 0391 45       		.uleb128 0x45
 20052 0392 2E       		.uleb128 0x2e
 20053 0393 01       		.byte	0x1
 20054 0394 03       		.uleb128 0x3
 20055 0395 0E       		.uleb128 0xe
 20056 0396 3A       		.uleb128 0x3a
 20057 0397 0B       		.uleb128 0xb
 20058 0398 3B       		.uleb128 0x3b
 20059 0399 0B       		.uleb128 0xb
 20060 039a 27       		.uleb128 0x27
 20061 039b 19       		.uleb128 0x19
 20062 039c 49       		.uleb128 0x49
 20063 039d 13       		.uleb128 0x13
 20064 039e 11       		.uleb128 0x11
 20065 039f 01       		.uleb128 0x1
 20066 03a0 12       		.uleb128 0x12
 20067 03a1 06       		.uleb128 0x6
 20068 03a2 40       		.uleb128 0x40
 20069 03a3 18       		.uleb128 0x18
 20070 03a4 9642     		.uleb128 0x2116
 20071 03a6 19       		.uleb128 0x19
 20072 03a7 01       		.uleb128 0x1
 20073 03a8 13       		.uleb128 0x13
 20074 03a9 00       		.byte	0
ARM GAS  C:\Users\Moi\AppData\Local\Temp\cchaECY7.s 			page 366


 20075 03aa 00       		.byte	0
 20076 03ab 46       		.uleb128 0x46
 20077 03ac 18       		.uleb128 0x18
 20078 03ad 00       		.byte	0
 20079 03ae 00       		.byte	0
 20080 03af 00       		.byte	0
 20081 03b0 47       		.uleb128 0x47
 20082 03b1 2E       		.uleb128 0x2e
 20083 03b2 00       		.byte	0
 20084 03b3 03       		.uleb128 0x3
 20085 03b4 0E       		.uleb128 0xe
 20086 03b5 3A       		.uleb128 0x3a
 20087 03b6 0B       		.uleb128 0xb
 20088 03b7 3B       		.uleb128 0x3b
 20089 03b8 0B       		.uleb128 0xb
 20090 03b9 27       		.uleb128 0x27
 20091 03ba 19       		.uleb128 0x19
 20092 03bb 49       		.uleb128 0x49
 20093 03bc 13       		.uleb128 0x13
 20094 03bd 11       		.uleb128 0x11
 20095 03be 01       		.uleb128 0x1
 20096 03bf 12       		.uleb128 0x12
 20097 03c0 06       		.uleb128 0x6
 20098 03c1 40       		.uleb128 0x40
 20099 03c2 18       		.uleb128 0x18
 20100 03c3 9642     		.uleb128 0x2116
 20101 03c5 19       		.uleb128 0x19
 20102 03c6 00       		.byte	0
 20103 03c7 00       		.byte	0
 20104 03c8 48       		.uleb128 0x48
 20105 03c9 2E       		.uleb128 0x2e
 20106 03ca 01       		.byte	0x1
 20107 03cb 03       		.uleb128 0x3
 20108 03cc 0E       		.uleb128 0xe
 20109 03cd 3A       		.uleb128 0x3a
 20110 03ce 0B       		.uleb128 0xb
 20111 03cf 3B       		.uleb128 0x3b
 20112 03d0 05       		.uleb128 0x5
 20113 03d1 27       		.uleb128 0x27
 20114 03d2 19       		.uleb128 0x19
 20115 03d3 49       		.uleb128 0x49
 20116 03d4 13       		.uleb128 0x13
 20117 03d5 11       		.uleb128 0x11
 20118 03d6 01       		.uleb128 0x1
 20119 03d7 12       		.uleb128 0x12
 20120 03d8 06       		.uleb128 0x6
 20121 03d9 40       		.uleb128 0x40
 20122 03da 18       		.uleb128 0x18
 20123 03db 9642     		.uleb128 0x2116
 20124 03dd 19       		.uleb128 0x19
 20125 03de 01       		.uleb128 0x1
 20126 03df 13       		.uleb128 0x13
 20127 03e0 00       		.byte	0
 20128 03e1 00       		.byte	0
 20129 03e2 49       		.uleb128 0x49
 20130 03e3 34       		.uleb128 0x34
 20131 03e4 00       		.byte	0
ARM GAS  C:\Users\Moi\AppData\Local\Temp\cchaECY7.s 			page 367


 20132 03e5 03       		.uleb128 0x3
 20133 03e6 0E       		.uleb128 0xe
 20134 03e7 49       		.uleb128 0x49
 20135 03e8 13       		.uleb128 0x13
 20136 03e9 34       		.uleb128 0x34
 20137 03ea 19       		.uleb128 0x19
 20138 03eb 02       		.uleb128 0x2
 20139 03ec 18       		.uleb128 0x18
 20140 03ed 00       		.byte	0
 20141 03ee 00       		.byte	0
 20142 03ef 4A       		.uleb128 0x4a
 20143 03f0 2E       		.uleb128 0x2e
 20144 03f1 00       		.byte	0
 20145 03f2 03       		.uleb128 0x3
 20146 03f3 0E       		.uleb128 0xe
 20147 03f4 3A       		.uleb128 0x3a
 20148 03f5 0B       		.uleb128 0xb
 20149 03f6 3B       		.uleb128 0x3b
 20150 03f7 05       		.uleb128 0x5
 20151 03f8 27       		.uleb128 0x27
 20152 03f9 19       		.uleb128 0x19
 20153 03fa 11       		.uleb128 0x11
 20154 03fb 01       		.uleb128 0x1
 20155 03fc 12       		.uleb128 0x12
 20156 03fd 06       		.uleb128 0x6
 20157 03fe 40       		.uleb128 0x40
 20158 03ff 18       		.uleb128 0x18
 20159 0400 9642     		.uleb128 0x2116
 20160 0402 19       		.uleb128 0x19
 20161 0403 00       		.byte	0
 20162 0404 00       		.byte	0
 20163 0405 4B       		.uleb128 0x4b
 20164 0406 1D       		.uleb128 0x1d
 20165 0407 01       		.byte	0x1
 20166 0408 31       		.uleb128 0x31
 20167 0409 13       		.uleb128 0x13
 20168 040a 11       		.uleb128 0x11
 20169 040b 01       		.uleb128 0x1
 20170 040c 12       		.uleb128 0x12
 20171 040d 06       		.uleb128 0x6
 20172 040e 58       		.uleb128 0x58
 20173 040f 0B       		.uleb128 0xb
 20174 0410 59       		.uleb128 0x59
 20175 0411 05       		.uleb128 0x5
 20176 0412 00       		.byte	0
 20177 0413 00       		.byte	0
 20178 0414 4C       		.uleb128 0x4c
 20179 0415 05       		.uleb128 0x5
 20180 0416 00       		.byte	0
 20181 0417 31       		.uleb128 0x31
 20182 0418 13       		.uleb128 0x13
 20183 0419 02       		.uleb128 0x2
 20184 041a 18       		.uleb128 0x18
 20185 041b 00       		.byte	0
 20186 041c 00       		.byte	0
 20187 041d 4D       		.uleb128 0x4d
 20188 041e 2E       		.uleb128 0x2e
ARM GAS  C:\Users\Moi\AppData\Local\Temp\cchaECY7.s 			page 368


 20189 041f 01       		.byte	0x1
 20190 0420 03       		.uleb128 0x3
 20191 0421 0E       		.uleb128 0xe
 20192 0422 3A       		.uleb128 0x3a
 20193 0423 0B       		.uleb128 0xb
 20194 0424 3B       		.uleb128 0x3b
 20195 0425 05       		.uleb128 0x5
 20196 0426 27       		.uleb128 0x27
 20197 0427 19       		.uleb128 0x19
 20198 0428 20       		.uleb128 0x20
 20199 0429 0B       		.uleb128 0xb
 20200 042a 00       		.byte	0
 20201 042b 00       		.byte	0
 20202 042c 4E       		.uleb128 0x4e
 20203 042d 05       		.uleb128 0x5
 20204 042e 00       		.byte	0
 20205 042f 03       		.uleb128 0x3
 20206 0430 0E       		.uleb128 0xe
 20207 0431 3A       		.uleb128 0x3a
 20208 0432 0B       		.uleb128 0xb
 20209 0433 3B       		.uleb128 0x3b
 20210 0434 05       		.uleb128 0x5
 20211 0435 49       		.uleb128 0x49
 20212 0436 13       		.uleb128 0x13
 20213 0437 00       		.byte	0
 20214 0438 00       		.byte	0
 20215 0439 00       		.byte	0
 20216              		.section	.debug_aranges,"",%progbits
 20217 0000 04020000 		.4byte	0x204
 20218 0004 0200     		.2byte	0x2
 20219 0006 00000000 		.4byte	.Ldebug_info0
 20220 000a 04       		.byte	0x4
 20221 000b 00       		.byte	0
 20222 000c 0000     		.2byte	0
 20223 000e 0000     		.2byte	0
 20224 0010 00000000 		.4byte	.LFB119
 20225 0014 30000000 		.4byte	.LFE119-.LFB119
 20226 0018 00000000 		.4byte	.LFB120
 20227 001c 30000000 		.4byte	.LFE120-.LFB120
 20228 0020 00000000 		.4byte	.LFB148
 20229 0024 30000000 		.4byte	.LFE148-.LFB148
 20230 0028 00000000 		.4byte	.LFB149
 20231 002c 58000000 		.4byte	.LFE149-.LFB149
 20232 0030 00000000 		.4byte	.LFB156
 20233 0034 2C000000 		.4byte	.LFE156-.LFB156
 20234 0038 00000000 		.4byte	.LFB157
 20235 003c 34000000 		.4byte	.LFE157-.LFB157
 20236 0040 00000000 		.4byte	.LFB159
 20237 0044 40000000 		.4byte	.LFE159-.LFB159
 20238 0048 00000000 		.4byte	.LFB161
 20239 004c 3C000000 		.4byte	.LFE161-.LFB161
 20240 0050 00000000 		.4byte	.LFB169
 20241 0054 2C000000 		.4byte	.LFE169-.LFB169
 20242 0058 00000000 		.4byte	.LFB170
 20243 005c 2C000000 		.4byte	.LFE170-.LFB170
 20244 0060 00000000 		.4byte	.LFB172
 20245 0064 38000000 		.4byte	.LFE172-.LFB172
ARM GAS  C:\Users\Moi\AppData\Local\Temp\cchaECY7.s 			page 369


 20246 0068 00000000 		.4byte	.LFB259
 20247 006c 44000000 		.4byte	.LFE259-.LFB259
 20248 0070 00000000 		.4byte	.LFB260
 20249 0074 54000000 		.4byte	.LFE260-.LFB260
 20250 0078 00000000 		.4byte	.LFB261
 20251 007c 48000000 		.4byte	.LFE261-.LFB261
 20252 0080 00000000 		.4byte	.LFB262
 20253 0084 C4000000 		.4byte	.LFE262-.LFB262
 20254 0088 00000000 		.4byte	.LFB263
 20255 008c 44000000 		.4byte	.LFE263-.LFB263
 20256 0090 00000000 		.4byte	.LFB264
 20257 0094 E8000000 		.4byte	.LFE264-.LFB264
 20258 0098 00000000 		.4byte	.LFB265
 20259 009c 94000000 		.4byte	.LFE265-.LFB265
 20260 00a0 00000000 		.4byte	.LFB266
 20261 00a4 88000000 		.4byte	.LFE266-.LFB266
 20262 00a8 00000000 		.4byte	.LFB267
 20263 00ac B0000000 		.4byte	.LFE267-.LFB267
 20264 00b0 00000000 		.4byte	.LFB268
 20265 00b4 2C010000 		.4byte	.LFE268-.LFB268
 20266 00b8 00000000 		.4byte	.LFB269
 20267 00bc 48000000 		.4byte	.LFE269-.LFB269
 20268 00c0 00000000 		.4byte	.LFB270
 20269 00c4 30000000 		.4byte	.LFE270-.LFB270
 20270 00c8 00000000 		.4byte	.LFB271
 20271 00cc 50000000 		.4byte	.LFE271-.LFB271
 20272 00d0 00000000 		.4byte	.LFB272
 20273 00d4 0C010000 		.4byte	.LFE272-.LFB272
 20274 00d8 00000000 		.4byte	.LFB273
 20275 00dc 30000000 		.4byte	.LFE273-.LFB273
 20276 00e0 00000000 		.4byte	.LFB274
 20277 00e4 7C000000 		.4byte	.LFE274-.LFB274
 20278 00e8 00000000 		.4byte	.LFB275
 20279 00ec 98000000 		.4byte	.LFE275-.LFB275
 20280 00f0 00000000 		.4byte	.LFB276
 20281 00f4 74000000 		.4byte	.LFE276-.LFB276
 20282 00f8 00000000 		.4byte	.LFB277
 20283 00fc 50000000 		.4byte	.LFE277-.LFB277
 20284 0100 00000000 		.4byte	.LFB278
 20285 0104 18010000 		.4byte	.LFE278-.LFB278
 20286 0108 00000000 		.4byte	.LFB279
 20287 010c FC000000 		.4byte	.LFE279-.LFB279
 20288 0110 00000000 		.4byte	.LFB280
 20289 0114 48000000 		.4byte	.LFE280-.LFB280
 20290 0118 00000000 		.4byte	.LFB281
 20291 011c 7C010000 		.4byte	.LFE281-.LFB281
 20292 0120 00000000 		.4byte	.LFB282
 20293 0124 64000000 		.4byte	.LFE282-.LFB282
 20294 0128 00000000 		.4byte	.LFB283
 20295 012c 3C010000 		.4byte	.LFE283-.LFB283
 20296 0130 00000000 		.4byte	.LFB284
 20297 0134 34000000 		.4byte	.LFE284-.LFB284
 20298 0138 00000000 		.4byte	.LFB285
 20299 013c 78000000 		.4byte	.LFE285-.LFB285
 20300 0140 00000000 		.4byte	.LFB286
 20301 0144 64000000 		.4byte	.LFE286-.LFB286
 20302 0148 00000000 		.4byte	.LFB287
ARM GAS  C:\Users\Moi\AppData\Local\Temp\cchaECY7.s 			page 370


 20303 014c 88000000 		.4byte	.LFE287-.LFB287
 20304 0150 00000000 		.4byte	.LFB288
 20305 0154 88000000 		.4byte	.LFE288-.LFB288
 20306 0158 00000000 		.4byte	.LFB289
 20307 015c 44010000 		.4byte	.LFE289-.LFB289
 20308 0160 00000000 		.4byte	.LFB290
 20309 0164 08010000 		.4byte	.LFE290-.LFB290
 20310 0168 00000000 		.4byte	.LFB291
 20311 016c A0000000 		.4byte	.LFE291-.LFB291
 20312 0170 00000000 		.4byte	.LFB292
 20313 0174 B4000000 		.4byte	.LFE292-.LFB292
 20314 0178 00000000 		.4byte	.LFB293
 20315 017c 88000000 		.4byte	.LFE293-.LFB293
 20316 0180 00000000 		.4byte	.LFB294
 20317 0184 88000000 		.4byte	.LFE294-.LFB294
 20318 0188 00000000 		.4byte	.LFB295
 20319 018c A0000000 		.4byte	.LFE295-.LFB295
 20320 0190 00000000 		.4byte	.LFB296
 20321 0194 94000000 		.4byte	.LFE296-.LFB296
 20322 0198 00000000 		.4byte	.LFB297
 20323 019c 3C000000 		.4byte	.LFE297-.LFB297
 20324 01a0 00000000 		.4byte	.LFB298
 20325 01a4 30000000 		.4byte	.LFE298-.LFB298
 20326 01a8 00000000 		.4byte	.LFB299
 20327 01ac D0000000 		.4byte	.LFE299-.LFB299
 20328 01b0 00000000 		.4byte	.LFB300
 20329 01b4 AC000000 		.4byte	.LFE300-.LFB300
 20330 01b8 00000000 		.4byte	.LFB301
 20331 01bc A0000000 		.4byte	.LFE301-.LFB301
 20332 01c0 00000000 		.4byte	.LFB302
 20333 01c4 40000000 		.4byte	.LFE302-.LFB302
 20334 01c8 00000000 		.4byte	.LFB303
 20335 01cc 58000000 		.4byte	.LFE303-.LFB303
 20336 01d0 00000000 		.4byte	.LFB304
 20337 01d4 30000000 		.4byte	.LFE304-.LFB304
 20338 01d8 00000000 		.4byte	.LFB305
 20339 01dc 68000000 		.4byte	.LFE305-.LFB305
 20340 01e0 00000000 		.4byte	.LFB306
 20341 01e4 98000000 		.4byte	.LFE306-.LFB306
 20342 01e8 00000000 		.4byte	.LFB307
 20343 01ec 04060000 		.4byte	.LFE307-.LFB307
 20344 01f0 00000000 		.4byte	.LFB308
 20345 01f4 64000000 		.4byte	.LFE308-.LFB308
 20346 01f8 00000000 		.4byte	.LFB309
 20347 01fc 40000000 		.4byte	.LFE309-.LFB309
 20348 0200 00000000 		.4byte	0
 20349 0204 00000000 		.4byte	0
 20350              		.section	.debug_ranges,"",%progbits
 20351              	.Ldebug_ranges0:
 20352 0000 00000000 		.4byte	.LFB119
 20353 0004 30000000 		.4byte	.LFE119
 20354 0008 00000000 		.4byte	.LFB120
 20355 000c 30000000 		.4byte	.LFE120
 20356 0010 00000000 		.4byte	.LFB148
 20357 0014 30000000 		.4byte	.LFE148
 20358 0018 00000000 		.4byte	.LFB149
 20359 001c 58000000 		.4byte	.LFE149
ARM GAS  C:\Users\Moi\AppData\Local\Temp\cchaECY7.s 			page 371


 20360 0020 00000000 		.4byte	.LFB156
 20361 0024 2C000000 		.4byte	.LFE156
 20362 0028 00000000 		.4byte	.LFB157
 20363 002c 34000000 		.4byte	.LFE157
 20364 0030 00000000 		.4byte	.LFB159
 20365 0034 40000000 		.4byte	.LFE159
 20366 0038 00000000 		.4byte	.LFB161
 20367 003c 3C000000 		.4byte	.LFE161
 20368 0040 00000000 		.4byte	.LFB169
 20369 0044 2C000000 		.4byte	.LFE169
 20370 0048 00000000 		.4byte	.LFB170
 20371 004c 2C000000 		.4byte	.LFE170
 20372 0050 00000000 		.4byte	.LFB172
 20373 0054 38000000 		.4byte	.LFE172
 20374 0058 00000000 		.4byte	.LFB259
 20375 005c 44000000 		.4byte	.LFE259
 20376 0060 00000000 		.4byte	.LFB260
 20377 0064 54000000 		.4byte	.LFE260
 20378 0068 00000000 		.4byte	.LFB261
 20379 006c 48000000 		.4byte	.LFE261
 20380 0070 00000000 		.4byte	.LFB262
 20381 0074 C4000000 		.4byte	.LFE262
 20382 0078 00000000 		.4byte	.LFB263
 20383 007c 44000000 		.4byte	.LFE263
 20384 0080 00000000 		.4byte	.LFB264
 20385 0084 E8000000 		.4byte	.LFE264
 20386 0088 00000000 		.4byte	.LFB265
 20387 008c 94000000 		.4byte	.LFE265
 20388 0090 00000000 		.4byte	.LFB266
 20389 0094 88000000 		.4byte	.LFE266
 20390 0098 00000000 		.4byte	.LFB267
 20391 009c B0000000 		.4byte	.LFE267
 20392 00a0 00000000 		.4byte	.LFB268
 20393 00a4 2C010000 		.4byte	.LFE268
 20394 00a8 00000000 		.4byte	.LFB269
 20395 00ac 48000000 		.4byte	.LFE269
 20396 00b0 00000000 		.4byte	.LFB270
 20397 00b4 30000000 		.4byte	.LFE270
 20398 00b8 00000000 		.4byte	.LFB271
 20399 00bc 50000000 		.4byte	.LFE271
 20400 00c0 00000000 		.4byte	.LFB272
 20401 00c4 0C010000 		.4byte	.LFE272
 20402 00c8 00000000 		.4byte	.LFB273
 20403 00cc 30000000 		.4byte	.LFE273
 20404 00d0 00000000 		.4byte	.LFB274
 20405 00d4 7C000000 		.4byte	.LFE274
 20406 00d8 00000000 		.4byte	.LFB275
 20407 00dc 98000000 		.4byte	.LFE275
 20408 00e0 00000000 		.4byte	.LFB276
 20409 00e4 74000000 		.4byte	.LFE276
 20410 00e8 00000000 		.4byte	.LFB277
 20411 00ec 50000000 		.4byte	.LFE277
 20412 00f0 00000000 		.4byte	.LFB278
 20413 00f4 18010000 		.4byte	.LFE278
 20414 00f8 00000000 		.4byte	.LFB279
 20415 00fc FC000000 		.4byte	.LFE279
 20416 0100 00000000 		.4byte	.LFB280
ARM GAS  C:\Users\Moi\AppData\Local\Temp\cchaECY7.s 			page 372


 20417 0104 48000000 		.4byte	.LFE280
 20418 0108 00000000 		.4byte	.LFB281
 20419 010c 7C010000 		.4byte	.LFE281
 20420 0110 00000000 		.4byte	.LFB282
 20421 0114 64000000 		.4byte	.LFE282
 20422 0118 00000000 		.4byte	.LFB283
 20423 011c 3C010000 		.4byte	.LFE283
 20424 0120 00000000 		.4byte	.LFB284
 20425 0124 34000000 		.4byte	.LFE284
 20426 0128 00000000 		.4byte	.LFB285
 20427 012c 78000000 		.4byte	.LFE285
 20428 0130 00000000 		.4byte	.LFB286
 20429 0134 64000000 		.4byte	.LFE286
 20430 0138 00000000 		.4byte	.LFB287
 20431 013c 88000000 		.4byte	.LFE287
 20432 0140 00000000 		.4byte	.LFB288
 20433 0144 88000000 		.4byte	.LFE288
 20434 0148 00000000 		.4byte	.LFB289
 20435 014c 44010000 		.4byte	.LFE289
 20436 0150 00000000 		.4byte	.LFB290
 20437 0154 08010000 		.4byte	.LFE290
 20438 0158 00000000 		.4byte	.LFB291
 20439 015c A0000000 		.4byte	.LFE291
 20440 0160 00000000 		.4byte	.LFB292
 20441 0164 B4000000 		.4byte	.LFE292
 20442 0168 00000000 		.4byte	.LFB293
 20443 016c 88000000 		.4byte	.LFE293
 20444 0170 00000000 		.4byte	.LFB294
 20445 0174 88000000 		.4byte	.LFE294
 20446 0178 00000000 		.4byte	.LFB295
 20447 017c A0000000 		.4byte	.LFE295
 20448 0180 00000000 		.4byte	.LFB296
 20449 0184 94000000 		.4byte	.LFE296
 20450 0188 00000000 		.4byte	.LFB297
 20451 018c 3C000000 		.4byte	.LFE297
 20452 0190 00000000 		.4byte	.LFB298
 20453 0194 30000000 		.4byte	.LFE298
 20454 0198 00000000 		.4byte	.LFB299
 20455 019c D0000000 		.4byte	.LFE299
 20456 01a0 00000000 		.4byte	.LFB300
 20457 01a4 AC000000 		.4byte	.LFE300
 20458 01a8 00000000 		.4byte	.LFB301
 20459 01ac A0000000 		.4byte	.LFE301
 20460 01b0 00000000 		.4byte	.LFB302
 20461 01b4 40000000 		.4byte	.LFE302
 20462 01b8 00000000 		.4byte	.LFB303
 20463 01bc 58000000 		.4byte	.LFE303
 20464 01c0 00000000 		.4byte	.LFB304
 20465 01c4 30000000 		.4byte	.LFE304
 20466 01c8 00000000 		.4byte	.LFB305
 20467 01cc 68000000 		.4byte	.LFE305
 20468 01d0 00000000 		.4byte	.LFB306
 20469 01d4 98000000 		.4byte	.LFE306
 20470 01d8 00000000 		.4byte	.LFB307
 20471 01dc 04060000 		.4byte	.LFE307
 20472 01e0 00000000 		.4byte	.LFB308
 20473 01e4 64000000 		.4byte	.LFE308
ARM GAS  C:\Users\Moi\AppData\Local\Temp\cchaECY7.s 			page 373


 20474 01e8 00000000 		.4byte	.LFB309
 20475 01ec 40000000 		.4byte	.LFE309
 20476 01f0 00000000 		.4byte	0
 20477 01f4 00000000 		.4byte	0
 20478              		.section	.debug_line,"",%progbits
 20479              	.Ldebug_line0:
 20480 0000 40110000 		.section	.debug_str,"MS",%progbits,1
 20480      02000D09 
 20480      00000201 
 20480      FB0E0D00 
 20480      01010101 
 20481              	.LASF704:
 20482 0000 5553425F 		.ascii	"USB_STOP\000"
 20482      53544F50 
 20482      00
 20483              	.LASF317:
 20484 0009 706F7274 		.ascii	"port_intctx\000"
 20484      5F696E74 
 20484      63747800 
 20485              	.LASF326:
 20486 0015 63685F74 		.ascii	"ch_trace_buffer_t\000"
 20486      72616365 
 20486      5F627566 
 20486      6665725F 
 20486      7400
 20487              	.LASF358:
 20488 0027 63685F70 		.ascii	"ch_ptrsize\000"
 20488      74727369 
 20488      7A6500
 20489              	.LASF943:
 20490 0032 6D657373 		.ascii	"messagebus_watcher_s\000"
 20490      61676562 
 20490      75735F77 
 20490      61746368 
 20490      65725F73 
 20491              	.LASF1084:
 20492 0047 636D645F 		.ascii	"cmd_melody_play\000"
 20492      6D656C6F 
 20492      64795F70 
 20492      6C617900 
 20493              	.LASF1093:
 20494 0057 636D645F 		.ascii	"cmd_getlabel\000"
 20494      6765746C 
 20494      6162656C 
 20494      00
 20495              	.LASF642:
 20496 0064 6576656E 		.ascii	"event\000"
 20496      7400
 20497              	.LASF1030:
 20498 006a 64617461 		.ascii	"data_len\000"
 20498      5F6C656E 
 20498      00
 20499              	.LASF493:
 20500 0073 43414E5F 		.ascii	"CAN_STARTING\000"
 20500      53544152 
 20500      54494E47 
 20500      00
ARM GAS  C:\Users\Moi\AppData\Local\Temp\cchaECY7.s 			page 374


 20501              	.LASF1028:
 20502 0080 636D645F 		.ascii	"cmd_mic_data\000"
 20502      6D69635F 
 20502      64617461 
 20502      00
 20503              	.LASF895:
 20504 008d 44434D49 		.ascii	"DCMI_ACTIVE_ONESHOT\000"
 20504      5F414354 
 20504      4956455F 
 20504      4F4E4553 
 20504      484F5400 
 20505              	.LASF154:
 20506 00a1 6D73675F 		.ascii	"msg_t\000"
 20506      7400
 20507              	.LASF438:
 20508 00a7 61667268 		.ascii	"afrh\000"
 20508      00
 20509              	.LASF585:
 20510 00ac 4F504D4F 		.ascii	"OPMODE_SMBUS_DEVICE\000"
 20510      44455F53 
 20510      4D425553 
 20510      5F444556 
 20510      49434500 
 20511              	.LASF337:
 20512 00c0 6D5F6372 		.ascii	"m_crit_isr\000"
 20512      69745F69 
 20512      737200
 20513              	.LASF1068:
 20514 00cb 76616C75 		.ascii	"value_i\000"
 20514      655F6900 
 20515              	.LASF999:
 20516 00d3 46525F54 		.ascii	"FR_TOO_MANY_OPEN_FILES\000"
 20516      4F4F5F4D 
 20516      414E595F 
 20516      4F50454E 
 20516      5F46494C 
 20517              	.LASF964:
 20518 00ea 66726565 		.ascii	"free_clust\000"
 20518      5F636C75 
 20518      737400
 20519              	.LASF656:
 20520 00f5 73646366 		.ascii	"sdcflags_t\000"
 20520      6C616773 
 20520      5F7400
 20521              	.LASF929:
 20522 0100 76656374 		.ascii	"vect\000"
 20522      00
 20523              	.LASF763:
 20524 0105 44494550 		.ascii	"DIEPTXF0\000"
 20524      54584630 
 20524      00
 20525              	.LASF133:
 20526 010e 5F5F6664 		.ascii	"__fdlibm_xopen\000"
 20526      6C69626D 
 20526      5F786F70 
 20526      656E00
 20527              	.LASF492:
ARM GAS  C:\Users\Moi\AppData\Local\Temp\cchaECY7.s 			page 375


 20528 011d 43414E5F 		.ascii	"CAN_STOP\000"
 20528      53544F50 
 20528      00
 20529              	.LASF974:
 20530 0126 66707472 		.ascii	"fptr\000"
 20530      00
 20531              	.LASF371:
 20532 012b 63665F6F 		.ascii	"cf_off_time\000"
 20532      66665F74 
 20532      696D6500 
 20533              	.LASF213:
 20534 0137 63685F73 		.ascii	"ch_system_t\000"
 20534      79737465 
 20534      6D5F7400 
 20535              	.LASF6:
 20536 0143 5F5F7569 		.ascii	"__uint8_t\000"
 20536      6E74385F 
 20536      7400
 20537              	.LASF1119:
 20538 014d 2E2E2F2F 		.ascii	"..//src/cmd.c\000"
 20538      7372632F 
 20538      636D642E 
 20538      6300
 20539              	.LASF343:
 20540 015b 77747365 		.ascii	"wtsemp\000"
 20540      6D7000
 20541              	.LASF1005:
 20542 0162 4D4C5F53 		.ascii	"ML_SIMPLE_PLAY\000"
 20542      494D504C 
 20542      455F504C 
 20542      415900
 20543              	.LASF422:
 20544 0171 5F426F6F 		.ascii	"_Bool\000"
 20544      6C00
 20545              	.LASF534:
 20546 0177 64617461 		.ascii	"datamode\000"
 20546      6D6F6465 
 20546      00
 20547              	.LASF601:
 20548 0180 646D6172 		.ascii	"dmarx\000"
 20548      7800
 20549              	.LASF880:
 20550 0186 464F524D 		.ascii	"FORMAT_RGB444_BYTE_SWAP\000"
 20550      41545F52 
 20550      47423434 
 20550      345F4259 
 20550      54455F53 
 20551              	.LASF71:
 20552 019e 5F6D6273 		.ascii	"_mbstate\000"
 20552      74617465 
 20552      00
 20553              	.LASF995:
 20554 01a7 46525F4D 		.ascii	"FR_MKFS_ABORTED\000"
 20554      4B46535F 
 20554      41424F52 
 20554      54454400 
 20555              	.LASF50:
ARM GAS  C:\Users\Moi\AppData\Local\Temp\cchaECY7.s 			page 376


 20556 01b7 5F617465 		.ascii	"_atexit\000"
 20556      78697400 
 20557              	.LASF913:
 20558 01bf 6368616E 		.ascii	"changed_cnt\000"
 20558      6765645F 
 20558      636E7400 
 20559              	.LASF910:
 20560 01cb 7375626F 		.ascii	"suboptarg\000"
 20560      70746172 
 20560      6700
 20561              	.LASF482:
 20562 01d5 73717231 		.ascii	"sqr1\000"
 20562      00
 20563              	.LASF941:
 20564 01da 7075626C 		.ascii	"published\000"
 20564      69736865 
 20564      6400
 20565              	.LASF409:
 20566 01e4 424C4B5F 		.ascii	"BLK_UNINIT\000"
 20566      554E494E 
 20566      495400
 20567              	.LASF613:
 20568 01ef 72785F62 		.ascii	"rx_buffer\000"
 20568      75666665 
 20568      7200
 20569              	.LASF597:
 20570 01f9 6572726F 		.ascii	"errors\000"
 20570      727300
 20571              	.LASF330:
 20572 0200 776F7273 		.ascii	"worst\000"
 20572      7400
 20573              	.LASF206:
 20574 0206 76745F73 		.ascii	"vt_systime\000"
 20574      79737469 
 20574      6D6500
 20575              	.LASF272:
 20576 0211 444F5231 		.ascii	"DOR1\000"
 20576      00
 20577              	.LASF273:
 20578 0216 444F5232 		.ascii	"DOR2\000"
 20578      00
 20579              	.LASF612:
 20580 021b 74785F62 		.ascii	"tx_buffer\000"
 20580      75666665 
 20580      7200
 20581              	.LASF969:
 20582 0225 64697262 		.ascii	"dirbase\000"
 20582      61736500 
 20583              	.LASF40:
 20584 022d 5F5F746D 		.ascii	"__tm_mon\000"
 20584      5F6D6F6E 
 20584      00
 20585              	.LASF48:
 20586 0236 5F666E74 		.ascii	"_fntypes\000"
 20586      79706573 
 20586      00
 20587              	.LASF352:
ARM GAS  C:\Users\Moi\AppData\Local\Temp\cchaECY7.s 			page 377


 20588 023f 6D5F6E65 		.ascii	"m_next\000"
 20588      787400
 20589              	.LASF442:
 20590 0246 50434461 		.ascii	"PCData\000"
 20590      746100
 20591              	.LASF1100:
 20592 024d 636C7573 		.ascii	"clusters\000"
 20592      74657273 
 20592      00
 20593              	.LASF1078:
 20594 0256 636D645F 		.ascii	"cmd_readclock\000"
 20594      72656164 
 20594      636C6F63 
 20594      6B00
 20595              	.LASF78:
 20596 0264 5F696E63 		.ascii	"_inc\000"
 20596      00
 20597              	.LASF51:
 20598 0269 5F696E64 		.ascii	"_ind\000"
 20598      00
 20599              	.LASF302:
 20600 026e 4D41534B 		.ascii	"MASK\000"
 20600      00
 20601              	.LASF467:
 20602 0273 73616D70 		.ascii	"samples\000"
 20602      6C657300 
 20603              	.LASF767:
 20604 027b 47434346 		.ascii	"GCCFG\000"
 20604      4700
 20605              	.LASF860:
 20606 0281 73635F63 		.ascii	"sc_channel\000"
 20606      68616E6E 
 20606      656C00
 20607              	.LASF563:
 20608 028c 42445452 		.ascii	"BDTR\000"
 20608      00
 20609              	.LASF516:
 20610 0291 7265676D 		.ascii	"regmask\000"
 20610      61736B00 
 20611              	.LASF595:
 20612 0299 49324343 		.ascii	"I2CConfig\000"
 20612      6F6E6669 
 20612      6700
 20613              	.LASF143:
 20614 02a3 75696E74 		.ascii	"uint16_t\000"
 20614      31365F74 
 20614      00
 20615              	.LASF602:
 20616 02ac 646D6174 		.ascii	"dmatx\000"
 20616      7800
 20617              	.LASF837:
 20618 02b2 736F665F 		.ascii	"sof_cb\000"
 20618      636200
 20619              	.LASF977:
 20620 02b9 64736563 		.ascii	"dsect\000"
 20620      7400
 20621              	.LASF539:
ARM GAS  C:\Users\Moi\AppData\Local\Temp\cchaECY7.s 			page 378


 20622 02bf 4558545F 		.ascii	"EXT_ACTIVE\000"
 20622      41435449 
 20622      564500
 20623              	.LASF57:
 20624 02ca 5F666C61 		.ascii	"_flags\000"
 20624      677300
 20625              	.LASF916:
 20626 02d1 6E657874 		.ascii	"next\000"
 20626      00
 20627              	.LASF435:
 20628 02d6 6F737065 		.ascii	"ospeedr\000"
 20628      65647200 
 20629              	.LASF770:
 20630 02de 44494550 		.ascii	"DIEPTXF\000"
 20630      54584600 
 20631              	.LASF377:
 20632 02e6 656C5F6E 		.ascii	"el_next\000"
 20632      65787400 
 20633              	.LASF462:
 20634 02ee 4144435F 		.ascii	"ADC_ERR_OVERFLOW\000"
 20634      4552525F 
 20634      4F564552 
 20634      464C4F57 
 20634      00
 20635              	.LASF844:
 20636 02ff 53657269 		.ascii	"SerialUSBDriver\000"
 20636      616C5553 
 20636      42447269 
 20636      76657200 
 20637              	.LASF88:
 20638 030f 5F637674 		.ascii	"_cvtlen\000"
 20638      6C656E00 
 20639              	.LASF1000:
 20640 0317 46525F49 		.ascii	"FR_INVALID_PARAMETER\000"
 20640      4E56414C 
 20640      49445F50 
 20640      4152414D 
 20640      45544552 
 20641              	.LASF211:
 20642 032c 6C6F636B 		.ascii	"lock_cnt\000"
 20642      5F636E74 
 20642      00
 20643              	.LASF187:
 20644 0335 63685F74 		.ascii	"ch_threads_queue\000"
 20644      68726561 
 20644      64735F71 
 20644      75657565 
 20644      00
 20645              	.LASF132:
 20646 0346 5F5F6664 		.ascii	"__fdlibm_svid\000"
 20646      6C69626D 
 20646      5F737669 
 20646      6400
 20647              	.LASF92:
 20648 0354 5F736967 		.ascii	"_sig_func\000"
 20648      5F66756E 
 20648      6300
ARM GAS  C:\Users\Moi\AppData\Local\Temp\cchaECY7.s 			page 379


 20649              	.LASF867:
 20650 035e 464F524D 		.ascii	"FORMAT_CBYCRY\000"
 20650      41545F43 
 20650      42594352 
 20650      5900
 20651              	.LASF166:
 20652 036c 705F6E65 		.ascii	"p_newer\000"
 20652      77657200 
 20653              	.LASF780:
 20654 0374 48505254 		.ascii	"HPRT\000"
 20654      00
 20655              	.LASF884:
 20656 0379 53554253 		.ascii	"SUBSAMPLING_X1\000"
 20656      414D504C 
 20656      494E475F 
 20656      583100
 20657              	.LASF734:
 20658 0388 4843494E 		.ascii	"HCINT\000"
 20658      5400
 20659              	.LASF1016:
 20660 038e 66627566 		.ascii	"fbuff\000"
 20660      6600
 20661              	.LASF953:
 20662 0394 42595445 		.ascii	"BYTE\000"
 20662      00
 20663              	.LASF222:
 20664 0399 534D5052 		.ascii	"SMPR1\000"
 20664      3100
 20665              	.LASF223:
 20666 039f 534D5052 		.ascii	"SMPR2\000"
 20666      3200
 20667              	.LASF368:
 20668 03a5 63665F6F 		.ascii	"cf_off_flags\000"
 20668      66665F66 
 20668      6C616773 
 20668      00
 20669              	.LASF70:
 20670 03b2 5F6C6F63 		.ascii	"_lock\000"
 20670      6B00
 20671              	.LASF66:
 20672 03b8 5F6E6275 		.ascii	"_nbuf\000"
 20672      6600
 20673              	.LASF673:
 20674 03be 5350495F 		.ascii	"SPI_STOP\000"
 20674      53544F50 
 20674      00
 20675              	.LASF401:
 20676 03c7 42617365 		.ascii	"BaseSequentialStream\000"
 20676      53657175 
 20676      656E7469 
 20676      616C5374 
 20676      7265616D 
 20677              	.LASF124:
 20678 03dc 5F756E75 		.ascii	"_unused\000"
 20678      73656400 
 20679              	.LASF441:
 20680 03e4 50424461 		.ascii	"PBData\000"
ARM GAS  C:\Users\Moi\AppData\Local\Temp\cchaECY7.s 			page 380


 20680      746100
 20681              	.LASF356:
 20682 03eb 63685F73 		.ascii	"ch_size\000"
 20682      697A6500 
 20683              	.LASF892:
 20684 03f3 44434D49 		.ascii	"DCMI_STOP\000"
 20684      5F53544F 
 20684      5000
 20685              	.LASF776:
 20686 03fd 48505458 		.ascii	"HPTXSTS\000"
 20686      53545300 
 20687              	.LASF434:
 20688 0405 6F747970 		.ascii	"otyper\000"
 20688      657200
 20689              	.LASF1122:
 20690 040c 74657374 		.ascii	"test_buffers\000"
 20690      5F627566 
 20690      66657273 
 20690      00
 20691              	.LASF425:
 20692 0419 4F545950 		.ascii	"OTYPER\000"
 20692      455200
 20693              	.LASF518:
 20694 0420 64616370 		.ascii	"dacparams_t\000"
 20694      6172616D 
 20694      735F7400 
 20695              	.LASF1041:
 20696 042c 6C65645F 		.ascii	"led_num\000"
 20696      6E756D00 
 20697              	.LASF651:
 20698 0434 5344435F 		.ascii	"SDC_MODE_1BIT\000"
 20698      4D4F4445 
 20698      5F314249 
 20698      5400
 20699              	.LASF732:
 20700 0442 48434348 		.ascii	"HCCHAR\000"
 20700      415200
 20701              	.LASF579:
 20702 0449 4932435F 		.ascii	"I2C_ACTIVE_RX\000"
 20702      41435449 
 20702      56455F52 
 20702      5800
 20703              	.LASF160:
 20704 0457 74687265 		.ascii	"thread_t\000"
 20704      61645F74 
 20704      00
 20705              	.LASF379:
 20706 0460 656C5F65 		.ascii	"el_events\000"
 20706      76656E74 
 20706      7300
 20707              	.LASF622:
 20708 046a 70776D73 		.ascii	"pwmstate_t\000"
 20708      74617465 
 20708      5F7400
 20709              	.LASF503:
 20710 0475 736C6565 		.ascii	"sleep_event\000"
 20710      705F6576 
ARM GAS  C:\Users\Moi\AppData\Local\Temp\cchaECY7.s 			page 381


 20710      656E7400 
 20711              	.LASF205:
 20712 0481 63685F76 		.ascii	"ch_virtual_timers_list\000"
 20712      69727475 
 20712      616C5F74 
 20712      696D6572 
 20712      735F6C69 
 20713              	.LASF406:
 20714 0498 76656374 		.ascii	"vector\000"
 20714      6F7200
 20715              	.LASF758:
 20716 049f 47494E54 		.ascii	"GINTSTS\000"
 20716      53545300 
 20717              	.LASF1014:
 20718 04a7 636D645F 		.ascii	"cmd_width\000"
 20718      77696474 
 20718      6800
 20719              	.LASF144:
 20720 04b1 696E7433 		.ascii	"int32_t\000"
 20720      325F7400 
 20721              	.LASF593:
 20722 04b9 636C6F63 		.ascii	"clock_speed\000"
 20722      6B5F7370 
 20722      65656400 
 20723              	.LASF159:
 20724 04c5 73797374 		.ascii	"systime_t\000"
 20724      696D655F 
 20724      7400
 20725              	.LASF536:
 20726 04cf 44414344 		.ascii	"DACD2\000"
 20726      3200
 20727              	.LASF505:
 20728 04d5 43414E44 		.ascii	"CANDriver\000"
 20728      72697665 
 20728      7200
 20729              	.LASF102:
 20730 04df 5F616464 		.ascii	"_add\000"
 20730      00
 20731              	.LASF283:
 20732 04e4 4D304152 		.ascii	"M0AR\000"
 20732      00
 20733              	.LASF739:
 20734 04e9 72657376 		.ascii	"resvd1c\000"
 20734      64316300 
 20735              	.LASF956:
 20736 04f1 44574F52 		.ascii	"DWORD\000"
 20736      4400
 20737              	.LASF583:
 20738 04f7 69326366 		.ascii	"i2cflags_t\000"
 20738      6C616773 
 20738      5F7400
 20739              	.LASF777:
 20740 0502 4841494E 		.ascii	"HAINT\000"
 20740      5400
 20741              	.LASF258:
 20742 0508 46413152 		.ascii	"FA1R\000"
 20742      00
ARM GAS  C:\Users\Moi\AppData\Local\Temp\cchaECY7.s 			page 382


 20743              	.LASF1074:
 20744 050d 636D645F 		.ascii	"cmd_atan2\000"
 20744      6174616E 
 20744      3200
 20745              	.LASF281:
 20746 0517 44434D49 		.ascii	"DCMI_TypeDef\000"
 20746      5F547970 
 20746      65446566 
 20746      00
 20747              	.LASF900:
 20748 0524 44434D49 		.ascii	"DCMIDriver\000"
 20748      44726976 
 20748      657200
 20749              	.LASF1004:
 20750 052f 53465F46 		.ascii	"SF_FORCE_CHANGE\000"
 20750      4F524345 
 20750      5F434841 
 20750      4E474500 
 20751              	.LASF774:
 20752 053f 48464E55 		.ascii	"HFNUM\000"
 20752      4D00
 20753              	.LASF1096:
 20754 0545 636D645F 		.ascii	"cmd_hello\000"
 20754      68656C6C 
 20754      6F00
 20755              	.LASF914:
 20756 054f 70617265 		.ascii	"parent\000"
 20756      6E7400
 20757              	.LASF395:
 20758 0556 716E6F74 		.ascii	"qnotify_t\000"
 20758      6966795F 
 20758      7400
 20759              	.LASF458:
 20760 0560 61646373 		.ascii	"adcstate_t\000"
 20760      74617465 
 20760      5F7400
 20761              	.LASF950:
 20762 056b 7075626C 		.ascii	"published_topic\000"
 20762      69736865 
 20762      645F746F 
 20762      70696300 
 20763              	.LASF907:
 20764 057b 44434D49 		.ascii	"DCMID\000"
 20764      4400
 20765              	.LASF659:
 20766 0581 63617264 		.ascii	"cardmode\000"
 20766      6D6F6465 
 20766      00
 20767              	.LASF404:
 20768 058a 69736869 		.ascii	"ishift\000"
 20768      667400
 20769              	.LASF1042:
 20770 0591 6C65645F 		.ascii	"led_value\000"
 20770      76616C75 
 20770      6500
 20771              	.LASF553:
 20772 059b 4750545F 		.ascii	"GPT_ONESHOT\000"
ARM GAS  C:\Users\Moi\AppData\Local\Temp\cchaECY7.s 			page 383


 20772      4F4E4553 
 20772      484F5400 
 20773              	.LASF390:
 20774 05a7 715F746F 		.ascii	"q_top\000"
 20774      7000
 20775              	.LASF59:
 20776 05ad 5F6C6266 		.ascii	"_lbfsize\000"
 20776      73697A65 
 20776      00
 20777              	.LASF725:
 20778 05b6 75645F73 		.ascii	"ud_string\000"
 20778      7472696E 
 20778      6700
 20779              	.LASF596:
 20780 05c0 49324344 		.ascii	"I2CDriver\000"
 20780      72697665 
 20780      7200
 20781              	.LASF937:
 20782 05ca 62756666 		.ascii	"buffer_len\000"
 20782      65725F6C 
 20782      656E00
 20783              	.LASF578:
 20784 05d5 4932435F 		.ascii	"I2C_ACTIVE_TX\000"
 20784      41435449 
 20784      56455F54 
 20784      5800
 20785              	.LASF1067:
 20786 05e3 70617261 		.ascii	"param\000"
 20786      6D00
 20787              	.LASF400:
 20788 05e9 72656164 		.ascii	"read\000"
 20788      00
 20789              	.LASF584:
 20790 05ee 4F504D4F 		.ascii	"OPMODE_I2C\000"
 20790      44455F49 
 20790      324300
 20791              	.LASF786:
 20792 05f9 72657376 		.ascii	"resvd80C\000"
 20792      64383043 
 20792      00
 20793              	.LASF834:
 20794 0602 6576656E 		.ascii	"event_cb\000"
 20794      745F6362 
 20794      00
 20795              	.LASF753:
 20796 060b 474F5447 		.ascii	"GOTGCTL\000"
 20796      43544C00 
 20797              	.LASF847:
 20798 0613 62756C6B 		.ascii	"bulk_out\000"
 20798      5F6F7574 
 20798      00
 20799              	.LASF728:
 20800 061c 75736265 		.ascii	"usbepcallback_t\000"
 20800      7063616C 
 20800      6C626163 
 20800      6B5F7400 
 20801              	.LASF69:
ARM GAS  C:\Users\Moi\AppData\Local\Temp\cchaECY7.s 			page 384


 20802 062c 5F646174 		.ascii	"_data\000"
 20802      6100
 20803              	.LASF216:
 20804 0632 76746C69 		.ascii	"vtlist\000"
 20804      737400
 20805              	.LASF991:
 20806 0639 46525F57 		.ascii	"FR_WRITE_PROTECTED\000"
 20806      52495445 
 20806      5F50524F 
 20806      54454354 
 20806      454400
 20807              	.LASF288:
 20808 064c 54524953 		.ascii	"TRISE\000"
 20808      4500
 20809              	.LASF792:
 20810 0652 72657376 		.ascii	"resvd824\000"
 20810      64383234 
 20810      00
 20811              	.LASF175:
 20812 065b 705F7761 		.ascii	"p_waiting\000"
 20812      6974696E 
 20812      6700
 20813              	.LASF338:
 20814 0665 6B65726E 		.ascii	"kernel_stats_t\000"
 20814      656C5F73 
 20814      74617473 
 20814      5F7400
 20815              	.LASF387:
 20816 0674 715F7761 		.ascii	"q_waiting\000"
 20816      6974696E 
 20816      6700
 20817              	.LASF240:
 20818 067e 43414E5F 		.ascii	"CAN_TxMailBox_TypeDef\000"
 20818      54784D61 
 20818      696C426F 
 20818      785F5479 
 20818      70654465 
 20819              	.LASF215:
 20820 0694 726C6973 		.ascii	"rlist\000"
 20820      7400
 20821              	.LASF184:
 20822 069a 74687265 		.ascii	"threads_list_t\000"
 20822      6164735F 
 20822      6C697374 
 20822      5F7400
 20823              	.LASF328:
 20824 06a9 746D5F63 		.ascii	"tm_calibration_t\000"
 20824      616C6962 
 20824      72617469 
 20824      6F6E5F74 
 20824      00
 20825              	.LASF396:
 20826 06ba 696E7075 		.ascii	"input_queue_t\000"
 20826      745F7175 
 20826      6575655F 
 20826      7400
 20827              	.LASF485:
ARM GAS  C:\Users\Moi\AppData\Local\Temp\cchaECY7.s 			page 385


 20828 06c8 41444343 		.ascii	"ADCConversionGroup\000"
 20828      6F6E7665 
 20828      7273696F 
 20828      6E47726F 
 20828      757000
 20829              	.LASF785:
 20830 06db 44535453 		.ascii	"DSTS\000"
 20830      00
 20831              	.LASF125:
 20832 06e0 5F5F6C6F 		.ascii	"__lock\000"
 20832      636B00
 20833              	.LASF588:
 20834 06e7 5354445F 		.ascii	"STD_DUTY_CYCLE\000"
 20834      44555459 
 20834      5F435943 
 20834      4C4500
 20835              	.LASF73:
 20836 06f6 5F726565 		.ascii	"_reent\000"
 20836      6E7400
 20837              	.LASF364:
 20838 06fd 63665F6F 		.ascii	"cf_off_older\000"
 20838      66665F6F 
 20838      6C646572 
 20838      00
 20839              	.LASF148:
 20840 070a 72747469 		.ascii	"rttime_t\000"
 20840      6D655F74 
 20840      00
 20841              	.LASF548:
 20842 0713 45585444 		.ascii	"EXTD1\000"
 20842      3100
 20843              	.LASF819:
 20844 0719 72787175 		.ascii	"rxqueued\000"
 20844      65756564 
 20844      00
 20845              	.LASF496:
 20846 0722 63616E73 		.ascii	"canstate_t\000"
 20846      74617465 
 20846      5F7400
 20847              	.LASF260:
 20848 072d 7346696C 		.ascii	"sFilterRegister\000"
 20848      74657252 
 20848      65676973 
 20848      74657200 
 20849              	.LASF94:
 20850 073d 5F5F7366 		.ascii	"__sf\000"
 20850      00
 20851              	.LASF791:
 20852 0742 72657376 		.ascii	"resvd820\000"
 20852      64383230 
 20852      00
 20853              	.LASF54:
 20854 074b 5F626173 		.ascii	"_base\000"
 20854      6500
 20855              	.LASF294:
 20856 0751 52455350 		.ascii	"RESP1\000"
 20856      3100
ARM GAS  C:\Users\Moi\AppData\Local\Temp\cchaECY7.s 			page 386


 20857              	.LASF295:
 20858 0757 52455350 		.ascii	"RESP2\000"
 20858      3200
 20859              	.LASF296:
 20860 075d 52455350 		.ascii	"RESP3\000"
 20860      3300
 20861              	.LASF297:
 20862 0763 52455350 		.ascii	"RESP4\000"
 20862      3400
 20863              	.LASF111:
 20864 0769 5F6D6274 		.ascii	"_mbtowc_state\000"
 20864      6F77635F 
 20864      73746174 
 20864      6500
 20865              	.LASF1051:
 20866 0777 66726163 		.ascii	"fractional\000"
 20866      74696F6E 
 20866      616C00
 20867              	.LASF1085:
 20868 0782 636D645F 		.ascii	"cmd_sound_file_volume\000"
 20868      736F756E 
 20868      645F6669 
 20868      6C655F76 
 20868      6F6C756D 
 20869              	.LASF1058:
 20870 0798 636D645F 		.ascii	"cmd_cam_set_contrast\000"
 20870      63616D5F 
 20870      7365745F 
 20870      636F6E74 
 20870      72617374 
 20871              	.LASF575:
 20872 07ad 4932435F 		.ascii	"I2C_UNINIT\000"
 20872      554E494E 
 20872      495400
 20873              	.LASF730:
 20874 07b8 75736272 		.ascii	"usbreqhandler_t\000"
 20874      65716861 
 20874      6E646C65 
 20874      725F7400 
 20875              	.LASF456:
 20876 07c8 4144435F 		.ascii	"ADC_COMPLETE\000"
 20876      434F4D50 
 20876      4C455445 
 20876      00
 20877              	.LASF572:
 20878 07d5 47505443 		.ascii	"GPTConfig\000"
 20878      6F6E6669 
 20878      6700
 20879              	.LASF637:
 20880 07df 53445F55 		.ascii	"SD_UNINIT\000"
 20880      4E494E49 
 20880      5400
 20881              	.LASF1037:
 20882 07e9 636D645F 		.ascii	"cmd_set_speed\000"
 20882      7365745F 
 20882      73706565 
 20882      6400
ARM GAS  C:\Users\Moi\AppData\Local\Temp\cchaECY7.s 			page 387


 20883              	.LASF979:
 20884 07f7 6469725F 		.ascii	"dir_ptr\000"
 20884      70747200 
 20885              	.LASF1022:
 20886 07ff 61726763 		.ascii	"argc\000"
 20886      00
 20887              	.LASF891:
 20888 0804 44434D49 		.ascii	"DCMI_UNINIT\000"
 20888      5F554E49 
 20888      4E495400 
 20889              	.LASF153:
 20890 0810 74707269 		.ascii	"tprio_t\000"
 20890      6F5F7400 
 20891              	.LASF334:
 20892 0818 6E5F6972 		.ascii	"n_irq\000"
 20892      7100
 20893              	.LASF939:
 20894 081e 636F6E64 		.ascii	"condvar\000"
 20894      76617200 
 20895              	.LASF616:
 20896 0826 69327370 		.ascii	"i2spr\000"
 20896      7200
 20897              	.LASF976:
 20898 082c 636C7573 		.ascii	"clust\000"
 20898      7400
 20899              	.LASF795:
 20900 0832 72657376 		.ascii	"resvd830\000"
 20900      64383330 
 20900      00
 20901              	.LASF35:
 20902 083b 5F5F746D 		.ascii	"__tm\000"
 20902      00
 20903              	.LASF797:
 20904 0840 72657376 		.ascii	"resvd838\000"
 20904      64383338 
 20904      00
 20905              	.LASF591:
 20906 0849 69326364 		.ascii	"i2cdutycycle_t\000"
 20906      75747963 
 20906      79636C65 
 20906      5F7400
 20907              	.LASF843:
 20908 0858 73647573 		.ascii	"sdustate_t\000"
 20908      74617465 
 20908      5F7400
 20909              	.LASF931:
 20910 0863 6F707461 		.ascii	"optarg\000"
 20910      726700
 20911              	.LASF1066:
 20912 086a 636D645F 		.ascii	"cmd_config_set\000"
 20912      636F6E66 
 20912      69675F73 
 20912      657400
 20913              	.LASF798:
 20914 0879 72657376 		.ascii	"resvd83C\000"
 20914      64383343 
 20914      00
ARM GAS  C:\Users\Moi\AppData\Local\Temp\cchaECY7.s 			page 388


 20915              	.LASF470:
 20916 0882 74687265 		.ascii	"thread\000"
 20916      616400
 20917              	.LASF515:
 20918 0889 72656773 		.ascii	"regshift\000"
 20918      68696674 
 20918      00
 20919              	.LASF693:
 20920 0892 73657475 		.ascii	"setup\000"
 20920      7000
 20921              	.LASF672:
 20922 0898 5350495F 		.ascii	"SPI_UNINIT\000"
 20922      554E494E 
 20922      495400
 20923              	.LASF746:
 20924 08a3 44545846 		.ascii	"DTXFSTS\000"
 20924      53545300 
 20925              	.LASF419:
 20926 08ab 626C6B5F 		.ascii	"blk_size\000"
 20926      73697A65 
 20926      00
 20927              	.LASF577:
 20928 08b4 4932435F 		.ascii	"I2C_READY\000"
 20928      52454144 
 20928      5900
 20929              	.LASF43:
 20930 08be 5F5F746D 		.ascii	"__tm_yday\000"
 20930      5F796461 
 20930      7900
 20931              	.LASF687:
 20932 08c8 696E5F70 		.ascii	"in_params\000"
 20932      6172616D 
 20932      7300
 20933              	.LASF562:
 20934 08d2 43434552 		.ascii	"CCER\000"
 20934      00
 20935              	.LASF310:
 20936 08d7 49325350 		.ascii	"I2SPR\000"
 20936      5200
 20937              	.LASF619:
 20938 08dd 50574D5F 		.ascii	"PWM_UNINIT\000"
 20938      554E494E 
 20938      495400
 20939              	.LASF329:
 20940 08e8 62657374 		.ascii	"best\000"
 20940      00
 20941              	.LASF922:
 20942 08ed 74797065 		.ascii	"type\000"
 20942      00
 20943              	.LASF755:
 20944 08f2 47414842 		.ascii	"GAHBCFG\000"
 20944      43464700 
 20945              	.LASF525:
 20946 08fa 64616363 		.ascii	"daccallback_t\000"
 20946      616C6C62 
 20946      61636B5F 
 20946      7400
ARM GAS  C:\Users\Moi\AppData\Local\Temp\cchaECY7.s 			page 389


 20947              	.LASF842:
 20948 0908 5344555F 		.ascii	"SDU_READY\000"
 20948      52454144 
 20948      5900
 20949              	.LASF18:
 20950 0912 5F4C4F43 		.ascii	"_LOCK_T\000"
 20950      4B5F5400 
 20951              	.LASF799:
 20952 091a 72657376 		.ascii	"resvd840\000"
 20952      64383430 
 20952      00
 20953              	.LASF306:
 20954 0923 43524350 		.ascii	"CRCPR\000"
 20954      5200
 20955              	.LASF414:
 20956 0929 424C4B5F 		.ascii	"BLK_READY\000"
 20956      52454144 
 20956      5900
 20957              	.LASF8:
 20958 0933 5F5F696E 		.ascii	"__int16_t\000"
 20958      7431365F 
 20958      7400
 20959              	.LASF10:
 20960 093d 5F5F7569 		.ascii	"__uint16_t\000"
 20960      6E743136 
 20960      5F7400
 20961              	.LASF552:
 20962 0948 4750545F 		.ascii	"GPT_CONTINUOUS\000"
 20962      434F4E54 
 20962      494E554F 
 20962      555300
 20963              	.LASF813:
 20964 0957 74787175 		.ascii	"txqueued\000"
 20964      65756564 
 20964      00
 20965              	.LASF177:
 20966 0960 705F6D73 		.ascii	"p_msg\000"
 20966      6700
 20967              	.LASF103:
 20968 0966 5F756E75 		.ascii	"_unused_rand\000"
 20968      7365645F 
 20968      72616E64 
 20968      00
 20969              	.LASF752:
 20970 0973 73746D33 		.ascii	"stm32_otg_out_ep_t\000"
 20970      325F6F74 
 20970      675F6F75 
 20970      745F6570 
 20970      5F7400
 20971              	.LASF761:
 20972 0986 47525853 		.ascii	"GRXSTSP\000"
 20972      54535000 
 20973              	.LASF760:
 20974 098e 47525853 		.ascii	"GRXSTSR\000"
 20974      54535200 
 20975              	.LASF1027:
 20976 0996 7368656C 		.ascii	"shell_spawn_thd\000"
ARM GAS  C:\Users\Moi\AppData\Local\Temp\cchaECY7.s 			page 390


 20976      6C5F7370 
 20976      61776E5F 
 20976      74686400 
 20977              	.LASF340:
 20978 09a6 65786974 		.ascii	"exitcode\000"
 20978      636F6465 
 20978      00
 20979              	.LASF284:
 20980 09af 4D314152 		.ascii	"M1AR\000"
 20980      00
 20981              	.LASF700:
 20982 09b4 77616974 		.ascii	"wait\000"
 20982      00
 20983              	.LASF285:
 20984 09b9 444D415F 		.ascii	"DMA_Stream_TypeDef\000"
 20984      53747265 
 20984      616D5F54 
 20984      79706544 
 20984      656600
 20985              	.LASF707:
 20986 09cc 5553425F 		.ascii	"USB_ACTIVE\000"
 20986      41435449 
 20986      564500
 20987              	.LASF935:
 20988 09d7 6F707472 		.ascii	"optreset\000"
 20988      65736574 
 20988      00
 20989              	.LASF748:
 20990 09e0 73746D33 		.ascii	"stm32_otg_in_ep_t\000"
 20990      325F6F74 
 20990      675F696E 
 20990      5F65705F 
 20990      7400
 20991              	.LASF853:
 20992 09f2 74687265 		.ascii	"threads\000"
 20992      61647300 
 20993              	.LASF821:
 20994 09fa 7278636E 		.ascii	"rxcnt\000"
 20994      7400
 20995              	.LASF452:
 20996 0a00 4144435F 		.ascii	"ADC_UNINIT\000"
 20996      554E494E 
 20996      495400
 20997              	.LASF599:
 20998 0a0b 7278646D 		.ascii	"rxdmamode\000"
 20998      616D6F64 
 20998      6500
 20999              	.LASF85:
 21000 0a15 5F726573 		.ascii	"_result_k\000"
 21000      756C745F 
 21000      6B00
 21001              	.LASF544:
 21002 0a1f 6D6F6465 		.ascii	"mode\000"
 21002      00
 21003              	.LASF77:
 21004 0a24 5F737464 		.ascii	"_stderr\000"
 21004      65727200 
ARM GAS  C:\Users\Moi\AppData\Local\Temp\cchaECY7.s 			page 391


 21005              	.LASF84:
 21006 0a2c 5F726573 		.ascii	"_result\000"
 21006      756C7400 
 21007              	.LASF353:
 21008 0a34 6D5F636E 		.ascii	"m_cnt\000"
 21008      7400
 21009              	.LASF994:
 21010 0a3a 46525F4E 		.ascii	"FR_NO_FILESYSTEM\000"
 21010      4F5F4649 
 21010      4C455359 
 21010      5354454D 
 21010      00
 21011              	.LASF541:
 21012 0a4b 45585444 		.ascii	"EXTDriver\000"
 21012      72697665 
 21012      7200
 21013              	.LASF47:
 21014 0a55 5F64736F 		.ascii	"_dso_handle\000"
 21014      5F68616E 
 21014      646C6500 
 21015              	.LASF611:
 21016 0a61 69327363 		.ascii	"i2scallback_t\000"
 21016      616C6C62 
 21016      61636B5F 
 21016      7400
 21017              	.LASF681:
 21018 0a6f 73737061 		.ascii	"sspad\000"
 21018      6400
 21019              	.LASF600:
 21020 0a75 7478646D 		.ascii	"txdmamode\000"
 21020      616D6F64 
 21020      6500
 21021              	.LASF136:
 21022 0a7f 5F5F676E 		.ascii	"__gnuc_va_list\000"
 21022      75635F76 
 21022      615F6C69 
 21022      737400
 21023              	.LASF927:
 21024 0a8e 6275665F 		.ascii	"buf_dim\000"
 21024      64696D00 
 21025              	.LASF568:
 21026 0a96 67707466 		.ascii	"gptfreq_t\000"
 21026      7265715F 
 21026      7400
 21027              	.LASF1020:
 21028 0aa0 7368656C 		.ascii	"shell_start\000"
 21028      6C5F7374 
 21028      61727400 
 21029              	.LASF42:
 21030 0aac 5F5F746D 		.ascii	"__tm_wday\000"
 21030      5F776461 
 21030      7900
 21031              	.LASF996:
 21032 0ab6 46525F54 		.ascii	"FR_TIMEOUT\000"
 21032      494D454F 
 21032      555400
 21033              	.LASF44:
ARM GAS  C:\Users\Moi\AppData\Local\Temp\cchaECY7.s 			page 392


 21034 0ac1 5F5F746D 		.ascii	"__tm_isdst\000"
 21034      5F697364 
 21034      737400
 21035              	.LASF864:
 21036 0acc 75736263 		.ascii	"usbcfg\000"
 21036      666700
 21037              	.LASF806:
 21038 0ad3 72785F66 		.ascii	"rx_fifo_size\000"
 21038      69666F5F 
 21038      73697A65 
 21038      00
 21039              	.LASF135:
 21040 0ae0 5F5F6664 		.ascii	"__fdlib_version\000"
 21040      6C69625F 
 21040      76657273 
 21040      696F6E00 
 21041              	.LASF930:
 21042 0af0 656E7669 		.ascii	"environ\000"
 21042      726F6E00 
 21043              	.LASF523:
 21044 0af8 4441435F 		.ascii	"DAC_ERR_UNDERFLOW\000"
 21044      4552525F 
 21044      554E4445 
 21044      52464C4F 
 21044      5700
 21045              	.LASF504:
 21046 0b0a 77616B65 		.ascii	"wakeup_event\000"
 21046      75705F65 
 21046      76656E74 
 21046      00
 21047              	.LASF1073:
 21048 0b17 74726565 		.ascii	"tree_indent\000"
 21048      5F696E64 
 21048      656E7400 
 21049              	.LASF200:
 21050 0b23 76745F70 		.ascii	"vt_prev\000"
 21050      72657600 
 21051              	.LASF478:
 21052 0b2b 656E645F 		.ascii	"end_cb\000"
 21052      636200
 21053              	.LASF824:
 21054 0b32 73657475 		.ascii	"setup_cb\000"
 21054      705F6362 
 21054      00
 21055              	.LASF7:
 21056 0b3b 756E7369 		.ascii	"unsigned char\000"
 21056      676E6564 
 21056      20636861 
 21056      7200
 21057              	.LASF76:
 21058 0b49 5F737464 		.ascii	"_stdout\000"
 21058      6F757400 
 21059              	.LASF304:
 21060 0b51 4649464F 		.ascii	"FIFO\000"
 21060      00
 21061              	.LASF325:
 21062 0b56 74625F62 		.ascii	"tb_buffer\000"
ARM GAS  C:\Users\Moi\AppData\Local\Temp\cchaECY7.s 			page 393


 21062      75666665 
 21062      7200
 21063              	.LASF498:
 21064 0b60 74787175 		.ascii	"txqueue\000"
 21064      65756500 
 21065              	.LASF275:
 21066 0b68 52495352 		.ascii	"RISR\000"
 21066      00
 21067              	.LASF348:
 21068 0b6d 735F636E 		.ascii	"s_cnt\000"
 21068      7400
 21069              	.LASF188:
 21070 0b73 72656164 		.ascii	"ready_list_t\000"
 21070      795F6C69 
 21070      73745F74 
 21070      00
 21071              	.LASF161:
 21072 0b80 63685F74 		.ascii	"ch_thread\000"
 21072      68726561 
 21072      6400
 21073              	.LASF586:
 21074 0b8a 4F504D4F 		.ascii	"OPMODE_SMBUS_HOST\000"
 21074      44455F53 
 21074      4D425553 
 21074      5F484F53 
 21074      5400
 21075              	.LASF865:
 21076 0b9c 73657275 		.ascii	"serusbcfg\000"
 21076      73626366 
 21076      6700
 21077              	.LASF118:
 21078 0ba6 5F6D6273 		.ascii	"_mbsrtowcs_state\000"
 21078      72746F77 
 21078      63735F73 
 21078      74617465 
 21078      00
 21079              	.LASF702:
 21080 0bb7 75736265 		.ascii	"usbep_t\000"
 21080      705F7400 
 21081              	.LASF33:
 21082 0bbf 5F776473 		.ascii	"_wds\000"
 21082      00
 21083              	.LASF129:
 21084 0bc4 666C6F61 		.ascii	"float\000"
 21084      7400
 21085              	.LASF909:
 21086 0bca 43415054 		.ascii	"CAPTURE_CONTINUOUS\000"
 21086      5552455F 
 21086      434F4E54 
 21086      494E554F 
 21086      555300
 21087              	.LASF537:
 21088 0bdd 4558545F 		.ascii	"EXT_UNINIT\000"
 21088      554E494E 
 21088      495400
 21089              	.LASF495:
 21090 0be8 43414E5F 		.ascii	"CAN_SLEEP\000"
ARM GAS  C:\Users\Moi\AppData\Local\Temp\cchaECY7.s 			page 394


 21090      534C4545 
 21090      5000
 21091              	.LASF1080:
 21092 0bf2 636D645F 		.ascii	"cmd_threads\000"
 21092      74687265 
 21092      61647300 
 21093              	.LASF321:
 21094 0bfe 73655F73 		.ascii	"se_state\000"
 21094      74617465 
 21094      00
 21095              	.LASF55:
 21096 0c07 5F73697A 		.ascii	"_size\000"
 21096      6500
 21097              	.LASF671:
 21098 0c0d 53444344 		.ascii	"SDCD1\000"
 21098      3100
 21099              	.LASF207:
 21100 0c13 73797374 		.ascii	"system_debug_t\000"
 21100      656D5F64 
 21100      65627567 
 21100      5F7400
 21101              	.LASF265:
 21102 0c22 44485238 		.ascii	"DHR8R1\000"
 21102      523100
 21103              	.LASF268:
 21104 0c29 44485238 		.ascii	"DHR8R2\000"
 21104      523200
 21105              	.LASF559:
 21106 0c30 44494552 		.ascii	"DIER\000"
 21106      00
 21107              	.LASF946:
 21108 0c35 68656164 		.ascii	"head\000"
 21108      00
 21109              	.LASF165:
 21110 0c3a 705F6374 		.ascii	"p_ctx\000"
 21110      7800
 21111              	.LASF203:
 21112 0c40 76745F70 		.ascii	"vt_par\000"
 21112      617200
 21113              	.LASF224:
 21114 0c47 4A4F4652 		.ascii	"JOFR1\000"
 21114      3100
 21115              	.LASF225:
 21116 0c4d 4A4F4652 		.ascii	"JOFR2\000"
 21116      3200
 21117              	.LASF227:
 21118 0c53 4A4F4652 		.ascii	"JOFR4\000"
 21118      3400
 21119              	.LASF1038:
 21120 0c59 73706565 		.ascii	"speed_left\000"
 21120      645F6C65 
 21120      667400
 21121              	.LASF1017:
 21122 0c64 7368656C 		.ascii	"shell_commands\000"
 21122      6C5F636F 
 21122      6D6D616E 
 21122      647300
ARM GAS  C:\Users\Moi\AppData\Local\Temp\cchaECY7.s 			page 395


 21123              	.LASF62:
 21124 0c73 5F777269 		.ascii	"_write\000"
 21124      746500
 21125              	.LASF308:
 21126 0c7a 54584352 		.ascii	"TXCRCR\000"
 21126      435200
 21127              	.LASF978:
 21128 0c81 6469725F 		.ascii	"dir_sect\000"
 21128      73656374 
 21128      00
 21129              	.LASF530:
 21130 0c8a 64616364 		.ascii	"dacdhrmode_t\000"
 21130      68726D6F 
 21130      64655F74 
 21130      00
 21131              	.LASF472:
 21132 0c97 646D6173 		.ascii	"dmastp\000"
 21132      747000
 21133              	.LASF938:
 21134 0c9e 6C6F636B 		.ascii	"lock\000"
 21134      00
 21135              	.LASF1033:
 21136 0ca3 636D645F 		.ascii	"cmd_audio_stop\000"
 21136      61756469 
 21136      6F5F7374 
 21136      6F7000
 21137              	.LASF590:
 21138 0cb2 46415354 		.ascii	"FAST_DUTY_CYCLE_16_9\000"
 21138      5F445554 
 21138      595F4359 
 21138      434C455F 
 21138      31365F39 
 21139              	.LASF1069:
 21140 0cc7 636D645F 		.ascii	"cmd_config_tree\000"
 21140      636F6E66 
 21140      69675F74 
 21140      72656500 
 21141              	.LASF987:
 21142 0cd7 46525F49 		.ascii	"FR_INVALID_NAME\000"
 21142      4E56414C 
 21142      49445F4E 
 21142      414D4500 
 21143              	.LASF146:
 21144 0ce7 75696E74 		.ascii	"uint64_t\000"
 21144      36345F74 
 21144      00
 21145              	.LASF335:
 21146 0cf0 6E5F6374 		.ascii	"n_ctxswc\000"
 21146      78737763 
 21146      00
 21147              	.LASF373:
 21148 0cf9 63685F64 		.ascii	"ch_debug\000"
 21148      65627567 
 21148      00
 21149              	.LASF1092:
 21150 0d02 42797465 		.ascii	"ByteRead\000"
 21150      52656164 
ARM GAS  C:\Users\Moi\AppData\Local\Temp\cchaECY7.s 			page 396


 21150      00
 21151              	.LASF533:
 21152 0d0b 696E6974 		.ascii	"init\000"
 21152      00
 21153              	.LASF861:
 21154 0d10 73635F63 		.ascii	"sc_commands\000"
 21154      6F6D6D61 
 21154      6E647300 
 21155              	.LASF252:
 21156 0d1c 464D3152 		.ascii	"FM1R\000"
 21156      00
 21157              	.LASF1081:
 21158 0d21 73746174 		.ascii	"states\000"
 21158      657300
 21159              	.LASF449:
 21160 0d28 50414C43 		.ascii	"PALConfig\000"
 21160      6F6E6669 
 21160      6700
 21161              	.LASF815:
 21162 0d32 7478636E 		.ascii	"txcnt\000"
 21162      7400
 21163              	.LASF915:
 21164 0d38 73756273 		.ascii	"subspaces\000"
 21164      70616365 
 21164      7300
 21165              	.LASF729:
 21166 0d42 75736265 		.ascii	"usbeventcb_t\000"
 21166      76656E74 
 21166      63625F74 
 21166      00
 21167              	.LASF971:
 21168 0d4f 77696E73 		.ascii	"winsect\000"
 21168      65637400 
 21169              	.LASF411:
 21170 0d57 424C4B5F 		.ascii	"BLK_ACTIVE\000"
 21170      41435449 
 21170      564500
 21171              	.LASF41:
 21172 0d62 5F5F746D 		.ascii	"__tm_year\000"
 21172      5F796561 
 21172      7200
 21173              	.LASF375:
 21174 0d6c 6576656E 		.ascii	"event_listener_t\000"
 21174      745F6C69 
 21174      7374656E 
 21174      65725F74 
 21174      00
 21175              	.LASF807:
 21176 0d7d 6F74675F 		.ascii	"otg_ram_size\000"
 21176      72616D5F 
 21176      73697A65 
 21176      00
 21177              	.LASF965:
 21178 0d8a 6E5F6661 		.ascii	"n_fatent\000"
 21178      74656E74 
 21178      00
 21179              	.LASF809:
ARM GAS  C:\Users\Moi\AppData\Local\Temp\cchaECY7.s 			page 397


 21180 0d93 73746D33 		.ascii	"stm32_otg_params_t\000"
 21180      325F6F74 
 21180      675F7061 
 21180      72616D73 
 21180      5F7400
 21181              	.LASF802:
 21182 0da6 72657376 		.ascii	"resvdD00\000"
 21182      64443030 
 21182      00
 21183              	.LASF307:
 21184 0daf 52584352 		.ascii	"RXCRCR\000"
 21184      435200
 21185              	.LASF818:
 21186 0db6 72786275 		.ascii	"rxbuf\000"
 21186      6600
 21187              	.LASF101:
 21188 0dbc 5F6D756C 		.ascii	"_mult\000"
 21188      7400
 21189              	.LASF349:
 21190 0dc2 63685F6D 		.ascii	"ch_mutex\000"
 21190      75746578 
 21190      00
 21191              	.LASF1076:
 21192 0dcb 636D645F 		.ascii	"cmd_sqrt\000"
 21192      73717274 
 21192      00
 21193              	.LASF501:
 21194 0dd4 7478656D 		.ascii	"txempty_event\000"
 21194      7074795F 
 21194      6576656E 
 21194      7400
 21195              	.LASF1059:
 21196 0de2 636D645F 		.ascii	"cmd_cam_set_brightness\000"
 21196      63616D5F 
 21196      7365745F 
 21196      62726967 
 21196      68746E65 
 21197              	.LASF840:
 21198 0df9 5344555F 		.ascii	"SDU_UNINIT\000"
 21198      554E494E 
 21198      495400
 21199              	.LASF623:
 21200 0e04 50574D44 		.ascii	"PWMDriver\000"
 21200      72697665 
 21200      7200
 21201              	.LASF446:
 21202 0e0e 50474461 		.ascii	"PGData\000"
 21202      746100
 21203              	.LASF632:
 21204 0e15 50574D43 		.ascii	"PWMConfig\000"
 21204      6F6E6669 
 21204      6700
 21205              	.LASF116:
 21206 0e1f 5F6D6272 		.ascii	"_mbrlen_state\000"
 21206      6C656E5F 
 21206      73746174 
 21206      6500
ARM GAS  C:\Users\Moi\AppData\Local\Temp\cchaECY7.s 			page 398


 21207              	.LASF1111:
 21208 0e2d 74696D65 		.ascii	"time\000"
 21208      00
 21209              	.LASF923:
 21210 0e32 76616C75 		.ascii	"value\000"
 21210      6500
 21211              	.LASF363:
 21212 0e38 63665F6F 		.ascii	"cf_off_newer\000"
 21212      66665F6E 
 21212      65776572 
 21212      00
 21213              	.LASF787:
 21214 0e45 44494550 		.ascii	"DIEPMSK\000"
 21214      4D534B00 
 21215              	.LASF754:
 21216 0e4d 474F5447 		.ascii	"GOTGINT\000"
 21216      494E5400 
 21217              	.LASF826:
 21218 0e55 6F75745F 		.ascii	"out_cb\000"
 21218      636200
 21219              	.LASF874:
 21220 0e5c 464F524D 		.ascii	"FORMAT_BGGR\000"
 21220      41545F42 
 21220      47475200 
 21221              	.LASF778:
 21222 0e68 4841494E 		.ascii	"HAINTMSK\000"
 21222      544D534B 
 21222      00
 21223              	.LASF688:
 21224 0e71 6F75745F 		.ascii	"out_params\000"
 21224      70617261 
 21224      6D7300
 21225              	.LASF320:
 21226 0e7c 73655F77 		.ascii	"se_wtobjp\000"
 21226      746F626A 
 21226      7000
 21227              	.LASF231:
 21228 0e86 4A535152 		.ascii	"JSQR\000"
 21228      00
 21229              	.LASF139:
 21230 0e8b 76615F6C 		.ascii	"va_list\000"
 21230      69737400 
 21231              	.LASF75:
 21232 0e93 5F737464 		.ascii	"_stdin\000"
 21232      696E00
 21233              	.LASF123:
 21234 0e9a 5F6E6D61 		.ascii	"_nmalloc\000"
 21234      6C6C6F63 
 21234      00
 21235              	.LASF571:
 21236 0ea3 64696572 		.ascii	"dier\000"
 21236      00
 21237              	.LASF666:
 21238 0ea8 69735F70 		.ascii	"is_protected\000"
 21238      726F7465 
 21238      63746564 
 21238      00
ARM GAS  C:\Users\Moi\AppData\Local\Temp\cchaECY7.s 			page 399


 21239              	.LASF197:
 21240 0eb5 76697274 		.ascii	"virtual_timer_t\000"
 21240      75616C5F 
 21240      74696D65 
 21240      725F7400 
 21241              	.LASF828:
 21242 0ec5 6F75745F 		.ascii	"out_maxsize\000"
 21242      6D617873 
 21242      697A6500 
 21243              	.LASF192:
 21244 0ed1 725F6374 		.ascii	"r_ctx\000"
 21244      7800
 21245              	.LASF199:
 21246 0ed7 76745F6E 		.ascii	"vt_next\000"
 21246      65787400 
 21247              	.LASF605:
 21248 0edf 4932535F 		.ascii	"I2S_STOP\000"
 21248      53544F50 
 21248      00
 21249              	.LASF233:
 21250 0ee8 4A445232 		.ascii	"JDR2\000"
 21250      00
 21251              	.LASF620:
 21252 0eed 50574D5F 		.ascii	"PWM_STOP\000"
 21252      53544F50 
 21252      00
 21253              	.LASF158:
 21254 0ef6 75636E74 		.ascii	"ucnt_t\000"
 21254      5F7400
 21255              	.LASF933:
 21256 0efd 6F707465 		.ascii	"opterr\000"
 21256      727200
 21257              	.LASF147:
 21258 0f04 7274636E 		.ascii	"rtcnt_t\000"
 21258      745F7400 
 21259              	.LASF471:
 21260 0f0c 6D757465 		.ascii	"mutex\000"
 21260      7800
 21261              	.LASF614:
 21262 0f12 73697A65 		.ascii	"size\000"
 21262      00
 21263              	.LASF519:
 21264 0f17 44414344 		.ascii	"DACDriver\000"
 21264      72697665 
 21264      7200
 21265              	.LASF967:
 21266 0f21 766F6C62 		.ascii	"volbase\000"
 21266      61736500 
 21267              	.LASF535:
 21268 0f29 44414343 		.ascii	"DACConfig\000"
 21268      6F6E6669 
 21268      6700
 21269              	.LASF699:
 21270 0f33 74787065 		.ascii	"txpending\000"
 21270      6E64696E 
 21270      6700
 21271              	.LASF556:
ARM GAS  C:\Users\Moi\AppData\Local\Temp\cchaECY7.s 			page 400


 21272 0f3d 636C6F63 		.ascii	"clock\000"
 21272      6B00
 21273              	.LASF423:
 21274 0f43 636C6561 		.ascii	"clear\000"
 21274      7200
 21275              	.LASF566:
 21276 0f49 43435852 		.ascii	"CCXR\000"
 21276      00
 21277              	.LASF261:
 21278 0f4e 43414E5F 		.ascii	"CAN_TypeDef\000"
 21278      54797065 
 21278      44656600 
 21279              	.LASF19:
 21280 0f5a 5F6F6666 		.ascii	"_off_t\000"
 21280      5F7400
 21281              	.LASF315:
 21282 0f61 73746B61 		.ascii	"stkalign_t\000"
 21282      6C69676E 
 21282      5F7400
 21283              	.LASF322:
 21284 0f6c 63685F73 		.ascii	"ch_swc_event_t\000"
 21284      77635F65 
 21284      76656E74 
 21284      5F7400
 21285              	.LASF638:
 21286 0f7b 53445F53 		.ascii	"SD_STOP\000"
 21286      544F5000 
 21287              	.LASF733:
 21288 0f83 72657376 		.ascii	"resvd8\000"
 21288      643800
 21289              	.LASF3:
 21290 0f8a 73697A65 		.ascii	"size_t\000"
 21290      5F7400
 21291              	.LASF106:
 21292 0f91 5F6C6F63 		.ascii	"_localtime_buf\000"
 21292      616C7469 
 21292      6D655F62 
 21292      756600
 21293              	.LASF800:
 21294 0fa0 72657376 		.ascii	"resvd880\000"
 21294      64383830 
 21294      00
 21295              	.LASF952:
 21296 0fa9 70617261 		.ascii	"parameter_root\000"
 21296      6D657465 
 21296      725F726F 
 21296      6F7400
 21297              	.LASF24:
 21298 0fb8 5F5F636F 		.ascii	"__count\000"
 21298      756E7400 
 21299              	.LASF141:
 21300 0fc0 75696E74 		.ascii	"uint8_t\000"
 21300      385F7400 
 21301              	.LASF737:
 21302 0fc8 72657376 		.ascii	"resvd14\000"
 21302      64313400 
 21303              	.LASF491:
ARM GAS  C:\Users\Moi\AppData\Local\Temp\cchaECY7.s 			page 401


 21304 0fd0 43414E5F 		.ascii	"CAN_UNINIT\000"
 21304      554E494E 
 21304      495400
 21305              	.LASF738:
 21306 0fdb 72657376 		.ascii	"resvd18\000"
 21306      64313800 
 21307              	.LASF194:
 21308 0fe3 725F6F6C 		.ascii	"r_older\000"
 21308      64657200 
 21309              	.LASF163:
 21310 0feb 705F7072 		.ascii	"p_prev\000"
 21310      657600
 21311              	.LASF365:
 21312 0ff2 63665F6F 		.ascii	"cf_off_name\000"
 21312      66665F6E 
 21312      616D6500 
 21313              	.LASF631:
 21314 0ffe 50574D43 		.ascii	"PWMChannelConfig\000"
 21314      68616E6E 
 21314      656C436F 
 21314      6E666967 
 21314      00
 21315              	.LASF630:
 21316 100f 70776D63 		.ascii	"pwmcnt_t\000"
 21316      6E745F74 
 21316      00
 21317              	.LASF796:
 21318 1018 44494550 		.ascii	"DIEPEMPMSK\000"
 21318      454D504D 
 21318      534B00
 21319              	.LASF902:
 21320 1023 64636D69 		.ascii	"dcmicallback_t\000"
 21320      63616C6C 
 21320      6261636B 
 21320      5F7400
 21321              	.LASF741:
 21322 1032 44494550 		.ascii	"DIEPCTL\000"
 21322      43544C00 
 21323              	.LASF381:
 21324 103a 656C5F77 		.ascii	"el_wflags\000"
 21324      666C6167 
 21324      7300
 21325              	.LASF697:
 21326 1044 6F746770 		.ascii	"otgparams\000"
 21326      6172616D 
 21326      7300
 21327              	.LASF323:
 21328 104e 74625F73 		.ascii	"tb_size\000"
 21328      697A6500 
 21329              	.LASF443:
 21330 1056 50444461 		.ascii	"PDData\000"
 21330      746100
 21331              	.LASF661:
 21332 105d 73637261 		.ascii	"scratchpad\000"
 21332      74636870 
 21332      616400
 21333              	.LASF89:
ARM GAS  C:\Users\Moi\AppData\Local\Temp\cchaECY7.s 			page 402


 21334 1068 5F637674 		.ascii	"_cvtbuf\000"
 21334      62756600 
 21335              	.LASF830:
 21336 1070 6F75745F 		.ascii	"out_state\000"
 21336      73746174 
 21336      6500
 21337              	.LASF385:
 21338 107a 696F5F71 		.ascii	"io_queue_t\000"
 21338      75657565 
 21338      5F7400
 21339              	.LASF677:
 21340 1085 73706973 		.ascii	"spistate_t\000"
 21340      74617465 
 21340      5F7400
 21341              	.LASF1110:
 21342 1090 63685654 		.ascii	"chVTIsTimeWithinX\000"
 21342      49735469 
 21342      6D655769 
 21342      7468696E 
 21342      5800
 21343              	.LASF1029:
 21344 10a2 6D69635F 		.ascii	"mic_data\000"
 21344      64617461 
 21344      00
 21345              	.LASF576:
 21346 10ab 4932435F 		.ascii	"I2C_STOP\000"
 21346      53544F50 
 21346      00
 21347              	.LASF598:
 21348 10b4 61646472 		.ascii	"addr\000"
 21348      00
 21349              	.LASF1049:
 21350 10b9 636D645F 		.ascii	"cmd_cam_set_exposure\000"
 21350      63616D5F 
 21350      7365745F 
 21350      6578706F 
 21350      73757265 
 21351              	.LASF246:
 21352 10ce 52463052 		.ascii	"RF0R\000"
 21352      00
 21353              	.LASF461:
 21354 10d3 4144435F 		.ascii	"ADC_ERR_DMAFAILURE\000"
 21354      4552525F 
 21354      444D4146 
 21354      41494C55 
 21354      524500
 21355              	.LASF675:
 21356 10e6 5350495F 		.ascii	"SPI_ACTIVE\000"
 21356      41435449 
 21356      564500
 21357              	.LASF312:
 21358 10f1 47545052 		.ascii	"GTPR\000"
 21358      00
 21359              	.LASF545:
 21360 10f6 45585443 		.ascii	"EXTChannelConfig\000"
 21360      68616E6E 
 21360      656C436F 
ARM GAS  C:\Users\Moi\AppData\Local\Temp\cchaECY7.s 			page 403


 21360      6E666967 
 21360      00
 21361              	.LASF1071:
 21362 1107 696E6465 		.ascii	"indent\000"
 21362      6E7400
 21363              	.LASF426:
 21364 110e 4F535045 		.ascii	"OSPEEDR\000"
 21364      45445200 
 21365              	.LASF509:
 21366 1116 4441435F 		.ascii	"DAC_READY\000"
 21366      52454144 
 21366      5900
 21367              	.LASF765:
 21368 1120 72657376 		.ascii	"resvd30\000"
 21368      64333000 
 21369              	.LASF23:
 21370 1128 5F5F7763 		.ascii	"__wchb\000"
 21370      686200
 21371              	.LASF117:
 21372 112f 5F6D6272 		.ascii	"_mbrtowc_state\000"
 21372      746F7763 
 21372      5F737461 
 21372      746500
 21373              	.LASF794:
 21374 113e 44564255 		.ascii	"DVBUSPULSE\000"
 21374      5350554C 
 21374      534500
 21375              	.LASF38:
 21376 1149 5F5F746D 		.ascii	"__tm_hour\000"
 21376      5F686F75 
 21376      7200
 21377              	.LASF410:
 21378 1153 424C4B5F 		.ascii	"BLK_STOP\000"
 21378      53544F50 
 21378      00
 21379              	.LASF646:
 21380 115c 53657269 		.ascii	"SerialDriverVMT\000"
 21380      616C4472 
 21380      69766572 
 21380      564D5400 
 21381              	.LASF715:
 21382 116c 5553425F 		.ascii	"USB_EP0_ERROR\000"
 21382      4550305F 
 21382      4552524F 
 21382      5200
 21383              	.LASF21:
 21384 117a 77696E74 		.ascii	"wint_t\000"
 21384      5F7400
 21385              	.LASF1088:
 21386 1181 636D645F 		.ascii	"cmd_cat\000"
 21386      63617400 
 21387              	.LASF667:
 21388 1189 636F6E6E 		.ascii	"connect\000"
 21388      65637400 
 21389              	.LASF90:
 21390 1191 5F6E6577 		.ascii	"_new\000"
 21390      00
ARM GAS  C:\Users\Moi\AppData\Local\Temp\cchaECY7.s 			page 404


 21391              	.LASF464:
 21392 1196 41444344 		.ascii	"ADCDriver\000"
 21392      72697665 
 21392      7200
 21393              	.LASF808:
 21394 11a0 6E756D5F 		.ascii	"num_endpoints\000"
 21394      656E6470 
 21394      6F696E74 
 21394      7300
 21395              	.LASF487:
 21396 11ae 41444343 		.ascii	"ADCConfig\000"
 21396      6F6E6669 
 21396      6700
 21397              	.LASF816:
 21398 11b8 746F7473 		.ascii	"totsize\000"
 21398      697A6500 
 21399              	.LASF928:
 21400 11c0 5F706172 		.ascii	"_param_val_matrix_s\000"
 21400      616D5F76 
 21400      616C5F6D 
 21400      61747269 
 21400      785F7300 
 21401              	.LASF97:
 21402 11d4 5F6E696F 		.ascii	"_niobs\000"
 21402      627300
 21403              	.LASF366:
 21404 11db 63665F6F 		.ascii	"cf_off_stklimit\000"
 21404      66665F73 
 21404      746B6C69 
 21404      6D697400 
 21405              	.LASF639:
 21406 11eb 53445F52 		.ascii	"SD_READY\000"
 21406      45414459 
 21406      00
 21407              	.LASF731:
 21408 11f4 75736267 		.ascii	"usbgetdescriptor_t\000"
 21408      65746465 
 21408      73637269 
 21408      70746F72 
 21408      5F7400
 21409              	.LASF512:
 21410 1207 4441435F 		.ascii	"DAC_ERROR\000"
 21410      4552524F 
 21410      5200
 21411              	.LASF195:
 21412 1211 725F6375 		.ascii	"r_current\000"
 21412      7272656E 
 21412      7400
 21413              	.LASF74:
 21414 121b 5F657272 		.ascii	"_errno\000"
 21414      6E6F00
 21415              	.LASF948:
 21416 1222 6D657373 		.ascii	"messagebus_t\000"
 21416      61676562 
 21416      75735F74 
 21416      00
 21417              	.LASF710:
ARM GAS  C:\Users\Moi\AppData\Local\Temp\cchaECY7.s 			page 405


 21418 122f 5553425F 		.ascii	"USB_EP0_TX\000"
 21418      4550305F 
 21418      545800
 21419              	.LASF689:
 21420 123a 65703073 		.ascii	"ep0state\000"
 21420      74617465 
 21420      00
 21421              	.LASF919:
 21422 1243 70617261 		.ascii	"parameter_s\000"
 21422      6D657465 
 21422      725F7300 
 21423              	.LASF39:
 21424 124f 5F5F746D 		.ascii	"__tm_mday\000"
 21424      5F6D6461 
 21424      7900
 21425              	.LASF403:
 21426 1259 69666372 		.ascii	"ifcr\000"
 21426      00
 21427              	.LASF604:
 21428 125e 4932535F 		.ascii	"I2S_UNINIT\000"
 21428      554E494E 
 21428      495400
 21429              	.LASF846:
 21430 1269 62756C6B 		.ascii	"bulk_in\000"
 21430      5F696E00 
 21431              	.LASF432:
 21432 1271 73746D33 		.ascii	"stm32_gpio_t\000"
 21432      325F6770 
 21432      696F5F74 
 21432      00
 21433              	.LASF339:
 21434 127e 7264796D 		.ascii	"rdymsg\000"
 21434      736700
 21435              	.LASF46:
 21436 1285 5F666E61 		.ascii	"_fnargs\000"
 21436      72677300 
 21437              	.LASF621:
 21438 128d 50574D5F 		.ascii	"PWM_READY\000"
 21438      52454144 
 21438      5900
 21439              	.LASF237:
 21440 1297 54445452 		.ascii	"TDTR\000"
 21440      00
 21441              	.LASF245:
 21442 129c 43414E5F 		.ascii	"CAN_FilterRegister_TypeDef\000"
 21442      46696C74 
 21442      65725265 
 21442      67697374 
 21442      65725F54 
 21443              	.LASF502:
 21444 12b7 6572726F 		.ascii	"error_event\000"
 21444      725F6576 
 21444      656E7400 
 21445              	.LASF477:
 21446 12c3 6E756D5F 		.ascii	"num_channels\000"
 21446      6368616E 
 21446      6E656C73 
ARM GAS  C:\Users\Moi\AppData\Local\Temp\cchaECY7.s 			page 406


 21446      00
 21447              	.LASF226:
 21448 12d0 4A4F4652 		.ascii	"JOFR3\000"
 21448      3300
 21449              	.LASF768:
 21450 12d6 72657376 		.ascii	"resvd58\000"
 21450      64353800 
 21451              	.LASF817:
 21452 12de 55534249 		.ascii	"USBInEndpointState\000"
 21452      6E456E64 
 21452      706F696E 
 21452      74537461 
 21452      746500
 21453              	.LASF164:
 21454 12f1 705F7072 		.ascii	"p_prio\000"
 21454      696F00
 21455              	.LASF1103:
 21456 12f8 636D645F 		.ascii	"cmd_mount\000"
 21456      6D6F756E 
 21456      7400
 21457              	.LASF921:
 21458 1302 64656669 		.ascii	"defined\000"
 21458      6E656400 
 21459              	.LASF386:
 21460 130a 696F5F71 		.ascii	"io_queue\000"
 21460      75657565 
 21460      00
 21461              	.LASF887:
 21462 1313 73756273 		.ascii	"subsampling_t\000"
 21462      616D706C 
 21462      696E675F 
 21462      7400
 21463              	.LASF1082:
 21464 1321 636D645F 		.ascii	"cmd_mem\000"
 21464      6D656D00 
 21465              	.LASF440:
 21466 1329 50414461 		.ascii	"PAData\000"
 21466      746100
 21467              	.LASF972:
 21468 1330 46415446 		.ascii	"FATFS\000"
 21468      5300
 21469              	.LASF16:
 21470 1336 5F5F7569 		.ascii	"__uint64_t\000"
 21470      6E743634 
 21470      5F7400
 21471              	.LASF1063:
 21472 1341 636D645F 		.ascii	"cmd_config_save\000"
 21472      636F6E66 
 21472      69675F73 
 21472      61766500 
 21473              	.LASF1010:
 21474 1351 636D645F 		.ascii	"cmd_subx\000"
 21474      73756278 
 21474      00
 21475              	.LASF1011:
 21476 135a 636D645F 		.ascii	"cmd_suby\000"
 21476      73756279 
ARM GAS  C:\Users\Moi\AppData\Local\Temp\cchaECY7.s 			page 407


 21476      00
 21477              	.LASF1104:
 21478 1363 666F726D 		.ascii	"formatted_bytes\000"
 21478      61747465 
 21478      645F6279 
 21478      74657300 
 21479              	.LASF30:
 21480 1373 5F6E6578 		.ascii	"_next\000"
 21480      7400
 21481              	.LASF866:
 21482 1379 53445531 		.ascii	"SDU1\000"
 21482      00
 21483              	.LASF626:
 21484 137e 70776D63 		.ascii	"pwmcallback_t\000"
 21484      616C6C62 
 21484      61636B5F 
 21484      7400
 21485              	.LASF520:
 21486 138c 70617261 		.ascii	"params\000"
 21486      6D7300
 21487              	.LASF714:
 21488 1393 5553425F 		.ascii	"USB_EP0_SENDING_STS\000"
 21488      4550305F 
 21488      53454E44 
 21488      494E475F 
 21488      53545300 
 21489              	.LASF114:
 21490 13a7 5F736967 		.ascii	"_signal_buf\000"
 21490      6E616C5F 
 21490      62756600 
 21491              	.LASF848:
 21492 13b3 696E745F 		.ascii	"int_in\000"
 21492      696E00
 21493              	.LASF581:
 21494 13ba 69326373 		.ascii	"i2cstate_t\000"
 21494      74617465 
 21494      5F7400
 21495              	.LASF60:
 21496 13c5 5F636F6F 		.ascii	"_cookie\000"
 21496      6B696500 
 21497              	.LASF911:
 21498 13cd 70617261 		.ascii	"parameter_namespace_t\000"
 21498      6D657465 
 21498      725F6E61 
 21498      6D657370 
 21498      6163655F 
 21499              	.LASF859:
 21500 13e3 5368656C 		.ascii	"ShellCommand\000"
 21500      6C436F6D 
 21500      6D616E64 
 21500      00
 21501              	.LASF716:
 21502 13f0 75736265 		.ascii	"usbep0state_t\000"
 21502      70307374 
 21502      6174655F 
 21502      7400
 21503              	.LASF524:
ARM GAS  C:\Users\Moi\AppData\Local\Temp\cchaECY7.s 			page 408


 21504 13fe 64616365 		.ascii	"dacerror_t\000"
 21504      72726F72 
 21504      5F7400
 21505              	.LASF249:
 21506 1409 7354784D 		.ascii	"sTxMailBox\000"
 21506      61696C42 
 21506      6F7800
 21507              	.LASF459:
 21508 1414 61646373 		.ascii	"adcsample_t\000"
 21508      616D706C 
 21508      655F7400 
 21509              	.LASF557:
 21510 1420 67707463 		.ascii	"gptcallback_t\000"
 21510      616C6C62 
 21510      61636B5F 
 21510      7400
 21511              	.LASF389:
 21512 142e 715F6275 		.ascii	"q_buffer\000"
 21512      66666572 
 21512      00
 21513              	.LASF162:
 21514 1437 705F6E65 		.ascii	"p_next\000"
 21514      787400
 21515              	.LASF1087:
 21516 143e 636D645F 		.ascii	"cmd_sound_file_play\000"
 21516      736F756E 
 21516      645F6669 
 21516      6C655F70 
 21516      6C617900 
 21517              	.LASF603:
 21518 1452 49324344 		.ascii	"I2CD1\000"
 21518      3100
 21519              	.LASF742:
 21520 1458 72657376 		.ascii	"resvd4\000"
 21520      643400
 21521              	.LASF882:
 21522 145f 464F524D 		.ascii	"FORMAT_YYYY\000"
 21522      41545F59 
 21522      59595900 
 21523              	.LASF684:
 21524 146b 55534244 		.ascii	"USBDriver\000"
 21524      72697665 
 21524      7200
 21525              	.LASF801:
 21526 1475 72657376 		.ascii	"resvd8C0\000"
 21526      64384330 
 21526      00
 21527              	.LASF838:
 21528 147e 55534243 		.ascii	"USBConfig\000"
 21528      6F6E6669 
 21528      6700
 21529              	.LASF744:
 21530 1488 72657376 		.ascii	"resvdC\000"
 21530      644300
 21531              	.LASF968:
 21532 148f 66617462 		.ascii	"fatbase\000"
 21532      61736500 
ARM GAS  C:\Users\Moi\AppData\Local\Temp\cchaECY7.s 			page 409


 21533              	.LASF633:
 21534 1497 50574D44 		.ascii	"PWMD2\000"
 21534      3200
 21535              	.LASF634:
 21536 149d 50574D44 		.ascii	"PWMD3\000"
 21536      3300
 21537              	.LASF635:
 21538 14a3 50574D44 		.ascii	"PWMD4\000"
 21538      3400
 21539              	.LASF636:
 21540 14a9 50574D44 		.ascii	"PWMD5\000"
 21540      3500
 21541              	.LASF1024:
 21542 14af 73746172 		.ascii	"start\000"
 21542      7400
 21543              	.LASF1083:
 21544 14b5 636D645F 		.ascii	"cmd_melody_stop\000"
 21544      6D656C6F 
 21544      64795F73 
 21544      746F7000 
 21545              	.LASF856:
 21546 14c5 7368656C 		.ascii	"shellcmd_t\000"
 21546      6C636D64 
 21546      5F7400
 21547              	.LASF644:
 21548 14d0 6F717565 		.ascii	"oqueue\000"
 21548      756500
 21549              	.LASF151:
 21550 14d7 74726566 		.ascii	"trefs_t\000"
 21550      735F7400 
 21551              	.LASF181:
 21552 14df 705F6D70 		.ascii	"p_mpool\000"
 21552      6F6F6C00 
 21553              	.LASF290:
 21554 14e7 4932435F 		.ascii	"I2C_TypeDef\000"
 21554      54797065 
 21554      44656600 
 21555              	.LASF877:
 21556 14f3 464F524D 		.ascii	"FORMAT_BGR565\000"
 21556      41545F42 
 21556      47523536 
 21556      3500
 21557              	.LASF1089:
 21558 1501 66737263 		.ascii	"fsrc\000"
 21558      00
 21559              	.LASF532:
 21560 1506 44414343 		.ascii	"DACConversionGroup\000"
 21560      6F6E7665 
 21560      7273696F 
 21560      6E47726F 
 21560      757000
 21561              	.LASF883:
 21562 1519 666F726D 		.ascii	"format_t\000"
 21562      61745F74 
 21562      00
 21563              	.LASF279:
 21564 1522 43575354 		.ascii	"CWSTRTR\000"
ARM GAS  C:\Users\Moi\AppData\Local\Temp\cchaECY7.s 			page 410


 21564      52545200 
 21565              	.LASF36:
 21566 152a 5F5F746D 		.ascii	"__tm_sec\000"
 21566      5F736563 
 21566      00
 21567              	.LASF831:
 21568 1533 696E5F6D 		.ascii	"in_multiplier\000"
 21568      756C7469 
 21568      706C6965 
 21568      7200
 21569              	.LASF457:
 21570 1541 4144435F 		.ascii	"ADC_ERROR\000"
 21570      4552524F 
 21570      5200
 21571              	.LASF45:
 21572 154b 5F6F6E5F 		.ascii	"_on_exit_args\000"
 21572      65786974 
 21572      5F617267 
 21572      7300
 21573              	.LASF316:
 21574 1559 636F6E74 		.ascii	"context\000"
 21574      65787400 
 21575              	.LASF149:
 21576 1561 746D6F64 		.ascii	"tmode_t\000"
 21576      655F7400 
 21577              	.LASF897:
 21578 1569 44434D49 		.ascii	"DCMI_ERROR\000"
 21578      5F455252 
 21578      4F5200
 21579              	.LASF455:
 21580 1574 4144435F 		.ascii	"ADC_ACTIVE\000"
 21580      41435449 
 21580      564500
 21581              	.LASF228:
 21582 157f 53515231 		.ascii	"SQR1\000"
 21582      00
 21583              	.LASF229:
 21584 1584 53515232 		.ascii	"SQR2\000"
 21584      00
 21585              	.LASF230:
 21586 1589 53515233 		.ascii	"SQR3\000"
 21586      00
 21587              	.LASF428:
 21588 158e 42535252 		.ascii	"BSRR\000"
 21588      00
 21589              	.LASF407:
 21590 1593 73746D33 		.ascii	"stm32_dma_stream_t\000"
 21590      325F646D 
 21590      615F7374 
 21590      7265616D 
 21590      5F7400
 21591              	.LASF836:
 21592 15a6 72657175 		.ascii	"requests_hook_cb\000"
 21592      65737473 
 21592      5F686F6F 
 21592      6B5F6362 
 21592      00
ARM GAS  C:\Users\Moi\AppData\Local\Temp\cchaECY7.s 			page 411


 21593              	.LASF954:
 21594 15b7 574F5244 		.ascii	"WORD\000"
 21594      00
 21595              	.LASF119:
 21596 15bc 5F776372 		.ascii	"_wcrtomb_state\000"
 21596      746F6D62 
 21596      5F737461 
 21596      746500
 21597              	.LASF653:
 21598 15cb 5344435F 		.ascii	"SDC_MODE_8BIT\000"
 21598      4D4F4445 
 21598      5F384249 
 21598      5400
 21599              	.LASF814:
 21600 15d9 74787369 		.ascii	"txsize\000"
 21600      7A6500
 21601              	.LASF1026:
 21602 15e0 65727266 		.ascii	"errflags\000"
 21602      6C616773 
 21602      00
 21603              	.LASF528:
 21604 15e9 4441435F 		.ascii	"DAC_DHRM_12BIT_LEFT\000"
 21604      4448524D 
 21604      5F313242 
 21604      49545F4C 
 21604      45465400 
 21605              	.LASF624:
 21606 15fd 70657269 		.ascii	"period\000"
 21606      6F6400
 21607              	.LASF350:
 21608 1604 6D5F7175 		.ascii	"m_queue\000"
 21608      65756500 
 21609              	.LASF580:
 21610 160c 4932435F 		.ascii	"I2C_LOCKED\000"
 21610      4C4F434B 
 21610      454400
 21611              	.LASF210:
 21612 1617 6973725F 		.ascii	"isr_cnt\000"
 21612      636E7400 
 21613              	.LASF1065:
 21614 161f 636D645F 		.ascii	"cmd_config_erase\000"
 21614      636F6E66 
 21614      69675F65 
 21614      72617365 
 21614      00
 21615              	.LASF1075:
 21616 1630 72657375 		.ascii	"result\000"
 21616      6C7400
 21617              	.LASF705:
 21618 1637 5553425F 		.ascii	"USB_READY\000"
 21618      52454144 
 21618      5900
 21619              	.LASF650:
 21620 1641 72656164 		.ascii	"readt\000"
 21620      7400
 21621              	.LASF757:
 21622 1647 47525354 		.ascii	"GRSTCTL\000"
ARM GAS  C:\Users\Moi\AppData\Local\Temp\cchaECY7.s 			page 412


 21622      43544C00 
 21623              	.LASF554:
 21624 164f 67707473 		.ascii	"gptstate_t\000"
 21624      74617465 
 21624      5F7400
 21625              	.LASF140:
 21626 165a 696E7438 		.ascii	"int8_t\000"
 21626      5F7400
 21627              	.LASF29:
 21628 1661 5F5F554C 		.ascii	"__ULong\000"
 21628      6F6E6700 
 21629              	.LASF209:
 21630 1669 70616E69 		.ascii	"panic_msg\000"
 21630      635F6D73 
 21630      6700
 21631              	.LASF863:
 21632 1673 7368656C 		.ascii	"shell_terminated\000"
 21632      6C5F7465 
 21632      726D696E 
 21632      61746564 
 21632      00
 21633              	.LASF676:
 21634 1684 5350495F 		.ascii	"SPI_COMPLETE\000"
 21634      434F4D50 
 21634      4C455445 
 21634      00
 21635              	.LASF298:
 21636 1691 4454494D 		.ascii	"DTIMER\000"
 21636      455200
 21637              	.LASF193:
 21638 1698 725F6E65 		.ascii	"r_newer\000"
 21638      77657200 
 21639              	.LASF722:
 21640 16a0 5553425F 		.ascii	"USB_EVENT_STALLED\000"
 21640      4556454E 
 21640      545F5354 
 21640      414C4C45 
 21640      4400
 21641              	.LASF973:
 21642 16b2 666C6167 		.ascii	"flag\000"
 21642      00
 21643              	.LASF372:
 21644 16b7 63686465 		.ascii	"chdebug_t\000"
 21644      6275675F 
 21644      7400
 21645              	.LASF958:
 21646 16c1 6373697A 		.ascii	"csize\000"
 21646      6500
 21647              	.LASF820:
 21648 16c7 72787369 		.ascii	"rxsize\000"
 21648      7A6500
 21649              	.LASF736:
 21650 16ce 48435453 		.ascii	"HCTSIZ\000"
 21650      495A00
 21651              	.LASF719:
 21652 16d5 5553425F 		.ascii	"USB_EVENT_CONFIGURED\000"
 21652      4556454E 
ARM GAS  C:\Users\Moi\AppData\Local\Temp\cchaECY7.s 			page 413


 21652      545F434F 
 21652      4E464947 
 21652      55524544 
 21653              	.LASF668:
 21654 16ea 64697363 		.ascii	"disconnect\000"
 21654      6F6E6E65 
 21654      637400
 21655              	.LASF934:
 21656 16f5 6F70746F 		.ascii	"optopt\000"
 21656      707400
 21657              	.LASF647:
 21658 16fc 70757474 		.ascii	"putt\000"
 21658      00
 21659              	.LASF152:
 21660 1701 74736C69 		.ascii	"tslices_t\000"
 21660      6365735F 
 21660      7400
 21661              	.LASF104:
 21662 170b 5F737472 		.ascii	"_strtok_last\000"
 21662      746F6B5F 
 21662      6C617374 
 21662      00
 21663              	.LASF1008:
 21664 1718 62756632 		.ascii	"buf2\000"
 21664      00
 21665              	.LASF359:
 21666 171d 63685F74 		.ascii	"ch_timesize\000"
 21666      696D6573 
 21666      697A6500 
 21667              	.LASF701:
 21668 1729 77615F70 		.ascii	"wa_pump\000"
 21668      756D7000 
 21669              	.LASF303:
 21670 1731 4649464F 		.ascii	"FIFOCNT\000"
 21670      434E5400 
 21671              	.LASF384:
 21672 1739 6576656E 		.ascii	"event_source_t\000"
 21672      745F736F 
 21672      75726365 
 21672      5F7400
 21673              	.LASF771:
 21674 1748 72657376 		.ascii	"resvd140\000"
 21674      64313430 
 21674      00
 21675              	.LASF201:
 21676 1751 76745F64 		.ascii	"vt_delta\000"
 21676      656C7461 
 21676      00
 21677              	.LASF100:
 21678 175a 5F736565 		.ascii	"_seed\000"
 21678      6400
 21679              	.LASF324:
 21680 1760 74625F70 		.ascii	"tb_ptr\000"
 21680      747200
 21681              	.LASF531:
 21682 1767 74726967 		.ascii	"trigger\000"
 21682      67657200 
ARM GAS  C:\Users\Moi\AppData\Local\Temp\cchaECY7.s 			page 414


 21683              	.LASF63:
 21684 176f 5F736565 		.ascii	"_seek\000"
 21684      6B00
 21685              	.LASF720:
 21686 1775 5553425F 		.ascii	"USB_EVENT_SUSPEND\000"
 21686      4556454E 
 21686      545F5355 
 21686      5350454E 
 21686      4400
 21687              	.LASF142:
 21688 1787 696E7431 		.ascii	"int16_t\000"
 21688      365F7400 
 21689              	.LASF550:
 21690 178f 4750545F 		.ascii	"GPT_STOP\000"
 21690      53544F50 
 21690      00
 21691              	.LASF236:
 21692 1798 4144435F 		.ascii	"ADC_TypeDef\000"
 21692      54797065 
 21692      44656600 
 21693              	.LASF749:
 21694 17a4 444F4550 		.ascii	"DOEPCTL\000"
 21694      43544C00 
 21695              	.LASF11:
 21696 17ac 73686F72 		.ascii	"short unsigned int\000"
 21696      7420756E 
 21696      7369676E 
 21696      65642069 
 21696      6E7400
 21697              	.LASF592:
 21698 17bf 6F705F6D 		.ascii	"op_mode\000"
 21698      6F646500 
 21699              	.LASF5:
 21700 17c7 7369676E 		.ascii	"signed char\000"
 21700      65642063 
 21700      68617200 
 21701              	.LASF918:
 21702 17d3 70617261 		.ascii	"parameter_t\000"
 21702      6D657465 
 21702      725F7400 
 21703              	.LASF629:
 21704 17df 70776D63 		.ascii	"pwmchnmsk_t\000"
 21704      686E6D73 
 21704      6B5F7400 
 21705              	.LASF173:
 21706 17eb 705F7072 		.ascii	"p_preempt\000"
 21706      65656D70 
 21706      7400
 21707              	.LASF606:
 21708 17f5 4932535F 		.ascii	"I2S_READY\000"
 21708      52454144 
 21708      5900
 21709              	.LASF1120:
 21710 17ff 433A5C55 		.ascii	"C:\\Users\\Moi\\Documents\\_microinfo\\_projet\\hug"
 21710      73657273 
 21710      5C4D6F69 
 21710      5C446F63 
ARM GAS  C:\Users\Moi\AppData\Local\Temp\cchaECY7.s 			page 415


 21710      756D656E 
 21711 182c 756900   		.ascii	"ui\000"
 21712              	.LASF239:
 21713 182f 54444852 		.ascii	"TDHR\000"
 21713      00
 21714              	.LASF966:
 21715 1834 6673697A 		.ascii	"fsize\000"
 21715      6500
 21716              	.LASF453:
 21717 183a 4144435F 		.ascii	"ADC_STOP\000"
 21717      53544F50 
 21717      00
 21718              	.LASF713:
 21719 1843 5553425F 		.ascii	"USB_EP0_RX\000"
 21719      4550305F 
 21719      525800
 21720              	.LASF131:
 21721 184e 5F5F6664 		.ascii	"__fdlibm_ieee\000"
 21721      6C69626D 
 21721      5F696565 
 21721      6500
 21722              	.LASF627:
 21723 185c 70776D6D 		.ascii	"pwmmode_t\000"
 21723      6F64655F 
 21723      7400
 21724              	.LASF1032:
 21725 1866 636D645F 		.ascii	"cmd_volume\000"
 21725      766F6C75 
 21725      6D6500
 21726              	.LASF694:
 21727 1871 73746174 		.ascii	"status\000"
 21727      757300
 21728              	.LASF299:
 21729 1878 444C454E 		.ascii	"DLEN\000"
 21729      00
 21730              	.LASF652:
 21731 187d 5344435F 		.ascii	"SDC_MODE_4BIT\000"
 21731      4D4F4445 
 21731      5F344249 
 21731      5400
 21732              	.LASF726:
 21733 188b 55534244 		.ascii	"USBDescriptor\000"
 21733      65736372 
 21733      6970746F 
 21733      7200
 21734              	.LASF839:
 21735 1899 55534244 		.ascii	"USBD1\000"
 21735      3100
 21736              	.LASF1015:
 21737 189f 636D645F 		.ascii	"cmd_height\000"
 21737      68656967 
 21737      687400
 21738              	.LASF679:
 21739 18aa 73706963 		.ascii	"spicallback_t\000"
 21739      616C6C62 
 21739      61636B5F 
 21739      7400
ARM GAS  C:\Users\Moi\AppData\Local\Temp\cchaECY7.s 			page 416


 21740              	.LASF990:
 21741 18b8 46525F49 		.ascii	"FR_INVALID_OBJECT\000"
 21741      4E56414C 
 21741      49445F4F 
 21741      424A4543 
 21741      5400
 21742              	.LASF1124:
 21743 18ca 5F5F6675 		.ascii	"__func__\000"
 21743      6E635F5F 
 21743      00
 21744              	.LASF87:
 21745 18d3 5F667265 		.ascii	"_freelist\000"
 21745      656C6973 
 21745      7400
 21746              	.LASF1094:
 21747 18dd 636D645F 		.ascii	"cmd_setlabel\000"
 21747      7365746C 
 21747      6162656C 
 21747      00
 21748              	.LASF695:
 21749 18ea 61646472 		.ascii	"address\000"
 21749      65737300 
 21750              	.LASF176:
 21751 18f2 705F6D73 		.ascii	"p_msgqueue\000"
 21751      67717565 
 21751      756500
 21752              	.LASF369:
 21753 18fd 63665F6F 		.ascii	"cf_off_refs\000"
 21753      66665F72 
 21753      65667300 
 21754              	.LASF367:
 21755 1909 63665F6F 		.ascii	"cf_off_state\000"
 21755      66665F73 
 21755      74617465 
 21755      00
 21756              	.LASF351:
 21757 1916 6D5F6F77 		.ascii	"m_owner\000"
 21757      6E657200 
 21758              	.LASF68:
 21759 191e 5F6F6666 		.ascii	"_offset\000"
 21759      73657400 
 21760              	.LASF926:
 21761 1926 5F706172 		.ascii	"_param_val_vector_s\000"
 21761      616D5F76 
 21761      616C5F76 
 21761      6563746F 
 21761      725F7300 
 21762              	.LASF221:
 21763 193a 53797374 		.ascii	"SystemCoreClock\000"
 21763      656D436F 
 21763      7265436C 
 21763      6F636B00 
 21764              	.LASF475:
 21765 194a 61646365 		.ascii	"adcerrorcallback_t\000"
 21765      72726F72 
 21765      63616C6C 
 21765      6261636B 
ARM GAS  C:\Users\Moi\AppData\Local\Temp\cchaECY7.s 			page 417


 21765      5F7400
 21766              	.LASF510:
 21767 195d 4441435F 		.ascii	"DAC_ACTIVE\000"
 21767      41435449 
 21767      564500
 21768              	.LASF852:
 21769 1968 74657374 		.ascii	"test_global_fail\000"
 21769      5F676C6F 
 21769      62616C5F 
 21769      6661696C 
 21769      00
 21770              	.LASF1043:
 21771 1979 636D645F 		.ascii	"cmd_cam_send\000"
 21771      63616D5F 
 21771      73656E64 
 21771      00
 21772              	.LASF465:
 21773 1986 73746174 		.ascii	"state\000"
 21773      6500
 21774              	.LASF879:
 21775 198c 464F524D 		.ascii	"FORMAT_RGB444\000"
 21775      41545F52 
 21775      47423434 
 21775      3400
 21776              	.LASF357:
 21777 199a 63685F76 		.ascii	"ch_version\000"
 21777      65727369 
 21777      6F6E00
 21778              	.LASF53:
 21779 19a5 5F5F7362 		.ascii	"__sbuf\000"
 21779      756600
 21780              	.LASF660:
 21781 19ac 7364696F 		.ascii	"sdio\000"
 21781      00
 21782              	.LASF262:
 21783 19b1 53575452 		.ascii	"SWTRIGR\000"
 21783      49475200 
 21784              	.LASF712:
 21785 19b9 5553425F 		.ascii	"USB_EP0_WAITING_STS\000"
 21785      4550305F 
 21785      57414954 
 21785      494E475F 
 21785      53545300 
 21786              	.LASF113:
 21787 19cd 5F6C3634 		.ascii	"_l64a_buf\000"
 21787      615F6275 
 21787      6600
 21788              	.LASF243:
 21789 19d7 52444852 		.ascii	"RDHR\000"
 21789      00
 21790              	.LASF1077:
 21791 19dc 696E7075 		.ascii	"input\000"
 21791      7400
 21792              	.LASF872:
 21793 19e2 464F524D 		.ascii	"FORMAT_GBRG\000"
 21793      41545F47 
 21793      42524700 
ARM GAS  C:\Users\Moi\AppData\Local\Temp\cchaECY7.s 			page 418


 21794              	.LASF564:
 21795 19ee 444D4152 		.ascii	"DMAR\000"
 21795      00
 21796              	.LASF570:
 21797 19f3 63616C6C 		.ascii	"callback\000"
 21797      6261636B 
 21797      00
 21798              	.LASF214:
 21799 19fc 63685F73 		.ascii	"ch_system\000"
 21799      79737465 
 21799      6D00
 21800              	.LASF291:
 21801 1a06 504F5745 		.ascii	"POWER\000"
 21801      5200
 21802              	.LASF1040:
 21803 1a0c 636D645F 		.ascii	"cmd_set_led\000"
 21803      7365745F 
 21803      6C656400 
 21804              	.LASF212:
 21805 1a18 74726163 		.ascii	"trace_buffer\000"
 21805      655F6275 
 21805      66666572 
 21805      00
 21806              	.LASF105:
 21807 1a25 5F617363 		.ascii	"_asctime_buf\000"
 21807      74696D65 
 21807      5F627566 
 21807      00
 21808              	.LASF529:
 21809 1a32 4441435F 		.ascii	"DAC_DHRM_8BIT_RIGHT\000"
 21809      4448524D 
 21809      5F384249 
 21809      545F5249 
 21809      47485400 
 21810              	.LASF549:
 21811 1a46 4750545F 		.ascii	"GPT_UNINIT\000"
 21811      554E494E 
 21811      495400
 21812              	.LASF22:
 21813 1a51 5F5F7763 		.ascii	"__wch\000"
 21813      6800
 21814              	.LASF1007:
 21815 1a57 4D4C5F46 		.ascii	"ML_FORCE_CHANGE\000"
 21815      4F524345 
 21815      5F434841 
 21815      4E474500 
 21816              	.LASF346:
 21817 1a67 63685F73 		.ascii	"ch_semaphore\000"
 21817      656D6170 
 21817      686F7265 
 21817      00
 21818              	.LASF975:
 21819 1a74 73636C75 		.ascii	"sclust\000"
 21819      737400
 21820              	.LASF120:
 21821 1a7b 5F776373 		.ascii	"_wcsrtombs_state\000"
 21821      72746F6D 
ARM GAS  C:\Users\Moi\AppData\Local\Temp\cchaECY7.s 			page 419


 21821      62735F73 
 21821      74617465 
 21821      00
 21822              	.LASF850:
 21823 1a8c 53657269 		.ascii	"SerialUSBDriverVMT\000"
 21823      616C5553 
 21823      42447269 
 21823      76657256 
 21823      4D5400
 21824              	.LASF899:
 21825 1a9f 64636D69 		.ascii	"dcmistate_t\000"
 21825      73746174 
 21825      655F7400 
 21826              	.LASF745:
 21827 1aab 44494550 		.ascii	"DIEPTSIZ\000"
 21827      5453495A 
 21827      00
 21828              	.LASF1116:
 21829 1ab4 706F7274 		.ascii	"port_unlock\000"
 21829      5F756E6C 
 21829      6F636B00 
 21830              	.LASF924:
 21831 1ac0 5F706172 		.ascii	"_param_val_str_s\000"
 21831      616D5F76 
 21831      616C5F73 
 21831      74725F73 
 21831      00
 21832              	.LASF480:
 21833 1ad1 736D7072 		.ascii	"smpr1\000"
 21833      3100
 21834              	.LASF481:
 21835 1ad7 736D7072 		.ascii	"smpr2\000"
 21835      3200
 21836              	.LASF186:
 21837 1add 74687265 		.ascii	"threads_queue_t\000"
 21837      6164735F 
 21837      71756575 
 21837      655F7400 
 21838              	.LASF418:
 21839 1aed 626C6B73 		.ascii	"blkstate_t\000"
 21839      74617465 
 21839      5F7400
 21840              	.LASF1121:
 21841 1af8 5F5F6664 		.ascii	"__fdlibm_version\000"
 21841      6C69626D 
 21841      5F766572 
 21841      73696F6E 
 21841      00
 21842              	.LASF1125:
 21843 1b09 63685379 		.ascii	"chSysLock\000"
 21843      734C6F63 
 21843      6B00
 21844              	.LASF174:
 21845 1b13 705F7469 		.ascii	"p_time\000"
 21845      6D6500
 21846              	.LASF172:
 21847 1b1a 705F7265 		.ascii	"p_refs\000"
ARM GAS  C:\Users\Moi\AppData\Local\Temp\cchaECY7.s 			page 420


 21847      667300
 21848              	.LASF823:
 21849 1b21 65705F6D 		.ascii	"ep_mode\000"
 21849      6F646500 
 21850              	.LASF628:
 21851 1b29 70776D63 		.ascii	"pwmchannel_t\000"
 21851      68616E6E 
 21851      656C5F74 
 21851      00
 21852              	.LASF955:
 21853 1b36 55494E54 		.ascii	"UINT\000"
 21853      00
 21854              	.LASF238:
 21855 1b3b 54444C52 		.ascii	"TDLR\000"
 21855      00
 21856              	.LASF13:
 21857 1b40 6C6F6E67 		.ascii	"long int\000"
 21857      20696E74 
 21857      00
 21858              	.LASF217:
 21859 1b49 6D61696E 		.ascii	"mainthread\000"
 21859      74687265 
 21859      616400
 21860              	.LASF1102:
 21861 1b54 636D645F 		.ascii	"cmd_unmount\000"
 21861      756E6D6F 
 21861      756E7400 
 21862              	.LASF691:
 21863 1b60 6570306E 		.ascii	"ep0n\000"
 21863      00
 21864              	.LASF804:
 21865 1b65 72657376 		.ascii	"resvdE04\000"
 21865      64453034 
 21865      00
 21866              	.LASF582:
 21867 1b6e 69326361 		.ascii	"i2caddr_t\000"
 21867      6464725F 
 21867      7400
 21868              	.LASF112:
 21869 1b78 5F776374 		.ascii	"_wctomb_state\000"
 21869      6F6D625F 
 21869      73746174 
 21869      6500
 21870              	.LASF517:
 21871 1b86 646D6169 		.ascii	"dmairqprio\000"
 21871      72717072 
 21871      696F00
 21872              	.LASF555:
 21873 1b91 47505444 		.ascii	"GPTDriver\000"
 21873      72697665 
 21873      7200
 21874              	.LASF1086:
 21875 1b9b 636D645F 		.ascii	"cmd_sound_file_stop\000"
 21875      736F756E 
 21875      645F6669 
 21875      6C655F73 
 21875      746F7000 
ARM GAS  C:\Users\Moi\AppData\Local\Temp\cchaECY7.s 			page 421


 21876              	.LASF970:
 21877 1baf 64617461 		.ascii	"database\000"
 21877      62617365 
 21877      00
 21878              	.LASF388:
 21879 1bb8 715F636F 		.ascii	"q_counter\000"
 21879      756E7465 
 21879      7200
 21880              	.LASF447:
 21881 1bc2 50484461 		.ascii	"PHData\000"
 21881      746100
 21882              	.LASF450:
 21883 1bc9 696F706F 		.ascii	"ioportid_t\000"
 21883      72746964 
 21883      5F7400
 21884              	.LASF945:
 21885 1bd4 6D657373 		.ascii	"messagebus_topic_t\000"
 21885      61676562 
 21885      75735F74 
 21885      6F706963 
 21885      5F7400
 21886              	.LASF488:
 21887 1be7 41444344 		.ascii	"ADCD1\000"
 21887      3100
 21888              	.LASF489:
 21889 1bed 41444344 		.ascii	"ADCD2\000"
 21889      3200
 21890              	.LASF490:
 21891 1bf3 41444344 		.ascii	"ADCD3\000"
 21891      3300
 21892              	.LASF963:
 21893 1bf9 6C617374 		.ascii	"last_clust\000"
 21893      5F636C75 
 21893      737400
 21894              	.LASF772:
 21895 1c04 48434647 		.ascii	"HCFG\000"
 21895      00
 21896              	.LASF473:
 21897 1c09 646D616D 		.ascii	"dmamode\000"
 21897      6F646500 
 21898              	.LASF332:
 21899 1c11 63756D75 		.ascii	"cumulative\000"
 21899      6C617469 
 21899      766500
 21900              	.LASF98:
 21901 1c1c 5F696F62 		.ascii	"_iobs\000"
 21901      7300
 21902              	.LASF79:
 21903 1c22 5F656D65 		.ascii	"_emergency\000"
 21903      7267656E 
 21903      637900
 21904              	.LASF648:
 21905 1c2d 67657474 		.ascii	"gett\000"
 21905      00
 21906              	.LASF342:
 21907 1c32 77747472 		.ascii	"wttrp\000"
 21907      7000
ARM GAS  C:\Users\Moi\AppData\Local\Temp\cchaECY7.s 			page 422


 21908              	.LASF392:
 21909 1c38 715F7264 		.ascii	"q_rdptr\000"
 21909      70747200 
 21910              	.LASF122:
 21911 1c40 5F6E6578 		.ascii	"_nextf\000"
 21911      746600
 21912              	.LASF399:
 21913 1c47 77726974 		.ascii	"write\000"
 21913      6500
 21914              	.LASF108:
 21915 1c4d 5F72616E 		.ascii	"_rand_next\000"
 21915      645F6E65 
 21915      787400
 21916              	.LASF643:
 21917 1c58 69717565 		.ascii	"iqueue\000"
 21917      756500
 21918              	.LASF825:
 21919 1c5f 696E5F63 		.ascii	"in_cb\000"
 21919      6200
 21920              	.LASF750:
 21921 1c65 444F4550 		.ascii	"DOEPINT\000"
 21921      494E5400 
 21922              	.LASF331:
 21923 1c6d 6C617374 		.ascii	"last\000"
 21923      00
 21924              	.LASF870:
 21925 1c72 464F524D 		.ascii	"FORMAT_YCRYCB\000"
 21925      41545F59 
 21925      43525943 
 21925      4200
 21926              	.LASF429:
 21927 1c80 4C434B52 		.ascii	"LCKR\000"
 21927      00
 21928              	.LASF640:
 21929 1c85 73647374 		.ascii	"sdstate_t\000"
 21929      6174655F 
 21929      7400
 21930              	.LASF1018:
 21931 1c8f 7368656C 		.ascii	"shelltp\000"
 21931      6C747000 
 21932              	.LASF145:
 21933 1c97 75696E74 		.ascii	"uint32_t\000"
 21933      33325F74 
 21933      00
 21934              	.LASF1034:
 21935 1ca0 636D645F 		.ascii	"cmd_audio_play\000"
 21935      61756469 
 21935      6F5F706C 
 21935      617900
 21936              	.LASF1079:
 21937 1caf 636D645F 		.ascii	"cmd_test\000"
 21937      74657374 
 21937      00
 21938              	.LASF514:
 21939 1cb8 64617461 		.ascii	"dataoffset\000"
 21939      6F666673 
 21939      657400
ARM GAS  C:\Users\Moi\AppData\Local\Temp\cchaECY7.s 			page 423


 21940              	.LASF31:
 21941 1cc3 5F6D6178 		.ascii	"_maxwds\000"
 21941      77647300 
 21942              	.LASF416:
 21943 1ccb 424C4B5F 		.ascii	"BLK_WRITING\000"
 21943      57524954 
 21943      494E4700 
 21944              	.LASF242:
 21945 1cd7 52444C52 		.ascii	"RDLR\000"
 21945      00
 21946              	.LASF908:
 21947 1cdc 43415054 		.ascii	"CAPTURE_ONE_SHOT\000"
 21947      5552455F 
 21947      4F4E455F 
 21947      53484F54 
 21947      00
 21948              	.LASF1117:
 21949 1ced 706F7274 		.ascii	"port_lock\000"
 21949      5F6C6F63 
 21949      6B00
 21950              	.LASF2:
 21951 1cf7 6C6F6E67 		.ascii	"long double\000"
 21951      20646F75 
 21951      626C6500 
 21952              	.LASF314:
 21953 1d03 72656761 		.ascii	"regarm_t\000"
 21953      726D5F74 
 21953      00
 21954              	.LASF155:
 21955 1d0c 6576656E 		.ascii	"eventmask_t\000"
 21955      746D6173 
 21955      6B5F7400 
 21956              	.LASF1072:
 21957 1d18 73747269 		.ascii	"string_buf\000"
 21957      6E675F62 
 21957      756600
 21958              	.LASF468:
 21959 1d23 64657074 		.ascii	"depth\000"
 21959      6800
 21960              	.LASF256:
 21961 1d29 46464131 		.ascii	"FFA1R\000"
 21961      5200
 21962              	.LASF247:
 21963 1d2f 52463152 		.ascii	"RF1R\000"
 21963      00
 21964              	.LASF706:
 21965 1d34 5553425F 		.ascii	"USB_SELECTED\000"
 21965      53454C45 
 21965      43544544 
 21965      00
 21966              	.LASF494:
 21967 1d41 43414E5F 		.ascii	"CAN_READY\000"
 21967      52454144 
 21967      5900
 21968              	.LASF15:
 21969 1d4b 6C6F6E67 		.ascii	"long unsigned int\000"
 21969      20756E73 
ARM GAS  C:\Users\Moi\AppData\Local\Temp\cchaECY7.s 			page 424


 21969      69676E65 
 21969      6420696E 
 21969      7400
 21970              	.LASF698:
 21971 1d5d 706D6E65 		.ascii	"pmnext\000"
 21971      787400
 21972              	.LASF1060:
 21973 1d64 636D645F 		.ascii	"cmd_config_load\000"
 21973      636F6E66 
 21973      69675F6C 
 21973      6F616400 
 21974              	.LASF607:
 21975 1d74 4932535F 		.ascii	"I2S_ACTIVE\000"
 21975      41435449 
 21975      564500
 21976              	.LASF551:
 21977 1d7f 4750545F 		.ascii	"GPT_READY\000"
 21977      52454144 
 21977      5900
 21978              	.LASF513:
 21979 1d89 64616373 		.ascii	"dacstate_t\000"
 21979      74617465 
 21979      5F7400
 21980              	.LASF898:
 21981 1d94 44434D49 		.ascii	"DCMI_TIMEOUT\000"
 21981      5F54494D 
 21981      454F5554 
 21981      00
 21982              	.LASF319:
 21983 1da1 73655F74 		.ascii	"se_tp\000"
 21983      7000
 21984              	.LASF391:
 21985 1da7 715F7772 		.ascii	"q_wrptr\000"
 21985      70747200 
 21986              	.LASF1098:
 21987 1daf 636D645F 		.ascii	"cmd_tree\000"
 21987      74726565 
 21987      00
 21988              	.LASF521:
 21989 1db8 64616373 		.ascii	"dacsample_t\000"
 21989      616D706C 
 21989      655F7400 
 21990              	.LASF718:
 21991 1dc4 5553425F 		.ascii	"USB_EVENT_ADDRESS\000"
 21991      4556454E 
 21991      545F4144 
 21991      44524553 
 21991      5300
 21992              	.LASF615:
 21993 1dd6 69327363 		.ascii	"i2scfgr\000"
 21993      66677200 
 21994              	.LASF841:
 21995 1dde 5344555F 		.ascii	"SDU_STOP\000"
 21995      53544F50 
 21995      00
 21996              	.LASF293:
 21997 1de7 52455350 		.ascii	"RESPCMD\000"
ARM GAS  C:\Users\Moi\AppData\Local\Temp\cchaECY7.s 			page 425


 21997      434D4400 
 21998              	.LASF500:
 21999 1def 72786675 		.ascii	"rxfull_event\000"
 21999      6C6C5F65 
 21999      76656E74 
 21999      00
 22000              	.LASF723:
 22001 1dfc 75736265 		.ascii	"usbevent_t\000"
 22001      76656E74 
 22001      5F7400
 22002              	.LASF64:
 22003 1e07 5F636C6F 		.ascii	"_close\000"
 22003      736500
 22004              	.LASF28:
 22005 1e0e 63686172 		.ascii	"char\000"
 22005      00
 22006              	.LASF889:
 22007 1e13 44434D49 		.ascii	"DCMI_ERR_OVERFLOW\000"
 22007      5F455252 
 22007      5F4F5645 
 22007      52464C4F 
 22007      5700
 22008              	.LASF277:
 22009 1e25 45534352 		.ascii	"ESCR\000"
 22009      00
 22010              	.LASF497:
 22011 1e2a 43414E43 		.ascii	"CANConfig\000"
 22011      6F6E6669 
 22011      6700
 22012              	.LASF444:
 22013 1e34 50454461 		.ascii	"PEData\000"
 22013      746100
 22014              	.LASF190:
 22015 1e3b 725F7175 		.ascii	"r_queue\000"
 22015      65756500 
 22016              	.LASF96:
 22017 1e43 5F676C75 		.ascii	"_glue\000"
 22017      6500
 22018              	.LASF1105:
 22019 1e49 63687072 		.ascii	"chprintf\000"
 22019      696E7466 
 22019      00
 22020              	.LASF949:
 22021 1e52 6D657373 		.ascii	"messagebus_watchgroup_s\000"
 22021      61676562 
 22021      75735F77 
 22021      61746368 
 22021      67726F75 
 22022              	.LASF663:
 22023 1e6a 53444343 		.ascii	"SDCConfig\000"
 22023      6F6E6669 
 22023      6700
 22024              	.LASF625:
 22025 1e74 656E6162 		.ascii	"enabled\000"
 22025      6C656400 
 22026              	.LASF522:
 22027 1e7c 4441435F 		.ascii	"DAC_ERR_DMAFAILURE\000"
ARM GAS  C:\Users\Moi\AppData\Local\Temp\cchaECY7.s 			page 426


 22027      4552525F 
 22027      444D4146 
 22027      41494C55 
 22027      524500
 22028              	.LASF762:
 22029 1e8f 47525846 		.ascii	"GRXFSIZ\000"
 22029      53495A00 
 22030              	.LASF669:
 22031 1e97 73796E63 		.ascii	"sync\000"
 22031      00
 22032              	.LASF645:
 22033 1e9c 75736172 		.ascii	"usart\000"
 22033      7400
 22034              	.LASF1035:
 22035 1ea2 66726571 		.ascii	"freq\000"
 22035      00
 22036              	.LASF280:
 22037 1ea7 43575349 		.ascii	"CWSIZER\000"
 22037      5A455200 
 22038              	.LASF655:
 22039 1eaf 7364636D 		.ascii	"sdcmode_t\000"
 22039      6F64655F 
 22039      7400
 22040              	.LASF394:
 22041 1eb9 715F6C69 		.ascii	"q_link\000"
 22041      6E6B00
 22042              	.LASF1001:
 22043 1ec0 46524553 		.ascii	"FRESULT\000"
 22043      554C5400 
 22044              	.LASF896:
 22045 1ec8 44434D49 		.ascii	"DCMI_COMPLETE\000"
 22045      5F434F4D 
 22045      504C4554 
 22045      4500
 22046              	.LASF903:
 22047 1ed6 64636D69 		.ascii	"dcmierrorcallback_t\000"
 22047      6572726F 
 22047      7263616C 
 22047      6C626163 
 22047      6B5F7400 
 22048              	.LASF985:
 22049 1eea 46525F4E 		.ascii	"FR_NO_FILE\000"
 22049      4F5F4649 
 22049      4C4500
 22050              	.LASF783:
 22051 1ef5 44434647 		.ascii	"DCFG\000"
 22051      00
 22052              	.LASF34:
 22053 1efa 5F426967 		.ascii	"_Bigint\000"
 22053      696E7400 
 22054              	.LASF1108:
 22055 1f02 63685468 		.ascii	"chThdGetSelfX\000"
 22055      64476574 
 22055      53656C66 
 22055      5800
 22056              	.LASF793:
 22057 1f10 44564255 		.ascii	"DVBUSDIS\000"
ARM GAS  C:\Users\Moi\AppData\Local\Temp\cchaECY7.s 			page 427


 22057      53444953 
 22057      00
 22058              	.LASF875:
 22059 1f19 464F524D 		.ascii	"FORMAT_RGB565\000"
 22059      41545F52 
 22059      47423536 
 22059      3500
 22060              	.LASF759:
 22061 1f27 47494E54 		.ascii	"GINTMSK\000"
 22061      4D534B00 
 22062              	.LASF1064:
 22063 1f2f 5F636F6E 		.ascii	"_config_end\000"
 22063      6669675F 
 22063      656E6400 
 22064              	.LASF764:
 22065 1f3b 484E5054 		.ascii	"HNPTXSTS\000"
 22065      58535453 
 22065      00
 22066              	.LASF696:
 22067 1f44 636F6E66 		.ascii	"configuration\000"
 22067      69677572 
 22067      6174696F 
 22067      6E00
 22068              	.LASF873:
 22069 1f52 464F524D 		.ascii	"FORMAT_GRBG\000"
 22069      41545F47 
 22069      52424700 
 22070              	.LASF91:
 22071 1f5e 5F617465 		.ascii	"_atexit0\000"
 22071      78697430 
 22071      00
 22072              	.LASF439:
 22073 1f67 73746D33 		.ascii	"stm32_gpio_setup_t\000"
 22073      325F6770 
 22073      696F5F73 
 22073      65747570 
 22073      5F7400
 22074              	.LASF1006:
 22075 1f7a 4D4C5F57 		.ascii	"ML_WAIT_AND_CHANGE\000"
 22075      4149545F 
 22075      414E445F 
 22075      4348414E 
 22075      474500
 22076              	.LASF408:
 22077 1f8d 5F73746D 		.ascii	"_stm32_dma_streams\000"
 22077      33325F64 
 22077      6D615F73 
 22077      74726561 
 22077      6D7300
 22078              	.LASF264:
 22079 1fa0 44485231 		.ascii	"DHR12L1\000"
 22079      324C3100 
 22080              	.LASF267:
 22081 1fa8 44485231 		.ascii	"DHR12L2\000"
 22081      324C3200 
 22082              	.LASF115:
 22083 1fb0 5F676574 		.ascii	"_getdate_err\000"
ARM GAS  C:\Users\Moi\AppData\Local\Temp\cchaECY7.s 			page 428


 22083      64617465 
 22083      5F657272 
 22083      00
 22084              	.LASF654:
 22085 1fbd 73646362 		.ascii	"sdcbusmode_t\000"
 22085      75736D6F 
 22085      64655F74 
 22085      00
 22086              	.LASF270:
 22087 1fca 44485231 		.ascii	"DHR12LD\000"
 22087      324C4400 
 22088              	.LASF218:
 22089 1fd2 6B65726E 		.ascii	"kernel_stats\000"
 22089      656C5F73 
 22089      74617473 
 22089      00
 22090              	.LASF474:
 22091 1fdf 61646363 		.ascii	"adccallback_t\000"
 22091      616C6C62 
 22091      61636B5F 
 22091      7400
 22092              	.LASF951:
 22093 1fed 6D657373 		.ascii	"messagebus_watchgroup_t\000"
 22093      61676562 
 22093      75735F77 
 22093      61746368 
 22093      67726F75 
 22094              	.LASF169:
 22095 2005 705F7374 		.ascii	"p_stklimit\000"
 22095      6B6C696D 
 22095      697400
 22096              	.LASF961:
 22097 2010 6673695F 		.ascii	"fsi_flag\000"
 22097      666C6167 
 22097      00
 22098              	.LASF993:
 22099 2019 46525F4E 		.ascii	"FR_NOT_ENABLED\000"
 22099      4F545F45 
 22099      4E41424C 
 22099      454400
 22100              	.LASF157:
 22101 2028 636E745F 		.ascii	"cnt_t\000"
 22101      7400
 22102              	.LASF540:
 22103 202e 65787473 		.ascii	"extstate_t\000"
 22103      74617465 
 22103      5F7400
 22104              	.LASF711:
 22105 2039 5553425F 		.ascii	"USB_EP0_WAITING_TX0\000"
 22105      4550305F 
 22105      57414954 
 22105      494E475F 
 22105      54583000 
 22106              	.LASF690:
 22107 204d 6570306E 		.ascii	"ep0next\000"
 22107      65787400 
 22108              	.LASF740:
ARM GAS  C:\Users\Moi\AppData\Local\Temp\cchaECY7.s 			page 429


 22109 2055 73746D33 		.ascii	"stm32_otg_host_chn_t\000"
 22109      325F6F74 
 22109      675F686F 
 22109      73745F63 
 22109      686E5F74 
 22110              	.LASF431:
 22111 206a 41465248 		.ascii	"AFRH\000"
 22111      00
 22112              	.LASF851:
 22113 206f 62756666 		.ascii	"buffer\000"
 22113      657200
 22114              	.LASF430:
 22115 2076 4146524C 		.ascii	"AFRL\000"
 22115      00
 22116              	.LASF878:
 22117 207b 464F524D 		.ascii	"FORMAT_BGR565_BYTE_SWAP\000"
 22117      41545F42 
 22117      47523536 
 22117      355F4259 
 22117      54455F53 
 22118              	.LASF854:
 22119 2093 74657374 		.ascii	"test\000"
 22119      00
 22120              	.LASF127:
 22121 2098 5F696D70 		.ascii	"_impure_ptr\000"
 22121      7572655F 
 22121      70747200 
 22122              	.LASF370:
 22123 20a4 63665F6F 		.ascii	"cf_off_preempt\000"
 22123      66665F70 
 22123      7265656D 
 22123      707400
 22124              	.LASF857:
 22125 20b3 73635F6E 		.ascii	"sc_name\000"
 22125      616D6500 
 22126              	.LASF511:
 22127 20bb 4441435F 		.ascii	"DAC_COMPLETE\000"
 22127      434F4D50 
 22127      4C455445 
 22127      00
 22128              	.LASF67:
 22129 20c8 5F626C6B 		.ascii	"_blksize\000"
 22129      73697A65 
 22129      00
 22130              	.LASF1039:
 22131 20d1 73706565 		.ascii	"speed_right\000"
 22131      645F7269 
 22131      67687400 
 22132              	.LASF735:
 22133 20dd 4843494E 		.ascii	"HCINTMSK\000"
 22133      544D534B 
 22133      00
 22134              	.LASF65:
 22135 20e6 5F756275 		.ascii	"_ubuf\000"
 22135      6600
 22136              	.LASF466:
 22137 20ec 636F6E66 		.ascii	"config\000"
ARM GAS  C:\Users\Moi\AppData\Local\Temp\cchaECY7.s 			page 430


 22137      696700
 22138              	.LASF574:
 22139 20f3 47505444 		.ascii	"GPTD11\000"
 22139      313100
 22140              	.LASF110:
 22141 20fa 5F6D626C 		.ascii	"_mblen_state\000"
 22141      656E5F73 
 22141      74617465 
 22141      00
 22142              	.LASF93:
 22143 2107 5F5F7367 		.ascii	"__sglue\000"
 22143      6C756500 
 22144              	.LASF126:
 22145 210f 5F5F6C6F 		.ascii	"__locale_t\000"
 22145      63616C65 
 22145      5F7400
 22146              	.LASF412:
 22147 211a 424C4B5F 		.ascii	"BLK_CONNECTING\000"
 22147      434F4E4E 
 22147      45435449 
 22147      4E4700
 22148              	.LASF83:
 22149 2129 5F5F636C 		.ascii	"__cleanup\000"
 22149      65616E75 
 22149      7000
 22150              	.LASF507:
 22151 2133 4441435F 		.ascii	"DAC_UNINIT\000"
 22151      554E494E 
 22151      495400
 22152              	.LASF460:
 22153 213e 6164635F 		.ascii	"adc_channels_num_t\000"
 22153      6368616E 
 22153      6E656C73 
 22153      5F6E756D 
 22153      5F7400
 22154              	.LASF196:
 22155 2151 76746675 		.ascii	"vtfunc_t\000"
 22155      6E635F74 
 22155      00
 22156              	.LASF244:
 22157 215a 43414E5F 		.ascii	"CAN_FIFOMailBox_TypeDef\000"
 22157      4649464F 
 22157      4D61696C 
 22157      426F785F 
 22157      54797065 
 22158              	.LASF274:
 22159 2172 4441435F 		.ascii	"DAC_TypeDef\000"
 22159      54797065 
 22159      44656600 
 22160              	.LASF1107:
 22161 217e 63685468 		.ascii	"chThdGetPriorityX\000"
 22161      64476574 
 22161      5072696F 
 22161      72697479 
 22161      5800
 22162              	.LASF341:
 22163 2190 77746F62 		.ascii	"wtobjp\000"
ARM GAS  C:\Users\Moi\AppData\Local\Temp\cchaECY7.s 			page 431


 22163      6A7000
 22164              	.LASF1061:
 22165 2197 5F636F6E 		.ascii	"_config_start\000"
 22165      6669675F 
 22165      73746172 
 22165      7400
 22166              	.LASF20:
 22167 21a5 5F66706F 		.ascii	"_fpos_t\000"
 22167      735F7400 
 22168              	.LASF527:
 22169 21ad 4441435F 		.ascii	"DAC_DHRM_12BIT_RIGHT\000"
 22169      4448524D 
 22169      5F313242 
 22169      49545F52 
 22169      49474854 
 22170              	.LASF58:
 22171 21c2 5F66696C 		.ascii	"_file\000"
 22171      6500
 22172              	.LASF180:
 22173 21c8 705F7265 		.ascii	"p_realprio\000"
 22173      616C7072 
 22173      696F00
 22174              	.LASF658:
 22175 21d3 63617061 		.ascii	"capacity\000"
 22175      63697479 
 22175      00
 22176              	.LASF849:
 22177 21dc 53657269 		.ascii	"SerialUSBConfig\000"
 22177      616C5553 
 22177      42436F6E 
 22177      66696700 
 22178              	.LASF393:
 22179 21ec 715F6E6F 		.ascii	"q_notify\000"
 22179      74696679 
 22179      00
 22180              	.LASF344:
 22181 21f5 77746D74 		.ascii	"wtmtxp\000"
 22181      787000
 22182              	.LASF56:
 22183 21fc 5F5F7346 		.ascii	"__sFILE\000"
 22183      494C4500 
 22184              	.LASF1095:
 22185 2204 636D645F 		.ascii	"cmd_mkdir\000"
 22185      6D6B6469 
 22185      7200
 22186              	.LASF130:
 22187 220e 646F7562 		.ascii	"double\000"
 22187      6C6500
 22188              	.LASF52:
 22189 2215 5F666E73 		.ascii	"_fns\000"
 22189      00
 22190              	.LASF904:
 22191 221a 6672616D 		.ascii	"frame_end_cb\000"
 22191      655F656E 
 22191      645F6362 
 22191      00
 22192              	.LASF1114:
ARM GAS  C:\Users\Moi\AppData\Local\Temp\cchaECY7.s 			page 432


 22193 2227 63685654 		.ascii	"chVTGetSystemTimeX\000"
 22193      47657453 
 22193      79737465 
 22193      6D54696D 
 22193      655800
 22194              	.LASF822:
 22195 223a 5553424F 		.ascii	"USBOutEndpointState\000"
 22195      7574456E 
 22195      64706F69 
 22195      6E745374 
 22195      61746500 
 22196              	.LASF779:
 22197 224e 72657376 		.ascii	"resvd41C\000"
 22197      64343143 
 22197      00
 22198              	.LASF920:
 22199 2257 6368616E 		.ascii	"changed\000"
 22199      67656400 
 22200              	.LASF26:
 22201 225f 5F6D6273 		.ascii	"_mbstate_t\000"
 22201      74617465 
 22201      5F7400
 22202              	.LASF121:
 22203 226a 5F685F65 		.ascii	"_h_errno\000"
 22203      72726E6F 
 22203      00
 22204              	.LASF1002:
 22205 2273 53465F53 		.ascii	"SF_SIMPLE_PLAY\000"
 22205      494D504C 
 22205      455F504C 
 22205      415900
 22206              	.LASF241:
 22207 2282 52445452 		.ascii	"RDTR\000"
 22207      00
 22208              	.LASF420:
 22209 2287 626C6B5F 		.ascii	"blk_num\000"
 22209      6E756D00 
 22210              	.LASF1118:
 22211 228f 474E5520 		.ascii	"GNU C11 7.2.1 20170904 (release) [ARM/embedded-7-br"
 22211      43313120 
 22211      372E322E 
 22211      31203230 
 22211      31373039 
 22212 22c2 616E6368 		.ascii	"anch revision 255204] -mcpu=cortex-m4 -mfloat-abi=h"
 22212      20726576 
 22212      6973696F 
 22212      6E203235 
 22212      35323034 
 22213 22f5 61726420 		.ascii	"ard -mfpu=fpv4-sp-d16 -mno-thumb-interwork -mthumb "
 22213      2D6D6670 
 22213      753D6670 
 22213      76342D73 
 22213      702D6431 
 22214 2328 2D676764 		.ascii	"-ggdb -fomit-frame-pointer -falign-functions=16 -fs"
 22214      62202D66 
 22214      6F6D6974 
 22214      2D667261 
ARM GAS  C:\Users\Moi\AppData\Local\Temp\cchaECY7.s 			page 433


 22214      6D652D70 
 22215 235b 7461636B 		.ascii	"tack-protector-all -ffunction-sections -fdata-secti"
 22215      2D70726F 
 22215      74656374 
 22215      6F722D61 
 22215      6C6C202D 
 22216 238e 6F6E7320 		.ascii	"ons -fno-common -fsingle-precision-constant\000"
 22216      2D666E6F 
 22216      2D636F6D 
 22216      6D6F6E20 
 22216      2D667369 
 22217              	.LASF858:
 22218 23ba 73635F66 		.ascii	"sc_function\000"
 22218      756E6374 
 22218      696F6E00 
 22219              	.LASF1023:
 22220 23c6 61726776 		.ascii	"argv\000"
 22220      00
 22221              	.LASF1123:
 22222 23cb 65786974 		.ascii	"exittest\000"
 22222      74657374 
 22222      00
 22223              	.LASF717:
 22224 23d4 5553425F 		.ascii	"USB_EVENT_RESET\000"
 22224      4556454E 
 22224      545F5245 
 22224      53455400 
 22225              	.LASF871:
 22226 23e4 464F524D 		.ascii	"FORMAT_RGGB\000"
 22226      41545F52 
 22226      47474200 
 22227              	.LASF189:
 22228 23f0 63685F72 		.ascii	"ch_ready_list\000"
 22228      65616479 
 22228      5F6C6973 
 22228      7400
 22229              	.LASF944:
 22230 23fe 67726F75 		.ascii	"group\000"
 22230      7000
 22231              	.LASF427:
 22232 2404 50555044 		.ascii	"PUPDR\000"
 22232      5200
 22233              	.LASF1019:
 22234 240a 7368656C 		.ascii	"shell_cfg\000"
 22234      6C5F6366 
 22234      6700
 22235              	.LASF12:
 22236 2414 5F5F696E 		.ascii	"__int32_t\000"
 22236      7433325F 
 22236      7400
 22237              	.LASF1109:
 22238 241e 63685654 		.ascii	"chVTIsSystemTimeWithin\000"
 22238      49735379 
 22238      7374656D 
 22238      54696D65 
 22238      57697468 
 22239              	.LASF14:
ARM GAS  C:\Users\Moi\AppData\Local\Temp\cchaECY7.s 			page 434


 22240 2435 5F5F7569 		.ascii	"__uint32_t\000"
 22240      6E743332 
 22240      5F7400
 22241              	.LASF208:
 22242 2440 63685F73 		.ascii	"ch_system_debug\000"
 22242      79737465 
 22242      6D5F6465 
 22242      62756700 
 22243              	.LASF790:
 22244 2450 4441494E 		.ascii	"DAINTMSK\000"
 22244      544D534B 
 22244      00
 22245              	.LASF1048:
 22246 2459 63617074 		.ascii	"capture_mode\000"
 22246      7572655F 
 22246      6D6F6465 
 22246      00
 22247              	.LASF894:
 22248 2466 44434D49 		.ascii	"DCMI_ACTIVE_STREAM\000"
 22248      5F414354 
 22248      4956455F 
 22248      53545245 
 22248      414D00
 22249              	.LASF547:
 22250 2479 45585443 		.ascii	"EXTConfig\000"
 22250      6F6E6669 
 22250      6700
 22251              	.LASF912:
 22252 2483 70617261 		.ascii	"parameter_namespace_s\000"
 22252      6D657465 
 22252      725F6E61 
 22252      6D657370 
 22252      6163655F 
 22253              	.LASF25:
 22254 2499 5F5F7661 		.ascii	"__value\000"
 22254      6C756500 
 22255              	.LASF709:
 22256 24a1 5553425F 		.ascii	"USB_EP0_WAITING_SETUP\000"
 22256      4550305F 
 22256      57414954 
 22256      494E475F 
 22256      53455455 
 22257              	.LASF49:
 22258 24b7 5F69735F 		.ascii	"_is_cxa\000"
 22258      63786100 
 22259              	.LASF415:
 22260 24bf 424C4B5F 		.ascii	"BLK_READING\000"
 22260      52454144 
 22260      494E4700 
 22261              	.LASF1045:
 22262 24cb 636D645F 		.ascii	"cmd_cam_capture\000"
 22262      63616D5F 
 22262      63617074 
 22262      75726500 
 22263              	.LASF437:
 22264 24db 6166726C 		.ascii	"afrl\000"
 22264      00
ARM GAS  C:\Users\Moi\AppData\Local\Temp\cchaECY7.s 			page 435


 22265              	.LASF812:
 22266 24e0 71756575 		.ascii	"queue\000"
 22266      6500
 22267              	.LASF989:
 22268 24e6 46525F45 		.ascii	"FR_EXIST\000"
 22268      58495354 
 22268      00
 22269              	.LASF983:
 22270 24ef 46525F49 		.ascii	"FR_INT_ERR\000"
 22270      4E545F45 
 22270      525200
 22271              	.LASF692:
 22272 24fa 65703065 		.ascii	"ep0endcb\000"
 22272      6E646362 
 22272      00
 22273              	.LASF405:
 22274 2503 73656C66 		.ascii	"selfindex\000"
 22274      696E6465 
 22274      7800
 22275              	.LASF374:
 22276 250d 6D757465 		.ascii	"mutex_t\000"
 22276      785F7400 
 22277              	.LASF86:
 22278 2515 5F703573 		.ascii	"_p5s\000"
 22278      00
 22279              	.LASF178:
 22280 251a 705F6570 		.ascii	"p_epending\000"
 22280      656E6469 
 22280      6E6700
 22281              	.LASF992:
 22282 2525 46525F49 		.ascii	"FR_INVALID_DRIVE\000"
 22282      4E56414C 
 22282      49445F44 
 22282      52495645 
 22282      00
 22283              	.LASF424:
 22284 2536 4D4F4445 		.ascii	"MODER\000"
 22284      5200
 22285              	.LASF1090:
 22286 253c 42756666 		.ascii	"Buffer\000"
 22286      657200
 22287              	.LASF881:
 22288 2543 464F524D 		.ascii	"FORMAT_DPC_BAYER\000"
 22288      41545F44 
 22288      50435F42 
 22288      41594552 
 22288      00
 22289              	.LASF980:
 22290 2554 636C7462 		.ascii	"cltbl\000"
 22290      6C00
 22291              	.LASF608:
 22292 255a 4932535F 		.ascii	"I2S_COMPLETE\000"
 22292      434F4D50 
 22292      4C455445 
 22292      00
 22293              	.LASF876:
 22294 2567 464F524D 		.ascii	"FORMAT_RGB565_BYTE_SWAP\000"
ARM GAS  C:\Users\Moi\AppData\Local\Temp\cchaECY7.s 			page 436


 22294      41545F52 
 22294      47423536 
 22294      355F4259 
 22294      54455F53 
 22295              	.LASF942:
 22296 257f 77617463 		.ascii	"watchers\000"
 22296      68657273 
 22296      00
 22297              	.LASF248:
 22298 2588 52455345 		.ascii	"RESERVED0\000"
 22298      52564544 
 22298      3000
 22299              	.LASF251:
 22300 2592 52455345 		.ascii	"RESERVED1\000"
 22300      52564544 
 22300      3100
 22301              	.LASF253:
 22302 259c 52455345 		.ascii	"RESERVED2\000"
 22302      52564544 
 22302      3200
 22303              	.LASF255:
 22304 25a6 52455345 		.ascii	"RESERVED3\000"
 22304      52564544 
 22304      3300
 22305              	.LASF257:
 22306 25b0 52455345 		.ascii	"RESERVED4\000"
 22306      52564544 
 22306      3400
 22307              	.LASF259:
 22308 25ba 52455345 		.ascii	"RESERVED5\000"
 22308      52564544 
 22308      3500
 22309              	.LASF833:
 22310 25c4 55534245 		.ascii	"USBEndpointConfig\000"
 22310      6E64706F 
 22310      696E7443 
 22310      6F6E6669 
 22310      6700
 22311              	.LASF263:
 22312 25d6 44485231 		.ascii	"DHR12R1\000"
 22312      32523100 
 22313              	.LASF266:
 22314 25de 44485231 		.ascii	"DHR12R2\000"
 22314      32523200 
 22315              	.LASF543:
 22316 25e6 65787463 		.ascii	"extcallback_t\000"
 22316      616C6C62 
 22316      61636B5F 
 22316      7400
 22317              	.LASF499:
 22318 25f4 72787175 		.ascii	"rxqueue\000"
 22318      65756500 
 22319              	.LASF318:
 22320 25fc 73655F74 		.ascii	"se_time\000"
 22320      696D6500 
 22321              	.LASF781:
 22322 2604 72657376 		.ascii	"resvd444\000"
ARM GAS  C:\Users\Moi\AppData\Local\Temp\cchaECY7.s 			page 437


 22322      64343434 
 22322      00
 22323              	.LASF451:
 22324 260d 70616C5F 		.ascii	"pal_default_config\000"
 22324      64656661 
 22324      756C745F 
 22324      636F6E66 
 22324      696700
 22325              	.LASF862:
 22326 2620 5368656C 		.ascii	"ShellConfig\000"
 22326      6C436F6E 
 22326      66696700 
 22327              	.LASF469:
 22328 262c 67727070 		.ascii	"grpp\000"
 22328      00
 22329              	.LASF269:
 22330 2631 44485231 		.ascii	"DHR12RD\000"
 22330      32524400 
 22331              	.LASF378:
 22332 2639 656C5F6C 		.ascii	"el_listener\000"
 22332      69737465 
 22332      6E657200 
 22333              	.LASF811:
 22334 2645 6C696E65 		.ascii	"linear\000"
 22334      617200
 22335              	.LASF893:
 22336 264c 44434D49 		.ascii	"DCMI_READY\000"
 22336      5F524541 
 22336      445900
 22337              	.LASF1003:
 22338 2657 53465F57 		.ascii	"SF_WAIT_AND_CHANGE\000"
 22338      4149545F 
 22338      414E445F 
 22338      4348414E 
 22338      474500
 22339              	.LASF960:
 22340 266a 77666C61 		.ascii	"wflag\000"
 22340      6700
 22341              	.LASF567:
 22342 2670 73746D33 		.ascii	"stm32_tim_t\000"
 22342      325F7469 
 22342      6D5F7400 
 22343              	.LASF1036:
 22344 267c 636D645F 		.ascii	"cmd_get_battery\000"
 22344      6765745F 
 22344      62617474 
 22344      65727900 
 22345              	.LASF868:
 22346 268c 464F524D 		.ascii	"FORMAT_CRYCBY\000"
 22346      41545F43 
 22346      52594342 
 22346      5900
 22347              	.LASF191:
 22348 269a 725F7072 		.ascii	"r_prio\000"
 22348      696F00
 22349              	.LASF276:
 22350 26a1 4D495352 		.ascii	"MISR\000"
ARM GAS  C:\Users\Moi\AppData\Local\Temp\cchaECY7.s 			page 438


 22350      00
 22351              	.LASF220:
 22352 26a6 49544D5F 		.ascii	"ITM_RxBuffer\000"
 22352      52784275 
 22352      66666572 
 22352      00
 22353              	.LASF981:
 22354 26b3 46525F4F 		.ascii	"FR_OK\000"
 22354      4B00
 22355              	.LASF936:
 22356 26b9 746F7069 		.ascii	"topic_s\000"
 22356      635F7300 
 22357              	.LASF855:
 22358 26c1 74657374 		.ascii	"test_timer_done\000"
 22358      5F74696D 
 22358      65725F64 
 22358      6F6E6500 
 22359              	.LASF421:
 22360 26d1 426C6F63 		.ascii	"BlockDeviceInfo\000"
 22360      6B446576 
 22360      69636549 
 22360      6E666F00 
 22361              	.LASF17:
 22362 26e1 6C6F6E67 		.ascii	"long long unsigned int\000"
 22362      206C6F6E 
 22362      6720756E 
 22362      7369676E 
 22362      65642069 
 22363              	.LASF305:
 22364 26f8 5344494F 		.ascii	"SDIO_TypeDef\000"
 22364      5F547970 
 22364      65446566 
 22364      00
 22365              	.LASF327:
 22366 2705 6F666673 		.ascii	"offset\000"
 22366      657400
 22367              	.LASF869:
 22368 270c 464F524D 		.ascii	"FORMAT_YCBYCR\000"
 22368      41545F59 
 22368      43425943 
 22368      5200
 22369              	.LASF683:
 22370 271a 53504944 		.ascii	"SPID1\000"
 22370      3100
 22371              	.LASF947:
 22372 2720 746F7069 		.ascii	"topics\000"
 22372      637300
 22373              	.LASF1115:
 22374 2727 63685379 		.ascii	"chSysUnlock\000"
 22374      73556E6C 
 22374      6F636B00 
 22375              	.LASF282:
 22376 2733 4E445452 		.ascii	"NDTR\000"
 22376      00
 22377              	.LASF383:
 22378 2738 65735F6E 		.ascii	"es_next\000"
 22378      65787400 
ARM GAS  C:\Users\Moi\AppData\Local\Temp\cchaECY7.s 			page 439


 22379              	.LASF107:
 22380 2740 5F67616D 		.ascii	"_gamma_signgam\000"
 22380      6D615F73 
 22380      69676E67 
 22380      616D00
 22381              	.LASF747:
 22382 274f 72657376 		.ascii	"resvd1C\000"
 22382      64314300 
 22383              	.LASF219:
 22384 2757 69646C65 		.ascii	"idle_thread_wa\000"
 22384      5F746872 
 22384      6561645F 
 22384      776100
 22385              	.LASF743:
 22386 2766 44494550 		.ascii	"DIEPINT\000"
 22386      494E5400 
 22387              	.LASF984:
 22388 276e 46525F4E 		.ascii	"FR_NOT_READY\000"
 22388      4F545F52 
 22388      45414459 
 22388      00
 22389              	.LASF311:
 22390 277b 5350495F 		.ascii	"SPI_TypeDef\000"
 22390      54797065 
 22390      44656600 
 22391              	.LASF202:
 22392 2787 76745F66 		.ascii	"vt_func\000"
 22392      756E6300 
 22393              	.LASF558:
 22394 278f 534D4352 		.ascii	"SMCR\000"
 22394      00
 22395              	.LASF1012:
 22396 2794 636D645F 		.ascii	"cmd_x1\000"
 22396      783100
 22397              	.LASF788:
 22398 279b 444F4550 		.ascii	"DOEPMSK\000"
 22398      4D534B00 
 22399              	.LASF885:
 22400 27a3 53554253 		.ascii	"SUBSAMPLING_X2\000"
 22400      414D504C 
 22400      494E475F 
 22400      583200
 22401              	.LASF886:
 22402 27b2 53554253 		.ascii	"SUBSAMPLING_X4\000"
 22402      414D504C 
 22402      494E475F 
 22402      583400
 22403              	.LASF198:
 22404 27c1 63685F76 		.ascii	"ch_virtual_timer\000"
 22404      69727475 
 22404      616C5F74 
 22404      696D6572 
 22404      00
 22405              	.LASF171:
 22406 27d2 705F666C 		.ascii	"p_flags\000"
 22406      61677300 
 22407              	.LASF345:
ARM GAS  C:\Users\Moi\AppData\Local\Temp\cchaECY7.s 			page 440


 22408 27da 65776D61 		.ascii	"ewmask\000"
 22408      736B00
 22409              	.LASF380:
 22410 27e1 656C5F66 		.ascii	"el_flags\000"
 22410      6C616773 
 22410      00
 22411              	.LASF1091:
 22412 27ea 42797465 		.ascii	"ByteToRead\000"
 22412      546F5265 
 22412      616400
 22413              	.LASF382:
 22414 27f5 6576656E 		.ascii	"event_source\000"
 22414      745F736F 
 22414      75726365 
 22414      00
 22415              	.LASF179:
 22416 2802 705F6D74 		.ascii	"p_mtxlist\000"
 22416      786C6973 
 22416      7400
 22417              	.LASF1101:
 22418 280c 636C7573 		.ascii	"cluster_size\000"
 22418      7465725F 
 22418      73697A65 
 22418      00
 22419              	.LASF506:
 22420 2819 43414E44 		.ascii	"CAND1\000"
 22420      3100
 22421              	.LASF254:
 22422 281f 46533152 		.ascii	"FS1R\000"
 22422      00
 22423              	.LASF1013:
 22424 2824 636D645F 		.ascii	"cmd_y1\000"
 22424      793100
 22425              	.LASF150:
 22426 282b 74737461 		.ascii	"tstate_t\000"
 22426      74655F74 
 22426      00
 22427              	.LASF128:
 22428 2834 5F676C6F 		.ascii	"_global_impure_ptr\000"
 22428      62616C5F 
 22428      696D7075 
 22428      72655F70 
 22428      747200
 22429              	.LASF789:
 22430 2847 4441494E 		.ascii	"DAINT\000"
 22430      5400
 22431              	.LASF682:
 22432 284d 53504943 		.ascii	"SPIConfig\000"
 22432      6F6E6669 
 22432      6700
 22433              	.LASF80:
 22434 2857 5F756E73 		.ascii	"_unspecified_locale_info\000"
 22434      70656369 
 22434      66696564 
 22434      5F6C6F63 
 22434      616C655F 
 22435              	.LASF436:
ARM GAS  C:\Users\Moi\AppData\Local\Temp\cchaECY7.s 			page 441


 22436 2870 70757064 		.ascii	"pupdr\000"
 22436      7200
 22437              	.LASF526:
 22438 2876 64616365 		.ascii	"dacerrorcallback_t\000"
 22438      72726F72 
 22438      63616C6C 
 22438      6261636B 
 22438      5F7400
 22439              	.LASF957:
 22440 2889 66735F74 		.ascii	"fs_type\000"
 22440      79706500 
 22441              	.LASF901:
 22442 2891 64636D69 		.ascii	"dcmi\000"
 22442      00
 22443              	.LASF685:
 22444 2896 7472616E 		.ascii	"transmitting\000"
 22444      736D6974 
 22444      74696E67 
 22444      00
 22445              	.LASF546:
 22446 28a3 6368616E 		.ascii	"channels\000"
 22446      6E656C73 
 22446      00
 22447              	.LASF292:
 22448 28ac 434C4B43 		.ascii	"CLKCR\000"
 22448      5200
 22449              	.LASF657:
 22450 28b2 53444344 		.ascii	"SDCDriver\000"
 22450      72697665 
 22450      7200
 22451              	.LASF986:
 22452 28bc 46525F4E 		.ascii	"FR_NO_PATH\000"
 22452      4F5F5041 
 22452      544800
 22453              	.LASF168:
 22454 28c7 705F6E61 		.ascii	"p_name\000"
 22454      6D6500
 22455              	.LASF82:
 22456 28ce 5F5F7364 		.ascii	"__sdidinit\000"
 22456      6964696E 
 22456      697400
 22457              	.LASF641:
 22458 28d9 53657269 		.ascii	"SerialDriver\000"
 22458      616C4472 
 22458      69766572 
 22458      00
 22459              	.LASF232:
 22460 28e6 4A445231 		.ascii	"JDR1\000"
 22460      00
 22461              	.LASF134:
 22462 28eb 5F5F6664 		.ascii	"__fdlibm_posix\000"
 22462      6C69626D 
 22462      5F706F73 
 22462      697800
 22463              	.LASF234:
 22464 28fa 4A445233 		.ascii	"JDR3\000"
 22464      00
ARM GAS  C:\Users\Moi\AppData\Local\Temp\cchaECY7.s 			page 442


 22465              	.LASF235:
 22466 28ff 4A445234 		.ascii	"JDR4\000"
 22466      00
 22467              	.LASF751:
 22468 2904 444F4550 		.ascii	"DOEPTSIZ\000"
 22468      5453495A 
 22468      00
 22469              	.LASF138:
 22470 290d 5F5F6170 		.ascii	"__ap\000"
 22470      00
 22471              	.LASF1009:
 22472 2912 636D645F 		.ascii	"cmd_fmt\000"
 22472      666D7400 
 22473              	.LASF454:
 22474 291a 4144435F 		.ascii	"ADC_READY\000"
 22474      52454144 
 22474      5900
 22475              	.LASF362:
 22476 2924 63665F6F 		.ascii	"cf_off_ctx\000"
 22476      66665F63 
 22476      747800
 22477              	.LASF940:
 22478 292f 6E616D65 		.ascii	"name\000"
 22478      00
 22479              	.LASF27:
 22480 2934 5F666C6F 		.ascii	"_flock_t\000"
 22480      636B5F74 
 22480      00
 22481              	.LASF204:
 22482 293d 76697274 		.ascii	"virtual_timers_list_t\000"
 22482      75616C5F 
 22482      74696D65 
 22482      72735F6C 
 22482      6973745F 
 22483              	.LASF1031:
 22484 2953 68656164 		.ascii	"header\000"
 22484      657200
 22485              	.LASF997:
 22486 295a 46525F4C 		.ascii	"FR_LOCKED\000"
 22486      4F434B45 
 22486      4400
 22487              	.LASF1046:
 22488 2964 636D645F 		.ascii	"cmd_cam_dcmi_unprepare\000"
 22488      63616D5F 
 22488      64636D69 
 22488      5F756E70 
 22488      72657061 
 22489              	.LASF775:
 22490 297b 72657376 		.ascii	"resvd40C\000"
 22490      64343043 
 22490      00
 22491              	.LASF476:
 22492 2984 63697263 		.ascii	"circular\000"
 22492      756C6172 
 22492      00
 22493              	.LASF609:
 22494 298d 69327373 		.ascii	"i2sstate_t\000"
ARM GAS  C:\Users\Moi\AppData\Local\Temp\cchaECY7.s 			page 443


 22494      74617465 
 22494      5F7400
 22495              	.LASF433:
 22496 2998 6D6F6465 		.ascii	"moder\000"
 22496      7200
 22497              	.LASF678:
 22498 299e 53504944 		.ascii	"SPIDriver\000"
 22498      72697665 
 22498      7200
 22499              	.LASF347:
 22500 29a8 735F7175 		.ascii	"s_queue\000"
 22500      65756500 
 22501              	.LASF336:
 22502 29b0 6D5F6372 		.ascii	"m_crit_thd\000"
 22502      69745F74 
 22502      686400
 22503              	.LASF508:
 22504 29bb 4441435F 		.ascii	"DAC_STOP\000"
 22504      53544F50 
 22504      00
 22505              	.LASF782:
 22506 29c4 72657376 		.ascii	"resvd700\000"
 22506      64373030 
 22506      00
 22507              	.LASF309:
 22508 29cd 49325343 		.ascii	"I2SCFGR\000"
 22508      46475200 
 22509              	.LASF1055:
 22510 29d5 636D645F 		.ascii	"cmd_cam_set_mirror\000"
 22510      63616D5F 
 22510      7365745F 
 22510      6D697272 
 22510      6F7200
 22511              	.LASF845:
 22512 29e8 75736270 		.ascii	"usbp\000"
 22512      00
 22513              	.LASF932:
 22514 29ed 6F707469 		.ascii	"optind\000"
 22514      6E6400
 22515              	.LASF354:
 22516 29f4 63685F69 		.ascii	"ch_identifier\000"
 22516      64656E74 
 22516      69666965 
 22516      7200
 22517              	.LASF649:
 22518 2a02 77726974 		.ascii	"writet\000"
 22518      657400
 22519              	.LASF1070:
 22520 2a09 73686F77 		.ascii	"show_config_tree\000"
 22520      5F636F6E 
 22520      6669675F 
 22520      74726565 
 22520      00
 22521              	.LASF1:
 22522 2a1a 6C6F6E67 		.ascii	"long long int\000"
 22522      206C6F6E 
 22522      6720696E 
ARM GAS  C:\Users\Moi\AppData\Local\Temp\cchaECY7.s 			page 444


 22522      7400
 22523              	.LASF769:
 22524 2a28 48505458 		.ascii	"HPTXFSIZ\000"
 22524      4653495A 
 22524      00
 22525              	.LASF905:
 22526 2a31 7472616E 		.ascii	"transfer_complete_cb\000"
 22526      73666572 
 22526      5F636F6D 
 22526      706C6574 
 22526      655F6362 
 22527              	.LASF361:
 22528 2a46 63665F6F 		.ascii	"cf_off_prio\000"
 22528      66665F70 
 22528      72696F00 
 22529              	.LASF72:
 22530 2a52 5F666C61 		.ascii	"_flags2\000"
 22530      67733200 
 22531              	.LASF1053:
 22532 2a5a 636D645F 		.ascii	"cmd_cam_set_awb\000"
 22532      63616D5F 
 22532      7365745F 
 22532      61776200 
 22533              	.LASF333:
 22534 2a6a 74696D65 		.ascii	"time_measurement_t\000"
 22534      5F6D6561 
 22534      73757265 
 22534      6D656E74 
 22534      5F7400
 22535              	.LASF1112:
 22536 2a7d 63685654 		.ascii	"chVTGetSystemTime\000"
 22536      47657453 
 22536      79737465 
 22536      6D54696D 
 22536      6500
 22537              	.LASF670:
 22538 2a8f 6765745F 		.ascii	"get_info\000"
 22538      696E666F 
 22538      00
 22539              	.LASF463:
 22540 2a98 61646365 		.ascii	"adcerror_t\000"
 22540      72726F72 
 22540      5F7400
 22541              	.LASF835:
 22542 2aa3 6765745F 		.ascii	"get_descriptor_cb\000"
 22542      64657363 
 22542      72697074 
 22542      6F725F63 
 22542      6200
 22543              	.LASF81:
 22544 2ab5 5F6C6F63 		.ascii	"_locale\000"
 22544      616C6500 
 22545              	.LASF1099:
 22546 2abd 636D645F 		.ascii	"cmd_free\000"
 22546      66726565 
 22546      00
 22547              	.LASF156:
ARM GAS  C:\Users\Moi\AppData\Local\Temp\cchaECY7.s 			page 445


 22548 2ac6 6576656E 		.ascii	"eventflags_t\000"
 22548      74666C61 
 22548      67735F74 
 22548      00
 22549              	.LASF674:
 22550 2ad3 5350495F 		.ascii	"SPI_READY\000"
 22550      52454144 
 22550      5900
 22551              	.LASF1047:
 22552 2add 636D645F 		.ascii	"cmd_cam_dcmi_prepare\000"
 22552      63616D5F 
 22552      64636D69 
 22552      5F707265 
 22552      70617265 
 22553              	.LASF250:
 22554 2af2 73464946 		.ascii	"sFIFOMailBox\000"
 22554      4F4D6169 
 22554      6C426F78 
 22554      00
 22555              	.LASF662:
 22556 2aff 6275735F 		.ascii	"bus_width\000"
 22556      77696474 
 22556      6800
 22557              	.LASF271:
 22558 2b09 44485238 		.ascii	"DHR8RD\000"
 22558      524400
 22559              	.LASF784:
 22560 2b10 4443544C 		.ascii	"DCTL\000"
 22560      00
 22561              	.LASF664:
 22562 2b15 53444344 		.ascii	"SDCDriverVMT\000"
 22562      72697665 
 22562      72564D54 
 22562      00
 22563              	.LASF1113:
 22564 2b22 73797374 		.ascii	"systime\000"
 22564      696D6500 
 22565              	.LASF810:
 22566 2b2a 74786275 		.ascii	"txbuf\000"
 22566      6600
 22567              	.LASF803:
 22568 2b30 50434743 		.ascii	"PCGCCTL\000"
 22568      43544C00 
 22569              	.LASF721:
 22570 2b38 5553425F 		.ascii	"USB_EVENT_WAKEUP\000"
 22570      4556454E 
 22570      545F5741 
 22570      4B455550 
 22570      00
 22571              	.LASF1126:
 22572 2b49 5F5F7365 		.ascii	"__set_BASEPRI\000"
 22572      745F4241 
 22572      53455052 
 22572      4900
 22573              	.LASF167:
 22574 2b57 705F6F6C 		.ascii	"p_older\000"
 22574      64657200 
ARM GAS  C:\Users\Moi\AppData\Local\Temp\cchaECY7.s 			page 446


 22575              	.LASF417:
 22576 2b5f 424C4B5F 		.ascii	"BLK_SYNCING\000"
 22576      53594E43 
 22576      494E4700 
 22577              	.LASF448:
 22578 2b6b 50494461 		.ascii	"PIData\000"
 22578      746100
 22579              	.LASF1106:
 22580 2b72 63685468 		.ascii	"chThdTerminatedX\000"
 22580      64546572 
 22580      6D696E61 
 22580      74656458 
 22580      00
 22581              	.LASF1062:
 22582 2b83 73756363 		.ascii	"success\000"
 22582      65737300 
 22583              	.LASF832:
 22584 2b8b 73657475 		.ascii	"setup_buf\000"
 22584      705F6275 
 22584      6600
 22585              	.LASF766:
 22586 2b95 72657376 		.ascii	"resvd34\000"
 22586      64333400 
 22587              	.LASF573:
 22588 2b9d 47505444 		.ascii	"GPTD6\000"
 22588      3600
 22589              	.LASF888:
 22590 2ba3 44434D49 		.ascii	"DCMI_ERR_DMAFAILURE\000"
 22590      5F455252 
 22590      5F444D41 
 22590      4641494C 
 22590      55524500 
 22591              	.LASF479:
 22592 2bb7 6572726F 		.ascii	"error_cb\000"
 22592      725F6362 
 22592      00
 22593              	.LASF1044:
 22594 2bc0 696D675F 		.ascii	"img_buff_ptr\000"
 22594      62756666 
 22594      5F707472 
 22594      00
 22595              	.LASF413:
 22596 2bcd 424C4B5F 		.ascii	"BLK_DISCONNECTING\000"
 22596      44495343 
 22596      4F4E4E45 
 22596      4354494E 
 22596      4700
 22597              	.LASF680:
 22598 2bdf 7373706F 		.ascii	"ssport\000"
 22598      727400
 22599              	.LASF925:
 22600 2be6 6275665F 		.ascii	"buf_len\000"
 22600      6C656E00 
 22601              	.LASF398:
 22602 2bee 42617365 		.ascii	"BaseSequentialStreamVMT\000"
 22602      53657175 
 22602      656E7469 
ARM GAS  C:\Users\Moi\AppData\Local\Temp\cchaECY7.s 			page 447


 22602      616C5374 
 22602      7265616D 
 22603              	.LASF183:
 22604 2c06 74687265 		.ascii	"thread_reference_t\000"
 22604      61645F72 
 22604      65666572 
 22604      656E6365 
 22604      5F7400
 22605              	.LASF890:
 22606 2c19 64636D69 		.ascii	"dcmierror_t\000"
 22606      6572726F 
 22606      725F7400 
 22607              	.LASF542:
 22608 2c25 65787063 		.ascii	"expchannel_t\000"
 22608      68616E6E 
 22608      656C5F74 
 22608      00
 22609              	.LASF959:
 22610 2c32 6E5F6661 		.ascii	"n_fats\000"
 22610      747300
 22611              	.LASF686:
 22612 2c39 72656365 		.ascii	"receiving\000"
 22612      6976696E 
 22612      6700
 22613              	.LASF917:
 22614 2c43 70617261 		.ascii	"parameter_list\000"
 22614      6D657465 
 22614      725F6C69 
 22614      737400
 22615              	.LASF1052:
 22616 2c52 636D645F 		.ascii	"cmd_cam_set_ae\000"
 22616      63616D5F 
 22616      7365745F 
 22616      616500
 22617              	.LASF95:
 22618 2c61 5F5F4649 		.ascii	"__FILE\000"
 22618      4C4500
 22619              	.LASF569:
 22620 2c68 66726571 		.ascii	"frequency\000"
 22620      75656E63 
 22620      7900
 22621              	.LASF998:
 22622 2c72 46525F4E 		.ascii	"FR_NOT_ENOUGH_CORE\000"
 22622      4F545F45 
 22622      4E4F5547 
 22622      485F434F 
 22622      524500
 22623              	.LASF1054:
 22624 2c85 636D645F 		.ascii	"cmd_cam_set_gain\000"
 22624      63616D5F 
 22624      7365745F 
 22624      6761696E 
 22624      00
 22625              	.LASF982:
 22626 2c96 46525F44 		.ascii	"FR_DISK_ERR\000"
 22626      49534B5F 
 22626      45525200 
ARM GAS  C:\Users\Moi\AppData\Local\Temp\cchaECY7.s 			page 448


 22627              	.LASF962:
 22628 2ca2 6E5F726F 		.ascii	"n_rootdir\000"
 22628      6F746469 
 22628      7200
 22629              	.LASF32:
 22630 2cac 5F736967 		.ascii	"_sign\000"
 22630      6E00
 22631              	.LASF4:
 22632 2cb2 5F5F696E 		.ascii	"__int8_t\000"
 22632      74385F74 
 22632      00
 22633              	.LASF829:
 22634 2cbb 696E5F73 		.ascii	"in_state\000"
 22634      74617465 
 22634      00
 22635              	.LASF1050:
 22636 2cc4 696E7465 		.ascii	"integral\000"
 22636      6772616C 
 22636      00
 22637              	.LASF37:
 22638 2ccd 5F5F746D 		.ascii	"__tm_min\000"
 22638      5F6D696E 
 22638      00
 22639              	.LASF1025:
 22640 2cd6 73746172 		.ascii	"startblk\000"
 22640      74626C6B 
 22640      00
 22641              	.LASF355:
 22642 2cdf 63685F7A 		.ascii	"ch_zero\000"
 22642      65726F00 
 22643              	.LASF1097:
 22644 2ce7 77726974 		.ascii	"written\000"
 22644      74656E00 
 22645              	.LASF589:
 22646 2cef 46415354 		.ascii	"FAST_DUTY_CYCLE_2\000"
 22646      5F445554 
 22646      595F4359 
 22646      434C455F 
 22646      3200
 22647              	.LASF300:
 22648 2d01 44435452 		.ascii	"DCTRL\000"
 22648      4C00
 22649              	.LASF360:
 22650 2d07 63685F74 		.ascii	"ch_threadsize\000"
 22650      68726561 
 22650      6473697A 
 22650      6500
 22651              	.LASF289:
 22652 2d15 464C5452 		.ascii	"FLTR\000"
 22652      00
 22653              	.LASF560:
 22654 2d1a 43434D52 		.ascii	"CCMR1\000"
 22654      3100
 22655              	.LASF561:
 22656 2d20 43434D52 		.ascii	"CCMR2\000"
 22656      3200
 22657              	.LASF565:
ARM GAS  C:\Users\Moi\AppData\Local\Temp\cchaECY7.s 			page 449


 22658 2d26 43434D52 		.ascii	"CCMR3\000"
 22658      3300
 22659              	.LASF0:
 22660 2d2c 756E7369 		.ascii	"unsigned int\000"
 22660      676E6564 
 22660      20696E74 
 22660      00
 22661              	.LASF483:
 22662 2d39 73717232 		.ascii	"sqr2\000"
 22662      00
 22663              	.LASF484:
 22664 2d3e 73717233 		.ascii	"sqr3\000"
 22664      00
 22665              	.LASF109:
 22666 2d43 5F723438 		.ascii	"_r48\000"
 22666      00
 22667              	.LASF773:
 22668 2d48 48464952 		.ascii	"HFIR\000"
 22668      00
 22669              	.LASF906:
 22670 2d4d 44434D49 		.ascii	"DCMIConfig\000"
 22670      436F6E66 
 22670      696700
 22671              	.LASF703:
 22672 2d58 5553425F 		.ascii	"USB_UNINIT\000"
 22672      554E494E 
 22672      495400
 22673              	.LASF402:
 22674 2d63 73747265 		.ascii	"stream\000"
 22674      616D00
 22675              	.LASF486:
 22676 2d6a 64756D6D 		.ascii	"dummy\000"
 22676      7900
 22677              	.LASF587:
 22678 2d70 6932636F 		.ascii	"i2copmode_t\000"
 22678      706D6F64 
 22678      655F7400 
 22679              	.LASF278:
 22680 2d7c 45535552 		.ascii	"ESUR\000"
 22680      00
 22681              	.LASF376:
 22682 2d81 6576656E 		.ascii	"event_listener\000"
 22682      745F6C69 
 22682      7374656E 
 22682      657200
 22683              	.LASF9:
 22684 2d90 73686F72 		.ascii	"short int\000"
 22684      7420696E 
 22684      7400
 22685              	.LASF727:
 22686 2d9a 75736263 		.ascii	"usbcallback_t\000"
 22686      616C6C62 
 22686      61636B5F 
 22686      7400
 22687              	.LASF61:
 22688 2da8 5F726561 		.ascii	"_read\000"
 22688      6400
ARM GAS  C:\Users\Moi\AppData\Local\Temp\cchaECY7.s 			page 450


 22689              	.LASF756:
 22690 2dae 47555342 		.ascii	"GUSBCFG\000"
 22690      43464700 
 22691              	.LASF313:
 22692 2db6 55534152 		.ascii	"USART_TypeDef\000"
 22692      545F5479 
 22692      70654465 
 22692      6600
 22693              	.LASF397:
 22694 2dc4 6F757470 		.ascii	"output_queue_t\000"
 22694      75745F71 
 22694      75657565 
 22694      5F7400
 22695              	.LASF99:
 22696 2dd3 5F72616E 		.ascii	"_rand48\000"
 22696      64343800 
 22697              	.LASF805:
 22698 2ddb 73746D33 		.ascii	"stm32_otg_t\000"
 22698      325F6F74 
 22698      675F7400 
 22699              	.LASF610:
 22700 2de7 49325344 		.ascii	"I2SDriver\000"
 22700      72697665 
 22700      7200
 22701              	.LASF594:
 22702 2df1 64757479 		.ascii	"duty_cycle\000"
 22702      5F637963 
 22702      6C6500
 22703              	.LASF617:
 22704 2dfc 49325343 		.ascii	"I2SConfig\000"
 22704      6F6E6669 
 22704      6700
 22705              	.LASF1021:
 22706 2e06 636D645F 		.ascii	"cmd_sdc\000"
 22706      73646300 
 22707              	.LASF724:
 22708 2e0e 75645F73 		.ascii	"ud_size\000"
 22708      697A6500 
 22709              	.LASF1057:
 22710 2e16 636D645F 		.ascii	"cmd_cam_set_conf1\000"
 22710      63616D5F 
 22710      7365745F 
 22710      636F6E66 
 22710      3100
 22711              	.LASF1056:
 22712 2e28 636D645F 		.ascii	"cmd_cam_set_conf2\000"
 22712      63616D5F 
 22712      7365745F 
 22712      636F6E66 
 22712      3200
 22713              	.LASF827:
 22714 2e3a 696E5F6D 		.ascii	"in_maxsize\000"
 22714      61787369 
 22714      7A6500
 22715              	.LASF137:
 22716 2e45 5F5F7661 		.ascii	"__va_list\000"
 22716      5F6C6973 
ARM GAS  C:\Users\Moi\AppData\Local\Temp\cchaECY7.s 			page 451


 22716      7400
 22717              	.LASF445:
 22718 2e4f 50464461 		.ascii	"PFData\000"
 22718      746100
 22719              	.LASF538:
 22720 2e56 4558545F 		.ascii	"EXT_STOP\000"
 22720      53544F50 
 22720      00
 22721              	.LASF170:
 22722 2e5f 705F7374 		.ascii	"p_state\000"
 22722      61746500 
 22723              	.LASF618:
 22724 2e67 49325344 		.ascii	"I2SD2\000"
 22724      3200
 22725              	.LASF665:
 22726 2e6d 69735F69 		.ascii	"is_inserted\000"
 22726      6E736572 
 22726      74656400 
 22727              	.LASF185:
 22728 2e79 63685F74 		.ascii	"ch_threads_list\000"
 22728      68726561 
 22728      64735F6C 
 22728      69737400 
 22729              	.LASF988:
 22730 2e89 46525F44 		.ascii	"FR_DENIED\000"
 22730      454E4945 
 22730      4400
 22731              	.LASF301:
 22732 2e93 44434F55 		.ascii	"DCOUNT\000"
 22732      4E5400
 22733              	.LASF286:
 22734 2e9a 4F415231 		.ascii	"OAR1\000"
 22734      00
 22735              	.LASF287:
 22736 2e9f 4F415232 		.ascii	"OAR2\000"
 22736      00
 22737              	.LASF182:
 22738 2ea4 705F7374 		.ascii	"p_stats\000"
 22738      61747300 
 22739              	.LASF708:
 22740 2eac 75736273 		.ascii	"usbstate_t\000"
 22740      74617465 
 22740      5F7400
 22741              		.ident	"GCC: (GNU Tools for Arm Embedded Processors 7-2017-q4-major) 7.2.1 20170904 (release) [ARM
ARM GAS  C:\Users\Moi\AppData\Local\Temp\cchaECY7.s 			page 452


DEFINED SYMBOLS
                            *ABS*:00000000 cmd.c
C:\Users\Moi\AppData\Local\Temp\cchaECY7.s:18     .text.port_lock:00000000 $t
C:\Users\Moi\AppData\Local\Temp\cchaECY7.s:25     .text.port_lock:00000000 port_lock
C:\Users\Moi\AppData\Local\Temp\cchaECY7.s:72     .text.port_lock:0000002c $d
C:\Users\Moi\AppData\Local\Temp\cchaECY7.s:77     .text.port_unlock:00000000 $t
C:\Users\Moi\AppData\Local\Temp\cchaECY7.s:84     .text.port_unlock:00000000 port_unlock
C:\Users\Moi\AppData\Local\Temp\cchaECY7.s:129    .text.port_unlock:0000002c $d
C:\Users\Moi\AppData\Local\Temp\cchaECY7.s:134    .text.chSysLock:00000000 $t
C:\Users\Moi\AppData\Local\Temp\cchaECY7.s:141    .text.chSysLock:00000000 chSysLock
C:\Users\Moi\AppData\Local\Temp\cchaECY7.s:179    .text.chSysLock:0000002c $d
C:\Users\Moi\AppData\Local\Temp\cchaECY7.s:184    .text.chSysUnlock:00000000 $t
C:\Users\Moi\AppData\Local\Temp\cchaECY7.s:191    .text.chSysUnlock:00000000 chSysUnlock
C:\Users\Moi\AppData\Local\Temp\cchaECY7.s:247    .text.chSysUnlock:0000004c $d
C:\Users\Moi\AppData\Local\Temp\cchaECY7.s:7185   .rodata.__func__.8875:00000000 __func__.8875
C:\Users\Moi\AppData\Local\Temp\cchaECY7.s:254    .text.chVTGetSystemTimeX:00000000 $t
C:\Users\Moi\AppData\Local\Temp\cchaECY7.s:261    .text.chVTGetSystemTimeX:00000000 chVTGetSystemTimeX
C:\Users\Moi\AppData\Local\Temp\cchaECY7.s:296    .text.chVTGetSystemTimeX:00000024 $d
C:\Users\Moi\AppData\Local\Temp\cchaECY7.s:302    .text.chVTGetSystemTime:00000000 $t
C:\Users\Moi\AppData\Local\Temp\cchaECY7.s:309    .text.chVTGetSystemTime:00000000 chVTGetSystemTime
C:\Users\Moi\AppData\Local\Temp\cchaECY7.s:349    .text.chVTGetSystemTime:00000030 $d
C:\Users\Moi\AppData\Local\Temp\cchaECY7.s:354    .text.chVTIsTimeWithinX:00000000 $t
C:\Users\Moi\AppData\Local\Temp\cchaECY7.s:361    .text.chVTIsTimeWithinX:00000000 chVTIsTimeWithinX
C:\Users\Moi\AppData\Local\Temp\cchaECY7.s:407    .text.chVTIsTimeWithinX:0000003c $d
C:\Users\Moi\AppData\Local\Temp\cchaECY7.s:412    .text.chVTIsSystemTimeWithin:00000000 $t
C:\Users\Moi\AppData\Local\Temp\cchaECY7.s:419    .text.chVTIsSystemTimeWithin:00000000 chVTIsSystemTimeWithin
C:\Users\Moi\AppData\Local\Temp\cchaECY7.s:460    .text.chVTIsSystemTimeWithin:00000038 $d
C:\Users\Moi\AppData\Local\Temp\cchaECY7.s:465    .text.chThdGetSelfX:00000000 $t
C:\Users\Moi\AppData\Local\Temp\cchaECY7.s:472    .text.chThdGetSelfX:00000000 chThdGetSelfX
C:\Users\Moi\AppData\Local\Temp\cchaECY7.s:507    .text.chThdGetSelfX:00000024 $d
C:\Users\Moi\AppData\Local\Temp\cchaECY7.s:513    .text.chThdGetPriorityX:00000000 $t
C:\Users\Moi\AppData\Local\Temp\cchaECY7.s:520    .text.chThdGetPriorityX:00000000 chThdGetPriorityX
C:\Users\Moi\AppData\Local\Temp\cchaECY7.s:555    .text.chThdGetPriorityX:00000028 $d
C:\Users\Moi\AppData\Local\Temp\cchaECY7.s:560    .text.chThdTerminatedX:00000000 $t
C:\Users\Moi\AppData\Local\Temp\cchaECY7.s:567    .text.chThdTerminatedX:00000000 chThdTerminatedX
C:\Users\Moi\AppData\Local\Temp\cchaECY7.s:607    .text.chThdTerminatedX:00000034 $d
C:\Users\Moi\AppData\Local\Temp\cchaECY7.s:612    .text.chprintf:00000000 $t
C:\Users\Moi\AppData\Local\Temp\cchaECY7.s:619    .text.chprintf:00000000 chprintf
C:\Users\Moi\AppData\Local\Temp\cchaECY7.s:678    .text.chprintf:00000040 $d
C:\Users\Moi\AppData\Local\Temp\cchaECY7.s:683    .bss.buf:00000000 $d
C:\Users\Moi\AppData\Local\Temp\cchaECY7.s:686    .bss.buf:00000000 buf
C:\Users\Moi\AppData\Local\Temp\cchaECY7.s:689    .bss.buf2:00000000 $d
C:\Users\Moi\AppData\Local\Temp\cchaECY7.s:692    .bss.buf2:00000000 buf2
C:\Users\Moi\AppData\Local\Temp\cchaECY7.s:697    .bss.cmd_fmt:00000000 cmd_fmt
C:\Users\Moi\AppData\Local\Temp\cchaECY7.s:698    .bss.cmd_fmt:00000000 $d
C:\Users\Moi\AppData\Local\Temp\cchaECY7.s:702    .bss.cmd_subx:00000000 cmd_subx
C:\Users\Moi\AppData\Local\Temp\cchaECY7.s:703    .bss.cmd_subx:00000000 $d
C:\Users\Moi\AppData\Local\Temp\cchaECY7.s:707    .bss.cmd_suby:00000000 cmd_suby
C:\Users\Moi\AppData\Local\Temp\cchaECY7.s:708    .bss.cmd_suby:00000000 $d
C:\Users\Moi\AppData\Local\Temp\cchaECY7.s:710    .bss.cmd_x1:00000000 $d
C:\Users\Moi\AppData\Local\Temp\cchaECY7.s:713    .bss.cmd_x1:00000000 cmd_x1
C:\Users\Moi\AppData\Local\Temp\cchaECY7.s:716    .bss.cmd_y1:00000000 $d
C:\Users\Moi\AppData\Local\Temp\cchaECY7.s:719    .bss.cmd_y1:00000000 cmd_y1
C:\Users\Moi\AppData\Local\Temp\cchaECY7.s:722    .bss.cmd_width:00000000 $d
C:\Users\Moi\AppData\Local\Temp\cchaECY7.s:725    .bss.cmd_width:00000000 cmd_width
C:\Users\Moi\AppData\Local\Temp\cchaECY7.s:728    .bss.cmd_height:00000000 $d
C:\Users\Moi\AppData\Local\Temp\cchaECY7.s:731    .bss.cmd_height:00000000 cmd_height
ARM GAS  C:\Users\Moi\AppData\Local\Temp\cchaECY7.s 			page 453


C:\Users\Moi\AppData\Local\Temp\cchaECY7.s:734    .bss.fbuff:00000000 $d
C:\Users\Moi\AppData\Local\Temp\cchaECY7.s:737    .bss.fbuff:00000000 fbuff
C:\Users\Moi\AppData\Local\Temp\cchaECY7.s:740    .rodata:00000000 $d
C:\Users\Moi\AppData\Local\Temp\cchaECY7.s:748    .text.cmd_mount:00000000 $t
C:\Users\Moi\AppData\Local\Temp\cchaECY7.s:756    .text.cmd_mount:00000000 cmd_mount
C:\Users\Moi\AppData\Local\Temp\cchaECY7.s:809    .text.cmd_mount:00000048 $d
C:\Users\Moi\AppData\Local\Temp\cchaECY7.s:820    .text.cmd_unmount:00000000 $t
C:\Users\Moi\AppData\Local\Temp\cchaECY7.s:828    .text.cmd_unmount:00000000 cmd_unmount
C:\Users\Moi\AppData\Local\Temp\cchaECY7.s:875    .text.cmd_unmount:00000040 $d
C:\Users\Moi\AppData\Local\Temp\cchaECY7.s:901    .text.cmd_free:00000000 $t
C:\Users\Moi\AppData\Local\Temp\cchaECY7.s:909    .text.cmd_free:00000000 cmd_free
C:\Users\Moi\AppData\Local\Temp\cchaECY7.s:1003   .text.cmd_free:000000a8 $d
C:\Users\Moi\AppData\Local\Temp\cchaECY7.s:1014   .text.cmd_tree:00000000 $t
C:\Users\Moi\AppData\Local\Temp\cchaECY7.s:1022   .text.cmd_tree:00000000 cmd_tree
C:\Users\Moi\AppData\Local\Temp\cchaECY7.s:1065   .text.cmd_tree:0000003c $d
C:\Users\Moi\AppData\Local\Temp\cchaECY7.s:1099   .text.cmd_hello:00000000 $t
C:\Users\Moi\AppData\Local\Temp\cchaECY7.s:1107   .text.cmd_hello:00000000 cmd_hello
C:\Users\Moi\AppData\Local\Temp\cchaECY7.s:1226   .text.cmd_hello:000000c4 $d
C:\Users\Moi\AppData\Local\Temp\cchaECY7.s:1253   .text.cmd_mkdir:00000000 $t
C:\Users\Moi\AppData\Local\Temp\cchaECY7.s:1261   .text.cmd_mkdir:00000000 cmd_mkdir
C:\Users\Moi\AppData\Local\Temp\cchaECY7.s:1345   .text.cmd_mkdir:00000080 $d
C:\Users\Moi\AppData\Local\Temp\cchaECY7.s:1367   .text.cmd_setlabel:00000000 $t
C:\Users\Moi\AppData\Local\Temp\cchaECY7.s:1375   .text.cmd_setlabel:00000000 cmd_setlabel
C:\Users\Moi\AppData\Local\Temp\cchaECY7.s:1453   .text.cmd_setlabel:00000074 $d
C:\Users\Moi\AppData\Local\Temp\cchaECY7.s:1481   .text.cmd_getlabel:00000000 $t
C:\Users\Moi\AppData\Local\Temp\cchaECY7.s:1489   .text.cmd_getlabel:00000000 cmd_getlabel
C:\Users\Moi\AppData\Local\Temp\cchaECY7.s:1582   .text.cmd_getlabel:00000094 $d
C:\Users\Moi\AppData\Local\Temp\cchaECY7.s:1612   .text.cmd_cat:00000000 $t
C:\Users\Moi\AppData\Local\Temp\cchaECY7.s:1620   .text.cmd_cat:00000000 cmd_cat
C:\Users\Moi\AppData\Local\Temp\cchaECY7.s:1778   .text.cmd_cat:00000110 $d
C:\Users\Moi\AppData\Local\Temp\cchaECY7.s:1793   .text.cmd_sound_file_play:00000000 $t
C:\Users\Moi\AppData\Local\Temp\cchaECY7.s:1800   .text.cmd_sound_file_play:00000000 cmd_sound_file_play
C:\Users\Moi\AppData\Local\Temp\cchaECY7.s:1851   .text.cmd_sound_file_play:00000040 $d
C:\Users\Moi\AppData\Local\Temp\cchaECY7.s:1857   .text.cmd_sound_file_stop:00000000 $t
C:\Users\Moi\AppData\Local\Temp\cchaECY7.s:1864   .text.cmd_sound_file_stop:00000000 cmd_sound_file_stop
C:\Users\Moi\AppData\Local\Temp\cchaECY7.s:1900   .text.cmd_sound_file_stop:0000002c $d
C:\Users\Moi\AppData\Local\Temp\cchaECY7.s:1909   .text.cmd_sound_file_volume:00000000 $t
C:\Users\Moi\AppData\Local\Temp\cchaECY7.s:1916   .text.cmd_sound_file_volume:00000000 cmd_sound_file_volume
C:\Users\Moi\AppData\Local\Temp\cchaECY7.s:1970   .text.cmd_sound_file_volume:00000048 $d
C:\Users\Moi\AppData\Local\Temp\cchaECY7.s:2025   .text.cmd_melody_play:00000000 $t
C:\Users\Moi\AppData\Local\Temp\cchaECY7.s:2032   .text.cmd_melody_play:00000000 cmd_melody_play
C:\Users\Moi\AppData\Local\Temp\cchaECY7.s:2150   .text.cmd_melody_play:000000c8 $d
C:\Users\Moi\AppData\Local\Temp\cchaECY7.s:2171   .text.cmd_melody_stop:00000000 $t
C:\Users\Moi\AppData\Local\Temp\cchaECY7.s:2178   .text.cmd_melody_stop:00000000 cmd_melody_stop
C:\Users\Moi\AppData\Local\Temp\cchaECY7.s:2214   .text.cmd_melody_stop:0000002c $d
C:\Users\Moi\AppData\Local\Temp\cchaECY7.s:2232   .text.cmd_mem:00000000 $t
C:\Users\Moi\AppData\Local\Temp\cchaECY7.s:2239   .text.cmd_mem:00000000 cmd_mem
C:\Users\Moi\AppData\Local\Temp\cchaECY7.s:2307   .text.cmd_mem:00000068 $d
C:\Users\Moi\AppData\Local\Temp\cchaECY7.s:2327   .text.cmd_threads:00000000 $t
C:\Users\Moi\AppData\Local\Temp\cchaECY7.s:2334   .text.cmd_threads:00000000 cmd_threads
C:\Users\Moi\AppData\Local\Temp\cchaECY7.s:2427   .text.cmd_threads:00000084 $d
C:\Users\Moi\AppData\Local\Temp\cchaECY7.s:7164   .data.states.13326:00000000 states.13326
C:\Users\Moi\AppData\Local\Temp\cchaECY7.s:2443   .text.cmd_test:00000000 $t
C:\Users\Moi\AppData\Local\Temp\cchaECY7.s:2450   .text.cmd_test:00000000 cmd_test
C:\Users\Moi\AppData\Local\Temp\cchaECY7.s:2519   .text.cmd_test:00000064 $d
C:\Users\Moi\AppData\Local\Temp\cchaECY7.s:2532   .text.cmd_readclock:00000000 $t
C:\Users\Moi\AppData\Local\Temp\cchaECY7.s:2539   .text.cmd_readclock:00000000 cmd_readclock
ARM GAS  C:\Users\Moi\AppData\Local\Temp\cchaECY7.s 			page 454


C:\Users\Moi\AppData\Local\Temp\cchaECY7.s:2583   .text.cmd_readclock:0000003c $d
C:\Users\Moi\AppData\Local\Temp\cchaECY7.s:2606   .text.cmd_sqrt:00000000 $t
C:\Users\Moi\AppData\Local\Temp\cchaECY7.s:2613   .text.cmd_sqrt:00000000 cmd_sqrt
C:\Users\Moi\AppData\Local\Temp\cchaECY7.s:2749   .text.cmd_sqrt:00000104 $d
C:\Users\Moi\AppData\Local\Temp\cchaECY7.s:2766   .text.cmd_atan2:00000000 $t
C:\Users\Moi\AppData\Local\Temp\cchaECY7.s:2773   .text.cmd_atan2:00000000 cmd_atan2
C:\Users\Moi\AppData\Local\Temp\cchaECY7.s:2884   .text.cmd_atan2:000000e4 $d
C:\Users\Moi\AppData\Local\Temp\cchaECY7.s:2898   .text.tree_indent:00000000 $t
C:\Users\Moi\AppData\Local\Temp\cchaECY7.s:2905   .text.tree_indent:00000000 tree_indent
C:\Users\Moi\AppData\Local\Temp\cchaECY7.s:2957   .text.tree_indent:00000040 $d
C:\Users\Moi\AppData\Local\Temp\cchaECY7.s:2989   .text.show_config_tree:00000000 $t
C:\Users\Moi\AppData\Local\Temp\cchaECY7.s:2996   .text.show_config_tree:00000000 show_config_tree
C:\Users\Moi\AppData\Local\Temp\cchaECY7.s:3055   .text.show_config_tree:00000058 $d
C:\Users\Moi\AppData\Local\Temp\cchaECY7.s:3059   .text.show_config_tree:00000068 $t
C:\Users\Moi\AppData\Local\Temp\cchaECY7.s:3204   .text.show_config_tree:00000158 $d
C:\Users\Moi\AppData\Local\Temp\cchaECY7.s:3221   .text.cmd_config_tree:00000000 $t
C:\Users\Moi\AppData\Local\Temp\cchaECY7.s:3228   .text.cmd_config_tree:00000000 cmd_config_tree
C:\Users\Moi\AppData\Local\Temp\cchaECY7.s:3294   .text.cmd_config_tree:00000058 $d
C:\Users\Moi\AppData\Local\Temp\cchaECY7.s:3322   .text.cmd_config_set:00000000 $t
C:\Users\Moi\AppData\Local\Temp\cchaECY7.s:3329   .text.cmd_config_set:00000000 cmd_config_set
C:\Users\Moi\AppData\Local\Temp\cchaECY7.s:3504   .text.cmd_config_set:00000110 $d
C:\Users\Moi\AppData\Local\Temp\cchaECY7.s:3519   .text.cmd_config_erase:00000000 $t
C:\Users\Moi\AppData\Local\Temp\cchaECY7.s:3526   .text.cmd_config_erase:00000000 cmd_config_erase
C:\Users\Moi\AppData\Local\Temp\cchaECY7.s:3563   .text.cmd_config_erase:0000002c $d
C:\Users\Moi\AppData\Local\Temp\cchaECY7.s:3576   .text.cmd_config_save:00000000 $t
C:\Users\Moi\AppData\Local\Temp\cchaECY7.s:3583   .text.cmd_config_save:00000000 cmd_config_save
C:\Users\Moi\AppData\Local\Temp\cchaECY7.s:3649   .text.cmd_config_save:00000060 $d
C:\Users\Moi\AppData\Local\Temp\cchaECY7.s:3663   .text.cmd_config_load:00000000 $t
C:\Users\Moi\AppData\Local\Temp\cchaECY7.s:3670   .text.cmd_config_load:00000000 cmd_config_load
C:\Users\Moi\AppData\Local\Temp\cchaECY7.s:3726   .text.cmd_config_load:00000050 $d
C:\Users\Moi\AppData\Local\Temp\cchaECY7.s:3746   .text.cmd_cam_set_brightness:00000000 $t
C:\Users\Moi\AppData\Local\Temp\cchaECY7.s:3753   .text.cmd_cam_set_brightness:00000000 cmd_cam_set_brightness
C:\Users\Moi\AppData\Local\Temp\cchaECY7.s:3829   .text.cmd_cam_set_brightness:00000078 $d
C:\Users\Moi\AppData\Local\Temp\cchaECY7.s:3842   .text.cmd_cam_set_contrast:00000000 $t
C:\Users\Moi\AppData\Local\Temp\cchaECY7.s:3849   .text.cmd_cam_set_contrast:00000000 cmd_cam_set_contrast
C:\Users\Moi\AppData\Local\Temp\cchaECY7.s:3925   .text.cmd_cam_set_contrast:00000078 $d
C:\Users\Moi\AppData\Local\Temp\cchaECY7.s:3963   .text.cmd_cam_set_conf1:00000000 $t
C:\Users\Moi\AppData\Local\Temp\cchaECY7.s:3970   .text.cmd_cam_set_conf1:00000000 cmd_cam_set_conf1
C:\Users\Moi\AppData\Local\Temp\cchaECY7.s:4138   .text.cmd_cam_set_conf1:00000110 $d
C:\Users\Moi\AppData\Local\Temp\cchaECY7.s:4165   .text.cmd_cam_set_conf2:00000000 $t
C:\Users\Moi\AppData\Local\Temp\cchaECY7.s:4172   .text.cmd_cam_set_conf2:00000000 cmd_cam_set_conf2
C:\Users\Moi\AppData\Local\Temp\cchaECY7.s:4305   .text.cmd_cam_set_conf2:000000dc $d
C:\Users\Moi\AppData\Local\Temp\cchaECY7.s:4331   .text.cmd_cam_set_mirror:00000000 $t
C:\Users\Moi\AppData\Local\Temp\cchaECY7.s:4338   .text.cmd_cam_set_mirror:00000000 cmd_cam_set_mirror
C:\Users\Moi\AppData\Local\Temp\cchaECY7.s:4424   .text.cmd_cam_set_mirror:00000090 $d
C:\Users\Moi\AppData\Local\Temp\cchaECY7.s:4444   .text.cmd_cam_set_gain:00000000 $t
C:\Users\Moi\AppData\Local\Temp\cchaECY7.s:4451   .text.cmd_cam_set_gain:00000000 cmd_cam_set_gain
C:\Users\Moi\AppData\Local\Temp\cchaECY7.s:4545   .text.cmd_cam_set_gain:000000a4 $d
C:\Users\Moi\AppData\Local\Temp\cchaECY7.s:4564   .text.cmd_cam_set_awb:00000000 $t
C:\Users\Moi\AppData\Local\Temp\cchaECY7.s:4571   .text.cmd_cam_set_awb:00000000 cmd_cam_set_awb
C:\Users\Moi\AppData\Local\Temp\cchaECY7.s:4647   .text.cmd_cam_set_awb:00000078 $d
C:\Users\Moi\AppData\Local\Temp\cchaECY7.s:4666   .text.cmd_cam_set_ae:00000000 $t
C:\Users\Moi\AppData\Local\Temp\cchaECY7.s:4673   .text.cmd_cam_set_ae:00000000 cmd_cam_set_ae
C:\Users\Moi\AppData\Local\Temp\cchaECY7.s:4749   .text.cmd_cam_set_ae:00000078 $d
C:\Users\Moi\AppData\Local\Temp\cchaECY7.s:4770   .text.cmd_cam_set_exposure:00000000 $t
C:\Users\Moi\AppData\Local\Temp\cchaECY7.s:4777   .text.cmd_cam_set_exposure:00000000 cmd_cam_set_exposure
C:\Users\Moi\AppData\Local\Temp\cchaECY7.s:4863   .text.cmd_cam_set_exposure:00000090 $d
ARM GAS  C:\Users\Moi\AppData\Local\Temp\cchaECY7.s 			page 455


C:\Users\Moi\AppData\Local\Temp\cchaECY7.s:4882   .text.cmd_cam_dcmi_prepare:00000000 $t
C:\Users\Moi\AppData\Local\Temp\cchaECY7.s:4889   .text.cmd_cam_dcmi_prepare:00000000 cmd_cam_dcmi_prepare
C:\Users\Moi\AppData\Local\Temp\cchaECY7.s:4975   .text.cmd_cam_dcmi_prepare:00000084 $d
C:\Users\Moi\AppData\Local\Temp\cchaECY7.s:4987   .text.cmd_cam_dcmi_unprepare:00000000 $t
C:\Users\Moi\AppData\Local\Temp\cchaECY7.s:4994   .text.cmd_cam_dcmi_unprepare:00000000 cmd_cam_dcmi_unprepare
C:\Users\Moi\AppData\Local\Temp\cchaECY7.s:5034   .text.cmd_cam_dcmi_unprepare:00000034 $d
C:\Users\Moi\AppData\Local\Temp\cchaECY7.s:5040   .text.cmd_cam_capture:00000000 $t
C:\Users\Moi\AppData\Local\Temp\cchaECY7.s:5047   .text.cmd_cam_capture:00000000 cmd_cam_capture
C:\Users\Moi\AppData\Local\Temp\cchaECY7.s:5083   .text.cmd_cam_capture:0000002c $d
C:\Users\Moi\AppData\Local\Temp\cchaECY7.s:5098   .text.cmd_cam_send:00000000 $t
C:\Users\Moi\AppData\Local\Temp\cchaECY7.s:5105   .text.cmd_cam_send:00000000 cmd_cam_send
C:\Users\Moi\AppData\Local\Temp\cchaECY7.s:5220   .text.cmd_cam_send:000000bc $d
C:\Users\Moi\AppData\Local\Temp\cchaECY7.s:5235   .text.cmd_set_led:00000000 $t
C:\Users\Moi\AppData\Local\Temp\cchaECY7.s:5242   .text.cmd_set_led:00000000 cmd_set_led
C:\Users\Moi\AppData\Local\Temp\cchaECY7.s:5341   .text.cmd_set_led:000000a4 $d
C:\Users\Moi\AppData\Local\Temp\cchaECY7.s:5355   .text.cmd_set_speed:00000000 $t
C:\Users\Moi\AppData\Local\Temp\cchaECY7.s:5362   .text.cmd_set_speed:00000000 cmd_set_speed
C:\Users\Moi\AppData\Local\Temp\cchaECY7.s:5445   .text.cmd_set_speed:00000090 $d
C:\Users\Moi\AppData\Local\Temp\cchaECY7.s:5457   .text.cmd_get_battery:00000000 $t
C:\Users\Moi\AppData\Local\Temp\cchaECY7.s:5464   .text.cmd_get_battery:00000000 cmd_get_battery
C:\Users\Moi\AppData\Local\Temp\cchaECY7.s:5505   .text.cmd_get_battery:00000038 $d
C:\Users\Moi\AppData\Local\Temp\cchaECY7.s:5516   .text.cmd_audio_play:00000000 $t
C:\Users\Moi\AppData\Local\Temp\cchaECY7.s:5523   .text.cmd_audio_play:00000000 cmd_audio_play
C:\Users\Moi\AppData\Local\Temp\cchaECY7.s:5580   .text.cmd_audio_play:00000050 $d
C:\Users\Moi\AppData\Local\Temp\cchaECY7.s:5586   .text.cmd_audio_stop:00000000 $t
C:\Users\Moi\AppData\Local\Temp\cchaECY7.s:5593   .text.cmd_audio_stop:00000000 cmd_audio_stop
C:\Users\Moi\AppData\Local\Temp\cchaECY7.s:5629   .text.cmd_audio_stop:0000002c $d
C:\Users\Moi\AppData\Local\Temp\cchaECY7.s:5641   .text.cmd_volume:00000000 $t
C:\Users\Moi\AppData\Local\Temp\cchaECY7.s:5648   .text.cmd_volume:00000000 cmd_volume
C:\Users\Moi\AppData\Local\Temp\cchaECY7.s:5710   .text.cmd_volume:0000005c $d
C:\Users\Moi\AppData\Local\Temp\cchaECY7.s:5717   .text.cmd_mic_data:00000000 $t
C:\Users\Moi\AppData\Local\Temp\cchaECY7.s:5724   .text.cmd_mic_data:00000000 cmd_mic_data
C:\Users\Moi\AppData\Local\Temp\cchaECY7.s:5808   .text.cmd_mic_data:00000090 $d
C:\Users\Moi\AppData\Local\Temp\cchaECY7.s:5903   .text.cmd_sdc:00000000 $t
C:\Users\Moi\AppData\Local\Temp\cchaECY7.s:5911   .text.cmd_sdc:00000000 cmd_sdc
C:\Users\Moi\AppData\Local\Temp\cchaECY7.s:6252   .text.cmd_sdc:0000024c $d
C:\Users\Moi\AppData\Local\Temp\cchaECY7.s:7201   .data.mode.13568:00000000 mode.13568
C:\Users\Moi\AppData\Local\Temp\cchaECY7.s:6275   .text.cmd_sdc:000002a0 $t
C:\Users\Moi\AppData\Local\Temp\cchaECY7.s:6668   .text.cmd_sdc:00000560 $d
C:\Users\Moi\AppData\Local\Temp\cchaECY7.s:6692   .text.cmd_sdc:000005b8 $t
C:\Users\Moi\AppData\Local\Temp\cchaECY7.s:6730   .text.cmd_sdc:000005f0 $d
C:\Users\Moi\AppData\Local\Temp\cchaECY7.s:6882   .rodata.shell_commands:00000000 shell_commands
C:\Users\Moi\AppData\Local\Temp\cchaECY7.s:6879   .rodata.shell_commands:00000000 $d
C:\Users\Moi\AppData\Local\Temp\cchaECY7.s:6982   .text.shell_spawn_thd:00000000 $t
C:\Users\Moi\AppData\Local\Temp\cchaECY7.s:6989   .text.shell_spawn_thd:00000000 shell_spawn_thd
C:\Users\Moi\AppData\Local\Temp\cchaECY7.s:7051   .text.shell_spawn_thd:00000058 $d
C:\Users\Moi\AppData\Local\Temp\cchaECY7.s:7210   .rodata.shell_cfg.13596:00000000 shell_cfg.13596
C:\Users\Moi\AppData\Local\Temp\cchaECY7.s:7058   .text.shell_start:00000000 $t
C:\Users\Moi\AppData\Local\Temp\cchaECY7.s:7066   .text.shell_start:00000000 shell_start
C:\Users\Moi\AppData\Local\Temp\cchaECY7.s:7105   .text.shell_start:00000034 $d
C:\Users\Moi\AppData\Local\Temp\cchaECY7.s:7217   .bss.wa.13601:00000000 wa.13601
C:\Users\Moi\AppData\Local\Temp\cchaECY7.s:7161   .data.states.13326:00000000 $d
C:\Users\Moi\AppData\Local\Temp\cchaECY7.s:7182   .rodata.__func__.8875:00000000 $d
C:\Users\Moi\AppData\Local\Temp\cchaECY7.s:7198   .data.mode.13568:00000000 $d
C:\Users\Moi\AppData\Local\Temp\cchaECY7.s:7207   .rodata.shell_cfg.13596:00000000 $d
C:\Users\Moi\AppData\Local\Temp\cchaECY7.s:7214   .bss.wa.13601:00000000 $d

ARM GAS  C:\Users\Moi\AppData\Local\Temp\cchaECY7.s 			page 456


UNDEFINED SYMBOLS
__stack_chk_fail
__stack_chk_guard
_stats_start_measure_crit_thd
_dbg_check_lock
_dbg_check_unlock
_stats_stop_measure_crit_thd
chSysHalt
ch
chvprintf
mountSDCard
unmountSDCard
f_getfree
getSDCardClusterSize
memset
scan_files
f_open
fverbose_error
f_puts
f_close
f_mkdir
f_setlabel
f_getlabel
f_read
playSoundFile
stopCurrentSoundFile
atoi
setSoundFileVolume
playMelody
stopCurrentMelody
chHeapStatus
chCoreGetStatusX
chRegFirstThread
chRegNextThread
chThdCreateFromHeap
chThdWait
TestThread
chTMObjectInit
strcmp
chTMStartMeasurementX
sqrtf
chTMStopMeasurementX
atan2f
__aeabi_f2d
parameter_defined
parameter_scalar_get
parameter_integer_get
parameter_boolean_get
parameter_string_get
parameter_namespace_find
parameter_root
parameter_find
sscanf
parameter_integer_set
parameter_boolean_set
parameter_string_set
config_erase
ARM GAS  C:\Users\Moi\AppData\Local\Temp\cchaECY7.s 			page 457


_config_start
config_save
config_load
_config_end
po8030_set_brightness
po8030_set_contrast
po8030_advanced_config
po8030_set_mirror
po8030_set_rgb_gain
po8030_set_awb
po8030_set_ae
po8030_set_exposure
dcmi_set_capture_mode
dcmi_disable_double_buffering
dcmi_enable_double_buffering
dcmi_prepare
dcmi_unprepare
dcmi_capture_start
dcmi_capture_stop
dcmi_double_buffering_enabled
chThdSleep
dcmi_get_first_buffer_ptr
po8030_get_image_size
dcmi_get_second_buffer_ptr
SDU1
set_led
set_body_led
set_front_led
right_motor_set_speed
left_motor_set_speed
get_battery_raw
dac_play
dac_stop
mic_get_volume
mic_buffer_get_size
mic_buffer_ready_reset
mic_buffer_is_ready
mic_get_buffer_ptr
sdcConnect
SDCD1
sdcWrite
sdcErase
sdcGetAndClearErrors
sdcRead
memcmp
sdcDisconnect
shellInit
shellCreate
chThdRelease
chThdCreateStatic
