ARM GAS  C:\Users\Moi\AppData\Local\Temp\ccoR0KNf.s 			page 1


   1              		.cpu cortex-m4
   2              		.eabi_attribute 27, 1
   3              		.eabi_attribute 28, 1
   4              		.eabi_attribute 20, 1
   5              		.eabi_attribute 21, 1
   6              		.eabi_attribute 23, 3
   7              		.eabi_attribute 24, 1
   8              		.eabi_attribute 25, 1
   9              		.eabi_attribute 26, 1
  10              		.eabi_attribute 30, 2
  11              		.eabi_attribute 34, 1
  12              		.eabi_attribute 18, 4
  13              		.file	"cmp_mem_access.c"
  14              		.text
  15              	.Ltext0:
  16              		.cfi_sections	.debug_frame
  17              		.section	.text.cmp_mem_writer_ro,"ax",%progbits
  18              		.align	1
  19              		.p2align 4,,15
  20              		.syntax unified
  21              		.thumb
  22              		.thumb_func
  23              		.fpu fpv4-sp-d16
  24              		.type	cmp_mem_writer_ro, %function
  25              	cmp_mem_writer_ro:
  26              	.LFB2:
  27              		.file 1 "..//src/cmp_mem_access/cmp_mem_access.c"
  28              		.loc 1 29 0
  29              		.cfi_startproc
  30              		@ args = 0, pretend = 0, frame = 8
  31              		@ frame_needed = 0, uses_anonymous_args = 0
  32              	.LVL0:
  33 0000 00B5     		push	{lr}
  34              		.cfi_def_cfa_offset 4
  35              		.cfi_offset 14, -4
  36 0002 074B     		ldr	r3, .L6
  37 0004 83B0     		sub	sp, sp, #12
  38              		.cfi_def_cfa_offset 16
  39              		.loc 1 29 0
  40 0006 1A68     		ldr	r2, [r3]
  41              	.LVL1:
  42 0008 0192     		str	r2, [sp, #4]
  43              		.loc 1 34 0
  44 000a 019A     		ldr	r2, [sp, #4]
  45 000c 1B68     		ldr	r3, [r3]
  46 000e 9A42     		cmp	r2, r3
  47 0010 03D1     		bne	.L5
  48 0012 0020     		movs	r0, #0
  49              	.LVL2:
  50 0014 03B0     		add	sp, sp, #12
  51              		.cfi_remember_state
  52              		.cfi_def_cfa_offset 4
  53              		@ sp needed
  54 0016 5DF804FB 		ldr	pc, [sp], #4
  55              	.LVL3:
  56              	.L5:
  57              		.cfi_restore_state
ARM GAS  C:\Users\Moi\AppData\Local\Temp\ccoR0KNf.s 			page 2


  58 001a FFF7FEFF 		bl	__stack_chk_fail
  59              	.LVL4:
  60              	.L7:
  61 001e 00BF     		.align	2
  62              	.L6:
  63 0020 00000000 		.word	__stack_chk_guard
  64              		.cfi_endproc
  65              	.LFE2:
  66              		.size	cmp_mem_writer_ro, .-cmp_mem_writer_ro
  67              		.section	.text.cmp_mem_writer,"ax",%progbits
  68              		.align	1
  69              		.p2align 4,,15
  70              		.syntax unified
  71              		.thumb
  72              		.thumb_func
  73              		.fpu fpv4-sp-d16
  74              		.type	cmp_mem_writer, %function
  75              	cmp_mem_writer:
  76              	.LFB1:
  77              		.loc 1 17 0
  78              		.cfi_startproc
  79              		@ args = 0, pretend = 0, frame = 8
  80              		@ frame_needed = 0, uses_anonymous_args = 0
  81              	.LVL5:
  82 0000 F0B5     		push	{r4, r5, r6, r7, lr}
  83              		.cfi_def_cfa_offset 20
  84              		.cfi_offset 4, -20
  85              		.cfi_offset 5, -16
  86              		.cfi_offset 6, -12
  87              		.cfi_offset 7, -8
  88              		.cfi_offset 14, -4
  89              		.loc 1 18 0
  90 0002 4568     		ldr	r5, [r0, #4]
  91              	.LVL6:
  92              		.loc 1 17 0
  93 0004 0D4E     		ldr	r6, .L15
  94              		.loc 1 19 0
  95 0006 D5E90130 		ldrd	r3, r0, [r5, #4]
  96              	.LVL7:
  97              		.loc 1 17 0
  98 000a 83B0     		sub	sp, sp, #12
  99              		.cfi_def_cfa_offset 32
 100              		.loc 1 19 0
 101 000c 9F18     		adds	r7, r3, r2
 102              		.loc 1 17 0
 103 000e 3468     		ldr	r4, [r6]
 104 0010 0194     		str	r4, [sp, #4]
 105              		.loc 1 19 0
 106 0012 8742     		cmp	r7, r0
 107 0014 06D9     		bls	.L13
 108              		.loc 1 24 0
 109 0016 0020     		movs	r0, #0
 110              	.LVL8:
 111              	.L8:
 112              		.loc 1 26 0
 113 0018 019A     		ldr	r2, [sp, #4]
 114 001a 3368     		ldr	r3, [r6]
ARM GAS  C:\Users\Moi\AppData\Local\Temp\ccoR0KNf.s 			page 3


 115 001c 9A42     		cmp	r2, r3
 116 001e 0BD1     		bne	.L14
 117 0020 03B0     		add	sp, sp, #12
 118              		.cfi_remember_state
 119              		.cfi_def_cfa_offset 20
 120              		@ sp needed
 121 0022 F0BD     		pop	{r4, r5, r6, r7, pc}
 122              	.LVL9:
 123              	.L13:
 124              		.cfi_restore_state
 125              		.loc 1 20 0
 126 0024 2868     		ldr	r0, [r5]
 127 0026 1844     		add	r0, r0, r3
 128 0028 1446     		mov	r4, r2
 129 002a FFF7FEFF 		bl	memcpy
 130              	.LVL10:
 131              		.loc 1 21 0
 132 002e 6B68     		ldr	r3, [r5, #4]
 133 0030 2344     		add	r3, r3, r4
 134 0032 6B60     		str	r3, [r5, #4]
 135              		.loc 1 22 0
 136 0034 2046     		mov	r0, r4
 137 0036 EFE7     		b	.L8
 138              	.LVL11:
 139              	.L14:
 140              		.loc 1 26 0
 141 0038 FFF7FEFF 		bl	__stack_chk_fail
 142              	.LVL12:
 143              	.L16:
 144              		.align	2
 145              	.L15:
 146 003c 00000000 		.word	__stack_chk_guard
 147              		.cfi_endproc
 148              	.LFE1:
 149              		.size	cmp_mem_writer, .-cmp_mem_writer
 150              		.section	.text.cmp_mem_reader,"ax",%progbits
 151              		.align	1
 152              		.p2align 4,,15
 153              		.syntax unified
 154              		.thumb
 155              		.thumb_func
 156              		.fpu fpv4-sp-d16
 157              		.type	cmp_mem_reader, %function
 158              	cmp_mem_reader:
 159              	.LFB0:
 160              		.loc 1 5 0
 161              		.cfi_startproc
 162              		@ args = 0, pretend = 0, frame = 8
 163              		@ frame_needed = 0, uses_anonymous_args = 0
 164              	.LVL13:
 165 0000 F0B5     		push	{r4, r5, r6, r7, lr}
 166              		.cfi_def_cfa_offset 20
 167              		.cfi_offset 4, -20
 168              		.cfi_offset 5, -16
 169              		.cfi_offset 6, -12
 170              		.cfi_offset 7, -8
 171              		.cfi_offset 14, -4
ARM GAS  C:\Users\Moi\AppData\Local\Temp\ccoR0KNf.s 			page 4


 172              		.loc 1 6 0
 173 0002 4468     		ldr	r4, [r0, #4]
 174              	.LVL14:
 175              		.loc 1 5 0
 176 0004 0E4D     		ldr	r5, .L24
 177              		.loc 1 7 0
 178 0006 D4E90137 		ldrd	r3, r7, [r4, #4]
 179              		.loc 1 5 0
 180 000a 83B0     		sub	sp, sp, #12
 181              		.cfi_def_cfa_offset 32
 182              		.loc 1 7 0
 183 000c 03EB020C 		add	ip, r3, r2
 184              		.loc 1 5 0
 185 0010 2868     		ldr	r0, [r5]
 186              	.LVL15:
 187 0012 0190     		str	r0, [sp, #4]
 188              		.loc 1 7 0
 189 0014 BC45     		cmp	ip, r7
 190 0016 06D9     		bls	.L22
 191              		.loc 1 12 0
 192 0018 0020     		movs	r0, #0
 193              	.LVL16:
 194              	.L18:
 195              		.loc 1 14 0
 196 001a 019A     		ldr	r2, [sp, #4]
 197 001c 2B68     		ldr	r3, [r5]
 198 001e 9A42     		cmp	r2, r3
 199 0020 0CD1     		bne	.L23
 200 0022 03B0     		add	sp, sp, #12
 201              		.cfi_remember_state
 202              		.cfi_def_cfa_offset 20
 203              		@ sp needed
 204 0024 F0BD     		pop	{r4, r5, r6, r7, pc}
 205              	.LVL17:
 206              	.L22:
 207              		.cfi_restore_state
 208              		.loc 1 8 0
 209 0026 2768     		ldr	r7, [r4]
 210 0028 0846     		mov	r0, r1
 211 002a F918     		adds	r1, r7, r3
 212              	.LVL18:
 213 002c 1646     		mov	r6, r2
 214 002e FFF7FEFF 		bl	memcpy
 215              	.LVL19:
 216              		.loc 1 9 0
 217 0032 6368     		ldr	r3, [r4, #4]
 218 0034 1E44     		add	r6, r6, r3
 219              	.LVL20:
 220 0036 6660     		str	r6, [r4, #4]
 221              		.loc 1 10 0
 222 0038 0120     		movs	r0, #1
 223 003a EEE7     		b	.L18
 224              	.L23:
 225              		.loc 1 14 0
 226 003c FFF7FEFF 		bl	__stack_chk_fail
 227              	.LVL21:
 228              	.L25:
ARM GAS  C:\Users\Moi\AppData\Local\Temp\ccoR0KNf.s 			page 5


 229              		.align	2
 230              	.L24:
 231 0040 00000000 		.word	__stack_chk_guard
 232              		.cfi_endproc
 233              	.LFE0:
 234              		.size	cmp_mem_reader, .-cmp_mem_reader
 235              		.section	.text.cmp_mem_access_init,"ax",%progbits
 236              		.align	1
 237              		.p2align 4,,15
 238              		.global	cmp_mem_access_init
 239              		.syntax unified
 240              		.thumb
 241              		.thumb_func
 242              		.fpu fpv4-sp-d16
 243              		.type	cmp_mem_access_init, %function
 244              	cmp_mem_access_init:
 245              	.LFB3:
 246              		.loc 1 37 0
 247              		.cfi_startproc
 248              		@ args = 0, pretend = 0, frame = 8
 249              		@ frame_needed = 0, uses_anonymous_args = 0
 250              	.LVL22:
 251 0000 F0B5     		push	{r4, r5, r6, r7, lr}
 252              		.cfi_def_cfa_offset 20
 253              		.cfi_offset 4, -20
 254              		.cfi_offset 5, -16
 255              		.cfi_offset 6, -12
 256              		.cfi_offset 7, -8
 257              		.cfi_offset 14, -4
 258 0002 0A4C     		ldr	r4, .L31
 259 0004 83B0     		sub	sp, sp, #12
 260              		.cfi_def_cfa_offset 32
 261              		.loc 1 37 0
 262 0006 2568     		ldr	r5, [r4]
 263 0008 0195     		str	r5, [sp, #4]
 264              		.loc 1 41 0
 265 000a 019E     		ldr	r6, [sp, #4]
 266 000c 2568     		ldr	r5, [r4]
 267              		.loc 1 38 0
 268 000e 0A60     		str	r2, [r1]
 269              		.loc 1 40 0
 270 0010 0027     		movs	r7, #0
 271              		.loc 1 41 0
 272 0012 AE42     		cmp	r6, r5
 273              		.loc 1 40 0
 274 0014 C1E90173 		strd	r7, r3, [r1, #4]
 275              		.loc 1 41 0
 276 0018 06D1     		bne	.L30
 277 001a 054B     		ldr	r3, .L31+4
 278              	.LVL23:
 279 001c 054A     		ldr	r2, .L31+8
 280              	.LVL24:
 281              		.loc 1 42 0
 282 001e 03B0     		add	sp, sp, #12
 283              		.cfi_remember_state
 284              		.cfi_def_cfa_offset 20
 285              		@ sp needed
ARM GAS  C:\Users\Moi\AppData\Local\Temp\ccoR0KNf.s 			page 6


 286 0020 BDE8F040 		pop	{r4, r5, r6, r7, lr}
 287              		.cfi_restore 14
 288              		.cfi_restore 7
 289              		.cfi_restore 6
 290              		.cfi_restore 5
 291              		.cfi_restore 4
 292              		.cfi_def_cfa_offset 0
 293              		.loc 1 41 0
 294 0024 FFF7FEBF 		b	cmp_init
 295              	.LVL25:
 296              	.L30:
 297              		.cfi_restore_state
 298 0028 FFF7FEFF 		bl	__stack_chk_fail
 299              	.LVL26:
 300              	.L32:
 301              		.align	2
 302              	.L31:
 303 002c 00000000 		.word	__stack_chk_guard
 304 0030 00000000 		.word	cmp_mem_writer
 305 0034 00000000 		.word	cmp_mem_reader
 306              		.cfi_endproc
 307              	.LFE3:
 308              		.size	cmp_mem_access_init, .-cmp_mem_access_init
 309              		.section	.text.cmp_mem_access_ro_init,"ax",%progbits
 310              		.align	1
 311              		.p2align 4,,15
 312              		.global	cmp_mem_access_ro_init
 313              		.syntax unified
 314              		.thumb
 315              		.thumb_func
 316              		.fpu fpv4-sp-d16
 317              		.type	cmp_mem_access_ro_init, %function
 318              	cmp_mem_access_ro_init:
 319              	.LFB4:
 320              		.loc 1 45 0
 321              		.cfi_startproc
 322              		@ args = 0, pretend = 0, frame = 8
 323              		@ frame_needed = 0, uses_anonymous_args = 0
 324              	.LVL27:
 325 0000 F0B5     		push	{r4, r5, r6, r7, lr}
 326              		.cfi_def_cfa_offset 20
 327              		.cfi_offset 4, -20
 328              		.cfi_offset 5, -16
 329              		.cfi_offset 6, -12
 330              		.cfi_offset 7, -8
 331              		.cfi_offset 14, -4
 332 0002 0A4C     		ldr	r4, .L38
 333 0004 83B0     		sub	sp, sp, #12
 334              		.cfi_def_cfa_offset 32
 335              		.loc 1 45 0
 336 0006 2568     		ldr	r5, [r4]
 337 0008 0195     		str	r5, [sp, #4]
 338              		.loc 1 49 0
 339 000a 019E     		ldr	r6, [sp, #4]
 340 000c 2568     		ldr	r5, [r4]
 341              		.loc 1 46 0
 342 000e 0A60     		str	r2, [r1]
ARM GAS  C:\Users\Moi\AppData\Local\Temp\ccoR0KNf.s 			page 7


 343              		.loc 1 48 0
 344 0010 0027     		movs	r7, #0
 345              		.loc 1 49 0
 346 0012 AE42     		cmp	r6, r5
 347              		.loc 1 48 0
 348 0014 C1E90173 		strd	r7, r3, [r1, #4]
 349              		.loc 1 49 0
 350 0018 06D1     		bne	.L37
 351 001a 054B     		ldr	r3, .L38+4
 352              	.LVL28:
 353 001c 054A     		ldr	r2, .L38+8
 354              	.LVL29:
 355              		.loc 1 50 0
 356 001e 03B0     		add	sp, sp, #12
 357              		.cfi_remember_state
 358              		.cfi_def_cfa_offset 20
 359              		@ sp needed
 360 0020 BDE8F040 		pop	{r4, r5, r6, r7, lr}
 361              		.cfi_restore 14
 362              		.cfi_restore 7
 363              		.cfi_restore 6
 364              		.cfi_restore 5
 365              		.cfi_restore 4
 366              		.cfi_def_cfa_offset 0
 367              		.loc 1 49 0
 368 0024 FFF7FEBF 		b	cmp_init
 369              	.LVL30:
 370              	.L37:
 371              		.cfi_restore_state
 372 0028 FFF7FEFF 		bl	__stack_chk_fail
 373              	.LVL31:
 374              	.L39:
 375              		.align	2
 376              	.L38:
 377 002c 00000000 		.word	__stack_chk_guard
 378 0030 00000000 		.word	cmp_mem_writer_ro
 379 0034 00000000 		.word	cmp_mem_reader
 380              		.cfi_endproc
 381              	.LFE4:
 382              		.size	cmp_mem_access_ro_init, .-cmp_mem_access_ro_init
 383              		.section	.text.cmp_mem_access_get_pos,"ax",%progbits
 384              		.align	1
 385              		.p2align 4,,15
 386              		.global	cmp_mem_access_get_pos
 387              		.syntax unified
 388              		.thumb
 389              		.thumb_func
 390              		.fpu fpv4-sp-d16
 391              		.type	cmp_mem_access_get_pos, %function
 392              	cmp_mem_access_get_pos:
 393              	.LFB5:
 394              		.loc 1 53 0
 395              		.cfi_startproc
 396              		@ args = 0, pretend = 0, frame = 8
 397              		@ frame_needed = 0, uses_anonymous_args = 0
 398              	.LVL32:
 399 0000 00B5     		push	{lr}
ARM GAS  C:\Users\Moi\AppData\Local\Temp\ccoR0KNf.s 			page 8


 400              		.cfi_def_cfa_offset 4
 401              		.cfi_offset 14, -4
 402 0002 074B     		ldr	r3, .L44
 403              		.loc 1 55 0
 404 0004 4068     		ldr	r0, [r0, #4]
 405              	.LVL33:
 406              		.loc 1 53 0
 407 0006 1A68     		ldr	r2, [r3]
 408 0008 83B0     		sub	sp, sp, #12
 409              		.cfi_def_cfa_offset 16
 410              		.loc 1 53 0
 411 000a 0192     		str	r2, [sp, #4]
 412              		.loc 1 55 0
 413 000c 019A     		ldr	r2, [sp, #4]
 414 000e 1B68     		ldr	r3, [r3]
 415 0010 9A42     		cmp	r2, r3
 416 0012 02D1     		bne	.L43
 417 0014 03B0     		add	sp, sp, #12
 418              		.cfi_remember_state
 419              		.cfi_def_cfa_offset 4
 420              		@ sp needed
 421 0016 5DF804FB 		ldr	pc, [sp], #4
 422              	.L43:
 423              		.cfi_restore_state
 424 001a FFF7FEFF 		bl	__stack_chk_fail
 425              	.LVL34:
 426              	.L45:
 427 001e 00BF     		.align	2
 428              	.L44:
 429 0020 00000000 		.word	__stack_chk_guard
 430              		.cfi_endproc
 431              	.LFE5:
 432              		.size	cmp_mem_access_get_pos, .-cmp_mem_access_get_pos
 433              		.section	.text.cmp_mem_access_set_pos,"ax",%progbits
 434              		.align	1
 435              		.p2align 4,,15
 436              		.global	cmp_mem_access_set_pos
 437              		.syntax unified
 438              		.thumb
 439              		.thumb_func
 440              		.fpu fpv4-sp-d16
 441              		.type	cmp_mem_access_set_pos, %function
 442              	cmp_mem_access_set_pos:
 443              	.LFB6:
 444              		.loc 1 58 0
 445              		.cfi_startproc
 446              		@ args = 0, pretend = 0, frame = 8
 447              		@ frame_needed = 0, uses_anonymous_args = 0
 448              	.LVL35:
 449 0000 00B5     		push	{lr}
 450              		.cfi_def_cfa_offset 4
 451              		.cfi_offset 14, -4
 452 0002 074B     		ldr	r3, .L50
 453              		.loc 1 59 0
 454 0004 4160     		str	r1, [r0, #4]
 455              		.loc 1 58 0
 456 0006 83B0     		sub	sp, sp, #12
ARM GAS  C:\Users\Moi\AppData\Local\Temp\ccoR0KNf.s 			page 9


 457              		.cfi_def_cfa_offset 16
 458              		.loc 1 58 0
 459 0008 1A68     		ldr	r2, [r3]
 460 000a 0192     		str	r2, [sp, #4]
 461              		.loc 1 60 0
 462 000c 019A     		ldr	r2, [sp, #4]
 463 000e 1B68     		ldr	r3, [r3]
 464 0010 9A42     		cmp	r2, r3
 465 0012 02D1     		bne	.L49
 466 0014 03B0     		add	sp, sp, #12
 467              		.cfi_remember_state
 468              		.cfi_def_cfa_offset 4
 469              		@ sp needed
 470 0016 5DF804FB 		ldr	pc, [sp], #4
 471              	.L49:
 472              		.cfi_restore_state
 473 001a FFF7FEFF 		bl	__stack_chk_fail
 474              	.LVL36:
 475              	.L51:
 476 001e 00BF     		.align	2
 477              	.L50:
 478 0020 00000000 		.word	__stack_chk_guard
 479              		.cfi_endproc
 480              	.LFE6:
 481              		.size	cmp_mem_access_set_pos, .-cmp_mem_access_set_pos
 482              		.section	.text.cmp_mem_access_get_ptr_at_pos,"ax",%progbits
 483              		.align	1
 484              		.p2align 4,,15
 485              		.global	cmp_mem_access_get_ptr_at_pos
 486              		.syntax unified
 487              		.thumb
 488              		.thumb_func
 489              		.fpu fpv4-sp-d16
 490              		.type	cmp_mem_access_get_ptr_at_pos, %function
 491              	cmp_mem_access_get_ptr_at_pos:
 492              	.LFB7:
 493              		.loc 1 63 0
 494              		.cfi_startproc
 495              		@ args = 0, pretend = 0, frame = 8
 496              		@ frame_needed = 0, uses_anonymous_args = 0
 497              	.LVL37:
 498 0000 00B5     		push	{lr}
 499              		.cfi_def_cfa_offset 4
 500              		.cfi_offset 14, -4
 501 0002 074B     		ldr	r3, .L56
 502              		.loc 1 64 0
 503 0004 0068     		ldr	r0, [r0]
 504              	.LVL38:
 505              		.loc 1 63 0
 506 0006 1A68     		ldr	r2, [r3]
 507 0008 83B0     		sub	sp, sp, #12
 508              		.cfi_def_cfa_offset 16
 509              		.loc 1 65 0
 510 000a 0844     		add	r0, r0, r1
 511              		.loc 1 63 0
 512 000c 0192     		str	r2, [sp, #4]
 513              		.loc 1 65 0
ARM GAS  C:\Users\Moi\AppData\Local\Temp\ccoR0KNf.s 			page 10


 514 000e 019A     		ldr	r2, [sp, #4]
 515 0010 1B68     		ldr	r3, [r3]
 516 0012 9A42     		cmp	r2, r3
 517 0014 02D1     		bne	.L55
 518 0016 03B0     		add	sp, sp, #12
 519              		.cfi_remember_state
 520              		.cfi_def_cfa_offset 4
 521              		@ sp needed
 522 0018 5DF804FB 		ldr	pc, [sp], #4
 523              	.L55:
 524              		.cfi_restore_state
 525 001c FFF7FEFF 		bl	__stack_chk_fail
 526              	.LVL39:
 527              	.L57:
 528              		.align	2
 529              	.L56:
 530 0020 00000000 		.word	__stack_chk_guard
 531              		.cfi_endproc
 532              	.LFE7:
 533              		.size	cmp_mem_access_get_ptr_at_pos, .-cmp_mem_access_get_ptr_at_pos
 534              		.section	.text.cmp_mem_access_pos_is_valid,"ax",%progbits
 535              		.align	1
 536              		.p2align 4,,15
 537              		.global	cmp_mem_access_pos_is_valid
 538              		.syntax unified
 539              		.thumb
 540              		.thumb_func
 541              		.fpu fpv4-sp-d16
 542              		.type	cmp_mem_access_pos_is_valid, %function
 543              	cmp_mem_access_pos_is_valid:
 544              	.LFB8:
 545              		.loc 1 68 0
 546              		.cfi_startproc
 547              		@ args = 0, pretend = 0, frame = 8
 548              		@ frame_needed = 0, uses_anonymous_args = 0
 549              	.LVL40:
 550 0000 00B5     		push	{lr}
 551              		.cfi_def_cfa_offset 4
 552              		.cfi_offset 14, -4
 553 0002 094B     		ldr	r3, .L62
 554              		.loc 1 69 0
 555 0004 8068     		ldr	r0, [r0, #8]
 556              	.LVL41:
 557              		.loc 1 68 0
 558 0006 1A68     		ldr	r2, [r3]
 559 0008 83B0     		sub	sp, sp, #12
 560              		.cfi_def_cfa_offset 16
 561              		.loc 1 74 0
 562 000a 8842     		cmp	r0, r1
 563              		.loc 1 68 0
 564 000c 0192     		str	r2, [sp, #4]
 565              		.loc 1 74 0
 566 000e 019A     		ldr	r2, [sp, #4]
 567 0010 1B68     		ldr	r3, [r3]
 568 0012 94BF     		ite	ls
 569 0014 0020     		movls	r0, #0
 570 0016 0120     		movhi	r0, #1
ARM GAS  C:\Users\Moi\AppData\Local\Temp\ccoR0KNf.s 			page 11


 571 0018 9A42     		cmp	r2, r3
 572 001a 02D1     		bne	.L61
 573 001c 03B0     		add	sp, sp, #12
 574              		.cfi_remember_state
 575              		.cfi_def_cfa_offset 4
 576              		@ sp needed
 577 001e 5DF804FB 		ldr	pc, [sp], #4
 578              	.L61:
 579              		.cfi_restore_state
 580 0022 FFF7FEFF 		bl	__stack_chk_fail
 581              	.LVL42:
 582              	.L63:
 583 0026 00BF     		.align	2
 584              	.L62:
 585 0028 00000000 		.word	__stack_chk_guard
 586              		.cfi_endproc
 587              	.LFE8:
 588              		.size	cmp_mem_access_pos_is_valid, .-cmp_mem_access_pos_is_valid
 589              		.text
 590              	.Letext0:
 591              		.file 2 "c:\\users\\moi\\documents\\_microinfo\\epuck-eclipse\\tools\\gcc-arm-none-eabi-7-2017-q4-
 592              		.file 3 "c:\\users\\moi\\documents\\_microinfo\\epuck-eclipse\\tools\\gcc-arm-none-eabi-7-2017-q4-
 593              		.file 4 "c:\\users\\moi\\documents\\_microinfo\\epuck-eclipse\\tools\\gcc-arm-none-eabi-7-2017-q4-
 594              		.file 5 "c:\\users\\moi\\documents\\_microinfo\\epuck-eclipse\\tools\\gcc-arm-none-eabi-7-2017-q4-
 595              		.file 6 "c:\\users\\moi\\documents\\_microinfo\\epuck-eclipse\\tools\\gcc-arm-none-eabi-7-2017-q4-
 596              		.file 7 "c:\\users\\moi\\documents\\_microinfo\\epuck-eclipse\\tools\\gcc-arm-none-eabi-7-2017-q4-
 597              		.file 8 "c:\\users\\moi\\documents\\_microinfo\\epuck-eclipse\\tools\\gcc-arm-none-eabi-7-2017-q4-
 598              		.file 9 "..//src/cmp/cmp.h"
 599              		.file 10 "..//src/cmp_mem_access/cmp_mem_access.h"
 600              		.file 11 "<built-in>"