ARM GAS  C:\Users\Moi\AppData\Local\Temp\ccoR0KNf.s 			page 1


   1              		.cpu cortex-m4
   2              		.eabi_attribute 27, 1
   3              		.eabi_attribute 28, 1
   4              		.eabi_attribute 20, 1
   5              		.eabi_attribute 21, 1
   6              		.eabi_attribute 23, 3
   7              		.eabi_attribute 24, 1
   8              		.eabi_attribute 25, 1
   9              		.eabi_attribute 26, 1
  10              		.eabi_attribute 30, 2
  11              		.eabi_attribute 34, 1
  12              		.eabi_attribute 18, 4
  13              		.file	"cmp_mem_access.c"
  14              		.text
  15              	.Ltext0:
  16              		.cfi_sections	.debug_frame
  17              		.section	.text.cmp_mem_writer_ro,"ax",%progbits
  18              		.align	1
  19              		.p2align 4,,15
  20              		.syntax unified
  21              		.thumb
  22              		.thumb_func
  23              		.fpu fpv4-sp-d16
  24              		.type	cmp_mem_writer_ro, %function
  25              	cmp_mem_writer_ro:
  26              	.LFB2:
  27              		.file 1 "..//src/cmp_mem_access/cmp_mem_access.c"
  28              		.loc 1 29 0
  29              		.cfi_startproc
  30              		@ args = 0, pretend = 0, frame = 8
  31              		@ frame_needed = 0, uses_anonymous_args = 0
  32              	.LVL0:
  33 0000 00B5     		push	{lr}
  34              		.cfi_def_cfa_offset 4
  35              		.cfi_offset 14, -4
  36 0002 074B     		ldr	r3, .L6
  37 0004 83B0     		sub	sp, sp, #12
  38              		.cfi_def_cfa_offset 16
  39              		.loc 1 29 0
  40 0006 1A68     		ldr	r2, [r3]
  41              	.LVL1:
  42 0008 0192     		str	r2, [sp, #4]
  43              		.loc 1 34 0
  44 000a 019A     		ldr	r2, [sp, #4]
  45 000c 1B68     		ldr	r3, [r3]
  46 000e 9A42     		cmp	r2, r3
  47 0010 03D1     		bne	.L5
  48 0012 0020     		movs	r0, #0
  49              	.LVL2:
  50 0014 03B0     		add	sp, sp, #12
  51              		.cfi_remember_state
  52              		.cfi_def_cfa_offset 4
  53              		@ sp needed
  54 0016 5DF804FB 		ldr	pc, [sp], #4
  55              	.LVL3:
  56              	.L5:
  57              		.cfi_restore_state
ARM GAS  C:\Users\Moi\AppData\Local\Temp\ccoR0KNf.s 			page 2


  58 001a FFF7FEFF 		bl	__stack_chk_fail
  59              	.LVL4:
  60              	.L7:
  61 001e 00BF     		.align	2
  62              	.L6:
  63 0020 00000000 		.word	__stack_chk_guard
  64              		.cfi_endproc
  65              	.LFE2:
  66              		.size	cmp_mem_writer_ro, .-cmp_mem_writer_ro
  67              		.section	.text.cmp_mem_writer,"ax",%progbits
  68              		.align	1
  69              		.p2align 4,,15
  70              		.syntax unified
  71              		.thumb
  72              		.thumb_func
  73              		.fpu fpv4-sp-d16
  74              		.type	cmp_mem_writer, %function
  75              	cmp_mem_writer:
  76              	.LFB1:
  77              		.loc 1 17 0
  78              		.cfi_startproc
  79              		@ args = 0, pretend = 0, frame = 8
  80              		@ frame_needed = 0, uses_anonymous_args = 0
  81              	.LVL5:
  82 0000 F0B5     		push	{r4, r5, r6, r7, lr}
  83              		.cfi_def_cfa_offset 20
  84              		.cfi_offset 4, -20
  85              		.cfi_offset 5, -16
  86              		.cfi_offset 6, -12
  87              		.cfi_offset 7, -8
  88              		.cfi_offset 14, -4
  89              		.loc 1 18 0
  90 0002 4568     		ldr	r5, [r0, #4]
  91              	.LVL6:
  92              		.loc 1 17 0
  93 0004 0D4E     		ldr	r6, .L15
  94              		.loc 1 19 0
  95 0006 D5E90130 		ldrd	r3, r0, [r5, #4]
  96              	.LVL7:
  97              		.loc 1 17 0
  98 000a 83B0     		sub	sp, sp, #12
  99              		.cfi_def_cfa_offset 32
 100              		.loc 1 19 0
 101 000c 9F18     		adds	r7, r3, r2
 102              		.loc 1 17 0
 103 000e 3468     		ldr	r4, [r6]
 104 0010 0194     		str	r4, [sp, #4]
 105              		.loc 1 19 0
 106 0012 8742     		cmp	r7, r0
 107 0014 06D9     		bls	.L13
 108              		.loc 1 24 0
 109 0016 0020     		movs	r0, #0
 110              	.LVL8:
 111              	.L8:
 112              		.loc 1 26 0
 113 0018 019A     		ldr	r2, [sp, #4]
 114 001a 3368     		ldr	r3, [r6]
ARM GAS  C:\Users\Moi\AppData\Local\Temp\ccoR0KNf.s 			page 3


 115 001c 9A42     		cmp	r2, r3
 116 001e 0BD1     		bne	.L14
 117 0020 03B0     		add	sp, sp, #12
 118              		.cfi_remember_state
 119              		.cfi_def_cfa_offset 20
 120              		@ sp needed
 121 0022 F0BD     		pop	{r4, r5, r6, r7, pc}
 122              	.LVL9:
 123              	.L13:
 124              		.cfi_restore_state
 125              		.loc 1 20 0
 126 0024 2868     		ldr	r0, [r5]
 127 0026 1844     		add	r0, r0, r3
 128 0028 1446     		mov	r4, r2
 129 002a FFF7FEFF 		bl	memcpy
 130              	.LVL10:
 131              		.loc 1 21 0
 132 002e 6B68     		ldr	r3, [r5, #4]
 133 0030 2344     		add	r3, r3, r4
 134 0032 6B60     		str	r3, [r5, #4]
 135              		.loc 1 22 0
 136 0034 2046     		mov	r0, r4
 137 0036 EFE7     		b	.L8
 138              	.LVL11:
 139              	.L14:
 140              		.loc 1 26 0
 141 0038 FFF7FEFF 		bl	__stack_chk_fail
 142              	.LVL12:
 143              	.L16:
 144              		.align	2
 145              	.L15:
 146 003c 00000000 		.word	__stack_chk_guard
 147              		.cfi_endproc
 148              	.LFE1:
 149              		.size	cmp_mem_writer, .-cmp_mem_writer
 150              		.section	.text.cmp_mem_reader,"ax",%progbits
 151              		.align	1
 152              		.p2align 4,,15
 153              		.syntax unified
 154              		.thumb
 155              		.thumb_func
 156              		.fpu fpv4-sp-d16
 157              		.type	cmp_mem_reader, %function
 158              	cmp_mem_reader:
 159              	.LFB0:
 160              		.loc 1 5 0
 161              		.cfi_startproc
 162              		@ args = 0, pretend = 0, frame = 8
 163              		@ frame_needed = 0, uses_anonymous_args = 0
 164              	.LVL13:
 165 0000 F0B5     		push	{r4, r5, r6, r7, lr}
 166              		.cfi_def_cfa_offset 20
 167              		.cfi_offset 4, -20
 168              		.cfi_offset 5, -16
 169              		.cfi_offset 6, -12
 170              		.cfi_offset 7, -8
 171              		.cfi_offset 14, -4
ARM GAS  C:\Users\Moi\AppData\Local\Temp\ccoR0KNf.s 			page 4


 172              		.loc 1 6 0
 173 0002 4468     		ldr	r4, [r0, #4]
 174              	.LVL14:
 175              		.loc 1 5 0
 176 0004 0E4D     		ldr	r5, .L24
 177              		.loc 1 7 0
 178 0006 D4E90137 		ldrd	r3, r7, [r4, #4]
 179              		.loc 1 5 0
 180 000a 83B0     		sub	sp, sp, #12
 181              		.cfi_def_cfa_offset 32
 182              		.loc 1 7 0
 183 000c 03EB020C 		add	ip, r3, r2
 184              		.loc 1 5 0
 185 0010 2868     		ldr	r0, [r5]
 186              	.LVL15:
 187 0012 0190     		str	r0, [sp, #4]
 188              		.loc 1 7 0
 189 0014 BC45     		cmp	ip, r7
 190 0016 06D9     		bls	.L22
 191              		.loc 1 12 0
 192 0018 0020     		movs	r0, #0
 193              	.LVL16:
 194              	.L18:
 195              		.loc 1 14 0
 196 001a 019A     		ldr	r2, [sp, #4]
 197 001c 2B68     		ldr	r3, [r5]
 198 001e 9A42     		cmp	r2, r3
 199 0020 0CD1     		bne	.L23
 200 0022 03B0     		add	sp, sp, #12
 201              		.cfi_remember_state
 202              		.cfi_def_cfa_offset 20
 203              		@ sp needed
 204 0024 F0BD     		pop	{r4, r5, r6, r7, pc}
 205              	.LVL17:
 206              	.L22:
 207              		.cfi_restore_state
 208              		.loc 1 8 0
 209 0026 2768     		ldr	r7, [r4]
 210 0028 0846     		mov	r0, r1
 211 002a F918     		adds	r1, r7, r3
 212              	.LVL18:
 213 002c 1646     		mov	r6, r2
 214 002e FFF7FEFF 		bl	memcpy
 215              	.LVL19:
 216              		.loc 1 9 0
 217 0032 6368     		ldr	r3, [r4, #4]
 218 0034 1E44     		add	r6, r6, r3
 219              	.LVL20:
 220 0036 6660     		str	r6, [r4, #4]
 221              		.loc 1 10 0
 222 0038 0120     		movs	r0, #1
 223 003a EEE7     		b	.L18
 224              	.L23:
 225              		.loc 1 14 0
 226 003c FFF7FEFF 		bl	__stack_chk_fail
 227              	.LVL21:
 228              	.L25:
ARM GAS  C:\Users\Moi\AppData\Local\Temp\ccoR0KNf.s 			page 5


 229              		.align	2
 230              	.L24:
 231 0040 00000000 		.word	__stack_chk_guard
 232              		.cfi_endproc
 233              	.LFE0:
 234              		.size	cmp_mem_reader, .-cmp_mem_reader
 235              		.section	.text.cmp_mem_access_init,"ax",%progbits
 236              		.align	1
 237              		.p2align 4,,15
 238              		.global	cmp_mem_access_init
 239              		.syntax unified
 240              		.thumb
 241              		.thumb_func
 242              		.fpu fpv4-sp-d16
 243              		.type	cmp_mem_access_init, %function
 244              	cmp_mem_access_init:
 245              	.LFB3:
 246              		.loc 1 37 0
 247              		.cfi_startproc
 248              		@ args = 0, pretend = 0, frame = 8
 249              		@ frame_needed = 0, uses_anonymous_args = 0
 250              	.LVL22:
 251 0000 F0B5     		push	{r4, r5, r6, r7, lr}
 252              		.cfi_def_cfa_offset 20
 253              		.cfi_offset 4, -20
 254              		.cfi_offset 5, -16
 255              		.cfi_offset 6, -12
 256              		.cfi_offset 7, -8
 257              		.cfi_offset 14, -4
 258 0002 0A4C     		ldr	r4, .L31
 259 0004 83B0     		sub	sp, sp, #12
 260              		.cfi_def_cfa_offset 32
 261              		.loc 1 37 0
 262 0006 2568     		ldr	r5, [r4]
 263 0008 0195     		str	r5, [sp, #4]
 264              		.loc 1 41 0
 265 000a 019E     		ldr	r6, [sp, #4]
 266 000c 2568     		ldr	r5, [r4]
 267              		.loc 1 38 0
 268 000e 0A60     		str	r2, [r1]
 269              		.loc 1 40 0
 270 0010 0027     		movs	r7, #0
 271              		.loc 1 41 0
 272 0012 AE42     		cmp	r6, r5
 273              		.loc 1 40 0
 274 0014 C1E90173 		strd	r7, r3, [r1, #4]
 275              		.loc 1 41 0
 276 0018 06D1     		bne	.L30
 277 001a 054B     		ldr	r3, .L31+4
 278              	.LVL23:
 279 001c 054A     		ldr	r2, .L31+8
 280              	.LVL24:
 281              		.loc 1 42 0
 282 001e 03B0     		add	sp, sp, #12
 283              		.cfi_remember_state
 284              		.cfi_def_cfa_offset 20
 285              		@ sp needed
ARM GAS  C:\Users\Moi\AppData\Local\Temp\ccoR0KNf.s 			page 6


 286 0020 BDE8F040 		pop	{r4, r5, r6, r7, lr}
 287              		.cfi_restore 14
 288              		.cfi_restore 7
 289              		.cfi_restore 6
 290              		.cfi_restore 5
 291              		.cfi_restore 4
 292              		.cfi_def_cfa_offset 0
 293              		.loc 1 41 0
 294 0024 FFF7FEBF 		b	cmp_init
 295              	.LVL25:
 296              	.L30:
 297              		.cfi_restore_state
 298 0028 FFF7FEFF 		bl	__stack_chk_fail
 299              	.LVL26:
 300              	.L32:
 301              		.align	2
 302              	.L31:
 303 002c 00000000 		.word	__stack_chk_guard
 304 0030 00000000 		.word	cmp_mem_writer
 305 0034 00000000 		.word	cmp_mem_reader
 306              		.cfi_endproc
 307              	.LFE3:
 308              		.size	cmp_mem_access_init, .-cmp_mem_access_init
 309              		.section	.text.cmp_mem_access_ro_init,"ax",%progbits
 310              		.align	1
 311              		.p2align 4,,15
 312              		.global	cmp_mem_access_ro_init
 313              		.syntax unified
 314              		.thumb
 315              		.thumb_func
 316              		.fpu fpv4-sp-d16
 317              		.type	cmp_mem_access_ro_init, %function
 318              	cmp_mem_access_ro_init:
 319              	.LFB4:
 320              		.loc 1 45 0
 321              		.cfi_startproc
 322              		@ args = 0, pretend = 0, frame = 8
 323              		@ frame_needed = 0, uses_anonymous_args = 0
 324              	.LVL27:
 325 0000 F0B5     		push	{r4, r5, r6, r7, lr}
 326              		.cfi_def_cfa_offset 20
 327              		.cfi_offset 4, -20
 328              		.cfi_offset 5, -16
 329              		.cfi_offset 6, -12
 330              		.cfi_offset 7, -8
 331              		.cfi_offset 14, -4
 332 0002 0A4C     		ldr	r4, .L38
 333 0004 83B0     		sub	sp, sp, #12
 334              		.cfi_def_cfa_offset 32
 335              		.loc 1 45 0
 336 0006 2568     		ldr	r5, [r4]
 337 0008 0195     		str	r5, [sp, #4]
 338              		.loc 1 49 0
 339 000a 019E     		ldr	r6, [sp, #4]
 340 000c 2568     		ldr	r5, [r4]
 341              		.loc 1 46 0
 342 000e 0A60     		str	r2, [r1]
ARM GAS  C:\Users\Moi\AppData\Local\Temp\ccoR0KNf.s 			page 7


 343              		.loc 1 48 0
 344 0010 0027     		movs	r7, #0
 345              		.loc 1 49 0
 346 0012 AE42     		cmp	r6, r5
 347              		.loc 1 48 0
 348 0014 C1E90173 		strd	r7, r3, [r1, #4]
 349              		.loc 1 49 0
 350 0018 06D1     		bne	.L37
 351 001a 054B     		ldr	r3, .L38+4
 352              	.LVL28:
 353 001c 054A     		ldr	r2, .L38+8
 354              	.LVL29:
 355              		.loc 1 50 0
 356 001e 03B0     		add	sp, sp, #12
 357              		.cfi_remember_state
 358              		.cfi_def_cfa_offset 20
 359              		@ sp needed
 360 0020 BDE8F040 		pop	{r4, r5, r6, r7, lr}
 361              		.cfi_restore 14
 362              		.cfi_restore 7
 363              		.cfi_restore 6
 364              		.cfi_restore 5
 365              		.cfi_restore 4
 366              		.cfi_def_cfa_offset 0
 367              		.loc 1 49 0
 368 0024 FFF7FEBF 		b	cmp_init
 369              	.LVL30:
 370              	.L37:
 371              		.cfi_restore_state
 372 0028 FFF7FEFF 		bl	__stack_chk_fail
 373              	.LVL31:
 374              	.L39:
 375              		.align	2
 376              	.L38:
 377 002c 00000000 		.word	__stack_chk_guard
 378 0030 00000000 		.word	cmp_mem_writer_ro
 379 0034 00000000 		.word	cmp_mem_reader
 380              		.cfi_endproc
 381              	.LFE4:
 382              		.size	cmp_mem_access_ro_init, .-cmp_mem_access_ro_init
 383              		.section	.text.cmp_mem_access_get_pos,"ax",%progbits
 384              		.align	1
 385              		.p2align 4,,15
 386              		.global	cmp_mem_access_get_pos
 387              		.syntax unified
 388              		.thumb
 389              		.thumb_func
 390              		.fpu fpv4-sp-d16
 391              		.type	cmp_mem_access_get_pos, %function
 392              	cmp_mem_access_get_pos:
 393              	.LFB5:
 394              		.loc 1 53 0
 395              		.cfi_startproc
 396              		@ args = 0, pretend = 0, frame = 8
 397              		@ frame_needed = 0, uses_anonymous_args = 0
 398              	.LVL32:
 399 0000 00B5     		push	{lr}
ARM GAS  C:\Users\Moi\AppData\Local\Temp\ccoR0KNf.s 			page 8


 400              		.cfi_def_cfa_offset 4
 401              		.cfi_offset 14, -4
 402 0002 074B     		ldr	r3, .L44
 403              		.loc 1 55 0
 404 0004 4068     		ldr	r0, [r0, #4]
 405              	.LVL33:
 406              		.loc 1 53 0
 407 0006 1A68     		ldr	r2, [r3]
 408 0008 83B0     		sub	sp, sp, #12
 409              		.cfi_def_cfa_offset 16
 410              		.loc 1 53 0
 411 000a 0192     		str	r2, [sp, #4]
 412              		.loc 1 55 0
 413 000c 019A     		ldr	r2, [sp, #4]
 414 000e 1B68     		ldr	r3, [r3]
 415 0010 9A42     		cmp	r2, r3
 416 0012 02D1     		bne	.L43
 417 0014 03B0     		add	sp, sp, #12
 418              		.cfi_remember_state
 419              		.cfi_def_cfa_offset 4
 420              		@ sp needed
 421 0016 5DF804FB 		ldr	pc, [sp], #4
 422              	.L43:
 423              		.cfi_restore_state
 424 001a FFF7FEFF 		bl	__stack_chk_fail
 425              	.LVL34:
 426              	.L45:
 427 001e 00BF     		.align	2
 428              	.L44:
 429 0020 00000000 		.word	__stack_chk_guard
 430              		.cfi_endproc
 431              	.LFE5:
 432              		.size	cmp_mem_access_get_pos, .-cmp_mem_access_get_pos
 433              		.section	.text.cmp_mem_access_set_pos,"ax",%progbits
 434              		.align	1
 435              		.p2align 4,,15
 436              		.global	cmp_mem_access_set_pos
 437              		.syntax unified
 438              		.thumb
 439              		.thumb_func
 440              		.fpu fpv4-sp-d16
 441              		.type	cmp_mem_access_set_pos, %function
 442              	cmp_mem_access_set_pos:
 443              	.LFB6:
 444              		.loc 1 58 0
 445              		.cfi_startproc
 446              		@ args = 0, pretend = 0, frame = 8
 447              		@ frame_needed = 0, uses_anonymous_args = 0
 448              	.LVL35:
 449 0000 00B5     		push	{lr}
 450              		.cfi_def_cfa_offset 4
 451              		.cfi_offset 14, -4
 452 0002 074B     		ldr	r3, .L50
 453              		.loc 1 59 0
 454 0004 4160     		str	r1, [r0, #4]
 455              		.loc 1 58 0
 456 0006 83B0     		sub	sp, sp, #12
ARM GAS  C:\Users\Moi\AppData\Local\Temp\ccoR0KNf.s 			page 9


 457              		.cfi_def_cfa_offset 16
 458              		.loc 1 58 0
 459 0008 1A68     		ldr	r2, [r3]
 460 000a 0192     		str	r2, [sp, #4]
 461              		.loc 1 60 0
 462 000c 019A     		ldr	r2, [sp, #4]
 463 000e 1B68     		ldr	r3, [r3]
 464 0010 9A42     		cmp	r2, r3
 465 0012 02D1     		bne	.L49
 466 0014 03B0     		add	sp, sp, #12
 467              		.cfi_remember_state
 468              		.cfi_def_cfa_offset 4
 469              		@ sp needed
 470 0016 5DF804FB 		ldr	pc, [sp], #4
 471              	.L49:
 472              		.cfi_restore_state
 473 001a FFF7FEFF 		bl	__stack_chk_fail
 474              	.LVL36:
 475              	.L51:
 476 001e 00BF     		.align	2
 477              	.L50:
 478 0020 00000000 		.word	__stack_chk_guard
 479              		.cfi_endproc
 480              	.LFE6:
 481              		.size	cmp_mem_access_set_pos, .-cmp_mem_access_set_pos
 482              		.section	.text.cmp_mem_access_get_ptr_at_pos,"ax",%progbits
 483              		.align	1
 484              		.p2align 4,,15
 485              		.global	cmp_mem_access_get_ptr_at_pos
 486              		.syntax unified
 487              		.thumb
 488              		.thumb_func
 489              		.fpu fpv4-sp-d16
 490              		.type	cmp_mem_access_get_ptr_at_pos, %function
 491              	cmp_mem_access_get_ptr_at_pos:
 492              	.LFB7:
 493              		.loc 1 63 0
 494              		.cfi_startproc
 495              		@ args = 0, pretend = 0, frame = 8
 496              		@ frame_needed = 0, uses_anonymous_args = 0
 497              	.LVL37:
 498 0000 00B5     		push	{lr}
 499              		.cfi_def_cfa_offset 4
 500              		.cfi_offset 14, -4
 501 0002 074B     		ldr	r3, .L56
 502              		.loc 1 64 0
 503 0004 0068     		ldr	r0, [r0]
 504              	.LVL38:
 505              		.loc 1 63 0
 506 0006 1A68     		ldr	r2, [r3]
 507 0008 83B0     		sub	sp, sp, #12
 508              		.cfi_def_cfa_offset 16
 509              		.loc 1 65 0
 510 000a 0844     		add	r0, r0, r1
 511              		.loc 1 63 0
 512 000c 0192     		str	r2, [sp, #4]
 513              		.loc 1 65 0
ARM GAS  C:\Users\Moi\AppData\Local\Temp\ccoR0KNf.s 			page 10


 514 000e 019A     		ldr	r2, [sp, #4]
 515 0010 1B68     		ldr	r3, [r3]
 516 0012 9A42     		cmp	r2, r3
 517 0014 02D1     		bne	.L55
 518 0016 03B0     		add	sp, sp, #12
 519              		.cfi_remember_state
 520              		.cfi_def_cfa_offset 4
 521              		@ sp needed
 522 0018 5DF804FB 		ldr	pc, [sp], #4
 523              	.L55:
 524              		.cfi_restore_state
 525 001c FFF7FEFF 		bl	__stack_chk_fail
 526              	.LVL39:
 527              	.L57:
 528              		.align	2
 529              	.L56:
 530 0020 00000000 		.word	__stack_chk_guard
 531              		.cfi_endproc
 532              	.LFE7:
 533              		.size	cmp_mem_access_get_ptr_at_pos, .-cmp_mem_access_get_ptr_at_pos
 534              		.section	.text.cmp_mem_access_pos_is_valid,"ax",%progbits
 535              		.align	1
 536              		.p2align 4,,15
 537              		.global	cmp_mem_access_pos_is_valid
 538              		.syntax unified
 539              		.thumb
 540              		.thumb_func
 541              		.fpu fpv4-sp-d16
 542              		.type	cmp_mem_access_pos_is_valid, %function
 543              	cmp_mem_access_pos_is_valid:
 544              	.LFB8:
 545              		.loc 1 68 0
 546              		.cfi_startproc
 547              		@ args = 0, pretend = 0, frame = 8
 548              		@ frame_needed = 0, uses_anonymous_args = 0
 549              	.LVL40:
 550 0000 00B5     		push	{lr}
 551              		.cfi_def_cfa_offset 4
 552              		.cfi_offset 14, -4
 553 0002 094B     		ldr	r3, .L62
 554              		.loc 1 69 0
 555 0004 8068     		ldr	r0, [r0, #8]
 556              	.LVL41:
 557              		.loc 1 68 0
 558 0006 1A68     		ldr	r2, [r3]
 559 0008 83B0     		sub	sp, sp, #12
 560              		.cfi_def_cfa_offset 16
 561              		.loc 1 74 0
 562 000a 8842     		cmp	r0, r1
 563              		.loc 1 68 0
 564 000c 0192     		str	r2, [sp, #4]
 565              		.loc 1 74 0
 566 000e 019A     		ldr	r2, [sp, #4]
 567 0010 1B68     		ldr	r3, [r3]
 568 0012 94BF     		ite	ls
 569 0014 0020     		movls	r0, #0
 570 0016 0120     		movhi	r0, #1
ARM GAS  C:\Users\Moi\AppData\Local\Temp\ccoR0KNf.s 			page 11


 571 0018 9A42     		cmp	r2, r3
 572 001a 02D1     		bne	.L61
 573 001c 03B0     		add	sp, sp, #12
 574              		.cfi_remember_state
 575              		.cfi_def_cfa_offset 4
 576              		@ sp needed
 577 001e 5DF804FB 		ldr	pc, [sp], #4
 578              	.L61:
 579              		.cfi_restore_state
 580 0022 FFF7FEFF 		bl	__stack_chk_fail
 581              	.LVL42:
 582              	.L63:
 583 0026 00BF     		.align	2
 584              	.L62:
 585 0028 00000000 		.word	__stack_chk_guard
 586              		.cfi_endproc
 587              	.LFE8:
 588              		.size	cmp_mem_access_pos_is_valid, .-cmp_mem_access_pos_is_valid
 589              		.text
 590              	.Letext0:
 591              		.file 2 "c:\\users\\moi\\documents\\_microinfo\\epuck-eclipse\\tools\\gcc-arm-none-eabi-7-2017-q4-
 592              		.file 3 "c:\\users\\moi\\documents\\_microinfo\\epuck-eclipse\\tools\\gcc-arm-none-eabi-7-2017-q4-
 593              		.file 4 "c:\\users\\moi\\documents\\_microinfo\\epuck-eclipse\\tools\\gcc-arm-none-eabi-7-2017-q4-
 594              		.file 5 "c:\\users\\moi\\documents\\_microinfo\\epuck-eclipse\\tools\\gcc-arm-none-eabi-7-2017-q4-
 595              		.file 6 "c:\\users\\moi\\documents\\_microinfo\\epuck-eclipse\\tools\\gcc-arm-none-eabi-7-2017-q4-
 596              		.file 7 "c:\\users\\moi\\documents\\_microinfo\\epuck-eclipse\\tools\\gcc-arm-none-eabi-7-2017-q4-
 597              		.file 8 "c:\\users\\moi\\documents\\_microinfo\\epuck-eclipse\\tools\\gcc-arm-none-eabi-7-2017-q4-
 598              		.file 9 "..//src/cmp/cmp.h"
 599              		.file 10 "..//src/cmp_mem_access/cmp_mem_access.h"
 600              		.file 11 "<built-in>"
 601              		.section	.debug_info,"",%progbits
 602              	.Ldebug_info0:
 603 0000 120D0000 		.4byte	0xd12
 604 0004 0400     		.2byte	0x4
 605 0006 00000000 		.4byte	.Ldebug_abbrev0
 606 000a 04       		.byte	0x4
 607 000b 01       		.uleb128 0x1
 608 000c 79000000 		.4byte	.LASF148
 609 0010 0C       		.byte	0xc
 610 0011 99020000 		.4byte	.LASF149
 611 0015 A4040000 		.4byte	.LASF150
 612 0019 00000000 		.4byte	.Ldebug_ranges0+0
 613 001d 00000000 		.4byte	0
 614 0021 00000000 		.4byte	.Ldebug_line0
 615 0025 02       		.uleb128 0x2
 616 0026 04       		.byte	0x4
 617 0027 05       		.byte	0x5
 618 0028 696E7400 		.ascii	"int\000"
 619 002c 03       		.uleb128 0x3
 620 002d 12000000 		.4byte	.LASF4
 621 0031 02       		.byte	0x2
 622 0032 D8       		.byte	0xd8
 623 0033 37000000 		.4byte	0x37
 624 0037 04       		.uleb128 0x4
 625 0038 04       		.byte	0x4
 626 0039 07       		.byte	0x7
 627 003a 15030000 		.4byte	.LASF0
ARM GAS  C:\Users\Moi\AppData\Local\Temp\ccoR0KNf.s 			page 12


 628 003e 04       		.uleb128 0x4
 629 003f 08       		.byte	0x8
 630 0040 05       		.byte	0x5
 631 0041 CB010000 		.4byte	.LASF1
 632 0045 04       		.uleb128 0x4
 633 0046 08       		.byte	0x8
 634 0047 04       		.byte	0x4
 635 0048 3F040000 		.4byte	.LASF2
 636 004c 04       		.uleb128 0x4
 637 004d 01       		.byte	0x1
 638 004e 06       		.byte	0x6
 639 004f D9010000 		.4byte	.LASF3
 640 0053 03       		.uleb128 0x3
 641 0054 32000000 		.4byte	.LASF5
 642 0058 03       		.byte	0x3
 643 0059 2B       		.byte	0x2b
 644 005a 5E000000 		.4byte	0x5e
 645 005e 04       		.uleb128 0x4
 646 005f 01       		.byte	0x1
 647 0060 08       		.byte	0x8
 648 0061 03050000 		.4byte	.LASF6
 649 0065 04       		.uleb128 0x4
 650 0066 02       		.byte	0x2
 651 0067 05       		.byte	0x5
 652 0068 1F050000 		.4byte	.LASF7
 653 006c 04       		.uleb128 0x4
 654 006d 02       		.byte	0x2
 655 006e 07       		.byte	0x7
 656 006f 6D030000 		.4byte	.LASF8
 657 0073 04       		.uleb128 0x4
 658 0074 04       		.byte	0x4
 659 0075 05       		.byte	0x5
 660 0076 1E020000 		.4byte	.LASF9
 661 007a 04       		.uleb128 0x4
 662 007b 04       		.byte	0x4
 663 007c 07       		.byte	0x7
 664 007d 39030000 		.4byte	.LASF10
 665 0081 04       		.uleb128 0x4
 666 0082 08       		.byte	0x8
 667 0083 07       		.byte	0x7
 668 0084 62000000 		.4byte	.LASF11
 669 0088 03       		.uleb128 0x3
 670 0089 B7030000 		.4byte	.LASF12
 671 008d 04       		.byte	0x4
 672 008e 22       		.byte	0x22
 673 008f 93000000 		.4byte	0x93
 674 0093 05       		.uleb128 0x5
 675 0094 04       		.byte	0x4
 676 0095 99000000 		.4byte	0x99
 677 0099 06       		.uleb128 0x6
 678 009a DE050000 		.4byte	.LASF119
 679 009e 03       		.uleb128 0x3
 680 009f 9D040000 		.4byte	.LASF13
 681 00a3 05       		.byte	0x5
 682 00a4 2C       		.byte	0x2c
 683 00a5 73000000 		.4byte	0x73
 684 00a9 03       		.uleb128 0x3
ARM GAS  C:\Users\Moi\AppData\Local\Temp\ccoR0KNf.s 			page 13


 685 00aa FF050000 		.4byte	.LASF14
 686 00ae 05       		.byte	0x5
 687 00af 72       		.byte	0x72
 688 00b0 73000000 		.4byte	0x73
 689 00b4 07       		.uleb128 0x7
 690 00b5 BF030000 		.4byte	.LASF15
 691 00b9 02       		.byte	0x2
 692 00ba 6501     		.2byte	0x165
 693 00bc 37000000 		.4byte	0x37
 694 00c0 08       		.uleb128 0x8
 695 00c1 04       		.byte	0x4
 696 00c2 05       		.byte	0x5
 697 00c3 A6       		.byte	0xa6
 698 00c4 DF000000 		.4byte	0xdf
 699 00c8 09       		.uleb128 0x9
 700 00c9 AA030000 		.4byte	.LASF16
 701 00cd 05       		.byte	0x5
 702 00ce A8       		.byte	0xa8
 703 00cf B4000000 		.4byte	0xb4
 704 00d3 09       		.uleb128 0x9
 705 00d4 22030000 		.4byte	.LASF17
 706 00d8 05       		.byte	0x5
 707 00d9 A9       		.byte	0xa9
 708 00da DF000000 		.4byte	0xdf
 709 00de 00       		.byte	0
 710 00df 0A       		.uleb128 0xa
 711 00e0 5E000000 		.4byte	0x5e
 712 00e4 EF000000 		.4byte	0xef
 713 00e8 0B       		.uleb128 0xb
 714 00e9 37000000 		.4byte	0x37
 715 00ed 03       		.byte	0x3
 716 00ee 00       		.byte	0
 717 00ef 0C       		.uleb128 0xc
 718 00f0 08       		.byte	0x8
 719 00f1 05       		.byte	0x5
 720 00f2 A3       		.byte	0xa3
 721 00f3 10010000 		.4byte	0x110
 722 00f7 0D       		.uleb128 0xd
 723 00f8 D6050000 		.4byte	.LASF18
 724 00fc 05       		.byte	0x5
 725 00fd A5       		.byte	0xa5
 726 00fe 25000000 		.4byte	0x25
 727 0102 00       		.byte	0
 728 0103 0D       		.uleb128 0xd
 729 0104 E5050000 		.4byte	.LASF19
 730 0108 05       		.byte	0x5
 731 0109 AA       		.byte	0xaa
 732 010a C0000000 		.4byte	0xc0
 733 010e 04       		.byte	0x4
 734 010f 00       		.byte	0
 735 0110 03       		.uleb128 0x3
 736 0111 47050000 		.4byte	.LASF20
 737 0115 05       		.byte	0x5
 738 0116 AB       		.byte	0xab
 739 0117 EF000000 		.4byte	0xef
 740 011b 03       		.uleb128 0x3
 741 011c D8020000 		.4byte	.LASF21
ARM GAS  C:\Users\Moi\AppData\Local\Temp\ccoR0KNf.s 			page 14


 742 0120 05       		.byte	0x5
 743 0121 AF       		.byte	0xaf
 744 0122 88000000 		.4byte	0x88
 745 0126 0E       		.uleb128 0xe
 746 0127 04       		.byte	0x4
 747 0128 05       		.uleb128 0x5
 748 0129 04       		.byte	0x4
 749 012a 2E010000 		.4byte	0x12e
 750 012e 04       		.uleb128 0x4
 751 012f 01       		.byte	0x1
 752 0130 08       		.byte	0x8
 753 0131 0E060000 		.4byte	.LASF22
 754 0135 0F       		.uleb128 0xf
 755 0136 2E010000 		.4byte	0x12e
 756 013a 03       		.uleb128 0x3
 757 013b 77060000 		.4byte	.LASF23
 758 013f 06       		.byte	0x6
 759 0140 16       		.byte	0x16
 760 0141 7A000000 		.4byte	0x7a
 761 0145 10       		.uleb128 0x10
 762 0146 E9020000 		.4byte	.LASF28
 763 014a 18       		.byte	0x18
 764 014b 06       		.byte	0x6
 765 014c 2F       		.byte	0x2f
 766 014d 98010000 		.4byte	0x198
 767 0151 0D       		.uleb128 0xd
 768 0152 56060000 		.4byte	.LASF24
 769 0156 06       		.byte	0x6
 770 0157 31       		.byte	0x31
 771 0158 98010000 		.4byte	0x198
 772 015c 00       		.byte	0
 773 015d 11       		.uleb128 0x11
 774 015e 5F6B00   		.ascii	"_k\000"
 775 0161 06       		.byte	0x6
 776 0162 32       		.byte	0x32
 777 0163 25000000 		.4byte	0x25
 778 0167 04       		.byte	0x4
 779 0168 0D       		.uleb128 0xd
 780 0169 C1050000 		.4byte	.LASF25
 781 016d 06       		.byte	0x6
 782 016e 32       		.byte	0x32
 783 016f 25000000 		.4byte	0x25
 784 0173 08       		.byte	0x8
 785 0174 0D       		.uleb128 0xd
 786 0175 93020000 		.4byte	.LASF26
 787 0179 06       		.byte	0x6
 788 017a 32       		.byte	0x32
 789 017b 25000000 		.4byte	0x25
 790 017f 0C       		.byte	0xc
 791 0180 0D       		.uleb128 0xd
 792 0181 C3060000 		.4byte	.LASF27
 793 0185 06       		.byte	0x6
 794 0186 32       		.byte	0x32
 795 0187 25000000 		.4byte	0x25
 796 018b 10       		.byte	0x10
 797 018c 11       		.uleb128 0x11
 798 018d 5F7800   		.ascii	"_x\000"
ARM GAS  C:\Users\Moi\AppData\Local\Temp\ccoR0KNf.s 			page 15


 799 0190 06       		.byte	0x6
 800 0191 33       		.byte	0x33
 801 0192 9E010000 		.4byte	0x19e
 802 0196 14       		.byte	0x14
 803 0197 00       		.byte	0
 804 0198 05       		.uleb128 0x5
 805 0199 04       		.byte	0x4
 806 019a 45010000 		.4byte	0x145
 807 019e 0A       		.uleb128 0xa
 808 019f 3A010000 		.4byte	0x13a
 809 01a3 AE010000 		.4byte	0x1ae
 810 01a7 0B       		.uleb128 0xb
 811 01a8 37000000 		.4byte	0x37
 812 01ac 00       		.byte	0
 813 01ad 00       		.byte	0
 814 01ae 10       		.uleb128 0x10
 815 01af 10030000 		.4byte	.LASF29
 816 01b3 24       		.byte	0x24
 817 01b4 06       		.byte	0x6
 818 01b5 37       		.byte	0x37
 819 01b6 27020000 		.4byte	0x227
 820 01ba 0D       		.uleb128 0xd
 821 01bb C2010000 		.4byte	.LASF30
 822 01bf 06       		.byte	0x6
 823 01c0 39       		.byte	0x39
 824 01c1 25000000 		.4byte	0x25
 825 01c5 00       		.byte	0
 826 01c6 0D       		.uleb128 0xd
 827 01c7 13060000 		.4byte	.LASF31
 828 01cb 06       		.byte	0x6
 829 01cc 3A       		.byte	0x3a
 830 01cd 25000000 		.4byte	0x25
 831 01d1 04       		.byte	0x4
 832 01d2 0D       		.uleb128 0xd
 833 01d3 F1010000 		.4byte	.LASF32
 834 01d7 06       		.byte	0x6
 835 01d8 3B       		.byte	0x3b
 836 01d9 25000000 		.4byte	0x25
 837 01dd 08       		.byte	0x8
 838 01de 0D       		.uleb128 0xd
 839 01df 61070000 		.4byte	.LASF33
 840 01e3 06       		.byte	0x6
 841 01e4 3C       		.byte	0x3c
 842 01e5 25000000 		.4byte	0x25
 843 01e9 0C       		.byte	0xc
 844 01ea 0D       		.uleb128 0xd
 845 01eb 77040000 		.4byte	.LASF34
 846 01ef 06       		.byte	0x6
 847 01f0 3D       		.byte	0x3d
 848 01f1 25000000 		.4byte	0x25
 849 01f5 10       		.byte	0x10
 850 01f6 0D       		.uleb128 0xd
 851 01f7 2A040000 		.4byte	.LASF35
 852 01fb 06       		.byte	0x6
 853 01fc 3E       		.byte	0x3e
 854 01fd 25000000 		.4byte	0x25
 855 0201 14       		.byte	0x14
ARM GAS  C:\Users\Moi\AppData\Local\Temp\ccoR0KNf.s 			page 16


 856 0202 0D       		.uleb128 0xd
 857 0203 C8060000 		.4byte	.LASF36
 858 0207 06       		.byte	0x6
 859 0208 3F       		.byte	0x3f
 860 0209 25000000 		.4byte	0x25
 861 020d 18       		.byte	0x18
 862 020e 0D       		.uleb128 0xd
 863 020f 29050000 		.4byte	.LASF37
 864 0213 06       		.byte	0x6
 865 0214 40       		.byte	0x40
 866 0215 25000000 		.4byte	0x25
 867 0219 1C       		.byte	0x1c
 868 021a 0D       		.uleb128 0xd
 869 021b 03070000 		.4byte	.LASF38
 870 021f 06       		.byte	0x6
 871 0220 41       		.byte	0x41
 872 0221 25000000 		.4byte	0x25
 873 0225 20       		.byte	0x20
 874 0226 00       		.byte	0
 875 0227 12       		.uleb128 0x12
 876 0228 00020000 		.4byte	.LASF39
 877 022c 0801     		.2byte	0x108
 878 022e 06       		.byte	0x6
 879 022f 4A       		.byte	0x4a
 880 0230 67020000 		.4byte	0x267
 881 0234 0D       		.uleb128 0xd
 882 0235 7C020000 		.4byte	.LASF40
 883 0239 06       		.byte	0x6
 884 023a 4B       		.byte	0x4b
 885 023b 67020000 		.4byte	0x267
 886 023f 00       		.byte	0
 887 0240 0D       		.uleb128 0xd
 888 0241 00000000 		.4byte	.LASF41
 889 0245 06       		.byte	0x6
 890 0246 4C       		.byte	0x4c
 891 0247 67020000 		.4byte	0x267
 892 024b 80       		.byte	0x80
 893 024c 13       		.uleb128 0x13
 894 024d 69060000 		.4byte	.LASF42
 895 0251 06       		.byte	0x6
 896 0252 4E       		.byte	0x4e
 897 0253 3A010000 		.4byte	0x13a
 898 0257 0001     		.2byte	0x100
 899 0259 13       		.uleb128 0x13
 900 025a 2E020000 		.4byte	.LASF43
 901 025e 06       		.byte	0x6
 902 025f 51       		.byte	0x51
 903 0260 3A010000 		.4byte	0x13a
 904 0264 0401     		.2byte	0x104
 905 0266 00       		.byte	0
 906 0267 0A       		.uleb128 0xa
 907 0268 26010000 		.4byte	0x126
 908 026c 77020000 		.4byte	0x277
 909 0270 0B       		.uleb128 0xb
 910 0271 37000000 		.4byte	0x37
 911 0275 1F       		.byte	0x1f
 912 0276 00       		.byte	0
ARM GAS  C:\Users\Moi\AppData\Local\Temp\ccoR0KNf.s 			page 17


 913 0277 12       		.uleb128 0x12
 914 0278 80040000 		.4byte	.LASF44
 915 027c 9001     		.2byte	0x190
 916 027e 06       		.byte	0x6
 917 027f 5D       		.byte	0x5d
 918 0280 B5020000 		.4byte	0x2b5
 919 0284 0D       		.uleb128 0xd
 920 0285 56060000 		.4byte	.LASF24
 921 0289 06       		.byte	0x6
 922 028a 5E       		.byte	0x5e
 923 028b B5020000 		.4byte	0x2b5
 924 028f 00       		.byte	0
 925 0290 0D       		.uleb128 0xd
 926 0291 80050000 		.4byte	.LASF45
 927 0295 06       		.byte	0x6
 928 0296 5F       		.byte	0x5f
 929 0297 25000000 		.4byte	0x25
 930 029b 04       		.byte	0x4
 931 029c 0D       		.uleb128 0xd
 932 029d 8E020000 		.4byte	.LASF46
 933 02a1 06       		.byte	0x6
 934 02a2 61       		.byte	0x61
 935 02a3 BB020000 		.4byte	0x2bb
 936 02a7 08       		.byte	0x8
 937 02a8 0D       		.uleb128 0xd
 938 02a9 00020000 		.4byte	.LASF39
 939 02ad 06       		.byte	0x6
 940 02ae 62       		.byte	0x62
 941 02af 27020000 		.4byte	0x227
 942 02b3 88       		.byte	0x88
 943 02b4 00       		.byte	0
 944 02b5 05       		.uleb128 0x5
 945 02b6 04       		.byte	0x4
 946 02b7 77020000 		.4byte	0x277
 947 02bb 0A       		.uleb128 0xa
 948 02bc CB020000 		.4byte	0x2cb
 949 02c0 CB020000 		.4byte	0x2cb
 950 02c4 0B       		.uleb128 0xb
 951 02c5 37000000 		.4byte	0x37
 952 02c9 1F       		.byte	0x1f
 953 02ca 00       		.byte	0
 954 02cb 05       		.uleb128 0x5
 955 02cc 04       		.byte	0x4
 956 02cd D1020000 		.4byte	0x2d1
 957 02d1 14       		.uleb128 0x14
 958 02d2 10       		.uleb128 0x10
 959 02d3 33050000 		.4byte	.LASF47
 960 02d7 08       		.byte	0x8
 961 02d8 06       		.byte	0x6
 962 02d9 75       		.byte	0x75
 963 02da F7020000 		.4byte	0x2f7
 964 02de 0D       		.uleb128 0xd
 965 02df EB010000 		.4byte	.LASF48
 966 02e3 06       		.byte	0x6
 967 02e4 76       		.byte	0x76
 968 02e5 F7020000 		.4byte	0x2f7
 969 02e9 00       		.byte	0
ARM GAS  C:\Users\Moi\AppData\Local\Temp\ccoR0KNf.s 			page 18


 970 02ea 0D       		.uleb128 0xd
 971 02eb 0C000000 		.4byte	.LASF49
 972 02ef 06       		.byte	0x6
 973 02f0 77       		.byte	0x77
 974 02f1 25000000 		.4byte	0x25
 975 02f5 04       		.byte	0x4
 976 02f6 00       		.byte	0
 977 02f7 05       		.uleb128 0x5
 978 02f8 04       		.byte	0x4
 979 02f9 5E000000 		.4byte	0x5e
 980 02fd 10       		.uleb128 0x10
 981 02fe 52050000 		.4byte	.LASF50
 982 0302 68       		.byte	0x68
 983 0303 06       		.byte	0x6
 984 0304 B5       		.byte	0xb5
 985 0305 27040000 		.4byte	0x427
 986 0309 11       		.uleb128 0x11
 987 030a 5F7000   		.ascii	"_p\000"
 988 030d 06       		.byte	0x6
 989 030e B6       		.byte	0xb6
 990 030f F7020000 		.4byte	0x2f7
 991 0313 00       		.byte	0
 992 0314 11       		.uleb128 0x11
 993 0315 5F7200   		.ascii	"_r\000"
 994 0318 06       		.byte	0x6
 995 0319 B7       		.byte	0xb7
 996 031a 25000000 		.4byte	0x25
 997 031e 04       		.byte	0x4
 998 031f 11       		.uleb128 0x11
 999 0320 5F7700   		.ascii	"_w\000"
 1000 0323 06       		.byte	0x6
 1001 0324 B8       		.byte	0xb8
 1002 0325 25000000 		.4byte	0x25
 1003 0329 08       		.byte	0x8
 1004 032a 0D       		.uleb128 0xd
 1005 032b 27020000 		.4byte	.LASF51
 1006 032f 06       		.byte	0x6
 1007 0330 B9       		.byte	0xb9
 1008 0331 65000000 		.4byte	0x65
 1009 0335 0C       		.byte	0xc
 1010 0336 0D       		.uleb128 0xd
 1011 0337 4B030000 		.4byte	.LASF52
 1012 033b 06       		.byte	0x6
 1013 033c BA       		.byte	0xba
 1014 033d 65000000 		.4byte	0x65
 1015 0341 0E       		.byte	0xe
 1016 0342 11       		.uleb128 0x11
 1017 0343 5F626600 		.ascii	"_bf\000"
 1018 0347 06       		.byte	0x6
 1019 0348 BB       		.byte	0xbb
 1020 0349 D2020000 		.4byte	0x2d2
 1021 034d 10       		.byte	0x10
 1022 034e 0D       		.uleb128 0xd
 1023 034f 58070000 		.4byte	.LASF53
 1024 0353 06       		.byte	0x6
 1025 0354 BC       		.byte	0xbc
 1026 0355 25000000 		.4byte	0x25
ARM GAS  C:\Users\Moi\AppData\Local\Temp\ccoR0KNf.s 			page 19


 1027 0359 18       		.byte	0x18
 1028 035a 0D       		.uleb128 0xd
 1029 035b 0E020000 		.4byte	.LASF54
 1030 035f 06       		.byte	0x6
 1031 0360 C3       		.byte	0xc3
 1032 0361 26010000 		.4byte	0x126
 1033 0365 1C       		.byte	0x1c
 1034 0366 0D       		.uleb128 0xd
 1035 0367 00030000 		.4byte	.LASF55
 1036 036b 06       		.byte	0x6
 1037 036c C5       		.byte	0xc5
 1038 036d 82050000 		.4byte	0x582
 1039 0371 20       		.byte	0x20
 1040 0372 0D       		.uleb128 0xd
 1041 0373 23040000 		.4byte	.LASF56
 1042 0377 06       		.byte	0x6
 1043 0378 C7       		.byte	0xc7
 1044 0379 AC050000 		.4byte	0x5ac
 1045 037d 24       		.byte	0x24
 1046 037e 0D       		.uleb128 0xd
 1047 037f ED050000 		.4byte	.LASF57
 1048 0383 06       		.byte	0x6
 1049 0384 CA       		.byte	0xca
 1050 0385 D0050000 		.4byte	0x5d0
 1051 0389 28       		.byte	0x28
 1052 038a 0D       		.uleb128 0xd
 1053 038b 1D070000 		.4byte	.LASF58
 1054 038f 06       		.byte	0x6
 1055 0390 CB       		.byte	0xcb
 1056 0391 EA050000 		.4byte	0x5ea
 1057 0395 2C       		.byte	0x2c
 1058 0396 11       		.uleb128 0x11
 1059 0397 5F756200 		.ascii	"_ub\000"
 1060 039b 06       		.byte	0x6
 1061 039c CE       		.byte	0xce
 1062 039d D2020000 		.4byte	0x2d2
 1063 03a1 30       		.byte	0x30
 1064 03a2 11       		.uleb128 0x11
 1065 03a3 5F757000 		.ascii	"_up\000"
 1066 03a7 06       		.byte	0x6
 1067 03a8 CF       		.byte	0xcf
 1068 03a9 F7020000 		.4byte	0x2f7
 1069 03ad 38       		.byte	0x38
 1070 03ae 11       		.uleb128 0x11
 1071 03af 5F757200 		.ascii	"_ur\000"
 1072 03b3 06       		.byte	0x6
 1073 03b4 D0       		.byte	0xd0
 1074 03b5 25000000 		.4byte	0x25
 1075 03b9 3C       		.byte	0x3c
 1076 03ba 0D       		.uleb128 0xd
 1077 03bb E5010000 		.4byte	.LASF59
 1078 03bf 06       		.byte	0x6
 1079 03c0 D3       		.byte	0xd3
 1080 03c1 F0050000 		.4byte	0x5f0
 1081 03c5 40       		.byte	0x40
 1082 03c6 0D       		.uleb128 0xd
 1083 03c7 F5060000 		.4byte	.LASF60
ARM GAS  C:\Users\Moi\AppData\Local\Temp\ccoR0KNf.s 			page 20


 1084 03cb 06       		.byte	0x6
 1085 03cc D4       		.byte	0xd4
 1086 03cd 00060000 		.4byte	0x600
 1087 03d1 43       		.byte	0x43
 1088 03d2 11       		.uleb128 0x11
 1089 03d3 5F6C6200 		.ascii	"_lb\000"
 1090 03d7 06       		.byte	0x6
 1091 03d8 D7       		.byte	0xd7
 1092 03d9 D2020000 		.4byte	0x2d2
 1093 03dd 44       		.byte	0x44
 1094 03de 0D       		.uleb128 0xd
 1095 03df 3D020000 		.4byte	.LASF61
 1096 03e3 06       		.byte	0x6
 1097 03e4 DA       		.byte	0xda
 1098 03e5 25000000 		.4byte	0x25
 1099 03e9 4C       		.byte	0x4c
 1100 03ea 0D       		.uleb128 0xd
 1101 03eb 55020000 		.4byte	.LASF62
 1102 03ef 06       		.byte	0x6
 1103 03f0 DB       		.byte	0xdb
 1104 03f1 9E000000 		.4byte	0x9e
 1105 03f5 50       		.byte	0x50
 1106 03f6 0D       		.uleb128 0xd
 1107 03f7 3C000000 		.4byte	.LASF63
 1108 03fb 06       		.byte	0x6
 1109 03fc DE       		.byte	0xde
 1110 03fd 45040000 		.4byte	0x445
 1111 0401 54       		.byte	0x54
 1112 0402 0D       		.uleb128 0xd
 1113 0403 F5030000 		.4byte	.LASF64
 1114 0407 06       		.byte	0x6
 1115 0408 E2       		.byte	0xe2
 1116 0409 1B010000 		.4byte	0x11b
 1117 040d 58       		.byte	0x58
 1118 040e 0D       		.uleb128 0xd
 1119 040f 5A050000 		.4byte	.LASF65
 1120 0413 06       		.byte	0x6
 1121 0414 E4       		.byte	0xe4
 1122 0415 10010000 		.4byte	0x110
 1123 0419 5C       		.byte	0x5c
 1124 041a 0D       		.uleb128 0xd
 1125 041b 0C040000 		.4byte	.LASF66
 1126 041f 06       		.byte	0x6
 1127 0420 E5       		.byte	0xe5
 1128 0421 25000000 		.4byte	0x25
 1129 0425 64       		.byte	0x64
 1130 0426 00       		.byte	0
 1131 0427 15       		.uleb128 0x15
 1132 0428 25000000 		.4byte	0x25
 1133 042c 45040000 		.4byte	0x445
 1134 0430 16       		.uleb128 0x16
 1135 0431 45040000 		.4byte	0x445
 1136 0435 16       		.uleb128 0x16
 1137 0436 26010000 		.4byte	0x126
 1138 043a 16       		.uleb128 0x16
 1139 043b 28010000 		.4byte	0x128
 1140 043f 16       		.uleb128 0x16
ARM GAS  C:\Users\Moi\AppData\Local\Temp\ccoR0KNf.s 			page 21


 1141 0440 25000000 		.4byte	0x25
 1142 0444 00       		.byte	0
 1143 0445 05       		.uleb128 0x5
 1144 0446 04       		.byte	0x4
 1145 0447 50040000 		.4byte	0x450
 1146 044b 0F       		.uleb128 0xf
 1147 044c 45040000 		.4byte	0x445
 1148 0450 17       		.uleb128 0x17
 1149 0451 C9050000 		.4byte	.LASF67
 1150 0455 2804     		.2byte	0x428
 1151 0457 06       		.byte	0x6
 1152 0458 3902     		.2byte	0x239
 1153 045a 82050000 		.4byte	0x582
 1154 045e 18       		.uleb128 0x18
 1155 045f 07060000 		.4byte	.LASF68
 1156 0463 06       		.byte	0x6
 1157 0464 3B02     		.2byte	0x23b
 1158 0466 25000000 		.4byte	0x25
 1159 046a 00       		.byte	0
 1160 046b 18       		.uleb128 0x18
 1161 046c 36020000 		.4byte	.LASF69
 1162 0470 06       		.byte	0x6
 1163 0471 4002     		.2byte	0x240
 1164 0473 57060000 		.4byte	0x657
 1165 0477 04       		.byte	0x4
 1166 0478 18       		.uleb128 0x18
 1167 0479 29030000 		.4byte	.LASF70
 1168 047d 06       		.byte	0x6
 1169 047e 4002     		.2byte	0x240
 1170 0480 57060000 		.4byte	0x657
 1171 0484 08       		.byte	0x8
 1172 0485 18       		.uleb128 0x18
 1173 0486 E1020000 		.4byte	.LASF71
 1174 048a 06       		.byte	0x6
 1175 048b 4002     		.2byte	0x240
 1176 048d 57060000 		.4byte	0x657
 1177 0491 0C       		.byte	0xc
 1178 0492 18       		.uleb128 0x18
 1179 0493 7B050000 		.4byte	.LASF72
 1180 0497 06       		.byte	0x6
 1181 0498 4202     		.2byte	0x242
 1182 049a 25000000 		.4byte	0x25
 1183 049e 10       		.byte	0x10
 1184 049f 18       		.uleb128 0x18
 1185 04a0 21000000 		.4byte	.LASF73
 1186 04a4 06       		.byte	0x6
 1187 04a5 4302     		.2byte	0x243
 1188 04a7 39080000 		.4byte	0x839
 1189 04ab 14       		.byte	0x14
 1190 04ac 18       		.uleb128 0x18
 1191 04ad 97050000 		.4byte	.LASF74
 1192 04b1 06       		.byte	0x6
 1193 04b2 4602     		.2byte	0x246
 1194 04b4 25000000 		.4byte	0x25
 1195 04b8 30       		.byte	0x30
 1196 04b9 18       		.uleb128 0x18
 1197 04ba 85050000 		.4byte	.LASF75
ARM GAS  C:\Users\Moi\AppData\Local\Temp\ccoR0KNf.s 			page 22


 1198 04be 06       		.byte	0x6
 1199 04bf 4702     		.2byte	0x247
 1200 04c1 4E080000 		.4byte	0x84e
 1201 04c5 34       		.byte	0x34
 1202 04c6 18       		.uleb128 0x18
 1203 04c7 92040000 		.4byte	.LASF76
 1204 04cb 06       		.byte	0x6
 1205 04cc 4902     		.2byte	0x249
 1206 04ce 25000000 		.4byte	0x25
 1207 04d2 38       		.byte	0x38
 1208 04d3 18       		.uleb128 0x18
 1209 04d4 8D050000 		.4byte	.LASF77
 1210 04d8 06       		.byte	0x6
 1211 04d9 4B02     		.2byte	0x24b
 1212 04db 5F080000 		.4byte	0x85f
 1213 04df 3C       		.byte	0x3c
 1214 04e0 18       		.uleb128 0x18
 1215 04e1 A2030000 		.4byte	.LASF78
 1216 04e5 06       		.byte	0x6
 1217 04e6 4E02     		.2byte	0x24e
 1218 04e8 98010000 		.4byte	0x198
 1219 04ec 40       		.byte	0x40
 1220 04ed 18       		.uleb128 0x18
 1221 04ee 06030000 		.4byte	.LASF79
 1222 04f2 06       		.byte	0x6
 1223 04f3 4F02     		.2byte	0x24f
 1224 04f5 25000000 		.4byte	0x25
 1225 04f9 44       		.byte	0x44
 1226 04fa 18       		.uleb128 0x18
 1227 04fb 53070000 		.4byte	.LASF80
 1228 04ff 06       		.byte	0x6
 1229 0500 5002     		.2byte	0x250
 1230 0502 98010000 		.4byte	0x198
 1231 0506 48       		.byte	0x48
 1232 0507 18       		.uleb128 0x18
 1233 0508 DF040000 		.4byte	.LASF81
 1234 050c 06       		.byte	0x6
 1235 050d 5102     		.2byte	0x251
 1236 050f 65080000 		.4byte	0x865
 1237 0513 4C       		.byte	0x4c
 1238 0514 18       		.uleb128 0x18
 1239 0515 31030000 		.4byte	.LASF82
 1240 0519 06       		.byte	0x6
 1241 051a 5402     		.2byte	0x254
 1242 051c 25000000 		.4byte	0x25
 1243 0520 50       		.byte	0x50
 1244 0521 18       		.uleb128 0x18
 1245 0522 4D020000 		.4byte	.LASF83
 1246 0526 06       		.byte	0x6
 1247 0527 5502     		.2byte	0x255
 1248 0529 28010000 		.4byte	0x128
 1249 052d 54       		.byte	0x54
 1250 052e 18       		.uleb128 0x18
 1251 052f 11050000 		.4byte	.LASF84
 1252 0533 06       		.byte	0x6
 1253 0534 7802     		.2byte	0x278
 1254 0536 17080000 		.4byte	0x817
ARM GAS  C:\Users\Moi\AppData\Local\Temp\ccoR0KNf.s 			page 23


 1255 053a 58       		.byte	0x58
 1256 053b 19       		.uleb128 0x19
 1257 053c 80040000 		.4byte	.LASF44
 1258 0540 06       		.byte	0x6
 1259 0541 7C02     		.2byte	0x27c
 1260 0543 B5020000 		.4byte	0x2b5
 1261 0547 4801     		.2byte	0x148
 1262 0549 19       		.uleb128 0x19
 1263 054a 80030000 		.4byte	.LASF85
 1264 054e 06       		.byte	0x6
 1265 054f 7D02     		.2byte	0x27d
 1266 0551 77020000 		.4byte	0x277
 1267 0555 4C01     		.2byte	0x14c
 1268 0557 19       		.uleb128 0x19
 1269 0558 EB060000 		.4byte	.LASF86
 1270 055c 06       		.byte	0x6
 1271 055d 8102     		.2byte	0x281
 1272 055f 76080000 		.4byte	0x876
 1273 0563 DC02     		.2byte	0x2dc
 1274 0565 19       		.uleb128 0x19
 1275 0566 16020000 		.4byte	.LASF87
 1276 056a 06       		.byte	0x6
 1277 056b 8602     		.2byte	0x286
 1278 056d 1C060000 		.4byte	0x61c
 1279 0571 E002     		.2byte	0x2e0
 1280 0573 19       		.uleb128 0x19
 1281 0574 FB010000 		.4byte	.LASF88
 1282 0578 06       		.byte	0x6
 1283 0579 8802     		.2byte	0x288
 1284 057b 82080000 		.4byte	0x882
 1285 057f EC02     		.2byte	0x2ec
 1286 0581 00       		.byte	0
 1287 0582 05       		.uleb128 0x5
 1288 0583 04       		.byte	0x4
 1289 0584 27040000 		.4byte	0x427
 1290 0588 15       		.uleb128 0x15
 1291 0589 25000000 		.4byte	0x25
 1292 058d A6050000 		.4byte	0x5a6
 1293 0591 16       		.uleb128 0x16
 1294 0592 45040000 		.4byte	0x445
 1295 0596 16       		.uleb128 0x16
 1296 0597 26010000 		.4byte	0x126
 1297 059b 16       		.uleb128 0x16
 1298 059c A6050000 		.4byte	0x5a6
 1299 05a0 16       		.uleb128 0x16
 1300 05a1 25000000 		.4byte	0x25
 1301 05a5 00       		.byte	0
 1302 05a6 05       		.uleb128 0x5
 1303 05a7 04       		.byte	0x4
 1304 05a8 35010000 		.4byte	0x135
 1305 05ac 05       		.uleb128 0x5
 1306 05ad 04       		.byte	0x4
 1307 05ae 88050000 		.4byte	0x588
 1308 05b2 15       		.uleb128 0x15
 1309 05b3 A9000000 		.4byte	0xa9
 1310 05b7 D0050000 		.4byte	0x5d0
 1311 05bb 16       		.uleb128 0x16
ARM GAS  C:\Users\Moi\AppData\Local\Temp\ccoR0KNf.s 			page 24


 1312 05bc 45040000 		.4byte	0x445
 1313 05c0 16       		.uleb128 0x16
 1314 05c1 26010000 		.4byte	0x126
 1315 05c5 16       		.uleb128 0x16
 1316 05c6 A9000000 		.4byte	0xa9
 1317 05ca 16       		.uleb128 0x16
 1318 05cb 25000000 		.4byte	0x25
 1319 05cf 00       		.byte	0
 1320 05d0 05       		.uleb128 0x5
 1321 05d1 04       		.byte	0x4
 1322 05d2 B2050000 		.4byte	0x5b2
 1323 05d6 15       		.uleb128 0x15
 1324 05d7 25000000 		.4byte	0x25
 1325 05db EA050000 		.4byte	0x5ea
 1326 05df 16       		.uleb128 0x16
 1327 05e0 45040000 		.4byte	0x445
 1328 05e4 16       		.uleb128 0x16
 1329 05e5 26010000 		.4byte	0x126
 1330 05e9 00       		.byte	0
 1331 05ea 05       		.uleb128 0x5
 1332 05eb 04       		.byte	0x4
 1333 05ec D6050000 		.4byte	0x5d6
 1334 05f0 0A       		.uleb128 0xa
 1335 05f1 5E000000 		.4byte	0x5e
 1336 05f5 00060000 		.4byte	0x600
 1337 05f9 0B       		.uleb128 0xb
 1338 05fa 37000000 		.4byte	0x37
 1339 05fe 02       		.byte	0x2
 1340 05ff 00       		.byte	0
 1341 0600 0A       		.uleb128 0xa
 1342 0601 5E000000 		.4byte	0x5e
 1343 0605 10060000 		.4byte	0x610
 1344 0609 0B       		.uleb128 0xb
 1345 060a 37000000 		.4byte	0x37
 1346 060e 00       		.byte	0
 1347 060f 00       		.byte	0
 1348 0610 07       		.uleb128 0x7
 1349 0611 40050000 		.4byte	.LASF89
 1350 0615 06       		.byte	0x6
 1351 0616 1F01     		.2byte	0x11f
 1352 0618 FD020000 		.4byte	0x2fd
 1353 061c 1A       		.uleb128 0x1a
 1354 061d D2060000 		.4byte	.LASF90
 1355 0621 0C       		.byte	0xc
 1356 0622 06       		.byte	0x6
 1357 0623 2301     		.2byte	0x123
 1358 0625 51060000 		.4byte	0x651
 1359 0629 18       		.uleb128 0x18
 1360 062a 56060000 		.4byte	.LASF24
 1361 062e 06       		.byte	0x6
 1362 062f 2501     		.2byte	0x125
 1363 0631 51060000 		.4byte	0x651
 1364 0635 00       		.byte	0
 1365 0636 18       		.uleb128 0x18
 1366 0637 5C030000 		.4byte	.LASF91
 1367 063b 06       		.byte	0x6
 1368 063c 2601     		.2byte	0x126
ARM GAS  C:\Users\Moi\AppData\Local\Temp\ccoR0KNf.s 			page 25


 1369 063e 25000000 		.4byte	0x25
 1370 0642 04       		.byte	0x4
 1371 0643 18       		.uleb128 0x18
 1372 0644 3A050000 		.4byte	.LASF92
 1373 0648 06       		.byte	0x6
 1374 0649 2701     		.2byte	0x127
 1375 064b 57060000 		.4byte	0x657
 1376 064f 08       		.byte	0x8
 1377 0650 00       		.byte	0
 1378 0651 05       		.uleb128 0x5
 1379 0652 04       		.byte	0x4
 1380 0653 1C060000 		.4byte	0x61c
 1381 0657 05       		.uleb128 0x5
 1382 0658 04       		.byte	0x4
 1383 0659 10060000 		.4byte	0x610
 1384 065d 1A       		.uleb128 0x1a
 1385 065e 19000000 		.4byte	.LASF93
 1386 0662 0E       		.byte	0xe
 1387 0663 06       		.byte	0x6
 1388 0664 3F01     		.2byte	0x13f
 1389 0666 92060000 		.4byte	0x692
 1390 066a 18       		.uleb128 0x18
 1391 066b D0050000 		.4byte	.LASF94
 1392 066f 06       		.byte	0x6
 1393 0670 4001     		.2byte	0x140
 1394 0672 92060000 		.4byte	0x692
 1395 0676 00       		.byte	0
 1396 0677 18       		.uleb128 0x18
 1397 0678 50060000 		.4byte	.LASF95
 1398 067c 06       		.byte	0x6
 1399 067d 4101     		.2byte	0x141
 1400 067f 92060000 		.4byte	0x692
 1401 0683 06       		.byte	0x6
 1402 0684 18       		.uleb128 0x18
 1403 0685 72060000 		.4byte	.LASF96
 1404 0689 06       		.byte	0x6
 1405 068a 4201     		.2byte	0x142
 1406 068c 6C000000 		.4byte	0x6c
 1407 0690 0C       		.byte	0xc
 1408 0691 00       		.byte	0
 1409 0692 0A       		.uleb128 0xa
 1410 0693 6C000000 		.4byte	0x6c
 1411 0697 A2060000 		.4byte	0x6a2
 1412 069b 0B       		.uleb128 0xb
 1413 069c 37000000 		.4byte	0x37
 1414 06a0 02       		.byte	0x2
 1415 06a1 00       		.byte	0
 1416 06a2 1B       		.uleb128 0x1b
 1417 06a3 D0       		.byte	0xd0
 1418 06a4 06       		.byte	0x6
 1419 06a5 5902     		.2byte	0x259
 1420 06a7 A3070000 		.4byte	0x7a3
 1421 06ab 18       		.uleb128 0x18
 1422 06ac 9F060000 		.4byte	.LASF97
 1423 06b0 06       		.byte	0x6
 1424 06b1 5B02     		.2byte	0x25b
 1425 06b3 37000000 		.4byte	0x37
ARM GAS  C:\Users\Moi\AppData\Local\Temp\ccoR0KNf.s 			page 26


 1426 06b7 00       		.byte	0
 1427 06b8 18       		.uleb128 0x18
 1428 06b9 5C060000 		.4byte	.LASF98
 1429 06bd 06       		.byte	0x6
 1430 06be 5C02     		.2byte	0x25c
 1431 06c0 28010000 		.4byte	0x128
 1432 06c4 04       		.byte	0x4
 1433 06c5 18       		.uleb128 0x18
 1434 06c6 95030000 		.4byte	.LASF99
 1435 06ca 06       		.byte	0x6
 1436 06cb 5D02     		.2byte	0x25d
 1437 06cd A3070000 		.4byte	0x7a3
 1438 06d1 08       		.byte	0x8
 1439 06d2 18       		.uleb128 0x18
 1440 06d3 0E070000 		.4byte	.LASF100
 1441 06d7 06       		.byte	0x6
 1442 06d8 5E02     		.2byte	0x25e
 1443 06da AE010000 		.4byte	0x1ae
 1444 06de 24       		.byte	0x24
 1445 06df 18       		.uleb128 0x18
 1446 06e0 F1020000 		.4byte	.LASF101
 1447 06e4 06       		.byte	0x6
 1448 06e5 5F02     		.2byte	0x25f
 1449 06e7 25000000 		.4byte	0x25
 1450 06eb 48       		.byte	0x48
 1451 06ec 18       		.uleb128 0x18
 1452 06ed 63050000 		.4byte	.LASF102
 1453 06f1 06       		.byte	0x6
 1454 06f2 6002     		.2byte	0x260
 1455 06f4 81000000 		.4byte	0x81
 1456 06f8 50       		.byte	0x50
 1457 06f9 18       		.uleb128 0x18
 1458 06fa 24070000 		.4byte	.LASF103
 1459 06fe 06       		.byte	0x6
 1460 06ff 6102     		.2byte	0x261
 1461 0701 5D060000 		.4byte	0x65d
 1462 0705 58       		.byte	0x58
 1463 0706 18       		.uleb128 0x18
 1464 0707 6E050000 		.4byte	.LASF104
 1465 070b 06       		.byte	0x6
 1466 070c 6202     		.2byte	0x262
 1467 070e 10010000 		.4byte	0x110
 1468 0712 68       		.byte	0x68
 1469 0713 18       		.uleb128 0x18
 1470 0714 45070000 		.4byte	.LASF105
 1471 0718 06       		.byte	0x6
 1472 0719 6302     		.2byte	0x263
 1473 071b 10010000 		.4byte	0x110
 1474 071f 70       		.byte	0x70
 1475 0720 18       		.uleb128 0x18
 1476 0721 EF040000 		.4byte	.LASF106
 1477 0725 06       		.byte	0x6
 1478 0726 6402     		.2byte	0x264
 1479 0728 10010000 		.4byte	0x110
 1480 072c 78       		.byte	0x78
 1481 072d 18       		.uleb128 0x18
 1482 072e E1060000 		.4byte	.LASF107
ARM GAS  C:\Users\Moi\AppData\Local\Temp\ccoR0KNf.s 			page 27


 1483 0732 06       		.byte	0x6
 1484 0733 6502     		.2byte	0x265
 1485 0735 B3070000 		.4byte	0x7b3
 1486 0739 80       		.byte	0x80
 1487 073a 18       		.uleb128 0x18
 1488 073b 89030000 		.4byte	.LASF108
 1489 073f 06       		.byte	0x6
 1490 0740 6602     		.2byte	0x266
 1491 0742 C3070000 		.4byte	0x7c3
 1492 0746 88       		.byte	0x88
 1493 0747 18       		.uleb128 0x18
 1494 0748 7F060000 		.4byte	.LASF109
 1495 074c 06       		.byte	0x6
 1496 074d 6702     		.2byte	0x267
 1497 074f 25000000 		.4byte	0x25
 1498 0753 A0       		.byte	0xa0
 1499 0754 18       		.uleb128 0x18
 1500 0755 6E020000 		.4byte	.LASF110
 1501 0759 06       		.byte	0x6
 1502 075a 6802     		.2byte	0x268
 1503 075c 10010000 		.4byte	0x110
 1504 0760 A4       		.byte	0xa4
 1505 0761 18       		.uleb128 0x18
 1506 0762 B3010000 		.4byte	.LASF111
 1507 0766 06       		.byte	0x6
 1508 0767 6902     		.2byte	0x269
 1509 0769 10010000 		.4byte	0x110
 1510 076d AC       		.byte	0xac
 1511 076e 18       		.uleb128 0x18
 1512 076f 5D020000 		.4byte	.LASF112
 1513 0773 06       		.byte	0x6
 1514 0774 6A02     		.2byte	0x26a
 1515 0776 10010000 		.4byte	0x110
 1516 077a B4       		.byte	0xb4
 1517 077b 18       		.uleb128 0x18
 1518 077c 42000000 		.4byte	.LASF113
 1519 0780 06       		.byte	0x6
 1520 0781 6B02     		.2byte	0x26b
 1521 0783 10010000 		.4byte	0x110
 1522 0787 BC       		.byte	0xbc
 1523 0788 18       		.uleb128 0x18
 1524 0789 51000000 		.4byte	.LASF114
 1525 078d 06       		.byte	0x6
 1526 078e 6C02     		.2byte	0x26c
 1527 0790 10010000 		.4byte	0x110
 1528 0794 C4       		.byte	0xc4
 1529 0795 18       		.uleb128 0x18
 1530 0796 16050000 		.4byte	.LASF115
 1531 079a 06       		.byte	0x6
 1532 079b 6D02     		.2byte	0x26d
 1533 079d 25000000 		.4byte	0x25
 1534 07a1 CC       		.byte	0xcc
 1535 07a2 00       		.byte	0
 1536 07a3 0A       		.uleb128 0xa
 1537 07a4 2E010000 		.4byte	0x12e
 1538 07a8 B3070000 		.4byte	0x7b3
 1539 07ac 0B       		.uleb128 0xb
ARM GAS  C:\Users\Moi\AppData\Local\Temp\ccoR0KNf.s 			page 28


 1540 07ad 37000000 		.4byte	0x37
 1541 07b1 19       		.byte	0x19
 1542 07b2 00       		.byte	0
 1543 07b3 0A       		.uleb128 0xa
 1544 07b4 2E010000 		.4byte	0x12e
 1545 07b8 C3070000 		.4byte	0x7c3
 1546 07bc 0B       		.uleb128 0xb
 1547 07bd 37000000 		.4byte	0x37
 1548 07c1 07       		.byte	0x7
 1549 07c2 00       		.byte	0
 1550 07c3 0A       		.uleb128 0xa
 1551 07c4 2E010000 		.4byte	0x12e
 1552 07c8 D3070000 		.4byte	0x7d3
 1553 07cc 0B       		.uleb128 0xb
 1554 07cd 37000000 		.4byte	0x37
 1555 07d1 17       		.byte	0x17
 1556 07d2 00       		.byte	0
 1557 07d3 1B       		.uleb128 0x1b
 1558 07d4 F0       		.byte	0xf0
 1559 07d5 06       		.byte	0x6
 1560 07d6 7202     		.2byte	0x272
 1561 07d8 F7070000 		.4byte	0x7f7
 1562 07dc 18       		.uleb128 0x18
 1563 07dd 5E040000 		.4byte	.LASF116
 1564 07e1 06       		.byte	0x6
 1565 07e2 7502     		.2byte	0x275
 1566 07e4 F7070000 		.4byte	0x7f7
 1567 07e8 00       		.byte	0
 1568 07e9 18       		.uleb128 0x18
 1569 07ea D8060000 		.4byte	.LASF117
 1570 07ee 06       		.byte	0x6
 1571 07ef 7602     		.2byte	0x276
 1572 07f1 07080000 		.4byte	0x807
 1573 07f5 78       		.byte	0x78
 1574 07f6 00       		.byte	0
 1575 07f7 0A       		.uleb128 0xa
 1576 07f8 F7020000 		.4byte	0x2f7
 1577 07fc 07080000 		.4byte	0x807
 1578 0800 0B       		.uleb128 0xb
 1579 0801 37000000 		.4byte	0x37
 1580 0805 1D       		.byte	0x1d
 1581 0806 00       		.byte	0
 1582 0807 0A       		.uleb128 0xa
 1583 0808 37000000 		.4byte	0x37
 1584 080c 17080000 		.4byte	0x817
 1585 0810 0B       		.uleb128 0xb
 1586 0811 37000000 		.4byte	0x37
 1587 0815 1D       		.byte	0x1d
 1588 0816 00       		.byte	0
 1589 0817 1C       		.uleb128 0x1c
 1590 0818 F0       		.byte	0xf0
 1591 0819 06       		.byte	0x6
 1592 081a 5702     		.2byte	0x257
 1593 081c 39080000 		.4byte	0x839
 1594 0820 1D       		.uleb128 0x1d
 1595 0821 C9050000 		.4byte	.LASF67
 1596 0825 06       		.byte	0x6
ARM GAS  C:\Users\Moi\AppData\Local\Temp\ccoR0KNf.s 			page 29


 1597 0826 6E02     		.2byte	0x26e
 1598 0828 A2060000 		.4byte	0x6a2
 1599 082c 1D       		.uleb128 0x1d
 1600 082d FB060000 		.4byte	.LASF118
 1601 0831 06       		.byte	0x6
 1602 0832 7702     		.2byte	0x277
 1603 0834 D3070000 		.4byte	0x7d3
 1604 0838 00       		.byte	0
 1605 0839 0A       		.uleb128 0xa
 1606 083a 2E010000 		.4byte	0x12e
 1607 083e 49080000 		.4byte	0x849
 1608 0842 0B       		.uleb128 0xb
 1609 0843 37000000 		.4byte	0x37
 1610 0847 18       		.byte	0x18
 1611 0848 00       		.byte	0
 1612 0849 06       		.uleb128 0x6
 1613 084a A8010000 		.4byte	.LASF120
 1614 084e 05       		.uleb128 0x5
 1615 084f 04       		.byte	0x4
 1616 0850 49080000 		.4byte	0x849
 1617 0854 1E       		.uleb128 0x1e
 1618 0855 5F080000 		.4byte	0x85f
 1619 0859 16       		.uleb128 0x16
 1620 085a 45040000 		.4byte	0x445
 1621 085e 00       		.byte	0
 1622 085f 05       		.uleb128 0x5
 1623 0860 04       		.byte	0x4
 1624 0861 54080000 		.4byte	0x854
 1625 0865 05       		.uleb128 0x5
 1626 0866 04       		.byte	0x4
 1627 0867 98010000 		.4byte	0x198
 1628 086b 1E       		.uleb128 0x1e
 1629 086c 76080000 		.4byte	0x876
 1630 0870 16       		.uleb128 0x16
 1631 0871 25000000 		.4byte	0x25
 1632 0875 00       		.byte	0
 1633 0876 05       		.uleb128 0x5
 1634 0877 04       		.byte	0x4
 1635 0878 7C080000 		.4byte	0x87c
 1636 087c 05       		.uleb128 0x5
 1637 087d 04       		.byte	0x4
 1638 087e 6B080000 		.4byte	0x86b
 1639 0882 0A       		.uleb128 0xa
 1640 0883 10060000 		.4byte	0x610
 1641 0887 92080000 		.4byte	0x892
 1642 088b 0B       		.uleb128 0xb
 1643 088c 37000000 		.4byte	0x37
 1644 0890 02       		.byte	0x2
 1645 0891 00       		.byte	0
 1646 0892 1F       		.uleb128 0x1f
 1647 0893 F3050000 		.4byte	.LASF121
 1648 0897 06       		.byte	0x6
 1649 0898 0703     		.2byte	0x307
 1650 089a 45040000 		.4byte	0x445
 1651 089e 1F       		.uleb128 0x1f
 1652 089f 8C060000 		.4byte	.LASF122
 1653 08a3 06       		.byte	0x6
ARM GAS  C:\Users\Moi\AppData\Local\Temp\ccoR0KNf.s 			page 30


 1654 08a4 0803     		.2byte	0x308
 1655 08a6 4B040000 		.4byte	0x44b
 1656 08aa 05       		.uleb128 0x5
 1657 08ab 04       		.byte	0x4
 1658 08ac B0080000 		.4byte	0x8b0
 1659 08b0 20       		.uleb128 0x20
 1660 08b1 21       		.uleb128 0x21
 1661 08b2 88040000 		.4byte	.LASF123
 1662 08b6 07       		.byte	0x7
 1663 08b7 63       		.byte	0x63
 1664 08b8 28010000 		.4byte	0x128
 1665 08bc 03       		.uleb128 0x3
 1666 08bd 48060000 		.4byte	.LASF124
 1667 08c1 08       		.byte	0x8
 1668 08c2 18       		.byte	0x18
 1669 08c3 53000000 		.4byte	0x53
 1670 08c7 03       		.uleb128 0x3
 1671 08c8 34040000 		.4byte	.LASF125
 1672 08cc 09       		.byte	0x9
 1673 08cd 06       		.byte	0x6
 1674 08ce D2080000 		.4byte	0x8d2
 1675 08d2 05       		.uleb128 0x5
 1676 08d3 04       		.byte	0x4
 1677 08d4 D8080000 		.4byte	0x8d8
 1678 08d8 15       		.uleb128 0x15
 1679 08d9 F1080000 		.4byte	0x8f1
 1680 08dd F1080000 		.4byte	0x8f1
 1681 08e1 16       		.uleb128 0x16
 1682 08e2 F8080000 		.4byte	0x8f8
 1683 08e6 16       		.uleb128 0x16
 1684 08e7 26010000 		.4byte	0x126
 1685 08eb 16       		.uleb128 0x16
 1686 08ec 2C000000 		.4byte	0x2c
 1687 08f0 00       		.byte	0
 1688 08f1 04       		.uleb128 0x4
 1689 08f2 01       		.byte	0x1
 1690 08f3 02       		.byte	0x2
 1691 08f4 FD040000 		.4byte	.LASF126
 1692 08f8 05       		.uleb128 0x5
 1693 08f9 04       		.byte	0x4
 1694 08fa FE080000 		.4byte	0x8fe
 1695 08fe 10       		.uleb128 0x10
 1696 08ff 54040000 		.4byte	.LASF127
 1697 0903 10       		.byte	0x10
 1698 0904 09       		.byte	0x9
 1699 0905 48       		.byte	0x48
 1700 0906 3B090000 		.4byte	0x93b
 1701 090a 0D       		.uleb128 0xd
 1702 090b E9040000 		.4byte	.LASF128
 1703 090f 09       		.byte	0x9
 1704 0910 49       		.byte	0x49
 1705 0911 BC080000 		.4byte	0x8bc
 1706 0915 00       		.byte	0
 1707 0916 11       		.uleb128 0x11
 1708 0917 62756600 		.ascii	"buf\000"
 1709 091b 09       		.byte	0x9
 1710 091c 4A       		.byte	0x4a
ARM GAS  C:\Users\Moi\AppData\Local\Temp\ccoR0KNf.s 			page 31


 1711 091d 26010000 		.4byte	0x126
 1712 0921 04       		.byte	0x4
 1713 0922 0D       		.uleb128 0xd
 1714 0923 D4040000 		.4byte	.LASF129
 1715 0927 09       		.byte	0x9
 1716 0928 4B       		.byte	0x4b
 1717 0929 C7080000 		.4byte	0x8c7
 1718 092d 08       		.byte	0x8
 1719 092e 0D       		.uleb128 0xd
 1720 092f 2C000000 		.4byte	.LASF130
 1721 0933 09       		.byte	0x9
 1722 0934 4C       		.byte	0x4c
 1723 0935 3B090000 		.4byte	0x93b
 1724 0939 0C       		.byte	0xc
 1725 093a 00       		.byte	0
 1726 093b 03       		.uleb128 0x3
 1727 093c 51030000 		.4byte	.LASF131
 1728 0940 09       		.byte	0x9
 1729 0941 07       		.byte	0x7
 1730 0942 46090000 		.4byte	0x946
 1731 0946 05       		.uleb128 0x5
 1732 0947 04       		.byte	0x4
 1733 0948 4C090000 		.4byte	0x94c
 1734 094c 15       		.uleb128 0x15
 1735 094d 2C000000 		.4byte	0x2c
 1736 0951 65090000 		.4byte	0x965
 1737 0955 16       		.uleb128 0x16
 1738 0956 F8080000 		.4byte	0x8f8
 1739 095a 16       		.uleb128 0x16
 1740 095b AA080000 		.4byte	0x8aa
 1741 095f 16       		.uleb128 0x16
 1742 0960 2C000000 		.4byte	0x2c
 1743 0964 00       		.byte	0
 1744 0965 04       		.uleb128 0x4
 1745 0966 04       		.byte	0x4
 1746 0967 04       		.byte	0x4
 1747 0968 D9040000 		.4byte	.LASF132
 1748 096c 04       		.uleb128 0x4
 1749 096d 08       		.byte	0x8
 1750 096e 04       		.byte	0x4
 1751 096f 46020000 		.4byte	.LASF133
 1752 0973 03       		.uleb128 0x3
 1753 0974 84020000 		.4byte	.LASF134
 1754 0978 09       		.byte	0x9
 1755 0979 4D       		.byte	0x4d
 1756 097a FE080000 		.4byte	0x8fe
 1757 097e 0C       		.uleb128 0xc
 1758 097f 0C       		.byte	0xc
 1759 0980 0A       		.byte	0xa
 1760 0981 0D       		.byte	0xd
 1761 0982 AB090000 		.4byte	0x9ab
 1762 0986 11       		.uleb128 0x11
 1763 0987 62756600 		.ascii	"buf\000"
 1764 098b 0A       		.byte	0xa
 1765 098c 0E       		.byte	0xe
 1766 098d 28010000 		.4byte	0x128
 1767 0991 00       		.byte	0
ARM GAS  C:\Users\Moi\AppData\Local\Temp\ccoR0KNf.s 			page 32


 1768 0992 0D       		.uleb128 0xd
 1769 0993 42060000 		.4byte	.LASF135
 1770 0997 0A       		.byte	0xa
 1771 0998 0F       		.byte	0xf
 1772 0999 2C000000 		.4byte	0x2c
 1773 099d 04       		.byte	0x4
 1774 099e 0D       		.uleb128 0xd
 1775 099f 68030000 		.4byte	.LASF136
 1776 09a3 0A       		.byte	0xa
 1777 09a4 10       		.byte	0x10
 1778 09a5 2C000000 		.4byte	0x2c
 1779 09a9 08       		.byte	0x8
 1780 09aa 00       		.byte	0
 1781 09ab 03       		.uleb128 0x3
 1782 09ac FB030000 		.4byte	.LASF137
 1783 09b0 0A       		.byte	0xa
 1784 09b1 11       		.byte	0x11
 1785 09b2 7E090000 		.4byte	0x97e
 1786 09b6 22       		.uleb128 0x22
 1787 09b7 29070000 		.4byte	.LASF138
 1788 09bb 01       		.byte	0x1
 1789 09bc 43       		.byte	0x43
 1790 09bd F1080000 		.4byte	0x8f1
 1791 09c1 00000000 		.4byte	.LFB8
 1792 09c5 2C000000 		.4byte	.LFE8-.LFB8
 1793 09c9 01       		.uleb128 0x1
 1794 09ca 9C       		.byte	0x9c
 1795 09cb F5090000 		.4byte	0x9f5
 1796 09cf 23       		.uleb128 0x23
 1797 09d0 6D00     		.ascii	"m\000"
 1798 09d2 01       		.byte	0x1
 1799 09d3 43       		.byte	0x43
 1800 09d4 F5090000 		.4byte	0x9f5
 1801 09d8 00000000 		.4byte	.LLST22
 1802 09dc 23       		.uleb128 0x23
 1803 09dd 706F7300 		.ascii	"pos\000"
 1804 09e1 01       		.byte	0x1
 1805 09e2 43       		.byte	0x43
 1806 09e3 2C000000 		.4byte	0x2c
 1807 09e7 21000000 		.4byte	.LLST23
 1808 09eb 24       		.uleb128 0x24
 1809 09ec 26000000 		.4byte	.LVL42
 1810 09f0 F20C0000 		.4byte	0xcf2
 1811 09f4 00       		.byte	0
 1812 09f5 05       		.uleb128 0x5
 1813 09f6 04       		.byte	0x4
 1814 09f7 AB090000 		.4byte	0x9ab
 1815 09fb 22       		.uleb128 0x22
 1816 09fc C6030000 		.4byte	.LASF139
 1817 0a00 01       		.byte	0x1
 1818 0a01 3E       		.byte	0x3e
 1819 0a02 26010000 		.4byte	0x126
 1820 0a06 00000000 		.4byte	.LFB7
 1821 0a0a 24000000 		.4byte	.LFE7-.LFB7
 1822 0a0e 01       		.uleb128 0x1
 1823 0a0f 9C       		.byte	0x9c
 1824 0a10 3A0A0000 		.4byte	0xa3a
ARM GAS  C:\Users\Moi\AppData\Local\Temp\ccoR0KNf.s 			page 33


 1825 0a14 23       		.uleb128 0x23
 1826 0a15 6D00     		.ascii	"m\000"
 1827 0a17 01       		.byte	0x1
 1828 0a18 3E       		.byte	0x3e
 1829 0a19 F5090000 		.4byte	0x9f5
 1830 0a1d 42000000 		.4byte	.LLST20
 1831 0a21 23       		.uleb128 0x23
 1832 0a22 706F7300 		.ascii	"pos\000"
 1833 0a26 01       		.byte	0x1
 1834 0a27 3E       		.byte	0x3e
 1835 0a28 2C000000 		.4byte	0x2c
 1836 0a2c 63000000 		.4byte	.LLST21
 1837 0a30 24       		.uleb128 0x24
 1838 0a31 20000000 		.4byte	.LVL39
 1839 0a35 F20C0000 		.4byte	0xcf2
 1840 0a39 00       		.byte	0
 1841 0a3a 25       		.uleb128 0x25
 1842 0a3b 1C060000 		.4byte	.LASF141
 1843 0a3f 01       		.byte	0x1
 1844 0a40 39       		.byte	0x39
 1845 0a41 00000000 		.4byte	.LFB6
 1846 0a45 24000000 		.4byte	.LFE6-.LFB6
 1847 0a49 01       		.uleb128 0x1
 1848 0a4a 9C       		.byte	0x9c
 1849 0a4b 750A0000 		.4byte	0xa75
 1850 0a4f 23       		.uleb128 0x23
 1851 0a50 6D00     		.ascii	"m\000"
 1852 0a52 01       		.byte	0x1
 1853 0a53 39       		.byte	0x39
 1854 0a54 F5090000 		.4byte	0x9f5
 1855 0a58 84000000 		.4byte	.LLST18
 1856 0a5c 23       		.uleb128 0x23
 1857 0a5d 706F7300 		.ascii	"pos\000"
 1858 0a61 01       		.byte	0x1
 1859 0a62 39       		.byte	0x39
 1860 0a63 2C000000 		.4byte	0x2c
 1861 0a67 A5000000 		.4byte	.LLST19
 1862 0a6b 24       		.uleb128 0x24
 1863 0a6c 1E000000 		.4byte	.LVL36
 1864 0a70 F20C0000 		.4byte	0xcf2
 1865 0a74 00       		.byte	0
 1866 0a75 22       		.uleb128 0x22
 1867 0a76 C1020000 		.4byte	.LASF140
 1868 0a7a 01       		.byte	0x1
 1869 0a7b 34       		.byte	0x34
 1870 0a7c 2C000000 		.4byte	0x2c
 1871 0a80 00000000 		.4byte	.LFB5
 1872 0a84 24000000 		.4byte	.LFE5-.LFB5
 1873 0a88 01       		.uleb128 0x1
 1874 0a89 9C       		.byte	0x9c
 1875 0a8a A50A0000 		.4byte	0xaa5
 1876 0a8e 23       		.uleb128 0x23
 1877 0a8f 6D00     		.ascii	"m\000"
 1878 0a91 01       		.byte	0x1
 1879 0a92 34       		.byte	0x34
 1880 0a93 F5090000 		.4byte	0x9f5
 1881 0a97 C6000000 		.4byte	.LLST17
ARM GAS  C:\Users\Moi\AppData\Local\Temp\ccoR0KNf.s 			page 34


 1882 0a9b 24       		.uleb128 0x24
 1883 0a9c 1E000000 		.4byte	.LVL34
 1884 0aa0 F20C0000 		.4byte	0xcf2
 1885 0aa4 00       		.byte	0
 1886 0aa5 25       		.uleb128 0x25
 1887 0aa6 AC060000 		.4byte	.LASF142
 1888 0aaa 01       		.byte	0x1
 1889 0aab 2C       		.byte	0x2c
 1890 0aac 00000000 		.4byte	.LFB4
 1891 0ab0 38000000 		.4byte	.LFE4-.LFB4
 1892 0ab4 01       		.uleb128 0x1
 1893 0ab5 9C       		.byte	0x9c
 1894 0ab6 2C0B0000 		.4byte	0xb2c
 1895 0aba 23       		.uleb128 0x23
 1896 0abb 636D7000 		.ascii	"cmp\000"
 1897 0abf 01       		.byte	0x1
 1898 0ac0 2C       		.byte	0x2c
 1899 0ac1 2C0B0000 		.4byte	0xb2c
 1900 0ac5 E7000000 		.4byte	.LLST13
 1901 0ac9 23       		.uleb128 0x23
 1902 0aca 6D00     		.ascii	"m\000"
 1903 0acc 01       		.byte	0x1
 1904 0acd 2C       		.byte	0x2c
 1905 0ace F5090000 		.4byte	0x9f5
 1906 0ad2 21010000 		.4byte	.LLST14
 1907 0ad6 23       		.uleb128 0x23
 1908 0ad7 62756600 		.ascii	"buf\000"
 1909 0adb 01       		.byte	0x1
 1910 0adc 2C       		.byte	0x2c
 1911 0add AA080000 		.4byte	0x8aa
 1912 0ae1 5B010000 		.4byte	.LLST15
 1913 0ae5 26       		.uleb128 0x26
 1914 0ae6 68030000 		.4byte	.LASF136
 1915 0aea 01       		.byte	0x1
 1916 0aeb 2C       		.byte	0x2c
 1917 0aec 2C000000 		.4byte	0x2c
 1918 0af0 A1010000 		.4byte	.LLST16
 1919 0af4 27       		.uleb128 0x27
 1920 0af5 28000000 		.4byte	.LVL30
 1921 0af9 FB0C0000 		.4byte	0xcfb
 1922 0afd 220B0000 		.4byte	0xb22
 1923 0b01 28       		.uleb128 0x28
 1924 0b02 01       		.uleb128 0x1
 1925 0b03 50       		.byte	0x50
 1926 0b04 03       		.uleb128 0x3
 1927 0b05 F3       		.byte	0xf3
 1928 0b06 01       		.uleb128 0x1
 1929 0b07 50       		.byte	0x50
 1930 0b08 28       		.uleb128 0x28
 1931 0b09 01       		.uleb128 0x1
 1932 0b0a 51       		.byte	0x51
 1933 0b0b 03       		.uleb128 0x3
 1934 0b0c F3       		.byte	0xf3
 1935 0b0d 01       		.uleb128 0x1
 1936 0b0e 51       		.byte	0x51
 1937 0b0f 28       		.uleb128 0x28
 1938 0b10 01       		.uleb128 0x1
ARM GAS  C:\Users\Moi\AppData\Local\Temp\ccoR0KNf.s 			page 35


 1939 0b11 52       		.byte	0x52
 1940 0b12 05       		.uleb128 0x5
 1941 0b13 03       		.byte	0x3
 1942 0b14 00000000 		.4byte	cmp_mem_reader
 1943 0b18 28       		.uleb128 0x28
 1944 0b19 01       		.uleb128 0x1
 1945 0b1a 53       		.byte	0x53
 1946 0b1b 05       		.uleb128 0x5
 1947 0b1c 03       		.byte	0x3
 1948 0b1d 00000000 		.4byte	cmp_mem_writer_ro
 1949 0b21 00       		.byte	0
 1950 0b22 24       		.uleb128 0x24
 1951 0b23 2C000000 		.4byte	.LVL31
 1952 0b27 F20C0000 		.4byte	0xcf2
 1953 0b2b 00       		.byte	0
 1954 0b2c 05       		.uleb128 0x5
 1955 0b2d 04       		.byte	0x4
 1956 0b2e 73090000 		.4byte	0x973
 1957 0b32 25       		.uleb128 0x25
 1958 0b33 6B070000 		.4byte	.LASF143
 1959 0b37 01       		.byte	0x1
 1960 0b38 24       		.byte	0x24
 1961 0b39 00000000 		.4byte	.LFB3
 1962 0b3d 38000000 		.4byte	.LFE3-.LFB3
 1963 0b41 01       		.uleb128 0x1
 1964 0b42 9C       		.byte	0x9c
 1965 0b43 B90B0000 		.4byte	0xbb9
 1966 0b47 23       		.uleb128 0x23
 1967 0b48 636D7000 		.ascii	"cmp\000"
 1968 0b4c 01       		.byte	0x1
 1969 0b4d 24       		.byte	0x24
 1970 0b4e 2C0B0000 		.4byte	0xb2c
 1971 0b52 E7010000 		.4byte	.LLST9
 1972 0b56 23       		.uleb128 0x23
 1973 0b57 6D00     		.ascii	"m\000"
 1974 0b59 01       		.byte	0x1
 1975 0b5a 24       		.byte	0x24
 1976 0b5b F5090000 		.4byte	0x9f5
 1977 0b5f 21020000 		.4byte	.LLST10
 1978 0b63 23       		.uleb128 0x23
 1979 0b64 62756600 		.ascii	"buf\000"
 1980 0b68 01       		.byte	0x1
 1981 0b69 24       		.byte	0x24
 1982 0b6a 26010000 		.4byte	0x126
 1983 0b6e 5B020000 		.4byte	.LLST11
 1984 0b72 26       		.uleb128 0x26
 1985 0b73 68030000 		.4byte	.LASF136
 1986 0b77 01       		.byte	0x1
 1987 0b78 24       		.byte	0x24
 1988 0b79 2C000000 		.4byte	0x2c
 1989 0b7d A1020000 		.4byte	.LLST12
 1990 0b81 27       		.uleb128 0x27
 1991 0b82 28000000 		.4byte	.LVL25
 1992 0b86 FB0C0000 		.4byte	0xcfb
 1993 0b8a AF0B0000 		.4byte	0xbaf
 1994 0b8e 28       		.uleb128 0x28
 1995 0b8f 01       		.uleb128 0x1
ARM GAS  C:\Users\Moi\AppData\Local\Temp\ccoR0KNf.s 			page 36


 1996 0b90 50       		.byte	0x50
 1997 0b91 03       		.uleb128 0x3
 1998 0b92 F3       		.byte	0xf3
 1999 0b93 01       		.uleb128 0x1
 2000 0b94 50       		.byte	0x50
 2001 0b95 28       		.uleb128 0x28
 2002 0b96 01       		.uleb128 0x1
 2003 0b97 51       		.byte	0x51
 2004 0b98 03       		.uleb128 0x3
 2005 0b99 F3       		.byte	0xf3
 2006 0b9a 01       		.uleb128 0x1
 2007 0b9b 51       		.byte	0x51
 2008 0b9c 28       		.uleb128 0x28
 2009 0b9d 01       		.uleb128 0x1
 2010 0b9e 52       		.byte	0x52
 2011 0b9f 05       		.uleb128 0x5
 2012 0ba0 03       		.byte	0x3
 2013 0ba1 00000000 		.4byte	cmp_mem_reader
 2014 0ba5 28       		.uleb128 0x28
 2015 0ba6 01       		.uleb128 0x1
 2016 0ba7 53       		.byte	0x53
 2017 0ba8 05       		.uleb128 0x5
 2018 0ba9 03       		.byte	0x3
 2019 0baa 00000000 		.4byte	cmp_mem_writer
 2020 0bae 00       		.byte	0
 2021 0baf 24       		.uleb128 0x24
 2022 0bb0 2C000000 		.4byte	.LVL26
 2023 0bb4 F20C0000 		.4byte	0xcf2
 2024 0bb8 00       		.byte	0
 2025 0bb9 29       		.uleb128 0x29
 2026 0bba 65040000 		.4byte	.LASF145
 2027 0bbe 01       		.byte	0x1
 2028 0bbf 1C       		.byte	0x1c
 2029 0bc0 2C000000 		.4byte	0x2c
 2030 0bc4 00000000 		.4byte	.LFB2
 2031 0bc8 24000000 		.4byte	.LFE2-.LFB2
 2032 0bcc 01       		.uleb128 0x1
 2033 0bcd 9C       		.byte	0x9c
 2034 0bce 090C0000 		.4byte	0xc09
 2035 0bd2 23       		.uleb128 0x23
 2036 0bd3 63747800 		.ascii	"ctx\000"
 2037 0bd7 01       		.byte	0x1
 2038 0bd8 1C       		.byte	0x1c
 2039 0bd9 F8080000 		.4byte	0x8f8
 2040 0bdd E7020000 		.4byte	.LLST0
 2041 0be1 26       		.uleb128 0x26
 2042 0be2 63030000 		.4byte	.LASF144
 2043 0be6 01       		.byte	0x1
 2044 0be7 1C       		.byte	0x1c
 2045 0be8 AA080000 		.4byte	0x8aa
 2046 0bec 21030000 		.4byte	.LLST1
 2047 0bf0 23       		.uleb128 0x23
 2048 0bf1 6C656E00 		.ascii	"len\000"
 2049 0bf5 01       		.byte	0x1
 2050 0bf6 1C       		.byte	0x1c
 2051 0bf7 2C000000 		.4byte	0x2c
 2052 0bfb 42030000 		.4byte	.LLST2
ARM GAS  C:\Users\Moi\AppData\Local\Temp\ccoR0KNf.s 			page 37


 2053 0bff 24       		.uleb128 0x24
 2054 0c00 1E000000 		.4byte	.LVL4
 2055 0c04 F20C0000 		.4byte	0xcf2
 2056 0c08 00       		.byte	0
 2057 0c09 29       		.uleb128 0x29
 2058 0c0a 33060000 		.4byte	.LASF146
 2059 0c0e 01       		.byte	0x1
 2060 0c0f 10       		.byte	0x10
 2061 0c10 2C000000 		.4byte	0x2c
 2062 0c14 00000000 		.4byte	.LFB1
 2063 0c18 40000000 		.4byte	.LFE1-.LFB1
 2064 0c1c 01       		.uleb128 0x1
 2065 0c1d 9C       		.byte	0x9c
 2066 0c1e 7A0C0000 		.4byte	0xc7a
 2067 0c22 23       		.uleb128 0x23
 2068 0c23 63747800 		.ascii	"ctx\000"
 2069 0c27 01       		.byte	0x1
 2070 0c28 10       		.byte	0x10
 2071 0c29 F8080000 		.4byte	0x8f8
 2072 0c2d 63030000 		.4byte	.LLST3
 2073 0c31 26       		.uleb128 0x26
 2074 0c32 63030000 		.4byte	.LASF144
 2075 0c36 01       		.byte	0x1
 2076 0c37 10       		.byte	0x10
 2077 0c38 AA080000 		.4byte	0x8aa
 2078 0c3c 84030000 		.4byte	.LLST4
 2079 0c40 23       		.uleb128 0x23
 2080 0c41 6C656E00 		.ascii	"len\000"
 2081 0c45 01       		.byte	0x1
 2082 0c46 10       		.byte	0x10
 2083 0c47 2C000000 		.4byte	0x2c
 2084 0c4b BE030000 		.4byte	.LLST5
 2085 0c4f 2A       		.uleb128 0x2a
 2086 0c50 6D656D00 		.ascii	"mem\000"
 2087 0c54 01       		.byte	0x1
 2088 0c55 12       		.byte	0x12
 2089 0c56 F5090000 		.4byte	0x9f5
 2090 0c5a 01       		.uleb128 0x1
 2091 0c5b 55       		.byte	0x55
 2092 0c5c 2B       		.uleb128 0x2b
 2093 0c5d 2E000000 		.4byte	.LVL10
 2094 0c61 060D0000 		.4byte	0xd06
 2095 0c65 700C0000 		.4byte	0xc70
 2096 0c69 28       		.uleb128 0x28
 2097 0c6a 01       		.uleb128 0x1
 2098 0c6b 52       		.byte	0x52
 2099 0c6c 02       		.uleb128 0x2
 2100 0c6d 74       		.byte	0x74
 2101 0c6e 00       		.sleb128 0
 2102 0c6f 00       		.byte	0
 2103 0c70 24       		.uleb128 0x24
 2104 0c71 3C000000 		.4byte	.LVL12
 2105 0c75 F20C0000 		.4byte	0xcf2
 2106 0c79 00       		.byte	0
 2107 0c7a 29       		.uleb128 0x29
 2108 0c7b 14040000 		.4byte	.LASF147
 2109 0c7f 01       		.byte	0x1
ARM GAS  C:\Users\Moi\AppData\Local\Temp\ccoR0KNf.s 			page 38


 2110 0c80 04       		.byte	0x4
 2111 0c81 F1080000 		.4byte	0x8f1
 2112 0c85 00000000 		.4byte	.LFB0
 2113 0c89 44000000 		.4byte	.LFE0-.LFB0
 2114 0c8d 01       		.uleb128 0x1
 2115 0c8e 9C       		.byte	0x9c
 2116 0c8f F20C0000 		.4byte	0xcf2
 2117 0c93 23       		.uleb128 0x23
 2118 0c94 63747800 		.ascii	"ctx\000"
 2119 0c98 01       		.byte	0x1
 2120 0c99 04       		.byte	0x4
 2121 0c9a F8080000 		.4byte	0x8f8
 2122 0c9e 03040000 		.4byte	.LLST6
 2123 0ca2 26       		.uleb128 0x26
 2124 0ca3 63030000 		.4byte	.LASF144
 2125 0ca7 01       		.byte	0x1
 2126 0ca8 04       		.byte	0x4
 2127 0ca9 26010000 		.4byte	0x126
 2128 0cad 24040000 		.4byte	.LLST7
 2129 0cb1 23       		.uleb128 0x23
 2130 0cb2 6C656E00 		.ascii	"len\000"
 2131 0cb6 01       		.byte	0x1
 2132 0cb7 04       		.byte	0x4
 2133 0cb8 2C000000 		.4byte	0x2c
 2134 0cbc 69040000 		.4byte	.LLST8
 2135 0cc0 2A       		.uleb128 0x2a
 2136 0cc1 6D656D00 		.ascii	"mem\000"
 2137 0cc5 01       		.byte	0x1
 2138 0cc6 06       		.byte	0x6
 2139 0cc7 F5090000 		.4byte	0x9f5
 2140 0ccb 01       		.uleb128 0x1
 2141 0ccc 54       		.byte	0x54
 2142 0ccd 2B       		.uleb128 0x2b
 2143 0cce 32000000 		.4byte	.LVL19
 2144 0cd2 060D0000 		.4byte	0xd06
 2145 0cd6 E80C0000 		.4byte	0xce8
 2146 0cda 28       		.uleb128 0x28
 2147 0cdb 01       		.uleb128 0x1
 2148 0cdc 50       		.byte	0x50
 2149 0cdd 03       		.uleb128 0x3
 2150 0cde F3       		.byte	0xf3
 2151 0cdf 01       		.uleb128 0x1
 2152 0ce0 51       		.byte	0x51
 2153 0ce1 28       		.uleb128 0x28
 2154 0ce2 01       		.uleb128 0x1
 2155 0ce3 52       		.byte	0x52
 2156 0ce4 02       		.uleb128 0x2
 2157 0ce5 76       		.byte	0x76
 2158 0ce6 00       		.sleb128 0
 2159 0ce7 00       		.byte	0
 2160 0ce8 24       		.uleb128 0x24
 2161 0ce9 40000000 		.4byte	.LVL21
 2162 0ced F20C0000 		.4byte	0xcf2
 2163 0cf1 00       		.byte	0
 2164 0cf2 2C       		.uleb128 0x2c
 2165 0cf3 B0050000 		.4byte	.LASF151
 2166 0cf7 B0050000 		.4byte	.LASF151
ARM GAS  C:\Users\Moi\AppData\Local\Temp\ccoR0KNf.s 			page 39


 2167 0cfb 2D       		.uleb128 0x2d
 2168 0cfc 4B040000 		.4byte	.LASF152
 2169 0d00 4B040000 		.4byte	.LASF152
 2170 0d04 09       		.byte	0x9
 2171 0d05 5F       		.byte	0x5f
 2172 0d06 2E       		.uleb128 0x2e
 2173 0d07 B0030000 		.4byte	.LASF153
 2174 0d0b E4030000 		.4byte	.LASF154
 2175 0d0f 0B       		.byte	0xb
 2176 0d10 00       		.byte	0
 2177 0d11 B0030000 		.4byte	.LASF153
 2178 0d15 00       		.byte	0
 2179              		.section	.debug_abbrev,"",%progbits
 2180              	.Ldebug_abbrev0:
 2181 0000 01       		.uleb128 0x1
 2182 0001 11       		.uleb128 0x11
 2183 0002 01       		.byte	0x1
 2184 0003 25       		.uleb128 0x25
 2185 0004 0E       		.uleb128 0xe
 2186 0005 13       		.uleb128 0x13
 2187 0006 0B       		.uleb128 0xb
 2188 0007 03       		.uleb128 0x3
 2189 0008 0E       		.uleb128 0xe
 2190 0009 1B       		.uleb128 0x1b
 2191 000a 0E       		.uleb128 0xe
 2192 000b 55       		.uleb128 0x55
 2193 000c 17       		.uleb128 0x17
 2194 000d 11       		.uleb128 0x11
 2195 000e 01       		.uleb128 0x1
 2196 000f 10       		.uleb128 0x10
 2197 0010 17       		.uleb128 0x17
 2198 0011 00       		.byte	0
 2199 0012 00       		.byte	0
 2200 0013 02       		.uleb128 0x2
 2201 0014 24       		.uleb128 0x24
 2202 0015 00       		.byte	0
 2203 0016 0B       		.uleb128 0xb
 2204 0017 0B       		.uleb128 0xb
 2205 0018 3E       		.uleb128 0x3e
 2206 0019 0B       		.uleb128 0xb
 2207 001a 03       		.uleb128 0x3
 2208 001b 08       		.uleb128 0x8
 2209 001c 00       		.byte	0
 2210 001d 00       		.byte	0
 2211 001e 03       		.uleb128 0x3
 2212 001f 16       		.uleb128 0x16
 2213 0020 00       		.byte	0
 2214 0021 03       		.uleb128 0x3
 2215 0022 0E       		.uleb128 0xe
 2216 0023 3A       		.uleb128 0x3a
 2217 0024 0B       		.uleb128 0xb
 2218 0025 3B       		.uleb128 0x3b
 2219 0026 0B       		.uleb128 0xb
 2220 0027 49       		.uleb128 0x49
 2221 0028 13       		.uleb128 0x13
 2222 0029 00       		.byte	0
 2223 002a 00       		.byte	0
ARM GAS  C:\Users\Moi\AppData\Local\Temp\ccoR0KNf.s 			page 40


 2224 002b 04       		.uleb128 0x4
 2225 002c 24       		.uleb128 0x24
 2226 002d 00       		.byte	0
 2227 002e 0B       		.uleb128 0xb
 2228 002f 0B       		.uleb128 0xb
 2229 0030 3E       		.uleb128 0x3e
 2230 0031 0B       		.uleb128 0xb
 2231 0032 03       		.uleb128 0x3
 2232 0033 0E       		.uleb128 0xe
 2233 0034 00       		.byte	0
 2234 0035 00       		.byte	0
 2235 0036 05       		.uleb128 0x5
 2236 0037 0F       		.uleb128 0xf
 2237 0038 00       		.byte	0
 2238 0039 0B       		.uleb128 0xb
 2239 003a 0B       		.uleb128 0xb
 2240 003b 49       		.uleb128 0x49
 2241 003c 13       		.uleb128 0x13
 2242 003d 00       		.byte	0
 2243 003e 00       		.byte	0
 2244 003f 06       		.uleb128 0x6
 2245 0040 13       		.uleb128 0x13
 2246 0041 00       		.byte	0
 2247 0042 03       		.uleb128 0x3
 2248 0043 0E       		.uleb128 0xe
 2249 0044 3C       		.uleb128 0x3c
 2250 0045 19       		.uleb128 0x19
 2251 0046 00       		.byte	0
 2252 0047 00       		.byte	0
 2253 0048 07       		.uleb128 0x7
 2254 0049 16       		.uleb128 0x16
 2255 004a 00       		.byte	0
 2256 004b 03       		.uleb128 0x3
 2257 004c 0E       		.uleb128 0xe
 2258 004d 3A       		.uleb128 0x3a
 2259 004e 0B       		.uleb128 0xb
 2260 004f 3B       		.uleb128 0x3b
 2261 0050 05       		.uleb128 0x5
 2262 0051 49       		.uleb128 0x49
 2263 0052 13       		.uleb128 0x13
 2264 0053 00       		.byte	0
 2265 0054 00       		.byte	0
 2266 0055 08       		.uleb128 0x8
 2267 0056 17       		.uleb128 0x17
 2268 0057 01       		.byte	0x1
 2269 0058 0B       		.uleb128 0xb
 2270 0059 0B       		.uleb128 0xb
 2271 005a 3A       		.uleb128 0x3a
 2272 005b 0B       		.uleb128 0xb
 2273 005c 3B       		.uleb128 0x3b
 2274 005d 0B       		.uleb128 0xb
 2275 005e 01       		.uleb128 0x1
 2276 005f 13       		.uleb128 0x13
 2277 0060 00       		.byte	0
 2278 0061 00       		.byte	0
 2279 0062 09       		.uleb128 0x9
 2280 0063 0D       		.uleb128 0xd
ARM GAS  C:\Users\Moi\AppData\Local\Temp\ccoR0KNf.s 			page 41


 2281 0064 00       		.byte	0
 2282 0065 03       		.uleb128 0x3
 2283 0066 0E       		.uleb128 0xe
 2284 0067 3A       		.uleb128 0x3a
 2285 0068 0B       		.uleb128 0xb
 2286 0069 3B       		.uleb128 0x3b
 2287 006a 0B       		.uleb128 0xb
 2288 006b 49       		.uleb128 0x49
 2289 006c 13       		.uleb128 0x13
 2290 006d 00       		.byte	0
 2291 006e 00       		.byte	0
 2292 006f 0A       		.uleb128 0xa
 2293 0070 01       		.uleb128 0x1
 2294 0071 01       		.byte	0x1
 2295 0072 49       		.uleb128 0x49
 2296 0073 13       		.uleb128 0x13
 2297 0074 01       		.uleb128 0x1
 2298 0075 13       		.uleb128 0x13
 2299 0076 00       		.byte	0
 2300 0077 00       		.byte	0
 2301 0078 0B       		.uleb128 0xb
 2302 0079 21       		.uleb128 0x21
 2303 007a 00       		.byte	0
 2304 007b 49       		.uleb128 0x49
 2305 007c 13       		.uleb128 0x13
 2306 007d 2F       		.uleb128 0x2f
 2307 007e 0B       		.uleb128 0xb
 2308 007f 00       		.byte	0
 2309 0080 00       		.byte	0
 2310 0081 0C       		.uleb128 0xc
 2311 0082 13       		.uleb128 0x13
 2312 0083 01       		.byte	0x1
 2313 0084 0B       		.uleb128 0xb
 2314 0085 0B       		.uleb128 0xb
 2315 0086 3A       		.uleb128 0x3a
 2316 0087 0B       		.uleb128 0xb
 2317 0088 3B       		.uleb128 0x3b
 2318 0089 0B       		.uleb128 0xb
 2319 008a 01       		.uleb128 0x1
 2320 008b 13       		.uleb128 0x13
 2321 008c 00       		.byte	0
 2322 008d 00       		.byte	0
 2323 008e 0D       		.uleb128 0xd
 2324 008f 0D       		.uleb128 0xd
 2325 0090 00       		.byte	0
 2326 0091 03       		.uleb128 0x3
 2327 0092 0E       		.uleb128 0xe
 2328 0093 3A       		.uleb128 0x3a
 2329 0094 0B       		.uleb128 0xb
 2330 0095 3B       		.uleb128 0x3b
 2331 0096 0B       		.uleb128 0xb
 2332 0097 49       		.uleb128 0x49
 2333 0098 13       		.uleb128 0x13
 2334 0099 38       		.uleb128 0x38
 2335 009a 0B       		.uleb128 0xb
 2336 009b 00       		.byte	0
 2337 009c 00       		.byte	0
ARM GAS  C:\Users\Moi\AppData\Local\Temp\ccoR0KNf.s 			page 42


 2338 009d 0E       		.uleb128 0xe
 2339 009e 0F       		.uleb128 0xf
 2340 009f 00       		.byte	0
 2341 00a0 0B       		.uleb128 0xb
 2342 00a1 0B       		.uleb128 0xb
 2343 00a2 00       		.byte	0
 2344 00a3 00       		.byte	0
 2345 00a4 0F       		.uleb128 0xf
 2346 00a5 26       		.uleb128 0x26
 2347 00a6 00       		.byte	0
 2348 00a7 49       		.uleb128 0x49
 2349 00a8 13       		.uleb128 0x13
 2350 00a9 00       		.byte	0
 2351 00aa 00       		.byte	0
 2352 00ab 10       		.uleb128 0x10
 2353 00ac 13       		.uleb128 0x13
 2354 00ad 01       		.byte	0x1
 2355 00ae 03       		.uleb128 0x3
 2356 00af 0E       		.uleb128 0xe
 2357 00b0 0B       		.uleb128 0xb
 2358 00b1 0B       		.uleb128 0xb
 2359 00b2 3A       		.uleb128 0x3a
 2360 00b3 0B       		.uleb128 0xb
 2361 00b4 3B       		.uleb128 0x3b
 2362 00b5 0B       		.uleb128 0xb
 2363 00b6 01       		.uleb128 0x1
 2364 00b7 13       		.uleb128 0x13
 2365 00b8 00       		.byte	0
 2366 00b9 00       		.byte	0
 2367 00ba 11       		.uleb128 0x11
 2368 00bb 0D       		.uleb128 0xd
 2369 00bc 00       		.byte	0
 2370 00bd 03       		.uleb128 0x3
 2371 00be 08       		.uleb128 0x8
 2372 00bf 3A       		.uleb128 0x3a
 2373 00c0 0B       		.uleb128 0xb
 2374 00c1 3B       		.uleb128 0x3b
 2375 00c2 0B       		.uleb128 0xb
 2376 00c3 49       		.uleb128 0x49
 2377 00c4 13       		.uleb128 0x13
 2378 00c5 38       		.uleb128 0x38
 2379 00c6 0B       		.uleb128 0xb
 2380 00c7 00       		.byte	0
 2381 00c8 00       		.byte	0
 2382 00c9 12       		.uleb128 0x12
 2383 00ca 13       		.uleb128 0x13
 2384 00cb 01       		.byte	0x1
 2385 00cc 03       		.uleb128 0x3
 2386 00cd 0E       		.uleb128 0xe
 2387 00ce 0B       		.uleb128 0xb
 2388 00cf 05       		.uleb128 0x5
 2389 00d0 3A       		.uleb128 0x3a
 2390 00d1 0B       		.uleb128 0xb
 2391 00d2 3B       		.uleb128 0x3b
 2392 00d3 0B       		.uleb128 0xb
 2393 00d4 01       		.uleb128 0x1
 2394 00d5 13       		.uleb128 0x13
ARM GAS  C:\Users\Moi\AppData\Local\Temp\ccoR0KNf.s 			page 43


 2395 00d6 00       		.byte	0
 2396 00d7 00       		.byte	0
 2397 00d8 13       		.uleb128 0x13
 2398 00d9 0D       		.uleb128 0xd
 2399 00da 00       		.byte	0
 2400 00db 03       		.uleb128 0x3
 2401 00dc 0E       		.uleb128 0xe
 2402 00dd 3A       		.uleb128 0x3a
 2403 00de 0B       		.uleb128 0xb
 2404 00df 3B       		.uleb128 0x3b
 2405 00e0 0B       		.uleb128 0xb
 2406 00e1 49       		.uleb128 0x49
 2407 00e2 13       		.uleb128 0x13
 2408 00e3 38       		.uleb128 0x38
 2409 00e4 05       		.uleb128 0x5
 2410 00e5 00       		.byte	0
 2411 00e6 00       		.byte	0
 2412 00e7 14       		.uleb128 0x14
 2413 00e8 15       		.uleb128 0x15
 2414 00e9 00       		.byte	0
 2415 00ea 27       		.uleb128 0x27
 2416 00eb 19       		.uleb128 0x19
 2417 00ec 00       		.byte	0
 2418 00ed 00       		.byte	0
 2419 00ee 15       		.uleb128 0x15
 2420 00ef 15       		.uleb128 0x15
 2421 00f0 01       		.byte	0x1
 2422 00f1 27       		.uleb128 0x27
 2423 00f2 19       		.uleb128 0x19
 2424 00f3 49       		.uleb128 0x49
 2425 00f4 13       		.uleb128 0x13
 2426 00f5 01       		.uleb128 0x1
 2427 00f6 13       		.uleb128 0x13
 2428 00f7 00       		.byte	0
 2429 00f8 00       		.byte	0
 2430 00f9 16       		.uleb128 0x16
 2431 00fa 05       		.uleb128 0x5
 2432 00fb 00       		.byte	0
 2433 00fc 49       		.uleb128 0x49
 2434 00fd 13       		.uleb128 0x13
 2435 00fe 00       		.byte	0
 2436 00ff 00       		.byte	0
 2437 0100 17       		.uleb128 0x17
 2438 0101 13       		.uleb128 0x13
 2439 0102 01       		.byte	0x1
 2440 0103 03       		.uleb128 0x3
 2441 0104 0E       		.uleb128 0xe
 2442 0105 0B       		.uleb128 0xb
 2443 0106 05       		.uleb128 0x5
 2444 0107 3A       		.uleb128 0x3a
 2445 0108 0B       		.uleb128 0xb
 2446 0109 3B       		.uleb128 0x3b
 2447 010a 05       		.uleb128 0x5
 2448 010b 01       		.uleb128 0x1
 2449 010c 13       		.uleb128 0x13
 2450 010d 00       		.byte	0
 2451 010e 00       		.byte	0
ARM GAS  C:\Users\Moi\AppData\Local\Temp\ccoR0KNf.s 			page 44


 2452 010f 18       		.uleb128 0x18
 2453 0110 0D       		.uleb128 0xd
 2454 0111 00       		.byte	0
 2455 0112 03       		.uleb128 0x3
 2456 0113 0E       		.uleb128 0xe
 2457 0114 3A       		.uleb128 0x3a
 2458 0115 0B       		.uleb128 0xb
 2459 0116 3B       		.uleb128 0x3b
 2460 0117 05       		.uleb128 0x5
 2461 0118 49       		.uleb128 0x49
 2462 0119 13       		.uleb128 0x13
 2463 011a 38       		.uleb128 0x38
 2464 011b 0B       		.uleb128 0xb
 2465 011c 00       		.byte	0
 2466 011d 00       		.byte	0
 2467 011e 19       		.uleb128 0x19
 2468 011f 0D       		.uleb128 0xd
 2469 0120 00       		.byte	0
 2470 0121 03       		.uleb128 0x3
 2471 0122 0E       		.uleb128 0xe
 2472 0123 3A       		.uleb128 0x3a
 2473 0124 0B       		.uleb128 0xb
 2474 0125 3B       		.uleb128 0x3b
 2475 0126 05       		.uleb128 0x5
 2476 0127 49       		.uleb128 0x49
 2477 0128 13       		.uleb128 0x13
 2478 0129 38       		.uleb128 0x38
 2479 012a 05       		.uleb128 0x5
 2480 012b 00       		.byte	0
 2481 012c 00       		.byte	0
 2482 012d 1A       		.uleb128 0x1a
 2483 012e 13       		.uleb128 0x13
 2484 012f 01       		.byte	0x1
 2485 0130 03       		.uleb128 0x3
 2486 0131 0E       		.uleb128 0xe
 2487 0132 0B       		.uleb128 0xb
 2488 0133 0B       		.uleb128 0xb
 2489 0134 3A       		.uleb128 0x3a
 2490 0135 0B       		.uleb128 0xb
 2491 0136 3B       		.uleb128 0x3b
 2492 0137 05       		.uleb128 0x5
 2493 0138 01       		.uleb128 0x1
 2494 0139 13       		.uleb128 0x13
 2495 013a 00       		.byte	0
 2496 013b 00       		.byte	0
 2497 013c 1B       		.uleb128 0x1b
 2498 013d 13       		.uleb128 0x13
 2499 013e 01       		.byte	0x1
 2500 013f 0B       		.uleb128 0xb
 2501 0140 0B       		.uleb128 0xb
 2502 0141 3A       		.uleb128 0x3a
 2503 0142 0B       		.uleb128 0xb
 2504 0143 3B       		.uleb128 0x3b
 2505 0144 05       		.uleb128 0x5
 2506 0145 01       		.uleb128 0x1
 2507 0146 13       		.uleb128 0x13
 2508 0147 00       		.byte	0
ARM GAS  C:\Users\Moi\AppData\Local\Temp\ccoR0KNf.s 			page 45


 2509 0148 00       		.byte	0
 2510 0149 1C       		.uleb128 0x1c
 2511 014a 17       		.uleb128 0x17
 2512 014b 01       		.byte	0x1
 2513 014c 0B       		.uleb128 0xb
 2514 014d 0B       		.uleb128 0xb
 2515 014e 3A       		.uleb128 0x3a
 2516 014f 0B       		.uleb128 0xb
 2517 0150 3B       		.uleb128 0x3b
 2518 0151 05       		.uleb128 0x5
 2519 0152 01       		.uleb128 0x1
 2520 0153 13       		.uleb128 0x13
 2521 0154 00       		.byte	0
 2522 0155 00       		.byte	0
 2523 0156 1D       		.uleb128 0x1d
 2524 0157 0D       		.uleb128 0xd
 2525 0158 00       		.byte	0
 2526 0159 03       		.uleb128 0x3
 2527 015a 0E       		.uleb128 0xe
 2528 015b 3A       		.uleb128 0x3a
 2529 015c 0B       		.uleb128 0xb
 2530 015d 3B       		.uleb128 0x3b
 2531 015e 05       		.uleb128 0x5
 2532 015f 49       		.uleb128 0x49
 2533 0160 13       		.uleb128 0x13
 2534 0161 00       		.byte	0
 2535 0162 00       		.byte	0
 2536 0163 1E       		.uleb128 0x1e
 2537 0164 15       		.uleb128 0x15
 2538 0165 01       		.byte	0x1
 2539 0166 27       		.uleb128 0x27
 2540 0167 19       		.uleb128 0x19
 2541 0168 01       		.uleb128 0x1
 2542 0169 13       		.uleb128 0x13
 2543 016a 00       		.byte	0
 2544 016b 00       		.byte	0
 2545 016c 1F       		.uleb128 0x1f
 2546 016d 34       		.uleb128 0x34
 2547 016e 00       		.byte	0
 2548 016f 03       		.uleb128 0x3
 2549 0170 0E       		.uleb128 0xe
 2550 0171 3A       		.uleb128 0x3a
 2551 0172 0B       		.uleb128 0xb
 2552 0173 3B       		.uleb128 0x3b
 2553 0174 05       		.uleb128 0x5
 2554 0175 49       		.uleb128 0x49
 2555 0176 13       		.uleb128 0x13
 2556 0177 3F       		.uleb128 0x3f
 2557 0178 19       		.uleb128 0x19
 2558 0179 3C       		.uleb128 0x3c
 2559 017a 19       		.uleb128 0x19
 2560 017b 00       		.byte	0
 2561 017c 00       		.byte	0
 2562 017d 20       		.uleb128 0x20
 2563 017e 26       		.uleb128 0x26
 2564 017f 00       		.byte	0
 2565 0180 00       		.byte	0
ARM GAS  C:\Users\Moi\AppData\Local\Temp\ccoR0KNf.s 			page 46


 2566 0181 00       		.byte	0
 2567 0182 21       		.uleb128 0x21
 2568 0183 34       		.uleb128 0x34
 2569 0184 00       		.byte	0
 2570 0185 03       		.uleb128 0x3
 2571 0186 0E       		.uleb128 0xe
 2572 0187 3A       		.uleb128 0x3a
 2573 0188 0B       		.uleb128 0xb
 2574 0189 3B       		.uleb128 0x3b
 2575 018a 0B       		.uleb128 0xb
 2576 018b 49       		.uleb128 0x49
 2577 018c 13       		.uleb128 0x13
 2578 018d 3F       		.uleb128 0x3f
 2579 018e 19       		.uleb128 0x19
 2580 018f 3C       		.uleb128 0x3c
 2581 0190 19       		.uleb128 0x19
 2582 0191 00       		.byte	0
 2583 0192 00       		.byte	0
 2584 0193 22       		.uleb128 0x22
 2585 0194 2E       		.uleb128 0x2e
 2586 0195 01       		.byte	0x1
 2587 0196 3F       		.uleb128 0x3f
 2588 0197 19       		.uleb128 0x19
 2589 0198 03       		.uleb128 0x3
 2590 0199 0E       		.uleb128 0xe
 2591 019a 3A       		.uleb128 0x3a
 2592 019b 0B       		.uleb128 0xb
 2593 019c 3B       		.uleb128 0x3b
 2594 019d 0B       		.uleb128 0xb
 2595 019e 27       		.uleb128 0x27
 2596 019f 19       		.uleb128 0x19
 2597 01a0 49       		.uleb128 0x49
 2598 01a1 13       		.uleb128 0x13
 2599 01a2 11       		.uleb128 0x11
 2600 01a3 01       		.uleb128 0x1
 2601 01a4 12       		.uleb128 0x12
 2602 01a5 06       		.uleb128 0x6
 2603 01a6 40       		.uleb128 0x40
 2604 01a7 18       		.uleb128 0x18
 2605 01a8 9742     		.uleb128 0x2117
 2606 01aa 19       		.uleb128 0x19
 2607 01ab 01       		.uleb128 0x1
 2608 01ac 13       		.uleb128 0x13
 2609 01ad 00       		.byte	0
 2610 01ae 00       		.byte	0
 2611 01af 23       		.uleb128 0x23
 2612 01b0 05       		.uleb128 0x5
 2613 01b1 00       		.byte	0
 2614 01b2 03       		.uleb128 0x3
 2615 01b3 08       		.uleb128 0x8
 2616 01b4 3A       		.uleb128 0x3a
 2617 01b5 0B       		.uleb128 0xb
 2618 01b6 3B       		.uleb128 0x3b
 2619 01b7 0B       		.uleb128 0xb
 2620 01b8 49       		.uleb128 0x49
 2621 01b9 13       		.uleb128 0x13
 2622 01ba 02       		.uleb128 0x2
ARM GAS  C:\Users\Moi\AppData\Local\Temp\ccoR0KNf.s 			page 47


 2623 01bb 17       		.uleb128 0x17
 2624 01bc 00       		.byte	0
 2625 01bd 00       		.byte	0
 2626 01be 24       		.uleb128 0x24
 2627 01bf 898201   		.uleb128 0x4109
 2628 01c2 00       		.byte	0
 2629 01c3 11       		.uleb128 0x11
 2630 01c4 01       		.uleb128 0x1
 2631 01c5 31       		.uleb128 0x31
 2632 01c6 13       		.uleb128 0x13
 2633 01c7 00       		.byte	0
 2634 01c8 00       		.byte	0
 2635 01c9 25       		.uleb128 0x25
 2636 01ca 2E       		.uleb128 0x2e
 2637 01cb 01       		.byte	0x1
 2638 01cc 3F       		.uleb128 0x3f
 2639 01cd 19       		.uleb128 0x19
 2640 01ce 03       		.uleb128 0x3
 2641 01cf 0E       		.uleb128 0xe
 2642 01d0 3A       		.uleb128 0x3a
 2643 01d1 0B       		.uleb128 0xb
 2644 01d2 3B       		.uleb128 0x3b
 2645 01d3 0B       		.uleb128 0xb
 2646 01d4 27       		.uleb128 0x27
 2647 01d5 19       		.uleb128 0x19
 2648 01d6 11       		.uleb128 0x11
 2649 01d7 01       		.uleb128 0x1
 2650 01d8 12       		.uleb128 0x12
 2651 01d9 06       		.uleb128 0x6
 2652 01da 40       		.uleb128 0x40
 2653 01db 18       		.uleb128 0x18
 2654 01dc 9742     		.uleb128 0x2117
 2655 01de 19       		.uleb128 0x19
 2656 01df 01       		.uleb128 0x1
 2657 01e0 13       		.uleb128 0x13
 2658 01e1 00       		.byte	0
 2659 01e2 00       		.byte	0
 2660 01e3 26       		.uleb128 0x26
 2661 01e4 05       		.uleb128 0x5
 2662 01e5 00       		.byte	0
 2663 01e6 03       		.uleb128 0x3
 2664 01e7 0E       		.uleb128 0xe
 2665 01e8 3A       		.uleb128 0x3a
 2666 01e9 0B       		.uleb128 0xb
 2667 01ea 3B       		.uleb128 0x3b
 2668 01eb 0B       		.uleb128 0xb
 2669 01ec 49       		.uleb128 0x49
 2670 01ed 13       		.uleb128 0x13
 2671 01ee 02       		.uleb128 0x2
 2672 01ef 17       		.uleb128 0x17
 2673 01f0 00       		.byte	0
 2674 01f1 00       		.byte	0
 2675 01f2 27       		.uleb128 0x27
 2676 01f3 898201   		.uleb128 0x4109
 2677 01f6 01       		.byte	0x1
 2678 01f7 11       		.uleb128 0x11
 2679 01f8 01       		.uleb128 0x1
ARM GAS  C:\Users\Moi\AppData\Local\Temp\ccoR0KNf.s 			page 48


 2680 01f9 9542     		.uleb128 0x2115
 2681 01fb 19       		.uleb128 0x19
 2682 01fc 31       		.uleb128 0x31
 2683 01fd 13       		.uleb128 0x13
 2684 01fe 01       		.uleb128 0x1
 2685 01ff 13       		.uleb128 0x13
 2686 0200 00       		.byte	0
 2687 0201 00       		.byte	0
 2688 0202 28       		.uleb128 0x28
 2689 0203 8A8201   		.uleb128 0x410a
 2690 0206 00       		.byte	0
 2691 0207 02       		.uleb128 0x2
 2692 0208 18       		.uleb128 0x18
 2693 0209 9142     		.uleb128 0x2111
 2694 020b 18       		.uleb128 0x18
 2695 020c 00       		.byte	0
 2696 020d 00       		.byte	0
 2697 020e 29       		.uleb128 0x29
 2698 020f 2E       		.uleb128 0x2e
 2699 0210 01       		.byte	0x1
 2700 0211 03       		.uleb128 0x3
 2701 0212 0E       		.uleb128 0xe
 2702 0213 3A       		.uleb128 0x3a
 2703 0214 0B       		.uleb128 0xb
 2704 0215 3B       		.uleb128 0x3b
 2705 0216 0B       		.uleb128 0xb
 2706 0217 27       		.uleb128 0x27
 2707 0218 19       		.uleb128 0x19
 2708 0219 49       		.uleb128 0x49
 2709 021a 13       		.uleb128 0x13
 2710 021b 11       		.uleb128 0x11
 2711 021c 01       		.uleb128 0x1
 2712 021d 12       		.uleb128 0x12
 2713 021e 06       		.uleb128 0x6
 2714 021f 40       		.uleb128 0x40
 2715 0220 18       		.uleb128 0x18
 2716 0221 9742     		.uleb128 0x2117
 2717 0223 19       		.uleb128 0x19
 2718 0224 01       		.uleb128 0x1
 2719 0225 13       		.uleb128 0x13
 2720 0226 00       		.byte	0
 2721 0227 00       		.byte	0
 2722 0228 2A       		.uleb128 0x2a
 2723 0229 34       		.uleb128 0x34
 2724 022a 00       		.byte	0
 2725 022b 03       		.uleb128 0x3
 2726 022c 08       		.uleb128 0x8
 2727 022d 3A       		.uleb128 0x3a
 2728 022e 0B       		.uleb128 0xb
 2729 022f 3B       		.uleb128 0x3b
 2730 0230 0B       		.uleb128 0xb
 2731 0231 49       		.uleb128 0x49
 2732 0232 13       		.uleb128 0x13
 2733 0233 02       		.uleb128 0x2
 2734 0234 18       		.uleb128 0x18
 2735 0235 00       		.byte	0
 2736 0236 00       		.byte	0
ARM GAS  C:\Users\Moi\AppData\Local\Temp\ccoR0KNf.s 			page 49


 2737 0237 2B       		.uleb128 0x2b
 2738 0238 898201   		.uleb128 0x4109
 2739 023b 01       		.byte	0x1
 2740 023c 11       		.uleb128 0x11
 2741 023d 01       		.uleb128 0x1
 2742 023e 31       		.uleb128 0x31
 2743 023f 13       		.uleb128 0x13
 2744 0240 01       		.uleb128 0x1
 2745 0241 13       		.uleb128 0x13
 2746 0242 00       		.byte	0
 2747 0243 00       		.byte	0
 2748 0244 2C       		.uleb128 0x2c
 2749 0245 2E       		.uleb128 0x2e
 2750 0246 00       		.byte	0
 2751 0247 3F       		.uleb128 0x3f
 2752 0248 19       		.uleb128 0x19
 2753 0249 3C       		.uleb128 0x3c
 2754 024a 19       		.uleb128 0x19
 2755 024b 6E       		.uleb128 0x6e
 2756 024c 0E       		.uleb128 0xe
 2757 024d 03       		.uleb128 0x3
 2758 024e 0E       		.uleb128 0xe
 2759 024f 00       		.byte	0
 2760 0250 00       		.byte	0
 2761 0251 2D       		.uleb128 0x2d
 2762 0252 2E       		.uleb128 0x2e
 2763 0253 00       		.byte	0
 2764 0254 3F       		.uleb128 0x3f
 2765 0255 19       		.uleb128 0x19
 2766 0256 3C       		.uleb128 0x3c
 2767 0257 19       		.uleb128 0x19
 2768 0258 6E       		.uleb128 0x6e
 2769 0259 0E       		.uleb128 0xe
 2770 025a 03       		.uleb128 0x3
 2771 025b 0E       		.uleb128 0xe
 2772 025c 3A       		.uleb128 0x3a
 2773 025d 0B       		.uleb128 0xb
 2774 025e 3B       		.uleb128 0x3b
 2775 025f 0B       		.uleb128 0xb
 2776 0260 00       		.byte	0
 2777 0261 00       		.byte	0
 2778 0262 2E       		.uleb128 0x2e
 2779 0263 2E       		.uleb128 0x2e
 2780 0264 00       		.byte	0
 2781 0265 3F       		.uleb128 0x3f
 2782 0266 19       		.uleb128 0x19
 2783 0267 3C       		.uleb128 0x3c
 2784 0268 19       		.uleb128 0x19
 2785 0269 6E       		.uleb128 0x6e
 2786 026a 0E       		.uleb128 0xe
 2787 026b 03       		.uleb128 0x3
 2788 026c 0E       		.uleb128 0xe
 2789 026d 3A       		.uleb128 0x3a
 2790 026e 0B       		.uleb128 0xb
 2791 026f 3B       		.uleb128 0x3b
 2792 0270 0B       		.uleb128 0xb
 2793 0271 6E       		.uleb128 0x6e
ARM GAS  C:\Users\Moi\AppData\Local\Temp\ccoR0KNf.s 			page 50


 2794 0272 0E       		.uleb128 0xe
 2795 0273 00       		.byte	0
 2796 0274 00       		.byte	0
 2797 0275 00       		.byte	0
 2798              		.section	.debug_loc,"",%progbits
 2799              	.Ldebug_loc0:
 2800              	.LLST22:
 2801 0000 00000000 		.4byte	.LVL40
 2802 0004 06000000 		.4byte	.LVL41
 2803 0008 0100     		.2byte	0x1
 2804 000a 50       		.byte	0x50
 2805 000b 06000000 		.4byte	.LVL41
 2806 000f 2C000000 		.4byte	.LFE8
 2807 0013 0400     		.2byte	0x4
 2808 0015 F3       		.byte	0xf3
 2809 0016 01       		.uleb128 0x1
 2810 0017 50       		.byte	0x50
 2811 0018 9F       		.byte	0x9f
 2812 0019 00000000 		.4byte	0
 2813 001d 00000000 		.4byte	0
 2814              	.LLST23:
 2815 0021 00000000 		.4byte	.LVL40
 2816 0025 25000000 		.4byte	.LVL42-1
 2817 0029 0100     		.2byte	0x1
 2818 002b 51       		.byte	0x51
 2819 002c 25000000 		.4byte	.LVL42-1
 2820 0030 2C000000 		.4byte	.LFE8
 2821 0034 0400     		.2byte	0x4
 2822 0036 F3       		.byte	0xf3
 2823 0037 01       		.uleb128 0x1
 2824 0038 51       		.byte	0x51
 2825 0039 9F       		.byte	0x9f
 2826 003a 00000000 		.4byte	0
 2827 003e 00000000 		.4byte	0
 2828              	.LLST20:
 2829 0042 00000000 		.4byte	.LVL37
 2830 0046 06000000 		.4byte	.LVL38
 2831 004a 0100     		.2byte	0x1
 2832 004c 50       		.byte	0x50
 2833 004d 06000000 		.4byte	.LVL38
 2834 0051 24000000 		.4byte	.LFE7
 2835 0055 0400     		.2byte	0x4
 2836 0057 F3       		.byte	0xf3
 2837 0058 01       		.uleb128 0x1
 2838 0059 50       		.byte	0x50
 2839 005a 9F       		.byte	0x9f
 2840 005b 00000000 		.4byte	0
 2841 005f 00000000 		.4byte	0
 2842              	.LLST21:
 2843 0063 00000000 		.4byte	.LVL37
 2844 0067 1F000000 		.4byte	.LVL39-1
 2845 006b 0100     		.2byte	0x1
 2846 006d 51       		.byte	0x51
 2847 006e 1F000000 		.4byte	.LVL39-1
 2848 0072 24000000 		.4byte	.LFE7
 2849 0076 0400     		.2byte	0x4
 2850 0078 F3       		.byte	0xf3
ARM GAS  C:\Users\Moi\AppData\Local\Temp\ccoR0KNf.s 			page 51


 2851 0079 01       		.uleb128 0x1
 2852 007a 51       		.byte	0x51
 2853 007b 9F       		.byte	0x9f
 2854 007c 00000000 		.4byte	0
 2855 0080 00000000 		.4byte	0
 2856              	.LLST18:
 2857 0084 00000000 		.4byte	.LVL35
 2858 0088 1D000000 		.4byte	.LVL36-1
 2859 008c 0100     		.2byte	0x1
 2860 008e 50       		.byte	0x50
 2861 008f 1D000000 		.4byte	.LVL36-1
 2862 0093 24000000 		.4byte	.LFE6
 2863 0097 0400     		.2byte	0x4
 2864 0099 F3       		.byte	0xf3
 2865 009a 01       		.uleb128 0x1
 2866 009b 50       		.byte	0x50
 2867 009c 9F       		.byte	0x9f
 2868 009d 00000000 		.4byte	0
 2869 00a1 00000000 		.4byte	0
 2870              	.LLST19:
 2871 00a5 00000000 		.4byte	.LVL35
 2872 00a9 1D000000 		.4byte	.LVL36-1
 2873 00ad 0100     		.2byte	0x1
 2874 00af 51       		.byte	0x51
 2875 00b0 1D000000 		.4byte	.LVL36-1
 2876 00b4 24000000 		.4byte	.LFE6
 2877 00b8 0400     		.2byte	0x4
 2878 00ba F3       		.byte	0xf3
 2879 00bb 01       		.uleb128 0x1
 2880 00bc 51       		.byte	0x51
 2881 00bd 9F       		.byte	0x9f
 2882 00be 00000000 		.4byte	0
 2883 00c2 00000000 		.4byte	0
 2884              	.LLST17:
 2885 00c6 00000000 		.4byte	.LVL32
 2886 00ca 06000000 		.4byte	.LVL33
 2887 00ce 0100     		.2byte	0x1
 2888 00d0 50       		.byte	0x50
 2889 00d1 06000000 		.4byte	.LVL33
 2890 00d5 24000000 		.4byte	.LFE5
 2891 00d9 0400     		.2byte	0x4
 2892 00db F3       		.byte	0xf3
 2893 00dc 01       		.uleb128 0x1
 2894 00dd 50       		.byte	0x50
 2895 00de 9F       		.byte	0x9f
 2896 00df 00000000 		.4byte	0
 2897 00e3 00000000 		.4byte	0
 2898              	.LLST13:
 2899 00e7 00000000 		.4byte	.LVL27
 2900 00eb 27000000 		.4byte	.LVL30-1
 2901 00ef 0100     		.2byte	0x1
 2902 00f1 50       		.byte	0x50
 2903 00f2 27000000 		.4byte	.LVL30-1
 2904 00f6 28000000 		.4byte	.LVL30
 2905 00fa 0400     		.2byte	0x4
 2906 00fc F3       		.byte	0xf3
 2907 00fd 01       		.uleb128 0x1
ARM GAS  C:\Users\Moi\AppData\Local\Temp\ccoR0KNf.s 			page 52


 2908 00fe 50       		.byte	0x50
 2909 00ff 9F       		.byte	0x9f
 2910 0100 28000000 		.4byte	.LVL30
 2911 0104 2B000000 		.4byte	.LVL31-1
 2912 0108 0100     		.2byte	0x1
 2913 010a 50       		.byte	0x50
 2914 010b 2B000000 		.4byte	.LVL31-1
 2915 010f 38000000 		.4byte	.LFE4
 2916 0113 0400     		.2byte	0x4
 2917 0115 F3       		.byte	0xf3
 2918 0116 01       		.uleb128 0x1
 2919 0117 50       		.byte	0x50
 2920 0118 9F       		.byte	0x9f
 2921 0119 00000000 		.4byte	0
 2922 011d 00000000 		.4byte	0
 2923              	.LLST14:
 2924 0121 00000000 		.4byte	.LVL27
 2925 0125 27000000 		.4byte	.LVL30-1
 2926 0129 0100     		.2byte	0x1
 2927 012b 51       		.byte	0x51
 2928 012c 27000000 		.4byte	.LVL30-1
 2929 0130 28000000 		.4byte	.LVL30
 2930 0134 0400     		.2byte	0x4
 2931 0136 F3       		.byte	0xf3
 2932 0137 01       		.uleb128 0x1
 2933 0138 51       		.byte	0x51
 2934 0139 9F       		.byte	0x9f
 2935 013a 28000000 		.4byte	.LVL30
 2936 013e 2B000000 		.4byte	.LVL31-1
 2937 0142 0100     		.2byte	0x1
 2938 0144 51       		.byte	0x51
 2939 0145 2B000000 		.4byte	.LVL31-1
 2940 0149 38000000 		.4byte	.LFE4
 2941 014d 0400     		.2byte	0x4
 2942 014f F3       		.byte	0xf3
 2943 0150 01       		.uleb128 0x1
 2944 0151 51       		.byte	0x51
 2945 0152 9F       		.byte	0x9f
 2946 0153 00000000 		.4byte	0
 2947 0157 00000000 		.4byte	0
 2948              	.LLST15:
 2949 015b 00000000 		.4byte	.LVL27
 2950 015f 1E000000 		.4byte	.LVL29
 2951 0163 0100     		.2byte	0x1
 2952 0165 52       		.byte	0x52
 2953 0166 1E000000 		.4byte	.LVL29
 2954 016a 27000000 		.4byte	.LVL30-1
 2955 016e 0200     		.2byte	0x2
 2956 0170 71       		.byte	0x71
 2957 0171 00       		.sleb128 0
 2958 0172 27000000 		.4byte	.LVL30-1
 2959 0176 28000000 		.4byte	.LVL30
 2960 017a 0400     		.2byte	0x4
 2961 017c F3       		.byte	0xf3
 2962 017d 01       		.uleb128 0x1
 2963 017e 52       		.byte	0x52
 2964 017f 9F       		.byte	0x9f
ARM GAS  C:\Users\Moi\AppData\Local\Temp\ccoR0KNf.s 			page 53


 2965 0180 28000000 		.4byte	.LVL30
 2966 0184 2B000000 		.4byte	.LVL31-1
 2967 0188 0100     		.2byte	0x1
 2968 018a 52       		.byte	0x52
 2969 018b 2B000000 		.4byte	.LVL31-1
 2970 018f 38000000 		.4byte	.LFE4
 2971 0193 0400     		.2byte	0x4
 2972 0195 F3       		.byte	0xf3
 2973 0196 01       		.uleb128 0x1
 2974 0197 52       		.byte	0x52
 2975 0198 9F       		.byte	0x9f
 2976 0199 00000000 		.4byte	0
 2977 019d 00000000 		.4byte	0
 2978              	.LLST16:
 2979 01a1 00000000 		.4byte	.LVL27
 2980 01a5 1C000000 		.4byte	.LVL28
 2981 01a9 0100     		.2byte	0x1
 2982 01ab 53       		.byte	0x53
 2983 01ac 1C000000 		.4byte	.LVL28
 2984 01b0 27000000 		.4byte	.LVL30-1
 2985 01b4 0200     		.2byte	0x2
 2986 01b6 71       		.byte	0x71
 2987 01b7 08       		.sleb128 8
 2988 01b8 27000000 		.4byte	.LVL30-1
 2989 01bc 28000000 		.4byte	.LVL30
 2990 01c0 0400     		.2byte	0x4
 2991 01c2 F3       		.byte	0xf3
 2992 01c3 01       		.uleb128 0x1
 2993 01c4 53       		.byte	0x53
 2994 01c5 9F       		.byte	0x9f
 2995 01c6 28000000 		.4byte	.LVL30
 2996 01ca 2B000000 		.4byte	.LVL31-1
 2997 01ce 0100     		.2byte	0x1
 2998 01d0 53       		.byte	0x53
 2999 01d1 2B000000 		.4byte	.LVL31-1
 3000 01d5 38000000 		.4byte	.LFE4
 3001 01d9 0400     		.2byte	0x4
 3002 01db F3       		.byte	0xf3
 3003 01dc 01       		.uleb128 0x1
 3004 01dd 53       		.byte	0x53
 3005 01de 9F       		.byte	0x9f
 3006 01df 00000000 		.4byte	0
 3007 01e3 00000000 		.4byte	0
 3008              	.LLST9:
 3009 01e7 00000000 		.4byte	.LVL22
 3010 01eb 27000000 		.4byte	.LVL25-1
 3011 01ef 0100     		.2byte	0x1
 3012 01f1 50       		.byte	0x50
 3013 01f2 27000000 		.4byte	.LVL25-1
 3014 01f6 28000000 		.4byte	.LVL25
 3015 01fa 0400     		.2byte	0x4
 3016 01fc F3       		.byte	0xf3
 3017 01fd 01       		.uleb128 0x1
 3018 01fe 50       		.byte	0x50
 3019 01ff 9F       		.byte	0x9f
 3020 0200 28000000 		.4byte	.LVL25
 3021 0204 2B000000 		.4byte	.LVL26-1
ARM GAS  C:\Users\Moi\AppData\Local\Temp\ccoR0KNf.s 			page 54


 3022 0208 0100     		.2byte	0x1
 3023 020a 50       		.byte	0x50
 3024 020b 2B000000 		.4byte	.LVL26-1
 3025 020f 38000000 		.4byte	.LFE3
 3026 0213 0400     		.2byte	0x4
 3027 0215 F3       		.byte	0xf3
 3028 0216 01       		.uleb128 0x1
 3029 0217 50       		.byte	0x50
 3030 0218 9F       		.byte	0x9f
 3031 0219 00000000 		.4byte	0
 3032 021d 00000000 		.4byte	0
 3033              	.LLST10:
 3034 0221 00000000 		.4byte	.LVL22
 3035 0225 27000000 		.4byte	.LVL25-1
 3036 0229 0100     		.2byte	0x1
 3037 022b 51       		.byte	0x51
 3038 022c 27000000 		.4byte	.LVL25-1
 3039 0230 28000000 		.4byte	.LVL25
 3040 0234 0400     		.2byte	0x4
 3041 0236 F3       		.byte	0xf3
 3042 0237 01       		.uleb128 0x1
 3043 0238 51       		.byte	0x51
 3044 0239 9F       		.byte	0x9f
 3045 023a 28000000 		.4byte	.LVL25
 3046 023e 2B000000 		.4byte	.LVL26-1
 3047 0242 0100     		.2byte	0x1
 3048 0244 51       		.byte	0x51
 3049 0245 2B000000 		.4byte	.LVL26-1
 3050 0249 38000000 		.4byte	.LFE3
 3051 024d 0400     		.2byte	0x4
 3052 024f F3       		.byte	0xf3
 3053 0250 01       		.uleb128 0x1
 3054 0251 51       		.byte	0x51
 3055 0252 9F       		.byte	0x9f
 3056 0253 00000000 		.4byte	0
 3057 0257 00000000 		.4byte	0
 3058              	.LLST11:
 3059 025b 00000000 		.4byte	.LVL22
 3060 025f 1E000000 		.4byte	.LVL24
 3061 0263 0100     		.2byte	0x1
 3062 0265 52       		.byte	0x52
 3063 0266 1E000000 		.4byte	.LVL24
 3064 026a 27000000 		.4byte	.LVL25-1
 3065 026e 0200     		.2byte	0x2
 3066 0270 71       		.byte	0x71
 3067 0271 00       		.sleb128 0
 3068 0272 27000000 		.4byte	.LVL25-1
 3069 0276 28000000 		.4byte	.LVL25
 3070 027a 0400     		.2byte	0x4
 3071 027c F3       		.byte	0xf3
 3072 027d 01       		.uleb128 0x1
 3073 027e 52       		.byte	0x52
 3074 027f 9F       		.byte	0x9f
 3075 0280 28000000 		.4byte	.LVL25
 3076 0284 2B000000 		.4byte	.LVL26-1
 3077 0288 0100     		.2byte	0x1
 3078 028a 52       		.byte	0x52
ARM GAS  C:\Users\Moi\AppData\Local\Temp\ccoR0KNf.s 			page 55


 3079 028b 2B000000 		.4byte	.LVL26-1
 3080 028f 38000000 		.4byte	.LFE3
 3081 0293 0400     		.2byte	0x4
 3082 0295 F3       		.byte	0xf3
 3083 0296 01       		.uleb128 0x1
 3084 0297 52       		.byte	0x52
 3085 0298 9F       		.byte	0x9f
 3086 0299 00000000 		.4byte	0
 3087 029d 00000000 		.4byte	0
 3088              	.LLST12:
 3089 02a1 00000000 		.4byte	.LVL22
 3090 02a5 1C000000 		.4byte	.LVL23
 3091 02a9 0100     		.2byte	0x1
 3092 02ab 53       		.byte	0x53
 3093 02ac 1C000000 		.4byte	.LVL23
 3094 02b0 27000000 		.4byte	.LVL25-1
 3095 02b4 0200     		.2byte	0x2
 3096 02b6 71       		.byte	0x71
 3097 02b7 08       		.sleb128 8
 3098 02b8 27000000 		.4byte	.LVL25-1
 3099 02bc 28000000 		.4byte	.LVL25
 3100 02c0 0400     		.2byte	0x4
 3101 02c2 F3       		.byte	0xf3
 3102 02c3 01       		.uleb128 0x1
 3103 02c4 53       		.byte	0x53
 3104 02c5 9F       		.byte	0x9f
 3105 02c6 28000000 		.4byte	.LVL25
 3106 02ca 2B000000 		.4byte	.LVL26-1
 3107 02ce 0100     		.2byte	0x1
 3108 02d0 53       		.byte	0x53
 3109 02d1 2B000000 		.4byte	.LVL26-1
 3110 02d5 38000000 		.4byte	.LFE3
 3111 02d9 0400     		.2byte	0x4
 3112 02db F3       		.byte	0xf3
 3113 02dc 01       		.uleb128 0x1
 3114 02dd 53       		.byte	0x53
 3115 02de 9F       		.byte	0x9f
 3116 02df 00000000 		.4byte	0
 3117 02e3 00000000 		.4byte	0
 3118              	.LLST0:
 3119 02e7 00000000 		.4byte	.LVL0
 3120 02eb 14000000 		.4byte	.LVL2
 3121 02ef 0100     		.2byte	0x1
 3122 02f1 50       		.byte	0x50
 3123 02f2 14000000 		.4byte	.LVL2
 3124 02f6 1A000000 		.4byte	.LVL3
 3125 02fa 0400     		.2byte	0x4
 3126 02fc F3       		.byte	0xf3
 3127 02fd 01       		.uleb128 0x1
 3128 02fe 50       		.byte	0x50
 3129 02ff 9F       		.byte	0x9f
 3130 0300 1A000000 		.4byte	.LVL3
 3131 0304 1D000000 		.4byte	.LVL4-1
 3132 0308 0100     		.2byte	0x1
 3133 030a 50       		.byte	0x50
 3134 030b 1D000000 		.4byte	.LVL4-1
 3135 030f 24000000 		.4byte	.LFE2
ARM GAS  C:\Users\Moi\AppData\Local\Temp\ccoR0KNf.s 			page 56


 3136 0313 0400     		.2byte	0x4
 3137 0315 F3       		.byte	0xf3
 3138 0316 01       		.uleb128 0x1
 3139 0317 50       		.byte	0x50
 3140 0318 9F       		.byte	0x9f
 3141 0319 00000000 		.4byte	0
 3142 031d 00000000 		.4byte	0
 3143              	.LLST1:
 3144 0321 00000000 		.4byte	.LVL0
 3145 0325 1D000000 		.4byte	.LVL4-1
 3146 0329 0100     		.2byte	0x1
 3147 032b 51       		.byte	0x51
 3148 032c 1D000000 		.4byte	.LVL4-1
 3149 0330 24000000 		.4byte	.LFE2
 3150 0334 0400     		.2byte	0x4
 3151 0336 F3       		.byte	0xf3
 3152 0337 01       		.uleb128 0x1
 3153 0338 51       		.byte	0x51
 3154 0339 9F       		.byte	0x9f
 3155 033a 00000000 		.4byte	0
 3156 033e 00000000 		.4byte	0
 3157              	.LLST2:
 3158 0342 00000000 		.4byte	.LVL0
 3159 0346 08000000 		.4byte	.LVL1
 3160 034a 0100     		.2byte	0x1
 3161 034c 52       		.byte	0x52
 3162 034d 08000000 		.4byte	.LVL1
 3163 0351 24000000 		.4byte	.LFE2
 3164 0355 0400     		.2byte	0x4
 3165 0357 F3       		.byte	0xf3
 3166 0358 01       		.uleb128 0x1
 3167 0359 52       		.byte	0x52
 3168 035a 9F       		.byte	0x9f
 3169 035b 00000000 		.4byte	0
 3170 035f 00000000 		.4byte	0
 3171              	.LLST3:
 3172 0363 00000000 		.4byte	.LVL5
 3173 0367 0A000000 		.4byte	.LVL7
 3174 036b 0100     		.2byte	0x1
 3175 036d 50       		.byte	0x50
 3176 036e 0A000000 		.4byte	.LVL7
 3177 0372 40000000 		.4byte	.LFE1
 3178 0376 0400     		.2byte	0x4
 3179 0378 F3       		.byte	0xf3
 3180 0379 01       		.uleb128 0x1
 3181 037a 50       		.byte	0x50
 3182 037b 9F       		.byte	0x9f
 3183 037c 00000000 		.4byte	0
 3184 0380 00000000 		.4byte	0
 3185              	.LLST4:
 3186 0384 00000000 		.4byte	.LVL5
 3187 0388 18000000 		.4byte	.LVL8
 3188 038c 0100     		.2byte	0x1
 3189 038e 51       		.byte	0x51
 3190 038f 18000000 		.4byte	.LVL8
 3191 0393 24000000 		.4byte	.LVL9
 3192 0397 0400     		.2byte	0x4
ARM GAS  C:\Users\Moi\AppData\Local\Temp\ccoR0KNf.s 			page 57


 3193 0399 F3       		.byte	0xf3
 3194 039a 01       		.uleb128 0x1
 3195 039b 51       		.byte	0x51
 3196 039c 9F       		.byte	0x9f
 3197 039d 24000000 		.4byte	.LVL9
 3198 03a1 2D000000 		.4byte	.LVL10-1
 3199 03a5 0100     		.2byte	0x1
 3200 03a7 51       		.byte	0x51
 3201 03a8 2D000000 		.4byte	.LVL10-1
 3202 03ac 40000000 		.4byte	.LFE1
 3203 03b0 0400     		.2byte	0x4
 3204 03b2 F3       		.byte	0xf3
 3205 03b3 01       		.uleb128 0x1
 3206 03b4 51       		.byte	0x51
 3207 03b5 9F       		.byte	0x9f
 3208 03b6 00000000 		.4byte	0
 3209 03ba 00000000 		.4byte	0
 3210              	.LLST5:
 3211 03be 00000000 		.4byte	.LVL5
 3212 03c2 18000000 		.4byte	.LVL8
 3213 03c6 0100     		.2byte	0x1
 3214 03c8 52       		.byte	0x52
 3215 03c9 18000000 		.4byte	.LVL8
 3216 03cd 24000000 		.4byte	.LVL9
 3217 03d1 0400     		.2byte	0x4
 3218 03d3 F3       		.byte	0xf3
 3219 03d4 01       		.uleb128 0x1
 3220 03d5 52       		.byte	0x52
 3221 03d6 9F       		.byte	0x9f
 3222 03d7 24000000 		.4byte	.LVL9
 3223 03db 2D000000 		.4byte	.LVL10-1
 3224 03df 0100     		.2byte	0x1
 3225 03e1 52       		.byte	0x52
 3226 03e2 2D000000 		.4byte	.LVL10-1
 3227 03e6 38000000 		.4byte	.LVL11
 3228 03ea 0100     		.2byte	0x1
 3229 03ec 54       		.byte	0x54
 3230 03ed 38000000 		.4byte	.LVL11
 3231 03f1 40000000 		.4byte	.LFE1
 3232 03f5 0400     		.2byte	0x4
 3233 03f7 F3       		.byte	0xf3
 3234 03f8 01       		.uleb128 0x1
 3235 03f9 52       		.byte	0x52
 3236 03fa 9F       		.byte	0x9f
 3237 03fb 00000000 		.4byte	0
 3238 03ff 00000000 		.4byte	0
 3239              	.LLST6:
 3240 0403 00000000 		.4byte	.LVL13
 3241 0407 12000000 		.4byte	.LVL15
 3242 040b 0100     		.2byte	0x1
 3243 040d 50       		.byte	0x50
 3244 040e 12000000 		.4byte	.LVL15
 3245 0412 44000000 		.4byte	.LFE0
 3246 0416 0400     		.2byte	0x4
 3247 0418 F3       		.byte	0xf3
 3248 0419 01       		.uleb128 0x1
 3249 041a 50       		.byte	0x50
ARM GAS  C:\Users\Moi\AppData\Local\Temp\ccoR0KNf.s 			page 58


 3250 041b 9F       		.byte	0x9f
 3251 041c 00000000 		.4byte	0
 3252 0420 00000000 		.4byte	0
 3253              	.LLST7:
 3254 0424 00000000 		.4byte	.LVL13
 3255 0428 1A000000 		.4byte	.LVL16
 3256 042c 0100     		.2byte	0x1
 3257 042e 51       		.byte	0x51
 3258 042f 1A000000 		.4byte	.LVL16
 3259 0433 26000000 		.4byte	.LVL17
 3260 0437 0400     		.2byte	0x4
 3261 0439 F3       		.byte	0xf3
 3262 043a 01       		.uleb128 0x1
 3263 043b 51       		.byte	0x51
 3264 043c 9F       		.byte	0x9f
 3265 043d 26000000 		.4byte	.LVL17
 3266 0441 2C000000 		.4byte	.LVL18
 3267 0445 0100     		.2byte	0x1
 3268 0447 51       		.byte	0x51
 3269 0448 2C000000 		.4byte	.LVL18
 3270 044c 31000000 		.4byte	.LVL19-1
 3271 0450 0100     		.2byte	0x1
 3272 0452 50       		.byte	0x50
 3273 0453 31000000 		.4byte	.LVL19-1
 3274 0457 44000000 		.4byte	.LFE0
 3275 045b 0400     		.2byte	0x4
 3276 045d F3       		.byte	0xf3
 3277 045e 01       		.uleb128 0x1
 3278 045f 51       		.byte	0x51
 3279 0460 9F       		.byte	0x9f
 3280 0461 00000000 		.4byte	0
 3281 0465 00000000 		.4byte	0
 3282              	.LLST8:
 3283 0469 00000000 		.4byte	.LVL13
 3284 046d 1A000000 		.4byte	.LVL16
 3285 0471 0100     		.2byte	0x1
 3286 0473 52       		.byte	0x52
 3287 0474 1A000000 		.4byte	.LVL16
 3288 0478 26000000 		.4byte	.LVL17
 3289 047c 0400     		.2byte	0x4
 3290 047e F3       		.byte	0xf3
 3291 047f 01       		.uleb128 0x1
 3292 0480 52       		.byte	0x52
 3293 0481 9F       		.byte	0x9f
 3294 0482 26000000 		.4byte	.LVL17
 3295 0486 31000000 		.4byte	.LVL19-1
 3296 048a 0100     		.2byte	0x1
 3297 048c 52       		.byte	0x52
 3298 048d 31000000 		.4byte	.LVL19-1
 3299 0491 36000000 		.4byte	.LVL20
 3300 0495 0100     		.2byte	0x1
 3301 0497 56       		.byte	0x56
 3302 0498 36000000 		.4byte	.LVL20
 3303 049c 44000000 		.4byte	.LFE0
 3304 04a0 0400     		.2byte	0x4
 3305 04a2 F3       		.byte	0xf3
 3306 04a3 01       		.uleb128 0x1
ARM GAS  C:\Users\Moi\AppData\Local\Temp\ccoR0KNf.s 			page 59


 3307 04a4 52       		.byte	0x52
 3308 04a5 9F       		.byte	0x9f
 3309 04a6 00000000 		.4byte	0
 3310 04aa 00000000 		.4byte	0
 3311              		.section	.debug_aranges,"",%progbits
 3312 0000 5C000000 		.4byte	0x5c
 3313 0004 0200     		.2byte	0x2
 3314 0006 00000000 		.4byte	.Ldebug_info0
 3315 000a 04       		.byte	0x4
 3316 000b 00       		.byte	0
 3317 000c 0000     		.2byte	0
 3318 000e 0000     		.2byte	0
 3319 0010 00000000 		.4byte	.LFB2
 3320 0014 24000000 		.4byte	.LFE2-.LFB2
 3321 0018 00000000 		.4byte	.LFB1
 3322 001c 40000000 		.4byte	.LFE1-.LFB1
 3323 0020 00000000 		.4byte	.LFB0
 3324 0024 44000000 		.4byte	.LFE0-.LFB0
 3325 0028 00000000 		.4byte	.LFB3
 3326 002c 38000000 		.4byte	.LFE3-.LFB3
 3327 0030 00000000 		.4byte	.LFB4
 3328 0034 38000000 		.4byte	.LFE4-.LFB4
 3329 0038 00000000 		.4byte	.LFB5
 3330 003c 24000000 		.4byte	.LFE5-.LFB5
 3331 0040 00000000 		.4byte	.LFB6
 3332 0044 24000000 		.4byte	.LFE6-.LFB6
 3333 0048 00000000 		.4byte	.LFB7
 3334 004c 24000000 		.4byte	.LFE7-.LFB7
 3335 0050 00000000 		.4byte	.LFB8
 3336 0054 2C000000 		.4byte	.LFE8-.LFB8
 3337 0058 00000000 		.4byte	0
 3338 005c 00000000 		.4byte	0
 3339              		.section	.debug_ranges,"",%progbits
 3340              	.Ldebug_ranges0:
 3341 0000 00000000 		.4byte	.LFB2
 3342 0004 24000000 		.4byte	.LFE2
 3343 0008 00000000 		.4byte	.LFB1
 3344 000c 40000000 		.4byte	.LFE1
 3345 0010 00000000 		.4byte	.LFB0
 3346 0014 44000000 		.4byte	.LFE0
 3347 0018 00000000 		.4byte	.LFB3
 3348 001c 38000000 		.4byte	.LFE3
 3349 0020 00000000 		.4byte	.LFB4
 3350 0024 38000000 		.4byte	.LFE4
 3351 0028 00000000 		.4byte	.LFB5
 3352 002c 24000000 		.4byte	.LFE5
 3353 0030 00000000 		.4byte	.LFB6
 3354 0034 24000000 		.4byte	.LFE6
 3355 0038 00000000 		.4byte	.LFB7
 3356 003c 24000000 		.4byte	.LFE7
 3357 0040 00000000 		.4byte	.LFB8
 3358 0044 2C000000 		.4byte	.LFE8
 3359 0048 00000000 		.4byte	0
 3360 004c 00000000 		.4byte	0
 3361              		.section	.debug_line,"",%progbits
 3362              	.Ldebug_line0:
 3363 0000 8B030000 		.section	.debug_str,"MS",%progbits,1
ARM GAS  C:\Users\Moi\AppData\Local\Temp\ccoR0KNf.s 			page 60


 3363      0200B902 
 3363      00000201 
 3363      FB0E0D00 
 3363      01010101 
 3364              	.LASF41:
 3365 0000 5F64736F 		.ascii	"_dso_handle\000"
 3365      5F68616E 
 3365      646C6500 
 3366              	.LASF49:
 3367 000c 5F73697A 		.ascii	"_size\000"
 3367      6500
 3368              	.LASF4:
 3369 0012 73697A65 		.ascii	"size_t\000"
 3369      5F7400
 3370              	.LASF93:
 3371 0019 5F72616E 		.ascii	"_rand48\000"
 3371      64343800 
 3372              	.LASF73:
 3373 0021 5F656D65 		.ascii	"_emergency\000"
 3373      7267656E 
 3373      637900
 3374              	.LASF130:
 3375 002c 77726974 		.ascii	"write\000"
 3375      6500
 3376              	.LASF5:
 3377 0032 5F5F7569 		.ascii	"__uint8_t\000"
 3377      6E74385F 
 3377      7400
 3378              	.LASF63:
 3379 003c 5F646174 		.ascii	"_data\000"
 3379      6100
 3380              	.LASF113:
 3381 0042 5F776372 		.ascii	"_wcrtomb_state\000"
 3381      746F6D62 
 3381      5F737461 
 3381      746500
 3382              	.LASF114:
 3383 0051 5F776373 		.ascii	"_wcsrtombs_state\000"
 3383      72746F6D 
 3383      62735F73 
 3383      74617465 
 3383      00
 3384              	.LASF11:
 3385 0062 6C6F6E67 		.ascii	"long long unsigned int\000"
 3385      206C6F6E 
 3385      6720756E 
 3385      7369676E 
 3385      65642069 
 3386              	.LASF148:
 3387 0079 474E5520 		.ascii	"GNU C11 7.2.1 20170904 (release) [ARM/embedded-7-br"
 3387      43313120 
 3387      372E322E 
 3387      31203230 
 3387      31373039 
 3388 00ac 616E6368 		.ascii	"anch revision 255204] -mcpu=cortex-m4 -mfloat-abi=h"
 3388      20726576 
 3388      6973696F 
ARM GAS  C:\Users\Moi\AppData\Local\Temp\ccoR0KNf.s 			page 61


 3388      6E203235 
 3388      35323034 
 3389 00df 61726420 		.ascii	"ard -mfpu=fpv4-sp-d16 -mno-thumb-interwork -mthumb "
 3389      2D6D6670 
 3389      753D6670 
 3389      76342D73 
 3389      702D6431 
 3390 0112 2D676764 		.ascii	"-ggdb -O2 -fomit-frame-pointer -falign-functions=16"
 3390      62202D4F 
 3390      32202D66 
 3390      6F6D6974 
 3390      2D667261 
 3391 0145 202D6673 		.ascii	" -fstack-protector-all -ffunction-sections -fdata-s"
 3391      7461636B 
 3391      2D70726F 
 3391      74656374 
 3391      6F722D61 
 3392 0178 65637469 		.ascii	"ections -fno-common -fsingle-precision-constant\000"
 3392      6F6E7320 
 3392      2D666E6F 
 3392      2D636F6D 
 3392      6D6F6E20 
 3393              	.LASF120:
 3394 01a8 5F5F6C6F 		.ascii	"__locale_t\000"
 3394      63616C65 
 3394      5F7400
 3395              	.LASF111:
 3396 01b3 5F6D6272 		.ascii	"_mbrtowc_state\000"
 3396      746F7763 
 3396      5F737461 
 3396      746500
 3397              	.LASF30:
 3398 01c2 5F5F746D 		.ascii	"__tm_sec\000"
 3398      5F736563 
 3398      00
 3399              	.LASF1:
 3400 01cb 6C6F6E67 		.ascii	"long long int\000"
 3400      206C6F6E 
 3400      6720696E 
 3400      7400
 3401              	.LASF3:
 3402 01d9 7369676E 		.ascii	"signed char\000"
 3402      65642063 
 3402      68617200 
 3403              	.LASF59:
 3404 01e5 5F756275 		.ascii	"_ubuf\000"
 3404      6600
 3405              	.LASF48:
 3406 01eb 5F626173 		.ascii	"_base\000"
 3406      6500
 3407              	.LASF32:
 3408 01f1 5F5F746D 		.ascii	"__tm_hour\000"
 3408      5F686F75 
 3408      7200
 3409              	.LASF88:
 3410 01fb 5F5F7366 		.ascii	"__sf\000"
 3410      00
ARM GAS  C:\Users\Moi\AppData\Local\Temp\ccoR0KNf.s 			page 62


 3411              	.LASF39:
 3412 0200 5F6F6E5F 		.ascii	"_on_exit_args\000"
 3412      65786974 
 3412      5F617267 
 3412      7300
 3413              	.LASF54:
 3414 020e 5F636F6F 		.ascii	"_cookie\000"
 3414      6B696500 
 3415              	.LASF87:
 3416 0216 5F5F7367 		.ascii	"__sglue\000"
 3416      6C756500 
 3417              	.LASF9:
 3418 021e 6C6F6E67 		.ascii	"long int\000"
 3418      20696E74 
 3418      00
 3419              	.LASF51:
 3420 0227 5F666C61 		.ascii	"_flags\000"
 3420      677300
 3421              	.LASF43:
 3422 022e 5F69735F 		.ascii	"_is_cxa\000"
 3422      63786100 
 3423              	.LASF69:
 3424 0236 5F737464 		.ascii	"_stdin\000"
 3424      696E00
 3425              	.LASF61:
 3426 023d 5F626C6B 		.ascii	"_blksize\000"
 3426      73697A65 
 3426      00
 3427              	.LASF133:
 3428 0246 646F7562 		.ascii	"double\000"
 3428      6C6500
 3429              	.LASF83:
 3430 024d 5F637674 		.ascii	"_cvtbuf\000"
 3430      62756600 
 3431              	.LASF62:
 3432 0255 5F6F6666 		.ascii	"_offset\000"
 3432      73657400 
 3433              	.LASF112:
 3434 025d 5F6D6273 		.ascii	"_mbsrtowcs_state\000"
 3434      72746F77 
 3434      63735F73 
 3434      74617465 
 3434      00
 3435              	.LASF110:
 3436 026e 5F6D6272 		.ascii	"_mbrlen_state\000"
 3436      6C656E5F 
 3436      73746174 
 3436      6500
 3437              	.LASF40:
 3438 027c 5F666E61 		.ascii	"_fnargs\000"
 3438      72677300 
 3439              	.LASF134:
 3440 0284 636D705F 		.ascii	"cmp_ctx_t\000"
 3440      6374785F 
 3440      7400
 3441              	.LASF46:
 3442 028e 5F666E73 		.ascii	"_fns\000"
ARM GAS  C:\Users\Moi\AppData\Local\Temp\ccoR0KNf.s 			page 63


 3442      00
 3443              	.LASF26:
 3444 0293 5F736967 		.ascii	"_sign\000"
 3444      6E00
 3445              	.LASF149:
 3446 0299 2E2E2F2F 		.ascii	"..//src/cmp_mem_access/cmp_mem_access.c\000"
 3446      7372632F 
 3446      636D705F 
 3446      6D656D5F 
 3446      61636365 
 3447              	.LASF140:
 3448 02c1 636D705F 		.ascii	"cmp_mem_access_get_pos\000"
 3448      6D656D5F 
 3448      61636365 
 3448      73735F67 
 3448      65745F70 
 3449              	.LASF21:
 3450 02d8 5F666C6F 		.ascii	"_flock_t\000"
 3450      636B5F74 
 3450      00
 3451              	.LASF71:
 3452 02e1 5F737464 		.ascii	"_stderr\000"
 3452      65727200 
 3453              	.LASF28:
 3454 02e9 5F426967 		.ascii	"_Bigint\000"
 3454      696E7400 
 3455              	.LASF101:
 3456 02f1 5F67616D 		.ascii	"_gamma_signgam\000"
 3456      6D615F73 
 3456      69676E67 
 3456      616D00
 3457              	.LASF55:
 3458 0300 5F726561 		.ascii	"_read\000"
 3458      6400
 3459              	.LASF79:
 3460 0306 5F726573 		.ascii	"_result_k\000"
 3460      756C745F 
 3460      6B00
 3461              	.LASF29:
 3462 0310 5F5F746D 		.ascii	"__tm\000"
 3462      00
 3463              	.LASF0:
 3464 0315 756E7369 		.ascii	"unsigned int\000"
 3464      676E6564 
 3464      20696E74 
 3464      00
 3465              	.LASF17:
 3466 0322 5F5F7763 		.ascii	"__wchb\000"
 3466      686200
 3467              	.LASF70:
 3468 0329 5F737464 		.ascii	"_stdout\000"
 3468      6F757400 
 3469              	.LASF82:
 3470 0331 5F637674 		.ascii	"_cvtlen\000"
 3470      6C656E00 
 3471              	.LASF10:
 3472 0339 6C6F6E67 		.ascii	"long unsigned int\000"
ARM GAS  C:\Users\Moi\AppData\Local\Temp\ccoR0KNf.s 			page 64


 3472      20756E73 
 3472      69676E65 
 3472      6420696E 
 3472      7400
 3473              	.LASF52:
 3474 034b 5F66696C 		.ascii	"_file\000"
 3474      6500
 3475              	.LASF131:
 3476 0351 636D705F 		.ascii	"cmp_writer\000"
 3476      77726974 
 3476      657200
 3477              	.LASF91:
 3478 035c 5F6E696F 		.ascii	"_niobs\000"
 3478      627300
 3479              	.LASF144:
 3480 0363 64617461 		.ascii	"data\000"
 3480      00
 3481              	.LASF136:
 3482 0368 73697A65 		.ascii	"size\000"
 3482      00
 3483              	.LASF8:
 3484 036d 73686F72 		.ascii	"short unsigned int\000"
 3484      7420756E 
 3484      7369676E 
 3484      65642069 
 3484      6E7400
 3485              	.LASF85:
 3486 0380 5F617465 		.ascii	"_atexit0\000"
 3486      78697430 
 3486      00
 3487              	.LASF108:
 3488 0389 5F736967 		.ascii	"_signal_buf\000"
 3488      6E616C5F 
 3488      62756600 
 3489              	.LASF99:
 3490 0395 5F617363 		.ascii	"_asctime_buf\000"
 3490      74696D65 
 3490      5F627566 
 3490      00
 3491              	.LASF78:
 3492 03a2 5F726573 		.ascii	"_result\000"
 3492      756C7400 
 3493              	.LASF16:
 3494 03aa 5F5F7763 		.ascii	"__wch\000"
 3494      6800
 3495              	.LASF153:
 3496 03b0 6D656D63 		.ascii	"memcpy\000"
 3496      707900
 3497              	.LASF12:
 3498 03b7 5F4C4F43 		.ascii	"_LOCK_T\000"
 3498      4B5F5400 
 3499              	.LASF15:
 3500 03bf 77696E74 		.ascii	"wint_t\000"
 3500      5F7400
 3501              	.LASF139:
 3502 03c6 636D705F 		.ascii	"cmp_mem_access_get_ptr_at_pos\000"
 3502      6D656D5F 
ARM GAS  C:\Users\Moi\AppData\Local\Temp\ccoR0KNf.s 			page 65


 3502      61636365 
 3502      73735F67 
 3502      65745F70 
 3503              	.LASF154:
 3504 03e4 5F5F6275 		.ascii	"__builtin_memcpy\000"
 3504      696C7469 
 3504      6E5F6D65 
 3504      6D637079 
 3504      00
 3505              	.LASF64:
 3506 03f5 5F6C6F63 		.ascii	"_lock\000"
 3506      6B00
 3507              	.LASF137:
 3508 03fb 636D705F 		.ascii	"cmp_mem_access_t\000"
 3508      6D656D5F 
 3508      61636365 
 3508      73735F74 
 3508      00
 3509              	.LASF66:
 3510 040c 5F666C61 		.ascii	"_flags2\000"
 3510      67733200 
 3511              	.LASF147:
 3512 0414 636D705F 		.ascii	"cmp_mem_reader\000"
 3512      6D656D5F 
 3512      72656164 
 3512      657200
 3513              	.LASF56:
 3514 0423 5F777269 		.ascii	"_write\000"
 3514      746500
 3515              	.LASF35:
 3516 042a 5F5F746D 		.ascii	"__tm_year\000"
 3516      5F796561 
 3516      7200
 3517              	.LASF125:
 3518 0434 636D705F 		.ascii	"cmp_reader\000"
 3518      72656164 
 3518      657200
 3519              	.LASF2:
 3520 043f 6C6F6E67 		.ascii	"long double\000"
 3520      20646F75 
 3520      626C6500 
 3521              	.LASF152:
 3522 044b 636D705F 		.ascii	"cmp_init\000"
 3522      696E6974 
 3522      00
 3523              	.LASF127:
 3524 0454 636D705F 		.ascii	"cmp_ctx_s\000"
 3524      6374785F 
 3524      7300
 3525              	.LASF116:
 3526 045e 5F6E6578 		.ascii	"_nextf\000"
 3526      746600
 3527              	.LASF145:
 3528 0465 636D705F 		.ascii	"cmp_mem_writer_ro\000"
 3528      6D656D5F 
 3528      77726974 
 3528      65725F72 
ARM GAS  C:\Users\Moi\AppData\Local\Temp\ccoR0KNf.s 			page 66


 3528      6F00
 3529              	.LASF34:
 3530 0477 5F5F746D 		.ascii	"__tm_mon\000"
 3530      5F6D6F6E 
 3530      00
 3531              	.LASF44:
 3532 0480 5F617465 		.ascii	"_atexit\000"
 3532      78697400 
 3533              	.LASF123:
 3534 0488 7375626F 		.ascii	"suboptarg\000"
 3534      70746172 
 3534      6700
 3535              	.LASF76:
 3536 0492 5F5F7364 		.ascii	"__sdidinit\000"
 3536      6964696E 
 3536      697400
 3537              	.LASF13:
 3538 049d 5F6F6666 		.ascii	"_off_t\000"
 3538      5F7400
 3539              	.LASF150:
 3540 04a4 433A5C55 		.ascii	"C:\\Users\\Moi\\Documents\\_microinfo\\_projet\\hug"
 3540      73657273 
 3540      5C4D6F69 
 3540      5C446F63 
 3540      756D656E 
 3541 04d1 756900   		.ascii	"ui\000"
 3542              	.LASF129:
 3543 04d4 72656164 		.ascii	"read\000"
 3543      00
 3544              	.LASF132:
 3545 04d9 666C6F61 		.ascii	"float\000"
 3545      7400
 3546              	.LASF81:
 3547 04df 5F667265 		.ascii	"_freelist\000"
 3547      656C6973 
 3547      7400
 3548              	.LASF128:
 3549 04e9 6572726F 		.ascii	"error\000"
 3549      7200
 3550              	.LASF106:
 3551 04ef 5F776374 		.ascii	"_wctomb_state\000"
 3551      6F6D625F 
 3551      73746174 
 3551      6500
 3552              	.LASF126:
 3553 04fd 5F426F6F 		.ascii	"_Bool\000"
 3553      6C00
 3554              	.LASF6:
 3555 0503 756E7369 		.ascii	"unsigned char\000"
 3555      676E6564 
 3555      20636861 
 3555      7200
 3556              	.LASF84:
 3557 0511 5F6E6577 		.ascii	"_new\000"
 3557      00
 3558              	.LASF115:
 3559 0516 5F685F65 		.ascii	"_h_errno\000"
ARM GAS  C:\Users\Moi\AppData\Local\Temp\ccoR0KNf.s 			page 67


 3559      72726E6F 
 3559      00
 3560              	.LASF7:
 3561 051f 73686F72 		.ascii	"short int\000"
 3561      7420696E 
 3561      7400
 3562              	.LASF37:
 3563 0529 5F5F746D 		.ascii	"__tm_yday\000"
 3563      5F796461 
 3563      7900
 3564              	.LASF47:
 3565 0533 5F5F7362 		.ascii	"__sbuf\000"
 3565      756600
 3566              	.LASF92:
 3567 053a 5F696F62 		.ascii	"_iobs\000"
 3567      7300
 3568              	.LASF89:
 3569 0540 5F5F4649 		.ascii	"__FILE\000"
 3569      4C4500
 3570              	.LASF20:
 3571 0547 5F6D6273 		.ascii	"_mbstate_t\000"
 3571      74617465 
 3571      5F7400
 3572              	.LASF50:
 3573 0552 5F5F7346 		.ascii	"__sFILE\000"
 3573      494C4500 
 3574              	.LASF65:
 3575 055a 5F6D6273 		.ascii	"_mbstate\000"
 3575      74617465 
 3575      00
 3576              	.LASF102:
 3577 0563 5F72616E 		.ascii	"_rand_next\000"
 3577      645F6E65 
 3577      787400
 3578              	.LASF104:
 3579 056e 5F6D626C 		.ascii	"_mblen_state\000"
 3579      656E5F73 
 3579      74617465 
 3579      00
 3580              	.LASF72:
 3581 057b 5F696E63 		.ascii	"_inc\000"
 3581      00
 3582              	.LASF45:
 3583 0580 5F696E64 		.ascii	"_ind\000"
 3583      00
 3584              	.LASF75:
 3585 0585 5F6C6F63 		.ascii	"_locale\000"
 3585      616C6500 
 3586              	.LASF77:
 3587 058d 5F5F636C 		.ascii	"__cleanup\000"
 3587      65616E75 
 3587      7000
 3588              	.LASF74:
 3589 0597 5F756E73 		.ascii	"_unspecified_locale_info\000"
 3589      70656369 
 3589      66696564 
 3589      5F6C6F63 
ARM GAS  C:\Users\Moi\AppData\Local\Temp\ccoR0KNf.s 			page 68


 3589      616C655F 
 3590              	.LASF151:
 3591 05b0 5F5F7374 		.ascii	"__stack_chk_fail\000"
 3591      61636B5F 
 3591      63686B5F 
 3591      6661696C 
 3591      00
 3592              	.LASF25:
 3593 05c1 5F6D6178 		.ascii	"_maxwds\000"
 3593      77647300 
 3594              	.LASF67:
 3595 05c9 5F726565 		.ascii	"_reent\000"
 3595      6E7400
 3596              	.LASF94:
 3597 05d0 5F736565 		.ascii	"_seed\000"
 3597      6400
 3598              	.LASF18:
 3599 05d6 5F5F636F 		.ascii	"__count\000"
 3599      756E7400 
 3600              	.LASF119:
 3601 05de 5F5F6C6F 		.ascii	"__lock\000"
 3601      636B00
 3602              	.LASF19:
 3603 05e5 5F5F7661 		.ascii	"__value\000"
 3603      6C756500 
 3604              	.LASF57:
 3605 05ed 5F736565 		.ascii	"_seek\000"
 3605      6B00
 3606              	.LASF121:
 3607 05f3 5F696D70 		.ascii	"_impure_ptr\000"
 3607      7572655F 
 3607      70747200 
 3608              	.LASF14:
 3609 05ff 5F66706F 		.ascii	"_fpos_t\000"
 3609      735F7400 
 3610              	.LASF68:
 3611 0607 5F657272 		.ascii	"_errno\000"
 3611      6E6F00
 3612              	.LASF22:
 3613 060e 63686172 		.ascii	"char\000"
 3613      00
 3614              	.LASF31:
 3615 0613 5F5F746D 		.ascii	"__tm_min\000"
 3615      5F6D696E 
 3615      00
 3616              	.LASF141:
 3617 061c 636D705F 		.ascii	"cmp_mem_access_set_pos\000"
 3617      6D656D5F 
 3617      61636365 
 3617      73735F73 
 3617      65745F70 
 3618              	.LASF146:
 3619 0633 636D705F 		.ascii	"cmp_mem_writer\000"
 3619      6D656D5F 
 3619      77726974 
 3619      657200
 3620              	.LASF135:
ARM GAS  C:\Users\Moi\AppData\Local\Temp\ccoR0KNf.s 			page 69


 3621 0642 696E6465 		.ascii	"index\000"
 3621      7800
 3622              	.LASF124:
 3623 0648 75696E74 		.ascii	"uint8_t\000"
 3623      385F7400 
 3624              	.LASF95:
 3625 0650 5F6D756C 		.ascii	"_mult\000"
 3625      7400
 3626              	.LASF24:
 3627 0656 5F6E6578 		.ascii	"_next\000"
 3627      7400
 3628              	.LASF98:
 3629 065c 5F737472 		.ascii	"_strtok_last\000"
 3629      746F6B5F 
 3629      6C617374 
 3629      00
 3630              	.LASF42:
 3631 0669 5F666E74 		.ascii	"_fntypes\000"
 3631      79706573 
 3631      00
 3632              	.LASF96:
 3633 0672 5F616464 		.ascii	"_add\000"
 3633      00
 3634              	.LASF23:
 3635 0677 5F5F554C 		.ascii	"__ULong\000"
 3635      6F6E6700 
 3636              	.LASF109:
 3637 067f 5F676574 		.ascii	"_getdate_err\000"
 3637      64617465 
 3637      5F657272 
 3637      00
 3638              	.LASF122:
 3639 068c 5F676C6F 		.ascii	"_global_impure_ptr\000"
 3639      62616C5F 
 3639      696D7075 
 3639      72655F70 
 3639      747200
 3640              	.LASF97:
 3641 069f 5F756E75 		.ascii	"_unused_rand\000"
 3641      7365645F 
 3641      72616E64 
 3641      00
 3642              	.LASF142:
 3643 06ac 636D705F 		.ascii	"cmp_mem_access_ro_init\000"
 3643      6D656D5F 
 3643      61636365 
 3643      73735F72 
 3643      6F5F696E 
 3644              	.LASF27:
 3645 06c3 5F776473 		.ascii	"_wds\000"
 3645      00
 3646              	.LASF36:
 3647 06c8 5F5F746D 		.ascii	"__tm_wday\000"
 3647      5F776461 
 3647      7900
 3648              	.LASF90:
 3649 06d2 5F676C75 		.ascii	"_glue\000"
ARM GAS  C:\Users\Moi\AppData\Local\Temp\ccoR0KNf.s 			page 70


 3649      6500
 3650              	.LASF117:
 3651 06d8 5F6E6D61 		.ascii	"_nmalloc\000"
 3651      6C6C6F63 
 3651      00
 3652              	.LASF107:
 3653 06e1 5F6C3634 		.ascii	"_l64a_buf\000"
 3653      615F6275 
 3653      6600
 3654              	.LASF86:
 3655 06eb 5F736967 		.ascii	"_sig_func\000"
 3655      5F66756E 
 3655      6300
 3656              	.LASF60:
 3657 06f5 5F6E6275 		.ascii	"_nbuf\000"
 3657      6600
 3658              	.LASF118:
 3659 06fb 5F756E75 		.ascii	"_unused\000"
 3659      73656400 
 3660              	.LASF38:
 3661 0703 5F5F746D 		.ascii	"__tm_isdst\000"
 3661      5F697364 
 3661      737400
 3662              	.LASF100:
 3663 070e 5F6C6F63 		.ascii	"_localtime_buf\000"
 3663      616C7469 
 3663      6D655F62 
 3663      756600
 3664              	.LASF58:
 3665 071d 5F636C6F 		.ascii	"_close\000"
 3665      736500
 3666              	.LASF103:
 3667 0724 5F723438 		.ascii	"_r48\000"
 3667      00
 3668              	.LASF138:
 3669 0729 636D705F 		.ascii	"cmp_mem_access_pos_is_valid\000"
 3669      6D656D5F 
 3669      61636365 
 3669      73735F70 
 3669      6F735F69 
 3670              	.LASF105:
 3671 0745 5F6D6274 		.ascii	"_mbtowc_state\000"
 3671      6F77635F 
 3671      73746174 
 3671      6500
 3672              	.LASF80:
 3673 0753 5F703573 		.ascii	"_p5s\000"
 3673      00
 3674              	.LASF53:
 3675 0758 5F6C6266 		.ascii	"_lbfsize\000"
 3675      73697A65 
 3675      00
 3676              	.LASF33:
 3677 0761 5F5F746D 		.ascii	"__tm_mday\000"
 3677      5F6D6461 
 3677      7900
 3678              	.LASF143:
ARM GAS  C:\Users\Moi\AppData\Local\Temp\ccoR0KNf.s 			page 71


 3679 076b 636D705F 		.ascii	"cmp_mem_access_init\000"
 3679      6D656D5F 
 3679      61636365 
 3679      73735F69 
 3679      6E697400 
 3680              		.ident	"GCC: (GNU Tools for Arm Embedded Processors 7-2017-q4-major) 7.2.1 20170904 (release) [ARM
ARM GAS  C:\Users\Moi\AppData\Local\Temp\ccoR0KNf.s 			page 72


DEFINED SYMBOLS
                            *ABS*:00000000 cmp_mem_access.c
C:\Users\Moi\AppData\Local\Temp\ccoR0KNf.s:18     .text.cmp_mem_writer_ro:00000000 $t
C:\Users\Moi\AppData\Local\Temp\ccoR0KNf.s:25     .text.cmp_mem_writer_ro:00000000 cmp_mem_writer_ro
C:\Users\Moi\AppData\Local\Temp\ccoR0KNf.s:63     .text.cmp_mem_writer_ro:00000020 $d
C:\Users\Moi\AppData\Local\Temp\ccoR0KNf.s:68     .text.cmp_mem_writer:00000000 $t
C:\Users\Moi\AppData\Local\Temp\ccoR0KNf.s:75     .text.cmp_mem_writer:00000000 cmp_mem_writer
C:\Users\Moi\AppData\Local\Temp\ccoR0KNf.s:146    .text.cmp_mem_writer:0000003c $d
C:\Users\Moi\AppData\Local\Temp\ccoR0KNf.s:151    .text.cmp_mem_reader:00000000 $t
C:\Users\Moi\AppData\Local\Temp\ccoR0KNf.s:158    .text.cmp_mem_reader:00000000 cmp_mem_reader
C:\Users\Moi\AppData\Local\Temp\ccoR0KNf.s:231    .text.cmp_mem_reader:00000040 $d
C:\Users\Moi\AppData\Local\Temp\ccoR0KNf.s:236    .text.cmp_mem_access_init:00000000 $t
C:\Users\Moi\AppData\Local\Temp\ccoR0KNf.s:244    .text.cmp_mem_access_init:00000000 cmp_mem_access_init
C:\Users\Moi\AppData\Local\Temp\ccoR0KNf.s:303    .text.cmp_mem_access_init:0000002c $d
C:\Users\Moi\AppData\Local\Temp\ccoR0KNf.s:310    .text.cmp_mem_access_ro_init:00000000 $t
C:\Users\Moi\AppData\Local\Temp\ccoR0KNf.s:318    .text.cmp_mem_access_ro_init:00000000 cmp_mem_access_ro_init
C:\Users\Moi\AppData\Local\Temp\ccoR0KNf.s:377    .text.cmp_mem_access_ro_init:0000002c $d
C:\Users\Moi\AppData\Local\Temp\ccoR0KNf.s:384    .text.cmp_mem_access_get_pos:00000000 $t
C:\Users\Moi\AppData\Local\Temp\ccoR0KNf.s:392    .text.cmp_mem_access_get_pos:00000000 cmp_mem_access_get_pos
C:\Users\Moi\AppData\Local\Temp\ccoR0KNf.s:429    .text.cmp_mem_access_get_pos:00000020 $d
C:\Users\Moi\AppData\Local\Temp\ccoR0KNf.s:434    .text.cmp_mem_access_set_pos:00000000 $t
C:\Users\Moi\AppData\Local\Temp\ccoR0KNf.s:442    .text.cmp_mem_access_set_pos:00000000 cmp_mem_access_set_pos
C:\Users\Moi\AppData\Local\Temp\ccoR0KNf.s:478    .text.cmp_mem_access_set_pos:00000020 $d
C:\Users\Moi\AppData\Local\Temp\ccoR0KNf.s:483    .text.cmp_mem_access_get_ptr_at_pos:00000000 $t
C:\Users\Moi\AppData\Local\Temp\ccoR0KNf.s:491    .text.cmp_mem_access_get_ptr_at_pos:00000000 cmp_mem_access_get_ptr_at_pos
C:\Users\Moi\AppData\Local\Temp\ccoR0KNf.s:530    .text.cmp_mem_access_get_ptr_at_pos:00000020 $d
C:\Users\Moi\AppData\Local\Temp\ccoR0KNf.s:535    .text.cmp_mem_access_pos_is_valid:00000000 $t
C:\Users\Moi\AppData\Local\Temp\ccoR0KNf.s:543    .text.cmp_mem_access_pos_is_valid:00000000 cmp_mem_access_pos_is_valid
C:\Users\Moi\AppData\Local\Temp\ccoR0KNf.s:585    .text.cmp_mem_access_pos_is_valid:00000028 $d

UNDEFINED SYMBOLS
__stack_chk_fail
__stack_chk_guard
memcpy
cmp_init
