ARM GAS  C:\Users\Moi\AppData\Local\Temp\ccYEcQwT.s 			page 1


   1              		.cpu cortex-m4
   2              		.eabi_attribute 27, 1
   3              		.eabi_attribute 28, 1
   4              		.eabi_attribute 20, 1
   5              		.eabi_attribute 21, 1
   6              		.eabi_attribute 23, 3
   7              		.eabi_attribute 24, 1
   8              		.eabi_attribute 25, 1
   9              		.eabi_attribute 26, 1
  10              		.eabi_attribute 30, 6
  11              		.eabi_attribute 34, 1
  12              		.eabi_attribute 18, 4
  13              		.file	"e_acc.c"
  14              		.text
  15              	.Ltext0:
  16              		.cfi_sections	.debug_frame
  17              		.section	.bss.angle_mem,"aw",%nobits
  18              		.align	2
  19              		.type	angle_mem, %object
  20              		.size	angle_mem, 4
  21              	angle_mem:
  22 0000 00000000 		.space	4
  23              		.section	.text.e_get_acc,"ax",%progbits
  24              		.align	1
  25              		.p2align 4,,15
  26              		.global	e_get_acc
  27              		.syntax unified
  28              		.thumb
  29              		.thumb_func
  30              		.fpu fpv4-sp-d16
  31              		.type	e_get_acc, %function
  32              	e_get_acc:
  33              	.LFB256:
  34              		.file 1 "..//src/epuck1x/a_d/advance_ad_scan/e_acc.c"
  35              		.loc 1 17 0
  36              		.cfi_startproc
  37              		@ args = 0, pretend = 0, frame = 16
  38              		@ frame_needed = 0, uses_anonymous_args = 0
  39 0000 10B5     		push	{r4, lr}
  40              		.cfi_def_cfa_offset 8
  41              		.cfi_offset 4, -8
  42              		.cfi_offset 14, -4
  43 0002 84B0     		sub	sp, sp, #16
  44              		.cfi_def_cfa_offset 24
  45 0004 0190     		str	r0, [sp, #4]
  46              		.loc 1 17 0
  47 0006 274B     		ldr	r3, .L7
  48 0008 1B68     		ldr	r3, [r3]
  49 000a 0393     		str	r3, [sp, #12]
  50              		.loc 1 21 0
  51 000c 0023     		movs	r3, #0
  52 000e 0293     		str	r3, [sp, #8]
  53              		.loc 1 22 0
  54 0010 019B     		ldr	r3, [sp, #4]
  55 0012 002B     		cmp	r3, #0
  56 0014 0FD1     		bne	.L2
  57              		.loc 1 23 0
ARM GAS  C:\Users\Moi\AppData\Local\Temp\ccYEcQwT.s 			page 2


  58 0016 019B     		ldr	r3, [sp, #4]
  59 0018 DBB2     		uxtb	r3, r3
  60 001a 1846     		mov	r0, r3
  61 001c FFF7FEFF 		bl	get_acc
  62 0020 0346     		mov	r3, r0
  63 0022 1C46     		mov	r4, r3
  64 0024 019B     		ldr	r3, [sp, #4]
  65 0026 DBB2     		uxtb	r3, r3
  66 0028 1846     		mov	r0, r3
  67 002a FFF7FEFF 		bl	get_acc_offset
  68 002e 0346     		mov	r3, r0
  69 0030 E31A     		subs	r3, r4, r3
  70 0032 0293     		str	r3, [sp, #8]
  71 0034 23E0     		b	.L3
  72              	.L2:
  73              		.loc 1 24 0
  74 0036 019B     		ldr	r3, [sp, #4]
  75 0038 012B     		cmp	r3, #1
  76 003a 0FD1     		bne	.L4
  77              		.loc 1 25 0
  78 003c 019B     		ldr	r3, [sp, #4]
  79 003e DBB2     		uxtb	r3, r3
  80 0040 1846     		mov	r0, r3
  81 0042 FFF7FEFF 		bl	get_acc_offset
  82 0046 0346     		mov	r3, r0
  83 0048 1C46     		mov	r4, r3
  84 004a 019B     		ldr	r3, [sp, #4]
  85 004c DBB2     		uxtb	r3, r3
  86 004e 1846     		mov	r0, r3
  87 0050 FFF7FEFF 		bl	get_acc
  88 0054 0346     		mov	r3, r0
  89 0056 E31A     		subs	r3, r4, r3
  90 0058 0293     		str	r3, [sp, #8]
  91 005a 10E0     		b	.L3
  92              	.L4:
  93              		.loc 1 27 0
  94 005c 019B     		ldr	r3, [sp, #4]
  95 005e DBB2     		uxtb	r3, r3
  96 0060 1846     		mov	r0, r3
  97 0062 FFF7FEFF 		bl	get_acc
  98 0066 0346     		mov	r3, r0
  99 0068 1C46     		mov	r4, r3
 100 006a 019B     		ldr	r3, [sp, #4]
 101 006c DBB2     		uxtb	r3, r3
 102 006e 1846     		mov	r0, r3
 103 0070 FFF7FEFF 		bl	get_acc_offset
 104 0074 0346     		mov	r3, r0
 105 0076 E31A     		subs	r3, r4, r3
 106 0078 A3F58043 		sub	r3, r3, #16384
 107 007c 0293     		str	r3, [sp, #8]
 108              	.L3:
 109              		.loc 1 29 0
 110 007e 029B     		ldr	r3, [sp, #8]
 111 0080 1A11     		asrs	r2, r3, #4
 112 0082 029B     		ldr	r3, [sp, #8]
 113 0084 9B11     		asrs	r3, r3, #6
 114 0086 D31A     		subs	r3, r2, r3
ARM GAS  C:\Users\Moi\AppData\Local\Temp\ccYEcQwT.s 			page 3


 115 0088 0293     		str	r3, [sp, #8]
 116              		.loc 1 30 0
 117 008a 029B     		ldr	r3, [sp, #8]
 118 008c 5B42     		negs	r3, r3
 119              		.loc 1 32 0
 120 008e 1846     		mov	r0, r3
 121 0090 044B     		ldr	r3, .L7
 122 0092 039A     		ldr	r2, [sp, #12]
 123 0094 1B68     		ldr	r3, [r3]
 124 0096 9A42     		cmp	r2, r3
 125 0098 01D0     		beq	.L6
 126 009a FFF7FEFF 		bl	__stack_chk_fail
 127              	.L6:
 128 009e 04B0     		add	sp, sp, #16
 129              		.cfi_def_cfa_offset 8
 130              		@ sp needed
 131 00a0 10BD     		pop	{r4, pc}
 132              	.L8:
 133 00a2 00BF     		.align	2
 134              	.L7:
 135 00a4 00000000 		.word	__stack_chk_guard
 136              		.cfi_endproc
 137              	.LFE256:
 138              		.size	e_get_acc, .-e_get_acc
 139              		.section	.text.e_get_acc_filtered,"ax",%progbits
 140              		.align	1
 141              		.p2align 4,,15
 142              		.global	e_get_acc_filtered
 143              		.syntax unified
 144              		.thumb
 145              		.thumb_func
 146              		.fpu fpv4-sp-d16
 147              		.type	e_get_acc_filtered, %function
 148              	e_get_acc_filtered:
 149              	.LFB257:
 150              		.loc 1 35 0
 151              		.cfi_startproc
 152              		@ args = 0, pretend = 0, frame = 16
 153              		@ frame_needed = 0, uses_anonymous_args = 0
 154 0000 00B5     		push	{lr}
 155              		.cfi_def_cfa_offset 4
 156              		.cfi_offset 14, -4
 157 0002 85B0     		sub	sp, sp, #20
 158              		.cfi_def_cfa_offset 24
 159 0004 0190     		str	r0, [sp, #4]
 160 0006 0091     		str	r1, [sp]
 161              		.loc 1 35 0
 162 0008 204B     		ldr	r3, .L15
 163 000a 1B68     		ldr	r3, [r3]
 164 000c 0393     		str	r3, [sp, #12]
 165              		.loc 1 40 0
 166 000e 0023     		movs	r3, #0
 167 0010 0293     		str	r3, [sp, #8]
 168              		.loc 1 41 0
 169 0012 019B     		ldr	r3, [sp, #4]
 170 0014 002B     		cmp	r3, #0
 171 0016 0BD1     		bne	.L10
ARM GAS  C:\Users\Moi\AppData\Local\Temp\ccYEcQwT.s 			page 4


 172              		.loc 1 42 0
 173 0018 019B     		ldr	r3, [sp, #4]
 174 001a DBB2     		uxtb	r3, r3
 175 001c 009A     		ldr	r2, [sp]
 176 001e D2B2     		uxtb	r2, r2
 177 0020 1146     		mov	r1, r2
 178 0022 1846     		mov	r0, r3
 179 0024 FFF7FEFF 		bl	get_acc_filtered
 180 0028 0346     		mov	r3, r0
 181 002a 5B42     		negs	r3, r3
 182 002c 0293     		str	r3, [sp, #8]
 183 002e 18E0     		b	.L11
 184              	.L10:
 185              		.loc 1 43 0
 186 0030 019B     		ldr	r3, [sp, #4]
 187 0032 012B     		cmp	r3, #1
 188 0034 0AD1     		bne	.L12
 189              		.loc 1 44 0
 190 0036 019B     		ldr	r3, [sp, #4]
 191 0038 DBB2     		uxtb	r3, r3
 192 003a 009A     		ldr	r2, [sp]
 193 003c D2B2     		uxtb	r2, r2
 194 003e 1146     		mov	r1, r2
 195 0040 1846     		mov	r0, r3
 196 0042 FFF7FEFF 		bl	get_acc_filtered
 197 0046 0346     		mov	r3, r0
 198 0048 0293     		str	r3, [sp, #8]
 199 004a 0AE0     		b	.L11
 200              	.L12:
 201              		.loc 1 46 0
 202 004c 019B     		ldr	r3, [sp, #4]
 203 004e DBB2     		uxtb	r3, r3
 204 0050 009A     		ldr	r2, [sp]
 205 0052 D2B2     		uxtb	r2, r2
 206 0054 1146     		mov	r1, r2
 207 0056 1846     		mov	r0, r3
 208 0058 FFF7FEFF 		bl	get_acc_filtered
 209 005c 0346     		mov	r3, r0
 210 005e 5B42     		negs	r3, r3
 211 0060 0293     		str	r3, [sp, #8]
 212              	.L11:
 213              		.loc 1 48 0
 214 0062 029B     		ldr	r3, [sp, #8]
 215 0064 1A11     		asrs	r2, r3, #4
 216 0066 029B     		ldr	r3, [sp, #8]
 217 0068 9B11     		asrs	r3, r3, #6
 218 006a D31A     		subs	r3, r2, r3
 219 006c 03F50063 		add	r3, r3, #2048
 220 0070 0293     		str	r3, [sp, #8]
 221              		.loc 1 49 0
 222 0072 029B     		ldr	r3, [sp, #8]
 223              		.loc 1 50 0
 224 0074 1846     		mov	r0, r3
 225 0076 054B     		ldr	r3, .L15
 226 0078 039A     		ldr	r2, [sp, #12]
 227 007a 1B68     		ldr	r3, [r3]
 228 007c 9A42     		cmp	r2, r3
ARM GAS  C:\Users\Moi\AppData\Local\Temp\ccYEcQwT.s 			page 5


 229 007e 01D0     		beq	.L14
 230 0080 FFF7FEFF 		bl	__stack_chk_fail
 231              	.L14:
 232 0084 05B0     		add	sp, sp, #20
 233              		.cfi_def_cfa_offset 4
 234              		@ sp needed
 235 0086 5DF804FB 		ldr	pc, [sp], #4
 236              	.L16:
 237 008a 00BF     		.align	2
 238              	.L15:
 239 008c 00000000 		.word	__stack_chk_guard
 240              		.cfi_endproc
 241              	.LFE257:
 242              		.size	e_get_acc_filtered, .-e_get_acc_filtered
 243              		.section	.text.e_acc_calibr,"ax",%progbits
 244              		.align	1
 245              		.p2align 4,,15
 246              		.global	e_acc_calibr
 247              		.syntax unified
 248              		.thumb
 249              		.thumb_func
 250              		.fpu fpv4-sp-d16
 251              		.type	e_acc_calibr, %function
 252              	e_acc_calibr:
 253              	.LFB258:
 254              		.loc 1 53 0
 255              		.cfi_startproc
 256              		@ args = 0, pretend = 0, frame = 8
 257              		@ frame_needed = 0, uses_anonymous_args = 0
 258 0000 00B5     		push	{lr}
 259              		.cfi_def_cfa_offset 4
 260              		.cfi_offset 14, -4
 261 0002 83B0     		sub	sp, sp, #12
 262              		.cfi_def_cfa_offset 16
 263              		.loc 1 53 0
 264 0004 074B     		ldr	r3, .L19
 265 0006 1B68     		ldr	r3, [r3]
 266 0008 0193     		str	r3, [sp, #4]
 267              		.loc 1 54 0
 268 000a FFF7FEFF 		bl	calibrate_acc
 269              		.loc 1 55 0
 270 000e 00BF     		nop
 271 0010 044B     		ldr	r3, .L19
 272 0012 019A     		ldr	r2, [sp, #4]
 273 0014 1B68     		ldr	r3, [r3]
 274 0016 9A42     		cmp	r2, r3
 275 0018 01D0     		beq	.L18
 276 001a FFF7FEFF 		bl	__stack_chk_fail
 277              	.L18:
 278 001e 03B0     		add	sp, sp, #12
 279              		.cfi_def_cfa_offset 4
 280              		@ sp needed
 281 0020 5DF804FB 		ldr	pc, [sp], #4
 282              	.L20:
 283              		.align	2
 284              	.L19:
 285 0024 00000000 		.word	__stack_chk_guard
ARM GAS  C:\Users\Moi\AppData\Local\Temp\ccYEcQwT.s 			page 6


 286              		.cfi_endproc
 287              	.LFE258:
 288              		.size	e_acc_calibr, .-e_acc_calibr
 289              		.section	.text.e_read_acc_spheric,"ax",%progbits
 290              		.align	1
 291              		.p2align 4,,15
 292              		.global	e_read_acc_spheric
 293              		.syntax unified
 294              		.thumb
 295              		.thumb_func
 296              		.fpu fpv4-sp-d16
 297              		.type	e_read_acc_spheric, %function
 298              	e_read_acc_spheric:
 299              	.LFB259:
 300              		.loc 1 58 0
 301              		.cfi_startproc
 302              		@ args = 0, pretend = 0, frame = 56
 303              		@ frame_needed = 0, uses_anonymous_args = 0
 304 0000 00B5     		push	{lr}
 305              		.cfi_def_cfa_offset 4
 306              		.cfi_offset 14, -4
 307 0002 2DED028B 		vpush.64	{d8}
 308              		.cfi_def_cfa_offset 12
 309              		.cfi_offset 80, -12
 310              		.cfi_offset 81, -8
 311 0006 8FB0     		sub	sp, sp, #60
 312              		.cfi_def_cfa_offset 72
 313              		.loc 1 58 0
 314 0008 524B     		ldr	r3, .L29
 315 000a 1B68     		ldr	r3, [r3]
 316 000c 0D93     		str	r3, [sp, #52]
 317              		.loc 1 61 0
 318 000e 0020     		movs	r0, #0
 319 0010 FFF7FEFF 		bl	e_get_acc
 320 0014 0490     		str	r0, [sp, #16]
 321              		.loc 1 62 0
 322 0016 0120     		movs	r0, #1
 323 0018 FFF7FEFF 		bl	e_get_acc
 324 001c 0590     		str	r0, [sp, #20]
 325              		.loc 1 63 0
 326 001e 0220     		movs	r0, #2
 327 0020 FFF7FEFF 		bl	e_get_acc
 328 0024 0690     		str	r0, [sp, #24]
 329              		.loc 1 66 0
 330 0026 049B     		ldr	r3, [sp, #16]
 331 0028 049A     		ldr	r2, [sp, #16]
 332 002a 02FB03F2 		mul	r2, r2, r3
 333 002e 059B     		ldr	r3, [sp, #20]
 334 0030 0599     		ldr	r1, [sp, #20]
 335 0032 01FB03F3 		mul	r3, r1, r3
 336 0036 1A44     		add	r2, r2, r3
 337 0038 069B     		ldr	r3, [sp, #24]
 338 003a 0699     		ldr	r1, [sp, #24]
 339 003c 01FB03F3 		mul	r3, r1, r3
 340 0040 1344     		add	r3, r3, r2
 341 0042 07EE903A 		vmov	s15, r3	@ int
 342 0046 F8EEE77A 		vcvt.f32.s32	s15, s15
ARM GAS  C:\Users\Moi\AppData\Local\Temp\ccYEcQwT.s 			page 7


 343 004a B0EE670A 		vmov.f32	s0, s15
 344 004e FFF7FEFF 		bl	sqrtf
 345 0052 F0EE407A 		vmov.f32	s15, s0
 346 0056 CDED077A 		vstr.32	s15, [sp, #28]
 347              		.loc 1 67 0
 348 005a 069B     		ldr	r3, [sp, #24]
 349 005c 07EE903A 		vmov	s15, r3	@ int
 350 0060 B8EEE78A 		vcvt.f32.s32	s16, s15
 351 0064 049B     		ldr	r3, [sp, #16]
 352 0066 049A     		ldr	r2, [sp, #16]
 353 0068 02FB03F2 		mul	r2, r2, r3
 354 006c 059B     		ldr	r3, [sp, #20]
 355 006e 0599     		ldr	r1, [sp, #20]
 356 0070 01FB03F3 		mul	r3, r1, r3
 357 0074 1344     		add	r3, r3, r2
 358 0076 07EE903A 		vmov	s15, r3	@ int
 359 007a F8EEE77A 		vcvt.f32.s32	s15, s15
 360 007e B0EE670A 		vmov.f32	s0, s15
 361 0082 FFF7FEFF 		bl	sqrtf
 362 0086 F0EE407A 		vmov.f32	s15, s0
 363 008a F0EE670A 		vmov.f32	s1, s15
 364 008e B0EE480A 		vmov.f32	s0, s16
 365 0092 FFF7FEFF 		bl	atan2f
 366 0096 B0EE407A 		vmov.f32	s14, s0
 367 009a DFED2F7A 		vldr.32	s15, .L29+4
 368 009e 67EE277A 		vmul.f32	s15, s14, s15
 369 00a2 9FED2E7A 		vldr.32	s14, .L29+8
 370 00a6 77EE677A 		vsub.f32	s15, s14, s15
 371 00aa CDED097A 		vstr.32	s15, [sp, #36]
 372              		.loc 1 68 0
 373 00ae DDED097A 		vldr.32	s15, [sp, #36]
 374 00b2 B1EE047A 		vmov.f32	s14, #5.0e+0
 375 00b6 F4EEC77A 		vcmpe.f32	s15, s14
 376 00ba F1EE10FA 		vmrs	APSR_nzcv, FPSCR
 377 00be 08D4     		bmi	.L22
 378              		.loc 1 68 0 is_stmt 0 discriminator 1
 379 00c0 DDED097A 		vldr.32	s15, [sp, #36]
 380 00c4 9FED267A 		vldr.32	s14, .L29+12
 381 00c8 F4EEC77A 		vcmpe.f32	s15, s14
 382 00cc F1EE10FA 		vmrs	APSR_nzcv, FPSCR
 383 00d0 03DD     		ble	.L28
 384              	.L22:
 385              		.loc 1 69 0 is_stmt 1
 386 00d2 4FF00003 		mov	r3, #0
 387 00d6 0893     		str	r3, [sp, #32]	@ float
 388 00d8 1BE0     		b	.L25
 389              	.L28:
 390              		.loc 1 71 0
 391 00da 049B     		ldr	r3, [sp, #16]
 392 00dc 07EE903A 		vmov	s15, r3	@ int
 393 00e0 F8EEE77A 		vcvt.f32.s32	s15, s15
 394 00e4 059B     		ldr	r3, [sp, #20]
 395 00e6 07EE103A 		vmov	s14, r3	@ int
 396 00ea B8EEC77A 		vcvt.f32.s32	s14, s14
 397 00ee F0EE470A 		vmov.f32	s1, s14
 398 00f2 B0EE670A 		vmov.f32	s0, s15
 399 00f6 FFF7FEFF 		bl	atan2f
ARM GAS  C:\Users\Moi\AppData\Local\Temp\ccYEcQwT.s 			page 8


 400 00fa B0EE407A 		vmov.f32	s14, s0
 401 00fe DFED167A 		vldr.32	s15, .L29+4
 402 0102 67EE277A 		vmul.f32	s15, s14, s15
 403 0106 9FED177A 		vldr.32	s14, .L29+16
 404 010a 77EE877A 		vadd.f32	s15, s15, s14
 405 010e CDED087A 		vstr.32	s15, [sp, #32]
 406              	.L25:
 407              		.loc 1 73 0
 408 0112 0AAB     		add	r3, sp, #40
 409 0114 07AA     		add	r2, sp, #28
 410 0116 07CA     		ldm	r2, {r0, r1, r2}
 411 0118 83E80700 		stm	r3, {r0, r1, r2}
 412 011c 0A99     		ldr	r1, [sp, #40]	@ float
 413 011e 0B9A     		ldr	r2, [sp, #44]	@ float
 414 0120 0C9B     		ldr	r3, [sp, #48]	@ float
 415 0122 06EE901A 		vmov	s13, r1
 416 0126 07EE102A 		vmov	s14, r2
 417 012a 07EE903A 		vmov	s15, r3
 418              		.loc 1 74 0
 419 012e B0EE660A 		vmov.f32	s0, s13
 420 0132 F0EE470A 		vmov.f32	s1, s14
 421 0136 B0EE671A 		vmov.f32	s2, s15
 422 013a 064B     		ldr	r3, .L29
 423 013c 0D9A     		ldr	r2, [sp, #52]
 424 013e 1B68     		ldr	r3, [r3]
 425 0140 9A42     		cmp	r2, r3
 426 0142 01D0     		beq	.L27
 427 0144 FFF7FEFF 		bl	__stack_chk_fail
 428              	.L27:
 429 0148 0FB0     		add	sp, sp, #60
 430              		.cfi_def_cfa_offset 12
 431              		@ sp needed
 432 014a BDEC028B 		vldm	sp!, {d8}
 433              		.cfi_restore 80
 434              		.cfi_restore 81
 435              		.cfi_def_cfa_offset 4
 436 014e 5DF804FB 		ldr	pc, [sp], #4
 437              	.L30:
 438 0152 00BF     		.align	2
 439              	.L29:
 440 0154 00000000 		.word	__stack_chk_guard
 441 0158 9C306542 		.word	1113927836
 442 015c 0000B442 		.word	1119092736
 443 0160 00002043 		.word	1126170624
 444 0164 00003443 		.word	1127481344
 445              		.cfi_endproc
 446              	.LFE259:
 447              		.size	e_read_acc_spheric, .-e_read_acc_spheric
 448              		.section	.text.e_read_inclination,"ax",%progbits
 449              		.align	1
 450              		.p2align 4,,15
 451              		.global	e_read_inclination
 452              		.syntax unified
 453              		.thumb
 454              		.thumb_func
 455              		.fpu fpv4-sp-d16
 456              		.type	e_read_inclination, %function
ARM GAS  C:\Users\Moi\AppData\Local\Temp\ccYEcQwT.s 			page 9


 457              	e_read_inclination:
 458              	.LFB260:
 459              		.loc 1 77 0
 460              		.cfi_startproc
 461              		@ args = 0, pretend = 0, frame = 32
 462              		@ frame_needed = 0, uses_anonymous_args = 0
 463 0000 00B5     		push	{lr}
 464              		.cfi_def_cfa_offset 4
 465              		.cfi_offset 14, -4
 466 0002 2DED028B 		vpush.64	{d8}
 467              		.cfi_def_cfa_offset 12
 468              		.cfi_offset 80, -12
 469              		.cfi_offset 81, -8
 470 0006 89B0     		sub	sp, sp, #36
 471              		.cfi_def_cfa_offset 48
 472              		.loc 1 77 0
 473 0008 244B     		ldr	r3, .L34
 474 000a 1B68     		ldr	r3, [r3]
 475 000c 0793     		str	r3, [sp, #28]
 476              		.loc 1 80 0
 477 000e 0020     		movs	r0, #0
 478 0010 FFF7FEFF 		bl	e_get_acc
 479 0014 0190     		str	r0, [sp, #4]
 480              		.loc 1 81 0
 481 0016 0120     		movs	r0, #1
 482 0018 FFF7FEFF 		bl	e_get_acc
 483 001c 0290     		str	r0, [sp, #8]
 484              		.loc 1 82 0
 485 001e 0220     		movs	r0, #2
 486 0020 FFF7FEFF 		bl	e_get_acc
 487 0024 0390     		str	r0, [sp, #12]
 488              		.loc 1 84 0
 489 0026 039B     		ldr	r3, [sp, #12]
 490 0028 07EE903A 		vmov	s15, r3	@ int
 491 002c B8EEE78A 		vcvt.f32.s32	s16, s15
 492 0030 019B     		ldr	r3, [sp, #4]
 493 0032 019A     		ldr	r2, [sp, #4]
 494 0034 02FB03F2 		mul	r2, r2, r3
 495 0038 029B     		ldr	r3, [sp, #8]
 496 003a 0299     		ldr	r1, [sp, #8]
 497 003c 01FB03F3 		mul	r3, r1, r3
 498 0040 1344     		add	r3, r3, r2
 499 0042 07EE903A 		vmov	s15, r3	@ int
 500 0046 F8EEE77A 		vcvt.f32.s32	s15, s15
 501 004a B0EE670A 		vmov.f32	s0, s15
 502 004e FFF7FEFF 		bl	sqrtf
 503 0052 F0EE407A 		vmov.f32	s15, s0
 504 0056 F0EE670A 		vmov.f32	s1, s15
 505 005a B0EE480A 		vmov.f32	s0, s16
 506 005e FFF7FEFF 		bl	atan2f
 507 0062 B0EE407A 		vmov.f32	s14, s0
 508 0066 DFED0E7A 		vldr.32	s15, .L34+4
 509 006a 67EE277A 		vmul.f32	s15, s14, s15
 510 006e 9FED0D7A 		vldr.32	s14, .L34+8
 511 0072 77EE677A 		vsub.f32	s15, s14, s15
 512 0076 CDED067A 		vstr.32	s15, [sp, #24]
 513              		.loc 1 85 0
ARM GAS  C:\Users\Moi\AppData\Local\Temp\ccYEcQwT.s 			page 10


 514 007a 069B     		ldr	r3, [sp, #24]	@ float
 515 007c 07EE903A 		vmov	s15, r3
 516              		.loc 1 86 0
 517 0080 B0EE670A 		vmov.f32	s0, s15
 518 0084 054B     		ldr	r3, .L34
 519 0086 079A     		ldr	r2, [sp, #28]
 520 0088 1B68     		ldr	r3, [r3]
 521 008a 9A42     		cmp	r2, r3
 522 008c 01D0     		beq	.L33
 523 008e FFF7FEFF 		bl	__stack_chk_fail
 524              	.L33:
 525 0092 09B0     		add	sp, sp, #36
 526              		.cfi_def_cfa_offset 12
 527              		@ sp needed
 528 0094 BDEC028B 		vldm	sp!, {d8}
 529              		.cfi_restore 80
 530              		.cfi_restore 81
 531              		.cfi_def_cfa_offset 4
 532 0098 5DF804FB 		ldr	pc, [sp], #4
 533              	.L35:
 534              		.align	2
 535              	.L34:
 536 009c 00000000 		.word	__stack_chk_guard
 537 00a0 9C306542 		.word	1113927836
 538 00a4 0000B442 		.word	1119092736
 539              		.cfi_endproc
 540              	.LFE260:
 541              		.size	e_read_inclination, .-e_read_inclination
 542              		.section	.text.e_read_orientation,"ax",%progbits
 543              		.align	1
 544              		.p2align 4,,15
 545              		.global	e_read_orientation
 546              		.syntax unified
 547              		.thumb
 548              		.thumb_func
 549              		.fpu fpv4-sp-d16
 550              		.type	e_read_orientation, %function
 551              	e_read_orientation:
 552              	.LFB261:
 553              		.loc 1 89 0
 554              		.cfi_startproc
 555              		@ args = 0, pretend = 0, frame = 32
 556              		@ frame_needed = 0, uses_anonymous_args = 0
 557 0000 00B5     		push	{lr}
 558              		.cfi_def_cfa_offset 4
 559              		.cfi_offset 14, -4
 560 0002 2DED028B 		vpush.64	{d8}
 561              		.cfi_def_cfa_offset 12
 562              		.cfi_offset 80, -12
 563              		.cfi_offset 81, -8
 564 0006 89B0     		sub	sp, sp, #36
 565              		.cfi_def_cfa_offset 48
 566              		.loc 1 89 0
 567 0008 3D4B     		ldr	r3, .L44
 568 000a 1B68     		ldr	r3, [r3]
 569 000c 0793     		str	r3, [sp, #28]
 570              		.loc 1 92 0
ARM GAS  C:\Users\Moi\AppData\Local\Temp\ccYEcQwT.s 			page 11


 571 000e 0020     		movs	r0, #0
 572 0010 FFF7FEFF 		bl	e_get_acc
 573 0014 0190     		str	r0, [sp, #4]
 574              		.loc 1 93 0
 575 0016 0120     		movs	r0, #1
 576 0018 FFF7FEFF 		bl	e_get_acc
 577 001c 0290     		str	r0, [sp, #8]
 578              		.loc 1 94 0
 579 001e 0220     		movs	r0, #2
 580 0020 FFF7FEFF 		bl	e_get_acc
 581 0024 0390     		str	r0, [sp, #12]
 582              		.loc 1 96 0
 583 0026 039B     		ldr	r3, [sp, #12]
 584 0028 07EE903A 		vmov	s15, r3	@ int
 585 002c B8EEE78A 		vcvt.f32.s32	s16, s15
 586 0030 019B     		ldr	r3, [sp, #4]
 587 0032 019A     		ldr	r2, [sp, #4]
 588 0034 02FB03F2 		mul	r2, r2, r3
 589 0038 029B     		ldr	r3, [sp, #8]
 590 003a 0299     		ldr	r1, [sp, #8]
 591 003c 01FB03F3 		mul	r3, r1, r3
 592 0040 1344     		add	r3, r3, r2
 593 0042 07EE903A 		vmov	s15, r3	@ int
 594 0046 F8EEE77A 		vcvt.f32.s32	s15, s15
 595 004a B0EE670A 		vmov.f32	s0, s15
 596 004e FFF7FEFF 		bl	sqrtf
 597 0052 F0EE407A 		vmov.f32	s15, s0
 598 0056 F0EE670A 		vmov.f32	s1, s15
 599 005a B0EE480A 		vmov.f32	s0, s16
 600 005e FFF7FEFF 		bl	atan2f
 601 0062 B0EE407A 		vmov.f32	s14, s0
 602 0066 DFED277A 		vldr.32	s15, .L44+4
 603 006a 67EE277A 		vmul.f32	s15, s14, s15
 604 006e 9FED267A 		vldr.32	s14, .L44+8
 605 0072 77EE677A 		vsub.f32	s15, s14, s15
 606 0076 CDED067A 		vstr.32	s15, [sp, #24]
 607              		.loc 1 97 0
 608 007a DDED067A 		vldr.32	s15, [sp, #24]
 609 007e B1EE047A 		vmov.f32	s14, #5.0e+0
 610 0082 F4EEC77A 		vcmpe.f32	s15, s14
 611 0086 F1EE10FA 		vmrs	APSR_nzcv, FPSCR
 612 008a 08D4     		bmi	.L37
 613              		.loc 1 97 0 is_stmt 0 discriminator 1
 614 008c DDED067A 		vldr.32	s15, [sp, #24]
 615 0090 9FED1E7A 		vldr.32	s14, .L44+12
 616 0094 F4EEC77A 		vcmpe.f32	s15, s14
 617 0098 F1EE10FA 		vmrs	APSR_nzcv, FPSCR
 618 009c 03DD     		ble	.L43
 619              	.L37:
 620              		.loc 1 98 0 is_stmt 1
 621 009e 4FF00003 		mov	r3, #0
 622 00a2 0593     		str	r3, [sp, #20]	@ float
 623 00a4 1BE0     		b	.L40
 624              	.L43:
 625              		.loc 1 100 0
 626 00a6 019B     		ldr	r3, [sp, #4]
 627 00a8 07EE903A 		vmov	s15, r3	@ int
ARM GAS  C:\Users\Moi\AppData\Local\Temp\ccYEcQwT.s 			page 12


 628 00ac F8EEE77A 		vcvt.f32.s32	s15, s15
 629 00b0 029B     		ldr	r3, [sp, #8]
 630 00b2 07EE103A 		vmov	s14, r3	@ int
 631 00b6 B8EEC77A 		vcvt.f32.s32	s14, s14
 632 00ba F0EE470A 		vmov.f32	s1, s14
 633 00be B0EE670A 		vmov.f32	s0, s15
 634 00c2 FFF7FEFF 		bl	atan2f
 635 00c6 B0EE407A 		vmov.f32	s14, s0
 636 00ca DFED0E7A 		vldr.32	s15, .L44+4
 637 00ce 67EE277A 		vmul.f32	s15, s14, s15
 638 00d2 9FED0F7A 		vldr.32	s14, .L44+16
 639 00d6 77EE877A 		vadd.f32	s15, s15, s14
 640 00da CDED057A 		vstr.32	s15, [sp, #20]
 641              	.L40:
 642              		.loc 1 102 0
 643 00de 059B     		ldr	r3, [sp, #20]	@ float
 644 00e0 07EE903A 		vmov	s15, r3
 645              		.loc 1 103 0
 646 00e4 B0EE670A 		vmov.f32	s0, s15
 647 00e8 054B     		ldr	r3, .L44
 648 00ea 079A     		ldr	r2, [sp, #28]
 649 00ec 1B68     		ldr	r3, [r3]
 650 00ee 9A42     		cmp	r2, r3
 651 00f0 01D0     		beq	.L42
 652 00f2 FFF7FEFF 		bl	__stack_chk_fail
 653              	.L42:
 654 00f6 09B0     		add	sp, sp, #36
 655              		.cfi_def_cfa_offset 12
 656              		@ sp needed
 657 00f8 BDEC028B 		vldm	sp!, {d8}
 658              		.cfi_restore 80
 659              		.cfi_restore 81
 660              		.cfi_def_cfa_offset 4
 661 00fc 5DF804FB 		ldr	pc, [sp], #4
 662              	.L45:
 663              		.align	2
 664              	.L44:
 665 0100 00000000 		.word	__stack_chk_guard
 666 0104 9C306542 		.word	1113927836
 667 0108 0000B442 		.word	1119092736
 668 010c 00002043 		.word	1126170624
 669 0110 00003443 		.word	1127481344
 670              		.cfi_endproc
 671              	.LFE261:
 672              		.size	e_read_orientation, .-e_read_orientation
 673              		.section	.text.e_read_acc,"ax",%progbits
 674              		.align	1
 675              		.p2align 4,,15
 676              		.global	e_read_acc
 677              		.syntax unified
 678              		.thumb
 679              		.thumb_func
 680              		.fpu fpv4-sp-d16
 681              		.type	e_read_acc, %function
 682              	e_read_acc:
 683              	.LFB262:
 684              		.loc 1 106 0
ARM GAS  C:\Users\Moi\AppData\Local\Temp\ccYEcQwT.s 			page 13


 685              		.cfi_startproc
 686              		@ args = 0, pretend = 0, frame = 32
 687              		@ frame_needed = 0, uses_anonymous_args = 0
 688 0000 00B5     		push	{lr}
 689              		.cfi_def_cfa_offset 4
 690              		.cfi_offset 14, -4
 691 0002 89B0     		sub	sp, sp, #36
 692              		.cfi_def_cfa_offset 40
 693              		.loc 1 106 0
 694 0004 1B4B     		ldr	r3, .L49
 695 0006 1B68     		ldr	r3, [r3]
 696 0008 0793     		str	r3, [sp, #28]
 697              		.loc 1 109 0
 698 000a 0020     		movs	r0, #0
 699 000c FFF7FEFF 		bl	e_get_acc
 700 0010 0190     		str	r0, [sp, #4]
 701              		.loc 1 110 0
 702 0012 0120     		movs	r0, #1
 703 0014 FFF7FEFF 		bl	e_get_acc
 704 0018 0290     		str	r0, [sp, #8]
 705              		.loc 1 111 0
 706 001a 0220     		movs	r0, #2
 707 001c FFF7FEFF 		bl	e_get_acc
 708 0020 0390     		str	r0, [sp, #12]
 709              		.loc 1 113 0
 710 0022 019B     		ldr	r3, [sp, #4]
 711 0024 019A     		ldr	r2, [sp, #4]
 712 0026 02FB03F2 		mul	r2, r2, r3
 713 002a 029B     		ldr	r3, [sp, #8]
 714 002c 0299     		ldr	r1, [sp, #8]
 715 002e 01FB03F3 		mul	r3, r1, r3
 716 0032 1A44     		add	r2, r2, r3
 717 0034 039B     		ldr	r3, [sp, #12]
 718 0036 0399     		ldr	r1, [sp, #12]
 719 0038 01FB03F3 		mul	r3, r1, r3
 720 003c 1344     		add	r3, r3, r2
 721 003e 07EE903A 		vmov	s15, r3	@ int
 722 0042 F8EEE77A 		vcvt.f32.s32	s15, s15
 723 0046 B0EE670A 		vmov.f32	s0, s15
 724 004a FFF7FEFF 		bl	sqrtf
 725 004e F0EE407A 		vmov.f32	s15, s0
 726 0052 CDED047A 		vstr.32	s15, [sp, #16]
 727              		.loc 1 114 0
 728 0056 049B     		ldr	r3, [sp, #16]	@ float
 729 0058 07EE903A 		vmov	s15, r3
 730              		.loc 1 115 0
 731 005c B0EE670A 		vmov.f32	s0, s15
 732 0060 044B     		ldr	r3, .L49
 733 0062 079A     		ldr	r2, [sp, #28]
 734 0064 1B68     		ldr	r3, [r3]
 735 0066 9A42     		cmp	r2, r3
 736 0068 01D0     		beq	.L48
 737 006a FFF7FEFF 		bl	__stack_chk_fail
 738              	.L48:
 739 006e 09B0     		add	sp, sp, #36
 740              		.cfi_def_cfa_offset 4
 741              		@ sp needed
ARM GAS  C:\Users\Moi\AppData\Local\Temp\ccYEcQwT.s 			page 14


 742 0070 5DF804FB 		ldr	pc, [sp], #4
 743              	.L50:
 744              		.align	2
 745              	.L49:
 746 0074 00000000 		.word	__stack_chk_guard
 747              		.cfi_endproc
 748              	.LFE262:
 749              		.size	e_read_acc, .-e_read_acc
 750              		.section	.text.e_read_acc_xyz,"ax",%progbits
 751              		.align	1
 752              		.p2align 4,,15
 753              		.global	e_read_acc_xyz
 754              		.syntax unified
 755              		.thumb
 756              		.thumb_func
 757              		.fpu fpv4-sp-d16
 758              		.type	e_read_acc_xyz, %function
 759              	e_read_acc_xyz:
 760              	.LFB263:
 761              		.loc 1 118 0
 762              		.cfi_startproc
 763              		@ args = 0, pretend = 0, frame = 24
 764              		@ frame_needed = 0, uses_anonymous_args = 0
 765 0000 10B5     		push	{r4, lr}
 766              		.cfi_def_cfa_offset 8
 767              		.cfi_offset 4, -8
 768              		.cfi_offset 14, -4
 769 0002 86B0     		sub	sp, sp, #24
 770              		.cfi_def_cfa_offset 32
 771 0004 0190     		str	r0, [sp, #4]
 772              		.loc 1 118 0
 773 0006 114B     		ldr	r3, .L54
 774 0008 1B68     		ldr	r3, [r3]
 775 000a 0593     		str	r3, [sp, #20]
 776              		.loc 1 120 0
 777 000c 0020     		movs	r0, #0
 778 000e FFF7FEFF 		bl	e_get_acc
 779 0012 0346     		mov	r3, r0
 780 0014 0293     		str	r3, [sp, #8]
 781              		.loc 1 121 0
 782 0016 0120     		movs	r0, #1
 783 0018 FFF7FEFF 		bl	e_get_acc
 784 001c 0346     		mov	r3, r0
 785 001e 0393     		str	r3, [sp, #12]
 786              		.loc 1 122 0
 787 0020 0220     		movs	r0, #2
 788 0022 FFF7FEFF 		bl	e_get_acc
 789 0026 0346     		mov	r3, r0
 790 0028 0493     		str	r3, [sp, #16]
 791              		.loc 1 123 0
 792 002a 019B     		ldr	r3, [sp, #4]
 793 002c 1C46     		mov	r4, r3
 794 002e 02AB     		add	r3, sp, #8
 795 0030 93E80700 		ldm	r3, {r0, r1, r2}
 796 0034 84E80700 		stm	r4, {r0, r1, r2}
 797              		.loc 1 124 0
 798 0038 0198     		ldr	r0, [sp, #4]
ARM GAS  C:\Users\Moi\AppData\Local\Temp\ccYEcQwT.s 			page 15


 799 003a 044B     		ldr	r3, .L54
 800 003c 059A     		ldr	r2, [sp, #20]
 801 003e 1B68     		ldr	r3, [r3]
 802 0040 9A42     		cmp	r2, r3
 803 0042 01D0     		beq	.L53
 804 0044 FFF7FEFF 		bl	__stack_chk_fail
 805              	.L53:
 806 0048 06B0     		add	sp, sp, #24
 807              		.cfi_def_cfa_offset 8
 808              		@ sp needed
 809 004a 10BD     		pop	{r4, pc}
 810              	.L55:
 811              		.align	2
 812              	.L54:
 813 004c 00000000 		.word	__stack_chk_guard
 814              		.cfi_endproc
 815              	.LFE263:
 816              		.size	e_read_acc_xyz, .-e_read_acc_xyz
 817              		.section	.text.e_read_acc_x,"ax",%progbits
 818              		.align	1
 819              		.p2align 4,,15
 820              		.global	e_read_acc_x
 821              		.syntax unified
 822              		.thumb
 823              		.thumb_func
 824              		.fpu fpv4-sp-d16
 825              		.type	e_read_acc_x, %function
 826              	e_read_acc_x:
 827              	.LFB264:
 828              		.loc 1 127 0
 829              		.cfi_startproc
 830              		@ args = 0, pretend = 0, frame = 8
 831              		@ frame_needed = 0, uses_anonymous_args = 0
 832 0000 00B5     		push	{lr}
 833              		.cfi_def_cfa_offset 4
 834              		.cfi_offset 14, -4
 835 0002 83B0     		sub	sp, sp, #12
 836              		.cfi_def_cfa_offset 16
 837              		.loc 1 127 0
 838 0004 084B     		ldr	r3, .L59
 839 0006 1B68     		ldr	r3, [r3]
 840 0008 0193     		str	r3, [sp, #4]
 841              		.loc 1 128 0
 842 000a 0020     		movs	r0, #0
 843 000c FFF7FEFF 		bl	e_get_acc
 844 0010 0346     		mov	r3, r0
 845              		.loc 1 129 0
 846 0012 1846     		mov	r0, r3
 847 0014 044B     		ldr	r3, .L59
 848 0016 019A     		ldr	r2, [sp, #4]
 849 0018 1B68     		ldr	r3, [r3]
 850 001a 9A42     		cmp	r2, r3
 851 001c 01D0     		beq	.L58
 852 001e FFF7FEFF 		bl	__stack_chk_fail
 853              	.L58:
 854 0022 03B0     		add	sp, sp, #12
 855              		.cfi_def_cfa_offset 4
ARM GAS  C:\Users\Moi\AppData\Local\Temp\ccYEcQwT.s 			page 16


 856              		@ sp needed
 857 0024 5DF804FB 		ldr	pc, [sp], #4
 858              	.L60:
 859              		.align	2
 860              	.L59:
 861 0028 00000000 		.word	__stack_chk_guard
 862              		.cfi_endproc
 863              	.LFE264:
 864              		.size	e_read_acc_x, .-e_read_acc_x
 865              		.section	.text.e_read_acc_y,"ax",%progbits
 866              		.align	1
 867              		.p2align 4,,15
 868              		.global	e_read_acc_y
 869              		.syntax unified
 870              		.thumb
 871              		.thumb_func
 872              		.fpu fpv4-sp-d16
 873              		.type	e_read_acc_y, %function
 874              	e_read_acc_y:
 875              	.LFB265:
 876              		.loc 1 132 0
 877              		.cfi_startproc
 878              		@ args = 0, pretend = 0, frame = 8
 879              		@ frame_needed = 0, uses_anonymous_args = 0
 880 0000 00B5     		push	{lr}
 881              		.cfi_def_cfa_offset 4
 882              		.cfi_offset 14, -4
 883 0002 83B0     		sub	sp, sp, #12
 884              		.cfi_def_cfa_offset 16
 885              		.loc 1 132 0
 886 0004 084B     		ldr	r3, .L64
 887 0006 1B68     		ldr	r3, [r3]
 888 0008 0193     		str	r3, [sp, #4]
 889              		.loc 1 133 0
 890 000a 0120     		movs	r0, #1
 891 000c FFF7FEFF 		bl	e_get_acc
 892 0010 0346     		mov	r3, r0
 893              		.loc 1 134 0
 894 0012 1846     		mov	r0, r3
 895 0014 044B     		ldr	r3, .L64
 896 0016 019A     		ldr	r2, [sp, #4]
 897 0018 1B68     		ldr	r3, [r3]
 898 001a 9A42     		cmp	r2, r3
 899 001c 01D0     		beq	.L63
 900 001e FFF7FEFF 		bl	__stack_chk_fail
 901              	.L63:
 902 0022 03B0     		add	sp, sp, #12
 903              		.cfi_def_cfa_offset 4
 904              		@ sp needed
 905 0024 5DF804FB 		ldr	pc, [sp], #4
 906              	.L65:
 907              		.align	2
 908              	.L64:
 909 0028 00000000 		.word	__stack_chk_guard
 910              		.cfi_endproc
 911              	.LFE265:
 912              		.size	e_read_acc_y, .-e_read_acc_y
ARM GAS  C:\Users\Moi\AppData\Local\Temp\ccYEcQwT.s 			page 17


 913              		.section	.text.e_read_acc_z,"ax",%progbits
 914              		.align	1
 915              		.p2align 4,,15
 916              		.global	e_read_acc_z
 917              		.syntax unified
 918              		.thumb
 919              		.thumb_func
 920              		.fpu fpv4-sp-d16
 921              		.type	e_read_acc_z, %function
 922              	e_read_acc_z:
 923              	.LFB266:
 924              		.loc 1 137 0
 925              		.cfi_startproc
 926              		@ args = 0, pretend = 0, frame = 8
 927              		@ frame_needed = 0, uses_anonymous_args = 0
 928 0000 00B5     		push	{lr}
 929              		.cfi_def_cfa_offset 4
 930              		.cfi_offset 14, -4
 931 0002 83B0     		sub	sp, sp, #12
 932              		.cfi_def_cfa_offset 16
 933              		.loc 1 137 0
 934 0004 084B     		ldr	r3, .L69
 935 0006 1B68     		ldr	r3, [r3]
 936 0008 0193     		str	r3, [sp, #4]
 937              		.loc 1 138 0
 938 000a 0220     		movs	r0, #2
 939 000c FFF7FEFF 		bl	e_get_acc
 940 0010 0346     		mov	r3, r0
 941              		.loc 1 139 0
 942 0012 1846     		mov	r0, r3
 943 0014 044B     		ldr	r3, .L69
 944 0016 019A     		ldr	r2, [sp, #4]
 945 0018 1B68     		ldr	r3, [r3]
 946 001a 9A42     		cmp	r2, r3
 947 001c 01D0     		beq	.L68
 948 001e FFF7FEFF 		bl	__stack_chk_fail
 949              	.L68:
 950 0022 03B0     		add	sp, sp, #12
 951              		.cfi_def_cfa_offset 4
 952              		@ sp needed
 953 0024 5DF804FB 		ldr	pc, [sp], #4
 954              	.L70:
 955              		.align	2
 956              	.L69:
 957 0028 00000000 		.word	__stack_chk_guard
 958              		.cfi_endproc
 959              	.LFE266:
 960              		.size	e_read_acc_z, .-e_read_acc_z
 961              		.section	.text.e_display_angle,"ax",%progbits
 962              		.align	1
 963              		.p2align 4,,15
 964              		.global	e_display_angle
 965              		.syntax unified
 966              		.thumb
 967              		.thumb_func
 968              		.fpu fpv4-sp-d16
 969              		.type	e_display_angle, %function
ARM GAS  C:\Users\Moi\AppData\Local\Temp\ccYEcQwT.s 			page 18


 970              	e_display_angle:
 971              	.LFB267:
 972              		.loc 1 142 0
 973              		.cfi_startproc
 974              		@ args = 0, pretend = 0, frame = 8
 975              		@ frame_needed = 0, uses_anonymous_args = 0
 976 0000 00B5     		push	{lr}
 977              		.cfi_def_cfa_offset 4
 978              		.cfi_offset 14, -4
 979 0002 83B0     		sub	sp, sp, #12
 980              		.cfi_def_cfa_offset 16
 981              		.loc 1 142 0
 982 0004 824B     		ldr	r3, .L113
 983 0006 1B68     		ldr	r3, [r3]
 984 0008 0193     		str	r3, [sp, #4]
 985              		.loc 1 143 0
 986 000a 4FF00003 		mov	r3, #0
 987 000e 0093     		str	r3, [sp]	@ float
 988              		.loc 1 147 0
 989 0010 FFF7FEFF 		bl	e_read_orientation
 990 0014 8DED000A 		vstr.32	s0, [sp]
 991              		.loc 1 148 0
 992 0018 7E4B     		ldr	r3, .L113+4
 993 001a 1B68     		ldr	r3, [r3]
 994 001c 07EE903A 		vmov	s15, r3	@ int
 995 0020 B8EEE77A 		vcvt.f32.s32	s14, s15
 996 0024 DDED007A 		vldr.32	s15, [sp]
 997 0028 77EE677A 		vsub.f32	s15, s14, s15
 998 002c FDEEE77A 		vcvt.s32.f32	s15, s15
 999 0030 17EE903A 		vmov	r3, s15	@ int
 1000 0034 002B     		cmp	r3, #0
 1001 0036 B8BF     		it	lt
 1002 0038 5B42     		rsblt	r3, r3, #0
 1003 003a 07EE903A 		vmov	s15, r3	@ int
 1004 003e F8EEE77A 		vcvt.f32.s32	s15, s15
 1005 0042 B1EE047A 		vmov.f32	s14, #5.0e+0
 1006 0046 F4EEC77A 		vcmpe.f32	s15, s14
 1007 004a F1EE10FA 		vmrs	APSR_nzcv, FPSCR
 1008 004e 00DC     		bgt	.L97
 1009              		.loc 1 170 0
 1010 0050 D3E0     		b	.L112
 1011              	.L97:
 1012              		.loc 1 150 0
 1013 0052 FFF7FEFF 		bl	e_led_clear
 1014              		.loc 1 152 0
 1015 0056 DDED007A 		vldr.32	s15, [sp]
 1016 005a 9FED6F7A 		vldr.32	s14, .L113+8
 1017 005e F4EEC77A 		vcmpe.f32	s15, s14
 1018 0062 F1EE10FA 		vmrs	APSR_nzcv, FPSCR
 1019 0066 CCBF     		ite	gt
 1020 0068 0123     		movgt	r3, #1
 1021 006a 0023     		movle	r3, #0
 1022 006c DAB2     		uxtb	r2, r3
 1023 006e DDED007A 		vldr.32	s15, [sp]
 1024 0072 9FED6A7A 		vldr.32	s14, .L113+12
 1025 0076 F4EEC77A 		vcmpe.f32	s15, s14
 1026 007a F1EE10FA 		vmrs	APSR_nzcv, FPSCR
ARM GAS  C:\Users\Moi\AppData\Local\Temp\ccYEcQwT.s 			page 19


 1027 007e 94BF     		ite	ls
 1028 0080 0123     		movls	r3, #1
 1029 0082 0023     		movhi	r3, #0
 1030 0084 DBB2     		uxtb	r3, r3
 1031 0086 1343     		orrs	r3, r3, r2
 1032 0088 DBB2     		uxtb	r3, r3
 1033 008a 002B     		cmp	r3, #0
 1034 008c 0DD0     		beq	.L74
 1035              		.loc 1 152 0 is_stmt 0 discriminator 1
 1036 008e DDED007A 		vldr.32	s15, [sp]
 1037 0092 9FED637A 		vldr.32	s14, .L113+16
 1038 0096 F4EE477A 		vcmp.f32	s15, s14
 1039 009a F1EE10FA 		vmrs	APSR_nzcv, FPSCR
 1040 009e 04D0     		beq	.L74
 1041              		.loc 1 153 0 is_stmt 1
 1042 00a0 0121     		movs	r1, #1
 1043 00a2 0020     		movs	r0, #0
 1044 00a4 FFF7FEFF 		bl	e_set_led
 1045 00a8 9FE0     		b	.L75
 1046              	.L74:
 1047              		.loc 1 154 0
 1048 00aa DDED007A 		vldr.32	s15, [sp]
 1049 00ae 9FED5B7A 		vldr.32	s14, .L113+12
 1050 00b2 F4EEC77A 		vcmpe.f32	s15, s14
 1051 00b6 F1EE10FA 		vmrs	APSR_nzcv, FPSCR
 1052 00ba 0DDD     		ble	.L76
 1053              		.loc 1 154 0 is_stmt 0 discriminator 1
 1054 00bc DDED007A 		vldr.32	s15, [sp]
 1055 00c0 9FED587A 		vldr.32	s14, .L113+20
 1056 00c4 F4EEC77A 		vcmpe.f32	s15, s14
 1057 00c8 F1EE10FA 		vmrs	APSR_nzcv, FPSCR
 1058 00cc 04D8     		bhi	.L76
 1059              		.loc 1 155 0 is_stmt 1
 1060 00ce 0121     		movs	r1, #1
 1061 00d0 0720     		movs	r0, #7
 1062 00d2 FFF7FEFF 		bl	e_set_led
 1063 00d6 88E0     		b	.L75
 1064              	.L76:
 1065              		.loc 1 156 0
 1066 00d8 DDED007A 		vldr.32	s15, [sp]
 1067 00dc 9FED517A 		vldr.32	s14, .L113+20
 1068 00e0 F4EEC77A 		vcmpe.f32	s15, s14
 1069 00e4 F1EE10FA 		vmrs	APSR_nzcv, FPSCR
 1070 00e8 0DDD     		ble	.L79
 1071              		.loc 1 156 0 is_stmt 0 discriminator 1
 1072 00ea DDED007A 		vldr.32	s15, [sp]
 1073 00ee 9FED4E7A 		vldr.32	s14, .L113+24
 1074 00f2 F4EEC77A 		vcmpe.f32	s15, s14
 1075 00f6 F1EE10FA 		vmrs	APSR_nzcv, FPSCR
 1076 00fa 04D8     		bhi	.L79
 1077              		.loc 1 157 0 is_stmt 1
 1078 00fc 0121     		movs	r1, #1
 1079 00fe 0620     		movs	r0, #6
 1080 0100 FFF7FEFF 		bl	e_set_led
 1081 0104 71E0     		b	.L75
 1082              	.L79:
 1083              		.loc 1 158 0
ARM GAS  C:\Users\Moi\AppData\Local\Temp\ccYEcQwT.s 			page 20


 1084 0106 DDED007A 		vldr.32	s15, [sp]
 1085 010a 9FED477A 		vldr.32	s14, .L113+24
 1086 010e F4EEC77A 		vcmpe.f32	s15, s14
 1087 0112 F1EE10FA 		vmrs	APSR_nzcv, FPSCR
 1088 0116 0DDD     		ble	.L82
 1089              		.loc 1 158 0 is_stmt 0 discriminator 1
 1090 0118 DDED007A 		vldr.32	s15, [sp]
 1091 011c 9FED437A 		vldr.32	s14, .L113+28
 1092 0120 F4EEC77A 		vcmpe.f32	s15, s14
 1093 0124 F1EE10FA 		vmrs	APSR_nzcv, FPSCR
 1094 0128 04D8     		bhi	.L82
 1095              		.loc 1 159 0 is_stmt 1
 1096 012a 0121     		movs	r1, #1
 1097 012c 0520     		movs	r0, #5
 1098 012e FFF7FEFF 		bl	e_set_led
 1099 0132 5AE0     		b	.L75
 1100              	.L82:
 1101              		.loc 1 160 0
 1102 0134 DDED007A 		vldr.32	s15, [sp]
 1103 0138 9FED3C7A 		vldr.32	s14, .L113+28
 1104 013c F4EEC77A 		vcmpe.f32	s15, s14
 1105 0140 F1EE10FA 		vmrs	APSR_nzcv, FPSCR
 1106 0144 0DDD     		ble	.L85
 1107              		.loc 1 160 0 is_stmt 0 discriminator 1
 1108 0146 DDED007A 		vldr.32	s15, [sp]
 1109 014a 9FED397A 		vldr.32	s14, .L113+32
 1110 014e F4EEC77A 		vcmpe.f32	s15, s14
 1111 0152 F1EE10FA 		vmrs	APSR_nzcv, FPSCR
 1112 0156 04D8     		bhi	.L85
 1113              		.loc 1 161 0 is_stmt 1
 1114 0158 0121     		movs	r1, #1
 1115 015a 0420     		movs	r0, #4
 1116 015c FFF7FEFF 		bl	e_set_led
 1117 0160 43E0     		b	.L75
 1118              	.L85:
 1119              		.loc 1 162 0
 1120 0162 DDED007A 		vldr.32	s15, [sp]
 1121 0166 9FED327A 		vldr.32	s14, .L113+32
 1122 016a F4EEC77A 		vcmpe.f32	s15, s14
 1123 016e F1EE10FA 		vmrs	APSR_nzcv, FPSCR
 1124 0172 0DDD     		ble	.L88
 1125              		.loc 1 162 0 is_stmt 0 discriminator 1
 1126 0174 DDED007A 		vldr.32	s15, [sp]
 1127 0178 9FED2E7A 		vldr.32	s14, .L113+36
 1128 017c F4EEC77A 		vcmpe.f32	s15, s14
 1129 0180 F1EE10FA 		vmrs	APSR_nzcv, FPSCR
 1130 0184 04D8     		bhi	.L88
 1131              		.loc 1 163 0 is_stmt 1
 1132 0186 0121     		movs	r1, #1
 1133 0188 0320     		movs	r0, #3
 1134 018a FFF7FEFF 		bl	e_set_led
 1135 018e 2CE0     		b	.L75
 1136              	.L88:
 1137              		.loc 1 164 0
 1138 0190 DDED007A 		vldr.32	s15, [sp]
 1139 0194 9FED277A 		vldr.32	s14, .L113+36
 1140 0198 F4EEC77A 		vcmpe.f32	s15, s14
ARM GAS  C:\Users\Moi\AppData\Local\Temp\ccYEcQwT.s 			page 21


 1141 019c F1EE10FA 		vmrs	APSR_nzcv, FPSCR
 1142 01a0 0DDD     		ble	.L91
 1143              		.loc 1 164 0 is_stmt 0 discriminator 1
 1144 01a2 DDED007A 		vldr.32	s15, [sp]
 1145 01a6 9FED247A 		vldr.32	s14, .L113+40
 1146 01aa F4EEC77A 		vcmpe.f32	s15, s14
 1147 01ae F1EE10FA 		vmrs	APSR_nzcv, FPSCR
 1148 01b2 04D8     		bhi	.L91
 1149              		.loc 1 165 0 is_stmt 1
 1150 01b4 0121     		movs	r1, #1
 1151 01b6 0220     		movs	r0, #2
 1152 01b8 FFF7FEFF 		bl	e_set_led
 1153 01bc 15E0     		b	.L75
 1154              	.L91:
 1155              		.loc 1 166 0
 1156 01be DDED007A 		vldr.32	s15, [sp]
 1157 01c2 9FED1D7A 		vldr.32	s14, .L113+40
 1158 01c6 F4EEC77A 		vcmpe.f32	s15, s14
 1159 01ca F1EE10FA 		vmrs	APSR_nzcv, FPSCR
 1160 01ce 0CDD     		ble	.L75
 1161              		.loc 1 166 0 is_stmt 0 discriminator 1
 1162 01d0 DDED007A 		vldr.32	s15, [sp]
 1163 01d4 9FED107A 		vldr.32	s14, .L113+8
 1164 01d8 F4EEC77A 		vcmpe.f32	s15, s14
 1165 01dc F1EE10FA 		vmrs	APSR_nzcv, FPSCR
 1166 01e0 03D8     		bhi	.L75
 1167              		.loc 1 167 0 is_stmt 1
 1168 01e2 0121     		movs	r1, #1
 1169 01e4 0120     		movs	r0, #1
 1170 01e6 FFF7FEFF 		bl	e_set_led
 1171              	.L75:
 1172              		.loc 1 168 0
 1173 01ea DDED007A 		vldr.32	s15, [sp]
 1174 01ee FDEEE77A 		vcvt.s32.f32	s15, s15
 1175 01f2 17EE902A 		vmov	r2, s15	@ int
 1176 01f6 074B     		ldr	r3, .L113+4
 1177 01f8 1A60     		str	r2, [r3]
 1178              	.L112:
 1179              		.loc 1 170 0
 1180 01fa 00BF     		nop
 1181 01fc 044B     		ldr	r3, .L113
 1182 01fe 019A     		ldr	r2, [sp, #4]
 1183 0200 1B68     		ldr	r3, [r3]
 1184 0202 9A42     		cmp	r2, r3
 1185 0204 01D0     		beq	.L96
 1186 0206 FFF7FEFF 		bl	__stack_chk_fail
 1187              	.L96:
 1188 020a 03B0     		add	sp, sp, #12
 1189              		.cfi_def_cfa_offset 4
 1190              		@ sp needed
 1191 020c 5DF804FB 		ldr	pc, [sp], #4
 1192              	.L114:
 1193              		.align	2
 1194              	.L113:
 1195 0210 00000000 		.word	__stack_chk_guard
 1196 0214 00000000 		.word	angle_mem
 1197 0218 00C0A843 		.word	1135132672
ARM GAS  C:\Users\Moi\AppData\Local\Temp\ccYEcQwT.s 			page 22


 1198 021c 0000B441 		.word	1102315520
 1199 0220 00802644 		.word	1143373824
 1200 0224 00008742 		.word	1116143616
 1201 0228 0000E142 		.word	1122041856
 1202 022c 00801D43 		.word	1126006784
 1203 0230 00804A43 		.word	1128955904
 1204 0234 00807743 		.word	1131905024
 1205 0238 00409243 		.word	1133658112
 1206              		.cfi_endproc
 1207              	.LFE267:
 1208              		.size	e_display_angle, .-e_display_angle
 1209              		.text
 1210              	.Letext0:
 1211              		.file 2 "c:\\users\\moi\\documents\\_microinfo\\epuck-eclipse\\tools\\gcc-arm-none-eabi-7-2017-q4-
 1212              		.file 3 "c:\\users\\moi\\documents\\_microinfo\\epuck-eclipse\\tools\\gcc-arm-none-eabi-7-2017-q4-
 1213              		.file 4 "c:\\users\\moi\\documents\\_microinfo\\epuck-eclipse\\tools\\gcc-arm-none-eabi-7-2017-q4-
 1214              		.file 5 "c:\\users\\moi\\documents\\_microinfo\\epuck-eclipse\\tools\\gcc-arm-none-eabi-7-2017-q4-
 1215              		.file 6 "c:\\users\\moi\\documents\\_microinfo\\epuck-eclipse\\tools\\gcc-arm-none-eabi-7-2017-q4-
 1216              		.file 7 "c:\\users\\moi\\documents\\_microinfo\\epuck-eclipse\\tools\\gcc-arm-none-eabi-7-2017-q4-
 1217              		.file 8 "..//src/epuck1x/a_d/advance_ad_scan/e_acc.h"
 1218              		.file 9 "c:\\users\\moi\\documents\\_microinfo\\epuck-eclipse\\tools\\gcc-arm-none-eabi-7-2017-q4-
 1219              		.file 10 "..//ChibiOS//os/rt/ports/ARMCMx/compilers/GCC/chtypes.h"
 1220              		.file 11 "..//ChibiOS//os/rt/include/chsystypes.h"
 1221              		.file 12 "..//ChibiOS//os/rt/include/chschd.h"
 1222              		.file 13 "..//ChibiOS//os/ext/CMSIS/include/core_cm4.h"
 1223              		.file 14 "..//ChibiOS//os/ext/CMSIS/ST/system_stm32f4xx.h"
 1224              		.file 15 "..//ChibiOS//os/ext/CMSIS/ST/stm32f407xx.h"
 1225              		.file 16 "..//ChibiOS//os/rt/ports/ARMCMx/chcore.h"
 1226              		.file 17 "..//ChibiOS//os/rt/ports/ARMCMx/chcore_v7m.h"
 1227              		.file 18 "..//ChibiOS//os/rt/include/chdebug.h"
 1228              		.file 19 "..//ChibiOS//os/rt/include/chtm.h"
 1229              		.file 20 "..//ChibiOS//os/rt/include/chstats.h"
 1230              		.file 21 "..//ChibiOS//os/rt/include/chsem.h"
 1231              		.file 22 "..//ChibiOS//os/rt/include/chmtx.h"
 1232              		.file 23 "..//ChibiOS//os/rt/include/chregistry.h"
 1233              		.file 24 "..//ChibiOS//os/rt/include/chevents.h"
 1234              		.file 25 "..//ChibiOS//os/rt/include/chqueues.h"
 1235              		.file 26 "..//ChibiOS//os/hal/ports/STM32/STM32F4xx/stm32_dma.h"
 1236              		.file 27 "..//ChibiOS//os/hal/include/hal_ioblock.h"
 1237              		.file 28 "..//ChibiOS//os/hal/ports/STM32/LLD/GPIOv2/pal_lld.h"
 1238              		.file 29 "..//ChibiOS//os/hal/include/adc.h"
 1239              		.file 30 "..//ChibiOS//os/hal/ports/STM32/STM32F4xx/adc_lld.h"
 1240              		.file 31 "..//ChibiOS//os/hal/include/can.h"
 1241              		.file 32 "..//ChibiOS//os/hal/ports/STM32/LLD/can_lld.h"
 1242              		.file 33 "..//ChibiOS//os/hal/include/dac.h"
 1243              		.file 34 "..//ChibiOS//os/hal/ports/STM32/LLD/DACv1/dac_lld.h"
 1244              		.file 35 "..//ChibiOS//os/hal/include/ext.h"
 1245              		.file 36 "..//ChibiOS//os/hal/ports/STM32/LLD/ext_lld.h"
 1246              		.file 37 "..//ChibiOS//os/hal/include/gpt.h"
 1247              		.file 38 "..//ChibiOS//os/hal/ports/STM32/LLD/TIMv1/gpt_lld.h"
 1248              		.file 39 "..//ChibiOS//os/hal/ports/STM32/LLD/TIMv1/stm32_tim.h"
 1249              		.file 40 "..//ChibiOS//os/hal/include/i2c.h"
 1250              		.file 41 "..//ChibiOS//os/hal/ports/STM32/LLD/I2Cv1/i2c_lld.h"
 1251              		.file 42 "..//ChibiOS//os/hal/include/i2s.h"
 1252              		.file 43 "..//ChibiOS//os/hal/ports/STM32/LLD/SPIv1/i2s_lld.h"
 1253              		.file 44 "..//ChibiOS//os/hal/include/pwm.h"
 1254              		.file 45 "..//ChibiOS//os/hal/ports/STM32/LLD/TIMv1/pwm_lld.h"
ARM GAS  C:\Users\Moi\AppData\Local\Temp\ccYEcQwT.s 			page 23


 1255              		.file 46 "..//ChibiOS//os/hal/include/serial.h"
 1256              		.file 47 "..//ChibiOS//os/hal/ports/STM32/LLD/USARTv1/serial_lld.h"
 1257              		.file 48 "..//ChibiOS//os/hal/include/sdc.h"
 1258              		.file 49 "..//ChibiOS//os/hal/ports/STM32/LLD/sdc_lld.h"
 1259              		.file 50 "..//ChibiOS//os/hal/include/spi.h"
 1260              		.file 51 "..//ChibiOS//os/hal/ports/STM32/LLD/SPIv1/spi_lld.h"
 1261              		.file 52 "..//ChibiOS//os/hal/include/usb.h"
 1262              		.file 53 "..//ChibiOS//os/hal/ports/STM32/LLD/OTGv1/usb_lld.h"
 1263              		.file 54 "..//ChibiOS//os/hal/ports/STM32/LLD/OTGv1/stm32_otg.h"
 1264              		.file 55 "c:\\users\\moi\\documents\\_microinfo\\epuck-eclipse\\tools\\gcc-arm-none-eabi-7-2017-q4