ARM GAS  C:\Users\Moi\AppData\Local\Temp\cc9hQcDd.s 			page 1


   1              		.cpu cortex-m4
   2              		.eabi_attribute 27, 1
   3              		.eabi_attribute 28, 1
   4              		.eabi_attribute 20, 1
   5              		.eabi_attribute 21, 1
   6              		.eabi_attribute 23, 3
   7              		.eabi_attribute 24, 1
   8              		.eabi_attribute 25, 1
   9              		.eabi_attribute 26, 1
  10              		.eabi_attribute 30, 6
  11              		.eabi_attribute 34, 1
  12              		.eabi_attribute 18, 4
  13              		.file	"e_ad_conv.c"
  14              		.text
  15              	.Ltext0:
  16              		.cfi_sections	.debug_frame
  17              		.global	e_mic_scan
  18              		.section	.bss.e_mic_scan,"aw",%nobits
  19              		.align	2
  20              		.type	e_mic_scan, %object
  21              		.size	e_mic_scan, 4
  22              	e_mic_scan:
  23 0000 00000000 		.space	4
  24              		.global	e_last_mic_scan_id
  25              		.section	.data.e_last_mic_scan_id,"aw",%progbits
  26              		.align	2
  27              		.type	e_last_mic_scan_id, %object
  28              		.size	e_last_mic_scan_id, 4
  29              	e_last_mic_scan_id:
  30 0000 9F000000 		.word	159
  31              		.section	.text.e_init_ad_scan,"ax",%progbits
  32              		.align	1
  33              		.p2align 4,,15
  34              		.global	e_init_ad_scan
  35              		.syntax unified
  36              		.thumb
  37              		.thumb_func
  38              		.fpu fpv4-sp-d16
  39              		.type	e_init_ad_scan, %function
  40              	e_init_ad_scan:
  41              	.LFB256:
  42              		.file 1 "..//src/epuck1x/a_d/advance_ad_scan/e_ad_conv.c"
  43              		.loc 1 11 0
  44              		.cfi_startproc
  45              		@ args = 0, pretend = 0, frame = 16
  46              		@ frame_needed = 0, uses_anonymous_args = 0
  47 0000 00B5     		push	{lr}
  48              		.cfi_def_cfa_offset 4
  49              		.cfi_offset 14, -4
  50 0002 85B0     		sub	sp, sp, #20
  51              		.cfi_def_cfa_offset 24
  52 0004 0346     		mov	r3, r0
  53 0006 8DF80730 		strb	r3, [sp, #7]
  54              		.loc 1 11 0
  55 000a 0D4B     		ldr	r3, .L3
  56 000c 1B68     		ldr	r3, [r3]
  57 000e 0393     		str	r3, [sp, #12]
ARM GAS  C:\Users\Moi\AppData\Local\Temp\cc9hQcDd.s 			page 2


  58              		.loc 1 13 0
  59 0010 FFF7FEFF 		bl	proximity_start
  60              		.loc 1 14 0
  61 0014 FFF7FEFF 		bl	imu_start
  62              		.loc 1 15 0
  63 0018 0020     		movs	r0, #0
  64 001a FFF7FEFF 		bl	mic_start
  65              		.loc 1 16 0
  66 001e FFF7FEFF 		bl	mic_get_buffer_ptr
  67 0022 0246     		mov	r2, r0
  68 0024 074B     		ldr	r3, .L3+4
  69 0026 1A60     		str	r2, [r3]
  70              		.loc 1 17 0
  71 0028 00BF     		nop
  72 002a 054B     		ldr	r3, .L3
  73 002c 039A     		ldr	r2, [sp, #12]
  74 002e 1B68     		ldr	r3, [r3]
  75 0030 9A42     		cmp	r2, r3
  76 0032 01D0     		beq	.L2
  77 0034 FFF7FEFF 		bl	__stack_chk_fail
  78              	.L2:
  79 0038 05B0     		add	sp, sp, #20
  80              		.cfi_def_cfa_offset 4
  81              		@ sp needed
  82 003a 5DF804FB 		ldr	pc, [sp], #4
  83              	.L4:
  84 003e 00BF     		.align	2
  85              	.L3:
  86 0040 00000000 		.word	__stack_chk_guard
  87 0044 00000000 		.word	e_mic_scan
  88              		.cfi_endproc
  89              	.LFE256:
  90              		.size	e_init_ad_scan, .-e_init_ad_scan
  91              		.section	.text.e_ad_is_acquisition_completed,"ax",%progbits
  92              		.align	1
  93              		.p2align 4,,15
  94              		.global	e_ad_is_acquisition_completed
  95              		.syntax unified
  96              		.thumb
  97              		.thumb_func
  98              		.fpu fpv4-sp-d16
  99              		.type	e_ad_is_acquisition_completed, %function
 100              	e_ad_is_acquisition_completed:
 101              	.LFB257:
 102              		.loc 1 20 0
 103              		.cfi_startproc
 104              		@ args = 0, pretend = 0, frame = 8
 105              		@ frame_needed = 0, uses_anonymous_args = 0
 106 0000 00B5     		push	{lr}
 107              		.cfi_def_cfa_offset 4
 108              		.cfi_offset 14, -4
 109 0002 83B0     		sub	sp, sp, #12
 110              		.cfi_def_cfa_offset 16
 111              		.loc 1 20 0
 112 0004 074B     		ldr	r3, .L8
 113 0006 1B68     		ldr	r3, [r3]
 114 0008 0193     		str	r3, [sp, #4]
ARM GAS  C:\Users\Moi\AppData\Local\Temp\cc9hQcDd.s 			page 3


 115              		.loc 1 21 0
 116 000a 0123     		movs	r3, #1
 117              		.loc 1 22 0
 118 000c 1846     		mov	r0, r3
 119 000e 054B     		ldr	r3, .L8
 120 0010 019A     		ldr	r2, [sp, #4]
 121 0012 1B68     		ldr	r3, [r3]
 122 0014 9A42     		cmp	r2, r3
 123 0016 01D0     		beq	.L7
 124 0018 FFF7FEFF 		bl	__stack_chk_fail
 125              	.L7:
 126 001c 03B0     		add	sp, sp, #12
 127              		.cfi_def_cfa_offset 4
 128              		@ sp needed
 129 001e 5DF804FB 		ldr	pc, [sp], #4
 130              	.L9:
 131 0022 00BF     		.align	2
 132              	.L8:
 133 0024 00000000 		.word	__stack_chk_guard
 134              		.cfi_endproc
 135              	.LFE257:
 136              		.size	e_ad_is_acquisition_completed, .-e_ad_is_acquisition_completed
 137              		.section	.text.e_ad_is_array_filled,"ax",%progbits
 138              		.align	1
 139              		.p2align 4,,15
 140              		.global	e_ad_is_array_filled
 141              		.syntax unified
 142              		.thumb
 143              		.thumb_func
 144              		.fpu fpv4-sp-d16
 145              		.type	e_ad_is_array_filled, %function
 146              	e_ad_is_array_filled:
 147              	.LFB258:
 148              		.loc 1 25 0
 149              		.cfi_startproc
 150              		@ args = 0, pretend = 0, frame = 8
 151              		@ frame_needed = 0, uses_anonymous_args = 0
 152 0000 00B5     		push	{lr}
 153              		.cfi_def_cfa_offset 4
 154              		.cfi_offset 14, -4
 155 0002 83B0     		sub	sp, sp, #12
 156              		.cfi_def_cfa_offset 16
 157              		.loc 1 25 0
 158 0004 074B     		ldr	r3, .L13
 159 0006 1B68     		ldr	r3, [r3]
 160 0008 0193     		str	r3, [sp, #4]
 161              		.loc 1 26 0
 162 000a 0123     		movs	r3, #1
 163              		.loc 1 27 0
 164 000c 1846     		mov	r0, r3
 165 000e 054B     		ldr	r3, .L13
 166 0010 019A     		ldr	r2, [sp, #4]
 167 0012 1B68     		ldr	r3, [r3]
 168 0014 9A42     		cmp	r2, r3
 169 0016 01D0     		beq	.L12
 170 0018 FFF7FEFF 		bl	__stack_chk_fail
 171              	.L12:
ARM GAS  C:\Users\Moi\AppData\Local\Temp\cc9hQcDd.s 			page 4


 172 001c 03B0     		add	sp, sp, #12
 173              		.cfi_def_cfa_offset 4
 174              		@ sp needed
 175 001e 5DF804FB 		ldr	pc, [sp], #4
 176              	.L14:
 177 0022 00BF     		.align	2
 178              	.L13:
 179 0024 00000000 		.word	__stack_chk_guard
 180              		.cfi_endproc
 181              	.LFE258:
 182              		.size	e_ad_is_array_filled, .-e_ad_is_array_filled
 183              		.section	.text.e_ad_scan_on,"ax",%progbits
 184              		.align	1
 185              		.p2align 4,,15
 186              		.global	e_ad_scan_on
 187              		.syntax unified
 188              		.thumb
 189              		.thumb_func
 190              		.fpu fpv4-sp-d16
 191              		.type	e_ad_scan_on, %function
 192              	e_ad_scan_on:
 193              	.LFB259:
 194              		.loc 1 30 0
 195              		.cfi_startproc
 196              		@ args = 0, pretend = 0, frame = 8
 197              		@ frame_needed = 0, uses_anonymous_args = 0
 198 0000 00B5     		push	{lr}
 199              		.cfi_def_cfa_offset 4
 200              		.cfi_offset 14, -4
 201 0002 83B0     		sub	sp, sp, #12
 202              		.cfi_def_cfa_offset 16
 203              		.loc 1 30 0
 204 0004 064B     		ldr	r3, .L18
 205 0006 1B68     		ldr	r3, [r3]
 206 0008 0193     		str	r3, [sp, #4]
 207              		.loc 1 31 0
 208 000a 00BF     		nop
 209              		.loc 1 32 0
 210 000c 044B     		ldr	r3, .L18
 211 000e 019A     		ldr	r2, [sp, #4]
 212 0010 1B68     		ldr	r3, [r3]
 213 0012 9A42     		cmp	r2, r3
 214 0014 01D0     		beq	.L17
 215 0016 FFF7FEFF 		bl	__stack_chk_fail
 216              	.L17:
 217 001a 03B0     		add	sp, sp, #12
 218              		.cfi_def_cfa_offset 4
 219              		@ sp needed
 220 001c 5DF804FB 		ldr	pc, [sp], #4
 221              	.L19:
 222              		.align	2
 223              	.L18:
 224 0020 00000000 		.word	__stack_chk_guard
 225              		.cfi_endproc
 226              	.LFE259:
 227              		.size	e_ad_scan_on, .-e_ad_scan_on
 228              		.section	.text.e_ad_scan_off,"ax",%progbits
ARM GAS  C:\Users\Moi\AppData\Local\Temp\cc9hQcDd.s 			page 5


 229              		.align	1
 230              		.p2align 4,,15
 231              		.global	e_ad_scan_off
 232              		.syntax unified
 233              		.thumb
 234              		.thumb_func
 235              		.fpu fpv4-sp-d16
 236              		.type	e_ad_scan_off, %function
 237              	e_ad_scan_off:
 238              	.LFB260:
 239              		.loc 1 35 0
 240              		.cfi_startproc
 241              		@ args = 0, pretend = 0, frame = 8
 242              		@ frame_needed = 0, uses_anonymous_args = 0
 243 0000 00B5     		push	{lr}
 244              		.cfi_def_cfa_offset 4
 245              		.cfi_offset 14, -4
 246 0002 83B0     		sub	sp, sp, #12
 247              		.cfi_def_cfa_offset 16
 248              		.loc 1 35 0
 249 0004 064B     		ldr	r3, .L23
 250 0006 1B68     		ldr	r3, [r3]
 251 0008 0193     		str	r3, [sp, #4]
 252              		.loc 1 36 0
 253 000a 00BF     		nop
 254              		.loc 1 37 0
 255 000c 044B     		ldr	r3, .L23
 256 000e 019A     		ldr	r2, [sp, #4]
 257 0010 1B68     		ldr	r3, [r3]
 258 0012 9A42     		cmp	r2, r3
 259 0014 01D0     		beq	.L22
 260 0016 FFF7FEFF 		bl	__stack_chk_fail
 261              	.L22:
 262 001a 03B0     		add	sp, sp, #12
 263              		.cfi_def_cfa_offset 4
 264              		@ sp needed
 265 001c 5DF804FB 		ldr	pc, [sp], #4
 266              	.L24:
 267              		.align	2
 268              	.L23:
 269 0020 00000000 		.word	__stack_chk_guard
 270              		.cfi_endproc
 271              	.LFE260:
 272              		.size	e_ad_scan_off, .-e_ad_scan_off
 273              		.text
 274              	.Letext0:
 275              		.file 2 "c:\\users\\moi\\documents\\_microinfo\\epuck-eclipse\\tools\\gcc-arm-none-eabi-7-2017-q4-
 276              		.file 3 "c:\\users\\moi\\documents\\_microinfo\\epuck-eclipse\\tools\\gcc-arm-none-eabi-7-2017-q4-
 277              		.file 4 "c:\\users\\moi\\documents\\_microinfo\\epuck-eclipse\\tools\\gcc-arm-none-eabi-7-2017-q4-
 278              		.file 5 "..//ChibiOS//os/rt/ports/ARMCMx/compilers/GCC/chtypes.h"
 279              		.file 6 "..//ChibiOS//os/rt/include/chsystypes.h"
 280              		.file 7 "..//ChibiOS//os/rt/include/chschd.h"
 281              		.file 8 "..//ChibiOS//os/ext/CMSIS/include/core_cm4.h"
 282              		.file 9 "..//ChibiOS//os/ext/CMSIS/ST/system_stm32f4xx.h"
 283              		.file 10 "..//ChibiOS//os/ext/CMSIS/ST/stm32f407xx.h"
 284              		.file 11 "..//ChibiOS//os/rt/ports/ARMCMx/chcore.h"
 285              		.file 12 "..//ChibiOS//os/rt/ports/ARMCMx/chcore_v7m.h"
ARM GAS  C:\Users\Moi\AppData\Local\Temp\cc9hQcDd.s 			page 6


 286              		.file 13 "..//ChibiOS//os/rt/include/chdebug.h"
 287              		.file 14 "..//ChibiOS//os/rt/include/chtm.h"
 288              		.file 15 "..//ChibiOS//os/rt/include/chstats.h"
 289              		.file 16 "..//ChibiOS//os/rt/include/chsem.h"
 290              		.file 17 "..//ChibiOS//os/rt/include/chmtx.h"
 291              		.file 18 "..//ChibiOS//os/rt/include/chregistry.h"
 292              		.file 19 "..//ChibiOS//os/rt/include/chevents.h"
 293              		.file 20 "..//ChibiOS//os/rt/include/chqueues.h"
 294              		.file 21 "..//ChibiOS//os/hal/ports/STM32/STM32F4xx/stm32_dma.h"
 295              		.file 22 "..//ChibiOS//os/hal/include/hal_ioblock.h"
 296              		.file 23 "..//ChibiOS//os/hal/ports/STM32/LLD/GPIOv2/pal_lld.h"
 297              		.file 24 "..//ChibiOS//os/hal/include/adc.h"
 298              		.file 25 "..//ChibiOS//os/hal/ports/STM32/STM32F4xx/adc_lld.h"
 299              		.file 26 "..//ChibiOS//os/hal/include/can.h"
 300              		.file 27 "..//ChibiOS//os/hal/ports/STM32/LLD/can_lld.h"
 301              		.file 28 "..//ChibiOS//os/hal/include/dac.h"
 302              		.file 29 "..//ChibiOS//os/hal/ports/STM32/LLD/DACv1/dac_lld.h"
 303              		.file 30 "..//ChibiOS//os/hal/include/ext.h"
 304              		.file 31 "..//ChibiOS//os/hal/ports/STM32/LLD/ext_lld.h"
 305              		.file 32 "..//ChibiOS//os/hal/include/gpt.h"
 306              		.file 33 "..//ChibiOS//os/hal/ports/STM32/LLD/TIMv1/gpt_lld.h"
 307              		.file 34 "..//ChibiOS//os/hal/ports/STM32/LLD/TIMv1/stm32_tim.h"
 308              		.file 35 "..//ChibiOS//os/hal/include/i2c.h"
 309              		.file 36 "..//ChibiOS//os/hal/ports/STM32/LLD/I2Cv1/i2c_lld.h"
 310              		.file 37 "..//ChibiOS//os/hal/include/i2s.h"
 311              		.file 38 "..//ChibiOS//os/hal/ports/STM32/LLD/SPIv1/i2s_lld.h"
 312              		.file 39 "..//ChibiOS//os/hal/include/pwm.h"
 313              		.file 40 "..//ChibiOS//os/hal/ports/STM32/LLD/TIMv1/pwm_lld.h"
 314              		.file 41 "..//ChibiOS//os/hal/include/serial.h"
 315              		.file 42 "..//ChibiOS//os/hal/ports/STM32/LLD/USARTv1/serial_lld.h"
 316              		.file 43 "..//ChibiOS//os/hal/include/sdc.h"
 317              		.file 44 "..//ChibiOS//os/hal/ports/STM32/LLD/sdc_lld.h"
 318              		.file 45 "..//ChibiOS//os/hal/include/spi.h"
 319              		.file 46 "..//ChibiOS//os/hal/ports/STM32/LLD/SPIv1/spi_lld.h"
 320              		.file 47 "..//ChibiOS//os/hal/include/usb.h"
 321              		.file 48 "..//ChibiOS//os/hal/ports/STM32/LLD/OTGv1/usb_lld.h"
 322              		.file 49 "..//ChibiOS//os/hal/ports/STM32/LLD/OTGv1/stm32_otg.h"