ARM GAS  C:\Users\Moi\AppData\Local\Temp\ccrR8U1A.s 			page 1


   1              		.cpu cortex-m4
   2              		.eabi_attribute 27, 1
   3              		.eabi_attribute 28, 1
   4              		.eabi_attribute 20, 1
   5              		.eabi_attribute 21, 1
   6              		.eabi_attribute 23, 3
   7              		.eabi_attribute 24, 1
   8              		.eabi_attribute 25, 1
   9              		.eabi_attribute 26, 1
  10              		.eabi_attribute 30, 6
  11              		.eabi_attribute 34, 1
  12              		.eabi_attribute 18, 4
  13              		.file	"e_lsm330.c"
  14              		.text
  15              	.Ltext0:
  16              		.cfi_sections	.debug_frame
  17              		.section	.text.initAccAndGyro,"ax",%progbits
  18              		.align	1
  19              		.p2align 4,,15
  20              		.global	initAccAndGyro
  21              		.syntax unified
  22              		.thumb
  23              		.thumb_func
  24              		.fpu fpv4-sp-d16
  25              		.type	initAccAndGyro, %function
  26              	initAccAndGyro:
  27              	.LFB256:
  28              		.file 1 "..//src/epuck1x/acc_gyro/e_lsm330.c"
  29              		.loc 1 33 0
  30              		.cfi_startproc
  31              		@ args = 0, pretend = 0, frame = 8
  32              		@ frame_needed = 0, uses_anonymous_args = 0
  33 0000 00B5     		push	{lr}
  34              		.cfi_def_cfa_offset 4
  35              		.cfi_offset 14, -4
  36 0002 83B0     		sub	sp, sp, #12
  37              		.cfi_def_cfa_offset 16
  38              		.loc 1 33 0
  39 0004 064B     		ldr	r3, .L4
  40 0006 1B68     		ldr	r3, [r3]
  41 0008 0193     		str	r3, [sp, #4]
  42              		.loc 1 34 0
  43 000a 00BF     		nop
  44              		.loc 1 35 0
  45 000c 044B     		ldr	r3, .L4
  46 000e 019A     		ldr	r2, [sp, #4]
  47 0010 1B68     		ldr	r3, [r3]
  48 0012 9A42     		cmp	r2, r3
  49 0014 01D0     		beq	.L3
  50 0016 FFF7FEFF 		bl	__stack_chk_fail
  51              	.L3:
  52 001a 03B0     		add	sp, sp, #12
  53              		.cfi_def_cfa_offset 4
  54              		@ sp needed
  55 001c 5DF804FB 		ldr	pc, [sp], #4
  56              	.L5:
  57              		.align	2
ARM GAS  C:\Users\Moi\AppData\Local\Temp\ccrR8U1A.s 			page 2


  58              	.L4:
  59 0020 00000000 		.word	__stack_chk_guard
  60              		.cfi_endproc
  61              	.LFE256:
  62              		.size	initAccAndGyro, .-initAccAndGyro
  63              		.section	.text.getAllAxesGyroRaw,"ax",%progbits
  64              		.align	1
  65              		.p2align 4,,15
  66              		.global	getAllAxesGyroRaw
  67              		.syntax unified
  68              		.thumb
  69              		.thumb_func
  70              		.fpu fpv4-sp-d16
  71              		.type	getAllAxesGyroRaw, %function
  72              	getAllAxesGyroRaw:
  73              	.LFB257:
  74              		.loc 1 37 0
  75              		.cfi_startproc
  76              		@ args = 0, pretend = 0, frame = 16
  77              		@ frame_needed = 0, uses_anonymous_args = 0
  78 0000 00B5     		push	{lr}
  79              		.cfi_def_cfa_offset 4
  80              		.cfi_offset 14, -4
  81 0002 85B0     		sub	sp, sp, #20
  82              		.cfi_def_cfa_offset 24
  83 0004 0190     		str	r0, [sp, #4]
  84              		.loc 1 37 0
  85 0006 144B     		ldr	r3, .L8
  86 0008 1B68     		ldr	r3, [r3]
  87 000a 0393     		str	r3, [sp, #12]
  88              		.loc 1 38 0
  89 000c 0120     		movs	r0, #1
  90 000e FFF7FEFF 		bl	get_gyro
  91 0012 0346     		mov	r3, r0
  92 0014 DBB2     		uxtb	r3, r3
  93 0016 5B42     		negs	r3, r3
  94 0018 DAB2     		uxtb	r2, r3
  95 001a 019B     		ldr	r3, [sp, #4]
  96 001c 1A70     		strb	r2, [r3]
  97              		.loc 1 39 0
  98 001e 0020     		movs	r0, #0
  99 0020 FFF7FEFF 		bl	get_gyro
 100 0024 0346     		mov	r3, r0
 101 0026 1A46     		mov	r2, r3
 102 0028 019B     		ldr	r3, [sp, #4]
 103 002a 0133     		adds	r3, r3, #1
 104 002c D2B2     		uxtb	r2, r2
 105 002e 1A70     		strb	r2, [r3]
 106              		.loc 1 40 0
 107 0030 0220     		movs	r0, #2
 108 0032 FFF7FEFF 		bl	get_gyro
 109 0036 0346     		mov	r3, r0
 110 0038 1A46     		mov	r2, r3
 111 003a 019B     		ldr	r3, [sp, #4]
 112 003c 0233     		adds	r3, r3, #2
 113 003e D2B2     		uxtb	r2, r2
 114 0040 1A70     		strb	r2, [r3]
ARM GAS  C:\Users\Moi\AppData\Local\Temp\ccrR8U1A.s 			page 3


 115              		.loc 1 41 0
 116 0042 00BF     		nop
 117 0044 044B     		ldr	r3, .L8
 118 0046 039A     		ldr	r2, [sp, #12]
 119 0048 1B68     		ldr	r3, [r3]
 120 004a 9A42     		cmp	r2, r3
 121 004c 01D0     		beq	.L7
 122 004e FFF7FEFF 		bl	__stack_chk_fail
 123              	.L7:
 124 0052 05B0     		add	sp, sp, #20
 125              		.cfi_def_cfa_offset 4
 126              		@ sp needed
 127 0054 5DF804FB 		ldr	pc, [sp], #4
 128              	.L9:
 129              		.align	2
 130              	.L8:
 131 0058 00000000 		.word	__stack_chk_guard
 132              		.cfi_endproc
 133              	.LFE257:
 134              		.size	getAllAxesGyroRaw, .-getAllAxesGyroRaw
 135              		.section	.text.getAllAxesGyro,"ax",%progbits
 136              		.align	1
 137              		.p2align 4,,15
 138              		.global	getAllAxesGyro
 139              		.syntax unified
 140              		.thumb
 141              		.thumb_func
 142              		.fpu fpv4-sp-d16
 143              		.type	getAllAxesGyro, %function
 144              	getAllAxesGyro:
 145              	.LFB258:
 146              		.loc 1 43 0
 147              		.cfi_startproc
 148              		@ args = 0, pretend = 0, frame = 32
 149              		@ frame_needed = 0, uses_anonymous_args = 0
 150 0000 10B5     		push	{r4, lr}
 151              		.cfi_def_cfa_offset 8
 152              		.cfi_offset 4, -8
 153              		.cfi_offset 14, -4
 154 0002 88B0     		sub	sp, sp, #32
 155              		.cfi_def_cfa_offset 40
 156 0004 0390     		str	r0, [sp, #12]
 157 0006 0291     		str	r1, [sp, #8]
 158 0008 0192     		str	r2, [sp, #4]
 159              		.loc 1 43 0
 160 000a 174B     		ldr	r3, .L12
 161 000c 1B68     		ldr	r3, [r3]
 162 000e 0793     		str	r3, [sp, #28]
 163              		.loc 1 45 0
 164 0010 05AB     		add	r3, sp, #20
 165 0012 1846     		mov	r0, r3
 166 0014 FFF7FEFF 		bl	get_gyro_all
 167              		.loc 1 46 0
 168 0018 0120     		movs	r0, #1
 169 001a FFF7FEFF 		bl	get_gyro_offset
 170 001e 0346     		mov	r3, r0
 171 0020 1A46     		mov	r2, r3
ARM GAS  C:\Users\Moi\AppData\Local\Temp\ccrR8U1A.s 			page 4


 172 0022 BDF91630 		ldrsh	r3, [sp, #22]
 173 0026 D21A     		subs	r2, r2, r3
 174 0028 039B     		ldr	r3, [sp, #12]
 175 002a 1A60     		str	r2, [r3]
 176              		.loc 1 47 0
 177 002c BDF91430 		ldrsh	r3, [sp, #20]
 178 0030 1C46     		mov	r4, r3
 179 0032 0020     		movs	r0, #0
 180 0034 FFF7FEFF 		bl	get_gyro_offset
 181 0038 0346     		mov	r3, r0
 182 003a E21A     		subs	r2, r4, r3
 183 003c 029B     		ldr	r3, [sp, #8]
 184 003e 1A60     		str	r2, [r3]
 185              		.loc 1 48 0
 186 0040 BDF91830 		ldrsh	r3, [sp, #24]
 187 0044 1C46     		mov	r4, r3
 188 0046 0220     		movs	r0, #2
 189 0048 FFF7FEFF 		bl	get_gyro_offset
 190 004c 0346     		mov	r3, r0
 191 004e E21A     		subs	r2, r4, r3
 192 0050 019B     		ldr	r3, [sp, #4]
 193 0052 1A60     		str	r2, [r3]
 194              		.loc 1 49 0
 195 0054 00BF     		nop
 196 0056 044B     		ldr	r3, .L12
 197 0058 079A     		ldr	r2, [sp, #28]
 198 005a 1B68     		ldr	r3, [r3]
 199 005c 9A42     		cmp	r2, r3
 200 005e 01D0     		beq	.L11
 201 0060 FFF7FEFF 		bl	__stack_chk_fail
 202              	.L11:
 203 0064 08B0     		add	sp, sp, #32
 204              		.cfi_def_cfa_offset 8
 205              		@ sp needed
 206 0066 10BD     		pop	{r4, pc}
 207              	.L13:
 208              		.align	2
 209              	.L12:
 210 0068 00000000 		.word	__stack_chk_guard
 211              		.cfi_endproc
 212              	.LFE258:
 213              		.size	getAllAxesGyro, .-getAllAxesGyro
 214              		.section	.text.getXAxisGyro,"ax",%progbits
 215              		.align	1
 216              		.p2align 4,,15
 217              		.global	getXAxisGyro
 218              		.syntax unified
 219              		.thumb
 220              		.thumb_func
 221              		.fpu fpv4-sp-d16
 222              		.type	getXAxisGyro, %function
 223              	getXAxisGyro:
 224              	.LFB259:
 225              		.loc 1 51 0
 226              		.cfi_startproc
 227              		@ args = 0, pretend = 0, frame = 8
 228              		@ frame_needed = 0, uses_anonymous_args = 0
ARM GAS  C:\Users\Moi\AppData\Local\Temp\ccrR8U1A.s 			page 5


 229 0000 10B5     		push	{r4, lr}
 230              		.cfi_def_cfa_offset 8
 231              		.cfi_offset 4, -8
 232              		.cfi_offset 14, -4
 233 0002 82B0     		sub	sp, sp, #8
 234              		.cfi_def_cfa_offset 16
 235              		.loc 1 51 0
 236 0004 0B4B     		ldr	r3, .L17
 237 0006 1B68     		ldr	r3, [r3]
 238 0008 0193     		str	r3, [sp, #4]
 239              		.loc 1 52 0
 240 000a 0120     		movs	r0, #1
 241 000c FFF7FEFF 		bl	get_gyro_offset
 242 0010 0346     		mov	r3, r0
 243 0012 1C46     		mov	r4, r3
 244 0014 0120     		movs	r0, #1
 245 0016 FFF7FEFF 		bl	get_gyro
 246 001a 0346     		mov	r3, r0
 247 001c E31A     		subs	r3, r4, r3
 248              		.loc 1 53 0
 249 001e 1846     		mov	r0, r3
 250 0020 044B     		ldr	r3, .L17
 251 0022 019A     		ldr	r2, [sp, #4]
 252 0024 1B68     		ldr	r3, [r3]
 253 0026 9A42     		cmp	r2, r3
 254 0028 01D0     		beq	.L16
 255 002a FFF7FEFF 		bl	__stack_chk_fail
 256              	.L16:
 257 002e 02B0     		add	sp, sp, #8
 258              		.cfi_def_cfa_offset 8
 259              		@ sp needed
 260 0030 10BD     		pop	{r4, pc}
 261              	.L18:
 262 0032 00BF     		.align	2
 263              	.L17:
 264 0034 00000000 		.word	__stack_chk_guard
 265              		.cfi_endproc
 266              	.LFE259:
 267              		.size	getXAxisGyro, .-getXAxisGyro
 268              		.section	.text.getYAxisGyro,"ax",%progbits
 269              		.align	1
 270              		.p2align 4,,15
 271              		.global	getYAxisGyro
 272              		.syntax unified
 273              		.thumb
 274              		.thumb_func
 275              		.fpu fpv4-sp-d16
 276              		.type	getYAxisGyro, %function
 277              	getYAxisGyro:
 278              	.LFB260:
 279              		.loc 1 55 0
 280              		.cfi_startproc
 281              		@ args = 0, pretend = 0, frame = 8
 282              		@ frame_needed = 0, uses_anonymous_args = 0
 283 0000 10B5     		push	{r4, lr}
 284              		.cfi_def_cfa_offset 8
 285              		.cfi_offset 4, -8
ARM GAS  C:\Users\Moi\AppData\Local\Temp\ccrR8U1A.s 			page 6


 286              		.cfi_offset 14, -4
 287 0002 82B0     		sub	sp, sp, #8
 288              		.cfi_def_cfa_offset 16
 289              		.loc 1 55 0
 290 0004 0B4B     		ldr	r3, .L22
 291 0006 1B68     		ldr	r3, [r3]
 292 0008 0193     		str	r3, [sp, #4]
 293              		.loc 1 56 0
 294 000a 0020     		movs	r0, #0
 295 000c FFF7FEFF 		bl	get_gyro
 296 0010 0346     		mov	r3, r0
 297 0012 1C46     		mov	r4, r3
 298 0014 0020     		movs	r0, #0
 299 0016 FFF7FEFF 		bl	get_gyro_offset
 300 001a 0346     		mov	r3, r0
 301 001c E31A     		subs	r3, r4, r3
 302              		.loc 1 57 0
 303 001e 1846     		mov	r0, r3
 304 0020 044B     		ldr	r3, .L22
 305 0022 019A     		ldr	r2, [sp, #4]
 306 0024 1B68     		ldr	r3, [r3]
 307 0026 9A42     		cmp	r2, r3
 308 0028 01D0     		beq	.L21
 309 002a FFF7FEFF 		bl	__stack_chk_fail
 310              	.L21:
 311 002e 02B0     		add	sp, sp, #8
 312              		.cfi_def_cfa_offset 8
 313              		@ sp needed
 314 0030 10BD     		pop	{r4, pc}
 315              	.L23:
 316 0032 00BF     		.align	2
 317              	.L22:
 318 0034 00000000 		.word	__stack_chk_guard
 319              		.cfi_endproc
 320              	.LFE260:
 321              		.size	getYAxisGyro, .-getYAxisGyro
 322              		.section	.text.getZAxisGyro,"ax",%progbits
 323              		.align	1
 324              		.p2align 4,,15
 325              		.global	getZAxisGyro
 326              		.syntax unified
 327              		.thumb
 328              		.thumb_func
 329              		.fpu fpv4-sp-d16
 330              		.type	getZAxisGyro, %function
 331              	getZAxisGyro:
 332              	.LFB261:
 333              		.loc 1 59 0
 334              		.cfi_startproc
 335              		@ args = 0, pretend = 0, frame = 8
 336              		@ frame_needed = 0, uses_anonymous_args = 0
 337 0000 10B5     		push	{r4, lr}
 338              		.cfi_def_cfa_offset 8
 339              		.cfi_offset 4, -8
 340              		.cfi_offset 14, -4
 341 0002 82B0     		sub	sp, sp, #8
 342              		.cfi_def_cfa_offset 16
ARM GAS  C:\Users\Moi\AppData\Local\Temp\ccrR8U1A.s 			page 7


 343              		.loc 1 59 0
 344 0004 0B4B     		ldr	r3, .L27
 345 0006 1B68     		ldr	r3, [r3]
 346 0008 0193     		str	r3, [sp, #4]
 347              		.loc 1 60 0
 348 000a 0220     		movs	r0, #2
 349 000c FFF7FEFF 		bl	get_gyro
 350 0010 0346     		mov	r3, r0
 351 0012 1C46     		mov	r4, r3
 352 0014 0220     		movs	r0, #2
 353 0016 FFF7FEFF 		bl	get_gyro_offset
 354 001a 0346     		mov	r3, r0
 355 001c E31A     		subs	r3, r4, r3
 356              		.loc 1 61 0
 357 001e 1846     		mov	r0, r3
 358 0020 044B     		ldr	r3, .L27
 359 0022 019A     		ldr	r2, [sp, #4]
 360 0024 1B68     		ldr	r3, [r3]
 361 0026 9A42     		cmp	r2, r3
 362 0028 01D0     		beq	.L26
 363 002a FFF7FEFF 		bl	__stack_chk_fail
 364              	.L26:
 365 002e 02B0     		add	sp, sp, #8
 366              		.cfi_def_cfa_offset 8
 367              		@ sp needed
 368 0030 10BD     		pop	{r4, pc}
 369              	.L28:
 370 0032 00BF     		.align	2
 371              	.L27:
 372 0034 00000000 		.word	__stack_chk_guard
 373              		.cfi_endproc
 374              	.LFE261:
 375              		.size	getZAxisGyro, .-getZAxisGyro
 376              		.section	.text.getTemperature,"ax",%progbits
 377              		.align	1
 378              		.p2align 4,,15
 379              		.global	getTemperature
 380              		.syntax unified
 381              		.thumb
 382              		.thumb_func
 383              		.fpu fpv4-sp-d16
 384              		.type	getTemperature, %function
 385              	getTemperature:
 386              	.LFB262:
 387              		.loc 1 63 0
 388              		.cfi_startproc
 389              		@ args = 0, pretend = 0, frame = 16
 390              		@ frame_needed = 0, uses_anonymous_args = 0
 391 0000 00B5     		push	{lr}
 392              		.cfi_def_cfa_offset 4
 393              		.cfi_offset 14, -4
 394 0002 85B0     		sub	sp, sp, #20
 395              		.cfi_def_cfa_offset 24
 396              		.loc 1 63 0
 397 0004 0C4B     		ldr	r3, .L32
 398 0006 1B68     		ldr	r3, [r3]
 399 0008 0393     		str	r3, [sp, #12]
ARM GAS  C:\Users\Moi\AppData\Local\Temp\ccrR8U1A.s 			page 8


 400              		.loc 1 64 0
 401 000a FFF7FEFF 		bl	get_temperature
 402 000e F0EE407A 		vmov.f32	s15, s0
 403 0012 FDEEE77A 		vcvt.s32.f32	s15, s15
 404 0016 CDED017A 		vstr.32	s15, [sp, #4]	@ int
 405 001a 9DF80430 		ldrb	r3, [sp, #4]
 406 001e 5BB2     		sxtb	r3, r3
 407              		.loc 1 65 0
 408 0020 1846     		mov	r0, r3
 409 0022 054B     		ldr	r3, .L32
 410 0024 039A     		ldr	r2, [sp, #12]
 411 0026 1B68     		ldr	r3, [r3]
 412 0028 9A42     		cmp	r2, r3
 413 002a 01D0     		beq	.L31
 414 002c FFF7FEFF 		bl	__stack_chk_fail
 415              	.L31:
 416 0030 05B0     		add	sp, sp, #20
 417              		.cfi_def_cfa_offset 4
 418              		@ sp needed
 419 0032 5DF804FB 		ldr	pc, [sp], #4
 420              	.L33:
 421 0036 00BF     		.align	2
 422              	.L32:
 423 0038 00000000 		.word	__stack_chk_guard
 424              		.cfi_endproc
 425              	.LFE262:
 426              		.size	getTemperature, .-getTemperature
 427              		.section	.text.calibrateGyroscope,"ax",%progbits
 428              		.align	1
 429              		.p2align 4,,15
 430              		.global	calibrateGyroscope
 431              		.syntax unified
 432              		.thumb
 433              		.thumb_func
 434              		.fpu fpv4-sp-d16
 435              		.type	calibrateGyroscope, %function
 436              	calibrateGyroscope:
 437              	.LFB263:
 438              		.loc 1 67 0
 439              		.cfi_startproc
 440              		@ args = 0, pretend = 0, frame = 16
 441              		@ frame_needed = 0, uses_anonymous_args = 0
 442 0000 00B5     		push	{lr}
 443              		.cfi_def_cfa_offset 4
 444              		.cfi_offset 14, -4
 445 0002 85B0     		sub	sp, sp, #20
 446              		.cfi_def_cfa_offset 24
 447 0004 0190     		str	r0, [sp, #4]
 448              		.loc 1 67 0
 449 0006 084B     		ldr	r3, .L36
 450 0008 1B68     		ldr	r3, [r3]
 451 000a 0393     		str	r3, [sp, #12]
 452              		.loc 1 69 0
 453 000c FFF7FEFF 		bl	calibrate_gyro
 454              		.loc 1 70 0
 455 0010 00BF     		nop
 456 0012 054B     		ldr	r3, .L36
ARM GAS  C:\Users\Moi\AppData\Local\Temp\ccrR8U1A.s 			page 9


 457 0014 039A     		ldr	r2, [sp, #12]
 458 0016 1B68     		ldr	r3, [r3]
 459 0018 9A42     		cmp	r2, r3
 460 001a 01D0     		beq	.L35
 461 001c FFF7FEFF 		bl	__stack_chk_fail
 462              	.L35:
 463 0020 05B0     		add	sp, sp, #20
 464              		.cfi_def_cfa_offset 4
 465              		@ sp needed
 466 0022 5DF804FB 		ldr	pc, [sp], #4
 467              	.L37:
 468 0026 00BF     		.align	2
 469              	.L36:
 470 0028 00000000 		.word	__stack_chk_guard
 471              		.cfi_endproc
 472              	.LFE263:
 473              		.size	calibrateGyroscope, .-calibrateGyroscope
 474              		.section	.text.rawToDps,"ax",%progbits
 475              		.align	1
 476              		.p2align 4,,15
 477              		.global	rawToDps
 478              		.syntax unified
 479              		.thumb
 480              		.thumb_func
 481              		.fpu fpv4-sp-d16
 482              		.type	rawToDps, %function
 483              	rawToDps:
 484              	.LFB264:
 485              		.loc 1 77 0
 486              		.cfi_startproc
 487              		@ args = 0, pretend = 0, frame = 16
 488              		@ frame_needed = 0, uses_anonymous_args = 0
 489 0000 00B5     		push	{lr}
 490              		.cfi_def_cfa_offset 4
 491              		.cfi_offset 14, -4
 492 0002 85B0     		sub	sp, sp, #20
 493              		.cfi_def_cfa_offset 24
 494 0004 0190     		str	r0, [sp, #4]
 495              		.loc 1 77 0
 496 0006 0C4B     		ldr	r3, .L41
 497 0008 1B68     		ldr	r3, [r3]
 498 000a 0393     		str	r3, [sp, #12]
 499              		.loc 1 80 0
 500 000c 019B     		ldr	r3, [sp, #4]
 501 000e 07EE903A 		vmov	s15, r3	@ int
 502 0012 F8EEE77A 		vcvt.f32.s32	s15, s15
 503 0016 9FED097A 		vldr.32	s14, .L41+4
 504 001a 67EE877A 		vmul.f32	s15, s15, s14
 505              		.loc 1 81 0
 506 001e B0EE670A 		vmov.f32	s0, s15
 507 0022 054B     		ldr	r3, .L41
 508 0024 039A     		ldr	r2, [sp, #12]
 509 0026 1B68     		ldr	r3, [r3]
 510 0028 9A42     		cmp	r2, r3
 511 002a 01D0     		beq	.L40
 512 002c FFF7FEFF 		bl	__stack_chk_fail
 513              	.L40:
ARM GAS  C:\Users\Moi\AppData\Local\Temp\ccrR8U1A.s 			page 10


 514 0030 05B0     		add	sp, sp, #20
 515              		.cfi_def_cfa_offset 4
 516              		@ sp needed
 517 0032 5DF804FB 		ldr	pc, [sp], #4
 518              	.L42:
 519 0036 00BF     		.align	2
 520              	.L41:
 521 0038 00000000 		.word	__stack_chk_guard
 522 003c 2D23FA3B 		.word	1006248749
 523              		.cfi_endproc
 524              	.LFE264:
 525              		.size	rawToDps, .-rawToDps
 526              		.section	.text.rawToDpms,"ax",%progbits
 527              		.align	1
 528              		.p2align 4,,15
 529              		.global	rawToDpms
 530              		.syntax unified
 531              		.thumb
 532              		.thumb_func
 533              		.fpu fpv4-sp-d16
 534              		.type	rawToDpms, %function
 535              	rawToDpms:
 536              	.LFB265:
 537              		.loc 1 88 0
 538              		.cfi_startproc
 539              		@ args = 0, pretend = 0, frame = 16
 540              		@ frame_needed = 0, uses_anonymous_args = 0
 541 0000 00B5     		push	{lr}
 542              		.cfi_def_cfa_offset 4
 543              		.cfi_offset 14, -4
 544 0002 85B0     		sub	sp, sp, #20
 545              		.cfi_def_cfa_offset 24
 546 0004 0190     		str	r0, [sp, #4]
 547              		.loc 1 88 0
 548 0006 0F4B     		ldr	r3, .L46
 549 0008 1B68     		ldr	r3, [r3]
 550 000a 0393     		str	r3, [sp, #12]
 551              		.loc 1 89 0
 552 000c 019B     		ldr	r3, [sp, #4]
 553 000e 07EE903A 		vmov	s15, r3	@ int
 554 0012 F8EEE77A 		vcvt.f32.s32	s15, s15
 555 0016 9FED0C7A 		vldr.32	s14, .L46+4
 556 001a 67EE877A 		vmul.f32	s15, s15, s14
 557 001e 9FED0B7A 		vldr.32	s14, .L46+8
 558 0022 C7EE876A 		vdiv.f32	s13, s15, s14
 559 0026 F0EE667A 		vmov.f32	s15, s13
 560              		.loc 1 90 0
 561 002a B0EE670A 		vmov.f32	s0, s15
 562 002e 054B     		ldr	r3, .L46
 563 0030 039A     		ldr	r2, [sp, #12]
 564 0032 1B68     		ldr	r3, [r3]
 565 0034 9A42     		cmp	r2, r3
 566 0036 01D0     		beq	.L45
 567 0038 FFF7FEFF 		bl	__stack_chk_fail
 568              	.L45:
 569 003c 05B0     		add	sp, sp, #20
 570              		.cfi_def_cfa_offset 4
ARM GAS  C:\Users\Moi\AppData\Local\Temp\ccrR8U1A.s 			page 11


 571              		@ sp needed
 572 003e 5DF804FB 		ldr	pc, [sp], #4
 573              	.L47:
 574 0042 00BF     		.align	2
 575              	.L46:
 576 0044 00000000 		.word	__stack_chk_guard
 577 0048 2D23FA3B 		.word	1006248749
 578 004c 00007A44 		.word	1148846080
 579              		.cfi_endproc
 580              	.LFE265:
 581              		.size	rawToDpms, .-rawToDpms
 582              		.text
 583              	.Letext0:
 584              		.file 2 "c:\\users\\moi\\documents\\_microinfo\\epuck-eclipse\\tools\\gcc-arm-none-eabi-7-2017-q4-
 585              		.file 3 "c:\\users\\moi\\documents\\_microinfo\\epuck-eclipse\\tools\\gcc-arm-none-eabi-7-2017-q4-
 586              		.file 4 "c:\\users\\moi\\documents\\_microinfo\\epuck-eclipse\\tools\\gcc-arm-none-eabi-7-2017-q4-
 587              		.file 5 "..//ChibiOS//os/rt/ports/ARMCMx/compilers/GCC/chtypes.h"
 588              		.file 6 "..//ChibiOS//os/rt/include/chsystypes.h"
 589              		.file 7 "..//ChibiOS//os/rt/include/chschd.h"
 590              		.file 8 "..//ChibiOS//os/ext/CMSIS/include/core_cm4.h"
 591              		.file 9 "..//ChibiOS//os/ext/CMSIS/ST/system_stm32f4xx.h"
 592              		.file 10 "..//ChibiOS//os/ext/CMSIS/ST/stm32f407xx.h"
 593              		.file 11 "..//ChibiOS//os/rt/ports/ARMCMx/chcore.h"
 594              		.file 12 "..//ChibiOS//os/rt/ports/ARMCMx/chcore_v7m.h"
 595              		.file 13 "..//ChibiOS//os/rt/include/chdebug.h"
 596              		.file 14 "..//ChibiOS//os/rt/include/chtm.h"
 597              		.file 15 "..//ChibiOS//os/rt/include/chstats.h"
 598              		.file 16 "..//ChibiOS//os/rt/include/chsem.h"
 599              		.file 17 "..//ChibiOS//os/rt/include/chmtx.h"
 600              		.file 18 "..//ChibiOS//os/rt/include/chregistry.h"
 601              		.file 19 "..//ChibiOS//os/rt/include/chevents.h"
 602              		.file 20 "..//ChibiOS//os/rt/include/chqueues.h"
 603              		.file 21 "..//ChibiOS//os/hal/ports/STM32/STM32F4xx/stm32_dma.h"
 604              		.file 22 "..//ChibiOS//os/hal/include/hal_ioblock.h"
 605              		.file 23 "..//ChibiOS//os/hal/ports/STM32/LLD/GPIOv2/pal_lld.h"
 606              		.file 24 "..//ChibiOS//os/hal/include/adc.h"
 607              		.file 25 "..//ChibiOS//os/hal/ports/STM32/STM32F4xx/adc_lld.h"
 608              		.file 26 "..//ChibiOS//os/hal/include/can.h"
 609              		.file 27 "..//ChibiOS//os/hal/ports/STM32/LLD/can_lld.h"
 610              		.file 28 "..//ChibiOS//os/hal/include/dac.h"
 611              		.file 29 "..//ChibiOS//os/hal/ports/STM32/LLD/DACv1/dac_lld.h"
 612              		.file 30 "..//ChibiOS//os/hal/include/ext.h"
 613              		.file 31 "..//ChibiOS//os/hal/ports/STM32/LLD/ext_lld.h"
 614              		.file 32 "..//ChibiOS//os/hal/include/gpt.h"
 615              		.file 33 "..//ChibiOS//os/hal/ports/STM32/LLD/TIMv1/gpt_lld.h"
 616              		.file 34 "..//ChibiOS//os/hal/ports/STM32/LLD/TIMv1/stm32_tim.h"
 617              		.file 35 "..//ChibiOS//os/hal/include/i2c.h"
 618              		.file 36 "..//ChibiOS//os/hal/ports/STM32/LLD/I2Cv1/i2c_lld.h"
 619              		.file 37 "..//ChibiOS//os/hal/include/i2s.h"
 620              		.file 38 "..//ChibiOS//os/hal/ports/STM32/LLD/SPIv1/i2s_lld.h"
 621              		.file 39 "..//ChibiOS//os/hal/include/pwm.h"
 622              		.file 40 "..//ChibiOS//os/hal/ports/STM32/LLD/TIMv1/pwm_lld.h"
 623              		.file 41 "..//ChibiOS//os/hal/include/serial.h"
 624              		.file 42 "..//ChibiOS//os/hal/ports/STM32/LLD/USARTv1/serial_lld.h"
 625              		.file 43 "..//ChibiOS//os/hal/include/sdc.h"
 626              		.file 44 "..//ChibiOS//os/hal/ports/STM32/LLD/sdc_lld.h"
 627              		.file 45 "..//ChibiOS//os/hal/include/spi.h"
ARM GAS  C:\Users\Moi\AppData\Local\Temp\ccrR8U1A.s 			page 12


 628              		.file 46 "..//ChibiOS//os/hal/ports/STM32/LLD/SPIv1/spi_lld.h"
 629              		.file 47 "..//ChibiOS//os/hal/include/usb.h"
 630              		.file 48 "..//ChibiOS//os/hal/ports/STM32/LLD/OTGv1/usb_lld.h"
 631              		.file 49 "..//ChibiOS//os/hal/ports/STM32/LLD/OTGv1/stm32_otg.h"