ARM GAS  C:\Users\Moi\AppData\Local\Temp\ccnyIU1q.s 			page 1


   1              		.cpu cortex-m4
   2              		.eabi_attribute 27, 1
   3              		.eabi_attribute 28, 1
   4              		.eabi_attribute 20, 1
   5              		.eabi_attribute 21, 1
   6              		.eabi_attribute 23, 3
   7              		.eabi_attribute 24, 1
   8              		.eabi_attribute 25, 1
   9              		.eabi_attribute 26, 1
  10              		.eabi_attribute 30, 2
  11              		.eabi_attribute 34, 1
  12              		.eabi_attribute 18, 4
  13              		.file	"e_uart_char.c"
  14              		.text
  15              	.Ltext0:
  16              		.cfi_sections	.debug_frame
  17              		.section	.text.e_init_uart1,"ax",%progbits
  18              		.align	1
  19              		.p2align 4,,15
  20              		.global	e_init_uart1
  21              		.syntax unified
  22              		.thumb
  23              		.thumb_func
  24              		.fpu fpv4-sp-d16
  25              		.type	e_init_uart1, %function
  26              	e_init_uart1:
  27              	.LFB256:
  28              		.file 1 "..//src/epuck1x/uart/e_uart_char.c"
  29              		.loc 1 5 0
  30              		.cfi_startproc
  31              		@ args = 0, pretend = 0, frame = 8
  32              		@ frame_needed = 0, uses_anonymous_args = 0
  33 0000 00B5     		push	{lr}
  34              		.cfi_def_cfa_offset 4
  35              		.cfi_offset 14, -4
  36 0002 064B     		ldr	r3, .L6
  37 0004 83B0     		sub	sp, sp, #12
  38              		.cfi_def_cfa_offset 16
  39              		.loc 1 5 0
  40 0006 1A68     		ldr	r2, [r3]
  41 0008 0192     		str	r2, [sp, #4]
  42              		.loc 1 7 0
  43 000a 019A     		ldr	r2, [sp, #4]
  44 000c 1B68     		ldr	r3, [r3]
  45 000e 9A42     		cmp	r2, r3
  46 0010 02D1     		bne	.L5
  47 0012 03B0     		add	sp, sp, #12
  48              		.cfi_remember_state
  49              		.cfi_def_cfa_offset 4
  50              		@ sp needed
  51 0014 5DF804FB 		ldr	pc, [sp], #4
  52              	.L5:
  53              		.cfi_restore_state
  54 0018 FFF7FEFF 		bl	__stack_chk_fail
  55              	.LVL0:
  56              	.L7:
  57              		.align	2
ARM GAS  C:\Users\Moi\AppData\Local\Temp\ccnyIU1q.s 			page 2


  58              	.L6:
  59 001c 00000000 		.word	__stack_chk_guard
  60              		.cfi_endproc
  61              	.LFE256:
  62              		.size	e_init_uart1, .-e_init_uart1
  63              		.section	.text.e_ischar_uart1,"ax",%progbits
  64              		.align	1
  65              		.p2align 4,,15
  66              		.global	e_ischar_uart1
  67              		.syntax unified
  68              		.thumb
  69              		.thumb_func
  70              		.fpu fpv4-sp-d16
  71              		.type	e_ischar_uart1, %function
  72              	e_ischar_uart1:
  73              	.LFB257:
  74              		.loc 1 11 0
  75              		.cfi_startproc
  76              		@ args = 0, pretend = 0, frame = 8
  77              		@ frame_needed = 0, uses_anonymous_args = 0
  78 0000 00B5     		push	{lr}
  79              		.cfi_def_cfa_offset 4
  80              		.cfi_offset 14, -4
  81 0002 074B     		ldr	r3, .L12
  82 0004 83B0     		sub	sp, sp, #12
  83              		.cfi_def_cfa_offset 16
  84              		.loc 1 11 0
  85 0006 1A68     		ldr	r2, [r3]
  86 0008 0192     		str	r2, [sp, #4]
  87              		.loc 1 14 0
  88 000a 019A     		ldr	r2, [sp, #4]
  89 000c 1B68     		ldr	r3, [r3]
  90 000e 9A42     		cmp	r2, r3
  91 0010 03D1     		bne	.L11
  92 0012 0020     		movs	r0, #0
  93 0014 03B0     		add	sp, sp, #12
  94              		.cfi_remember_state
  95              		.cfi_def_cfa_offset 4
  96              		@ sp needed
  97 0016 5DF804FB 		ldr	pc, [sp], #4
  98              	.L11:
  99              		.cfi_restore_state
 100 001a FFF7FEFF 		bl	__stack_chk_fail
 101              	.LVL1:
 102              	.L13:
 103 001e 00BF     		.align	2
 104              	.L12:
 105 0020 00000000 		.word	__stack_chk_guard
 106              		.cfi_endproc
 107              	.LFE257:
 108              		.size	e_ischar_uart1, .-e_ischar_uart1
 109              		.section	.text.e_getchar_uart1,"ax",%progbits
 110              		.align	1
 111              		.p2align 4,,15
 112              		.global	e_getchar_uart1
 113              		.syntax unified
 114              		.thumb
ARM GAS  C:\Users\Moi\AppData\Local\Temp\ccnyIU1q.s 			page 3


 115              		.thumb_func
 116              		.fpu fpv4-sp-d16
 117              		.type	e_getchar_uart1, %function
 118              	e_getchar_uart1:
 119              	.LFB258:
 120              		.loc 1 16 0
 121              		.cfi_startproc
 122              		@ args = 0, pretend = 0, frame = 8
 123              		@ frame_needed = 0, uses_anonymous_args = 0
 124              	.LVL2:
 125 0000 10B5     		push	{r4, lr}
 126              		.cfi_def_cfa_offset 8
 127              		.cfi_offset 4, -8
 128              		.cfi_offset 14, -4
 129 0002 0A4B     		ldr	r3, .L19
 130 0004 82B0     		sub	sp, sp, #8
 131              		.cfi_def_cfa_offset 16
 132              		.loc 1 16 0
 133 0006 1A68     		ldr	r2, [r3]
 134 0008 0192     		str	r2, [sp, #4]
 135              		.loc 1 17 0
 136 000a 019A     		ldr	r2, [sp, #4]
 137 000c 1B68     		ldr	r3, [r3]
 138 000e 9A42     		cmp	r2, r3
 139 0010 0AD1     		bne	.L18
 140 0012 074B     		ldr	r3, .L19+4
 141 0014 1A68     		ldr	r2, [r3]
 142 0016 5468     		ldr	r4, [r2, #4]
 143 0018 0146     		mov	r1, r0
 144 001a 0122     		movs	r2, #1
 145 001c 1846     		mov	r0, r3
 146              	.LVL3:
 147 001e 2346     		mov	r3, r4
 148              		.loc 1 27 0
 149 0020 02B0     		add	sp, sp, #8
 150              		.cfi_remember_state
 151              		.cfi_def_cfa_offset 8
 152              		@ sp needed
 153 0022 BDE81040 		pop	{r4, lr}
 154              		.cfi_restore 14
 155              		.cfi_restore 4
 156              		.cfi_def_cfa_offset 0
 157              		.loc 1 17 0
 158 0026 1847     		bx	r3
 159              	.LVL4:
 160              	.L18:
 161              		.cfi_restore_state
 162 0028 FFF7FEFF 		bl	__stack_chk_fail
 163              	.LVL5:
 164              	.L20:
 165              		.align	2
 166              	.L19:
 167 002c 00000000 		.word	__stack_chk_guard
 168 0030 00000000 		.word	SD3
 169              		.cfi_endproc
 170              	.LFE258:
 171              		.size	e_getchar_uart1, .-e_getchar_uart1
ARM GAS  C:\Users\Moi\AppData\Local\Temp\ccnyIU1q.s 			page 4


 172              		.section	.text.e_send_uart1_char,"ax",%progbits
 173              		.align	1
 174              		.p2align 4,,15
 175              		.global	e_send_uart1_char
 176              		.syntax unified
 177              		.thumb
 178              		.thumb_func
 179              		.fpu fpv4-sp-d16
 180              		.type	e_send_uart1_char, %function
 181              	e_send_uart1_char:
 182              	.LFB259:
 183              		.loc 1 29 0
 184              		.cfi_startproc
 185              		@ args = 0, pretend = 0, frame = 8
 186              		@ frame_needed = 0, uses_anonymous_args = 0
 187              	.LVL6:
 188 0000 10B5     		push	{r4, lr}
 189              		.cfi_def_cfa_offset 8
 190              		.cfi_offset 4, -8
 191              		.cfi_offset 14, -4
 192 0002 0A4B     		ldr	r3, .L26
 193 0004 82B0     		sub	sp, sp, #8
 194              		.cfi_def_cfa_offset 16
 195              		.loc 1 29 0
 196 0006 1A68     		ldr	r2, [r3]
 197 0008 0192     		str	r2, [sp, #4]
 198              		.loc 1 30 0
 199 000a 019C     		ldr	r4, [sp, #4]
 200 000c 1B68     		ldr	r3, [r3]
 201 000e 9C42     		cmp	r4, r3
 202 0010 0AD1     		bne	.L25
 203 0012 074B     		ldr	r3, .L26+4
 204 0014 1C68     		ldr	r4, [r3]
 205 0016 2468     		ldr	r4, [r4]
 206 0018 0A46     		mov	r2, r1
 207 001a 0146     		mov	r1, r0
 208              	.LVL7:
 209 001c 1846     		mov	r0, r3
 210              	.LVL8:
 211 001e 2346     		mov	r3, r4
 212              		.loc 1 36 0
 213 0020 02B0     		add	sp, sp, #8
 214              		.cfi_remember_state
 215              		.cfi_def_cfa_offset 8
 216              		@ sp needed
 217 0022 BDE81040 		pop	{r4, lr}
 218              		.cfi_restore 14
 219              		.cfi_restore 4
 220              		.cfi_def_cfa_offset 0
 221              		.loc 1 30 0
 222 0026 1847     		bx	r3
 223              	.LVL9:
 224              	.L25:
 225              		.cfi_restore_state
 226 0028 FFF7FEFF 		bl	__stack_chk_fail
 227              	.LVL10:
 228              	.L27:
ARM GAS  C:\Users\Moi\AppData\Local\Temp\ccnyIU1q.s 			page 5


 229              		.align	2
 230              	.L26:
 231 002c 00000000 		.word	__stack_chk_guard
 232 0030 00000000 		.word	SD3
 233              		.cfi_endproc
 234              	.LFE259:
 235              		.size	e_send_uart1_char, .-e_send_uart1_char
 236              		.section	.text.e_uart1_sending,"ax",%progbits
 237              		.align	1
 238              		.p2align 4,,15
 239              		.global	e_uart1_sending
 240              		.syntax unified
 241              		.thumb
 242              		.thumb_func
 243              		.fpu fpv4-sp-d16
 244              		.type	e_uart1_sending, %function
 245              	e_uart1_sending:
 246              	.LFB267:
 247              		.cfi_startproc
 248              		@ args = 0, pretend = 0, frame = 8
 249              		@ frame_needed = 0, uses_anonymous_args = 0
 250 0000 00B5     		push	{lr}
 251              		.cfi_def_cfa_offset 4
 252              		.cfi_offset 14, -4
 253 0002 074B     		ldr	r3, .L32
 254 0004 83B0     		sub	sp, sp, #12
 255              		.cfi_def_cfa_offset 16
 256 0006 1A68     		ldr	r2, [r3]
 257 0008 0192     		str	r2, [sp, #4]
 258 000a 019A     		ldr	r2, [sp, #4]
 259 000c 1B68     		ldr	r3, [r3]
 260 000e 9A42     		cmp	r2, r3
 261 0010 03D1     		bne	.L31
 262 0012 0020     		movs	r0, #0
 263 0014 03B0     		add	sp, sp, #12
 264              		.cfi_remember_state
 265              		.cfi_def_cfa_offset 4
 266              		@ sp needed
 267 0016 5DF804FB 		ldr	pc, [sp], #4
 268              	.L31:
 269              		.cfi_restore_state
 270 001a FFF7FEFF 		bl	__stack_chk_fail
 271              	.L33:
 272 001e 00BF     		.align	2
 273              	.L32:
 274 0020 00000000 		.word	__stack_chk_guard
 275              		.cfi_endproc
 276              	.LFE267:
 277              		.size	e_uart1_sending, .-e_uart1_sending
 278              		.section	.text.e_init_uart2,"ax",%progbits
 279              		.align	1
 280              		.p2align 4,,15
 281              		.global	e_init_uart2
 282              		.syntax unified
 283              		.thumb
 284              		.thumb_func
 285              		.fpu fpv4-sp-d16
ARM GAS  C:\Users\Moi\AppData\Local\Temp\ccnyIU1q.s 			page 6


 286              		.type	e_init_uart2, %function
 287              	e_init_uart2:
 288              	.LFB261:
 289              		.loc 1 46 0
 290              		.cfi_startproc
 291              		@ args = 0, pretend = 0, frame = 8
 292              		@ frame_needed = 0, uses_anonymous_args = 0
 293              	.LVL11:
 294              		.loc 1 46 0
 295 0000 00B5     		push	{lr}
 296              		.cfi_def_cfa_offset 4
 297              		.cfi_offset 14, -4
 298 0002 064B     		ldr	r3, .L38
 299 0004 83B0     		sub	sp, sp, #12
 300              		.cfi_def_cfa_offset 16
 301              		.loc 1 46 0
 302 0006 1A68     		ldr	r2, [r3]
 303 0008 0192     		str	r2, [sp, #4]
 304              		.loc 1 49 0
 305 000a 019A     		ldr	r2, [sp, #4]
 306 000c 1B68     		ldr	r3, [r3]
 307 000e 9A42     		cmp	r2, r3
 308 0010 02D1     		bne	.L37
 309 0012 03B0     		add	sp, sp, #12
 310              		.cfi_remember_state
 311              		.cfi_def_cfa_offset 4
 312              		@ sp needed
 313 0014 5DF804FB 		ldr	pc, [sp], #4
 314              	.L37:
 315              		.cfi_restore_state
 316 0018 FFF7FEFF 		bl	__stack_chk_fail
 317              	.LVL12:
 318              	.L39:
 319              		.align	2
 320              	.L38:
 321 001c 00000000 		.word	__stack_chk_guard
 322              		.cfi_endproc
 323              	.LFE261:
 324              		.size	e_init_uart2, .-e_init_uart2
 325              		.section	.text.e_ischar_uart2,"ax",%progbits
 326              		.align	1
 327              		.p2align 4,,15
 328              		.global	e_ischar_uart2
 329              		.syntax unified
 330              		.thumb
 331              		.thumb_func
 332              		.fpu fpv4-sp-d16
 333              		.type	e_ischar_uart2, %function
 334              	e_ischar_uart2:
 335              	.LFB269:
 336              		.cfi_startproc
 337              		@ args = 0, pretend = 0, frame = 8
 338              		@ frame_needed = 0, uses_anonymous_args = 0
 339 0000 00B5     		push	{lr}
 340              		.cfi_def_cfa_offset 4
 341              		.cfi_offset 14, -4
 342 0002 074B     		ldr	r3, .L44
ARM GAS  C:\Users\Moi\AppData\Local\Temp\ccnyIU1q.s 			page 7


 343 0004 83B0     		sub	sp, sp, #12
 344              		.cfi_def_cfa_offset 16
 345 0006 1A68     		ldr	r2, [r3]
 346 0008 0192     		str	r2, [sp, #4]
 347 000a 019A     		ldr	r2, [sp, #4]
 348 000c 1B68     		ldr	r3, [r3]
 349 000e 9A42     		cmp	r2, r3
 350 0010 03D1     		bne	.L43
 351 0012 0020     		movs	r0, #0
 352 0014 03B0     		add	sp, sp, #12
 353              		.cfi_remember_state
 354              		.cfi_def_cfa_offset 4
 355              		@ sp needed
 356 0016 5DF804FB 		ldr	pc, [sp], #4
 357              	.L43:
 358              		.cfi_restore_state
 359 001a FFF7FEFF 		bl	__stack_chk_fail
 360              	.L45:
 361 001e 00BF     		.align	2
 362              	.L44:
 363 0020 00000000 		.word	__stack_chk_guard
 364              		.cfi_endproc
 365              	.LFE269:
 366              		.size	e_ischar_uart2, .-e_ischar_uart2
 367              		.section	.text.e_getchar_uart2,"ax",%progbits
 368              		.align	1
 369              		.p2align 4,,15
 370              		.global	e_getchar_uart2
 371              		.syntax unified
 372              		.thumb
 373              		.thumb_func
 374              		.fpu fpv4-sp-d16
 375              		.type	e_getchar_uart2, %function
 376              	e_getchar_uart2:
 377              	.LFB263:
 378              		.loc 1 58 0
 379              		.cfi_startproc
 380              		@ args = 0, pretend = 0, frame = 8
 381              		@ frame_needed = 0, uses_anonymous_args = 0
 382              	.LVL13:
 383              		.loc 1 59 0
 384 0000 134B     		ldr	r3, .L52
 385              		.loc 1 58 0
 386 0002 10B5     		push	{r4, lr}
 387              		.cfi_def_cfa_offset 8
 388              		.cfi_offset 4, -8
 389              		.cfi_offset 14, -4
 390              		.loc 1 59 0
 391 0004 D3F85422 		ldr	r2, [r3, #596]
 392              		.loc 1 58 0
 393 0008 124C     		ldr	r4, .L52+4
 394              		.loc 1 59 0
 395 000a 1268     		ldr	r2, [r2]
 396              		.loc 1 58 0
 397 000c 2168     		ldr	r1, [r4]
 398              		.loc 1 59 0
 399 000e 1278     		ldrb	r2, [r2]	@ zero_extendqisi2
ARM GAS  C:\Users\Moi\AppData\Local\Temp\ccnyIU1q.s 			page 8


 400              		.loc 1 58 0
 401 0010 82B0     		sub	sp, sp, #8
 402              		.cfi_def_cfa_offset 16
 403              		.loc 1 59 0
 404 0012 042A     		cmp	r2, #4
 405              		.loc 1 58 0
 406 0014 0191     		str	r1, [sp, #4]
 407              		.loc 1 59 0
 408 0016 0DD1     		bne	.L47
 409              		.loc 1 62 0
 410 0018 0199     		ldr	r1, [sp, #4]
 411 001a 2268     		ldr	r2, [r4]
 412 001c 9142     		cmp	r1, r2
 413 001e 14D1     		bne	.L51
 414 0020 1A68     		ldr	r2, [r3]
 415 0022 5468     		ldr	r4, [r2, #4]
 416 0024 0146     		mov	r1, r0
 417 0026 0122     		movs	r2, #1
 418 0028 1846     		mov	r0, r3
 419              	.LVL14:
 420 002a 2346     		mov	r3, r4
 421              		.loc 1 67 0
 422 002c 02B0     		add	sp, sp, #8
 423              		.cfi_remember_state
 424              		.cfi_def_cfa_offset 8
 425              		@ sp needed
 426 002e BDE81040 		pop	{r4, lr}
 427              		.cfi_restore 14
 428              		.cfi_restore 4
 429              		.cfi_def_cfa_offset 0
 430              		.loc 1 62 0
 431 0032 1847     		bx	r3
 432              	.LVL15:
 433              	.L47:
 434              		.cfi_restore_state
 435              		.loc 1 65 0
 436 0034 0A20     		movs	r0, #10
 437              	.LVL16:
 438 0036 FFF7FEFF 		bl	chThdSleep
 439              	.LVL17:
 440              		.loc 1 67 0
 441 003a 019A     		ldr	r2, [sp, #4]
 442 003c 2368     		ldr	r3, [r4]
 443 003e 9A42     		cmp	r2, r3
 444 0040 4FF00000 		mov	r0, #0
 445 0044 01D1     		bne	.L51
 446 0046 02B0     		add	sp, sp, #8
 447              		.cfi_remember_state
 448              		.cfi_def_cfa_offset 8
 449              		@ sp needed
 450 0048 10BD     		pop	{r4, pc}
 451              	.L51:
 452              		.cfi_restore_state
 453 004a FFF7FEFF 		bl	__stack_chk_fail
 454              	.LVL18:
 455              	.L53:
 456 004e 00BF     		.align	2
ARM GAS  C:\Users\Moi\AppData\Local\Temp\ccnyIU1q.s 			page 9


 457              	.L52:
 458 0050 00000000 		.word	SDU1
 459 0054 00000000 		.word	__stack_chk_guard
 460              		.cfi_endproc
 461              	.LFE263:
 462              		.size	e_getchar_uart2, .-e_getchar_uart2
 463              		.section	.text.e_send_uart2_char,"ax",%progbits
 464              		.align	1
 465              		.p2align 4,,15
 466              		.global	e_send_uart2_char
 467              		.syntax unified
 468              		.thumb
 469              		.thumb_func
 470              		.fpu fpv4-sp-d16
 471              		.type	e_send_uart2_char, %function
 472              	e_send_uart2_char:
 473              	.LFB264:
 474              		.loc 1 69 0
 475              		.cfi_startproc
 476              		@ args = 0, pretend = 0, frame = 8
 477              		@ frame_needed = 0, uses_anonymous_args = 0
 478              	.LVL19:
 479 0000 30B5     		push	{r4, r5, lr}
 480              		.cfi_def_cfa_offset 12
 481              		.cfi_offset 4, -12
 482              		.cfi_offset 5, -8
 483              		.cfi_offset 14, -4
 484              		.loc 1 70 0
 485 0002 104B     		ldr	r3, .L60
 486              		.loc 1 69 0
 487 0004 104C     		ldr	r4, .L60+4
 488              		.loc 1 70 0
 489 0006 D3F85422 		ldr	r2, [r3, #596]
 490              		.loc 1 69 0
 491 000a 2568     		ldr	r5, [r4]
 492              		.loc 1 70 0
 493 000c 1268     		ldr	r2, [r2]
 494              		.loc 1 69 0
 495 000e 83B0     		sub	sp, sp, #12
 496              		.cfi_def_cfa_offset 24
 497              		.loc 1 69 0
 498 0010 0195     		str	r5, [sp, #4]
 499              		.loc 1 70 0
 500 0012 1578     		ldrb	r5, [r2]	@ zero_extendqisi2
 501 0014 042D     		cmp	r5, #4
 502 0016 0DD1     		bne	.L54
 503              		.loc 1 72 0
 504 0018 019D     		ldr	r5, [sp, #4]
 505 001a 2268     		ldr	r2, [r4]
 506 001c 9542     		cmp	r5, r2
 507 001e 0FD1     		bne	.L59
 508 0020 1C68     		ldr	r4, [r3]
 509 0022 2468     		ldr	r4, [r4]
 510 0024 0A46     		mov	r2, r1
 511 0026 0146     		mov	r1, r0
 512              	.LVL20:
 513 0028 1846     		mov	r0, r3
ARM GAS  C:\Users\Moi\AppData\Local\Temp\ccnyIU1q.s 			page 10


 514              	.LVL21:
 515 002a 2346     		mov	r3, r4
 516              		.loc 1 74 0
 517 002c 03B0     		add	sp, sp, #12
 518              		.cfi_remember_state
 519              		.cfi_def_cfa_offset 12
 520              		@ sp needed
 521 002e BDE83040 		pop	{r4, r5, lr}
 522              		.cfi_restore 14
 523              		.cfi_restore 5
 524              		.cfi_restore 4
 525              		.cfi_def_cfa_offset 0
 526              		.loc 1 72 0
 527 0032 1847     		bx	r3
 528              	.LVL22:
 529              	.L54:
 530              		.cfi_restore_state
 531              		.loc 1 74 0
 532 0034 019A     		ldr	r2, [sp, #4]
 533 0036 2368     		ldr	r3, [r4]
 534 0038 9A42     		cmp	r2, r3
 535 003a 01D1     		bne	.L59
 536 003c 03B0     		add	sp, sp, #12
 537              		.cfi_remember_state
 538              		.cfi_def_cfa_offset 12
 539              		@ sp needed
 540 003e 30BD     		pop	{r4, r5, pc}
 541              	.L59:
 542              		.cfi_restore_state
 543 0040 FFF7FEFF 		bl	__stack_chk_fail
 544              	.LVL23:
 545              	.L61:
 546              		.align	2
 547              	.L60:
 548 0044 00000000 		.word	SDU1
 549 0048 00000000 		.word	__stack_chk_guard
 550              		.cfi_endproc
 551              	.LFE264:
 552              		.size	e_send_uart2_char, .-e_send_uart2_char
 553              		.section	.text.e_uart2_sending,"ax",%progbits
 554              		.align	1
 555              		.p2align 4,,15
 556              		.global	e_uart2_sending
 557              		.syntax unified
 558              		.thumb
 559              		.thumb_func
 560              		.fpu fpv4-sp-d16
 561              		.type	e_uart2_sending, %function
 562              	e_uart2_sending:
 563              	.LFB271:
 564              		.cfi_startproc
 565              		@ args = 0, pretend = 0, frame = 8
 566              		@ frame_needed = 0, uses_anonymous_args = 0
 567 0000 00B5     		push	{lr}
 568              		.cfi_def_cfa_offset 4
 569              		.cfi_offset 14, -4
 570 0002 074B     		ldr	r3, .L66
ARM GAS  C:\Users\Moi\AppData\Local\Temp\ccnyIU1q.s 			page 11


 571 0004 83B0     		sub	sp, sp, #12
 572              		.cfi_def_cfa_offset 16
 573 0006 1A68     		ldr	r2, [r3]
 574 0008 0192     		str	r2, [sp, #4]
 575 000a 019A     		ldr	r2, [sp, #4]
 576 000c 1B68     		ldr	r3, [r3]
 577 000e 9A42     		cmp	r2, r3
 578 0010 03D1     		bne	.L65
 579 0012 0020     		movs	r0, #0
 580 0014 03B0     		add	sp, sp, #12
 581              		.cfi_remember_state
 582              		.cfi_def_cfa_offset 4
 583              		@ sp needed
 584 0016 5DF804FB 		ldr	pc, [sp], #4
 585              	.L65:
 586              		.cfi_restore_state
 587 001a FFF7FEFF 		bl	__stack_chk_fail
 588              	.L67:
 589 001e 00BF     		.align	2
 590              	.L66:
 591 0020 00000000 		.word	__stack_chk_guard
 592              		.cfi_endproc
 593              	.LFE271:
 594              		.size	e_uart2_sending, .-e_uart2_sending
 595              		.text
 596              	.Letext0:
 597              		.file 2 "c:\\users\\moi\\documents\\_microinfo\\epuck-eclipse\\tools\\gcc-arm-none-eabi-7-2017-q4-
 598              		.file 3 "c:\\users\\moi\\documents\\_microinfo\\epuck-eclipse\\tools\\gcc-arm-none-eabi-7-2017-q4-
 599              		.file 4 "c:\\users\\moi\\documents\\_microinfo\\epuck-eclipse\\tools\\gcc-arm-none-eabi-7-2017-q4-
 600              		.file 5 "..//ChibiOS//os/rt/ports/ARMCMx/compilers/GCC/chtypes.h"
 601              		.file 6 "..//ChibiOS//os/rt/include/chsystypes.h"
 602              		.file 7 "..//ChibiOS//os/rt/include/chschd.h"
 603              		.file 8 "..//ChibiOS//os/ext/CMSIS/include/core_cm4.h"
 604              		.file 9 "..//ChibiOS//os/ext/CMSIS/ST/system_stm32f4xx.h"
 605              		.file 10 "..//ChibiOS//os/ext/CMSIS/ST/stm32f407xx.h"
 606              		.file 11 "..//ChibiOS//os/rt/ports/ARMCMx/chcore.h"
 607              		.file 12 "..//ChibiOS//os/rt/ports/ARMCMx/chcore_v7m.h"
 608              		.file 13 "..//ChibiOS//os/rt/include/chdebug.h"
 609              		.file 14 "..//ChibiOS//os/rt/include/chtm.h"
 610              		.file 15 "..//ChibiOS//os/rt/include/chstats.h"
 611              		.file 16 "..//ChibiOS//os/rt/include/chsem.h"
 612              		.file 17 "..//ChibiOS//os/rt/include/chmtx.h"
 613              		.file 18 "..//ChibiOS//os/rt/include/chregistry.h"
 614              		.file 19 "..//ChibiOS//os/rt/include/chevents.h"
 615              		.file 20 "..//ChibiOS//os/rt/include/chqueues.h"
 616              		.file 21 "..//ChibiOS//os/hal/ports/STM32/STM32F4xx/stm32_dma.h"
 617              		.file 22 "..//ChibiOS//os/hal/include/hal_ioblock.h"
 618              		.file 23 "..//ChibiOS//os/hal/ports/STM32/LLD/GPIOv2/pal_lld.h"
 619              		.file 24 "..//ChibiOS//os/hal/include/adc.h"
 620              		.file 25 "..//ChibiOS//os/hal/ports/STM32/STM32F4xx/adc_lld.h"
 621              		.file 26 "..//ChibiOS//os/hal/include/can.h"
 622              		.file 27 "..//ChibiOS//os/hal/ports/STM32/LLD/can_lld.h"
 623              		.file 28 "..//ChibiOS//os/hal/include/dac.h"
 624              		.file 29 "..//ChibiOS//os/hal/ports/STM32/LLD/DACv1/dac_lld.h"
 625              		.file 30 "..//ChibiOS//os/hal/include/ext.h"
 626              		.file 31 "..//ChibiOS//os/hal/ports/STM32/LLD/ext_lld.h"
 627              		.file 32 "..//ChibiOS//os/hal/include/gpt.h"
ARM GAS  C:\Users\Moi\AppData\Local\Temp\ccnyIU1q.s 			page 12


 628              		.file 33 "..//ChibiOS//os/hal/ports/STM32/LLD/TIMv1/gpt_lld.h"
 629              		.file 34 "..//ChibiOS//os/hal/ports/STM32/LLD/TIMv1/stm32_tim.h"
 630              		.file 35 "..//ChibiOS//os/hal/include/i2c.h"
 631              		.file 36 "..//ChibiOS//os/hal/ports/STM32/LLD/I2Cv1/i2c_lld.h"
 632              		.file 37 "..//ChibiOS//os/hal/include/i2s.h"
 633              		.file 38 "..//ChibiOS//os/hal/ports/STM32/LLD/SPIv1/i2s_lld.h"
 634              		.file 39 "..//ChibiOS//os/hal/include/pwm.h"
 635              		.file 40 "..//ChibiOS//os/hal/ports/STM32/LLD/TIMv1/pwm_lld.h"
 636              		.file 41 "..//ChibiOS//os/hal/include/serial.h"
 637              		.file 42 "..//ChibiOS//os/hal/ports/STM32/LLD/USARTv1/serial_lld.h"
 638              		.file 43 "..//ChibiOS//os/hal/include/sdc.h"
 639              		.file 44 "..//ChibiOS//os/hal/ports/STM32/LLD/sdc_lld.h"
 640              		.file 45 "..//ChibiOS//os/hal/include/spi.h"
 641              		.file 46 "..//ChibiOS//os/hal/ports/STM32/LLD/SPIv1/spi_lld.h"
 642              		.file 47 "..//ChibiOS//os/hal/include/usb.h"
 643              		.file 48 "..//ChibiOS//os/hal/ports/STM32/LLD/OTGv1/usb_lld.h"
 644              		.file 49 "..//ChibiOS//os/hal/ports/STM32/LLD/OTGv1/stm32_otg.h"
 645              		.file 50 "..//ChibiOS//os/hal/include/serial_usb.h"
 646              		.file 51 "..//src/epuck1x/../usbcfg.h"
 647              		.file 52 "..//ChibiOS//os/rt/include/chthreads.h"