ARM GAS  C:\Users\Moi\AppData\Local\Temp\ccKsLrPP.s 			page 1


   1              		.cpu cortex-m4
   2              		.eabi_attribute 27, 1
   3              		.eabi_attribute 28, 1
   4              		.eabi_attribute 20, 1
   5              		.eabi_attribute 21, 1
   6              		.eabi_attribute 23, 3
   7              		.eabi_attribute 24, 1
   8              		.eabi_attribute 25, 1
   9              		.eabi_attribute 26, 1
  10              		.eabi_attribute 30, 2
  11              		.eabi_attribute 34, 1
  12              		.eabi_attribute 18, 4
  13              		.file	"ext.c"
  14              		.text
  15              	.Ltext0:
  16              		.cfi_sections	.debug_frame
  17              		.section	.text.extInit,"ax",%progbits
  18              		.align	1
  19              		.p2align 4,,15
  20              		.global	extInit
  21              		.syntax unified
  22              		.thumb
  23              		.thumb_func
  24              		.fpu fpv4-sp-d16
  25              		.type	extInit, %function
  26              	extInit:
  27              	.LFB256:
  28              		.file 1 "..//ChibiOS//os/hal/src/ext.c"
  29              		.loc 1 56 0
  30              		.cfi_startproc
  31              		@ args = 0, pretend = 0, frame = 8
  32              		@ frame_needed = 0, uses_anonymous_args = 0
  33 0000 00B5     		push	{lr}
  34              		.cfi_def_cfa_offset 4
  35              		.cfi_offset 14, -4
  36 0002 074B     		ldr	r3, .L7
  37 0004 83B0     		sub	sp, sp, #12
  38              		.cfi_def_cfa_offset 16
  39              		.loc 1 56 0
  40 0006 1A68     		ldr	r2, [r3]
  41 0008 0192     		str	r2, [sp, #4]
  42              		.loc 1 58 0
  43 000a 019A     		ldr	r2, [sp, #4]
  44 000c 1B68     		ldr	r3, [r3]
  45 000e 9A42     		cmp	r2, r3
  46 0010 04D1     		bne	.L6
  47              		.loc 1 59 0
  48 0012 03B0     		add	sp, sp, #12
  49              		.cfi_remember_state
  50              		.cfi_def_cfa_offset 4
  51              		@ sp needed
  52 0014 5DF804EB 		ldr	lr, [sp], #4
  53              		.cfi_restore 14
  54              		.cfi_def_cfa_offset 0
  55              		.loc 1 58 0
  56 0018 FFF7FEBF 		b	ext_lld_init
  57              	.LVL0:
ARM GAS  C:\Users\Moi\AppData\Local\Temp\ccKsLrPP.s 			page 2


  58              	.L6:
  59              		.cfi_restore_state
  60 001c FFF7FEFF 		bl	__stack_chk_fail
  61              	.LVL1:
  62              	.L8:
  63              		.align	2
  64              	.L7:
  65 0020 00000000 		.word	__stack_chk_guard
  66              		.cfi_endproc
  67              	.LFE256:
  68              		.size	extInit, .-extInit
  69              		.section	.text.extObjectInit,"ax",%progbits
  70              		.align	1
  71              		.p2align 4,,15
  72              		.global	extObjectInit
  73              		.syntax unified
  74              		.thumb
  75              		.thumb_func
  76              		.fpu fpv4-sp-d16
  77              		.type	extObjectInit, %function
  78              	extObjectInit:
  79              	.LFB257:
  80              		.loc 1 68 0
  81              		.cfi_startproc
  82              		@ args = 0, pretend = 0, frame = 8
  83              		@ frame_needed = 0, uses_anonymous_args = 0
  84              	.LVL2:
  85 0000 10B5     		push	{r4, lr}
  86              		.cfi_def_cfa_offset 8
  87              		.cfi_offset 4, -8
  88              		.cfi_offset 14, -4
  89 0002 084B     		ldr	r3, .L13
  90 0004 82B0     		sub	sp, sp, #8
  91              		.cfi_def_cfa_offset 16
  92              		.loc 1 68 0
  93 0006 1A68     		ldr	r2, [r3]
  94 0008 0192     		str	r2, [sp, #4]
  95              		.loc 1 72 0
  96 000a 019A     		ldr	r2, [sp, #4]
  97 000c 1B68     		ldr	r3, [r3]
  98              		.loc 1 70 0
  99 000e 0124     		movs	r4, #1
 100              		.loc 1 71 0
 101 0010 0021     		movs	r1, #0
 102              		.loc 1 72 0
 103 0012 9A42     		cmp	r2, r3
 104              		.loc 1 70 0
 105 0014 0470     		strb	r4, [r0]
 106              		.loc 1 71 0
 107 0016 4160     		str	r1, [r0, #4]
 108              		.loc 1 72 0
 109 0018 01D1     		bne	.L12
 110 001a 02B0     		add	sp, sp, #8
 111              		.cfi_remember_state
 112              		.cfi_def_cfa_offset 8
 113              		@ sp needed
 114 001c 10BD     		pop	{r4, pc}
ARM GAS  C:\Users\Moi\AppData\Local\Temp\ccKsLrPP.s 			page 3


 115              	.L12:
 116              		.cfi_restore_state
 117 001e FFF7FEFF 		bl	__stack_chk_fail
 118              	.LVL3:
 119              	.L14:
 120 0022 00BF     		.align	2
 121              	.L13:
 122 0024 00000000 		.word	__stack_chk_guard
 123              		.cfi_endproc
 124              	.LFE257:
 125              		.size	extObjectInit, .-extObjectInit
 126              		.section	.text.extStart,"ax",%progbits
 127              		.align	1
 128              		.p2align 4,,15
 129              		.global	extStart
 130              		.syntax unified
 131              		.thumb
 132              		.thumb_func
 133              		.fpu fpv4-sp-d16
 134              		.type	extStart, %function
 135              	extStart:
 136              	.LFB258:
 137              		.loc 1 84 0
 138              		.cfi_startproc
 139              		@ args = 0, pretend = 0, frame = 8
 140              		@ frame_needed = 0, uses_anonymous_args = 0
 141              	.LVL4:
 142 0000 70B5     		push	{r4, r5, r6, lr}
 143              		.cfi_def_cfa_offset 16
 144              		.cfi_offset 4, -16
 145              		.cfi_offset 5, -12
 146              		.cfi_offset 6, -8
 147              		.cfi_offset 14, -4
 148 0002 1E4D     		ldr	r5, .L27
 149 0004 82B0     		sub	sp, sp, #8
 150              		.cfi_def_cfa_offset 24
 151              		.loc 1 84 0
 152 0006 2B68     		ldr	r3, [r5]
 153 0008 0193     		str	r3, [sp, #4]
 154 000a 0E46     		mov	r6, r1
 155              		.loc 1 86 0
 156 000c 0446     		mov	r4, r0
 157 000e 70B3     		cbz	r0, .L16
 158              		.loc 1 86 0 is_stmt 0 discriminator 3
 159 0010 69B3     		cbz	r1, .L16
 160              	.LVL5:
 161              	.L17:
 162              	.LBB68:
 163              	.LBB69:
 164              	.LBB70:
 165              	.LBB71:
 166              	.LBB72:
 167              	.LBB73:
 168              		.file 2 "..//ChibiOS//os/ext/CMSIS/include/core_cmFunc.h"
 169              		.loc 2 546 0 is_stmt 1
 170 0012 2023     		movs	r3, #32
 171              		.syntax unified
ARM GAS  C:\Users\Moi\AppData\Local\Temp\ccKsLrPP.s 			page 4


 172              	@ 546 "..//ChibiOS//os/ext/CMSIS/include/core_cmFunc.h" 1
 173 0014 83F31188 		MSR basepri, r3
 174              	@ 0 "" 2
 175              	.LVL6:
 176              		.thumb
 177              		.syntax unified
 178              	.LBE73:
 179              	.LBE72:
 180              	.LBE71:
 181              		.file 3 "..//ChibiOS//os/rt/include/chsys.h"
 182              		.loc 3 349 0
 183 0018 FFF7FEFF 		bl	_stats_start_measure_crit_thd
 184              	.LVL7:
 185              		.loc 3 350 0
 186 001c FFF7FEFF 		bl	_dbg_check_lock
 187              	.LVL8:
 188              	.LBE70:
 189              	.LBE69:
 190              	.LBE68:
 191              		.loc 1 89 0
 192 0020 2378     		ldrb	r3, [r4]	@ zero_extendqisi2
 193 0022 013B     		subs	r3, r3, #1
 194 0024 012B     		cmp	r3, #1
 195 0026 02D9     		bls	.L18
 196              		.loc 1 89 0 is_stmt 0 discriminator 2
 197 0028 1548     		ldr	r0, .L27+4
 198 002a FFF7FEFF 		bl	chSysHalt
 199              	.LVL9:
 200              	.L18:
 201              		.loc 1 92 0 is_stmt 1
 202 002e 2046     		mov	r0, r4
 203              		.loc 1 91 0
 204 0030 6660     		str	r6, [r4, #4]
 205              		.loc 1 92 0
 206 0032 FFF7FEFF 		bl	ext_lld_start
 207              	.LVL10:
 208              		.loc 1 93 0
 209 0036 0223     		movs	r3, #2
 210 0038 2370     		strb	r3, [r4]
 211              	.LBB74:
 212              	.LBB75:
 213              	.LBB76:
 214              		.loc 3 360 0
 215 003a FFF7FEFF 		bl	_dbg_check_unlock
 216              	.LVL11:
 217              		.loc 3 361 0
 218 003e FFF7FEFF 		bl	_stats_stop_measure_crit_thd
 219              	.LVL12:
 220              		.loc 3 367 0
 221 0042 104B     		ldr	r3, .L27+8
 222 0044 1A68     		ldr	r2, [r3]
 223 0046 9A42     		cmp	r2, r3
 224 0048 04D0     		beq	.L19
 225 004a 9969     		ldr	r1, [r3, #24]
 226 004c 9368     		ldr	r3, [r2, #8]
 227 004e 8A68     		ldr	r2, [r1, #8]
 228 0050 9A42     		cmp	r2, r3
ARM GAS  C:\Users\Moi\AppData\Local\Temp\ccKsLrPP.s 			page 5


 229 0052 08D3     		bcc	.L25
 230              	.L19:
 231              	.LVL13:
 232              	.LBB77:
 233              	.LBB78:
 234              	.LBB79:
 235              		.loc 2 546 0
 236 0054 0023     		movs	r3, #0
 237              		.syntax unified
 238              	@ 546 "..//ChibiOS//os/ext/CMSIS/include/core_cmFunc.h" 1
 239 0056 83F31188 		MSR basepri, r3
 240              	@ 0 "" 2
 241              	.LVL14:
 242              		.thumb
 243              		.syntax unified
 244              	.LBE79:
 245              	.LBE78:
 246              	.LBE77:
 247              	.LBE76:
 248              	.LBE75:
 249              	.LBE74:
 250              		.loc 1 95 0
 251 005a 019A     		ldr	r2, [sp, #4]
 252 005c 2B68     		ldr	r3, [r5]
 253 005e 9A42     		cmp	r2, r3
 254 0060 09D1     		bne	.L26
 255 0062 02B0     		add	sp, sp, #8
 256              		.cfi_remember_state
 257              		.cfi_def_cfa_offset 16
 258              		@ sp needed
 259 0064 70BD     		pop	{r4, r5, r6, pc}
 260              	.LVL15:
 261              	.L25:
 262              		.cfi_restore_state
 263              	.LBB82:
 264              	.LBB81:
 265              	.LBB80:
 266              		.loc 3 367 0
 267 0066 0848     		ldr	r0, .L27+12
 268 0068 FFF7FEFF 		bl	chSysHalt
 269              	.LVL16:
 270 006c F2E7     		b	.L19
 271              	.LVL17:
 272              	.L16:
 273              	.LBE80:
 274              	.LBE81:
 275              	.LBE82:
 276              		.loc 1 86 0 discriminator 4
 277 006e 0448     		ldr	r0, .L27+4
 278              	.LVL18:
 279 0070 FFF7FEFF 		bl	chSysHalt
 280              	.LVL19:
 281 0074 CDE7     		b	.L17
 282              	.L26:
 283              		.loc 1 95 0
 284 0076 FFF7FEFF 		bl	__stack_chk_fail
 285              	.LVL20:
ARM GAS  C:\Users\Moi\AppData\Local\Temp\ccKsLrPP.s 			page 6


 286              	.L28:
 287 007a 00BF     		.align	2
 288              	.L27:
 289 007c 00000000 		.word	__stack_chk_guard
 290 0080 00000000 		.word	.LANCHOR0
 291 0084 00000000 		.word	ch
 292 0088 00000000 		.word	.LANCHOR1
 293              		.cfi_endproc
 294              	.LFE258:
 295              		.size	extStart, .-extStart
 296              		.section	.text.extStop,"ax",%progbits
 297              		.align	1
 298              		.p2align 4,,15
 299              		.global	extStop
 300              		.syntax unified
 301              		.thumb
 302              		.thumb_func
 303              		.fpu fpv4-sp-d16
 304              		.type	extStop, %function
 305              	extStop:
 306              	.LFB259:
 307              		.loc 1 104 0
 308              		.cfi_startproc
 309              		@ args = 0, pretend = 0, frame = 8
 310              		@ frame_needed = 0, uses_anonymous_args = 0
 311              	.LVL21:
 312 0000 30B5     		push	{r4, r5, lr}
 313              		.cfi_def_cfa_offset 12
 314              		.cfi_offset 4, -12
 315              		.cfi_offset 5, -8
 316              		.cfi_offset 14, -4
 317 0002 1C4D     		ldr	r5, .L38
 318 0004 83B0     		sub	sp, sp, #12
 319              		.cfi_def_cfa_offset 24
 320              		.loc 1 104 0
 321 0006 2B68     		ldr	r3, [r5]
 322 0008 0193     		str	r3, [sp, #4]
 323              		.loc 1 106 0
 324 000a 0446     		mov	r4, r0
 325 000c 60B3     		cbz	r0, .L35
 326              	.LVL22:
 327              	.L30:
 328              	.LBB96:
 329              	.LBB97:
 330              	.LBB98:
 331              	.LBB99:
 332              	.LBB100:
 333              	.LBB101:
 334              		.loc 2 546 0
 335 000e 2023     		movs	r3, #32
 336              		.syntax unified
 337              	@ 546 "..//ChibiOS//os/ext/CMSIS/include/core_cmFunc.h" 1
 338 0010 83F31188 		MSR basepri, r3
 339              	@ 0 "" 2
 340              	.LVL23:
 341              		.thumb
 342              		.syntax unified
ARM GAS  C:\Users\Moi\AppData\Local\Temp\ccKsLrPP.s 			page 7


 343              	.LBE101:
 344              	.LBE100:
 345              	.LBE99:
 346              		.loc 3 349 0
 347 0014 FFF7FEFF 		bl	_stats_start_measure_crit_thd
 348              	.LVL24:
 349              		.loc 3 350 0
 350 0018 FFF7FEFF 		bl	_dbg_check_lock
 351              	.LVL25:
 352              	.LBE98:
 353              	.LBE97:
 354              	.LBE96:
 355              		.loc 1 109 0
 356 001c 2378     		ldrb	r3, [r4]	@ zero_extendqisi2
 357 001e 013B     		subs	r3, r3, #1
 358 0020 012B     		cmp	r3, #1
 359 0022 02D9     		bls	.L31
 360              		.loc 1 109 0 is_stmt 0 discriminator 2
 361 0024 1448     		ldr	r0, .L38+4
 362 0026 FFF7FEFF 		bl	chSysHalt
 363              	.LVL26:
 364              	.L31:
 365              		.loc 1 111 0 is_stmt 1
 366 002a 2046     		mov	r0, r4
 367 002c FFF7FEFF 		bl	ext_lld_stop
 368              	.LVL27:
 369              		.loc 1 112 0
 370 0030 0123     		movs	r3, #1
 371 0032 2370     		strb	r3, [r4]
 372              	.LBB102:
 373              	.LBB103:
 374              	.LBB104:
 375              		.loc 3 360 0
 376 0034 FFF7FEFF 		bl	_dbg_check_unlock
 377              	.LVL28:
 378              		.loc 3 361 0
 379 0038 FFF7FEFF 		bl	_stats_stop_measure_crit_thd
 380              	.LVL29:
 381              		.loc 3 367 0
 382 003c 0F4B     		ldr	r3, .L38+8
 383 003e 1A68     		ldr	r2, [r3]
 384 0040 9A42     		cmp	r2, r3
 385 0042 04D0     		beq	.L32
 386 0044 9969     		ldr	r1, [r3, #24]
 387 0046 9368     		ldr	r3, [r2, #8]
 388 0048 8A68     		ldr	r2, [r1, #8]
 389 004a 9A42     		cmp	r2, r3
 390 004c 08D3     		bcc	.L36
 391              	.L32:
 392              	.LVL30:
 393              	.LBB105:
 394              	.LBB106:
 395              	.LBB107:
 396              		.loc 2 546 0
 397 004e 0023     		movs	r3, #0
 398              		.syntax unified
 399              	@ 546 "..//ChibiOS//os/ext/CMSIS/include/core_cmFunc.h" 1
ARM GAS  C:\Users\Moi\AppData\Local\Temp\ccKsLrPP.s 			page 8


 400 0050 83F31188 		MSR basepri, r3
 401              	@ 0 "" 2
 402              	.LVL31:
 403              		.thumb
 404              		.syntax unified
 405              	.LBE107:
 406              	.LBE106:
 407              	.LBE105:
 408              	.LBE104:
 409              	.LBE103:
 410              	.LBE102:
 411              		.loc 1 114 0
 412 0054 019A     		ldr	r2, [sp, #4]
 413 0056 2B68     		ldr	r3, [r5]
 414 0058 9A42     		cmp	r2, r3
 415 005a 09D1     		bne	.L37
 416 005c 03B0     		add	sp, sp, #12
 417              		.cfi_remember_state
 418              		.cfi_def_cfa_offset 12
 419              		@ sp needed
 420 005e 30BD     		pop	{r4, r5, pc}
 421              	.LVL32:
 422              	.L36:
 423              		.cfi_restore_state
 424              	.LBB110:
 425              	.LBB109:
 426              	.LBB108:
 427              		.loc 3 367 0
 428 0060 0748     		ldr	r0, .L38+12
 429 0062 FFF7FEFF 		bl	chSysHalt
 430              	.LVL33:
 431 0066 F2E7     		b	.L32
 432              	.LVL34:
 433              	.L35:
 434              	.LBE108:
 435              	.LBE109:
 436              	.LBE110:
 437              		.loc 1 106 0 discriminator 2
 438 0068 0348     		ldr	r0, .L38+4
 439              	.LVL35:
 440 006a FFF7FEFF 		bl	chSysHalt
 441              	.LVL36:
 442 006e CEE7     		b	.L30
 443              	.L37:
 444              		.loc 1 114 0
 445 0070 FFF7FEFF 		bl	__stack_chk_fail
 446              	.LVL37:
 447              	.L39:
 448              		.align	2
 449              	.L38:
 450 0074 00000000 		.word	__stack_chk_guard
 451 0078 00000000 		.word	.LANCHOR2
 452 007c 00000000 		.word	ch
 453 0080 00000000 		.word	.LANCHOR1
 454              		.cfi_endproc
 455              	.LFE259:
 456              		.size	extStop, .-extStop
ARM GAS  C:\Users\Moi\AppData\Local\Temp\ccKsLrPP.s 			page 9


 457              		.section	.text.extChannelEnable,"ax",%progbits
 458              		.align	1
 459              		.p2align 4,,15
 460              		.global	extChannelEnable
 461              		.syntax unified
 462              		.thumb
 463              		.thumb_func
 464              		.fpu fpv4-sp-d16
 465              		.type	extChannelEnable, %function
 466              	extChannelEnable:
 467              	.LFB260:
 468              		.loc 1 125 0
 469              		.cfi_startproc
 470              		@ args = 0, pretend = 0, frame = 8
 471              		@ frame_needed = 0, uses_anonymous_args = 0
 472              	.LVL38:
 473 0000 70B5     		push	{r4, r5, r6, lr}
 474              		.cfi_def_cfa_offset 16
 475              		.cfi_offset 4, -16
 476              		.cfi_offset 5, -12
 477              		.cfi_offset 6, -8
 478              		.cfi_offset 14, -4
 479 0002 1F4E     		ldr	r6, .L53
 480 0004 82B0     		sub	sp, sp, #8
 481              		.cfi_def_cfa_offset 24
 482              		.loc 1 125 0
 483 0006 3368     		ldr	r3, [r6]
 484 0008 0193     		str	r3, [sp, #4]
 485 000a 0D46     		mov	r5, r1
 486              		.loc 1 127 0
 487 000c 0446     		mov	r4, r0
 488 000e 68B3     		cbz	r0, .L41
 489              		.loc 1 127 0 is_stmt 0 discriminator 3
 490 0010 1629     		cmp	r1, #22
 491 0012 2BD8     		bhi	.L41
 492              	.LVL39:
 493              	.L42:
 494              	.LBB124:
 495              	.LBB125:
 496              	.LBB126:
 497              	.LBB127:
 498              	.LBB128:
 499              	.LBB129:
 500              		.loc 2 546 0 is_stmt 1
 501 0014 2023     		movs	r3, #32
 502              		.syntax unified
 503              	@ 546 "..//ChibiOS//os/ext/CMSIS/include/core_cmFunc.h" 1
 504 0016 83F31188 		MSR basepri, r3
 505              	@ 0 "" 2
 506              	.LVL40:
 507              		.thumb
 508              		.syntax unified
 509              	.LBE129:
 510              	.LBE128:
 511              	.LBE127:
 512              		.loc 3 349 0
 513 001a FFF7FEFF 		bl	_stats_start_measure_crit_thd
ARM GAS  C:\Users\Moi\AppData\Local\Temp\ccKsLrPP.s 			page 10


 514              	.LVL41:
 515              		.loc 3 350 0
 516 001e FFF7FEFF 		bl	_dbg_check_lock
 517              	.LVL42:
 518              	.LBE126:
 519              	.LBE125:
 520              	.LBE124:
 521              		.loc 1 130 0
 522 0022 2378     		ldrb	r3, [r4]	@ zero_extendqisi2
 523 0024 022B     		cmp	r3, #2
 524 0026 04D1     		bne	.L43
 525              		.loc 1 130 0 is_stmt 0 discriminator 3
 526 0028 6368     		ldr	r3, [r4, #4]
 527 002a 53F83530 		ldr	r3, [r3, r5, lsl #3]
 528 002e 9B07     		lsls	r3, r3, #30
 529 0030 02D1     		bne	.L44
 530              	.L43:
 531              		.loc 1 130 0 discriminator 4
 532 0032 1448     		ldr	r0, .L53+4
 533 0034 FFF7FEFF 		bl	chSysHalt
 534              	.LVL43:
 535              	.L44:
 536              		.loc 1 134 0 is_stmt 1
 537 0038 2946     		mov	r1, r5
 538 003a 2046     		mov	r0, r4
 539 003c FFF7FEFF 		bl	ext_lld_channel_enable
 540              	.LVL44:
 541              	.LBB130:
 542              	.LBB131:
 543              	.LBB132:
 544              		.loc 3 360 0
 545 0040 FFF7FEFF 		bl	_dbg_check_unlock
 546              	.LVL45:
 547              		.loc 3 361 0
 548 0044 FFF7FEFF 		bl	_stats_stop_measure_crit_thd
 549              	.LVL46:
 550              		.loc 3 367 0
 551 0048 0F4B     		ldr	r3, .L53+8
 552 004a 1A68     		ldr	r2, [r3]
 553 004c 9A42     		cmp	r2, r3
 554 004e 04D0     		beq	.L45
 555 0050 9969     		ldr	r1, [r3, #24]
 556 0052 9368     		ldr	r3, [r2, #8]
 557 0054 8A68     		ldr	r2, [r1, #8]
 558 0056 9A42     		cmp	r2, r3
 559 0058 0CD3     		bcc	.L51
 560              	.L45:
 561              	.LVL47:
 562              	.LBB133:
 563              	.LBB134:
 564              	.LBB135:
 565              		.loc 2 546 0
 566 005a 0023     		movs	r3, #0
 567              		.syntax unified
 568              	@ 546 "..//ChibiOS//os/ext/CMSIS/include/core_cmFunc.h" 1
 569 005c 83F31188 		MSR basepri, r3
 570              	@ 0 "" 2
ARM GAS  C:\Users\Moi\AppData\Local\Temp\ccKsLrPP.s 			page 11


 571              	.LVL48:
 572              		.thumb
 573              		.syntax unified
 574              	.LBE135:
 575              	.LBE134:
 576              	.LBE133:
 577              	.LBE132:
 578              	.LBE131:
 579              	.LBE130:
 580              		.loc 1 136 0
 581 0060 019A     		ldr	r2, [sp, #4]
 582 0062 3368     		ldr	r3, [r6]
 583 0064 9A42     		cmp	r2, r3
 584 0066 09D1     		bne	.L52
 585 0068 02B0     		add	sp, sp, #8
 586              		.cfi_remember_state
 587              		.cfi_def_cfa_offset 16
 588              		@ sp needed
 589 006a 70BD     		pop	{r4, r5, r6, pc}
 590              	.LVL49:
 591              	.L41:
 592              		.cfi_restore_state
 593              		.loc 1 127 0 discriminator 4
 594 006c 0548     		ldr	r0, .L53+4
 595              	.LVL50:
 596 006e FFF7FEFF 		bl	chSysHalt
 597              	.LVL51:
 598 0072 CFE7     		b	.L42
 599              	.L51:
 600              	.LBB138:
 601              	.LBB137:
 602              	.LBB136:
 603              		.loc 3 367 0
 604 0074 0548     		ldr	r0, .L53+12
 605 0076 FFF7FEFF 		bl	chSysHalt
 606              	.LVL52:
 607 007a EEE7     		b	.L45
 608              	.L52:
 609              	.LBE136:
 610              	.LBE137:
 611              	.LBE138:
 612              		.loc 1 136 0
 613 007c FFF7FEFF 		bl	__stack_chk_fail
 614              	.LVL53:
 615              	.L54:
 616              		.align	2
 617              	.L53:
 618 0080 00000000 		.word	__stack_chk_guard
 619 0084 00000000 		.word	.LANCHOR3
 620 0088 00000000 		.word	ch
 621 008c 00000000 		.word	.LANCHOR1
 622              		.cfi_endproc
 623              	.LFE260:
 624              		.size	extChannelEnable, .-extChannelEnable
 625              		.section	.text.extChannelDisable,"ax",%progbits
 626              		.align	1
 627              		.p2align 4,,15
ARM GAS  C:\Users\Moi\AppData\Local\Temp\ccKsLrPP.s 			page 12


 628              		.global	extChannelDisable
 629              		.syntax unified
 630              		.thumb
 631              		.thumb_func
 632              		.fpu fpv4-sp-d16
 633              		.type	extChannelDisable, %function
 634              	extChannelDisable:
 635              	.LFB261:
 636              		.loc 1 147 0
 637              		.cfi_startproc
 638              		@ args = 0, pretend = 0, frame = 8
 639              		@ frame_needed = 0, uses_anonymous_args = 0
 640              	.LVL54:
 641 0000 70B5     		push	{r4, r5, r6, lr}
 642              		.cfi_def_cfa_offset 16
 643              		.cfi_offset 4, -16
 644              		.cfi_offset 5, -12
 645              		.cfi_offset 6, -8
 646              		.cfi_offset 14, -4
 647 0002 1F4E     		ldr	r6, .L68
 648 0004 82B0     		sub	sp, sp, #8
 649              		.cfi_def_cfa_offset 24
 650              		.loc 1 147 0
 651 0006 3368     		ldr	r3, [r6]
 652 0008 0193     		str	r3, [sp, #4]
 653 000a 0D46     		mov	r5, r1
 654              		.loc 1 149 0
 655 000c 0446     		mov	r4, r0
 656 000e 68B3     		cbz	r0, .L56
 657              		.loc 1 149 0 is_stmt 0 discriminator 3
 658 0010 1629     		cmp	r1, #22
 659 0012 2BD8     		bhi	.L56
 660              	.LVL55:
 661              	.L57:
 662              	.LBB152:
 663              	.LBB153:
 664              	.LBB154:
 665              	.LBB155:
 666              	.LBB156:
 667              	.LBB157:
 668              		.loc 2 546 0 is_stmt 1
 669 0014 2023     		movs	r3, #32
 670              		.syntax unified
 671              	@ 546 "..//ChibiOS//os/ext/CMSIS/include/core_cmFunc.h" 1
 672 0016 83F31188 		MSR basepri, r3
 673              	@ 0 "" 2
 674              	.LVL56:
 675              		.thumb
 676              		.syntax unified
 677              	.LBE157:
 678              	.LBE156:
 679              	.LBE155:
 680              		.loc 3 349 0
 681 001a FFF7FEFF 		bl	_stats_start_measure_crit_thd
 682              	.LVL57:
 683              		.loc 3 350 0
 684 001e FFF7FEFF 		bl	_dbg_check_lock
ARM GAS  C:\Users\Moi\AppData\Local\Temp\ccKsLrPP.s 			page 13


 685              	.LVL58:
 686              	.LBE154:
 687              	.LBE153:
 688              	.LBE152:
 689              		.loc 1 152 0
 690 0022 2378     		ldrb	r3, [r4]	@ zero_extendqisi2
 691 0024 022B     		cmp	r3, #2
 692 0026 04D1     		bne	.L58
 693              		.loc 1 152 0 is_stmt 0 discriminator 3
 694 0028 6368     		ldr	r3, [r4, #4]
 695 002a 53F83530 		ldr	r3, [r3, r5, lsl #3]
 696 002e 9B07     		lsls	r3, r3, #30
 697 0030 02D1     		bne	.L59
 698              	.L58:
 699              		.loc 1 152 0 discriminator 4
 700 0032 1448     		ldr	r0, .L68+4
 701 0034 FFF7FEFF 		bl	chSysHalt
 702              	.LVL59:
 703              	.L59:
 704              		.loc 1 156 0 is_stmt 1
 705 0038 2946     		mov	r1, r5
 706 003a 2046     		mov	r0, r4
 707 003c FFF7FEFF 		bl	ext_lld_channel_disable
 708              	.LVL60:
 709              	.LBB158:
 710              	.LBB159:
 711              	.LBB160:
 712              		.loc 3 360 0
 713 0040 FFF7FEFF 		bl	_dbg_check_unlock
 714              	.LVL61:
 715              		.loc 3 361 0
 716 0044 FFF7FEFF 		bl	_stats_stop_measure_crit_thd
 717              	.LVL62:
 718              		.loc 3 367 0
 719 0048 0F4B     		ldr	r3, .L68+8
 720 004a 1A68     		ldr	r2, [r3]
 721 004c 9A42     		cmp	r2, r3
 722 004e 04D0     		beq	.L60
 723 0050 9969     		ldr	r1, [r3, #24]
 724 0052 9368     		ldr	r3, [r2, #8]
 725 0054 8A68     		ldr	r2, [r1, #8]
 726 0056 9A42     		cmp	r2, r3
 727 0058 0CD3     		bcc	.L66
 728              	.L60:
 729              	.LVL63:
 730              	.LBB161:
 731              	.LBB162:
 732              	.LBB163:
 733              		.loc 2 546 0
 734 005a 0023     		movs	r3, #0
 735              		.syntax unified
 736              	@ 546 "..//ChibiOS//os/ext/CMSIS/include/core_cmFunc.h" 1
 737 005c 83F31188 		MSR basepri, r3
 738              	@ 0 "" 2
 739              	.LVL64:
 740              		.thumb
 741              		.syntax unified
ARM GAS  C:\Users\Moi\AppData\Local\Temp\ccKsLrPP.s 			page 14


 742              	.LBE163:
 743              	.LBE162:
 744              	.LBE161:
 745              	.LBE160:
 746              	.LBE159:
 747              	.LBE158:
 748              		.loc 1 158 0
 749 0060 019A     		ldr	r2, [sp, #4]
 750 0062 3368     		ldr	r3, [r6]
 751 0064 9A42     		cmp	r2, r3
 752 0066 09D1     		bne	.L67
 753 0068 02B0     		add	sp, sp, #8
 754              		.cfi_remember_state
 755              		.cfi_def_cfa_offset 16
 756              		@ sp needed
 757 006a 70BD     		pop	{r4, r5, r6, pc}
 758              	.LVL65:
 759              	.L56:
 760              		.cfi_restore_state
 761              		.loc 1 149 0 discriminator 4
 762 006c 0548     		ldr	r0, .L68+4
 763              	.LVL66:
 764 006e FFF7FEFF 		bl	chSysHalt
 765              	.LVL67:
 766 0072 CFE7     		b	.L57
 767              	.L66:
 768              	.LBB166:
 769              	.LBB165:
 770              	.LBB164:
 771              		.loc 3 367 0
 772 0074 0548     		ldr	r0, .L68+12
 773 0076 FFF7FEFF 		bl	chSysHalt
 774              	.LVL68:
 775 007a EEE7     		b	.L60
 776              	.L67:
 777              	.LBE164:
 778              	.LBE165:
 779              	.LBE166:
 780              		.loc 1 158 0
 781 007c FFF7FEFF 		bl	__stack_chk_fail
 782              	.LVL69:
 783              	.L69:
 784              		.align	2
 785              	.L68:
 786 0080 00000000 		.word	__stack_chk_guard
 787 0084 00000000 		.word	.LANCHOR4
 788 0088 00000000 		.word	ch
 789 008c 00000000 		.word	.LANCHOR1
 790              		.cfi_endproc
 791              	.LFE261:
 792              		.size	extChannelDisable, .-extChannelDisable
 793              		.section	.text.extSetChannelModeI,"ax",%progbits
 794              		.align	1
 795              		.p2align 4,,15
 796              		.global	extSetChannelModeI
 797              		.syntax unified
 798              		.thumb
ARM GAS  C:\Users\Moi\AppData\Local\Temp\ccKsLrPP.s 			page 15


 799              		.thumb_func
 800              		.fpu fpv4-sp-d16
 801              		.type	extSetChannelModeI, %function
 802              	extSetChannelModeI:
 803              	.LFB262:
 804              		.loc 1 179 0
 805              		.cfi_startproc
 806              		@ args = 0, pretend = 0, frame = 8
 807              		@ frame_needed = 0, uses_anonymous_args = 0
 808              	.LVL70:
 809 0000 F0B5     		push	{r4, r5, r6, r7, lr}
 810              		.cfi_def_cfa_offset 20
 811              		.cfi_offset 4, -20
 812              		.cfi_offset 5, -16
 813              		.cfi_offset 6, -12
 814              		.cfi_offset 7, -8
 815              		.cfi_offset 14, -4
 816 0002 154F     		ldr	r7, .L85
 817 0004 83B0     		sub	sp, sp, #12
 818              		.cfi_def_cfa_offset 32
 819              		.loc 1 179 0
 820 0006 3B68     		ldr	r3, [r7]
 821 0008 0193     		str	r3, [sp, #4]
 822 000a 0D46     		mov	r5, r1
 823 000c 1646     		mov	r6, r2
 824              		.loc 1 182 0
 825 000e 0446     		mov	r4, r0
 826 0010 08B1     		cbz	r0, .L71
 827              		.loc 1 182 0 is_stmt 0 discriminator 3
 828 0012 1629     		cmp	r1, #22
 829 0014 1BD9     		bls	.L83
 830              	.L71:
 831              		.loc 1 182 0 discriminator 6
 832 0016 1148     		ldr	r0, .L85+4
 833              	.LVL71:
 834 0018 FFF7FEFF 		bl	chSysHalt
 835              	.LVL72:
 836              	.L72:
 837              		.loc 1 186 0 is_stmt 1 discriminator 1
 838 001c 2378     		ldrb	r3, [r4]	@ zero_extendqisi2
 839 001e 022B     		cmp	r3, #2
 840 0020 02D0     		beq	.L73
 841              		.loc 1 186 0 is_stmt 0 discriminator 2
 842 0022 0E48     		ldr	r0, .L85+4
 843 0024 FFF7FEFF 		bl	chSysHalt
 844              	.LVL73:
 845              	.L73:
 846              		.loc 1 196 0 is_stmt 1
 847 0028 6368     		ldr	r3, [r4, #4]
 848              		.loc 1 197 0
 849 002a DDF804C0 		ldr	ip, [sp, #4]
 850 002e 3A68     		ldr	r2, [r7]
 851              		.loc 1 196 0
 852 0030 96E80300 		ldm	r6, {r0, r1}
 853 0034 03EBC503 		add	r3, r3, r5, lsl #3
 854              	.LVL74:
 855              		.loc 1 197 0
ARM GAS  C:\Users\Moi\AppData\Local\Temp\ccKsLrPP.s 			page 16


 856 0038 9445     		cmp	ip, r2
 857              		.loc 1 196 0
 858 003a 83E80300 		stm	r3, {r0, r1}
 859              		.loc 1 197 0
 860 003e 09D1     		bne	.L84
 861 0040 2946     		mov	r1, r5
 862 0042 2046     		mov	r0, r4
 863              		.loc 1 198 0
 864 0044 03B0     		add	sp, sp, #12
 865              		.cfi_remember_state
 866              		.cfi_def_cfa_offset 20
 867              		@ sp needed
 868 0046 BDE8F040 		pop	{r4, r5, r6, r7, lr}
 869              		.cfi_restore 14
 870              		.cfi_restore 7
 871              		.cfi_restore 6
 872              		.cfi_restore 5
 873              		.cfi_restore 4
 874              		.cfi_def_cfa_offset 0
 875              	.LVL75:
 876              		.loc 1 197 0
 877 004a FFF7FEBF 		b	ext_lld_channel_enable
 878              	.LVL76:
 879              	.L83:
 880              		.cfi_restore_state
 881              		.loc 1 182 0 discriminator 5
 882 004e 002A     		cmp	r2, #0
 883 0050 E4D1     		bne	.L72
 884 0052 E0E7     		b	.L71
 885              	.LVL77:
 886              	.L84:
 887              		.loc 1 197 0
 888 0054 FFF7FEFF 		bl	__stack_chk_fail
 889              	.LVL78:
 890              	.L86:
 891              		.align	2
 892              	.L85:
 893 0058 00000000 		.word	__stack_chk_guard
 894 005c 00000000 		.word	.LANCHOR5
 895              		.cfi_endproc
 896              	.LFE262:
 897              		.size	extSetChannelModeI, .-extSetChannelModeI
 898              		.section	.rodata.__func__.7153,"a",%progbits
 899              		.align	2
 900              		.set	.LANCHOR1,. + 0
 901              		.type	__func__.7153, %object
 902              		.size	__func__.7153, 12
 903              	__func__.7153:
 904 0000 63685379 		.ascii	"chSysUnlock\000"
 904      73556E6C 
 904      6F636B00 
 905              		.section	.rodata.__func__.9848,"a",%progbits
 906              		.align	2
 907              		.set	.LANCHOR0,. + 0
 908              		.type	__func__.9848, %object
 909              		.size	__func__.9848, 9
 910              	__func__.9848:
ARM GAS  C:\Users\Moi\AppData\Local\Temp\ccKsLrPP.s 			page 17


 911 0000 65787453 		.ascii	"extStart\000"
 911      74617274 
 911      00
 912              		.section	.rodata.__func__.9852,"a",%progbits
 913              		.align	2
 914              		.set	.LANCHOR2,. + 0
 915              		.type	__func__.9852, %object
 916              		.size	__func__.9852, 8
 917              	__func__.9852:
 918 0000 65787453 		.ascii	"extStop\000"
 918      746F7000 
 919              		.section	.rodata.__func__.9857,"a",%progbits
 920              		.align	2
 921              		.set	.LANCHOR3,. + 0
 922              		.type	__func__.9857, %object
 923              		.size	__func__.9857, 17
 924              	__func__.9857:
 925 0000 65787443 		.ascii	"extChannelEnable\000"
 925      68616E6E 
 925      656C456E 
 925      61626C65 
 925      00
 926              		.section	.rodata.__func__.9862,"a",%progbits
 927              		.align	2
 928              		.set	.LANCHOR4,. + 0
 929              		.type	__func__.9862, %object
 930              		.size	__func__.9862, 18
 931              	__func__.9862:
 932 0000 65787443 		.ascii	"extChannelDisable\000"
 932      68616E6E 
 932      656C4469 
 932      7361626C 
 932      6500
 933              		.section	.rodata.__func__.9869,"a",%progbits
 934              		.align	2
 935              		.set	.LANCHOR5,. + 0
 936              		.type	__func__.9869, %object
 937              		.size	__func__.9869, 19
 938              	__func__.9869:
 939 0000 65787453 		.ascii	"extSetChannelModeI\000"
 939      65744368 
 939      616E6E65 
 939      6C4D6F64 
 939      654900
 940              		.text
 941              	.Letext0:
 942              		.file 4 "c:\\users\\moi\\documents\\_microinfo\\epuck-eclipse\\tools\\gcc-arm-none-eabi-7-2017-q4-
 943              		.file 5 "c:\\users\\moi\\documents\\_microinfo\\epuck-eclipse\\tools\\gcc-arm-none-eabi-7-2017-q4-
 944              		.file 6 "c:\\users\\moi\\documents\\_microinfo\\epuck-eclipse\\tools\\gcc-arm-none-eabi-7-2017-q4-
 945              		.file 7 "..//ChibiOS//os/rt/ports/ARMCMx/compilers/GCC/chtypes.h"
 946              		.file 8 "..//ChibiOS//os/rt/include/chsystypes.h"
 947              		.file 9 "..//ChibiOS//os/rt/include/chschd.h"
 948              		.file 10 "..//ChibiOS//os/ext/CMSIS/include/core_cm4.h"
 949              		.file 11 "..//ChibiOS//os/ext/CMSIS/ST/system_stm32f4xx.h"
 950              		.file 12 "..//ChibiOS//os/ext/CMSIS/ST/stm32f407xx.h"
 951              		.file 13 "..//ChibiOS//os/rt/ports/ARMCMx/chcore.h"
 952              		.file 14 "..//ChibiOS//os/rt/ports/ARMCMx/chcore_v7m.h"
ARM GAS  C:\Users\Moi\AppData\Local\Temp\ccKsLrPP.s 			page 18


 953              		.file 15 "..//ChibiOS//os/rt/include/chdebug.h"
 954              		.file 16 "..//ChibiOS//os/rt/include/chtm.h"
 955              		.file 17 "..//ChibiOS//os/rt/include/chstats.h"
 956              		.file 18 "..//ChibiOS//os/rt/include/chsem.h"
 957              		.file 19 "..//ChibiOS//os/rt/include/chmtx.h"
 958              		.file 20 "..//ChibiOS//os/rt/include/chregistry.h"
 959              		.file 21 "..//ChibiOS//os/rt/include/chevents.h"
 960              		.file 22 "..//ChibiOS//os/rt/include/chqueues.h"
 961              		.file 23 "..//ChibiOS//os/hal/ports/STM32/STM32F4xx/stm32_dma.h"
 962              		.file 24 "..//ChibiOS//os/hal/include/hal_ioblock.h"
 963              		.file 25 "..//ChibiOS//os/hal/ports/STM32/LLD/GPIOv2/pal_lld.h"
 964              		.file 26 "..//ChibiOS//os/hal/include/adc.h"
 965              		.file 27 "..//ChibiOS//os/hal/ports/STM32/STM32F4xx/adc_lld.h"
 966              		.file 28 "..//ChibiOS//os/hal/include/can.h"
 967              		.file 29 "..//ChibiOS//os/hal/ports/STM32/LLD/can_lld.h"
 968              		.file 30 "..//ChibiOS//os/hal/include/dac.h"
 969              		.file 31 "..//ChibiOS//os/hal/ports/STM32/LLD/DACv1/dac_lld.h"
 970              		.file 32 "..//ChibiOS//os/hal/include/ext.h"
 971              		.file 33 "..//ChibiOS//os/hal/ports/STM32/LLD/ext_lld.h"
 972              		.file 34 "..//ChibiOS//os/hal/include/gpt.h"
 973              		.file 35 "..//ChibiOS//os/hal/ports/STM32/LLD/TIMv1/gpt_lld.h"
 974              		.file 36 "..//ChibiOS//os/hal/ports/STM32/LLD/TIMv1/stm32_tim.h"
 975              		.file 37 "..//ChibiOS//os/hal/include/i2c.h"
 976              		.file 38 "..//ChibiOS//os/hal/ports/STM32/LLD/I2Cv1/i2c_lld.h"
 977              		.file 39 "..//ChibiOS//os/hal/include/i2s.h"
 978              		.file 40 "..//ChibiOS//os/hal/ports/STM32/LLD/SPIv1/i2s_lld.h"
 979              		.file 41 "..//ChibiOS//os/hal/include/pwm.h"
 980              		.file 42 "..//ChibiOS//os/hal/ports/STM32/LLD/TIMv1/pwm_lld.h"
 981              		.file 43 "..//ChibiOS//os/hal/include/serial.h"
 982              		.file 44 "..//ChibiOS//os/hal/ports/STM32/LLD/USARTv1/serial_lld.h"
 983              		.file 45 "..//ChibiOS//os/hal/include/sdc.h"
 984              		.file 46 "..//ChibiOS//os/hal/ports/STM32/LLD/sdc_lld.h"
 985              		.file 47 "..//ChibiOS//os/hal/include/spi.h"
 986              		.file 48 "..//ChibiOS//os/hal/ports/STM32/LLD/SPIv1/spi_lld.h"
 987              		.file 49 "..//ChibiOS//os/hal/include/usb.h"
 988              		.file 50 "..//ChibiOS//os/hal/ports/STM32/LLD/OTGv1/usb_lld.h"
 989              		.file 51 "..//ChibiOS//os/hal/ports/STM32/LLD/OTGv1/stm32_otg.h"
 990              		.file 52 "..//ChibiOS//os/hal/osal/rt/osal.h"