ARM GAS  C:\Users\Moi\AppData\Local\Temp\ccbTY5ka.s 			page 1


   1              		.cpu cortex-m4
   2              		.eabi_attribute 27, 1
   3              		.eabi_attribute 28, 1
   4              		.eabi_attribute 20, 1
   5              		.eabi_attribute 21, 1
   6              		.eabi_attribute 23, 3
   7              		.eabi_attribute 24, 1
   8              		.eabi_attribute 25, 1
   9              		.eabi_attribute 26, 1
  10              		.eabi_attribute 30, 2
  11              		.eabi_attribute 34, 1
  12              		.eabi_attribute 18, 4
  13              		.file	"ext_lld_isr.c"
  14              		.text
  15              	.Ltext0:
  16              		.cfi_sections	.debug_frame
  17              		.section	.text.Vector58,"ax",%progbits
  18              		.align	1
  19              		.p2align 4,,15
  20              		.global	Vector58
  21              		.syntax unified
  22              		.thumb
  23              		.thumb_func
  24              		.fpu fpv4-sp-d16
  25              		.type	Vector58, %function
  26              	Vector58:
  27              	.LFB256:
  28              		.file 1 "..//ChibiOS//os/hal/ports/STM32/STM32F4xx/ext_lld_isr.c"
  29              		.loc 1 56 0
  30              		.cfi_startproc
  31              		@ args = 0, pretend = 0, frame = 8
  32              		@ frame_needed = 0, uses_anonymous_args = 0
  33 0000 10B5     		push	{r4, lr}
  34              		.cfi_def_cfa_offset 8
  35              		.cfi_offset 4, -8
  36              		.cfi_offset 14, -4
  37 0002 0E4C     		ldr	r4, .L7
  38 0004 82B0     		sub	sp, sp, #8
  39              		.cfi_def_cfa_offset 16
  40              		.loc 1 56 0
  41 0006 2368     		ldr	r3, [r4]
  42 0008 0193     		str	r3, [sp, #4]
  43              		.loc 1 58 0
  44 000a FFF7FEFF 		bl	_stats_increase_irq
  45              	.LVL0:
  46 000e FFF7FEFF 		bl	_dbg_check_enter_isr
  47              	.LVL1:
  48              		.loc 1 61 0
  49 0012 0B48     		ldr	r0, .L7+4
  50              		.loc 1 60 0
  51 0014 0B4A     		ldr	r2, .L7+8
  52              		.loc 1 61 0
  53 0016 4368     		ldr	r3, [r0, #4]
  54              		.loc 1 60 0
  55 0018 0121     		movs	r1, #1
  56              		.loc 1 61 0
  57 001a 5B68     		ldr	r3, [r3, #4]
ARM GAS  C:\Users\Moi\AppData\Local\Temp\ccbTY5ka.s 			page 2


  58              		.loc 1 60 0
  59 001c 5161     		str	r1, [r2, #20]
  60              		.loc 1 61 0
  61 001e 0021     		movs	r1, #0
  62 0020 9847     		blx	r3
  63              	.LVL2:
  64              		.loc 1 63 0
  65 0022 FFF7FEFF 		bl	_dbg_check_leave_isr
  66              	.LVL3:
  67 0026 019A     		ldr	r2, [sp, #4]
  68 0028 2368     		ldr	r3, [r4]
  69 002a 9A42     		cmp	r2, r3
  70 002c 04D1     		bne	.L6
  71              		.loc 1 64 0
  72 002e 02B0     		add	sp, sp, #8
  73              		.cfi_remember_state
  74              		.cfi_def_cfa_offset 8
  75              		@ sp needed
  76 0030 BDE81040 		pop	{r4, lr}
  77              		.cfi_restore 14
  78              		.cfi_restore 4
  79              		.cfi_def_cfa_offset 0
  80              		.loc 1 63 0
  81 0034 FFF7FEBF 		b	_port_irq_epilogue
  82              	.LVL4:
  83              	.L6:
  84              		.cfi_restore_state
  85 0038 FFF7FEFF 		bl	__stack_chk_fail
  86              	.LVL5:
  87              	.L8:
  88              		.align	2
  89              	.L7:
  90 003c 00000000 		.word	__stack_chk_guard
  91 0040 00000000 		.word	EXTD1
  92 0044 003C0140 		.word	1073822720
  93              		.cfi_endproc
  94              	.LFE256:
  95              		.size	Vector58, .-Vector58
  96              		.section	.text.Vector5C,"ax",%progbits
  97              		.align	1
  98              		.p2align 4,,15
  99              		.global	Vector5C
 100              		.syntax unified
 101              		.thumb
 102              		.thumb_func
 103              		.fpu fpv4-sp-d16
 104              		.type	Vector5C, %function
 105              	Vector5C:
 106              	.LFB257:
 107              		.loc 1 71 0
 108              		.cfi_startproc
 109              		@ args = 0, pretend = 0, frame = 8
 110              		@ frame_needed = 0, uses_anonymous_args = 0
 111 0000 10B5     		push	{r4, lr}
 112              		.cfi_def_cfa_offset 8
 113              		.cfi_offset 4, -8
 114              		.cfi_offset 14, -4
ARM GAS  C:\Users\Moi\AppData\Local\Temp\ccbTY5ka.s 			page 3


 115 0002 0E4C     		ldr	r4, .L14
 116 0004 82B0     		sub	sp, sp, #8
 117              		.cfi_def_cfa_offset 16
 118              		.loc 1 71 0
 119 0006 2368     		ldr	r3, [r4]
 120 0008 0193     		str	r3, [sp, #4]
 121              		.loc 1 73 0
 122 000a FFF7FEFF 		bl	_stats_increase_irq
 123              	.LVL6:
 124 000e FFF7FEFF 		bl	_dbg_check_enter_isr
 125              	.LVL7:
 126              		.loc 1 76 0
 127 0012 0B48     		ldr	r0, .L14+4
 128              		.loc 1 75 0
 129 0014 0B4A     		ldr	r2, .L14+8
 130              		.loc 1 76 0
 131 0016 4368     		ldr	r3, [r0, #4]
 132              		.loc 1 75 0
 133 0018 0221     		movs	r1, #2
 134              		.loc 1 76 0
 135 001a DB68     		ldr	r3, [r3, #12]
 136              		.loc 1 75 0
 137 001c 5161     		str	r1, [r2, #20]
 138              		.loc 1 76 0
 139 001e 0121     		movs	r1, #1
 140 0020 9847     		blx	r3
 141              	.LVL8:
 142              		.loc 1 78 0
 143 0022 FFF7FEFF 		bl	_dbg_check_leave_isr
 144              	.LVL9:
 145 0026 019A     		ldr	r2, [sp, #4]
 146 0028 2368     		ldr	r3, [r4]
 147 002a 9A42     		cmp	r2, r3
 148 002c 04D1     		bne	.L13
 149              		.loc 1 79 0
 150 002e 02B0     		add	sp, sp, #8
 151              		.cfi_remember_state
 152              		.cfi_def_cfa_offset 8
 153              		@ sp needed
 154 0030 BDE81040 		pop	{r4, lr}
 155              		.cfi_restore 14
 156              		.cfi_restore 4
 157              		.cfi_def_cfa_offset 0
 158              		.loc 1 78 0
 159 0034 FFF7FEBF 		b	_port_irq_epilogue
 160              	.LVL10:
 161              	.L13:
 162              		.cfi_restore_state
 163 0038 FFF7FEFF 		bl	__stack_chk_fail
 164              	.LVL11:
 165              	.L15:
 166              		.align	2
 167              	.L14:
 168 003c 00000000 		.word	__stack_chk_guard
 169 0040 00000000 		.word	EXTD1
 170 0044 003C0140 		.word	1073822720
 171              		.cfi_endproc
ARM GAS  C:\Users\Moi\AppData\Local\Temp\ccbTY5ka.s 			page 4


 172              	.LFE257:
 173              		.size	Vector5C, .-Vector5C
 174              		.section	.text.Vector60,"ax",%progbits
 175              		.align	1
 176              		.p2align 4,,15
 177              		.global	Vector60
 178              		.syntax unified
 179              		.thumb
 180              		.thumb_func
 181              		.fpu fpv4-sp-d16
 182              		.type	Vector60, %function
 183              	Vector60:
 184              	.LFB258:
 185              		.loc 1 86 0
 186              		.cfi_startproc
 187              		@ args = 0, pretend = 0, frame = 8
 188              		@ frame_needed = 0, uses_anonymous_args = 0
 189 0000 10B5     		push	{r4, lr}
 190              		.cfi_def_cfa_offset 8
 191              		.cfi_offset 4, -8
 192              		.cfi_offset 14, -4
 193 0002 0E4C     		ldr	r4, .L21
 194 0004 82B0     		sub	sp, sp, #8
 195              		.cfi_def_cfa_offset 16
 196              		.loc 1 86 0
 197 0006 2368     		ldr	r3, [r4]
 198 0008 0193     		str	r3, [sp, #4]
 199              		.loc 1 88 0
 200 000a FFF7FEFF 		bl	_stats_increase_irq
 201              	.LVL12:
 202 000e FFF7FEFF 		bl	_dbg_check_enter_isr
 203              	.LVL13:
 204              		.loc 1 91 0
 205 0012 0B48     		ldr	r0, .L21+4
 206              		.loc 1 90 0
 207 0014 0B4A     		ldr	r2, .L21+8
 208              		.loc 1 91 0
 209 0016 4368     		ldr	r3, [r0, #4]
 210              		.loc 1 90 0
 211 0018 0421     		movs	r1, #4
 212              		.loc 1 91 0
 213 001a 5B69     		ldr	r3, [r3, #20]
 214              		.loc 1 90 0
 215 001c 5161     		str	r1, [r2, #20]
 216              		.loc 1 91 0
 217 001e 0221     		movs	r1, #2
 218 0020 9847     		blx	r3
 219              	.LVL14:
 220              		.loc 1 93 0
 221 0022 FFF7FEFF 		bl	_dbg_check_leave_isr
 222              	.LVL15:
 223 0026 019A     		ldr	r2, [sp, #4]
 224 0028 2368     		ldr	r3, [r4]
 225 002a 9A42     		cmp	r2, r3
 226 002c 04D1     		bne	.L20
 227              		.loc 1 94 0
 228 002e 02B0     		add	sp, sp, #8
ARM GAS  C:\Users\Moi\AppData\Local\Temp\ccbTY5ka.s 			page 5


 229              		.cfi_remember_state
 230              		.cfi_def_cfa_offset 8
 231              		@ sp needed
 232 0030 BDE81040 		pop	{r4, lr}
 233              		.cfi_restore 14
 234              		.cfi_restore 4
 235              		.cfi_def_cfa_offset 0
 236              		.loc 1 93 0
 237 0034 FFF7FEBF 		b	_port_irq_epilogue
 238              	.LVL16:
 239              	.L20:
 240              		.cfi_restore_state
 241 0038 FFF7FEFF 		bl	__stack_chk_fail
 242              	.LVL17:
 243              	.L22:
 244              		.align	2
 245              	.L21:
 246 003c 00000000 		.word	__stack_chk_guard
 247 0040 00000000 		.word	EXTD1
 248 0044 003C0140 		.word	1073822720
 249              		.cfi_endproc
 250              	.LFE258:
 251              		.size	Vector60, .-Vector60
 252              		.section	.text.Vector64,"ax",%progbits
 253              		.align	1
 254              		.p2align 4,,15
 255              		.global	Vector64
 256              		.syntax unified
 257              		.thumb
 258              		.thumb_func
 259              		.fpu fpv4-sp-d16
 260              		.type	Vector64, %function
 261              	Vector64:
 262              	.LFB259:
 263              		.loc 1 101 0
 264              		.cfi_startproc
 265              		@ args = 0, pretend = 0, frame = 8
 266              		@ frame_needed = 0, uses_anonymous_args = 0
 267 0000 10B5     		push	{r4, lr}
 268              		.cfi_def_cfa_offset 8
 269              		.cfi_offset 4, -8
 270              		.cfi_offset 14, -4
 271 0002 0E4C     		ldr	r4, .L28
 272 0004 82B0     		sub	sp, sp, #8
 273              		.cfi_def_cfa_offset 16
 274              		.loc 1 101 0
 275 0006 2368     		ldr	r3, [r4]
 276 0008 0193     		str	r3, [sp, #4]
 277              		.loc 1 103 0
 278 000a FFF7FEFF 		bl	_stats_increase_irq
 279              	.LVL18:
 280 000e FFF7FEFF 		bl	_dbg_check_enter_isr
 281              	.LVL19:
 282              		.loc 1 106 0
 283 0012 0B48     		ldr	r0, .L28+4
 284              		.loc 1 105 0
 285 0014 0B4A     		ldr	r2, .L28+8
ARM GAS  C:\Users\Moi\AppData\Local\Temp\ccbTY5ka.s 			page 6


 286              		.loc 1 106 0
 287 0016 4368     		ldr	r3, [r0, #4]
 288              		.loc 1 105 0
 289 0018 0821     		movs	r1, #8
 290              		.loc 1 106 0
 291 001a DB69     		ldr	r3, [r3, #28]
 292              		.loc 1 105 0
 293 001c 5161     		str	r1, [r2, #20]
 294              		.loc 1 106 0
 295 001e 0321     		movs	r1, #3
 296 0020 9847     		blx	r3
 297              	.LVL20:
 298              		.loc 1 108 0
 299 0022 FFF7FEFF 		bl	_dbg_check_leave_isr
 300              	.LVL21:
 301 0026 019A     		ldr	r2, [sp, #4]
 302 0028 2368     		ldr	r3, [r4]
 303 002a 9A42     		cmp	r2, r3
 304 002c 04D1     		bne	.L27
 305              		.loc 1 109 0
 306 002e 02B0     		add	sp, sp, #8
 307              		.cfi_remember_state
 308              		.cfi_def_cfa_offset 8
 309              		@ sp needed
 310 0030 BDE81040 		pop	{r4, lr}
 311              		.cfi_restore 14
 312              		.cfi_restore 4
 313              		.cfi_def_cfa_offset 0
 314              		.loc 1 108 0
 315 0034 FFF7FEBF 		b	_port_irq_epilogue
 316              	.LVL22:
 317              	.L27:
 318              		.cfi_restore_state
 319 0038 FFF7FEFF 		bl	__stack_chk_fail
 320              	.LVL23:
 321              	.L29:
 322              		.align	2
 323              	.L28:
 324 003c 00000000 		.word	__stack_chk_guard
 325 0040 00000000 		.word	EXTD1
 326 0044 003C0140 		.word	1073822720
 327              		.cfi_endproc
 328              	.LFE259:
 329              		.size	Vector64, .-Vector64
 330              		.section	.text.Vector68,"ax",%progbits
 331              		.align	1
 332              		.p2align 4,,15
 333              		.global	Vector68
 334              		.syntax unified
 335              		.thumb
 336              		.thumb_func
 337              		.fpu fpv4-sp-d16
 338              		.type	Vector68, %function
 339              	Vector68:
 340              	.LFB260:
 341              		.loc 1 116 0
 342              		.cfi_startproc
ARM GAS  C:\Users\Moi\AppData\Local\Temp\ccbTY5ka.s 			page 7


 343              		@ args = 0, pretend = 0, frame = 8
 344              		@ frame_needed = 0, uses_anonymous_args = 0
 345 0000 10B5     		push	{r4, lr}
 346              		.cfi_def_cfa_offset 8
 347              		.cfi_offset 4, -8
 348              		.cfi_offset 14, -4
 349 0002 0E4C     		ldr	r4, .L35
 350 0004 82B0     		sub	sp, sp, #8
 351              		.cfi_def_cfa_offset 16
 352              		.loc 1 116 0
 353 0006 2368     		ldr	r3, [r4]
 354 0008 0193     		str	r3, [sp, #4]
 355              		.loc 1 118 0
 356 000a FFF7FEFF 		bl	_stats_increase_irq
 357              	.LVL24:
 358 000e FFF7FEFF 		bl	_dbg_check_enter_isr
 359              	.LVL25:
 360              		.loc 1 121 0
 361 0012 0B48     		ldr	r0, .L35+4
 362              		.loc 1 120 0
 363 0014 0B4A     		ldr	r2, .L35+8
 364              		.loc 1 121 0
 365 0016 4368     		ldr	r3, [r0, #4]
 366              		.loc 1 120 0
 367 0018 1021     		movs	r1, #16
 368              		.loc 1 121 0
 369 001a 5B6A     		ldr	r3, [r3, #36]
 370              		.loc 1 120 0
 371 001c 5161     		str	r1, [r2, #20]
 372              		.loc 1 121 0
 373 001e 0421     		movs	r1, #4
 374 0020 9847     		blx	r3
 375              	.LVL26:
 376              		.loc 1 123 0
 377 0022 FFF7FEFF 		bl	_dbg_check_leave_isr
 378              	.LVL27:
 379 0026 019A     		ldr	r2, [sp, #4]
 380 0028 2368     		ldr	r3, [r4]
 381 002a 9A42     		cmp	r2, r3
 382 002c 04D1     		bne	.L34
 383              		.loc 1 124 0
 384 002e 02B0     		add	sp, sp, #8
 385              		.cfi_remember_state
 386              		.cfi_def_cfa_offset 8
 387              		@ sp needed
 388 0030 BDE81040 		pop	{r4, lr}
 389              		.cfi_restore 14
 390              		.cfi_restore 4
 391              		.cfi_def_cfa_offset 0
 392              		.loc 1 123 0
 393 0034 FFF7FEBF 		b	_port_irq_epilogue
 394              	.LVL28:
 395              	.L34:
 396              		.cfi_restore_state
 397 0038 FFF7FEFF 		bl	__stack_chk_fail
 398              	.LVL29:
 399              	.L36:
ARM GAS  C:\Users\Moi\AppData\Local\Temp\ccbTY5ka.s 			page 8


 400              		.align	2
 401              	.L35:
 402 003c 00000000 		.word	__stack_chk_guard
 403 0040 00000000 		.word	EXTD1
 404 0044 003C0140 		.word	1073822720
 405              		.cfi_endproc
 406              	.LFE260:
 407              		.size	Vector68, .-Vector68
 408              		.section	.text.Vector9C,"ax",%progbits
 409              		.align	1
 410              		.p2align 4,,15
 411              		.global	Vector9C
 412              		.syntax unified
 413              		.thumb
 414              		.thumb_func
 415              		.fpu fpv4-sp-d16
 416              		.type	Vector9C, %function
 417              	Vector9C:
 418              	.LFB261:
 419              		.loc 1 131 0
 420              		.cfi_startproc
 421              		@ args = 0, pretend = 0, frame = 8
 422              		@ frame_needed = 0, uses_anonymous_args = 0
 423 0000 30B5     		push	{r4, r5, lr}
 424              		.cfi_def_cfa_offset 12
 425              		.cfi_offset 4, -12
 426              		.cfi_offset 5, -8
 427              		.cfi_offset 14, -4
 428 0002 1E4D     		ldr	r5, .L62
 429 0004 83B0     		sub	sp, sp, #12
 430              		.cfi_def_cfa_offset 24
 431              		.loc 1 131 0
 432 0006 2B68     		ldr	r3, [r5]
 433 0008 0193     		str	r3, [sp, #4]
 434              		.loc 1 134 0
 435 000a FFF7FEFF 		bl	_stats_increase_irq
 436              	.LVL30:
 437 000e FFF7FEFF 		bl	_dbg_check_enter_isr
 438              	.LVL31:
 439              		.loc 1 136 0
 440 0012 1B4B     		ldr	r3, .L62+4
 441 0014 5C69     		ldr	r4, [r3, #20]
 442 0016 04F47872 		and	r2, r4, #992
 443              	.LVL32:
 444              		.loc 1 137 0
 445 001a 5A61     		str	r2, [r3, #20]
 446              		.loc 1 138 0
 447 001c A306     		lsls	r3, r4, #26
 448 001e 04D5     		bpl	.L38
 449              		.loc 1 139 0
 450 0020 1848     		ldr	r0, .L62+8
 451 0022 4368     		ldr	r3, [r0, #4]
 452 0024 0521     		movs	r1, #5
 453 0026 DB6A     		ldr	r3, [r3, #44]
 454 0028 9847     		blx	r3
 455              	.LVL33:
 456              	.L38:
ARM GAS  C:\Users\Moi\AppData\Local\Temp\ccbTY5ka.s 			page 9


 457              		.loc 1 140 0
 458 002a 6006     		lsls	r0, r4, #25
 459 002c 04D5     		bpl	.L39
 460              		.loc 1 141 0
 461 002e 1548     		ldr	r0, .L62+8
 462 0030 4368     		ldr	r3, [r0, #4]
 463 0032 0621     		movs	r1, #6
 464 0034 5B6B     		ldr	r3, [r3, #52]
 465 0036 9847     		blx	r3
 466              	.LVL34:
 467              	.L39:
 468              		.loc 1 142 0
 469 0038 2106     		lsls	r1, r4, #24
 470 003a 04D5     		bpl	.L40
 471              		.loc 1 143 0
 472 003c 1148     		ldr	r0, .L62+8
 473 003e 4368     		ldr	r3, [r0, #4]
 474 0040 0721     		movs	r1, #7
 475 0042 DB6B     		ldr	r3, [r3, #60]
 476 0044 9847     		blx	r3
 477              	.LVL35:
 478              	.L40:
 479              		.loc 1 144 0
 480 0046 E205     		lsls	r2, r4, #23
 481 0048 04D5     		bpl	.L41
 482              		.loc 1 145 0
 483 004a 0E48     		ldr	r0, .L62+8
 484 004c 4368     		ldr	r3, [r0, #4]
 485 004e 0821     		movs	r1, #8
 486 0050 5B6C     		ldr	r3, [r3, #68]
 487 0052 9847     		blx	r3
 488              	.LVL36:
 489              	.L41:
 490              		.loc 1 146 0
 491 0054 A305     		lsls	r3, r4, #22
 492 0056 04D5     		bpl	.L42
 493              		.loc 1 147 0
 494 0058 0A48     		ldr	r0, .L62+8
 495 005a 4368     		ldr	r3, [r0, #4]
 496 005c 0921     		movs	r1, #9
 497 005e DB6C     		ldr	r3, [r3, #76]
 498 0060 9847     		blx	r3
 499              	.LVL37:
 500              	.L42:
 501              		.loc 1 149 0
 502 0062 FFF7FEFF 		bl	_dbg_check_leave_isr
 503              	.LVL38:
 504 0066 019A     		ldr	r2, [sp, #4]
 505 0068 2B68     		ldr	r3, [r5]
 506 006a 9A42     		cmp	r2, r3
 507 006c 04D1     		bne	.L61
 508              		.loc 1 150 0
 509 006e 03B0     		add	sp, sp, #12
 510              		.cfi_remember_state
 511              		.cfi_def_cfa_offset 12
 512              		@ sp needed
 513 0070 BDE83040 		pop	{r4, r5, lr}
ARM GAS  C:\Users\Moi\AppData\Local\Temp\ccbTY5ka.s 			page 10


 514              		.cfi_restore 14
 515              		.cfi_restore 5
 516              		.cfi_restore 4
 517              		.cfi_def_cfa_offset 0
 518              	.LVL39:
 519              		.loc 1 149 0
 520 0074 FFF7FEBF 		b	_port_irq_epilogue
 521              	.LVL40:
 522              	.L61:
 523              		.cfi_restore_state
 524 0078 FFF7FEFF 		bl	__stack_chk_fail
 525              	.LVL41:
 526              	.L63:
 527              		.align	2
 528              	.L62:
 529 007c 00000000 		.word	__stack_chk_guard
 530 0080 003C0140 		.word	1073822720
 531 0084 00000000 		.word	EXTD1
 532              		.cfi_endproc
 533              	.LFE261:
 534              		.size	Vector9C, .-Vector9C
 535              		.section	.text.VectorE0,"ax",%progbits
 536              		.align	1
 537              		.p2align 4,,15
 538              		.global	VectorE0
 539              		.syntax unified
 540              		.thumb
 541              		.thumb_func
 542              		.fpu fpv4-sp-d16
 543              		.type	VectorE0, %function
 544              	VectorE0:
 545              	.LFB262:
 546              		.loc 1 157 0
 547              		.cfi_startproc
 548              		@ args = 0, pretend = 0, frame = 8
 549              		@ frame_needed = 0, uses_anonymous_args = 0
 550 0000 30B5     		push	{r4, r5, lr}
 551              		.cfi_def_cfa_offset 12
 552              		.cfi_offset 4, -12
 553              		.cfi_offset 5, -8
 554              		.cfi_offset 14, -4
 555 0002 224D     		ldr	r5, .L93
 556 0004 83B0     		sub	sp, sp, #12
 557              		.cfi_def_cfa_offset 24
 558              		.loc 1 157 0
 559 0006 2B68     		ldr	r3, [r5]
 560 0008 0193     		str	r3, [sp, #4]
 561              		.loc 1 160 0
 562 000a FFF7FEFF 		bl	_stats_increase_irq
 563              	.LVL42:
 564 000e FFF7FEFF 		bl	_dbg_check_enter_isr
 565              	.LVL43:
 566              		.loc 1 162 0
 567 0012 1F4B     		ldr	r3, .L93+4
 568 0014 5C69     		ldr	r4, [r3, #20]
 569 0016 04F47C42 		and	r2, r4, #64512
 570              	.LVL44:
ARM GAS  C:\Users\Moi\AppData\Local\Temp\ccbTY5ka.s 			page 11


 571              		.loc 1 164 0
 572 001a 5A61     		str	r2, [r3, #20]
 573              		.loc 1 165 0
 574 001c 6205     		lsls	r2, r4, #21
 575              	.LVL45:
 576 001e 04D5     		bpl	.L65
 577              		.loc 1 166 0
 578 0020 1C48     		ldr	r0, .L93+8
 579 0022 4368     		ldr	r3, [r0, #4]
 580              	.LVL46:
 581 0024 0A21     		movs	r1, #10
 582 0026 5B6D     		ldr	r3, [r3, #84]
 583 0028 9847     		blx	r3
 584              	.LVL47:
 585              	.L65:
 586              		.loc 1 167 0
 587 002a 2305     		lsls	r3, r4, #20
 588 002c 04D5     		bpl	.L66
 589              		.loc 1 168 0
 590 002e 1948     		ldr	r0, .L93+8
 591 0030 4368     		ldr	r3, [r0, #4]
 592 0032 0B21     		movs	r1, #11
 593 0034 DB6D     		ldr	r3, [r3, #92]
 594 0036 9847     		blx	r3
 595              	.LVL48:
 596              	.L66:
 597              		.loc 1 169 0
 598 0038 E004     		lsls	r0, r4, #19
 599 003a 04D5     		bpl	.L67
 600              		.loc 1 170 0
 601 003c 1548     		ldr	r0, .L93+8
 602 003e 4368     		ldr	r3, [r0, #4]
 603 0040 0C21     		movs	r1, #12
 604 0042 5B6E     		ldr	r3, [r3, #100]
 605 0044 9847     		blx	r3
 606              	.LVL49:
 607              	.L67:
 608              		.loc 1 171 0
 609 0046 A104     		lsls	r1, r4, #18
 610 0048 04D5     		bpl	.L68
 611              		.loc 1 172 0
 612 004a 1248     		ldr	r0, .L93+8
 613 004c 4368     		ldr	r3, [r0, #4]
 614 004e 0D21     		movs	r1, #13
 615 0050 DB6E     		ldr	r3, [r3, #108]
 616 0052 9847     		blx	r3
 617              	.LVL50:
 618              	.L68:
 619              		.loc 1 173 0
 620 0054 6204     		lsls	r2, r4, #17
 621 0056 04D5     		bpl	.L69
 622              		.loc 1 174 0
 623 0058 0E48     		ldr	r0, .L93+8
 624 005a 4368     		ldr	r3, [r0, #4]
 625 005c 0E21     		movs	r1, #14
 626 005e 5B6F     		ldr	r3, [r3, #116]
 627 0060 9847     		blx	r3
ARM GAS  C:\Users\Moi\AppData\Local\Temp\ccbTY5ka.s 			page 12


 628              	.LVL51:
 629              	.L69:
 630              		.loc 1 175 0
 631 0062 2304     		lsls	r3, r4, #16
 632 0064 04D5     		bpl	.L70
 633              		.loc 1 176 0
 634 0066 0B48     		ldr	r0, .L93+8
 635 0068 4368     		ldr	r3, [r0, #4]
 636 006a 0F21     		movs	r1, #15
 637 006c DB6F     		ldr	r3, [r3, #124]
 638 006e 9847     		blx	r3
 639              	.LVL52:
 640              	.L70:
 641              		.loc 1 178 0
 642 0070 FFF7FEFF 		bl	_dbg_check_leave_isr
 643              	.LVL53:
 644 0074 019A     		ldr	r2, [sp, #4]
 645 0076 2B68     		ldr	r3, [r5]
 646 0078 9A42     		cmp	r2, r3
 647 007a 04D1     		bne	.L92
 648              		.loc 1 179 0
 649 007c 03B0     		add	sp, sp, #12
 650              		.cfi_remember_state
 651              		.cfi_def_cfa_offset 12
 652              		@ sp needed
 653 007e BDE83040 		pop	{r4, r5, lr}
 654              		.cfi_restore 14
 655              		.cfi_restore 5
 656              		.cfi_restore 4
 657              		.cfi_def_cfa_offset 0
 658              	.LVL54:
 659              		.loc 1 178 0
 660 0082 FFF7FEBF 		b	_port_irq_epilogue
 661              	.LVL55:
 662              	.L92:
 663              		.cfi_restore_state
 664 0086 FFF7FEFF 		bl	__stack_chk_fail
 665              	.LVL56:
 666              	.L94:
 667 008a 00BF     		.align	2
 668              	.L93:
 669 008c 00000000 		.word	__stack_chk_guard
 670 0090 003C0140 		.word	1073822720
 671 0094 00000000 		.word	EXTD1
 672              		.cfi_endproc
 673              	.LFE262:
 674              		.size	VectorE0, .-VectorE0
 675              		.section	.text.Vector44,"ax",%progbits
 676              		.align	1
 677              		.p2align 4,,15
 678              		.global	Vector44
 679              		.syntax unified
 680              		.thumb
 681              		.thumb_func
 682              		.fpu fpv4-sp-d16
 683              		.type	Vector44, %function
 684              	Vector44:
ARM GAS  C:\Users\Moi\AppData\Local\Temp\ccbTY5ka.s 			page 13


 685              	.LFB263:
 686              		.loc 1 186 0
 687              		.cfi_startproc
 688              		@ args = 0, pretend = 0, frame = 8
 689              		@ frame_needed = 0, uses_anonymous_args = 0
 690 0000 10B5     		push	{r4, lr}
 691              		.cfi_def_cfa_offset 8
 692              		.cfi_offset 4, -8
 693              		.cfi_offset 14, -4
 694 0002 0F4C     		ldr	r4, .L100
 695 0004 82B0     		sub	sp, sp, #8
 696              		.cfi_def_cfa_offset 16
 697              		.loc 1 186 0
 698 0006 2368     		ldr	r3, [r4]
 699 0008 0193     		str	r3, [sp, #4]
 700              		.loc 1 188 0
 701 000a FFF7FEFF 		bl	_stats_increase_irq
 702              	.LVL57:
 703 000e FFF7FEFF 		bl	_dbg_check_enter_isr
 704              	.LVL58:
 705              		.loc 1 191 0
 706 0012 0C48     		ldr	r0, .L100+4
 707              		.loc 1 190 0
 708 0014 0C4A     		ldr	r2, .L100+8
 709              		.loc 1 191 0
 710 0016 4368     		ldr	r3, [r0, #4]
 711              		.loc 1 190 0
 712 0018 4FF48031 		mov	r1, #65536
 713              		.loc 1 191 0
 714 001c D3F88430 		ldr	r3, [r3, #132]
 715              		.loc 1 190 0
 716 0020 5161     		str	r1, [r2, #20]
 717              		.loc 1 191 0
 718 0022 1021     		movs	r1, #16
 719 0024 9847     		blx	r3
 720              	.LVL59:
 721              		.loc 1 193 0
 722 0026 FFF7FEFF 		bl	_dbg_check_leave_isr
 723              	.LVL60:
 724 002a 019A     		ldr	r2, [sp, #4]
 725 002c 2368     		ldr	r3, [r4]
 726 002e 9A42     		cmp	r2, r3
 727 0030 04D1     		bne	.L99
 728              		.loc 1 194 0
 729 0032 02B0     		add	sp, sp, #8
 730              		.cfi_remember_state
 731              		.cfi_def_cfa_offset 8
 732              		@ sp needed
 733 0034 BDE81040 		pop	{r4, lr}
 734              		.cfi_restore 14
 735              		.cfi_restore 4
 736              		.cfi_def_cfa_offset 0
 737              		.loc 1 193 0
 738 0038 FFF7FEBF 		b	_port_irq_epilogue
 739              	.LVL61:
 740              	.L99:
 741              		.cfi_restore_state
ARM GAS  C:\Users\Moi\AppData\Local\Temp\ccbTY5ka.s 			page 14


 742 003c FFF7FEFF 		bl	__stack_chk_fail
 743              	.LVL62:
 744              	.L101:
 745              		.align	2
 746              	.L100:
 747 0040 00000000 		.word	__stack_chk_guard
 748 0044 00000000 		.word	EXTD1
 749 0048 003C0140 		.word	1073822720
 750              		.cfi_endproc
 751              	.LFE263:
 752              		.size	Vector44, .-Vector44
 753              		.section	.text.VectorE4,"ax",%progbits
 754              		.align	1
 755              		.p2align 4,,15
 756              		.global	VectorE4
 757              		.syntax unified
 758              		.thumb
 759              		.thumb_func
 760              		.fpu fpv4-sp-d16
 761              		.type	VectorE4, %function
 762              	VectorE4:
 763              	.LFB264:
 764              		.loc 1 201 0
 765              		.cfi_startproc
 766              		@ args = 0, pretend = 0, frame = 8
 767              		@ frame_needed = 0, uses_anonymous_args = 0
 768 0000 10B5     		push	{r4, lr}
 769              		.cfi_def_cfa_offset 8
 770              		.cfi_offset 4, -8
 771              		.cfi_offset 14, -4
 772 0002 0F4C     		ldr	r4, .L107
 773 0004 82B0     		sub	sp, sp, #8
 774              		.cfi_def_cfa_offset 16
 775              		.loc 1 201 0
 776 0006 2368     		ldr	r3, [r4]
 777 0008 0193     		str	r3, [sp, #4]
 778              		.loc 1 203 0
 779 000a FFF7FEFF 		bl	_stats_increase_irq
 780              	.LVL63:
 781 000e FFF7FEFF 		bl	_dbg_check_enter_isr
 782              	.LVL64:
 783              		.loc 1 206 0
 784 0012 0C48     		ldr	r0, .L107+4
 785              		.loc 1 205 0
 786 0014 0C4A     		ldr	r2, .L107+8
 787              		.loc 1 206 0
 788 0016 4368     		ldr	r3, [r0, #4]
 789              		.loc 1 205 0
 790 0018 4FF40031 		mov	r1, #131072
 791              		.loc 1 206 0
 792 001c D3F88C30 		ldr	r3, [r3, #140]
 793              		.loc 1 205 0
 794 0020 5161     		str	r1, [r2, #20]
 795              		.loc 1 206 0
 796 0022 1121     		movs	r1, #17
 797 0024 9847     		blx	r3
 798              	.LVL65:
ARM GAS  C:\Users\Moi\AppData\Local\Temp\ccbTY5ka.s 			page 15


 799              		.loc 1 208 0
 800 0026 FFF7FEFF 		bl	_dbg_check_leave_isr
 801              	.LVL66:
 802 002a 019A     		ldr	r2, [sp, #4]
 803 002c 2368     		ldr	r3, [r4]
 804 002e 9A42     		cmp	r2, r3
 805 0030 04D1     		bne	.L106
 806              		.loc 1 209 0
 807 0032 02B0     		add	sp, sp, #8
 808              		.cfi_remember_state
 809              		.cfi_def_cfa_offset 8
 810              		@ sp needed
 811 0034 BDE81040 		pop	{r4, lr}
 812              		.cfi_restore 14
 813              		.cfi_restore 4
 814              		.cfi_def_cfa_offset 0
 815              		.loc 1 208 0
 816 0038 FFF7FEBF 		b	_port_irq_epilogue
 817              	.LVL67:
 818              	.L106:
 819              		.cfi_restore_state
 820 003c FFF7FEFF 		bl	__stack_chk_fail
 821              	.LVL68:
 822              	.L108:
 823              		.align	2
 824              	.L107:
 825 0040 00000000 		.word	__stack_chk_guard
 826 0044 00000000 		.word	EXTD1
 827 0048 003C0140 		.word	1073822720
 828              		.cfi_endproc
 829              	.LFE264:
 830              		.size	VectorE4, .-VectorE4
 831              		.section	.text.VectorE8,"ax",%progbits
 832              		.align	1
 833              		.p2align 4,,15
 834              		.global	VectorE8
 835              		.syntax unified
 836              		.thumb
 837              		.thumb_func
 838              		.fpu fpv4-sp-d16
 839              		.type	VectorE8, %function
 840              	VectorE8:
 841              	.LFB265:
 842              		.loc 1 216 0
 843              		.cfi_startproc
 844              		@ args = 0, pretend = 0, frame = 8
 845              		@ frame_needed = 0, uses_anonymous_args = 0
 846 0000 10B5     		push	{r4, lr}
 847              		.cfi_def_cfa_offset 8
 848              		.cfi_offset 4, -8
 849              		.cfi_offset 14, -4
 850 0002 0F4C     		ldr	r4, .L114
 851 0004 82B0     		sub	sp, sp, #8
 852              		.cfi_def_cfa_offset 16
 853              		.loc 1 216 0
 854 0006 2368     		ldr	r3, [r4]
 855 0008 0193     		str	r3, [sp, #4]
ARM GAS  C:\Users\Moi\AppData\Local\Temp\ccbTY5ka.s 			page 16


 856              		.loc 1 218 0
 857 000a FFF7FEFF 		bl	_stats_increase_irq
 858              	.LVL69:
 859 000e FFF7FEFF 		bl	_dbg_check_enter_isr
 860              	.LVL70:
 861              		.loc 1 221 0
 862 0012 0C48     		ldr	r0, .L114+4
 863              		.loc 1 220 0
 864 0014 0C4A     		ldr	r2, .L114+8
 865              		.loc 1 221 0
 866 0016 4368     		ldr	r3, [r0, #4]
 867              		.loc 1 220 0
 868 0018 4FF48021 		mov	r1, #262144
 869              		.loc 1 221 0
 870 001c D3F89430 		ldr	r3, [r3, #148]
 871              		.loc 1 220 0
 872 0020 5161     		str	r1, [r2, #20]
 873              		.loc 1 221 0
 874 0022 1221     		movs	r1, #18
 875 0024 9847     		blx	r3
 876              	.LVL71:
 877              		.loc 1 223 0
 878 0026 FFF7FEFF 		bl	_dbg_check_leave_isr
 879              	.LVL72:
 880 002a 019A     		ldr	r2, [sp, #4]
 881 002c 2368     		ldr	r3, [r4]
 882 002e 9A42     		cmp	r2, r3
 883 0030 04D1     		bne	.L113
 884              		.loc 1 224 0
 885 0032 02B0     		add	sp, sp, #8
 886              		.cfi_remember_state
 887              		.cfi_def_cfa_offset 8
 888              		@ sp needed
 889 0034 BDE81040 		pop	{r4, lr}
 890              		.cfi_restore 14
 891              		.cfi_restore 4
 892              		.cfi_def_cfa_offset 0
 893              		.loc 1 223 0
 894 0038 FFF7FEBF 		b	_port_irq_epilogue
 895              	.LVL73:
 896              	.L113:
 897              		.cfi_restore_state
 898 003c FFF7FEFF 		bl	__stack_chk_fail
 899              	.LVL74:
 900              	.L115:
 901              		.align	2
 902              	.L114:
 903 0040 00000000 		.word	__stack_chk_guard
 904 0044 00000000 		.word	EXTD1
 905 0048 003C0140 		.word	1073822720
 906              		.cfi_endproc
 907              	.LFE265:
 908              		.size	VectorE8, .-VectorE8
 909              		.section	.text.Vector138,"ax",%progbits
 910              		.align	1
 911              		.p2align 4,,15
 912              		.global	Vector138
ARM GAS  C:\Users\Moi\AppData\Local\Temp\ccbTY5ka.s 			page 17


 913              		.syntax unified
 914              		.thumb
 915              		.thumb_func
 916              		.fpu fpv4-sp-d16
 917              		.type	Vector138, %function
 918              	Vector138:
 919              	.LFB266:
 920              		.loc 1 232 0
 921              		.cfi_startproc
 922              		@ args = 0, pretend = 0, frame = 8
 923              		@ frame_needed = 0, uses_anonymous_args = 0
 924 0000 10B5     		push	{r4, lr}
 925              		.cfi_def_cfa_offset 8
 926              		.cfi_offset 4, -8
 927              		.cfi_offset 14, -4
 928 0002 0F4C     		ldr	r4, .L121
 929 0004 82B0     		sub	sp, sp, #8
 930              		.cfi_def_cfa_offset 16
 931              		.loc 1 232 0
 932 0006 2368     		ldr	r3, [r4]
 933 0008 0193     		str	r3, [sp, #4]
 934              		.loc 1 234 0
 935 000a FFF7FEFF 		bl	_stats_increase_irq
 936              	.LVL75:
 937 000e FFF7FEFF 		bl	_dbg_check_enter_isr
 938              	.LVL76:
 939              		.loc 1 237 0
 940 0012 0C48     		ldr	r0, .L121+4
 941              		.loc 1 236 0
 942 0014 0C4A     		ldr	r2, .L121+8
 943              		.loc 1 237 0
 944 0016 4368     		ldr	r3, [r0, #4]
 945              		.loc 1 236 0
 946 0018 4FF40021 		mov	r1, #524288
 947              		.loc 1 237 0
 948 001c D3F89C30 		ldr	r3, [r3, #156]
 949              		.loc 1 236 0
 950 0020 5161     		str	r1, [r2, #20]
 951              		.loc 1 237 0
 952 0022 1321     		movs	r1, #19
 953 0024 9847     		blx	r3
 954              	.LVL77:
 955              		.loc 1 239 0
 956 0026 FFF7FEFF 		bl	_dbg_check_leave_isr
 957              	.LVL78:
 958 002a 019A     		ldr	r2, [sp, #4]
 959 002c 2368     		ldr	r3, [r4]
 960 002e 9A42     		cmp	r2, r3
 961 0030 04D1     		bne	.L120
 962              		.loc 1 240 0
 963 0032 02B0     		add	sp, sp, #8
 964              		.cfi_remember_state
 965              		.cfi_def_cfa_offset 8
 966              		@ sp needed
 967 0034 BDE81040 		pop	{r4, lr}
 968              		.cfi_restore 14
 969              		.cfi_restore 4
ARM GAS  C:\Users\Moi\AppData\Local\Temp\ccbTY5ka.s 			page 18


 970              		.cfi_def_cfa_offset 0
 971              		.loc 1 239 0
 972 0038 FFF7FEBF 		b	_port_irq_epilogue
 973              	.LVL79:
 974              	.L120:
 975              		.cfi_restore_state
 976 003c FFF7FEFF 		bl	__stack_chk_fail
 977              	.LVL80:
 978              	.L122:
 979              		.align	2
 980              	.L121:
 981 0040 00000000 		.word	__stack_chk_guard
 982 0044 00000000 		.word	EXTD1
 983 0048 003C0140 		.word	1073822720
 984              		.cfi_endproc
 985              	.LFE266:
 986              		.size	Vector138, .-Vector138
 987              		.section	.text.Vector170,"ax",%progbits
 988              		.align	1
 989              		.p2align 4,,15
 990              		.global	Vector170
 991              		.syntax unified
 992              		.thumb
 993              		.thumb_func
 994              		.fpu fpv4-sp-d16
 995              		.type	Vector170, %function
 996              	Vector170:
 997              	.LFB267:
 998              		.loc 1 249 0
 999              		.cfi_startproc
 1000              		@ args = 0, pretend = 0, frame = 8
 1001              		@ frame_needed = 0, uses_anonymous_args = 0
 1002 0000 10B5     		push	{r4, lr}
 1003              		.cfi_def_cfa_offset 8
 1004              		.cfi_offset 4, -8
 1005              		.cfi_offset 14, -4
 1006 0002 0F4C     		ldr	r4, .L128
 1007 0004 82B0     		sub	sp, sp, #8
 1008              		.cfi_def_cfa_offset 16
 1009              		.loc 1 249 0
 1010 0006 2368     		ldr	r3, [r4]
 1011 0008 0193     		str	r3, [sp, #4]
 1012              		.loc 1 251 0
 1013 000a FFF7FEFF 		bl	_stats_increase_irq
 1014              	.LVL81:
 1015 000e FFF7FEFF 		bl	_dbg_check_enter_isr
 1016              	.LVL82:
 1017              		.loc 1 254 0
 1018 0012 0C48     		ldr	r0, .L128+4
 1019              		.loc 1 253 0
 1020 0014 0C4A     		ldr	r2, .L128+8
 1021              		.loc 1 254 0
 1022 0016 4368     		ldr	r3, [r0, #4]
 1023              		.loc 1 253 0
 1024 0018 4FF48011 		mov	r1, #1048576
 1025              		.loc 1 254 0
 1026 001c D3F8A430 		ldr	r3, [r3, #164]
ARM GAS  C:\Users\Moi\AppData\Local\Temp\ccbTY5ka.s 			page 19


 1027              		.loc 1 253 0
 1028 0020 5161     		str	r1, [r2, #20]
 1029              		.loc 1 254 0
 1030 0022 1421     		movs	r1, #20
 1031 0024 9847     		blx	r3
 1032              	.LVL83:
 1033              		.loc 1 256 0
 1034 0026 FFF7FEFF 		bl	_dbg_check_leave_isr
 1035              	.LVL84:
 1036 002a 019A     		ldr	r2, [sp, #4]
 1037 002c 2368     		ldr	r3, [r4]
 1038 002e 9A42     		cmp	r2, r3
 1039 0030 04D1     		bne	.L127
 1040              		.loc 1 257 0
 1041 0032 02B0     		add	sp, sp, #8
 1042              		.cfi_remember_state
 1043              		.cfi_def_cfa_offset 8
 1044              		@ sp needed
 1045 0034 BDE81040 		pop	{r4, lr}
 1046              		.cfi_restore 14
 1047              		.cfi_restore 4
 1048              		.cfi_def_cfa_offset 0
 1049              		.loc 1 256 0
 1050 0038 FFF7FEBF 		b	_port_irq_epilogue
 1051              	.LVL85:
 1052              	.L127:
 1053              		.cfi_restore_state
 1054 003c FFF7FEFF 		bl	__stack_chk_fail
 1055              	.LVL86:
 1056              	.L129:
 1057              		.align	2
 1058              	.L128:
 1059 0040 00000000 		.word	__stack_chk_guard
 1060 0044 00000000 		.word	EXTD1
 1061 0048 003C0140 		.word	1073822720
 1062              		.cfi_endproc
 1063              	.LFE267:
 1064              		.size	Vector170, .-Vector170
 1065              		.section	.text.Vector48,"ax",%progbits
 1066              		.align	1
 1067              		.p2align 4,,15
 1068              		.global	Vector48
 1069              		.syntax unified
 1070              		.thumb
 1071              		.thumb_func
 1072              		.fpu fpv4-sp-d16
 1073              		.type	Vector48, %function
 1074              	Vector48:
 1075              	.LFB268:
 1076              		.loc 1 266 0
 1077              		.cfi_startproc
 1078              		@ args = 0, pretend = 0, frame = 8
 1079              		@ frame_needed = 0, uses_anonymous_args = 0
 1080 0000 10B5     		push	{r4, lr}
 1081              		.cfi_def_cfa_offset 8
 1082              		.cfi_offset 4, -8
 1083              		.cfi_offset 14, -4
ARM GAS  C:\Users\Moi\AppData\Local\Temp\ccbTY5ka.s 			page 20


 1084 0002 0F4C     		ldr	r4, .L135
 1085 0004 82B0     		sub	sp, sp, #8
 1086              		.cfi_def_cfa_offset 16
 1087              		.loc 1 266 0
 1088 0006 2368     		ldr	r3, [r4]
 1089 0008 0193     		str	r3, [sp, #4]
 1090              		.loc 1 268 0
 1091 000a FFF7FEFF 		bl	_stats_increase_irq
 1092              	.LVL87:
 1093 000e FFF7FEFF 		bl	_dbg_check_enter_isr
 1094              	.LVL88:
 1095              		.loc 1 271 0
 1096 0012 0C48     		ldr	r0, .L135+4
 1097              		.loc 1 270 0
 1098 0014 0C4A     		ldr	r2, .L135+8
 1099              		.loc 1 271 0
 1100 0016 4368     		ldr	r3, [r0, #4]
 1101              		.loc 1 270 0
 1102 0018 4FF40011 		mov	r1, #2097152
 1103              		.loc 1 271 0
 1104 001c D3F8AC30 		ldr	r3, [r3, #172]
 1105              		.loc 1 270 0
 1106 0020 5161     		str	r1, [r2, #20]
 1107              		.loc 1 271 0
 1108 0022 1521     		movs	r1, #21
 1109 0024 9847     		blx	r3
 1110              	.LVL89:
 1111              		.loc 1 273 0
 1112 0026 FFF7FEFF 		bl	_dbg_check_leave_isr
 1113              	.LVL90:
 1114 002a 019A     		ldr	r2, [sp, #4]
 1115 002c 2368     		ldr	r3, [r4]
 1116 002e 9A42     		cmp	r2, r3
 1117 0030 04D1     		bne	.L134
 1118              		.loc 1 274 0
 1119 0032 02B0     		add	sp, sp, #8
 1120              		.cfi_remember_state
 1121              		.cfi_def_cfa_offset 8
 1122              		@ sp needed
 1123 0034 BDE81040 		pop	{r4, lr}
 1124              		.cfi_restore 14
 1125              		.cfi_restore 4
 1126              		.cfi_def_cfa_offset 0
 1127              		.loc 1 273 0
 1128 0038 FFF7FEBF 		b	_port_irq_epilogue
 1129              	.LVL91:
 1130              	.L134:
 1131              		.cfi_restore_state
 1132 003c FFF7FEFF 		bl	__stack_chk_fail
 1133              	.LVL92:
 1134              	.L136:
 1135              		.align	2
 1136              	.L135:
 1137 0040 00000000 		.word	__stack_chk_guard
 1138 0044 00000000 		.word	EXTD1
 1139 0048 003C0140 		.word	1073822720
 1140              		.cfi_endproc
ARM GAS  C:\Users\Moi\AppData\Local\Temp\ccbTY5ka.s 			page 21


 1141              	.LFE268:
 1142              		.size	Vector48, .-Vector48
 1143              		.section	.text.Vector4C,"ax",%progbits
 1144              		.align	1
 1145              		.p2align 4,,15
 1146              		.global	Vector4C
 1147              		.syntax unified
 1148              		.thumb
 1149              		.thumb_func
 1150              		.fpu fpv4-sp-d16
 1151              		.type	Vector4C, %function
 1152              	Vector4C:
 1153              	.LFB269:
 1154              		.loc 1 282 0
 1155              		.cfi_startproc
 1156              		@ args = 0, pretend = 0, frame = 8
 1157              		@ frame_needed = 0, uses_anonymous_args = 0
 1158 0000 10B5     		push	{r4, lr}
 1159              		.cfi_def_cfa_offset 8
 1160              		.cfi_offset 4, -8
 1161              		.cfi_offset 14, -4
 1162 0002 0F4C     		ldr	r4, .L142
 1163 0004 82B0     		sub	sp, sp, #8
 1164              		.cfi_def_cfa_offset 16
 1165              		.loc 1 282 0
 1166 0006 2368     		ldr	r3, [r4]
 1167 0008 0193     		str	r3, [sp, #4]
 1168              		.loc 1 284 0
 1169 000a FFF7FEFF 		bl	_stats_increase_irq
 1170              	.LVL93:
 1171 000e FFF7FEFF 		bl	_dbg_check_enter_isr
 1172              	.LVL94:
 1173              		.loc 1 287 0
 1174 0012 0C48     		ldr	r0, .L142+4
 1175              		.loc 1 286 0
 1176 0014 0C4A     		ldr	r2, .L142+8
 1177              		.loc 1 287 0
 1178 0016 4368     		ldr	r3, [r0, #4]
 1179              		.loc 1 286 0
 1180 0018 4FF48001 		mov	r1, #4194304
 1181              		.loc 1 287 0
 1182 001c D3F8B430 		ldr	r3, [r3, #180]
 1183              		.loc 1 286 0
 1184 0020 5161     		str	r1, [r2, #20]
 1185              		.loc 1 287 0
 1186 0022 1621     		movs	r1, #22
 1187 0024 9847     		blx	r3
 1188              	.LVL95:
 1189              		.loc 1 289 0
 1190 0026 FFF7FEFF 		bl	_dbg_check_leave_isr
 1191              	.LVL96:
 1192 002a 019A     		ldr	r2, [sp, #4]
 1193 002c 2368     		ldr	r3, [r4]
 1194 002e 9A42     		cmp	r2, r3
 1195 0030 04D1     		bne	.L141
 1196              		.loc 1 290 0
 1197 0032 02B0     		add	sp, sp, #8
ARM GAS  C:\Users\Moi\AppData\Local\Temp\ccbTY5ka.s 			page 22


 1198              		.cfi_remember_state
 1199              		.cfi_def_cfa_offset 8
 1200              		@ sp needed
 1201 0034 BDE81040 		pop	{r4, lr}
 1202              		.cfi_restore 14
 1203              		.cfi_restore 4
 1204              		.cfi_def_cfa_offset 0
 1205              		.loc 1 289 0
 1206 0038 FFF7FEBF 		b	_port_irq_epilogue
 1207              	.LVL97:
 1208              	.L141:
 1209              		.cfi_restore_state
 1210 003c FFF7FEFF 		bl	__stack_chk_fail
 1211              	.LVL98:
 1212              	.L143:
 1213              		.align	2
 1214              	.L142:
 1215 0040 00000000 		.word	__stack_chk_guard
 1216 0044 00000000 		.word	EXTD1
 1217 0048 003C0140 		.word	1073822720
 1218              		.cfi_endproc
 1219              	.LFE269:
 1220              		.size	Vector4C, .-Vector4C
 1221              		.section	.text.ext_lld_exti_irq_enable,"ax",%progbits
 1222              		.align	1
 1223              		.p2align 4,,15
 1224              		.global	ext_lld_exti_irq_enable
 1225              		.syntax unified
 1226              		.thumb
 1227              		.thumb_func
 1228              		.fpu fpv4-sp-d16
 1229              		.type	ext_lld_exti_irq_enable, %function
 1230              	ext_lld_exti_irq_enable:
 1231              	.LFB270:
 1232              		.loc 1 301 0
 1233              		.cfi_startproc
 1234              		@ args = 0, pretend = 0, frame = 8
 1235              		@ frame_needed = 0, uses_anonymous_args = 0
 1236 0000 10B5     		push	{r4, lr}
 1237              		.cfi_def_cfa_offset 8
 1238              		.cfi_offset 4, -8
 1239              		.cfi_offset 14, -4
 1240 0002 224C     		ldr	r4, .L149
 1241 0004 82B0     		sub	sp, sp, #8
 1242              		.cfi_def_cfa_offset 16
 1243              		.loc 1 303 0
 1244 0006 0621     		movs	r1, #6
 1245              		.loc 1 301 0
 1246 0008 2368     		ldr	r3, [r4]
 1247 000a 0193     		str	r3, [sp, #4]
 1248              		.loc 1 303 0
 1249 000c 0846     		mov	r0, r1
 1250 000e FFF7FEFF 		bl	nvicEnableVector
 1251              	.LVL99:
 1252              		.loc 1 304 0
 1253 0012 0621     		movs	r1, #6
 1254 0014 0720     		movs	r0, #7
ARM GAS  C:\Users\Moi\AppData\Local\Temp\ccbTY5ka.s 			page 23


 1255 0016 FFF7FEFF 		bl	nvicEnableVector
 1256              	.LVL100:
 1257              		.loc 1 305 0
 1258 001a 0621     		movs	r1, #6
 1259 001c 0820     		movs	r0, #8
 1260 001e FFF7FEFF 		bl	nvicEnableVector
 1261              	.LVL101:
 1262              		.loc 1 306 0
 1263 0022 0621     		movs	r1, #6
 1264 0024 0920     		movs	r0, #9
 1265 0026 FFF7FEFF 		bl	nvicEnableVector
 1266              	.LVL102:
 1267              		.loc 1 307 0
 1268 002a 0621     		movs	r1, #6
 1269 002c 0A20     		movs	r0, #10
 1270 002e FFF7FEFF 		bl	nvicEnableVector
 1271              	.LVL103:
 1272              		.loc 1 308 0
 1273 0032 0621     		movs	r1, #6
 1274 0034 1720     		movs	r0, #23
 1275 0036 FFF7FEFF 		bl	nvicEnableVector
 1276              	.LVL104:
 1277              		.loc 1 309 0
 1278 003a 0621     		movs	r1, #6
 1279 003c 2820     		movs	r0, #40
 1280 003e FFF7FEFF 		bl	nvicEnableVector
 1281              	.LVL105:
 1282              		.loc 1 310 0
 1283 0042 0621     		movs	r1, #6
 1284 0044 0120     		movs	r0, #1
 1285 0046 FFF7FEFF 		bl	nvicEnableVector
 1286              	.LVL106:
 1287              		.loc 1 311 0
 1288 004a 0F21     		movs	r1, #15
 1289 004c 2920     		movs	r0, #41
 1290 004e FFF7FEFF 		bl	nvicEnableVector
 1291              	.LVL107:
 1292              		.loc 1 312 0
 1293 0052 0621     		movs	r1, #6
 1294 0054 2A20     		movs	r0, #42
 1295 0056 FFF7FEFF 		bl	nvicEnableVector
 1296              	.LVL108:
 1297              		.loc 1 314 0
 1298 005a 0621     		movs	r1, #6
 1299 005c 3E20     		movs	r0, #62
 1300 005e FFF7FEFF 		bl	nvicEnableVector
 1301              	.LVL109:
 1302              		.loc 1 317 0
 1303 0062 0621     		movs	r1, #6
 1304 0064 4C20     		movs	r0, #76
 1305 0066 FFF7FEFF 		bl	nvicEnableVector
 1306              	.LVL110:
 1307              		.loc 1 320 0
 1308 006a 0F21     		movs	r1, #15
 1309 006c 0220     		movs	r0, #2
 1310 006e FFF7FEFF 		bl	nvicEnableVector
 1311              	.LVL111:
ARM GAS  C:\Users\Moi\AppData\Local\Temp\ccbTY5ka.s 			page 24


 1312              		.loc 1 322 0
 1313 0072 019A     		ldr	r2, [sp, #4]
 1314 0074 2368     		ldr	r3, [r4]
 1315 0076 9A42     		cmp	r2, r3
 1316 0078 06D1     		bne	.L148
 1317 007a 0F21     		movs	r1, #15
 1318 007c 0320     		movs	r0, #3
 1319              		.loc 1 323 0
 1320 007e 02B0     		add	sp, sp, #8
 1321              		.cfi_remember_state
 1322              		.cfi_def_cfa_offset 8
 1323              		@ sp needed
 1324 0080 BDE81040 		pop	{r4, lr}
 1325              		.cfi_restore 14
 1326              		.cfi_restore 4
 1327              		.cfi_def_cfa_offset 0
 1328              		.loc 1 322 0
 1329 0084 FFF7FEBF 		b	nvicEnableVector
 1330              	.LVL112:
 1331              	.L148:
 1332              		.cfi_restore_state
 1333 0088 FFF7FEFF 		bl	__stack_chk_fail
 1334              	.LVL113:
 1335              	.L150:
 1336              		.align	2
 1337              	.L149:
 1338 008c 00000000 		.word	__stack_chk_guard
 1339              		.cfi_endproc
 1340              	.LFE270:
 1341              		.size	ext_lld_exti_irq_enable, .-ext_lld_exti_irq_enable
 1342              		.section	.text.ext_lld_exti_irq_disable,"ax",%progbits
 1343              		.align	1
 1344              		.p2align 4,,15
 1345              		.global	ext_lld_exti_irq_disable
 1346              		.syntax unified
 1347              		.thumb
 1348              		.thumb_func
 1349              		.fpu fpv4-sp-d16
 1350              		.type	ext_lld_exti_irq_disable, %function
 1351              	ext_lld_exti_irq_disable:
 1352              	.LFB271:
 1353              		.loc 1 330 0
 1354              		.cfi_startproc
 1355              		@ args = 0, pretend = 0, frame = 8
 1356              		@ frame_needed = 0, uses_anonymous_args = 0
 1357 0000 10B5     		push	{r4, lr}
 1358              		.cfi_def_cfa_offset 8
 1359              		.cfi_offset 4, -8
 1360              		.cfi_offset 14, -4
 1361 0002 1B4C     		ldr	r4, .L156
 1362 0004 82B0     		sub	sp, sp, #8
 1363              		.cfi_def_cfa_offset 16
 1364              		.loc 1 330 0
 1365 0006 2368     		ldr	r3, [r4]
 1366 0008 0193     		str	r3, [sp, #4]
 1367              		.loc 1 332 0
 1368 000a 0620     		movs	r0, #6
ARM GAS  C:\Users\Moi\AppData\Local\Temp\ccbTY5ka.s 			page 25


 1369 000c FFF7FEFF 		bl	nvicDisableVector
 1370              	.LVL114:
 1371              		.loc 1 333 0
 1372 0010 0720     		movs	r0, #7
 1373 0012 FFF7FEFF 		bl	nvicDisableVector
 1374              	.LVL115:
 1375              		.loc 1 334 0
 1376 0016 0820     		movs	r0, #8
 1377 0018 FFF7FEFF 		bl	nvicDisableVector
 1378              	.LVL116:
 1379              		.loc 1 335 0
 1380 001c 0920     		movs	r0, #9
 1381 001e FFF7FEFF 		bl	nvicDisableVector
 1382              	.LVL117:
 1383              		.loc 1 336 0
 1384 0022 0A20     		movs	r0, #10
 1385 0024 FFF7FEFF 		bl	nvicDisableVector
 1386              	.LVL118:
 1387              		.loc 1 337 0
 1388 0028 1720     		movs	r0, #23
 1389 002a FFF7FEFF 		bl	nvicDisableVector
 1390              	.LVL119:
 1391              		.loc 1 338 0
 1392 002e 2820     		movs	r0, #40
 1393 0030 FFF7FEFF 		bl	nvicDisableVector
 1394              	.LVL120:
 1395              		.loc 1 339 0
 1396 0034 0120     		movs	r0, #1
 1397 0036 FFF7FEFF 		bl	nvicDisableVector
 1398              	.LVL121:
 1399              		.loc 1 340 0
 1400 003a 2920     		movs	r0, #41
 1401 003c FFF7FEFF 		bl	nvicDisableVector
 1402              	.LVL122:
 1403              		.loc 1 341 0
 1404 0040 2A20     		movs	r0, #42
 1405 0042 FFF7FEFF 		bl	nvicDisableVector
 1406              	.LVL123:
 1407              		.loc 1 343 0
 1408 0046 3E20     		movs	r0, #62
 1409 0048 FFF7FEFF 		bl	nvicDisableVector
 1410              	.LVL124:
 1411              		.loc 1 346 0
 1412 004c 4C20     		movs	r0, #76
 1413 004e FFF7FEFF 		bl	nvicDisableVector
 1414              	.LVL125:
 1415              		.loc 1 349 0
 1416 0052 0220     		movs	r0, #2
 1417 0054 FFF7FEFF 		bl	nvicDisableVector
 1418              	.LVL126:
 1419              		.loc 1 351 0
 1420 0058 019A     		ldr	r2, [sp, #4]
 1421 005a 2368     		ldr	r3, [r4]
 1422 005c 9A42     		cmp	r2, r3
 1423 005e 05D1     		bne	.L155
 1424 0060 0320     		movs	r0, #3
 1425              		.loc 1 352 0
ARM GAS  C:\Users\Moi\AppData\Local\Temp\ccbTY5ka.s 			page 26


 1426 0062 02B0     		add	sp, sp, #8
 1427              		.cfi_remember_state
 1428              		.cfi_def_cfa_offset 8
 1429              		@ sp needed
 1430 0064 BDE81040 		pop	{r4, lr}
 1431              		.cfi_restore 14
 1432              		.cfi_restore 4
 1433              		.cfi_def_cfa_offset 0
 1434              		.loc 1 351 0
 1435 0068 FFF7FEBF 		b	nvicDisableVector
 1436              	.LVL127:
 1437              	.L155:
 1438              		.cfi_restore_state
 1439 006c FFF7FEFF 		bl	__stack_chk_fail
 1440              	.LVL128:
 1441              	.L157:
 1442              		.align	2
 1443              	.L156:
 1444 0070 00000000 		.word	__stack_chk_guard
 1445              		.cfi_endproc
 1446              	.LFE271:
 1447              		.size	ext_lld_exti_irq_disable, .-ext_lld_exti_irq_disable
 1448              		.text
 1449              	.Letext0:
 1450              		.file 2 "c:\\users\\moi\\documents\\_microinfo\\epuck-eclipse\\tools\\gcc-arm-none-eabi-7-2017-q4-
 1451              		.file 3 "c:\\users\\moi\\documents\\_microinfo\\epuck-eclipse\\tools\\gcc-arm-none-eabi-7-2017-q4-
 1452              		.file 4 "c:\\users\\moi\\documents\\_microinfo\\epuck-eclipse\\tools\\gcc-arm-none-eabi-7-2017-q4-
 1453              		.file 5 "..//ChibiOS//os/rt/ports/ARMCMx/compilers/GCC/chtypes.h"
 1454              		.file 6 "..//ChibiOS//os/rt/include/chsystypes.h"
 1455              		.file 7 "..//ChibiOS//os/rt/include/chschd.h"
 1456              		.file 8 "..//ChibiOS//os/ext/CMSIS/include/core_cm4.h"
 1457              		.file 9 "..//ChibiOS//os/ext/CMSIS/ST/system_stm32f4xx.h"
 1458              		.file 10 "..//ChibiOS//os/ext/CMSIS/ST/stm32f407xx.h"
 1459              		.file 11 "..//ChibiOS//os/rt/ports/ARMCMx/chcore.h"
 1460              		.file 12 "..//ChibiOS//os/rt/ports/ARMCMx/chcore_v7m.h"
 1461              		.file 13 "..//ChibiOS//os/rt/include/chdebug.h"
 1462              		.file 14 "..//ChibiOS//os/rt/include/chtm.h"
 1463              		.file 15 "..//ChibiOS//os/rt/include/chstats.h"
 1464              		.file 16 "..//ChibiOS//os/rt/include/chsem.h"
 1465              		.file 17 "..//ChibiOS//os/rt/include/chmtx.h"
 1466              		.file 18 "..//ChibiOS//os/rt/include/chregistry.h"
 1467              		.file 19 "..//ChibiOS//os/rt/include/chevents.h"
 1468              		.file 20 "..//ChibiOS//os/rt/include/chqueues.h"
 1469              		.file 21 "..//ChibiOS//os/hal/ports/STM32/STM32F4xx/stm32_dma.h"
 1470              		.file 22 "..//ChibiOS//os/hal/include/hal_ioblock.h"
 1471              		.file 23 "..//ChibiOS//os/hal/ports/STM32/LLD/GPIOv2/pal_lld.h"
 1472              		.file 24 "..//ChibiOS//os/hal/include/adc.h"
 1473              		.file 25 "..//ChibiOS//os/hal/ports/STM32/STM32F4xx/adc_lld.h"
 1474              		.file 26 "..//ChibiOS//os/hal/include/can.h"
 1475              		.file 27 "..//ChibiOS//os/hal/ports/STM32/LLD/can_lld.h"
 1476              		.file 28 "..//ChibiOS//os/hal/include/dac.h"
 1477              		.file 29 "..//ChibiOS//os/hal/ports/STM32/LLD/DACv1/dac_lld.h"
 1478              		.file 30 "..//ChibiOS//os/hal/include/ext.h"
 1479              		.file 31 "..//ChibiOS//os/hal/ports/STM32/LLD/ext_lld.h"
 1480              		.file 32 "..//ChibiOS//os/hal/include/gpt.h"
 1481              		.file 33 "..//ChibiOS//os/hal/ports/STM32/LLD/TIMv1/gpt_lld.h"
 1482              		.file 34 "..//ChibiOS//os/hal/ports/STM32/LLD/TIMv1/stm32_tim.h"
ARM GAS  C:\Users\Moi\AppData\Local\Temp\ccbTY5ka.s 			page 27


 1483              		.file 35 "..//ChibiOS//os/hal/include/i2c.h"
 1484              		.file 36 "..//ChibiOS//os/hal/ports/STM32/LLD/I2Cv1/i2c_lld.h"
 1485              		.file 37 "..//ChibiOS//os/hal/include/i2s.h"
 1486              		.file 38 "..//ChibiOS//os/hal/ports/STM32/LLD/SPIv1/i2s_lld.h"
 1487              		.file 39 "..//ChibiOS//os/hal/include/pwm.h"
 1488              		.file 40 "..//ChibiOS//os/hal/ports/STM32/LLD/TIMv1/pwm_lld.h"
 1489              		.file 41 "..//ChibiOS//os/hal/include/serial.h"
 1490              		.file 42 "..//ChibiOS//os/hal/ports/STM32/LLD/USARTv1/serial_lld.h"
 1491              		.file 43 "..//ChibiOS//os/hal/include/sdc.h"
 1492              		.file 44 "..//ChibiOS//os/hal/ports/STM32/LLD/sdc_lld.h"
 1493              		.file 45 "..//ChibiOS//os/hal/include/spi.h"
 1494              		.file 46 "..//ChibiOS//os/hal/ports/STM32/LLD/SPIv1/spi_lld.h"
 1495              		.file 47 "..//ChibiOS//os/hal/include/usb.h"
 1496              		.file 48 "..//ChibiOS//os/hal/ports/STM32/LLD/OTGv1/usb_lld.h"
 1497              		.file 49 "..//ChibiOS//os/hal/ports/STM32/LLD/OTGv1/stm32_otg.h"
 1498              		.file 50 "..//ChibiOS//os/hal/ports/common/ARMCMx/nvic.h"