ARM GAS  C:\Users\Moi\AppData\Local\Temp\ccqw64Tg.s 			page 1


   1              		.cpu cortex-m4
   2              		.eabi_attribute 27, 1
   3              		.eabi_attribute 28, 1
   4              		.eabi_attribute 20, 1
   5              		.eabi_attribute 21, 1
   6              		.eabi_attribute 23, 3
   7              		.eabi_attribute 24, 1
   8              		.eabi_attribute 25, 1
   9              		.eabi_attribute 26, 1
  10              		.eabi_attribute 30, 2
  11              		.eabi_attribute 34, 1
  12              		.eabi_attribute 18, 4
  13              		.file	"ff.c"
  14              		.text
  15              	.Ltext0:
  16              		.cfi_sections	.debug_frame
  17              		.section	.text.get_ldnumber,"ax",%progbits
  18              		.align	1
  19              		.p2align 4,,15
  20              		.syntax unified
  21              		.thumb
  22              		.thumb_func
  23              		.fpu fpv4-sp-d16
  24              		.type	get_ldnumber, %function
  25              	get_ldnumber:
  26              	.LFB249:
  27              		.file 1 "..//ChibiOS_ext//ext/fatfs/src/ff.c"
  28              		.loc 1 2080 0
  29              		.cfi_startproc
  30              		@ args = 0, pretend = 0, frame = 8
  31              		@ frame_needed = 0, uses_anonymous_args = 0
  32              	.LVL0:
  33 0000 70B5     		push	{r4, r5, r6, lr}
  34              		.cfi_def_cfa_offset 16
  35              		.cfi_offset 4, -16
  36              		.cfi_offset 5, -12
  37              		.cfi_offset 6, -8
  38              		.cfi_offset 14, -4
  39 0002 164E     		ldr	r6, .L20
  40              		.loc 1 2086 0
  41 0004 0468     		ldr	r4, [r0]
  42              		.loc 1 2080 0
  43 0006 3368     		ldr	r3, [r6]
  44 0008 82B0     		sub	sp, sp, #8
  45              		.cfi_def_cfa_offset 24
  46              		.loc 1 2080 0
  47 000a 0193     		str	r3, [sp, #4]
  48              	.LVL1:
  49              		.loc 1 2086 0
  50 000c 04B3     		cbz	r4, .L15
  51              	.LVL2:
  52              		.loc 1 2087 0
  53 000e 2578     		ldrb	r5, [r4]	@ zero_extendqisi2
  54 0010 1F2D     		cmp	r5, #31
  55 0012 0BD9     		bls	.L10
  56 0014 3A2D     		cmp	r5, #58
  57 0016 1BD0     		beq	.L15
ARM GAS  C:\Users\Moi\AppData\Local\Temp\ccqw64Tg.s 			page 2


  58 0018 2346     		mov	r3, r4
  59 001a 02E0     		b	.L3
  60              	.LVL3:
  61              	.L18:
  62              		.loc 1 2087 0 is_stmt 0 discriminator 3
  63 001c 3A2A     		cmp	r2, #58
  64 001e 0DD0     		beq	.L17
  65 0020 0B46     		mov	r3, r1
  66              	.LVL4:
  67              	.L3:
  68              		.loc 1 2087 0 discriminator 4
  69 0022 5A78     		ldrb	r2, [r3, #1]	@ zero_extendqisi2
  70 0024 1F2A     		cmp	r2, #31
  71 0026 03F10101 		add	r1, r3, #1
  72              	.LVL5:
  73 002a F7D8     		bhi	.L18
  74              	.LVL6:
  75              	.L10:
  76              		.loc 1 2122 0 is_stmt 1
  77 002c 0022     		movs	r2, #0
  78              	.LVL7:
  79              	.L1:
  80              		.loc 1 2126 0
  81 002e 0199     		ldr	r1, [sp, #4]
  82 0030 3368     		ldr	r3, [r6]
  83 0032 9942     		cmp	r1, r3
  84 0034 1046     		mov	r0, r2
  85              	.LVL8:
  86 0036 0ED1     		bne	.L19
  87 0038 02B0     		add	sp, sp, #8
  88              		.cfi_remember_state
  89              		.cfi_def_cfa_offset 16
  90              		@ sp needed
  91 003a 70BD     		pop	{r4, r5, r6, pc}
  92              	.LVL9:
  93              	.L17:
  94              		.cfi_restore_state
  95              		.loc 1 2090 0
  96 003c 0134     		adds	r4, r4, #1
  97              	.LVL10:
  98              		.loc 1 2091 0
  99 003e A142     		cmp	r1, r4
 100              		.loc 1 2090 0
 101 0040 A5F13002 		sub	r2, r5, #48
 102              	.LVL11:
 103              		.loc 1 2091 0
 104 0044 04D1     		bne	.L15
 105              		.loc 1 2092 0
 106 0046 302D     		cmp	r5, #48
 107 0048 02D1     		bne	.L15
 108              	.LVL12:
 109              		.loc 1 2094 0
 110 004a 0233     		adds	r3, r3, #2
 111              	.LVL13:
 112 004c 0360     		str	r3, [r0]
 113 004e EEE7     		b	.L1
 114              	.LVL14:
ARM GAS  C:\Users\Moi\AppData\Local\Temp\ccqw64Tg.s 			page 3


 115              	.L15:
 116              		.loc 1 2083 0
 117 0050 4FF0FF32 		mov	r2, #-1
 118 0054 EBE7     		b	.L1
 119              	.LVL15:
 120              	.L19:
 121              		.loc 1 2126 0
 122 0056 FFF7FEFF 		bl	__stack_chk_fail
 123              	.LVL16:
 124              	.L21:
 125 005a 00BF     		.align	2
 126              	.L20:
 127 005c 00000000 		.word	__stack_chk_guard
 128              		.cfi_endproc
 129              	.LFE249:
 130              		.size	get_ldnumber, .-get_ldnumber
 131              		.section	.text.validate,"ax",%progbits
 132              		.align	1
 133              		.p2align 4,,15
 134              		.syntax unified
 135              		.thumb
 136              		.thumb_func
 137              		.fpu fpv4-sp-d16
 138              		.type	validate, %function
 139              	validate:
 140              	.LFB252:
 141              		.loc 1 2338 0
 142              		.cfi_startproc
 143              		@ args = 0, pretend = 0, frame = 8
 144              		@ frame_needed = 0, uses_anonymous_args = 0
 145              	.LVL17:
 146 0000 10B5     		push	{r4, lr}
 147              		.cfi_def_cfa_offset 8
 148              		.cfi_offset 4, -8
 149              		.cfi_offset 14, -4
 150 0002 0F4C     		ldr	r4, .L33
 151 0004 82B0     		sub	sp, sp, #8
 152              		.cfi_def_cfa_offset 16
 153              		.loc 1 2338 0
 154 0006 2368     		ldr	r3, [r4]
 155 0008 0193     		str	r3, [sp, #4]
 156              	.LVL18:
 157              		.loc 1 2342 0
 158 000a 38B1     		cbz	r0, .L28
 159              		.loc 1 2342 0 is_stmt 0 discriminator 1
 160 000c 0368     		ldr	r3, [r0]
 161 000e 2BB1     		cbz	r3, .L28
 162              		.loc 1 2342 0 discriminator 2
 163 0010 1A78     		ldrb	r2, [r3]	@ zero_extendqisi2
 164 0012 1AB1     		cbz	r2, .L28
 165              		.loc 1 2342 0 discriminator 3
 166 0014 8288     		ldrh	r2, [r0, #4]
 167 0016 D988     		ldrh	r1, [r3, #6]
 168 0018 9142     		cmp	r1, r2
 169 001a 06D0     		beq	.L31
 170              	.L28:
 171              		.loc 1 2343 0 is_stmt 1
ARM GAS  C:\Users\Moi\AppData\Local\Temp\ccqw64Tg.s 			page 4


 172 001c 0920     		movs	r0, #9
 173              	.LVL19:
 174              	.L23:
 175              		.loc 1 2351 0
 176 001e 019A     		ldr	r2, [sp, #4]
 177 0020 2368     		ldr	r3, [r4]
 178 0022 9A42     		cmp	r2, r3
 179 0024 0AD1     		bne	.L32
 180 0026 02B0     		add	sp, sp, #8
 181              		.cfi_remember_state
 182              		.cfi_def_cfa_offset 8
 183              		@ sp needed
 184 0028 10BD     		pop	{r4, pc}
 185              	.LVL20:
 186              	.L31:
 187              		.cfi_restore_state
 188              		.loc 1 2347 0
 189 002a 5878     		ldrb	r0, [r3, #1]	@ zero_extendqisi2
 190              	.LVL21:
 191 002c FFF7FEFF 		bl	disk_status
 192              	.LVL22:
 193 0030 10F0010F 		tst	r0, #1
 194              		.loc 1 2350 0
 195 0034 14BF     		ite	ne
 196 0036 0320     		movne	r0, #3
 197 0038 0020     		moveq	r0, #0
 198 003a F0E7     		b	.L23
 199              	.L32:
 200              		.loc 1 2351 0
 201 003c FFF7FEFF 		bl	__stack_chk_fail
 202              	.LVL23:
 203              	.L34:
 204              		.align	2
 205              	.L33:
 206 0040 00000000 		.word	__stack_chk_guard
 207              		.cfi_endproc
 208              	.LFE252:
 209              		.size	validate, .-validate
 210              		.section	.text.get_fileinfo,"ax",%progbits
 211              		.align	1
 212              		.p2align 4,,15
 213              		.syntax unified
 214              		.thumb
 215              		.thumb_func
 216              		.fpu fpv4-sp-d16
 217              		.type	get_fileinfo, %function
 218              	get_fileinfo:
 219              	.LFB246:
 220              		.loc 1 1739 0
 221              		.cfi_startproc
 222              		@ args = 0, pretend = 0, frame = 8
 223              		@ frame_needed = 0, uses_anonymous_args = 0
 224              	.LVL24:
 225 0000 2DE9F041 		push	{r4, r5, r6, r7, r8, lr}
 226              		.cfi_def_cfa_offset 24
 227              		.cfi_offset 4, -24
 228              		.cfi_offset 5, -20
ARM GAS  C:\Users\Moi\AppData\Local\Temp\ccqw64Tg.s 			page 5


 229              		.cfi_offset 6, -16
 230              		.cfi_offset 7, -12
 231              		.cfi_offset 8, -8
 232              		.cfi_offset 14, -4
 233 0004 414F     		ldr	r7, .L85
 234              		.loc 1 1745 0
 235 0006 0369     		ldr	r3, [r0, #16]
 236              		.loc 1 1739 0
 237 0008 3A68     		ldr	r2, [r7]
 238 000a 82B0     		sub	sp, sp, #8
 239              		.cfi_def_cfa_offset 32
 240              		.loc 1 1739 0
 241 000c 0E46     		mov	r6, r1
 242 000e 0192     		str	r2, [sp, #4]
 243              		.loc 1 1744 0
 244 0010 0931     		adds	r1, r1, #9
 245              	.LVL25:
 246              		.loc 1 1745 0
 247 0012 002B     		cmp	r3, #0
 248 0014 3ED0     		beq	.L36
 249              	.LBB226:
 250              		.loc 1 1746 0
 251 0016 4569     		ldr	r5, [r0, #20]
 252              	.LVL26:
 253              		.loc 1 1753 0
 254 0018 4FF02E08 		mov	r8, #46
 255 001c 05F10B0E 		add	lr, r5, #11
 256              		.loc 1 1746 0
 257 0020 2C46     		mov	r4, r5
 258 0022 19E0     		b	.L43
 259              	.LVL27:
 260              	.L80:
 261 0024 A4EB050C 		sub	ip, r4, r5
 262 0028 A3F14102 		sub	r2, r3, #65
 263              		.loc 1 1753 0
 264 002c BCF1090F 		cmp	ip, #9
 265 0030 D2B2     		uxtb	r2, r2
 266 0032 5FD0     		beq	.L78
 267              		.loc 1 1755 0
 268 0034 192A     		cmp	r2, #25
 269 0036 0BD8     		bhi	.L41
 270              		.loc 1 1755 0 is_stmt 0 discriminator 1
 271 0038 BCF1080F 		cmp	ip, #8
 272 003c 95F80CC0 		ldrb	ip, [r5, #12]	@ zero_extendqisi2
 273 0040 8CBF     		ite	hi
 274 0042 1022     		movhi	r2, #16
 275 0044 0822     		movls	r2, #8
 276              	.L42:
 277              		.loc 1 1755 0 discriminator 5
 278 0046 12EA0C0F 		tst	r2, ip
 279              		.loc 1 1756 0 is_stmt 1 discriminator 5
 280 004a 1CBF     		itt	ne
 281 004c 2033     		addne	r3, r3, #32
 282              	.LVL28:
 283 004e DBB2     		uxtbne	r3, r3
 284              	.LVL29:
 285              	.L41:
ARM GAS  C:\Users\Moi\AppData\Local\Temp\ccqw64Tg.s 			page 6


 286              		.loc 1 1764 0
 287 0050 0B70     		strb	r3, [r1]
 288 0052 0131     		adds	r1, r1, #1
 289              	.LVL30:
 290              	.L37:
 291              		.loc 1 1749 0
 292 0054 7445     		cmp	r4, lr
 293 0056 0FD0     		beq	.L79
 294              	.LVL31:
 295              	.L43:
 296              		.loc 1 1750 0
 297 0058 14F8013B 		ldrb	r3, [r4], #1	@ zero_extendqisi2
 298              	.LVL32:
 299              		.loc 1 1751 0
 300 005c 202B     		cmp	r3, #32
 301 005e F9D0     		beq	.L37
 302              		.loc 1 1752 0
 303 0060 052B     		cmp	r3, #5
 304 0062 DFD1     		bne	.L80
 305              	.LVL33:
 306              		.loc 1 1753 0
 307 0064 631B     		subs	r3, r4, r5
 308 0066 092B     		cmp	r3, #9
 309              		.loc 1 1752 0
 310 0068 18BF     		it	ne
 311 006a E523     		movne	r3, #229
 312              		.loc 1 1753 0
 313 006c F0D1     		bne	.L41
 314 006e 81F80080 		strb	r8, [r1]
 315              		.loc 1 1752 0
 316 0072 E523     		movs	r3, #229
 317              		.loc 1 1753 0
 318 0074 0131     		adds	r1, r1, #1
 319              	.LVL34:
 320 0076 EBE7     		b	.L41
 321              	.LVL35:
 322              	.L79:
 323              		.loc 1 1766 0
 324 0078 EB7A     		ldrb	r3, [r5, #11]	@ zero_extendqisi2
 325              	.LVL36:
 326 007a 3372     		strb	r3, [r6, #8]
 327              		.loc 1 1767 0
 328 007c EB69     		ldr	r3, [r5, #28]	@ unaligned
 329 007e 3360     		str	r3, [r6]
 330              		.loc 1 1768 0
 331 0080 6A7E     		ldrb	r2, [r5, #25]	@ zero_extendqisi2
 332 0082 2B7E     		ldrb	r3, [r5, #24]	@ zero_extendqisi2
 333 0084 43EA0223 		orr	r3, r3, r2, lsl #8
 334 0088 B380     		strh	r3, [r6, #4]	@ movhi
 335              		.loc 1 1769 0
 336 008a EA7D     		ldrb	r2, [r5, #23]	@ zero_extendqisi2
 337 008c AB7D     		ldrb	r3, [r5, #22]	@ zero_extendqisi2
 338 008e 43EA0223 		orr	r3, r3, r2, lsl #8
 339 0092 F380     		strh	r3, [r6, #6]	@ movhi
 340              	.LVL37:
 341              	.L36:
 342              	.LBE226:
ARM GAS  C:\Users\Moi\AppData\Local\Temp\ccqw64Tg.s 			page 7


 343              		.loc 1 1771 0
 344 0094 0024     		movs	r4, #0
 345 0096 0C70     		strb	r4, [r1]
 346              		.loc 1 1774 0
 347 0098 B569     		ldr	r5, [r6, #24]
 348 009a 1DB1     		cbz	r5, .L35
 349              	.LVL38:
 350              	.LBB227:
 351              		.loc 1 1778 0
 352 009c 0369     		ldr	r3, [r0, #16]
 353 009e 43B9     		cbnz	r3, .L81
 354              	.LVL39:
 355              	.L45:
 356              		.loc 1 1791 0
 357 00a0 0023     		movs	r3, #0
 358 00a2 2B70     		strb	r3, [r5]
 359              	.L35:
 360              	.LBE227:
 361              		.loc 1 1794 0
 362 00a4 019A     		ldr	r2, [sp, #4]
 363 00a6 3B68     		ldr	r3, [r7]
 364 00a8 9A42     		cmp	r2, r3
 365 00aa 2DD1     		bne	.L82
 366 00ac 02B0     		add	sp, sp, #8
 367              		.cfi_remember_state
 368              		.cfi_def_cfa_offset 24
 369              		@ sp needed
 370 00ae BDE8F081 		pop	{r4, r5, r6, r7, r8, pc}
 371              	.LVL40:
 372              	.L81:
 373              		.cfi_restore_state
 374              	.LBB228:
 375              		.loc 1 1778 0 discriminator 1
 376 00b2 F369     		ldr	r3, [r6, #28]
 377 00b4 002B     		cmp	r3, #0
 378 00b6 F3D0     		beq	.L45
 379              		.loc 1 1778 0 is_stmt 0 discriminator 2
 380 00b8 028C     		ldrh	r2, [r0, #32]
 381 00ba 4FF6FF73 		movw	r3, #65535
 382 00be 9A42     		cmp	r2, r3
 383 00c0 EED0     		beq	.L45
 384              		.loc 1 1779 0 is_stmt 1
 385 00c2 D0F81C80 		ldr	r8, [r0, #28]
 386              	.LVL41:
 387              		.loc 1 1780 0
 388 00c6 B8F80000 		ldrh	r0, [r8]
 389              	.LVL42:
 390 00ca 58B9     		cbnz	r0, .L46
 391 00cc E8E7     		b	.L45
 392              	.LVL43:
 393              	.L84:
 394              		.loc 1 1787 0
 395 00ce F369     		ldr	r3, [r6, #28]
 396 00d0 013B     		subs	r3, r3, #1
 397 00d2 A342     		cmp	r3, r4
 398 00d4 E4D9     		bls	.L45
 399              		.loc 1 1788 0
ARM GAS  C:\Users\Moi\AppData\Local\Temp\ccqw64Tg.s 			page 8


 400 00d6 0134     		adds	r4, r4, #1
 401              	.LVL44:
 402 00d8 2B19     		adds	r3, r5, r4
 403 00da 03F8010C 		strb	r0, [r3, #-1]
 404              	.LVL45:
 405              		.loc 1 1780 0
 406 00de 38F81400 		ldrh	r0, [r8, r4, lsl #1]
 407              	.LVL46:
 408 00e2 28B1     		cbz	r0, .L83
 409              	.LVL47:
 410              	.L46:
 411              		.loc 1 1782 0
 412 00e4 0021     		movs	r1, #0
 413 00e6 FFF7FEFF 		bl	ff_convert
 414              	.LVL48:
 415              		.loc 1 1783 0
 416 00ea 0028     		cmp	r0, #0
 417 00ec EFD1     		bne	.L84
 418 00ee D7E7     		b	.L45
 419              	.LVL49:
 420              	.L83:
 421 00f0 1D46     		mov	r5, r3
 422              	.LVL50:
 423 00f2 D5E7     		b	.L45
 424              	.LVL51:
 425              	.L78:
 426              	.LBE228:
 427              	.LBB229:
 428              		.loc 1 1755 0 discriminator 1
 429 00f4 192A     		cmp	r2, #25
 430              		.loc 1 1753 0 discriminator 1
 431 00f6 81F80080 		strb	r8, [r1]
 432 00fa 01F10101 		add	r1, r1, #1
 433              	.LVL52:
 434              		.loc 1 1755 0 discriminator 1
 435 00fe A7D8     		bhi	.L41
 436              		.loc 1 1755 0 is_stmt 0
 437 0100 95F80CC0 		ldrb	ip, [r5, #12]	@ zero_extendqisi2
 438 0104 1022     		movs	r2, #16
 439 0106 9EE7     		b	.L42
 440              	.LVL53:
 441              	.L82:
 442              	.LBE229:
 443              		.loc 1 1794 0 is_stmt 1
 444 0108 FFF7FEFF 		bl	__stack_chk_fail
 445              	.LVL54:
 446              	.L86:
 447              		.align	2
 448              	.L85:
 449 010c 00000000 		.word	__stack_chk_guard
 450              		.cfi_endproc
 451              	.LFE246:
 452              		.size	get_fileinfo, .-get_fileinfo
 453              		.section	.text.sync_window.part.2,"ax",%progbits
 454              		.align	1
 455              		.p2align 4,,15
 456              		.syntax unified
ARM GAS  C:\Users\Moi\AppData\Local\Temp\ccqw64Tg.s 			page 9


 457              		.thumb
 458              		.thumb_func
 459              		.fpu fpv4-sp-d16
 460              		.type	sync_window.part.2, %function
 461              	sync_window.part.2:
 462              	.LFB281:
 463              		.loc 1 755 0
 464              		.cfi_startproc
 465              		@ args = 0, pretend = 0, frame = 8
 466              		@ frame_needed = 0, uses_anonymous_args = 0
 467              	.LVL55:
 468 0000 2DE9F041 		push	{r4, r5, r6, r7, r8, lr}
 469              		.cfi_def_cfa_offset 24
 470              		.cfi_offset 4, -24
 471              		.cfi_offset 5, -20
 472              		.cfi_offset 6, -16
 473              		.cfi_offset 7, -12
 474              		.cfi_offset 8, -8
 475              		.cfi_offset 14, -4
 476 0004 DFF86480 		ldr	r8, .L100
 477              		.loc 1 764 0
 478 0008 C56A     		ldr	r5, [r0, #44]
 479              	.LVL56:
 480              		.loc 1 755 0
 481 000a D8F80030 		ldr	r3, [r8]
 482 000e 82B0     		sub	sp, sp, #8
 483              		.cfi_def_cfa_offset 32
 484              		.loc 1 755 0
 485 0010 0446     		mov	r4, r0
 486              		.loc 1 765 0
 487 0012 04F13007 		add	r7, r4, #48
 488              		.loc 1 755 0
 489 0016 0193     		str	r3, [sp, #4]
 490              		.loc 1 765 0
 491 0018 4078     		ldrb	r0, [r0, #1]	@ zero_extendqisi2
 492              	.LVL57:
 493 001a 2A46     		mov	r2, r5
 494 001c 3946     		mov	r1, r7
 495 001e 0123     		movs	r3, #1
 496 0020 FFF7FEFF 		bl	disk_write
 497              	.LVL58:
 498 0024 E8B9     		cbnz	r0, .L93
 499              		.loc 1 768 0
 500 0026 226A     		ldr	r2, [r4, #32]
 501 0028 A369     		ldr	r3, [r4, #24]
 502              		.loc 1 767 0
 503 002a 2071     		strb	r0, [r4, #4]
 504              		.loc 1 768 0
 505 002c AA1A     		subs	r2, r5, r2
 506 002e 9A42     		cmp	r2, r3
 507 0030 0ED2     		bcs	.L90
 508              		.loc 1 769 0
 509 0032 E678     		ldrb	r6, [r4, #3]	@ zero_extendqisi2
 510              	.LVL59:
 511 0034 012E     		cmp	r6, #1
 512 0036 01D8     		bhi	.L91
 513 0038 0AE0     		b	.L90
ARM GAS  C:\Users\Moi\AppData\Local\Temp\ccqw64Tg.s 			page 10


 514              	.L98:
 515 003a A369     		ldr	r3, [r4, #24]
 516              	.L91:
 517              		.loc 1 771 0
 518 003c 6078     		ldrb	r0, [r4, #1]	@ zero_extendqisi2
 519              		.loc 1 770 0
 520 003e 1D44     		add	r5, r5, r3
 521              	.LVL60:
 522              		.loc 1 769 0
 523 0040 013E     		subs	r6, r6, #1
 524              	.LVL61:
 525              		.loc 1 771 0
 526 0042 2A46     		mov	r2, r5
 527 0044 0123     		movs	r3, #1
 528 0046 3946     		mov	r1, r7
 529 0048 FFF7FEFF 		bl	disk_write
 530              	.LVL62:
 531              		.loc 1 769 0
 532 004c 012E     		cmp	r6, #1
 533 004e F4D1     		bne	.L98
 534              	.LVL63:
 535              	.L90:
 536              		.loc 1 775 0
 537 0050 0020     		movs	r0, #0
 538              	.L88:
 539              		.loc 1 776 0
 540 0052 019A     		ldr	r2, [sp, #4]
 541 0054 D8F80030 		ldr	r3, [r8]
 542 0058 9A42     		cmp	r2, r3
 543 005a 04D1     		bne	.L99
 544 005c 02B0     		add	sp, sp, #8
 545              		.cfi_remember_state
 546              		.cfi_def_cfa_offset 24
 547              		@ sp needed
 548 005e BDE8F081 		pop	{r4, r5, r6, r7, r8, pc}
 549              	.LVL64:
 550              	.L93:
 551              		.cfi_restore_state
 552              		.loc 1 766 0
 553 0062 0120     		movs	r0, #1
 554 0064 F5E7     		b	.L88
 555              	.L99:
 556              		.loc 1 776 0
 557 0066 FFF7FEFF 		bl	__stack_chk_fail
 558              	.LVL65:
 559              	.L101:
 560 006a 00BF     		.align	2
 561              	.L100:
 562 006c 00000000 		.word	__stack_chk_guard
 563              		.cfi_endproc
 564              	.LFE281:
 565              		.size	sync_window.part.2, .-sync_window.part.2
 566              		.section	.text.sync_fs,"ax",%progbits
 567              		.align	1
 568              		.p2align 4,,15
 569              		.syntax unified
 570              		.thumb
ARM GAS  C:\Users\Moi\AppData\Local\Temp\ccqw64Tg.s 			page 11


 571              		.thumb_func
 572              		.fpu fpv4-sp-d16
 573              		.type	sync_fs, %function
 574              	sync_fs:
 575              	.LFB225:
 576              		.loc 1 810 0
 577              		.cfi_startproc
 578              		@ args = 0, pretend = 0, frame = 8
 579              		@ frame_needed = 0, uses_anonymous_args = 0
 580              	.LVL66:
 581 0000 F0B5     		push	{r4, r5, r6, r7, lr}
 582              		.cfi_def_cfa_offset 20
 583              		.cfi_offset 4, -20
 584              		.cfi_offset 5, -16
 585              		.cfi_offset 6, -12
 586              		.cfi_offset 7, -8
 587              		.cfi_offset 14, -4
 588 0002 2D4E     		ldr	r6, .L118
 589              	.LBB230:
 590              	.LBB231:
 591              		.loc 1 763 0
 592 0004 0379     		ldrb	r3, [r0, #4]	@ zero_extendqisi2
 593              	.LBE231:
 594              	.LBE230:
 595              		.loc 1 810 0
 596 0006 3268     		ldr	r2, [r6]
 597 0008 83B0     		sub	sp, sp, #12
 598              		.cfi_def_cfa_offset 32
 599              		.loc 1 810 0
 600 000a 0546     		mov	r5, r0
 601 000c 0192     		str	r2, [sp, #4]
 602              	.LVL67:
 603              	.LBB234:
 604              	.LBB232:
 605              		.loc 1 763 0
 606 000e 83B9     		cbnz	r3, .L103
 607              	.LBE232:
 608              	.LBE234:
 609              		.loc 1 817 0
 610 0010 2B78     		ldrb	r3, [r5]	@ zero_extendqisi2
 611 0012 032B     		cmp	r3, #3
 612 0014 14D0     		beq	.L116
 613              	.LVL68:
 614              	.L105:
 615              		.loc 1 831 0
 616 0016 0022     		movs	r2, #0
 617 0018 6878     		ldrb	r0, [r5, #1]	@ zero_extendqisi2
 618 001a 1146     		mov	r1, r2
 619 001c FFF7FEFF 		bl	disk_ioctl
 620              	.LVL69:
 621 0020 0030     		adds	r0, r0, #0
 622 0022 18BF     		it	ne
 623 0024 0120     		movne	r0, #1
 624              	.L107:
 625              	.LVL70:
 626              		.loc 1 836 0
 627 0026 019A     		ldr	r2, [sp, #4]
ARM GAS  C:\Users\Moi\AppData\Local\Temp\ccqw64Tg.s 			page 12


 628 0028 3368     		ldr	r3, [r6]
 629 002a 9A42     		cmp	r2, r3
 630 002c 41D1     		bne	.L117
 631 002e 03B0     		add	sp, sp, #12
 632              		.cfi_remember_state
 633              		.cfi_def_cfa_offset 20
 634              		@ sp needed
 635 0030 F0BD     		pop	{r4, r5, r6, r7, pc}
 636              	.LVL71:
 637              	.L103:
 638              		.cfi_restore_state
 639              	.LBB235:
 640              	.LBB233:
 641 0032 FFF7FEFF 		bl	sync_window.part.2
 642              	.LVL72:
 643              	.LBE233:
 644              	.LBE235:
 645              		.loc 1 815 0
 646 0036 0028     		cmp	r0, #0
 647 0038 F5D1     		bne	.L107
 648              		.loc 1 817 0
 649 003a 2B78     		ldrb	r3, [r5]	@ zero_extendqisi2
 650 003c 032B     		cmp	r3, #3
 651 003e EAD1     		bne	.L105
 652              	.L116:
 653              		.loc 1 817 0 is_stmt 0 discriminator 1
 654 0040 6B79     		ldrb	r3, [r5, #5]	@ zero_extendqisi2
 655 0042 012B     		cmp	r3, #1
 656 0044 E7D1     		bne	.L105
 657              		.loc 1 819 0 is_stmt 1
 658 0046 05F13001 		add	r1, r5, #48
 659              	.LVL73:
 660              	.LBB236:
 661              	.LBB237:
 662              		.loc 1 580 0
 663 004a 0B46     		mov	r3, r1
 664 004c 05F50C72 		add	r2, r5, #560
 665              		.loc 1 583 0
 666 0050 0024     		movs	r4, #0
 667              	.LVL74:
 668              	.L108:
 669 0052 03F8014B 		strb	r4, [r3], #1
 670              	.LVL75:
 671              		.loc 1 582 0
 672 0056 9342     		cmp	r3, r2
 673 0058 FBD1     		bne	.L108
 674              	.LVL76:
 675              	.LBE237:
 676              	.LBE236:
 677              		.loc 1 824 0
 678 005a D5E90330 		ldrd	r3, r0, [r5, #12]
 679              		.loc 1 823 0
 680 005e C0F30727 		ubfx	r7, r0, #8, #8
 681              		.loc 1 826 0
 682 0062 EA69     		ldr	r2, [r5, #28]
 683              		.loc 1 823 0
 684 0064 85F81802 		strb	r0, [r5, #536]
ARM GAS  C:\Users\Moi\AppData\Local\Temp\ccqw64Tg.s 			page 13


 685 0068 85F81972 		strb	r7, [r5, #537]
 686 006c 070C     		lsrs	r7, r0, #16
 687 006e 000E     		lsrs	r0, r0, #24
 688 0070 85F81A72 		strb	r7, [r5, #538]
 689 0074 85F81B02 		strb	r0, [r5, #539]
 690              		.loc 1 824 0
 691 0078 C3F30727 		ubfx	r7, r3, #8, #8
 692 007c 180C     		lsrs	r0, r3, #16
 693 007e 85F81C32 		strb	r3, [r5, #540]
 694 0082 1B0E     		lsrs	r3, r3, #24
 695              		.loc 1 826 0
 696 0084 0132     		adds	r2, r2, #1
 697              		.loc 1 824 0
 698 0086 85F81D72 		strb	r7, [r5, #541]
 699 008a 85F81E02 		strb	r0, [r5, #542]
 700 008e 85F81F32 		strb	r3, [r5, #543]
 701              		.loc 1 821 0
 702 0092 0A48     		ldr	r0, .L118+4
 703              		.loc 1 822 0
 704 0094 0A4B     		ldr	r3, .L118+8
 705              		.loc 1 821 0
 706 0096 2863     		str	r0, [r5, #48]
 707              		.loc 1 820 0
 708 0098 4AF65527 		movw	r7, #43605
 709              		.loc 1 822 0
 710 009c C5F81432 		str	r3, [r5, #532]
 711              		.loc 1 826 0
 712 00a0 EA62     		str	r2, [r5, #44]
 713              		.loc 1 820 0
 714 00a2 A5F82E72 		strh	r7, [r5, #558]	@ movhi
 715              		.loc 1 827 0
 716 00a6 0123     		movs	r3, #1
 717 00a8 6878     		ldrb	r0, [r5, #1]	@ zero_extendqisi2
 718 00aa FFF7FEFF 		bl	disk_write
 719              	.LVL77:
 720              		.loc 1 828 0
 721 00ae 6C71     		strb	r4, [r5, #5]
 722 00b0 B1E7     		b	.L105
 723              	.LVL78:
 724              	.L117:
 725              		.loc 1 836 0
 726 00b2 FFF7FEFF 		bl	__stack_chk_fail
 727              	.LVL79:
 728              	.L119:
 729 00b6 00BF     		.align	2
 730              	.L118:
 731 00b8 00000000 		.word	__stack_chk_guard
 732 00bc 52526141 		.word	1096897106
 733 00c0 72724161 		.word	1631679090
 734              		.cfi_endproc
 735              	.LFE225:
 736              		.size	sync_fs, .-sync_fs
 737              		.section	.text.move_window,"ax",%progbits
 738              		.align	1
 739              		.p2align 4,,15
 740              		.syntax unified
 741              		.thumb
ARM GAS  C:\Users\Moi\AppData\Local\Temp\ccqw64Tg.s 			page 14


 742              		.thumb_func
 743              		.fpu fpv4-sp-d16
 744              		.type	move_window, %function
 745              	move_window:
 746              	.LFB224:
 747              		.loc 1 785 0
 748              		.cfi_startproc
 749              		@ args = 0, pretend = 0, frame = 8
 750              		@ frame_needed = 0, uses_anonymous_args = 0
 751              	.LVL80:
 752 0000 70B5     		push	{r4, r5, r6, lr}
 753              		.cfi_def_cfa_offset 16
 754              		.cfi_offset 4, -16
 755              		.cfi_offset 5, -12
 756              		.cfi_offset 6, -8
 757              		.cfi_offset 14, -4
 758              		.loc 1 786 0
 759 0002 C36A     		ldr	r3, [r0, #44]
 760              		.loc 1 785 0
 761 0004 104D     		ldr	r5, .L134
 762 0006 82B0     		sub	sp, sp, #8
 763              		.cfi_def_cfa_offset 24
 764              		.loc 1 785 0
 765 0008 2A68     		ldr	r2, [r5]
 766 000a 0192     		str	r2, [sp, #4]
 767              		.loc 1 786 0
 768 000c 8B42     		cmp	r3, r1
 769 000e 17D0     		beq	.L127
 770              	.LVL81:
 771              	.LBB244:
 772              	.LBB245:
 773              		.loc 1 763 0
 774 0010 0379     		ldrb	r3, [r0, #4]	@ zero_extendqisi2
 775 0012 0446     		mov	r4, r0
 776 0014 0E46     		mov	r6, r1
 777 0016 13B1     		cbz	r3, .L125
 778 0018 FFF7FEFF 		bl	sync_window.part.2
 779              	.LVL82:
 780              	.LBE245:
 781              	.LBE244:
 782              		.loc 1 788 0
 783 001c 70B9     		cbnz	r0, .L123
 784              	.L125:
 785              	.LVL83:
 786              	.LBB246:
 787              	.LBB247:
 788              		.loc 1 791 0
 789 001e 0123     		movs	r3, #1
 790 0020 3246     		mov	r2, r6
 791 0022 04F13001 		add	r1, r4, #48
 792 0026 6078     		ldrb	r0, [r4, #1]	@ zero_extendqisi2
 793 0028 FFF7FEFF 		bl	disk_read
 794              	.LVL84:
 795 002c 30B9     		cbnz	r0, .L123
 796              		.loc 1 793 0
 797 002e E662     		str	r6, [r4, #44]
 798              	.LVL85:
ARM GAS  C:\Users\Moi\AppData\Local\Temp\ccqw64Tg.s 			page 15


 799              	.L121:
 800              	.LBE247:
 801              	.LBE246:
 802              		.loc 1 797 0
 803 0030 019A     		ldr	r2, [sp, #4]
 804 0032 2B68     		ldr	r3, [r5]
 805 0034 9A42     		cmp	r2, r3
 806 0036 05D1     		bne	.L133
 807 0038 02B0     		add	sp, sp, #8
 808              		.cfi_remember_state
 809              		.cfi_def_cfa_offset 16
 810              		@ sp needed
 811 003a 70BD     		pop	{r4, r5, r6, pc}
 812              	.LVL86:
 813              	.L123:
 814              		.cfi_restore_state
 815              		.loc 1 789 0
 816 003c 0120     		movs	r0, #1
 817 003e F7E7     		b	.L121
 818              	.LVL87:
 819              	.L127:
 820              		.loc 1 796 0
 821 0040 0020     		movs	r0, #0
 822              	.LVL88:
 823 0042 F5E7     		b	.L121
 824              	.LVL89:
 825              	.L133:
 826              		.loc 1 797 0
 827 0044 FFF7FEFF 		bl	__stack_chk_fail
 828              	.LVL90:
 829              	.L135:
 830              		.align	2
 831              	.L134:
 832 0048 00000000 		.word	__stack_chk_guard
 833              		.cfi_endproc
 834              	.LFE224:
 835              		.size	move_window, .-move_window
 836              		.section	.text.check_fs,"ax",%progbits
 837              		.align	1
 838              		.p2align 4,,15
 839              		.syntax unified
 840              		.thumb
 841              		.thumb_func
 842              		.fpu fpv4-sp-d16
 843              		.type	check_fs, %function
 844              	check_fs:
 845              	.LFB250:
 846              		.loc 1 2140 0
 847              		.cfi_startproc
 848              		@ args = 0, pretend = 0, frame = 8
 849              		@ frame_needed = 0, uses_anonymous_args = 0
 850              	.LVL91:
 851 0000 30B5     		push	{r4, r5, lr}
 852              		.cfi_def_cfa_offset 12
 853              		.cfi_offset 4, -12
 854              		.cfi_offset 5, -8
 855              		.cfi_offset 14, -4
ARM GAS  C:\Users\Moi\AppData\Local\Temp\ccqw64Tg.s 			page 16


 856              		.loc 1 2141 0
 857 0002 0022     		movs	r2, #0
 858              		.loc 1 2140 0
 859 0004 174D     		ldr	r5, .L144
 860              		.loc 1 2141 0
 861 0006 0271     		strb	r2, [r0, #4]
 862              		.loc 1 2140 0
 863 0008 83B0     		sub	sp, sp, #12
 864              		.cfi_def_cfa_offset 24
 865              		.loc 1 2141 0
 866 000a 4FF0FF32 		mov	r2, #-1
 867              		.loc 1 2140 0
 868 000e 2B68     		ldr	r3, [r5]
 869              		.loc 1 2141 0
 870 0010 C262     		str	r2, [r0, #44]
 871              		.loc 1 2140 0
 872 0012 0446     		mov	r4, r0
 873 0014 0193     		str	r3, [sp, #4]
 874              		.loc 1 2142 0
 875 0016 FFF7FEFF 		bl	move_window
 876              	.LVL92:
 877 001a F8B9     		cbnz	r0, .L139
 878              		.loc 1 2145 0
 879 001c 94F82F22 		ldrb	r2, [r4, #559]	@ zero_extendqisi2
 880 0020 94F82E32 		ldrb	r3, [r4, #558]	@ zero_extendqisi2
 881 0024 43EA0223 		orr	r3, r3, r2, lsl #8
 882 0028 4AF65522 		movw	r2, #43605
 883 002c 9342     		cmp	r3, r2
 884 002e 13D1     		bne	.L140
 885              		.loc 1 2148 0
 886 0030 D4F86630 		ldr	r3, [r4, #102]	@ unaligned
 887 0034 0C4A     		ldr	r2, .L144+4
 888 0036 23F07F43 		bic	r3, r3, #-16777216
 889 003a 9342     		cmp	r3, r2
 890 003c 06D0     		beq	.L137
 891              	.LVL93:
 892              	.LBB250:
 893              	.LBB251:
 894              		.loc 1 2150 0
 895 003e D4F88200 		ldr	r0, [r4, #130]	@ unaligned
 896 0042 20F07F40 		bic	r0, r0, #-16777216
 897              	.LBE251:
 898              	.LBE250:
 899              		.loc 1 2143 0
 900 0046 801A     		subs	r0, r0, r2
 901 0048 18BF     		it	ne
 902 004a 0120     		movne	r0, #1
 903              	.LVL94:
 904              	.L137:
 905              		.loc 1 2154 0
 906 004c 019A     		ldr	r2, [sp, #4]
 907 004e 2B68     		ldr	r3, [r5]
 908 0050 9A42     		cmp	r2, r3
 909 0052 05D1     		bne	.L143
 910 0054 03B0     		add	sp, sp, #12
 911              		.cfi_remember_state
 912              		.cfi_def_cfa_offset 12
ARM GAS  C:\Users\Moi\AppData\Local\Temp\ccqw64Tg.s 			page 17


 913              		@ sp needed
 914 0056 30BD     		pop	{r4, r5, pc}
 915              	.LVL95:
 916              	.L140:
 917              		.cfi_restore_state
 918              		.loc 1 2146 0
 919 0058 0220     		movs	r0, #2
 920 005a F7E7     		b	.L137
 921              	.L139:
 922              		.loc 1 2143 0
 923 005c 0320     		movs	r0, #3
 924 005e F5E7     		b	.L137
 925              	.L143:
 926              		.loc 1 2154 0
 927 0060 FFF7FEFF 		bl	__stack_chk_fail
 928              	.LVL96:
 929              	.L145:
 930              		.align	2
 931              	.L144:
 932 0064 00000000 		.word	__stack_chk_guard
 933 0068 46415400 		.word	5521734
 934              		.cfi_endproc
 935              	.LFE250:
 936              		.size	check_fs, .-check_fs
 937              		.section	.text.find_volume,"ax",%progbits
 938              		.align	1
 939              		.p2align 4,,15
 940              		.syntax unified
 941              		.thumb
 942              		.thumb_func
 943              		.fpu fpv4-sp-d16
 944              		.type	find_volume, %function
 945              	find_volume:
 946              	.LFB251:
 947              		.loc 1 2169 0
 948              		.cfi_startproc
 949              		@ args = 0, pretend = 0, frame = 24
 950              		@ frame_needed = 0, uses_anonymous_args = 0
 951              	.LVL97:
 952 0000 2DE9F047 		push	{r4, r5, r6, r7, r8, r9, r10, lr}
 953              		.cfi_def_cfa_offset 32
 954              		.cfi_offset 4, -32
 955              		.cfi_offset 5, -28
 956              		.cfi_offset 6, -24
 957              		.cfi_offset 7, -20
 958              		.cfi_offset 8, -16
 959              		.cfi_offset 9, -12
 960              		.cfi_offset 10, -8
 961              		.cfi_offset 14, -4
 962 0004 8046     		mov	r8, r0
 963 0006 9F4F     		ldr	r7, .L224
 964 0008 86B0     		sub	sp, sp, #24
 965              		.cfi_def_cfa_offset 56
 966              		.loc 1 2179 0
 967 000a 0024     		movs	r4, #0
 968              		.loc 1 2169 0
 969 000c 3B68     		ldr	r3, [r7]
ARM GAS  C:\Users\Moi\AppData\Local\Temp\ccqw64Tg.s 			page 18


 970              		.loc 1 2179 0
 971 000e C8F80040 		str	r4, [r8]
 972              		.loc 1 2180 0
 973 0012 0846     		mov	r0, r1
 974              	.LVL98:
 975              		.loc 1 2169 0
 976 0014 1646     		mov	r6, r2
 977 0016 0593     		str	r3, [sp, #20]
 978              		.loc 1 2180 0
 979 0018 FFF7FEFF 		bl	get_ldnumber
 980              	.LVL99:
 981              		.loc 1 2181 0
 982 001c 051E     		subs	r5, r0, #0
 983 001e C0F2B880 		blt	.L176
 984              		.loc 1 2184 0
 985 0022 994B     		ldr	r3, .L224+4
 986 0024 53F82540 		ldr	r4, [r3, r5, lsl #2]
 987              	.LVL100:
 988              		.loc 1 2185 0
 989 0028 002C     		cmp	r4, #0
 990 002a 00F0E180 		beq	.L177
 991              		.loc 1 2188 0
 992 002e C8F80040 		str	r4, [r8]
 993              		.loc 1 2190 0
 994 0032 2378     		ldrb	r3, [r4]	@ zero_extendqisi2
 995 0034 6BB1     		cbz	r3, .L148
 996              		.loc 1 2191 0
 997 0036 6078     		ldrb	r0, [r4, #1]	@ zero_extendqisi2
 998              	.LVL101:
 999 0038 FFF7FEFF 		bl	disk_status
 1000              	.LVL102:
 1001              		.loc 1 2192 0
 1002 003c C207     		lsls	r2, r0, #31
 1003 003e 08D4     		bmi	.L148
 1004              		.loc 1 2193 0
 1005 0040 002E     		cmp	r6, #0
 1006 0042 00F0A480 		beq	.L217
 1007              		.loc 1 2193 0 is_stmt 0 discriminator 1
 1008 0046 10F00400 		ands	r0, r0, #4
 1009              	.LVL103:
 1010 004a 00F0A380 		beq	.L147
 1011              	.LVL104:
 1012              	.L150:
 1013              		.loc 1 2194 0 is_stmt 1
 1014 004e 0A20     		movs	r0, #10
 1015 0050 A0E0     		b	.L147
 1016              	.LVL105:
 1017              	.L148:
 1018              		.loc 1 2202 0
 1019 0052 0023     		movs	r3, #0
 1020              		.loc 1 2203 0
 1021 0054 E8B2     		uxtb	r0, r5
 1022              		.loc 1 2202 0
 1023 0056 2370     		strb	r3, [r4]
 1024              		.loc 1 2203 0
 1025 0058 6070     		strb	r0, [r4, #1]
 1026              		.loc 1 2204 0
ARM GAS  C:\Users\Moi\AppData\Local\Temp\ccqw64Tg.s 			page 19


 1027 005a FFF7FEFF 		bl	disk_initialize
 1028              	.LVL106:
 1029              		.loc 1 2205 0
 1030 005e C307     		lsls	r3, r0, #31
 1031 0060 00F19F80 		bmi	.L180
 1032              		.loc 1 2207 0
 1033 0064 0EB1     		cbz	r6, .L149
 1034              		.loc 1 2207 0 is_stmt 0 discriminator 1
 1035 0066 4507     		lsls	r5, r0, #29
 1036              	.LVL107:
 1037 0068 F1D4     		bmi	.L150
 1038              	.L149:
 1039              	.LVL108:
 1040              		.loc 1 2215 0 is_stmt 1
 1041 006a 0021     		movs	r1, #0
 1042 006c 2046     		mov	r0, r4
 1043              	.LVL109:
 1044 006e FFF7FEFF 		bl	check_fs
 1045              	.LVL110:
 1046              		.loc 1 2216 0
 1047 0072 0128     		cmp	r0, #1
 1048 0074 00F09780 		beq	.L219
 1049              		.loc 1 2214 0
 1050 0078 0026     		movs	r6, #0
 1051              	.LVL111:
 1052              	.L151:
 1053              		.loc 1 2231 0
 1054 007a 0328     		cmp	r0, #3
 1055 007c 00F0BA80 		beq	.L184
 1056              		.loc 1 2232 0
 1057 0080 0028     		cmp	r0, #0
 1058 0082 40F0B380 		bne	.L158
 1059              	.L157:
 1060              		.loc 1 2236 0
 1061 0086 94F83C20 		ldrb	r2, [r4, #60]	@ zero_extendqisi2
 1062 008a 94F83B30 		ldrb	r3, [r4, #59]	@ zero_extendqisi2
 1063 008e 43EA0223 		orr	r3, r3, r2, lsl #8
 1064 0092 B3F5007F 		cmp	r3, #512
 1065 0096 40F0A980 		bne	.L158
 1066              		.loc 1 2239 0
 1067 009a 94F84720 		ldrb	r2, [r4, #71]	@ zero_extendqisi2
 1068 009e 94F84630 		ldrb	r3, [r4, #70]	@ zero_extendqisi2
 1069              	.LVL112:
 1070              		.loc 1 2240 0
 1071 00a2 53EA0223 		orrs	r3, r3, r2, lsl #8
 1072              	.LVL113:
 1073              		.loc 1 2243 0
 1074 00a6 94F84020 		ldrb	r2, [r4, #64]	@ zero_extendqisi2
 1075              		.loc 1 2240 0
 1076 00aa 08BF     		it	eq
 1077 00ac 636D     		ldreq	r3, [r4, #84]
 1078              	.LVL114:
 1079              		.loc 1 2241 0
 1080 00ae A361     		str	r3, [r4, #24]
 1081              		.loc 1 2244 0
 1082 00b0 511E     		subs	r1, r2, #1
 1083 00b2 0129     		cmp	r1, #1
ARM GAS  C:\Users\Moi\AppData\Local\Temp\ccqw64Tg.s 			page 20


 1084              		.loc 1 2243 0
 1085 00b4 E270     		strb	r2, [r4, #3]
 1086              		.loc 1 2244 0
 1087 00b6 00F29980 		bhi	.L158
 1088              	.LVL115:
 1089              		.loc 1 2248 0
 1090 00ba 94F83D10 		ldrb	r1, [r4, #61]	@ zero_extendqisi2
 1091 00be A170     		strb	r1, [r4, #2]
 1092              		.loc 1 2249 0
 1093 00c0 0029     		cmp	r1, #0
 1094 00c2 00F09380 		beq	.L158
 1095              		.loc 1 2249 0 is_stmt 0 discriminator 1
 1096 00c6 481E     		subs	r0, r1, #1
 1097              	.LVL116:
 1098 00c8 0842     		tst	r0, r1
 1099 00ca 40F08F80 		bne	.L158
 1100              		.loc 1 2252 0 is_stmt 1
 1101 00ce 94F84200 		ldrb	r0, [r4, #66]	@ zero_extendqisi2
 1102 00d2 94F84150 		ldrb	r5, [r4, #65]	@ zero_extendqisi2
 1103 00d6 45EA0025 		orr	r5, r5, r0, lsl #8
 1104              		.loc 1 2253 0
 1105 00da 2807     		lsls	r0, r5, #28
 1106              		.loc 1 2252 0
 1107 00dc 2581     		strh	r5, [r4, #8]	@ movhi
 1108              		.loc 1 2253 0
 1109 00de 40F08580 		bne	.L158
 1110              		.loc 1 2256 0
 1111 00e2 94F844C0 		ldrb	ip, [r4, #68]	@ zero_extendqisi2
 1112 00e6 94F84300 		ldrb	r0, [r4, #67]	@ zero_extendqisi2
 1113              	.LVL117:
 1114              		.loc 1 2259 0
 1115 00ea 94F83FE0 		ldrb	lr, [r4, #63]	@ zero_extendqisi2
 1116              		.loc 1 2257 0
 1117 00ee 50EA0C20 		orrs	r0, r0, ip, lsl #8
 1118              	.LVL118:
 1119              		.loc 1 2259 0
 1120 00f2 94F83EC0 		ldrb	ip, [r4, #62]	@ zero_extendqisi2
 1121              		.loc 1 2257 0
 1122 00f6 08BF     		it	eq
 1123 00f8 206D     		ldreq	r0, [r4, #80]
 1124              	.LVL119:
 1125              		.loc 1 2260 0
 1126 00fa 5CEA0E2E 		orrs	lr, ip, lr, lsl #8
 1127              	.LVL120:
 1128 00fe 75D0     		beq	.L158
 1129              		.loc 1 2246 0
 1130 0100 03FB02F8 		mul	r8, r3, r2
 1131              		.loc 1 2263 0
 1132 0104 0EEB151C 		add	ip, lr, r5, lsr #4
 1133 0108 C444     		add	ip, ip, r8
 1134              	.LVL121:
 1135              		.loc 1 2264 0
 1136 010a 6045     		cmp	r0, ip
 1137 010c 6ED3     		bcc	.L158
 1138              		.loc 1 2265 0
 1139 010e A0EB0C00 		sub	r0, r0, ip
 1140              	.LVL122:
ARM GAS  C:\Users\Moi\AppData\Local\Temp\ccqw64Tg.s 			page 21


 1141 0112 B0FBF1F1 		udiv	r1, r0, r1
 1142              	.LVL123:
 1143              		.loc 1 2266 0
 1144 0116 0029     		cmp	r1, #0
 1145 0118 68D0     		beq	.L158
 1146              	.LVL124:
 1147              		.loc 1 2268 0
 1148 011a 40F6F57A 		movw	r10, #4085
 1149              		.loc 1 2269 0
 1150 011e 4FF6F579 		movw	r9, #65525
 1151 0122 0EEB0602 		add	r2, lr, r6
 1152              	.LVL125:
 1153 0126 06EB0C00 		add	r0, r6, ip
 1154              		.loc 1 2267 0
 1155 012a 5145     		cmp	r1, r10
 1156 012c 8CBF     		ite	hi
 1157 012e 4FF0020E 		movhi	lr, #2
 1158 0132 4FF0010E 		movls	lr, #1
 1159              	.LVL126:
 1160 0136 01F1020C 		add	ip, r1, #2
 1161              	.LVL127:
 1162              		.loc 1 2269 0
 1163 013a 4945     		cmp	r1, r9
 1164              		.loc 1 2272 0
 1165 013c C4F814C0 		str	ip, [r4, #20]
 1166              		.loc 1 2274 0
 1167 0140 C4E90762 		strd	r6, r2, [r4, #28]
 1168              		.loc 1 2275 0
 1169 0144 A062     		str	r0, [r4, #40]
 1170              		.loc 1 2269 0
 1171 0146 57D9     		bls	.L164
 1172              	.LVL128:
 1173              		.loc 1 2277 0
 1174 0148 002D     		cmp	r5, #0
 1175 014a 4FD1     		bne	.L158
 1176              		.loc 1 2279 0
 1177 014c 4FEA8C02 		lsl	r2, ip, #2
 1178              		.loc 1 2286 0
 1179 0150 02F2FF12 		addw	r2, r2, #511
 1180              		.loc 1 2278 0
 1181 0154 E16D     		ldr	r1, [r4, #92]
 1182              	.LVL129:
 1183 0156 6162     		str	r1, [r4, #36]
 1184              	.LVL130:
 1185              		.loc 1 2286 0
 1186 0158 B3EB522F 		cmp	r3, r2, lsr #9
 1187 015c 46D3     		bcc	.L158
 1188              		.loc 1 2297 0
 1189 015e 94F86120 		ldrb	r2, [r4, #97]	@ zero_extendqisi2
 1190 0162 94F86030 		ldrb	r3, [r4, #96]	@ zero_extendqisi2
 1191              	.LVL131:
 1192 0166 43EA0223 		orr	r3, r3, r2, lsl #8
 1193              		.loc 1 2294 0
 1194 016a 8021     		movs	r1, #128
 1195              		.loc 1 2291 0
 1196 016c 4FF0FF32 		mov	r2, #-1
 1197              		.loc 1 2297 0
ARM GAS  C:\Users\Moi\AppData\Local\Temp\ccqw64Tg.s 			page 22


 1198 0170 012B     		cmp	r3, #1
 1199              		.loc 1 2291 0
 1200 0172 C4E90322 		strd	r2, r2, [r4, #12]
 1201              		.loc 1 2294 0
 1202 0176 6171     		strb	r1, [r4, #5]
 1203              		.loc 1 2297 0
 1204 0178 5ED0     		beq	.L220
 1205              	.LVL132:
 1206              	.L216:
 1207              		.loc 1 2309 0
 1208 017a 4FF0030E 		mov	lr, #3
 1209              	.LVL133:
 1210              	.L171:
 1211              		.loc 1 2316 0
 1212 017e 434A     		ldr	r2, .L224+8
 1213              		.loc 1 2315 0
 1214 0180 84F800E0 		strb	lr, [r4]
 1215              		.loc 1 2316 0
 1216 0184 1388     		ldrh	r3, [r2]
 1217 0186 0133     		adds	r3, r3, #1
 1218 0188 9BB2     		uxth	r3, r3
 1219 018a 1380     		strh	r3, [r2]	@ movhi
 1220 018c E380     		strh	r3, [r4, #6]	@ movhi
 1221              	.LVL134:
 1222              	.L217:
 1223              		.loc 1 2324 0
 1224 018e 0020     		movs	r0, #0
 1225 0190 00E0     		b	.L147
 1226              	.LVL135:
 1227              	.L176:
 1228              		.loc 1 2181 0
 1229 0192 0B20     		movs	r0, #11
 1230              	.LVL136:
 1231              	.L147:
 1232              		.loc 1 2325 0
 1233 0194 059A     		ldr	r2, [sp, #20]
 1234 0196 3B68     		ldr	r3, [r7]
 1235 0198 9A42     		cmp	r2, r3
 1236 019a 4BD1     		bne	.L221
 1237 019c 06B0     		add	sp, sp, #24
 1238              		.cfi_remember_state
 1239              		.cfi_def_cfa_offset 32
 1240              		@ sp needed
 1241 019e BDE8F087 		pop	{r4, r5, r6, r7, r8, r9, r10, pc}
 1242              	.LVL137:
 1243              	.L180:
 1244              		.cfi_restore_state
 1245              		.loc 1 2206 0
 1246 01a2 0320     		movs	r0, #3
 1247              	.LVL138:
 1248 01a4 F6E7     		b	.L147
 1249              	.LVL139:
 1250              	.L219:
 1251 01a6 01AD     		add	r5, sp, #4
 1252              		.loc 1 2216 0
 1253 01a8 2946     		mov	r1, r5
 1254 01aa 04F5FB73 		add	r3, r4, #502
ARM GAS  C:\Users\Moi\AppData\Local\Temp\ccqw64Tg.s 			page 23


 1255 01ae 04F23620 		addw	r0, r4, #566
 1256              	.LVL140:
 1257              	.L153:
 1258              	.LBB252:
 1259              	.LBB253:
 1260              		.loc 1 2222 0
 1261 01b2 13F8042C 		ldrb	r2, [r3, #-4]	@ zero_extendqisi2
 1262 01b6 02B1     		cbz	r2, .L152
 1263              		.loc 1 2222 0 is_stmt 0 discriminator 1
 1264 01b8 1A68     		ldr	r2, [r3]	@ unaligned
 1265              	.L152:
 1266              		.loc 1 2222 0 discriminator 4
 1267 01ba 41F8042B 		str	r2, [r1], #4
 1268              	.LVL141:
 1269 01be 1033     		adds	r3, r3, #16
 1270              	.LVL142:
 1271              	.LBE253:
 1272              		.loc 1 2220 0 is_stmt 1 discriminator 4
 1273 01c0 8342     		cmp	r3, r0
 1274 01c2 F6D1     		bne	.L153
 1275 01c4 05F11008 		add	r8, r5, #16
 1276              	.LVL143:
 1277              		.loc 1 2227 0
 1278 01c8 55F8046B 		ldr	r6, [r5], #4
 1279              	.LVL144:
 1280              		.loc 1 2228 0
 1281 01cc 3EB9     		cbnz	r6, .L222
 1282              	.LVL145:
 1283              	.L183:
 1284 01ce 0220     		movs	r0, #2
 1285              	.L154:
 1286              		.loc 1 2229 0 discriminator 1
 1287 01d0 4545     		cmp	r5, r8
 1288 01d2 3FF452AF 		beq	.L151
 1289              		.loc 1 2227 0
 1290 01d6 55F8046B 		ldr	r6, [r5], #4
 1291              	.LVL146:
 1292              		.loc 1 2228 0
 1293 01da 002E     		cmp	r6, #0
 1294 01dc F7D0     		beq	.L183
 1295              	.L222:
 1296              		.loc 1 2228 0 is_stmt 0 discriminator 1
 1297 01de 3146     		mov	r1, r6
 1298 01e0 2046     		mov	r0, r4
 1299 01e2 FFF7FEFF 		bl	check_fs
 1300              	.LVL147:
 1301              		.loc 1 2229 0 is_stmt 1 discriminator 1
 1302 01e6 0028     		cmp	r0, #0
 1303 01e8 F2D1     		bne	.L154
 1304 01ea 4CE7     		b	.L157
 1305              	.LVL148:
 1306              	.L158:
 1307              	.LBE252:
 1308              		.loc 1 2232 0
 1309 01ec 0D20     		movs	r0, #13
 1310 01ee D1E7     		b	.L147
 1311              	.LVL149:
ARM GAS  C:\Users\Moi\AppData\Local\Temp\ccqw64Tg.s 			page 24


 1312              	.L177:
 1313              		.loc 1 2185 0
 1314 01f0 0C20     		movs	r0, #12
 1315              	.LVL150:
 1316 01f2 CFE7     		b	.L147
 1317              	.LVL151:
 1318              	.L184:
 1319              		.loc 1 2231 0
 1320 01f4 0120     		movs	r0, #1
 1321              	.LVL152:
 1322 01f6 CDE7     		b	.L147
 1323              	.LVL153:
 1324              	.L164:
 1325              		.loc 1 2281 0
 1326 01f8 002D     		cmp	r5, #0
 1327 01fa F7D0     		beq	.L158
 1328              		.loc 1 2282 0
 1329 01fc 4244     		add	r2, r2, r8
 1330              		.loc 1 2284 0
 1331 01fe BEF1020F 		cmp	lr, #2
 1332              		.loc 1 2282 0
 1333 0202 6262     		str	r2, [r4, #36]
 1334              		.loc 1 2284 0
 1335 0204 13D0     		beq	.L223
 1336              		.loc 1 2284 0 is_stmt 0 discriminator 2
 1337 0206 0CEB4C01 		add	r1, ip, ip, lsl #1
 1338              	.LVL154:
 1339 020a 0CF00102 		and	r2, ip, #1
 1340 020e 02EB5102 		add	r2, r2, r1, lsr #1
 1341 0212 4FF0010E 		mov	lr, #1
 1342              	.LVL155:
 1343              	.L169:
 1344              		.loc 1 2286 0 is_stmt 1
 1345 0216 02F2FF12 		addw	r2, r2, #511
 1346              	.LVL156:
 1347 021a B3EB522F 		cmp	r3, r2, lsr #9
 1348 021e E5D3     		bcc	.L158
 1349              		.loc 1 2291 0
 1350 0220 4FF0FF33 		mov	r3, #-1
 1351              	.LVL157:
 1352              		.loc 1 2294 0
 1353 0224 8022     		movs	r2, #128
 1354              	.LVL158:
 1355              		.loc 1 2291 0
 1356 0226 C4E90333 		strd	r3, r3, [r4, #12]
 1357              		.loc 1 2294 0
 1358 022a 6271     		strb	r2, [r4, #5]
 1359 022c A7E7     		b	.L171
 1360              	.LVL159:
 1361              	.L223:
 1362              		.loc 1 2284 0 discriminator 1
 1363 022e 4FEA4C02 		lsl	r2, ip, #1
 1364 0232 F0E7     		b	.L169
 1365              	.LVL160:
 1366              	.L221:
 1367              		.loc 1 2325 0
 1368 0234 FFF7FEFF 		bl	__stack_chk_fail
ARM GAS  C:\Users\Moi\AppData\Local\Temp\ccqw64Tg.s 			page 25


 1369              	.LVL161:
 1370              	.L220:
 1371              		.loc 1 2298 0
 1372 0238 711C     		adds	r1, r6, #1
 1373 023a 2046     		mov	r0, r4
 1374 023c FFF7FEFF 		bl	move_window
 1375              	.LVL162:
 1376 0240 0028     		cmp	r0, #0
 1377 0242 9AD1     		bne	.L216
 1378              		.loc 1 2301 0
 1379 0244 94F82F22 		ldrb	r2, [r4, #559]	@ zero_extendqisi2
 1380 0248 94F82E32 		ldrb	r3, [r4, #558]	@ zero_extendqisi2
 1381              		.loc 1 2300 0
 1382 024c 6571     		strb	r5, [r4, #5]
 1383              		.loc 1 2301 0
 1384 024e 43EA0223 		orr	r3, r3, r2, lsl #8
 1385 0252 4AF65522 		movw	r2, #43605
 1386 0256 9342     		cmp	r3, r2
 1387 0258 8FD1     		bne	.L216
 1388              		.loc 1 2302 0
 1389 025a 0D4B     		ldr	r3, .L224+12
 1390 025c 226B     		ldr	r2, [r4, #48]
 1391 025e 9A42     		cmp	r2, r3
 1392 0260 8BD1     		bne	.L216
 1393              		.loc 1 2303 0
 1394 0262 03F1FF53 		add	r3, r3, #534773760
 1395 0266 03F50053 		add	r3, r3, #8192
 1396 026a D4F81422 		ldr	r2, [r4, #532]
 1397 026e 2033     		adds	r3, r3, #32
 1398 0270 9A42     		cmp	r2, r3
 1399 0272 82D1     		bne	.L216
 1400              		.loc 1 2306 0
 1401 0274 D4F81822 		ldr	r2, [r4, #536]
 1402              		.loc 1 2309 0
 1403 0278 D4F81C32 		ldr	r3, [r4, #540]
 1404 027c C4E90332 		strd	r3, r2, [r4, #12]
 1405 0280 7BE7     		b	.L216
 1406              	.L225:
 1407 0282 00BF     		.align	2
 1408              	.L224:
 1409 0284 00000000 		.word	__stack_chk_guard
 1410 0288 00000000 		.word	.LANCHOR0
 1411 028c 00000000 		.word	.LANCHOR1
 1412 0290 52526141 		.word	1096897106
 1413              		.cfi_endproc
 1414              	.LFE251:
 1415              		.size	find_volume, .-find_volume
 1416              		.section	.text.get_fat.part.6,"ax",%progbits
 1417              		.align	1
 1418              		.p2align 4,,15
 1419              		.syntax unified
 1420              		.thumb
 1421              		.thumb_func
 1422              		.fpu fpv4-sp-d16
 1423              		.type	get_fat.part.6, %function
 1424              	get_fat.part.6:
 1425              	.LFB285:
ARM GAS  C:\Users\Moi\AppData\Local\Temp\ccqw64Tg.s 			page 26


 1426              		.loc 1 865 0
 1427              		.cfi_startproc
 1428              		@ args = 0, pretend = 0, frame = 8
 1429              		@ frame_needed = 0, uses_anonymous_args = 0
 1430              	.LVL163:
 1431 0000 2DE9F041 		push	{r4, r5, r6, r7, r8, lr}
 1432              		.cfi_def_cfa_offset 24
 1433              		.cfi_offset 4, -24
 1434              		.cfi_offset 5, -20
 1435              		.cfi_offset 6, -16
 1436              		.cfi_offset 7, -12
 1437              		.cfi_offset 8, -8
 1438              		.cfi_offset 14, -4
 1439 0004 344E     		ldr	r6, .L241
 1440              		.loc 1 877 0
 1441 0006 0378     		ldrb	r3, [r0]	@ zero_extendqisi2
 1442              		.loc 1 865 0
 1443 0008 3268     		ldr	r2, [r6]
 1444 000a 82B0     		sub	sp, sp, #8
 1445              		.cfi_def_cfa_offset 32
 1446              		.loc 1 877 0
 1447 000c 022B     		cmp	r3, #2
 1448              		.loc 1 865 0
 1449 000e 0746     		mov	r7, r0
 1450 0010 0192     		str	r2, [sp, #4]
 1451 0012 0C46     		mov	r4, r1
 1452              		.loc 1 877 0
 1453 0014 2ED0     		beq	.L228
 1454 0016 032B     		cmp	r3, #3
 1455 0018 35D0     		beq	.L229
 1456 001a 012B     		cmp	r3, #1
 1457 001c 07D0     		beq	.L238
 1458              		.loc 1 897 0
 1459 001e 0120     		movs	r0, #1
 1460              	.LVL164:
 1461              	.L226:
 1462              		.loc 1 901 0
 1463 0020 019A     		ldr	r2, [sp, #4]
 1464 0022 3368     		ldr	r3, [r6]
 1465 0024 9A42     		cmp	r2, r3
 1466 0026 55D1     		bne	.L239
 1467 0028 02B0     		add	sp, sp, #8
 1468              		.cfi_remember_state
 1469              		.cfi_def_cfa_offset 24
 1470              		@ sp needed
 1471 002a BDE8F081 		pop	{r4, r5, r6, r7, r8, pc}
 1472              	.LVL165:
 1473              	.L238:
 1474              		.cfi_restore_state
 1475              		.loc 1 880 0
 1476 002e 016A     		ldr	r1, [r0, #32]
 1477              	.LVL166:
 1478              		.loc 1 879 0
 1479 0030 04EB5408 		add	r8, r4, r4, lsr #1
 1480              	.LVL167:
 1481              		.loc 1 880 0
 1482 0034 01EB5821 		add	r1, r1, r8, lsr #9
ARM GAS  C:\Users\Moi\AppData\Local\Temp\ccqw64Tg.s 			page 27


 1483 0038 FFF7FEFF 		bl	move_window
 1484              	.LVL168:
 1485 003c 00BB     		cbnz	r0, .L232
 1486              		.loc 1 881 0
 1487 003e C8F30803 		ubfx	r3, r8, #0, #9
 1488              		.loc 1 882 0
 1489 0042 396A     		ldr	r1, [r7, #32]
 1490              		.loc 1 881 0
 1491 0044 3B44     		add	r3, r3, r7
 1492 0046 08F10108 		add	r8, r8, #1
 1493              	.LVL169:
 1494              		.loc 1 882 0
 1495 004a 01EB5821 		add	r1, r1, r8, lsr #9
 1496 004e 3846     		mov	r0, r7
 1497              		.loc 1 881 0
 1498 0050 93F83050 		ldrb	r5, [r3, #48]	@ zero_extendqisi2
 1499              	.LVL170:
 1500              		.loc 1 882 0
 1501 0054 FFF7FEFF 		bl	move_window
 1502              	.LVL171:
 1503 0058 90B9     		cbnz	r0, .L232
 1504              		.loc 1 883 0
 1505 005a C8F30808 		ubfx	r8, r8, #0, #9
 1506              	.LVL172:
 1507 005e 4744     		add	r7, r7, r8
 1508              	.LVL173:
 1509              		.loc 1 884 0
 1510 0060 E307     		lsls	r3, r4, #31
 1511              		.loc 1 883 0
 1512 0062 97F83000 		ldrb	r0, [r7, #48]	@ zero_extendqisi2
 1513 0066 45EA0020 		orr	r0, r5, r0, lsl #8
 1514              	.LVL174:
 1515              		.loc 1 884 0
 1516 006a 4CBF     		ite	mi
 1517 006c 0009     		lsrmi	r0, r0, #4
 1518              	.LVL175:
 1519 006e C0F30B00 		ubfxpl	r0, r0, #0, #12
 1520 0072 D5E7     		b	.L226
 1521              	.LVL176:
 1522              	.L228:
 1523              		.loc 1 887 0
 1524 0074 016A     		ldr	r1, [r0, #32]
 1525              	.LVL177:
 1526 0076 01EB1421 		add	r1, r1, r4, lsr #8
 1527 007a FFF7FEFF 		bl	move_window
 1528              	.LVL178:
 1529 007e F0B1     		cbz	r0, .L240
 1530              	.L232:
 1531              		.loc 1 900 0
 1532 0080 4FF0FF30 		mov	r0, #-1
 1533 0084 CCE7     		b	.L226
 1534              	.LVL179:
 1535              	.L229:
 1536              		.loc 1 892 0
 1537 0086 016A     		ldr	r1, [r0, #32]
 1538              	.LVL180:
 1539 0088 01EBD411 		add	r1, r1, r4, lsr #7
ARM GAS  C:\Users\Moi\AppData\Local\Temp\ccqw64Tg.s 			page 28


 1540 008c FFF7FEFF 		bl	move_window
 1541              	.LVL181:
 1542 0090 0028     		cmp	r0, #0
 1543 0092 F5D1     		bne	.L232
 1544              		.loc 1 893 0
 1545 0094 A400     		lsls	r4, r4, #2
 1546              	.LVL182:
 1547 0096 04F4FE74 		and	r4, r4, #508
 1548 009a 04F13003 		add	r3, r4, #48
 1549 009e 3B44     		add	r3, r3, r7
 1550              	.LVL183:
 1551              		.loc 1 894 0
 1552 00a0 3C44     		add	r4, r4, r7
 1553 00a2 9878     		ldrb	r0, [r3, #2]	@ zero_extendqisi2
 1554 00a4 D978     		ldrb	r1, [r3, #3]	@ zero_extendqisi2
 1555 00a6 94F83020 		ldrb	r2, [r4, #48]	@ zero_extendqisi2
 1556 00aa 5B78     		ldrb	r3, [r3, #1]	@ zero_extendqisi2
 1557              	.LVL184:
 1558 00ac 0004     		lsls	r0, r0, #16
 1559 00ae 40EA0160 		orr	r0, r0, r1, lsl #24
 1560 00b2 1043     		orrs	r0, r0, r2
 1561 00b4 40EA0320 		orr	r0, r0, r3, lsl #8
 1562 00b8 20F07040 		bic	r0, r0, #-268435456
 1563 00bc B0E7     		b	.L226
 1564              	.LVL185:
 1565              	.L240:
 1566              		.loc 1 888 0
 1567 00be 6400     		lsls	r4, r4, #1
 1568              	.LVL186:
 1569 00c0 04F4FF74 		and	r4, r4, #510
 1570              	.LVL187:
 1571              		.loc 1 889 0
 1572 00c4 3C44     		add	r4, r4, r7
 1573              	.LVL188:
 1574 00c6 94F83130 		ldrb	r3, [r4, #49]	@ zero_extendqisi2
 1575 00ca 94F83000 		ldrb	r0, [r4, #48]	@ zero_extendqisi2
 1576 00ce 40EA0320 		orr	r0, r0, r3, lsl #8
 1577 00d2 A5E7     		b	.L226
 1578              	.LVL189:
 1579              	.L239:
 1580              		.loc 1 901 0
 1581 00d4 FFF7FEFF 		bl	__stack_chk_fail
 1582              	.LVL190:
 1583              	.L242:
 1584              		.align	2
 1585              	.L241:
 1586 00d8 00000000 		.word	__stack_chk_guard
 1587              		.cfi_endproc
 1588              	.LFE285:
 1589              		.size	get_fat.part.6, .-get_fat.part.6
 1590              		.section	.text.dir_sdi,"ax",%progbits
 1591              		.align	1
 1592              		.p2align 4,,15
 1593              		.syntax unified
 1594              		.thumb
 1595              		.thumb_func
 1596              		.fpu fpv4-sp-d16
ARM GAS  C:\Users\Moi\AppData\Local\Temp\ccqw64Tg.s 			page 29


 1597              		.type	dir_sdi, %function
 1598              	dir_sdi:
 1599              	.LFB232:
 1600              		.loc 1 1121 0
 1601              		.cfi_startproc
 1602              		@ args = 0, pretend = 0, frame = 8
 1603              		@ frame_needed = 0, uses_anonymous_args = 0
 1604              	.LVL191:
 1605 0000 F0B5     		push	{r4, r5, r6, r7, lr}
 1606              		.cfi_def_cfa_offset 20
 1607              		.cfi_offset 4, -20
 1608              		.cfi_offset 5, -16
 1609              		.cfi_offset 6, -12
 1610              		.cfi_offset 7, -8
 1611              		.cfi_offset 14, -4
 1612 0002 0546     		mov	r5, r0
 1613 0004 2A4F     		ldr	r7, .L266
 1614              		.loc 1 1127 0
 1615 0006 8068     		ldr	r0, [r0, #8]
 1616              	.LVL192:
 1617              		.loc 1 1121 0
 1618 0008 3B68     		ldr	r3, [r7]
 1619              		.loc 1 1126 0
 1620 000a E980     		strh	r1, [r5, #6]	@ movhi
 1621              		.loc 1 1121 0
 1622 000c 83B0     		sub	sp, sp, #12
 1623              		.cfi_def_cfa_offset 32
 1624              		.loc 1 1128 0
 1625 000e 0128     		cmp	r0, #1
 1626              		.loc 1 1121 0
 1627 0010 0193     		str	r3, [sp, #4]
 1628              		.loc 1 1128 0
 1629 0012 1DD0     		beq	.L261
 1630              		.loc 1 1128 0 is_stmt 0 discriminator 1
 1631 0014 2B68     		ldr	r3, [r5]
 1632 0016 5A69     		ldr	r2, [r3, #20]
 1633 0018 8242     		cmp	r2, r0
 1634 001a 19D9     		bls	.L261
 1635 001c 0C46     		mov	r4, r1
 1636              		.loc 1 1130 0 is_stmt 1
 1637 001e F0B1     		cbz	r0, .L262
 1638              	.LVL193:
 1639              	.L247:
 1640              		.loc 1 1139 0
 1641 0020 9E78     		ldrb	r6, [r3, #2]	@ zero_extendqisi2
 1642 0022 3601     		lsls	r6, r6, #4
 1643              	.LVL194:
 1644              		.loc 1 1140 0
 1645 0024 B442     		cmp	r4, r6
 1646 0026 34D3     		bcc	.L250
 1647              	.LVL195:
 1648              	.LBB254:
 1649              	.LBB255:
 1650              		.loc 1 874 0
 1651 0028 0128     		cmp	r0, #1
 1652 002a 11D9     		bls	.L261
 1653 002c 8242     		cmp	r2, r0
ARM GAS  C:\Users\Moi\AppData\Local\Temp\ccqw64Tg.s 			page 30


 1654 002e 0FD9     		bls	.L261
 1655 0030 02E0     		b	.L251
 1656              	.LVL196:
 1657              	.L263:
 1658              	.LBE255:
 1659              	.LBE254:
 1660              		.loc 1 1145 0
 1661 0032 A41B     		subs	r4, r4, r6
 1662              	.LVL197:
 1663              		.loc 1 1140 0
 1664 0034 A642     		cmp	r6, r4
 1665 0036 2CD8     		bhi	.L250
 1666              	.L251:
 1667              	.LVL198:
 1668              	.LBB257:
 1669              	.LBB256:
 1670 0038 0146     		mov	r1, r0
 1671 003a 1846     		mov	r0, r3
 1672              	.LVL199:
 1673 003c FFF7FEFF 		bl	get_fat.part.6
 1674              	.LVL200:
 1675              	.LBE256:
 1676              	.LBE257:
 1677              		.loc 1 1142 0
 1678 0040 431C     		adds	r3, r0, #1
 1679 0042 31D0     		beq	.L255
 1680              		.loc 1 1143 0
 1681 0044 0128     		cmp	r0, #1
 1682 0046 03D9     		bls	.L261
 1683              		.loc 1 1143 0 is_stmt 0 discriminator 1
 1684 0048 2B68     		ldr	r3, [r5]
 1685 004a 5A69     		ldr	r2, [r3, #20]
 1686 004c 8242     		cmp	r2, r0
 1687 004e F0D8     		bhi	.L263
 1688              	.LVL201:
 1689              	.L261:
 1690              		.loc 1 1150 0 is_stmt 1
 1691 0050 0220     		movs	r0, #2
 1692              	.L245:
 1693              		.loc 1 1155 0
 1694 0052 019A     		ldr	r2, [sp, #4]
 1695 0054 3B68     		ldr	r3, [r7]
 1696 0056 9A42     		cmp	r2, r3
 1697 0058 28D1     		bne	.L264
 1698 005a 03B0     		add	sp, sp, #12
 1699              		.cfi_remember_state
 1700              		.cfi_def_cfa_offset 20
 1701              		@ sp needed
 1702 005c F0BD     		pop	{r4, r5, r6, r7, pc}
 1703              	.LVL202:
 1704              	.L262:
 1705              		.cfi_restore_state
 1706              		.loc 1 1130 0 discriminator 1
 1707 005e 1978     		ldrb	r1, [r3]	@ zero_extendqisi2
 1708              	.LVL203:
 1709 0060 0329     		cmp	r1, #3
 1710 0062 11D0     		beq	.L265
ARM GAS  C:\Users\Moi\AppData\Local\Temp\ccqw64Tg.s 			page 31


 1711              	.LVL204:
 1712              	.L248:
 1713              		.loc 1 1134 0
 1714 0064 1A89     		ldrh	r2, [r3, #8]
 1715 0066 A242     		cmp	r2, r4
 1716 0068 F2D9     		bls	.L261
 1717              		.loc 1 1136 0
 1718 006a 5A6A     		ldr	r2, [r3, #36]
 1719              	.LVL205:
 1720              	.L249:
 1721              		.loc 1 1149 0
 1722 006c E860     		str	r0, [r5, #12]
 1723              		.loc 1 1150 0
 1724 006e 002A     		cmp	r2, #0
 1725 0070 EED0     		beq	.L261
 1726              		.loc 1 1152 0
 1727 0072 04F00F00 		and	r0, r4, #15
 1728              	.LVL206:
 1729 0076 3033     		adds	r3, r3, #48
 1730 0078 03EB4013 		add	r3, r3, r0, lsl #5
 1731              		.loc 1 1151 0
 1732 007c 02EB1414 		add	r4, r2, r4, lsr #4
 1733              	.LVL207:
 1734 0080 C5E90443 		strd	r4, r3, [r5, #16]
 1735              		.loc 1 1154 0
 1736 0084 0020     		movs	r0, #0
 1737 0086 E4E7     		b	.L245
 1738              	.LVL208:
 1739              	.L265:
 1740              		.loc 1 1131 0
 1741 0088 596A     		ldr	r1, [r3, #36]
 1742              	.LVL209:
 1743              		.loc 1 1133 0
 1744 008a 0029     		cmp	r1, #0
 1745 008c EAD0     		beq	.L248
 1746 008e 0846     		mov	r0, r1
 1747 0090 C6E7     		b	.L247
 1748              	.LVL210:
 1749              	.L250:
 1750              	.LBB258:
 1751              	.LBB259:
 1752              		.loc 1 853 0
 1753 0092 023A     		subs	r2, r2, #2
 1754              		.loc 1 852 0
 1755 0094 811E     		subs	r1, r0, #2
 1756              	.LVL211:
 1757              		.loc 1 853 0
 1758 0096 9142     		cmp	r1, r2
 1759 0098 01D3     		bcc	.L252
 1760              	.LVL212:
 1761              	.LBE259:
 1762              	.LBE258:
 1763              		.loc 1 1149 0
 1764 009a E860     		str	r0, [r5, #12]
 1765 009c D8E7     		b	.L261
 1766              	.LVL213:
 1767              	.L252:
ARM GAS  C:\Users\Moi\AppData\Local\Temp\ccqw64Tg.s 			page 32


 1768              	.LBB261:
 1769              	.LBB260:
 1770              		.loc 1 854 0
 1771 009e 9A78     		ldrb	r2, [r3, #2]	@ zero_extendqisi2
 1772 00a0 9E6A     		ldr	r6, [r3, #40]
 1773              	.LVL214:
 1774 00a2 01FB0262 		mla	r2, r1, r2, r6
 1775 00a6 E1E7     		b	.L249
 1776              	.LVL215:
 1777              	.L255:
 1778              	.LBE260:
 1779              	.LBE261:
 1780              		.loc 1 1142 0
 1781 00a8 0120     		movs	r0, #1
 1782 00aa D2E7     		b	.L245
 1783              	.LVL216:
 1784              	.L264:
 1785              		.loc 1 1155 0
 1786 00ac FFF7FEFF 		bl	__stack_chk_fail
 1787              	.LVL217:
 1788              	.L267:
 1789              		.align	2
 1790              	.L266:
 1791 00b0 00000000 		.word	__stack_chk_guard
 1792              		.cfi_endproc
 1793              	.LFE232:
 1794              		.size	dir_sdi, .-dir_sdi
 1795              		.section	.text.put_fat.part.7,"ax",%progbits
 1796              		.align	1
 1797              		.p2align 4,,15
 1798              		.syntax unified
 1799              		.thumb
 1800              		.thumb_func
 1801              		.fpu fpv4-sp-d16
 1802              		.type	put_fat.part.7, %function
 1803              	put_fat.part.7:
 1804              	.LFB286:
 1805              		.loc 1 911 0
 1806              		.cfi_startproc
 1807              		@ args = 0, pretend = 0, frame = 8
 1808              		@ frame_needed = 0, uses_anonymous_args = 0
 1809              	.LVL218:
 1810 0000 2DE9F04F 		push	{r4, r5, r6, r7, r8, r9, r10, fp, lr}
 1811              		.cfi_def_cfa_offset 36
 1812              		.cfi_offset 4, -36
 1813              		.cfi_offset 5, -32
 1814              		.cfi_offset 6, -28
 1815              		.cfi_offset 7, -24
 1816              		.cfi_offset 8, -20
 1817              		.cfi_offset 9, -16
 1818              		.cfi_offset 10, -12
 1819              		.cfi_offset 11, -8
 1820              		.cfi_offset 14, -4
 1821 0004 464F     		ldr	r7, .L289
 1822              		.loc 1 926 0
 1823 0006 0678     		ldrb	r6, [r0]	@ zero_extendqisi2
 1824              		.loc 1 911 0
ARM GAS  C:\Users\Moi\AppData\Local\Temp\ccqw64Tg.s 			page 33


 1825 0008 3B68     		ldr	r3, [r7]
 1826 000a 83B0     		sub	sp, sp, #12
 1827              		.cfi_def_cfa_offset 48
 1828              		.loc 1 926 0
 1829 000c 022E     		cmp	r6, #2
 1830              		.loc 1 911 0
 1831 000e 0446     		mov	r4, r0
 1832 0010 0193     		str	r3, [sp, #4]
 1833 0012 0D46     		mov	r5, r1
 1834 0014 9146     		mov	r9, r2
 1835              		.loc 1 926 0
 1836 0016 52D0     		beq	.L270
 1837 0018 032E     		cmp	r6, #3
 1838 001a 31D0     		beq	.L271
 1839 001c 012E     		cmp	r6, #1
 1840 001e 0BD0     		beq	.L286
 1841              		.loc 1 957 0
 1842 0020 4FF00208 		mov	r8, #2
 1843              	.LVL219:
 1844              	.L269:
 1845              		.loc 1 963 0
 1846 0024 019A     		ldr	r2, [sp, #4]
 1847 0026 3B68     		ldr	r3, [r7]
 1848              		.loc 1 959 0
 1849 0028 0121     		movs	r1, #1
 1850              		.loc 1 963 0
 1851 002a 9A42     		cmp	r2, r3
 1852 002c 4046     		mov	r0, r8
 1853              		.loc 1 959 0
 1854 002e 2171     		strb	r1, [r4, #4]
 1855              	.LVL220:
 1856              		.loc 1 963 0
 1857 0030 74D1     		bne	.L287
 1858 0032 03B0     		add	sp, sp, #12
 1859              		.cfi_remember_state
 1860              		.cfi_def_cfa_offset 36
 1861              		@ sp needed
 1862 0034 BDE8F08F 		pop	{r4, r5, r6, r7, r8, r9, r10, fp, pc}
 1863              	.LVL221:
 1864              	.L286:
 1865              		.cfi_restore_state
 1866              		.loc 1 929 0
 1867 0038 016A     		ldr	r1, [r0, #32]
 1868              	.LVL222:
 1869              		.loc 1 928 0
 1870 003a 05EB550A 		add	r10, r5, r5, lsr #1
 1871              	.LVL223:
 1872              		.loc 1 929 0
 1873 003e 01EB5A21 		add	r1, r1, r10, lsr #9
 1874 0042 FFF7FEFF 		bl	move_window
 1875              	.LVL224:
 1876              		.loc 1 930 0
 1877 0046 8046     		mov	r8, r0
 1878 0048 0028     		cmp	r0, #0
 1879 004a EBD1     		bne	.L269
 1880 004c 216A     		ldr	r1, [r4, #32]
 1881 004e 0AF1010B 		add	fp, r10, #1
ARM GAS  C:\Users\Moi\AppData\Local\Temp\ccqw64Tg.s 			page 34


 1882              		.loc 1 932 0
 1883 0052 EB07     		lsls	r3, r5, #31
 1884              		.loc 1 931 0
 1885 0054 CAF3080A 		ubfx	r10, r10, #0, #9
 1886              	.LVL225:
 1887 0058 01EB5B21 		add	r1, r1, fp, lsr #9
 1888              		.loc 1 932 0
 1889 005c A244     		add	r10, r10, r4
 1890              	.LVL226:
 1891 005e 41D5     		bpl	.L273
 1892 0060 9AF83030 		ldrb	r3, [r10, #48]	@ zero_extendqisi2
 1893 0064 03F00F03 		and	r3, r3, #15
 1894 0068 43EA0913 		orr	r3, r3, r9, lsl #4
 1895 006c 8AF83030 		strb	r3, [r10, #48]
 1896              	.LVL227:
 1897              		.loc 1 935 0
 1898 0070 2046     		mov	r0, r4
 1899              	.LVL228:
 1900              		.loc 1 934 0
 1901 0072 2671     		strb	r6, [r4, #4]
 1902              		.loc 1 935 0
 1903 0074 FFF7FEFF 		bl	move_window
 1904              	.LVL229:
 1905              		.loc 1 936 0
 1906 0078 0028     		cmp	r0, #0
 1907 007a 49D0     		beq	.L288
 1908              	.LVL230:
 1909              	.L280:
 1910 007c 8046     		mov	r8, r0
 1911 007e D1E7     		b	.L269
 1912              	.LVL231:
 1913              	.L271:
 1914              		.loc 1 949 0
 1915 0080 016A     		ldr	r1, [r0, #32]
 1916              	.LVL232:
 1917 0082 01EBD511 		add	r1, r1, r5, lsr #7
 1918 0086 FFF7FEFF 		bl	move_window
 1919              	.LVL233:
 1920              		.loc 1 950 0
 1921 008a 8046     		mov	r8, r0
 1922 008c 0028     		cmp	r0, #0
 1923 008e C9D1     		bne	.L269
 1924              		.loc 1 951 0
 1925 0090 AD00     		lsls	r5, r5, #2
 1926              	.LVL234:
 1927 0092 05F4FE75 		and	r5, r5, #508
 1928 0096 05F13003 		add	r3, r5, #48
 1929 009a 2344     		add	r3, r3, r4
 1930              	.LVL235:
 1931              		.loc 1 952 0
 1932 009c 2544     		add	r5, r5, r4
 1933 009e DA78     		ldrb	r2, [r3, #3]	@ zero_extendqisi2
 1934 00a0 1206     		lsls	r2, r2, #24
 1935 00a2 02F07042 		and	r2, r2, #-268435456
 1936 00a6 42EA0902 		orr	r2, r2, r9
 1937              	.LVL236:
 1938              		.loc 1 953 0
ARM GAS  C:\Users\Moi\AppData\Local\Temp\ccqw64Tg.s 			page 35


 1939 00aa 85F83020 		strb	r2, [r5, #48]
 1940 00ae C2F30720 		ubfx	r0, r2, #8, #8
 1941              	.LVL237:
 1942 00b2 110C     		lsrs	r1, r2, #16
 1943 00b4 120E     		lsrs	r2, r2, #24
 1944              	.LVL238:
 1945 00b6 5870     		strb	r0, [r3, #1]
 1946 00b8 9970     		strb	r1, [r3, #2]
 1947 00ba DA70     		strb	r2, [r3, #3]
 1948              	.LVL239:
 1949 00bc B2E7     		b	.L269
 1950              	.LVL240:
 1951              	.L270:
 1952              		.loc 1 942 0
 1953 00be 016A     		ldr	r1, [r0, #32]
 1954              	.LVL241:
 1955 00c0 01EB1521 		add	r1, r1, r5, lsr #8
 1956 00c4 FFF7FEFF 		bl	move_window
 1957              	.LVL242:
 1958              		.loc 1 943 0
 1959 00c8 8046     		mov	r8, r0
 1960 00ca 0028     		cmp	r0, #0
 1961 00cc AAD1     		bne	.L269
 1962              		.loc 1 944 0
 1963 00ce 6D00     		lsls	r5, r5, #1
 1964              	.LVL243:
 1965 00d0 05F4FF75 		and	r5, r5, #510
 1966              	.LVL244:
 1967              		.loc 1 945 0
 1968 00d4 2544     		add	r5, r5, r4
 1969              	.LVL245:
 1970 00d6 C9F30723 		ubfx	r3, r9, #8, #8
 1971 00da 85F83090 		strb	r9, [r5, #48]
 1972 00de 85F83130 		strb	r3, [r5, #49]
 1973 00e2 9FE7     		b	.L269
 1974              	.LVL246:
 1975              	.L273:
 1976              		.loc 1 932 0
 1977 00e4 8AF83090 		strb	r9, [r10, #48]
 1978              	.LVL247:
 1979              		.loc 1 935 0
 1980 00e8 2046     		mov	r0, r4
 1981              	.LVL248:
 1982              		.loc 1 934 0
 1983 00ea 2671     		strb	r6, [r4, #4]
 1984              		.loc 1 935 0
 1985 00ec FFF7FEFF 		bl	move_window
 1986              	.LVL249:
 1987              		.loc 1 936 0
 1988 00f0 0028     		cmp	r0, #0
 1989 00f2 C3D1     		bne	.L280
 1990              		.loc 1 937 0
 1991 00f4 CBF3080B 		ubfx	fp, fp, #0, #9
 1992              	.LVL250:
 1993              		.loc 1 938 0
 1994 00f8 A344     		add	fp, fp, r4
 1995              	.LVL251:
ARM GAS  C:\Users\Moi\AppData\Local\Temp\ccqw64Tg.s 			page 36


 1996 00fa C9F30322 		ubfx	r2, r9, #8, #4
 1997 00fe 9BF83090 		ldrb	r9, [fp, #48]	@ zero_extendqisi2
 1998              	.LVL252:
 1999 0102 29F00F09 		bic	r9, r9, #15
 2000 0106 49EA0202 		orr	r2, r9, r2
 2001              	.LVL253:
 2002              	.L276:
 2003 010a 8BF83020 		strb	r2, [fp, #48]
 2004 010e 89E7     		b	.L269
 2005              	.LVL254:
 2006              	.L288:
 2007              		.loc 1 937 0
 2008 0110 CBF3080B 		ubfx	fp, fp, #0, #9
 2009              	.LVL255:
 2010 0114 A344     		add	fp, fp, r4
 2011              	.LVL256:
 2012              		.loc 1 938 0
 2013 0116 C9F30712 		ubfx	r2, r9, #4, #8
 2014 011a F6E7     		b	.L276
 2015              	.LVL257:
 2016              	.L287:
 2017              		.loc 1 963 0
 2018 011c FFF7FEFF 		bl	__stack_chk_fail
 2019              	.LVL258:
 2020              	.L290:
 2021              		.align	2
 2022              	.L289:
 2023 0120 00000000 		.word	__stack_chk_guard
 2024              		.cfi_endproc
 2025              	.LFE286:
 2026              		.size	put_fat.part.7, .-put_fat.part.7
 2027              		.section	.text.create_chain,"ax",%progbits
 2028              		.align	1
 2029              		.p2align 4,,15
 2030              		.syntax unified
 2031              		.thumb
 2032              		.thumb_func
 2033              		.fpu fpv4-sp-d16
 2034              		.type	create_chain, %function
 2035              	create_chain:
 2036              	.LFB230:
 2037              		.loc 1 1031 0
 2038              		.cfi_startproc
 2039              		@ args = 0, pretend = 0, frame = 8
 2040              		@ frame_needed = 0, uses_anonymous_args = 0
 2041              	.LVL259:
 2042 0000 2DE9F041 		push	{r4, r5, r6, r7, r8, lr}
 2043              		.cfi_def_cfa_offset 24
 2044              		.cfi_offset 4, -24
 2045              		.cfi_offset 5, -20
 2046              		.cfi_offset 6, -16
 2047              		.cfi_offset 7, -12
 2048              		.cfi_offset 8, -8
 2049              		.cfi_offset 14, -4
 2050 0004 374F     		ldr	r7, .L327
 2051 0006 82B0     		sub	sp, sp, #8
 2052              		.cfi_def_cfa_offset 32
ARM GAS  C:\Users\Moi\AppData\Local\Temp\ccqw64Tg.s 			page 37


 2053              		.loc 1 1031 0
 2054 0008 3B68     		ldr	r3, [r7]
 2055 000a 0193     		str	r3, [sp, #4]
 2056 000c 0546     		mov	r5, r0
 2057              		.loc 1 1036 0
 2058 000e 8846     		mov	r8, r1
 2059 0010 21BB     		cbnz	r1, .L292
 2060              		.loc 1 1037 0
 2061 0012 C668     		ldr	r6, [r0, #12]
 2062              	.LVL260:
 2063 0014 4369     		ldr	r3, [r0, #20]
 2064              		.loc 1 1038 0
 2065 0016 96BB     		cbnz	r6, .L323
 2066 0018 0126     		movs	r6, #1
 2067              	.LVL261:
 2068              	.L293:
 2069 001a 3446     		mov	r4, r6
 2070 001c 10E0     		b	.L303
 2071              	.LVL262:
 2072              	.L324:
 2073              		.loc 1 1053 0
 2074 001e 012E     		cmp	r6, #1
 2075 0020 31D9     		bls	.L302
 2076              	.LBB262:
 2077              	.LBB263:
 2078              		.loc 1 874 0
 2079 0022 022B     		cmp	r3, #2
 2080 0024 11D9     		bls	.L294
 2081              	.LBE263:
 2082              	.LBE262:
 2083              		.loc 1 1052 0
 2084 0026 0224     		movs	r4, #2
 2085              	.LVL263:
 2086              	.L299:
 2087              	.LBB266:
 2088              	.LBB264:
 2089 0028 2146     		mov	r1, r4
 2090 002a 2846     		mov	r0, r5
 2091 002c FFF7FEFF 		bl	get_fat.part.6
 2092              	.LVL264:
 2093              	.LBE264:
 2094              	.LBE266:
 2095              		.loc 1 1056 0
 2096 0030 58B3     		cbz	r0, .L300
 2097              		.loc 1 1057 0
 2098 0032 411C     		adds	r1, r0, #1
 2099 0034 35D0     		beq	.L301
 2100              		.loc 1 1057 0 is_stmt 0 discriminator 1
 2101 0036 0128     		cmp	r0, #1
 2102 0038 07D0     		beq	.L294
 2103              		.loc 1 1059 0 is_stmt 1
 2104 003a A642     		cmp	r6, r4
 2105 003c 23D0     		beq	.L302
 2106 003e 6B69     		ldr	r3, [r5, #20]
 2107              	.L303:
 2108              	.LVL265:
 2109              		.loc 1 1050 0
ARM GAS  C:\Users\Moi\AppData\Local\Temp\ccqw64Tg.s 			page 38


 2110 0040 0134     		adds	r4, r4, #1
 2111              	.LVL266:
 2112              		.loc 1 1051 0
 2113 0042 9C42     		cmp	r4, r3
 2114 0044 EBD2     		bcs	.L324
 2115              	.LVL267:
 2116              	.LBB267:
 2117              	.LBB265:
 2118              		.loc 1 874 0
 2119 0046 012C     		cmp	r4, #1
 2120 0048 EED8     		bhi	.L299
 2121              	.LVL268:
 2122              	.L294:
 2123              	.LBE265:
 2124              	.LBE267:
 2125              		.loc 1 1073 0
 2126 004a 0124     		movs	r4, #1
 2127              	.L291:
 2128              		.loc 1 1077 0
 2129 004c 019A     		ldr	r2, [sp, #4]
 2130 004e 3B68     		ldr	r3, [r7]
 2131 0050 9A42     		cmp	r2, r3
 2132 0052 2046     		mov	r0, r4
 2133 0054 43D1     		bne	.L325
 2134 0056 02B0     		add	sp, sp, #8
 2135              		.cfi_remember_state
 2136              		.cfi_def_cfa_offset 24
 2137              		@ sp needed
 2138 0058 BDE8F081 		pop	{r4, r5, r6, r7, r8, pc}
 2139              	.LVL269:
 2140              	.L292:
 2141              		.cfi_restore_state
 2142              	.LBB268:
 2143              	.LBB269:
 2144              		.loc 1 874 0
 2145 005c 0129     		cmp	r1, #1
 2146 005e F4D9     		bls	.L294
 2147 0060 4369     		ldr	r3, [r0, #20]
 2148 0062 9942     		cmp	r1, r3
 2149 0064 F1D2     		bcs	.L294
 2150 0066 FFF7FEFF 		bl	get_fat.part.6
 2151              	.LVL270:
 2152              	.LBE269:
 2153              	.LBE268:
 2154              		.loc 1 1042 0
 2155 006a 0128     		cmp	r0, #1
 2156              	.LBB271:
 2157              	.LBB270:
 2158 006c 0446     		mov	r4, r0
 2159              	.LVL271:
 2160              	.LBE270:
 2161              	.LBE271:
 2162 006e ECD9     		bls	.L294
 2163              		.loc 1 1043 0
 2164 0070 0130     		adds	r0, r0, #1
 2165 0072 16D0     		beq	.L301
 2166              		.loc 1 1044 0
ARM GAS  C:\Users\Moi\AppData\Local\Temp\ccqw64Tg.s 			page 39


 2167 0074 6B69     		ldr	r3, [r5, #20]
 2168 0076 A342     		cmp	r3, r4
 2169 0078 E8D8     		bhi	.L291
 2170 007a 4646     		mov	r6, r8
 2171 007c CDE7     		b	.L293
 2172              	.LVL272:
 2173              	.L323:
 2174              		.loc 1 1038 0 discriminator 2
 2175 007e 9E42     		cmp	r6, r3
 2176 0080 28BF     		it	cs
 2177 0082 0126     		movcs	r6, #1
 2178              	.LVL273:
 2179 0084 C9E7     		b	.L293
 2180              	.LVL274:
 2181              	.L302:
 2182              		.loc 1 1053 0
 2183 0086 0024     		movs	r4, #0
 2184 0088 E0E7     		b	.L291
 2185              	.L300:
 2186              	.LVL275:
 2187              	.LBB272:
 2188              	.LBB273:
 2189              		.loc 1 922 0
 2190 008a 6B69     		ldr	r3, [r5, #20]
 2191 008c A342     		cmp	r3, r4
 2192 008e DCD9     		bls	.L294
 2193 0090 6FF07042 		mvn	r2, #-268435456
 2194 0094 2146     		mov	r1, r4
 2195 0096 2846     		mov	r0, r5
 2196 0098 FFF7FEFF 		bl	put_fat.part.7
 2197              	.LVL276:
 2198              	.LBE273:
 2199              	.LBE272:
 2200              		.loc 1 1063 0
 2201 009c 20B1     		cbz	r0, .L326
 2202              	.L304:
 2203              		.loc 1 1073 0
 2204 009e 0128     		cmp	r0, #1
 2205 00a0 D3D1     		bne	.L294
 2206              	.LVL277:
 2207              	.L301:
 2208 00a2 4FF0FF34 		mov	r4, #-1
 2209 00a6 D1E7     		b	.L291
 2210              	.LVL278:
 2211              	.L326:
 2212              		.loc 1 1063 0 discriminator 1
 2213 00a8 B8F1000F 		cmp	r8, #0
 2214 00ac 0CD0     		beq	.L307
 2215              	.LVL279:
 2216              	.LBB274:
 2217              	.LBB275:
 2218              		.loc 1 922 0
 2219 00ae B8F1010F 		cmp	r8, #1
 2220 00b2 CAD9     		bls	.L294
 2221 00b4 6B69     		ldr	r3, [r5, #20]
 2222 00b6 9845     		cmp	r8, r3
 2223 00b8 C7D2     		bcs	.L294
ARM GAS  C:\Users\Moi\AppData\Local\Temp\ccqw64Tg.s 			page 40


 2224 00ba 4146     		mov	r1, r8
 2225 00bc 2246     		mov	r2, r4
 2226 00be 2846     		mov	r0, r5
 2227 00c0 FFF7FEFF 		bl	put_fat.part.7
 2228              	.LVL280:
 2229              	.LBE275:
 2230              	.LBE274:
 2231              		.loc 1 1066 0
 2232 00c4 0028     		cmp	r0, #0
 2233 00c6 EAD1     		bne	.L304
 2234              	.LVL281:
 2235              	.L307:
 2236              		.loc 1 1068 0
 2237 00c8 2B69     		ldr	r3, [r5, #16]
 2238              		.loc 1 1067 0
 2239 00ca EC60     		str	r4, [r5, #12]
 2240              		.loc 1 1068 0
 2241 00cc 5A1C     		adds	r2, r3, #1
 2242 00ce BDD0     		beq	.L291
 2243              		.loc 1 1070 0
 2244 00d0 6A79     		ldrb	r2, [r5, #5]	@ zero_extendqisi2
 2245              		.loc 1 1069 0
 2246 00d2 013B     		subs	r3, r3, #1
 2247              		.loc 1 1070 0
 2248 00d4 42F00102 		orr	r2, r2, #1
 2249              		.loc 1 1069 0
 2250 00d8 2B61     		str	r3, [r5, #16]
 2251              		.loc 1 1070 0
 2252 00da 6A71     		strb	r2, [r5, #5]
 2253 00dc B6E7     		b	.L291
 2254              	.LVL282:
 2255              	.L325:
 2256              		.loc 1 1077 0
 2257 00de FFF7FEFF 		bl	__stack_chk_fail
 2258              	.LVL283:
 2259              	.L328:
 2260 00e2 00BF     		.align	2
 2261              	.L327:
 2262 00e4 00000000 		.word	__stack_chk_guard
 2263              		.cfi_endproc
 2264              	.LFE230:
 2265              		.size	create_chain, .-create_chain
 2266              		.section	.text.dir_next,"ax",%progbits
 2267              		.align	1
 2268              		.p2align 4,,15
 2269              		.syntax unified
 2270              		.thumb
 2271              		.thumb_func
 2272              		.fpu fpv4-sp-d16
 2273              		.type	dir_next, %function
 2274              	dir_next:
 2275              	.LFB233:
 2276              		.loc 1 1169 0
 2277              		.cfi_startproc
 2278              		@ args = 0, pretend = 0, frame = 8
 2279              		@ frame_needed = 0, uses_anonymous_args = 0
 2280              	.LVL284:
ARM GAS  C:\Users\Moi\AppData\Local\Temp\ccqw64Tg.s 			page 41


 2281 0000 2DE9F04F 		push	{r4, r5, r6, r7, r8, r9, r10, fp, lr}
 2282              		.cfi_def_cfa_offset 36
 2283              		.cfi_offset 4, -36
 2284              		.cfi_offset 5, -32
 2285              		.cfi_offset 6, -28
 2286              		.cfi_offset 7, -24
 2287              		.cfi_offset 8, -20
 2288              		.cfi_offset 9, -16
 2289              		.cfi_offset 10, -12
 2290              		.cfi_offset 11, -8
 2291              		.cfi_offset 14, -4
 2292 0004 4C4D     		ldr	r5, .L374
 2293              		.loc 1 1174 0
 2294 0006 C488     		ldrh	r4, [r0, #6]
 2295              		.loc 1 1169 0
 2296 0008 2B68     		ldr	r3, [r5]
 2297 000a 83B0     		sub	sp, sp, #12
 2298              		.cfi_def_cfa_offset 48
 2299              		.loc 1 1174 0
 2300 000c 0134     		adds	r4, r4, #1
 2301              	.LVL285:
 2302              		.loc 1 1169 0
 2303 000e 0193     		str	r3, [sp, #4]
 2304              		.loc 1 1175 0
 2305 0010 A3B2     		uxth	r3, r4
 2306 0012 002B     		cmp	r3, #0
 2307 0014 39D0     		beq	.L332
 2308              		.loc 1 1175 0 is_stmt 0 discriminator 1
 2309 0016 0369     		ldr	r3, [r0, #16]
 2310 0018 0646     		mov	r6, r0
 2311 001a 002B     		cmp	r3, #0
 2312 001c 35D0     		beq	.L332
 2313              		.loc 1 1178 0 is_stmt 1
 2314 001e 14F00F08 		ands	r8, r4, #15
 2315 0022 0068     		ldr	r0, [r0]
 2316              	.LVL286:
 2317 0024 27D1     		bne	.L333
 2318 0026 0F46     		mov	r7, r1
 2319              		.loc 1 1181 0
 2320 0028 F168     		ldr	r1, [r6, #12]
 2321              	.LVL287:
 2322              		.loc 1 1179 0
 2323 002a 0133     		adds	r3, r3, #1
 2324 002c 3361     		str	r3, [r6, #16]
 2325              		.loc 1 1181 0
 2326 002e 49B3     		cbz	r1, .L371
 2327              		.loc 1 1186 0
 2328 0030 8378     		ldrb	r3, [r0, #2]	@ zero_extendqisi2
 2329 0032 013B     		subs	r3, r3, #1
 2330 0034 13EA1419 		ands	r9, r3, r4, lsr #4
 2331 0038 1DD1     		bne	.L333
 2332              	.LVL288:
 2333              	.LBB276:
 2334              	.LBB277:
 2335              		.loc 1 874 0
 2336 003a 0129     		cmp	r1, #1
 2337 003c 2DD9     		bls	.L336
ARM GAS  C:\Users\Moi\AppData\Local\Temp\ccqw64Tg.s 			page 42


 2338 003e 4269     		ldr	r2, [r0, #20]
 2339 0040 9142     		cmp	r1, r2
 2340 0042 2AD2     		bcs	.L336
 2341 0044 FFF7FEFF 		bl	get_fat.part.6
 2342              	.LVL289:
 2343              	.LBE277:
 2344              	.LBE276:
 2345              		.loc 1 1188 0
 2346 0048 0128     		cmp	r0, #1
 2347              	.LBB279:
 2348              	.LBB278:
 2349 004a 8246     		mov	r10, r0
 2350              	.LBE278:
 2351              	.LBE279:
 2352 004c 25D9     		bls	.L336
 2353              		.loc 1 1189 0
 2354 004e B0F1FF3F 		cmp	r0, #-1
 2355 0052 5DD0     		beq	.L339
 2356              		.loc 1 1190 0
 2357 0054 3068     		ldr	r0, [r6]
 2358 0056 4269     		ldr	r2, [r0, #20]
 2359 0058 5245     		cmp	r2, r10
 2360 005a 20D9     		bls	.L369
 2361 005c AAF1020B 		sub	fp, r10, #2
 2362              	.LVL290:
 2363              	.L338:
 2364              	.LBB280:
 2365              	.LBB281:
 2366              		.loc 1 853 0
 2367 0060 023A     		subs	r2, r2, #2
 2368 0062 9345     		cmp	fp, r2
 2369              	.LBE281:
 2370              	.LBE280:
 2371              		.loc 1 1213 0
 2372 0064 C6F80CA0 		str	r10, [r6, #12]
 2373              	.LVL291:
 2374              	.LBB283:
 2375              	.LBB282:
 2376              		.loc 1 854 0
 2377 0068 3BBF     		ittet	cc
 2378 006a 8378     		ldrbcc	r3, [r0, #2]	@ zero_extendqisi2
 2379 006c 826A     		ldrcc	r2, [r0, #40]
 2380              		.loc 1 853 0
 2381 006e 0023     		movcs	r3, #0
 2382              	.LVL292:
 2383              		.loc 1 854 0
 2384 0070 0BFB0323 		mlacc	r3, fp, r3, r2
 2385              	.LBE282:
 2386              	.LBE283:
 2387              		.loc 1 1214 0
 2388 0074 3361     		str	r3, [r6, #16]
 2389              	.LVL293:
 2390              	.L333:
 2391              		.loc 1 1220 0
 2392 0076 3030     		adds	r0, r0, #48
 2393 0078 00EB4810 		add	r0, r0, r8, lsl #5
 2394 007c 7061     		str	r0, [r6, #20]
ARM GAS  C:\Users\Moi\AppData\Local\Temp\ccqw64Tg.s 			page 43


 2395              		.loc 1 1219 0
 2396 007e F480     		strh	r4, [r6, #6]	@ movhi
 2397              		.loc 1 1222 0
 2398 0080 0020     		movs	r0, #0
 2399 0082 03E0     		b	.L331
 2400              	.LVL294:
 2401              	.L371:
 2402              		.loc 1 1182 0
 2403 0084 0389     		ldrh	r3, [r0, #8]
 2404 0086 A342     		cmp	r3, r4
 2405 0088 F5D8     		bhi	.L333
 2406              	.LVL295:
 2407              	.L332:
 2408              		.loc 1 1176 0
 2409 008a 0420     		movs	r0, #4
 2410              	.L331:
 2411              		.loc 1 1223 0
 2412 008c 019A     		ldr	r2, [sp, #4]
 2413 008e 2B68     		ldr	r3, [r5]
 2414 0090 9A42     		cmp	r2, r3
 2415 0092 4FD1     		bne	.L372
 2416 0094 03B0     		add	sp, sp, #12
 2417              		.cfi_remember_state
 2418              		.cfi_def_cfa_offset 36
 2419              		@ sp needed
 2420 0096 BDE8F08F 		pop	{r4, r5, r6, r7, r8, r9, r10, fp, pc}
 2421              	.LVL296:
 2422              	.L336:
 2423              		.cfi_restore_state
 2424              		.loc 1 1188 0
 2425 009a 0220     		movs	r0, #2
 2426 009c F6E7     		b	.L331
 2427              	.L369:
 2428              	.LBB284:
 2429              		.loc 1 1193 0
 2430 009e 002F     		cmp	r7, #0
 2431 00a0 F3D0     		beq	.L332
 2432              		.loc 1 1194 0
 2433 00a2 F168     		ldr	r1, [r6, #12]
 2434 00a4 FFF7FEFF 		bl	create_chain
 2435              	.LVL297:
 2436              		.loc 1 1195 0
 2437 00a8 8246     		mov	r10, r0
 2438 00aa 0028     		cmp	r0, #0
 2439 00ac 32D0     		beq	.L348
 2440              		.loc 1 1196 0
 2441 00ae 0128     		cmp	r0, #1
 2442 00b0 F3D0     		beq	.L336
 2443              		.loc 1 1197 0
 2444 00b2 B0F1FF3F 		cmp	r0, #-1
 2445 00b6 2BD0     		beq	.L339
 2446              		.loc 1 1199 0
 2447 00b8 3168     		ldr	r1, [r6]
 2448              	.LVL298:
 2449              	.LBB285:
 2450              	.LBB286:
 2451              		.loc 1 763 0
ARM GAS  C:\Users\Moi\AppData\Local\Temp\ccqw64Tg.s 			page 44


 2452 00ba 0B79     		ldrb	r3, [r1, #4]	@ zero_extendqisi2
 2453 00bc 002B     		cmp	r3, #0
 2454 00be 32D1     		bne	.L340
 2455              	.LVL299:
 2456              	.L342:
 2457              	.LBE286:
 2458              	.LBE285:
 2459              		.loc 1 1200 0
 2460 00c0 01F13003 		add	r3, r1, #48
 2461              	.LVL300:
 2462              	.LBB288:
 2463              	.LBB289:
 2464              		.loc 1 583 0
 2465 00c4 0022     		movs	r2, #0
 2466 00c6 01F50C71 		add	r1, r1, #560
 2467              	.LVL301:
 2468              	.L341:
 2469 00ca 03F8012B 		strb	r2, [r3], #1
 2470              	.LVL302:
 2471              		.loc 1 582 0
 2472 00ce 8B42     		cmp	r3, r1
 2473 00d0 FBD1     		bne	.L341
 2474              	.LVL303:
 2475              	.LBE289:
 2476              	.LBE288:
 2477              		.loc 1 1201 0
 2478 00d2 3168     		ldr	r1, [r6]
 2479              	.LVL304:
 2480              	.LBB290:
 2481              	.LBB291:
 2482              		.loc 1 853 0
 2483 00d4 4B69     		ldr	r3, [r1, #20]
 2484 00d6 8A78     		ldrb	r2, [r1, #2]	@ zero_extendqisi2
 2485 00d8 023B     		subs	r3, r3, #2
 2486              		.loc 1 852 0
 2487 00da AAF1020B 		sub	fp, r10, #2
 2488              	.LVL305:
 2489              		.loc 1 853 0
 2490 00de 9B45     		cmp	fp, r3
 2491              		.loc 1 854 0
 2492 00e0 36BF     		itet	cc
 2493 00e2 8B6A     		ldrcc	r3, [r1, #40]
 2494              		.loc 1 853 0
 2495 00e4 0023     		movcs	r3, #0
 2496              		.loc 1 854 0
 2497 00e6 0BFB0233 		mlacc	r3, fp, r2, r3
 2498              	.LBE291:
 2499              	.LBE290:
 2500              		.loc 1 1201 0
 2501 00ea CB62     		str	r3, [r1, #44]
 2502              	.LVL306:
 2503              		.loc 1 1202 0
 2504 00ec A2B1     		cbz	r2, .L344
 2505              		.loc 1 1203 0
 2506 00ee 0127     		movs	r7, #1
 2507              	.LVL307:
 2508 00f0 08E0     		b	.L345
ARM GAS  C:\Users\Moi\AppData\Local\Temp\ccqw64Tg.s 			page 45


 2509              	.LVL308:
 2510              	.L373:
 2511              		.loc 1 1205 0 discriminator 2
 2512 00f2 3168     		ldr	r1, [r6]
 2513 00f4 CB6A     		ldr	r3, [r1, #44]
 2514              		.loc 1 1202 0 discriminator 2
 2515 00f6 8A78     		ldrb	r2, [r1, #2]	@ zero_extendqisi2
 2516 00f8 09F10109 		add	r9, r9, #1
 2517              	.LVL309:
 2518              		.loc 1 1205 0 discriminator 2
 2519 00fc 0133     		adds	r3, r3, #1
 2520              		.loc 1 1202 0 discriminator 2
 2521 00fe 4A45     		cmp	r2, r9
 2522              		.loc 1 1205 0 discriminator 2
 2523 0100 CB62     		str	r3, [r1, #44]
 2524              		.loc 1 1202 0 discriminator 2
 2525 0102 09D9     		bls	.L344
 2526              	.LVL310:
 2527              	.L345:
 2528              		.loc 1 1203 0
 2529 0104 0F71     		strb	r7, [r1, #4]
 2530              	.LVL311:
 2531              	.LBB292:
 2532              	.LBB293:
 2533 0106 0846     		mov	r0, r1
 2534 0108 FFF7FEFF 		bl	sync_window.part.2
 2535              	.LVL312:
 2536              	.LBE293:
 2537              	.LBE292:
 2538              		.loc 1 1204 0
 2539 010c 0028     		cmp	r0, #0
 2540 010e F0D0     		beq	.L373
 2541              	.LVL313:
 2542              	.L339:
 2543              	.LBE284:
 2544              		.loc 1 1189 0
 2545 0110 0120     		movs	r0, #1
 2546 0112 BBE7     		b	.L331
 2547              	.LVL314:
 2548              	.L348:
 2549              	.LBB295:
 2550              		.loc 1 1195 0
 2551 0114 0720     		movs	r0, #7
 2552              	.LVL315:
 2553 0116 B9E7     		b	.L331
 2554              	.LVL316:
 2555              	.L344:
 2556              		.loc 1 1207 0
 2557 0118 CB6A     		ldr	r3, [r1, #44]
 2558 011a 4A69     		ldr	r2, [r1, #20]
 2559 011c A3EB0903 		sub	r3, r3, r9
 2560 0120 0846     		mov	r0, r1
 2561 0122 CB62     		str	r3, [r1, #44]
 2562 0124 9CE7     		b	.L338
 2563              	.LVL317:
 2564              	.L340:
 2565              	.LBB294:
ARM GAS  C:\Users\Moi\AppData\Local\Temp\ccqw64Tg.s 			page 46


 2566              	.LBB287:
 2567 0126 0846     		mov	r0, r1
 2568              	.LVL318:
 2569 0128 FFF7FEFF 		bl	sync_window.part.2
 2570              	.LVL319:
 2571              	.LBE287:
 2572              	.LBE294:
 2573              		.loc 1 1199 0
 2574 012c 0028     		cmp	r0, #0
 2575 012e EFD1     		bne	.L339
 2576 0130 3168     		ldr	r1, [r6]
 2577 0132 C5E7     		b	.L342
 2578              	.LVL320:
 2579              	.L372:
 2580              	.LBE295:
 2581              		.loc 1 1223 0
 2582 0134 FFF7FEFF 		bl	__stack_chk_fail
 2583              	.LVL321:
 2584              	.L375:
 2585              		.align	2
 2586              	.L374:
 2587 0138 00000000 		.word	__stack_chk_guard
 2588              		.cfi_endproc
 2589              	.LFE233:
 2590              		.size	dir_next, .-dir_next
 2591              		.section	.text.dir_alloc,"ax",%progbits
 2592              		.align	1
 2593              		.p2align 4,,15
 2594              		.syntax unified
 2595              		.thumb
 2596              		.thumb_func
 2597              		.fpu fpv4-sp-d16
 2598              		.type	dir_alloc, %function
 2599              	dir_alloc:
 2600              	.LFB234:
 2601              		.loc 1 1238 0
 2602              		.cfi_startproc
 2603              		@ args = 0, pretend = 0, frame = 8
 2604              		@ frame_needed = 0, uses_anonymous_args = 0
 2605              	.LVL322:
 2606 0000 F0B5     		push	{r4, r5, r6, r7, lr}
 2607              		.cfi_def_cfa_offset 20
 2608              		.cfi_offset 4, -20
 2609              		.cfi_offset 5, -16
 2610              		.cfi_offset 6, -12
 2611              		.cfi_offset 7, -8
 2612              		.cfi_offset 14, -4
 2613 0002 154F     		ldr	r7, .L392
 2614 0004 83B0     		sub	sp, sp, #12
 2615              		.cfi_def_cfa_offset 32
 2616              		.loc 1 1238 0
 2617 0006 0E46     		mov	r6, r1
 2618 0008 3B68     		ldr	r3, [r7]
 2619 000a 0193     		str	r3, [sp, #4]
 2620              		.loc 1 1243 0
 2621 000c 0021     		movs	r1, #0
 2622              	.LVL323:
ARM GAS  C:\Users\Moi\AppData\Local\Temp\ccqw64Tg.s 			page 47


 2623              		.loc 1 1238 0
 2624 000e 0446     		mov	r4, r0
 2625              		.loc 1 1243 0
 2626 0010 FFF7FEFF 		bl	dir_sdi
 2627              	.LVL324:
 2628              		.loc 1 1244 0
 2629 0014 D0B9     		cbnz	r0, .L377
 2630              		.loc 1 1245 0
 2631 0016 0546     		mov	r5, r0
 2632 0018 06E0     		b	.L381
 2633              	.LVL325:
 2634              	.L390:
 2635              		.loc 1 1249 0 discriminator 1
 2636 001a 73B1     		cbz	r3, .L378
 2637              		.loc 1 1252 0
 2638 001c 0546     		mov	r5, r0
 2639              	.LVL326:
 2640              	.L379:
 2641              		.loc 1 1254 0
 2642 001e 0121     		movs	r1, #1
 2643 0020 2046     		mov	r0, r4
 2644              	.LVL327:
 2645 0022 FFF7FEFF 		bl	dir_next
 2646              	.LVL328:
 2647              		.loc 1 1255 0
 2648 0026 88B9     		cbnz	r0, .L377
 2649              	.LVL329:
 2650              	.L381:
 2651              		.loc 1 1247 0
 2652 0028 2169     		ldr	r1, [r4, #16]
 2653 002a 2068     		ldr	r0, [r4]
 2654              	.LVL330:
 2655 002c FFF7FEFF 		bl	move_window
 2656              	.LVL331:
 2657              		.loc 1 1248 0
 2658 0030 60B9     		cbnz	r0, .L377
 2659              		.loc 1 1249 0
 2660 0032 6369     		ldr	r3, [r4, #20]
 2661 0034 1B78     		ldrb	r3, [r3]	@ zero_extendqisi2
 2662 0036 E52B     		cmp	r3, #229
 2663 0038 EFD1     		bne	.L390
 2664              	.L378:
 2665              		.loc 1 1250 0
 2666 003a 0135     		adds	r5, r5, #1
 2667              	.LVL332:
 2668 003c B542     		cmp	r5, r6
 2669 003e EED1     		bne	.L379
 2670              	.LVL333:
 2671              	.L380:
 2672              		.loc 1 1259 0
 2673 0040 019A     		ldr	r2, [sp, #4]
 2674 0042 3B68     		ldr	r3, [r7]
 2675 0044 9A42     		cmp	r2, r3
 2676 0046 05D1     		bne	.L391
 2677 0048 03B0     		add	sp, sp, #12
 2678              		.cfi_remember_state
 2679              		.cfi_def_cfa_offset 20
ARM GAS  C:\Users\Moi\AppData\Local\Temp\ccqw64Tg.s 			page 48


 2680              		@ sp needed
 2681 004a F0BD     		pop	{r4, r5, r6, r7, pc}
 2682              	.LVL334:
 2683              	.L377:
 2684              		.cfi_restore_state
 2685              		.loc 1 1257 0
 2686 004c 0428     		cmp	r0, #4
 2687 004e 08BF     		it	eq
 2688 0050 0720     		moveq	r0, #7
 2689              	.LVL335:
 2690 0052 F5E7     		b	.L380
 2691              	.LVL336:
 2692              	.L391:
 2693              		.loc 1 1259 0
 2694 0054 FFF7FEFF 		bl	__stack_chk_fail
 2695              	.LVL337:
 2696              	.L393:
 2697              		.align	2
 2698              	.L392:
 2699 0058 00000000 		.word	__stack_chk_guard
 2700              		.cfi_endproc
 2701              	.LFE234:
 2702              		.size	dir_alloc, .-dir_alloc
 2703              		.section	.text.dir_read,"ax",%progbits
 2704              		.align	1
 2705              		.p2align 4,,15
 2706              		.syntax unified
 2707              		.thumb
 2708              		.thumb_func
 2709              		.fpu fpv4-sp-d16
 2710              		.type	dir_read, %function
 2711              	dir_read:
 2712              	.LFB243:
 2713              		.loc 1 1555 0
 2714              		.cfi_startproc
 2715              		@ args = 0, pretend = 0, frame = 8
 2716              		@ frame_needed = 0, uses_anonymous_args = 0
 2717              	.LVL338:
 2718 0000 2DE9F04F 		push	{r4, r5, r6, r7, r8, r9, r10, fp, lr}
 2719              		.cfi_def_cfa_offset 36
 2720              		.cfi_offset 4, -36
 2721              		.cfi_offset 5, -32
 2722              		.cfi_offset 6, -28
 2723              		.cfi_offset 7, -24
 2724              		.cfi_offset 8, -20
 2725              		.cfi_offset 9, -16
 2726              		.cfi_offset 10, -12
 2727              		.cfi_offset 11, -8
 2728              		.cfi_offset 14, -4
 2729 0004 DFF82C81 		ldr	r8, .L435+4
 2730 0008 83B0     		sub	sp, sp, #12
 2731              		.cfi_def_cfa_offset 48
 2732              		.loc 1 1559 0
 2733 000a FF27     		movs	r7, #255
 2734              		.loc 1 1555 0
 2735 000c D8F80030 		ldr	r3, [r8]
 2736 0010 0193     		str	r3, [sp, #4]
ARM GAS  C:\Users\Moi\AppData\Local\Temp\ccqw64Tg.s 			page 49


 2737              	.LVL339:
 2738 0012 0446     		mov	r4, r0
 2739 0014 0E46     		mov	r6, r1
 2740              		.loc 1 1559 0
 2741 0016 3D46     		mov	r5, r7
 2742              		.loc 1 1562 0
 2743 0018 0420     		movs	r0, #4
 2744              	.LVL340:
 2745              		.loc 1 1563 0
 2746 001a 06E0     		b	.L395
 2747              	.LVL341:
 2748              	.L421:
 2749              		.loc 1 1581 0
 2750 001c FF25     		movs	r5, #255
 2751              	.L397:
 2752              	.LVL342:
 2753              		.loc 1 1592 0
 2754 001e 0021     		movs	r1, #0
 2755 0020 2046     		mov	r0, r4
 2756 0022 FFF7FEFF 		bl	dir_next
 2757              	.LVL343:
 2758              		.loc 1 1593 0
 2759 0026 0028     		cmp	r0, #0
 2760 0028 53D1     		bne	.L396
 2761              	.LVL344:
 2762              	.L395:
 2763              		.loc 1 1563 0
 2764 002a 2169     		ldr	r1, [r4, #16]
 2765 002c 0029     		cmp	r1, #0
 2766 002e 5AD0     		beq	.L431
 2767              		.loc 1 1564 0
 2768 0030 2068     		ldr	r0, [r4]
 2769 0032 FFF7FEFF 		bl	move_window
 2770              	.LVL345:
 2771              		.loc 1 1565 0
 2772 0036 0028     		cmp	r0, #0
 2773 0038 4BD1     		bne	.L396
 2774              		.loc 1 1566 0
 2775 003a 6269     		ldr	r2, [r4, #20]
 2776              	.LVL346:
 2777              		.loc 1 1567 0
 2778 003c 1378     		ldrb	r3, [r2]	@ zero_extendqisi2
 2779              	.LVL347:
 2780              		.loc 1 1568 0
 2781 003e 002B     		cmp	r3, #0
 2782 0040 46D0     		beq	.L413
 2783              	.LVL348:
 2784              		.loc 1 1571 0
 2785 0042 E52B     		cmp	r3, #229
 2786 0044 EAD0     		beq	.L421
 2787              		.loc 1 1571 0 is_stmt 0 discriminator 1
 2788 0046 2E2B     		cmp	r3, #46
 2789 0048 E8D0     		beq	.L421
 2790              		.loc 1 1569 0 is_stmt 1 discriminator 2
 2791 004a D17A     		ldrb	r1, [r2, #11]	@ zero_extendqisi2
 2792 004c 01F03F01 		and	r1, r1, #63
 2793              		.loc 1 1571 0 discriminator 2
ARM GAS  C:\Users\Moi\AppData\Local\Temp\ccqw64Tg.s 			page 50


 2794 0050 A1F1080C 		sub	ip, r1, #8
 2795 0054 BCFA8CFC 		clz	ip, ip
 2796 0058 4FEA5C1C 		lsr	ip, ip, #5
 2797 005c B445     		cmp	ip, r6
 2798 005e DDD1     		bne	.L421
 2799              		.loc 1 1574 0
 2800 0060 0F29     		cmp	r1, #15
 2801 0062 4FD1     		bne	.L398
 2802              		.loc 1 1575 0
 2803 0064 5906     		lsls	r1, r3, #25
 2804 0066 30D5     		bpl	.L399
 2805              		.loc 1 1578 0
 2806 0068 E188     		ldrh	r1, [r4, #6]
 2807              		.loc 1 1576 0
 2808 006a 577B     		ldrb	r7, [r2, #13]	@ zero_extendqisi2
 2809              	.LVL349:
 2810              		.loc 1 1578 0
 2811 006c 2184     		strh	r1, [r4, #32]	@ movhi
 2812              	.LVL350:
 2813              		.loc 1 1577 0
 2814 006e 03F0BF03 		and	r3, r3, #191
 2815              	.LVL351:
 2816              	.L400:
 2817              		.loc 1 1581 0 discriminator 1
 2818 0072 517B     		ldrb	r1, [r2, #13]	@ zero_extendqisi2
 2819 0074 B942     		cmp	r1, r7
 2820 0076 D1D1     		bne	.L421
 2821              	.LBB300:
 2822              	.LBB301:
 2823              		.loc 1 1349 0 discriminator 3
 2824 0078 1078     		ldrb	r0, [r2]	@ zero_extendqisi2
 2825              	.LVL352:
 2826 007a 2D4D     		ldr	r5, .L435
 2827              	.LBE301:
 2828              	.LBE300:
 2829              		.loc 1 1581 0 discriminator 3
 2830 007c D4F81CA0 		ldr	r10, [r4, #28]
 2831              	.LVL353:
 2832              	.LBB304:
 2833              	.LBB302:
 2834              		.loc 1 1349 0 discriminator 3
 2835 0080 00F03F00 		and	r0, r0, #63
 2836 0084 0138     		subs	r0, r0, #1
 2837 0086 00EB400C 		add	ip, r0, r0, lsl #1
 2838 008a 0121     		movs	r1, #1
 2839 008c 00EB8C00 		add	r0, r0, ip, lsl #2
 2840              	.LVL354:
 2841 0090 05F10C0E 		add	lr, r5, #12
 2842              		.loc 1 1351 0 discriminator 3
 2843 0094 8C46     		mov	ip, r1
 2844              		.loc 1 1358 0 discriminator 3
 2845 0096 4FF6FF79 		movw	r9, #65535
 2846 009a 09E0     		b	.L404
 2847              	.LVL355:
 2848              	.L432:
 2849              		.loc 1 1355 0
 2850 009c FE28     		cmp	r0, #254
ARM GAS  C:\Users\Moi\AppData\Local\Temp\ccqw64Tg.s 			page 51


 2851 009e BDD8     		bhi	.L421
 2852              	.LVL356:
 2853              		.loc 1 1356 0
 2854 00a0 2AF81010 		strh	r1, [r10, r0, lsl #1]	@ movhi
 2855              		.loc 1 1353 0
 2856 00a4 8C46     		mov	ip, r1
 2857              		.loc 1 1356 0
 2858 00a6 0130     		adds	r0, r0, #1
 2859              	.LVL357:
 2860              	.L402:
 2861              		.loc 1 1360 0
 2862 00a8 7545     		cmp	r5, lr
 2863 00aa 20D0     		beq	.L403
 2864 00ac 15F8011F 		ldrb	r1, [r5, #1]!	@ zero_extendqisi2
 2865              	.LVL358:
 2866              	.L404:
 2867              		.loc 1 1353 0
 2868 00b0 02EB010B 		add	fp, r2, r1
 2869 00b4 515C     		ldrb	r1, [r2, r1]	@ zero_extendqisi2
 2870 00b6 9BF801B0 		ldrb	fp, [fp, #1]	@ zero_extendqisi2
 2871 00ba 41EA0B21 		orr	r1, r1, fp, lsl #8
 2872              	.LVL359:
 2873              		.loc 1 1354 0
 2874 00be BCF1000F 		cmp	ip, #0
 2875 00c2 EBD1     		bne	.L432
 2876              		.loc 1 1358 0
 2877 00c4 4945     		cmp	r1, r9
 2878 00c6 EFD0     		beq	.L402
 2879 00c8 A8E7     		b	.L421
 2880              	.LVL360:
 2881              	.L399:
 2882              	.LBE302:
 2883              	.LBE304:
 2884              		.loc 1 1581 0
 2885 00ca 9D42     		cmp	r5, r3
 2886 00cc A6D1     		bne	.L421
 2887 00ce D0E7     		b	.L400
 2888              	.LVL361:
 2889              	.L413:
 2890              		.loc 1 1568 0
 2891 00d0 0420     		movs	r0, #4
 2892              	.LVL362:
 2893              	.L396:
 2894              		.loc 1 1596 0 discriminator 1
 2895 00d2 0023     		movs	r3, #0
 2896 00d4 2361     		str	r3, [r4, #16]
 2897              	.LVL363:
 2898              	.L409:
 2899              		.loc 1 1599 0
 2900 00d6 019A     		ldr	r2, [sp, #4]
 2901 00d8 D8F80030 		ldr	r3, [r8]
 2902 00dc 9A42     		cmp	r2, r3
 2903 00de 25D1     		bne	.L433
 2904 00e0 03B0     		add	sp, sp, #12
 2905              		.cfi_remember_state
 2906              		.cfi_def_cfa_offset 36
 2907              		@ sp needed
ARM GAS  C:\Users\Moi\AppData\Local\Temp\ccqw64Tg.s 			page 52


 2908 00e2 BDE8F08F 		pop	{r4, r5, r6, r7, r8, r9, r10, fp, pc}
 2909              	.LVL364:
 2910              	.L431:
 2911              		.cfi_restore_state
 2912              		.loc 1 1596 0
 2913 00e6 0028     		cmp	r0, #0
 2914 00e8 F3D1     		bne	.L396
 2915              	.LVL365:
 2916              	.L411:
 2917              		.loc 1 1564 0
 2918 00ea 0020     		movs	r0, #0
 2919              	.LVL366:
 2920 00ec F3E7     		b	.L409
 2921              	.LVL367:
 2922              	.L403:
 2923              	.LBB305:
 2924              	.LBB303:
 2925              		.loc 1 1362 0
 2926 00ee 1278     		ldrb	r2, [r2]	@ zero_extendqisi2
 2927              	.LVL368:
 2928 00f0 5206     		lsls	r2, r2, #25
 2929 00f2 04D5     		bpl	.L405
 2930              		.loc 1 1363 0
 2931 00f4 FE28     		cmp	r0, #254
 2932 00f6 91D8     		bhi	.L421
 2933              		.loc 1 1364 0
 2934 00f8 0022     		movs	r2, #0
 2935 00fa 2AF81020 		strh	r2, [r10, r0, lsl #1]	@ movhi
 2936              	.LVL369:
 2937              	.L405:
 2938              	.LBE303:
 2939              	.LBE305:
 2940              		.loc 1 1581 0 discriminator 5
 2941 00fe 013B     		subs	r3, r3, #1
 2942              	.LVL370:
 2943 0100 DDB2     		uxtb	r5, r3
 2944 0102 8CE7     		b	.L397
 2945              	.LVL371:
 2946              	.L398:
 2947              		.loc 1 1583 0
 2948 0104 75B9     		cbnz	r5, .L406
 2949 0106 02F10A06 		add	r6, r2, #10
 2950              	.LVL372:
 2951 010a 01E0     		b	.L408
 2952              	.LVL373:
 2953              	.L434:
 2954 010c 12F8013F 		ldrb	r3, [r2, #1]!	@ zero_extendqisi2
 2955              	.LVL374:
 2956              	.L408:
 2957              	.LBB306:
 2958              	.LBB307:
 2959              		.loc 1 1477 0
 2960 0110 E901     		lsls	r1, r5, #7
 2961 0112 41EA5505 		orr	r5, r1, r5, lsr #1
 2962              	.LVL375:
 2963 0116 53FA85F3 		uxtab	r3, r3, r5
 2964 011a 9642     		cmp	r6, r2
ARM GAS  C:\Users\Moi\AppData\Local\Temp\ccqw64Tg.s 			page 53


 2965 011c DDB2     		uxtb	r5, r3
 2966              	.LVL376:
 2967 011e F5D1     		bne	.L434
 2968              	.LVL377:
 2969              	.LBE307:
 2970              	.LBE306:
 2971              		.loc 1 1583 0
 2972 0120 AF42     		cmp	r7, r5
 2973 0122 E2D0     		beq	.L411
 2974              	.L406:
 2975              		.loc 1 1584 0
 2976 0124 4FF6FF73 		movw	r3, #65535
 2977 0128 2384     		strh	r3, [r4, #32]	@ movhi
 2978              	.LVL378:
 2979 012a D4E7     		b	.L409
 2980              	.LVL379:
 2981              	.L433:
 2982              		.loc 1 1599 0
 2983 012c FFF7FEFF 		bl	__stack_chk_fail
 2984              	.LVL380:
 2985              	.L436:
 2986              		.align	2
 2987              	.L435:
 2988 0130 00000000 		.word	.LANCHOR2
 2989 0134 00000000 		.word	__stack_chk_guard
 2990              		.cfi_endproc
 2991              	.LFE243:
 2992              		.size	dir_read, .-dir_read
 2993              		.section	.text.dir_remove,"ax",%progbits
 2994              		.align	1
 2995              		.p2align 4,,15
 2996              		.syntax unified
 2997              		.thumb
 2998              		.thumb_func
 2999              		.fpu fpv4-sp-d16
 3000              		.type	dir_remove, %function
 3001              	dir_remove:
 3002              	.LFB245:
 3003              		.loc 1 1691 0
 3004              		.cfi_startproc
 3005              		@ args = 0, pretend = 0, frame = 8
 3006              		@ frame_needed = 0, uses_anonymous_args = 0
 3007              	.LVL381:
 3008 0000 2DE9F043 		push	{r4, r5, r6, r7, r8, r9, lr}
 3009              		.cfi_def_cfa_offset 28
 3010              		.cfi_offset 4, -28
 3011              		.cfi_offset 5, -24
 3012              		.cfi_offset 6, -20
 3013              		.cfi_offset 7, -16
 3014              		.cfi_offset 8, -12
 3015              		.cfi_offset 9, -8
 3016              		.cfi_offset 14, -4
 3017 0004 DFF87490 		ldr	r9, .L449
 3018              		.loc 1 1696 0
 3019 0008 C688     		ldrh	r6, [r0, #6]
 3020              	.LVL382:
 3021              		.loc 1 1691 0
ARM GAS  C:\Users\Moi\AppData\Local\Temp\ccqw64Tg.s 			page 54


 3022 000a D9F80030 		ldr	r3, [r9]
 3023              		.loc 1 1697 0
 3024 000e 018C     		ldrh	r1, [r0, #32]
 3025              		.loc 1 1691 0
 3026 0010 83B0     		sub	sp, sp, #12
 3027              		.cfi_def_cfa_offset 40
 3028              		.loc 1 1691 0
 3029 0012 0546     		mov	r5, r0
 3030 0014 0193     		str	r3, [sp, #4]
 3031              		.loc 1 1697 0
 3032 0016 4FF6FF73 		movw	r3, #65535
 3033 001a 9942     		cmp	r1, r3
 3034 001c 08BF     		it	eq
 3035 001e 3146     		moveq	r1, r6
 3036 0020 FFF7FEFF 		bl	dir_sdi
 3037              	.LVL383:
 3038              		.loc 1 1698 0
 3039 0024 00BB     		cbnz	r0, .L439
 3040              	.LBB308:
 3041              	.LBB309:
 3042              		.loc 1 583 0
 3043 0026 0446     		mov	r4, r0
 3044              	.LBE309:
 3045              	.LBE308:
 3046              		.loc 1 1703 0
 3047 0028 4FF0E508 		mov	r8, #229
 3048              		.loc 1 1704 0
 3049 002c 0127     		movs	r7, #1
 3050              	.L442:
 3051              		.loc 1 1700 0
 3052 002e 2969     		ldr	r1, [r5, #16]
 3053 0030 2868     		ldr	r0, [r5]
 3054              	.LVL384:
 3055 0032 FFF7FEFF 		bl	move_window
 3056              	.LVL385:
 3057              		.loc 1 1701 0
 3058 0036 A0B9     		cbnz	r0, .L440
 3059              		.loc 1 1702 0
 3060 0038 6B69     		ldr	r3, [r5, #20]
 3061              	.LVL386:
 3062 003a 03F12002 		add	r2, r3, #32
 3063              	.LVL387:
 3064              	.L441:
 3065              	.LBB311:
 3066              	.LBB310:
 3067              		.loc 1 583 0
 3068 003e 03F8014B 		strb	r4, [r3], #1
 3069              	.LVL388:
 3070              		.loc 1 582 0
 3071 0042 9342     		cmp	r3, r2
 3072 0044 FBD1     		bne	.L441
 3073              	.LVL389:
 3074              	.LBE310:
 3075              	.LBE311:
 3076              		.loc 1 1703 0
 3077 0046 6B69     		ldr	r3, [r5, #20]
 3078 0048 83F80080 		strb	r8, [r3]
ARM GAS  C:\Users\Moi\AppData\Local\Temp\ccqw64Tg.s 			page 55


 3079              		.loc 1 1704 0
 3080 004c 2B68     		ldr	r3, [r5]
 3081 004e 1F71     		strb	r7, [r3, #4]
 3082              		.loc 1 1705 0
 3083 0050 EB88     		ldrh	r3, [r5, #6]
 3084 0052 B342     		cmp	r3, r6
 3085 0054 08D2     		bcs	.L439
 3086              		.loc 1 1706 0
 3087 0056 0021     		movs	r1, #0
 3088 0058 2846     		mov	r0, r5
 3089              	.LVL390:
 3090 005a FFF7FEFF 		bl	dir_next
 3091              	.LVL391:
 3092              		.loc 1 1707 0
 3093 005e 0028     		cmp	r0, #0
 3094 0060 E5D0     		beq	.L442
 3095              	.L440:
 3096              		.loc 1 1708 0
 3097 0062 0428     		cmp	r0, #4
 3098 0064 08BF     		it	eq
 3099 0066 0220     		moveq	r0, #2
 3100              	.LVL392:
 3101              	.L439:
 3102              		.loc 1 1724 0
 3103 0068 019A     		ldr	r2, [sp, #4]
 3104 006a D9F80030 		ldr	r3, [r9]
 3105 006e 9A42     		cmp	r2, r3
 3106 0070 02D1     		bne	.L448
 3107 0072 03B0     		add	sp, sp, #12
 3108              		.cfi_remember_state
 3109              		.cfi_def_cfa_offset 28
 3110              		@ sp needed
 3111 0074 BDE8F083 		pop	{r4, r5, r6, r7, r8, r9, pc}
 3112              	.LVL393:
 3113              	.L448:
 3114              		.cfi_restore_state
 3115 0078 FFF7FEFF 		bl	__stack_chk_fail
 3116              	.LVL394:
 3117              	.L450:
 3118              		.align	2
 3119              	.L449:
 3120 007c 00000000 		.word	__stack_chk_guard
 3121              		.cfi_endproc
 3122              	.LFE245:
 3123              		.size	dir_remove, .-dir_remove
 3124              		.section	.text.dir_find.part.8,"ax",%progbits
 3125              		.align	1
 3126              		.p2align 4,,15
 3127              		.syntax unified
 3128              		.thumb
 3129              		.thumb_func
 3130              		.fpu fpv4-sp-d16
 3131              		.type	dir_find.part.8, %function
 3132              	dir_find.part.8:
 3133              	.LFB287:
 3134              		.loc 1 1490 0
 3135              		.cfi_startproc
ARM GAS  C:\Users\Moi\AppData\Local\Temp\ccqw64Tg.s 			page 56


 3136              		@ args = 0, pretend = 0, frame = 16
 3137              		@ frame_needed = 0, uses_anonymous_args = 0
 3138              	.LVL395:
 3139 0000 2DE9F04F 		push	{r4, r5, r6, r7, r8, r9, r10, fp, lr}
 3140              		.cfi_def_cfa_offset 36
 3141              		.cfi_offset 4, -36
 3142              		.cfi_offset 5, -32
 3143              		.cfi_offset 6, -28
 3144              		.cfi_offset 7, -24
 3145              		.cfi_offset 8, -20
 3146              		.cfi_offset 9, -16
 3147              		.cfi_offset 10, -12
 3148              		.cfi_offset 11, -8
 3149              		.cfi_offset 14, -4
 3150 0004 DFF85481 		ldr	r8, .L507+4
 3151 0008 85B0     		sub	sp, sp, #20
 3152              		.cfi_def_cfa_offset 56
 3153              		.loc 1 1490 0
 3154 000a D8F80030 		ldr	r3, [r8]
 3155 000e 0393     		str	r3, [sp, #12]
 3156              	.LVL396:
 3157              		.loc 1 1504 0
 3158 0010 4FF6FF76 		movw	r6, #65535
 3159 0014 FF27     		movs	r7, #255
 3160              		.loc 1 1490 0
 3161 0016 0446     		mov	r4, r0
 3162              		.loc 1 1504 0
 3163 0018 0684     		strh	r6, [r0, #32]	@ movhi
 3164 001a 3D46     		mov	r5, r7
 3165 001c 09E0     		b	.L471
 3166              	.LVL397:
 3167              	.L501:
 3168              		.loc 1 1514 0
 3169 001e BCF10F0F 		cmp	ip, #15
 3170 0022 31D0     		beq	.L455
 3171              	.LVL398:
 3172              	.L468:
 3173              		.loc 1 1530 0
 3174 0024 2684     		strh	r6, [r4, #32]	@ movhi
 3175              	.LVL399:
 3176 0026 FF25     		movs	r5, #255
 3177              	.LVL400:
 3178              	.L456:
 3179              		.loc 1 1537 0
 3180 0028 0021     		movs	r1, #0
 3181 002a 2046     		mov	r0, r4
 3182 002c FFF7FEFF 		bl	dir_next
 3183              	.LVL401:
 3184              		.loc 1 1538 0
 3185 0030 10BB     		cbnz	r0, .L452
 3186              	.LVL402:
 3187              	.L471:
 3188              		.loc 1 1507 0
 3189 0032 2169     		ldr	r1, [r4, #16]
 3190 0034 2068     		ldr	r0, [r4]
 3191 0036 FFF7FEFF 		bl	move_window
 3192              	.LVL403:
ARM GAS  C:\Users\Moi\AppData\Local\Temp\ccqw64Tg.s 			page 57


 3193              		.loc 1 1508 0
 3194 003a E8B9     		cbnz	r0, .L452
 3195              		.loc 1 1509 0
 3196 003c 6169     		ldr	r1, [r4, #20]
 3197              	.LVL404:
 3198              		.loc 1 1510 0
 3199 003e 0A78     		ldrb	r2, [r1]	@ zero_extendqisi2
 3200              	.LVL405:
 3201              		.loc 1 1511 0
 3202 0040 002A     		cmp	r2, #0
 3203 0042 48D0     		beq	.L473
 3204              	.LVL406:
 3205              		.loc 1 1514 0
 3206 0044 E52A     		cmp	r2, #229
 3207 0046 EDD0     		beq	.L468
 3208              		.loc 1 1513 0
 3209 0048 CB7A     		ldrb	r3, [r1, #11]	@ zero_extendqisi2
 3210 004a 03F03F0C 		and	ip, r3, #63
 3211              		.loc 1 1514 0
 3212 004e 1B07     		lsls	r3, r3, #28
 3213 0050 E5D4     		bmi	.L501
 3214              		.loc 1 1517 0
 3215 0052 BCF10F0F 		cmp	ip, #15
 3216 0056 17D0     		beq	.L455
 3217              		.loc 1 1528 0
 3218 0058 3DB3     		cbz	r5, .L502
 3219              	.LVL407:
 3220              	.L465:
 3221              		.loc 1 1529 0
 3222 005a A369     		ldr	r3, [r4, #24]
 3223 005c DD7A     		ldrb	r5, [r3, #11]	@ zero_extendqisi2
 3224 005e ED07     		lsls	r5, r5, #31
 3225 0060 E0D4     		bmi	.L468
 3226 0062 03F10B0C 		add	ip, r3, #11
 3227 0066 01E0     		b	.L469
 3228              	.LVL408:
 3229              	.L503:
 3230 0068 11F8012F 		ldrb	r2, [r1, #1]!	@ zero_extendqisi2
 3231              	.LVL409:
 3232              	.L469:
 3233              	.LBB318:
 3234              	.LBB319:
 3235              		.loc 1 592 0
 3236 006c 13F8015B 		ldrb	r5, [r3], #1	@ zero_extendqisi2
 3237              	.LVL410:
 3238 0070 9542     		cmp	r5, r2
 3239 0072 D7D1     		bne	.L468
 3240              	.LVL411:
 3241 0074 6345     		cmp	r3, ip
 3242 0076 F7D1     		bne	.L503
 3243              	.LVL412:
 3244              	.L452:
 3245              	.LBE319:
 3246              	.LBE318:
 3247              		.loc 1 1541 0
 3248 0078 039A     		ldr	r2, [sp, #12]
 3249 007a D8F80030 		ldr	r3, [r8]
ARM GAS  C:\Users\Moi\AppData\Local\Temp\ccqw64Tg.s 			page 58


 3250 007e 9A42     		cmp	r2, r3
 3251 0080 67D1     		bne	.L504
 3252 0082 05B0     		add	sp, sp, #20
 3253              		.cfi_remember_state
 3254              		.cfi_def_cfa_offset 36
 3255              		@ sp needed
 3256 0084 BDE8F08F 		pop	{r4, r5, r6, r7, r8, r9, r10, fp, pc}
 3257              	.LVL413:
 3258              	.L455:
 3259              		.cfi_restore_state
 3260              		.loc 1 1518 0
 3261 0088 D4F81C90 		ldr	r9, [r4, #28]
 3262 008c B9F1000F 		cmp	r9, #0
 3263 0090 CAD0     		beq	.L456
 3264              		.loc 1 1519 0
 3265 0092 5006     		lsls	r0, r2, #25
 3266              	.LVL414:
 3267 0094 1BD5     		bpl	.L458
 3268              		.loc 1 1522 0
 3269 0096 E388     		ldrh	r3, [r4, #6]
 3270              		.loc 1 1520 0
 3271 0098 4F7B     		ldrb	r7, [r1, #13]	@ zero_extendqisi2
 3272              	.LVL415:
 3273              		.loc 1 1522 0
 3274 009a 2384     		strh	r3, [r4, #32]	@ movhi
 3275              	.LVL416:
 3276              		.loc 1 1521 0
 3277 009c 02F0BF05 		and	r5, r2, #191
 3278              	.LVL417:
 3279              	.L459:
 3280              		.loc 1 1525 0
 3281 00a0 4B7B     		ldrb	r3, [r1, #13]	@ zero_extendqisi2
 3282 00a2 BB42     		cmp	r3, r7
 3283 00a4 19D0     		beq	.L505
 3284              	.LVL418:
 3285              	.L479:
 3286 00a6 FF25     		movs	r5, #255
 3287              	.LVL419:
 3288 00a8 BEE7     		b	.L456
 3289              	.LVL420:
 3290              	.L502:
 3291 00aa 8C46     		mov	ip, r1
 3292 00ac 01F10A09 		add	r9, r1, #10
 3293              		.loc 1 1528 0
 3294 00b0 9646     		mov	lr, r2
 3295 00b2 01E0     		b	.L467
 3296              	.LVL421:
 3297              	.L506:
 3298 00b4 1CF801EF 		ldrb	lr, [ip, #1]!	@ zero_extendqisi2
 3299              	.LVL422:
 3300              	.L467:
 3301              	.LBB320:
 3302              	.LBB321:
 3303              		.loc 1 1477 0
 3304 00b8 EB01     		lsls	r3, r5, #7
 3305 00ba 43EA5503 		orr	r3, r3, r5, lsr #1
 3306 00be 5EFA83F3 		uxtab	r3, lr, r3
ARM GAS  C:\Users\Moi\AppData\Local\Temp\ccqw64Tg.s 			page 59


 3307 00c2 E145     		cmp	r9, ip
 3308 00c4 DDB2     		uxtb	r5, r3
 3309              	.LVL423:
 3310 00c6 F5D1     		bne	.L506
 3311              	.LVL424:
 3312              	.LBE321:
 3313              	.LBE320:
 3314              		.loc 1 1528 0
 3315 00c8 BD42     		cmp	r5, r7
 3316 00ca C6D1     		bne	.L465
 3317 00cc D4E7     		b	.L452
 3318              	.LVL425:
 3319              	.L458:
 3320              		.loc 1 1525 0
 3321 00ce AA42     		cmp	r2, r5
 3322 00d0 E6D0     		beq	.L459
 3323 00d2 FF25     		movs	r5, #255
 3324              	.LVL426:
 3325 00d4 A8E7     		b	.L456
 3326              	.LVL427:
 3327              	.L473:
 3328              		.loc 1 1511 0
 3329 00d6 0420     		movs	r0, #4
 3330              	.LVL428:
 3331 00d8 CEE7     		b	.L452
 3332              	.LVL429:
 3333              	.L505:
 3334              	.LBB322:
 3335              	.LBB323:
 3336              		.loc 1 1318 0
 3337 00da 0A78     		ldrb	r2, [r1]	@ zero_extendqisi2
 3338 00dc DFF880B0 		ldr	fp, .L507+8
 3339 00e0 22F04002 		bic	r2, r2, #64
 3340 00e4 013A     		subs	r2, r2, #1
 3341 00e6 02EB4200 		add	r0, r2, r2, lsl #1
 3342 00ea 0123     		movs	r3, #1
 3343 00ec 02EB800A 		add	r10, r2, r0, lsl #2
 3344              	.LVL430:
 3345              		.loc 1 1319 0
 3346 00f0 1846     		mov	r0, r3
 3347 00f2 06E0     		b	.L463
 3348              	.LVL431:
 3349              	.L460:
 3350              		.loc 1 1327 0
 3351 00f4 B342     		cmp	r3, r6
 3352 00f6 D6D1     		bne	.L479
 3353              	.LVL432:
 3354              	.L461:
 3355              		.loc 1 1329 0
 3356 00f8 174B     		ldr	r3, .L507
 3357 00fa 5B45     		cmp	r3, fp
 3358 00fc 1ED0     		beq	.L462
 3359 00fe 1BF8013F 		ldrb	r3, [fp, #1]!	@ zero_extendqisi2
 3360              	.LVL433:
 3361              	.L463:
 3362              		.loc 1 1321 0
 3363 0102 01EB030C 		add	ip, r1, r3
ARM GAS  C:\Users\Moi\AppData\Local\Temp\ccqw64Tg.s 			page 60


 3364 0106 CB5C     		ldrb	r3, [r1, r3]	@ zero_extendqisi2
 3365 0108 9CF801C0 		ldrb	ip, [ip, #1]	@ zero_extendqisi2
 3366 010c 43EA0C23 		orr	r3, r3, ip, lsl #8
 3367              	.LVL434:
 3368              		.loc 1 1322 0
 3369 0110 0028     		cmp	r0, #0
 3370 0112 EFD0     		beq	.L460
 3371              		.loc 1 1323 0
 3372 0114 1846     		mov	r0, r3
 3373              	.LVL435:
 3374 0116 0191     		str	r1, [sp, #4]
 3375 0118 FFF7FEFF 		bl	ff_wtoupper
 3376              	.LVL436:
 3377              		.loc 1 1324 0
 3378 011c BAF1FE0F 		cmp	r10, #254
 3379              		.loc 1 1323 0
 3380 0120 0090     		str	r0, [sp]
 3381              	.LVL437:
 3382              		.loc 1 1324 0
 3383 0122 C0D8     		bhi	.L479
 3384 0124 39F81A00 		ldrh	r0, [r9, r10, lsl #1]
 3385 0128 FFF7FEFF 		bl	ff_wtoupper
 3386              	.LVL438:
 3387 012c 009B     		ldr	r3, [sp]
 3388 012e 8342     		cmp	r3, r0
 3389 0130 0AF10102 		add	r2, r10, #1
 3390              	.LVL439:
 3391 0134 B7D1     		bne	.L479
 3392 0136 9246     		mov	r10, r2
 3393 0138 0199     		ldr	r1, [sp, #4]
 3394 013a DDE7     		b	.L461
 3395              	.LVL440:
 3396              	.L462:
 3397              		.loc 1 1331 0
 3398 013c 0B78     		ldrb	r3, [r1]	@ zero_extendqisi2
 3399 013e 5B06     		lsls	r3, r3, #25
 3400 0140 04D5     		bpl	.L464
 3401 0142 18B1     		cbz	r0, .L464
 3402 0144 39F81A30 		ldrh	r3, [r9, r10, lsl #1]
 3403 0148 002B     		cmp	r3, #0
 3404 014a ACD1     		bne	.L479
 3405              	.L464:
 3406              	.LVL441:
 3407              	.LBE323:
 3408              	.LBE322:
 3409              		.loc 1 1525 0
 3410 014c 6B1E     		subs	r3, r5, #1
 3411 014e DDB2     		uxtb	r5, r3
 3412              	.LVL442:
 3413 0150 6AE7     		b	.L456
 3414              	.L504:
 3415              		.loc 1 1541 0
 3416 0152 FFF7FEFF 		bl	__stack_chk_fail
 3417              	.LVL443:
 3418              	.L508:
 3419 0156 00BF     		.align	2
 3420              	.L507:
ARM GAS  C:\Users\Moi\AppData\Local\Temp\ccqw64Tg.s 			page 61


 3421 0158 0C000000 		.word	.LANCHOR2+12
 3422 015c 00000000 		.word	__stack_chk_guard
 3423 0160 00000000 		.word	.LANCHOR2
 3424              		.cfi_endproc
 3425              	.LFE287:
 3426              		.size	dir_find.part.8, .-dir_find.part.8
 3427              		.section	.text.dir_register,"ax",%progbits
 3428              		.align	1
 3429              		.p2align 4,,15
 3430              		.syntax unified
 3431              		.thumb
 3432              		.thumb_func
 3433              		.fpu fpv4-sp-d16
 3434              		.type	dir_register, %function
 3435              	dir_register:
 3436              	.LFB244:
 3437              		.loc 1 1613 0
 3438              		.cfi_startproc
 3439              		@ args = 0, pretend = 0, frame = 24
 3440              		@ frame_needed = 0, uses_anonymous_args = 0
 3441              	.LVL444:
 3442 0000 2DE9F04F 		push	{r4, r5, r6, r7, r8, r9, r10, fp, lr}
 3443              		.cfi_def_cfa_offset 36
 3444              		.cfi_offset 4, -36
 3445              		.cfi_offset 5, -32
 3446              		.cfi_offset 6, -28
 3447              		.cfi_offset 7, -24
 3448              		.cfi_offset 8, -20
 3449              		.cfi_offset 9, -16
 3450              		.cfi_offset 10, -12
 3451              		.cfi_offset 11, -8
 3452              		.cfi_offset 14, -4
 3453 0004 A84B     		ldr	r3, .L588
 3454              		.loc 1 1621 0
 3455 0006 D0F818B0 		ldr	fp, [r0, #24]
 3456              	.LVL445:
 3457              		.loc 1 1613 0
 3458 000a 1B68     		ldr	r3, [r3]
 3459              		.loc 1 1621 0
 3460 000c C769     		ldr	r7, [r0, #28]
 3461              	.LVL446:
 3462              		.loc 1 1613 0
 3463 000e 87B0     		sub	sp, sp, #28
 3464              		.cfi_def_cfa_offset 64
 3465              	.LVL447:
 3466              		.loc 1 1613 0
 3467 0010 0646     		mov	r6, r0
 3468 0012 0593     		str	r3, [sp, #20]
 3469 0014 0BF10C00 		add	r0, fp, #12
 3470              	.LVL448:
 3471              		.loc 1 1621 0
 3472 0018 5B46     		mov	r3, fp
 3473 001a 02AA     		add	r2, sp, #8
 3474              	.LVL449:
 3475              	.L510:
 3476              	.LBB341:
 3477              	.LBB342:
ARM GAS  C:\Users\Moi\AppData\Local\Temp\ccqw64Tg.s 			page 62


 3478              		.loc 1 574 0
 3479 001c 13F8011B 		ldrb	r1, [r3], #1	@ zero_extendqisi2
 3480              	.LVL450:
 3481 0020 02F8011B 		strb	r1, [r2], #1
 3482              	.LVL451:
 3483              		.loc 1 573 0
 3484 0024 8342     		cmp	r3, r0
 3485 0026 F9D1     		bne	.L510
 3486              	.LVL452:
 3487              	.LBE342:
 3488              	.LBE341:
 3489              		.loc 1 1627 0
 3490 0028 9DF81390 		ldrb	r9, [sp, #19]	@ zero_extendqisi2
 3491 002c 19F0010F 		tst	r9, #1
 3492 0030 00F08780 		beq	.L511
 3493              		.loc 1 1628 0
 3494 0034 0023     		movs	r3, #0
 3495              	.LBB343:
 3496              	.LBB344:
 3497              	.LBB345:
 3498              		.loc 1 1433 0
 3499 0036 9D4C     		ldr	r4, .L588+4
 3500              	.LBE345:
 3501              	.LBE344:
 3502              	.LBE343:
 3503              		.loc 1 1628 0
 3504 0038 8BF80B30 		strb	r3, [fp, #11]
 3505              		.loc 1 1629 0
 3506 003c 4FF0010A 		mov	r10, #1
 3507              		.loc 1 1628 0
 3508 0040 F361     		str	r3, [r6, #28]
 3509              	.LVL453:
 3510 0042 0BF1FF38 		add	r8, fp, #-1
 3511 0046 0BF10A05 		add	r5, fp, #10
 3512              	.LVL454:
 3513              	.L512:
 3514 004a 4346     		mov	r3, r8
 3515 004c DC46     		mov	ip, fp
 3516              	.LBB352:
 3517              	.LBB349:
 3518              	.LBB346:
 3519              	.LBB347:
 3520              		.loc 1 564 0
 3521 004e 02AA     		add	r2, sp, #8
 3522              	.LVL455:
 3523              	.L513:
 3524              		.loc 1 574 0
 3525 0050 12F8011B 		ldrb	r1, [r2], #1	@ zero_extendqisi2
 3526              	.LVL456:
 3527 0054 03F8011F 		strb	r1, [r3, #1]!
 3528              	.LVL457:
 3529              		.loc 1 573 0
 3530 0058 9D42     		cmp	r5, r3
 3531 005a F9D1     		bne	.L513
 3532              	.LVL458:
 3533              	.LBE347:
 3534              	.LBE346:
ARM GAS  C:\Users\Moi\AppData\Local\Temp\ccqw64Tg.s 			page 63


 3535              		.loc 1 1424 0
 3536 005c BAF1050F 		cmp	r10, #5
 3537 0060 68D9     		bls	.L543
 3538 0062 A7F1020E 		sub	lr, r7, #2
 3539 0066 5346     		mov	r3, r10
 3540              	.LVL459:
 3541              	.LBB348:
 3542              		.loc 1 1428 0
 3543 0068 3EF8022F 		ldrh	r2, [lr, #2]!
 3544 006c 7AB1     		cbz	r2, .L514
 3545              	.LVL460:
 3546              	.L544:
 3547 006e 1021     		movs	r1, #16
 3548              	.L517:
 3549              	.LVL461:
 3550              		.loc 1 1431 0
 3551 0070 02F00100 		and	r0, r2, #1
 3552 0074 00EB4303 		add	r3, r0, r3, lsl #1
 3553              	.LVL462:
 3554              		.loc 1 1433 0
 3555 0078 D803     		lsls	r0, r3, #15
 3556 007a 48BF     		it	mi
 3557 007c 6340     		eormi	r3, r3, r4
 3558              	.LVL463:
 3559              		.loc 1 1430 0
 3560 007e 0139     		subs	r1, r1, #1
 3561              	.LVL464:
 3562              		.loc 1 1432 0
 3563 0080 4FEA5202 		lsr	r2, r2, #1
 3564              	.LVL465:
 3565              		.loc 1 1430 0
 3566 0084 F4D1     		bne	.L517
 3567              	.LVL466:
 3568              		.loc 1 1428 0
 3569 0086 3EF8022F 		ldrh	r2, [lr, #2]!
 3570              	.LVL467:
 3571 008a 002A     		cmp	r2, #0
 3572 008c EFD1     		bne	.L544
 3573              	.LVL468:
 3574              	.L514:
 3575 008e 0DF1070E 		add	lr, sp, #7
 3576              	.LBE348:
 3577              		.loc 1 1424 0
 3578 0092 0722     		movs	r2, #7
 3579              	.L519:
 3580              	.LVL469:
 3581              		.loc 1 1442 0
 3582 0094 03F00F00 		and	r0, r3, #15
 3583 0098 00F13001 		add	r1, r0, #48
 3584              	.LVL470:
 3585              		.loc 1 1443 0
 3586 009c 3929     		cmp	r1, #57
 3587 009e 88BF     		it	hi
 3588 00a0 00F13701 		addhi	r1, r0, #55
 3589              	.LVL471:
 3590              		.loc 1 1446 0
 3591 00a4 1B09     		lsrs	r3, r3, #4
ARM GAS  C:\Users\Moi\AppData\Local\Temp\ccqw64Tg.s 			page 64


 3592              	.LVL472:
 3593              		.loc 1 1444 0
 3594 00a6 02F1FF32 		add	r2, r2, #-1
 3595              	.LVL473:
 3596 00aa 0EF80119 		strb	r1, [lr], #-1
 3597              		.loc 1 1446 0
 3598 00ae F1D1     		bne	.L519
 3599              		.loc 1 1447 0
 3600 00b0 06A9     		add	r1, sp, #24
 3601              	.LVL474:
 3602 00b2 1144     		add	r1, r1, r2
 3603 00b4 7E20     		movs	r0, #126
 3604 00b6 01F8180C 		strb	r0, [r1, #-24]
 3605              	.LVL475:
 3606              		.loc 1 1450 0
 3607 00ba 002A     		cmp	r2, #0
 3608 00bc 00F0D280 		beq	.L545
 3609 00c0 9BF80010 		ldrb	r1, [fp]	@ zero_extendqisi2
 3610 00c4 2029     		cmp	r1, #32
 3611 00c6 04D1     		bne	.L521
 3612 00c8 06E0     		b	.L520
 3613              	.LVL476:
 3614              	.L584:
 3615 00ca 1CF8011F 		ldrb	r1, [ip, #1]!	@ zero_extendqisi2
 3616 00ce 2029     		cmp	r1, #32
 3617 00d0 02D0     		beq	.L520
 3618              	.LVL477:
 3619              	.L521:
 3620 00d2 0133     		adds	r3, r3, #1
 3621              	.LVL478:
 3622 00d4 9A42     		cmp	r2, r3
 3623 00d6 F8D1     		bne	.L584
 3624              	.LVL479:
 3625              	.L520:
 3626 00d8 591E     		subs	r1, r3, #1
 3627 00da 5944     		add	r1, r1, fp
 3628 00dc 0AE0     		b	.L523
 3629              	.LVL480:
 3630              	.L586:
 3631              		.loc 1 1457 0
 3632 00de 06A8     		add	r0, sp, #24
 3633 00e0 1044     		add	r0, r0, r2
 3634 00e2 0133     		adds	r3, r3, #1
 3635              	.LVL481:
 3636 00e4 10F8180C 		ldrb	r0, [r0, #-24]	@ zero_extendqisi2
 3637 00e8 01F8010F 		strb	r0, [r1, #1]!
 3638              		.loc 1 1458 0
 3639 00ec 072B     		cmp	r3, #7
 3640              		.loc 1 1457 0
 3641 00ee 02F10102 		add	r2, r2, #1
 3642              	.LVL482:
 3643              		.loc 1 1458 0
 3644 00f2 07D8     		bhi	.L585
 3645              	.LVL483:
 3646              	.L523:
 3647              		.loc 1 1457 0
 3648 00f4 072A     		cmp	r2, #7
ARM GAS  C:\Users\Moi\AppData\Local\Temp\ccqw64Tg.s 			page 65


 3649 00f6 F2D9     		bls	.L586
 3650 00f8 0133     		adds	r3, r3, #1
 3651              	.LVL484:
 3652 00fa 2020     		movs	r0, #32
 3653              	.LVL485:
 3654              		.loc 1 1458 0
 3655 00fc 072B     		cmp	r3, #7
 3656              		.loc 1 1457 0
 3657 00fe 01F8010F 		strb	r0, [r1, #1]!
 3658              		.loc 1 1458 0
 3659 0102 F7D9     		bls	.L523
 3660              	.L585:
 3661              	.LVL486:
 3662              	.LBE349:
 3663              	.LBE352:
 3664              	.LBB353:
 3665              	.LBB354:
 3666              		.loc 1 1500 0
 3667 0104 0021     		movs	r1, #0
 3668 0106 3046     		mov	r0, r6
 3669 0108 FFF7FEFF 		bl	dir_sdi
 3670              	.LVL487:
 3671              		.loc 1 1501 0
 3672 010c A0B9     		cbnz	r0, .L524
 3673 010e 3046     		mov	r0, r6
 3674              	.LVL488:
 3675 0110 FFF7FEFF 		bl	dir_find.part.8
 3676              	.LVL489:
 3677              	.LBE354:
 3678              	.LBE353:
 3679              		.loc 1 1632 0
 3680 0114 80B9     		cbnz	r0, .L524
 3681              		.loc 1 1629 0 discriminator 2
 3682 0116 0AF1010A 		add	r10, r10, #1
 3683              	.LVL490:
 3684 011a BAF1640F 		cmp	r10, #100
 3685 011e 94D1     		bne	.L512
 3686              		.loc 1 1634 0
 3687 0120 0720     		movs	r0, #7
 3688              	.LVL491:
 3689              	.L525:
 3690              		.loc 1 1677 0
 3691 0122 614B     		ldr	r3, .L588
 3692 0124 059A     		ldr	r2, [sp, #20]
 3693 0126 1B68     		ldr	r3, [r3]
 3694 0128 9A42     		cmp	r2, r3
 3695 012a 40F0BB80 		bne	.L587
 3696 012e 07B0     		add	sp, sp, #28
 3697              		.cfi_remember_state
 3698              		.cfi_def_cfa_offset 36
 3699              		@ sp needed
 3700 0130 BDE8F08F 		pop	{r4, r5, r6, r7, r8, r9, r10, fp, pc}
 3701              	.LVL492:
 3702              	.L543:
 3703              		.cfi_restore_state
 3704              	.LBB355:
 3705              	.LBB350:
ARM GAS  C:\Users\Moi\AppData\Local\Temp\ccqw64Tg.s 			page 66


 3706              		.loc 1 1424 0
 3707 0134 5346     		mov	r3, r10
 3708 0136 AAE7     		b	.L514
 3709              	.LVL493:
 3710              	.L524:
 3711              	.LBE350:
 3712              	.LBE355:
 3713              		.loc 1 1635 0
 3714 0138 0428     		cmp	r0, #4
 3715 013a F2D1     		bne	.L525
 3716              		.loc 1 1636 0
 3717 013c 8BF80B90 		strb	r9, [fp, #11]
 3718 0140 F761     		str	r7, [r6, #28]
 3719              	.LVL494:
 3720              	.L511:
 3721              		.loc 1 1639 0
 3722 0142 19F0020F 		tst	r9, #2
 3723 0146 63D0     		beq	.L527
 3724              	.LVL495:
 3725              		.loc 1 1640 0
 3726 0148 3B88     		ldrh	r3, [r7]
 3727 014a 002B     		cmp	r3, #0
 3728 014c 60D0     		beq	.L527
 3729 014e 0023     		movs	r3, #0
 3730 0150 00E0     		b	.L528
 3731              	.LVL496:
 3732              	.L548:
 3733 0152 0B46     		mov	r3, r1
 3734              	.LVL497:
 3735              	.L528:
 3736              		.loc 1 1640 0 is_stmt 0 discriminator 3
 3737 0154 37F8022F 		ldrh	r2, [r7, #2]!
 3738 0158 591C     		adds	r1, r3, #1
 3739              	.LVL498:
 3740 015a 002A     		cmp	r2, #0
 3741 015c F9D1     		bne	.L548
 3742              		.loc 1 1641 0 is_stmt 1
 3743 015e 544A     		ldr	r2, .L588+8
 3744 0160 03F11A07 		add	r7, r3, #26
 3745 0164 A2FB0737 		umull	r3, r7, r2, r7
 3746 0168 BF08     		lsrs	r7, r7, #2
 3747              	.LVL499:
 3748              		.loc 1 1645 0
 3749 016a 3946     		mov	r1, r7
 3750              	.LVL500:
 3751 016c 3046     		mov	r0, r6
 3752 016e FFF7FEFF 		bl	dir_alloc
 3753              	.LVL501:
 3754              		.loc 1 1647 0
 3755 0172 0028     		cmp	r0, #0
 3756 0174 D5D1     		bne	.L525
 3757              		.loc 1 1648 0 discriminator 1
 3758 0176 F188     		ldrh	r1, [r6, #6]
 3759              		.loc 1 1647 0 discriminator 1
 3760 0178 013F     		subs	r7, r7, #1
 3761              	.LVL502:
 3762              		.loc 1 1648 0 discriminator 1
ARM GAS  C:\Users\Moi\AppData\Local\Temp\ccqw64Tg.s 			page 67


 3763 017a C91B     		subs	r1, r1, r7
 3764 017c 3046     		mov	r0, r6
 3765              	.LVL503:
 3766 017e FFF7FEFF 		bl	dir_sdi
 3767              	.LVL504:
 3768              		.loc 1 1649 0 discriminator 1
 3769 0182 0028     		cmp	r0, #0
 3770 0184 CDD1     		bne	.L525
 3771              		.loc 1 1650 0
 3772 0186 B169     		ldr	r1, [r6, #24]
 3773              	.LVL505:
 3774              	.LBB356:
 3775              	.LBB357:
 3776              		.loc 1 1474 0
 3777 0188 8046     		mov	r8, r0
 3778 018a 01F10B00 		add	r0, r1, #11
 3779              	.LVL506:
 3780              	.L529:
 3781              		.loc 1 1477 0
 3782 018e 4FEAC813 		lsl	r3, r8, #7
 3783 0192 11F8012B 		ldrb	r2, [r1], #1	@ zero_extendqisi2
 3784              	.LVL507:
 3785 0196 43EA5803 		orr	r3, r3, r8, lsr #1
 3786 019a 52FA83F3 		uxtab	r3, r2, r3
 3787 019e 8142     		cmp	r1, r0
 3788 01a0 5FFA83F8 		uxtb	r8, r3
 3789              	.LVL508:
 3790 01a4 F3D1     		bne	.L529
 3791 01a6 DFF80C91 		ldr	r9, .L588+12
 3792              	.LVL509:
 3793              	.L537:
 3794              	.LBE357:
 3795              	.LBE356:
 3796              		.loc 1 1652 0
 3797 01aa 3169     		ldr	r1, [r6, #16]
 3798 01ac 3068     		ldr	r0, [r6]
 3799 01ae FFF7FEFF 		bl	move_window
 3800              	.LVL510:
 3801 01b2 0146     		mov	r1, r0
 3802              	.LVL511:
 3803              		.loc 1 1653 0
 3804 01b4 0028     		cmp	r0, #0
 3805 01b6 B4D1     		bne	.L525
 3806              		.loc 1 1654 0
 3807 01b8 5FFA87FA 		uxtb	r10, r7
 3808 01bc 7469     		ldr	r4, [r6, #20]
 3809 01be D6F81CC0 		ldr	ip, [r6, #28]
 3810              	.LVL512:
 3811              	.LBB358:
 3812              	.LBB359:
 3813              		.loc 1 1384 0
 3814 01c2 84F80D80 		strb	r8, [r4, #13]
 3815              		.loc 1 1389 0
 3816 01c6 0AF1FF32 		add	r2, r10, #-1
 3817 01ca 02EB4205 		add	r5, r2, r2, lsl #1
 3818              		.loc 1 1385 0
 3819 01ce 0F20     		movs	r0, #15
ARM GAS  C:\Users\Moi\AppData\Local\Temp\ccqw64Tg.s 			page 68


 3820              	.LVL513:
 3821              		.loc 1 1390 0
 3822 01d0 0B46     		mov	r3, r1
 3823              		.loc 1 1389 0
 3824 01d2 02EB8502 		add	r2, r2, r5, lsl #2
 3825              	.LVL514:
 3826              		.loc 1 1385 0
 3827 01d6 E072     		strb	r0, [r4, #11]
 3828              		.loc 1 1386 0
 3829 01d8 2173     		strb	r1, [r4, #12]
 3830              		.loc 1 1387 0
 3831 01da A176     		strb	r1, [r4, #26]
 3832 01dc E176     		strb	r1, [r4, #27]
 3833              		.loc 1 1389 0
 3834 01de 4FF0010B 		mov	fp, #1
 3835              		.loc 1 1392 0
 3836 01e2 4FF6FF7E 		movw	lr, #65535
 3837              	.LVL515:
 3838              	.L535:
 3839 01e6 7345     		cmp	r3, lr
 3840 01e8 1ABF     		itte	ne
 3841 01ea 3CF81230 		ldrhne	r3, [ip, r2, lsl #1]
 3842 01ee 551C     		addne	r5, r2, #1
 3843              	.LVL516:
 3844 01f0 1546     		moveq	r5, r2
 3845              	.LVL517:
 3846              	.L533:
 3847              		.loc 1 1393 0
 3848 01f2 04EB0B00 		add	r0, r4, fp
 3849 01f6 1A0A     		lsrs	r2, r3, #8
 3850 01f8 04F80B30 		strb	r3, [r4, fp]
 3851 01fc 0131     		adds	r1, r1, #1
 3852 01fe 4270     		strb	r2, [r0, #1]
 3853              		.loc 1 1394 0
 3854 0200 93BB     		cbnz	r3, .L531
 3855              	.LVL518:
 3856              		.loc 1 1395 0
 3857 0202 0C29     		cmp	r1, #12
 3858 0204 3DD8     		bhi	.L532
 3859 0206 11F809B0 		ldrb	fp, [r1, r9]	@ zero_extendqisi2
 3860              		.loc 1 1394 0
 3861 020a 4FF6FF73 		movw	r3, #65535
 3862 020e F0E7     		b	.L533
 3863              	.LVL519:
 3864              	.L527:
 3865              	.LBE359:
 3866              	.LBE358:
 3867              		.loc 1 1645 0
 3868 0210 0121     		movs	r1, #1
 3869 0212 3046     		mov	r0, r6
 3870 0214 FFF7FEFF 		bl	dir_alloc
 3871              	.LVL520:
 3872              		.loc 1 1647 0
 3873 0218 0028     		cmp	r0, #0
 3874 021a 82D1     		bne	.L525
 3875              	.LVL521:
 3876              	.L541:
ARM GAS  C:\Users\Moi\AppData\Local\Temp\ccqw64Tg.s 			page 69


 3877              		.loc 1 1665 0
 3878 021c 3169     		ldr	r1, [r6, #16]
 3879 021e 3068     		ldr	r0, [r6]
 3880              	.LVL522:
 3881 0220 FFF7FEFF 		bl	move_window
 3882              	.LVL523:
 3883              		.loc 1 1666 0
 3884 0224 0028     		cmp	r0, #0
 3885 0226 7FF47CAF 		bne	.L525
 3886              		.loc 1 1667 0
 3887 022a 7369     		ldr	r3, [r6, #20]
 3888              	.LVL524:
 3889              	.LBB361:
 3890              	.LBB362:
 3891              		.loc 1 583 0
 3892 022c 0146     		mov	r1, r0
 3893 022e 03F12002 		add	r2, r3, #32
 3894              	.LVL525:
 3895              	.L538:
 3896 0232 03F8011B 		strb	r1, [r3], #1
 3897              	.LVL526:
 3898              		.loc 1 582 0
 3899 0236 9342     		cmp	r3, r2
 3900 0238 FBD1     		bne	.L538
 3901              	.LVL527:
 3902 023a D6E90523 		ldrd	r2, r3, [r6, #20]
 3903 023e 03F10B04 		add	r4, r3, #11
 3904 0242 013A     		subs	r2, r2, #1
 3905              	.L539:
 3906              	.LVL528:
 3907              	.LBE362:
 3908              	.LBE361:
 3909              	.LBB363:
 3910              	.LBB364:
 3911              		.loc 1 574 0
 3912 0244 13F8011B 		ldrb	r1, [r3], #1	@ zero_extendqisi2
 3913              	.LVL529:
 3914 0248 02F8011F 		strb	r1, [r2, #1]!
 3915              	.LVL530:
 3916              		.loc 1 573 0
 3917 024c A342     		cmp	r3, r4
 3918 024e F9D1     		bne	.L539
 3919              	.LVL531:
 3920              	.LBE364:
 3921              	.LBE363:
 3922              		.loc 1 1670 0
 3923 0250 D6E90523 		ldrd	r2, r3, [r6, #20]
 3924 0254 DB7A     		ldrb	r3, [r3, #11]	@ zero_extendqisi2
 3925 0256 03F01803 		and	r3, r3, #24
 3926 025a 1373     		strb	r3, [r2, #12]
 3927              		.loc 1 1672 0
 3928 025c 3368     		ldr	r3, [r6]
 3929 025e 0122     		movs	r2, #1
 3930 0260 1A71     		strb	r2, [r3, #4]
 3931 0262 5EE7     		b	.L525
 3932              	.LVL532:
 3933              	.L545:
ARM GAS  C:\Users\Moi\AppData\Local\Temp\ccqw64Tg.s 			page 70


 3934              	.LBB365:
 3935              	.LBB351:
 3936              		.loc 1 1450 0
 3937 0264 1346     		mov	r3, r2
 3938 0266 37E7     		b	.L520
 3939              	.LVL533:
 3940              	.L531:
 3941              	.LBE351:
 3942              	.LBE365:
 3943              	.LBB366:
 3944              	.LBB360:
 3945              		.loc 1 1395 0
 3946 0268 0C29     		cmp	r1, #12
 3947 026a 03D8     		bhi	.L534
 3948 026c 2A46     		mov	r2, r5
 3949 026e 19F801B0 		ldrb	fp, [r9, r1]	@ zero_extendqisi2
 3950 0272 B8E7     		b	.L535
 3951              	.L534:
 3952              		.loc 1 1396 0
 3953 0274 4FF6FF72 		movw	r2, #65535
 3954 0278 9342     		cmp	r3, r2
 3955 027a 02D0     		beq	.L532
 3956 027c 3CF81530 		ldrh	r3, [ip, r5, lsl #1]
 3957 0280 0BB9     		cbnz	r3, .L536
 3958              	.LVL534:
 3959              	.L532:
 3960 0282 4AF0400A 		orr	r10, r10, #64
 3961              	.LVL535:
 3962              	.L536:
 3963              		.loc 1 1397 0
 3964 0286 84F800A0 		strb	r10, [r4]
 3965              	.LVL536:
 3966              	.LBE360:
 3967              	.LBE366:
 3968              		.loc 1 1655 0
 3969 028a 3368     		ldr	r3, [r6]
 3970 028c 0122     		movs	r2, #1
 3971 028e 1A71     		strb	r2, [r3, #4]
 3972              		.loc 1 1656 0
 3973 0290 0021     		movs	r1, #0
 3974 0292 3046     		mov	r0, r6
 3975 0294 FFF7FEFF 		bl	dir_next
 3976              	.LVL537:
 3977              		.loc 1 1657 0
 3978 0298 0028     		cmp	r0, #0
 3979 029a 7FF442AF 		bne	.L525
 3980              	.LVL538:
 3981              		.loc 1 1657 0 is_stmt 0 discriminator 1
 3982 029e 013F     		subs	r7, r7, #1
 3983              	.LVL539:
 3984 02a0 83D1     		bne	.L537
 3985 02a2 BBE7     		b	.L541
 3986              	.LVL540:
 3987              	.L587:
 3988              		.loc 1 1677 0 is_stmt 1
 3989 02a4 FFF7FEFF 		bl	__stack_chk_fail
 3990              	.LVL541:
ARM GAS  C:\Users\Moi\AppData\Local\Temp\ccqw64Tg.s 			page 71


 3991              	.L589:
 3992              		.align	2
 3993              	.L588:
 3994 02a8 00000000 		.word	__stack_chk_guard
 3995 02ac 21100100 		.word	69665
 3996 02b0 4FECC44E 		.word	1321528399
 3997 02b4 00000000 		.word	.LANCHOR2
 3998              		.cfi_endproc
 3999              	.LFE244:
 4000              		.size	dir_register, .-dir_register
 4001              		.section	.text.remove_chain.part.9,"ax",%progbits
 4002              		.align	1
 4003              		.p2align 4,,15
 4004              		.syntax unified
 4005              		.thumb
 4006              		.thumb_func
 4007              		.fpu fpv4-sp-d16
 4008              		.type	remove_chain.part.9, %function
 4009              	remove_chain.part.9:
 4010              	.LFB288:
 4011              		.loc 1 974 0
 4012              		.cfi_startproc
 4013              		@ args = 0, pretend = 0, frame = 16
 4014              		@ frame_needed = 0, uses_anonymous_args = 0
 4015              	.LVL542:
 4016 0000 2DE9F041 		push	{r4, r5, r6, r7, r8, lr}
 4017              		.cfi_def_cfa_offset 24
 4018              		.cfi_offset 4, -24
 4019              		.cfi_offset 5, -20
 4020              		.cfi_offset 6, -16
 4021              		.cfi_offset 7, -12
 4022              		.cfi_offset 8, -8
 4023              		.cfi_offset 14, -4
 4024 0004 DFF8C080 		ldr	r8, .L615
 4025 0008 84B0     		sub	sp, sp, #16
 4026              		.cfi_def_cfa_offset 40
 4027              		.loc 1 974 0
 4028 000a D8F80030 		ldr	r3, [r8]
 4029 000e 0393     		str	r3, [sp, #12]
 4030 0010 4369     		ldr	r3, [r0, #20]
 4031 0012 0546     		mov	r5, r0
 4032 0014 0C46     		mov	r4, r1
 4033              		.loc 1 982 0
 4034 0016 0F46     		mov	r7, r1
 4035              	.LVL543:
 4036              	.L591:
 4037              		.loc 1 990 0
 4038 0018 9C42     		cmp	r4, r3
 4039 001a 44D2     		bcs	.L601
 4040              	.L600:
 4041              	.LVL544:
 4042              	.LBB367:
 4043              	.LBB368:
 4044              		.loc 1 874 0
 4045 001c 012C     		cmp	r4, #1
 4046 001e 46D9     		bls	.L595
 4047 0020 2146     		mov	r1, r4
ARM GAS  C:\Users\Moi\AppData\Local\Temp\ccqw64Tg.s 			page 72


 4048 0022 2846     		mov	r0, r5
 4049 0024 FFF7FEFF 		bl	get_fat.part.6
 4050              	.LVL545:
 4051              	.LBE368:
 4052              	.LBE367:
 4053              		.loc 1 992 0
 4054 0028 0646     		mov	r6, r0
 4055 002a 0028     		cmp	r0, #0
 4056 002c 3BD0     		beq	.L601
 4057              		.loc 1 993 0
 4058 002e 0128     		cmp	r0, #1
 4059 0030 3DD0     		beq	.L595
 4060              		.loc 1 994 0
 4061 0032 411C     		adds	r1, r0, #1
 4062 0034 44D0     		beq	.L603
 4063              	.LVL546:
 4064              	.LBB369:
 4065              	.LBB370:
 4066              		.loc 1 922 0
 4067 0036 6B69     		ldr	r3, [r5, #20]
 4068 0038 9C42     		cmp	r4, r3
 4069 003a 38D2     		bcs	.L595
 4070 003c 0022     		movs	r2, #0
 4071 003e 2146     		mov	r1, r4
 4072 0040 2846     		mov	r0, r5
 4073 0042 FFF7FEFF 		bl	put_fat.part.7
 4074              	.LVL547:
 4075              	.LBE370:
 4076              	.LBE369:
 4077              		.loc 1 996 0
 4078 0046 0028     		cmp	r0, #0
 4079 0048 32D1     		bne	.L593
 4080              		.loc 1 997 0
 4081 004a 2B69     		ldr	r3, [r5, #16]
 4082 004c 5A1C     		adds	r2, r3, #1
 4083 004e 05D0     		beq	.L596
 4084              		.loc 1 999 0
 4085 0050 6A79     		ldrb	r2, [r5, #5]	@ zero_extendqisi2
 4086              		.loc 1 998 0
 4087 0052 0133     		adds	r3, r3, #1
 4088              		.loc 1 999 0
 4089 0054 42F00102 		orr	r2, r2, #1
 4090              		.loc 1 998 0
 4091 0058 2B61     		str	r3, [r5, #16]
 4092              		.loc 1 999 0
 4093 005a 6A71     		strb	r2, [r5, #5]
 4094              	.L596:
 4095              		.loc 1 1002 0
 4096 005c 621C     		adds	r2, r4, #1
 4097 005e 9642     		cmp	r6, r2
 4098 0060 6B69     		ldr	r3, [r5, #20]
 4099 0062 22D0     		beq	.L604
 4100              	.LVL548:
 4101              	.LBB371:
 4102              	.LBB372:
 4103              		.loc 1 853 0
 4104 0064 023B     		subs	r3, r3, #2
ARM GAS  C:\Users\Moi\AppData\Local\Temp\ccqw64Tg.s 			page 73


 4105              		.loc 1 852 0
 4106 0066 023F     		subs	r7, r7, #2
 4107              	.LVL549:
 4108              		.loc 1 853 0
 4109 0068 9F42     		cmp	r7, r3
 4110 006a AA78     		ldrb	r2, [r5, #2]	@ zero_extendqisi2
 4111              		.loc 1 854 0
 4112 006c 38BF     		it	cc
 4113 006e A96A     		ldrcc	r1, [r5, #40]
 4114              	.LBE372:
 4115              	.LBE371:
 4116              		.loc 1 1007 0
 4117 0070 6878     		ldrb	r0, [r5, #1]	@ zero_extendqisi2
 4118              	.LBB374:
 4119              	.LBB375:
 4120              		.loc 1 852 0
 4121 0072 A4F10204 		sub	r4, r4, #2
 4122              	.LVL550:
 4123              	.LBE375:
 4124              	.LBE374:
 4125              	.LBB378:
 4126              	.LBB373:
 4127              		.loc 1 854 0
 4128 0076 34BF     		ite	cc
 4129 0078 02FB0717 		mlacc	r7, r2, r7, r1
 4130              	.LVL551:
 4131              		.loc 1 853 0
 4132 007c 0027     		movcs	r7, #0
 4133              	.LVL552:
 4134              	.LBE373:
 4135              	.LBE378:
 4136              	.LBB379:
 4137              	.LBB376:
 4138 007e A342     		cmp	r3, r4
 4139              		.loc 1 854 0
 4140 0080 88BF     		it	hi
 4141 0082 AB6A     		ldrhi	r3, [r5, #40]
 4142              	.LBE376:
 4143              	.LBE379:
 4144              		.loc 1 1005 0
 4145 0084 0197     		str	r7, [sp, #4]
 4146              	.LVL553:
 4147              	.LBB380:
 4148              	.LBB377:
 4149              		.loc 1 854 0
 4150 0086 8CBF     		ite	hi
 4151 0088 02FB0434 		mlahi	r4, r2, r4, r3
 4152              	.LVL554:
 4153              		.loc 1 853 0
 4154 008c 0024     		movls	r4, #0
 4155              	.LBE377:
 4156              	.LBE380:
 4157              		.loc 1 1006 0
 4158 008e 013A     		subs	r2, r2, #1
 4159 0090 1444     		add	r4, r4, r2
 4160              		.loc 1 1007 0
 4161 0092 0421     		movs	r1, #4
ARM GAS  C:\Users\Moi\AppData\Local\Temp\ccqw64Tg.s 			page 74


 4162 0094 01AA     		add	r2, sp, #4
 4163              		.loc 1 1006 0
 4164 0096 0294     		str	r4, [sp, #8]
 4165              		.loc 1 1007 0
 4166 0098 FFF7FEFF 		bl	disk_ioctl
 4167              	.LVL555:
 4168 009c 6B69     		ldr	r3, [r5, #20]
 4169 009e 3446     		mov	r4, r6
 4170              		.loc 1 990 0
 4171 00a0 9C42     		cmp	r4, r3
 4172              		.loc 1 1007 0
 4173 00a2 3746     		mov	r7, r6
 4174              	.LVL556:
 4175              		.loc 1 990 0
 4176 00a4 BAD3     		bcc	.L600
 4177              	.LVL557:
 4178              	.L601:
 4179              		.loc 1 982 0
 4180 00a6 0020     		movs	r0, #0
 4181 00a8 02E0     		b	.L593
 4182              	.LVL558:
 4183              	.L604:
 4184              		.loc 1 1002 0
 4185 00aa 3446     		mov	r4, r6
 4186              	.LVL559:
 4187 00ac B4E7     		b	.L591
 4188              	.LVL560:
 4189              	.L595:
 4190              		.loc 1 993 0
 4191 00ae 0220     		movs	r0, #2
 4192              	.LVL561:
 4193              	.L593:
 4194              		.loc 1 1016 0
 4195 00b0 039A     		ldr	r2, [sp, #12]
 4196 00b2 D8F80030 		ldr	r3, [r8]
 4197 00b6 9A42     		cmp	r2, r3
 4198 00b8 04D1     		bne	.L614
 4199 00ba 04B0     		add	sp, sp, #16
 4200              		.cfi_remember_state
 4201              		.cfi_def_cfa_offset 24
 4202              		@ sp needed
 4203 00bc BDE8F081 		pop	{r4, r5, r6, r7, r8, pc}
 4204              	.LVL562:
 4205              	.L603:
 4206              		.cfi_restore_state
 4207              		.loc 1 994 0
 4208 00c0 0120     		movs	r0, #1
 4209 00c2 F5E7     		b	.L593
 4210              	.LVL563:
 4211              	.L614:
 4212              		.loc 1 1016 0
 4213 00c4 FFF7FEFF 		bl	__stack_chk_fail
 4214              	.LVL564:
 4215              	.L616:
 4216              		.align	2
 4217              	.L615:
 4218 00c8 00000000 		.word	__stack_chk_guard
ARM GAS  C:\Users\Moi\AppData\Local\Temp\ccqw64Tg.s 			page 75


 4219              		.cfi_endproc
 4220              	.LFE288:
 4221              		.size	remove_chain.part.9, .-remove_chain.part.9
 4222              		.section	.text.follow_path,"ax",%progbits
 4223              		.align	1
 4224              		.p2align 4,,15
 4225              		.syntax unified
 4226              		.thumb
 4227              		.thumb_func
 4228              		.fpu fpv4-sp-d16
 4229              		.type	follow_path, %function
 4230              	follow_path:
 4231              	.LFB248:
 4232              		.loc 1 2019 0
 4233              		.cfi_startproc
 4234              		@ args = 0, pretend = 0, frame = 16
 4235              		@ frame_needed = 0, uses_anonymous_args = 0
 4236              	.LVL565:
 4237 0000 2DE9F04F 		push	{r4, r5, r6, r7, r8, r9, r10, fp, lr}
 4238              		.cfi_def_cfa_offset 36
 4239              		.cfi_offset 4, -36
 4240              		.cfi_offset 5, -32
 4241              		.cfi_offset 6, -28
 4242              		.cfi_offset 7, -24
 4243              		.cfi_offset 8, -20
 4244              		.cfi_offset 9, -16
 4245              		.cfi_offset 10, -12
 4246              		.cfi_offset 11, -8
 4247              		.cfi_offset 14, -4
 4248 0004 DFF8C8B2 		ldr	fp, .L768+8
 4249              		.loc 1 2031 0
 4250 0008 0B78     		ldrb	r3, [r1]	@ zero_extendqisi2
 4251              		.loc 1 2019 0
 4252 000a DBF80020 		ldr	r2, [fp]
 4253 000e 85B0     		sub	sp, sp, #20
 4254              		.cfi_def_cfa_offset 56
 4255              		.loc 1 2031 0
 4256 0010 2F2B     		cmp	r3, #47
 4257              		.loc 1 2019 0
 4258 0012 0D46     		mov	r5, r1
 4259 0014 0392     		str	r2, [sp, #12]
 4260 0016 8046     		mov	r8, r0
 4261              		.loc 1 2031 0
 4262 0018 48D0     		beq	.L618
 4263              		.loc 1 2031 0 is_stmt 0 discriminator 1
 4264 001a 5C2B     		cmp	r3, #92
 4265 001c 46D0     		beq	.L618
 4266              		.loc 1 2033 0 is_stmt 1
 4267 001e 0024     		movs	r4, #0
 4268 0020 C8F80840 		str	r4, [r8, #8]
 4269              		.loc 1 2036 0
 4270 0024 2878     		ldrb	r0, [r5]	@ zero_extendqisi2
 4271              	.LVL566:
 4272 0026 1F28     		cmp	r0, #31
 4273 0028 02D8     		bhi	.L622
 4274 002a 46E0     		b	.L762
 4275              	.LVL567:
ARM GAS  C:\Users\Moi\AppData\Local\Temp\ccqw64Tg.s 			page 76


 4276              	.L623:
 4277 002c 15F8010F 		ldrb	r0, [r5, #1]!	@ zero_extendqisi2
 4278              	.LVL568:
 4279              	.L622:
 4280              	.LBB393:
 4281              	.LBB394:
 4282              		.loc 1 1817 0
 4283 0030 2F28     		cmp	r0, #47
 4284 0032 FBD0     		beq	.L623
 4285 0034 5C28     		cmp	r0, #92
 4286 0036 F9D0     		beq	.L623
 4287              		.loc 1 1821 0
 4288 0038 80B2     		uxth	r0, r0
 4289              		.loc 1 1822 0
 4290 003a 1F28     		cmp	r0, #31
 4291              		.loc 1 1818 0
 4292 003c D8F81C70 		ldr	r7, [r8, #28]
 4293              	.LVL569:
 4294              		.loc 1 1822 0
 4295 0040 2AD9     		bls	.L624
 4296 0042 2F28     		cmp	r0, #47
 4297 0044 28D0     		beq	.L624
 4298 0046 5C28     		cmp	r0, #92
 4299 0048 26D0     		beq	.L624
 4300 004a BE1E     		subs	r6, r7, #2
 4301 004c B246     		mov	r10, r6
 4302 004e A946     		mov	r9, r5
 4303              		.loc 1 1821 0
 4304 0050 0124     		movs	r4, #1
 4305 0052 10E0     		b	.L625
 4306              	.LVL570:
 4307              	.L627:
 4308              		.loc 1 1838 0
 4309 0054 2AF8020F 		strh	r0, [r10, #2]!	@ movhi
 4310              		.loc 1 1821 0
 4311 0058 19F8010F 		ldrb	r0, [r9, #1]!	@ zero_extendqisi2
 4312              	.LVL571:
 4313              		.loc 1 1822 0
 4314 005c 1F28     		cmp	r0, #31
 4315              		.loc 1 1821 0
 4316 005e 04F10103 		add	r3, r4, #1
 4317              	.LVL572:
 4318              		.loc 1 1822 0
 4319 0062 40F21281 		bls	.L763
 4320 0066 2F28     		cmp	r0, #47
 4321 0068 2ED0     		beq	.L626
 4322 006a 5C28     		cmp	r0, #92
 4323 006c 2CD0     		beq	.L626
 4324              		.loc 1 1823 0
 4325 006e B3F5807F 		cmp	r3, #256
 4326 0072 11D0     		beq	.L624
 4327 0074 1C46     		mov	r4, r3
 4328              	.LVL573:
 4329              	.L625:
 4330              		.loc 1 1833 0
 4331 0076 0121     		movs	r1, #1
 4332 0078 FFF7FEFF 		bl	ff_convert
ARM GAS  C:\Users\Moi\AppData\Local\Temp\ccqw64Tg.s 			page 77


 4333              	.LVL574:
 4334              		.loc 1 1834 0
 4335 007c 60B1     		cbz	r0, .L624
 4336              		.loc 1 1836 0
 4337 007e 7F28     		cmp	r0, #127
 4338 0080 E8D8     		bhi	.L627
 4339              	.LVL575:
 4340              	.LBB395:
 4341              	.LBB396:
 4342              		.loc 1 599 0
 4343 0082 2228     		cmp	r0, #34
 4344 0084 08D0     		beq	.L624
 4345 0086 904A     		ldr	r2, .L768
 4346 0088 2A23     		movs	r3, #42
 4347 008a 03E0     		b	.L628
 4348              	.LVL576:
 4349              	.L629:
 4350 008c 12F8013F 		ldrb	r3, [r2, #1]!	@ zero_extendqisi2
 4351              	.LVL577:
 4352 0090 002B     		cmp	r3, #0
 4353 0092 DFD0     		beq	.L627
 4354              	.LVL578:
 4355              	.L628:
 4356 0094 9842     		cmp	r0, r3
 4357 0096 F9D1     		bne	.L629
 4358              	.LVL579:
 4359              	.L624:
 4360              	.LBE396:
 4361              	.LBE395:
 4362              		.loc 1 1857 0
 4363 0098 0620     		movs	r0, #6
 4364              	.LVL580:
 4365              	.L621:
 4366              	.LBE394:
 4367              	.LBE393:
 4368              		.loc 1 2067 0
 4369 009a 039A     		ldr	r2, [sp, #12]
 4370 009c DBF80030 		ldr	r3, [fp]
 4371 00a0 9A42     		cmp	r2, r3
 4372 00a2 40F00F81 		bne	.L764
 4373 00a6 05B0     		add	sp, sp, #20
 4374              		.cfi_remember_state
 4375              		.cfi_def_cfa_offset 36
 4376              		@ sp needed
 4377 00a8 BDE8F08F 		pop	{r4, r5, r6, r7, r8, r9, r10, fp, pc}
 4378              	.LVL581:
 4379              	.L618:
 4380              		.cfi_restore_state
 4381              		.loc 1 2032 0
 4382 00ac 0135     		adds	r5, r5, #1
 4383              	.LVL582:
 4384              		.loc 1 2033 0
 4385 00ae 0024     		movs	r4, #0
 4386 00b0 C8F80840 		str	r4, [r8, #8]
 4387              		.loc 1 2036 0
 4388 00b4 2878     		ldrb	r0, [r5]	@ zero_extendqisi2
 4389              	.LVL583:
ARM GAS  C:\Users\Moi\AppData\Local\Temp\ccqw64Tg.s 			page 78


 4390 00b6 1F28     		cmp	r0, #31
 4391 00b8 BAD8     		bhi	.L622
 4392              	.L762:
 4393              		.loc 1 2037 0
 4394 00ba 2146     		mov	r1, r4
 4395 00bc 4046     		mov	r0, r8
 4396 00be FFF7FEFF 		bl	dir_sdi
 4397              	.LVL584:
 4398              		.loc 1 2038 0
 4399 00c2 C8F81440 		str	r4, [r8, #20]
 4400 00c6 E8E7     		b	.L621
 4401              	.LVL585:
 4402              	.L626:
 4403              	.LBB404:
 4404              	.LBB401:
 4405              		.loc 1 1840 0
 4406 00c8 1D44     		add	r5, r5, r3
 4407              	.LVL586:
 4408              		.loc 1 1841 0
 4409 00ca 4FF0000A 		mov	r10, #0
 4410              	.L669:
 4411              	.LVL587:
 4412 00ce 07EB4402 		add	r2, r7, r4, lsl #1
 4413              	.LVL588:
 4414              	.L634:
 4415              		.loc 1 1853 0
 4416 00d2 32F8023D 		ldrh	r3, [r2, #-2]!
 4417              	.LVL589:
 4418              		.loc 1 1854 0
 4419 00d6 202B     		cmp	r3, #32
 4420 00d8 01D0     		beq	.L632
 4421 00da 2E2B     		cmp	r3, #46
 4422 00dc 02D1     		bne	.L633
 4423              	.L632:
 4424              	.LVL590:
 4425              		.loc 1 1852 0
 4426 00de 013C     		subs	r4, r4, #1
 4427              	.LVL591:
 4428 00e0 F7D1     		bne	.L634
 4429 00e2 D9E7     		b	.L624
 4430              	.L633:
 4431              		.loc 1 1862 0
 4432 00e4 D8F81830 		ldr	r3, [r8, #24]
 4433              	.LVL592:
 4434              		.loc 1 1859 0
 4435 00e8 0022     		movs	r2, #0
 4436              	.LVL593:
 4437 00ea 27F81420 		strh	r2, [r7, r4, lsl #1]	@ movhi
 4438 00ee 03F10B00 		add	r0, r3, #11
 4439 00f2 07EB4402 		add	r2, r7, r4, lsl #1
 4440              	.LBB397:
 4441              	.LBB398:
 4442              		.loc 1 583 0
 4443 00f6 2021     		movs	r1, #32
 4444              	.LVL594:
 4445              	.L635:
 4446 00f8 03F8011B 		strb	r1, [r3], #1
ARM GAS  C:\Users\Moi\AppData\Local\Temp\ccqw64Tg.s 			page 79


 4447              	.LVL595:
 4448              		.loc 1 582 0
 4449 00fc 9842     		cmp	r0, r3
 4450 00fe FBD1     		bne	.L635
 4451              	.LBE398:
 4452              	.LBE397:
 4453              		.loc 1 1863 0
 4454 0100 4FF00009 		mov	r9, #0
 4455 0104 01E0     		b	.L636
 4456              	.LVL596:
 4457              	.L637:
 4458 0106 09F10109 		add	r9, r9, #1
 4459              	.LVL597:
 4460              	.L636:
 4461 010a 36F8020F 		ldrh	r0, [r6, #2]!
 4462 010e 2028     		cmp	r0, #32
 4463 0110 F9D0     		beq	.L637
 4464 0112 2E28     		cmp	r0, #46
 4465 0114 F7D0     		beq	.L637
 4466              		.loc 1 1864 0
 4467 0116 B9F1000F 		cmp	r9, #0
 4468 011a 01D0     		beq	.L638
 4469 011c 4AF0030A 		orr	r10, r10, #3
 4470              	.LVL598:
 4471              	.L638:
 4472 0120 1346     		mov	r3, r2
 4473              	.LVL599:
 4474              	.L639:
 4475              		.loc 1 1865 0
 4476 0122 33F8022D 		ldrh	r2, [r3, #-2]!
 4477 0126 2E2A     		cmp	r2, #46
 4478 0128 01D0     		beq	.L640
 4479              	.LVL600:
 4480 012a 013C     		subs	r4, r4, #1
 4481              	.LVL601:
 4482 012c F9D1     		bne	.L639
 4483              	.L640:
 4484              		.loc 1 1913 0
 4485 012e 0023     		movs	r3, #0
 4486 0130 1E46     		mov	r6, r3
 4487 0132 0822     		movs	r2, #8
 4488              	.L641:
 4489              	.LVL602:
 4490              		.loc 1 1869 0
 4491 0134 09F10109 		add	r9, r9, #1
 4492              	.LVL603:
 4493              		.loc 1 1870 0
 4494 0138 40B3     		cbz	r0, .L643
 4495              		.loc 1 1871 0
 4496 013a 2028     		cmp	r0, #32
 4497 013c 7AD0     		beq	.L644
 4498 013e 2E28     		cmp	r0, #46
 4499 0140 7DD0     		beq	.L765
 4500              		.loc 1 1875 0
 4501 0142 9342     		cmp	r3, r2
 4502 0144 1AD2     		bcs	.L648
 4503 0146 4C45     		cmp	r4, r9
ARM GAS  C:\Users\Moi\AppData\Local\Temp\ccqw64Tg.s 			page 80


 4504 0148 7BD0     		beq	.L670
 4505              		.loc 1 1885 0
 4506 014a 7F28     		cmp	r0, #127
 4507 014c 00F28480 		bhi	.L766
 4508              	.LVL604:
 4509              	.L654:
 4510              	.LBB399:
 4511              	.LBB400:
 4512              		.loc 1 599 0
 4513 0150 2B28     		cmp	r0, #43
 4514 0152 00F09280 		beq	.L655
 4515 0156 DFF87CC1 		ldr	ip, .L768+12
 4516 015a 2C21     		movs	r1, #44
 4517              	.LVL605:
 4518              	.L656:
 4519 015c 8142     		cmp	r1, r0
 4520 015e 00F08C80 		beq	.L655
 4521 0162 1CF8011F 		ldrb	r1, [ip, #1]!	@ zero_extendqisi2
 4522              	.LVL606:
 4523 0166 0029     		cmp	r1, #0
 4524 0168 F8D1     		bne	.L656
 4525              	.LVL607:
 4526              	.LBE400:
 4527              	.LBE399:
 4528              		.loc 1 1904 0
 4529 016a A0F14101 		sub	r1, r0, #65
 4530 016e 1929     		cmp	r1, #25
 4531 0170 00F28F80 		bhi	.L767
 4532              		.loc 1 1905 0
 4533 0174 46F00206 		orr	r6, r6, #2
 4534              	.LVL608:
 4535 0178 C0B2     		uxtb	r0, r0
 4536 017a 81E0     		b	.L659
 4537              	.LVL609:
 4538              	.L648:
 4539              		.loc 1 1876 0
 4540 017c 0B2A     		cmp	r2, #11
 4541 017e 00F09480 		beq	.L671
 4542              		.loc 1 1879 0
 4543 0182 4C45     		cmp	r4, r9
 4544 0184 5FD0     		beq	.L653
 4545 0186 4AF0030A 		orr	r10, r10, #3
 4546              	.LVL610:
 4547              		.loc 1 1880 0
 4548 018a 5CD2     		bcs	.L653
 4549              	.L643:
 4550              		.loc 1 1916 0
 4551 018c D8F81830 		ldr	r3, [r8, #24]
 4552              	.LVL611:
 4553 0190 1978     		ldrb	r1, [r3]	@ zero_extendqisi2
 4554 0192 E529     		cmp	r1, #229
 4555 0194 03D1     		bne	.L661
 4556 0196 0521     		movs	r1, #5
 4557 0198 1970     		strb	r1, [r3]
 4558 019a D8F81830 		ldr	r3, [r8, #24]
 4559              	.L661:
 4560              		.loc 1 1918 0
ARM GAS  C:\Users\Moi\AppData\Local\Temp\ccqw64Tg.s 			page 81


 4561 019e 082A     		cmp	r2, #8
 4562 01a0 04BF     		itt	eq
 4563 01a2 B600     		lsleq	r6, r6, #2
 4564              	.LVL612:
 4565 01a4 F6B2     		uxtbeq	r6, r6
 4566              	.LVL613:
 4567              	.L652:
 4568 01a6 06F00C02 		and	r2, r6, #12
 4569              		.loc 1 1919 0
 4570 01aa 0C2A     		cmp	r2, #12
 4571 01ac 51D0     		beq	.L662
 4572 01ae 06F00306 		and	r6, r6, #3
 4573              	.LVL614:
 4574 01b2 032E     		cmp	r6, #3
 4575 01b4 4DD0     		beq	.L662
 4576              		.loc 1 1921 0
 4577 01b6 1AF0020F 		tst	r10, #2
 4578 01ba 07D1     		bne	.L664
 4579              		.loc 1 1922 0
 4580 01bc 012E     		cmp	r6, #1
 4581 01be 08BF     		it	eq
 4582 01c0 4AF0100A 		orreq	r10, r10, #16
 4583              	.LVL615:
 4584              		.loc 1 1923 0
 4585 01c4 042A     		cmp	r2, #4
 4586 01c6 08BF     		it	eq
 4587 01c8 4AF0080A 		orreq	r10, r10, #8
 4588              	.LVL616:
 4589              	.L664:
 4590              		.loc 1 1926 0
 4591 01cc 83F80BA0 		strb	r10, [r3, #11]
 4592              	.LVL617:
 4593              	.LBE401:
 4594              	.LBE404:
 4595              	.LBB405:
 4596              	.LBB406:
 4597              		.loc 1 1500 0
 4598 01d0 0021     		movs	r1, #0
 4599 01d2 4046     		mov	r0, r8
 4600 01d4 FFF7FEFF 		bl	dir_sdi
 4601              	.LVL618:
 4602              		.loc 1 1501 0
 4603 01d8 08BB     		cbnz	r0, .L666
 4604 01da 4046     		mov	r0, r8
 4605              	.LVL619:
 4606 01dc FFF7FEFF 		bl	dir_find.part.8
 4607              	.LVL620:
 4608              	.LBE406:
 4609              	.LBE405:
 4610              		.loc 1 2044 0
 4611 01e0 D8F81830 		ldr	r3, [r8, #24]
 4612 01e4 DB7A     		ldrb	r3, [r3, #11]	@ zero_extendqisi2
 4613              	.LVL621:
 4614              		.loc 1 2045 0
 4615 01e6 E8B9     		cbnz	r0, .L674
 4616              		.loc 1 2057 0
 4617 01e8 5907     		lsls	r1, r3, #29
ARM GAS  C:\Users\Moi\AppData\Local\Temp\ccqw64Tg.s 			page 82


 4618 01ea 3FF556AF 		bmi	.L621
 4619              		.loc 1 2058 0
 4620 01ee D8F81430 		ldr	r3, [r8, #20]
 4621              	.LVL622:
 4622              		.loc 1 2059 0
 4623 01f2 DA7A     		ldrb	r2, [r3, #11]	@ zero_extendqisi2
 4624 01f4 D206     		lsls	r2, r2, #27
 4625 01f6 56D5     		bpl	.L678
 4626              	.LVL623:
 4627              	.LBB407:
 4628              	.LBB408:
 4629              		.loc 1 1278 0
 4630 01f8 D8F80020 		ldr	r2, [r8]
 4631              		.loc 1 1277 0
 4632 01fc D87E     		ldrb	r0, [r3, #27]	@ zero_extendqisi2
 4633              		.loc 1 1278 0
 4634 01fe 1178     		ldrb	r1, [r2]	@ zero_extendqisi2
 4635              		.loc 1 1277 0
 4636 0200 9A7E     		ldrb	r2, [r3, #26]	@ zero_extendqisi2
 4637              		.loc 1 1278 0
 4638 0202 0329     		cmp	r1, #3
 4639              		.loc 1 1277 0
 4640 0204 42EA0022 		orr	r2, r2, r0, lsl #8
 4641              	.LVL624:
 4642              		.loc 1 1278 0
 4643 0208 05D1     		bne	.L668
 4644              		.loc 1 1279 0
 4645 020a 597D     		ldrb	r1, [r3, #21]	@ zero_extendqisi2
 4646 020c 1B7D     		ldrb	r3, [r3, #20]	@ zero_extendqisi2
 4647              	.LVL625:
 4648 020e 43EA0123 		orr	r3, r3, r1, lsl #8
 4649 0212 42EA0342 		orr	r2, r2, r3, lsl #16
 4650              	.LVL626:
 4651              	.L668:
 4652              	.LBE408:
 4653              	.LBE407:
 4654              		.loc 1 2062 0
 4655 0216 C8F80820 		str	r2, [r8, #8]
 4656              	.LVL627:
 4657 021a 2878     		ldrb	r0, [r5]	@ zero_extendqisi2
 4658              	.LVL628:
 4659              		.loc 1 2041 0
 4660 021c 08E7     		b	.L622
 4661              	.LVL629:
 4662              	.L666:
 4663              		.loc 1 2044 0
 4664 021e D8F81830 		ldr	r3, [r8, #24]
 4665 0222 DB7A     		ldrb	r3, [r3, #11]	@ zero_extendqisi2
 4666              	.LVL630:
 4667              	.L674:
 4668              		.loc 1 2046 0
 4669 0224 0428     		cmp	r0, #4
 4670 0226 7FF438AF 		bne	.L621
 4671              		.loc 1 2052 0
 4672 022a 13F0040F 		tst	r3, #4
 4673 022e 08BF     		it	eq
 4674 0230 0520     		moveq	r0, #5
ARM GAS  C:\Users\Moi\AppData\Local\Temp\ccqw64Tg.s 			page 83


 4675 0232 32E7     		b	.L621
 4676              	.LVL631:
 4677              	.L644:
 4678              	.LBB409:
 4679              	.LBB402:
 4680              		.loc 1 1872 0
 4681 0234 4AF0030A 		orr	r10, r10, #3
 4682              	.LVL632:
 4683              	.L647:
 4684 0238 37F81900 		ldrh	r0, [r7, r9, lsl #1]
 4685 023c 7AE7     		b	.L641
 4686              	.LVL633:
 4687              	.L765:
 4688              		.loc 1 1871 0
 4689 023e 4C45     		cmp	r4, r9
 4690 0240 F8D1     		bne	.L644
 4691              	.L670:
 4692              		.loc 1 1876 0
 4693 0242 0B2A     		cmp	r2, #11
 4694 0244 31D0     		beq	.L671
 4695              	.L653:
 4696              	.LVL634:
 4697              		.loc 1 1882 0
 4698 0246 B600     		lsls	r6, r6, #2
 4699              	.LVL635:
 4700 0248 F6B2     		uxtb	r6, r6
 4701              	.LVL636:
 4702 024a A146     		mov	r9, r4
 4703              		.loc 1 1881 0
 4704 024c 0B22     		movs	r2, #11
 4705 024e 0823     		movs	r3, #8
 4706 0250 F2E7     		b	.L647
 4707              	.LVL637:
 4708              	.L662:
 4709              		.loc 1 1920 0
 4710 0252 4AF0020A 		orr	r10, r10, #2
 4711              	.LVL638:
 4712 0256 B9E7     		b	.L664
 4713              	.LVL639:
 4714              	.L766:
 4715              		.loc 1 1887 0
 4716 0258 0021     		movs	r1, #0
 4717 025a CDE90032 		strd	r3, r2, [sp]
 4718 025e FFF7FEFF 		bl	ff_convert
 4719              	.LVL640:
 4720 0262 4AF0020A 		orr	r10, r10, #2
 4721              	.LVL641:
 4722              		.loc 1 1888 0
 4723 0266 DDE90032 		ldrd	r3, r2, [sp]
 4724 026a 30B1     		cbz	r0, .L655
 4725 026c 1749     		ldr	r1, .L768+4
 4726 026e 0844     		add	r0, r0, r1
 4727              	.LVL642:
 4728 0270 10F8800C 		ldrb	r0, [r0, #-128]	@ zero_extendqisi2
 4729              	.LVL643:
 4730              		.loc 1 1901 0
 4731 0274 0028     		cmp	r0, #0
ARM GAS  C:\Users\Moi\AppData\Local\Temp\ccqw64Tg.s 			page 84


 4732 0276 7FF46BAF 		bne	.L654
 4733              	.LVL644:
 4734              	.L655:
 4735              		.loc 1 1902 0
 4736 027a 4AF0030A 		orr	r10, r10, #3
 4737              	.LVL645:
 4738 027e 5F20     		movs	r0, #95
 4739              	.LVL646:
 4740              	.L659:
 4741              		.loc 1 1913 0
 4742 0280 D8F81810 		ldr	r1, [r8, #24]
 4743 0284 C854     		strb	r0, [r1, r3]
 4744 0286 0133     		adds	r3, r3, #1
 4745              	.LVL647:
 4746 0288 D6E7     		b	.L647
 4747              	.LVL648:
 4748              	.L763:
 4749              		.loc 1 1840 0
 4750 028a 1D44     		add	r5, r5, r3
 4751              	.LVL649:
 4752              		.loc 1 1841 0
 4753 028c 4FF0040A 		mov	r10, #4
 4754 0290 1DE7     		b	.L669
 4755              	.LVL650:
 4756              	.L767:
 4757              		.loc 1 1907 0
 4758 0292 A0F16101 		sub	r1, r0, #97
 4759 0296 1929     		cmp	r1, #25
 4760              		.loc 1 1908 0
 4761 0298 97BF     		itett	ls
 4762 029a 2038     		subls	r0, r0, #32
 4763 029c C0B2     		uxtbhi	r0, r0
 4764 029e C0B2     		uxtbls	r0, r0
 4765 02a0 46F00106 		orrls	r6, r6, #1
 4766              	.LVL651:
 4767 02a4 ECE7     		b	.L659
 4768              	.LVL652:
 4769              	.L678:
 4770              	.LBE402:
 4771              	.LBE409:
 4772              		.loc 1 2060 0
 4773 02a6 0520     		movs	r0, #5
 4774 02a8 F7E6     		b	.L621
 4775              	.LVL653:
 4776              	.L671:
 4777              	.LBB410:
 4778              	.LBB403:
 4779              		.loc 1 1916 0
 4780 02aa D8F81830 		ldr	r3, [r8, #24]
 4781              	.LVL654:
 4782 02ae 1A78     		ldrb	r2, [r3]	@ zero_extendqisi2
 4783              	.LVL655:
 4784 02b0 E52A     		cmp	r2, #229
 4785              		.loc 1 1877 0
 4786 02b2 4AF0030A 		orr	r10, r10, #3
 4787              	.LVL656:
 4788              		.loc 1 1916 0
ARM GAS  C:\Users\Moi\AppData\Local\Temp\ccqw64Tg.s 			page 85


 4789 02b6 7FF476AF 		bne	.L652
 4790 02ba 0522     		movs	r2, #5
 4791 02bc 1A70     		strb	r2, [r3]
 4792 02be D8F81830 		ldr	r3, [r8, #24]
 4793 02c2 70E7     		b	.L652
 4794              	.LVL657:
 4795              	.L764:
 4796              	.LBE403:
 4797              	.LBE410:
 4798              		.loc 1 2067 0
 4799 02c4 FFF7FEFF 		bl	__stack_chk_fail
 4800              	.LVL658:
 4801              	.L769:
 4802              		.align	2
 4803              	.L768:
 4804 02c8 01000000 		.word	.LC0+1
 4805 02cc 00000000 		.word	.LANCHOR3
 4806 02d0 00000000 		.word	__stack_chk_guard
 4807 02d4 01000000 		.word	.LC1+1
 4808              		.cfi_endproc
 4809              	.LFE248:
 4810              		.size	follow_path, .-follow_path
 4811              		.section	.text.clust2sect,"ax",%progbits
 4812              		.align	1
 4813              		.p2align 4,,15
 4814              		.global	clust2sect
 4815              		.syntax unified
 4816              		.thumb
 4817              		.thumb_func
 4818              		.fpu fpv4-sp-d16
 4819              		.type	clust2sect, %function
 4820              	clust2sect:
 4821              	.LFB226:
 4822              		.loc 1 851 0
 4823              		.cfi_startproc
 4824              		@ args = 0, pretend = 0, frame = 8
 4825              		@ frame_needed = 0, uses_anonymous_args = 0
 4826              	.LVL659:
 4827 0000 10B5     		push	{r4, lr}
 4828              		.cfi_def_cfa_offset 8
 4829              		.cfi_offset 4, -8
 4830              		.cfi_offset 14, -4
 4831              		.loc 1 853 0
 4832 0002 4369     		ldr	r3, [r0, #20]
 4833              		.loc 1 851 0
 4834 0004 0B4A     		ldr	r2, .L776
 4835              		.loc 1 853 0
 4836 0006 023B     		subs	r3, r3, #2
 4837              		.loc 1 852 0
 4838 0008 0239     		subs	r1, r1, #2
 4839              	.LVL660:
 4840              		.loc 1 853 0
 4841 000a 8B42     		cmp	r3, r1
 4842              		.loc 1 851 0
 4843 000c 82B0     		sub	sp, sp, #8
 4844              		.cfi_def_cfa_offset 16
 4845              		.loc 1 854 0
ARM GAS  C:\Users\Moi\AppData\Local\Temp\ccqw64Tg.s 			page 86


 4846 000e 88BF     		it	hi
 4847 0010 8378     		ldrbhi	r3, [r0, #2]	@ zero_extendqisi2
 4848              		.loc 1 851 0
 4849 0012 1468     		ldr	r4, [r2]
 4850              		.loc 1 854 0
 4851 0014 88BF     		it	hi
 4852 0016 806A     		ldrhi	r0, [r0, #40]
 4853              	.LVL661:
 4854              		.loc 1 851 0
 4855 0018 0194     		str	r4, [sp, #4]
 4856              		.loc 1 854 0
 4857 001a 88BF     		it	hi
 4858 001c 01FB0300 		mlahi	r0, r1, r3, r0
 4859              		.loc 1 855 0
 4860 0020 0199     		ldr	r1, [sp, #4]
 4861              	.LVL662:
 4862 0022 1368     		ldr	r3, [r2]
 4863              		.loc 1 853 0
 4864 0024 98BF     		it	ls
 4865 0026 0020     		movls	r0, #0
 4866              		.loc 1 855 0
 4867 0028 9942     		cmp	r1, r3
 4868 002a 01D1     		bne	.L775
 4869 002c 02B0     		add	sp, sp, #8
 4870              		.cfi_remember_state
 4871              		.cfi_def_cfa_offset 8
 4872              		@ sp needed
 4873 002e 10BD     		pop	{r4, pc}
 4874              	.L775:
 4875              		.cfi_restore_state
 4876 0030 FFF7FEFF 		bl	__stack_chk_fail
 4877              	.LVL663:
 4878              	.L777:
 4879              		.align	2
 4880              	.L776:
 4881 0034 00000000 		.word	__stack_chk_guard
 4882              		.cfi_endproc
 4883              	.LFE226:
 4884              		.size	clust2sect, .-clust2sect
 4885              		.section	.text.get_fat,"ax",%progbits
 4886              		.align	1
 4887              		.p2align 4,,15
 4888              		.global	get_fat
 4889              		.syntax unified
 4890              		.thumb
 4891              		.thumb_func
 4892              		.fpu fpv4-sp-d16
 4893              		.type	get_fat, %function
 4894              	get_fat:
 4895              	.LFB227:
 4896              		.loc 1 869 0
 4897              		.cfi_startproc
 4898              		@ args = 0, pretend = 0, frame = 8
 4899              		@ frame_needed = 0, uses_anonymous_args = 0
 4900              	.LVL664:
 4901 0000 10B5     		push	{r4, lr}
 4902              		.cfi_def_cfa_offset 8
ARM GAS  C:\Users\Moi\AppData\Local\Temp\ccqw64Tg.s 			page 87


 4903              		.cfi_offset 4, -8
 4904              		.cfi_offset 14, -4
 4905 0002 0E4B     		ldr	r3, .L786
 4906 0004 82B0     		sub	sp, sp, #8
 4907              		.cfi_def_cfa_offset 16
 4908              		.loc 1 869 0
 4909 0006 1C68     		ldr	r4, [r3]
 4910 0008 0194     		str	r4, [sp, #4]
 4911              		.loc 1 874 0
 4912 000a 0129     		cmp	r1, #1
 4913 000c 0BD9     		bls	.L778
 4914              		.loc 1 874 0 is_stmt 0 discriminator 1
 4915 000e 4469     		ldr	r4, [r0, #20]
 4916 0010 8C42     		cmp	r4, r1
 4917 0012 08D9     		bls	.L778
 4918 0014 019A     		ldr	r2, [sp, #4]
 4919 0016 1B68     		ldr	r3, [r3]
 4920 0018 9A42     		cmp	r2, r3
 4921 001a 0CD1     		bne	.L785
 4922              		.loc 1 901 0 is_stmt 1
 4923 001c 02B0     		add	sp, sp, #8
 4924              		.cfi_remember_state
 4925              		.cfi_def_cfa_offset 8
 4926              		@ sp needed
 4927 001e BDE81040 		pop	{r4, lr}
 4928              		.cfi_restore 14
 4929              		.cfi_restore 4
 4930              		.cfi_def_cfa_offset 0
 4931 0022 FFF7FEBF 		b	get_fat.part.6
 4932              	.LVL665:
 4933              	.L778:
 4934              		.cfi_restore_state
 4935 0026 019A     		ldr	r2, [sp, #4]
 4936 0028 1B68     		ldr	r3, [r3]
 4937 002a 9A42     		cmp	r2, r3
 4938 002c 4FF00100 		mov	r0, #1
 4939              	.LVL666:
 4940 0030 01D1     		bne	.L785
 4941 0032 02B0     		add	sp, sp, #8
 4942              		.cfi_remember_state
 4943              		.cfi_def_cfa_offset 8
 4944              		@ sp needed
 4945 0034 10BD     		pop	{r4, pc}
 4946              	.L785:
 4947              		.cfi_restore_state
 4948 0036 FFF7FEFF 		bl	__stack_chk_fail
 4949              	.LVL667:
 4950              	.L787:
 4951 003a 00BF     		.align	2
 4952              	.L786:
 4953 003c 00000000 		.word	__stack_chk_guard
 4954              		.cfi_endproc
 4955              	.LFE227:
 4956              		.size	get_fat, .-get_fat
 4957              		.section	.text.put_fat,"ax",%progbits
 4958              		.align	1
 4959              		.p2align 4,,15
ARM GAS  C:\Users\Moi\AppData\Local\Temp\ccqw64Tg.s 			page 88


 4960              		.global	put_fat
 4961              		.syntax unified
 4962              		.thumb
 4963              		.thumb_func
 4964              		.fpu fpv4-sp-d16
 4965              		.type	put_fat, %function
 4966              	put_fat:
 4967              	.LFB228:
 4968              		.loc 1 916 0
 4969              		.cfi_startproc
 4970              		@ args = 0, pretend = 0, frame = 8
 4971              		@ frame_needed = 0, uses_anonymous_args = 0
 4972              	.LVL668:
 4973 0000 30B5     		push	{r4, r5, lr}
 4974              		.cfi_def_cfa_offset 12
 4975              		.cfi_offset 4, -12
 4976              		.cfi_offset 5, -8
 4977              		.cfi_offset 14, -4
 4978 0002 0E4B     		ldr	r3, .L796
 4979 0004 83B0     		sub	sp, sp, #12
 4980              		.cfi_def_cfa_offset 24
 4981              		.loc 1 916 0
 4982 0006 1D68     		ldr	r5, [r3]
 4983 0008 0195     		str	r5, [sp, #4]
 4984              		.loc 1 922 0
 4985 000a 0129     		cmp	r1, #1
 4986 000c 0BD9     		bls	.L789
 4987              		.loc 1 922 0 is_stmt 0 discriminator 1
 4988 000e 4569     		ldr	r5, [r0, #20]
 4989 0010 8D42     		cmp	r5, r1
 4990 0012 08D9     		bls	.L789
 4991 0014 019C     		ldr	r4, [sp, #4]
 4992 0016 1B68     		ldr	r3, [r3]
 4993 0018 9C42     		cmp	r4, r3
 4994 001a 0CD1     		bne	.L795
 4995              		.loc 1 963 0 is_stmt 1
 4996 001c 03B0     		add	sp, sp, #12
 4997              		.cfi_remember_state
 4998              		.cfi_def_cfa_offset 12
 4999              		@ sp needed
 5000 001e BDE83040 		pop	{r4, r5, lr}
 5001              		.cfi_restore 14
 5002              		.cfi_restore 5
 5003              		.cfi_restore 4
 5004              		.cfi_def_cfa_offset 0
 5005 0022 FFF7FEBF 		b	put_fat.part.7
 5006              	.LVL669:
 5007              	.L789:
 5008              		.cfi_restore_state
 5009 0026 019A     		ldr	r2, [sp, #4]
 5010              	.LVL670:
 5011 0028 1B68     		ldr	r3, [r3]
 5012 002a 9A42     		cmp	r2, r3
 5013 002c 4FF00200 		mov	r0, #2
 5014              	.LVL671:
 5015 0030 01D1     		bne	.L795
 5016 0032 03B0     		add	sp, sp, #12
ARM GAS  C:\Users\Moi\AppData\Local\Temp\ccqw64Tg.s 			page 89


 5017              		.cfi_remember_state
 5018              		.cfi_def_cfa_offset 12
 5019              		@ sp needed
 5020 0034 30BD     		pop	{r4, r5, pc}
 5021              	.L795:
 5022              		.cfi_restore_state
 5023 0036 FFF7FEFF 		bl	__stack_chk_fail
 5024              	.LVL672:
 5025              	.L797:
 5026 003a 00BF     		.align	2
 5027              	.L796:
 5028 003c 00000000 		.word	__stack_chk_guard
 5029              		.cfi_endproc
 5030              	.LFE228:
 5031              		.size	put_fat, .-put_fat
 5032              		.section	.text.f_mount,"ax",%progbits
 5033              		.align	1
 5034              		.p2align 4,,15
 5035              		.global	f_mount
 5036              		.syntax unified
 5037              		.thumb
 5038              		.thumb_func
 5039              		.fpu fpv4-sp-d16
 5040              		.type	f_mount, %function
 5041              	f_mount:
 5042              	.LFB253:
 5043              		.loc 1 2373 0
 5044              		.cfi_startproc
 5045              		@ args = 0, pretend = 0, frame = 16
 5046              		@ frame_needed = 0, uses_anonymous_args = 0
 5047              	.LVL673:
 5048 0000 70B5     		push	{r4, r5, r6, lr}
 5049              		.cfi_def_cfa_offset 16
 5050              		.cfi_offset 4, -16
 5051              		.cfi_offset 5, -12
 5052              		.cfi_offset 6, -8
 5053              		.cfi_offset 14, -4
 5054 0002 84B0     		sub	sp, sp, #16
 5055              		.cfi_def_cfa_offset 32
 5056              		.loc 1 2377 0
 5057 0004 04AB     		add	r3, sp, #16
 5058              		.loc 1 2373 0
 5059 0006 174C     		ldr	r4, .L812
 5060              		.loc 1 2377 0
 5061 0008 43F8081D 		str	r1, [r3, #-8]!
 5062              		.loc 1 2373 0
 5063 000c 0190     		str	r0, [sp, #4]
 5064 000e 2568     		ldr	r5, [r4]
 5065 0010 0091     		str	r1, [sp]
 5066              		.loc 1 2380 0
 5067 0012 1846     		mov	r0, r3
 5068              	.LVL674:
 5069              		.loc 1 2373 0
 5070 0014 1646     		mov	r6, r2
 5071 0016 0395     		str	r5, [sp, #12]
 5072              		.loc 1 2380 0
 5073 0018 FFF7FEFF 		bl	get_ldnumber
ARM GAS  C:\Users\Moi\AppData\Local\Temp\ccqw64Tg.s 			page 90


 5074              	.LVL675:
 5075              		.loc 1 2381 0
 5076 001c 031E     		subs	r3, r0, #0
 5077 001e 17DB     		blt	.L803
 5078              		.loc 1 2382 0
 5079 0020 1149     		ldr	r1, .L812+4
 5080 0022 51F82320 		ldr	r2, [r1, r3, lsl #2]
 5081              	.LVL676:
 5082              		.loc 1 2384 0
 5083 0026 0AB1     		cbz	r2, .L800
 5084              		.loc 1 2391 0
 5085 0028 0020     		movs	r0, #0
 5086              	.LVL677:
 5087 002a 1070     		strb	r0, [r2]
 5088              	.L800:
 5089              		.loc 1 2394 0
 5090 002c 019A     		ldr	r2, [sp, #4]
 5091              	.LVL678:
 5092 002e 5AB1     		cbz	r2, .L801
 5093              		.loc 1 2395 0
 5094 0030 0020     		movs	r0, #0
 5095              		.loc 1 2402 0
 5096 0032 012E     		cmp	r6, #1
 5097              		.loc 1 2395 0
 5098 0034 1070     		strb	r0, [r2]
 5099              		.loc 1 2400 0
 5100 0036 41F82320 		str	r2, [r1, r3, lsl #2]
 5101              		.loc 1 2402 0
 5102 003a 0BD0     		beq	.L810
 5103              	.LVL679:
 5104              	.L799:
 5105              		.loc 1 2406 0
 5106 003c 039A     		ldr	r2, [sp, #12]
 5107 003e 2368     		ldr	r3, [r4]
 5108 0040 9A42     		cmp	r2, r3
 5109 0042 0DD1     		bne	.L811
 5110 0044 04B0     		add	sp, sp, #16
 5111              		.cfi_remember_state
 5112              		.cfi_def_cfa_offset 16
 5113              		@ sp needed
 5114 0046 70BD     		pop	{r4, r5, r6, pc}
 5115              	.LVL680:
 5116              	.L801:
 5117              		.cfi_restore_state
 5118              		.loc 1 2400 0
 5119 0048 41F82320 		str	r2, [r1, r3, lsl #2]
 5120              		.loc 1 2402 0
 5121 004c 1046     		mov	r0, r2
 5122 004e F5E7     		b	.L799
 5123              	.LVL681:
 5124              	.L803:
 5125              		.loc 1 2381 0
 5126 0050 0B20     		movs	r0, #11
 5127              	.LVL682:
 5128 0052 F3E7     		b	.L799
 5129              	.L810:
 5130              		.loc 1 2404 0
ARM GAS  C:\Users\Moi\AppData\Local\Temp\ccqw64Tg.s 			page 91


 5131 0054 0246     		mov	r2, r0
 5132 0056 6946     		mov	r1, sp
 5133 0058 01A8     		add	r0, sp, #4
 5134 005a FFF7FEFF 		bl	find_volume
 5135              	.LVL683:
 5136              		.loc 1 2405 0
 5137 005e EDE7     		b	.L799
 5138              	.LVL684:
 5139              	.L811:
 5140              		.loc 1 2406 0
 5141 0060 FFF7FEFF 		bl	__stack_chk_fail
 5142              	.LVL685:
 5143              	.L813:
 5144              		.align	2
 5145              	.L812:
 5146 0064 00000000 		.word	__stack_chk_guard
 5147 0068 00000000 		.word	.LANCHOR0
 5148              		.cfi_endproc
 5149              	.LFE253:
 5150              		.size	f_mount, .-f_mount
 5151              		.section	.text.f_open,"ax",%progbits
 5152              		.align	1
 5153              		.p2align 4,,15
 5154              		.global	f_open
 5155              		.syntax unified
 5156              		.thumb
 5157              		.thumb_func
 5158              		.fpu fpv4-sp-d16
 5159              		.type	f_open, %function
 5160              	f_open:
 5161              	.LFB254:
 5162              		.loc 1 2420 0
 5163              		.cfi_startproc
 5164              		@ args = 0, pretend = 0, frame = 576
 5165              		@ frame_needed = 0, uses_anonymous_args = 0
 5166              	.LVL686:
 5167 0000 2DE9F043 		push	{r4, r5, r6, r7, r8, r9, lr}
 5168              		.cfi_def_cfa_offset 28
 5169              		.cfi_offset 4, -28
 5170              		.cfi_offset 5, -24
 5171              		.cfi_offset 6, -20
 5172              		.cfi_offset 7, -16
 5173              		.cfi_offset 8, -12
 5174              		.cfi_offset 9, -8
 5175              		.cfi_offset 14, -4
 5176 0004 604D     		ldr	r5, .L864
 5177 0006 ADF5117D 		sub	sp, sp, #580
 5178              		.cfi_def_cfa_offset 608
 5179              		.loc 1 2420 0
 5180 000a 2B68     		ldr	r3, [r5]
 5181 000c 8F93     		str	r3, [sp, #572]
 5182 000e 0191     		str	r1, [sp, #4]
 5183              		.loc 1 2427 0
 5184 0010 70B3     		cbz	r0, .L831
 5185              		.loc 1 2428 0
 5186 0012 0023     		movs	r3, #0
 5187 0014 0360     		str	r3, [r0]
ARM GAS  C:\Users\Moi\AppData\Local\Temp\ccqw64Tg.s 			page 92


 5188              	.LVL687:
 5189 0016 1746     		mov	r7, r2
 5190 0018 0446     		mov	r4, r0
 5191              		.loc 1 2433 0
 5192 001a 02F01E02 		and	r2, r2, #30
 5193              	.LVL688:
 5194 001e 03A8     		add	r0, sp, #12
 5195              	.LVL689:
 5196 0020 01A9     		add	r1, sp, #4
 5197              	.LVL690:
 5198 0022 FFF7FEFF 		bl	find_volume
 5199              	.LVL691:
 5200              		.loc 1 2438 0
 5201 0026 0646     		mov	r6, r0
 5202 0028 48B1     		cbz	r0, .L859
 5203              	.LVL692:
 5204              	.L815:
 5205              		.loc 1 2541 0
 5206 002a 8F9A     		ldr	r2, [sp, #572]
 5207 002c 2B68     		ldr	r3, [r5]
 5208 002e 9A42     		cmp	r2, r3
 5209 0030 3046     		mov	r0, r6
 5210 0032 40F0A780 		bne	.L860
 5211 0036 0DF5117D 		add	sp, sp, #580
 5212              		.cfi_remember_state
 5213              		.cfi_def_cfa_offset 28
 5214              		@ sp needed
 5215 003a BDE8F083 		pop	{r4, r5, r6, r7, r8, r9, pc}
 5216              	.LVL693:
 5217              	.L859:
 5218              		.cfi_restore_state
 5219              		.loc 1 2439 0
 5220 003e 8CAA     		add	r2, sp, #560
 5221 0040 0CAB     		add	r3, sp, #48
 5222              		.loc 1 2440 0
 5223 0042 0199     		ldr	r1, [sp, #4]
 5224 0044 03A8     		add	r0, sp, #12
 5225              	.LVL694:
 5226              		.loc 1 2439 0
 5227 0046 CDE90923 		strd	r2, r3, [sp, #36]
 5228              		.loc 1 2440 0
 5229 004a FFF7FEFF 		bl	follow_path
 5230              	.LVL695:
 5231              		.loc 1 2432 0
 5232 004e 07F01F08 		and	r8, r7, #31
 5233 0052 07F01C02 		and	r2, r7, #28
 5234              		.loc 1 2443 0
 5235 0056 68B9     		cbnz	r0, .L816
 5236              		.loc 1 2441 0
 5237 0058 089B     		ldr	r3, [sp, #32]
 5238              		.loc 1 2444 0
 5239 005a 002B     		cmp	r3, #0
 5240 005c 7BD0     		beq	.L832
 5241              	.LVL696:
 5242 005e D97A     		ldrb	r1, [r3, #11]	@ zero_extendqisi2
 5243              		.loc 1 2452 0
 5244 0060 6AB1     		cbz	r2, .L861
ARM GAS  C:\Users\Moi\AppData\Local\Temp\ccqw64Tg.s 			page 93


 5245              	.LBB411:
 5246              		.loc 1 2466 0
 5247 0062 11F0110F 		tst	r1, #17
 5248 0066 10D1     		bne	.L839
 5249              		.loc 1 2469 0
 5250 0068 7807     		lsls	r0, r7, #29
 5251 006a 70D5     		bpl	.L862
 5252              		.loc 1 2470 0
 5253 006c 0826     		movs	r6, #8
 5254 006e DCE7     		b	.L815
 5255              	.LVL697:
 5256              	.L831:
 5257              	.LBE411:
 5258              		.loc 1 2427 0
 5259 0070 0926     		movs	r6, #9
 5260 0072 DAE7     		b	.L815
 5261              	.LVL698:
 5262              	.L816:
 5263              		.loc 1 2452 0
 5264 0074 0AB1     		cbz	r2, .L858
 5265              	.LBB424:
 5266              		.loc 1 2456 0
 5267 0076 0428     		cmp	r0, #4
 5268 0078 0BD0     		beq	.L826
 5269              	.LVL699:
 5270              	.L858:
 5271 007a 0646     		mov	r6, r0
 5272 007c D5E7     		b	.L815
 5273              	.LVL700:
 5274              	.L861:
 5275              	.LBE424:
 5276              		.loc 1 2493 0
 5277 007e CA06     		lsls	r2, r1, #27
 5278 0080 05D4     		bmi	.L840
 5279              		.loc 1 2496 0
 5280 0082 BA07     		lsls	r2, r7, #30
 5281 0084 3FD5     		bpl	.L824
 5282              		.loc 1 2496 0 is_stmt 0 discriminator 1
 5283 0086 C807     		lsls	r0, r1, #31
 5284 0088 3DD5     		bpl	.L824
 5285              	.L839:
 5286              		.loc 1 2497 0 is_stmt 1
 5287 008a 0726     		movs	r6, #7
 5288 008c CDE7     		b	.L815
 5289              	.L840:
 5290              		.loc 1 2494 0
 5291 008e 0426     		movs	r6, #4
 5292 0090 CBE7     		b	.L815
 5293              	.LVL701:
 5294              	.L826:
 5295              	.LBB425:
 5296              		.loc 1 2460 0
 5297 0092 03A8     		add	r0, sp, #12
 5298              	.LVL702:
 5299 0094 FFF7FEFF 		bl	dir_register
 5300              	.LVL703:
 5301              		.loc 1 2462 0
ARM GAS  C:\Users\Moi\AppData\Local\Temp\ccqw64Tg.s 			page 94


 5302 0098 48F00808 		orr	r8, r8, #8
 5303              	.LVL704:
 5304              		.loc 1 2463 0
 5305 009c 089B     		ldr	r3, [sp, #32]
 5306              	.LVL705:
 5307              		.loc 1 2473 0
 5308 009e 0028     		cmp	r0, #0
 5309 00a0 EBD1     		bne	.L858
 5310              	.LVL706:
 5311              	.L820:
 5312 00a2 0093     		str	r3, [sp]
 5313              		.loc 1 2474 0
 5314 00a4 FFF7FEFF 		bl	get_fattime
 5315              	.LVL707:
 5316              		.loc 1 2475 0
 5317 00a8 009B     		ldr	r3, [sp]
 5318              		.loc 1 2478 0
 5319 00aa 039A     		ldr	r2, [sp, #12]
 5320              	.LVL708:
 5321              		.loc 1 2475 0
 5322 00ac 9873     		strb	r0, [r3, #14]
 5323              		.loc 1 2476 0
 5324 00ae 0021     		movs	r1, #0
 5325              		.loc 1 2475 0
 5326 00b0 070E     		lsrs	r7, r0, #24
 5327 00b2 C0F3072E 		ubfx	lr, r0, #8, #8
 5328 00b6 4FEA104C 		lsr	ip, r0, #16
 5329 00ba 5F74     		strb	r7, [r3, #17]
 5330 00bc 83F80FE0 		strb	lr, [r3, #15]
 5331 00c0 83F810C0 		strb	ip, [r3, #16]
 5332              		.loc 1 2476 0
 5333 00c4 D972     		strb	r1, [r3, #11]
 5334              		.loc 1 2477 0
 5335 00c6 1977     		strb	r1, [r3, #28]
 5336 00c8 5977     		strb	r1, [r3, #29]
 5337 00ca 9977     		strb	r1, [r3, #30]
 5338 00cc D977     		strb	r1, [r3, #31]
 5339              	.LBB412:
 5340              	.LBB413:
 5341              		.loc 1 1278 0
 5342 00ce 1178     		ldrb	r1, [r2]	@ zero_extendqisi2
 5343              		.loc 1 1277 0
 5344 00d0 D87E     		ldrb	r0, [r3, #27]	@ zero_extendqisi2
 5345              	.LVL709:
 5346 00d2 9F7E     		ldrb	r7, [r3, #26]	@ zero_extendqisi2
 5347              		.loc 1 1278 0
 5348 00d4 0329     		cmp	r1, #3
 5349              		.loc 1 1277 0
 5350 00d6 47EA0027 		orr	r7, r7, r0, lsl #8
 5351              	.LVL710:
 5352              		.loc 1 1278 0
 5353 00da 05D1     		bne	.L822
 5354              		.loc 1 1279 0
 5355 00dc 587D     		ldrb	r0, [r3, #21]	@ zero_extendqisi2
 5356 00de 197D     		ldrb	r1, [r3, #20]	@ zero_extendqisi2
 5357 00e0 41EA0021 		orr	r1, r1, r0, lsl #8
 5358 00e4 47EA0147 		orr	r7, r7, r1, lsl #16
ARM GAS  C:\Users\Moi\AppData\Local\Temp\ccqw64Tg.s 			page 95


 5359              	.LVL711:
 5360              	.L822:
 5361              	.LBE413:
 5362              	.LBE412:
 5363              	.LBB414:
 5364              	.LBB415:
 5365              		.loc 1 1292 0
 5366 00e8 0021     		movs	r1, #0
 5367              	.LBE415:
 5368              	.LBE414:
 5369              		.loc 1 2480 0
 5370 00ea 0120     		movs	r0, #1
 5371              	.LBB417:
 5372              	.LBB416:
 5373              		.loc 1 1292 0
 5374 00ec 9976     		strb	r1, [r3, #26]
 5375 00ee D976     		strb	r1, [r3, #27]
 5376              		.loc 1 1293 0
 5377 00f0 1975     		strb	r1, [r3, #20]
 5378 00f2 5975     		strb	r1, [r3, #21]
 5379              	.LVL712:
 5380              	.LBE416:
 5381              	.LBE417:
 5382              		.loc 1 2480 0
 5383 00f4 1071     		strb	r0, [r2, #4]
 5384              		.loc 1 2481 0
 5385 00f6 4FB1     		cbz	r7, .L829
 5386              	.LVL713:
 5387              	.LBB418:
 5388              	.LBB419:
 5389              		.loc 1 985 0
 5390 00f8 8742     		cmp	r7, r0
 5391 00fa 02D0     		beq	.L835
 5392 00fc 5169     		ldr	r1, [r2, #20]
 5393 00fe 8F42     		cmp	r7, r1
 5394 0100 2BD3     		bcc	.L863
 5395              	.L835:
 5396              		.loc 1 986 0
 5397 0102 0226     		movs	r6, #2
 5398 0104 91E7     		b	.L815
 5399              	.LVL714:
 5400              	.L824:
 5401              	.LBE419:
 5402              	.LBE418:
 5403              	.LBE425:
 5404              		.loc 1 2502 0
 5405 0106 3907     		lsls	r1, r7, #28
 5406 0108 039A     		ldr	r2, [sp, #12]
 5407 010a 01D5     		bpl	.L821
 5408              	.LVL715:
 5409              	.L829:
 5410              		.loc 1 2503 0
 5411 010c 48F02008 		orr	r8, r8, #32
 5412              	.LVL716:
 5413              	.L821:
 5414              		.loc 1 2504 0
 5415 0110 D16A     		ldr	r1, [r2, #44]
ARM GAS  C:\Users\Moi\AppData\Local\Temp\ccqw64Tg.s 			page 96


 5416 0112 E161     		str	r1, [r4, #28]
 5417              		.loc 1 2527 0
 5418 0114 0021     		movs	r1, #0
 5419              		.loc 1 2505 0
 5420 0116 2362     		str	r3, [r4, #32]
 5421              		.loc 1 2526 0
 5422 0118 84F80680 		strb	r8, [r4, #6]
 5423              		.loc 1 2527 0
 5424 011c E171     		strb	r1, [r4, #7]
 5425              	.LVL717:
 5426              	.LBB426:
 5427              	.LBB427:
 5428              		.loc 1 1278 0
 5429 011e 1078     		ldrb	r0, [r2]	@ zero_extendqisi2
 5430              		.loc 1 1277 0
 5431 0120 DF7E     		ldrb	r7, [r3, #27]	@ zero_extendqisi2
 5432 0122 997E     		ldrb	r1, [r3, #26]	@ zero_extendqisi2
 5433              		.loc 1 1278 0
 5434 0124 0328     		cmp	r0, #3
 5435              		.loc 1 1277 0
 5436 0126 41EA0721 		orr	r1, r1, r7, lsl #8
 5437              	.LVL718:
 5438              		.loc 1 1278 0
 5439 012a 05D1     		bne	.L825
 5440              		.loc 1 1279 0
 5441 012c 5F7D     		ldrb	r7, [r3, #21]	@ zero_extendqisi2
 5442 012e 187D     		ldrb	r0, [r3, #20]	@ zero_extendqisi2
 5443 0130 40EA0720 		orr	r0, r0, r7, lsl #8
 5444 0134 41EA0041 		orr	r1, r1, r0, lsl #16
 5445              	.LVL719:
 5446              	.L825:
 5447              	.LBE427:
 5448              	.LBE426:
 5449              		.loc 1 2528 0
 5450 0138 2161     		str	r1, [r4, #16]
 5451              		.loc 1 2529 0
 5452 013a DB69     		ldr	r3, [r3, #28]	@ unaligned
 5453              		.loc 1 2536 0
 5454 013c D188     		ldrh	r1, [r2, #6]
 5455              		.loc 1 2529 0
 5456 013e E360     		str	r3, [r4, #12]
 5457              		.loc 1 2530 0
 5458 0140 0023     		movs	r3, #0
 5459              		.loc 1 2535 0
 5460 0142 2260     		str	r2, [r4]
 5461              		.loc 1 2536 0
 5462 0144 A180     		strh	r1, [r4, #4]	@ movhi
 5463              		.loc 1 2530 0
 5464 0146 A360     		str	r3, [r4, #8]
 5465              		.loc 1 2531 0
 5466 0148 A361     		str	r3, [r4, #24]
 5467              		.loc 1 2533 0
 5468 014a 6362     		str	r3, [r4, #36]
 5469 014c 6DE7     		b	.L815
 5470              	.LVL720:
 5471              	.L862:
 5472              	.LBB428:
ARM GAS  C:\Users\Moi\AppData\Local\Temp\ccqw64Tg.s 			page 97


 5473              		.loc 1 2473 0
 5474 014e 3907     		lsls	r1, r7, #28
 5475 0150 A7D4     		bmi	.L820
 5476 0152 039A     		ldr	r2, [sp, #12]
 5477 0154 DCE7     		b	.L821
 5478              	.LVL721:
 5479              	.L832:
 5480              	.LBE428:
 5481              		.loc 1 2445 0
 5482 0156 0626     		movs	r6, #6
 5483 0158 67E7     		b	.L815
 5484              	.LVL722:
 5485              	.L863:
 5486              	.LBB429:
 5487              	.LBB422:
 5488              	.LBB420:
 5489 015a 3946     		mov	r1, r7
 5490 015c 1046     		mov	r0, r2
 5491 015e 0093     		str	r3, [sp]
 5492              	.LBE420:
 5493              	.LBE422:
 5494              		.loc 1 2482 0
 5495 0160 D2F82C90 		ldr	r9, [r2, #44]
 5496              	.LBB423:
 5497              	.LBB421:
 5498 0164 FFF7FEFF 		bl	remove_chain.part.9
 5499              	.LVL723:
 5500              	.LBE421:
 5501              	.LBE423:
 5502              		.loc 1 2484 0
 5503 0168 0028     		cmp	r0, #0
 5504 016a 86D1     		bne	.L858
 5505              		.loc 1 2485 0
 5506 016c 0398     		ldr	r0, [sp, #12]
 5507 016e 013F     		subs	r7, r7, #1
 5508              	.LVL724:
 5509              		.loc 1 2486 0
 5510 0170 4946     		mov	r1, r9
 5511              		.loc 1 2485 0
 5512 0172 C760     		str	r7, [r0, #12]
 5513              		.loc 1 2486 0
 5514 0174 FFF7FEFF 		bl	move_window
 5515              	.LVL725:
 5516              	.LBE429:
 5517              		.loc 1 2501 0
 5518 0178 0028     		cmp	r0, #0
 5519 017a 7FF47EAF 		bne	.L858
 5520 017e 039A     		ldr	r2, [sp, #12]
 5521 0180 009B     		ldr	r3, [sp]
 5522 0182 C3E7     		b	.L829
 5523              	.LVL726:
 5524              	.L860:
 5525              		.loc 1 2541 0
 5526 0184 FFF7FEFF 		bl	__stack_chk_fail
 5527              	.LVL727:
 5528              	.L865:
 5529              		.align	2
ARM GAS  C:\Users\Moi\AppData\Local\Temp\ccqw64Tg.s 			page 98


 5530              	.L864:
 5531 0188 00000000 		.word	__stack_chk_guard
 5532              		.cfi_endproc
 5533              	.LFE254:
 5534              		.size	f_open, .-f_open
 5535              		.section	.text.f_read,"ax",%progbits
 5536              		.align	1
 5537              		.p2align 4,,15
 5538              		.global	f_read
 5539              		.syntax unified
 5540              		.thumb
 5541              		.thumb_func
 5542              		.fpu fpv4-sp-d16
 5543              		.type	f_read, %function
 5544              	f_read:
 5545              	.LFB255:
 5546              		.loc 1 2556 0
 5547              		.cfi_startproc
 5548              		@ args = 0, pretend = 0, frame = 24
 5549              		@ frame_needed = 0, uses_anonymous_args = 0
 5550              	.LVL728:
 5551 0000 2DE9F04F 		push	{r4, r5, r6, r7, r8, r9, r10, fp, lr}
 5552              		.cfi_def_cfa_offset 36
 5553              		.cfi_offset 4, -36
 5554              		.cfi_offset 5, -32
 5555              		.cfi_offset 6, -28
 5556              		.cfi_offset 7, -24
 5557              		.cfi_offset 8, -20
 5558              		.cfi_offset 9, -16
 5559              		.cfi_offset 10, -12
 5560              		.cfi_offset 11, -8
 5561              		.cfi_offset 14, -4
 5562 0004 9946     		mov	r9, r3
 5563 0006 DFF8C4A1 		ldr	r10, .L922
 5564 000a 87B0     		sub	sp, sp, #28
 5565              		.cfi_def_cfa_offset 64
 5566              		.loc 1 2563 0
 5567 000c 0024     		movs	r4, #0
 5568              		.loc 1 2556 0
 5569 000e DAF80030 		ldr	r3, [r10]
 5570              	.LVL729:
 5571              		.loc 1 2563 0
 5572 0012 C9F80040 		str	r4, [r9]
 5573              		.loc 1 2556 0
 5574 0016 8B46     		mov	fp, r1
 5575 0018 1446     		mov	r4, r2
 5576 001a 0593     		str	r3, [sp, #20]
 5577              	.LVL730:
 5578 001c 0646     		mov	r6, r0
 5579              		.loc 1 2565 0
 5580 001e FFF7FEFF 		bl	validate
 5581              	.LVL731:
 5582              		.loc 1 2566 0
 5583 0022 0746     		mov	r7, r0
 5584 0024 0028     		cmp	r0, #0
 5585 0026 41D1     		bne	.L867
 5586              		.loc 1 2567 0
ARM GAS  C:\Users\Moi\AppData\Local\Temp\ccqw64Tg.s 			page 99


 5587 0028 F379     		ldrb	r3, [r6, #7]	@ zero_extendqisi2
 5588 002a 002B     		cmp	r3, #0
 5589 002c 48D1     		bne	.L892
 5590              		.loc 1 2569 0
 5591 002e B379     		ldrb	r3, [r6, #6]	@ zero_extendqisi2
 5592 0030 D807     		lsls	r0, r3, #31
 5593              	.LVL732:
 5594 0032 40F1A180 		bpl	.L893
 5595              	.LVL733:
 5596              	.LBB442:
 5597              	.LBB443:
 5598              		.loc 1 2571 0
 5599 0036 D6E90213 		ldrd	r1, r3, [r6, #8]
 5600 003a A3EB0108 		sub	r8, r3, r1
 5601 003e A045     		cmp	r8, r4
 5602 0040 28BF     		it	cs
 5603 0042 A046     		movcs	r8, r4
 5604              	.LVL734:
 5605              		.loc 1 2574 0
 5606 0044 B8F1000F 		cmp	r8, #0
 5607 0048 30D0     		beq	.L867
 5608 004a 06F12803 		add	r3, r6, #40
 5609 004e 0193     		str	r3, [sp, #4]
 5610 0050 06F50A73 		add	r3, r6, #552
 5611 0054 0297     		str	r7, [sp, #8]
 5612 0056 4746     		mov	r7, r8
 5613 0058 9846     		mov	r8, r3
 5614              	.LVL735:
 5615              	.L868:
 5616              		.loc 1 2576 0
 5617 005a C1F30803 		ubfx	r3, r1, #0, #9
 5618 005e 002B     		cmp	r3, #0
 5619 0060 4ED1     		bne	.L869
 5620              		.loc 1 2577 0
 5621 0062 3068     		ldr	r0, [r6]
 5622 0064 8278     		ldrb	r2, [r0, #2]	@ zero_extendqisi2
 5623 0066 4C0A     		lsrs	r4, r1, #9
 5624 0068 531E     		subs	r3, r2, #1
 5625 006a 2340     		ands	r3, r3, r4
 5626              	.LVL736:
 5627              		.loc 1 2578 0
 5628 006c 13F0FF03 		ands	r3, r3, #255
 5629              	.LVL737:
 5630 0070 65D0     		beq	.L870
 5631 0072 7469     		ldr	r4, [r6, #20]
 5632              	.LVL738:
 5633              	.L871:
 5634              	.LBB444:
 5635              	.LBB445:
 5636              		.loc 1 853 0
 5637 0074 4269     		ldr	r2, [r0, #20]
 5638              		.loc 1 852 0
 5639 0076 023C     		subs	r4, r4, #2
 5640              	.LVL739:
 5641              		.loc 1 853 0
 5642 0078 023A     		subs	r2, r2, #2
 5643 007a 9442     		cmp	r4, r2
ARM GAS  C:\Users\Moi\AppData\Local\Temp\ccqw64Tg.s 			page 100


 5644 007c 79D2     		bcs	.L878
 5645              		.loc 1 854 0
 5646 007e 8178     		ldrb	r1, [r0, #2]	@ zero_extendqisi2
 5647 0080 826A     		ldr	r2, [r0, #40]
 5648 0082 01FB0424 		mla	r4, r1, r4, r2
 5649              	.LVL740:
 5650              	.LBE445:
 5651              	.LBE444:
 5652              		.loc 1 2594 0
 5653 0086 002C     		cmp	r4, #0
 5654 0088 73D0     		beq	.L878
 5655              		.loc 1 2597 0
 5656 008a 7D0A     		lsrs	r5, r7, #9
 5657              		.loc 1 2595 0
 5658 008c 1C44     		add	r4, r4, r3
 5659              	.LVL741:
 5660              		.loc 1 2597 0
 5661 008e 19D0     		beq	.L881
 5662              		.loc 1 2598 0
 5663 0090 5A19     		adds	r2, r3, r5
 5664 0092 9142     		cmp	r1, r2
 5665              		.loc 1 2599 0
 5666 0094 38BF     		it	cc
 5667 0096 CD1A     		subcc	r5, r1, r3
 5668              	.LVL742:
 5669              		.loc 1 2600 0
 5670 0098 4078     		ldrb	r0, [r0, #1]	@ zero_extendqisi2
 5671 009a 2B46     		mov	r3, r5
 5672 009c 2246     		mov	r2, r4
 5673 009e 5946     		mov	r1, fp
 5674 00a0 FFF7FEFF 		bl	disk_read
 5675              	.LVL743:
 5676 00a4 0028     		cmp	r0, #0
 5677 00a6 69D0     		beq	.L920
 5678              	.LVL744:
 5679              	.L883:
 5680              		.loc 1 2590 0
 5681 00a8 0127     		movs	r7, #1
 5682              	.LVL745:
 5683 00aa F771     		strb	r7, [r6, #7]
 5684              	.LVL746:
 5685              	.L867:
 5686              	.LBE443:
 5687              	.LBE442:
 5688              		.loc 1 2641 0
 5689 00ac 059A     		ldr	r2, [sp, #20]
 5690 00ae DAF80030 		ldr	r3, [r10]
 5691 00b2 9A42     		cmp	r2, r3
 5692 00b4 3846     		mov	r0, r7
 5693 00b6 40F08780 		bne	.L921
 5694 00ba 07B0     		add	sp, sp, #28
 5695              		.cfi_remember_state
 5696              		.cfi_def_cfa_offset 36
 5697              		@ sp needed
 5698 00bc BDE8F08F 		pop	{r4, r5, r6, r7, r8, r9, r10, fp, pc}
 5699              	.LVL747:
 5700              	.L892:
ARM GAS  C:\Users\Moi\AppData\Local\Temp\ccqw64Tg.s 			page 101


 5701              		.cfi_restore_state
 5702 00c0 1F46     		mov	r7, r3
 5703 00c2 F3E7     		b	.L867
 5704              	.LVL748:
 5705              	.L881:
 5706              	.LBB458:
 5707              	.LBB456:
 5708              		.loc 1 2615 0
 5709 00c4 B269     		ldr	r2, [r6, #24]
 5710 00c6 9442     		cmp	r4, r2
 5711 00c8 16D0     		beq	.L887
 5712              		.loc 1 2617 0
 5713 00ca B379     		ldrb	r3, [r6, #6]	@ zero_extendqisi2
 5714 00cc 4078     		ldrb	r0, [r0, #1]	@ zero_extendqisi2
 5715 00ce 5B06     		lsls	r3, r3, #25
 5716 00d0 0BD5     		bpl	.L888
 5717              		.loc 1 2618 0
 5718 00d2 0123     		movs	r3, #1
 5719 00d4 0199     		ldr	r1, [sp, #4]
 5720 00d6 FFF7FEFF 		bl	disk_write
 5721              	.LVL749:
 5722 00da 0028     		cmp	r0, #0
 5723 00dc E4D1     		bne	.L883
 5724              		.loc 1 2620 0
 5725 00de B379     		ldrb	r3, [r6, #6]	@ zero_extendqisi2
 5726 00e0 3268     		ldr	r2, [r6]
 5727 00e2 23F04003 		bic	r3, r3, #64
 5728 00e6 B371     		strb	r3, [r6, #6]
 5729 00e8 5078     		ldrb	r0, [r2, #1]	@ zero_extendqisi2
 5730              	.L888:
 5731              		.loc 1 2623 0
 5732 00ea 0199     		ldr	r1, [sp, #4]
 5733 00ec 0123     		movs	r3, #1
 5734 00ee 2246     		mov	r2, r4
 5735 00f0 FFF7FEFF 		bl	disk_read
 5736              	.LVL750:
 5737 00f4 0028     		cmp	r0, #0
 5738 00f6 D7D1     		bne	.L883
 5739              	.L887:
 5740 00f8 B368     		ldr	r3, [r6, #8]
 5741              		.loc 1 2627 0
 5742 00fa B461     		str	r4, [r6, #24]
 5743 00fc C3F30803 		ubfx	r3, r3, #0, #9
 5744              	.LVL751:
 5745              	.L869:
 5746              		.loc 1 2629 0
 5747 0100 C3F50075 		rsb	r5, r3, #512
 5748              	.LVL752:
 5749 0104 BD42     		cmp	r5, r7
 5750              		.loc 1 2636 0
 5751 0106 03F12803 		add	r3, r3, #40
 5752 010a 28BF     		it	cs
 5753 010c 3D46     		movcs	r5, r7
 5754              	.LVL753:
 5755 010e 3344     		add	r3, r3, r6
 5756              	.LVL754:
 5757 0110 5819     		adds	r0, r3, r5
ARM GAS  C:\Users\Moi\AppData\Local\Temp\ccqw64Tg.s 			page 102


 5758 0112 0BF1FF32 		add	r2, fp, #-1
 5759              	.LVL755:
 5760              	.L889:
 5761              	.LBB446:
 5762              	.LBB447:
 5763              		.loc 1 574 0
 5764 0116 13F8011B 		ldrb	r1, [r3], #1	@ zero_extendqisi2
 5765              	.LVL756:
 5766 011a 02F8011F 		strb	r1, [r2, #1]!
 5767              	.LVL757:
 5768              		.loc 1 573 0
 5769 011e 8342     		cmp	r3, r0
 5770 0120 F9D1     		bne	.L889
 5771 0122 B168     		ldr	r1, [r6, #8]
 5772 0124 AB44     		add	fp, fp, r5
 5773              	.LVL758:
 5774 0126 7F1B     		subs	r7, r7, r5
 5775              	.LVL759:
 5776              	.L886:
 5777              	.LBE447:
 5778              	.LBE446:
 5779              		.loc 1 2575 0
 5780 0128 D9F80030 		ldr	r3, [r9]
 5781 012c 2944     		add	r1, r1, r5
 5782 012e 1D44     		add	r5, r5, r3
 5783 0130 B160     		str	r1, [r6, #8]
 5784 0132 C9F80050 		str	r5, [r9]
 5785              		.loc 1 2574 0
 5786 0136 002F     		cmp	r7, #0
 5787 0138 8FD1     		bne	.L868
 5788 013a 029F     		ldr	r7, [sp, #8]
 5789 013c B6E7     		b	.L867
 5790              	.LVL760:
 5791              	.L870:
 5792              		.loc 1 2579 0
 5793 013e 39B9     		cbnz	r1, .L872
 5794              		.loc 1 2580 0
 5795 0140 3469     		ldr	r4, [r6, #16]
 5796              	.LVL761:
 5797              	.L873:
 5798              		.loc 1 2589 0
 5799 0142 012C     		cmp	r4, #1
 5800 0144 15D9     		bls	.L878
 5801              		.loc 1 2590 0
 5802 0146 611C     		adds	r1, r4, #1
 5803 0148 AED0     		beq	.L883
 5804 014a 3068     		ldr	r0, [r6]
 5805              		.loc 1 2591 0
 5806 014c 7461     		str	r4, [r6, #20]
 5807 014e 91E7     		b	.L871
 5808              	.LVL762:
 5809              	.L872:
 5810              		.loc 1 2583 0
 5811 0150 716A     		ldr	r1, [r6, #36]
 5812 0152 51B3     		cbz	r1, .L874
 5813              	.LVL763:
 5814              	.LBB448:
ARM GAS  C:\Users\Moi\AppData\Local\Temp\ccqw64Tg.s 			page 103


 5815              	.LBB449:
 5816              		.loc 1 1098 0
 5817 0154 B4FBF2F4 		udiv	r4, r4, r2
 5818              	.LVL764:
 5819              		.loc 1 1100 0
 5820 0158 4A68     		ldr	r2, [r1, #4]
 5821              		.loc 1 1097 0
 5822 015a 0431     		adds	r1, r1, #4
 5823              	.LVL765:
 5824              		.loc 1 1101 0
 5825 015c 4AB1     		cbz	r2, .L878
 5826              		.loc 1 1102 0
 5827 015e 9442     		cmp	r4, r2
 5828 0160 02D2     		bcs	.L877
 5829 0162 2EE0     		b	.L876
 5830              	.LVL766:
 5831              	.L910:
 5832 0164 A242     		cmp	r2, r4
 5833 0166 2CD8     		bhi	.L876
 5834              	.LVL767:
 5835              	.L877:
 5836              		.loc 1 1103 0
 5837 0168 A41A     		subs	r4, r4, r2
 5838              	.LVL768:
 5839              		.loc 1 1100 0
 5840 016a 51F8082F 		ldr	r2, [r1, #8]!
 5841              	.LVL769:
 5842              		.loc 1 1101 0
 5843 016e 002A     		cmp	r2, #0
 5844 0170 F8D1     		bne	.L910
 5845              	.LVL770:
 5846              	.L878:
 5847              	.LBE449:
 5848              	.LBE448:
 5849              		.loc 1 2589 0
 5850 0172 0227     		movs	r7, #2
 5851              	.LVL771:
 5852 0174 F771     		strb	r7, [r6, #7]
 5853 0176 99E7     		b	.L867
 5854              	.LVL772:
 5855              	.L893:
 5856              	.LBE456:
 5857              	.LBE458:
 5858              		.loc 1 2570 0
 5859 0178 0727     		movs	r7, #7
 5860 017a 97E7     		b	.L867
 5861              	.LVL773:
 5862              	.L920:
 5863              	.LBB459:
 5864              	.LBB457:
 5865              		.loc 1 2607 0
 5866 017c B379     		ldrb	r3, [r6, #6]	@ zero_extendqisi2
 5867 017e 5A06     		lsls	r2, r3, #25
 5868 0180 0ED5     		bpl	.L884
 5869 0182 B369     		ldr	r3, [r6, #24]
 5870 0184 1C1B     		subs	r4, r3, r4
 5871              	.LVL774:
ARM GAS  C:\Users\Moi\AppData\Local\Temp\ccqw64Tg.s 			page 104


 5872 0186 A542     		cmp	r5, r4
 5873 0188 0AD9     		bls	.L884
 5874 018a 0BEB4424 		add	r4, fp, r4, lsl #9
 5875 018e 621E     		subs	r2, r4, #1
 5876              		.loc 1 2608 0
 5877 0190 06F12803 		add	r3, r6, #40
 5878              	.LVL775:
 5879              	.L885:
 5880              	.LBB451:
 5881              	.LBB452:
 5882              		.loc 1 574 0
 5883 0194 13F8011B 		ldrb	r1, [r3], #1	@ zero_extendqisi2
 5884              	.LVL776:
 5885 0198 02F8011F 		strb	r1, [r2, #1]!
 5886              	.LVL777:
 5887              		.loc 1 573 0
 5888 019c 4345     		cmp	r3, r8
 5889 019e F9D1     		bne	.L885
 5890              	.LVL778:
 5891              	.L884:
 5892              	.LBE452:
 5893              	.LBE451:
 5894              		.loc 1 2611 0
 5895 01a0 6D02     		lsls	r5, r5, #9
 5896              	.LVL779:
 5897 01a2 AB44     		add	fp, fp, r5
 5898              	.LVL780:
 5899 01a4 7F1B     		subs	r7, r7, r5
 5900              	.LVL781:
 5901 01a6 B168     		ldr	r1, [r6, #8]
 5902 01a8 BEE7     		b	.L886
 5903              	.LVL782:
 5904              	.L874:
 5905              		.loc 1 2587 0
 5906 01aa 7169     		ldr	r1, [r6, #20]
 5907              	.LVL783:
 5908 01ac 0393     		str	r3, [sp, #12]
 5909              	.LBB453:
 5910              	.LBB454:
 5911              		.loc 1 874 0
 5912 01ae 0129     		cmp	r1, #1
 5913 01b0 DFD9     		bls	.L878
 5914 01b2 4269     		ldr	r2, [r0, #20]
 5915              	.LVL784:
 5916 01b4 9142     		cmp	r1, r2
 5917 01b6 DCD2     		bcs	.L878
 5918 01b8 FFF7FEFF 		bl	get_fat.part.6
 5919              	.LVL785:
 5920 01bc 039B     		ldr	r3, [sp, #12]
 5921 01be 0446     		mov	r4, r0
 5922 01c0 BFE7     		b	.L873
 5923              	.LVL786:
 5924              	.L876:
 5925              	.LBE454:
 5926              	.LBE453:
 5927              	.LBB455:
 5928              	.LBB450:
ARM GAS  C:\Users\Moi\AppData\Local\Temp\ccqw64Tg.s 			page 105


 5929              		.loc 1 1105 0
 5930 01c2 4A68     		ldr	r2, [r1, #4]
 5931              	.LVL787:
 5932 01c4 1444     		add	r4, r4, r2
 5933              	.LVL788:
 5934 01c6 BCE7     		b	.L873
 5935              	.LVL789:
 5936              	.L921:
 5937              	.LBE450:
 5938              	.LBE455:
 5939              	.LBE457:
 5940              	.LBE459:
 5941              		.loc 1 2641 0
 5942 01c8 FFF7FEFF 		bl	__stack_chk_fail
 5943              	.LVL790:
 5944              	.L923:
 5945              		.align	2
 5946              	.L922:
 5947 01cc 00000000 		.word	__stack_chk_guard
 5948              		.cfi_endproc
 5949              	.LFE255:
 5950              		.size	f_read, .-f_read
 5951              		.section	.text.f_write,"ax",%progbits
 5952              		.align	1
 5953              		.p2align 4,,15
 5954              		.global	f_write
 5955              		.syntax unified
 5956              		.thumb
 5957              		.thumb_func
 5958              		.fpu fpv4-sp-d16
 5959              		.type	f_write, %function
 5960              	f_write:
 5961              	.LFB256:
 5962              		.loc 1 2657 0
 5963              		.cfi_startproc
 5964              		@ args = 0, pretend = 0, frame = 16
 5965              		@ frame_needed = 0, uses_anonymous_args = 0
 5966              	.LVL791:
 5967 0000 2DE9F04F 		push	{r4, r5, r6, r7, r8, r9, r10, fp, lr}
 5968              		.cfi_def_cfa_offset 36
 5969              		.cfi_offset 4, -36
 5970              		.cfi_offset 5, -32
 5971              		.cfi_offset 6, -28
 5972              		.cfi_offset 7, -24
 5973              		.cfi_offset 8, -20
 5974              		.cfi_offset 9, -16
 5975              		.cfi_offset 10, -12
 5976              		.cfi_offset 11, -8
 5977              		.cfi_offset 14, -4
 5978 0004 9A46     		mov	r10, r3
 5979 0006 DFF81CB2 		ldr	fp, .L978
 5980 000a 85B0     		sub	sp, sp, #20
 5981              		.cfi_def_cfa_offset 56
 5982              		.loc 1 2665 0
 5983 000c 0024     		movs	r4, #0
 5984              		.loc 1 2657 0
 5985 000e DBF80030 		ldr	r3, [fp]
ARM GAS  C:\Users\Moi\AppData\Local\Temp\ccqw64Tg.s 			page 106


 5986              	.LVL792:
 5987              		.loc 1 2665 0
 5988 0012 CAF80040 		str	r4, [r10]
 5989              		.loc 1 2657 0
 5990 0016 0D46     		mov	r5, r1
 5991 0018 1746     		mov	r7, r2
 5992 001a 0393     		str	r3, [sp, #12]
 5993 001c 0646     		mov	r6, r0
 5994              	.LVL793:
 5995              		.loc 1 2667 0
 5996 001e FFF7FEFF 		bl	validate
 5997              	.LVL794:
 5998              		.loc 1 2668 0
 5999 0022 8046     		mov	r8, r0
 6000 0024 0028     		cmp	r0, #0
 6001 0026 58D1     		bne	.L925
 6002              		.loc 1 2669 0
 6003 0028 F379     		ldrb	r3, [r6, #7]	@ zero_extendqisi2
 6004 002a 002B     		cmp	r3, #0
 6005 002c 5FD1     		bne	.L953
 6006              		.loc 1 2671 0
 6007 002e B379     		ldrb	r3, [r6, #6]	@ zero_extendqisi2
 6008 0030 9907     		lsls	r1, r3, #30
 6009 0032 40F1B580 		bpl	.L954
 6010              	.LVL795:
 6011              	.LBB470:
 6012              	.LBB471:
 6013              		.loc 1 2673 0
 6014 0036 B468     		ldr	r4, [r6, #8]
 6015 0038 E742     		cmn	r7, r4
 6016 003a 80F08780 		bcs	.L926
 6017              	.LVL796:
 6018              		.loc 1 2675 0
 6019 003e 002F     		cmp	r7, #0
 6020 0040 00F08480 		beq	.L926
 6021              		.loc 1 2741 0
 6022 0044 06F12803 		add	r3, r6, #40
 6023 0048 CDE90030 		strd	r3, r0, [sp]
 6024 004c B946     		mov	r9, r7
 6025              	.LVL797:
 6026              	.L950:
 6027              		.loc 1 2677 0
 6028 004e C4F30803 		ubfx	r3, r4, #0, #9
 6029 0052 002B     		cmp	r3, #0
 6030 0054 57D1     		bne	.L927
 6031              		.loc 1 2678 0
 6032 0056 3068     		ldr	r0, [r6]
 6033 0058 8278     		ldrb	r2, [r0, #2]	@ zero_extendqisi2
 6034 005a 630A     		lsrs	r3, r4, #9
 6035 005c 02F1FF38 		add	r8, r2, #-1
 6036 0060 08EA0308 		and	r8, r8, r3
 6037              	.LVL798:
 6038              		.loc 1 2679 0
 6039 0064 18F0FF08 		ands	r8, r8, #255
 6040              	.LVL799:
 6041 0068 10D1     		bne	.L928
 6042              		.loc 1 2680 0
ARM GAS  C:\Users\Moi\AppData\Local\Temp\ccqw64Tg.s 			page 107


 6043 006a 002C     		cmp	r4, #0
 6044 006c 40F08480 		bne	.L929
 6045              		.loc 1 2681 0
 6046 0070 3369     		ldr	r3, [r6, #16]
 6047              	.LVL800:
 6048              		.loc 1 2682 0
 6049 0072 002B     		cmp	r3, #0
 6050 0074 00F0B380 		beq	.L972
 6051              	.LVL801:
 6052              	.L930:
 6053              		.loc 1 2693 0
 6054 0078 012B     		cmp	r3, #1
 6055 007a 00F0CB80 		beq	.L942
 6056              		.loc 1 2694 0
 6057 007e 5A1C     		adds	r2, r3, #1
 6058 0080 27D0     		beq	.L941
 6059              		.loc 1 2696 0
 6060 0082 3269     		ldr	r2, [r6, #16]
 6061              		.loc 1 2695 0
 6062 0084 7361     		str	r3, [r6, #20]
 6063 0086 3068     		ldr	r0, [r6]
 6064              		.loc 1 2696 0
 6065 0088 02B9     		cbnz	r2, .L928
 6066 008a 3361     		str	r3, [r6, #16]
 6067              	.LVL802:
 6068              	.L928:
 6069              		.loc 1 2702 0
 6070 008c B379     		ldrb	r3, [r6, #6]	@ zero_extendqisi2
 6071 008e 5B06     		lsls	r3, r3, #25
 6072 0090 64D4     		bmi	.L973
 6073              	.L940:
 6074              	.LVL803:
 6075              	.LBB472:
 6076              	.LBB473:
 6077              		.loc 1 852 0
 6078 0092 7769     		ldr	r7, [r6, #20]
 6079              		.loc 1 853 0
 6080 0094 4369     		ldr	r3, [r0, #20]
 6081              		.loc 1 852 0
 6082 0096 023F     		subs	r7, r7, #2
 6083              	.LVL804:
 6084              		.loc 1 853 0
 6085 0098 023B     		subs	r3, r3, #2
 6086 009a 9F42     		cmp	r7, r3
 6087 009c 80F0BA80 		bcs	.L942
 6088              		.loc 1 854 0
 6089 00a0 8378     		ldrb	r3, [r0, #2]	@ zero_extendqisi2
 6090 00a2 826A     		ldr	r2, [r0, #40]
 6091 00a4 03FB0727 		mla	r7, r3, r7, r2
 6092              	.LVL805:
 6093              	.LBE473:
 6094              	.LBE472:
 6095              		.loc 1 2709 0
 6096 00a8 002F     		cmp	r7, #0
 6097 00aa 00F0B380 		beq	.L942
 6098              		.loc 1 2712 0
 6099 00ae 5FEA5924 		lsrs	r4, r9, #9
ARM GAS  C:\Users\Moi\AppData\Local\Temp\ccqw64Tg.s 			page 108


 6100              		.loc 1 2710 0
 6101 00b2 4744     		add	r7, r7, r8
 6102              	.LVL806:
 6103              		.loc 1 2712 0
 6104 00b4 1DD0     		beq	.L943
 6105              		.loc 1 2713 0
 6106 00b6 08EB0402 		add	r2, r8, r4
 6107 00ba 9342     		cmp	r3, r2
 6108              		.loc 1 2714 0
 6109 00bc 38BF     		it	cc
 6110 00be A3EB0804 		subcc	r4, r3, r8
 6111              	.LVL807:
 6112              		.loc 1 2715 0
 6113 00c2 4078     		ldrb	r0, [r0, #1]	@ zero_extendqisi2
 6114 00c4 2346     		mov	r3, r4
 6115 00c6 3A46     		mov	r2, r7
 6116 00c8 2946     		mov	r1, r5
 6117 00ca FFF7FEFF 		bl	disk_write
 6118              	.LVL808:
 6119 00ce 0028     		cmp	r0, #0
 6120 00d0 69D0     		beq	.L974
 6121              	.LVL809:
 6122              	.L941:
 6123              		.loc 1 2694 0
 6124 00d2 4FF00108 		mov	r8, #1
 6125 00d6 86F80780 		strb	r8, [r6, #7]
 6126              	.LVL810:
 6127              	.L925:
 6128              	.LBE471:
 6129              	.LBE470:
 6130              		.loc 1 2764 0
 6131 00da 039A     		ldr	r2, [sp, #12]
 6132 00dc DBF80030 		ldr	r3, [fp]
 6133 00e0 9A42     		cmp	r2, r3
 6134 00e2 4046     		mov	r0, r8
 6135 00e4 40F09B80 		bne	.L975
 6136 00e8 05B0     		add	sp, sp, #20
 6137              		.cfi_remember_state
 6138              		.cfi_def_cfa_offset 36
 6139              		@ sp needed
 6140 00ea BDE8F08F 		pop	{r4, r5, r6, r7, r8, r9, r10, fp, pc}
 6141              	.LVL811:
 6142              	.L953:
 6143              		.cfi_restore_state
 6144 00ee 9846     		mov	r8, r3
 6145 00f0 F3E7     		b	.L925
 6146              	.LVL812:
 6147              	.L943:
 6148              	.LBB484:
 6149              	.LBB482:
 6150              		.loc 1 2739 0
 6151 00f2 B269     		ldr	r2, [r6, #24]
 6152 00f4 B368     		ldr	r3, [r6, #8]
 6153 00f6 9742     		cmp	r7, r2
 6154 00f8 02D0     		beq	.L948
 6155              		.loc 1 2740 0
 6156 00fa F268     		ldr	r2, [r6, #12]
ARM GAS  C:\Users\Moi\AppData\Local\Temp\ccqw64Tg.s 			page 109


 6157 00fc 9A42     		cmp	r2, r3
 6158 00fe 5AD8     		bhi	.L976
 6159              	.L948:
 6160              		.loc 1 2745 0
 6161 0100 B761     		str	r7, [r6, #24]
 6162 0102 C3F30803 		ubfx	r3, r3, #0, #9
 6163              	.LVL813:
 6164              	.L927:
 6165              		.loc 1 2747 0
 6166 0106 C3F50074 		rsb	r4, r3, #512
 6167              	.LVL814:
 6168 010a 4C45     		cmp	r4, r9
 6169 010c 2146     		mov	r1, r4
 6170 010e 03F12703 		add	r3, r3, #39
 6171 0112 28BF     		it	cs
 6172 0114 4946     		movcs	r1, r9
 6173              	.LVL815:
 6174 0116 3344     		add	r3, r3, r6
 6175 0118 6818     		adds	r0, r5, r1
 6176              	.LVL816:
 6177              	.L949:
 6178              	.LBB474:
 6179              	.LBB475:
 6180              		.loc 1 574 0
 6181 011a 15F8012B 		ldrb	r2, [r5], #1	@ zero_extendqisi2
 6182              	.LVL817:
 6183 011e 03F8012F 		strb	r2, [r3, #1]!
 6184              	.LVL818:
 6185              		.loc 1 573 0
 6186 0122 8542     		cmp	r5, r0
 6187 0124 F9D1     		bne	.L949
 6188              	.LBE475:
 6189              	.LBE474:
 6190              		.loc 1 2756 0
 6191 0126 B379     		ldrb	r3, [r6, #6]	@ zero_extendqisi2
 6192 0128 B468     		ldr	r4, [r6, #8]
 6193              	.LVL819:
 6194 012a 43F04003 		orr	r3, r3, #64
 6195 012e B371     		strb	r3, [r6, #6]
 6196              	.L947:
 6197              	.LVL820:
 6198              		.loc 1 2676 0
 6199 0130 DAF80030 		ldr	r3, [r10]
 6200 0134 0C44     		add	r4, r4, r1
 6201 0136 0B44     		add	r3, r3, r1
 6202              		.loc 1 2675 0
 6203 0138 B9EB0109 		subs	r9, r9, r1
 6204              	.LVL821:
 6205              		.loc 1 2676 0
 6206 013c B460     		str	r4, [r6, #8]
 6207 013e 0546     		mov	r5, r0
 6208 0140 CAF80030 		str	r3, [r10]
 6209              		.loc 1 2675 0
 6210 0144 83D1     		bne	.L950
 6211              	.LVL822:
 6212              	.L971:
 6213 0146 DDF80480 		ldr	r8, [sp, #4]
ARM GAS  C:\Users\Moi\AppData\Local\Temp\ccqw64Tg.s 			page 110


 6214 014a B379     		ldrb	r3, [r6, #6]	@ zero_extendqisi2
 6215              	.L926:
 6216              		.loc 1 2760 0
 6217 014c F268     		ldr	r2, [r6, #12]
 6218              		.loc 1 2761 0
 6219 014e 43F02003 		orr	r3, r3, #32
 6220              		.loc 1 2760 0
 6221 0152 A242     		cmp	r2, r4
 6222 0154 38BF     		it	cc
 6223 0156 F460     		strcc	r4, [r6, #12]
 6224              		.loc 1 2761 0
 6225 0158 B371     		strb	r3, [r6, #6]
 6226 015a BEE7     		b	.L925
 6227              	.LVL823:
 6228              	.L973:
 6229              		.loc 1 2703 0
 6230 015c 4078     		ldrb	r0, [r0, #1]	@ zero_extendqisi2
 6231 015e B269     		ldr	r2, [r6, #24]
 6232 0160 0099     		ldr	r1, [sp]
 6233 0162 0123     		movs	r3, #1
 6234 0164 FFF7FEFF 		bl	disk_write
 6235              	.LVL824:
 6236 0168 0028     		cmp	r0, #0
 6237 016a B2D1     		bne	.L941
 6238              		.loc 1 2705 0
 6239 016c B379     		ldrb	r3, [r6, #6]	@ zero_extendqisi2
 6240 016e 3068     		ldr	r0, [r6]
 6241 0170 23F04003 		bic	r3, r3, #64
 6242 0174 B371     		strb	r3, [r6, #6]
 6243 0176 8CE7     		b	.L940
 6244              	.LVL825:
 6245              	.L929:
 6246              		.loc 1 2686 0
 6247 0178 716A     		ldr	r1, [r6, #36]
 6248 017a 0029     		cmp	r1, #0
 6249 017c 34D0     		beq	.L932
 6250              	.LVL826:
 6251              	.LBB476:
 6252              	.LBB477:
 6253              		.loc 1 1098 0
 6254 017e B3FBF2F3 		udiv	r3, r3, r2
 6255              	.LVL827:
 6256              		.loc 1 1100 0
 6257 0182 4A68     		ldr	r2, [r1, #4]
 6258              	.LVL828:
 6259              		.loc 1 1097 0
 6260 0184 0431     		adds	r1, r1, #4
 6261              	.LVL829:
 6262              		.loc 1 1101 0
 6263 0186 002A     		cmp	r2, #0
 6264 0188 DDD0     		beq	.L971
 6265              		.loc 1 1102 0
 6266 018a 9342     		cmp	r3, r2
 6267 018c 02D2     		bcs	.L935
 6268 018e 1CE0     		b	.L934
 6269              	.LVL830:
 6270              	.L936:
ARM GAS  C:\Users\Moi\AppData\Local\Temp\ccqw64Tg.s 			page 111


 6271 0190 9A42     		cmp	r2, r3
 6272 0192 1AD8     		bhi	.L934
 6273              	.LVL831:
 6274              	.L935:
 6275              		.loc 1 1103 0
 6276 0194 9B1A     		subs	r3, r3, r2
 6277              	.LVL832:
 6278              		.loc 1 1100 0
 6279 0196 51F8082F 		ldr	r2, [r1, #8]!
 6280              	.LVL833:
 6281              		.loc 1 1101 0
 6282 019a 002A     		cmp	r2, #0
 6283 019c F8D1     		bne	.L936
 6284 019e D2E7     		b	.L971
 6285              	.LVL834:
 6286              	.L954:
 6287              	.LBE477:
 6288              	.LBE476:
 6289              	.LBE482:
 6290              	.LBE484:
 6291              		.loc 1 2672 0
 6292 01a0 4FF00708 		mov	r8, #7
 6293 01a4 99E7     		b	.L925
 6294              	.LVL835:
 6295              	.L974:
 6296              	.LBB485:
 6297              	.LBB483:
 6298              		.loc 1 2724 0
 6299 01a6 B369     		ldr	r3, [r6, #24]
 6300 01a8 DF1B     		subs	r7, r3, r7
 6301              	.LVL836:
 6302 01aa BC42     		cmp	r4, r7
 6303 01ac 21D8     		bhi	.L977
 6304              	.L945:
 6305              		.loc 1 2730 0
 6306 01ae 6102     		lsls	r1, r4, #9
 6307              	.LVL837:
 6308 01b0 6818     		adds	r0, r5, r1
 6309 01b2 B468     		ldr	r4, [r6, #8]
 6310              	.LVL838:
 6311 01b4 BCE7     		b	.L947
 6312              	.LVL839:
 6313              	.L976:
 6314              		.loc 1 2741 0
 6315 01b6 4078     		ldrb	r0, [r0, #1]	@ zero_extendqisi2
 6316 01b8 0099     		ldr	r1, [sp]
 6317 01ba 0123     		movs	r3, #1
 6318 01bc 3A46     		mov	r2, r7
 6319 01be FFF7FEFF 		bl	disk_read
 6320              	.LVL840:
 6321              		.loc 1 2740 0
 6322 01c2 0028     		cmp	r0, #0
 6323 01c4 85D1     		bne	.L941
 6324 01c6 B368     		ldr	r3, [r6, #8]
 6325 01c8 9AE7     		b	.L948
 6326              	.LVL841:
 6327              	.L934:
ARM GAS  C:\Users\Moi\AppData\Local\Temp\ccqw64Tg.s 			page 112


 6328              	.LBB479:
 6329              	.LBB478:
 6330              		.loc 1 1105 0
 6331 01ca 4A68     		ldr	r2, [r1, #4]
 6332              	.LVL842:
 6333 01cc 1344     		add	r3, r3, r2
 6334              	.LVL843:
 6335              	.L931:
 6336              	.LBE478:
 6337              	.LBE479:
 6338              		.loc 1 2692 0
 6339 01ce 002B     		cmp	r3, #0
 6340 01d0 7FF452AF 		bne	.L930
 6341 01d4 DDF80480 		ldr	r8, [sp, #4]
 6342 01d8 B468     		ldr	r4, [r6, #8]
 6343 01da B379     		ldrb	r3, [r6, #6]	@ zero_extendqisi2
 6344              	.LVL844:
 6345 01dc B6E7     		b	.L926
 6346              	.LVL845:
 6347              	.L972:
 6348              		.loc 1 2683 0
 6349 01de 4146     		mov	r1, r8
 6350 01e0 FFF7FEFF 		bl	create_chain
 6351              	.LVL846:
 6352 01e4 0346     		mov	r3, r0
 6353              	.LVL847:
 6354 01e6 F2E7     		b	.L931
 6355              	.LVL848:
 6356              	.L932:
 6357              		.loc 1 2690 0
 6358 01e8 7169     		ldr	r1, [r6, #20]
 6359 01ea FFF7FEFF 		bl	create_chain
 6360              	.LVL849:
 6361 01ee 0346     		mov	r3, r0
 6362              	.LVL850:
 6363 01f0 EDE7     		b	.L931
 6364              	.LVL851:
 6365              	.L977:
 6366              		.loc 1 2725 0
 6367 01f2 05EB4723 		add	r3, r5, r7, lsl #9
 6368              	.LVL852:
 6369 01f6 03F50070 		add	r0, r3, #512
 6370 01fa 06F12702 		add	r2, r6, #39
 6371              	.LVL853:
 6372              	.L946:
 6373              	.LBB480:
 6374              	.LBB481:
 6375              		.loc 1 574 0
 6376 01fe 13F8011B 		ldrb	r1, [r3], #1	@ zero_extendqisi2
 6377              	.LVL854:
 6378 0202 02F8011F 		strb	r1, [r2, #1]!
 6379              	.LVL855:
 6380              		.loc 1 573 0
 6381 0206 8342     		cmp	r3, r0
 6382 0208 F9D1     		bne	.L946
 6383              	.LVL856:
 6384              	.LBE481:
ARM GAS  C:\Users\Moi\AppData\Local\Temp\ccqw64Tg.s 			page 113


 6385              	.LBE480:
 6386              		.loc 1 2726 0
 6387 020a B379     		ldrb	r3, [r6, #6]	@ zero_extendqisi2
 6388 020c 23F04003 		bic	r3, r3, #64
 6389 0210 B371     		strb	r3, [r6, #6]
 6390 0212 CCE7     		b	.L945
 6391              	.LVL857:
 6392              	.L942:
 6393              		.loc 1 2693 0
 6394 0214 4FF00208 		mov	r8, #2
 6395 0218 86F80780 		strb	r8, [r6, #7]
 6396 021c 5DE7     		b	.L925
 6397              	.LVL858:
 6398              	.L975:
 6399              	.LBE483:
 6400              	.LBE485:
 6401              		.loc 1 2764 0
 6402 021e FFF7FEFF 		bl	__stack_chk_fail
 6403              	.LVL859:
 6404              	.L979:
 6405 0222 00BF     		.align	2
 6406              	.L978:
 6407 0224 00000000 		.word	__stack_chk_guard
 6408              		.cfi_endproc
 6409              	.LFE256:
 6410              		.size	f_write, .-f_write
 6411              		.section	.text.putc_bfd,"ax",%progbits
 6412              		.align	1
 6413              		.p2align 4,,15
 6414              		.syntax unified
 6415              		.thumb
 6416              		.thumb_func
 6417              		.fpu fpv4-sp-d16
 6418              		.type	putc_bfd, %function
 6419              	putc_bfd:
 6420              	.LFB275:
 6421              		.loc 1 4384 0
 6422              		.cfi_startproc
 6423              		@ args = 0, pretend = 0, frame = 8
 6424              		@ frame_needed = 0, uses_anonymous_args = 0
 6425              	.LVL860:
 6426 0000 70B5     		push	{r4, r5, r6, lr}
 6427              		.cfi_def_cfa_offset 16
 6428              		.cfi_offset 4, -16
 6429              		.cfi_offset 5, -12
 6430              		.cfi_offset 6, -8
 6431              		.cfi_offset 14, -4
 6432 0002 134E     		ldr	r6, .L988
 6433              		.loc 1 4392 0
 6434 0004 4468     		ldr	r4, [r0, #4]
 6435              	.LVL861:
 6436              		.loc 1 4384 0
 6437 0006 3368     		ldr	r3, [r6]
 6438 0008 82B0     		sub	sp, sp, #8
 6439              		.cfi_def_cfa_offset 24
 6440              		.loc 1 4393 0
 6441 000a 002C     		cmp	r4, #0
ARM GAS  C:\Users\Moi\AppData\Local\Temp\ccqw64Tg.s 			page 114


 6442              		.loc 1 4384 0
 6443 000c 0193     		str	r3, [sp, #4]
 6444              		.loc 1 4393 0
 6445 000e 09DB     		blt	.L980
 6446              		.loc 1 4422 0
 6447 0010 0319     		adds	r3, r0, r4
 6448 0012 0134     		adds	r4, r4, #1
 6449              	.LVL862:
 6450              		.loc 1 4425 0
 6451 0014 3C2C     		cmp	r4, #60
 6452 0016 0546     		mov	r5, r0
 6453              		.loc 1 4422 0
 6454 0018 1973     		strb	r1, [r3, #12]
 6455              		.loc 1 4425 0
 6456 001a 09DC     		bgt	.L986
 6457              	.LVL863:
 6458              	.L982:
 6459              		.loc 1 4430 0
 6460 001c AB68     		ldr	r3, [r5, #8]
 6461              		.loc 1 4429 0
 6462 001e 6C60     		str	r4, [r5, #4]
 6463              		.loc 1 4430 0
 6464 0020 0133     		adds	r3, r3, #1
 6465 0022 AB60     		str	r3, [r5, #8]
 6466              	.LVL864:
 6467              	.L980:
 6468              		.loc 1 4431 0
 6469 0024 019A     		ldr	r2, [sp, #4]
 6470 0026 3368     		ldr	r3, [r6]
 6471 0028 9A42     		cmp	r2, r3
 6472 002a 0ED1     		bne	.L987
 6473 002c 02B0     		add	sp, sp, #8
 6474              		.cfi_remember_state
 6475              		.cfi_def_cfa_offset 16
 6476              		@ sp needed
 6477 002e 70BD     		pop	{r4, r5, r6, pc}
 6478              	.LVL865:
 6479              	.L986:
 6480              		.cfi_restore_state
 6481              		.loc 1 4426 0
 6482 0030 6B46     		mov	r3, sp
 6483 0032 2246     		mov	r2, r4
 6484 0034 00F10C01 		add	r1, r0, #12
 6485              	.LVL866:
 6486 0038 0068     		ldr	r0, [r0]
 6487              	.LVL867:
 6488 003a FFF7FEFF 		bl	f_write
 6489              	.LVL868:
 6490              		.loc 1 4427 0
 6491 003e 009B     		ldr	r3, [sp]
 6492 0040 1C1B     		subs	r4, r3, r4
 6493              	.LVL869:
 6494 0042 18BF     		it	ne
 6495 0044 4FF0FF34 		movne	r4, #-1
 6496 0048 E8E7     		b	.L982
 6497              	.LVL870:
 6498              	.L987:
ARM GAS  C:\Users\Moi\AppData\Local\Temp\ccqw64Tg.s 			page 115


 6499              		.loc 1 4431 0
 6500 004a FFF7FEFF 		bl	__stack_chk_fail
 6501              	.LVL871:
 6502              	.L989:
 6503 004e 00BF     		.align	2
 6504              	.L988:
 6505 0050 00000000 		.word	__stack_chk_guard
 6506              		.cfi_endproc
 6507              	.LFE275:
 6508              		.size	putc_bfd, .-putc_bfd
 6509              		.section	.text.f_sync,"ax",%progbits
 6510              		.align	1
 6511              		.p2align 4,,15
 6512              		.global	f_sync
 6513              		.syntax unified
 6514              		.thumb
 6515              		.thumb_func
 6516              		.fpu fpv4-sp-d16
 6517              		.type	f_sync, %function
 6518              	f_sync:
 6519              	.LFB257:
 6520              		.loc 1 2776 0
 6521              		.cfi_startproc
 6522              		@ args = 0, pretend = 0, frame = 8
 6523              		@ frame_needed = 0, uses_anonymous_args = 0
 6524              	.LVL872:
 6525 0000 F0B5     		push	{r4, r5, r6, r7, lr}
 6526              		.cfi_def_cfa_offset 20
 6527              		.cfi_offset 4, -20
 6528              		.cfi_offset 5, -16
 6529              		.cfi_offset 6, -12
 6530              		.cfi_offset 7, -8
 6531              		.cfi_offset 14, -4
 6532 0002 2F4D     		ldr	r5, .L1005
 6533 0004 83B0     		sub	sp, sp, #12
 6534              		.cfi_def_cfa_offset 32
 6535              		.loc 1 2776 0
 6536 0006 2B68     		ldr	r3, [r5]
 6537 0008 0193     		str	r3, [sp, #4]
 6538 000a 0446     		mov	r4, r0
 6539              		.loc 1 2782 0
 6540 000c FFF7FEFF 		bl	validate
 6541              	.LVL873:
 6542              		.loc 1 2783 0
 6543 0010 C0B9     		cbnz	r0, .L991
 6544              		.loc 1 2784 0
 6545 0012 A379     		ldrb	r3, [r4, #6]	@ zero_extendqisi2
 6546 0014 9A06     		lsls	r2, r3, #26
 6547 0016 15D5     		bpl	.L991
 6548              		.loc 1 2787 0
 6549 0018 5B06     		lsls	r3, r3, #25
 6550 001a 2068     		ldr	r0, [r4]
 6551              	.LVL874:
 6552 001c 0DD5     		bpl	.L992
 6553              		.loc 1 2788 0
 6554 001e 4078     		ldrb	r0, [r0, #1]	@ zero_extendqisi2
 6555 0020 A269     		ldr	r2, [r4, #24]
ARM GAS  C:\Users\Moi\AppData\Local\Temp\ccqw64Tg.s 			page 116


 6556 0022 0123     		movs	r3, #1
 6557 0024 04F12801 		add	r1, r4, #40
 6558 0028 FFF7FEFF 		bl	disk_write
 6559              	.LVL875:
 6560 002c 0028     		cmp	r0, #0
 6561 002e 42D1     		bne	.L995
 6562              		.loc 1 2790 0
 6563 0030 A379     		ldrb	r3, [r4, #6]	@ zero_extendqisi2
 6564 0032 2068     		ldr	r0, [r4]
 6565 0034 23F04003 		bic	r3, r3, #64
 6566 0038 A371     		strb	r3, [r4, #6]
 6567              	.L992:
 6568              		.loc 1 2794 0
 6569 003a E169     		ldr	r1, [r4, #28]
 6570 003c FFF7FEFF 		bl	move_window
 6571              	.LVL876:
 6572 0040 0746     		mov	r7, r0
 6573              	.LVL877:
 6574              		.loc 1 2795 0
 6575 0042 28B1     		cbz	r0, .L1004
 6576              	.LVL878:
 6577              	.L991:
 6578              		.loc 1 2811 0
 6579 0044 019A     		ldr	r2, [sp, #4]
 6580 0046 2B68     		ldr	r3, [r5]
 6581 0048 9A42     		cmp	r2, r3
 6582 004a 36D1     		bne	.L1003
 6583 004c 03B0     		add	sp, sp, #12
 6584              		.cfi_remember_state
 6585              		.cfi_def_cfa_offset 20
 6586              		@ sp needed
 6587 004e F0BD     		pop	{r4, r5, r6, r7, pc}
 6588              	.LVL879:
 6589              	.L1004:
 6590              		.cfi_restore_state
 6591              	.LBB490:
 6592              	.LBB491:
 6593              		.loc 1 2796 0
 6594 0050 266A     		ldr	r6, [r4, #32]
 6595              	.LVL880:
 6596              		.loc 1 2797 0
 6597 0052 F37A     		ldrb	r3, [r6, #11]	@ zero_extendqisi2
 6598 0054 43F02003 		orr	r3, r3, #32
 6599 0058 F372     		strb	r3, [r6, #11]
 6600              		.loc 1 2798 0
 6601 005a E368     		ldr	r3, [r4, #12]
 6602 005c 3377     		strb	r3, [r6, #28]
 6603 005e A389     		ldrh	r3, [r4, #12]
 6604 0060 1B0A     		lsrs	r3, r3, #8
 6605 0062 7377     		strb	r3, [r6, #29]
 6606 0064 E389     		ldrh	r3, [r4, #14]
 6607 0066 B377     		strb	r3, [r6, #30]
 6608 0068 E37B     		ldrb	r3, [r4, #15]	@ zero_extendqisi2
 6609 006a F377     		strb	r3, [r6, #31]
 6610              		.loc 1 2799 0
 6611 006c 2369     		ldr	r3, [r4, #16]
 6612              	.LVL881:
ARM GAS  C:\Users\Moi\AppData\Local\Temp\ccqw64Tg.s 			page 117


 6613              	.LBB492:
 6614              	.LBB493:
 6615              		.loc 1 1292 0
 6616 006e B376     		strb	r3, [r6, #26]
 6617              		.loc 1 1293 0
 6618 0070 1A0C     		lsrs	r2, r3, #16
 6619 0072 110A     		lsrs	r1, r2, #8
 6620              		.loc 1 1292 0
 6621 0074 C3F30723 		ubfx	r3, r3, #8, #8
 6622              	.LVL882:
 6623 0078 F376     		strb	r3, [r6, #27]
 6624              		.loc 1 1293 0
 6625 007a 3275     		strb	r2, [r6, #20]
 6626 007c 7175     		strb	r1, [r6, #21]
 6627              	.LVL883:
 6628              	.LBE493:
 6629              	.LBE492:
 6630              		.loc 1 2800 0
 6631 007e FFF7FEFF 		bl	get_fattime
 6632              	.LVL884:
 6633              		.loc 1 2801 0
 6634 0082 B075     		strb	r0, [r6, #22]
 6635 0084 C0F30722 		ubfx	r2, r0, #8, #8
 6636 0088 030C     		lsrs	r3, r0, #16
 6637 008a 000E     		lsrs	r0, r0, #24
 6638              	.LVL885:
 6639 008c F275     		strb	r2, [r6, #23]
 6640              		.loc 1 2802 0
 6641 008e B774     		strb	r7, [r6, #18]
 6642 0090 F774     		strb	r7, [r6, #19]
 6643              		.loc 1 2801 0
 6644 0092 3376     		strb	r3, [r6, #24]
 6645 0094 7076     		strb	r0, [r6, #25]
 6646              		.loc 1 2803 0
 6647 0096 A379     		ldrb	r3, [r4, #6]	@ zero_extendqisi2
 6648              		.loc 1 2805 0
 6649 0098 0199     		ldr	r1, [sp, #4]
 6650 009a 2A68     		ldr	r2, [r5]
 6651              		.loc 1 2804 0
 6652 009c 2068     		ldr	r0, [r4]
 6653              		.loc 1 2803 0
 6654 009e 23F02003 		bic	r3, r3, #32
 6655              		.loc 1 2804 0
 6656 00a2 0125     		movs	r5, #1
 6657              		.loc 1 2805 0
 6658 00a4 9142     		cmp	r1, r2
 6659              		.loc 1 2803 0
 6660 00a6 A371     		strb	r3, [r4, #6]
 6661              		.loc 1 2804 0
 6662 00a8 0571     		strb	r5, [r0, #4]
 6663              		.loc 1 2805 0
 6664 00aa 06D1     		bne	.L1003
 6665              	.LBE491:
 6666              	.LBE490:
 6667              		.loc 1 2811 0
 6668 00ac 03B0     		add	sp, sp, #12
 6669              		.cfi_remember_state
ARM GAS  C:\Users\Moi\AppData\Local\Temp\ccqw64Tg.s 			page 118


 6670              		.cfi_def_cfa_offset 20
 6671              		@ sp needed
 6672 00ae BDE8F040 		pop	{r4, r5, r6, r7, lr}
 6673              		.cfi_restore 14
 6674              		.cfi_restore 7
 6675              		.cfi_restore 6
 6676              		.cfi_restore 5
 6677              		.cfi_restore 4
 6678              		.cfi_def_cfa_offset 0
 6679              	.LVL886:
 6680              	.LBB495:
 6681              	.LBB494:
 6682              		.loc 1 2805 0
 6683 00b2 FFF7FEBF 		b	sync_fs
 6684              	.LVL887:
 6685              	.L995:
 6686              		.cfi_restore_state
 6687              	.LBE494:
 6688              	.LBE495:
 6689              		.loc 1 2789 0
 6690 00b6 0120     		movs	r0, #1
 6691 00b8 C4E7     		b	.L991
 6692              	.L1003:
 6693              		.loc 1 2811 0
 6694 00ba FFF7FEFF 		bl	__stack_chk_fail
 6695              	.LVL888:
 6696              	.L1006:
 6697 00be 00BF     		.align	2
 6698              	.L1005:
 6699 00c0 00000000 		.word	__stack_chk_guard
 6700              		.cfi_endproc
 6701              	.LFE257:
 6702              		.size	f_sync, .-f_sync
 6703              		.section	.text.f_close,"ax",%progbits
 6704              		.align	1
 6705              		.p2align 4,,15
 6706              		.global	f_close
 6707              		.syntax unified
 6708              		.thumb
 6709              		.thumb_func
 6710              		.fpu fpv4-sp-d16
 6711              		.type	f_close, %function
 6712              	f_close:
 6713              	.LFB258:
 6714              		.loc 1 2825 0
 6715              		.cfi_startproc
 6716              		@ args = 0, pretend = 0, frame = 8
 6717              		@ frame_needed = 0, uses_anonymous_args = 0
 6718              	.LVL889:
 6719 0000 30B5     		push	{r4, r5, lr}
 6720              		.cfi_def_cfa_offset 12
 6721              		.cfi_offset 4, -12
 6722              		.cfi_offset 5, -8
 6723              		.cfi_offset 14, -4
 6724 0002 0B4C     		ldr	r4, .L1013
 6725 0004 83B0     		sub	sp, sp, #12
 6726              		.cfi_def_cfa_offset 24
ARM GAS  C:\Users\Moi\AppData\Local\Temp\ccqw64Tg.s 			page 119


 6727              		.loc 1 2825 0
 6728 0006 2368     		ldr	r3, [r4]
 6729 0008 0193     		str	r3, [sp, #4]
 6730 000a 0546     		mov	r5, r0
 6731              		.loc 1 2830 0
 6732 000c FFF7FEFF 		bl	f_sync
 6733              	.LVL890:
 6734              		.loc 1 2831 0
 6735 0010 28B1     		cbz	r0, .L1011
 6736              	.L1008:
 6737              		.loc 1 2850 0
 6738 0012 019A     		ldr	r2, [sp, #4]
 6739 0014 2368     		ldr	r3, [r4]
 6740 0016 9A42     		cmp	r2, r3
 6741 0018 08D1     		bne	.L1012
 6742 001a 03B0     		add	sp, sp, #12
 6743              		.cfi_remember_state
 6744              		.cfi_def_cfa_offset 12
 6745              		@ sp needed
 6746 001c 30BD     		pop	{r4, r5, pc}
 6747              	.LVL891:
 6748              	.L1011:
 6749              		.cfi_restore_state
 6750              		.loc 1 2834 0
 6751 001e 2846     		mov	r0, r5
 6752              	.LVL892:
 6753 0020 FFF7FEFF 		bl	validate
 6754              	.LVL893:
 6755              		.loc 1 2835 0
 6756 0024 0028     		cmp	r0, #0
 6757 0026 F4D1     		bne	.L1008
 6758              		.loc 1 2843 0
 6759 0028 2860     		str	r0, [r5]
 6760 002a F2E7     		b	.L1008
 6761              	.L1012:
 6762              		.loc 1 2850 0
 6763 002c FFF7FEFF 		bl	__stack_chk_fail
 6764              	.LVL894:
 6765              	.L1014:
 6766              		.align	2
 6767              	.L1013:
 6768 0030 00000000 		.word	__stack_chk_guard
 6769              		.cfi_endproc
 6770              	.LFE258:
 6771              		.size	f_close, .-f_close
 6772              		.section	.text.f_lseek,"ax",%progbits
 6773              		.align	1
 6774              		.p2align 4,,15
 6775              		.global	f_lseek
 6776              		.syntax unified
 6777              		.thumb
 6778              		.thumb_func
 6779              		.fpu fpv4-sp-d16
 6780              		.type	f_lseek, %function
 6781              	f_lseek:
 6782              	.LFB259:
 6783              		.loc 1 2998 0
ARM GAS  C:\Users\Moi\AppData\Local\Temp\ccqw64Tg.s 			page 120


 6784              		.cfi_startproc
 6785              		@ args = 0, pretend = 0, frame = 16
 6786              		@ frame_needed = 0, uses_anonymous_args = 0
 6787              	.LVL895:
 6788 0000 2DE9F04F 		push	{r4, r5, r6, r7, r8, r9, r10, fp, lr}
 6789              		.cfi_def_cfa_offset 36
 6790              		.cfi_offset 4, -36
 6791              		.cfi_offset 5, -32
 6792              		.cfi_offset 6, -28
 6793              		.cfi_offset 7, -24
 6794              		.cfi_offset 8, -20
 6795              		.cfi_offset 9, -16
 6796              		.cfi_offset 10, -12
 6797              		.cfi_offset 11, -8
 6798              		.cfi_offset 14, -4
 6799 0004 AF4E     		ldr	r6, .L1100
 6800 0006 85B0     		sub	sp, sp, #20
 6801              		.cfi_def_cfa_offset 56
 6802              		.loc 1 2998 0
 6803 0008 3368     		ldr	r3, [r6]
 6804 000a 0393     		str	r3, [sp, #12]
 6805 000c 0F46     		mov	r7, r1
 6806 000e 0446     		mov	r4, r0
 6807              		.loc 1 3002 0
 6808 0010 FFF7FEFF 		bl	validate
 6809              	.LVL896:
 6810              		.loc 1 3003 0
 6811 0014 0546     		mov	r5, r0
 6812 0016 0028     		cmp	r0, #0
 6813 0018 5CD1     		bne	.L1016
 6814              		.loc 1 3004 0
 6815 001a E379     		ldrb	r3, [r4, #7]	@ zero_extendqisi2
 6816 001c 002B     		cmp	r3, #0
 6817 001e 62D1     		bne	.L1052
 6818              		.loc 1 3008 0
 6819 0020 626A     		ldr	r2, [r4, #36]
 6820 0022 002A     		cmp	r2, #0
 6821 0024 00F08980 		beq	.L1017
 6822              	.LBB496:
 6823              		.loc 1 3011 0
 6824 0028 7B1C     		adds	r3, r7, #1
 6825 002a 5ED0     		beq	.L1095
 6826 002c E368     		ldr	r3, [r4, #12]
 6827 002e 9F42     		cmp	r7, r3
 6828 0030 28BF     		it	cs
 6829 0032 1F46     		movcs	r7, r3
 6830              	.LVL897:
 6831              		.loc 1 3039 0
 6832 0034 A760     		str	r7, [r4, #8]
 6833              		.loc 1 3040 0
 6834 0036 002F     		cmp	r7, #0
 6835 0038 4CD0     		beq	.L1016
 6836 003a D4F800E0 		ldr	lr, [r4]
 6837              	.LVL898:
 6838              	.LBB497:
 6839              	.LBB498:
 6840              		.loc 1 1100 0
ARM GAS  C:\Users\Moi\AppData\Local\Temp\ccqw64Tg.s 			page 121


 6841 003e 5368     		ldr	r3, [r2, #4]
 6842              		.loc 1 1098 0
 6843 0040 9EF80200 		ldrb	r0, [lr, #2]	@ zero_extendqisi2
 6844              	.LVL899:
 6845              	.LBE498:
 6846              	.LBE497:
 6847              		.loc 1 3041 0
 6848 0044 07F1FF3C 		add	ip, r7, #-1
 6849              	.LVL900:
 6850              	.LBB501:
 6851              	.LBB499:
 6852              		.loc 1 1098 0
 6853 0048 4FEA5C2C 		lsr	ip, ip, #9
 6854              	.LVL901:
 6855              		.loc 1 1097 0
 6856 004c 0432     		adds	r2, r2, #4
 6857              	.LVL902:
 6858              		.loc 1 1098 0
 6859 004e BCFBF0F1 		udiv	r1, ip, r0
 6860              	.LVL903:
 6861              		.loc 1 1101 0
 6862 0052 53B1     		cbz	r3, .L1056
 6863              		.loc 1 1102 0
 6864 0054 9942     		cmp	r1, r3
 6865 0056 03D2     		bcs	.L1031
 6866 0058 CFE0     		b	.L1030
 6867              	.LVL904:
 6868              	.L1092:
 6869 005a 8B42     		cmp	r3, r1
 6870 005c 00F2CD80 		bhi	.L1030
 6871              	.LVL905:
 6872              	.L1031:
 6873              		.loc 1 1103 0
 6874 0060 C91A     		subs	r1, r1, r3
 6875              	.LVL906:
 6876              		.loc 1 1100 0
 6877 0062 52F8083F 		ldr	r3, [r2, #8]!
 6878              	.LVL907:
 6879              		.loc 1 1101 0
 6880 0066 002B     		cmp	r3, #0
 6881 0068 F7D1     		bne	.L1092
 6882              	.LVL908:
 6883              	.L1056:
 6884 006a 6FF00102 		mvn	r2, #1
 6885              	.L1029:
