ARM GAS  C:\Users\Moi\AppData\Local\Temp\ccjUpOcO.s 			page 1


   1              		.cpu cortex-m4
   2              		.eabi_attribute 27, 1
   3              		.eabi_attribute 28, 1
   4              		.eabi_attribute 20, 1
   5              		.eabi_attribute 21, 1
   6              		.eabi_attribute 23, 3
   7              		.eabi_attribute 24, 1
   8              		.eabi_attribute 25, 1
   9              		.eabi_attribute 26, 1
  10              		.eabi_attribute 30, 2
  11              		.eabi_attribute 34, 1
  12              		.eabi_attribute 18, 4
  13              		.file	"i2c.c"
  14              		.text
  15              	.Ltext0:
  16              		.cfi_sections	.debug_frame
  17              		.section	.text.i2cInit,"ax",%progbits
  18              		.align	1
  19              		.p2align 4,,15
  20              		.global	i2cInit
  21              		.syntax unified
  22              		.thumb
  23              		.thumb_func
  24              		.fpu fpv4-sp-d16
  25              		.type	i2cInit, %function
  26              	i2cInit:
  27              	.LFB256:
  28              		.file 1 "..//ChibiOS//os/hal/src/i2c.c"
  29              		.loc 1 59 0
  30              		.cfi_startproc
  31              		@ args = 0, pretend = 0, frame = 8
  32              		@ frame_needed = 0, uses_anonymous_args = 0
  33 0000 00B5     		push	{lr}
  34              		.cfi_def_cfa_offset 4
  35              		.cfi_offset 14, -4
  36 0002 074B     		ldr	r3, .L7
  37 0004 83B0     		sub	sp, sp, #12
  38              		.cfi_def_cfa_offset 16
  39              		.loc 1 59 0
  40 0006 1A68     		ldr	r2, [r3]
  41 0008 0192     		str	r2, [sp, #4]
  42              		.loc 1 61 0
  43 000a 019A     		ldr	r2, [sp, #4]
  44 000c 1B68     		ldr	r3, [r3]
  45 000e 9A42     		cmp	r2, r3
  46 0010 04D1     		bne	.L6
  47              		.loc 1 62 0
  48 0012 03B0     		add	sp, sp, #12
  49              		.cfi_remember_state
  50              		.cfi_def_cfa_offset 4
  51              		@ sp needed
  52 0014 5DF804EB 		ldr	lr, [sp], #4
  53              		.cfi_restore 14
  54              		.cfi_def_cfa_offset 0
  55              		.loc 1 61 0
  56 0018 FFF7FEBF 		b	i2c_lld_init
  57              	.LVL0:
ARM GAS  C:\Users\Moi\AppData\Local\Temp\ccjUpOcO.s 			page 2


  58              	.L6:
  59              		.cfi_restore_state
  60 001c FFF7FEFF 		bl	__stack_chk_fail
  61              	.LVL1:
  62              	.L8:
  63              		.align	2
  64              	.L7:
  65 0020 00000000 		.word	__stack_chk_guard
  66              		.cfi_endproc
  67              	.LFE256:
  68              		.size	i2cInit, .-i2cInit
  69              		.section	.text.i2cObjectInit,"ax",%progbits
  70              		.align	1
  71              		.p2align 4,,15
  72              		.global	i2cObjectInit
  73              		.syntax unified
  74              		.thumb
  75              		.thumb_func
  76              		.fpu fpv4-sp-d16
  77              		.type	i2cObjectInit, %function
  78              	i2cObjectInit:
  79              	.LFB257:
  80              		.loc 1 71 0
  81              		.cfi_startproc
  82              		@ args = 0, pretend = 0, frame = 8
  83              		@ frame_needed = 0, uses_anonymous_args = 0
  84              	.LVL2:
  85 0000 10B5     		push	{r4, lr}
  86              		.cfi_def_cfa_offset 8
  87              		.cfi_offset 4, -8
  88              		.cfi_offset 14, -4
  89 0002 0A4B     		ldr	r3, .L14
  90 0004 82B0     		sub	sp, sp, #8
  91              		.cfi_def_cfa_offset 16
  92              		.loc 1 71 0
  93 0006 1A68     		ldr	r2, [r3]
  94 0008 0192     		str	r2, [sp, #4]
  95              	.LBB61:
  96              	.LBB62:
  97              		.file 2 "..//ChibiOS//os/hal/osal/rt/osal.h"
  98              		.loc 2 841 0
  99 000a 019A     		ldr	r2, [sp, #4]
 100 000c 1B68     		ldr	r3, [r3]
 101              	.LBE62:
 102              	.LBE61:
 103              		.loc 1 73 0
 104 000e 0124     		movs	r4, #1
 105              		.loc 1 74 0
 106 0010 0021     		movs	r1, #0
 107              	.LBB66:
 108              	.LBB63:
 109              		.loc 2 841 0
 110 0012 9A42     		cmp	r2, r3
 111              	.LBE63:
 112              	.LBE66:
 113              		.loc 1 73 0
 114 0014 0470     		strb	r4, [r0]
ARM GAS  C:\Users\Moi\AppData\Local\Temp\ccjUpOcO.s 			page 3


 115              		.loc 1 74 0
 116 0016 4160     		str	r1, [r0, #4]
 117              	.LVL3:
 118              	.LBB67:
 119              	.LBB64:
 120              		.loc 2 841 0
 121 0018 05D1     		bne	.L13
 122 001a 0C30     		adds	r0, r0, #12
 123              	.LVL4:
 124              	.LBE64:
 125              	.LBE67:
 126              		.loc 1 83 0
 127 001c 02B0     		add	sp, sp, #8
 128              		.cfi_remember_state
 129              		.cfi_def_cfa_offset 8
 130              		@ sp needed
 131 001e BDE81040 		pop	{r4, lr}
 132              		.cfi_restore 14
 133              		.cfi_restore 4
 134              		.cfi_def_cfa_offset 0
 135              	.LBB68:
 136              	.LBB65:
 137              		.loc 2 841 0
 138 0022 FFF7FEBF 		b	chMtxObjectInit
 139              	.LVL5:
 140              	.L13:
 141              		.cfi_restore_state
 142 0026 FFF7FEFF 		bl	__stack_chk_fail
 143              	.LVL6:
 144              	.L15:
 145 002a 00BF     		.align	2
 146              	.L14:
 147 002c 00000000 		.word	__stack_chk_guard
 148              	.LBE65:
 149              	.LBE68:
 150              		.cfi_endproc
 151              	.LFE257:
 152              		.size	i2cObjectInit, .-i2cObjectInit
 153              		.section	.text.i2cStart,"ax",%progbits
 154              		.align	1
 155              		.p2align 4,,15
 156              		.global	i2cStart
 157              		.syntax unified
 158              		.thumb
 159              		.thumb_func
 160              		.fpu fpv4-sp-d16
 161              		.type	i2cStart, %function
 162              	i2cStart:
 163              	.LFB258:
 164              		.loc 1 93 0
 165              		.cfi_startproc
 166              		@ args = 0, pretend = 0, frame = 8
 167              		@ frame_needed = 0, uses_anonymous_args = 0
 168              	.LVL7:
 169 0000 70B5     		push	{r4, r5, r6, lr}
 170              		.cfi_def_cfa_offset 16
 171              		.cfi_offset 4, -16
ARM GAS  C:\Users\Moi\AppData\Local\Temp\ccjUpOcO.s 			page 4


 172              		.cfi_offset 5, -12
 173              		.cfi_offset 6, -8
 174              		.cfi_offset 14, -4
 175 0002 1F4D     		ldr	r5, .L31
 176 0004 82B0     		sub	sp, sp, #8
 177              		.cfi_def_cfa_offset 24
 178              		.loc 1 93 0
 179 0006 2B68     		ldr	r3, [r5]
 180 0008 0193     		str	r3, [sp, #4]
 181 000a 0E46     		mov	r6, r1
 182              		.loc 1 95 0
 183 000c 0446     		mov	r4, r0
 184 000e 80B3     		cbz	r0, .L17
 185              		.loc 1 95 0 is_stmt 0 discriminator 3
 186 0010 79B3     		cbz	r1, .L17
 187              	.LVL8:
 188              	.L18:
 189              		.loc 1 96 0 is_stmt 1 discriminator 1
 190 0012 2378     		ldrb	r3, [r4]	@ zero_extendqisi2
 191 0014 5A1E     		subs	r2, r3, #1
 192 0016 012A     		cmp	r2, #1
 193 0018 04D9     		bls	.L19
 194              		.loc 1 96 0 is_stmt 0 discriminator 2
 195 001a 052B     		cmp	r3, #5
 196 001c 02D0     		beq	.L19
 197              		.loc 1 96 0 discriminator 3
 198 001e 1948     		ldr	r0, .L31+4
 199 0020 FFF7FEFF 		bl	chSysHalt
 200              	.LVL9:
 201              	.L19:
 202              	.LBB82:
 203              	.LBB83:
 204              	.LBB84:
 205              	.LBB85:
 206              	.LBB86:
 207              	.LBB87:
 208              		.file 3 "..//ChibiOS//os/ext/CMSIS/include/core_cmFunc.h"
 209              		.loc 3 546 0 is_stmt 1
 210 0024 2023     		movs	r3, #32
 211              		.syntax unified
 212              	@ 546 "..//ChibiOS//os/ext/CMSIS/include/core_cmFunc.h" 1
 213 0026 83F31188 		MSR basepri, r3
 214              	@ 0 "" 2
 215              	.LVL10:
 216              		.thumb
 217              		.syntax unified
 218              	.LBE87:
 219              	.LBE86:
 220              	.LBE85:
 221              		.file 4 "..//ChibiOS//os/rt/include/chsys.h"
 222              		.loc 4 349 0
 223 002a FFF7FEFF 		bl	_stats_start_measure_crit_thd
 224              	.LVL11:
 225              		.loc 4 350 0
 226 002e FFF7FEFF 		bl	_dbg_check_lock
 227              	.LVL12:
 228              	.LBE84:
ARM GAS  C:\Users\Moi\AppData\Local\Temp\ccjUpOcO.s 			page 5


 229              	.LBE83:
 230              	.LBE82:
 231              		.loc 1 101 0
 232 0032 2046     		mov	r0, r4
 233              		.loc 1 100 0
 234 0034 6660     		str	r6, [r4, #4]
 235              		.loc 1 101 0
 236 0036 FFF7FEFF 		bl	i2c_lld_start
 237              	.LVL13:
 238              		.loc 1 102 0
 239 003a 0223     		movs	r3, #2
 240 003c 2370     		strb	r3, [r4]
 241              	.LBB88:
 242              	.LBB89:
 243              	.LBB90:
 244              		.loc 4 360 0
 245 003e FFF7FEFF 		bl	_dbg_check_unlock
 246              	.LVL14:
 247              		.loc 4 361 0
 248 0042 FFF7FEFF 		bl	_stats_stop_measure_crit_thd
 249              	.LVL15:
 250              		.loc 4 367 0
 251 0046 104B     		ldr	r3, .L31+8
 252 0048 1A68     		ldr	r2, [r3]
 253 004a 9A42     		cmp	r2, r3
 254 004c 04D0     		beq	.L20
 255 004e 9969     		ldr	r1, [r3, #24]
 256 0050 9368     		ldr	r3, [r2, #8]
 257 0052 8A68     		ldr	r2, [r1, #8]
 258 0054 9A42     		cmp	r2, r3
 259 0056 08D3     		bcc	.L29
 260              	.L20:
 261              	.LVL16:
 262              	.LBB91:
 263              	.LBB92:
 264              	.LBB93:
 265              		.loc 3 546 0
 266 0058 0023     		movs	r3, #0
 267              		.syntax unified
 268              	@ 546 "..//ChibiOS//os/ext/CMSIS/include/core_cmFunc.h" 1
 269 005a 83F31188 		MSR basepri, r3
 270              	@ 0 "" 2
 271              	.LVL17:
 272              		.thumb
 273              		.syntax unified
 274              	.LBE93:
 275              	.LBE92:
 276              	.LBE91:
 277              	.LBE90:
 278              	.LBE89:
 279              	.LBE88:
 280              		.loc 1 104 0
 281 005e 019A     		ldr	r2, [sp, #4]
 282 0060 2B68     		ldr	r3, [r5]
 283 0062 9A42     		cmp	r2, r3
 284 0064 09D1     		bne	.L30
 285 0066 02B0     		add	sp, sp, #8
ARM GAS  C:\Users\Moi\AppData\Local\Temp\ccjUpOcO.s 			page 6


 286              		.cfi_remember_state
 287              		.cfi_def_cfa_offset 16
 288              		@ sp needed
 289 0068 70BD     		pop	{r4, r5, r6, pc}
 290              	.LVL18:
 291              	.L29:
 292              		.cfi_restore_state
 293              	.LBB96:
 294              	.LBB95:
 295              	.LBB94:
 296              		.loc 4 367 0
 297 006a 0848     		ldr	r0, .L31+12
 298 006c FFF7FEFF 		bl	chSysHalt
 299              	.LVL19:
 300 0070 F2E7     		b	.L20
 301              	.LVL20:
 302              	.L17:
 303              	.LBE94:
 304              	.LBE95:
 305              	.LBE96:
 306              		.loc 1 95 0 discriminator 4
 307 0072 0448     		ldr	r0, .L31+4
 308              	.LVL21:
 309 0074 FFF7FEFF 		bl	chSysHalt
 310              	.LVL22:
 311 0078 CBE7     		b	.L18
 312              	.L30:
 313              		.loc 1 104 0
 314 007a FFF7FEFF 		bl	__stack_chk_fail
 315              	.LVL23:
 316              	.L32:
 317 007e 00BF     		.align	2
 318              	.L31:
 319 0080 00000000 		.word	__stack_chk_guard
 320 0084 00000000 		.word	.LANCHOR0
 321 0088 00000000 		.word	ch
 322 008c 00000000 		.word	.LANCHOR1
 323              		.cfi_endproc
 324              	.LFE258:
 325              		.size	i2cStart, .-i2cStart
 326              		.section	.text.i2cStop,"ax",%progbits
 327              		.align	1
 328              		.p2align 4,,15
 329              		.global	i2cStop
 330              		.syntax unified
 331              		.thumb
 332              		.thumb_func
 333              		.fpu fpv4-sp-d16
 334              		.type	i2cStop, %function
 335              	i2cStop:
 336              	.LFB259:
 337              		.loc 1 113 0
 338              		.cfi_startproc
 339              		@ args = 0, pretend = 0, frame = 8
 340              		@ frame_needed = 0, uses_anonymous_args = 0
 341              	.LVL24:
 342 0000 30B5     		push	{r4, r5, lr}
ARM GAS  C:\Users\Moi\AppData\Local\Temp\ccjUpOcO.s 			page 7


 343              		.cfi_def_cfa_offset 12
 344              		.cfi_offset 4, -12
 345              		.cfi_offset 5, -8
 346              		.cfi_offset 14, -4
 347 0002 1D4D     		ldr	r5, .L45
 348 0004 83B0     		sub	sp, sp, #12
 349              		.cfi_def_cfa_offset 24
 350              		.loc 1 113 0
 351 0006 2B68     		ldr	r3, [r5]
 352 0008 0193     		str	r3, [sp, #4]
 353              		.loc 1 115 0
 354 000a 0446     		mov	r4, r0
 355 000c 70B3     		cbz	r0, .L42
 356              	.LVL25:
 357              	.L34:
 358              		.loc 1 116 0 discriminator 1
 359 000e 2378     		ldrb	r3, [r4]	@ zero_extendqisi2
 360 0010 5A1E     		subs	r2, r3, #1
 361 0012 012A     		cmp	r2, #1
 362 0014 04D9     		bls	.L35
 363              		.loc 1 116 0 is_stmt 0 discriminator 2
 364 0016 052B     		cmp	r3, #5
 365 0018 02D0     		beq	.L35
 366              		.loc 1 116 0 discriminator 3
 367 001a 1848     		ldr	r0, .L45+4
 368 001c FFF7FEFF 		bl	chSysHalt
 369              	.LVL26:
 370              	.L35:
 371              	.LBB110:
 372              	.LBB111:
 373              	.LBB112:
 374              	.LBB113:
 375              	.LBB114:
 376              	.LBB115:
 377              		.loc 3 546 0 is_stmt 1
 378 0020 2023     		movs	r3, #32
 379              		.syntax unified
 380              	@ 546 "..//ChibiOS//os/ext/CMSIS/include/core_cmFunc.h" 1
 381 0022 83F31188 		MSR basepri, r3
 382              	@ 0 "" 2
 383              	.LVL27:
 384              		.thumb
 385              		.syntax unified
 386              	.LBE115:
 387              	.LBE114:
 388              	.LBE113:
 389              		.loc 4 349 0
 390 0026 FFF7FEFF 		bl	_stats_start_measure_crit_thd
 391              	.LVL28:
 392              		.loc 4 350 0
 393 002a FFF7FEFF 		bl	_dbg_check_lock
 394              	.LVL29:
 395              	.LBE112:
 396              	.LBE111:
 397              	.LBE110:
 398              		.loc 1 120 0
 399 002e 2046     		mov	r0, r4
ARM GAS  C:\Users\Moi\AppData\Local\Temp\ccjUpOcO.s 			page 8


 400 0030 FFF7FEFF 		bl	i2c_lld_stop
 401              	.LVL30:
 402              		.loc 1 121 0
 403 0034 0123     		movs	r3, #1
 404 0036 2370     		strb	r3, [r4]
 405              	.LBB116:
 406              	.LBB117:
 407              	.LBB118:
 408              		.loc 4 360 0
 409 0038 FFF7FEFF 		bl	_dbg_check_unlock
 410              	.LVL31:
 411              		.loc 4 361 0
 412 003c FFF7FEFF 		bl	_stats_stop_measure_crit_thd
 413              	.LVL32:
 414              		.loc 4 367 0
 415 0040 0F4B     		ldr	r3, .L45+8
 416 0042 1A68     		ldr	r2, [r3]
 417 0044 9A42     		cmp	r2, r3
 418 0046 04D0     		beq	.L36
 419 0048 9969     		ldr	r1, [r3, #24]
 420 004a 9368     		ldr	r3, [r2, #8]
 421 004c 8A68     		ldr	r2, [r1, #8]
 422 004e 9A42     		cmp	r2, r3
 423 0050 08D3     		bcc	.L43
 424              	.L36:
 425              	.LVL33:
 426              	.LBB119:
 427              	.LBB120:
 428              	.LBB121:
 429              		.loc 3 546 0
 430 0052 0023     		movs	r3, #0
 431              		.syntax unified
 432              	@ 546 "..//ChibiOS//os/ext/CMSIS/include/core_cmFunc.h" 1
 433 0054 83F31188 		MSR basepri, r3
 434              	@ 0 "" 2
 435              	.LVL34:
 436              		.thumb
 437              		.syntax unified
 438              	.LBE121:
 439              	.LBE120:
 440              	.LBE119:
 441              	.LBE118:
 442              	.LBE117:
 443              	.LBE116:
 444              		.loc 1 123 0
 445 0058 019A     		ldr	r2, [sp, #4]
 446 005a 2B68     		ldr	r3, [r5]
 447 005c 9A42     		cmp	r2, r3
 448 005e 09D1     		bne	.L44
 449 0060 03B0     		add	sp, sp, #12
 450              		.cfi_remember_state
 451              		.cfi_def_cfa_offset 12
 452              		@ sp needed
 453 0062 30BD     		pop	{r4, r5, pc}
 454              	.LVL35:
 455              	.L43:
 456              		.cfi_restore_state
ARM GAS  C:\Users\Moi\AppData\Local\Temp\ccjUpOcO.s 			page 9


 457              	.LBB124:
 458              	.LBB123:
 459              	.LBB122:
 460              		.loc 4 367 0
 461 0064 0748     		ldr	r0, .L45+12
 462 0066 FFF7FEFF 		bl	chSysHalt
 463              	.LVL36:
 464 006a F2E7     		b	.L36
 465              	.LVL37:
 466              	.L42:
 467              	.LBE122:
 468              	.LBE123:
 469              	.LBE124:
 470              		.loc 1 115 0 discriminator 2
 471 006c 0348     		ldr	r0, .L45+4
 472              	.LVL38:
 473 006e FFF7FEFF 		bl	chSysHalt
 474              	.LVL39:
 475 0072 CCE7     		b	.L34
 476              	.L44:
 477              		.loc 1 123 0
 478 0074 FFF7FEFF 		bl	__stack_chk_fail
 479              	.LVL40:
 480              	.L46:
 481              		.align	2
 482              	.L45:
 483 0078 00000000 		.word	__stack_chk_guard
 484 007c 00000000 		.word	.LANCHOR2
 485 0080 00000000 		.word	ch
 486 0084 00000000 		.word	.LANCHOR1
 487              		.cfi_endproc
 488              	.LFE259:
 489              		.size	i2cStop, .-i2cStop
 490              		.section	.text.i2cGetErrors,"ax",%progbits
 491              		.align	1
 492              		.p2align 4,,15
 493              		.global	i2cGetErrors
 494              		.syntax unified
 495              		.thumb
 496              		.thumb_func
 497              		.fpu fpv4-sp-d16
 498              		.type	i2cGetErrors, %function
 499              	i2cGetErrors:
 500              	.LFB260:
 501              		.loc 1 133 0
 502              		.cfi_startproc
 503              		@ args = 0, pretend = 0, frame = 8
 504              		@ frame_needed = 0, uses_anonymous_args = 0
 505              	.LVL41:
 506 0000 30B5     		push	{r4, r5, lr}
 507              		.cfi_def_cfa_offset 12
 508              		.cfi_offset 4, -12
 509              		.cfi_offset 5, -8
 510              		.cfi_offset 14, -4
 511 0002 094D     		ldr	r5, .L53
 512 0004 83B0     		sub	sp, sp, #12
 513              		.cfi_def_cfa_offset 24
ARM GAS  C:\Users\Moi\AppData\Local\Temp\ccjUpOcO.s 			page 10


 514              		.loc 1 133 0
 515 0006 2B68     		ldr	r3, [r5]
 516 0008 0193     		str	r3, [sp, #4]
 517              		.loc 1 135 0
 518 000a 0446     		mov	r4, r0
 519 000c 30B1     		cbz	r0, .L51
 520              	.LVL42:
 521              	.L48:
 522              		.loc 1 138 0
 523 000e 019A     		ldr	r2, [sp, #4]
 524 0010 2B68     		ldr	r3, [r5]
 525 0012 A068     		ldr	r0, [r4, #8]
 526 0014 9A42     		cmp	r2, r3
 527 0016 05D1     		bne	.L52
 528 0018 03B0     		add	sp, sp, #12
 529              		.cfi_remember_state
 530              		.cfi_def_cfa_offset 12
 531              		@ sp needed
 532 001a 30BD     		pop	{r4, r5, pc}
 533              	.LVL43:
 534              	.L51:
 535              		.cfi_restore_state
 536              		.loc 1 135 0 discriminator 2
 537 001c 0348     		ldr	r0, .L53+4
 538              	.LVL44:
 539 001e FFF7FEFF 		bl	chSysHalt
 540              	.LVL45:
 541 0022 F4E7     		b	.L48
 542              	.L52:
 543              		.loc 1 138 0
 544 0024 FFF7FEFF 		bl	__stack_chk_fail
 545              	.LVL46:
 546              	.L54:
 547              		.align	2
 548              	.L53:
 549 0028 00000000 		.word	__stack_chk_guard
 550 002c 00000000 		.word	.LANCHOR3
 551              		.cfi_endproc
 552              	.LFE260:
 553              		.size	i2cGetErrors, .-i2cGetErrors
 554              		.section	.text.i2cMasterTransmitTimeout,"ax",%progbits
 555              		.align	1
 556              		.p2align 4,,15
 557              		.global	i2cMasterTransmitTimeout
 558              		.syntax unified
 559              		.thumb
 560              		.thumb_func
 561              		.fpu fpv4-sp-d16
 562              		.type	i2cMasterTransmitTimeout, %function
 563              	i2cMasterTransmitTimeout:
 564              	.LFB261:
 565              		.loc 1 172 0
 566              		.cfi_startproc
 567              		@ args = 12, pretend = 0, frame = 8
 568              		@ frame_needed = 0, uses_anonymous_args = 0
 569              	.LVL47:
 570 0000 2DE9F04F 		push	{r4, r5, r6, r7, r8, r9, r10, fp, lr}
ARM GAS  C:\Users\Moi\AppData\Local\Temp\ccjUpOcO.s 			page 11


 571              		.cfi_def_cfa_offset 36
 572              		.cfi_offset 4, -36
 573              		.cfi_offset 5, -32
 574              		.cfi_offset 6, -28
 575              		.cfi_offset 7, -24
 576              		.cfi_offset 8, -20
 577              		.cfi_offset 9, -16
 578              		.cfi_offset 10, -12
 579              		.cfi_offset 11, -8
 580              		.cfi_offset 14, -4
 581 0004 304E     		ldr	r6, .L89
 582 0006 87B0     		sub	sp, sp, #28
 583              		.cfi_def_cfa_offset 64
 584              		.loc 1 172 0
 585 0008 3468     		ldr	r4, [r6]
 586 000a 0594     		str	r4, [sp, #20]
 587 000c DDF840B0 		ldr	fp, [sp, #64]
 588 0010 0D46     		mov	r5, r1
 589 0012 9046     		mov	r8, r2
 590 0014 1F46     		mov	r7, r3
 591 0016 DDE9119A 		ldrd	r9, r10, [sp, #68]
 592              		.loc 1 175 0
 593 001a 0446     		mov	r4, r0
 594 001c 08B1     		cbz	r0, .L56
 595              		.loc 1 175 0 is_stmt 0 discriminator 3
 596 001e 0029     		cmp	r1, #0
 597 0020 3DD1     		bne	.L86
 598              	.L56:
 599              		.loc 1 175 0 discriminator 14
 600 0022 2A48     		ldr	r0, .L89+4
 601              	.LVL48:
 602 0024 FFF7FEFF 		bl	chSysHalt
 603              	.LVL49:
 604              	.L58:
 605              		.loc 1 180 0 is_stmt 1 discriminator 1
 606 0028 2378     		ldrb	r3, [r4]	@ zero_extendqisi2
 607 002a 022B     		cmp	r3, #2
 608 002c 02D0     		beq	.L59
 609              		.loc 1 180 0 is_stmt 0 discriminator 2
 610 002e 2748     		ldr	r0, .L89+4
 611 0030 FFF7FEFF 		bl	chSysHalt
 612              	.LVL50:
 613              	.L59:
 614              	.LBB138:
 615              	.LBB139:
 616              	.LBB140:
 617              	.LBB141:
 618              	.LBB142:
 619              	.LBB143:
 620              		.loc 3 546 0 is_stmt 1
 621 0034 2023     		movs	r3, #32
 622              		.syntax unified
 623              	@ 546 "..//ChibiOS//os/ext/CMSIS/include/core_cmFunc.h" 1
 624 0036 83F31188 		MSR basepri, r3
 625              	@ 0 "" 2
 626              	.LVL51:
 627              		.thumb
ARM GAS  C:\Users\Moi\AppData\Local\Temp\ccjUpOcO.s 			page 12


 628              		.syntax unified
 629              	.LBE143:
 630              	.LBE142:
 631              	.LBE141:
 632              		.loc 4 349 0
 633 003a FFF7FEFF 		bl	_stats_start_measure_crit_thd
 634              	.LVL52:
 635              		.loc 4 350 0
 636 003e FFF7FEFF 		bl	_dbg_check_lock
 637              	.LVL53:
 638              	.LBE140:
 639              	.LBE139:
 640              	.LBE138:
 641              		.loc 1 183 0
 642 0042 4FF0000C 		mov	ip, #0
 643              		.loc 1 184 0
 644 0046 0320     		movs	r0, #3
 645              		.loc 1 183 0
 646 0048 C4F808C0 		str	ip, [r4, #8]
 647              		.loc 1 185 0
 648 004c 4246     		mov	r2, r8
 649 004e 2946     		mov	r1, r5
 650              		.loc 1 184 0
 651 0050 2070     		strb	r0, [r4]
 652              		.loc 1 185 0
 653 0052 3B46     		mov	r3, r7
 654 0054 2046     		mov	r0, r4
 655 0056 CDE9019A 		strd	r9, r10, [sp, #4]
 656 005a CDF800B0 		str	fp, [sp]
 657 005e FFF7FEFF 		bl	i2c_lld_master_transmit_timeout
 658              	.LVL54:
 659              		.loc 1 187 0
 660 0062 431C     		adds	r3, r0, #1
 661              		.loc 1 188 0
 662 0064 0CBF     		ite	eq
 663 0066 0523     		moveq	r3, #5
 664              		.loc 1 191 0
 665 0068 0223     		movne	r3, #2
 666 006a 2370     		strb	r3, [r4]
 667              		.loc 1 185 0
 668 006c 0546     		mov	r5, r0
 669              	.LVL55:
 670              	.LBB144:
 671              	.LBB145:
 672              	.LBB146:
 673              		.loc 4 360 0
 674 006e FFF7FEFF 		bl	_dbg_check_unlock
 675              	.LVL56:
 676              		.loc 4 361 0
 677 0072 FFF7FEFF 		bl	_stats_stop_measure_crit_thd
 678              	.LVL57:
 679              		.loc 4 367 0
 680 0076 164B     		ldr	r3, .L89+8
 681 0078 1A68     		ldr	r2, [r3]
 682 007a 9A42     		cmp	r2, r3
 683 007c 04D0     		beq	.L62
 684 007e 9969     		ldr	r1, [r3, #24]
ARM GAS  C:\Users\Moi\AppData\Local\Temp\ccjUpOcO.s 			page 13


 685 0080 9368     		ldr	r3, [r2, #8]
 686 0082 8A68     		ldr	r2, [r1, #8]
 687 0084 9A42     		cmp	r2, r3
 688 0086 18D3     		bcc	.L87
 689              	.L62:
 690              	.LVL58:
 691              	.LBB147:
 692              	.LBB148:
 693              	.LBB149:
 694              		.loc 3 546 0
 695 0088 0023     		movs	r3, #0
 696              		.syntax unified
 697              	@ 546 "..//ChibiOS//os/ext/CMSIS/include/core_cmFunc.h" 1
 698 008a 83F31188 		MSR basepri, r3
 699              	@ 0 "" 2
 700              	.LVL59:
 701              		.thumb
 702              		.syntax unified
 703              	.LBE149:
 704              	.LBE148:
 705              	.LBE147:
 706              	.LBE146:
 707              	.LBE145:
 708              	.LBE144:
 709              		.loc 1 195 0
 710 008e 059A     		ldr	r2, [sp, #20]
 711 0090 3368     		ldr	r3, [r6]
 712 0092 9A42     		cmp	r2, r3
 713 0094 2846     		mov	r0, r5
 714 0096 14D1     		bne	.L88
 715              	.LVL60:
 716 0098 07B0     		add	sp, sp, #28
 717              		.cfi_remember_state
 718              		.cfi_def_cfa_offset 36
 719              		@ sp needed
 720 009a BDE8F08F 		pop	{r4, r5, r6, r7, r8, r9, r10, fp, pc}
 721              	.LVL61:
 722              	.L86:
 723              		.cfi_restore_state
 724              		.loc 1 175 0 discriminator 5
 725 009e 002B     		cmp	r3, #0
 726 00a0 BFD0     		beq	.L56
 727              		.loc 1 175 0 is_stmt 0 discriminator 7
 728 00a2 002A     		cmp	r2, #0
 729 00a4 BDD0     		beq	.L56
 730              		.loc 1 175 0 discriminator 9
 731 00a6 B9F1000F 		cmp	r9, #0
 732 00aa 02D0     		beq	.L57
 733              		.loc 1 175 0 discriminator 10
 734 00ac BBF1000F 		cmp	fp, #0
 735 00b0 B7D0     		beq	.L56
 736              	.L57:
 737              		.loc 1 175 0 discriminator 13
 738 00b2 BAF1000F 		cmp	r10, #0
 739 00b6 B7D1     		bne	.L58
 740 00b8 B3E7     		b	.L56
 741              	.LVL62:
ARM GAS  C:\Users\Moi\AppData\Local\Temp\ccjUpOcO.s 			page 14


 742              	.L87:
 743              	.LBB152:
 744              	.LBB151:
 745              	.LBB150:
 746              		.loc 4 367 0 is_stmt 1
 747 00ba 0648     		ldr	r0, .L89+12
 748 00bc FFF7FEFF 		bl	chSysHalt
 749              	.LVL63:
 750 00c0 E2E7     		b	.L62
 751              	.LVL64:
 752              	.L88:
 753              	.LBE150:
 754              	.LBE151:
 755              	.LBE152:
 756              		.loc 1 195 0
 757 00c2 FFF7FEFF 		bl	__stack_chk_fail
 758              	.LVL65:
 759              	.L90:
 760 00c6 00BF     		.align	2
 761              	.L89:
 762 00c8 00000000 		.word	__stack_chk_guard
 763 00cc 00000000 		.word	.LANCHOR4
 764 00d0 00000000 		.word	ch
 765 00d4 00000000 		.word	.LANCHOR1
 766              		.cfi_endproc
 767              	.LFE261:
 768              		.size	i2cMasterTransmitTimeout, .-i2cMasterTransmitTimeout
 769              		.section	.text.i2cMasterReceiveTimeout,"ax",%progbits
 770              		.align	1
 771              		.p2align 4,,15
 772              		.global	i2cMasterReceiveTimeout
 773              		.syntax unified
 774              		.thumb
 775              		.thumb_func
 776              		.fpu fpv4-sp-d16
 777              		.type	i2cMasterReceiveTimeout, %function
 778              	i2cMasterReceiveTimeout:
 779              	.LFB262:
 780              		.loc 1 221 0
 781              		.cfi_startproc
 782              		@ args = 4, pretend = 0, frame = 8
 783              		@ frame_needed = 0, uses_anonymous_args = 0
 784              	.LVL66:
 785 0000 2DE9F043 		push	{r4, r5, r6, r7, r8, r9, lr}
 786              		.cfi_def_cfa_offset 28
 787              		.cfi_offset 4, -28
 788              		.cfi_offset 5, -24
 789              		.cfi_offset 6, -20
 790              		.cfi_offset 7, -16
 791              		.cfi_offset 8, -12
 792              		.cfi_offset 9, -8
 793              		.cfi_offset 14, -4
 794 0004 2B4E     		ldr	r6, .L118
 795 0006 85B0     		sub	sp, sp, #20
 796              		.cfi_def_cfa_offset 48
 797              		.loc 1 221 0
 798 0008 3468     		ldr	r4, [r6]
ARM GAS  C:\Users\Moi\AppData\Local\Temp\ccjUpOcO.s 			page 15


 799 000a 0394     		str	r4, [sp, #12]
 800 000c DDF83090 		ldr	r9, [sp, #48]
 801 0010 0D46     		mov	r5, r1
 802 0012 9046     		mov	r8, r2
 803 0014 1F46     		mov	r7, r3
 804              		.loc 1 225 0
 805 0016 0446     		mov	r4, r0
 806 0018 08B1     		cbz	r0, .L92
 807              		.loc 1 225 0 is_stmt 0 discriminator 3
 808 001a 0029     		cmp	r1, #0
 809 001c 3BD1     		bne	.L115
 810              	.L92:
 811              		.loc 1 225 0 discriminator 10
 812 001e 2648     		ldr	r0, .L118+4
 813              	.LVL67:
 814 0020 FFF7FEFF 		bl	chSysHalt
 815              	.LVL68:
 816              	.L93:
 817              		.loc 1 229 0 is_stmt 1 discriminator 1
 818 0024 2378     		ldrb	r3, [r4]	@ zero_extendqisi2
 819 0026 022B     		cmp	r3, #2
 820 0028 02D0     		beq	.L94
 821              		.loc 1 229 0 is_stmt 0 discriminator 2
 822 002a 2348     		ldr	r0, .L118+4
 823 002c FFF7FEFF 		bl	chSysHalt
 824              	.LVL69:
 825              	.L94:
 826              	.LBB166:
 827              	.LBB167:
 828              	.LBB168:
 829              	.LBB169:
 830              	.LBB170:
 831              	.LBB171:
 832              		.loc 3 546 0 is_stmt 1
 833 0030 2023     		movs	r3, #32
 834              		.syntax unified
 835              	@ 546 "..//ChibiOS//os/ext/CMSIS/include/core_cmFunc.h" 1
 836 0032 83F31188 		MSR basepri, r3
 837              	@ 0 "" 2
 838              	.LVL70:
 839              		.thumb
 840              		.syntax unified
 841              	.LBE171:
 842              	.LBE170:
 843              	.LBE169:
 844              		.loc 4 349 0
 845 0036 FFF7FEFF 		bl	_stats_start_measure_crit_thd
 846              	.LVL71:
 847              		.loc 4 350 0
 848 003a FFF7FEFF 		bl	_dbg_check_lock
 849              	.LVL72:
 850              	.LBE168:
 851              	.LBE167:
 852              	.LBE166:
 853              		.loc 1 232 0
 854 003e 4FF0000C 		mov	ip, #0
 855              		.loc 1 233 0
ARM GAS  C:\Users\Moi\AppData\Local\Temp\ccjUpOcO.s 			page 16


 856 0042 0420     		movs	r0, #4
 857              		.loc 1 234 0
 858 0044 4246     		mov	r2, r8
 859 0046 2946     		mov	r1, r5
 860              		.loc 1 232 0
 861 0048 C4F808C0 		str	ip, [r4, #8]
 862              		.loc 1 233 0
 863 004c 2070     		strb	r0, [r4]
 864              		.loc 1 234 0
 865 004e 3B46     		mov	r3, r7
 866 0050 2046     		mov	r0, r4
 867 0052 CDF80090 		str	r9, [sp]
 868 0056 FFF7FEFF 		bl	i2c_lld_master_receive_timeout
 869              	.LVL73:
 870              		.loc 1 235 0
 871 005a 431C     		adds	r3, r0, #1
 872              		.loc 1 236 0
 873 005c 0CBF     		ite	eq
 874 005e 0523     		moveq	r3, #5
 875              		.loc 1 239 0
 876 0060 0223     		movne	r3, #2
 877 0062 2370     		strb	r3, [r4]
 878              		.loc 1 234 0
 879 0064 0546     		mov	r5, r0
 880              	.LVL74:
 881              	.LBB172:
 882              	.LBB173:
 883              	.LBB174:
 884              		.loc 4 360 0
 885 0066 FFF7FEFF 		bl	_dbg_check_unlock
 886              	.LVL75:
 887              		.loc 4 361 0
 888 006a FFF7FEFF 		bl	_stats_stop_measure_crit_thd
 889              	.LVL76:
 890              		.loc 4 367 0
 891 006e 134B     		ldr	r3, .L118+8
 892 0070 1A68     		ldr	r2, [r3]
 893 0072 9A42     		cmp	r2, r3
 894 0074 04D0     		beq	.L97
 895 0076 9969     		ldr	r1, [r3, #24]
 896 0078 9368     		ldr	r3, [r2, #8]
 897 007a 8A68     		ldr	r2, [r1, #8]
 898 007c 9A42     		cmp	r2, r3
 899 007e 12D3     		bcc	.L116
 900              	.L97:
 901              	.LVL77:
 902              	.LBB175:
 903              	.LBB176:
 904              	.LBB177:
 905              		.loc 3 546 0
 906 0080 0023     		movs	r3, #0
 907              		.syntax unified
 908              	@ 546 "..//ChibiOS//os/ext/CMSIS/include/core_cmFunc.h" 1
 909 0082 83F31188 		MSR basepri, r3
 910              	@ 0 "" 2
 911              	.LVL78:
 912              		.thumb
ARM GAS  C:\Users\Moi\AppData\Local\Temp\ccjUpOcO.s 			page 17


 913              		.syntax unified
 914              	.LBE177:
 915              	.LBE176:
 916              	.LBE175:
 917              	.LBE174:
 918              	.LBE173:
 919              	.LBE172:
 920              		.loc 1 243 0
 921 0086 039A     		ldr	r2, [sp, #12]
 922 0088 3368     		ldr	r3, [r6]
 923 008a 9A42     		cmp	r2, r3
 924 008c 2846     		mov	r0, r5
 925 008e 0ED1     		bne	.L117
 926              	.LVL79:
 927 0090 05B0     		add	sp, sp, #20
 928              		.cfi_remember_state
 929              		.cfi_def_cfa_offset 28
 930              		@ sp needed
 931 0092 BDE8F083 		pop	{r4, r5, r6, r7, r8, r9, pc}
 932              	.LVL80:
 933              	.L115:
 934              		.cfi_restore_state
 935              		.loc 1 225 0 discriminator 5
 936 0096 002B     		cmp	r3, #0
 937 0098 C1D0     		beq	.L92
 938              		.loc 1 225 0 is_stmt 0 discriminator 7
 939 009a 002A     		cmp	r2, #0
 940 009c BFD0     		beq	.L92
 941              		.loc 1 225 0 discriminator 9
 942 009e B9F1000F 		cmp	r9, #0
 943 00a2 BFD1     		bne	.L93
 944 00a4 BBE7     		b	.L92
 945              	.LVL81:
 946              	.L116:
 947              	.LBB180:
 948              	.LBB179:
 949              	.LBB178:
 950              		.loc 4 367 0 is_stmt 1
 951 00a6 0648     		ldr	r0, .L118+12
 952 00a8 FFF7FEFF 		bl	chSysHalt
 953              	.LVL82:
 954 00ac E8E7     		b	.L97
 955              	.LVL83:
 956              	.L117:
 957              	.LBE178:
 958              	.LBE179:
 959              	.LBE180:
 960              		.loc 1 243 0
 961 00ae FFF7FEFF 		bl	__stack_chk_fail
 962              	.LVL84:
 963              	.L119:
 964 00b2 00BF     		.align	2
 965              	.L118:
 966 00b4 00000000 		.word	__stack_chk_guard
 967 00b8 00000000 		.word	.LANCHOR5
 968 00bc 00000000 		.word	ch
 969 00c0 00000000 		.word	.LANCHOR1
ARM GAS  C:\Users\Moi\AppData\Local\Temp\ccjUpOcO.s 			page 18


 970              		.cfi_endproc
 971              	.LFE262:
 972              		.size	i2cMasterReceiveTimeout, .-i2cMasterReceiveTimeout
 973              		.section	.text.i2cAcquireBus,"ax",%progbits
 974              		.align	1
 975              		.p2align 4,,15
 976              		.global	i2cAcquireBus
 977              		.syntax unified
 978              		.thumb
 979              		.thumb_func
 980              		.fpu fpv4-sp-d16
 981              		.type	i2cAcquireBus, %function
 982              	i2cAcquireBus:
 983              	.LFB263:
 984              		.loc 1 257 0
 985              		.cfi_startproc
 986              		@ args = 0, pretend = 0, frame = 8
 987              		@ frame_needed = 0, uses_anonymous_args = 0
 988              	.LVL85:
 989 0000 30B5     		push	{r4, r5, lr}
 990              		.cfi_def_cfa_offset 12
 991              		.cfi_offset 4, -12
 992              		.cfi_offset 5, -8
 993              		.cfi_offset 14, -4
 994 0002 0B4C     		ldr	r4, .L127
 995 0004 83B0     		sub	sp, sp, #12
 996              		.cfi_def_cfa_offset 24
 997              		.loc 1 257 0
 998 0006 2368     		ldr	r3, [r4]
 999 0008 0193     		str	r3, [sp, #4]
 1000              		.loc 1 259 0
 1001 000a 0546     		mov	r5, r0
 1002 000c 50B1     		cbz	r0, .L125
 1003              	.LVL86:
 1004              	.L121:
 1005              	.LBB181:
 1006              	.LBB182:
 1007              		.loc 2 861 0
 1008 000e 019A     		ldr	r2, [sp, #4]
 1009 0010 2368     		ldr	r3, [r4]
 1010 0012 9A42     		cmp	r2, r3
 1011 0014 0AD1     		bne	.L126
 1012 0016 05F10C00 		add	r0, r5, #12
 1013              	.LVL87:
 1014              	.LBE182:
 1015              	.LBE181:
 1016              		.loc 1 262 0
 1017 001a 03B0     		add	sp, sp, #12
 1018              		.cfi_remember_state
 1019              		.cfi_def_cfa_offset 12
 1020              		@ sp needed
 1021 001c BDE83040 		pop	{r4, r5, lr}
 1022              		.cfi_restore 14
 1023              		.cfi_restore 5
 1024              		.cfi_restore 4
 1025              		.cfi_def_cfa_offset 0
 1026              	.LVL88:
ARM GAS  C:\Users\Moi\AppData\Local\Temp\ccjUpOcO.s 			page 19


 1027              	.LBB185:
 1028              	.LBB183:
 1029              		.loc 2 861 0
 1030 0020 FFF7FEBF 		b	chMtxLock
 1031              	.LVL89:
 1032              	.L125:
 1033              		.cfi_restore_state
 1034              	.LBE183:
 1035              	.LBE185:
 1036              		.loc 1 259 0 discriminator 2
 1037 0024 0348     		ldr	r0, .L127+4
 1038              	.LVL90:
 1039 0026 FFF7FEFF 		bl	chSysHalt
 1040              	.LVL91:
 1041 002a F0E7     		b	.L121
 1042              	.LVL92:
 1043              	.L126:
 1044              	.LBB186:
 1045              	.LBB184:
 1046              		.loc 2 861 0
 1047 002c FFF7FEFF 		bl	__stack_chk_fail
 1048              	.LVL93:
 1049              	.L128:
 1050              		.align	2
 1051              	.L127:
 1052 0030 00000000 		.word	__stack_chk_guard
 1053 0034 00000000 		.word	.LANCHOR6
 1054              	.LBE184:
 1055              	.LBE186:
 1056              		.cfi_endproc
 1057              	.LFE263:
 1058              		.size	i2cAcquireBus, .-i2cAcquireBus
 1059              		.section	.text.i2cReleaseBus,"ax",%progbits
 1060              		.align	1
 1061              		.p2align 4,,15
 1062              		.global	i2cReleaseBus
 1063              		.syntax unified
 1064              		.thumb
 1065              		.thumb_func
 1066              		.fpu fpv4-sp-d16
 1067              		.type	i2cReleaseBus, %function
 1068              	i2cReleaseBus:
 1069              	.LFB264:
 1070              		.loc 1 273 0
 1071              		.cfi_startproc
 1072              		@ args = 0, pretend = 0, frame = 8
 1073              		@ frame_needed = 0, uses_anonymous_args = 0
 1074              	.LVL94:
 1075 0000 30B5     		push	{r4, r5, lr}
 1076              		.cfi_def_cfa_offset 12
 1077              		.cfi_offset 4, -12
 1078              		.cfi_offset 5, -8
 1079              		.cfi_offset 14, -4
 1080 0002 0B4C     		ldr	r4, .L136
 1081 0004 83B0     		sub	sp, sp, #12
 1082              		.cfi_def_cfa_offset 24
 1083              		.loc 1 273 0
ARM GAS  C:\Users\Moi\AppData\Local\Temp\ccjUpOcO.s 			page 20


 1084 0006 2368     		ldr	r3, [r4]
 1085 0008 0193     		str	r3, [sp, #4]
 1086              		.loc 1 275 0
 1087 000a 0546     		mov	r5, r0
 1088 000c 50B1     		cbz	r0, .L134
 1089              	.LVL95:
 1090              	.L130:
 1091              	.LBB187:
 1092              	.LBB188:
 1093              		.loc 2 885 0
 1094 000e 019A     		ldr	r2, [sp, #4]
 1095 0010 2368     		ldr	r3, [r4]
 1096 0012 9A42     		cmp	r2, r3
 1097 0014 0AD1     		bne	.L135
 1098 0016 05F10C00 		add	r0, r5, #12
 1099              	.LVL96:
 1100              	.LBE188:
 1101              	.LBE187:
 1102              		.loc 1 278 0
 1103 001a 03B0     		add	sp, sp, #12
 1104              		.cfi_remember_state
 1105              		.cfi_def_cfa_offset 12
 1106              		@ sp needed
 1107 001c BDE83040 		pop	{r4, r5, lr}
 1108              		.cfi_restore 14
 1109              		.cfi_restore 5
 1110              		.cfi_restore 4
 1111              		.cfi_def_cfa_offset 0
 1112              	.LVL97:
 1113              	.LBB191:
 1114              	.LBB189:
 1115              		.loc 2 885 0
 1116 0020 FFF7FEBF 		b	chMtxUnlock
 1117              	.LVL98:
 1118              	.L134:
 1119              		.cfi_restore_state
 1120              	.LBE189:
 1121              	.LBE191:
 1122              		.loc 1 275 0 discriminator 2
 1123 0024 0348     		ldr	r0, .L136+4
 1124              	.LVL99:
 1125 0026 FFF7FEFF 		bl	chSysHalt
 1126              	.LVL100:
 1127 002a F0E7     		b	.L130
 1128              	.LVL101:
 1129              	.L135:
 1130              	.LBB192:
 1131              	.LBB190:
 1132              		.loc 2 885 0
 1133 002c FFF7FEFF 		bl	__stack_chk_fail
 1134              	.LVL102:
 1135              	.L137:
 1136              		.align	2
 1137              	.L136:
 1138 0030 00000000 		.word	__stack_chk_guard
 1139 0034 00000000 		.word	.LANCHOR7
 1140              	.LBE190:
ARM GAS  C:\Users\Moi\AppData\Local\Temp\ccjUpOcO.s 			page 21


 1141              	.LBE192:
 1142              		.cfi_endproc
 1143              	.LFE264:
 1144              		.size	i2cReleaseBus, .-i2cReleaseBus
 1145              		.section	.rodata.__func__.7153,"a",%progbits
 1146              		.align	2
 1147              		.set	.LANCHOR1,. + 0
 1148              		.type	__func__.7153, %object
 1149              		.size	__func__.7153, 12
 1150              	__func__.7153:
 1151 0000 63685379 		.ascii	"chSysUnlock\000"
 1151      73556E6C 
 1151      6F636B00 
 1152              		.section	.rodata.__func__.9848,"a",%progbits
 1153              		.align	2
 1154              		.set	.LANCHOR0,. + 0
 1155              		.type	__func__.9848, %object
 1156              		.size	__func__.9848, 9
 1157              	__func__.9848:
 1158 0000 69326353 		.ascii	"i2cStart\000"
 1158      74617274 
 1158      00
 1159              		.section	.rodata.__func__.9852,"a",%progbits
 1160              		.align	2
 1161              		.set	.LANCHOR2,. + 0
 1162              		.type	__func__.9852, %object
 1163              		.size	__func__.9852, 8
 1164              	__func__.9852:
 1165 0000 69326353 		.ascii	"i2cStop\000"
 1165      746F7000 
 1166              		.section	.rodata.__func__.9856,"a",%progbits
 1167              		.align	2
 1168              		.set	.LANCHOR3,. + 0
 1169              		.type	__func__.9856, %object
 1170              		.size	__func__.9856, 13
 1171              	__func__.9856:
 1172 0000 69326347 		.ascii	"i2cGetErrors\000"
 1172      65744572 
 1172      726F7273 
 1172      00
 1173              		.section	.rodata.__func__.9867,"a",%progbits
 1174              		.align	2
 1175              		.set	.LANCHOR4,. + 0
 1176              		.type	__func__.9867, %object
 1177              		.size	__func__.9867, 25
 1178              	__func__.9867:
 1179 0000 6932634D 		.ascii	"i2cMasterTransmitTimeout\000"
 1179      61737465 
 1179      72547261 
 1179      6E736D69 
 1179      7454696D 
 1180              		.section	.rodata.__func__.9876,"a",%progbits
 1181              		.align	2
 1182              		.set	.LANCHOR5,. + 0
 1183              		.type	__func__.9876, %object
 1184              		.size	__func__.9876, 24
 1185              	__func__.9876:
ARM GAS  C:\Users\Moi\AppData\Local\Temp\ccjUpOcO.s 			page 22


 1186 0000 6932634D 		.ascii	"i2cMasterReceiveTimeout\000"
 1186      61737465 
 1186      72526563 
 1186      65697665 
 1186      54696D65 
 1187              		.section	.rodata.__func__.9880,"a",%progbits
 1188              		.align	2
 1189              		.set	.LANCHOR6,. + 0
 1190              		.type	__func__.9880, %object
 1191              		.size	__func__.9880, 14
 1192              	__func__.9880:
 1193 0000 69326341 		.ascii	"i2cAcquireBus\000"
 1193      63717569 
 1193      72654275 
 1193      7300
 1194              		.section	.rodata.__func__.9884,"a",%progbits
 1195              		.align	2
 1196              		.set	.LANCHOR7,. + 0
 1197              		.type	__func__.9884, %object
 1198              		.size	__func__.9884, 14
 1199              	__func__.9884:
 1200 0000 69326352 		.ascii	"i2cReleaseBus\000"
 1200      656C6561 
 1200      73654275 
 1200      7300
 1201              		.text
 1202              	.Letext0:
 1203              		.file 5 "c:\\users\\moi\\documents\\_microinfo\\epuck-eclipse\\tools\\gcc-arm-none-eabi-7-2017-q4-
 1204              		.file 6 "c:\\users\\moi\\documents\\_microinfo\\epuck-eclipse\\tools\\gcc-arm-none-eabi-7-2017-q4-
 1205              		.file 7 "c:\\users\\moi\\documents\\_microinfo\\epuck-eclipse\\tools\\gcc-arm-none-eabi-7-2017-q4-
 1206              		.file 8 "..//ChibiOS//os/rt/ports/ARMCMx/compilers/GCC/chtypes.h"
 1207              		.file 9 "..//ChibiOS//os/rt/include/chsystypes.h"
 1208              		.file 10 "..//ChibiOS//os/rt/include/chschd.h"
 1209              		.file 11 "..//ChibiOS//os/ext/CMSIS/include/core_cm4.h"
 1210              		.file 12 "..//ChibiOS//os/ext/CMSIS/ST/system_stm32f4xx.h"
 1211              		.file 13 "..//ChibiOS//os/ext/CMSIS/ST/stm32f407xx.h"
 1212              		.file 14 "..//ChibiOS//os/rt/ports/ARMCMx/chcore.h"
 1213              		.file 15 "..//ChibiOS//os/rt/ports/ARMCMx/chcore_v7m.h"
 1214              		.file 16 "..//ChibiOS//os/rt/include/chdebug.h"
 1215              		.file 17 "..//ChibiOS//os/rt/include/chtm.h"
 1216              		.file 18 "..//ChibiOS//os/rt/include/chstats.h"
 1217              		.file 19 "..//ChibiOS//os/rt/include/chsem.h"
 1218              		.file 20 "..//ChibiOS//os/rt/include/chmtx.h"
 1219              		.file 21 "..//ChibiOS//os/rt/include/chregistry.h"
 1220              		.file 22 "..//ChibiOS//os/rt/include/chevents.h"
 1221              		.file 23 "..//ChibiOS//os/rt/include/chqueues.h"
 1222              		.file 24 "..//ChibiOS//os/hal/ports/STM32/STM32F4xx/stm32_dma.h"
 1223              		.file 25 "..//ChibiOS//os/hal/include/hal_ioblock.h"
 1224              		.file 26 "..//ChibiOS//os/hal/ports/STM32/LLD/GPIOv2/pal_lld.h"
 1225              		.file 27 "..//ChibiOS//os/hal/include/adc.h"
 1226              		.file 28 "..//ChibiOS//os/hal/ports/STM32/STM32F4xx/adc_lld.h"
 1227              		.file 29 "..//ChibiOS//os/hal/include/can.h"
 1228              		.file 30 "..//ChibiOS//os/hal/ports/STM32/LLD/can_lld.h"
 1229              		.file 31 "..//ChibiOS//os/hal/include/dac.h"
 1230              		.file 32 "..//ChibiOS//os/hal/ports/STM32/LLD/DACv1/dac_lld.h"
 1231              		.file 33 "..//ChibiOS//os/hal/include/ext.h"
 1232              		.file 34 "..//ChibiOS//os/hal/ports/STM32/LLD/ext_lld.h"
ARM GAS  C:\Users\Moi\AppData\Local\Temp\ccjUpOcO.s 			page 23


 1233              		.file 35 "..//ChibiOS//os/hal/include/gpt.h"
 1234              		.file 36 "..//ChibiOS//os/hal/ports/STM32/LLD/TIMv1/gpt_lld.h"
 1235              		.file 37 "..//ChibiOS//os/hal/ports/STM32/LLD/TIMv1/stm32_tim.h"
 1236              		.file 38 "..//ChibiOS//os/hal/include/i2c.h"
 1237              		.file 39 "..//ChibiOS//os/hal/ports/STM32/LLD/I2Cv1/i2c_lld.h"
 1238              		.file 40 "..//ChibiOS//os/hal/include/i2s.h"
 1239              		.file 41 "..//ChibiOS//os/hal/ports/STM32/LLD/SPIv1/i2s_lld.h"
 1240              		.file 42 "..//ChibiOS//os/hal/include/pwm.h"
 1241              		.file 43 "..//ChibiOS//os/hal/ports/STM32/LLD/TIMv1/pwm_lld.h"
 1242              		.file 44 "..//ChibiOS//os/hal/include/serial.h"
 1243              		.file 45 "..//ChibiOS//os/hal/ports/STM32/LLD/USARTv1/serial_lld.h"
 1244              		.file 46 "..//ChibiOS//os/hal/include/sdc.h"
 1245              		.file 47 "..//ChibiOS//os/hal/ports/STM32/LLD/sdc_lld.h"
 1246              		.file 48 "..//ChibiOS//os/hal/include/spi.h"
 1247              		.file 49 "..//ChibiOS//os/hal/ports/STM32/LLD/SPIv1/spi_lld.h"
 1248              		.file 50 "..//ChibiOS//os/hal/include/usb.h"
 1249              		.file 51 "..//ChibiOS//os/hal/ports/STM32/LLD/OTGv1/usb_lld.h"
 1250              		.file 52 "..//ChibiOS//os/hal/ports/STM32/LLD/OTGv1/stm32_otg.h"