ARM GAS  C:\Users\Moi\AppData\Local\Temp\ccyDCUJv.s 			page 1


   1              		.cpu cortex-m4
   2              		.eabi_attribute 27, 1
   3              		.eabi_attribute 28, 1
   4              		.eabi_attribute 20, 1
   5              		.eabi_attribute 21, 1
   6              		.eabi_attribute 23, 3
   7              		.eabi_attribute 24, 1
   8              		.eabi_attribute 25, 1
   9              		.eabi_attribute 26, 1
  10              		.eabi_attribute 30, 2
  11              		.eabi_attribute 34, 1
  12              		.eabi_attribute 18, 4
  13              		.file	"i2c_lld.c"
  14              		.text
  15              	.Ltext0:
  16              		.cfi_sections	.debug_frame
  17              		.section	.text.i2c_lld_serve_tx_end_irq,"ax",%progbits
  18              		.align	1
  19              		.p2align 4,,15
  20              		.syntax unified
  21              		.thumb
  22              		.thumb_func
  23              		.fpu fpv4-sp-d16
  24              		.type	i2c_lld_serve_tx_end_irq, %function
  25              	i2c_lld_serve_tx_end_irq:
  26              	.LFB261:
  27              		.file 1 "..//ChibiOS//os/hal/ports/STM32/LLD/I2Cv1/i2c_lld.c"
  28              		.loc 1 332 0
  29              		.cfi_startproc
  30              		@ args = 0, pretend = 0, frame = 8
  31              		@ frame_needed = 0, uses_anonymous_args = 0
  32              	.LVL0:
  33 0000 70B5     		push	{r4, r5, r6, lr}
  34              		.cfi_def_cfa_offset 16
  35              		.cfi_offset 4, -16
  36              		.cfi_offset 5, -12
  37              		.cfi_offset 6, -8
  38              		.cfi_offset 14, -4
  39 0002 134C     		ldr	r4, .L13
  40              		.loc 1 333 0
  41 0004 856B     		ldr	r5, [r0, #56]
  42              	.LVL1:
  43              		.loc 1 332 0
  44 0006 2368     		ldr	r3, [r4]
  45 0008 82B0     		sub	sp, sp, #8
  46              		.cfi_def_cfa_offset 24
  47              		.loc 1 337 0
  48 000a 11F00C0F 		tst	r1, #12
  49              		.loc 1 332 0
  50 000e 0646     		mov	r6, r0
  51 0010 0193     		str	r3, [sp, #4]
  52              		.loc 1 337 0
  53 0012 17D1     		bne	.L11
  54              	.LVL2:
  55              	.L2:
  56              		.loc 1 344 0
  57 0014 716B     		ldr	r1, [r6, #52]
ARM GAS  C:\Users\Moi\AppData\Local\Temp\ccyDCUJv.s 			page 2


  58 0016 0A68     		ldr	r2, [r1]
  59 0018 1368     		ldr	r3, [r2]
  60 001a 23F01F03 		bic	r3, r3, #31
  61 001e 1360     		str	r3, [r2]
  62              	.L3:
  63              		.loc 1 344 0 is_stmt 0 discriminator 2
  64 0020 1368     		ldr	r3, [r2]
  65 0022 DB07     		lsls	r3, r3, #31
  66 0024 FCD4     		bmi	.L3
  67              		.loc 1 344 0 discriminator 3
  68 0026 087A     		ldrb	r0, [r1, #8]	@ zero_extendqisi2
  69 0028 4A68     		ldr	r2, [r1, #4]
  70 002a 3D23     		movs	r3, #61
  71 002c 8340     		lsls	r3, r3, r0
  72 002e 1360     		str	r3, [r2]
  73              		.loc 1 348 0 is_stmt 1 discriminator 3
  74 0030 6B68     		ldr	r3, [r5, #4]
  75 0032 43F40073 		orr	r3, r3, #512
  76 0036 6B60     		str	r3, [r5, #4]
  77              		.loc 1 349 0 discriminator 3
  78 0038 019A     		ldr	r2, [sp, #4]
  79 003a 2368     		ldr	r3, [r4]
  80 003c 9A42     		cmp	r2, r3
  81 003e 05D1     		bne	.L12
  82              		.loc 1 349 0 is_stmt 0
  83 0040 02B0     		add	sp, sp, #8
  84              		.cfi_remember_state
  85              		.cfi_def_cfa_offset 16
  86              		@ sp needed
  87 0042 70BD     		pop	{r4, r5, r6, pc}
  88              	.LVL3:
  89              	.L11:
  90              		.cfi_restore_state
  91              	.LBB196:
  92              	.LBB197:
  93              		.file 2 "..//ChibiOS//os/hal/osal/rt/osal.h"
  94              		.loc 2 416 0 is_stmt 1
  95 0044 0348     		ldr	r0, .L13+4
  96              	.LVL4:
  97 0046 FFF7FEFF 		bl	chSysHalt
  98              	.LVL5:
  99 004a E3E7     		b	.L2
 100              	.LVL6:
 101              	.L12:
 102              	.LBE197:
 103              	.LBE196:
 104              		.loc 1 349 0
 105 004c FFF7FEFF 		bl	__stack_chk_fail
 106              	.LVL7:
 107              	.L14:
 108              		.align	2
 109              	.L13:
 110 0050 00000000 		.word	__stack_chk_guard
 111 0054 00000000 		.word	.LC0
 112              		.cfi_endproc
 113              	.LFE261:
 114              		.size	i2c_lld_serve_tx_end_irq, .-i2c_lld_serve_tx_end_irq
ARM GAS  C:\Users\Moi\AppData\Local\Temp\ccyDCUJv.s 			page 3


 115              		.section	.text.i2c_lld_serve_rx_end_irq,"ax",%progbits
 116              		.align	1
 117              		.p2align 4,,15
 118              		.syntax unified
 119              		.thumb
 120              		.thumb_func
 121              		.fpu fpv4-sp-d16
 122              		.type	i2c_lld_serve_rx_end_irq, %function
 123              	i2c_lld_serve_rx_end_irq:
 124              	.LFB260:
 125              		.loc 1 305 0
 126              		.cfi_startproc
 127              		@ args = 0, pretend = 0, frame = 8
 128              		@ frame_needed = 0, uses_anonymous_args = 0
 129              	.LVL8:
 130 0000 F0B5     		push	{r4, r5, r6, r7, lr}
 131              		.cfi_def_cfa_offset 20
 132              		.cfi_offset 4, -20
 133              		.cfi_offset 5, -16
 134              		.cfi_offset 6, -12
 135              		.cfi_offset 7, -8
 136              		.cfi_offset 14, -4
 137 0002 214F     		ldr	r7, .L26
 138              		.loc 1 306 0
 139 0004 856B     		ldr	r5, [r0, #56]
 140              	.LVL9:
 141              		.loc 1 305 0
 142 0006 3B68     		ldr	r3, [r7]
 143 0008 83B0     		sub	sp, sp, #12
 144              		.cfi_def_cfa_offset 32
 145              		.loc 1 310 0
 146 000a 11F00C0F 		tst	r1, #12
 147              		.loc 1 305 0
 148 000e 0646     		mov	r6, r0
 149 0010 0193     		str	r3, [sp, #4]
 150              		.loc 1 310 0
 151 0012 32D1     		bne	.L24
 152              	.LVL10:
 153              	.L16:
 154              		.loc 1 317 0
 155 0014 326B     		ldr	r2, [r6, #48]
 156 0016 1368     		ldr	r3, [r2]
 157 0018 1968     		ldr	r1, [r3]
 158 001a 21F01F01 		bic	r1, r1, #31
 159 001e 1960     		str	r1, [r3]
 160              	.L17:
 161              		.loc 1 317 0 is_stmt 0 discriminator 2
 162 0020 1C68     		ldr	r4, [r3]
 163 0022 14F00104 		ands	r4, r4, #1
 164 0026 FBD1     		bne	.L17
 165              		.loc 1 317 0 discriminator 3
 166 0028 117A     		ldrb	r1, [r2, #8]	@ zero_extendqisi2
 167 002a 5268     		ldr	r2, [r2, #4]
 168 002c 3D23     		movs	r3, #61
 169 002e 8B40     		lsls	r3, r3, r1
 170 0030 1360     		str	r3, [r2]
 171              		.loc 1 319 0 is_stmt 1 discriminator 3
ARM GAS  C:\Users\Moi\AppData\Local\Temp\ccyDCUJv.s 			page 4


 172 0032 6B68     		ldr	r3, [r5, #4]
 173 0034 23F48053 		bic	r3, r3, #4096
 174 0038 6B60     		str	r3, [r5, #4]
 175              		.loc 1 320 0 discriminator 3
 176 003a 2B68     		ldr	r3, [r5]
 177 003c 23F48063 		bic	r3, r3, #1024
 178 0040 2B60     		str	r3, [r5]
 179              		.loc 1 321 0 discriminator 3
 180 0042 2B68     		ldr	r3, [r5]
 181 0044 43F40073 		orr	r3, r3, #512
 182 0048 2B60     		str	r3, [r5]
 183              	.LVL11:
 184              	.LBB198:
 185              	.LBB199:
 186              	.LBB200:
 187              	.LBB201:
 188              	.LBB202:
 189              	.LBB203:
 190              	.LBB204:
 191              		.file 3 "..//ChibiOS//os/ext/CMSIS/include/core_cmFunc.h"
 192              		.loc 3 546 0 discriminator 3
 193 004a 2023     		movs	r3, #32
 194              		.syntax unified
 195              	@ 546 "..//ChibiOS//os/ext/CMSIS/include/core_cmFunc.h" 1
 196 004c 83F31188 		MSR basepri, r3
 197              	@ 0 "" 2
 198              	.LVL12:
 199              		.thumb
 200              		.syntax unified
 201              	.LBE204:
 202              	.LBE203:
 203              	.LBE202:
 204              	.LBE201:
 205              		.file 4 "..//ChibiOS//os/rt/include/chsys.h"
 206              		.loc 4 389 0 discriminator 3
 207 0050 FFF7FEFF 		bl	_stats_start_measure_crit_isr
 208              	.LVL13:
 209              		.loc 4 390 0 discriminator 3
 210 0054 FFF7FEFF 		bl	_dbg_check_lock_from_isr
 211              	.LVL14:
 212              	.LBE200:
 213              	.LBE199:
 214              	.LBE198:
 215              	.LBB205:
 216              	.LBB206:
 217              		.loc 2 682 0 discriminator 3
 218 0058 2146     		mov	r1, r4
 219 005a 06F12000 		add	r0, r6, #32
 220              	.LVL15:
 221 005e FFF7FEFF 		bl	chThdResumeI
 222              	.LVL16:
 223              	.LBE206:
 224              	.LBE205:
 225              	.LBB207:
 226              	.LBB208:
 227              	.LBB209:
 228              		.loc 4 408 0 discriminator 3
ARM GAS  C:\Users\Moi\AppData\Local\Temp\ccyDCUJv.s 			page 5


 229 0062 FFF7FEFF 		bl	_dbg_check_unlock_from_isr
 230              	.LVL17:
 231              		.loc 4 409 0 discriminator 3
 232 0066 FFF7FEFF 		bl	_stats_stop_measure_crit_isr
 233              	.LVL18:
 234              	.LBB210:
 235              	.LBB211:
 236              	.LBB212:
 237              	.LBB213:
 238              		.loc 3 546 0 discriminator 3
 239              		.syntax unified
 240              	@ 546 "..//ChibiOS//os/ext/CMSIS/include/core_cmFunc.h" 1
 241 006a 84F31188 		MSR basepri, r4
 242              	@ 0 "" 2
 243              	.LVL19:
 244              		.thumb
 245              		.syntax unified
 246              	.LBE213:
 247              	.LBE212:
 248              	.LBE211:
 249              	.LBE210:
 250              	.LBE209:
 251              	.LBE208:
 252              	.LBE207:
 253              		.loc 1 323 0 discriminator 3
 254 006e 019A     		ldr	r2, [sp, #4]
 255 0070 3B68     		ldr	r3, [r7]
 256 0072 9A42     		cmp	r2, r3
 257 0074 05D1     		bne	.L25
 258              		.loc 1 323 0 is_stmt 0
 259 0076 03B0     		add	sp, sp, #12
 260              		.cfi_remember_state
 261              		.cfi_def_cfa_offset 20
 262              		@ sp needed
 263 0078 F0BD     		pop	{r4, r5, r6, r7, pc}
 264              	.LVL20:
 265              	.L24:
 266              		.cfi_restore_state
 267              	.LBB214:
 268              	.LBB215:
 269              		.loc 2 416 0 is_stmt 1
 270 007a 0448     		ldr	r0, .L26+4
 271              	.LVL21:
 272 007c FFF7FEFF 		bl	chSysHalt
 273              	.LVL22:
 274 0080 C8E7     		b	.L16
 275              	.LVL23:
 276              	.L25:
 277              	.LBE215:
 278              	.LBE214:
 279              		.loc 1 323 0
 280 0082 FFF7FEFF 		bl	__stack_chk_fail
 281              	.LVL24:
 282              	.L27:
 283 0086 00BF     		.align	2
 284              	.L26:
 285 0088 00000000 		.word	__stack_chk_guard
ARM GAS  C:\Users\Moi\AppData\Local\Temp\ccyDCUJv.s 			page 6


 286 008c 00000000 		.word	.LC0
 287              		.cfi_endproc
 288              	.LFE260:
 289              		.size	i2c_lld_serve_rx_end_irq, .-i2c_lld_serve_rx_end_irq
 290              		.section	.text.VectorBC,"ax",%progbits
 291              		.align	1
 292              		.p2align 4,,15
 293              		.global	VectorBC
 294              		.syntax unified
 295              		.thumb
 296              		.thumb_func
 297              		.fpu fpv4-sp-d16
 298              		.type	VectorBC, %function
 299              	VectorBC:
 300              	.LFB263:
 301              		.loc 1 406 0
 302              		.cfi_startproc
 303              		@ args = 0, pretend = 0, frame = 8
 304              		@ frame_needed = 0, uses_anonymous_args = 0
 305 0000 2DE9F041 		push	{r4, r5, r6, r7, r8, lr}
 306              		.cfi_def_cfa_offset 24
 307              		.cfi_offset 4, -24
 308              		.cfi_offset 5, -20
 309              		.cfi_offset 6, -16
 310              		.cfi_offset 7, -12
 311              		.cfi_offset 8, -8
 312              		.cfi_offset 14, -4
 313 0004 464E     		ldr	r6, .L47
 314              	.LBB234:
 315              	.LBB235:
 316              		.loc 1 246 0
 317 0006 474D     		ldr	r5, .L47+4
 318              	.LBE235:
 319              	.LBE234:
 320              		.loc 1 406 0
 321 0008 3368     		ldr	r3, [r6]
 322 000a 82B0     		sub	sp, sp, #8
 323              		.cfi_def_cfa_offset 32
 324              		.loc 1 406 0
 325 000c 0193     		str	r3, [sp, #4]
 326              		.loc 1 408 0
 327 000e FFF7FEFF 		bl	_stats_increase_irq
 328              	.LVL25:
 329 0012 FFF7FEFF 		bl	_dbg_check_enter_isr
 330              	.LVL26:
 331              	.LBB254:
 332              	.LBB252:
 333              		.loc 1 246 0
 334 0016 AC6B     		ldr	r4, [r5, #56]
 335              	.LVL27:
 336              		.loc 1 253 0
 337 0018 434A     		ldr	r2, .L47+8
 338              		.loc 1 247 0
 339 001a A369     		ldr	r3, [r4, #24]
 340              	.LVL28:
 341              		.loc 1 248 0
 342 001c 6769     		ldr	r7, [r4, #20]
ARM GAS  C:\Users\Moi\AppData\Local\Temp\ccyDCUJv.s 			page 7


 343              	.LVL29:
 344              		.loc 1 253 0
 345 001e 47EA0343 		orr	r3, r7, r3, lsl #16
 346              	.LVL30:
 347 0022 23F07F43 		bic	r3, r3, #-16777216
 348 0026 9342     		cmp	r3, r2
 349 0028 4CD0     		beq	.L30
 350 002a 29D8     		bhi	.L31
 351 002c 073A     		subs	r2, r2, #7
 352 002e 9342     		cmp	r3, r2
 353 0030 3CD0     		beq	.L32
 354 0032 0132     		adds	r2, r2, #1
 355 0034 9342     		cmp	r3, r2
 356 0036 14D1     		bne	.L29
 357              		.loc 1 267 0
 358 0038 6268     		ldr	r2, [r4, #4]
 359              		.loc 1 268 0
 360 003a 2B6B     		ldr	r3, [r5, #48]
 361              		.loc 1 267 0
 362 003c 22F40072 		bic	r2, r2, #512
 363              		.loc 1 268 0
 364 0040 1B68     		ldr	r3, [r3]
 365              		.loc 1 267 0
 366 0042 6260     		str	r2, [r4, #4]
 367              		.loc 1 268 0
 368 0044 1A68     		ldr	r2, [r3]
 369 0046 42F00102 		orr	r2, r2, #1
 370 004a 1A60     		str	r2, [r3]
 371              		.loc 1 269 0
 372 004c 6268     		ldr	r2, [r4, #4]
 373 004e 42F48052 		orr	r2, r2, #4096
 374 0052 6260     		str	r2, [r4, #4]
 375              		.loc 1 270 0
 376 0054 5B68     		ldr	r3, [r3, #4]
 377 0056 012B     		cmp	r3, #1
 378 0058 03D8     		bhi	.L29
 379              		.loc 1 271 0
 380 005a 2368     		ldr	r3, [r4]
 381 005c 23F48063 		bic	r3, r3, #1024
 382 0060 2360     		str	r3, [r4]
 383              	.L29:
 384              		.loc 1 293 0
 385 0062 17F00A0F 		tst	r7, #10
 386              		.loc 1 294 0
 387 0066 18BF     		it	ne
 388 0068 A369     		ldrne	r3, [r4, #24]
 389              	.L38:
 390              	.LVL31:
 391              	.LBE252:
 392              	.LBE254:
 393              		.loc 1 412 0
 394 006a FFF7FEFF 		bl	_dbg_check_leave_isr
 395              	.LVL32:
 396 006e 019A     		ldr	r2, [sp, #4]
 397 0070 3368     		ldr	r3, [r6]
 398 0072 9A42     		cmp	r2, r3
 399 0074 51D1     		bne	.L46
ARM GAS  C:\Users\Moi\AppData\Local\Temp\ccyDCUJv.s 			page 8


 400              		.loc 1 413 0
 401 0076 02B0     		add	sp, sp, #8
 402              		.cfi_remember_state
 403              		.cfi_def_cfa_offset 24
 404              		@ sp needed
 405 0078 BDE8F041 		pop	{r4, r5, r6, r7, r8, lr}
 406              		.cfi_restore 14
 407              		.cfi_restore 8
 408              		.cfi_restore 7
 409              		.cfi_restore 6
 410              		.cfi_restore 5
 411              		.cfi_restore 4
 412              		.cfi_def_cfa_offset 0
 413              		.loc 1 412 0
 414 007c FFF7FEBF 		b	_port_irq_epilogue
 415              	.LVL33:
 416              	.L31:
 417              		.cfi_restore_state
 418              	.LBB255:
 419              	.LBB253:
 420              		.loc 1 253 0
 421 0080 2A4A     		ldr	r2, .L47+12
 422 0082 9342     		cmp	r3, r2
 423 0084 23D0     		beq	.L34
 424 0086 0232     		adds	r2, r2, #2
 425 0088 9342     		cmp	r3, r2
 426 008a EAD1     		bne	.L29
 427              		.loc 1 279 0
 428 008c 2B6B     		ldr	r3, [r5, #48]
 429 008e 1B68     		ldr	r3, [r3]
 430 0090 D3F80480 		ldr	r8, [r3, #4]
 431 0094 B8F1000F 		cmp	r8, #0
 432 0098 24D0     		beq	.L37
 433              		.loc 1 281 0
 434 009a AA8C     		ldrh	r2, [r5, #36]
 435              		.loc 1 282 0
 436 009c 2368     		ldr	r3, [r4]
 437              		.loc 1 281 0
 438 009e 42F00102 		orr	r2, r2, #1
 439              		.loc 1 282 0
 440 00a2 43F4A063 		orr	r3, r3, #1280
 441              		.loc 1 281 0
 442 00a6 AA84     		strh	r2, [r5, #36]	@ movhi
 443              		.loc 1 282 0
 444 00a8 2360     		str	r3, [r4]
 445 00aa DEE7     		b	.L38
 446              	.L32:
 447              		.loc 1 255 0
 448 00ac AB8C     		ldrh	r3, [r5, #36]
 449 00ae 1A0A     		lsrs	r2, r3, #8
 450 00b0 0BD0     		beq	.L45
 451              		.loc 1 257 0
 452 00b2 03F00103 		and	r3, r3, #1
 453 00b6 43F0F003 		orr	r3, r3, #240
 454 00ba 02F00602 		and	r2, r2, #6
 455 00be 1343     		orrs	r3, r3, r2
 456 00c0 2361     		str	r3, [r4, #16]
ARM GAS  C:\Users\Moi\AppData\Local\Temp\ccyDCUJv.s 			page 9


 457 00c2 CEE7     		b	.L29
 458              	.L30:
 459              		.loc 1 264 0
 460 00c4 AB8C     		ldrh	r3, [r5, #36]
 461 00c6 C3F34703 		ubfx	r3, r3, #1, #8
 462              	.L45:
 463 00ca 2361     		str	r3, [r4, #16]
 464 00cc C9E7     		b	.L29
 465              	.L34:
 466              		.loc 1 274 0
 467 00ce 6368     		ldr	r3, [r4, #4]
 468              		.loc 1 275 0
 469 00d0 6A6B     		ldr	r2, [r5, #52]
 470              		.loc 1 274 0
 471 00d2 23F40073 		bic	r3, r3, #512
 472              		.loc 1 275 0
 473 00d6 1268     		ldr	r2, [r2]
 474              		.loc 1 274 0
 475 00d8 6360     		str	r3, [r4, #4]
 476              		.loc 1 275 0
 477 00da 1368     		ldr	r3, [r2]
 478 00dc 43F00103 		orr	r3, r3, #1
 479 00e0 1360     		str	r3, [r2]
 480 00e2 BEE7     		b	.L29
 481              	.L37:
 482              		.loc 1 285 0
 483 00e4 6368     		ldr	r3, [r4, #4]
 484 00e6 23F40073 		bic	r3, r3, #512
 485 00ea 6360     		str	r3, [r4, #4]
 486              		.loc 1 286 0
 487 00ec 2368     		ldr	r3, [r4]
 488 00ee 43F40073 		orr	r3, r3, #512
 489 00f2 2360     		str	r3, [r4]
 490              	.LVL34:
 491              	.LBB236:
 492              	.LBB237:
 493              	.LBB238:
 494              	.LBB239:
 495              	.LBB240:
 496              	.LBB241:
 497              	.LBB242:
 498              		.loc 3 546 0
 499 00f4 2023     		movs	r3, #32
 500              		.syntax unified
 501              	@ 546 "..//ChibiOS//os/ext/CMSIS/include/core_cmFunc.h" 1
 502 00f6 83F31188 		MSR basepri, r3
 503              	@ 0 "" 2
 504              	.LVL35:
 505              		.thumb
 506              		.syntax unified
 507              	.LBE242:
 508              	.LBE241:
 509              	.LBE240:
 510              	.LBE239:
 511              		.loc 4 389 0
 512 00fa FFF7FEFF 		bl	_stats_start_measure_crit_isr
 513              	.LVL36:
ARM GAS  C:\Users\Moi\AppData\Local\Temp\ccyDCUJv.s 			page 10


 514              		.loc 4 390 0
 515 00fe FFF7FEFF 		bl	_dbg_check_lock_from_isr
 516              	.LVL37:
 517              	.LBE238:
 518              	.LBE237:
 519              	.LBE236:
 520              	.LBB243:
 521              	.LBB244:
 522              		.loc 2 682 0
 523 0102 4146     		mov	r1, r8
 524 0104 05F12000 		add	r0, r5, #32
 525 0108 FFF7FEFF 		bl	chThdResumeI
 526              	.LVL38:
 527              	.LBE244:
 528              	.LBE243:
 529              	.LBB245:
 530              	.LBB246:
 531              	.LBB247:
 532              		.loc 4 408 0
 533 010c FFF7FEFF 		bl	_dbg_check_unlock_from_isr
 534              	.LVL39:
 535              		.loc 4 409 0
 536 0110 FFF7FEFF 		bl	_stats_stop_measure_crit_isr
 537              	.LVL40:
 538              	.LBB248:
 539              	.LBB249:
 540              	.LBB250:
 541              	.LBB251:
 542              		.loc 3 546 0
 543              		.syntax unified
 544              	@ 546 "..//ChibiOS//os/ext/CMSIS/include/core_cmFunc.h" 1
 545 0114 88F31188 		MSR basepri, r8
 546              	@ 0 "" 2
 547              	.LVL41:
 548              		.thumb
 549              		.syntax unified
 550 0118 A3E7     		b	.L29
 551              	.LVL42:
 552              	.L46:
 553              	.LBE251:
 554              	.LBE250:
 555              	.LBE249:
 556              	.LBE248:
 557              	.LBE247:
 558              	.LBE246:
 559              	.LBE245:
 560              	.LBE253:
 561              	.LBE255:
 562              		.loc 1 412 0
 563 011a FFF7FEFF 		bl	__stack_chk_fail
 564              	.LVL43:
 565              	.L48:
 566 011e 00BF     		.align	2
 567              	.L47:
 568 0120 00000000 		.word	__stack_chk_guard
 569 0124 00000000 		.word	.LANCHOR0
 570 0128 08000300 		.word	196616
ARM GAS  C:\Users\Moi\AppData\Local\Temp\ccyDCUJv.s 			page 11


 571 012c 82000700 		.word	458882
 572              		.cfi_endproc
 573              	.LFE263:
 574              		.size	VectorBC, .-VectorBC
 575              		.section	.text.VectorC0,"ax",%progbits
 576              		.align	1
 577              		.p2align 4,,15
 578              		.global	VectorC0
 579              		.syntax unified
 580              		.thumb
 581              		.thumb_func
 582              		.fpu fpv4-sp-d16
 583              		.type	VectorC0, %function
 584              	VectorC0:
 585              	.LFB264:
 586              		.loc 1 418 0
 587              		.cfi_startproc
 588              		@ args = 0, pretend = 0, frame = 8
 589              		@ frame_needed = 0, uses_anonymous_args = 0
 590 0000 F0B5     		push	{r4, r5, r6, r7, lr}
 591              		.cfi_def_cfa_offset 20
 592              		.cfi_offset 4, -20
 593              		.cfi_offset 5, -16
 594              		.cfi_offset 6, -12
 595              		.cfi_offset 7, -8
 596              		.cfi_offset 14, -4
 597              		.loc 1 419 0
 598 0002 424D     		ldr	r5, .L83
 599              		.loc 1 418 0
 600 0004 424C     		ldr	r4, .L83+4
 601              		.loc 1 419 0
 602 0006 AB6B     		ldr	r3, [r5, #56]
 603              		.loc 1 418 0
 604 0008 2268     		ldr	r2, [r4]
 605 000a 83B0     		sub	sp, sp, #12
 606              		.cfi_def_cfa_offset 32
 607              		.loc 1 418 0
 608 000c 0192     		str	r2, [sp, #4]
 609              		.loc 1 419 0
 610 000e 5E69     		ldr	r6, [r3, #20]
 611              		.loc 1 421 0
 612 0010 FFF7FEFF 		bl	_stats_increase_irq
 613              	.LVL44:
 614 0014 FFF7FEFF 		bl	_dbg_check_enter_isr
 615              	.LVL45:
 616              		.loc 1 423 0
 617 0018 D5E90DC0 		ldrd	ip, r0, [r5, #52]
 618 001c 06F45F43 		and	r3, r6, #57088
 619              	.LBB274:
 620              	.LBB275:
 621              		.loc 1 362 0
 622 0020 DCF80020 		ldr	r2, [ip]
 623              	.LBE275:
 624              	.LBE274:
 625              		.loc 1 423 0
 626 0024 DB43     		mvns	r3, r3
 627 0026 4361     		str	r3, [r0, #20]
ARM GAS  C:\Users\Moi\AppData\Local\Temp\ccyDCUJv.s 			page 12


 628              	.LBB295:
 629              	.LBB292:
 630              		.loc 1 362 0
 631 0028 1368     		ldr	r3, [r2]
 632 002a 23F01F03 		bic	r3, r3, #31
 633 002e 1360     		str	r3, [r2]
 634              	.LBE292:
 635              	.LBE295:
 636              		.loc 1 419 0
 637 0030 B1B2     		uxth	r1, r6
 638              	.LVL46:
 639              	.L50:
 640              	.LBB296:
 641              	.LBB293:
 642              		.loc 1 362 0
 643 0032 1368     		ldr	r3, [r2]
 644 0034 DF07     		lsls	r7, r3, #31
 645 0036 FCD4     		bmi	.L50
 646 0038 9CF80820 		ldrb	r2, [ip, #8]	@ zero_extendqisi2
 647              		.loc 1 363 0
 648 003c 2F6B     		ldr	r7, [r5, #48]
 649              		.loc 1 362 0
 650 003e DCF804C0 		ldr	ip, [ip, #4]
 651 0042 3D23     		movs	r3, #61
 652 0044 9340     		lsls	r3, r3, r2
 653              		.loc 1 363 0
 654 0046 3A68     		ldr	r2, [r7]
 655              		.loc 1 362 0
 656 0048 CCF80030 		str	r3, [ip]
 657              		.loc 1 363 0
 658 004c 1368     		ldr	r3, [r2]
 659 004e 23F01F03 		bic	r3, r3, #31
 660 0052 1360     		str	r3, [r2]
 661              	.L51:
 662 0054 1368     		ldr	r3, [r2]
 663 0056 DB07     		lsls	r3, r3, #31
 664 0058 FCD4     		bmi	.L51
 665 005a 97F808C0 		ldrb	ip, [r7, #8]	@ zero_extendqisi2
 666 005e 7A68     		ldr	r2, [r7, #4]
 667 0060 3D23     		movs	r3, #61
 668 0062 03FA0CF3 		lsl	r3, r3, ip
 669 0066 1360     		str	r3, [r2]
 670              		.loc 1 367 0
 671 0068 11F48073 		ands	r3, r1, #256
 672              		.loc 1 368 0
 673 006c 18BF     		it	ne
 674 006e 0123     		movne	r3, #1
 675              		.loc 1 370 0
 676 0070 8F05     		lsls	r7, r1, #22
 677              		.loc 1 368 0
 678 0072 AB60     		str	r3, [r5, #8]
 679              		.loc 1 371 0
 680 0074 44BF     		itt	mi
 681 0076 43F00203 		orrmi	r3, r3, #2
 682 007a AB60     		strmi	r3, [r5, #8]
 683              		.loc 1 373 0
 684 007c 4A05     		lsls	r2, r1, #21
ARM GAS  C:\Users\Moi\AppData\Local\Temp\ccyDCUJv.s 			page 13


 685 007e 0AD5     		bpl	.L55
 686              		.loc 1 374 0
 687 0080 4268     		ldr	r2, [r0, #4]
 688 0082 22F40072 		bic	r2, r2, #512
 689 0086 4260     		str	r2, [r0, #4]
 690              		.loc 1 375 0
 691 0088 0268     		ldr	r2, [r0]
 692              		.loc 1 376 0
 693 008a 43F00403 		orr	r3, r3, #4
 694              		.loc 1 375 0
 695 008e 42F40072 		orr	r2, r2, #512
 696 0092 0260     		str	r2, [r0]
 697              		.loc 1 376 0
 698 0094 AB60     		str	r3, [r5, #8]
 699              	.L55:
 700              		.loc 1 379 0
 701 0096 0F05     		lsls	r7, r1, #20
 702              		.loc 1 380 0
 703 0098 44BF     		itt	mi
 704 009a 43F00803 		orrmi	r3, r3, #8
 705 009e AB60     		strmi	r3, [r5, #8]
 706              		.loc 1 382 0
 707 00a0 4804     		lsls	r0, r1, #17
 708              		.loc 1 383 0
 709 00a2 44BF     		itt	mi
 710 00a4 43F02003 		orrmi	r3, r3, #32
 711 00a8 AB60     		strmi	r3, [r5, #8]
 712              		.loc 1 385 0
 713 00aa CA04     		lsls	r2, r1, #19
 714 00ac 36B2     		sxth	r6, r6
 715 00ae 22D5     		bpl	.L58
 716              		.loc 1 386 0
 717 00b0 43F01003 		orr	r3, r3, #16
 718              		.loc 1 388 0
 719 00b4 002E     		cmp	r6, #0
 720              		.loc 1 386 0
 721 00b6 AB60     		str	r3, [r5, #8]
 722              		.loc 1 388 0
 723 00b8 22DB     		blt	.L59
 724              	.L60:
 725              	.LVL47:
 726              	.LBB276:
 727              	.LBB277:
 728              	.LBB278:
 729              	.LBB279:
 730              	.LBB280:
 731              	.LBB281:
 732              	.LBB282:
 733              		.loc 3 546 0
 734 00ba 2023     		movs	r3, #32
 735              		.syntax unified
 736              	@ 546 "..//ChibiOS//os/ext/CMSIS/include/core_cmFunc.h" 1
 737 00bc 83F31188 		MSR basepri, r3
 738              	@ 0 "" 2
 739              	.LVL48:
 740              		.thumb
 741              		.syntax unified
ARM GAS  C:\Users\Moi\AppData\Local\Temp\ccyDCUJv.s 			page 14


 742              	.LBE282:
 743              	.LBE281:
 744              	.LBE280:
 745              	.LBE279:
 746              		.loc 4 389 0
 747 00c0 FFF7FEFF 		bl	_stats_start_measure_crit_isr
 748              	.LVL49:
 749              		.loc 4 390 0
 750 00c4 FFF7FEFF 		bl	_dbg_check_lock_from_isr
 751              	.LVL50:
 752              	.LBE278:
 753              	.LBE277:
 754              	.LBE276:
 755              	.LBB283:
 756              	.LBB284:
 757              		.loc 2 682 0
 758 00c8 6FF00101 		mvn	r1, #1
 759 00cc 1148     		ldr	r0, .L83+8
 760 00ce FFF7FEFF 		bl	chThdResumeI
 761              	.LVL51:
 762              	.LBE284:
 763              	.LBE283:
 764              	.LBB285:
 765              	.LBB286:
 766              	.LBB287:
 767              		.loc 4 408 0
 768 00d2 FFF7FEFF 		bl	_dbg_check_unlock_from_isr
 769              	.LVL52:
 770              		.loc 4 409 0
 771 00d6 FFF7FEFF 		bl	_stats_stop_measure_crit_isr
 772              	.LVL53:
 773              	.LBB288:
 774              	.LBB289:
 775              	.LBB290:
 776              	.LBB291:
 777              		.loc 3 546 0
 778 00da 0023     		movs	r3, #0
 779              		.syntax unified
 780              	@ 546 "..//ChibiOS//os/ext/CMSIS/include/core_cmFunc.h" 1
 781 00dc 83F31188 		MSR basepri, r3
 782              	@ 0 "" 2
 783              	.LVL54:
 784              		.thumb
 785              		.syntax unified
 786              	.L63:
 787              	.LBE291:
 788              	.LBE290:
 789              	.LBE289:
 790              	.LBE288:
 791              	.LBE287:
 792              	.LBE286:
 793              	.LBE285:
 794              	.LBE293:
 795              	.LBE296:
 796              		.loc 1 426 0
 797 00e0 FFF7FEFF 		bl	_dbg_check_leave_isr
 798              	.LVL55:
ARM GAS  C:\Users\Moi\AppData\Local\Temp\ccyDCUJv.s 			page 15


 799 00e4 019A     		ldr	r2, [sp, #4]
 800 00e6 2368     		ldr	r3, [r4]
 801 00e8 9A42     		cmp	r2, r3
 802 00ea 0DD1     		bne	.L82
 803              		.loc 1 427 0
 804 00ec 03B0     		add	sp, sp, #12
 805              		.cfi_remember_state
 806              		.cfi_def_cfa_offset 20
 807              		@ sp needed
 808 00ee BDE8F040 		pop	{r4, r5, r6, r7, lr}
 809              		.cfi_restore 14
 810              		.cfi_restore 7
 811              		.cfi_restore 6
 812              		.cfi_restore 5
 813              		.cfi_restore 4
 814              		.cfi_def_cfa_offset 0
 815              	.LVL56:
 816              		.loc 1 426 0
 817 00f2 FFF7FEBF 		b	_port_irq_epilogue
 818              	.LVL57:
 819              	.L58:
 820              		.cfi_restore_state
 821              	.LBB297:
 822              	.LBB294:
 823              		.loc 1 388 0
 824 00f6 002E     		cmp	r6, #0
 825 00f8 02DB     		blt	.L59
 826              		.loc 1 392 0
 827 00fa 002B     		cmp	r3, #0
 828 00fc F0D0     		beq	.L63
 829 00fe DCE7     		b	.L60
 830              	.L59:
 831              		.loc 1 389 0
 832 0100 43F04003 		orr	r3, r3, #64
 833 0104 AB60     		str	r3, [r5, #8]
 834 0106 D8E7     		b	.L60
 835              	.LVL58:
 836              	.L82:
 837              	.LBE294:
 838              	.LBE297:
 839              		.loc 1 426 0
 840 0108 FFF7FEFF 		bl	__stack_chk_fail
 841              	.LVL59:
 842              	.L84:
 843              		.align	2
 844              	.L83:
 845 010c 00000000 		.word	.LANCHOR0
 846 0110 00000000 		.word	__stack_chk_guard
 847 0114 20000000 		.word	.LANCHOR0+32
 848              		.cfi_endproc
 849              	.LFE264:
 850              		.size	VectorC0, .-VectorC0
 851              		.section	.text.i2c_lld_init,"ax",%progbits
 852              		.align	1
 853              		.p2align 4,,15
 854              		.global	i2c_lld_init
 855              		.syntax unified
ARM GAS  C:\Users\Moi\AppData\Local\Temp\ccyDCUJv.s 			page 16


 856              		.thumb
 857              		.thumb_func
 858              		.fpu fpv4-sp-d16
 859              		.type	i2c_lld_init, %function
 860              	i2c_lld_init:
 861              	.LFB265:
 862              		.loc 1 503 0
 863              		.cfi_startproc
 864              		@ args = 0, pretend = 0, frame = 8
 865              		@ frame_needed = 0, uses_anonymous_args = 0
 866 0000 30B5     		push	{r4, r5, lr}
 867              		.cfi_def_cfa_offset 12
 868              		.cfi_offset 4, -12
 869              		.cfi_offset 5, -8
 870              		.cfi_offset 14, -4
 871              		.loc 1 506 0
 872 0002 0C4C     		ldr	r4, .L89
 873              		.loc 1 503 0
 874 0004 0C4D     		ldr	r5, .L89+4
 875 0006 83B0     		sub	sp, sp, #12
 876              		.cfi_def_cfa_offset 24
 877              		.loc 1 503 0
 878 0008 2B68     		ldr	r3, [r5]
 879 000a 0193     		str	r3, [sp, #4]
 880              		.loc 1 506 0
 881 000c 2046     		mov	r0, r4
 882 000e FFF7FEFF 		bl	i2cObjectInit
 883              	.LVL60:
 884              		.loc 1 509 0
 885 0012 0A4B     		ldr	r3, .L89+8
 886              		.loc 1 528 0
 887 0014 0199     		ldr	r1, [sp, #4]
 888 0016 2A68     		ldr	r2, [r5]
 889              		.loc 1 508 0
 890 0018 0948     		ldr	r0, .L89+12
 891 001a A063     		str	r0, [r4, #56]
 892              		.loc 1 507 0
 893 001c 0025     		movs	r5, #0
 894              		.loc 1 510 0
 895 001e 03F15400 		add	r0, r3, #84
 896              		.loc 1 528 0
 897 0022 9142     		cmp	r1, r2
 898              		.loc 1 507 0
 899 0024 2562     		str	r5, [r4, #32]
 900              		.loc 1 510 0
 901 0026 C4E90C30 		strd	r3, r0, [r4, #48]
 902              		.loc 1 528 0
 903 002a 01D1     		bne	.L88
 904 002c 03B0     		add	sp, sp, #12
 905              		.cfi_remember_state
 906              		.cfi_def_cfa_offset 12
 907              		@ sp needed
 908 002e 30BD     		pop	{r4, r5, pc}
 909              	.L88:
 910              		.cfi_restore_state
 911 0030 FFF7FEFF 		bl	__stack_chk_fail
 912              	.LVL61:
ARM GAS  C:\Users\Moi\AppData\Local\Temp\ccyDCUJv.s 			page 17


 913              	.L90:
 914              		.align	2
 915              	.L89:
 916 0034 00000000 		.word	.LANCHOR0
 917 0038 00000000 		.word	__stack_chk_guard
 918 003c 00000000 		.word	_stm32_dma_streams
 919 0040 00540040 		.word	1073763328
 920              		.cfi_endproc
 921              	.LFE265:
 922              		.size	i2c_lld_init, .-i2c_lld_init
 923              		.section	.text.i2c_lld_start,"ax",%progbits
 924              		.align	1
 925              		.p2align 4,,15
 926              		.global	i2c_lld_start
 927              		.syntax unified
 928              		.thumb
 929              		.thumb_func
 930              		.fpu fpv4-sp-d16
 931              		.type	i2c_lld_start, %function
 932              	i2c_lld_start:
 933              	.LFB266:
 934              		.loc 1 537 0
 935              		.cfi_startproc
 936              		@ args = 0, pretend = 0, frame = 8
 937              		@ frame_needed = 0, uses_anonymous_args = 0
 938              	.LVL62:
 939 0000 2DE9F043 		push	{r4, r5, r6, r7, r8, r9, lr}
 940              		.cfi_def_cfa_offset 28
 941              		.cfi_offset 4, -28
 942              		.cfi_offset 5, -24
 943              		.cfi_offset 6, -20
 944              		.cfi_offset 7, -16
 945              		.cfi_offset 8, -12
 946              		.cfi_offset 9, -8
 947              		.cfi_offset 14, -4
 948 0004 904F     		ldr	r7, .L146
 949              		.loc 1 550 0
 950 0006 0378     		ldrb	r3, [r0]	@ zero_extendqisi2
 951              		.loc 1 537 0
 952 0008 3A68     		ldr	r2, [r7]
 953              		.loc 1 538 0
 954 000a 856B     		ldr	r5, [r0, #56]
 955              	.LVL63:
 956              		.loc 1 537 0
 957 000c 83B0     		sub	sp, sp, #12
 958              		.cfi_def_cfa_offset 40
 959              		.loc 1 544 0
 960 000e 40F25641 		movw	r1, #1110
 961              		.loc 1 537 0
 962 0012 0192     		str	r2, [sp, #4]
 963              		.loc 1 550 0
 964 0014 012B     		cmp	r3, #1
 965              		.loc 1 544 0
 966 0016 40F21642 		movw	r2, #1046
 967              		.loc 1 537 0
 968 001a 0446     		mov	r4, r0
 969              		.loc 1 544 0
ARM GAS  C:\Users\Moi\AppData\Local\Temp\ccyDCUJv.s 			page 18


 970 001c C0E90A21 		strd	r2, r1, [r0, #40]
 971              		.loc 1 550 0
 972 0020 00F08B80 		beq	.L136
 973              	.L115:
 974              		.loc 1 538 0
 975 0024 A846     		mov	r8, r5
 976              	.LVL64:
 977              	.L92:
 978              		.loc 1 633 0
 979 0026 D4E90C12 		ldrd	r1, r2, [r4, #48]
 980 002a 6368     		ldr	r3, [r4, #4]
 981              	.LVL65:
 982              		.loc 1 632 0
 983 002c 0868     		ldr	r0, [r1]
 984              		.loc 1 633 0
 985 002e 1168     		ldr	r1, [r2]
 986              	.LBB303:
 987              	.LBB304:
 988              		.loc 1 146 0
 989 0030 5E68     		ldr	r6, [r3, #4]
 990              	.LVL66:
 991              		.loc 1 147 0
 992 0032 93F80890 		ldrb	r9, [r3, #8]	@ zero_extendqisi2
 993              	.LVL67:
 994              		.loc 1 149 0
 995 0036 854A     		ldr	r2, .L146+4
 996              	.LBE304:
 997              	.LBE303:
 998              		.loc 1 632 0
 999 0038 05F11003 		add	r3, r5, #16
 1000 003c 8360     		str	r3, [r0, #8]
 1001              		.loc 1 633 0
 1002 003e 8B60     		str	r3, [r1, #8]
 1003              		.loc 1 636 0
 1004 0040 4FF40041 		mov	r1, #32768
 1005 0044 2960     		str	r1, [r5]
 1006              	.LBB313:
 1007              	.LBB305:
 1008              		.loc 1 149 0
 1009 0046 731E     		subs	r3, r6, #1
 1010              	.LBE305:
 1011              	.LBE313:
 1012              		.loc 1 637 0
 1013 0048 0021     		movs	r1, #0
 1014 004a 2960     		str	r1, [r5]
 1015              	.LBB314:
 1016              	.LBB306:
 1017              		.loc 1 149 0
 1018 004c 9342     		cmp	r3, r2
 1019              	.LBE306:
 1020              	.LBE314:
 1021              		.loc 1 638 0
 1022 004e 4FF41061 		mov	r1, #2304
 1023 0052 6960     		str	r1, [r5, #4]
 1024              	.LBB315:
 1025              	.LBB307:
 1026              		.loc 1 149 0
ARM GAS  C:\Users\Moi\AppData\Local\Temp\ccyDCUJv.s 			page 19


 1027 0054 02D9     		bls	.L95
 1028 0056 7E48     		ldr	r0, .L146+8
 1029 0058 FFF7FEFF 		bl	chSysHalt
 1030              	.LVL68:
 1031              	.L95:
 1032              		.loc 1 154 0
 1033 005c D8F80430 		ldr	r3, [r8, #4]
 1034              		.loc 1 161 0
 1035 0060 7C4A     		ldr	r2, .L146+12
 1036              		.loc 1 154 0
 1037 0062 4FF6C071 		movw	r1, #65472
 1038 0066 0B40     		ands	r3, r3, r1
 1039 0068 C8F80430 		str	r3, [r8, #4]
 1040              		.loc 1 155 0
 1041 006c D8F80430 		ldr	r3, [r8, #4]
 1042              		.loc 1 161 0
 1043 0070 9642     		cmp	r6, r2
 1044              		.loc 1 155 0
 1045 0072 43F02A03 		orr	r3, r3, #42
 1046 0076 C8F80430 		str	r3, [r8, #4]
 1047              	.LVL69:
 1048              		.loc 1 161 0
 1049 007a 3CDC     		bgt	.L96
 1050              		.loc 1 163 0
 1051 007c B9F1010F 		cmp	r9, #1
 1052 0080 40F08F80 		bne	.L137
 1053              	.L97:
 1054              		.loc 1 166 0
 1055 0084 744A     		ldr	r2, .L146+16
 1056 0086 4FEA4609 		lsl	r9, r6, #1
 1057              	.LVL70:
 1058 008a B2FBF9F3 		udiv	r3, r2, r9
 1059 008e 09FB1323 		mls	r3, r9, r3, r2
 1060 0092 002B     		cmp	r3, #0
 1061 0094 40F09580 		bne	.L138
 1062              		.loc 1 168 0
 1063 0098 6F4E     		ldr	r6, .L146+16
 1064              	.LVL71:
 1065 009a B6FBF9F6 		udiv	r6, r6, r9
 1066 009e B6B2     		uxth	r6, r6
 1067              	.LVL72:
 1068              		.loc 1 170 0
 1069 00a0 032E     		cmp	r6, #3
 1070 00a2 40F29880 		bls	.L139
 1071              	.L99:
 1072              	.LVL73:
 1073              		.loc 1 175 0
 1074 00a6 2B23     		movs	r3, #43
 1075              		.loc 1 205 0
 1076 00a8 B6F5805F 		cmp	r6, #4096
 1077              		.loc 1 175 0
 1078 00ac C8F82030 		str	r3, [r8, #32]
 1079 00b0 C6F30B09 		ubfx	r9, r6, #0, #12
 1080              		.loc 1 205 0
 1081 00b4 02D3     		bcc	.L100
 1082 00b6 6648     		ldr	r0, .L146+8
 1083 00b8 FFF7FEFF 		bl	chSysHalt
ARM GAS  C:\Users\Moi\AppData\Local\Temp\ccyDCUJv.s 			page 20


 1084              	.LVL74:
 1085              	.L100:
 1086              	.LBE307:
 1087              	.LBE315:
 1088              	.LBB316:
 1089              	.LBB317:
 1090              		.loc 1 219 0
 1091 00bc 6368     		ldr	r3, [r4, #4]
 1092 00be A16B     		ldr	r1, [r4, #56]
 1093              		.loc 1 223 0
 1094 00c0 1A78     		ldrb	r2, [r3]	@ zero_extendqisi2
 1095              	.LBE317:
 1096              	.LBE316:
 1097              	.LBB320:
 1098              	.LBB308:
 1099              		.loc 1 207 0
 1100 00c2 C8F81C90 		str	r9, [r8, #28]
 1101              	.LVL75:
 1102              	.LBE308:
 1103              	.LBE320:
 1104              	.LBB321:
 1105              	.LBB318:
 1106              		.loc 1 222 0
 1107 00c6 0B68     		ldr	r3, [r1]
 1108              		.loc 1 223 0
 1109 00c8 022A     		cmp	r2, #2
 1110              		.loc 1 222 0
 1111 00ca 9BB2     		uxth	r3, r3
 1112              	.LVL76:
 1113              		.loc 1 223 0
 1114 00cc 73D0     		beq	.L110
 1115 00ce 032A     		cmp	r2, #3
 1116 00d0 6ED0     		beq	.L111
 1117 00d2 012A     		cmp	r2, #1
 1118 00d4 02D1     		bne	.L109
 1119              		.loc 1 225 0
 1120 00d6 23F00A03 		bic	r3, r3, #10
 1121              	.LVL77:
 1122 00da 9BB2     		uxth	r3, r3
 1123              	.LVL78:
 1124              	.L109:
 1125              		.loc 1 235 0
 1126 00dc 0B60     		str	r3, [r1]
 1127              	.LVL79:
 1128              	.LBE318:
 1129              	.LBE321:
 1130              		.loc 1 645 0
 1131 00de 2B68     		ldr	r3, [r5]
 1132 00e0 43F00103 		orr	r3, r3, #1
 1133 00e4 2B60     		str	r3, [r5]
 1134              		.loc 1 646 0
 1135 00e6 019A     		ldr	r2, [sp, #4]
 1136 00e8 3B68     		ldr	r3, [r7]
 1137 00ea 9A42     		cmp	r2, r3
 1138 00ec 40F0AA80 		bne	.L140
 1139 00f0 03B0     		add	sp, sp, #12
 1140              		.cfi_remember_state
ARM GAS  C:\Users\Moi\AppData\Local\Temp\ccyDCUJv.s 			page 21


 1141              		.cfi_def_cfa_offset 28
 1142              		@ sp needed
 1143 00f2 BDE8F083 		pop	{r4, r5, r6, r7, r8, r9, pc}
 1144              	.LVL80:
 1145              	.L96:
 1146              		.cfi_restore_state
 1147              	.LBB322:
 1148              	.LBB309:
 1149              		.loc 1 177 0
 1150 00f6 594B     		ldr	r3, .L146+20
 1151 00f8 9E42     		cmp	r6, r3
 1152 00fa 56DC     		bgt	.L116
 1153              		.loc 1 179 0
 1154 00fc A9F10203 		sub	r3, r9, #2
 1155 0100 012B     		cmp	r3, #1
 1156 0102 71D8     		bhi	.L141
 1157              		.loc 1 183 0
 1158 0104 B9F1020F 		cmp	r9, #2
 1159 0108 77D1     		bne	.L104
 1160              		.loc 1 185 0
 1161 010a 534A     		ldr	r2, .L146+16
 1162 010c 06EB4606 		add	r6, r6, r6, lsl #1
 1163              	.LVL81:
 1164 0110 B2FBF6F3 		udiv	r3, r2, r6
 1165 0114 06FB1323 		mls	r3, r6, r3, r2
 1166 0118 002B     		cmp	r3, #0
 1167 011a 40F08F80 		bne	.L142
 1168              	.L105:
 1169              		.loc 1 187 0
 1170 011e 4E4B     		ldr	r3, .L146+16
 1171 0120 B3FBF6F9 		udiv	r9, r3, r6
 1172              	.LVL82:
 1173              		.loc 1 158 0
 1174 0124 0023     		movs	r3, #0
 1175              		.loc 1 187 0
 1176 0126 1FFA89F9 		uxth	r9, r9
 1177              	.LVL83:
 1178              	.L106:
 1179              		.loc 1 199 0
 1180 012a 49EA0309 		orr	r9, r9, r3
 1181              	.LVL84:
 1182              		.loc 1 202 0
 1183 012e 0D23     		movs	r3, #13
 1184 0130 49F40049 		orr	r9, r9, #32768
 1185              	.LVL85:
 1186 0134 C8F82030 		str	r3, [r8, #32]
 1187 0138 C0E7     		b	.L100
 1188              	.LVL86:
 1189              	.L136:
 1190              	.LBE309:
 1191              	.LBE322:
 1192              		.loc 1 553 0
 1193 013a 494E     		ldr	r6, .L146+24
 1194 013c B042     		cmp	r0, r6
 1195 013e 7FF471AF 		bne	.L115
 1196              	.LBB323:
 1197              		.loc 1 556 0
ARM GAS  C:\Users\Moi\AppData\Local\Temp\ccyDCUJv.s 			page 22


 1198 0142 484B     		ldr	r3, .L146+28
 1199              		.loc 1 557 0
 1200 0144 006B     		ldr	r0, [r0, #48]
 1201              	.LVL87:
 1202              		.loc 1 556 0
 1203 0146 196A     		ldr	r1, [r3, #32]
 1204              		.loc 1 557 0
 1205 0148 474A     		ldr	r2, .L146+32
 1206              		.loc 1 556 0
 1207 014a 41F40011 		orr	r1, r1, #2097152
 1208 014e 4FF0000C 		mov	ip, #0
 1209 0152 1962     		str	r1, [r3, #32]
 1210 0154 C3F820C0 		str	ip, [r3, #32]
 1211              		.loc 1 557 0
 1212 0158 0521     		movs	r1, #5
 1213 015a 2346     		mov	r3, r4
 1214 015c FFF7FEFF 		bl	dmaStreamAllocate
 1215              	.LVL88:
 1216              		.loc 1 561 0
 1217 0160 0028     		cmp	r0, #0
 1218 0162 67D1     		bne	.L143
 1219              	.LVL89:
 1220              	.L93:
 1221              		.loc 1 562 0
 1222 0164 3E4B     		ldr	r3, .L146+24
 1223 0166 414A     		ldr	r2, .L146+36
 1224 0168 706B     		ldr	r0, [r6, #52]
 1225 016a 0521     		movs	r1, #5
 1226 016c FFF7FEFF 		bl	dmaStreamAllocate
 1227              	.LVL90:
 1228              		.loc 1 566 0
 1229 0170 0028     		cmp	r0, #0
 1230 0172 5BD1     		bne	.L144
 1231              	.LVL91:
 1232              	.L94:
 1233              		.loc 1 567 0
 1234 0174 3B4A     		ldr	r2, .L146+28
 1235 0176 136C     		ldr	r3, [r2, #64]
 1236 0178 43F40013 		orr	r3, r3, #2097152
 1237 017c 1364     		str	r3, [r2, #64]
 1238              		.loc 1 568 0
 1239 017e 0521     		movs	r1, #5
 1240 0180 1F20     		movs	r0, #31
 1241 0182 FFF7FEFF 		bl	nvicEnableVector
 1242              	.LVL92:
 1243              		.loc 1 569 0
 1244 0186 0521     		movs	r1, #5
 1245 0188 2020     		movs	r0, #32
 1246 018a FFF7FEFF 		bl	nvicEnableVector
 1247              	.LVL93:
 1248              		.loc 1 571 0
 1249 018e B26A     		ldr	r2, [r6, #40]
 1250 0190 3749     		ldr	r1, .L146+40
 1251              		.loc 1 573 0
 1252 0192 F36A     		ldr	r3, [r6, #44]
 1253 0194 D6F83880 		ldr	r8, [r6, #56]
 1254              		.loc 1 571 0
ARM GAS  C:\Users\Moi\AppData\Local\Temp\ccyDCUJv.s 			page 23


 1255 0198 0A43     		orrs	r2, r2, r1
 1256              		.loc 1 573 0
 1257 019a 0B43     		orrs	r3, r3, r1
 1258 019c C6E90A23 		strd	r2, r3, [r6, #40]
 1259 01a0 41E7     		b	.L92
 1260              	.LVL94:
 1261              	.L137:
 1262              	.LBE323:
 1263              	.LBB324:
 1264              	.LBB310:
 1265              		.loc 1 163 0
 1266 01a2 2B48     		ldr	r0, .L146+8
 1267 01a4 FFF7FEFF 		bl	chSysHalt
 1268              	.LVL95:
 1269 01a8 6CE7     		b	.L97
 1270              	.L116:
 1271              		.loc 1 177 0
 1272 01aa 4FF00009 		mov	r9, #0
 1273              	.LVL96:
 1274 01ae 85E7     		b	.L100
 1275              	.LVL97:
 1276              	.L111:
 1277              	.LBE310:
 1278              	.LBE324:
 1279              	.LBB325:
 1280              	.LBB319:
 1281              		.loc 1 232 0
 1282 01b0 43F00A03 		orr	r3, r3, #10
 1283              	.LVL98:
 1284 01b4 92E7     		b	.L109
 1285              	.L110:
 1286              	.LVL99:
 1287 01b6 23F00803 		bic	r3, r3, #8
 1288              	.LVL100:
 1289 01ba 9BB2     		uxth	r3, r3
 1290              		.loc 1 229 0
 1291 01bc 43F00203 		orr	r3, r3, #2
 1292              	.LVL101:
 1293 01c0 8CE7     		b	.L109
 1294              	.LVL102:
 1295              	.L138:
 1296              	.LBE319:
 1297              	.LBE325:
 1298              	.LBB326:
 1299              	.LBB311:
 1300              		.loc 1 166 0
 1301 01c2 2348     		ldr	r0, .L146+8
 1302              		.loc 1 168 0
 1303 01c4 244E     		ldr	r6, .L146+16
 1304              	.LVL103:
 1305              		.loc 1 166 0
 1306 01c6 FFF7FEFF 		bl	chSysHalt
 1307              	.LVL104:
 1308              		.loc 1 168 0
 1309 01ca B6FBF9F6 		udiv	r6, r6, r9
 1310 01ce B6B2     		uxth	r6, r6
 1311              	.LVL105:
ARM GAS  C:\Users\Moi\AppData\Local\Temp\ccyDCUJv.s 			page 24


 1312              		.loc 1 170 0
 1313 01d0 032E     		cmp	r6, #3
 1314 01d2 3FF668AF 		bhi	.L99
 1315              	.L139:
 1316 01d6 1E48     		ldr	r0, .L146+8
 1317 01d8 FFF7FEFF 		bl	chSysHalt
 1318              	.LVL106:
 1319              		.loc 1 175 0
 1320 01dc 2B23     		movs	r3, #43
 1321 01de C6F30B09 		ubfx	r9, r6, #0, #12
 1322 01e2 C8F82030 		str	r3, [r8, #32]
 1323 01e6 69E7     		b	.L100
 1324              	.LVL107:
 1325              	.L141:
 1326              		.loc 1 179 0
 1327 01e8 1948     		ldr	r0, .L146+8
 1328 01ea FFF7FEFF 		bl	chSysHalt
 1329              	.LVL108:
 1330              	.L103:
 1331              		.loc 1 202 0
 1332 01ee 0D23     		movs	r3, #13
 1333 01f0 C8F82030 		str	r3, [r8, #32]
 1334 01f4 48F6FF79 		movw	r9, #36863
 1335              	.LVL109:
 1336 01f8 60E7     		b	.L100
 1337              	.LVL110:
 1338              	.L104:
 1339              		.loc 1 189 0
 1340 01fa B9F1030F 		cmp	r9, #3
 1341 01fe F6D1     		bne	.L103
 1342              		.loc 1 191 0
 1343 0200 154A     		ldr	r2, .L146+16
 1344 0202 06EB8606 		add	r6, r6, r6, lsl #2
 1345              	.LVL111:
 1346 0206 06EB8606 		add	r6, r6, r6, lsl #2
 1347 020a B2FBF6F3 		udiv	r3, r2, r6
 1348 020e 06FB1323 		mls	r3, r6, r3, r2
 1349 0212 3BB9     		cbnz	r3, .L145
 1350              	.L108:
 1351              		.loc 1 193 0
 1352 0214 104B     		ldr	r3, .L146+16
 1353 0216 B3FBF6F6 		udiv	r6, r3, r6
 1354              		.loc 1 194 0
 1355 021a 4FF48043 		mov	r3, #16384
 1356              		.loc 1 193 0
 1357 021e 1FFA86F9 		uxth	r9, r6
 1358              	.LVL112:
 1359 0222 82E7     		b	.L106
 1360              	.LVL113:
 1361              	.L145:
 1362              		.loc 1 191 0
 1363 0224 0A48     		ldr	r0, .L146+8
 1364 0226 FFF7FEFF 		bl	chSysHalt
 1365              	.LVL114:
 1366 022a F3E7     		b	.L108
 1367              	.LVL115:
 1368              	.L144:
ARM GAS  C:\Users\Moi\AppData\Local\Temp\ccyDCUJv.s 			page 25


 1369              	.LBE311:
 1370              	.LBE326:
 1371              	.LBB327:
 1372              		.loc 1 566 0 discriminator 2
 1373 022c 1148     		ldr	r0, .L146+44
 1374              	.LVL116:
 1375 022e FFF7FEFF 		bl	chSysHalt
 1376              	.LVL117:
 1377 0232 9FE7     		b	.L94
 1378              	.LVL118:
 1379              	.L143:
 1380              		.loc 1 561 0 discriminator 2
 1381 0234 0F48     		ldr	r0, .L146+44
 1382              	.LVL119:
 1383 0236 FFF7FEFF 		bl	chSysHalt
 1384              	.LVL120:
 1385 023a 93E7     		b	.L93
 1386              	.LVL121:
 1387              	.L142:
 1388              	.LBE327:
 1389              	.LBB328:
 1390              	.LBB312:
 1391              		.loc 1 185 0
 1392 023c 0448     		ldr	r0, .L146+8
 1393 023e FFF7FEFF 		bl	chSysHalt
 1394              	.LVL122:
 1395 0242 6CE7     		b	.L105
 1396              	.LVL123:
 1397              	.L140:
 1398              	.LBE312:
 1399              	.LBE328:
 1400              		.loc 1 646 0
 1401 0244 FFF7FEFF 		bl	__stack_chk_fail
 1402              	.LVL124:
 1403              	.L147:
 1404              		.align	2
 1405              	.L146:
 1406 0248 00000000 		.word	__stack_chk_guard
 1407 024c FF083D00 		.word	3999999
 1408 0250 00000000 		.word	.LANCHOR2
 1409 0254 A0860100 		.word	100000
 1410 0258 80DE8002 		.word	42000000
 1411 025c 801A0600 		.word	400000
 1412 0260 00000000 		.word	.LANCHOR0
 1413 0264 00380240 		.word	1073887232
 1414 0268 00000000 		.word	i2c_lld_serve_rx_end_irq
 1415 026c 00000000 		.word	i2c_lld_serve_tx_end_irq
 1416 0270 00000302 		.word	33751040
 1417 0274 00000000 		.word	.LANCHOR1
 1418              		.cfi_endproc
 1419              	.LFE266:
 1420              		.size	i2c_lld_start, .-i2c_lld_start
 1421              		.section	.text.i2c_lld_stop,"ax",%progbits
 1422              		.align	1
 1423              		.p2align 4,,15
 1424              		.global	i2c_lld_stop
 1425              		.syntax unified
ARM GAS  C:\Users\Moi\AppData\Local\Temp\ccyDCUJv.s 			page 26


 1426              		.thumb
 1427              		.thumb_func
 1428              		.fpu fpv4-sp-d16
 1429              		.type	i2c_lld_stop, %function
 1430              	i2c_lld_stop:
 1431              	.LFB267:
 1432              		.loc 1 655 0
 1433              		.cfi_startproc
 1434              		@ args = 0, pretend = 0, frame = 8
 1435              		@ frame_needed = 0, uses_anonymous_args = 0
 1436              	.LVL125:
 1437 0000 70B5     		push	{r4, r5, r6, lr}
 1438              		.cfi_def_cfa_offset 16
 1439              		.cfi_offset 4, -16
 1440              		.cfi_offset 5, -12
 1441              		.cfi_offset 6, -8
 1442              		.cfi_offset 14, -4
 1443              		.loc 1 658 0
 1444 0002 0378     		ldrb	r3, [r0]	@ zero_extendqisi2
 1445              		.loc 1 655 0
 1446 0004 234D     		ldr	r5, .L160
 1447 0006 82B0     		sub	sp, sp, #8
 1448              		.cfi_def_cfa_offset 24
 1449              		.loc 1 655 0
 1450 0008 2A68     		ldr	r2, [r5]
 1451 000a 0192     		str	r2, [sp, #4]
 1452              		.loc 1 658 0
 1453 000c 012B     		cmp	r3, #1
 1454 000e 2CD0     		beq	.L148
 1455 0010 0446     		mov	r4, r0
 1456              	.LVL126:
 1457              	.LBB331:
 1458              	.LBB332:
 1459              		.loc 1 123 0
 1460 0012 D0E90D03 		ldrd	r0, r3, [r0, #52]
 1461              	.LVL127:
 1462              		.loc 1 126 0
 1463 0016 4FF40041 		mov	r1, #32768
 1464              		.loc 1 132 0
 1465 001a 0268     		ldr	r2, [r0]
 1466              		.loc 1 126 0
 1467 001c 1960     		str	r1, [r3]
 1468              		.loc 1 127 0
 1469 001e 0021     		movs	r1, #0
 1470 0020 1960     		str	r1, [r3]
 1471              		.loc 1 128 0
 1472 0022 5960     		str	r1, [r3, #4]
 1473              		.loc 1 129 0
 1474 0024 5961     		str	r1, [r3, #20]
 1475              		.loc 1 132 0
 1476 0026 1368     		ldr	r3, [r2]
 1477              	.LVL128:
 1478 0028 23F01F03 		bic	r3, r3, #31
 1479 002c 1360     		str	r3, [r2]
 1480              	.L151:
 1481 002e 1368     		ldr	r3, [r2]
 1482 0030 D907     		lsls	r1, r3, #31
ARM GAS  C:\Users\Moi\AppData\Local\Temp\ccyDCUJv.s 			page 27


 1483 0032 FCD4     		bmi	.L151
 1484 0034 027A     		ldrb	r2, [r0, #8]	@ zero_extendqisi2
 1485              		.loc 1 133 0
 1486 0036 216B     		ldr	r1, [r4, #48]
 1487              		.loc 1 132 0
 1488 0038 4668     		ldr	r6, [r0, #4]
 1489 003a 3D23     		movs	r3, #61
 1490 003c 9340     		lsls	r3, r3, r2
 1491              		.loc 1 133 0
 1492 003e 0A68     		ldr	r2, [r1]
 1493              		.loc 1 132 0
 1494 0040 3360     		str	r3, [r6]
 1495              		.loc 1 133 0
 1496 0042 1368     		ldr	r3, [r2]
 1497 0044 23F01F03 		bic	r3, r3, #31
 1498 0048 1360     		str	r3, [r2]
 1499              	.L152:
 1500 004a 1368     		ldr	r3, [r2]
 1501 004c DB07     		lsls	r3, r3, #31
 1502 004e FCD4     		bmi	.L152
 1503 0050 0E7A     		ldrb	r6, [r1, #8]	@ zero_extendqisi2
 1504 0052 4A68     		ldr	r2, [r1, #4]
 1505 0054 3D23     		movs	r3, #61
 1506 0056 B340     		lsls	r3, r3, r6
 1507 0058 1360     		str	r3, [r2]
 1508              	.LVL129:
 1509              	.LBE332:
 1510              	.LBE331:
 1511              		.loc 1 662 0
 1512 005a FFF7FEFF 		bl	dmaStreamRelease
 1513              	.LVL130:
 1514              		.loc 1 663 0
 1515 005e 206B     		ldr	r0, [r4, #48]
 1516 0060 FFF7FEFF 		bl	dmaStreamRelease
 1517              	.LVL131:
 1518              		.loc 1 666 0
 1519 0064 0C4B     		ldr	r3, .L160+4
 1520 0066 9C42     		cmp	r4, r3
 1521 0068 05D0     		beq	.L158
 1522              	.LVL132:
 1523              	.L148:
 1524              		.loc 1 689 0
 1525 006a 019A     		ldr	r2, [sp, #4]
 1526 006c 2B68     		ldr	r3, [r5]
 1527 006e 9A42     		cmp	r2, r3
 1528 0070 0DD1     		bne	.L159
 1529 0072 02B0     		add	sp, sp, #8
 1530              		.cfi_remember_state
 1531              		.cfi_def_cfa_offset 16
 1532              		@ sp needed
 1533 0074 70BD     		pop	{r4, r5, r6, pc}
 1534              	.LVL133:
 1535              	.L158:
 1536              		.cfi_restore_state
 1537              		.loc 1 667 0
 1538 0076 1F20     		movs	r0, #31
 1539 0078 FFF7FEFF 		bl	nvicDisableVector
ARM GAS  C:\Users\Moi\AppData\Local\Temp\ccyDCUJv.s 			page 28


 1540              	.LVL134:
 1541              		.loc 1 668 0
 1542 007c 2020     		movs	r0, #32
 1543 007e FFF7FEFF 		bl	nvicDisableVector
 1544              	.LVL135:
 1545              		.loc 1 669 0
 1546 0082 064A     		ldr	r2, .L160+8
 1547 0084 136C     		ldr	r3, [r2, #64]
 1548 0086 23F40013 		bic	r3, r3, #2097152
 1549 008a 1364     		str	r3, [r2, #64]
 1550              		.loc 1 689 0
 1551 008c EDE7     		b	.L148
 1552              	.LVL136:
 1553              	.L159:
 1554 008e FFF7FEFF 		bl	__stack_chk_fail
 1555              	.LVL137:
 1556              	.L161:
 1557 0092 00BF     		.align	2
 1558              	.L160:
 1559 0094 00000000 		.word	__stack_chk_guard
 1560 0098 00000000 		.word	.LANCHOR0
 1561 009c 00380240 		.word	1073887232
 1562              		.cfi_endproc
 1563              	.LFE267:
 1564              		.size	i2c_lld_stop, .-i2c_lld_stop
 1565              		.section	.text.i2c_lld_master_receive_timeout,"ax",%progbits
 1566              		.align	1
 1567              		.p2align 4,,15
 1568              		.global	i2c_lld_master_receive_timeout
 1569              		.syntax unified
 1570              		.thumb
 1571              		.thumb_func
 1572              		.fpu fpv4-sp-d16
 1573              		.type	i2c_lld_master_receive_timeout, %function
 1574              	i2c_lld_master_receive_timeout:
 1575              	.LFB268:
 1576              		.loc 1 716 0
 1577              		.cfi_startproc
 1578              		@ args = 4, pretend = 0, frame = 16
 1579              		@ frame_needed = 0, uses_anonymous_args = 0
 1580              	.LVL138:
 1581 0000 2DE9F04F 		push	{r4, r5, r6, r7, r8, r9, r10, fp, lr}
 1582              		.cfi_def_cfa_offset 36
 1583              		.cfi_offset 4, -36
 1584              		.cfi_offset 5, -32
 1585              		.cfi_offset 6, -28
 1586              		.cfi_offset 7, -24
 1587              		.cfi_offset 8, -20
 1588              		.cfi_offset 9, -16
 1589              		.cfi_offset 10, -12
 1590              		.cfi_offset 11, -8
 1591              		.cfi_offset 14, -4
 1592 0004 DFF800A1 		ldr	r10, .L175+4
 1593              	.LBB364:
 1594              	.LBB365:
 1595              	.LBB366:
 1596              		.loc 4 367 0
ARM GAS  C:\Users\Moi\AppData\Local\Temp\ccyDCUJv.s 			page 29


 1597 0008 DFF800B1 		ldr	fp, .L175+8
 1598              	.LBE366:
 1599              	.LBE365:
 1600              	.LBE364:
 1601              		.loc 1 716 0
 1602 000c 85B0     		sub	sp, sp, #20
 1603              		.cfi_def_cfa_offset 56
 1604              		.loc 1 716 0
 1605 000e 8046     		mov	r8, r0
 1606              		.loc 1 728 0
 1607 0010 4C00     		lsls	r4, r1, #1
 1608              		.loc 1 716 0
 1609 0012 DAF80000 		ldr	r0, [r10]
 1610              	.LVL139:
 1611 0016 0390     		str	r0, [sp, #12]
 1612              		.loc 1 728 0
 1613 0018 44F00104 		orr	r4, r4, #1
 1614              		.loc 1 725 0
 1615 001c 0020     		movs	r0, #0
 1616              		.loc 1 728 0
 1617 001e A8F82440 		strh	r4, [r8, #36]	@ movhi
 1618              		.loc 1 725 0
 1619 0022 C8F80800 		str	r0, [r8, #8]
 1620              		.loc 1 716 0
 1621 0026 1E46     		mov	r6, r3
 1622 0028 0E9B     		ldr	r3, [sp, #56]
 1623              	.LVL140:
 1624 002a 0193     		str	r3, [sp, #4]
 1625 002c 1746     		mov	r7, r2
 1626              		.loc 1 717 0
 1627 002e D8F83840 		ldr	r4, [r8, #56]
 1628              	.LVL141:
 1629              	.LBB374:
 1630              	.LBB372:
 1631              	.LBB370:
 1632              		.loc 4 360 0
 1633 0032 FFF7FEFF 		bl	_dbg_check_unlock
 1634              	.LVL142:
 1635              		.loc 4 361 0
 1636 0036 FFF7FEFF 		bl	_stats_stop_measure_crit_thd
 1637              	.LVL143:
 1638              		.loc 4 367 0
 1639 003a DBF80030 		ldr	r3, [fp]
 1640 003e 5B45     		cmp	r3, fp
 1641 0040 05D0     		beq	.L163
 1642 0042 DBF81820 		ldr	r2, [fp, #24]
 1643 0046 9B68     		ldr	r3, [r3, #8]
 1644 0048 9268     		ldr	r2, [r2, #8]
 1645 004a 9A42     		cmp	r2, r3
 1646 004c 3ED3     		bcc	.L173
 1647              	.L163:
 1648              	.LVL144:
 1649              	.LBB367:
 1650              	.LBB368:
 1651              	.LBB369:
 1652              		.loc 3 546 0
 1653 004e 0025     		movs	r5, #0
ARM GAS  C:\Users\Moi\AppData\Local\Temp\ccyDCUJv.s 			page 30


 1654              		.syntax unified
 1655              	@ 546 "..//ChibiOS//os/ext/CMSIS/include/core_cmFunc.h" 1
 1656 0050 85F31188 		MSR basepri, r5
 1657              	@ 0 "" 2
 1658              	.LVL145:
 1659              		.thumb
 1660              		.syntax unified
 1661              	.LBE369:
 1662              	.LBE368:
 1663              	.LBE367:
 1664              	.LBE370:
 1665              	.LBE372:
 1666              	.LBE374:
 1667              		.loc 1 734 0
 1668 0054 D8F83030 		ldr	r3, [r8, #48]
 1669 0058 D8F82820 		ldr	r2, [r8, #40]
 1670 005c 1B68     		ldr	r3, [r3]
 1671              	.LBB375:
 1672              	.LBB376:
 1673              	.LBB377:
 1674              		.loc 4 367 0
 1675 005e DFF8A490 		ldr	r9, .L175
 1676              	.LBE377:
 1677              	.LBE376:
 1678              	.LBE375:
 1679              		.loc 1 734 0
 1680 0062 1A60     		str	r2, [r3]
 1681              		.loc 1 735 0
 1682 0064 DF60     		str	r7, [r3, #12]
 1683              		.loc 1 736 0
 1684 0066 5E60     		str	r6, [r3, #4]
 1685              	.LBB383:
 1686              	.LBB384:
 1687              	.LBB385:
 1688              		.file 5 "..//ChibiOS//os/rt/include/chvt.h"
 1689              		.loc 5 231 0
 1690 0068 DBF82870 		ldr	r7, [fp, #40]
 1691              	.LVL146:
 1692              	.LBE385:
 1693              	.LBE384:
 1694              	.LBE383:
 1695              	.LBB386:
 1696              	.LBB387:
 1697              	.LBB388:
 1698              	.LBB389:
 1699              	.LBB390:
 1700              	.LBB391:
 1701              		.loc 3 546 0
 1702 006c 2026     		movs	r6, #32
 1703              	.LVL147:
 1704 006e 12E0     		b	.L168
 1705              	.LVL148:
 1706              	.L174:
 1707              	.LBE391:
 1708              	.LBE390:
 1709              	.LBE389:
 1710              	.LBE388:
ARM GAS  C:\Users\Moi\AppData\Local\Temp\ccyDCUJv.s 			page 31


 1711              	.LBE387:
 1712              	.LBE386:
 1713              	.LBB397:
 1714              	.LBB382:
 1715              	.LBB381:
 1716              		.loc 4 360 0
 1717 0070 FFF7FEFF 		bl	_dbg_check_unlock
 1718              	.LVL149:
 1719              		.loc 4 361 0
 1720 0074 FFF7FEFF 		bl	_stats_stop_measure_crit_thd
 1721              	.LVL150:
 1722              		.loc 4 367 0
 1723 0078 DBF80030 		ldr	r3, [fp]
 1724 007c 5B45     		cmp	r3, fp
 1725 007e 08D0     		beq	.L167
 1726 0080 DBF81820 		ldr	r2, [fp, #24]
 1727 0084 9B68     		ldr	r3, [r3, #8]
 1728 0086 9268     		ldr	r2, [r2, #8]
 1729 0088 9A42     		cmp	r2, r3
 1730 008a 02D2     		bcs	.L167
 1731 008c 4846     		mov	r0, r9
 1732 008e FFF7FEFF 		bl	chSysHalt
 1733              	.LVL151:
 1734              	.L167:
 1735              	.LBB378:
 1736              	.LBB379:
 1737              	.LBB380:
 1738              		.loc 3 546 0
 1739              		.syntax unified
 1740              	@ 546 "..//ChibiOS//os/ext/CMSIS/include/core_cmFunc.h" 1
 1741 0092 85F31188 		MSR basepri, r5
 1742              	@ 0 "" 2
 1743              	.LVL152:
 1744              		.thumb
 1745              		.syntax unified
 1746              	.L168:
 1747              	.LBE380:
 1748              	.LBE379:
 1749              	.LBE378:
 1750              	.LBE381:
 1751              	.LBE382:
 1752              	.LBE397:
 1753              	.LBB398:
 1754              	.LBB396:
 1755              	.LBB395:
 1756              	.LBB394:
 1757              	.LBB393:
 1758              	.LBB392:
 1759              		.syntax unified
 1760              	@ 546 "..//ChibiOS//os/ext/CMSIS/include/core_cmFunc.h" 1
 1761 0096 86F31188 		MSR basepri, r6
 1762              	@ 0 "" 2
 1763              	.LVL153:
 1764              		.thumb
 1765              		.syntax unified
 1766              	.LBE392:
 1767              	.LBE393:
ARM GAS  C:\Users\Moi\AppData\Local\Temp\ccyDCUJv.s 			page 32


 1768              	.LBE394:
 1769              		.loc 4 349 0
 1770 009a FFF7FEFF 		bl	_stats_start_measure_crit_thd
 1771              	.LVL154:
 1772              		.loc 4 350 0
 1773 009e FFF7FEFF 		bl	_dbg_check_lock
 1774              	.LVL155:
 1775              	.LBE395:
 1776              	.LBE396:
 1777              	.LBE398:
 1778              		.loc 1 749 0
 1779 00a2 A369     		ldr	r3, [r4, #24]
 1780 00a4 9A07     		lsls	r2, r3, #30
 1781 00a6 02D4     		bmi	.L164
 1782              		.loc 1 749 0 is_stmt 0 discriminator 1
 1783 00a8 2368     		ldr	r3, [r4]
 1784 00aa 9B05     		lsls	r3, r3, #22
 1785 00ac 12D5     		bpl	.L165
 1786              	.L164:
 1787              	.LBB399:
 1788              	.LBB400:
 1789              	.LBB401:
 1790              		.loc 5 231 0 is_stmt 1
 1791 00ae DBF82830 		ldr	r3, [fp, #40]
 1792              	.LBE401:
 1793              	.LBE400:
 1794              	.LBE399:
 1795              	.LBB402:
 1796              	.LBB403:
 1797              	.LBB404:
 1798              		.loc 5 288 0
 1799 00b2 DB1B     		subs	r3, r3, r7
 1800              	.LBE404:
 1801              	.LBE403:
 1802              	.LBE402:
 1803              		.loc 1 754 0
 1804 00b4 312B     		cmp	r3, #49
 1805 00b6 DBD9     		bls	.L174
 1806              		.loc 1 766 0
 1807 00b8 039A     		ldr	r2, [sp, #12]
 1808 00ba DAF80030 		ldr	r3, [r10]
 1809 00be 9A42     		cmp	r2, r3
 1810 00c0 4FF0FF30 		mov	r0, #-1
 1811 00c4 1BD1     		bne	.L172
 1812 00c6 05B0     		add	sp, sp, #20
 1813              		.cfi_remember_state
 1814              		.cfi_def_cfa_offset 36
 1815              		@ sp needed
 1816 00c8 BDE8F08F 		pop	{r4, r5, r6, r7, r8, r9, r10, fp, pc}
 1817              	.LVL156:
 1818              	.L173:
 1819              		.cfi_restore_state
 1820              	.LBB405:
 1821              	.LBB373:
 1822              	.LBB371:
 1823              		.loc 4 367 0
 1824 00cc 0D48     		ldr	r0, .L175
ARM GAS  C:\Users\Moi\AppData\Local\Temp\ccyDCUJv.s 			page 33


 1825 00ce FFF7FEFF 		bl	chSysHalt
 1826              	.LVL157:
 1827 00d2 BCE7     		b	.L163
 1828              	.LVL158:
 1829              	.L165:
 1830              	.LBE371:
 1831              	.LBE373:
 1832              	.LBE405:
 1833              		.loc 1 761 0
 1834 00d4 6368     		ldr	r3, [r4, #4]
 1835 00d6 43F40073 		orr	r3, r3, #512
 1836 00da 6360     		str	r3, [r4, #4]
 1837              		.loc 1 762 0
 1838 00dc 2368     		ldr	r3, [r4]
 1839 00de 43F4A063 		orr	r3, r3, #1280
 1840 00e2 2360     		str	r3, [r4]
 1841              	.LVL159:
 1842              	.LBB406:
 1843              	.LBB407:
 1844              		.loc 2 667 0
 1845 00e4 039A     		ldr	r2, [sp, #12]
 1846 00e6 DAF80030 		ldr	r3, [r10]
 1847 00ea 9A42     		cmp	r2, r3
 1848 00ec 07D1     		bne	.L172
 1849 00ee 0199     		ldr	r1, [sp, #4]
 1850 00f0 08F12000 		add	r0, r8, #32
 1851              	.LVL160:
 1852              	.LBE407:
 1853              	.LBE406:
 1854              		.loc 1 766 0
 1855 00f4 05B0     		add	sp, sp, #20
 1856              		.cfi_remember_state
 1857              		.cfi_def_cfa_offset 36
 1858              		@ sp needed
 1859 00f6 BDE8F04F 		pop	{r4, r5, r6, r7, r8, r9, r10, fp, lr}
 1860              		.cfi_restore 14
 1861              		.cfi_restore 11
 1862              		.cfi_restore 10
 1863              		.cfi_restore 9
 1864              		.cfi_restore 8
 1865              		.cfi_restore 7
 1866              		.cfi_restore 6
 1867              		.cfi_restore 5
 1868              		.cfi_restore 4
 1869              		.cfi_def_cfa_offset 0
 1870              	.LVL161:
 1871              	.LBB409:
 1872              	.LBB408:
 1873              		.loc 2 667 0
 1874 00fa FFF7FEBF 		b	chThdSuspendTimeoutS
 1875              	.LVL162:
 1876              	.L172:
 1877              		.cfi_restore_state
 1878              	.LBE408:
 1879              	.LBE409:
 1880              		.loc 1 766 0
 1881 00fe FFF7FEFF 		bl	__stack_chk_fail
ARM GAS  C:\Users\Moi\AppData\Local\Temp\ccyDCUJv.s 			page 34


 1882              	.LVL163:
 1883              	.L176:
 1884 0102 00BF     		.align	2
 1885              	.L175:
 1886 0104 00000000 		.word	.LANCHOR3
 1887 0108 00000000 		.word	__stack_chk_guard
 1888 010c 00000000 		.word	ch
 1889              		.cfi_endproc
 1890              	.LFE268:
 1891              		.size	i2c_lld_master_receive_timeout, .-i2c_lld_master_receive_timeout
 1892              		.section	.text.i2c_lld_master_transmit_timeout,"ax",%progbits
 1893              		.align	1
 1894              		.p2align 4,,15
 1895              		.global	i2c_lld_master_transmit_timeout
 1896              		.syntax unified
 1897              		.thumb
 1898              		.thumb_func
 1899              		.fpu fpv4-sp-d16
 1900              		.type	i2c_lld_master_transmit_timeout, %function
 1901              	i2c_lld_master_transmit_timeout:
 1902              	.LFB269:
 1903              		.loc 1 796 0
 1904              		.cfi_startproc
 1905              		@ args = 12, pretend = 0, frame = 16
 1906              		@ frame_needed = 0, uses_anonymous_args = 0
 1907              	.LVL164:
 1908 0000 2DE9F04F 		push	{r4, r5, r6, r7, r8, r9, r10, fp, lr}
 1909              		.cfi_def_cfa_offset 36
 1910              		.cfi_offset 4, -36
 1911              		.cfi_offset 5, -32
 1912              		.cfi_offset 6, -28
 1913              		.cfi_offset 7, -24
 1914              		.cfi_offset 8, -20
 1915              		.cfi_offset 9, -16
 1916              		.cfi_offset 10, -12
 1917              		.cfi_offset 11, -8
 1918              		.cfi_offset 14, -4
 1919 0004 DFF80CB1 		ldr	fp, .L190+8
 1920              	.LBB441:
 1921              	.LBB442:
 1922              	.LBB443:
 1923              		.loc 4 367 0
 1924 0008 404C     		ldr	r4, .L190
 1925              	.LBE443:
 1926              	.LBE442:
 1927              	.LBE441:
 1928              		.loc 1 796 0
 1929 000a 85B0     		sub	sp, sp, #20
 1930              		.cfi_def_cfa_offset 56
 1931              		.loc 1 796 0
 1932 000c 8146     		mov	r9, r0
 1933 000e DBF80000 		ldr	r0, [fp]
 1934              	.LVL165:
 1935 0012 0390     		str	r0, [sp, #12]
 1936              		.loc 1 808 0
 1937 0014 4900     		lsls	r1, r1, #1
 1938              	.LVL166:
ARM GAS  C:\Users\Moi\AppData\Local\Temp\ccyDCUJv.s 			page 35


 1939              		.loc 1 805 0
 1940 0016 0020     		movs	r0, #0
 1941              		.loc 1 808 0
 1942 0018 A9F82410 		strh	r1, [r9, #36]	@ movhi
 1943              		.loc 1 805 0
 1944 001c C9F80800 		str	r0, [r9, #8]
 1945              		.loc 1 796 0
 1946 0020 9846     		mov	r8, r3
 1947 0022 109B     		ldr	r3, [sp, #64]
 1948              	.LVL167:
 1949 0024 0193     		str	r3, [sp, #4]
 1950 0026 9246     		mov	r10, r2
 1951              		.loc 1 797 0
 1952 0028 D9F83850 		ldr	r5, [r9, #56]
 1953              	.LVL168:
 1954              		.loc 1 796 0
 1955 002c DDE90E67 		ldrd	r6, r7, [sp, #56]
 1956              	.LBB451:
 1957              	.LBB449:
 1958              	.LBB447:
 1959              		.loc 4 360 0
 1960 0030 FFF7FEFF 		bl	_dbg_check_unlock
 1961              	.LVL169:
 1962              		.loc 4 361 0
 1963 0034 FFF7FEFF 		bl	_stats_stop_measure_crit_thd
 1964              	.LVL170:
 1965              		.loc 4 367 0
 1966 0038 2368     		ldr	r3, [r4]
 1967 003a A342     		cmp	r3, r4
 1968 003c 04D0     		beq	.L178
 1969 003e A269     		ldr	r2, [r4, #24]
 1970 0040 9B68     		ldr	r3, [r3, #8]
 1971 0042 9268     		ldr	r2, [r2, #8]
 1972 0044 9A42     		cmp	r2, r3
 1973 0046 45D3     		bcc	.L188
 1974              	.L178:
 1975              	.LVL171:
 1976              	.LBB444:
 1977              	.LBB445:
 1978              	.LBB446:
 1979              		.loc 3 546 0
 1980 0048 0021     		movs	r1, #0
 1981              		.syntax unified
 1982              	@ 546 "..//ChibiOS//os/ext/CMSIS/include/core_cmFunc.h" 1
 1983 004a 81F31188 		MSR basepri, r1
 1984              	@ 0 "" 2
 1985              	.LVL172:
 1986              		.thumb
 1987              		.syntax unified
 1988              	.LBE446:
 1989              	.LBE445:
 1990              	.LBE444:
 1991              	.LBE447:
 1992              	.LBE449:
 1993              	.LBE451:
 1994              		.loc 1 819 0
 1995 004e D9E90C32 		ldrd	r3, r2, [r9, #48]
ARM GAS  C:\Users\Moi\AppData\Local\Temp\ccyDCUJv.s 			page 36


 1996              		.loc 1 814 0
 1997 0052 1268     		ldr	r2, [r2]
 1998 0054 D9F82C00 		ldr	r0, [r9, #44]
 1999              		.loc 1 819 0
 2000 0058 1B68     		ldr	r3, [r3]
 2001              		.loc 1 814 0
 2002 005a 1060     		str	r0, [r2]
 2003              		.loc 1 819 0
 2004 005c D9F82800 		ldr	r0, [r9, #40]
 2005              		.loc 1 815 0
 2006 0060 C2F80CA0 		str	r10, [r2, #12]
 2007              		.loc 1 816 0
 2008 0064 C2F80480 		str	r8, [r2, #4]
 2009              		.loc 1 819 0
 2010 0068 1860     		str	r0, [r3]
 2011              		.loc 1 820 0
 2012 006a DE60     		str	r6, [r3, #12]
 2013              		.loc 1 821 0
 2014 006c 5F60     		str	r7, [r3, #4]
 2015              	.LBB452:
 2016              	.LBB453:
 2017              	.LBB454:
 2018              		.loc 5 231 0
 2019 006e D4F82880 		ldr	r8, [r4, #40]
 2020              	.LVL173:
 2021              	.LBE454:
 2022              	.LBE453:
 2023              	.LBE452:
 2024              	.LBB455:
 2025              	.LBB456:
 2026              	.LBB457:
 2027              		.loc 4 367 0
 2028 0072 DFF89CA0 		ldr	r10, .L190+4
 2029              	.LVL174:
 2030              	.LBB458:
 2031              	.LBB459:
 2032              	.LBB460:
 2033              		.loc 3 546 0
 2034 0076 0E46     		mov	r6, r1
 2035              	.LBE460:
 2036              	.LBE459:
 2037              	.LBE458:
 2038              	.LBE457:
 2039              	.LBE456:
 2040              	.LBE455:
 2041              	.LBB466:
 2042              	.LBB467:
 2043              	.LBB468:
 2044              	.LBB469:
 2045              	.LBB470:
 2046              	.LBB471:
 2047 0078 2027     		movs	r7, #32
 2048 007a 10E0     		b	.L183
 2049              	.L189:
 2050              	.LBE471:
 2051              	.LBE470:
 2052              	.LBE469:
ARM GAS  C:\Users\Moi\AppData\Local\Temp\ccyDCUJv.s 			page 37


 2053              	.LBE468:
 2054              	.LBE467:
 2055              	.LBE466:
 2056              	.LBB477:
 2057              	.LBB465:
 2058              	.LBB464:
 2059              		.loc 4 360 0
 2060 007c FFF7FEFF 		bl	_dbg_check_unlock
 2061              	.LVL175:
 2062              		.loc 4 361 0
 2063 0080 FFF7FEFF 		bl	_stats_stop_measure_crit_thd
 2064              	.LVL176:
 2065              		.loc 4 367 0
 2066 0084 2368     		ldr	r3, [r4]
 2067 0086 A342     		cmp	r3, r4
 2068 0088 07D0     		beq	.L182
 2069 008a A269     		ldr	r2, [r4, #24]
 2070 008c 9B68     		ldr	r3, [r3, #8]
 2071 008e 9268     		ldr	r2, [r2, #8]
 2072 0090 9A42     		cmp	r2, r3
 2073 0092 02D2     		bcs	.L182
 2074 0094 5046     		mov	r0, r10
 2075 0096 FFF7FEFF 		bl	chSysHalt
 2076              	.LVL177:
 2077              	.L182:
 2078              	.LBB463:
 2079              	.LBB462:
 2080              	.LBB461:
 2081              		.loc 3 546 0
 2082              		.syntax unified
 2083              	@ 546 "..//ChibiOS//os/ext/CMSIS/include/core_cmFunc.h" 1
 2084 009a 86F31188 		MSR basepri, r6
 2085              	@ 0 "" 2
 2086              	.LVL178:
 2087              		.thumb
 2088              		.syntax unified
 2089              	.L183:
 2090              	.LBE461:
 2091              	.LBE462:
 2092              	.LBE463:
 2093              	.LBE464:
 2094              	.LBE465:
 2095              	.LBE477:
 2096              	.LBB478:
 2097              	.LBB476:
 2098              	.LBB475:
 2099              	.LBB474:
 2100              	.LBB473:
 2101              	.LBB472:
 2102              		.syntax unified
 2103              	@ 546 "..//ChibiOS//os/ext/CMSIS/include/core_cmFunc.h" 1
 2104 009e 87F31188 		MSR basepri, r7
 2105              	@ 0 "" 2
 2106              	.LVL179:
 2107              		.thumb
 2108              		.syntax unified
 2109              	.LBE472:
ARM GAS  C:\Users\Moi\AppData\Local\Temp\ccyDCUJv.s 			page 38


 2110              	.LBE473:
 2111              	.LBE474:
 2112              		.loc 4 349 0
 2113 00a2 FFF7FEFF 		bl	_stats_start_measure_crit_thd
 2114              	.LVL180:
 2115              		.loc 4 350 0
 2116 00a6 FFF7FEFF 		bl	_dbg_check_lock
 2117              	.LVL181:
 2118              	.LBE475:
 2119              	.LBE476:
 2120              	.LBE478:
 2121              		.loc 1 834 0
 2122 00aa AB69     		ldr	r3, [r5, #24]
 2123 00ac 9A07     		lsls	r2, r3, #30
 2124 00ae 02D4     		bmi	.L179
 2125              		.loc 1 834 0 is_stmt 0 discriminator 1
 2126 00b0 2B68     		ldr	r3, [r5]
 2127 00b2 9B05     		lsls	r3, r3, #22
 2128 00b4 12D5     		bpl	.L180
 2129              	.L179:
 2130              	.LBB479:
 2131              	.LBB480:
 2132              	.LBB481:
 2133              		.loc 5 231 0 is_stmt 1
 2134 00b6 A36A     		ldr	r3, [r4, #40]
 2135              	.LBE481:
 2136              	.LBE480:
 2137              	.LBE479:
 2138              	.LBB482:
 2139              	.LBB483:
 2140              	.LBB484:
 2141              		.loc 5 288 0
 2142 00b8 A3EB0803 		sub	r3, r3, r8
 2143              	.LBE484:
 2144              	.LBE483:
 2145              	.LBE482:
 2146              		.loc 1 839 0
 2147 00bc 312B     		cmp	r3, #49
 2148 00be DDD9     		bls	.L189
 2149              		.loc 1 851 0
 2150 00c0 039A     		ldr	r2, [sp, #12]
 2151 00c2 DBF80030 		ldr	r3, [fp]
 2152 00c6 9A42     		cmp	r2, r3
 2153 00c8 4FF0FF30 		mov	r0, #-1
 2154 00cc 1BD1     		bne	.L187
 2155 00ce 05B0     		add	sp, sp, #20
 2156              		.cfi_remember_state
 2157              		.cfi_def_cfa_offset 36
 2158              		@ sp needed
 2159 00d0 BDE8F08F 		pop	{r4, r5, r6, r7, r8, r9, r10, fp, pc}
 2160              	.LVL182:
 2161              	.L188:
 2162              		.cfi_restore_state
 2163              	.LBB485:
 2164              	.LBB450:
 2165              	.LBB448:
 2166              		.loc 4 367 0
ARM GAS  C:\Users\Moi\AppData\Local\Temp\ccyDCUJv.s 			page 39


 2167 00d4 0E48     		ldr	r0, .L190+4
 2168 00d6 FFF7FEFF 		bl	chSysHalt
 2169              	.LVL183:
 2170 00da B5E7     		b	.L178
 2171              	.LVL184:
 2172              	.L180:
 2173              	.LBE448:
 2174              	.LBE450:
 2175              	.LBE485:
 2176              		.loc 1 846 0
 2177 00dc 6B68     		ldr	r3, [r5, #4]
 2178 00de 43F40073 		orr	r3, r3, #512
 2179 00e2 6B60     		str	r3, [r5, #4]
 2180              		.loc 1 847 0
 2181 00e4 2B68     		ldr	r3, [r5]
 2182 00e6 43F48073 		orr	r3, r3, #256
 2183 00ea 2B60     		str	r3, [r5]
 2184              	.LVL185:
 2185              	.LBB486:
 2186              	.LBB487:
 2187              		.loc 2 667 0
 2188 00ec 039A     		ldr	r2, [sp, #12]
 2189 00ee DBF80030 		ldr	r3, [fp]
 2190 00f2 9A42     		cmp	r2, r3
 2191 00f4 07D1     		bne	.L187
 2192 00f6 0199     		ldr	r1, [sp, #4]
 2193 00f8 09F12000 		add	r0, r9, #32
 2194              	.LVL186:
 2195              	.LBE487:
 2196              	.LBE486:
 2197              		.loc 1 851 0
 2198 00fc 05B0     		add	sp, sp, #20
 2199              		.cfi_remember_state
 2200              		.cfi_def_cfa_offset 36
 2201              		@ sp needed
 2202 00fe BDE8F04F 		pop	{r4, r5, r6, r7, r8, r9, r10, fp, lr}
 2203              		.cfi_restore 14
 2204              		.cfi_restore 11
 2205              		.cfi_restore 10
 2206              		.cfi_restore 9
 2207              		.cfi_restore 8
 2208              		.cfi_restore 7
 2209              		.cfi_restore 6
 2210              		.cfi_restore 5
 2211              		.cfi_restore 4
 2212              		.cfi_def_cfa_offset 0
 2213              	.LVL187:
 2214              	.LBB489:
 2215              	.LBB488:
 2216              		.loc 2 667 0
 2217 0102 FFF7FEBF 		b	chThdSuspendTimeoutS
 2218              	.LVL188:
 2219              	.L187:
 2220              		.cfi_restore_state
 2221              	.LBE488:
 2222              	.LBE489:
 2223              		.loc 1 851 0
ARM GAS  C:\Users\Moi\AppData\Local\Temp\ccyDCUJv.s 			page 40


 2224 0106 FFF7FEFF 		bl	__stack_chk_fail
 2225              	.LVL189:
 2226              	.L191:
 2227 010a 00BF     		.align	2
 2228              	.L190:
 2229 010c 00000000 		.word	ch
 2230 0110 00000000 		.word	.LANCHOR3
 2231 0114 00000000 		.word	__stack_chk_guard
 2232              		.cfi_endproc
 2233              	.LFE269:
 2234              		.size	i2c_lld_master_transmit_timeout, .-i2c_lld_master_transmit_timeout
 2235              		.global	I2CD1
 2236              		.section	.bss.I2CD1,"aw",%nobits
 2237              		.align	2
 2238              		.set	.LANCHOR0,. + 0
 2239              		.type	I2CD1, %object
 2240              		.size	I2CD1, 60
 2241              	I2CD1:
 2242 0000 00000000 		.space	60
 2242      00000000 
 2242      00000000 
 2242      00000000 
 2242      00000000 
 2243              		.section	.rodata.__func__.7153,"a",%progbits
 2244              		.align	2
 2245              		.set	.LANCHOR3,. + 0
 2246              		.type	__func__.7153, %object
 2247              		.size	__func__.7153, 12
 2248              	__func__.7153:
 2249 0000 63685379 		.ascii	"chSysUnlock\000"
 2249      73556E6C 
 2249      6F636B00 
 2250              		.section	.rodata.__func__.9857,"a",%progbits
 2251              		.align	2
 2252              		.set	.LANCHOR2,. + 0
 2253              		.type	__func__.9857, %object
 2254              		.size	__func__.9857, 18
 2255              	__func__.9857:
 2256 0000 6932635F 		.ascii	"i2c_lld_set_clock\000"
 2256      6C6C645F 
 2256      7365745F 
 2256      636C6F63 
 2256      6B00
 2257              		.section	.rodata.__func__.9922,"a",%progbits
 2258              		.align	2
 2259              		.set	.LANCHOR1,. + 0
 2260              		.type	__func__.9922, %object
 2261              		.size	__func__.9922, 14
 2262              	__func__.9922:
 2263 0000 6932635F 		.ascii	"i2c_lld_start\000"
 2263      6C6C645F 
 2263      73746172 
 2263      7400
 2264              		.section	.rodata.i2c_lld_serve_tx_end_irq.str1.4,"aMS",%progbits,1
 2265              		.align	2
 2266              	.LC0:
 2267 0000 444D4120 		.ascii	"DMA failure\000"
ARM GAS  C:\Users\Moi\AppData\Local\Temp\ccyDCUJv.s 			page 41


 2267      6661696C 
 2267      75726500 
 2268              		.text
 2269              	.Letext0:
 2270              		.file 6 "c:\\users\\moi\\documents\\_microinfo\\epuck-eclipse\\tools\\gcc-arm-none-eabi-7-2017-q4-
 2271              		.file 7 "c:\\users\\moi\\documents\\_microinfo\\epuck-eclipse\\tools\\gcc-arm-none-eabi-7-2017-q4-
 2272              		.file 8 "c:\\users\\moi\\documents\\_microinfo\\epuck-eclipse\\tools\\gcc-arm-none-eabi-7-2017-q4-
 2273              		.file 9 "..//ChibiOS//os/rt/ports/ARMCMx/compilers/GCC/chtypes.h"
 2274              		.file 10 "..//ChibiOS//os/rt/include/chsystypes.h"
 2275              		.file 11 "..//ChibiOS//os/rt/include/chschd.h"
 2276              		.file 12 "..//ChibiOS//os/ext/CMSIS/include/core_cm4.h"
 2277              		.file 13 "..//ChibiOS//os/ext/CMSIS/ST/system_stm32f4xx.h"
 2278              		.file 14 "..//ChibiOS//os/ext/CMSIS/ST/stm32f407xx.h"
 2279              		.file 15 "..//ChibiOS//os/rt/ports/ARMCMx/chcore.h"
 2280              		.file 16 "..//ChibiOS//os/rt/ports/ARMCMx/chcore_v7m.h"
 2281              		.file 17 "..//ChibiOS//os/rt/include/chdebug.h"
 2282              		.file 18 "..//ChibiOS//os/rt/include/chtm.h"
 2283              		.file 19 "..//ChibiOS//os/rt/include/chstats.h"
 2284              		.file 20 "..//ChibiOS//os/rt/include/chsem.h"
 2285              		.file 21 "..//ChibiOS//os/rt/include/chmtx.h"
 2286              		.file 22 "..//ChibiOS//os/rt/include/chregistry.h"
 2287              		.file 23 "..//ChibiOS//os/rt/include/chevents.h"
 2288              		.file 24 "..//ChibiOS//os/rt/include/chqueues.h"
 2289              		.file 25 "..//ChibiOS//os/hal/ports/STM32/STM32F4xx/stm32_dma.h"
 2290              		.file 26 "..//ChibiOS//os/hal/include/hal_ioblock.h"
 2291              		.file 27 "..//ChibiOS//os/hal/ports/STM32/LLD/GPIOv2/pal_lld.h"
 2292              		.file 28 "..//ChibiOS//os/hal/include/adc.h"
 2293              		.file 29 "..//ChibiOS//os/hal/ports/STM32/STM32F4xx/adc_lld.h"
 2294              		.file 30 "..//ChibiOS//os/hal/include/can.h"
 2295              		.file 31 "..//ChibiOS//os/hal/ports/STM32/LLD/can_lld.h"
 2296              		.file 32 "..//ChibiOS//os/hal/include/dac.h"
 2297              		.file 33 "..//ChibiOS//os/hal/ports/STM32/LLD/DACv1/dac_lld.h"
 2298              		.file 34 "..//ChibiOS//os/hal/include/ext.h"
 2299              		.file 35 "..//ChibiOS//os/hal/ports/STM32/LLD/ext_lld.h"
 2300              		.file 36 "..//ChibiOS//os/hal/include/gpt.h"
 2301              		.file 37 "..//ChibiOS//os/hal/ports/STM32/LLD/TIMv1/gpt_lld.h"
 2302              		.file 38 "..//ChibiOS//os/hal/ports/STM32/LLD/TIMv1/stm32_tim.h"
 2303              		.file 39 "..//ChibiOS//os/hal/include/i2c.h"
 2304              		.file 40 "..//ChibiOS//os/hal/ports/STM32/LLD/I2Cv1/i2c_lld.h"
 2305              		.file 41 "..//ChibiOS//os/hal/include/i2s.h"
 2306              		.file 42 "..//ChibiOS//os/hal/ports/STM32/LLD/SPIv1/i2s_lld.h"
 2307              		.file 43 "..//ChibiOS//os/hal/include/pwm.h"
 2308              		.file 44 "..//ChibiOS//os/hal/ports/STM32/LLD/TIMv1/pwm_lld.h"
 2309              		.file 45 "..//ChibiOS//os/hal/include/serial.h"
 2310              		.file 46 "..//ChibiOS//os/hal/ports/STM32/LLD/USARTv1/serial_lld.h"
 2311              		.file 47 "..//ChibiOS//os/hal/include/sdc.h"
 2312              		.file 48 "..//ChibiOS//os/hal/ports/STM32/LLD/sdc_lld.h"
 2313              		.file 49 "..//ChibiOS//os/hal/include/spi.h"
 2314              		.file 50 "..//ChibiOS//os/hal/ports/STM32/LLD/SPIv1/spi_lld.h"
 2315              		.file 51 "..//ChibiOS//os/hal/include/usb.h"
 2316              		.file 52 "..//ChibiOS//os/hal/ports/STM32/LLD/OTGv1/usb_lld.h"
 2317              		.file 53 "..//ChibiOS//os/hal/ports/STM32/LLD/OTGv1/stm32_otg.h"
 2318              		.file 54 "..//ChibiOS//os/rt/include/chthreads.h"
 2319              		.file 55 "..//ChibiOS//os/hal/ports/common/ARMCMx/nvic.h"