ARM GAS  C:\Users\Moi\AppData\Local\Temp\ccyfj8r3.s 			page 1


   1              		.cpu cortex-m4
   2              		.eabi_attribute 27, 1
   3              		.eabi_attribute 28, 1
   4              		.eabi_attribute 20, 1
   5              		.eabi_attribute 21, 1
   6              		.eabi_attribute 23, 3
   7              		.eabi_attribute 24, 1
   8              		.eabi_attribute 25, 1
   9              		.eabi_attribute 26, 1
  10              		.eabi_attribute 30, 2
  11              		.eabi_attribute 34, 1
  12              		.eabi_attribute 18, 4
  13              		.file	"i2s.c"
  14              		.text
  15              	.Ltext0:
  16              		.cfi_sections	.debug_frame
  17              		.section	.text.i2sInit,"ax",%progbits
  18              		.align	1
  19              		.p2align 4,,15
  20              		.global	i2sInit
  21              		.syntax unified
  22              		.thumb
  23              		.thumb_func
  24              		.fpu fpv4-sp-d16
  25              		.type	i2sInit, %function
  26              	i2sInit:
  27              	.LFB256:
  28              		.file 1 "..//ChibiOS//os/hal/src/i2s.c"
  29              		.loc 1 56 0
  30              		.cfi_startproc
  31              		@ args = 0, pretend = 0, frame = 8
  32              		@ frame_needed = 0, uses_anonymous_args = 0
  33 0000 00B5     		push	{lr}
  34              		.cfi_def_cfa_offset 4
  35              		.cfi_offset 14, -4
  36 0002 074B     		ldr	r3, .L7
  37 0004 83B0     		sub	sp, sp, #12
  38              		.cfi_def_cfa_offset 16
  39              		.loc 1 56 0
  40 0006 1A68     		ldr	r2, [r3]
  41 0008 0192     		str	r2, [sp, #4]
  42              		.loc 1 58 0
  43 000a 019A     		ldr	r2, [sp, #4]
  44 000c 1B68     		ldr	r3, [r3]
  45 000e 9A42     		cmp	r2, r3
  46 0010 04D1     		bne	.L6
  47              		.loc 1 59 0
  48 0012 03B0     		add	sp, sp, #12
  49              		.cfi_remember_state
  50              		.cfi_def_cfa_offset 4
  51              		@ sp needed
  52 0014 5DF804EB 		ldr	lr, [sp], #4
  53              		.cfi_restore 14
  54              		.cfi_def_cfa_offset 0
  55              		.loc 1 58 0
  56 0018 FFF7FEBF 		b	i2s_lld_init
  57              	.LVL0:
ARM GAS  C:\Users\Moi\AppData\Local\Temp\ccyfj8r3.s 			page 2


  58              	.L6:
  59              		.cfi_restore_state
  60 001c FFF7FEFF 		bl	__stack_chk_fail
  61              	.LVL1:
  62              	.L8:
  63              		.align	2
  64              	.L7:
  65 0020 00000000 		.word	__stack_chk_guard
  66              		.cfi_endproc
  67              	.LFE256:
  68              		.size	i2sInit, .-i2sInit
  69              		.section	.text.i2sObjectInit,"ax",%progbits
  70              		.align	1
  71              		.p2align 4,,15
  72              		.global	i2sObjectInit
  73              		.syntax unified
  74              		.thumb
  75              		.thumb_func
  76              		.fpu fpv4-sp-d16
  77              		.type	i2sObjectInit, %function
  78              	i2sObjectInit:
  79              	.LFB257:
  80              		.loc 1 68 0
  81              		.cfi_startproc
  82              		@ args = 0, pretend = 0, frame = 8
  83              		@ frame_needed = 0, uses_anonymous_args = 0
  84              	.LVL2:
  85 0000 10B5     		push	{r4, lr}
  86              		.cfi_def_cfa_offset 8
  87              		.cfi_offset 4, -8
  88              		.cfi_offset 14, -4
  89 0002 084B     		ldr	r3, .L13
  90 0004 82B0     		sub	sp, sp, #8
  91              		.cfi_def_cfa_offset 16
  92              		.loc 1 68 0
  93 0006 1A68     		ldr	r2, [r3]
  94 0008 0192     		str	r2, [sp, #4]
  95              		.loc 1 72 0
  96 000a 019A     		ldr	r2, [sp, #4]
  97 000c 1B68     		ldr	r3, [r3]
  98              		.loc 1 70 0
  99 000e 0124     		movs	r4, #1
 100              		.loc 1 71 0
 101 0010 0021     		movs	r1, #0
 102              		.loc 1 72 0
 103 0012 9A42     		cmp	r2, r3
 104              		.loc 1 70 0
 105 0014 0470     		strb	r4, [r0]
 106              		.loc 1 71 0
 107 0016 4160     		str	r1, [r0, #4]
 108              		.loc 1 72 0
 109 0018 01D1     		bne	.L12
 110 001a 02B0     		add	sp, sp, #8
 111              		.cfi_remember_state
 112              		.cfi_def_cfa_offset 8
 113              		@ sp needed
 114 001c 10BD     		pop	{r4, pc}
ARM GAS  C:\Users\Moi\AppData\Local\Temp\ccyfj8r3.s 			page 3


 115              	.L12:
 116              		.cfi_restore_state
 117 001e FFF7FEFF 		bl	__stack_chk_fail
 118              	.LVL3:
 119              	.L14:
 120 0022 00BF     		.align	2
 121              	.L13:
 122 0024 00000000 		.word	__stack_chk_guard
 123              		.cfi_endproc
 124              	.LFE257:
 125              		.size	i2sObjectInit, .-i2sObjectInit
 126              		.section	.text.i2sStart,"ax",%progbits
 127              		.align	1
 128              		.p2align 4,,15
 129              		.global	i2sStart
 130              		.syntax unified
 131              		.thumb
 132              		.thumb_func
 133              		.fpu fpv4-sp-d16
 134              		.type	i2sStart, %function
 135              	i2sStart:
 136              	.LFB258:
 137              		.loc 1 82 0
 138              		.cfi_startproc
 139              		@ args = 0, pretend = 0, frame = 8
 140              		@ frame_needed = 0, uses_anonymous_args = 0
 141              	.LVL4:
 142 0000 70B5     		push	{r4, r5, r6, lr}
 143              		.cfi_def_cfa_offset 16
 144              		.cfi_offset 4, -16
 145              		.cfi_offset 5, -12
 146              		.cfi_offset 6, -8
 147              		.cfi_offset 14, -4
 148 0002 1E4D     		ldr	r5, .L27
 149 0004 82B0     		sub	sp, sp, #8
 150              		.cfi_def_cfa_offset 24
 151              		.loc 1 82 0
 152 0006 2B68     		ldr	r3, [r5]
 153 0008 0193     		str	r3, [sp, #4]
 154 000a 0E46     		mov	r6, r1
 155              		.loc 1 84 0
 156 000c 0446     		mov	r4, r0
 157 000e 70B3     		cbz	r0, .L16
 158              		.loc 1 84 0 is_stmt 0 discriminator 3
 159 0010 69B3     		cbz	r1, .L16
 160              	.LVL5:
 161              	.L17:
 162              	.LBB68:
 163              	.LBB69:
 164              	.LBB70:
 165              	.LBB71:
 166              	.LBB72:
 167              	.LBB73:
 168              		.file 2 "..//ChibiOS//os/ext/CMSIS/include/core_cmFunc.h"
 169              		.loc 2 546 0 is_stmt 1
 170 0012 2023     		movs	r3, #32
 171              		.syntax unified
ARM GAS  C:\Users\Moi\AppData\Local\Temp\ccyfj8r3.s 			page 4


 172              	@ 546 "..//ChibiOS//os/ext/CMSIS/include/core_cmFunc.h" 1
 173 0014 83F31188 		MSR basepri, r3
 174              	@ 0 "" 2
 175              	.LVL6:
 176              		.thumb
 177              		.syntax unified
 178              	.LBE73:
 179              	.LBE72:
 180              	.LBE71:
 181              		.file 3 "..//ChibiOS//os/rt/include/chsys.h"
 182              		.loc 3 349 0
 183 0018 FFF7FEFF 		bl	_stats_start_measure_crit_thd
 184              	.LVL7:
 185              		.loc 3 350 0
 186 001c FFF7FEFF 		bl	_dbg_check_lock
 187              	.LVL8:
 188              	.LBE70:
 189              	.LBE69:
 190              	.LBE68:
 191              		.loc 1 87 0
 192 0020 2378     		ldrb	r3, [r4]	@ zero_extendqisi2
 193 0022 013B     		subs	r3, r3, #1
 194 0024 012B     		cmp	r3, #1
 195 0026 02D9     		bls	.L18
 196              		.loc 1 87 0 is_stmt 0 discriminator 2
 197 0028 1548     		ldr	r0, .L27+4
 198 002a FFF7FEFF 		bl	chSysHalt
 199              	.LVL9:
 200              	.L18:
 201              		.loc 1 90 0 is_stmt 1
 202 002e 2046     		mov	r0, r4
 203              		.loc 1 89 0
 204 0030 6660     		str	r6, [r4, #4]
 205              		.loc 1 90 0
 206 0032 FFF7FEFF 		bl	i2s_lld_start
 207              	.LVL10:
 208              		.loc 1 91 0
 209 0036 0223     		movs	r3, #2
 210 0038 2370     		strb	r3, [r4]
 211              	.LBB74:
 212              	.LBB75:
 213              	.LBB76:
 214              		.loc 3 360 0
 215 003a FFF7FEFF 		bl	_dbg_check_unlock
 216              	.LVL11:
 217              		.loc 3 361 0
 218 003e FFF7FEFF 		bl	_stats_stop_measure_crit_thd
 219              	.LVL12:
 220              		.loc 3 367 0
 221 0042 104B     		ldr	r3, .L27+8
 222 0044 1A68     		ldr	r2, [r3]
 223 0046 9A42     		cmp	r2, r3
 224 0048 04D0     		beq	.L19
 225 004a 9969     		ldr	r1, [r3, #24]
 226 004c 9368     		ldr	r3, [r2, #8]
 227 004e 8A68     		ldr	r2, [r1, #8]
 228 0050 9A42     		cmp	r2, r3
ARM GAS  C:\Users\Moi\AppData\Local\Temp\ccyfj8r3.s 			page 5


 229 0052 08D3     		bcc	.L25
 230              	.L19:
 231              	.LVL13:
 232              	.LBB77:
 233              	.LBB78:
 234              	.LBB79:
 235              		.loc 2 546 0
 236 0054 0023     		movs	r3, #0
 237              		.syntax unified
 238              	@ 546 "..//ChibiOS//os/ext/CMSIS/include/core_cmFunc.h" 1
 239 0056 83F31188 		MSR basepri, r3
 240              	@ 0 "" 2
 241              	.LVL14:
 242              		.thumb
 243              		.syntax unified
 244              	.LBE79:
 245              	.LBE78:
 246              	.LBE77:
 247              	.LBE76:
 248              	.LBE75:
 249              	.LBE74:
 250              		.loc 1 93 0
 251 005a 019A     		ldr	r2, [sp, #4]
 252 005c 2B68     		ldr	r3, [r5]
 253 005e 9A42     		cmp	r2, r3
 254 0060 09D1     		bne	.L26
 255 0062 02B0     		add	sp, sp, #8
 256              		.cfi_remember_state
 257              		.cfi_def_cfa_offset 16
 258              		@ sp needed
 259 0064 70BD     		pop	{r4, r5, r6, pc}
 260              	.LVL15:
 261              	.L25:
 262              		.cfi_restore_state
 263              	.LBB82:
 264              	.LBB81:
 265              	.LBB80:
 266              		.loc 3 367 0
 267 0066 0848     		ldr	r0, .L27+12
 268 0068 FFF7FEFF 		bl	chSysHalt
 269              	.LVL16:
 270 006c F2E7     		b	.L19
 271              	.LVL17:
 272              	.L16:
 273              	.LBE80:
 274              	.LBE81:
 275              	.LBE82:
 276              		.loc 1 84 0 discriminator 4
 277 006e 0448     		ldr	r0, .L27+4
 278              	.LVL18:
 279 0070 FFF7FEFF 		bl	chSysHalt
 280              	.LVL19:
 281 0074 CDE7     		b	.L17
 282              	.L26:
 283              		.loc 1 93 0
 284 0076 FFF7FEFF 		bl	__stack_chk_fail
 285              	.LVL20:
ARM GAS  C:\Users\Moi\AppData\Local\Temp\ccyfj8r3.s 			page 6


 286              	.L28:
 287 007a 00BF     		.align	2
 288              	.L27:
 289 007c 00000000 		.word	__stack_chk_guard
 290 0080 00000000 		.word	.LANCHOR0
 291 0084 00000000 		.word	ch
 292 0088 00000000 		.word	.LANCHOR1
 293              		.cfi_endproc
 294              	.LFE258:
 295              		.size	i2sStart, .-i2sStart
 296              		.section	.text.i2sStop,"ax",%progbits
 297              		.align	1
 298              		.p2align 4,,15
 299              		.global	i2sStop
 300              		.syntax unified
 301              		.thumb
 302              		.thumb_func
 303              		.fpu fpv4-sp-d16
 304              		.type	i2sStop, %function
 305              	i2sStop:
 306              	.LFB259:
 307              		.loc 1 102 0
 308              		.cfi_startproc
 309              		@ args = 0, pretend = 0, frame = 8
 310              		@ frame_needed = 0, uses_anonymous_args = 0
 311              	.LVL21:
 312 0000 30B5     		push	{r4, r5, lr}
 313              		.cfi_def_cfa_offset 12
 314              		.cfi_offset 4, -12
 315              		.cfi_offset 5, -8
 316              		.cfi_offset 14, -4
 317 0002 1C4D     		ldr	r5, .L38
 318 0004 83B0     		sub	sp, sp, #12
 319              		.cfi_def_cfa_offset 24
 320              		.loc 1 102 0
 321 0006 2B68     		ldr	r3, [r5]
 322 0008 0193     		str	r3, [sp, #4]
 323              		.loc 1 104 0
 324 000a 0446     		mov	r4, r0
 325 000c 60B3     		cbz	r0, .L35
 326              	.LVL22:
 327              	.L30:
 328              	.LBB96:
 329              	.LBB97:
 330              	.LBB98:
 331              	.LBB99:
 332              	.LBB100:
 333              	.LBB101:
 334              		.loc 2 546 0
 335 000e 2023     		movs	r3, #32
 336              		.syntax unified
 337              	@ 546 "..//ChibiOS//os/ext/CMSIS/include/core_cmFunc.h" 1
 338 0010 83F31188 		MSR basepri, r3
 339              	@ 0 "" 2
 340              	.LVL23:
 341              		.thumb
 342              		.syntax unified
ARM GAS  C:\Users\Moi\AppData\Local\Temp\ccyfj8r3.s 			page 7


 343              	.LBE101:
 344              	.LBE100:
 345              	.LBE99:
 346              		.loc 3 349 0
 347 0014 FFF7FEFF 		bl	_stats_start_measure_crit_thd
 348              	.LVL24:
 349              		.loc 3 350 0
 350 0018 FFF7FEFF 		bl	_dbg_check_lock
 351              	.LVL25:
 352              	.LBE98:
 353              	.LBE97:
 354              	.LBE96:
 355              		.loc 1 107 0
 356 001c 2378     		ldrb	r3, [r4]	@ zero_extendqisi2
 357 001e 013B     		subs	r3, r3, #1
 358 0020 012B     		cmp	r3, #1
 359 0022 02D9     		bls	.L31
 360              		.loc 1 107 0 is_stmt 0 discriminator 2
 361 0024 1448     		ldr	r0, .L38+4
 362 0026 FFF7FEFF 		bl	chSysHalt
 363              	.LVL26:
 364              	.L31:
 365              		.loc 1 109 0 is_stmt 1
 366 002a 2046     		mov	r0, r4
 367 002c FFF7FEFF 		bl	i2s_lld_stop
 368              	.LVL27:
 369              		.loc 1 110 0
 370 0030 0123     		movs	r3, #1
 371 0032 2370     		strb	r3, [r4]
 372              	.LBB102:
 373              	.LBB103:
 374              	.LBB104:
 375              		.loc 3 360 0
 376 0034 FFF7FEFF 		bl	_dbg_check_unlock
 377              	.LVL28:
 378              		.loc 3 361 0
 379 0038 FFF7FEFF 		bl	_stats_stop_measure_crit_thd
 380              	.LVL29:
 381              		.loc 3 367 0
 382 003c 0F4B     		ldr	r3, .L38+8
 383 003e 1A68     		ldr	r2, [r3]
 384 0040 9A42     		cmp	r2, r3
 385 0042 04D0     		beq	.L32
 386 0044 9969     		ldr	r1, [r3, #24]
 387 0046 9368     		ldr	r3, [r2, #8]
 388 0048 8A68     		ldr	r2, [r1, #8]
 389 004a 9A42     		cmp	r2, r3
 390 004c 08D3     		bcc	.L36
 391              	.L32:
 392              	.LVL30:
 393              	.LBB105:
 394              	.LBB106:
 395              	.LBB107:
 396              		.loc 2 546 0
 397 004e 0023     		movs	r3, #0
 398              		.syntax unified
 399              	@ 546 "..//ChibiOS//os/ext/CMSIS/include/core_cmFunc.h" 1
ARM GAS  C:\Users\Moi\AppData\Local\Temp\ccyfj8r3.s 			page 8


 400 0050 83F31188 		MSR basepri, r3
 401              	@ 0 "" 2
 402              	.LVL31:
 403              		.thumb
 404              		.syntax unified
 405              	.LBE107:
 406              	.LBE106:
 407              	.LBE105:
 408              	.LBE104:
 409              	.LBE103:
 410              	.LBE102:
 411              		.loc 1 112 0
 412 0054 019A     		ldr	r2, [sp, #4]
 413 0056 2B68     		ldr	r3, [r5]
 414 0058 9A42     		cmp	r2, r3
 415 005a 09D1     		bne	.L37
 416 005c 03B0     		add	sp, sp, #12
 417              		.cfi_remember_state
 418              		.cfi_def_cfa_offset 12
 419              		@ sp needed
 420 005e 30BD     		pop	{r4, r5, pc}
 421              	.LVL32:
 422              	.L36:
 423              		.cfi_restore_state
 424              	.LBB110:
 425              	.LBB109:
 426              	.LBB108:
 427              		.loc 3 367 0
 428 0060 0748     		ldr	r0, .L38+12
 429 0062 FFF7FEFF 		bl	chSysHalt
 430              	.LVL33:
 431 0066 F2E7     		b	.L32
 432              	.LVL34:
 433              	.L35:
 434              	.LBE108:
 435              	.LBE109:
 436              	.LBE110:
 437              		.loc 1 104 0 discriminator 2
 438 0068 0348     		ldr	r0, .L38+4
 439              	.LVL35:
 440 006a FFF7FEFF 		bl	chSysHalt
 441              	.LVL36:
 442 006e CEE7     		b	.L30
 443              	.L37:
 444              		.loc 1 112 0
 445 0070 FFF7FEFF 		bl	__stack_chk_fail
 446              	.LVL37:
 447              	.L39:
 448              		.align	2
 449              	.L38:
 450 0074 00000000 		.word	__stack_chk_guard
 451 0078 00000000 		.word	.LANCHOR2
 452 007c 00000000 		.word	ch
 453 0080 00000000 		.word	.LANCHOR1
 454              		.cfi_endproc
 455              	.LFE259:
 456              		.size	i2sStop, .-i2sStop
ARM GAS  C:\Users\Moi\AppData\Local\Temp\ccyfj8r3.s 			page 9


 457              		.section	.text.i2sStartExchange,"ax",%progbits
 458              		.align	1
 459              		.p2align 4,,15
 460              		.global	i2sStartExchange
 461              		.syntax unified
 462              		.thumb
 463              		.thumb_func
 464              		.fpu fpv4-sp-d16
 465              		.type	i2sStartExchange, %function
 466              	i2sStartExchange:
 467              	.LFB260:
 468              		.loc 1 121 0
 469              		.cfi_startproc
 470              		@ args = 0, pretend = 0, frame = 8
 471              		@ frame_needed = 0, uses_anonymous_args = 0
 472              	.LVL38:
 473 0000 30B5     		push	{r4, r5, lr}
 474              		.cfi_def_cfa_offset 12
 475              		.cfi_offset 4, -12
 476              		.cfi_offset 5, -8
 477              		.cfi_offset 14, -4
 478 0002 1C4D     		ldr	r5, .L52
 479 0004 83B0     		sub	sp, sp, #12
 480              		.cfi_def_cfa_offset 24
 481              		.loc 1 121 0
 482 0006 2B68     		ldr	r3, [r5]
 483 0008 0193     		str	r3, [sp, #4]
 484              		.loc 1 123 0
 485 000a 0446     		mov	r4, r0
 486 000c 58B3     		cbz	r0, .L49
 487              	.LVL39:
 488              	.L41:
 489              	.LBB124:
 490              	.LBB125:
 491              	.LBB126:
 492              	.LBB127:
 493              	.LBB128:
 494              	.LBB129:
 495              		.loc 2 546 0
 496 000e 2023     		movs	r3, #32
 497              		.syntax unified
 498              	@ 546 "..//ChibiOS//os/ext/CMSIS/include/core_cmFunc.h" 1
 499 0010 83F31188 		MSR basepri, r3
 500              	@ 0 "" 2
 501              	.LVL40:
 502              		.thumb
 503              		.syntax unified
 504              	.LBE129:
 505              	.LBE128:
 506              	.LBE127:
 507              		.loc 3 349 0
 508 0014 FFF7FEFF 		bl	_stats_start_measure_crit_thd
 509              	.LVL41:
 510              		.loc 3 350 0
 511 0018 FFF7FEFF 		bl	_dbg_check_lock
 512              	.LVL42:
 513              	.LBE126:
ARM GAS  C:\Users\Moi\AppData\Local\Temp\ccyfj8r3.s 			page 10


 514              	.LBE125:
 515              	.LBE124:
 516              		.loc 1 126 0
 517 001c 2378     		ldrb	r3, [r4]	@ zero_extendqisi2
 518 001e 022B     		cmp	r3, #2
 519 0020 02D0     		beq	.L42
 520              		.loc 1 126 0 is_stmt 0 discriminator 2
 521 0022 1548     		ldr	r0, .L52+4
 522 0024 FFF7FEFF 		bl	chSysHalt
 523              	.LVL43:
 524              	.L42:
 525              		.loc 1 127 0 is_stmt 1
 526 0028 2046     		mov	r0, r4
 527 002a FFF7FEFF 		bl	i2s_lld_start_exchange
 528              	.LVL44:
 529 002e 0323     		movs	r3, #3
 530 0030 2370     		strb	r3, [r4]
 531              	.LBB130:
 532              	.LBB131:
 533              	.LBB132:
 534              		.loc 3 360 0
 535 0032 FFF7FEFF 		bl	_dbg_check_unlock
 536              	.LVL45:
 537              		.loc 3 361 0
 538 0036 FFF7FEFF 		bl	_stats_stop_measure_crit_thd
 539              	.LVL46:
 540              		.loc 3 367 0
 541 003a 104B     		ldr	r3, .L52+8
 542 003c 1A68     		ldr	r2, [r3]
 543 003e 9A42     		cmp	r2, r3
 544 0040 04D0     		beq	.L43
 545 0042 9969     		ldr	r1, [r3, #24]
 546 0044 9368     		ldr	r3, [r2, #8]
 547 0046 8A68     		ldr	r2, [r1, #8]
 548 0048 9A42     		cmp	r2, r3
 549 004a 08D3     		bcc	.L50
 550              	.L43:
 551              	.LVL47:
 552              	.LBB133:
 553              	.LBB134:
 554              	.LBB135:
 555              		.loc 2 546 0
 556 004c 0023     		movs	r3, #0
 557              		.syntax unified
 558              	@ 546 "..//ChibiOS//os/ext/CMSIS/include/core_cmFunc.h" 1
 559 004e 83F31188 		MSR basepri, r3
 560              	@ 0 "" 2
 561              	.LVL48:
 562              		.thumb
 563              		.syntax unified
 564              	.LBE135:
 565              	.LBE134:
 566              	.LBE133:
 567              	.LBE132:
 568              	.LBE131:
 569              	.LBE130:
 570              		.loc 1 129 0
ARM GAS  C:\Users\Moi\AppData\Local\Temp\ccyfj8r3.s 			page 11


 571 0052 019A     		ldr	r2, [sp, #4]
 572 0054 2B68     		ldr	r3, [r5]
 573 0056 9A42     		cmp	r2, r3
 574 0058 09D1     		bne	.L51
 575 005a 03B0     		add	sp, sp, #12
 576              		.cfi_remember_state
 577              		.cfi_def_cfa_offset 12
 578              		@ sp needed
 579 005c 30BD     		pop	{r4, r5, pc}
 580              	.LVL49:
 581              	.L50:
 582              		.cfi_restore_state
 583              	.LBB138:
 584              	.LBB137:
 585              	.LBB136:
 586              		.loc 3 367 0
 587 005e 0848     		ldr	r0, .L52+12
 588 0060 FFF7FEFF 		bl	chSysHalt
 589              	.LVL50:
 590 0064 F2E7     		b	.L43
 591              	.LVL51:
 592              	.L49:
 593              	.LBE136:
 594              	.LBE137:
 595              	.LBE138:
 596              		.loc 1 123 0 discriminator 2
 597 0066 0448     		ldr	r0, .L52+4
 598              	.LVL52:
 599 0068 FFF7FEFF 		bl	chSysHalt
 600              	.LVL53:
 601 006c CFE7     		b	.L41
 602              	.L51:
 603              		.loc 1 129 0
 604 006e FFF7FEFF 		bl	__stack_chk_fail
 605              	.LVL54:
 606              	.L53:
 607 0072 00BF     		.align	2
 608              	.L52:
 609 0074 00000000 		.word	__stack_chk_guard
 610 0078 00000000 		.word	.LANCHOR3
 611 007c 00000000 		.word	ch
 612 0080 00000000 		.word	.LANCHOR1
 613              		.cfi_endproc
 614              	.LFE260:
 615              		.size	i2sStartExchange, .-i2sStartExchange
 616              		.section	.text.i2sStopExchange,"ax",%progbits
 617              		.align	1
 618              		.p2align 4,,15
 619              		.global	i2sStopExchange
 620              		.syntax unified
 621              		.thumb
 622              		.thumb_func
 623              		.fpu fpv4-sp-d16
 624              		.type	i2sStopExchange, %function
 625              	i2sStopExchange:
 626              	.LFB261:
 627              		.loc 1 140 0
ARM GAS  C:\Users\Moi\AppData\Local\Temp\ccyfj8r3.s 			page 12


 628              		.cfi_startproc
 629              		@ args = 0, pretend = 0, frame = 8
 630              		@ frame_needed = 0, uses_anonymous_args = 0
 631              	.LVL55:
 632 0000 30B5     		push	{r4, r5, lr}
 633              		.cfi_def_cfa_offset 12
 634              		.cfi_offset 4, -12
 635              		.cfi_offset 5, -8
 636              		.cfi_offset 14, -4
 637 0002 1C4D     		ldr	r5, .L63
 638 0004 83B0     		sub	sp, sp, #12
 639              		.cfi_def_cfa_offset 24
 640              		.loc 1 140 0
 641 0006 2B68     		ldr	r3, [r5]
 642 0008 0193     		str	r3, [sp, #4]
 643              		.loc 1 142 0
 644 000a 0446     		mov	r4, r0
 645 000c 60B3     		cbz	r0, .L60
 646              	.LVL56:
 647              	.L55:
 648              	.LBB152:
 649              	.LBB153:
 650              	.LBB154:
 651              	.LBB155:
 652              	.LBB156:
 653              	.LBB157:
 654              		.loc 2 546 0
 655 000e 2023     		movs	r3, #32
 656              		.syntax unified
 657              	@ 546 "..//ChibiOS//os/ext/CMSIS/include/core_cmFunc.h" 1
 658 0010 83F31188 		MSR basepri, r3
 659              	@ 0 "" 2
 660              	.LVL57:
 661              		.thumb
 662              		.syntax unified
 663              	.LBE157:
 664              	.LBE156:
 665              	.LBE155:
 666              		.loc 3 349 0
 667 0014 FFF7FEFF 		bl	_stats_start_measure_crit_thd
 668              	.LVL58:
 669              		.loc 3 350 0
 670 0018 FFF7FEFF 		bl	_dbg_check_lock
 671              	.LVL59:
 672              	.LBE154:
 673              	.LBE153:
 674              	.LBE152:
 675              		.loc 1 145 0
 676 001c 2378     		ldrb	r3, [r4]	@ zero_extendqisi2
 677 001e 023B     		subs	r3, r3, #2
 678 0020 022B     		cmp	r3, #2
 679 0022 02D9     		bls	.L56
 680              		.loc 1 145 0 is_stmt 0 discriminator 2
 681 0024 1448     		ldr	r0, .L63+4
 682 0026 FFF7FEFF 		bl	chSysHalt
 683              	.LVL60:
 684              	.L56:
ARM GAS  C:\Users\Moi\AppData\Local\Temp\ccyfj8r3.s 			page 13


 685              		.loc 1 149 0 is_stmt 1
 686 002a 2046     		mov	r0, r4
 687 002c FFF7FEFF 		bl	i2s_lld_stop_exchange
 688              	.LVL61:
 689 0030 0223     		movs	r3, #2
 690 0032 2370     		strb	r3, [r4]
 691              	.LBB158:
 692              	.LBB159:
 693              	.LBB160:
 694              		.loc 3 360 0
 695 0034 FFF7FEFF 		bl	_dbg_check_unlock
 696              	.LVL62:
 697              		.loc 3 361 0
 698 0038 FFF7FEFF 		bl	_stats_stop_measure_crit_thd
 699              	.LVL63:
 700              		.loc 3 367 0
 701 003c 0F4B     		ldr	r3, .L63+8
 702 003e 1A68     		ldr	r2, [r3]
 703 0040 9A42     		cmp	r2, r3
 704 0042 04D0     		beq	.L57
 705 0044 9969     		ldr	r1, [r3, #24]
 706 0046 9368     		ldr	r3, [r2, #8]
 707 0048 8A68     		ldr	r2, [r1, #8]
 708 004a 9A42     		cmp	r2, r3
 709 004c 08D3     		bcc	.L61
 710              	.L57:
 711              	.LVL64:
 712              	.LBB161:
 713              	.LBB162:
 714              	.LBB163:
 715              		.loc 2 546 0
 716 004e 0023     		movs	r3, #0
 717              		.syntax unified
 718              	@ 546 "..//ChibiOS//os/ext/CMSIS/include/core_cmFunc.h" 1
 719 0050 83F31188 		MSR basepri, r3
 720              	@ 0 "" 2
 721              	.LVL65:
 722              		.thumb
 723              		.syntax unified
 724              	.LBE163:
 725              	.LBE162:
 726              	.LBE161:
 727              	.LBE160:
 728              	.LBE159:
 729              	.LBE158:
 730              		.loc 1 151 0
 731 0054 019A     		ldr	r2, [sp, #4]
 732 0056 2B68     		ldr	r3, [r5]
 733 0058 9A42     		cmp	r2, r3
 734 005a 09D1     		bne	.L62
 735 005c 03B0     		add	sp, sp, #12
 736              		.cfi_remember_state
 737              		.cfi_def_cfa_offset 12
 738              		@ sp needed
 739 005e 30BD     		pop	{r4, r5, pc}
 740              	.LVL66:
 741              	.L61:
ARM GAS  C:\Users\Moi\AppData\Local\Temp\ccyfj8r3.s 			page 14


 742              		.cfi_restore_state
 743              	.LBB166:
 744              	.LBB165:
 745              	.LBB164:
 746              		.loc 3 367 0
 747 0060 0748     		ldr	r0, .L63+12
 748 0062 FFF7FEFF 		bl	chSysHalt
 749              	.LVL67:
 750 0066 F2E7     		b	.L57
 751              	.LVL68:
 752              	.L60:
 753              	.LBE164:
 754              	.LBE165:
 755              	.LBE166:
 756              		.loc 1 142 0 discriminator 2
 757 0068 0348     		ldr	r0, .L63+4
 758              	.LVL69:
 759 006a FFF7FEFF 		bl	chSysHalt
 760              	.LVL70:
 761 006e CEE7     		b	.L55
 762              	.L62:
 763              		.loc 1 151 0
 764 0070 FFF7FEFF 		bl	__stack_chk_fail
 765              	.LVL71:
 766              	.L64:
 767              		.align	2
 768              	.L63:
 769 0074 00000000 		.word	__stack_chk_guard
 770 0078 00000000 		.word	.LANCHOR4
 771 007c 00000000 		.word	ch
 772 0080 00000000 		.word	.LANCHOR1
 773              		.cfi_endproc
 774              	.LFE261:
 775              		.size	i2sStopExchange, .-i2sStopExchange
 776              		.section	.rodata.__func__.7153,"a",%progbits
 777              		.align	2
 778              		.set	.LANCHOR1,. + 0
 779              		.type	__func__.7153, %object
 780              		.size	__func__.7153, 12
 781              	__func__.7153:
 782 0000 63685379 		.ascii	"chSysUnlock\000"
 782      73556E6C 
 782      6F636B00 
 783              		.section	.rodata.__func__.9848,"a",%progbits
 784              		.align	2
 785              		.set	.LANCHOR0,. + 0
 786              		.type	__func__.9848, %object
 787              		.size	__func__.9848, 9
 788              	__func__.9848:
 789 0000 69327353 		.ascii	"i2sStart\000"
 789      74617274 
 789      00
 790              		.section	.rodata.__func__.9852,"a",%progbits
 791              		.align	2
 792              		.set	.LANCHOR2,. + 0
 793              		.type	__func__.9852, %object
 794              		.size	__func__.9852, 8
ARM GAS  C:\Users\Moi\AppData\Local\Temp\ccyfj8r3.s 			page 15


 795              	__func__.9852:
 796 0000 69327353 		.ascii	"i2sStop\000"
 796      746F7000 
 797              		.section	.rodata.__func__.9856,"a",%progbits
 798              		.align	2
 799              		.set	.LANCHOR3,. + 0
 800              		.type	__func__.9856, %object
 801              		.size	__func__.9856, 17
 802              	__func__.9856:
 803 0000 69327353 		.ascii	"i2sStartExchange\000"
 803      74617274 
 803      45786368 
 803      616E6765 
 803      00
 804              		.section	.rodata.__func__.9860,"a",%progbits
 805              		.align	2
 806              		.set	.LANCHOR4,. + 0
 807              		.type	__func__.9860, %object
 808              		.size	__func__.9860, 16
 809              	__func__.9860:
 810 0000 69327353 		.ascii	"i2sStopExchange\000"
 810      746F7045 
 810      78636861 
 810      6E676500 
 811              		.text
 812              	.Letext0:
 813              		.file 4 "c:\\users\\moi\\documents\\_microinfo\\epuck-eclipse\\tools\\gcc-arm-none-eabi-7-2017-q4-
 814              		.file 5 "c:\\users\\moi\\documents\\_microinfo\\epuck-eclipse\\tools\\gcc-arm-none-eabi-7-2017-q4-
 815              		.file 6 "c:\\users\\moi\\documents\\_microinfo\\epuck-eclipse\\tools\\gcc-arm-none-eabi-7-2017-q4-
 816              		.file 7 "..//ChibiOS//os/rt/ports/ARMCMx/compilers/GCC/chtypes.h"
 817              		.file 8 "..//ChibiOS//os/rt/include/chsystypes.h"
 818              		.file 9 "..//ChibiOS//os/rt/include/chschd.h"
 819              		.file 10 "..//ChibiOS//os/ext/CMSIS/include/core_cm4.h"
 820              		.file 11 "..//ChibiOS//os/ext/CMSIS/ST/system_stm32f4xx.h"
 821              		.file 12 "..//ChibiOS//os/ext/CMSIS/ST/stm32f407xx.h"
 822              		.file 13 "..//ChibiOS//os/rt/ports/ARMCMx/chcore.h"
 823              		.file 14 "..//ChibiOS//os/rt/ports/ARMCMx/chcore_v7m.h"
 824              		.file 15 "..//ChibiOS//os/rt/include/chdebug.h"
 825              		.file 16 "..//ChibiOS//os/rt/include/chtm.h"
 826              		.file 17 "..//ChibiOS//os/rt/include/chstats.h"
 827              		.file 18 "..//ChibiOS//os/rt/include/chsem.h"
 828              		.file 19 "..//ChibiOS//os/rt/include/chmtx.h"
 829              		.file 20 "..//ChibiOS//os/rt/include/chregistry.h"
 830              		.file 21 "..//ChibiOS//os/rt/include/chevents.h"
 831              		.file 22 "..//ChibiOS//os/rt/include/chqueues.h"
 832              		.file 23 "..//ChibiOS//os/hal/ports/STM32/STM32F4xx/stm32_dma.h"
 833              		.file 24 "..//ChibiOS//os/hal/include/hal_ioblock.h"
 834              		.file 25 "..//ChibiOS//os/hal/ports/STM32/LLD/GPIOv2/pal_lld.h"
 835              		.file 26 "..//ChibiOS//os/hal/include/adc.h"
 836              		.file 27 "..//ChibiOS//os/hal/ports/STM32/STM32F4xx/adc_lld.h"
 837              		.file 28 "..//ChibiOS//os/hal/include/can.h"
 838              		.file 29 "..//ChibiOS//os/hal/ports/STM32/LLD/can_lld.h"
 839              		.file 30 "..//ChibiOS//os/hal/include/dac.h"
 840              		.file 31 "..//ChibiOS//os/hal/ports/STM32/LLD/DACv1/dac_lld.h"
 841              		.file 32 "..//ChibiOS//os/hal/include/ext.h"
 842              		.file 33 "..//ChibiOS//os/hal/ports/STM32/LLD/ext_lld.h"
 843              		.file 34 "..//ChibiOS//os/hal/include/gpt.h"
ARM GAS  C:\Users\Moi\AppData\Local\Temp\ccyfj8r3.s 			page 16


 844              		.file 35 "..//ChibiOS//os/hal/ports/STM32/LLD/TIMv1/gpt_lld.h"
 845              		.file 36 "..//ChibiOS//os/hal/ports/STM32/LLD/TIMv1/stm32_tim.h"
 846              		.file 37 "..//ChibiOS//os/hal/include/i2c.h"
 847              		.file 38 "..//ChibiOS//os/hal/ports/STM32/LLD/I2Cv1/i2c_lld.h"
 848              		.file 39 "..//ChibiOS//os/hal/include/i2s.h"
 849              		.file 40 "..//ChibiOS//os/hal/ports/STM32/LLD/SPIv1/i2s_lld.h"
 850              		.file 41 "..//ChibiOS//os/hal/include/pwm.h"
 851              		.file 42 "..//ChibiOS//os/hal/ports/STM32/LLD/TIMv1/pwm_lld.h"
 852              		.file 43 "..//ChibiOS//os/hal/include/serial.h"
 853              		.file 44 "..//ChibiOS//os/hal/ports/STM32/LLD/USARTv1/serial_lld.h"
 854              		.file 45 "..//ChibiOS//os/hal/include/sdc.h"
 855              		.file 46 "..//ChibiOS//os/hal/ports/STM32/LLD/sdc_lld.h"
 856              		.file 47 "..//ChibiOS//os/hal/include/spi.h"
 857              		.file 48 "..//ChibiOS//os/hal/ports/STM32/LLD/SPIv1/spi_lld.h"
 858              		.file 49 "..//ChibiOS//os/hal/include/usb.h"
 859              		.file 50 "..//ChibiOS//os/hal/ports/STM32/LLD/OTGv1/usb_lld.h"
 860              		.file 51 "..//ChibiOS//os/hal/ports/STM32/LLD/OTGv1/stm32_otg.h"
 861              		.file 52 "..//ChibiOS//os/hal/osal/rt/osal.h"