ARM GAS  C:\Users\Moi\AppData\Local\Temp\cc0vdem2.s 			page 1


   1              		.cpu cortex-m4
   2              		.eabi_attribute 27, 1
   3              		.eabi_attribute 28, 1
   4              		.eabi_attribute 20, 1
   5              		.eabi_attribute 21, 1
   6              		.eabi_attribute 23, 3
   7              		.eabi_attribute 24, 1
   8              		.eabi_attribute 25, 1
   9              		.eabi_attribute 26, 1
  10              		.eabi_attribute 30, 2
  11              		.eabi_attribute 34, 1
  12              		.eabi_attribute 18, 4
  13              		.file	"i2s_lld.c"
  14              		.text
  15              	.Ltext0:
  16              		.cfi_sections	.debug_frame
  17              		.section	.text.i2s_lld_serve_rx_interrupt,"ax",%progbits
  18              		.align	1
  19              		.p2align 4,,15
  20              		.syntax unified
  21              		.thumb
  22              		.thumb_func
  23              		.fpu fpv4-sp-d16
  24              		.type	i2s_lld_serve_rx_interrupt, %function
  25              	i2s_lld_serve_rx_interrupt:
  26              	.LFB256:
  27              		.file 1 "..//ChibiOS//os/hal/ports/STM32/LLD/SPIv1/i2s_lld.c"
  28              		.loc 1 119 0
  29              		.cfi_startproc
  30              		@ args = 0, pretend = 0, frame = 8
  31              		@ frame_needed = 0, uses_anonymous_args = 0
  32              	.LVL0:
  33 0000 70B5     		push	{r4, r5, r6, lr}
  34              		.cfi_def_cfa_offset 16
  35              		.cfi_offset 4, -16
  36              		.cfi_offset 5, -12
  37              		.cfi_offset 6, -8
  38              		.cfi_offset 14, -4
  39 0002 1C4E     		ldr	r6, .L28
  40 0004 82B0     		sub	sp, sp, #8
  41              		.cfi_def_cfa_offset 24
  42              		.loc 1 119 0
  43 0006 3368     		ldr	r3, [r6]
  44 0008 0193     		str	r3, [sp, #4]
  45              		.loc 1 125 0
  46 000a 11F00C0F 		tst	r1, #12
  47              		.loc 1 119 0
  48 000e 0C46     		mov	r4, r1
  49 0010 0546     		mov	r5, r0
  50              		.loc 1 125 0
  51 0012 26D1     		bne	.L27
  52              	.LVL1:
  53              	.L2:
  54              		.loc 1 132 0
  55 0014 14F02001 		ands	r1, r4, #32
  56 0018 12D0     		beq	.L3
  57              		.loc 1 134 0
ARM GAS  C:\Users\Moi\AppData\Local\Temp\cc0vdem2.s 			page 2


  58 001a 6A68     		ldr	r2, [r5, #4]
  59 001c D368     		ldr	r3, [r2, #12]
  60 001e 23B3     		cbz	r3, .L4
  61              		.loc 1 134 0 is_stmt 0 discriminator 1
  62 0020 9268     		ldr	r2, [r2, #8]
  63 0022 0420     		movs	r0, #4
  64 0024 5208     		lsrs	r2, r2, #1
  65 0026 2870     		strb	r0, [r5]
  66 0028 1146     		mov	r1, r2
  67 002a 2846     		mov	r0, r5
  68 002c 9847     		blx	r3
  69              	.LVL2:
  70 002e 2B78     		ldrb	r3, [r5]	@ zero_extendqisi2
  71 0030 042B     		cmp	r3, #4
  72 0032 1AD0     		beq	.L4
  73              	.L1:
  74              		.loc 1 140 0 is_stmt 1
  75 0034 019A     		ldr	r2, [sp, #4]
  76 0036 3368     		ldr	r3, [r6]
  77 0038 9A42     		cmp	r2, r3
  78 003a 19D1     		bne	.L25
  79 003c 02B0     		add	sp, sp, #8
  80              		.cfi_remember_state
  81              		.cfi_def_cfa_offset 16
  82              		@ sp needed
  83 003e 70BD     		pop	{r4, r5, r6, pc}
  84              	.LVL3:
  85              	.L3:
  86              		.cfi_restore_state
  87              		.loc 1 136 0
  88 0040 E306     		lsls	r3, r4, #27
  89 0042 F7D5     		bpl	.L1
  90              	.LVL4:
  91              	.LBB12:
  92              	.LBB13:
  93              		.loc 1 138 0
  94 0044 6A68     		ldr	r2, [r5, #4]
  95 0046 D368     		ldr	r3, [r2, #12]
  96 0048 002B     		cmp	r3, #0
  97 004a F3D0     		beq	.L1
  98 004c 019C     		ldr	r4, [sp, #4]
  99              	.LVL5:
 100 004e 3068     		ldr	r0, [r6]
 101 0050 8442     		cmp	r4, r0
 102 0052 0DD1     		bne	.L25
 103 0054 9268     		ldr	r2, [r2, #8]
 104 0056 2846     		mov	r0, r5
 105 0058 5208     		lsrs	r2, r2, #1
 106              	.LBE13:
 107              	.LBE12:
 108              		.loc 1 140 0
 109 005a 02B0     		add	sp, sp, #8
 110              		.cfi_remember_state
 111              		.cfi_def_cfa_offset 16
 112              		@ sp needed
 113 005c BDE87040 		pop	{r4, r5, r6, lr}
 114              		.cfi_restore 14
ARM GAS  C:\Users\Moi\AppData\Local\Temp\cc0vdem2.s 			page 3


 115              		.cfi_restore 6
 116              		.cfi_restore 5
 117              		.cfi_restore 4
 118              		.cfi_def_cfa_offset 0
 119              	.LVL6:
 120              	.LBB15:
 121              	.LBB14:
 122              		.loc 1 138 0
 123 0060 1847     		bx	r3	@ indirect register sibling call
 124              	.LVL7:
 125              	.L27:
 126              		.cfi_restore_state
 127              	.LBE14:
 128              	.LBE15:
 129              	.LBB16:
 130              	.LBB17:
 131              		.file 2 "..//ChibiOS//os/hal/osal/rt/osal.h"
 132              		.loc 2 416 0
 133 0062 0548     		ldr	r0, .L28+4
 134              	.LVL8:
 135 0064 FFF7FEFF 		bl	chSysHalt
 136              	.LVL9:
 137 0068 D4E7     		b	.L2
 138              	.LVL10:
 139              	.L4:
 140              	.LBE17:
 141              	.LBE16:
 142              		.loc 1 134 0 discriminator 3
 143 006a 0223     		movs	r3, #2
 144 006c 2B70     		strb	r3, [r5]
 145 006e E1E7     		b	.L1
 146              	.LVL11:
 147              	.L25:
 148              		.loc 1 140 0
 149 0070 FFF7FEFF 		bl	__stack_chk_fail
 150              	.LVL12:
 151              	.L29:
 152              		.align	2
 153              	.L28:
 154 0074 00000000 		.word	__stack_chk_guard
 155 0078 00000000 		.word	.LC0
 156              		.cfi_endproc
 157              	.LFE256:
 158              		.size	i2s_lld_serve_rx_interrupt, .-i2s_lld_serve_rx_interrupt
 159              		.section	.text.i2s_lld_init,"ax",%progbits
 160              		.align	1
 161              		.p2align 4,,15
 162              		.global	i2s_lld_init
 163              		.syntax unified
 164              		.thumb
 165              		.thumb_func
 166              		.fpu fpv4-sp-d16
 167              		.type	i2s_lld_init, %function
 168              	i2s_lld_init:
 169              	.LFB257:
 170              		.loc 1 188 0
 171              		.cfi_startproc
ARM GAS  C:\Users\Moi\AppData\Local\Temp\cc0vdem2.s 			page 4


 172              		@ args = 0, pretend = 0, frame = 8
 173              		@ frame_needed = 0, uses_anonymous_args = 0
 174 0000 30B5     		push	{r4, r5, lr}
 175              		.cfi_def_cfa_offset 12
 176              		.cfi_offset 4, -12
 177              		.cfi_offset 5, -8
 178              		.cfi_offset 14, -4
 179              		.loc 1 191 0
 180 0002 0E4C     		ldr	r4, .L34
 181              		.loc 1 188 0
 182 0004 0E4D     		ldr	r5, .L34+4
 183 0006 83B0     		sub	sp, sp, #12
 184              		.cfi_def_cfa_offset 24
 185              		.loc 1 188 0
 186 0008 2B68     		ldr	r3, [r5]
 187 000a 0193     		str	r3, [sp, #4]
 188              		.loc 1 191 0
 189 000c 2046     		mov	r0, r4
 190 000e FFF7FEFF 		bl	i2sObjectInit
 191              	.LVL13:
 192              		.loc 1 269 0
 193 0012 0199     		ldr	r1, [sp, #4]
 194              		.loc 1 192 0
 195 0014 0B4B     		ldr	r3, .L34+8
 196              		.loc 1 269 0
 197 0016 2A68     		ldr	r2, [r5]
 198              		.loc 1 196 0
 199 0018 0B48     		ldr	r0, .L34+12
 200              		.loc 1 192 0
 201 001a A360     		str	r3, [r4, #8]
 202              		.loc 1 193 0
 203 001c 4FF44073 		mov	r3, #768
 204              		.loc 1 195 0
 205 0020 0A4D     		ldr	r5, .L34+16
 206              		.loc 1 193 0
 207 0022 A381     		strh	r3, [r4, #12]	@ movhi
 208              		.loc 1 269 0
 209 0024 9142     		cmp	r1, r2
 210              		.loc 1 225 0
 211 0026 4FF00003 		mov	r3, #0
 212              		.loc 1 195 0
 213 002a 2561     		str	r5, [r4, #16]
 214              		.loc 1 225 0
 215 002c C4E90530 		strd	r3, r0, [r4, #20]
 216              		.loc 1 226 0
 217 0030 E361     		str	r3, [r4, #28]
 218              		.loc 1 269 0
 219 0032 01D1     		bne	.L33
 220 0034 03B0     		add	sp, sp, #12
 221              		.cfi_remember_state
 222              		.cfi_def_cfa_offset 12
 223              		@ sp needed
 224 0036 30BD     		pop	{r4, r5, pc}
 225              	.L33:
 226              		.cfi_restore_state
 227 0038 FFF7FEFF 		bl	__stack_chk_fail
 228              	.LVL14:
ARM GAS  C:\Users\Moi\AppData\Local\Temp\cc0vdem2.s 			page 5


 229              	.L35:
 230              		.align	2
 231              	.L34:
 232 003c 00000000 		.word	.LANCHOR0
 233 0040 00000000 		.word	__stack_chk_guard
 234 0044 00380040 		.word	1073756160
 235 0048 1E2D0100 		.word	77086
 236 004c 24000000 		.word	_stm32_dma_streams+36
 237              		.cfi_endproc
 238              	.LFE257:
 239              		.size	i2s_lld_init, .-i2s_lld_init
 240              		.section	.text.i2s_lld_start,"ax",%progbits
 241              		.align	1
 242              		.p2align 4,,15
 243              		.global	i2s_lld_start
 244              		.syntax unified
 245              		.thumb
 246              		.thumb_func
 247              		.fpu fpv4-sp-d16
 248              		.type	i2s_lld_start, %function
 249              	i2s_lld_start:
 250              	.LFB258:
 251              		.loc 1 278 0
 252              		.cfi_startproc
 253              		@ args = 0, pretend = 0, frame = 8
 254              		@ frame_needed = 0, uses_anonymous_args = 0
 255              	.LVL15:
 256 0000 70B5     		push	{r4, r5, r6, lr}
 257              		.cfi_def_cfa_offset 16
 258              		.cfi_offset 4, -16
 259              		.cfi_offset 5, -12
 260              		.cfi_offset 6, -8
 261              		.cfi_offset 14, -4
 262              		.loc 1 281 0
 263 0002 0378     		ldrb	r3, [r0]	@ zero_extendqisi2
 264              		.loc 1 278 0
 265 0004 234D     		ldr	r5, .L56
 266 0006 82B0     		sub	sp, sp, #8
 267              		.cfi_def_cfa_offset 24
 268              		.loc 1 278 0
 269 0008 2A68     		ldr	r2, [r5]
 270 000a 0192     		str	r2, [sp, #4]
 271              		.loc 1 281 0
 272 000c 012B     		cmp	r3, #1
 273              		.loc 1 278 0
 274 000e 0446     		mov	r4, r0
 275              		.loc 1 281 0
 276 0010 11D0     		beq	.L37
 277 0012 8268     		ldr	r2, [r0, #8]
 278              	.LVL16:
 279              	.L38:
 280              		.loc 1 357 0
 281 0014 6168     		ldr	r1, [r4, #4]
 282              		.loc 1 358 0
 283 0016 A089     		ldrh	r0, [r4, #12]
 284 0018 B1F91030 		ldrsh	r3, [r1, #16]
 285              		.loc 1 357 0
ARM GAS  C:\Users\Moi\AppData\Local\Temp\cc0vdem2.s 			page 6


 286 001c B1F91210 		ldrsh	r1, [r1, #18]
 287 0020 1162     		str	r1, [r2, #32]
 288              		.loc 1 358 0
 289 0022 0343     		orrs	r3, r3, r0
 290 0024 43F40063 		orr	r3, r3, #2048
 291 0028 D361     		str	r3, [r2, #28]
 292              		.loc 1 359 0
 293 002a 019A     		ldr	r2, [sp, #4]
 294 002c 2B68     		ldr	r3, [r5]
 295 002e 9A42     		cmp	r2, r3
 296 0030 2DD1     		bne	.L53
 297 0032 02B0     		add	sp, sp, #8
 298              		.cfi_remember_state
 299              		.cfi_def_cfa_offset 16
 300              		@ sp needed
 301 0034 70BD     		pop	{r4, r5, r6, pc}
 302              	.LVL17:
 303              	.L37:
 304              		.cfi_restore_state
 305              		.loc 1 284 0
 306 0036 184E     		ldr	r6, .L56+4
 307 0038 B042     		cmp	r0, r6
 308 003a 12D0     		beq	.L54
 309              	.LVL18:
 310              	.L39:
 311              		.loc 1 346 0
 312 003c 2369     		ldr	r3, [r4, #16]
 313 003e A268     		ldr	r2, [r4, #8]
 314 0040 2BB1     		cbz	r3, .L41
 315              		.loc 1 347 0
 316 0042 1B68     		ldr	r3, [r3]
 317 0044 A169     		ldr	r1, [r4, #24]
 318 0046 1960     		str	r1, [r3]
 319              		.loc 1 348 0
 320 0048 02F10C01 		add	r1, r2, #12
 321 004c 9960     		str	r1, [r3, #8]
 322              	.L41:
 323              		.loc 1 350 0
 324 004e 6369     		ldr	r3, [r4, #20]
 325 0050 002B     		cmp	r3, #0
 326 0052 DFD0     		beq	.L38
 327              		.loc 1 351 0
 328 0054 1B68     		ldr	r3, [r3]
 329 0056 E169     		ldr	r1, [r4, #28]
 330 0058 1960     		str	r1, [r3]
 331              		.loc 1 352 0
 332 005a 02F10C01 		add	r1, r2, #12
 333 005e 9960     		str	r1, [r3, #8]
 334 0060 D8E7     		b	.L38
 335              	.LVL19:
 336              	.L54:
 337              	.LBB18:
 338              		.loc 1 288 0
 339 0062 0E49     		ldr	r1, .L56+8
 340              		.loc 1 291 0
 341 0064 0069     		ldr	r0, [r0, #16]
 342              	.LVL20:
ARM GAS  C:\Users\Moi\AppData\Local\Temp\cc0vdem2.s 			page 7


 343              		.loc 1 288 0
 344 0066 0B6C     		ldr	r3, [r1, #64]
 345              		.loc 1 291 0
 346 0068 0D4A     		ldr	r2, .L56+12
 347              		.loc 1 288 0
 348 006a 43F48043 		orr	r3, r3, #16384
 349 006e 0B64     		str	r3, [r1, #64]
 350              		.loc 1 291 0
 351 0070 2346     		mov	r3, r4
 352 0072 0A21     		movs	r1, #10
 353 0074 FFF7FEFF 		bl	dmaStreamAllocate
 354              	.LVL21:
 355              		.loc 1 295 0
 356 0078 28B9     		cbnz	r0, .L55
 357              	.LVL22:
 358              	.L40:
 359              		.loc 1 299 0
 360 007a B368     		ldr	r3, [r6, #8]
 361 007c 0021     		movs	r1, #0
 362              		.loc 1 300 0
 363 007e 0122     		movs	r2, #1
 364              		.loc 1 299 0
 365 0080 1960     		str	r1, [r3]
 366              		.loc 1 300 0
 367 0082 5A60     		str	r2, [r3, #4]
 368 0084 DAE7     		b	.L39
 369              	.LVL23:
 370              	.L55:
 371              		.loc 1 295 0 discriminator 2
 372 0086 0748     		ldr	r0, .L56+16
 373              	.LVL24:
 374 0088 FFF7FEFF 		bl	chSysHalt
 375              	.LVL25:
 376 008c F5E7     		b	.L40
 377              	.L53:
 378              	.LBE18:
 379              		.loc 1 359 0
 380 008e FFF7FEFF 		bl	__stack_chk_fail
 381              	.LVL26:
 382              	.L57:
 383 0092 00BF     		.align	2
 384              	.L56:
 385 0094 00000000 		.word	__stack_chk_guard
 386 0098 00000000 		.word	.LANCHOR0
 387 009c 00380240 		.word	1073887232
 388 00a0 00000000 		.word	i2s_lld_serve_rx_interrupt
 389 00a4 00000000 		.word	.LANCHOR1
 390              		.cfi_endproc
 391              	.LFE258:
 392              		.size	i2s_lld_start, .-i2s_lld_start
 393              		.section	.text.i2s_lld_stop,"ax",%progbits
 394              		.align	1
 395              		.p2align 4,,15
 396              		.global	i2s_lld_stop
 397              		.syntax unified
 398              		.thumb
 399              		.thumb_func
ARM GAS  C:\Users\Moi\AppData\Local\Temp\cc0vdem2.s 			page 8


 400              		.fpu fpv4-sp-d16
 401              		.type	i2s_lld_stop, %function
 402              	i2s_lld_stop:
 403              	.LFB259:
 404              		.loc 1 368 0
 405              		.cfi_startproc
 406              		@ args = 0, pretend = 0, frame = 8
 407              		@ frame_needed = 0, uses_anonymous_args = 0
 408              	.LVL27:
 409 0000 30B5     		push	{r4, r5, lr}
 410              		.cfi_def_cfa_offset 12
 411              		.cfi_offset 4, -12
 412              		.cfi_offset 5, -8
 413              		.cfi_offset 14, -4
 414              		.loc 1 371 0
 415 0002 0378     		ldrb	r3, [r0]	@ zero_extendqisi2
 416              		.loc 1 368 0
 417 0004 114D     		ldr	r5, .L74
 418 0006 83B0     		sub	sp, sp, #12
 419              		.cfi_def_cfa_offset 24
 420              		.loc 1 368 0
 421 0008 2A68     		ldr	r2, [r5]
 422 000a 0192     		str	r2, [sp, #4]
 423              		.loc 1 371 0
 424 000c 022B     		cmp	r3, #2
 425 000e 05D0     		beq	.L72
 426              	.LVL28:
 427              	.L58:
 428              		.loc 1 389 0
 429 0010 019A     		ldr	r2, [sp, #4]
 430 0012 2B68     		ldr	r3, [r5]
 431 0014 9A42     		cmp	r2, r3
 432 0016 16D1     		bne	.L73
 433 0018 03B0     		add	sp, sp, #12
 434              		.cfi_remember_state
 435              		.cfi_def_cfa_offset 12
 436              		@ sp needed
 437 001a 30BD     		pop	{r4, r5, pc}
 438              	.LVL29:
 439              	.L72:
 440              		.cfi_restore_state
 441              		.loc 1 374 0
 442 001c 8368     		ldr	r3, [r0, #8]
 443 001e 0446     		mov	r4, r0
 444              		.loc 1 375 0
 445 0020 0069     		ldr	r0, [r0, #16]
 446              	.LVL30:
 447              		.loc 1 374 0
 448 0022 0022     		movs	r2, #0
 449 0024 5A60     		str	r2, [r3, #4]
 450              		.loc 1 375 0
 451 0026 08B1     		cbz	r0, .L61
 452              		.loc 1 376 0
 453 0028 FFF7FEFF 		bl	dmaStreamRelease
 454              	.LVL31:
 455              	.L61:
 456              		.loc 1 377 0
ARM GAS  C:\Users\Moi\AppData\Local\Temp\cc0vdem2.s 			page 9


 457 002c 6069     		ldr	r0, [r4, #20]
 458 002e 08B1     		cbz	r0, .L62
 459              		.loc 1 378 0
 460 0030 FFF7FEFF 		bl	dmaStreamRelease
 461              	.LVL32:
 462              	.L62:
 463              		.loc 1 381 0
 464 0034 064B     		ldr	r3, .L74+4
 465 0036 9C42     		cmp	r4, r3
 466 0038 EAD1     		bne	.L58
 467              		.loc 1 382 0
 468 003a 064A     		ldr	r2, .L74+8
 469 003c 136C     		ldr	r3, [r2, #64]
 470 003e 23F48043 		bic	r3, r3, #16384
 471 0042 1364     		str	r3, [r2, #64]
 472              		.loc 1 389 0
 473 0044 E4E7     		b	.L58
 474              	.LVL33:
 475              	.L73:
 476 0046 FFF7FEFF 		bl	__stack_chk_fail
 477              	.LVL34:
 478              	.L75:
 479 004a 00BF     		.align	2
 480              	.L74:
 481 004c 00000000 		.word	__stack_chk_guard
 482 0050 00000000 		.word	.LANCHOR0
 483 0054 00380240 		.word	1073887232
 484              		.cfi_endproc
 485              	.LFE259:
 486              		.size	i2s_lld_stop, .-i2s_lld_stop
 487              		.section	.text.i2s_lld_start_exchange,"ax",%progbits
 488              		.align	1
 489              		.p2align 4,,15
 490              		.global	i2s_lld_start_exchange
 491              		.syntax unified
 492              		.thumb
 493              		.thumb_func
 494              		.fpu fpv4-sp-d16
 495              		.type	i2s_lld_start_exchange, %function
 496              	i2s_lld_start_exchange:
 497              	.LFB260:
 498              		.loc 1 398 0
 499              		.cfi_startproc
 500              		@ args = 0, pretend = 0, frame = 8
 501              		@ frame_needed = 0, uses_anonymous_args = 0
 502              	.LVL35:
 503 0000 30B5     		push	{r4, r5, lr}
 504              		.cfi_def_cfa_offset 12
 505              		.cfi_offset 4, -12
 506              		.cfi_offset 5, -8
 507              		.cfi_offset 14, -4
 508              		.loc 1 399 0
 509 0002 4368     		ldr	r3, [r0, #4]
 510              		.loc 1 398 0
 511 0004 154C     		ldr	r4, .L92
 512              		.loc 1 410 0
 513 0006 1A8A     		ldrh	r2, [r3, #16]
ARM GAS  C:\Users\Moi\AppData\Local\Temp\cc0vdem2.s 			page 10


 514              		.loc 1 398 0
 515 0008 2568     		ldr	r5, [r4]
 516              		.loc 1 399 0
 517 000a 9968     		ldr	r1, [r3, #8]
 518              	.LVL36:
 519              		.loc 1 398 0
 520 000c 83B0     		sub	sp, sp, #12
 521              		.cfi_def_cfa_offset 24
 522              		.loc 1 410 0
 523 000e 02F00602 		and	r2, r2, #6
 524              		.loc 1 398 0
 525 0012 0195     		str	r5, [sp, #4]
 526              		.loc 1 410 0
 527 0014 02B1     		cbz	r2, .L77
 528              		.loc 1 411 0
 529 0016 4900     		lsls	r1, r1, #1
 530              	.LVL37:
 531              	.L77:
 532              		.loc 1 414 0
 533 0018 0269     		ldr	r2, [r0, #16]
 534 001a 3AB1     		cbz	r2, .L78
 535              		.loc 1 415 0
 536 001c 1268     		ldr	r2, [r2]
 537 001e 5D68     		ldr	r5, [r3, #4]
 538 0020 D560     		str	r5, [r2, #12]
 539              		.loc 1 416 0
 540 0022 5160     		str	r1, [r2, #4]
 541              		.loc 1 417 0
 542 0024 1568     		ldr	r5, [r2]
 543 0026 45F00105 		orr	r5, r5, #1
 544 002a 1560     		str	r5, [r2]
 545              	.L78:
 546              		.loc 1 421 0
 547 002c 4269     		ldr	r2, [r0, #20]
 548 002e 3AB1     		cbz	r2, .L79
 549              		.loc 1 422 0
 550 0030 1268     		ldr	r2, [r2]
 551 0032 1B68     		ldr	r3, [r3]
 552 0034 D360     		str	r3, [r2, #12]
 553              		.loc 1 423 0
 554 0036 5160     		str	r1, [r2, #4]
 555              		.loc 1 424 0
 556 0038 1368     		ldr	r3, [r2]
 557 003a 43F00103 		orr	r3, r3, #1
 558 003e 1360     		str	r3, [r2]
 559              	.L79:
 560              		.loc 1 428 0
 561 0040 8268     		ldr	r2, [r0, #8]
 562 0042 D369     		ldr	r3, [r2, #28]
 563 0044 43F48063 		orr	r3, r3, #1024
 564 0048 D361     		str	r3, [r2, #28]
 565              		.loc 1 429 0
 566 004a 019A     		ldr	r2, [sp, #4]
 567 004c 2368     		ldr	r3, [r4]
 568 004e 9A42     		cmp	r2, r3
 569 0050 01D1     		bne	.L91
 570 0052 03B0     		add	sp, sp, #12
ARM GAS  C:\Users\Moi\AppData\Local\Temp\cc0vdem2.s 			page 11


 571              		.cfi_remember_state
 572              		.cfi_def_cfa_offset 12
 573              		@ sp needed
 574 0054 30BD     		pop	{r4, r5, pc}
 575              	.L91:
 576              		.cfi_restore_state
 577 0056 FFF7FEFF 		bl	__stack_chk_fail
 578              	.LVL38:
 579              	.L93:
 580 005a 00BF     		.align	2
 581              	.L92:
 582 005c 00000000 		.word	__stack_chk_guard
 583              		.cfi_endproc
 584              	.LFE260:
 585              		.size	i2s_lld_start_exchange, .-i2s_lld_start_exchange
 586              		.section	.text.i2s_lld_stop_exchange,"ax",%progbits
 587              		.align	1
 588              		.p2align 4,,15
 589              		.global	i2s_lld_stop_exchange
 590              		.syntax unified
 591              		.thumb
 592              		.thumb_func
 593              		.fpu fpv4-sp-d16
 594              		.type	i2s_lld_stop_exchange, %function
 595              	i2s_lld_stop_exchange:
 596              	.LFB261:
 597              		.loc 1 440 0
 598              		.cfi_startproc
 599              		@ args = 0, pretend = 0, frame = 8
 600              		@ frame_needed = 0, uses_anonymous_args = 0
 601              	.LVL39:
 602 0000 70B5     		push	{r4, r5, r6, lr}
 603              		.cfi_def_cfa_offset 16
 604              		.cfi_offset 4, -16
 605              		.cfi_offset 5, -12
 606              		.cfi_offset 6, -8
 607              		.cfi_offset 14, -4
 608 0002 1A4D     		ldr	r5, .L112
 609              		.loc 1 443 0
 610 0004 4469     		ldr	r4, [r0, #20]
 611              		.loc 1 440 0
 612 0006 2B68     		ldr	r3, [r5]
 613 0008 8268     		ldr	r2, [r0, #8]
 614 000a 82B0     		sub	sp, sp, #8
 615              		.cfi_def_cfa_offset 24
 616              		.loc 1 440 0
 617 000c 0193     		str	r3, [sp, #4]
 618              		.loc 1 443 0
 619 000e 8CB1     		cbz	r4, .L95
 620              		.loc 1 444 0
 621 0010 2168     		ldr	r1, [r4]
 622 0012 0B68     		ldr	r3, [r1]
 623 0014 23F01F03 		bic	r3, r3, #31
 624 0018 0B60     		str	r3, [r1]
 625              	.L96:
 626              		.loc 1 444 0 is_stmt 0 discriminator 2
 627 001a 0B68     		ldr	r3, [r1]
ARM GAS  C:\Users\Moi\AppData\Local\Temp\cc0vdem2.s 			page 12


 628 001c DE07     		lsls	r6, r3, #31
 629 001e FCD4     		bmi	.L96
 630              		.loc 1 444 0 discriminator 3
 631 0020 267A     		ldrb	r6, [r4, #8]	@ zero_extendqisi2
 632 0022 6168     		ldr	r1, [r4, #4]
 633 0024 3D23     		movs	r3, #61
 634 0026 B340     		lsls	r3, r3, r6
 635 0028 0B60     		str	r3, [r1]
 636              	.L97:
 637              		.loc 1 448 0 is_stmt 1 discriminator 1
 638 002a 9368     		ldr	r3, [r2, #8]
 639 002c 03F08203 		and	r3, r3, #130
 640 0030 022B     		cmp	r3, #2
 641 0032 FAD1     		bne	.L97
 642              	.L95:
 643              		.loc 1 453 0
 644 0034 D369     		ldr	r3, [r2, #28]
 645              		.loc 1 456 0
 646 0036 0169     		ldr	r1, [r0, #16]
 647              		.loc 1 453 0
 648 0038 23F48063 		bic	r3, r3, #1024
 649 003c D361     		str	r3, [r2, #28]
 650              		.loc 1 456 0
 651 003e 61B1     		cbz	r1, .L94
 652              		.loc 1 457 0
 653 0040 0A68     		ldr	r2, [r1]
 654 0042 1368     		ldr	r3, [r2]
 655 0044 23F01F03 		bic	r3, r3, #31
 656 0048 1360     		str	r3, [r2]
 657              	.L99:
 658              		.loc 1 457 0 is_stmt 0 discriminator 2
 659 004a 1368     		ldr	r3, [r2]
 660 004c DB07     		lsls	r3, r3, #31
 661 004e FCD4     		bmi	.L99
 662              		.loc 1 457 0 discriminator 3
 663 0050 087A     		ldrb	r0, [r1, #8]	@ zero_extendqisi2
 664              	.LVL40:
 665 0052 4A68     		ldr	r2, [r1, #4]
 666 0054 3D23     		movs	r3, #61
 667 0056 8340     		lsls	r3, r3, r0
 668 0058 1360     		str	r3, [r2]
 669              	.L94:
 670              		.loc 1 458 0 is_stmt 1
 671 005a 019A     		ldr	r2, [sp, #4]
 672 005c 2B68     		ldr	r3, [r5]
 673 005e 9A42     		cmp	r2, r3
 674 0060 01D1     		bne	.L111
 675 0062 02B0     		add	sp, sp, #8
 676              		.cfi_remember_state
 677              		.cfi_def_cfa_offset 16
 678              		@ sp needed
 679 0064 70BD     		pop	{r4, r5, r6, pc}
 680              	.L111:
 681              		.cfi_restore_state
 682 0066 FFF7FEFF 		bl	__stack_chk_fail
 683              	.LVL41:
 684              	.L113:
ARM GAS  C:\Users\Moi\AppData\Local\Temp\cc0vdem2.s 			page 13


 685 006a 00BF     		.align	2
 686              	.L112:
 687 006c 00000000 		.word	__stack_chk_guard
 688              		.cfi_endproc
 689              	.LFE261:
 690              		.size	i2s_lld_stop_exchange, .-i2s_lld_stop_exchange
 691              		.global	I2SD2
 692              		.section	.bss.I2SD2,"aw",%nobits
 693              		.align	2
 694              		.set	.LANCHOR0,. + 0
 695              		.type	I2SD2, %object
 696              		.size	I2SD2, 32
 697              	I2SD2:
 698 0000 00000000 		.space	32
 698      00000000 
 698      00000000 
 698      00000000 
 698      00000000 
 699              		.section	.rodata.__func__.9850,"a",%progbits
 700              		.align	2
 701              		.set	.LANCHOR1,. + 0
 702              		.type	__func__.9850, %object
 703              		.size	__func__.9850, 14
 704              	__func__.9850:
 705 0000 6932735F 		.ascii	"i2s_lld_start\000"
 705      6C6C645F 
 705      73746172 
 705      7400
 706              		.section	.rodata.i2s_lld_serve_rx_interrupt.str1.4,"aMS",%progbits,1
 707              		.align	2
 708              	.LC0:
 709 0000 444D4120 		.ascii	"DMA failure\000"
 709      6661696C 
 709      75726500 
 710              		.text
 711              	.Letext0:
 712              		.file 3 "c:\\users\\moi\\documents\\_microinfo\\epuck-eclipse\\tools\\gcc-arm-none-eabi-7-2017-q4-
 713              		.file 4 "c:\\users\\moi\\documents\\_microinfo\\epuck-eclipse\\tools\\gcc-arm-none-eabi-7-2017-q4-
 714              		.file 5 "c:\\users\\moi\\documents\\_microinfo\\epuck-eclipse\\tools\\gcc-arm-none-eabi-7-2017-q4-
 715              		.file 6 "..//ChibiOS//os/rt/ports/ARMCMx/compilers/GCC/chtypes.h"
 716              		.file 7 "..//ChibiOS//os/rt/include/chsystypes.h"
 717              		.file 8 "..//ChibiOS//os/rt/include/chschd.h"
 718              		.file 9 "..//ChibiOS//os/ext/CMSIS/include/core_cm4.h"
 719              		.file 10 "..//ChibiOS//os/ext/CMSIS/ST/system_stm32f4xx.h"
 720              		.file 11 "..//ChibiOS//os/ext/CMSIS/ST/stm32f407xx.h"
 721              		.file 12 "..//ChibiOS//os/rt/ports/ARMCMx/chcore.h"
 722              		.file 13 "..//ChibiOS//os/rt/ports/ARMCMx/chcore_v7m.h"
 723              		.file 14 "..//ChibiOS//os/rt/include/chdebug.h"
 724              		.file 15 "..//ChibiOS//os/rt/include/chtm.h"
 725              		.file 16 "..//ChibiOS//os/rt/include/chstats.h"
 726              		.file 17 "..//ChibiOS//os/rt/include/chsem.h"
 727              		.file 18 "..//ChibiOS//os/rt/include/chmtx.h"
 728              		.file 19 "..//ChibiOS//os/rt/include/chregistry.h"
 729              		.file 20 "..//ChibiOS//os/rt/include/chevents.h"
 730              		.file 21 "..//ChibiOS//os/rt/include/chqueues.h"
 731              		.file 22 "..//ChibiOS//os/hal/ports/STM32/STM32F4xx/stm32_dma.h"
 732              		.file 23 "..//ChibiOS//os/hal/include/hal_ioblock.h"
ARM GAS  C:\Users\Moi\AppData\Local\Temp\cc0vdem2.s 			page 14


 733              		.file 24 "..//ChibiOS//os/hal/ports/STM32/LLD/GPIOv2/pal_lld.h"
 734              		.file 25 "..//ChibiOS//os/hal/include/adc.h"
 735              		.file 26 "..//ChibiOS//os/hal/ports/STM32/STM32F4xx/adc_lld.h"
 736              		.file 27 "..//ChibiOS//os/hal/include/can.h"
 737              		.file 28 "..//ChibiOS//os/hal/ports/STM32/LLD/can_lld.h"
 738              		.file 29 "..//ChibiOS//os/hal/include/dac.h"
 739              		.file 30 "..//ChibiOS//os/hal/ports/STM32/LLD/DACv1/dac_lld.h"
 740              		.file 31 "..//ChibiOS//os/hal/include/ext.h"
 741              		.file 32 "..//ChibiOS//os/hal/ports/STM32/LLD/ext_lld.h"
 742              		.file 33 "..//ChibiOS//os/hal/include/gpt.h"
 743              		.file 34 "..//ChibiOS//os/hal/ports/STM32/LLD/TIMv1/gpt_lld.h"
 744              		.file 35 "..//ChibiOS//os/hal/ports/STM32/LLD/TIMv1/stm32_tim.h"
 745              		.file 36 "..//ChibiOS//os/hal/include/i2c.h"
 746              		.file 37 "..//ChibiOS//os/hal/ports/STM32/LLD/I2Cv1/i2c_lld.h"
 747              		.file 38 "..//ChibiOS//os/hal/include/i2s.h"
 748              		.file 39 "..//ChibiOS//os/hal/ports/STM32/LLD/SPIv1/i2s_lld.h"
 749              		.file 40 "..//ChibiOS//os/hal/include/pwm.h"
 750              		.file 41 "..//ChibiOS//os/hal/ports/STM32/LLD/TIMv1/pwm_lld.h"
 751              		.file 42 "..//ChibiOS//os/hal/include/serial.h"
 752              		.file 43 "..//ChibiOS//os/hal/ports/STM32/LLD/USARTv1/serial_lld.h"
 753              		.file 44 "..//ChibiOS//os/hal/include/sdc.h"
 754              		.file 45 "..//ChibiOS//os/hal/ports/STM32/LLD/sdc_lld.h"
 755              		.file 46 "..//ChibiOS//os/hal/include/spi.h"
 756              		.file 47 "..//ChibiOS//os/hal/ports/STM32/LLD/SPIv1/spi_lld.h"
 757              		.file 48 "..//ChibiOS//os/hal/include/usb.h"
 758              		.file 49 "..//ChibiOS//os/hal/ports/STM32/LLD/OTGv1/usb_lld.h"
 759              		.file 50 "..//ChibiOS//os/hal/ports/STM32/LLD/OTGv1/stm32_otg.h"
 760              		.file 51 "..//ChibiOS//os/rt/include/chsys.h"