ARM GAS  C:\Users\Moi\AppData\Local\Temp\ccDxq0iY.s 			page 1


   1              		.cpu cortex-m4
   2              		.eabi_attribute 27, 1
   3              		.eabi_attribute 28, 1
   4              		.eabi_attribute 20, 1
   5              		.eabi_attribute 21, 1
   6              		.eabi_attribute 23, 3
   7              		.eabi_attribute 24, 1
   8              		.eabi_attribute 25, 1
   9              		.eabi_attribute 26, 1
  10              		.eabi_attribute 30, 6
  11              		.eabi_attribute 34, 1
  12              		.eabi_attribute 18, 4
  13              		.file	"imu.c"
  14              		.text
  15              	.Ltext0:
  16              		.cfi_sections	.debug_frame
  17              		.section	.text.port_lock,"ax",%progbits
  18              		.align	1
  19              		.p2align 4,,15
  20              		.syntax unified
  21              		.thumb
  22              		.thumb_func
  23              		.fpu fpv4-sp-d16
  24              		.type	port_lock, %function
  25              	port_lock:
  26              	.LFB116:
  27              		.file 1 "..//ChibiOS//os/rt/ports/ARMCMx/chcore_v7m.h"
  28              		.loc 1 444 0
  29              		.cfi_startproc
  30              		@ args = 0, pretend = 0, frame = 8
  31              		@ frame_needed = 0, uses_anonymous_args = 0
  32 0000 00B5     		push	{lr}
  33              		.cfi_def_cfa_offset 4
  34              		.cfi_offset 14, -4
  35 0002 83B0     		sub	sp, sp, #12
  36              		.cfi_def_cfa_offset 16
  37              		.loc 1 444 0
  38 0004 094B     		ldr	r3, .L3
  39 0006 1B68     		ldr	r3, [r3]
  40 0008 0193     		str	r3, [sp, #4]
  41 000a 2023     		movs	r3, #32
  42 000c 0093     		str	r3, [sp]
  43              	.LBB6:
  44              	.LBB7:
  45              		.file 2 "..//ChibiOS//os/ext/CMSIS/include/core_cmFunc.h"
  46              		.loc 2 546 0
  47 000e 009B     		ldr	r3, [sp]
  48              		.syntax unified
  49              	@ 546 "..//ChibiOS//os/ext/CMSIS/include/core_cmFunc.h" 1
  50 0010 83F31188 		MSR basepri, r3
  51              	@ 0 "" 2
  52              		.thumb
  53              		.syntax unified
  54              	.LBE7:
  55              	.LBE6:
  56              		.loc 1 451 0
  57 0014 00BF     		nop
ARM GAS  C:\Users\Moi\AppData\Local\Temp\ccDxq0iY.s 			page 2


  58 0016 054B     		ldr	r3, .L3
  59 0018 019A     		ldr	r2, [sp, #4]
  60 001a 1B68     		ldr	r3, [r3]
  61 001c 9A42     		cmp	r2, r3
  62 001e 01D0     		beq	.L2
  63 0020 FFF7FEFF 		bl	__stack_chk_fail
  64              	.L2:
  65 0024 03B0     		add	sp, sp, #12
  66              		.cfi_def_cfa_offset 4
  67              		@ sp needed
  68 0026 5DF804FB 		ldr	pc, [sp], #4
  69              	.L4:
  70 002a 00BF     		.align	2
  71              	.L3:
  72 002c 00000000 		.word	__stack_chk_guard
  73              		.cfi_endproc
  74              	.LFE116:
  75              		.size	port_lock, .-port_lock
  76              		.section	.text.port_unlock,"ax",%progbits
  77              		.align	1
  78              		.p2align 4,,15
  79              		.syntax unified
  80              		.thumb
  81              		.thumb_func
  82              		.fpu fpv4-sp-d16
  83              		.type	port_unlock, %function
  84              	port_unlock:
  85              	.LFB117:
  86              		.loc 1 458 0
  87              		.cfi_startproc
  88              		@ args = 0, pretend = 0, frame = 8
  89              		@ frame_needed = 0, uses_anonymous_args = 0
  90 0000 00B5     		push	{lr}
  91              		.cfi_def_cfa_offset 4
  92              		.cfi_offset 14, -4
  93 0002 83B0     		sub	sp, sp, #12
  94              		.cfi_def_cfa_offset 16
  95              		.loc 1 458 0
  96 0004 094B     		ldr	r3, .L7
  97 0006 1B68     		ldr	r3, [r3]
  98 0008 0193     		str	r3, [sp, #4]
  99 000a 0023     		movs	r3, #0
 100 000c 0093     		str	r3, [sp]
 101              	.LBB8:
 102              	.LBB9:
 103              		.loc 2 546 0
 104 000e 009B     		ldr	r3, [sp]
 105              		.syntax unified
 106              	@ 546 "..//ChibiOS//os/ext/CMSIS/include/core_cmFunc.h" 1
 107 0010 83F31188 		MSR basepri, r3
 108              	@ 0 "" 2
 109              		.thumb
 110              		.syntax unified
 111              	.LBE9:
 112              	.LBE8:
 113              		.loc 1 465 0
 114 0014 00BF     		nop
ARM GAS  C:\Users\Moi\AppData\Local\Temp\ccDxq0iY.s 			page 3


 115 0016 054B     		ldr	r3, .L7
 116 0018 019A     		ldr	r2, [sp, #4]
 117 001a 1B68     		ldr	r3, [r3]
 118 001c 9A42     		cmp	r2, r3
 119 001e 01D0     		beq	.L6
 120 0020 FFF7FEFF 		bl	__stack_chk_fail
 121              	.L6:
 122 0024 03B0     		add	sp, sp, #12
 123              		.cfi_def_cfa_offset 4
 124              		@ sp needed
 125 0026 5DF804FB 		ldr	pc, [sp], #4
 126              	.L8:
 127 002a 00BF     		.align	2
 128              	.L7:
 129 002c 00000000 		.word	__stack_chk_guard
 130              		.cfi_endproc
 131              	.LFE117:
 132              		.size	port_unlock, .-port_unlock
 133              		.section	.text.chSysLock,"ax",%progbits
 134              		.align	1
 135              		.p2align 4,,15
 136              		.syntax unified
 137              		.thumb
 138              		.thumb_func
 139              		.fpu fpv4-sp-d16
 140              		.type	chSysLock, %function
 141              	chSysLock:
 142              	.LFB145:
 143              		.file 3 "..//ChibiOS//os/rt/include/chsys.h"
 144              		.loc 3 346 0
 145              		.cfi_startproc
 146              		@ args = 0, pretend = 0, frame = 8
 147              		@ frame_needed = 0, uses_anonymous_args = 0
 148 0000 00B5     		push	{lr}
 149              		.cfi_def_cfa_offset 4
 150              		.cfi_offset 14, -4
 151 0002 83B0     		sub	sp, sp, #12
 152              		.cfi_def_cfa_offset 16
 153              		.loc 3 346 0
 154 0004 094B     		ldr	r3, .L11
 155 0006 1B68     		ldr	r3, [r3]
 156 0008 0193     		str	r3, [sp, #4]
 157              		.loc 3 348 0
 158 000a FFF7FEFF 		bl	port_lock
 159              		.loc 3 349 0
 160 000e FFF7FEFF 		bl	_stats_start_measure_crit_thd
 161              		.loc 3 350 0
 162 0012 FFF7FEFF 		bl	_dbg_check_lock
 163              		.loc 3 351 0
 164 0016 00BF     		nop
 165 0018 044B     		ldr	r3, .L11
 166 001a 019A     		ldr	r2, [sp, #4]
 167 001c 1B68     		ldr	r3, [r3]
 168 001e 9A42     		cmp	r2, r3
 169 0020 01D0     		beq	.L10
 170 0022 FFF7FEFF 		bl	__stack_chk_fail
 171              	.L10:
ARM GAS  C:\Users\Moi\AppData\Local\Temp\ccDxq0iY.s 			page 4


 172 0026 03B0     		add	sp, sp, #12
 173              		.cfi_def_cfa_offset 4
 174              		@ sp needed
 175 0028 5DF804FB 		ldr	pc, [sp], #4
 176              	.L12:
 177              		.align	2
 178              	.L11:
 179 002c 00000000 		.word	__stack_chk_guard
 180              		.cfi_endproc
 181              	.LFE145:
 182              		.size	chSysLock, .-chSysLock
 183              		.section	.text.chSysUnlock,"ax",%progbits
 184              		.align	1
 185              		.p2align 4,,15
 186              		.syntax unified
 187              		.thumb
 188              		.thumb_func
 189              		.fpu fpv4-sp-d16
 190              		.type	chSysUnlock, %function
 191              	chSysUnlock:
 192              	.LFB146:
 193              		.loc 3 358 0
 194              		.cfi_startproc
 195              		@ args = 0, pretend = 0, frame = 8
 196              		@ frame_needed = 0, uses_anonymous_args = 0
 197 0000 00B5     		push	{lr}
 198              		.cfi_def_cfa_offset 4
 199              		.cfi_offset 14, -4
 200 0002 83B0     		sub	sp, sp, #12
 201              		.cfi_def_cfa_offset 16
 202              		.loc 3 358 0
 203 0004 114B     		ldr	r3, .L16
 204 0006 1B68     		ldr	r3, [r3]
 205 0008 0193     		str	r3, [sp, #4]
 206              		.loc 3 360 0
 207 000a FFF7FEFF 		bl	_dbg_check_unlock
 208              		.loc 3 361 0
 209 000e FFF7FEFF 		bl	_stats_stop_measure_crit_thd
 210              		.loc 3 367 0
 211 0012 0F4B     		ldr	r3, .L16+4
 212 0014 1B68     		ldr	r3, [r3]
 213 0016 0E4A     		ldr	r2, .L16+4
 214 0018 9342     		cmp	r3, r2
 215 001a 0AD0     		beq	.L14
 216              		.loc 3 367 0 is_stmt 0 discriminator 2
 217 001c 0C4B     		ldr	r3, .L16+4
 218 001e 9B69     		ldr	r3, [r3, #24]
 219 0020 9A68     		ldr	r2, [r3, #8]
 220 0022 0B4B     		ldr	r3, .L16+4
 221 0024 1B68     		ldr	r3, [r3]
 222 0026 9B68     		ldr	r3, [r3, #8]
 223 0028 9A42     		cmp	r2, r3
 224 002a 02D2     		bcs	.L14
 225              		.loc 3 367 0 discriminator 3
 226 002c 0948     		ldr	r0, .L16+8
 227 002e FFF7FEFF 		bl	chSysHalt
 228              	.L14:
ARM GAS  C:\Users\Moi\AppData\Local\Temp\ccDxq0iY.s 			page 5


 229              		.loc 3 371 0 is_stmt 1
 230 0032 FFF7FEFF 		bl	port_unlock
 231              		.loc 3 372 0
 232 0036 00BF     		nop
 233 0038 044B     		ldr	r3, .L16
 234 003a 019A     		ldr	r2, [sp, #4]
 235 003c 1B68     		ldr	r3, [r3]
 236 003e 9A42     		cmp	r2, r3
 237 0040 01D0     		beq	.L15
 238 0042 FFF7FEFF 		bl	__stack_chk_fail
 239              	.L15:
 240 0046 03B0     		add	sp, sp, #12
 241              		.cfi_def_cfa_offset 4
 242              		@ sp needed
 243 0048 5DF804FB 		ldr	pc, [sp], #4
 244              	.L17:
 245              		.align	2
 246              	.L16:
 247 004c 00000000 		.word	__stack_chk_guard
 248 0050 00000000 		.word	ch
 249 0054 00000000 		.word	__func__.7153
 250              		.cfi_endproc
 251              	.LFE146:
 252              		.size	chSysUnlock, .-chSysUnlock
 253              		.section	.text.chVTGetSystemTimeX,"ax",%progbits
 254              		.align	1
 255              		.p2align 4,,15
 256              		.syntax unified
 257              		.thumb
 258              		.thumb_func
 259              		.fpu fpv4-sp-d16
 260              		.type	chVTGetSystemTimeX, %function
 261              	chVTGetSystemTimeX:
 262              	.LFB153:
 263              		.file 4 "..//ChibiOS//os/rt/include/chvt.h"
 264              		.loc 4 228 0
 265              		.cfi_startproc
 266              		@ args = 0, pretend = 0, frame = 8
 267              		@ frame_needed = 0, uses_anonymous_args = 0
 268 0000 00B5     		push	{lr}
 269              		.cfi_def_cfa_offset 4
 270              		.cfi_offset 14, -4
 271 0002 83B0     		sub	sp, sp, #12
 272              		.cfi_def_cfa_offset 16
 273              		.loc 4 228 0
 274 0004 074B     		ldr	r3, .L21
 275 0006 1B68     		ldr	r3, [r3]
 276 0008 0193     		str	r3, [sp, #4]
 277              		.loc 4 231 0
 278 000a 074B     		ldr	r3, .L21+4
 279 000c 9B6A     		ldr	r3, [r3, #40]
 280              		.loc 4 235 0
 281 000e 1846     		mov	r0, r3
 282 0010 044B     		ldr	r3, .L21
 283 0012 019A     		ldr	r2, [sp, #4]
 284 0014 1B68     		ldr	r3, [r3]
 285 0016 9A42     		cmp	r2, r3
ARM GAS  C:\Users\Moi\AppData\Local\Temp\ccDxq0iY.s 			page 6


 286 0018 01D0     		beq	.L20
 287 001a FFF7FEFF 		bl	__stack_chk_fail
 288              	.L20:
 289 001e 03B0     		add	sp, sp, #12
 290              		.cfi_def_cfa_offset 4
 291              		@ sp needed
 292 0020 5DF804FB 		ldr	pc, [sp], #4
 293              	.L22:
 294              		.align	2
 295              	.L21:
 296 0024 00000000 		.word	__stack_chk_guard
 297 0028 00000000 		.word	ch
 298              		.cfi_endproc
 299              	.LFE153:
 300              		.size	chVTGetSystemTimeX, .-chVTGetSystemTimeX
 301              		.section	.text.chVTGetSystemTime,"ax",%progbits
 302              		.align	1
 303              		.p2align 4,,15
 304              		.syntax unified
 305              		.thumb
 306              		.thumb_func
 307              		.fpu fpv4-sp-d16
 308              		.type	chVTGetSystemTime, %function
 309              	chVTGetSystemTime:
 310              	.LFB154:
 311              		.loc 4 247 0
 312              		.cfi_startproc
 313              		@ args = 0, pretend = 0, frame = 8
 314              		@ frame_needed = 0, uses_anonymous_args = 0
 315 0000 00B5     		push	{lr}
 316              		.cfi_def_cfa_offset 4
 317              		.cfi_offset 14, -4
 318 0002 83B0     		sub	sp, sp, #12
 319              		.cfi_def_cfa_offset 16
 320              		.loc 4 247 0
 321 0004 0A4B     		ldr	r3, .L26
 322 0006 1B68     		ldr	r3, [r3]
 323 0008 0193     		str	r3, [sp, #4]
 324              		.loc 4 250 0
 325 000a FFF7FEFF 		bl	chSysLock
 326              		.loc 4 251 0
 327 000e FFF7FEFF 		bl	chVTGetSystemTimeX
 328 0012 0090     		str	r0, [sp]
 329              		.loc 4 252 0
 330 0014 FFF7FEFF 		bl	chSysUnlock
 331              		.loc 4 254 0
 332 0018 009B     		ldr	r3, [sp]
 333              		.loc 4 255 0
 334 001a 1846     		mov	r0, r3
 335 001c 044B     		ldr	r3, .L26
 336 001e 019A     		ldr	r2, [sp, #4]
 337 0020 1B68     		ldr	r3, [r3]
 338 0022 9A42     		cmp	r2, r3
 339 0024 01D0     		beq	.L25
 340 0026 FFF7FEFF 		bl	__stack_chk_fail
 341              	.L25:
 342 002a 03B0     		add	sp, sp, #12
ARM GAS  C:\Users\Moi\AppData\Local\Temp\ccDxq0iY.s 			page 7


 343              		.cfi_def_cfa_offset 4
 344              		@ sp needed
 345 002c 5DF804FB 		ldr	pc, [sp], #4
 346              	.L27:
 347              		.align	2
 348              	.L26:
 349 0030 00000000 		.word	__stack_chk_guard
 350              		.cfi_endproc
 351              	.LFE154:
 352              		.size	chVTGetSystemTime, .-chVTGetSystemTime
 353              		.section	.text.chThdGetSelfX,"ax",%progbits
 354              		.align	1
 355              		.p2align 4,,15
 356              		.syntax unified
 357              		.thumb
 358              		.thumb_func
 359              		.fpu fpv4-sp-d16
 360              		.type	chThdGetSelfX, %function
 361              	chThdGetSelfX:
 362              	.LFB166:
 363              		.file 5 "..//ChibiOS//os/rt/include/chthreads.h"
 364              		.loc 5 174 0
 365              		.cfi_startproc
 366              		@ args = 0, pretend = 0, frame = 8
 367              		@ frame_needed = 0, uses_anonymous_args = 0
 368 0000 00B5     		push	{lr}
 369              		.cfi_def_cfa_offset 4
 370              		.cfi_offset 14, -4
 371 0002 83B0     		sub	sp, sp, #12
 372              		.cfi_def_cfa_offset 16
 373              		.loc 5 174 0
 374 0004 074B     		ldr	r3, .L31
 375 0006 1B68     		ldr	r3, [r3]
 376 0008 0193     		str	r3, [sp, #4]
 377              		.loc 5 176 0
 378 000a 074B     		ldr	r3, .L31+4
 379 000c 9B69     		ldr	r3, [r3, #24]
 380              		.loc 5 177 0
 381 000e 1846     		mov	r0, r3
 382 0010 044B     		ldr	r3, .L31
 383 0012 019A     		ldr	r2, [sp, #4]
 384 0014 1B68     		ldr	r3, [r3]
 385 0016 9A42     		cmp	r2, r3
 386 0018 01D0     		beq	.L30
 387 001a FFF7FEFF 		bl	__stack_chk_fail
 388              	.L30:
 389 001e 03B0     		add	sp, sp, #12
 390              		.cfi_def_cfa_offset 4
 391              		@ sp needed
 392 0020 5DF804FB 		ldr	pc, [sp], #4
 393              	.L32:
 394              		.align	2
 395              	.L31:
 396 0024 00000000 		.word	__stack_chk_guard
 397 0028 00000000 		.word	ch
 398              		.cfi_endproc
 399              	.LFE166:
ARM GAS  C:\Users\Moi\AppData\Local\Temp\ccDxq0iY.s 			page 8


 400              		.size	chThdGetSelfX, .-chThdGetSelfX
 401              		.section	.text.chThdShouldTerminateX,"ax",%progbits
 402              		.align	1
 403              		.p2align 4,,15
 404              		.syntax unified
 405              		.thumb
 406              		.thumb_func
 407              		.fpu fpv4-sp-d16
 408              		.type	chThdShouldTerminateX, %function
 409              	chThdShouldTerminateX:
 410              	.LFB170:
 411              		.loc 5 231 0
 412              		.cfi_startproc
 413              		@ args = 0, pretend = 0, frame = 8
 414              		@ frame_needed = 0, uses_anonymous_args = 0
 415 0000 00B5     		push	{lr}
 416              		.cfi_def_cfa_offset 4
 417              		.cfi_offset 14, -4
 418 0002 83B0     		sub	sp, sp, #12
 419              		.cfi_def_cfa_offset 16
 420              		.loc 5 231 0
 421 0004 0C4B     		ldr	r3, .L36
 422 0006 1B68     		ldr	r3, [r3]
 423 0008 0193     		str	r3, [sp, #4]
 424              		.loc 5 233 0
 425 000a FFF7FEFF 		bl	chThdGetSelfX
 426 000e 0346     		mov	r3, r0
 427 0010 93F82130 		ldrb	r3, [r3, #33]	@ zero_extendqisi2
 428 0014 03F00403 		and	r3, r3, #4
 429 0018 002B     		cmp	r3, #0
 430 001a 14BF     		ite	ne
 431 001c 0123     		movne	r3, #1
 432 001e 0023     		moveq	r3, #0
 433 0020 DBB2     		uxtb	r3, r3
 434              		.loc 5 234 0
 435 0022 1846     		mov	r0, r3
 436 0024 044B     		ldr	r3, .L36
 437 0026 019A     		ldr	r2, [sp, #4]
 438 0028 1B68     		ldr	r3, [r3]
 439 002a 9A42     		cmp	r2, r3
 440 002c 01D0     		beq	.L35
 441 002e FFF7FEFF 		bl	__stack_chk_fail
 442              	.L35:
 443 0032 03B0     		add	sp, sp, #12
 444              		.cfi_def_cfa_offset 4
 445              		@ sp needed
 446 0034 5DF804FB 		ldr	pc, [sp], #4
 447              	.L37:
 448              		.align	2
 449              	.L36:
 450 0038 00000000 		.word	__stack_chk_guard
 451              		.cfi_endproc
 452              	.LFE170:
 453              		.size	chThdShouldTerminateX, .-chThdShouldTerminateX
 454              		.section	.text.chRegSetThreadName,"ax",%progbits
 455              		.align	1
 456              		.p2align 4,,15
ARM GAS  C:\Users\Moi\AppData\Local\Temp\ccDxq0iY.s 			page 9


 457              		.syntax unified
 458              		.thumb
 459              		.thumb_func
 460              		.fpu fpv4-sp-d16
 461              		.type	chRegSetThreadName, %function
 462              	chRegSetThreadName:
 463              	.LFB176:
 464              		.file 6 "..//ChibiOS//os/rt/include/chregistry.h"
 465              		.loc 6 132 0
 466              		.cfi_startproc
 467              		@ args = 0, pretend = 0, frame = 16
 468              		@ frame_needed = 0, uses_anonymous_args = 0
 469 0000 00B5     		push	{lr}
 470              		.cfi_def_cfa_offset 4
 471              		.cfi_offset 14, -4
 472 0002 85B0     		sub	sp, sp, #20
 473              		.cfi_def_cfa_offset 24
 474 0004 0190     		str	r0, [sp, #4]
 475              		.loc 6 132 0
 476 0006 094B     		ldr	r3, .L40
 477 0008 1B68     		ldr	r3, [r3]
 478 000a 0393     		str	r3, [sp, #12]
 479              		.loc 6 135 0
 480 000c 084B     		ldr	r3, .L40+4
 481 000e 9B69     		ldr	r3, [r3, #24]
 482 0010 019A     		ldr	r2, [sp, #4]
 483 0012 9A61     		str	r2, [r3, #24]
 484              		.loc 6 139 0
 485 0014 00BF     		nop
 486 0016 054B     		ldr	r3, .L40
 487 0018 039A     		ldr	r2, [sp, #12]
 488 001a 1B68     		ldr	r3, [r3]
 489 001c 9A42     		cmp	r2, r3
 490 001e 01D0     		beq	.L39
 491 0020 FFF7FEFF 		bl	__stack_chk_fail
 492              	.L39:
 493 0024 05B0     		add	sp, sp, #20
 494              		.cfi_def_cfa_offset 4
 495              		@ sp needed
 496 0026 5DF804FB 		ldr	pc, [sp], #4
 497              	.L41:
 498 002a 00BF     		.align	2
 499              	.L40:
 500 002c 00000000 		.word	__stack_chk_guard
 501 0030 00000000 		.word	ch
 502              		.cfi_endproc
 503              	.LFE176:
 504              		.size	chRegSetThreadName, .-chRegSetThreadName
 505              		.section	.bss.imu_values,"aw",%nobits
 506              		.align	2
 507              		.type	imu_values, %object
 508              		.size	imu_values, 80
 509              	imu_values:
 510 0000 00000000 		.space	80
 510      00000000 
 510      00000000 
 510      00000000 
ARM GAS  C:\Users\Moi\AppData\Local\Temp\ccDxq0iY.s 			page 10


 510      00000000 
 511              		.section	.bss.accAxisFilteringInProgress,"aw",%nobits
 512              		.type	accAxisFilteringInProgress, %object
 513              		.size	accAxisFilteringInProgress, 1
 514              	accAxisFilteringInProgress:
 515 0000 00       		.space	1
 516              		.section	.bss.accAxisFilteringState,"aw",%nobits
 517              		.type	accAxisFilteringState, %object
 518              		.size	accAxisFilteringState, 1
 519              	accAxisFilteringState:
 520 0000 00       		.space	1
 521              		.section	.bss.accAxisSelected,"aw",%nobits
 522              		.type	accAxisSelected, %object
 523              		.size	accAxisSelected, 1
 524              	accAxisSelected:
 525 0000 00       		.space	1
 526              		.section	.bss.accFilterSize,"aw",%nobits
 527              		.type	accFilterSize, %object
 528              		.size	accFilterSize, 1
 529              	accFilterSize:
 530 0000 00       		.space	1
 531              		.section	.bss.accCalibrationInProgress,"aw",%nobits
 532              		.type	accCalibrationInProgress, %object
 533              		.size	accCalibrationInProgress, 1
 534              	accCalibrationInProgress:
 535 0000 00       		.space	1
 536              		.section	.bss.gyroAxisFilteringInProgress,"aw",%nobits
 537              		.type	gyroAxisFilteringInProgress, %object
 538              		.size	gyroAxisFilteringInProgress, 1
 539              	gyroAxisFilteringInProgress:
 540 0000 00       		.space	1
 541              		.section	.bss.gyroAxisFilteringState,"aw",%nobits
 542              		.type	gyroAxisFilteringState, %object
 543              		.size	gyroAxisFilteringState, 1
 544              	gyroAxisFilteringState:
 545 0000 00       		.space	1
 546              		.section	.bss.gyroAxisSelected,"aw",%nobits
 547              		.type	gyroAxisSelected, %object
 548              		.size	gyroAxisSelected, 1
 549              	gyroAxisSelected:
 550 0000 00       		.space	1
 551              		.section	.bss.gyroFilterSize,"aw",%nobits
 552              		.type	gyroFilterSize, %object
 553              		.size	gyroFilterSize, 1
 554              	gyroFilterSize:
 555 0000 00       		.space	1
 556              		.section	.bss.gyroCalibrationInProgress,"aw",%nobits
 557              		.type	gyroCalibrationInProgress, %object
 558              		.size	gyroCalibrationInProgress, 1
 559              	gyroCalibrationInProgress:
 560 0000 00       		.space	1
 561              		.section	.bss.imuThd,"aw",%nobits
 562              		.align	2
 563              		.type	imuThd, %object
 564              		.size	imuThd, 4
 565              	imuThd:
 566 0000 00000000 		.space	4
ARM GAS  C:\Users\Moi\AppData\Local\Temp\ccDxq0iY.s 			page 11


 567              		.section	.bss.imu_configured,"aw",%nobits
 568              		.type	imu_configured, %object
 569              		.size	imu_configured, 1
 570              	imu_configured:
 571 0000 00       		.space	1
 572              		.section	.bss.imu_reader_thd_wa,"aw",%nobits
 573              		.align	3
 574              		.type	imu_reader_thd_wa, %object
 575              		.size	imu_reader_thd_wa, 888
 576              	imu_reader_thd_wa:
 577 0000 00000000 		.space	888
 577      00000000 
 577      00000000 
 577      00000000 
 577      00000000 
 578              		.section	.rodata
 579              		.align	2
 580              	.LC0:
 581 0000 2F696D75 		.ascii	"/imu\000"
 581      00
 582              		.section	.text.imu_reader_thd,"ax",%progbits
 583              		.align	1
 584              		.p2align 4,,15
 585              		.syntax unified
 586              		.thumb
 587              		.thumb_func
 588              		.fpu fpv4-sp-d16
 589              		.type	imu_reader_thd, %function
 590              	imu_reader_thd:
 591              	.LFB257:
 592              		.file 7 "..//src/sensors/imu.c"
 593              		.loc 7 33 0
 594              		.cfi_startproc
 595              		@ args = 0, pretend = 0, frame = 168
 596              		@ frame_needed = 0, uses_anonymous_args = 0
 597 0000 00B5     		push	{lr}
 598              		.cfi_def_cfa_offset 4
 599              		.cfi_offset 14, -4
 600 0002 B1B0     		sub	sp, sp, #196
 601              		.cfi_def_cfa_offset 200
 602 0004 0790     		str	r0, [sp, #28]
 603              		.loc 7 33 0
 604 0006 934B     		ldr	r3, .L57
 605 0008 1B68     		ldr	r3, [r3]
 606 000a 2F93     		str	r3, [sp, #188]
 607              		.loc 7 35 0
 608 000c 9248     		ldr	r0, .L57+4
 609 000e FFF7FEFF 		bl	chRegSetThreadName
 610              		.loc 7 40 0
 611 0012 0EA9     		add	r1, sp, #56
 612 0014 0123     		movs	r3, #1
 613 0016 0122     		movs	r2, #1
 614 0018 9048     		ldr	r0, .L57+8
 615 001a FFF7FEFF 		bl	chEvtRegisterMaskWithFlags
 616              		.loc 7 46 0
 617 001e 13AB     		add	r3, sp, #76
 618 0020 1393     		str	r3, [sp, #76]
ARM GAS  C:\Users\Moi\AppData\Local\Temp\ccDxq0iY.s 			page 12


 619 0022 13AB     		add	r3, sp, #76
 620 0024 1493     		str	r3, [sp, #80]
 621 0026 0023     		movs	r3, #0
 622 0028 1593     		str	r3, [sp, #84]
 623 002a 0023     		movs	r3, #0
 624 002c 1693     		str	r3, [sp, #88]
 625 002e 0023     		movs	r3, #0
 626 0030 1793     		str	r3, [sp, #92]
 627              		.loc 7 47 0
 628 0032 0CAB     		add	r3, sp, #48
 629 0034 0C93     		str	r3, [sp, #48]
 630 0036 0CAB     		add	r3, sp, #48
 631 0038 0D93     		str	r3, [sp, #52]
 632              		.loc 7 48 0
 633 003a 0CAA     		add	r2, sp, #48
 634 003c 13A9     		add	r1, sp, #76
 635 003e 18A8     		add	r0, sp, #96
 636 0040 5023     		movs	r3, #80
 637 0042 0093     		str	r3, [sp]
 638 0044 864B     		ldr	r3, .L57+12
 639 0046 FFF7FEFF 		bl	messagebus_topic_init
 640              		.loc 7 49 0
 641 004a 18AB     		add	r3, sp, #96
 642 004c 854A     		ldr	r2, .L57+16
 643 004e 1946     		mov	r1, r3
 644 0050 8548     		ldr	r0, .L57+20
 645 0052 FFF7FEFF 		bl	messagebus_advertise_topic
 646              		.loc 7 51 0
 647 0056 0023     		movs	r3, #0
 648 0058 8DF82230 		strb	r3, [sp, #34]
 649              		.loc 7 52 0
 650 005c 0023     		movs	r3, #0
 651 005e 0993     		str	r3, [sp, #36]
 652              		.loc 7 53 0
 653 0060 0023     		movs	r3, #0
 654 0062 8DF82330 		strb	r3, [sp, #35]
 655              		.loc 7 54 0
 656 0066 0023     		movs	r3, #0
 657 0068 0A93     		str	r3, [sp, #40]
 658              		.loc 7 57 0
 659 006a DEE0     		b	.L43
 660              	.L53:
 661              		.loc 7 58 0
 662 006c FFF7FEFF 		bl	chVTGetSystemTime
 663 0070 0B90     		str	r0, [sp, #44]
 664              		.loc 7 65 0
 665 0072 7E4B     		ldr	r3, .L57+24
 666 0074 1B78     		ldrb	r3, [r3]	@ zero_extendqisi2
 667 0076 002B     		cmp	r3, #0
 668 0078 0FD0     		beq	.L44
 669              		.loc 7 67 0
 670 007a 7D4B     		ldr	r3, .L57+28
 671 007c 0493     		str	r3, [sp, #16]
 672 007e 7D4B     		ldr	r3, .L57+32
 673 0080 0393     		str	r3, [sp, #12]
 674 0082 7D4B     		ldr	r3, .L57+36
 675 0084 0293     		str	r3, [sp, #8]
ARM GAS  C:\Users\Moi\AppData\Local\Temp\ccDxq0iY.s 			page 13


 676 0086 7D4B     		ldr	r3, .L57+40
 677 0088 0193     		str	r3, [sp, #4]
 678 008a 7D4B     		ldr	r3, .L57+44
 679 008c 0093     		str	r3, [sp]
 680 008e 7D4B     		ldr	r3, .L57+48
 681 0090 7D4A     		ldr	r2, .L57+52
 682 0092 7349     		ldr	r1, .L57+12
 683 0094 7D48     		ldr	r0, .L57+56
 684 0096 FFF7FEFF 		bl	mpu9250_read
 685              	.L44:
 686              		.loc 7 74 0
 687 009a 18AB     		add	r3, sp, #96
 688 009c 5022     		movs	r2, #80
 689 009e 7049     		ldr	r1, .L57+12
 690 00a0 1846     		mov	r0, r3
 691 00a2 FFF7FEFF 		bl	messagebus_topic_publish
 692              		.loc 7 76 0
 693 00a6 7A4B     		ldr	r3, .L57+60
 694 00a8 1B78     		ldrb	r3, [r3]	@ zero_extendqisi2
 695 00aa 002B     		cmp	r3, #0
 696 00ac 56D0     		beq	.L45
 697              		.loc 7 77 0
 698 00ae 794B     		ldr	r3, .L57+64
 699 00b0 1B78     		ldrb	r3, [r3]	@ zero_extendqisi2
 700 00b2 002B     		cmp	r3, #0
 701 00b4 02D0     		beq	.L46
 702 00b6 012B     		cmp	r3, #1
 703 00b8 11D0     		beq	.L47
 704 00ba 4FE0     		b	.L45
 705              	.L46:
 706              		.loc 7 79 0
 707 00bc 764B     		ldr	r3, .L57+68
 708 00be 1B78     		ldrb	r3, [r3]	@ zero_extendqisi2
 709 00c0 674A     		ldr	r2, .L57+12
 710 00c2 1833     		adds	r3, r3, #24
 711 00c4 5B00     		lsls	r3, r3, #1
 712 00c6 1344     		add	r3, r3, r2
 713 00c8 0022     		movs	r2, #0
 714 00ca 9A80     		strh	r2, [r3, #4]	@ movhi
 715              		.loc 7 80 0
 716 00cc 0023     		movs	r3, #0
 717 00ce 0993     		str	r3, [sp, #36]
 718              		.loc 7 81 0
 719 00d0 0023     		movs	r3, #0
 720 00d2 8DF82230 		strb	r3, [sp, #34]
 721              		.loc 7 82 0
 722 00d6 6F4B     		ldr	r3, .L57+64
 723 00d8 0122     		movs	r2, #1
 724 00da 1A70     		strb	r2, [r3]
 725              		.loc 7 83 0
 726 00dc 3EE0     		b	.L45
 727              	.L47:
 728              		.loc 7 86 0
 729 00de 6E4B     		ldr	r3, .L57+68
 730 00e0 1B78     		ldrb	r3, [r3]	@ zero_extendqisi2
 731 00e2 5F4A     		ldr	r2, .L57+12
 732 00e4 1433     		adds	r3, r3, #20
ARM GAS  C:\Users\Moi\AppData\Local\Temp\ccDxq0iY.s 			page 14


 733 00e6 32F91330 		ldrsh	r3, [r2, r3, lsl #1]
 734 00ea 1A46     		mov	r2, r3
 735 00ec 099B     		ldr	r3, [sp, #36]
 736 00ee 1344     		add	r3, r3, r2
 737 00f0 0993     		str	r3, [sp, #36]
 738              		.loc 7 87 0
 739 00f2 9DF82230 		ldrb	r3, [sp, #34]	@ zero_extendqisi2
 740 00f6 0133     		adds	r3, r3, #1
 741 00f8 8DF82230 		strb	r3, [sp, #34]
 742              		.loc 7 88 0
 743 00fc 674B     		ldr	r3, .L57+72
 744 00fe 1B78     		ldrb	r3, [r3]	@ zero_extendqisi2
 745 0100 9DF82220 		ldrb	r2, [sp, #34]	@ zero_extendqisi2
 746 0104 9A42     		cmp	r2, r3
 747 0106 28D1     		bne	.L55
 748              		.loc 7 89 0
 749 0108 644B     		ldr	r3, .L57+72
 750 010a 1B78     		ldrb	r3, [r3]	@ zero_extendqisi2
 751 010c 1A46     		mov	r2, r3
 752 010e 099B     		ldr	r3, [sp, #36]
 753 0110 93FBF2F2 		sdiv	r2, r3, r2
 754 0114 604B     		ldr	r3, .L57+68
 755 0116 1B78     		ldrb	r3, [r3]	@ zero_extendqisi2
 756 0118 11B2     		sxth	r1, r2
 757 011a 514A     		ldr	r2, .L57+12
 758 011c 2033     		adds	r3, r3, #32
 759 011e 22F81310 		strh	r1, [r2, r3, lsl #1]	@ movhi
 760              		.loc 7 90 0
 761 0122 5B4B     		ldr	r3, .L57+60
 762 0124 0022     		movs	r2, #0
 763 0126 1A70     		strb	r2, [r3]
 764              		.loc 7 91 0
 765 0128 5D4B     		ldr	r3, .L57+76
 766 012a 1B78     		ldrb	r3, [r3]	@ zero_extendqisi2
 767 012c 012B     		cmp	r3, #1
 768 012e 14D1     		bne	.L55
 769              		.loc 7 92 0
 770 0130 594B     		ldr	r3, .L57+68
 771 0132 1B78     		ldrb	r3, [r3]	@ zero_extendqisi2
 772 0134 1946     		mov	r1, r3
 773 0136 584B     		ldr	r3, .L57+68
 774 0138 1B78     		ldrb	r3, [r3]	@ zero_extendqisi2
 775 013a 1846     		mov	r0, r3
 776 013c 484A     		ldr	r2, .L57+12
 777 013e 01F12003 		add	r3, r1, #32
 778 0142 32F91310 		ldrsh	r1, [r2, r3, lsl #1]
 779 0146 464A     		ldr	r2, .L57+12
 780 0148 00F11803 		add	r3, r0, #24
 781 014c 5B00     		lsls	r3, r3, #1
 782 014e 1344     		add	r3, r3, r2
 783 0150 0A46     		mov	r2, r1	@ movhi
 784 0152 9A80     		strh	r2, [r3, #4]	@ movhi
 785              		.loc 7 93 0
 786 0154 524B     		ldr	r3, .L57+76
 787 0156 0022     		movs	r2, #0
 788 0158 1A70     		strb	r2, [r3]
 789              	.L55:
ARM GAS  C:\Users\Moi\AppData\Local\Temp\ccDxq0iY.s 			page 15


 790              		.loc 7 96 0
 791 015a 00BF     		nop
 792              	.L45:
 793              		.loc 7 100 0
 794 015c 514B     		ldr	r3, .L57+80
 795 015e 1B78     		ldrb	r3, [r3]	@ zero_extendqisi2
 796 0160 002B     		cmp	r3, #0
 797 0162 5CD0     		beq	.L49
 798              		.loc 7 101 0
 799 0164 504B     		ldr	r3, .L57+84
 800 0166 1B78     		ldrb	r3, [r3]	@ zero_extendqisi2
 801 0168 002B     		cmp	r3, #0
 802 016a 02D0     		beq	.L50
 803 016c 012B     		cmp	r3, #1
 804 016e 11D0     		beq	.L51
 805 0170 55E0     		b	.L49
 806              	.L50:
 807              		.loc 7 103 0
 808 0172 4E4B     		ldr	r3, .L57+88
 809 0174 1B78     		ldrb	r3, [r3]	@ zero_extendqisi2
 810 0176 3A4A     		ldr	r2, .L57+12
 811 0178 1C33     		adds	r3, r3, #28
 812 017a 5B00     		lsls	r3, r3, #1
 813 017c 1344     		add	r3, r3, r2
 814 017e 0022     		movs	r2, #0
 815 0180 5A80     		strh	r2, [r3, #2]	@ movhi
 816              		.loc 7 104 0
 817 0182 0023     		movs	r3, #0
 818 0184 0A93     		str	r3, [sp, #40]
 819              		.loc 7 105 0
 820 0186 0023     		movs	r3, #0
 821 0188 8DF82330 		strb	r3, [sp, #35]
 822              		.loc 7 106 0
 823 018c 464B     		ldr	r3, .L57+84
 824 018e 0122     		movs	r2, #1
 825 0190 1A70     		strb	r2, [r3]
 826              		.loc 7 107 0
 827 0192 44E0     		b	.L49
 828              	.L51:
 829              		.loc 7 110 0
 830 0194 454B     		ldr	r3, .L57+88
 831 0196 1B78     		ldrb	r3, [r3]	@ zero_extendqisi2
 832 0198 314A     		ldr	r2, .L57+12
 833 019a 1433     		adds	r3, r3, #20
 834 019c 5B00     		lsls	r3, r3, #1
 835 019e 1344     		add	r3, r3, r2
 836 01a0 B3F90630 		ldrsh	r3, [r3, #6]
 837 01a4 1A46     		mov	r2, r3
 838 01a6 0A9B     		ldr	r3, [sp, #40]
 839 01a8 1344     		add	r3, r3, r2
 840 01aa 0A93     		str	r3, [sp, #40]
 841              		.loc 7 111 0
 842 01ac 9DF82330 		ldrb	r3, [sp, #35]	@ zero_extendqisi2
 843 01b0 0133     		adds	r3, r3, #1
 844 01b2 8DF82330 		strb	r3, [sp, #35]
 845              		.loc 7 112 0
 846 01b6 3E4B     		ldr	r3, .L57+92
ARM GAS  C:\Users\Moi\AppData\Local\Temp\ccDxq0iY.s 			page 16


 847 01b8 1B78     		ldrb	r3, [r3]	@ zero_extendqisi2
 848 01ba 9DF82320 		ldrb	r2, [sp, #35]	@ zero_extendqisi2
 849 01be 9A42     		cmp	r2, r3
 850 01c0 2CD1     		bne	.L56
 851              		.loc 7 113 0
 852 01c2 3B4B     		ldr	r3, .L57+92
 853 01c4 1B78     		ldrb	r3, [r3]	@ zero_extendqisi2
 854 01c6 1A46     		mov	r2, r3
 855 01c8 0A9B     		ldr	r3, [sp, #40]
 856 01ca 93FBF2F2 		sdiv	r2, r3, r2
 857 01ce 374B     		ldr	r3, .L57+88
 858 01d0 1B78     		ldrb	r3, [r3]	@ zero_extendqisi2
 859 01d2 11B2     		sxth	r1, r2
 860 01d4 224A     		ldr	r2, .L57+12
 861 01d6 2033     		adds	r3, r3, #32
 862 01d8 5B00     		lsls	r3, r3, #1
 863 01da 1344     		add	r3, r3, r2
 864 01dc 0A46     		mov	r2, r1	@ movhi
 865 01de DA80     		strh	r2, [r3, #6]	@ movhi
 866              		.loc 7 114 0
 867 01e0 304B     		ldr	r3, .L57+80
 868 01e2 0022     		movs	r2, #0
 869 01e4 1A70     		strb	r2, [r3]
 870              		.loc 7 115 0
 871 01e6 334B     		ldr	r3, .L57+96
 872 01e8 1B78     		ldrb	r3, [r3]	@ zero_extendqisi2
 873 01ea 012B     		cmp	r3, #1
 874 01ec 16D1     		bne	.L56
 875              		.loc 7 116 0
 876 01ee 2F4B     		ldr	r3, .L57+88
 877 01f0 1B78     		ldrb	r3, [r3]	@ zero_extendqisi2
 878 01f2 1946     		mov	r1, r3
 879 01f4 2D4B     		ldr	r3, .L57+88
 880 01f6 1B78     		ldrb	r3, [r3]	@ zero_extendqisi2
 881 01f8 1846     		mov	r0, r3
 882 01fa 194A     		ldr	r2, .L57+12
 883 01fc 01F12003 		add	r3, r1, #32
 884 0200 5B00     		lsls	r3, r3, #1
 885 0202 1344     		add	r3, r3, r2
 886 0204 B3F90610 		ldrsh	r1, [r3, #6]
 887 0208 154A     		ldr	r2, .L57+12
 888 020a 00F11C03 		add	r3, r0, #28
 889 020e 5B00     		lsls	r3, r3, #1
 890 0210 1344     		add	r3, r3, r2
 891 0212 0A46     		mov	r2, r1	@ movhi
 892 0214 5A80     		strh	r2, [r3, #2]	@ movhi
 893              		.loc 7 117 0
 894 0216 274B     		ldr	r3, .L57+96
 895 0218 0022     		movs	r2, #0
 896 021a 1A70     		strb	r2, [r3]
 897              	.L56:
 898              		.loc 7 120 0
 899 021c 00BF     		nop
 900              	.L49:
 901              		.loc 7 124 0
 902 021e 0B9B     		ldr	r3, [sp, #44]
 903 0220 0433     		adds	r3, r3, #4
ARM GAS  C:\Users\Moi\AppData\Local\Temp\ccDxq0iY.s 			page 17


 904 0222 1946     		mov	r1, r3
 905 0224 0B98     		ldr	r0, [sp, #44]
 906 0226 FFF7FEFF 		bl	chThdSleepUntilWindowed
 907              	.L43:
 908              		.loc 7 57 0
 909 022a FFF7FEFF 		bl	chThdShouldTerminateX
 910 022e 0346     		mov	r3, r0
 911 0230 83F00103 		eor	r3, r3, #1
 912 0234 DBB2     		uxtb	r3, r3
 913 0236 002B     		cmp	r3, #0
 914 0238 7FF418AF 		bne	.L53
 915              		.loc 7 127 0
 916 023c 00BF     		nop
 917 023e 054B     		ldr	r3, .L57
 918 0240 2F9A     		ldr	r2, [sp, #188]
 919 0242 1B68     		ldr	r3, [r3]
 920 0244 9A42     		cmp	r2, r3
 921 0246 01D0     		beq	.L54
 922 0248 FFF7FEFF 		bl	__stack_chk_fail
 923              	.L54:
 924 024c 31B0     		add	sp, sp, #196
 925              		.cfi_def_cfa_offset 4
 926              		@ sp needed
 927 024e 5DF804FB 		ldr	pc, [sp], #4
 928              	.L58:
 929 0252 00BF     		.align	2
 930              	.L57:
 931 0254 00000000 		.word	__stack_chk_guard
 932 0258 00000000 		.word	__FUNCTION__.11265
 933 025c 00000000 		.word	exti_events
 934 0260 00000000 		.word	imu_values
 935 0264 00000000 		.word	.LC0
 936 0268 00000000 		.word	bus
 937 026c 00000000 		.word	imu_configured
 938 0270 4C000000 		.word	imu_values+76
 939 0274 34000000 		.word	imu_values+52
 940 0278 3A000000 		.word	imu_values+58
 941 027c 28000000 		.word	imu_values+40
 942 0280 2E000000 		.word	imu_values+46
 943 0284 1C000000 		.word	imu_values+28
 944 0288 18000000 		.word	imu_values+24
 945 028c 0C000000 		.word	imu_values+12
 946 0290 00000000 		.word	accAxisFilteringInProgress
 947 0294 00000000 		.word	accAxisFilteringState
 948 0298 00000000 		.word	accAxisSelected
 949 029c 00000000 		.word	accFilterSize
 950 02a0 00000000 		.word	accCalibrationInProgress
 951 02a4 00000000 		.word	gyroAxisFilteringInProgress
 952 02a8 00000000 		.word	gyroAxisFilteringState
 953 02ac 00000000 		.word	gyroAxisSelected
 954 02b0 00000000 		.word	gyroFilterSize
 955 02b4 00000000 		.word	gyroCalibrationInProgress
 956              		.cfi_endproc
 957              	.LFE257:
 958              		.size	imu_reader_thd, .-imu_reader_thd
 959              		.section	.text.imu_start,"ax",%progbits
 960              		.align	1
ARM GAS  C:\Users\Moi\AppData\Local\Temp\ccDxq0iY.s 			page 18


 961              		.p2align 4,,15
 962              		.global	imu_start
 963              		.syntax unified
 964              		.thumb
 965              		.thumb_func
 966              		.fpu fpv4-sp-d16
 967              		.type	imu_start, %function
 968              	imu_start:
 969              	.LFB258:
 970              		.loc 7 135 0
 971              		.cfi_startproc
 972              		@ args = 0, pretend = 0, frame = 8
 973              		@ frame_needed = 0, uses_anonymous_args = 0
 974 0000 00B5     		push	{lr}
 975              		.cfi_def_cfa_offset 4
 976              		.cfi_offset 14, -4
 977 0002 85B0     		sub	sp, sp, #20
 978              		.cfi_def_cfa_offset 24
 979              		.loc 7 135 0
 980 0004 184B     		ldr	r3, .L65
 981 0006 1B68     		ldr	r3, [r3]
 982 0008 0393     		str	r3, [sp, #12]
 983              		.loc 7 136 0
 984 000a 0023     		movs	r3, #0
 985 000c 8DF80B30 		strb	r3, [sp, #11]
 986              		.loc 7 138 0
 987 0010 164B     		ldr	r3, .L65+4
 988 0012 1B78     		ldrb	r3, [r3]	@ zero_extendqisi2
 989 0014 002B     		cmp	r3, #0
 990 0016 1CD1     		bne	.L64
 991              		.loc 7 142 0
 992 0018 FFF7FEFF 		bl	i2c_start
 993              		.loc 7 144 0
 994 001c 4FF4C840 		mov	r0, #25600
 995 0020 FFF7FEFF 		bl	mpu9250_setup
 996 0024 0346     		mov	r3, r0
 997 0026 8DF80B30 		strb	r3, [sp, #11]
 998              		.loc 7 155 0
 999 002a 9DF90B30 		ldrsb	r3, [sp, #11]
 1000 002e 002B     		cmp	r3, #0
 1001 0030 02D1     		bne	.L62
 1002              		.loc 7 156 0
 1003 0032 0E4B     		ldr	r3, .L65+4
 1004 0034 0122     		movs	r2, #1
 1005 0036 1A70     		strb	r2, [r3]
 1006              	.L62:
 1007              		.loc 7 159 0
 1008 0038 0023     		movs	r3, #0
 1009 003a 0093     		str	r3, [sp]
 1010 003c 0C4B     		ldr	r3, .L65+8
 1011 003e 4022     		movs	r2, #64
 1012 0040 4FF45E71 		mov	r1, #888
 1013 0044 0B48     		ldr	r0, .L65+12
 1014 0046 FFF7FEFF 		bl	chThdCreateStatic
 1015 004a 0246     		mov	r2, r0
 1016 004c 0A4B     		ldr	r3, .L65+16
 1017 004e 1A60     		str	r2, [r3]
ARM GAS  C:\Users\Moi\AppData\Local\Temp\ccDxq0iY.s 			page 19


 1018 0050 00E0     		b	.L59
 1019              	.L64:
 1020              		.loc 7 139 0
 1021 0052 00BF     		nop
 1022              	.L59:
 1023              		.loc 7 160 0
 1024 0054 044B     		ldr	r3, .L65
 1025 0056 039A     		ldr	r2, [sp, #12]
 1026 0058 1B68     		ldr	r3, [r3]
 1027 005a 9A42     		cmp	r2, r3
 1028 005c 01D0     		beq	.L63
 1029 005e FFF7FEFF 		bl	__stack_chk_fail
 1030              	.L63:
 1031 0062 05B0     		add	sp, sp, #20
 1032              		.cfi_def_cfa_offset 4
 1033              		@ sp needed
 1034 0064 5DF804FB 		ldr	pc, [sp], #4
 1035              	.L66:
 1036              		.align	2
 1037              	.L65:
 1038 0068 00000000 		.word	__stack_chk_guard
 1039 006c 00000000 		.word	imu_configured
 1040 0070 00000000 		.word	imu_reader_thd
 1041 0074 00000000 		.word	imu_reader_thd_wa
 1042 0078 00000000 		.word	imuThd
 1043              		.cfi_endproc
 1044              	.LFE258:
 1045              		.size	imu_start, .-imu_start
 1046              		.section	.text.imu_stop,"ax",%progbits
 1047              		.align	1
 1048              		.p2align 4,,15
 1049              		.global	imu_stop
 1050              		.syntax unified
 1051              		.thumb
 1052              		.thumb_func
 1053              		.fpu fpv4-sp-d16
 1054              		.type	imu_stop, %function
 1055              	imu_stop:
 1056              	.LFB259:
 1057              		.loc 7 162 0
 1058              		.cfi_startproc
 1059              		@ args = 0, pretend = 0, frame = 8
 1060              		@ frame_needed = 0, uses_anonymous_args = 0
 1061 0000 00B5     		push	{lr}
 1062              		.cfi_def_cfa_offset 4
 1063              		.cfi_offset 14, -4
 1064 0002 83B0     		sub	sp, sp, #12
 1065              		.cfi_def_cfa_offset 16
 1066              		.loc 7 162 0
 1067 0004 0E4B     		ldr	r3, .L69
 1068 0006 1B68     		ldr	r3, [r3]
 1069 0008 0193     		str	r3, [sp, #4]
 1070              		.loc 7 163 0
 1071 000a 0E4B     		ldr	r3, .L69+4
 1072 000c 1B68     		ldr	r3, [r3]
 1073 000e 1846     		mov	r0, r3
 1074 0010 FFF7FEFF 		bl	chThdTerminate
ARM GAS  C:\Users\Moi\AppData\Local\Temp\ccDxq0iY.s 			page 20


 1075              		.loc 7 164 0
 1076 0014 0B4B     		ldr	r3, .L69+4
 1077 0016 1B68     		ldr	r3, [r3]
 1078 0018 1846     		mov	r0, r3
 1079 001a FFF7FEFF 		bl	chThdWait
 1080              		.loc 7 165 0
 1081 001e 094B     		ldr	r3, .L69+4
 1082 0020 0022     		movs	r2, #0
 1083 0022 1A60     		str	r2, [r3]
 1084              		.loc 7 166 0
 1085 0024 084B     		ldr	r3, .L69+8
 1086 0026 0022     		movs	r2, #0
 1087 0028 1A70     		strb	r2, [r3]
 1088              		.loc 7 167 0
 1089 002a 00BF     		nop
 1090 002c 044B     		ldr	r3, .L69
 1091 002e 019A     		ldr	r2, [sp, #4]
 1092 0030 1B68     		ldr	r3, [r3]
 1093 0032 9A42     		cmp	r2, r3
 1094 0034 01D0     		beq	.L68
 1095 0036 FFF7FEFF 		bl	__stack_chk_fail
 1096              	.L68:
 1097 003a 03B0     		add	sp, sp, #12
 1098              		.cfi_def_cfa_offset 4
 1099              		@ sp needed
 1100 003c 5DF804FB 		ldr	pc, [sp], #4
 1101              	.L70:
 1102              		.align	2
 1103              	.L69:
 1104 0040 00000000 		.word	__stack_chk_guard
 1105 0044 00000000 		.word	imuThd
 1106 0048 00000000 		.word	imu_configured
 1107              		.cfi_endproc
 1108              	.LFE259:
 1109              		.size	imu_stop, .-imu_stop
 1110              		.section	.text.get_acc,"ax",%progbits
 1111              		.align	1
 1112              		.p2align 4,,15
 1113              		.global	get_acc
 1114              		.syntax unified
 1115              		.thumb
 1116              		.thumb_func
 1117              		.fpu fpv4-sp-d16
 1118              		.type	get_acc, %function
 1119              	get_acc:
 1120              	.LFB260:
 1121              		.loc 7 170 0
 1122              		.cfi_startproc
 1123              		@ args = 0, pretend = 0, frame = 16
 1124              		@ frame_needed = 0, uses_anonymous_args = 0
 1125 0000 00B5     		push	{lr}
 1126              		.cfi_def_cfa_offset 4
 1127              		.cfi_offset 14, -4
 1128 0002 85B0     		sub	sp, sp, #20
 1129              		.cfi_def_cfa_offset 24
 1130 0004 0346     		mov	r3, r0
 1131 0006 8DF80730 		strb	r3, [sp, #7]
ARM GAS  C:\Users\Moi\AppData\Local\Temp\ccDxq0iY.s 			page 21


 1132              		.loc 7 170 0
 1133 000a 0D4B     		ldr	r3, .L75
 1134 000c 1B68     		ldr	r3, [r3]
 1135 000e 0393     		str	r3, [sp, #12]
 1136              		.loc 7 171 0
 1137 0010 9DF80730 		ldrb	r3, [sp, #7]	@ zero_extendqisi2
 1138 0014 022B     		cmp	r3, #2
 1139 0016 06D8     		bhi	.L72
 1140              		.loc 7 172 0
 1141 0018 9DF80730 		ldrb	r3, [sp, #7]	@ zero_extendqisi2
 1142 001c 094A     		ldr	r2, .L75+4
 1143 001e 1433     		adds	r3, r3, #20
 1144 0020 32F91330 		ldrsh	r3, [r2, r3, lsl #1]
 1145 0024 00E0     		b	.L73
 1146              	.L72:
 1147              		.loc 7 174 0
 1148 0026 0023     		movs	r3, #0
 1149              	.L73:
 1150              		.loc 7 175 0
 1151 0028 1846     		mov	r0, r3
 1152 002a 054B     		ldr	r3, .L75
 1153 002c 039A     		ldr	r2, [sp, #12]
 1154 002e 1B68     		ldr	r3, [r3]
 1155 0030 9A42     		cmp	r2, r3
 1156 0032 01D0     		beq	.L74
 1157 0034 FFF7FEFF 		bl	__stack_chk_fail
 1158              	.L74:
 1159 0038 05B0     		add	sp, sp, #20
 1160              		.cfi_def_cfa_offset 4
 1161              		@ sp needed
 1162 003a 5DF804FB 		ldr	pc, [sp], #4
 1163              	.L76:
 1164 003e 00BF     		.align	2
 1165              	.L75:
 1166 0040 00000000 		.word	__stack_chk_guard
 1167 0044 00000000 		.word	imu_values
 1168              		.cfi_endproc
 1169              	.LFE260:
 1170              		.size	get_acc, .-get_acc
 1171              		.section	.text.get_acc_all,"ax",%progbits
 1172              		.align	1
 1173              		.p2align 4,,15
 1174              		.global	get_acc_all
 1175              		.syntax unified
 1176              		.thumb
 1177              		.thumb_func
 1178              		.fpu fpv4-sp-d16
 1179              		.type	get_acc_all, %function
 1180              	get_acc_all:
 1181              	.LFB261:
 1182              		.loc 7 177 0
 1183              		.cfi_startproc
 1184              		@ args = 0, pretend = 0, frame = 16
 1185              		@ frame_needed = 0, uses_anonymous_args = 0
 1186 0000 00B5     		push	{lr}
 1187              		.cfi_def_cfa_offset 4
 1188              		.cfi_offset 14, -4
ARM GAS  C:\Users\Moi\AppData\Local\Temp\ccDxq0iY.s 			page 22


 1189 0002 85B0     		sub	sp, sp, #20
 1190              		.cfi_def_cfa_offset 24
 1191 0004 0190     		str	r0, [sp, #4]
 1192              		.loc 7 177 0
 1193 0006 0F4B     		ldr	r3, .L79
 1194 0008 1B68     		ldr	r3, [r3]
 1195 000a 0393     		str	r3, [sp, #12]
 1196              		.loc 7 178 0
 1197 000c 0E4B     		ldr	r3, .L79+4
 1198 000e B3F92820 		ldrsh	r2, [r3, #40]
 1199 0012 019B     		ldr	r3, [sp, #4]
 1200 0014 1A80     		strh	r2, [r3]	@ movhi
 1201              		.loc 7 179 0
 1202 0016 019B     		ldr	r3, [sp, #4]
 1203 0018 0233     		adds	r3, r3, #2
 1204 001a 0B4A     		ldr	r2, .L79+4
 1205 001c B2F92A20 		ldrsh	r2, [r2, #42]
 1206 0020 1A80     		strh	r2, [r3]	@ movhi
 1207              		.loc 7 180 0
 1208 0022 019B     		ldr	r3, [sp, #4]
 1209 0024 0433     		adds	r3, r3, #4
 1210 0026 084A     		ldr	r2, .L79+4
 1211 0028 B2F92C20 		ldrsh	r2, [r2, #44]
 1212 002c 1A80     		strh	r2, [r3]	@ movhi
 1213              		.loc 7 181 0
 1214 002e 00BF     		nop
 1215 0030 044B     		ldr	r3, .L79
 1216 0032 039A     		ldr	r2, [sp, #12]
 1217 0034 1B68     		ldr	r3, [r3]
 1218 0036 9A42     		cmp	r2, r3
 1219 0038 01D0     		beq	.L78
 1220 003a FFF7FEFF 		bl	__stack_chk_fail
 1221              	.L78:
 1222 003e 05B0     		add	sp, sp, #20
 1223              		.cfi_def_cfa_offset 4
 1224              		@ sp needed
 1225 0040 5DF804FB 		ldr	pc, [sp], #4
 1226              	.L80:
 1227              		.align	2
 1228              	.L79:
 1229 0044 00000000 		.word	__stack_chk_guard
 1230 0048 00000000 		.word	imu_values
 1231              		.cfi_endproc
 1232              	.LFE261:
 1233              		.size	get_acc_all, .-get_acc_all
 1234              		.section	.text.get_acc_filtered,"ax",%progbits
 1235              		.align	1
 1236              		.p2align 4,,15
 1237              		.global	get_acc_filtered
 1238              		.syntax unified
 1239              		.thumb
 1240              		.thumb_func
 1241              		.fpu fpv4-sp-d16
 1242              		.type	get_acc_filtered, %function
 1243              	get_acc_filtered:
 1244              	.LFB262:
 1245              		.loc 7 184 0
ARM GAS  C:\Users\Moi\AppData\Local\Temp\ccDxq0iY.s 			page 23


 1246              		.cfi_startproc
 1247              		@ args = 0, pretend = 0, frame = 16
 1248              		@ frame_needed = 0, uses_anonymous_args = 0
 1249 0000 00B5     		push	{lr}
 1250              		.cfi_def_cfa_offset 4
 1251              		.cfi_offset 14, -4
 1252 0002 85B0     		sub	sp, sp, #20
 1253              		.cfi_def_cfa_offset 24
 1254 0004 0346     		mov	r3, r0
 1255 0006 0A46     		mov	r2, r1
 1256 0008 8DF80730 		strb	r3, [sp, #7]
 1257 000c 1346     		mov	r3, r2
 1258 000e 8DF80630 		strb	r3, [sp, #6]
 1259              		.loc 7 184 0
 1260 0012 1A4B     		ldr	r3, .L88
 1261 0014 1B68     		ldr	r3, [r3]
 1262 0016 0393     		str	r3, [sp, #12]
 1263              		.loc 7 185 0
 1264 0018 9DF80730 		ldrb	r3, [sp, #7]	@ zero_extendqisi2
 1265 001c 022B     		cmp	r3, #2
 1266 001e 20D8     		bhi	.L82
 1267              		.loc 7 186 0
 1268 0020 174B     		ldr	r3, .L88+4
 1269 0022 1B78     		ldrb	r3, [r3]	@ zero_extendqisi2
 1270 0024 002B     		cmp	r3, #0
 1271 0026 15D0     		beq	.L83
 1272              		.loc 7 187 0
 1273 0028 164B     		ldr	r3, .L88+8
 1274 002a 0022     		movs	r2, #0
 1275 002c 1A70     		strb	r2, [r3]
 1276              		.loc 7 188 0
 1277 002e 164B     		ldr	r3, .L88+12
 1278 0030 0122     		movs	r2, #1
 1279 0032 1A70     		strb	r2, [r3]
 1280              		.loc 7 189 0
 1281 0034 154A     		ldr	r2, .L88+16
 1282 0036 9DF80730 		ldrb	r3, [sp, #7]
 1283 003a 1370     		strb	r3, [r2]
 1284              		.loc 7 190 0
 1285 003c 144A     		ldr	r2, .L88+20
 1286 003e 9DF80630 		ldrb	r3, [sp, #6]
 1287 0042 1370     		strb	r3, [r2]
 1288              		.loc 7 191 0
 1289 0044 02E0     		b	.L84
 1290              	.L85:
 1291              		.loc 7 192 0
 1292 0046 1420     		movs	r0, #20
 1293 0048 FFF7FEFF 		bl	chThdSleep
 1294              	.L84:
 1295              		.loc 7 191 0
 1296 004c 0E4B     		ldr	r3, .L88+12
 1297 004e 1B78     		ldrb	r3, [r3]	@ zero_extendqisi2
 1298 0050 002B     		cmp	r3, #0
 1299 0052 F8D1     		bne	.L85
 1300              	.L83:
 1301              		.loc 7 195 0
 1302 0054 9DF80730 		ldrb	r3, [sp, #7]	@ zero_extendqisi2
ARM GAS  C:\Users\Moi\AppData\Local\Temp\ccDxq0iY.s 			page 24


 1303 0058 0E4A     		ldr	r2, .L88+24
 1304 005a 2033     		adds	r3, r3, #32
 1305 005c 32F91330 		ldrsh	r3, [r2, r3, lsl #1]
 1306 0060 00E0     		b	.L86
 1307              	.L82:
 1308              		.loc 7 197 0
 1309 0062 0023     		movs	r3, #0
 1310              	.L86:
 1311              		.loc 7 198 0
 1312 0064 1846     		mov	r0, r3
 1313 0066 054B     		ldr	r3, .L88
 1314 0068 039A     		ldr	r2, [sp, #12]
 1315 006a 1B68     		ldr	r3, [r3]
 1316 006c 9A42     		cmp	r2, r3
 1317 006e 01D0     		beq	.L87
 1318 0070 FFF7FEFF 		bl	__stack_chk_fail
 1319              	.L87:
 1320 0074 05B0     		add	sp, sp, #20
 1321              		.cfi_def_cfa_offset 4
 1322              		@ sp needed
 1323 0076 5DF804FB 		ldr	pc, [sp], #4
 1324              	.L89:
 1325 007a 00BF     		.align	2
 1326              	.L88:
 1327 007c 00000000 		.word	__stack_chk_guard
 1328 0080 00000000 		.word	imu_configured
 1329 0084 00000000 		.word	accAxisFilteringState
 1330 0088 00000000 		.word	accAxisFilteringInProgress
 1331 008c 00000000 		.word	accAxisSelected
 1332 0090 00000000 		.word	accFilterSize
 1333 0094 00000000 		.word	imu_values
 1334              		.cfi_endproc
 1335              	.LFE262:
 1336              		.size	get_acc_filtered, .-get_acc_filtered
 1337              		.section	.text.calibrate_acc,"ax",%progbits
 1338              		.align	1
 1339              		.p2align 4,,15
 1340              		.global	calibrate_acc
 1341              		.syntax unified
 1342              		.thumb
 1343              		.thumb_func
 1344              		.fpu fpv4-sp-d16
 1345              		.type	calibrate_acc, %function
 1346              	calibrate_acc:
 1347              	.LFB263:
 1348              		.loc 7 201 0
 1349              		.cfi_startproc
 1350              		@ args = 0, pretend = 0, frame = 8
 1351              		@ frame_needed = 0, uses_anonymous_args = 0
 1352 0000 00B5     		push	{lr}
 1353              		.cfi_def_cfa_offset 4
 1354              		.cfi_offset 14, -4
 1355 0002 83B0     		sub	sp, sp, #12
 1356              		.cfi_def_cfa_offset 16
 1357              		.loc 7 201 0
 1358 0004 144B     		ldr	r3, .L94
 1359 0006 1B68     		ldr	r3, [r3]
ARM GAS  C:\Users\Moi\AppData\Local\Temp\ccDxq0iY.s 			page 25


 1360 0008 0193     		str	r3, [sp, #4]
 1361              		.loc 7 202 0
 1362 000a 144B     		ldr	r3, .L94+4
 1363 000c 1B78     		ldrb	r3, [r3]	@ zero_extendqisi2
 1364 000e 002B     		cmp	r3, #0
 1365 0010 17D0     		beq	.L93
 1366              		.loc 7 203 0
 1367 0012 134B     		ldr	r3, .L94+8
 1368 0014 0122     		movs	r2, #1
 1369 0016 1A70     		strb	r2, [r3]
 1370              		.loc 7 204 0
 1371 0018 3221     		movs	r1, #50
 1372 001a 0020     		movs	r0, #0
 1373 001c FFF7FEFF 		bl	get_acc_filtered
 1374              		.loc 7 205 0
 1375 0020 0F4B     		ldr	r3, .L94+8
 1376 0022 0122     		movs	r2, #1
 1377 0024 1A70     		strb	r2, [r3]
 1378              		.loc 7 206 0
 1379 0026 3221     		movs	r1, #50
 1380 0028 0120     		movs	r0, #1
 1381 002a FFF7FEFF 		bl	get_acc_filtered
 1382              		.loc 7 207 0
 1383 002e 0C4B     		ldr	r3, .L94+8
 1384 0030 0122     		movs	r2, #1
 1385 0032 1A70     		strb	r2, [r3]
 1386              		.loc 7 208 0
 1387 0034 3221     		movs	r1, #50
 1388 0036 0220     		movs	r0, #2
 1389 0038 FFF7FEFF 		bl	get_acc_filtered
 1390              		.loc 7 209 0
 1391 003c 084B     		ldr	r3, .L94+8
 1392 003e 0022     		movs	r2, #0
 1393 0040 1A70     		strb	r2, [r3]
 1394              	.L93:
 1395              		.loc 7 211 0
 1396 0042 00BF     		nop
 1397 0044 044B     		ldr	r3, .L94
 1398 0046 019A     		ldr	r2, [sp, #4]
 1399 0048 1B68     		ldr	r3, [r3]
 1400 004a 9A42     		cmp	r2, r3
 1401 004c 01D0     		beq	.L92
 1402 004e FFF7FEFF 		bl	__stack_chk_fail
 1403              	.L92:
 1404 0052 03B0     		add	sp, sp, #12
 1405              		.cfi_def_cfa_offset 4
 1406              		@ sp needed
 1407 0054 5DF804FB 		ldr	pc, [sp], #4
 1408              	.L95:
 1409              		.align	2
 1410              	.L94:
 1411 0058 00000000 		.word	__stack_chk_guard
 1412 005c 00000000 		.word	imu_configured
 1413 0060 00000000 		.word	accCalibrationInProgress
 1414              		.cfi_endproc
 1415              	.LFE263:
 1416              		.size	calibrate_acc, .-calibrate_acc
ARM GAS  C:\Users\Moi\AppData\Local\Temp\ccDxq0iY.s 			page 26


 1417              		.section	.text.get_acc_offset,"ax",%progbits
 1418              		.align	1
 1419              		.p2align 4,,15
 1420              		.global	get_acc_offset
 1421              		.syntax unified
 1422              		.thumb
 1423              		.thumb_func
 1424              		.fpu fpv4-sp-d16
 1425              		.type	get_acc_offset, %function
 1426              	get_acc_offset:
 1427              	.LFB264:
 1428              		.loc 7 214 0
 1429              		.cfi_startproc
 1430              		@ args = 0, pretend = 0, frame = 16
 1431              		@ frame_needed = 0, uses_anonymous_args = 0
 1432 0000 00B5     		push	{lr}
 1433              		.cfi_def_cfa_offset 4
 1434              		.cfi_offset 14, -4
 1435 0002 85B0     		sub	sp, sp, #20
 1436              		.cfi_def_cfa_offset 24
 1437 0004 0346     		mov	r3, r0
 1438 0006 8DF80730 		strb	r3, [sp, #7]
 1439              		.loc 7 214 0
 1440 000a 0E4B     		ldr	r3, .L100
 1441 000c 1B68     		ldr	r3, [r3]
 1442 000e 0393     		str	r3, [sp, #12]
 1443              		.loc 7 215 0
 1444 0010 9DF80730 		ldrb	r3, [sp, #7]	@ zero_extendqisi2
 1445 0014 022B     		cmp	r3, #2
 1446 0016 08D8     		bhi	.L97
 1447              		.loc 7 216 0
 1448 0018 9DF80730 		ldrb	r3, [sp, #7]	@ zero_extendqisi2
 1449 001c 0A4A     		ldr	r2, .L100+4
 1450 001e 1833     		adds	r3, r3, #24
 1451 0020 5B00     		lsls	r3, r3, #1
 1452 0022 1344     		add	r3, r3, r2
 1453 0024 B3F90430 		ldrsh	r3, [r3, #4]
 1454 0028 00E0     		b	.L98
 1455              	.L97:
 1456              		.loc 7 218 0
 1457 002a 0023     		movs	r3, #0
 1458              	.L98:
 1459              		.loc 7 219 0
 1460 002c 1846     		mov	r0, r3
 1461 002e 054B     		ldr	r3, .L100
 1462 0030 039A     		ldr	r2, [sp, #12]
 1463 0032 1B68     		ldr	r3, [r3]
 1464 0034 9A42     		cmp	r2, r3
 1465 0036 01D0     		beq	.L99
 1466 0038 FFF7FEFF 		bl	__stack_chk_fail
 1467              	.L99:
 1468 003c 05B0     		add	sp, sp, #20
 1469              		.cfi_def_cfa_offset 4
 1470              		@ sp needed
 1471 003e 5DF804FB 		ldr	pc, [sp], #4
 1472              	.L101:
 1473 0042 00BF     		.align	2
ARM GAS  C:\Users\Moi\AppData\Local\Temp\ccDxq0iY.s 			page 27


 1474              	.L100:
 1475 0044 00000000 		.word	__stack_chk_guard
 1476 0048 00000000 		.word	imu_values
 1477              		.cfi_endproc
 1478              	.LFE264:
 1479              		.size	get_acc_offset, .-get_acc_offset
 1480              		.section	.text.get_acceleration,"ax",%progbits
 1481              		.align	1
 1482              		.p2align 4,,15
 1483              		.global	get_acceleration
 1484              		.syntax unified
 1485              		.thumb
 1486              		.thumb_func
 1487              		.fpu fpv4-sp-d16
 1488              		.type	get_acceleration, %function
 1489              	get_acceleration:
 1490              	.LFB265:
 1491              		.loc 7 221 0
 1492              		.cfi_startproc
 1493              		@ args = 0, pretend = 0, frame = 16
 1494              		@ frame_needed = 0, uses_anonymous_args = 0
 1495 0000 00B5     		push	{lr}
 1496              		.cfi_def_cfa_offset 4
 1497              		.cfi_offset 14, -4
 1498 0002 85B0     		sub	sp, sp, #20
 1499              		.cfi_def_cfa_offset 24
 1500 0004 0346     		mov	r3, r0
 1501 0006 8DF80730 		strb	r3, [sp, #7]
 1502              		.loc 7 221 0
 1503 000a 0F4B     		ldr	r3, .L106
 1504 000c 1B68     		ldr	r3, [r3]
 1505 000e 0393     		str	r3, [sp, #12]
 1506              		.loc 7 222 0
 1507 0010 9DF80730 		ldrb	r3, [sp, #7]	@ zero_extendqisi2
 1508 0014 022B     		cmp	r3, #2
 1509 0016 06D8     		bhi	.L103
 1510              		.loc 7 223 0
 1511 0018 9DF80730 		ldrb	r3, [sp, #7]	@ zero_extendqisi2
 1512 001c 0B4A     		ldr	r2, .L106+4
 1513 001e 9B00     		lsls	r3, r3, #2
 1514 0020 1344     		add	r3, r3, r2
 1515 0022 1B68     		ldr	r3, [r3]	@ float
 1516 0024 01E0     		b	.L104
 1517              	.L103:
 1518              		.loc 7 225 0
 1519 0026 4FF00003 		mov	r3, #0
 1520              	.L104:
 1521 002a 07EE903A 		vmov	s15, r3
 1522              		.loc 7 226 0
 1523 002e B0EE670A 		vmov.f32	s0, s15
 1524 0032 054B     		ldr	r3, .L106
 1525 0034 039A     		ldr	r2, [sp, #12]
 1526 0036 1B68     		ldr	r3, [r3]
 1527 0038 9A42     		cmp	r2, r3
 1528 003a 01D0     		beq	.L105
 1529 003c FFF7FEFF 		bl	__stack_chk_fail
 1530              	.L105:
ARM GAS  C:\Users\Moi\AppData\Local\Temp\ccDxq0iY.s 			page 28


 1531 0040 05B0     		add	sp, sp, #20
 1532              		.cfi_def_cfa_offset 4
 1533              		@ sp needed
 1534 0042 5DF804FB 		ldr	pc, [sp], #4
 1535              	.L107:
 1536 0046 00BF     		.align	2
 1537              	.L106:
 1538 0048 00000000 		.word	__stack_chk_guard
 1539 004c 00000000 		.word	imu_values
 1540              		.cfi_endproc
 1541              	.LFE265:
 1542              		.size	get_acceleration, .-get_acceleration
 1543              		.section	.text.get_gyro,"ax",%progbits
 1544              		.align	1
 1545              		.p2align 4,,15
 1546              		.global	get_gyro
 1547              		.syntax unified
 1548              		.thumb
 1549              		.thumb_func
 1550              		.fpu fpv4-sp-d16
 1551              		.type	get_gyro, %function
 1552              	get_gyro:
 1553              	.LFB266:
 1554              		.loc 7 228 0
 1555              		.cfi_startproc
 1556              		@ args = 0, pretend = 0, frame = 16
 1557              		@ frame_needed = 0, uses_anonymous_args = 0
 1558 0000 00B5     		push	{lr}
 1559              		.cfi_def_cfa_offset 4
 1560              		.cfi_offset 14, -4
 1561 0002 85B0     		sub	sp, sp, #20
 1562              		.cfi_def_cfa_offset 24
 1563 0004 0346     		mov	r3, r0
 1564 0006 8DF80730 		strb	r3, [sp, #7]
 1565              		.loc 7 228 0
 1566 000a 0E4B     		ldr	r3, .L112
 1567 000c 1B68     		ldr	r3, [r3]
 1568 000e 0393     		str	r3, [sp, #12]
 1569              		.loc 7 229 0
 1570 0010 9DF80730 		ldrb	r3, [sp, #7]	@ zero_extendqisi2
 1571 0014 022B     		cmp	r3, #2
 1572 0016 08D8     		bhi	.L109
 1573              		.loc 7 230 0
 1574 0018 9DF80730 		ldrb	r3, [sp, #7]	@ zero_extendqisi2
 1575 001c 0A4A     		ldr	r2, .L112+4
 1576 001e 1433     		adds	r3, r3, #20
 1577 0020 5B00     		lsls	r3, r3, #1
 1578 0022 1344     		add	r3, r3, r2
 1579 0024 B3F90630 		ldrsh	r3, [r3, #6]
 1580 0028 00E0     		b	.L110
 1581              	.L109:
 1582              		.loc 7 232 0
 1583 002a 0023     		movs	r3, #0
 1584              	.L110:
 1585              		.loc 7 233 0
 1586 002c 1846     		mov	r0, r3
 1587 002e 054B     		ldr	r3, .L112
ARM GAS  C:\Users\Moi\AppData\Local\Temp\ccDxq0iY.s 			page 29


 1588 0030 039A     		ldr	r2, [sp, #12]
 1589 0032 1B68     		ldr	r3, [r3]
 1590 0034 9A42     		cmp	r2, r3
 1591 0036 01D0     		beq	.L111
 1592 0038 FFF7FEFF 		bl	__stack_chk_fail
 1593              	.L111:
 1594 003c 05B0     		add	sp, sp, #20
 1595              		.cfi_def_cfa_offset 4
 1596              		@ sp needed
 1597 003e 5DF804FB 		ldr	pc, [sp], #4
 1598              	.L113:
 1599 0042 00BF     		.align	2
 1600              	.L112:
 1601 0044 00000000 		.word	__stack_chk_guard
 1602 0048 00000000 		.word	imu_values
 1603              		.cfi_endproc
 1604              	.LFE266:
 1605              		.size	get_gyro, .-get_gyro
 1606              		.section	.text.get_gyro_all,"ax",%progbits
 1607              		.align	1
 1608              		.p2align 4,,15
 1609              		.global	get_gyro_all
 1610              		.syntax unified
 1611              		.thumb
 1612              		.thumb_func
 1613              		.fpu fpv4-sp-d16
 1614              		.type	get_gyro_all, %function
 1615              	get_gyro_all:
 1616              	.LFB267:
 1617              		.loc 7 235 0
 1618              		.cfi_startproc
 1619              		@ args = 0, pretend = 0, frame = 16
 1620              		@ frame_needed = 0, uses_anonymous_args = 0
 1621 0000 00B5     		push	{lr}
 1622              		.cfi_def_cfa_offset 4
 1623              		.cfi_offset 14, -4
 1624 0002 85B0     		sub	sp, sp, #20
 1625              		.cfi_def_cfa_offset 24
 1626 0004 0190     		str	r0, [sp, #4]
 1627              		.loc 7 235 0
 1628 0006 0F4B     		ldr	r3, .L116
 1629 0008 1B68     		ldr	r3, [r3]
 1630 000a 0393     		str	r3, [sp, #12]
 1631              		.loc 7 236 0
 1632 000c 0E4B     		ldr	r3, .L116+4
 1633 000e B3F92E20 		ldrsh	r2, [r3, #46]
 1634 0012 019B     		ldr	r3, [sp, #4]
 1635 0014 1A80     		strh	r2, [r3]	@ movhi
 1636              		.loc 7 237 0
 1637 0016 019B     		ldr	r3, [sp, #4]
 1638 0018 0233     		adds	r3, r3, #2
 1639 001a 0B4A     		ldr	r2, .L116+4
 1640 001c B2F93020 		ldrsh	r2, [r2, #48]
 1641 0020 1A80     		strh	r2, [r3]	@ movhi
 1642              		.loc 7 238 0
 1643 0022 019B     		ldr	r3, [sp, #4]
 1644 0024 0433     		adds	r3, r3, #4
ARM GAS  C:\Users\Moi\AppData\Local\Temp\ccDxq0iY.s 			page 30


 1645 0026 084A     		ldr	r2, .L116+4
 1646 0028 B2F93220 		ldrsh	r2, [r2, #50]
 1647 002c 1A80     		strh	r2, [r3]	@ movhi
 1648              		.loc 7 239 0
 1649 002e 00BF     		nop
 1650 0030 044B     		ldr	r3, .L116
 1651 0032 039A     		ldr	r2, [sp, #12]
 1652 0034 1B68     		ldr	r3, [r3]
 1653 0036 9A42     		cmp	r2, r3
 1654 0038 01D0     		beq	.L115
 1655 003a FFF7FEFF 		bl	__stack_chk_fail
 1656              	.L115:
 1657 003e 05B0     		add	sp, sp, #20
 1658              		.cfi_def_cfa_offset 4
 1659              		@ sp needed
 1660 0040 5DF804FB 		ldr	pc, [sp], #4
 1661              	.L117:
 1662              		.align	2
 1663              	.L116:
 1664 0044 00000000 		.word	__stack_chk_guard
 1665 0048 00000000 		.word	imu_values
 1666              		.cfi_endproc
 1667              	.LFE267:
 1668              		.size	get_gyro_all, .-get_gyro_all
 1669              		.section	.text.get_gyro_filtered,"ax",%progbits
 1670              		.align	1
 1671              		.p2align 4,,15
 1672              		.global	get_gyro_filtered
 1673              		.syntax unified
 1674              		.thumb
 1675              		.thumb_func
 1676              		.fpu fpv4-sp-d16
 1677              		.type	get_gyro_filtered, %function
 1678              	get_gyro_filtered:
 1679              	.LFB268:
 1680              		.loc 7 241 0
 1681              		.cfi_startproc
 1682              		@ args = 0, pretend = 0, frame = 16
 1683              		@ frame_needed = 0, uses_anonymous_args = 0
 1684 0000 00B5     		push	{lr}
 1685              		.cfi_def_cfa_offset 4
 1686              		.cfi_offset 14, -4
 1687 0002 85B0     		sub	sp, sp, #20
 1688              		.cfi_def_cfa_offset 24
 1689 0004 0346     		mov	r3, r0
 1690 0006 0A46     		mov	r2, r1
 1691 0008 8DF80730 		strb	r3, [sp, #7]
 1692 000c 1346     		mov	r3, r2
 1693 000e 8DF80630 		strb	r3, [sp, #6]
 1694              		.loc 7 241 0
 1695 0012 1B4B     		ldr	r3, .L125
 1696 0014 1B68     		ldr	r3, [r3]
 1697 0016 0393     		str	r3, [sp, #12]
 1698              		.loc 7 242 0
 1699 0018 9DF80730 		ldrb	r3, [sp, #7]	@ zero_extendqisi2
 1700 001c 022B     		cmp	r3, #2
 1701 001e 22D8     		bhi	.L119
ARM GAS  C:\Users\Moi\AppData\Local\Temp\ccDxq0iY.s 			page 31


 1702              		.loc 7 243 0
 1703 0020 184B     		ldr	r3, .L125+4
 1704 0022 1B78     		ldrb	r3, [r3]	@ zero_extendqisi2
 1705 0024 002B     		cmp	r3, #0
 1706 0026 15D0     		beq	.L120
 1707              		.loc 7 244 0
 1708 0028 174B     		ldr	r3, .L125+8
 1709 002a 0022     		movs	r2, #0
 1710 002c 1A70     		strb	r2, [r3]
 1711              		.loc 7 245 0
 1712 002e 174B     		ldr	r3, .L125+12
 1713 0030 0122     		movs	r2, #1
 1714 0032 1A70     		strb	r2, [r3]
 1715              		.loc 7 246 0
 1716 0034 164A     		ldr	r2, .L125+16
 1717 0036 9DF80730 		ldrb	r3, [sp, #7]
 1718 003a 1370     		strb	r3, [r2]
 1719              		.loc 7 247 0
 1720 003c 154A     		ldr	r2, .L125+20
 1721 003e 9DF80630 		ldrb	r3, [sp, #6]
 1722 0042 1370     		strb	r3, [r2]
 1723              		.loc 7 248 0
 1724 0044 02E0     		b	.L121
 1725              	.L122:
 1726              		.loc 7 249 0
 1727 0046 1420     		movs	r0, #20
 1728 0048 FFF7FEFF 		bl	chThdSleep
 1729              	.L121:
 1730              		.loc 7 248 0
 1731 004c 0F4B     		ldr	r3, .L125+12
 1732 004e 1B78     		ldrb	r3, [r3]	@ zero_extendqisi2
 1733 0050 002B     		cmp	r3, #0
 1734 0052 F8D1     		bne	.L122
 1735              	.L120:
 1736              		.loc 7 252 0
 1737 0054 9DF80730 		ldrb	r3, [sp, #7]	@ zero_extendqisi2
 1738 0058 0F4A     		ldr	r2, .L125+24
 1739 005a 2033     		adds	r3, r3, #32
 1740 005c 5B00     		lsls	r3, r3, #1
 1741 005e 1344     		add	r3, r3, r2
 1742 0060 B3F90630 		ldrsh	r3, [r3, #6]
 1743 0064 00E0     		b	.L123
 1744              	.L119:
 1745              		.loc 7 254 0
 1746 0066 0023     		movs	r3, #0
 1747              	.L123:
 1748              		.loc 7 255 0
 1749 0068 1846     		mov	r0, r3
 1750 006a 054B     		ldr	r3, .L125
 1751 006c 039A     		ldr	r2, [sp, #12]
 1752 006e 1B68     		ldr	r3, [r3]
 1753 0070 9A42     		cmp	r2, r3
 1754 0072 01D0     		beq	.L124
 1755 0074 FFF7FEFF 		bl	__stack_chk_fail
 1756              	.L124:
 1757 0078 05B0     		add	sp, sp, #20
 1758              		.cfi_def_cfa_offset 4
ARM GAS  C:\Users\Moi\AppData\Local\Temp\ccDxq0iY.s 			page 32


 1759              		@ sp needed
 1760 007a 5DF804FB 		ldr	pc, [sp], #4
 1761              	.L126:
 1762 007e 00BF     		.align	2
 1763              	.L125:
 1764 0080 00000000 		.word	__stack_chk_guard
 1765 0084 00000000 		.word	imu_configured
 1766 0088 00000000 		.word	gyroAxisFilteringState
 1767 008c 00000000 		.word	gyroAxisFilteringInProgress
 1768 0090 00000000 		.word	gyroAxisSelected
 1769 0094 00000000 		.word	gyroFilterSize
 1770 0098 00000000 		.word	imu_values
 1771              		.cfi_endproc
 1772              	.LFE268:
 1773              		.size	get_gyro_filtered, .-get_gyro_filtered
 1774              		.section	.text.get_gyro_offset,"ax",%progbits
 1775              		.align	1
 1776              		.p2align 4,,15
 1777              		.global	get_gyro_offset
 1778              		.syntax unified
 1779              		.thumb
 1780              		.thumb_func
 1781              		.fpu fpv4-sp-d16
 1782              		.type	get_gyro_offset, %function
 1783              	get_gyro_offset:
 1784              	.LFB269:
 1785              		.loc 7 257 0
 1786              		.cfi_startproc
 1787              		@ args = 0, pretend = 0, frame = 16
 1788              		@ frame_needed = 0, uses_anonymous_args = 0
 1789 0000 00B5     		push	{lr}
 1790              		.cfi_def_cfa_offset 4
 1791              		.cfi_offset 14, -4
 1792 0002 85B0     		sub	sp, sp, #20
 1793              		.cfi_def_cfa_offset 24
 1794 0004 0346     		mov	r3, r0
 1795 0006 8DF80730 		strb	r3, [sp, #7]
 1796              		.loc 7 257 0
 1797 000a 0E4B     		ldr	r3, .L131
 1798 000c 1B68     		ldr	r3, [r3]
 1799 000e 0393     		str	r3, [sp, #12]
 1800              		.loc 7 258 0
 1801 0010 9DF80730 		ldrb	r3, [sp, #7]	@ zero_extendqisi2
 1802 0014 022B     		cmp	r3, #2
 1803 0016 08D8     		bhi	.L128
 1804              		.loc 7 259 0
 1805 0018 9DF80730 		ldrb	r3, [sp, #7]	@ zero_extendqisi2
 1806 001c 0A4A     		ldr	r2, .L131+4
 1807 001e 1C33     		adds	r3, r3, #28
 1808 0020 5B00     		lsls	r3, r3, #1
 1809 0022 1344     		add	r3, r3, r2
 1810 0024 B3F90230 		ldrsh	r3, [r3, #2]
 1811 0028 00E0     		b	.L129
 1812              	.L128:
 1813              		.loc 7 261 0
 1814 002a 0023     		movs	r3, #0
 1815              	.L129:
ARM GAS  C:\Users\Moi\AppData\Local\Temp\ccDxq0iY.s 			page 33


 1816              		.loc 7 262 0
 1817 002c 1846     		mov	r0, r3
 1818 002e 054B     		ldr	r3, .L131
 1819 0030 039A     		ldr	r2, [sp, #12]
 1820 0032 1B68     		ldr	r3, [r3]
 1821 0034 9A42     		cmp	r2, r3
 1822 0036 01D0     		beq	.L130
 1823 0038 FFF7FEFF 		bl	__stack_chk_fail
 1824              	.L130:
 1825 003c 05B0     		add	sp, sp, #20
 1826              		.cfi_def_cfa_offset 4
 1827              		@ sp needed
 1828 003e 5DF804FB 		ldr	pc, [sp], #4
 1829              	.L132:
 1830 0042 00BF     		.align	2
 1831              	.L131:
 1832 0044 00000000 		.word	__stack_chk_guard
 1833 0048 00000000 		.word	imu_values
 1834              		.cfi_endproc
 1835              	.LFE269:
 1836              		.size	get_gyro_offset, .-get_gyro_offset
 1837              		.section	.text.calibrate_gyro,"ax",%progbits
 1838              		.align	1
 1839              		.p2align 4,,15
 1840              		.global	calibrate_gyro
 1841              		.syntax unified
 1842              		.thumb
 1843              		.thumb_func
 1844              		.fpu fpv4-sp-d16
 1845              		.type	calibrate_gyro, %function
 1846              	calibrate_gyro:
 1847              	.LFB270:
 1848              		.loc 7 265 0
 1849              		.cfi_startproc
 1850              		@ args = 0, pretend = 0, frame = 8
 1851              		@ frame_needed = 0, uses_anonymous_args = 0
 1852 0000 00B5     		push	{lr}
 1853              		.cfi_def_cfa_offset 4
 1854              		.cfi_offset 14, -4
 1855 0002 83B0     		sub	sp, sp, #12
 1856              		.cfi_def_cfa_offset 16
 1857              		.loc 7 265 0
 1858 0004 144B     		ldr	r3, .L137
 1859 0006 1B68     		ldr	r3, [r3]
 1860 0008 0193     		str	r3, [sp, #4]
 1861              		.loc 7 266 0
 1862 000a 144B     		ldr	r3, .L137+4
 1863 000c 1B78     		ldrb	r3, [r3]	@ zero_extendqisi2
 1864 000e 002B     		cmp	r3, #0
 1865 0010 17D0     		beq	.L136
 1866              		.loc 7 267 0
 1867 0012 134B     		ldr	r3, .L137+8
 1868 0014 0122     		movs	r2, #1
 1869 0016 1A70     		strb	r2, [r3]
 1870              		.loc 7 268 0
 1871 0018 3221     		movs	r1, #50
 1872 001a 0020     		movs	r0, #0
ARM GAS  C:\Users\Moi\AppData\Local\Temp\ccDxq0iY.s 			page 34


 1873 001c FFF7FEFF 		bl	get_gyro_filtered
 1874              		.loc 7 269 0
 1875 0020 0F4B     		ldr	r3, .L137+8
 1876 0022 0122     		movs	r2, #1
 1877 0024 1A70     		strb	r2, [r3]
 1878              		.loc 7 270 0
 1879 0026 3221     		movs	r1, #50
 1880 0028 0120     		movs	r0, #1
 1881 002a FFF7FEFF 		bl	get_gyro_filtered
 1882              		.loc 7 271 0
 1883 002e 0C4B     		ldr	r3, .L137+8
 1884 0030 0122     		movs	r2, #1
 1885 0032 1A70     		strb	r2, [r3]
 1886              		.loc 7 272 0
 1887 0034 3221     		movs	r1, #50
 1888 0036 0220     		movs	r0, #2
 1889 0038 FFF7FEFF 		bl	get_gyro_filtered
 1890              		.loc 7 273 0
 1891 003c 084B     		ldr	r3, .L137+8
 1892 003e 0022     		movs	r2, #0
 1893 0040 1A70     		strb	r2, [r3]
 1894              	.L136:
 1895              		.loc 7 276 0
 1896 0042 00BF     		nop
 1897 0044 044B     		ldr	r3, .L137
 1898 0046 019A     		ldr	r2, [sp, #4]
 1899 0048 1B68     		ldr	r3, [r3]
 1900 004a 9A42     		cmp	r2, r3
 1901 004c 01D0     		beq	.L135
 1902 004e FFF7FEFF 		bl	__stack_chk_fail
 1903              	.L135:
 1904 0052 03B0     		add	sp, sp, #12
 1905              		.cfi_def_cfa_offset 4
 1906              		@ sp needed
 1907 0054 5DF804FB 		ldr	pc, [sp], #4
 1908              	.L138:
 1909              		.align	2
 1910              	.L137:
 1911 0058 00000000 		.word	__stack_chk_guard
 1912 005c 00000000 		.word	imu_configured
 1913 0060 00000000 		.word	gyroCalibrationInProgress
 1914              		.cfi_endproc
 1915              	.LFE270:
 1916              		.size	calibrate_gyro, .-calibrate_gyro
 1917              		.section	.text.get_gyro_rate,"ax",%progbits
 1918              		.align	1
 1919              		.p2align 4,,15
 1920              		.global	get_gyro_rate
 1921              		.syntax unified
 1922              		.thumb
 1923              		.thumb_func
 1924              		.fpu fpv4-sp-d16
 1925              		.type	get_gyro_rate, %function
 1926              	get_gyro_rate:
 1927              	.LFB271:
 1928              		.loc 7 278 0
 1929              		.cfi_startproc
ARM GAS  C:\Users\Moi\AppData\Local\Temp\ccDxq0iY.s 			page 35


 1930              		@ args = 0, pretend = 0, frame = 16
 1931              		@ frame_needed = 0, uses_anonymous_args = 0
 1932 0000 00B5     		push	{lr}
 1933              		.cfi_def_cfa_offset 4
 1934              		.cfi_offset 14, -4
 1935 0002 85B0     		sub	sp, sp, #20
 1936              		.cfi_def_cfa_offset 24
 1937 0004 0346     		mov	r3, r0
 1938 0006 8DF80730 		strb	r3, [sp, #7]
 1939              		.loc 7 278 0
 1940 000a 104B     		ldr	r3, .L143
 1941 000c 1B68     		ldr	r3, [r3]
 1942 000e 0393     		str	r3, [sp, #12]
 1943              		.loc 7 279 0
 1944 0010 9DF80730 		ldrb	r3, [sp, #7]	@ zero_extendqisi2
 1945 0014 022B     		cmp	r3, #2
 1946 0016 08D8     		bhi	.L140
 1947              		.loc 7 280 0
 1948 0018 9DF80730 		ldrb	r3, [sp, #7]	@ zero_extendqisi2
 1949 001c 0C4A     		ldr	r2, .L143+4
 1950 001e 0233     		adds	r3, r3, #2
 1951 0020 9B00     		lsls	r3, r3, #2
 1952 0022 1344     		add	r3, r3, r2
 1953 0024 0433     		adds	r3, r3, #4
 1954 0026 1B68     		ldr	r3, [r3]	@ float
 1955 0028 01E0     		b	.L141
 1956              	.L140:
 1957              		.loc 7 282 0
 1958 002a 4FF00003 		mov	r3, #0
 1959              	.L141:
 1960 002e 07EE903A 		vmov	s15, r3
 1961              		.loc 7 283 0
 1962 0032 B0EE670A 		vmov.f32	s0, s15
 1963 0036 054B     		ldr	r3, .L143
 1964 0038 039A     		ldr	r2, [sp, #12]
 1965 003a 1B68     		ldr	r3, [r3]
 1966 003c 9A42     		cmp	r2, r3
 1967 003e 01D0     		beq	.L142
 1968 0040 FFF7FEFF 		bl	__stack_chk_fail
 1969              	.L142:
 1970 0044 05B0     		add	sp, sp, #20
 1971              		.cfi_def_cfa_offset 4
 1972              		@ sp needed
 1973 0046 5DF804FB 		ldr	pc, [sp], #4
 1974              	.L144:
 1975 004a 00BF     		.align	2
 1976              	.L143:
 1977 004c 00000000 		.word	__stack_chk_guard
 1978 0050 00000000 		.word	imu_values
 1979              		.cfi_endproc
 1980              	.LFE271:
 1981              		.size	get_gyro_rate, .-get_gyro_rate
 1982              		.section	.text.get_temperature,"ax",%progbits
 1983              		.align	1
 1984              		.p2align 4,,15
 1985              		.global	get_temperature
 1986              		.syntax unified
ARM GAS  C:\Users\Moi\AppData\Local\Temp\ccDxq0iY.s 			page 36


 1987              		.thumb
 1988              		.thumb_func
 1989              		.fpu fpv4-sp-d16
 1990              		.type	get_temperature, %function
 1991              	get_temperature:
 1992              	.LFB272:
 1993              		.loc 7 285 0
 1994              		.cfi_startproc
 1995              		@ args = 0, pretend = 0, frame = 8
 1996              		@ frame_needed = 0, uses_anonymous_args = 0
 1997 0000 00B5     		push	{lr}
 1998              		.cfi_def_cfa_offset 4
 1999              		.cfi_offset 14, -4
 2000 0002 83B0     		sub	sp, sp, #12
 2001              		.cfi_def_cfa_offset 16
 2002              		.loc 7 285 0
 2003 0004 094B     		ldr	r3, .L148
 2004 0006 1B68     		ldr	r3, [r3]
 2005 0008 0193     		str	r3, [sp, #4]
 2006              		.loc 7 286 0
 2007 000a 094B     		ldr	r3, .L148+4
 2008 000c 9B69     		ldr	r3, [r3, #24]	@ float
 2009 000e 07EE903A 		vmov	s15, r3
 2010              		.loc 7 287 0
 2011 0012 B0EE670A 		vmov.f32	s0, s15
 2012 0016 054B     		ldr	r3, .L148
 2013 0018 019A     		ldr	r2, [sp, #4]
 2014 001a 1B68     		ldr	r3, [r3]
 2015 001c 9A42     		cmp	r2, r3
 2016 001e 01D0     		beq	.L147
 2017 0020 FFF7FEFF 		bl	__stack_chk_fail
 2018              	.L147:
 2019 0024 03B0     		add	sp, sp, #12
 2020              		.cfi_def_cfa_offset 4
 2021              		@ sp needed
 2022 0026 5DF804FB 		ldr	pc, [sp], #4
 2023              	.L149:
 2024 002a 00BF     		.align	2
 2025              	.L148:
 2026 002c 00000000 		.word	__stack_chk_guard
 2027 0030 00000000 		.word	imu_values
 2028              		.cfi_endproc
 2029              	.LFE272:
 2030              		.size	get_temperature, .-get_temperature
 2031              		.section	.rodata.__FUNCTION__.11265,"a",%progbits
 2032              		.align	2
 2033              		.type	__FUNCTION__.11265, %object
 2034              		.size	__FUNCTION__.11265, 15
 2035              	__FUNCTION__.11265:
 2036 0000 696D755F 		.ascii	"imu_reader_thd\000"
 2036      72656164 
 2036      65725F74 
 2036      686400
 2037              		.section	.rodata.__func__.7153,"a",%progbits
 2038              		.align	2
 2039              		.type	__func__.7153, %object
 2040              		.size	__func__.7153, 12
ARM GAS  C:\Users\Moi\AppData\Local\Temp\ccDxq0iY.s 			page 37


 2041              	__func__.7153:
 2042 0000 63685379 		.ascii	"chSysUnlock\000"
 2042      73556E6C 
 2042      6F636B00 
 2043              		.text
 2044              	.Letext0:
 2045              		.file 8 "c:\\users\\moi\\documents\\_microinfo\\epuck-eclipse\\tools\\gcc-arm-none-eabi-7-2017-q4-
 2046              		.file 9 "c:\\users\\moi\\documents\\_microinfo\\epuck-eclipse\\tools\\gcc-arm-none-eabi-7-2017-q4-
 2047              		.file 10 "c:\\users\\moi\\documents\\_microinfo\\epuck-eclipse\\tools\\gcc-arm-none-eabi-7-2017-q4
 2048              		.file 11 "..//ChibiOS//os/rt/ports/ARMCMx/compilers/GCC/chtypes.h"
 2049              		.file 12 "..//ChibiOS//os/rt/include/chsystypes.h"
 2050              		.file 13 "..//ChibiOS//os/rt/include/chschd.h"
 2051              		.file 14 "..//ChibiOS//os/ext/CMSIS/include/core_cm4.h"
 2052              		.file 15 "..//ChibiOS//os/ext/CMSIS/ST/system_stm32f4xx.h"
 2053              		.file 16 "..//ChibiOS//os/ext/CMSIS/ST/stm32f407xx.h"
 2054              		.file 17 "..//ChibiOS//os/rt/ports/ARMCMx/chcore.h"
 2055              		.file 18 "..//ChibiOS//os/rt/include/chdebug.h"
 2056              		.file 19 "..//ChibiOS//os/rt/include/chtm.h"
 2057              		.file 20 "..//ChibiOS//os/rt/include/chstats.h"
 2058              		.file 21 "..//ChibiOS//os/rt/include/chsem.h"
 2059              		.file 22 "..//ChibiOS//os/rt/include/chmtx.h"
 2060              		.file 23 "..//ChibiOS//os/rt/include/chcond.h"
 2061              		.file 24 "..//ChibiOS//os/rt/include/chevents.h"
 2062              		.file 25 "..//ChibiOS//os/rt/include/chqueues.h"
 2063              		.file 26 "..//ChibiOS//os/hal/ports/STM32/STM32F4xx/stm32_dma.h"
 2064              		.file 27 "..//ChibiOS//os/hal/include/hal_ioblock.h"
 2065              		.file 28 "..//ChibiOS//os/hal/ports/STM32/LLD/GPIOv2/pal_lld.h"
 2066              		.file 29 "..//ChibiOS//os/hal/include/adc.h"
 2067              		.file 30 "..//ChibiOS//os/hal/ports/STM32/STM32F4xx/adc_lld.h"
 2068              		.file 31 "..//ChibiOS//os/hal/include/can.h"
 2069              		.file 32 "..//ChibiOS//os/hal/ports/STM32/LLD/can_lld.h"
 2070              		.file 33 "..//ChibiOS//os/hal/include/dac.h"
 2071              		.file 34 "..//ChibiOS//os/hal/ports/STM32/LLD/DACv1/dac_lld.h"
 2072              		.file 35 "..//ChibiOS//os/hal/include/ext.h"
 2073              		.file 36 "..//ChibiOS//os/hal/ports/STM32/LLD/ext_lld.h"
 2074              		.file 37 "..//ChibiOS//os/hal/include/gpt.h"
 2075              		.file 38 "..//ChibiOS//os/hal/ports/STM32/LLD/TIMv1/gpt_lld.h"
 2076              		.file 39 "..//ChibiOS//os/hal/ports/STM32/LLD/TIMv1/stm32_tim.h"
 2077              		.file 40 "..//ChibiOS//os/hal/include/i2c.h"
 2078              		.file 41 "..//ChibiOS//os/hal/ports/STM32/LLD/I2Cv1/i2c_lld.h"
 2079              		.file 42 "..//ChibiOS//os/hal/include/i2s.h"
 2080              		.file 43 "..//ChibiOS//os/hal/ports/STM32/LLD/SPIv1/i2s_lld.h"
 2081              		.file 44 "..//ChibiOS//os/hal/include/pwm.h"
 2082              		.file 45 "..//ChibiOS//os/hal/ports/STM32/LLD/TIMv1/pwm_lld.h"
 2083              		.file 46 "..//ChibiOS//os/hal/include/serial.h"
 2084              		.file 47 "..//ChibiOS//os/hal/ports/STM32/LLD/USARTv1/serial_lld.h"
 2085              		.file 48 "..//ChibiOS//os/hal/include/sdc.h"
 2086              		.file 49 "..//ChibiOS//os/hal/ports/STM32/LLD/sdc_lld.h"
 2087              		.file 50 "..//ChibiOS//os/hal/include/spi.h"
 2088              		.file 51 "..//ChibiOS//os/hal/ports/STM32/LLD/SPIv1/spi_lld.h"
 2089              		.file 52 "..//ChibiOS//os/hal/include/usb.h"
 2090              		.file 53 "..//ChibiOS//os/hal/ports/STM32/LLD/OTGv1/usb_lld.h"
 2091              		.file 54 "..//ChibiOS//os/hal/ports/STM32/LLD/OTGv1/stm32_otg.h"
 2092              		.file 55 "..//ChibiOS//os/hal/include/serial_usb.h"
 2093              		.file 56 "c:\\users\\moi\\documents\\_microinfo\\epuck-eclipse\\tools\\gcc-arm-none-eabi-7-2017-q4
 2094              		.file 57 "c:\\users\\moi\\documents\\_microinfo\\epuck-eclipse\\tools\\gcc-arm-none-eabi-7-2017-q4
 2095              		.file 58 "c:\\users\\moi\\documents\\_microinfo\\epuck-eclipse\\tools\\gcc-arm-none-eabi-7-2017-q4
ARM GAS  C:\Users\Moi\AppData\Local\Temp\ccDxq0iY.s 			page 38


 2096              		.file 59 "..//src/msgbus/messagebus.h"
 2097              		.file 60 "c:\\users\\moi\\documents\\_microinfo\\epuck-eclipse\\tools\\gcc-arm-none-eabi-7-2017-q4
 2098              		.file 61 "c:\\users\\moi\\documents\\_microinfo\\epuck-eclipse\\tools\\gcc-arm-none-eabi-7-2017-q4
 2099              		.file 62 "..//src/parameter/parameter.h"
 2100              		.file 63 "./main.h"
 2101              		.file 64 "..//src/usbcfg.h"
 2102              		.file 65 "..//src/sensors/imu.h"
 2103              		.file 66 "..//src/exti.h"