ARM GAS  C:\Users\Moi\AppData\Local\Temp\cctGeJra.s 			page 1


   1              		.cpu cortex-m4
   2              		.eabi_attribute 27, 1
   3              		.eabi_attribute 28, 1
   4              		.eabi_attribute 20, 1
   5              		.eabi_attribute 21, 1
   6              		.eabi_attribute 23, 3
   7              		.eabi_attribute 24, 1
   8              		.eabi_attribute 25, 1
   9              		.eabi_attribute 26, 1
  10              		.eabi_attribute 30, 6
  11              		.eabi_attribute 34, 1
  12              		.eabi_attribute 18, 4
  13              		.file	"main.c"
  14              		.text
  15              	.Ltext0:
  16              		.cfi_sections	.debug_frame
  17              		.global	bus
  18              		.section	.bss.bus,"aw",%nobits
  19              		.align	2
  20              		.type	bus, %object
  21              		.size	bus, 12
  22              	bus:
  23 0000 00000000 		.space	12
  23      00000000 
  23      00000000 
  24              		.global	bus_lock
  25              		.section	.data.bus_lock,"aw",%progbits
  26              		.align	2
  27              		.type	bus_lock, %object
  28              		.size	bus_lock, 20
  29              	bus_lock:
  30 0000 00000000 		.word	bus_lock
  31 0004 00000000 		.word	bus_lock
  32 0008 00000000 		.word	0
  33 000c 00000000 		.word	0
  34 0010 00000000 		.word	0
  35              		.global	bus_condvar
  36              		.section	.data.bus_condvar,"aw",%progbits
  37              		.align	2
  38              		.type	bus_condvar, %object
  39              		.size	bus_condvar, 8
  40              	bus_condvar:
  41 0000 00000000 		.word	bus_condvar
  42 0004 00000000 		.word	bus_condvar
  43              		.global	parameter_root
  44              		.section	.bss.parameter_root,"aw",%nobits
  45              		.align	2
  46              		.type	parameter_root, %object
  47              		.size	parameter_root, 24
  48              	parameter_root:
  49 0000 00000000 		.space	24
  49      00000000 
  49      00000000 
  49      00000000 
  49      00000000 
  50              		.section	.text.serial_start,"ax",%progbits
  51              		.align	1
ARM GAS  C:\Users\Moi\AppData\Local\Temp\cctGeJra.s 			page 2


  52              		.p2align 4,,15
  53              		.syntax unified
  54              		.thumb
  55              		.thumb_func
  56              		.fpu fpv4-sp-d16
  57              		.type	serial_start, %function
  58              	serial_start:
  59              	.LFB256:
  60              		.file 1 "main.c"
  61              		.loc 1 22 0
  62              		.cfi_startproc
  63              		@ args = 0, pretend = 0, frame = 8
  64              		@ frame_needed = 0, uses_anonymous_args = 0
  65 0000 00B5     		push	{lr}
  66              		.cfi_def_cfa_offset 4
  67              		.cfi_offset 14, -4
  68 0002 83B0     		sub	sp, sp, #12
  69              		.cfi_def_cfa_offset 16
  70              		.loc 1 22 0
  71 0004 084B     		ldr	r3, .L3
  72 0006 1B68     		ldr	r3, [r3]
  73 0008 0193     		str	r3, [sp, #4]
  74              		.loc 1 30 0
  75 000a 0849     		ldr	r1, .L3+4
  76 000c 0848     		ldr	r0, .L3+8
  77 000e FFF7FEFF 		bl	sdStart
  78              		.loc 1 31 0
  79 0012 00BF     		nop
  80 0014 044B     		ldr	r3, .L3
  81 0016 019A     		ldr	r2, [sp, #4]
  82 0018 1B68     		ldr	r3, [r3]
  83 001a 9A42     		cmp	r2, r3
  84 001c 01D0     		beq	.L2
  85 001e FFF7FEFF 		bl	__stack_chk_fail
  86              	.L2:
  87 0022 03B0     		add	sp, sp, #12
  88              		.cfi_def_cfa_offset 4
  89              		@ sp needed
  90 0024 5DF804FB 		ldr	pc, [sp], #4
  91              	.L4:
  92              		.align	2
  93              	.L3:
  94 0028 00000000 		.word	__stack_chk_guard
  95 002c 00000000 		.word	ser_cfg.11279
  96 0030 00000000 		.word	SD3
  97              		.cfi_endproc
  98              	.LFE256:
  99              		.size	serial_start, .-serial_start
 100              		.section	.text.main,"ax",%progbits
 101              		.align	1
 102              		.p2align 4,,15
 103              		.global	main
 104              		.syntax unified
 105              		.thumb
 106              		.thumb_func
 107              		.fpu fpv4-sp-d16
 108              		.type	main, %function
ARM GAS  C:\Users\Moi\AppData\Local\Temp\cctGeJra.s 			page 3


 109              	main:
 110              	.LFB257:
 111              		.loc 1 59 0
 112              		.cfi_startproc
 113              		@ args = 0, pretend = 0, frame = 8
 114              		@ frame_needed = 0, uses_anonymous_args = 0
 115 0000 00B5     		push	{lr}
 116              		.cfi_def_cfa_offset 4
 117              		.cfi_offset 14, -4
 118 0002 83B0     		sub	sp, sp, #12
 119              		.cfi_def_cfa_offset 16
 120              		.loc 1 59 0
 121 0004 2D4B     		ldr	r3, .L16
 122 0006 1B68     		ldr	r3, [r3]
 123 0008 0193     		str	r3, [sp, #4]
 124              		.loc 1 76 0
 125 000a 2D4B     		ldr	r3, .L16+4
 126 000c 1B78     		ldrb	r3, [r3]	@ zero_extendqisi2
 127 000e 83F00103 		eor	r3, r3, #1
 128 0012 DBB2     		uxtb	r3, r3
 129 0014 002B     		cmp	r3, #0
 130 0016 16D0     		beq	.L6
 131              		.loc 1 79 0
 132 0018 FFF7FEFF 		bl	halInit
 133              		.loc 1 80 0
 134 001c FFF7FEFF 		bl	chSysInit
 135              		.loc 1 81 0
 136 0020 FFF7FEFF 		bl	mpu_init
 137              		.loc 1 84 0
 138 0024 274A     		ldr	r2, .L16+8
 139 0026 2849     		ldr	r1, .L16+12
 140 0028 2848     		ldr	r0, .L16+16
 141 002a FFF7FEFF 		bl	messagebus_init
 142              		.loc 1 85 0
 143 002e 0022     		movs	r2, #0
 144 0030 0021     		movs	r1, #0
 145 0032 2748     		ldr	r0, .L16+20
 146 0034 FFF7FEFF 		bl	parameter_namespace_declare
 147              		.loc 1 91 0
 148 0038 FFF7FEFF 		bl	serial_start
 149              		.loc 1 92 0
 150 003c FFF7FEFF 		bl	imu_start
 151              		.loc 1 99 0
 152 0040 1F4B     		ldr	r3, .L16+4
 153 0042 0122     		movs	r2, #1
 154 0044 1A70     		strb	r2, [r3]
 155              	.L6:
 156              		.loc 1 113 0
 157 0046 FFF7FEFF 		bl	get_selector
 158 004a 0346     		mov	r3, r0
 159 004c 012B     		cmp	r3, #1
 160 004e 04D0     		beq	.L8
 161 0050 022B     		cmp	r3, #2
 162 0052 05D0     		beq	.L9
 163 0054 002B     		cmp	r3, #0
 164 0056 08D0     		beq	.L10
 165 0058 0CE0     		b	.L15
ARM GAS  C:\Users\Moi\AppData\Local\Temp\cctGeJra.s 			page 4


 166              	.L8:
 167              		.loc 1 116 0
 168 005a FFF7FEFF 		bl	calibrate_imu
 169              		.loc 1 117 0
 170 005e 0EE0     		b	.L13
 171              	.L9:
 172              		.loc 1 121 0
 173 0060 4FF4FA70 		mov	r0, #500
 174 0064 FFF7FEFF 		bl	chThdSleep
 175              		.loc 1 122 0
 176 0068 09E0     		b	.L13
 177              	.L10:
 178              		.loc 1 126 0
 179 006a 4FF4FA70 		mov	r0, #500
 180 006e FFF7FEFF 		bl	chThdSleep
 181              		.loc 1 127 0
 182 0072 04E0     		b	.L13
 183              	.L15:
 184              		.loc 1 130 0
 185 0074 4FF4FA70 		mov	r0, #500
 186 0078 FFF7FEFF 		bl	chThdSleep
 187              		.loc 1 131 0
 188 007c 00BF     		nop
 189              	.L13:
 190              		.loc 1 148 0
 191 007e FFF7FEFF 		bl	get_selector
 192 0082 0346     		mov	r3, r0
 193 0084 002B     		cmp	r3, #0
 194 0086 14BF     		ite	ne
 195 0088 0123     		movne	r3, #1
 196 008a 0023     		moveq	r3, #0
 197 008c DAB2     		uxtb	r2, r3
 198 008e 114B     		ldr	r3, .L16+24
 199 0090 1A70     		strb	r2, [r3]
 200              		.loc 1 149 0
 201 0092 104B     		ldr	r3, .L16+24
 202 0094 1B78     		ldrb	r3, [r3]	@ zero_extendqisi2
 203 0096 002B     		cmp	r3, #0
 204 0098 07D0     		beq	.L12
 205              		.loc 1 150 0
 206 009a 0020     		movs	r0, #0
 207 009c FFF7FEFF 		bl	set_front_led
 208              		.loc 1 151 0
 209 00a0 0C4B     		ldr	r3, .L16+24
 210 00a2 0022     		movs	r2, #0
 211 00a4 1A70     		strb	r2, [r3]
 212              		.loc 1 152 0
 213 00a6 FFF7FEFF 		bl	main
 214              	.L12:
 215              		.loc 1 154 0
 216 00aa 0220     		movs	r0, #2
 217 00ac FFF7FEFF 		bl	set_front_led
 218              		.loc 1 155 0
 219 00b0 4FF4FA70 		mov	r0, #500
 220 00b4 FFF7FEFF 		bl	chThdSleep
 221              		.loc 1 148 0
 222 00b8 E1E7     		b	.L13
ARM GAS  C:\Users\Moi\AppData\Local\Temp\cctGeJra.s 			page 5


 223              	.L17:
 224 00ba 00BF     		.align	2
 225              	.L16:
 226 00bc 00000000 		.word	__stack_chk_guard
 227 00c0 00000000 		.word	sysInitialised.11284
 228 00c4 00000000 		.word	bus_condvar
 229 00c8 00000000 		.word	bus_lock
 230 00cc 00000000 		.word	bus
 231 00d0 00000000 		.word	parameter_root
 232 00d4 00000000 		.word	newTask.11283
 233              		.cfi_endproc
 234              	.LFE257:
 235              		.size	main, .-main
 236              		.global	__stack_chk_guard
 237              		.section	.data.__stack_chk_guard,"aw",%progbits
 238              		.align	2
 239              		.type	__stack_chk_guard, %object
 240              		.size	__stack_chk_guard, 4
 241              	__stack_chk_guard:
 242 0000 96E3DEE2 		.word	-488709226
 243              		.section	.rodata
 244              		.align	2
 245              	.LC0:
 246 0000 53746163 		.ascii	"Stack smashing detected\000"
 246      6B20736D 
 246      61736869 
 246      6E672064 
 246      65746563 
 247              		.section	.text.__stack_chk_fail,"ax",%progbits
 248              		.align	1
 249              		.p2align 4,,15
 250              		.global	__stack_chk_fail
 251              		.syntax unified
 252              		.thumb
 253              		.thumb_func
 254              		.fpu fpv4-sp-d16
 255              		.type	__stack_chk_fail, %function
 256              	__stack_chk_fail:
 257              	.LFB258:
 258              		.loc 1 165 0
 259              		.cfi_startproc
 260              		@ args = 0, pretend = 0, frame = 8
 261              		@ frame_needed = 0, uses_anonymous_args = 0
 262 0000 00B5     		push	{lr}
 263              		.cfi_def_cfa_offset 4
 264              		.cfi_offset 14, -4
 265 0002 83B0     		sub	sp, sp, #12
 266              		.cfi_def_cfa_offset 16
 267              		.loc 1 165 0
 268 0004 084B     		ldr	r3, .L20
 269 0006 1B68     		ldr	r3, [r3]
 270 0008 0193     		str	r3, [sp, #4]
 271              		.loc 1 166 0
 272 000a 0848     		ldr	r0, .L20+4
 273 000c FFF7FEFF 		bl	chSysHalt
 274              		.loc 1 167 0
 275 0010 00BF     		nop
ARM GAS  C:\Users\Moi\AppData\Local\Temp\cctGeJra.s 			page 6


 276 0012 054B     		ldr	r3, .L20
 277 0014 019A     		ldr	r2, [sp, #4]
 278 0016 1B68     		ldr	r3, [r3]
 279 0018 9A42     		cmp	r2, r3
 280 001a 01D0     		beq	.L19
 281 001c FFF7FEFF 		bl	__stack_chk_fail
 282              	.L19:
 283 0020 03B0     		add	sp, sp, #12
 284              		.cfi_def_cfa_offset 4
 285              		@ sp needed
 286 0022 5DF804FB 		ldr	pc, [sp], #4
 287              	.L21:
 288 0026 00BF     		.align	2
 289              	.L20:
 290 0028 00000000 		.word	__stack_chk_guard
 291 002c 00000000 		.word	.LC0
 292              		.cfi_endproc
 293              	.LFE258:
 294              		.size	__stack_chk_fail, .-__stack_chk_fail
 295              		.section	.data.ser_cfg.11279,"aw",%progbits
 296              		.align	2
 297              		.type	ser_cfg.11279, %object
 298              		.size	ser_cfg.11279, 12
 299              	ser_cfg.11279:
 300 0000 00C20100 		.word	115200
 301 0004 0000     		.short	0
 302 0006 0000     		.short	0
 303 0008 0000     		.short	0
 304 000a 0000     		.space	2
 305              		.section	.bss.sysInitialised.11284,"aw",%nobits
 306              		.type	sysInitialised.11284, %object
 307              		.size	sysInitialised.11284, 1
 308              	sysInitialised.11284:
 309 0000 00       		.space	1
 310              		.section	.bss.newTask.11283,"aw",%nobits
 311              		.type	newTask.11283, %object
 312              		.size	newTask.11283, 1
 313              	newTask.11283:
 314 0000 00       		.space	1
 315              		.text
 316              	.Letext0:
 317              		.file 2 "c:\\users\\moi\\documents\\_microinfo\\epuck-eclipse\\tools\\gcc-arm-none-eabi-7-2017-q4-
 318              		.file 3 "c:\\users\\moi\\documents\\_microinfo\\epuck-eclipse\\tools\\gcc-arm-none-eabi-7-2017-q4-
 319              		.file 4 "c:\\users\\moi\\documents\\_microinfo\\epuck-eclipse\\tools\\gcc-arm-none-eabi-7-2017-q4-
 320              		.file 5 "..//ChibiOS//os/rt/ports/ARMCMx/compilers/GCC/chtypes.h"
 321              		.file 6 "..//ChibiOS//os/rt/include/chsystypes.h"
 322              		.file 7 "..//ChibiOS//os/rt/include/chschd.h"
 323              		.file 8 "..//ChibiOS//os/ext/CMSIS/include/core_cm4.h"
 324              		.file 9 "..//ChibiOS//os/ext/CMSIS/ST/system_stm32f4xx.h"
 325              		.file 10 "..//ChibiOS//os/ext/CMSIS/ST/stm32f407xx.h"
 326              		.file 11 "..//ChibiOS//os/rt/ports/ARMCMx/chcore.h"
 327              		.file 12 "..//ChibiOS//os/rt/ports/ARMCMx/chcore_v7m.h"
 328              		.file 13 "..//ChibiOS//os/rt/include/chdebug.h"
 329              		.file 14 "..//ChibiOS//os/rt/include/chtm.h"
 330              		.file 15 "..//ChibiOS//os/rt/include/chstats.h"
 331              		.file 16 "..//ChibiOS//os/rt/include/chsem.h"
 332              		.file 17 "..//ChibiOS//os/rt/include/chmtx.h"
ARM GAS  C:\Users\Moi\AppData\Local\Temp\cctGeJra.s 			page 7


 333              		.file 18 "..//ChibiOS//os/rt/include/chregistry.h"
 334              		.file 19 "..//ChibiOS//os/rt/include/chcond.h"
 335              		.file 20 "..//ChibiOS//os/rt/include/chevents.h"
 336              		.file 21 "..//ChibiOS//os/rt/include/chqueues.h"
 337              		.file 22 "..//ChibiOS//os/hal/ports/STM32/STM32F4xx/stm32_dma.h"
 338              		.file 23 "..//ChibiOS//os/hal/include/hal_ioblock.h"
 339              		.file 24 "..//ChibiOS//os/hal/ports/STM32/LLD/GPIOv2/pal_lld.h"
 340              		.file 25 "..//ChibiOS//os/hal/include/adc.h"
 341              		.file 26 "..//ChibiOS//os/hal/ports/STM32/STM32F4xx/adc_lld.h"
 342              		.file 27 "..//ChibiOS//os/hal/include/can.h"
 343              		.file 28 "..//ChibiOS//os/hal/ports/STM32/LLD/can_lld.h"
 344              		.file 29 "..//ChibiOS//os/hal/include/dac.h"
 345              		.file 30 "..//ChibiOS//os/hal/ports/STM32/LLD/DACv1/dac_lld.h"
 346              		.file 31 "..//ChibiOS//os/hal/include/ext.h"
 347              		.file 32 "..//ChibiOS//os/hal/ports/STM32/LLD/ext_lld.h"
 348              		.file 33 "..//ChibiOS//os/hal/include/gpt.h"
 349              		.file 34 "..//ChibiOS//os/hal/ports/STM32/LLD/TIMv1/gpt_lld.h"
 350              		.file 35 "..//ChibiOS//os/hal/ports/STM32/LLD/TIMv1/stm32_tim.h"
 351              		.file 36 "..//ChibiOS//os/hal/include/i2c.h"
 352              		.file 37 "..//ChibiOS//os/hal/ports/STM32/LLD/I2Cv1/i2c_lld.h"
 353              		.file 38 "..//ChibiOS//os/hal/include/i2s.h"
 354              		.file 39 "..//ChibiOS//os/hal/ports/STM32/LLD/SPIv1/i2s_lld.h"
 355              		.file 40 "..//ChibiOS//os/hal/include/pwm.h"
 356              		.file 41 "..//ChibiOS//os/hal/ports/STM32/LLD/TIMv1/pwm_lld.h"
 357              		.file 42 "..//ChibiOS//os/hal/include/serial.h"
 358              		.file 43 "..//ChibiOS//os/hal/ports/STM32/LLD/USARTv1/serial_lld.h"
 359              		.file 44 "..//ChibiOS//os/hal/include/sdc.h"
 360              		.file 45 "..//ChibiOS//os/hal/ports/STM32/LLD/sdc_lld.h"
 361              		.file 46 "..//ChibiOS//os/hal/include/spi.h"
 362              		.file 47 "..//ChibiOS//os/hal/ports/STM32/LLD/SPIv1/spi_lld.h"
 363              		.file 48 "..//ChibiOS//os/hal/include/usb.h"
 364              		.file 49 "..//ChibiOS//os/hal/ports/STM32/LLD/OTGv1/usb_lld.h"
 365              		.file 50 "..//ChibiOS//os/hal/ports/STM32/LLD/OTGv1/stm32_otg.h"
 366              		.file 51 "c:\\users\\moi\\documents\\_microinfo\\epuck-eclipse\\tools\\gcc-arm-none-eabi-7-2017-q4
 367              		.file 52 "c:\\users\\moi\\documents\\_microinfo\\epuck-eclipse\\tools\\gcc-arm-none-eabi-7-2017-q4
 368              		.file 53 "c:\\users\\moi\\documents\\_microinfo\\epuck-eclipse\\tools\\gcc-arm-none-eabi-7-2017-q4
 369              		.file 54 "..//src/msgbus/messagebus.h"
 370              		.file 55 "c:\\users\\moi\\documents\\_microinfo\\epuck-eclipse\\tools\\gcc-arm-none-eabi-7-2017-q4
 371              		.file 56 "c:\\users\\moi\\documents\\_microinfo\\epuck-eclipse\\tools\\gcc-arm-none-eabi-7-2017-q4
 372              		.file 57 "..//src/parameter/parameter.h"
 373              		.file 58 "./main.h"