ARM GAS  C:\Users\Moi\AppData\Local\Temp\ccntjLsE.s 			page 1


   1              		.cpu cortex-m4
   2              		.eabi_attribute 27, 1
   3              		.eabi_attribute 28, 1
   4              		.eabi_attribute 20, 1
   5              		.eabi_attribute 21, 1
   6              		.eabi_attribute 23, 3
   7              		.eabi_attribute 24, 1
   8              		.eabi_attribute 25, 1
   9              		.eabi_attribute 26, 1
  10              		.eabi_attribute 30, 2
  11              		.eabi_attribute 34, 1
  12              		.eabi_attribute 18, 4
  13              		.file	"memory_protection.c"
  14              		.text
  15              	.Ltext0:
  16              		.cfi_sections	.debug_frame
  17              		.section	.text.mpu_enable,"ax",%progbits
  18              		.align	1
  19              		.p2align 4,,15
  20              		.global	mpu_enable
  21              		.syntax unified
  22              		.thumb
  23              		.thumb_func
  24              		.fpu fpv4-sp-d16
  25              		.type	mpu_enable, %function
  26              	mpu_enable:
  27              	.LFB259:
  28              		.file 1 "..//src/memory_protection.c"
  29              		.loc 1 35 0
  30              		.cfi_startproc
  31              		@ args = 0, pretend = 0, frame = 8
  32              		@ frame_needed = 0, uses_anonymous_args = 0
  33 0000 00B5     		push	{lr}
  34              		.cfi_def_cfa_offset 4
  35              		.cfi_offset 14, -4
  36 0002 094A     		ldr	r2, .L6
  37              		.loc 1 36 0
  38 0004 0949     		ldr	r1, .L6+4
  39              		.loc 1 35 0
  40 0006 1368     		ldr	r3, [r2]
  41 0008 83B0     		sub	sp, sp, #12
  42              		.cfi_def_cfa_offset 16
  43              		.loc 1 35 0
  44 000a 0193     		str	r3, [sp, #4]
  45              		.loc 1 36 0
  46 000c 4B68     		ldr	r3, [r1, #4]
  47 000e 43F00103 		orr	r3, r3, #1
  48 0012 4B60     		str	r3, [r1, #4]
  49              		.loc 1 37 0
  50 0014 0199     		ldr	r1, [sp, #4]
  51 0016 1368     		ldr	r3, [r2]
  52 0018 9942     		cmp	r1, r3
  53 001a 02D1     		bne	.L5
  54 001c 03B0     		add	sp, sp, #12
  55              		.cfi_remember_state
  56              		.cfi_def_cfa_offset 4
  57              		@ sp needed
ARM GAS  C:\Users\Moi\AppData\Local\Temp\ccntjLsE.s 			page 2


  58 001e 5DF804FB 		ldr	pc, [sp], #4
  59              	.L5:
  60              		.cfi_restore_state
  61 0022 FFF7FEFF 		bl	__stack_chk_fail
  62              	.LVL0:
  63              	.L7:
  64 0026 00BF     		.align	2
  65              	.L6:
  66 0028 00000000 		.word	__stack_chk_guard
  67 002c 90ED00E0 		.word	-536810096
  68              		.cfi_endproc
  69              	.LFE259:
  70              		.size	mpu_enable, .-mpu_enable
  71              		.section	.text.mpu_disable,"ax",%progbits
  72              		.align	1
  73              		.p2align 4,,15
  74              		.global	mpu_disable
  75              		.syntax unified
  76              		.thumb
  77              		.thumb_func
  78              		.fpu fpv4-sp-d16
  79              		.type	mpu_disable, %function
  80              	mpu_disable:
  81              	.LFB260:
  82              		.loc 1 40 0
  83              		.cfi_startproc
  84              		@ args = 0, pretend = 0, frame = 8
  85              		@ frame_needed = 0, uses_anonymous_args = 0
  86 0000 00B5     		push	{lr}
  87              		.cfi_def_cfa_offset 4
  88              		.cfi_offset 14, -4
  89 0002 094A     		ldr	r2, .L12
  90              		.loc 1 41 0
  91 0004 0949     		ldr	r1, .L12+4
  92              		.loc 1 40 0
  93 0006 1368     		ldr	r3, [r2]
  94 0008 83B0     		sub	sp, sp, #12
  95              		.cfi_def_cfa_offset 16
  96              		.loc 1 40 0
  97 000a 0193     		str	r3, [sp, #4]
  98              		.loc 1 41 0
  99 000c 4B68     		ldr	r3, [r1, #4]
 100 000e 23F00103 		bic	r3, r3, #1
 101 0012 4B60     		str	r3, [r1, #4]
 102              		.loc 1 42 0
 103 0014 0199     		ldr	r1, [sp, #4]
 104 0016 1368     		ldr	r3, [r2]
 105 0018 9942     		cmp	r1, r3
 106 001a 02D1     		bne	.L11
 107 001c 03B0     		add	sp, sp, #12
 108              		.cfi_remember_state
 109              		.cfi_def_cfa_offset 4
 110              		@ sp needed
 111 001e 5DF804FB 		ldr	pc, [sp], #4
 112              	.L11:
 113              		.cfi_restore_state
 114 0022 FFF7FEFF 		bl	__stack_chk_fail
ARM GAS  C:\Users\Moi\AppData\Local\Temp\ccntjLsE.s 			page 3


 115              	.LVL1:
 116              	.L13:
 117 0026 00BF     		.align	2
 118              	.L12:
 119 0028 00000000 		.word	__stack_chk_guard
 120 002c 90ED00E0 		.word	-536810096
 121              		.cfi_endproc
 122              	.LFE260:
 123              		.size	mpu_disable, .-mpu_disable
 124              		.section	.text.mpu_configure_region,"ax",%progbits
 125              		.align	1
 126              		.p2align 4,,15
 127              		.global	mpu_configure_region
 128              		.syntax unified
 129              		.thumb
 130              		.thumb_func
 131              		.fpu fpv4-sp-d16
 132              		.type	mpu_configure_region, %function
 133              	mpu_configure_region:
 134              	.LFB261:
 135              		.loc 1 46 0
 136              		.cfi_startproc
 137              		@ args = 4, pretend = 0, frame = 8
 138              		@ frame_needed = 0, uses_anonymous_args = 0
 139              	.LVL2:
 140 0000 2DE9F043 		push	{r4, r5, r6, r7, r8, r9, lr}
 141              		.cfi_def_cfa_offset 28
 142              		.cfi_offset 4, -28
 143              		.cfi_offset 5, -24
 144              		.cfi_offset 6, -20
 145              		.cfi_offset 7, -16
 146              		.cfi_offset 8, -12
 147              		.cfi_offset 9, -8
 148              		.cfi_offset 14, -4
 149 0004 254E     		ldr	r6, .L24
 150 0006 83B0     		sub	sp, sp, #12
 151              		.cfi_def_cfa_offset 40
 152              		.loc 1 46 0
 153 0008 3468     		ldr	r4, [r6]
 154 000a 0194     		str	r4, [sp, #4]
 155              	.LVL3:
 156              		.loc 1 49 0
 157 000c 042A     		cmp	r2, #4
 158              		.loc 1 46 0
 159 000e 9DF82890 		ldrb	r9, [sp, #40]	@ zero_extendqisi2
 160 0012 1446     		mov	r4, r2
 161 0014 0546     		mov	r5, r0
 162 0016 0F46     		mov	r7, r1
 163 0018 9846     		mov	r8, r3
 164              		.loc 1 49 0
 165 001a 39D9     		bls	.L21
 166              	.LVL4:
 167              	.L15:
 168              		.loc 1 56 0
 169 001c B9F1000F 		cmp	r9, #0
 170              		.loc 1 57 0
 171 0020 14BF     		ite	ne
ARM GAS  C:\Users\Moi\AppData\Local\Temp\ccntjLsE.s 			page 4


 172 0022 0022     		movne	r2, #0
 173 0024 4FF08052 		moveq	r2, #268435456
 174              		.loc 1 62 0
 175 0028 6400     		lsls	r4, r4, #1
 176              	.LVL5:
 177              		.loc 1 61 0
 178 002a 02EB0863 		add	r3, r2, r8, lsl #24
 179              		.loc 1 63 0
 180 002e 013C     		subs	r4, r4, #1
 181 0030 1C44     		add	r4, r4, r3
 182              		.loc 1 52 0
 183 0032 05F00F05 		and	r5, r5, #15
 184              	.LVL6:
 185              		.loc 1 53 0
 186 0036 27F01F07 		bic	r7, r7, #31
 187              	.LVL7:
 188              	.LBB56:
 189              	.LBB57:
 190              	.LBB58:
 191              	.LBB59:
 192              	.LBB60:
 193              		.file 2 "..//ChibiOS//os/ext/CMSIS/include/core_cmFunc.h"
 194              		.loc 2 546 0
 195 003a 2023     		movs	r3, #32
 196              		.syntax unified
 197              	@ 546 "..//ChibiOS//os/ext/CMSIS/include/core_cmFunc.h" 1
 198 003c 83F31188 		MSR basepri, r3
 199              	@ 0 "" 2
 200              	.LVL8:
 201              		.thumb
 202              		.syntax unified
 203              	.LBE60:
 204              	.LBE59:
 205              	.LBE58:
 206              		.file 3 "..//ChibiOS//os/rt/include/chsys.h"
 207              		.loc 3 349 0
 208 0040 FFF7FEFF 		bl	_stats_start_measure_crit_thd
 209              	.LVL9:
 210              	.LBE57:
 211              	.LBE56:
 212              		.loc 1 68 0
 213 0044 3D43     		orrs	r5, r5, r7
 214              	.LVL10:
 215              	.LBB62:
 216              	.LBB61:
 217              		.loc 3 350 0
 218 0046 FFF7FEFF 		bl	_dbg_check_lock
 219              	.LVL11:
 220              	.LBE61:
 221              	.LBE62:
 222              		.loc 1 68 0
 223 004a 154B     		ldr	r3, .L24+4
 224 004c 1035     		adds	r5, r5, #16
 225 004e DD60     		str	r5, [r3, #12]
 226              		.loc 1 69 0
 227 0050 1C61     		str	r4, [r3, #16]
 228              	.LBB63:
ARM GAS  C:\Users\Moi\AppData\Local\Temp\ccntjLsE.s 			page 5


 229              	.LBB64:
 230              		.loc 3 360 0
 231 0052 FFF7FEFF 		bl	_dbg_check_unlock
 232              	.LVL12:
 233              		.loc 3 361 0
 234 0056 FFF7FEFF 		bl	_stats_stop_measure_crit_thd
 235              	.LVL13:
 236              		.loc 3 367 0
 237 005a 124B     		ldr	r3, .L24+8
 238 005c 1A68     		ldr	r2, [r3]
 239 005e 9A42     		cmp	r2, r3
 240 0060 04D0     		beq	.L17
 241 0062 9969     		ldr	r1, [r3, #24]
 242 0064 9368     		ldr	r3, [r2, #8]
 243 0066 8A68     		ldr	r2, [r1, #8]
 244 0068 9A42     		cmp	r2, r3
 245 006a 0DD3     		bcc	.L22
 246              	.L17:
 247              	.LVL14:
 248              	.LBB65:
 249              	.LBB66:
 250              	.LBB67:
 251              		.loc 2 546 0
 252 006c 0023     		movs	r3, #0
 253              		.syntax unified
 254              	@ 546 "..//ChibiOS//os/ext/CMSIS/include/core_cmFunc.h" 1
 255 006e 83F31188 		MSR basepri, r3
 256              	@ 0 "" 2
 257              	.LVL15:
 258              		.thumb
 259              		.syntax unified
 260              	.LBE67:
 261              	.LBE66:
 262              	.LBE65:
 263              	.LBE64:
 264              	.LBE63:
 265              	.LBB69:
 266              	.LBB70:
 267              		.file 4 "..//ChibiOS//os/ext/CMSIS/include/core_cmInstr.h"
 268              		.loc 4 371 0
 269              		.syntax unified
 270              	@ 371 "..//ChibiOS//os/ext/CMSIS/include/core_cmInstr.h" 1
 271 0072 BFF36F8F 		isb
 272              	@ 0 "" 2
 273              		.thumb
 274              		.syntax unified
 275              	.LBE70:
 276              	.LBE69:
 277              	.LBB71:
 278              	.LBB72:
 279              		.loc 4 382 0
 280              		.syntax unified
 281              	@ 382 "..//ChibiOS//os/ext/CMSIS/include/core_cmInstr.h" 1
 282 0076 BFF34F8F 		dsb
 283              	@ 0 "" 2
 284              		.thumb
 285              		.syntax unified
ARM GAS  C:\Users\Moi\AppData\Local\Temp\ccntjLsE.s 			page 6


 286              	.LBE72:
 287              	.LBE71:
 288              		.loc 1 76 0
 289 007a 019A     		ldr	r2, [sp, #4]
 290 007c 3368     		ldr	r3, [r6]
 291 007e 9A42     		cmp	r2, r3
 292 0080 0AD1     		bne	.L23
 293 0082 03B0     		add	sp, sp, #12
 294              		.cfi_remember_state
 295              		.cfi_def_cfa_offset 28
 296              		@ sp needed
 297 0084 BDE8F083 		pop	{r4, r5, r6, r7, r8, r9, pc}
 298              	.LVL16:
 299              	.L22:
 300              		.cfi_restore_state
 301              	.LBB73:
 302              	.LBB68:
 303              		.loc 3 367 0
 304 0088 0748     		ldr	r0, .L24+12
 305 008a FFF7FEFF 		bl	chSysHalt
 306              	.LVL17:
 307 008e EDE7     		b	.L17
 308              	.LVL18:
 309              	.L21:
 310              	.LBE68:
 311              	.LBE73:
 312              		.loc 1 49 0 discriminator 2
 313 0090 0648     		ldr	r0, .L24+16
 314              	.LVL19:
 315 0092 FFF7FEFF 		bl	chSysHalt
 316              	.LVL20:
 317 0096 C1E7     		b	.L15
 318              	.LVL21:
 319              	.L23:
 320              		.loc 1 76 0
 321 0098 FFF7FEFF 		bl	__stack_chk_fail
 322              	.LVL22:
 323              	.L25:
 324              		.align	2
 325              	.L24:
 326 009c 00000000 		.word	__stack_chk_guard
 327 00a0 90ED00E0 		.word	-536810096
 328 00a4 00000000 		.word	ch
 329 00a8 00000000 		.word	.LANCHOR1
 330 00ac 00000000 		.word	.LANCHOR0
 331              		.cfi_endproc
 332              	.LFE261:
 333              		.size	mpu_configure_region, .-mpu_configure_region
 334              		.section	.text.mpu_init,"ax",%progbits
 335              		.align	1
 336              		.p2align 4,,15
 337              		.global	mpu_init
 338              		.syntax unified
 339              		.thumb
 340              		.thumb_func
 341              		.fpu fpv4-sp-d16
 342              		.type	mpu_init, %function
ARM GAS  C:\Users\Moi\AppData\Local\Temp\ccntjLsE.s 			page 7


 343              	mpu_init:
 344              	.LFB262:
 345              		.loc 1 79 0
 346              		.cfi_startproc
 347              		@ args = 0, pretend = 0, frame = 8
 348              		@ frame_needed = 0, uses_anonymous_args = 0
 349 0000 30B5     		push	{r4, r5, lr}
 350              		.cfi_def_cfa_offset 12
 351              		.cfi_offset 4, -12
 352              		.cfi_offset 5, -8
 353              		.cfi_offset 14, -4
 354 0002 224D     		ldr	r5, .L32
 355              		.loc 1 81 0
 356 0004 224C     		ldr	r4, .L32+4
 357              		.loc 1 79 0
 358 0006 2B68     		ldr	r3, [r5]
 359              		.loc 1 84 0
 360 0008 224A     		ldr	r2, .L32+8
 361              		.loc 1 79 0
 362 000a 85B0     		sub	sp, sp, #20
 363              		.cfi_def_cfa_offset 32
 364              		.loc 1 79 0
 365 000c 0393     		str	r3, [sp, #12]
 366              		.loc 1 81 0
 367 000e 6368     		ldr	r3, [r4, #4]
 368 0010 43F00403 		orr	r3, r3, #4
 369 0014 6360     		str	r3, [r4, #4]
 370              		.loc 1 84 0
 371 0016 536A     		ldr	r3, [r2, #36]
 372 0018 43F48033 		orr	r3, r3, #65536
 373 001c 5362     		str	r3, [r2, #36]
 374              	.LVL23:
 375              	.LBB92:
 376              	.LBB93:
 377              	.LBB94:
 378              	.LBB95:
 379              	.LBB96:
 380              	.LBB97:
 381              	.LBB98:
 382              		.loc 2 546 0
 383 001e 2023     		movs	r3, #32
 384              		.syntax unified
 385              	@ 546 "..//ChibiOS//os/ext/CMSIS/include/core_cmFunc.h" 1
 386 0020 83F31188 		MSR basepri, r3
 387              	@ 0 "" 2
 388              	.LVL24:
 389              		.thumb
 390              		.syntax unified
 391              	.LBE98:
 392              	.LBE97:
 393              	.LBE96:
 394              		.loc 3 349 0
 395 0024 FFF7FEFF 		bl	_stats_start_measure_crit_thd
 396              	.LVL25:
 397              		.loc 3 350 0
 398 0028 FFF7FEFF 		bl	_dbg_check_lock
 399              	.LVL26:
ARM GAS  C:\Users\Moi\AppData\Local\Temp\ccntjLsE.s 			page 8


 400              	.LBE95:
 401              	.LBE94:
 402              		.loc 1 68 0
 403 002c 1722     		movs	r2, #23
 404              		.loc 1 69 0
 405 002e 1A4B     		ldr	r3, .L32+12
 406              		.loc 1 68 0
 407 0030 E260     		str	r2, [r4, #12]
 408              		.loc 1 69 0
 409 0032 2361     		str	r3, [r4, #16]
 410              	.LBB99:
 411              	.LBB100:
 412              		.loc 3 360 0
 413 0034 FFF7FEFF 		bl	_dbg_check_unlock
 414              	.LVL27:
 415              		.loc 3 361 0
 416 0038 FFF7FEFF 		bl	_stats_stop_measure_crit_thd
 417              	.LVL28:
 418              		.loc 3 367 0
 419 003c 174B     		ldr	r3, .L32+16
 420 003e 1A68     		ldr	r2, [r3]
 421 0040 9A42     		cmp	r2, r3
 422 0042 04D0     		beq	.L27
 423 0044 9969     		ldr	r1, [r3, #24]
 424 0046 9368     		ldr	r3, [r2, #8]
 425 0048 8A68     		ldr	r2, [r1, #8]
 426 004a 9A42     		cmp	r2, r3
 427 004c 18D3     		bcc	.L30
 428              	.L27:
 429              	.LVL29:
 430              	.LBB101:
 431              	.LBB102:
 432              	.LBB103:
 433              		.loc 2 546 0
 434 004e 0020     		movs	r0, #0
 435              		.syntax unified
 436              	@ 546 "..//ChibiOS//os/ext/CMSIS/include/core_cmFunc.h" 1
 437 0050 80F31188 		MSR basepri, r0
 438              	@ 0 "" 2
 439              	.LVL30:
 440              		.thumb
 441              		.syntax unified
 442              	.LBE103:
 443              	.LBE102:
 444              	.LBE101:
 445              	.LBE100:
 446              	.LBE99:
 447              	.LBB105:
 448              	.LBB106:
 449              		.loc 4 371 0
 450              		.syntax unified
 451              	@ 371 "..//ChibiOS//os/ext/CMSIS/include/core_cmInstr.h" 1
 452 0054 BFF36F8F 		isb
 453              	@ 0 "" 2
 454              		.thumb
 455              		.syntax unified
 456              	.LBE106:
ARM GAS  C:\Users\Moi\AppData\Local\Temp\ccntjLsE.s 			page 9


 457              	.LBE105:
 458              	.LBB107:
 459              	.LBB108:
 460              		.loc 4 382 0
 461              		.syntax unified
 462              	@ 382 "..//ChibiOS//os/ext/CMSIS/include/core_cmInstr.h" 1
 463 0058 BFF34F8F 		dsb
 464              	@ 0 "" 2
 465              	.LVL31:
 466              		.thumb
 467              		.syntax unified
 468              	.LBE108:
 469              	.LBE107:
 470              	.LBE93:
 471              	.LBE92:
 472              		.loc 1 96 0
 473 005c 0323     		movs	r3, #3
 474 005e 1D22     		movs	r2, #29
 475 0060 0090     		str	r0, [sp]
 476 0062 4FF00051 		mov	r1, #536870912
 477 0066 FFF7FEFF 		bl	mpu_configure_region
 478              	.LVL32:
 479              	.LBB111:
 480              	.LBB112:
 481              		.loc 1 36 0
 482 006a 094A     		ldr	r2, .L32+4
 483 006c 5368     		ldr	r3, [r2, #4]
 484 006e 43F00103 		orr	r3, r3, #1
 485 0072 5360     		str	r3, [r2, #4]
 486              	.LBE112:
 487              	.LBE111:
 488              		.loc 1 99 0
 489 0074 039A     		ldr	r2, [sp, #12]
 490 0076 2B68     		ldr	r3, [r5]
 491 0078 9A42     		cmp	r2, r3
 492 007a 05D1     		bne	.L31
 493 007c 05B0     		add	sp, sp, #20
 494              		.cfi_remember_state
 495              		.cfi_def_cfa_offset 12
 496              		@ sp needed
 497 007e 30BD     		pop	{r4, r5, pc}
 498              	.LVL33:
 499              	.L30:
 500              		.cfi_restore_state
 501              	.LBB113:
 502              	.LBB110:
 503              	.LBB109:
 504              	.LBB104:
 505              		.loc 3 367 0
 506 0080 0748     		ldr	r0, .L32+20
 507 0082 FFF7FEFF 		bl	chSysHalt
 508              	.LVL34:
 509 0086 E2E7     		b	.L27
 510              	.LVL35:
 511              	.L31:
 512              	.LBE104:
 513              	.LBE109:
ARM GAS  C:\Users\Moi\AppData\Local\Temp\ccntjLsE.s 			page 10


 514              	.LBE110:
 515              	.LBE113:
 516              		.loc 1 99 0
 517 0088 FFF7FEFF 		bl	__stack_chk_fail
 518              	.LVL36:
 519              	.L33:
 520              		.align	2
 521              	.L32:
 522 008c 00000000 		.word	__stack_chk_guard
 523 0090 90ED00E0 		.word	-536810096
 524 0094 00ED00E0 		.word	-536810240
 525 0098 09000010 		.word	268435465
 526 009c 00000000 		.word	ch
 527 00a0 00000000 		.word	.LANCHOR1
 528              		.cfi_endproc
 529              	.LFE262:
 530              		.size	mpu_init, .-mpu_init
 531              		.section	.text.MemManage_Handler,"ax",%progbits
 532              		.align	1
 533              		.p2align 4,,15
 534              		.global	MemManage_Handler
 535              		.syntax unified
 536              		.thumb
 537              		.thumb_func
 538              		.fpu fpv4-sp-d16
 539              		.type	MemManage_Handler, %function
 540              	MemManage_Handler:
 541              	.LFB263:
 542              		.loc 1 102 0
 543              		.cfi_startproc
 544              		@ args = 0, pretend = 0, frame = 112
 545              		@ frame_needed = 0, uses_anonymous_args = 0
 546 0000 70B5     		push	{r4, r5, r6, lr}
 547              		.cfi_def_cfa_offset 16
 548              		.cfi_offset 4, -16
 549              		.cfi_offset 5, -12
 550              		.cfi_offset 6, -8
 551              		.cfi_offset 14, -4
 552              		.loc 1 106 0
 553 0002 1A4D     		ldr	r5, .L48
 554 0004 1A4C     		ldr	r4, .L48+4
 555              		.loc 1 102 0
 556 0006 1B4E     		ldr	r6, .L48+8
 557              		.loc 1 106 0
 558 0008 0FCD     		ldmia	r5!, {r0, r1, r2, r3}
 559 000a 0FC4     		stmia	r4!, {r0, r1, r2, r3}
 560              		.loc 1 102 0
 561 000c 9EB0     		sub	sp, sp, #120
 562              		.cfi_def_cfa_offset 136
 563              		.loc 1 106 0
 564 000e 2A68     		ldr	r2, [r5]
 565              		.loc 1 102 0
 566 0010 3368     		ldr	r3, [r6]
 567              		.loc 1 106 0
 568 0012 2280     		strh	r2, [r4]	@ movhi
 569              		.loc 1 102 0
 570 0014 1D93     		str	r3, [sp, #116]
ARM GAS  C:\Users\Moi\AppData\Local\Temp\ccntjLsE.s 			page 11


 571              	.LBB114:
 572              	.LBB115:
 573              		.loc 2 428 0
 574              		.syntax unified
 575              	@ 428 "..//ChibiOS//os/ext/CMSIS/include/core_cmFunc.h" 1
 576 0016 EFF30981 		MRS r1, psp
 577              	
 578              	@ 0 "" 2
 579              		.thumb
 580              		.syntax unified
 581              	.LBE115:
 582              	.LBE114:
 583              		.loc 1 111 0
 584 001a 6822     		movs	r2, #104
 585 001c 03A8     		add	r0, sp, #12
 586 001e FFF7FEFF 		bl	memcpy
 587              	.LVL37:
 588              		.loc 1 114 0
 589 0022 154B     		ldr	r3, .L48+12
 590 0024 9D6A     		ldr	r5, [r3, #40]
 591              	.LVL38:
 592              		.loc 1 117 0
 593 0026 AA07     		lsls	r2, r5, #30
 594 0028 14D4     		bmi	.L46
 595              	.L35:
 596              		.loc 1 123 0
 597 002a EB07     		lsls	r3, r5, #31
 598 002c 08D5     		bpl	.L36
 599              		.loc 1 126 0
 600 002e 124B     		ldr	r3, .L48+12
 601              		.loc 1 124 0
 602 0030 0899     		ldr	r1, [sp, #32]
 603              		.loc 1 126 0
 604 0032 5B6B     		ldr	r3, [r3, #52]
 605              		.loc 1 124 0
 606 0034 114A     		ldr	r2, .L48+16
 607 0036 0091     		str	r1, [sp]
 608 0038 0D48     		ldr	r0, .L48+4
 609 003a 8021     		movs	r1, #128
 610 003c FFF7FEFF 		bl	snprintf
 611              	.LVL39:
 612              	.L36:
 613              		.loc 1 129 0
 614 0040 1D9A     		ldr	r2, [sp, #116]
 615 0042 3368     		ldr	r3, [r6]
 616 0044 9A42     		cmp	r2, r3
 617 0046 0FD1     		bne	.L47
 618 0048 0948     		ldr	r0, .L48+4
 619              		.loc 1 130 0
 620 004a 1EB0     		add	sp, sp, #120
 621              		.cfi_remember_state
 622              		.cfi_def_cfa_offset 16
 623              		@ sp needed
 624 004c BDE87040 		pop	{r4, r5, r6, lr}
 625              		.cfi_restore 14
 626              		.cfi_restore 6
 627              		.cfi_restore 5
ARM GAS  C:\Users\Moi\AppData\Local\Temp\ccntjLsE.s 			page 12


 628              		.cfi_restore 4
 629              		.cfi_def_cfa_offset 0
 630              	.LVL40:
 631              		.loc 1 129 0
 632 0050 FFF7FEBF 		b	chSysHalt
 633              	.LVL41:
 634              	.L46:
 635              		.cfi_restore_state
 636              		.loc 1 118 0
 637 0054 099A     		ldr	r2, [sp, #36]
 638              		.loc 1 119 0
 639 0056 5B6B     		ldr	r3, [r3, #52]
 640              		.loc 1 118 0
 641 0058 0092     		str	r2, [sp]
 642 005a A4F11000 		sub	r0, r4, #16
 643 005e 084A     		ldr	r2, .L48+20
 644 0060 8021     		movs	r1, #128
 645 0062 FFF7FEFF 		bl	snprintf
 646              	.LVL42:
 647 0066 E0E7     		b	.L35
 648              	.L47:
 649              		.loc 1 129 0
 650 0068 FFF7FEFF 		bl	__stack_chk_fail
 651              	.LVL43:
 652              	.L49:
 653              		.align	2
 654              	.L48:
 655 006c 44000000 		.word	.LC0
 656 0070 00000000 		.word	.LANCHOR2
 657 0074 00000000 		.word	__stack_chk_guard
 658 0078 00ED00E0 		.word	-536810240
 659 007c 20000000 		.word	.LC2
 660 0080 00000000 		.word	.LC1
 661              		.cfi_endproc
 662              	.LFE263:
 663              		.size	MemManage_Handler, .-MemManage_Handler
 664              		.section	.bss.msg.11604,"aw",%nobits
 665              		.align	2
 666              		.set	.LANCHOR2,. + 0
 667              		.type	msg.11604, %object
 668              		.size	msg.11604, 128
 669              	msg.11604:
 670 0000 00000000 		.space	128
 670      00000000 
 670      00000000 
 670      00000000 
 670      00000000 
 671              		.section	.rodata.MemManage_Handler.str1.4,"aMS",%progbits,1
 672              		.align	2
 673              	.LC1:
 674 0000 496E7661 		.ascii	"Invalid access to %p (pc=%p)\000"
 674      6C696420 
 674      61636365 
 674      73732074 
 674      6F202570 
 675 001d 000000   		.space	3
 676              	.LC2:
ARM GAS  C:\Users\Moi\AppData\Local\Temp\ccntjLsE.s 			page 13


 677 0020 4A756D70 		.ascii	"Jumped to XN region %p (lr_thd=%p)\000"
 677      65642074 
 677      6F20584E 
 677      20726567 
 677      696F6E20 
 678 0043 00       		.space	1
 679              	.LC0:
 680 0044 4D656D4D 		.ascii	"MemManage_Handler\000"
 680      616E6167 
 680      655F4861 
 680      6E646C65 
 680      7200
 681              		.section	.rodata.__func__.11595,"a",%progbits
 682              		.align	2
 683              		.set	.LANCHOR0,. + 0
 684              		.type	__func__.11595, %object
 685              		.size	__func__.11595, 21
 686              	__func__.11595:
 687 0000 6D70755F 		.ascii	"mpu_configure_region\000"
 687      636F6E66 
 687      69677572 
 687      655F7265 
 687      67696F6E 
 688              		.section	.rodata.__func__.8875,"a",%progbits
 689              		.align	2
 690              		.set	.LANCHOR1,. + 0
 691              		.type	__func__.8875, %object
 692              		.size	__func__.8875, 12
 693              	__func__.8875:
 694 0000 63685379 		.ascii	"chSysUnlock\000"
 694      73556E6C 
 694      6F636B00 
 695              		.text
 696              	.Letext0:
 697              		.file 5 "c:\\users\\moi\\documents\\_microinfo\\epuck-eclipse\\tools\\gcc-arm-none-eabi-7-2017-q4-
 698              		.file 6 "c:\\users\\moi\\documents\\_microinfo\\epuck-eclipse\\tools\\gcc-arm-none-eabi-7-2017-q4-
 699              		.file 7 "c:\\users\\moi\\documents\\_microinfo\\epuck-eclipse\\tools\\gcc-arm-none-eabi-7-2017-q4-
 700              		.file 8 "c:\\users\\moi\\documents\\_microinfo\\epuck-eclipse\\tools\\gcc-arm-none-eabi-7-2017-q4-
 701              		.file 9 "c:\\users\\moi\\documents\\_microinfo\\epuck-eclipse\\tools\\gcc-arm-none-eabi-7-2017-q4-
 702              		.file 10 "c:\\users\\moi\\documents\\_microinfo\\epuck-eclipse\\tools\\gcc-arm-none-eabi-7-2017-q4
 703              		.file 11 "c:\\users\\moi\\documents\\_microinfo\\epuck-eclipse\\tools\\gcc-arm-none-eabi-7-2017-q4
 704              		.file 12 "..//ChibiOS//os/rt/ports/ARMCMx/compilers/GCC/chtypes.h"
 705              		.file 13 "..//ChibiOS//os/rt/include/chsystypes.h"
 706              		.file 14 "..//ChibiOS//os/rt/include/chschd.h"
 707              		.file 15 "..//ChibiOS//os/ext/CMSIS/include/core_cm4.h"
 708              		.file 16 "..//ChibiOS//os/ext/CMSIS/ST/system_stm32f4xx.h"
 709              		.file 17 "..//ChibiOS//os/ext/CMSIS/ST/stm32f407xx.h"
 710              		.file 18 "..//ChibiOS//os/rt/ports/ARMCMx/chcore.h"
 711              		.file 19 "..//ChibiOS//os/rt/ports/ARMCMx/chcore_v7m.h"
 712              		.file 20 "..//ChibiOS//os/rt/include/chdebug.h"
 713              		.file 21 "..//ChibiOS//os/rt/include/chtm.h"
 714              		.file 22 "..//ChibiOS//os/rt/include/chstats.h"
 715              		.file 23 "..//ChibiOS//os/rt/include/chsem.h"
 716              		.file 24 "..//ChibiOS//os/rt/include/chmtx.h"
 717              		.file 25 "..//ChibiOS//os/rt/include/chregistry.h"
 718              		.file 26 "..//ChibiOS//os/rt/include/chevents.h"
 719              		.file 27 "..//ChibiOS//os/rt/include/chqueues.h"
ARM GAS  C:\Users\Moi\AppData\Local\Temp\ccntjLsE.s 			page 14


 720              		.file 28 "..//ChibiOS//os/hal/ports/STM32/STM32F4xx/stm32_dma.h"
 721              		.file 29 "..//ChibiOS//os/hal/include/hal_ioblock.h"
 722              		.file 30 "..//ChibiOS//os/hal/ports/STM32/LLD/GPIOv2/pal_lld.h"
 723              		.file 31 "..//ChibiOS//os/hal/include/adc.h"
 724              		.file 32 "..//ChibiOS//os/hal/ports/STM32/STM32F4xx/adc_lld.h"
 725              		.file 33 "..//ChibiOS//os/hal/include/can.h"
 726              		.file 34 "..//ChibiOS//os/hal/ports/STM32/LLD/can_lld.h"
 727              		.file 35 "..//ChibiOS//os/hal/include/dac.h"
 728              		.file 36 "..//ChibiOS//os/hal/ports/STM32/LLD/DACv1/dac_lld.h"
 729              		.file 37 "..//ChibiOS//os/hal/include/ext.h"
 730              		.file 38 "..//ChibiOS//os/hal/ports/STM32/LLD/ext_lld.h"
 731              		.file 39 "..//ChibiOS//os/hal/include/gpt.h"
 732              		.file 40 "..//ChibiOS//os/hal/ports/STM32/LLD/TIMv1/gpt_lld.h"
 733              		.file 41 "..//ChibiOS//os/hal/ports/STM32/LLD/TIMv1/stm32_tim.h"
 734              		.file 42 "..//ChibiOS//os/hal/include/i2c.h"
 735              		.file 43 "..//ChibiOS//os/hal/ports/STM32/LLD/I2Cv1/i2c_lld.h"
 736              		.file 44 "..//ChibiOS//os/hal/include/i2s.h"
 737              		.file 45 "..//ChibiOS//os/hal/ports/STM32/LLD/SPIv1/i2s_lld.h"
 738              		.file 46 "..//ChibiOS//os/hal/include/pwm.h"
 739              		.file 47 "..//ChibiOS//os/hal/ports/STM32/LLD/TIMv1/pwm_lld.h"
 740              		.file 48 "..//ChibiOS//os/hal/include/serial.h"
 741              		.file 49 "..//ChibiOS//os/hal/ports/STM32/LLD/USARTv1/serial_lld.h"
 742              		.file 50 "..//ChibiOS//os/hal/include/sdc.h"
 743              		.file 51 "..//ChibiOS//os/hal/ports/STM32/LLD/sdc_lld.h"
 744              		.file 52 "..//ChibiOS//os/hal/include/spi.h"
 745              		.file 53 "..//ChibiOS//os/hal/ports/STM32/LLD/SPIv1/spi_lld.h"
 746              		.file 54 "..//ChibiOS//os/hal/include/usb.h"
 747              		.file 55 "..//ChibiOS//os/hal/ports/STM32/LLD/OTGv1/usb_lld.h"
 748              		.file 56 "..//ChibiOS//os/hal/ports/STM32/LLD/OTGv1/stm32_otg.h"
 749              		.file 57 "..//src/memory_protection.h"
 750              		.file 58 "c:\\users\\moi\\documents\\_microinfo\\epuck-eclipse\\tools\\gcc-arm-none-eabi-7-2017-q4
 751              		.file 59 "<built-in>"