ARM GAS  C:\Users\Moi\AppData\Local\Temp\cc7S0hj2.s 			page 1


   1              		.cpu cortex-m4
   2              		.eabi_attribute 27, 1
   3              		.eabi_attribute 28, 1
   4              		.eabi_attribute 20, 1
   5              		.eabi_attribute 21, 1
   6              		.eabi_attribute 23, 3
   7              		.eabi_attribute 24, 1
   8              		.eabi_attribute 25, 1
   9              		.eabi_attribute 26, 1
  10              		.eabi_attribute 30, 2
  11              		.eabi_attribute 34, 1
  12              		.eabi_attribute 18, 4
  13              		.file	"mp45dt02_processing.c"
  14              		.text
  15              	.Ltext0:
  16              		.cfi_sections	.debug_frame
  17              		.section	.text.mp45dt02SPICb,"ax",%progbits
  18              		.align	1
  19              		.p2align 4,,15
  20              		.global	mp45dt02SPICb
  21              		.syntax unified
  22              		.thumb
  23              		.thumb_func
  24              		.fpu fpv4-sp-d16
  25              		.type	mp45dt02SPICb, %function
  26              	mp45dt02SPICb:
  27              	.LFB259:
  28              		.file 1 "..//src/audio/mp45dt02_processing.c"
  29              		.loc 1 343 0
  30              		.cfi_startproc
  31              		@ args = 0, pretend = 0, frame = 8
  32              		@ frame_needed = 0, uses_anonymous_args = 0
  33              	.LVL0:
  34 0000 70B5     		push	{r4, r5, r6, lr}
  35              		.cfi_def_cfa_offset 16
  36              		.cfi_offset 4, -16
  37              		.cfi_offset 5, -12
  38              		.cfi_offset 6, -8
  39              		.cfi_offset 14, -4
  40 0002 114C     		ldr	r4, .L6
  41 0004 82B0     		sub	sp, sp, #8
  42              		.cfi_def_cfa_offset 24
  43              		.loc 1 343 0
  44 0006 2368     		ldr	r3, [r4]
  45 0008 0193     		str	r3, [sp, #4]
  46              	.LVL1:
  47 000a 0E46     		mov	r6, r1
  48 000c 1546     		mov	r5, r2
  49              	.LBB62:
  50              	.LBB63:
  51              	.LBB64:
  52              	.LBB65:
  53              	.LBB66:
  54              	.LBB67:
  55              		.file 2 "..//ChibiOS//os/ext/CMSIS/include/core_cmFunc.h"
  56              		.loc 2 546 0
  57 000e 2023     		movs	r3, #32
ARM GAS  C:\Users\Moi\AppData\Local\Temp\cc7S0hj2.s 			page 2


  58              		.syntax unified
  59              	@ 546 "..//ChibiOS//os/ext/CMSIS/include/core_cmFunc.h" 1
  60 0010 83F31188 		MSR basepri, r3
  61              	@ 0 "" 2
  62              	.LVL2:
  63              		.thumb
  64              		.syntax unified
  65              	.LBE67:
  66              	.LBE66:
  67              	.LBE65:
  68              	.LBE64:
  69              		.file 3 "..//ChibiOS//os/rt/include/chsys.h"
  70              		.loc 3 389 0
  71 0014 FFF7FEFF 		bl	_stats_start_measure_crit_isr
  72              	.LVL3:
  73              		.loc 3 390 0
  74 0018 FFF7FEFF 		bl	_dbg_check_lock_from_isr
  75              	.LVL4:
  76              	.LBE63:
  77              	.LBE62:
  78              		.loc 1 347 0
  79 001c 0B4B     		ldr	r3, .L6+4
  80              		.loc 1 349 0
  81 001e 0C48     		ldr	r0, .L6+8
  82              		.loc 1 348 0
  83 0020 C3E90065 		strd	r6, r5, [r3]
  84              		.loc 1 349 0
  85 0024 FFF7FEFF 		bl	chSemSignalI
  86              	.LVL5:
  87              	.LBB68:
  88              	.LBB69:
  89              		.loc 3 408 0
  90 0028 FFF7FEFF 		bl	_dbg_check_unlock_from_isr
  91              	.LVL6:
  92              		.loc 3 409 0
  93 002c FFF7FEFF 		bl	_stats_stop_measure_crit_isr
  94              	.LVL7:
  95              	.LBB70:
  96              	.LBB71:
  97              	.LBB72:
  98              	.LBB73:
  99              		.loc 2 546 0
 100 0030 0023     		movs	r3, #0
 101              		.syntax unified
 102              	@ 546 "..//ChibiOS//os/ext/CMSIS/include/core_cmFunc.h" 1
 103 0032 83F31188 		MSR basepri, r3
 104              	@ 0 "" 2
 105              	.LVL8:
 106              		.thumb
 107              		.syntax unified
 108              	.LBE73:
 109              	.LBE72:
 110              	.LBE71:
 111              	.LBE70:
 112              	.LBE69:
 113              	.LBE68:
 114              		.loc 1 351 0
ARM GAS  C:\Users\Moi\AppData\Local\Temp\cc7S0hj2.s 			page 3


 115 0036 019A     		ldr	r2, [sp, #4]
 116 0038 2368     		ldr	r3, [r4]
 117 003a 9A42     		cmp	r2, r3
 118 003c 01D1     		bne	.L5
 119 003e 02B0     		add	sp, sp, #8
 120              		.cfi_remember_state
 121              		.cfi_def_cfa_offset 16
 122              		@ sp needed
 123 0040 70BD     		pop	{r4, r5, r6, pc}
 124              	.LVL9:
 125              	.L5:
 126              		.cfi_restore_state
 127 0042 FFF7FEFF 		bl	__stack_chk_fail
 128              	.LVL10:
 129              	.L7:
 130 0046 00BF     		.align	2
 131              	.L6:
 132 0048 00000000 		.word	__stack_chk_guard
 133 004c 00000000 		.word	.LANCHOR0
 134 0050 00000000 		.word	.LANCHOR1
 135              		.cfi_endproc
 136              	.LFE259:
 137              		.size	mp45dt02SPICb, .-mp45dt02SPICb
 138              		.section	.text.mp45dt02I2SCb,"ax",%progbits
 139              		.align	1
 140              		.p2align 4,,15
 141              		.syntax unified
 142              		.thumb
 143              		.thumb_func
 144              		.fpu fpv4-sp-d16
 145              		.type	mp45dt02I2SCb, %function
 146              	mp45dt02I2SCb:
 147              	.LFB258:
 148              		.loc 1 334 0
 149              		.cfi_startproc
 150              		@ args = 0, pretend = 0, frame = 8
 151              		@ frame_needed = 0, uses_anonymous_args = 0
 152              	.LVL11:
 153 0000 70B5     		push	{r4, r5, r6, lr}
 154              		.cfi_def_cfa_offset 16
 155              		.cfi_offset 4, -16
 156              		.cfi_offset 5, -12
 157              		.cfi_offset 6, -8
 158              		.cfi_offset 14, -4
 159 0002 114C     		ldr	r4, .L12
 160 0004 82B0     		sub	sp, sp, #8
 161              		.cfi_def_cfa_offset 24
 162              		.loc 1 334 0
 163 0006 2368     		ldr	r3, [r4]
 164 0008 0193     		str	r3, [sp, #4]
 165              	.LVL12:
 166 000a 0E46     		mov	r6, r1
 167 000c 1546     		mov	r5, r2
 168              	.LBB74:
 169              	.LBB75:
 170              	.LBB76:
 171              	.LBB77:
ARM GAS  C:\Users\Moi\AppData\Local\Temp\cc7S0hj2.s 			page 4


 172              	.LBB78:
 173              	.LBB79:
 174              		.loc 2 546 0
 175 000e 2023     		movs	r3, #32
 176              		.syntax unified
 177              	@ 546 "..//ChibiOS//os/ext/CMSIS/include/core_cmFunc.h" 1
 178 0010 83F31188 		MSR basepri, r3
 179              	@ 0 "" 2
 180              	.LVL13:
 181              		.thumb
 182              		.syntax unified
 183              	.LBE79:
 184              	.LBE78:
 185              	.LBE77:
 186              	.LBE76:
 187              		.loc 3 389 0
 188 0014 FFF7FEFF 		bl	_stats_start_measure_crit_isr
 189              	.LVL14:
 190              		.loc 3 390 0
 191 0018 FFF7FEFF 		bl	_dbg_check_lock_from_isr
 192              	.LVL15:
 193              	.LBE75:
 194              	.LBE74:
 195              		.loc 1 337 0
 196 001c 0B4B     		ldr	r3, .L12+4
 197              		.loc 1 339 0
 198 001e 0C48     		ldr	r0, .L12+8
 199              		.loc 1 338 0
 200 0020 C3E90065 		strd	r6, r5, [r3]
 201              		.loc 1 339 0
 202 0024 FFF7FEFF 		bl	chSemSignalI
 203              	.LVL16:
 204              	.LBB80:
 205              	.LBB81:
 206              		.loc 3 408 0
 207 0028 FFF7FEFF 		bl	_dbg_check_unlock_from_isr
 208              	.LVL17:
 209              		.loc 3 409 0
 210 002c FFF7FEFF 		bl	_stats_stop_measure_crit_isr
 211              	.LVL18:
 212              	.LBB82:
 213              	.LBB83:
 214              	.LBB84:
 215              	.LBB85:
 216              		.loc 2 546 0
 217 0030 0023     		movs	r3, #0
 218              		.syntax unified
 219              	@ 546 "..//ChibiOS//os/ext/CMSIS/include/core_cmFunc.h" 1
 220 0032 83F31188 		MSR basepri, r3
 221              	@ 0 "" 2
 222              	.LVL19:
 223              		.thumb
 224              		.syntax unified
 225              	.LBE85:
 226              	.LBE84:
 227              	.LBE83:
 228              	.LBE82:
ARM GAS  C:\Users\Moi\AppData\Local\Temp\cc7S0hj2.s 			page 5


 229              	.LBE81:
 230              	.LBE80:
 231              		.loc 1 341 0
 232 0036 019A     		ldr	r2, [sp, #4]
 233 0038 2368     		ldr	r3, [r4]
 234 003a 9A42     		cmp	r2, r3
 235 003c 01D1     		bne	.L11
 236 003e 02B0     		add	sp, sp, #8
 237              		.cfi_remember_state
 238              		.cfi_def_cfa_offset 16
 239              		@ sp needed
 240 0040 70BD     		pop	{r4, r5, r6, pc}
 241              	.LVL20:
 242              	.L11:
 243              		.cfi_restore_state
 244 0042 FFF7FEFF 		bl	__stack_chk_fail
 245              	.LVL21:
 246              	.L13:
 247 0046 00BF     		.align	2
 248              	.L12:
 249 0048 00000000 		.word	__stack_chk_guard
 250 004c 00000000 		.word	.LANCHOR2
 251 0050 00000000 		.word	.LANCHOR1
 252              		.cfi_endproc
 253              	.LFE258:
 254              		.size	mp45dt02I2SCb, .-mp45dt02I2SCb
 255              		.section	.text.DataProcessing,"ax",%progbits
 256              		.align	1
 257              		.p2align 4,,15
 258              		.syntax unified
 259              		.thumb
 260              		.thumb_func
 261              		.fpu fpv4-sp-d16
 262              		.type	DataProcessing, %function
 263              	DataProcessing:
 264              	.LFB257:
 265              		.loc 1 216 0
 266              		.cfi_startproc
 267              		@ args = 0, pretend = 0, frame = 16
 268              		@ frame_needed = 0, uses_anonymous_args = 0
 269              	.LVL22:
 270 0000 2DE9F04F 		push	{r4, r5, r6, r7, r8, r9, r10, fp, lr}
 271              		.cfi_def_cfa_offset 36
 272              		.cfi_offset 4, -36
 273              		.cfi_offset 5, -32
 274              		.cfi_offset 6, -28
 275              		.cfi_offset 7, -24
 276              		.cfi_offset 8, -20
 277              		.cfi_offset 9, -16
 278              		.cfi_offset 10, -12
 279              		.cfi_offset 11, -8
 280              		.cfi_offset 14, -4
 281              	.LBB86:
 282              	.LBB87:
 283              		.file 4 "..//ChibiOS//os/rt/include/chregistry.h"
 284              		.loc 4 135 0
 285 0004 644B     		ldr	r3, .L33
ARM GAS  C:\Users\Moi\AppData\Local\Temp\cc7S0hj2.s 			page 6


 286 0006 6549     		ldr	r1, .L33+4
 287 0008 9B69     		ldr	r3, [r3, #24]
 288              	.LBE87:
 289              	.LBE86:
 290              		.loc 1 216 0
 291 000a 654A     		ldr	r2, .L33+8
 292              	.LBB89:
 293              	.LBB88:
 294              		.loc 4 135 0
 295 000c 9961     		str	r1, [r3, #24]
 296              	.LBE88:
 297              	.LBE89:
 298              		.loc 1 226 0
 299 000e 93F82130 		ldrb	r3, [r3, #33]	@ zero_extendqisi2
 300              		.loc 1 216 0
 301 0012 1268     		ldr	r2, [r2]
 302 0014 85B0     		sub	sp, sp, #20
 303              		.cfi_def_cfa_offset 56
 304              		.loc 1 226 0
 305 0016 5B07     		lsls	r3, r3, #29
 306              		.loc 1 216 0
 307 0018 0392     		str	r2, [sp, #12]
 308              	.LVL23:
 309              		.loc 1 226 0
 310 001a 00F1AF80 		bmi	.L14
 311              	.LVL24:
 312              	.L23:
 313              		.loc 1 229 0
 314 001e 6148     		ldr	r0, .L33+12
 315 0020 FFF7FEFF 		bl	chSemWait
 316              	.LVL25:
 317              		.loc 1 230 0
 318 0024 5F48     		ldr	r0, .L33+12
 319 0026 FFF7FEFF 		bl	chSemWait
 320              	.LVL26:
 321              	.LBB90:
 322              	.LBB91:
 323              		.file 5 "..//ChibiOS//os/rt/include/chthreads.h"
 324              		.loc 5 233 0
 325 002a 5B4B     		ldr	r3, .L33
 326 002c 9B69     		ldr	r3, [r3, #24]
 327              	.LBE91:
 328              	.LBE90:
 329              		.loc 1 232 0
 330 002e 93F82120 		ldrb	r2, [r3, #33]	@ zero_extendqisi2
 331 0032 12F00402 		ands	r2, r2, #4
 332 0036 40F0A180 		bne	.L14
 333              		.loc 1 240 0
 334 003a 5B4D     		ldr	r5, .L33+16
 335              		.loc 1 239 0
 336 003c 5B48     		ldr	r0, .L33+20
 337              		.loc 1 240 0
 338 003e 2B68     		ldr	r3, [r5]
 339              		.loc 1 239 0
 340 0040 0168     		ldr	r1, [r0]
 341              		.loc 1 247 0
 342 0042 0446     		mov	r4, r0
ARM GAS  C:\Users\Moi\AppData\Local\Temp\cc7S0hj2.s 			page 7


 343 0044 4068     		ldr	r0, [r0, #4]
 344              		.loc 1 240 0
 345 0046 05EB8303 		add	r3, r5, r3, lsl #2
 346              		.loc 1 239 0
 347 004a 04EB8101 		add	r1, r4, r1, lsl #2
 348              		.loc 1 240 0
 349 004e 03F50279 		add	r9, r3, #520
 350              		.loc 1 247 0
 351 0052 4300     		lsls	r3, r0, #1
 352              		.loc 1 239 0
 353 0054 01F10808 		add	r8, r1, #8
 354              	.LVL27:
 355              		.loc 1 247 0
 356 0058 0193     		str	r3, [sp, #4]
 357 005a 43D0     		beq	.L17
 358 005c DFF85CB1 		ldr	fp, .L33+36
 359 0060 534B     		ldr	r3, .L33+24
 360 0062 DFF868A1 		ldr	r10, .L33+52
 361 0066 0120     		movs	r0, #1
 362              	.LVL28:
 363              	.L18:
 364              		.loc 1 248 0 discriminator 3
 365 0068 18F81250 		ldrb	r5, [r8, r2, lsl #1]	@ zero_extendqisi2
 366              	.LVL29:
 367              		.loc 1 249 0 discriminator 3
 368 006c 18F80060 		ldrb	r6, [r8, r0]	@ zero_extendqisi2
 369              	.LVL30:
 370              		.loc 1 253 0 discriminator 3
 371 0070 19F81210 		ldrb	r1, [r9, r2, lsl #1]	@ zero_extendqisi2
 372              	.LVL31:
 373              		.loc 1 254 0 discriminator 3
 374 0074 19F80040 		ldrb	r4, [r9, r0]	@ zero_extendqisi2
 375              	.LVL32:
 376              		.loc 1 250 0 discriminator 3
 377 0078 05F0550C 		and	ip, r5, #85
 378              		.loc 1 251 0 discriminator 3
 379 007c 7708     		lsrs	r7, r6, #1
 380              		.loc 1 250 0 discriminator 3
 381 007e 06F05506 		and	r6, r6, #85
 382 0082 13F80CC0 		ldrb	ip, [r3, ip]	@ zero_extendqisi2
 383 0086 9E5D     		ldrb	r6, [r3, r6]	@ zero_extendqisi2
 384              		.loc 1 255 0 discriminator 3
 385 0088 01F0550E 		and	lr, r1, #85
 386              		.loc 1 250 0 discriminator 3
 387 008c 4CEA0616 		orr	r6, ip, r6, lsl #4
 388              		.loc 1 256 0 discriminator 3
 389 0090 4908     		lsrs	r1, r1, #1
 390              	.LVL33:
 391 0092 4FEA540C 		lsr	ip, r4, #1
 392 0096 01F05501 		and	r1, r1, #85
 393              		.loc 1 255 0 discriminator 3
 394 009a 04F05504 		and	r4, r4, #85
 395              	.LVL34:
 396              		.loc 1 256 0 discriminator 3
 397 009e 0CF0550C 		and	ip, ip, #85
 398              		.loc 1 251 0 discriminator 3
 399 00a2 6D08     		lsrs	r5, r5, #1
ARM GAS  C:\Users\Moi\AppData\Local\Temp\cc7S0hj2.s 			page 8


 400              		.loc 1 255 0 discriminator 3
 401 00a4 13F80EE0 		ldrb	lr, [r3, lr]	@ zero_extendqisi2
 402              		.loc 1 256 0 discriminator 3
 403 00a8 595C     		ldrb	r1, [r3, r1]	@ zero_extendqisi2
 404              		.loc 1 255 0 discriminator 3
 405 00aa 1C5D     		ldrb	r4, [r3, r4]	@ zero_extendqisi2
 406              		.loc 1 256 0 discriminator 3
 407 00ac 13F80CC0 		ldrb	ip, [r3, ip]	@ zero_extendqisi2
 408              		.loc 1 250 0 discriminator 3
 409 00b0 0BF81260 		strb	r6, [fp, r2, lsl #1]
 410              		.loc 1 251 0 discriminator 3
 411 00b4 05F05505 		and	r5, r5, #85
 412 00b8 07F05507 		and	r7, r7, #85
 413              		.loc 1 256 0 discriminator 3
 414 00bc 41EA0C11 		orr	r1, r1, ip, lsl #4
 415              		.loc 1 255 0 discriminator 3
 416 00c0 4EEA041E 		orr	lr, lr, r4, lsl #4
 417 00c4 0AF812E0 		strb	lr, [r10, r2, lsl #1]
 418              		.loc 1 251 0 discriminator 3
 419 00c8 5D5D     		ldrb	r5, [r3, r5]	@ zero_extendqisi2
 420              		.loc 1 256 0 discriminator 3
 421 00ca 0AF80010 		strb	r1, [r10, r0]
 422              		.loc 1 251 0 discriminator 3
 423 00ce DF5D     		ldrb	r7, [r3, r7]	@ zero_extendqisi2
 424              		.loc 1 247 0 discriminator 3
 425 00d0 0199     		ldr	r1, [sp, #4]
 426 00d2 0132     		adds	r2, r2, #1
 427              	.LVL35:
 428              		.loc 1 251 0 discriminator 3
 429 00d4 45EA0715 		orr	r5, r5, r7, lsl #4
 430              		.loc 1 247 0 discriminator 3
 431 00d8 9142     		cmp	r1, r2
 432              		.loc 1 251 0 discriminator 3
 433 00da 0BF80050 		strb	r5, [fp, r0]
 434 00de 00F10200 		add	r0, r0, #2
 435              	.LVL36:
 436              		.loc 1 247 0 discriminator 3
 437 00e2 C1D1     		bne	.L18
 438              	.LVL37:
 439              	.L17:
 440              		.loc 1 302 0
 441 00e4 334B     		ldr	r3, .L33+28
 442 00e6 3449     		ldr	r1, .L33+32
 443 00e8 3448     		ldr	r0, .L33+36
 444              		.loc 1 309 0
 445 00ea 354D     		ldr	r5, .L33+40
 446              		.loc 1 302 0
 447 00ec 0422     		movs	r2, #4
 448 00ee FFF7FEFF 		bl	PDM_Filter_64_LSB
 449              	.LVL38:
 450              		.loc 1 304 0
 451 00f2 344B     		ldr	r3, .L33+44
 452 00f4 3449     		ldr	r1, .L33+48
 453 00f6 3548     		ldr	r0, .L33+52
 454 00f8 0422     		movs	r2, #4
 455 00fa FFF7FEFF 		bl	PDM_Filter_64_LSB
 456              	.LVL39:
ARM GAS  C:\Users\Moi\AppData\Local\Temp\cc7S0hj2.s 			page 9


 457              		.loc 1 302 0
 458 00fe 344B     		ldr	r3, .L33+56
 459 0100 3449     		ldr	r1, .L33+60
 460 0102 3548     		ldr	r0, .L33+64
 461 0104 0422     		movs	r2, #4
 462 0106 FFF7FEFF 		bl	PDM_Filter_64_LSB
 463              	.LVL40:
 464              		.loc 1 304 0
 465 010a 344B     		ldr	r3, .L33+68
 466 010c 3449     		ldr	r1, .L33+72
 467 010e 3548     		ldr	r0, .L33+76
 468 0110 0422     		movs	r2, #4
 469 0112 FFF7FEFF 		bl	PDM_Filter_64_LSB
 470              	.LVL41:
 471              		.loc 1 309 0
 472 0116 DFF8E0C0 		ldr	ip, .L33+96
 473 011a 2868     		ldr	r0, [r5]
 474 011c 9CF80070 		ldrb	r7, [ip]	@ zero_extendqisi2
 475 0120 254A     		ldr	r2, .L33+32
 476 0122 2949     		ldr	r1, .L33+48
 477 0124 00EBC713 		add	r3, r0, r7, lsl #7
 478 0128 02F14006 		add	r6, r2, #64
 479              	.LVL42:
 480              	.L19:
 481              		.loc 1 309 0 is_stmt 0 discriminator 3
 482 012c 1488     		ldrh	r4, [r2]
 483 012e 1C80     		strh	r4, [r3]	@ movhi
 484              		.loc 1 310 0 is_stmt 1 discriminator 3
 485 0130 5488     		ldrh	r4, [r2, #2]
 486 0132 5C80     		strh	r4, [r3, #2]	@ movhi
 487              		.loc 1 311 0 discriminator 3
 488 0134 4C88     		ldrh	r4, [r1, #2]
 489 0136 9C80     		strh	r4, [r3, #4]	@ movhi
 490 0138 0432     		adds	r2, r2, #4
 491              		.loc 1 312 0 discriminator 3
 492 013a 31F8044B 		ldrh	r4, [r1], #4
 493 013e DC80     		strh	r4, [r3, #6]	@ movhi
 494              		.loc 1 308 0 discriminator 3
 495 0140 9642     		cmp	r6, r2
 496 0142 03F10803 		add	r3, r3, #8
 497 0146 F1D1     		bne	.L19
 498              		.loc 1 315 0
 499 0148 092F     		cmp	r7, #9
 500 014a 1FD1     		bne	.L20
 501              		.loc 1 318 0
 502 014c 264B     		ldr	r3, .L33+80
 503              		.loc 1 316 0
 504 014e 0022     		movs	r2, #0
 505              		.loc 1 318 0
 506 0150 1B68     		ldr	r3, [r3]
 507              		.loc 1 316 0
 508 0152 8CF80020 		strb	r2, [ip]
 509              		.loc 1 318 0
 510 0156 4FF42071 		mov	r1, #640
 511 015a 9847     		blx	r3
 512              	.LVL43:
 513              		.loc 1 320 0
ARM GAS  C:\Users\Moi\AppData\Local\Temp\cc7S0hj2.s 			page 10


 514 015c 2B68     		ldr	r3, [r5]
 515              		.loc 1 321 0
 516 015e 234A     		ldr	r2, .L33+84
 517              		.loc 1 320 0
 518 0160 2349     		ldr	r1, .L33+88
 519              		.loc 1 321 0
 520 0162 9342     		cmp	r3, r2
 521              		.loc 1 320 0
 522 0164 0B60     		str	r3, [r1]
 523              		.loc 1 322 0
 524 0166 06BF     		itte	eq
 525 0168 224B     		ldreq	r3, .L33+92
 526 016a 2B60     		streq	r3, [r5]
 527              		.loc 1 324 0
 528 016c 2A60     		strne	r2, [r5]
 529              	.L22:
 530 016e 0A4B     		ldr	r3, .L33
 531 0170 9B69     		ldr	r3, [r3, #24]
 532              		.loc 1 226 0
 533 0172 93F82130 		ldrb	r3, [r3, #33]	@ zero_extendqisi2
 534 0176 5B07     		lsls	r3, r3, #29
 535 0178 7FF551AF 		bpl	.L23
 536              	.LVL44:
 537              	.L14:
 538              		.loc 1 330 0
 539 017c 084B     		ldr	r3, .L33+8
 540 017e 039A     		ldr	r2, [sp, #12]
 541 0180 1B68     		ldr	r3, [r3]
 542 0182 9A42     		cmp	r2, r3
 543 0184 06D1     		bne	.L32
 544 0186 05B0     		add	sp, sp, #20
 545              		.cfi_remember_state
 546              		.cfi_def_cfa_offset 36
 547              		@ sp needed
 548 0188 BDE8F08F 		pop	{r4, r5, r6, r7, r8, r9, r10, fp, pc}
 549              	.LVL45:
 550              	.L20:
 551              		.cfi_restore_state
 552              		.loc 1 327 0
 553 018c 0137     		adds	r7, r7, #1
 554 018e 8CF80070 		strb	r7, [ip]
 555 0192 ECE7     		b	.L22
 556              	.LVL46:
 557              	.L32:
 558              		.loc 1 330 0
 559 0194 FFF7FEFF 		bl	__stack_chk_fail
 560              	.LVL47:
 561              	.L34:
 562              		.align	2
 563              	.L33:
 564 0198 00000000 		.word	ch
 565 019c 00000000 		.word	.LANCHOR3
 566 01a0 00000000 		.word	__stack_chk_guard
 567 01a4 00000000 		.word	.LANCHOR1
 568 01a8 00000000 		.word	.LANCHOR0
 569 01ac 00000000 		.word	.LANCHOR2
 570 01b0 00000000 		.word	.LANCHOR5
ARM GAS  C:\Users\Moi\AppData\Local\Temp\cc7S0hj2.s 			page 11


 571 01b4 00000000 		.word	.LANCHOR7
 572 01b8 00000000 		.word	.LANCHOR8
 573 01bc 00000000 		.word	.LANCHOR4
 574 01c0 00000000 		.word	.LANCHOR11
 575 01c4 00000000 		.word	.LANCHOR9
 576 01c8 00000000 		.word	.LANCHOR10
 577 01cc 00000000 		.word	.LANCHOR6
 578 01d0 34000000 		.word	.LANCHOR7+52
 579 01d4 02000000 		.word	.LANCHOR8+2
 580 01d8 01000000 		.word	.LANCHOR4+1
 581 01dc 34000000 		.word	.LANCHOR9+52
 582 01e0 02000000 		.word	.LANCHOR10+2
 583 01e4 01000000 		.word	.LANCHOR6+1
 584 01e8 00000000 		.word	.LANCHOR13
 585 01ec 00000000 		.word	.LANCHOR15
 586 01f0 00000000 		.word	.LANCHOR14
 587 01f4 00000000 		.word	.LANCHOR16
 588 01f8 00000000 		.word	.LANCHOR12
 589              		.cfi_endproc
 590              	.LFE257:
 591              		.size	DataProcessing, .-DataProcessing
 592              		.section	.text.mp45dt02Init,"ax",%progbits
 593              		.align	1
 594              		.p2align 4,,15
 595              		.global	mp45dt02Init
 596              		.syntax unified
 597              		.thumb
 598              		.thumb_func
 599              		.fpu fpv4-sp-d16
 600              		.type	mp45dt02Init, %function
 601              	mp45dt02Init:
 602              	.LFB261:
 603              		.loc 1 373 0
 604              		.cfi_startproc
 605              		@ args = 0, pretend = 0, frame = 8
 606              		@ frame_needed = 0, uses_anonymous_args = 0
 607              	.LVL48:
 608 0000 2DE9F04F 		push	{r4, r5, r6, r7, r8, r9, r10, fp, lr}
 609              		.cfi_def_cfa_offset 36
 610              		.cfi_offset 4, -36
 611              		.cfi_offset 5, -32
 612              		.cfi_offset 6, -28
 613              		.cfi_offset 7, -24
 614              		.cfi_offset 8, -20
 615              		.cfi_offset 9, -16
 616              		.cfi_offset 10, -12
 617              		.cfi_offset 11, -8
 618              		.cfi_offset 14, -4
 619              		.loc 1 375 0
 620 0004 494A     		ldr	r2, .L40
 621 0006 0168     		ldr	r1, [r0]
 622              		.loc 1 373 0
 623 0008 494B     		ldr	r3, .L40+4
 624              		.loc 1 375 0
 625 000a 1160     		str	r1, [r2]
 626              		.loc 1 373 0
 627 000c 85B0     		sub	sp, sp, #20
ARM GAS  C:\Users\Moi\AppData\Local\Temp\cc7S0hj2.s 			page 12


 628              		.cfi_def_cfa_offset 56
 629              		.loc 1 377 0
 630 000e 0021     		movs	r1, #0
 631              		.loc 1 379 0
 632 0010 0E46     		mov	r6, r1
 633              		.loc 1 373 0
 634 0012 1B68     		ldr	r3, [r3]
 635              		.loc 1 377 0
 636 0014 4748     		ldr	r0, .L40+8
 637              	.LVL49:
 638              		.loc 1 373 0
 639 0016 0393     		str	r3, [sp, #12]
 640              		.loc 1 377 0
 641 0018 FFF7FEFF 		bl	chSemObjectInit
 642              	.LVL50:
 643              		.loc 1 379 0
 644 001c 4FF4AF61 		mov	r1, #1400
 645 0020 454B     		ldr	r3, .L40+12
 646 0022 0096     		str	r6, [sp]
 647 0024 4122     		movs	r2, #65
 648 0026 4548     		ldr	r0, .L40+16
 649              	.LBB94:
 650              	.LBB95:
 651              		.loc 1 161 0
 652 0028 454D     		ldr	r5, .L40+20
 653              		.loc 1 159 0
 654 002a DFF84891 		ldr	r9, .L40+72
 655              		.loc 1 168 0
 656 002e 454C     		ldr	r4, .L40+24
 657              		.loc 1 159 0
 658 0030 DFF844A1 		ldr	r10, .L40+76
 659              	.LBE95:
 660              	.LBE94:
 661              		.loc 1 391 0
 662 0034 444F     		ldr	r7, .L40+28
 663              		.loc 1 379 0
 664 0036 FFF7FEFF 		bl	chThdCreateStatic
 665              	.LVL51:
 666              	.LBB99:
 667              	.LBB96:
 668              		.loc 1 155 0
 669 003a 444A     		ldr	r2, .L40+32
 670              	.LBE96:
 671              	.LBE99:
 672              		.loc 1 379 0
 673 003c 444B     		ldr	r3, .L40+36
 674 003e 1860     		str	r0, [r3]
 675              	.LVL52:
 676              	.LBB100:
 677              	.LBB97:
 678              		.loc 1 155 0
 679 0040 136B     		ldr	r3, [r2, #48]
 680              		.loc 1 159 0
 681 0042 C5F804A0 		str	r10, [r5, #4]
 682              		.loc 1 155 0
 683 0046 43F48053 		orr	r3, r3, #4096
 684              		.loc 1 160 0
ARM GAS  C:\Users\Moi\AppData\Local\Temp\cc7S0hj2.s 			page 13


 685 004a 4FF00218 		mov	r8, #131074
 686              		.loc 1 161 0
 687 004e 4FF47A5B 		mov	fp, #16000
 688              		.loc 1 155 0
 689 0052 1363     		str	r3, [r2, #48]
 690              		.loc 1 164 0
 691 0054 2846     		mov	r0, r5
 692              		.loc 1 160 0
 693 0056 C5E90298 		strd	r9, r8, [r5, #8]
 694              		.loc 1 161 0
 695 005a A5F800B0 		strh	fp, [r5]	@ movhi
 696              		.loc 1 164 0
 697 005e FFF7FEFF 		bl	PDM_Filter_Init
 698              	.LVL53:
 699              		.loc 1 171 0
 700 0062 2046     		mov	r0, r4
 701              		.loc 1 166 0
 702 0064 C4E901A9 		strd	r10, r9, [r4, #4]
 703              		.loc 1 167 0
 704 0068 C4F80C80 		str	r8, [r4, #12]
 705              		.loc 1 168 0
 706 006c A4F800B0 		strh	fp, [r4]	@ movhi
 707              		.loc 1 171 0
 708 0070 FFF7FEFF 		bl	PDM_Filter_Init
 709              	.LVL54:
 710              		.loc 1 164 0
 711 0074 05F13400 		add	r0, r5, #52
 712              		.loc 1 159 0
 713 0078 C5E90EA9 		strd	r10, r9, [r5, #56]
 714              		.loc 1 160 0
 715 007c C5F84080 		str	r8, [r5, #64]
 716              		.loc 1 161 0
 717 0080 A5F834B0 		strh	fp, [r5, #52]	@ movhi
 718              		.loc 1 164 0
 719 0084 FFF7FEFF 		bl	PDM_Filter_Init
 720              	.LVL55:
 721              	.LBE97:
 722              	.LBE100:
 723              		.loc 1 394 0
 724 0088 324D     		ldr	r5, .L40+40
 725              	.LBB101:
 726              	.LBB98:
 727              		.loc 1 167 0
 728 008a C4F84080 		str	r8, [r4, #64]
 729              		.loc 1 171 0
 730 008e 04F13400 		add	r0, r4, #52
 731              		.loc 1 166 0
 732 0092 C4E90EA9 		strd	r10, r9, [r4, #56]
 733              		.loc 1 168 0
 734 0096 A4F834B0 		strh	fp, [r4, #52]	@ movhi
 735              		.loc 1 171 0
 736 009a FFF7FEFF 		bl	PDM_Filter_Init
 737              	.LVL56:
 738              	.LBE98:
 739              	.LBE101:
 740              		.loc 1 391 0
 741 009e 3146     		mov	r1, r6
ARM GAS  C:\Users\Moi\AppData\Local\Temp\cc7S0hj2.s 			page 14


 742 00a0 40F20C42 		movw	r2, #1036
 743 00a4 3846     		mov	r0, r7
 744 00a6 FFF7FEFF 		bl	memset
 745              	.LVL57:
 746              		.loc 1 392 0
 747 00aa DFF8D090 		ldr	r9, .L40+80
 748              		.loc 1 395 0
 749 00ae 2A4A     		ldr	r2, .L40+44
 750              		.loc 1 394 0
 751 00b0 6E60     		str	r6, [r5, #4]
 752              		.loc 1 399 0
 753 00b2 4FF40063 		mov	r3, #2048
 754              		.loc 1 398 0
 755 00b6 4FF08008 		mov	r8, #128
 756              		.loc 1 394 0
 757 00ba 2E81     		strh	r6, [r5, #8]	@ movhi
 758              		.loc 1 395 0
 759 00bc 2A60     		str	r2, [r5]
 760              		.loc 1 399 0
 761 00be 6B81     		strh	r3, [r5, #10]	@ movhi
 762              		.loc 1 408 0
 763 00c0 264C     		ldr	r4, .L40+48
 764              		.loc 1 398 0
 765 00c2 C5F80C80 		str	r8, [r5, #12]
 766              		.loc 1 392 0
 767 00c6 C7F80894 		str	r9, [r7, #1032]
 768              		.loc 1 401 0
 769 00ca FFF7FEFF 		bl	spi3SlaveInit
 770              	.LVL58:
 771              		.loc 1 402 0
 772 00ce 2946     		mov	r1, r5
 773 00d0 2348     		ldr	r0, .L40+52
 774              		.loc 1 415 0
 775 00d2 244D     		ldr	r5, .L40+56
 776              		.loc 1 402 0
 777 00d4 FFF7FEFF 		bl	spi3SlaveStart
 778              	.LVL59:
 779              		.loc 1 403 0
 780 00d8 07F50273 		add	r3, r7, #520
 781 00dc 07F10802 		add	r2, r7, #8
 782 00e0 4FF48071 		mov	r1, #256
 783 00e4 1E48     		ldr	r0, .L40+52
 784 00e6 FFF7FEFF 		bl	spi3SlaveStartExchange
 785              	.LVL60:
 786              		.loc 1 408 0
 787 00ea 3146     		mov	r1, r6
 788 00ec 2046     		mov	r0, r4
 789 00ee 4FF40372 		mov	r2, #524
 790 00f2 FFF7FEFF 		bl	memset
 791              	.LVL61:
 792              		.loc 1 411 0
 793 00f6 1C4B     		ldr	r3, .L40+60
 794              		.loc 1 417 0
 795 00f8 1C4A     		ldr	r2, .L40+64
 796              		.loc 1 409 0
 797 00fa C4F80892 		str	r9, [r4, #520]
 798              		.loc 1 413 0
ARM GAS  C:\Users\Moi\AppData\Local\Temp\cc7S0hj2.s 			page 15


 799 00fe 0834     		adds	r4, r4, #8
 800              		.loc 1 417 0
 801 0100 1A61     		str	r2, [r3, #16]
 802              		.loc 1 425 0
 803 0102 1946     		mov	r1, r3
 804              		.loc 1 411 0
 805 0104 C3E90064 		strd	r6, r4, [r3]
 806              		.loc 1 425 0
 807 0108 1948     		ldr	r0, .L40+68
 808              		.loc 1 415 0
 809 010a C3E90285 		strd	r8, r5, [r3, #8]
 810              		.loc 1 425 0
 811 010e FFF7FEFF 		bl	i2sStart
 812              	.LVL62:
 813              		.loc 1 426 0
 814 0112 074B     		ldr	r3, .L40+4
 815 0114 039A     		ldr	r2, [sp, #12]
 816 0116 1B68     		ldr	r3, [r3]
 817 0118 9A42     		cmp	r2, r3
 818 011a 05D1     		bne	.L39
 819 011c 1448     		ldr	r0, .L40+68
 820              		.loc 1 427 0
 821 011e 05B0     		add	sp, sp, #20
 822              		.cfi_remember_state
 823              		.cfi_def_cfa_offset 36
 824              		@ sp needed
 825 0120 BDE8F04F 		pop	{r4, r5, r6, r7, r8, r9, r10, fp, lr}
 826              		.cfi_restore 14
 827              		.cfi_restore 11
 828              		.cfi_restore 10
 829              		.cfi_restore 9
 830              		.cfi_restore 8
 831              		.cfi_restore 7
 832              		.cfi_restore 6
 833              		.cfi_restore 5
 834              		.cfi_restore 4
 835              		.cfi_def_cfa_offset 0
 836              		.loc 1 426 0
 837 0124 FFF7FEBF 		b	i2sStartExchange
 838              	.LVL63:
 839              	.L39:
 840              		.cfi_restore_state
 841 0128 FFF7FEFF 		bl	__stack_chk_fail
 842              	.LVL64:
 843              	.L41:
 844              		.align	2
 845              	.L40:
 846 012c 00000000 		.word	.LANCHOR13
 847 0130 00000000 		.word	__stack_chk_guard
 848 0134 00000000 		.word	.LANCHOR1
 849 0138 00000000 		.word	DataProcessing
 850 013c 00000000 		.word	.LANCHOR17
 851 0140 00000000 		.word	.LANCHOR7
 852 0144 00000000 		.word	.LANCHOR9
 853 0148 00000000 		.word	.LANCHOR0
 854 014c 00380240 		.word	1073887232
 855 0150 00000000 		.word	.LANCHOR18
ARM GAS  C:\Users\Moi\AppData\Local\Temp\cc7S0hj2.s 			page 16


 856 0154 00000000 		.word	.LANCHOR19
 857 0158 00000000 		.word	mp45dt02SPICb
 858 015c 00000000 		.word	.LANCHOR2
 859 0160 00000000 		.word	SPISLAVED3
 860 0164 00000000 		.word	mp45dt02I2SCb
 861 0168 00000000 		.word	.LANCHOR20
 862 016c 2C030800 		.word	525100
 863 0170 00000000 		.word	I2SD2
 864 0174 00002041 		.word	1092616192
 865 0178 0000FA45 		.word	1174011904
 866 017c EFBEADDE 		.word	-559038737
 867              		.cfi_endproc
 868              	.LFE261:
 869              		.size	mp45dt02Init, .-mp45dt02Init
 870              		.section	.text.mp45dt02Shutdown,"ax",%progbits
 871              		.align	1
 872              		.p2align 4,,15
 873              		.global	mp45dt02Shutdown
 874              		.syntax unified
 875              		.thumb
 876              		.thumb_func
 877              		.fpu fpv4-sp-d16
 878              		.type	mp45dt02Shutdown, %function
 879              	mp45dt02Shutdown:
 880              	.LFB262:
 881              		.loc 1 430 0
 882              		.cfi_startproc
 883              		@ args = 0, pretend = 0, frame = 8
 884              		@ frame_needed = 0, uses_anonymous_args = 0
 885 0000 30B5     		push	{r4, r5, lr}
 886              		.cfi_def_cfa_offset 12
 887              		.cfi_offset 4, -12
 888              		.cfi_offset 5, -8
 889              		.cfi_offset 14, -4
 890 0002 124D     		ldr	r5, .L46
 891              		.loc 1 431 0
 892 0004 1248     		ldr	r0, .L46+4
 893              		.loc 1 430 0
 894 0006 2B68     		ldr	r3, [r5]
 895              		.loc 1 437 0
 896 0008 124C     		ldr	r4, .L46+8
 897              		.loc 1 430 0
 898 000a 83B0     		sub	sp, sp, #12
 899              		.cfi_def_cfa_offset 24
 900              		.loc 1 430 0
 901 000c 0193     		str	r3, [sp, #4]
 902              		.loc 1 431 0
 903 000e FFF7FEFF 		bl	i2sStopExchange
 904              	.LVL65:
 905              		.loc 1 432 0
 906 0012 0F48     		ldr	r0, .L46+4
 907 0014 FFF7FEFF 		bl	i2sStop
 908              	.LVL66:
 909              		.loc 1 434 0
 910 0018 0F48     		ldr	r0, .L46+12
 911 001a FFF7FEFF 		bl	spi3SlaveStopExchange
 912              	.LVL67:
ARM GAS  C:\Users\Moi\AppData\Local\Temp\cc7S0hj2.s 			page 17


 913              		.loc 1 435 0
 914 001e 0E48     		ldr	r0, .L46+12
 915 0020 FFF7FEFF 		bl	spi3SlaveStop
 916              	.LVL68:
 917              		.loc 1 437 0
 918 0024 2068     		ldr	r0, [r4]
 919 0026 FFF7FEFF 		bl	chThdTerminate
 920              	.LVL69:
 921              		.loc 1 438 0
 922 002a 0021     		movs	r1, #0
 923 002c 0B48     		ldr	r0, .L46+16
 924 002e FFF7FEFF 		bl	chSemReset
 925              	.LVL70:
 926              		.loc 1 439 0
 927 0032 2068     		ldr	r0, [r4]
 928 0034 FFF7FEFF 		bl	chThdWait
 929              	.LVL71:
 930              		.loc 1 441 0
 931 0038 019A     		ldr	r2, [sp, #4]
 932 003a 2B68     		ldr	r3, [r5]
 933              		.loc 1 440 0
 934 003c 0021     		movs	r1, #0
 935              		.loc 1 441 0
 936 003e 9A42     		cmp	r2, r3
 937              		.loc 1 440 0
 938 0040 2160     		str	r1, [r4]
 939              		.loc 1 441 0
 940 0042 01D1     		bne	.L45
 941 0044 03B0     		add	sp, sp, #12
 942              		.cfi_remember_state
 943              		.cfi_def_cfa_offset 12
 944              		@ sp needed
 945 0046 30BD     		pop	{r4, r5, pc}
 946              	.L45:
 947              		.cfi_restore_state
 948 0048 FFF7FEFF 		bl	__stack_chk_fail
 949              	.LVL72:
 950              	.L47:
 951              		.align	2
 952              	.L46:
 953 004c 00000000 		.word	__stack_chk_guard
 954 0050 00000000 		.word	I2SD2
 955 0054 00000000 		.word	.LANCHOR18
 956 0058 00000000 		.word	SPISLAVED3
 957 005c 00000000 		.word	.LANCHOR1
 958              		.cfi_endproc
 959              	.LFE262:
 960              		.size	mp45dt02Shutdown, .-mp45dt02Shutdown
 961              		.section	.text.mp45dt02BufferPtr,"ax",%progbits
 962              		.align	1
 963              		.p2align 4,,15
 964              		.global	mp45dt02BufferPtr
 965              		.syntax unified
 966              		.thumb
 967              		.thumb_func
 968              		.fpu fpv4-sp-d16
 969              		.type	mp45dt02BufferPtr, %function
ARM GAS  C:\Users\Moi\AppData\Local\Temp\cc7S0hj2.s 			page 18


 970              	mp45dt02BufferPtr:
 971              	.LFB263:
 972              		.loc 1 443 0
 973              		.cfi_startproc
 974              		@ args = 0, pretend = 0, frame = 8
 975              		@ frame_needed = 0, uses_anonymous_args = 0
 976 0000 00B5     		push	{lr}
 977              		.cfi_def_cfa_offset 4
 978              		.cfi_offset 14, -4
 979 0002 074B     		ldr	r3, .L52
 980              		.loc 1 444 0
 981 0004 0749     		ldr	r1, .L52+4
 982              		.loc 1 443 0
 983 0006 1A68     		ldr	r2, [r3]
 984              		.loc 1 445 0
 985 0008 0868     		ldr	r0, [r1]
 986              		.loc 1 443 0
 987 000a 83B0     		sub	sp, sp, #12
 988              		.cfi_def_cfa_offset 16
 989              		.loc 1 443 0
 990 000c 0192     		str	r2, [sp, #4]
 991              		.loc 1 445 0
 992 000e 019A     		ldr	r2, [sp, #4]
 993 0010 1B68     		ldr	r3, [r3]
 994 0012 9A42     		cmp	r2, r3
 995 0014 02D1     		bne	.L51
 996 0016 03B0     		add	sp, sp, #12
 997              		.cfi_remember_state
 998              		.cfi_def_cfa_offset 4
 999              		@ sp needed
 1000 0018 5DF804FB 		ldr	pc, [sp], #4
 1001              	.L51:
 1002              		.cfi_restore_state
 1003 001c FFF7FEFF 		bl	__stack_chk_fail
 1004              	.LVL73:
 1005              	.L53:
 1006              		.align	2
 1007              	.L52:
 1008 0020 00000000 		.word	__stack_chk_guard
 1009 0024 00000000 		.word	.LANCHOR14
 1010              		.cfi_endproc
 1011              	.LFE263:
 1012              		.size	mp45dt02BufferPtr, .-mp45dt02BufferPtr
 1013              		.global	PDM_filter_SPI
 1014              		.global	PDM_filter_I2S
 1015              		.global	Channel_Demux
 1016              		.section	.bss.DataProcessingSem,"aw",%nobits
 1017              		.align	2
 1018              		.set	.LANCHOR1,. + 0
 1019              		.type	DataProcessingSem, %object
 1020              		.size	DataProcessingSem, 12
 1021              	DataProcessingSem:
 1022 0000 00000000 		.space	12
 1022      00000000 
 1022      00000000 
 1023              		.section	.bss.DataProcessingThd,"aw",%nobits
 1024              		.align	2
ARM GAS  C:\Users\Moi\AppData\Local\Temp\cc7S0hj2.s 			page 19


 1025              		.set	.LANCHOR18,. + 0
 1026              		.type	DataProcessingThd, %object
 1027              		.size	DataProcessingThd, 4
 1028              	DataProcessingThd:
 1029 0000 00000000 		.space	4
 1030              		.section	.bss.DataProcessingThdWA,"aw",%nobits
 1031              		.align	3
 1032              		.set	.LANCHOR17,. + 0
 1033              		.type	DataProcessingThdWA, %object
 1034              		.size	DataProcessingThdWA, 1400
 1035              	DataProcessingThdWA:
 1036 0000 00000000 		.space	1400
 1036      00000000 
 1036      00000000 
 1036      00000000 
 1036      00000000 
 1037              		.section	.bss.I2S_PCM_samples,"aw",%nobits
 1038              		.align	2
 1039              		.set	.LANCHOR8,. + 0
 1040              		.type	I2S_PCM_samples, %object
 1041              		.size	I2S_PCM_samples, 64
 1042              	I2S_PCM_samples:
 1043 0000 00000000 		.space	64
 1043      00000000 
 1043      00000000 
 1043      00000000 
 1043      00000000 
 1044              		.section	.bss.I2S_PDM_samples,"aw",%nobits
 1045              		.align	2
 1046              		.set	.LANCHOR4,. + 0
 1047              		.type	I2S_PDM_samples, %object
 1048              		.size	I2S_PDM_samples, 256
 1049              	I2S_PDM_samples:
 1050 0000 00000000 		.space	256
 1050      00000000 
 1050      00000000 
 1050      00000000 
 1050      00000000 
 1051              		.section	.bss.PCM_buffer1,"aw",%nobits
 1052              		.align	2
 1053              		.set	.LANCHOR15,. + 0
 1054              		.type	PCM_buffer1, %object
 1055              		.size	PCM_buffer1, 1280
 1056              	PCM_buffer1:
 1057 0000 00000000 		.space	1280
 1057      00000000 
 1057      00000000 
 1057      00000000 
 1057      00000000 
 1058              		.section	.bss.PCM_buffer2,"aw",%nobits
 1059              		.align	2
 1060              		.set	.LANCHOR16,. + 0
 1061              		.type	PCM_buffer2, %object
 1062              		.size	PCM_buffer2, 1280
 1063              	PCM_buffer2:
 1064 0000 00000000 		.space	1280
 1064      00000000 
ARM GAS  C:\Users\Moi\AppData\Local\Temp\cc7S0hj2.s 			page 20


 1064      00000000 
 1064      00000000 
 1064      00000000 
 1065              		.section	.bss.PCM_buffer_index,"aw",%nobits
 1066              		.set	.LANCHOR12,. + 0
 1067              		.type	PCM_buffer_index, %object
 1068              		.size	PCM_buffer_index, 1
 1069              	PCM_buffer_index:
 1070 0000 00       		.space	1
 1071              		.section	.bss.PDM_filter_I2S,"aw",%nobits
 1072              		.align	2
 1073              		.set	.LANCHOR7,. + 0
 1074              		.type	PDM_filter_I2S, %object
 1075              		.size	PDM_filter_I2S, 104
 1076              	PDM_filter_I2S:
 1077 0000 00000000 		.space	104
 1077      00000000 
 1077      00000000 
 1077      00000000 
 1077      00000000 
 1078              		.section	.bss.PDM_filter_SPI,"aw",%nobits
 1079              		.align	2
 1080              		.set	.LANCHOR9,. + 0
 1081              		.type	PDM_filter_SPI, %object
 1082              		.size	PDM_filter_SPI, 104
 1083              	PDM_filter_SPI:
 1084 0000 00000000 		.space	104
 1084      00000000 
 1084      00000000 
 1084      00000000 
 1084      00000000 
 1085              		.section	.bss.SPI_PCM_samples,"aw",%nobits
 1086              		.align	2
 1087              		.set	.LANCHOR10,. + 0
 1088              		.type	SPI_PCM_samples, %object
 1089              		.size	SPI_PCM_samples, 64
 1090              	SPI_PCM_samples:
 1091 0000 00000000 		.space	64
 1091      00000000 
 1091      00000000 
 1091      00000000 
 1091      00000000 
 1092              		.section	.bss.SPI_PDM_samples,"aw",%nobits
 1093              		.align	2
 1094              		.set	.LANCHOR6,. + 0
 1095              		.type	SPI_PDM_samples, %object
 1096              		.size	SPI_PDM_samples, 256
 1097              	SPI_PDM_samples:
 1098 0000 00000000 		.space	256
 1098      00000000 
 1098      00000000 
 1098      00000000 
 1098      00000000 
 1099              		.section	.bss.initConfig,"aw",%nobits
 1100              		.align	2
 1101              		.set	.LANCHOR13,. + 0
 1102              		.type	initConfig, %object
ARM GAS  C:\Users\Moi\AppData\Local\Temp\cc7S0hj2.s 			page 21


 1103              		.size	initConfig, 4
 1104              	initConfig:
 1105 0000 00000000 		.space	4
 1106              		.section	.bss.mp45dt02I2SConfig,"aw",%nobits
 1107              		.align	2
 1108              		.set	.LANCHOR20,. + 0
 1109              		.type	mp45dt02I2SConfig, %object
 1110              		.size	mp45dt02I2SConfig, 20
 1111              	mp45dt02I2SConfig:
 1112 0000 00000000 		.space	20
 1112      00000000 
 1112      00000000 
 1112      00000000 
 1112      00000000 
 1113              		.section	.bss.mp45dt02I2sData,"aw",%nobits
 1114              		.align	2
 1115              		.set	.LANCHOR2,. + 0
 1116              		.type	mp45dt02I2sData, %object
 1117              		.size	mp45dt02I2sData, 524
 1118              	mp45dt02I2sData:
 1119 0000 00000000 		.space	524
 1119      00000000 
 1119      00000000 
 1119      00000000 
 1119      00000000 
 1120              		.section	.bss.mp45dt02SPIConfig,"aw",%nobits
 1121              		.align	2
 1122              		.set	.LANCHOR19,. + 0
 1123              		.type	mp45dt02SPIConfig, %object
 1124              		.size	mp45dt02SPIConfig, 16
 1125              	mp45dt02SPIConfig:
 1126 0000 00000000 		.space	16
 1126      00000000 
 1126      00000000 
 1126      00000000 
 1127              		.section	.bss.mp45dt02SPIData,"aw",%nobits
 1128              		.align	2
 1129              		.set	.LANCHOR0,. + 0
 1130              		.type	mp45dt02SPIData, %object
 1131              		.size	mp45dt02SPIData, 1036
 1132              	mp45dt02SPIData:
 1133 0000 00000000 		.space	1036
 1133      00000000 
 1133      00000000 
 1133      00000000 
 1133      00000000 
 1134              		.section	.data.Channel_Demux,"aw",%progbits
 1135              		.align	2
 1136              		.set	.LANCHOR5,. + 0
 1137              		.type	Channel_Demux, %object
 1138              		.size	Channel_Demux, 128
 1139              	Channel_Demux:
 1140 0000 00       		.byte	0
 1141 0001 01       		.byte	1
 1142 0002 00       		.byte	0
 1143 0003 01       		.byte	1
 1144 0004 02       		.byte	2
ARM GAS  C:\Users\Moi\AppData\Local\Temp\cc7S0hj2.s 			page 22


 1145 0005 03       		.byte	3
 1146 0006 02       		.byte	2
 1147 0007 03       		.byte	3
 1148 0008 00       		.byte	0
 1149 0009 01       		.byte	1
 1150 000a 00       		.byte	0
 1151 000b 01       		.byte	1
 1152 000c 02       		.byte	2
 1153 000d 03       		.byte	3
 1154 000e 02       		.byte	2
 1155 000f 03       		.byte	3
 1156 0010 04       		.byte	4
 1157 0011 05       		.byte	5
 1158 0012 04       		.byte	4
 1159 0013 05       		.byte	5
 1160 0014 06       		.byte	6
 1161 0015 07       		.byte	7
 1162 0016 06       		.byte	6
 1163 0017 07       		.byte	7
 1164 0018 04       		.byte	4
 1165 0019 05       		.byte	5
 1166 001a 04       		.byte	4
 1167 001b 05       		.byte	5
 1168 001c 06       		.byte	6
 1169 001d 07       		.byte	7
 1170 001e 06       		.byte	6
 1171 001f 07       		.byte	7
 1172 0020 00       		.byte	0
 1173 0021 01       		.byte	1
 1174 0022 00       		.byte	0
 1175 0023 01       		.byte	1
 1176 0024 02       		.byte	2
 1177 0025 03       		.byte	3
 1178 0026 02       		.byte	2
 1179 0027 03       		.byte	3
 1180 0028 00       		.byte	0
 1181 0029 01       		.byte	1
 1182 002a 00       		.byte	0
 1183 002b 01       		.byte	1
 1184 002c 02       		.byte	2
 1185 002d 03       		.byte	3
 1186 002e 02       		.byte	2
 1187 002f 03       		.byte	3
 1188 0030 04       		.byte	4
 1189 0031 05       		.byte	5
 1190 0032 04       		.byte	4
 1191 0033 05       		.byte	5
 1192 0034 06       		.byte	6
 1193 0035 07       		.byte	7
 1194 0036 06       		.byte	6
 1195 0037 07       		.byte	7
 1196 0038 04       		.byte	4
 1197 0039 05       		.byte	5
 1198 003a 04       		.byte	4
 1199 003b 05       		.byte	5
 1200 003c 06       		.byte	6
 1201 003d 07       		.byte	7
ARM GAS  C:\Users\Moi\AppData\Local\Temp\cc7S0hj2.s 			page 23


 1202 003e 06       		.byte	6
 1203 003f 07       		.byte	7
 1204 0040 08       		.byte	8
 1205 0041 09       		.byte	9
 1206 0042 08       		.byte	8
 1207 0043 09       		.byte	9
 1208 0044 0A       		.byte	10
 1209 0045 0B       		.byte	11
 1210 0046 0A       		.byte	10
 1211 0047 0B       		.byte	11
 1212 0048 08       		.byte	8
 1213 0049 09       		.byte	9
 1214 004a 08       		.byte	8
 1215 004b 09       		.byte	9
 1216 004c 0A       		.byte	10
 1217 004d 0B       		.byte	11
 1218 004e 0A       		.byte	10
 1219 004f 0B       		.byte	11
 1220 0050 0C       		.byte	12
 1221 0051 0D       		.byte	13
 1222 0052 0C       		.byte	12
 1223 0053 0D       		.byte	13
 1224 0054 0E       		.byte	14
 1225 0055 0F       		.byte	15
 1226 0056 0E       		.byte	14
 1227 0057 0F       		.byte	15
 1228 0058 0C       		.byte	12
 1229 0059 0D       		.byte	13
 1230 005a 0C       		.byte	12
 1231 005b 0D       		.byte	13
 1232 005c 0E       		.byte	14
 1233 005d 0F       		.byte	15
 1234 005e 0E       		.byte	14
 1235 005f 0F       		.byte	15
 1236 0060 08       		.byte	8
 1237 0061 09       		.byte	9
 1238 0062 08       		.byte	8
 1239 0063 09       		.byte	9
 1240 0064 0A       		.byte	10
 1241 0065 0B       		.byte	11
 1242 0066 0A       		.byte	10
 1243 0067 0B       		.byte	11
 1244 0068 08       		.byte	8
 1245 0069 09       		.byte	9
 1246 006a 08       		.byte	8
 1247 006b 09       		.byte	9
 1248 006c 0A       		.byte	10
 1249 006d 0B       		.byte	11
 1250 006e 0A       		.byte	10
 1251 006f 0B       		.byte	11
 1252 0070 0C       		.byte	12
 1253 0071 0D       		.byte	13
 1254 0072 0C       		.byte	12
 1255 0073 0D       		.byte	13
 1256 0074 0E       		.byte	14
 1257 0075 0F       		.byte	15
 1258 0076 0E       		.byte	14
ARM GAS  C:\Users\Moi\AppData\Local\Temp\cc7S0hj2.s 			page 24


 1259 0077 0F       		.byte	15
 1260 0078 0C       		.byte	12
 1261 0079 0D       		.byte	13
 1262 007a 0C       		.byte	12
 1263 007b 0D       		.byte	13
 1264 007c 0E       		.byte	14
 1265 007d 0F       		.byte	15
 1266 007e 0E       		.byte	14
 1267 007f 0F       		.byte	15
 1268              		.section	.data.PCM_buffer_ptr_curr,"aw",%progbits
 1269              		.align	2
 1270              		.set	.LANCHOR11,. + 0
 1271              		.type	PCM_buffer_ptr_curr, %object
 1272              		.size	PCM_buffer_ptr_curr, 4
 1273              	PCM_buffer_ptr_curr:
 1274 0000 00000000 		.word	PCM_buffer1
 1275              		.section	.data.PCM_buffer_ptr_last,"aw",%progbits
 1276              		.align	2
 1277              		.set	.LANCHOR14,. + 0
 1278              		.type	PCM_buffer_ptr_last, %object
 1279              		.size	PCM_buffer_ptr_last, 4
 1280              	PCM_buffer_ptr_last:
 1281 0000 00000000 		.word	PCM_buffer2
 1282              		.section	.rodata.__FUNCTION__.10409,"a",%progbits
 1283              		.align	2
 1284              		.set	.LANCHOR3,. + 0
 1285              		.type	__FUNCTION__.10409, %object
 1286              		.size	__FUNCTION__.10409, 15
 1287              	__FUNCTION__.10409:
 1288 0000 44617461 		.ascii	"DataProcessing\000"
 1288      50726F63 
 1288      65737369 
 1288      6E6700
 1289              		.text
 1290              	.Letext0:
 1291              		.file 6 "c:\\users\\moi\\documents\\_microinfo\\epuck-eclipse\\tools\\gcc-arm-none-eabi-7-2017-q4-
 1292              		.file 7 "c:\\users\\moi\\documents\\_microinfo\\epuck-eclipse\\tools\\gcc-arm-none-eabi-7-2017-q4-
 1293              		.file 8 "c:\\users\\moi\\documents\\_microinfo\\epuck-eclipse\\tools\\gcc-arm-none-eabi-7-2017-q4-
 1294              		.file 9 "c:\\users\\moi\\documents\\_microinfo\\epuck-eclipse\\tools\\gcc-arm-none-eabi-7-2017-q4-
 1295              		.file 10 "c:\\users\\moi\\documents\\_microinfo\\epuck-eclipse\\tools\\gcc-arm-none-eabi-7-2017-q4
 1296              		.file 11 "c:\\users\\moi\\documents\\_microinfo\\epuck-eclipse\\tools\\gcc-arm-none-eabi-7-2017-q4
 1297              		.file 12 "..//ChibiOS//os/rt/ports/ARMCMx/compilers/GCC/chtypes.h"
 1298              		.file 13 "..//ChibiOS//os/rt/include/chsystypes.h"
 1299              		.file 14 "..//ChibiOS//os/rt/include/chschd.h"
 1300              		.file 15 "..//ChibiOS//os/ext/CMSIS/include/core_cm4.h"
 1301              		.file 16 "..//ChibiOS//os/ext/CMSIS/ST/system_stm32f4xx.h"
 1302              		.file 17 "..//ChibiOS//os/ext/CMSIS/ST/stm32f407xx.h"
 1303              		.file 18 "..//ChibiOS//os/rt/ports/ARMCMx/chcore.h"
 1304              		.file 19 "..//ChibiOS//os/rt/ports/ARMCMx/chcore_v7m.h"
 1305              		.file 20 "..//ChibiOS//os/rt/include/chdebug.h"
 1306              		.file 21 "..//ChibiOS//os/rt/include/chtm.h"
 1307              		.file 22 "..//ChibiOS//os/rt/include/chstats.h"
 1308              		.file 23 "..//ChibiOS//os/rt/include/chsem.h"
 1309              		.file 24 "..//ChibiOS//os/rt/include/chmtx.h"
 1310              		.file 25 "..//ChibiOS//os/rt/include/chevents.h"
 1311              		.file 26 "..//ChibiOS//os/rt/include/chqueues.h"
 1312              		.file 27 "..//ChibiOS//os/hal/ports/STM32/STM32F4xx/stm32_dma.h"
ARM GAS  C:\Users\Moi\AppData\Local\Temp\cc7S0hj2.s 			page 25


 1313              		.file 28 "..//ChibiOS//os/hal/include/hal_ioblock.h"
 1314              		.file 29 "..//ChibiOS//os/hal/ports/STM32/LLD/GPIOv2/pal_lld.h"
 1315              		.file 30 "..//ChibiOS//os/hal/include/adc.h"
 1316              		.file 31 "..//ChibiOS//os/hal/ports/STM32/STM32F4xx/adc_lld.h"
 1317              		.file 32 "..//ChibiOS//os/hal/include/can.h"
 1318              		.file 33 "..//ChibiOS//os/hal/ports/STM32/LLD/can_lld.h"
 1319              		.file 34 "..//ChibiOS//os/hal/include/dac.h"
 1320              		.file 35 "..//ChibiOS//os/hal/ports/STM32/LLD/DACv1/dac_lld.h"
 1321              		.file 36 "..//ChibiOS//os/hal/include/ext.h"
 1322              		.file 37 "..//ChibiOS//os/hal/ports/STM32/LLD/ext_lld.h"
 1323              		.file 38 "..//ChibiOS//os/hal/include/gpt.h"
 1324              		.file 39 "..//ChibiOS//os/hal/ports/STM32/LLD/TIMv1/gpt_lld.h"
 1325              		.file 40 "..//ChibiOS//os/hal/ports/STM32/LLD/TIMv1/stm32_tim.h"
 1326              		.file 41 "..//ChibiOS//os/hal/include/i2c.h"
 1327              		.file 42 "..//ChibiOS//os/hal/ports/STM32/LLD/I2Cv1/i2c_lld.h"
 1328              		.file 43 "..//ChibiOS//os/hal/include/i2s.h"
 1329              		.file 44 "..//ChibiOS//os/hal/ports/STM32/LLD/SPIv1/i2s_lld.h"
 1330              		.file 45 "..//ChibiOS//os/hal/include/pwm.h"
 1331              		.file 46 "..//ChibiOS//os/hal/ports/STM32/LLD/TIMv1/pwm_lld.h"
 1332              		.file 47 "..//ChibiOS//os/hal/include/serial.h"
 1333              		.file 48 "..//ChibiOS//os/hal/ports/STM32/LLD/USARTv1/serial_lld.h"
 1334              		.file 49 "..//ChibiOS//os/hal/include/sdc.h"
 1335              		.file 50 "..//ChibiOS//os/hal/ports/STM32/LLD/sdc_lld.h"
 1336              		.file 51 "..//ChibiOS//os/hal/include/spi.h"
 1337              		.file 52 "..//ChibiOS//os/hal/ports/STM32/LLD/SPIv1/spi_lld.h"
 1338              		.file 53 "..//ChibiOS//os/hal/include/usb.h"
 1339              		.file 54 "..//ChibiOS//os/hal/ports/STM32/LLD/OTGv1/usb_lld.h"
 1340              		.file 55 "..//ChibiOS//os/hal/ports/STM32/LLD/OTGv1/stm32_otg.h"
 1341              		.file 56 "..//ChibiOS_ext/os/hal/include/spi3_slave.h"
 1342              		.file 57 "..//src/audio/mp45dt02_processing.h"
 1343              		.file 58 "..//src/audio/pdm_filter.h"
 1344              		.file 59 "<built-in>"