ARM GAS  C:\Users\Moi\AppData\Local\Temp\ccAmnUUW.s 			page 1


   1              		.cpu cortex-m4
   2              		.eabi_attribute 27, 1
   3              		.eabi_attribute 28, 1
   4              		.eabi_attribute 20, 1
   5              		.eabi_attribute 21, 1
   6              		.eabi_attribute 23, 3
   7              		.eabi_attribute 24, 1
   8              		.eabi_attribute 25, 1
   9              		.eabi_attribute 26, 1
  10              		.eabi_attribute 30, 2
  11              		.eabi_attribute 34, 1
  12              		.eabi_attribute 18, 4
  13              		.file	"newlib_syscalls.c"
  14              		.text
  15              	.Ltext0:
  16              		.cfi_sections	.debug_frame
  17              		.section	.text._read_r,"ax",%progbits
  18              		.align	1
  19              		.p2align 4,,15
  20              		.global	_read_r
  21              		.syntax unified
  22              		.thumb
  23              		.thumb_func
  24              		.fpu fpv4-sp-d16
  25              		.type	_read_r, %function
  26              	_read_r:
  27              	.LFB256:
  28              		.file 1 "..//src/chibios-syscalls/newlib_syscalls.c"
  29              		.loc 1 16 0
  30              		.cfi_startproc
  31              		@ args = 0, pretend = 0, frame = 8
  32              		@ frame_needed = 0, uses_anonymous_args = 0
  33              	.LVL0:
  34 0000 30B5     		push	{r4, r5, lr}
  35              		.cfi_def_cfa_offset 12
  36              		.cfi_offset 4, -12
  37              		.cfi_offset 5, -8
  38              		.cfi_offset 14, -4
  39 0002 104C     		ldr	r4, .L13
  40 0004 83B0     		sub	sp, sp, #12
  41              		.cfi_def_cfa_offset 24
  42              		.loc 1 16 0
  43 0006 2568     		ldr	r5, [r4]
  44 0008 0195     		str	r5, [sp, #4]
  45              		.loc 1 19 0
  46 000a 73B1     		cbz	r3, .L2
  47              		.loc 1 19 0 is_stmt 0 discriminator 1
  48 000c 69B9     		cbnz	r1, .L2
  49              		.loc 1 23 0 is_stmt 1
  50 000e 0199     		ldr	r1, [sp, #4]
  51              	.LVL1:
  52 0010 1546     		mov	r5, r2
  53 0012 2268     		ldr	r2, [r4]
  54              	.LVL2:
  55 0014 9142     		cmp	r1, r2
  56 0016 12D1     		bne	.L10
  57 0018 0B48     		ldr	r0, .L13+4
ARM GAS  C:\Users\Moi\AppData\Local\Temp\ccAmnUUW.s 			page 2


  58              	.LVL3:
  59 001a 0468     		ldr	r4, [r0]
  60 001c 1A46     		mov	r2, r3
  61 001e 6368     		ldr	r3, [r4, #4]
  62              	.LVL4:
  63 0020 2946     		mov	r1, r5
  64              		.loc 1 32 0
  65 0022 03B0     		add	sp, sp, #12
  66              		.cfi_remember_state
  67              		.cfi_def_cfa_offset 12
  68              		@ sp needed
  69 0024 BDE83040 		pop	{r4, r5, lr}
  70              		.cfi_restore 14
  71              		.cfi_restore 5
  72              		.cfi_restore 4
  73              		.cfi_def_cfa_offset 0
  74              	.LVL5:
  75              		.loc 1 23 0
  76 0028 1847     		bx	r3
  77              	.LVL6:
  78              	.L2:
  79              		.cfi_restore_state
  80              		.loc 1 32 0
  81 002a 019A     		ldr	r2, [sp, #4]
  82              	.LVL7:
  83 002c 2368     		ldr	r3, [r4]
  84              	.LVL8:
  85              		.loc 1 20 0
  86 002e 1621     		movs	r1, #22
  87              	.LVL9:
  88              		.loc 1 32 0
  89 0030 9A42     		cmp	r2, r3
  90              		.loc 1 20 0
  91 0032 0160     		str	r1, [r0]
  92              		.loc 1 32 0
  93 0034 4FF0FF30 		mov	r0, #-1
  94              	.LVL10:
  95 0038 01D1     		bne	.L10
  96 003a 03B0     		add	sp, sp, #12
  97              		.cfi_remember_state
  98              		.cfi_def_cfa_offset 12
  99              		@ sp needed
 100 003c 30BD     		pop	{r4, r5, pc}
 101              	.L10:
 102              		.cfi_restore_state
 103 003e FFF7FEFF 		bl	__stack_chk_fail
 104              	.LVL11:
 105              	.L14:
 106 0042 00BF     		.align	2
 107              	.L13:
 108 0044 00000000 		.word	__stack_chk_guard
 109 0048 00000000 		.word	SDU1
 110              		.cfi_endproc
 111              	.LFE256:
 112              		.size	_read_r, .-_read_r
 113              		.section	.text._lseek_r,"ax",%progbits
 114              		.align	1
ARM GAS  C:\Users\Moi\AppData\Local\Temp\ccAmnUUW.s 			page 3


 115              		.p2align 4,,15
 116              		.global	_lseek_r
 117              		.syntax unified
 118              		.thumb
 119              		.thumb_func
 120              		.fpu fpv4-sp-d16
 121              		.type	_lseek_r, %function
 122              	_lseek_r:
 123              	.LFB257:
 124              		.loc 1 35 0
 125              		.cfi_startproc
 126              		@ args = 0, pretend = 0, frame = 8
 127              		@ frame_needed = 0, uses_anonymous_args = 0
 128              	.LVL12:
 129 0000 00B5     		push	{lr}
 130              		.cfi_def_cfa_offset 4
 131              		.cfi_offset 14, -4
 132 0002 074B     		ldr	r3, .L19
 133              	.LVL13:
 134 0004 83B0     		sub	sp, sp, #12
 135              		.cfi_def_cfa_offset 16
 136              		.loc 1 35 0
 137 0006 1A68     		ldr	r2, [r3]
 138              	.LVL14:
 139 0008 0192     		str	r2, [sp, #4]
 140              		.loc 1 42 0
 141 000a 019A     		ldr	r2, [sp, #4]
 142 000c 1B68     		ldr	r3, [r3]
 143 000e 9A42     		cmp	r2, r3
 144 0010 03D1     		bne	.L18
 145 0012 0020     		movs	r0, #0
 146              	.LVL15:
 147 0014 03B0     		add	sp, sp, #12
 148              		.cfi_remember_state
 149              		.cfi_def_cfa_offset 4
 150              		@ sp needed
 151 0016 5DF804FB 		ldr	pc, [sp], #4
 152              	.LVL16:
 153              	.L18:
 154              		.cfi_restore_state
 155 001a FFF7FEFF 		bl	__stack_chk_fail
 156              	.LVL17:
 157              	.L20:
 158 001e 00BF     		.align	2
 159              	.L19:
 160 0020 00000000 		.word	__stack_chk_guard
 161              		.cfi_endproc
 162              	.LFE257:
 163              		.size	_lseek_r, .-_lseek_r
 164              		.section	.text._write_r,"ax",%progbits
 165              		.align	1
 166              		.p2align 4,,15
 167              		.global	_write_r
 168              		.syntax unified
 169              		.thumb
 170              		.thumb_func
 171              		.fpu fpv4-sp-d16
ARM GAS  C:\Users\Moi\AppData\Local\Temp\ccAmnUUW.s 			page 4


 172              		.type	_write_r, %function
 173              	_write_r:
 174              	.LFB258:
 175              		.loc 1 45 0
 176              		.cfi_startproc
 177              		@ args = 0, pretend = 0, frame = 8
 178              		@ frame_needed = 0, uses_anonymous_args = 0
 179              	.LVL18:
 180 0000 30B5     		push	{r4, r5, lr}
 181              		.cfi_def_cfa_offset 12
 182              		.cfi_offset 4, -12
 183              		.cfi_offset 5, -8
 184              		.cfi_offset 14, -4
 185 0002 0D4D     		ldr	r5, .L28
 186 0004 83B0     		sub	sp, sp, #12
 187              		.cfi_def_cfa_offset 24
 188              		.loc 1 45 0
 189 0006 2C68     		ldr	r4, [r5]
 190 0008 0194     		str	r4, [sp, #4]
 191              		.loc 1 50 0
 192 000a 0129     		cmp	r1, #1
 193 000c 0DD1     		bne	.L26
 194              		.loc 1 54 0
 195 000e 0B48     		ldr	r0, .L28+4
 196              	.LVL19:
 197 0010 1C46     		mov	r4, r3
 198 0012 0368     		ldr	r3, [r0]
 199              	.LVL20:
 200 0014 1146     		mov	r1, r2
 201              	.LVL21:
 202 0016 1B68     		ldr	r3, [r3]
 203 0018 2246     		mov	r2, r4
 204              	.LVL22:
 205 001a 9847     		blx	r3
 206              	.LVL23:
 207              		.loc 1 56 0
 208 001c 2046     		mov	r0, r4
 209              	.LVL24:
 210              	.L21:
 211              		.loc 1 57 0
 212 001e 019A     		ldr	r2, [sp, #4]
 213 0020 2B68     		ldr	r3, [r5]
 214 0022 9A42     		cmp	r2, r3
 215 0024 06D1     		bne	.L27
 216 0026 03B0     		add	sp, sp, #12
 217              		.cfi_remember_state
 218              		.cfi_def_cfa_offset 12
 219              		@ sp needed
 220 0028 30BD     		pop	{r4, r5, pc}
 221              	.LVL25:
 222              	.L26:
 223              		.cfi_restore_state
 224              		.loc 1 51 0
 225 002a 1623     		movs	r3, #22
 226              	.LVL26:
 227 002c 0360     		str	r3, [r0]
 228              		.loc 1 52 0
ARM GAS  C:\Users\Moi\AppData\Local\Temp\ccAmnUUW.s 			page 5


 229 002e 4FF0FF30 		mov	r0, #-1
 230              	.LVL27:
 231 0032 F4E7     		b	.L21
 232              	.LVL28:
 233              	.L27:
 234              		.loc 1 57 0
 235 0034 FFF7FEFF 		bl	__stack_chk_fail
 236              	.LVL29:
 237              	.L29:
 238              		.align	2
 239              	.L28:
 240 0038 00000000 		.word	__stack_chk_guard
 241 003c 00000000 		.word	SDU1
 242              		.cfi_endproc
 243              	.LFE258:
 244              		.size	_write_r, .-_write_r
 245              		.section	.text._close_r,"ax",%progbits
 246              		.align	1
 247              		.p2align 4,,15
 248              		.global	_close_r
 249              		.syntax unified
 250              		.thumb
 251              		.thumb_func
 252              		.fpu fpv4-sp-d16
 253              		.type	_close_r, %function
 254              	_close_r:
 255              	.LFB259:
 256              		.loc 1 60 0
 257              		.cfi_startproc
 258              		@ args = 0, pretend = 0, frame = 8
 259              		@ frame_needed = 0, uses_anonymous_args = 0
 260              	.LVL30:
 261 0000 00B5     		push	{lr}
 262              		.cfi_def_cfa_offset 4
 263              		.cfi_offset 14, -4
 264 0002 074B     		ldr	r3, .L34
 265 0004 83B0     		sub	sp, sp, #12
 266              		.cfi_def_cfa_offset 16
 267              		.loc 1 60 0
 268 0006 1A68     		ldr	r2, [r3]
 269 0008 0192     		str	r2, [sp, #4]
 270              		.loc 1 65 0
 271 000a 019A     		ldr	r2, [sp, #4]
 272 000c 1B68     		ldr	r3, [r3]
 273 000e 9A42     		cmp	r2, r3
 274 0010 03D1     		bne	.L33
 275 0012 0020     		movs	r0, #0
 276              	.LVL31:
 277 0014 03B0     		add	sp, sp, #12
 278              		.cfi_remember_state
 279              		.cfi_def_cfa_offset 4
 280              		@ sp needed
 281 0016 5DF804FB 		ldr	pc, [sp], #4
 282              	.LVL32:
 283              	.L33:
 284              		.cfi_restore_state
 285 001a FFF7FEFF 		bl	__stack_chk_fail
ARM GAS  C:\Users\Moi\AppData\Local\Temp\ccAmnUUW.s 			page 6


 286              	.LVL33:
 287              	.L35:
 288 001e 00BF     		.align	2
 289              	.L34:
 290 0020 00000000 		.word	__stack_chk_guard
 291              		.cfi_endproc
 292              	.LFE259:
 293              		.size	_close_r, .-_close_r
 294              		.section	.text._sbrk_r,"ax",%progbits
 295              		.align	1
 296              		.p2align 4,,15
 297              		.global	_sbrk_r
 298              		.syntax unified
 299              		.thumb
 300              		.thumb_func
 301              		.fpu fpv4-sp-d16
 302              		.type	_sbrk_r, %function
 303              	_sbrk_r:
 304              	.LFB260:
 305              		.loc 1 68 0
 306              		.cfi_startproc
 307              		@ args = 0, pretend = 0, frame = 8
 308              		@ frame_needed = 0, uses_anonymous_args = 0
 309              	.LVL34:
 310 0000 70B5     		push	{r4, r5, r6, lr}
 311              		.cfi_def_cfa_offset 16
 312              		.cfi_offset 4, -16
 313              		.cfi_offset 5, -12
 314              		.cfi_offset 6, -8
 315              		.cfi_offset 14, -4
 316 0002 0D4C     		ldr	r4, .L43
 317 0004 82B0     		sub	sp, sp, #8
 318              		.cfi_def_cfa_offset 24
 319              		.loc 1 68 0
 320 0006 2368     		ldr	r3, [r4]
 321 0008 0193     		str	r3, [sp, #4]
 322              		.loc 1 72 0
 323 000a 0D1E     		subs	r5, r1, #0
 324              		.loc 1 68 0
 325 000c 0646     		mov	r6, r0
 326              		.loc 1 72 0
 327 000e 0DDD     		ble	.L41
 328              	.LVL35:
 329              	.L37:
 330              		.loc 1 74 0
 331 0010 2846     		mov	r0, r5
 332 0012 FFF7FEFF 		bl	chCoreAlloc
 333              	.LVL36:
 334              		.loc 1 75 0
 335 0016 18B9     		cbnz	r0, .L36
 336              		.loc 1 76 0
 337 0018 0C23     		movs	r3, #12
 338 001a 3360     		str	r3, [r6]
 339              		.loc 1 77 0
 340 001c 4FF0FF30 		mov	r0, #-1
 341              	.LVL37:
 342              	.L36:
ARM GAS  C:\Users\Moi\AppData\Local\Temp\ccAmnUUW.s 			page 7


 343              		.loc 1 85 0
 344 0020 019A     		ldr	r2, [sp, #4]
 345 0022 2368     		ldr	r3, [r4]
 346 0024 9A42     		cmp	r2, r3
 347 0026 05D1     		bne	.L42
 348 0028 02B0     		add	sp, sp, #8
 349              		.cfi_remember_state
 350              		.cfi_def_cfa_offset 16
 351              		@ sp needed
 352 002a 70BD     		pop	{r4, r5, r6, pc}
 353              	.LVL38:
 354              	.L41:
 355              		.cfi_restore_state
 356              		.loc 1 72 0 discriminator 2
 357 002c 0348     		ldr	r0, .L43+4
 358              	.LVL39:
 359 002e FFF7FEFF 		bl	chSysHalt
 360              	.LVL40:
 361 0032 EDE7     		b	.L37
 362              	.L42:
 363              		.loc 1 85 0
 364 0034 FFF7FEFF 		bl	__stack_chk_fail
 365              	.LVL41:
 366              	.L44:
 367              		.align	2
 368              	.L43:
 369 0038 00000000 		.word	__stack_chk_guard
 370 003c 00000000 		.word	.LANCHOR0
 371              		.cfi_endproc
 372              	.LFE260:
 373              		.size	_sbrk_r, .-_sbrk_r
 374              		.section	.text._fstat_r,"ax",%progbits
 375              		.align	1
 376              		.p2align 4,,15
 377              		.global	_fstat_r
 378              		.syntax unified
 379              		.thumb
 380              		.thumb_func
 381              		.fpu fpv4-sp-d16
 382              		.type	_fstat_r, %function
 383              	_fstat_r:
 384              	.LFB261:
 385              		.loc 1 88 0
 386              		.cfi_startproc
 387              		@ args = 0, pretend = 0, frame = 8
 388              		@ frame_needed = 0, uses_anonymous_args = 0
 389              	.LVL42:
 390 0000 10B5     		push	{r4, lr}
 391              		.cfi_def_cfa_offset 8
 392              		.cfi_offset 4, -8
 393              		.cfi_offset 14, -4
 394 0002 0B4C     		ldr	r4, .L49
 395 0004 82B0     		sub	sp, sp, #8
 396              		.cfi_def_cfa_offset 16
 397              		.loc 1 88 0
 398 0006 1346     		mov	r3, r2
 399 0008 2268     		ldr	r2, [r4]
ARM GAS  C:\Users\Moi\AppData\Local\Temp\ccAmnUUW.s 			page 8


 400              	.LVL43:
 401 000a 0192     		str	r2, [sp, #4]
 402              		.loc 1 92 0
 403 000c 1846     		mov	r0, r3
 404              	.LVL44:
 405 000e 5822     		movs	r2, #88
 406 0010 0021     		movs	r1, #0
 407              	.LVL45:
 408 0012 FFF7FEFF 		bl	memset
 409              	.LVL46:
 410              		.loc 1 95 0
 411 0016 0199     		ldr	r1, [sp, #4]
 412 0018 2268     		ldr	r2, [r4]
 413              		.loc 1 92 0
 414 001a 0346     		mov	r3, r0
 415              		.loc 1 95 0
 416 001c 9142     		cmp	r1, r2
 417              		.loc 1 93 0
 418 001e 4FF40050 		mov	r0, #8192
 419 0022 5860     		str	r0, [r3, #4]
 420              		.loc 1 95 0
 421 0024 02D1     		bne	.L48
 422 0026 0020     		movs	r0, #0
 423 0028 02B0     		add	sp, sp, #8
 424              		.cfi_remember_state
 425              		.cfi_def_cfa_offset 8
 426              		@ sp needed
 427 002a 10BD     		pop	{r4, pc}
 428              	.L48:
 429              		.cfi_restore_state
 430 002c FFF7FEFF 		bl	__stack_chk_fail
 431              	.LVL47:
 432              	.L50:
 433              		.align	2
 434              	.L49:
 435 0030 00000000 		.word	__stack_chk_guard
 436              		.cfi_endproc
 437              	.LFE261:
 438              		.size	_fstat_r, .-_fstat_r
 439              		.section	.text._isatty_r,"ax",%progbits
 440              		.align	1
 441              		.p2align 4,,15
 442              		.global	_isatty_r
 443              		.syntax unified
 444              		.thumb
 445              		.thumb_func
 446              		.fpu fpv4-sp-d16
 447              		.type	_isatty_r, %function
 448              	_isatty_r:
 449              	.LFB262:
 450              		.loc 1 98 0
 451              		.cfi_startproc
 452              		@ args = 0, pretend = 0, frame = 8
 453              		@ frame_needed = 0, uses_anonymous_args = 0
 454              	.LVL48:
 455 0000 00B5     		push	{lr}
 456              		.cfi_def_cfa_offset 4
ARM GAS  C:\Users\Moi\AppData\Local\Temp\ccAmnUUW.s 			page 9


 457              		.cfi_offset 14, -4
 458 0002 074B     		ldr	r3, .L55
 459 0004 83B0     		sub	sp, sp, #12
 460              		.cfi_def_cfa_offset 16
 461              		.loc 1 98 0
 462 0006 1A68     		ldr	r2, [r3]
 463 0008 0192     		str	r2, [sp, #4]
 464              		.loc 1 103 0
 465 000a 019A     		ldr	r2, [sp, #4]
 466 000c 1B68     		ldr	r3, [r3]
 467 000e 9A42     		cmp	r2, r3
 468 0010 03D1     		bne	.L54
 469 0012 0120     		movs	r0, #1
 470              	.LVL49:
 471 0014 03B0     		add	sp, sp, #12
 472              		.cfi_remember_state
 473              		.cfi_def_cfa_offset 4
 474              		@ sp needed
 475 0016 5DF804FB 		ldr	pc, [sp], #4
 476              	.LVL50:
 477              	.L54:
 478              		.cfi_restore_state
 479 001a FFF7FEFF 		bl	__stack_chk_fail
 480              	.LVL51:
 481              	.L56:
 482 001e 00BF     		.align	2
 483              	.L55:
 484 0020 00000000 		.word	__stack_chk_guard
 485              		.cfi_endproc
 486              	.LFE262:
 487              		.size	_isatty_r, .-_isatty_r
 488              		.section	.text._fini,"ax",%progbits
 489              		.align	1
 490              		.p2align 4,,15
 491              		.global	_fini
 492              		.syntax unified
 493              		.thumb
 494              		.thumb_func
 495              		.fpu fpv4-sp-d16
 496              		.type	_fini, %function
 497              	_fini:
 498              	.LFB263:
 499              		.loc 1 107 0
 500              		.cfi_startproc
 501              		@ args = 0, pretend = 0, frame = 8
 502              		@ frame_needed = 0, uses_anonymous_args = 0
 503 0000 00B5     		push	{lr}
 504              		.cfi_def_cfa_offset 4
 505              		.cfi_offset 14, -4
 506 0002 064B     		ldr	r3, .L61
 507 0004 83B0     		sub	sp, sp, #12
 508              		.cfi_def_cfa_offset 16
 509              		.loc 1 107 0
 510 0006 1A68     		ldr	r2, [r3]
 511 0008 0192     		str	r2, [sp, #4]
 512              		.loc 1 109 0
 513 000a 019A     		ldr	r2, [sp, #4]
ARM GAS  C:\Users\Moi\AppData\Local\Temp\ccAmnUUW.s 			page 10


 514 000c 1B68     		ldr	r3, [r3]
 515 000e 9A42     		cmp	r2, r3
 516 0010 02D1     		bne	.L60
 517 0012 03B0     		add	sp, sp, #12
 518              		.cfi_remember_state
 519              		.cfi_def_cfa_offset 4
 520              		@ sp needed
 521 0014 5DF804FB 		ldr	pc, [sp], #4
 522              	.L60:
 523              		.cfi_restore_state
 524 0018 FFF7FEFF 		bl	__stack_chk_fail
 525              	.LVL52:
 526              	.L62:
 527              		.align	2
 528              	.L61:
 529 001c 00000000 		.word	__stack_chk_guard
 530              		.cfi_endproc
 531              	.LFE263:
 532              		.size	_fini, .-_fini
 533              		.section	.rodata.__func__.10923,"a",%progbits
 534              		.align	2
 535              		.set	.LANCHOR0,. + 0
 536              		.type	__func__.10923, %object
 537              		.size	__func__.10923, 8
 538              	__func__.10923:
 539 0000 5F736272 		.ascii	"_sbrk_r\000"
 539      6B5F7200 
 540              		.text
 541              	.Letext0:
 542              		.file 2 "c:\\users\\moi\\documents\\_microinfo\\epuck-eclipse\\tools\\gcc-arm-none-eabi-7-2017-q4-
 543              		.file 3 "c:\\users\\moi\\documents\\_microinfo\\epuck-eclipse\\tools\\gcc-arm-none-eabi-7-2017-q4-
 544              		.file 4 "c:\\users\\moi\\documents\\_microinfo\\epuck-eclipse\\tools\\gcc-arm-none-eabi-7-2017-q4-
 545              		.file 5 "c:\\users\\moi\\documents\\_microinfo\\epuck-eclipse\\tools\\gcc-arm-none-eabi-7-2017-q4-
 546              		.file 6 "c:\\users\\moi\\documents\\_microinfo\\epuck-eclipse\\tools\\gcc-arm-none-eabi-7-2017-q4-
 547              		.file 7 "c:\\users\\moi\\documents\\_microinfo\\epuck-eclipse\\tools\\gcc-arm-none-eabi-7-2017-q4-
 548              		.file 8 "c:\\users\\moi\\documents\\_microinfo\\epuck-eclipse\\tools\\gcc-arm-none-eabi-7-2017-q4-
 549              		.file 9 "c:\\users\\moi\\documents\\_microinfo\\epuck-eclipse\\tools\\gcc-arm-none-eabi-7-2017-q4-
 550              		.file 10 "c:\\users\\moi\\documents\\_microinfo\\epuck-eclipse\\tools\\gcc-arm-none-eabi-7-2017-q4
 551              		.file 11 "c:\\users\\moi\\documents\\_microinfo\\epuck-eclipse\\tools\\gcc-arm-none-eabi-7-2017-q4
 552              		.file 12 "c:\\users\\moi\\documents\\_microinfo\\epuck-eclipse\\tools\\gcc-arm-none-eabi-7-2017-q4
 553              		.file 13 "c:\\users\\moi\\documents\\_microinfo\\epuck-eclipse\\tools\\gcc-arm-none-eabi-7-2017-q4
 554              		.file 14 "..//ChibiOS//os/rt/ports/ARMCMx/compilers/GCC/chtypes.h"
 555              		.file 15 "..//ChibiOS//os/rt/include/chsystypes.h"
 556              		.file 16 "..//ChibiOS//os/rt/include/chschd.h"
 557              		.file 17 "..//ChibiOS//os/ext/CMSIS/include/core_cm4.h"
 558              		.file 18 "..//ChibiOS//os/ext/CMSIS/ST/system_stm32f4xx.h"
 559              		.file 19 "..//ChibiOS//os/ext/CMSIS/ST/stm32f407xx.h"
 560              		.file 20 "..//ChibiOS//os/rt/ports/ARMCMx/chcore.h"
 561              		.file 21 "..//ChibiOS//os/rt/ports/ARMCMx/chcore_v7m.h"
 562              		.file 22 "..//ChibiOS//os/rt/include/chdebug.h"
 563              		.file 23 "..//ChibiOS//os/rt/include/chtm.h"
 564              		.file 24 "..//ChibiOS//os/rt/include/chstats.h"
 565              		.file 25 "..//ChibiOS//os/rt/include/chsem.h"
 566              		.file 26 "..//ChibiOS//os/rt/include/chmtx.h"
 567              		.file 27 "..//ChibiOS//os/rt/include/chregistry.h"
 568              		.file 28 "..//ChibiOS//os/rt/include/chevents.h"
 569              		.file 29 "..//ChibiOS//os/rt/include/chqueues.h"
ARM GAS  C:\Users\Moi\AppData\Local\Temp\ccAmnUUW.s 			page 11


 570              		.file 30 "..//ChibiOS//os/rt/include/chstreams.h"
 571              		.file 31 "..//ChibiOS//os/hal/ports/STM32/STM32F4xx/stm32_dma.h"
 572              		.file 32 "..//ChibiOS//os/hal/include/hal_ioblock.h"
 573              		.file 33 "..//ChibiOS//os/hal/ports/STM32/LLD/GPIOv2/pal_lld.h"
 574              		.file 34 "..//ChibiOS//os/hal/include/adc.h"
 575              		.file 35 "..//ChibiOS//os/hal/ports/STM32/STM32F4xx/adc_lld.h"
 576              		.file 36 "..//ChibiOS//os/hal/include/can.h"
 577              		.file 37 "..//ChibiOS//os/hal/ports/STM32/LLD/can_lld.h"
 578              		.file 38 "..//ChibiOS//os/hal/include/dac.h"
 579              		.file 39 "..//ChibiOS//os/hal/ports/STM32/LLD/DACv1/dac_lld.h"
 580              		.file 40 "..//ChibiOS//os/hal/include/ext.h"
 581              		.file 41 "..//ChibiOS//os/hal/ports/STM32/LLD/ext_lld.h"
 582              		.file 42 "..//ChibiOS//os/hal/include/gpt.h"
 583              		.file 43 "..//ChibiOS//os/hal/ports/STM32/LLD/TIMv1/gpt_lld.h"
 584              		.file 44 "..//ChibiOS//os/hal/ports/STM32/LLD/TIMv1/stm32_tim.h"
 585              		.file 45 "..//ChibiOS//os/hal/include/i2c.h"
 586              		.file 46 "..//ChibiOS//os/hal/ports/STM32/LLD/I2Cv1/i2c_lld.h"
 587              		.file 47 "..//ChibiOS//os/hal/include/i2s.h"
 588              		.file 48 "..//ChibiOS//os/hal/ports/STM32/LLD/SPIv1/i2s_lld.h"
 589              		.file 49 "..//ChibiOS//os/hal/include/pwm.h"
 590              		.file 50 "..//ChibiOS//os/hal/ports/STM32/LLD/TIMv1/pwm_lld.h"
 591              		.file 51 "..//ChibiOS//os/hal/include/serial.h"
 592              		.file 52 "..//ChibiOS//os/hal/ports/STM32/LLD/USARTv1/serial_lld.h"
 593              		.file 53 "..//ChibiOS//os/hal/include/sdc.h"
 594              		.file 54 "..//ChibiOS//os/hal/ports/STM32/LLD/sdc_lld.h"
 595              		.file 55 "..//ChibiOS//os/hal/include/spi.h"
 596              		.file 56 "..//ChibiOS//os/hal/ports/STM32/LLD/SPIv1/spi_lld.h"
 597              		.file 57 "..//ChibiOS//os/hal/include/usb.h"
 598              		.file 58 "..//ChibiOS//os/hal/ports/STM32/LLD/OTGv1/usb_lld.h"
 599              		.file 59 "..//ChibiOS//os/hal/ports/STM32/LLD/OTGv1/stm32_otg.h"
 600              		.file 60 "..//ChibiOS//os/rt/include/chmemcore.h"
 601              		.file 61 "..//ChibiOS//os/rt/include/chsys.h"
 602              		.file 62 "<built-in>"