ARM GAS  C:\Users\Moi\AppData\Local\Temp\cc7J1o70.s 			page 1


   1              		.cpu cortex-m4
   2              		.eabi_attribute 27, 1
   3              		.eabi_attribute 28, 1
   4              		.eabi_attribute 20, 1
   5              		.eabi_attribute 21, 1
   6              		.eabi_attribute 23, 3
   7              		.eabi_attribute 24, 1
   8              		.eabi_attribute 25, 1
   9              		.eabi_attribute 26, 1
  10              		.eabi_attribute 30, 2
  11              		.eabi_attribute 34, 1
  12              		.eabi_attribute 18, 4
  13              		.file	"pwm_lld.c"
  14              		.text
  15              	.Ltext0:
  16              		.cfi_sections	.debug_frame
  17              		.section	.text.pwm_lld_serve_interrupt,"ax",%progbits
  18              		.align	1
  19              		.p2align 4,,15
  20              		.syntax unified
  21              		.thumb
  22              		.thumb_func
  23              		.fpu fpv4-sp-d16
  24              		.type	pwm_lld_serve_interrupt, %function
  25              	pwm_lld_serve_interrupt:
  26              	.LFB256:
  27              		.file 1 "..//ChibiOS//os/hal/ports/STM32/LLD/TIMv1/pwm_lld.c"
  28              		.loc 1 111 0
  29              		.cfi_startproc
  30              		@ args = 0, pretend = 0, frame = 8
  31              		@ frame_needed = 0, uses_anonymous_args = 0
  32              	.LVL0:
  33 0000 70B5     		push	{r4, r5, r6, lr}
  34              		.cfi_def_cfa_offset 16
  35              		.cfi_offset 4, -16
  36              		.cfi_offset 5, -12
  37              		.cfi_offset 6, -8
  38              		.cfi_offset 14, -4
  39 0002 1E4E     		ldr	r6, .L42
  40              		.loc 1 114 0
  41 0004 8369     		ldr	r3, [r0, #24]
  42              		.loc 1 111 0
  43 0006 3268     		ldr	r2, [r6]
  44 0008 82B0     		sub	sp, sp, #8
  45              		.cfi_def_cfa_offset 24
  46              		.loc 1 111 0
  47 000a 0546     		mov	r5, r0
  48 000c 0192     		str	r2, [sp, #4]
  49              		.loc 1 114 0
  50 000e 1A69     		ldr	r2, [r3, #16]
  51              	.LVL1:
  52              		.loc 1 115 0
  53 0010 DC68     		ldr	r4, [r3, #12]
  54 0012 1440     		ands	r4, r4, r2
  55              	.LVL2:
  56 0014 E2B2     		uxtb	r2, r4
  57              		.loc 1 116 0
ARM GAS  C:\Users\Moi\AppData\Local\Temp\cc7J1o70.s 			page 2


  58 0016 D243     		mvns	r2, r2
  59 0018 1A61     		str	r2, [r3, #16]
  60              		.loc 1 117 0
  61 001a A307     		lsls	r3, r4, #30
  62 001c 03D5     		bpl	.L2
  63              		.loc 1 118 0 discriminator 1
  64 001e 4368     		ldr	r3, [r0, #4]
  65 0020 1B69     		ldr	r3, [r3, #16]
  66              		.loc 1 117 0 discriminator 1
  67 0022 03B1     		cbz	r3, .L2
  68              		.loc 1 119 0
  69 0024 9847     		blx	r3
  70              	.LVL3:
  71              	.L2:
  72              		.loc 1 120 0
  73 0026 6007     		lsls	r0, r4, #29
  74 0028 04D5     		bpl	.L3
  75              		.loc 1 121 0 discriminator 1
  76 002a 6B68     		ldr	r3, [r5, #4]
  77 002c 9B69     		ldr	r3, [r3, #24]
  78              		.loc 1 120 0 discriminator 1
  79 002e 0BB1     		cbz	r3, .L3
  80              		.loc 1 122 0
  81 0030 2846     		mov	r0, r5
  82 0032 9847     		blx	r3
  83              	.LVL4:
  84              	.L3:
  85              		.loc 1 123 0
  86 0034 2107     		lsls	r1, r4, #28
  87 0036 04D5     		bpl	.L4
  88              		.loc 1 124 0 discriminator 1
  89 0038 6B68     		ldr	r3, [r5, #4]
  90 003a 1B6A     		ldr	r3, [r3, #32]
  91              		.loc 1 123 0 discriminator 1
  92 003c 0BB1     		cbz	r3, .L4
  93              		.loc 1 125 0
  94 003e 2846     		mov	r0, r5
  95 0040 9847     		blx	r3
  96              	.LVL5:
  97              	.L4:
  98              		.loc 1 126 0
  99 0042 E206     		lsls	r2, r4, #27
 100 0044 04D5     		bpl	.L5
 101              		.loc 1 127 0 discriminator 1
 102 0046 6B68     		ldr	r3, [r5, #4]
 103 0048 9B6A     		ldr	r3, [r3, #40]
 104              		.loc 1 126 0 discriminator 1
 105 004a 0BB1     		cbz	r3, .L5
 106              		.loc 1 128 0
 107 004c 2846     		mov	r0, r5
 108 004e 9847     		blx	r3
 109              	.LVL6:
 110              	.L5:
 111              		.loc 1 129 0
 112 0050 E307     		lsls	r3, r4, #31
 113 0052 0BD5     		bpl	.L1
 114              		.loc 1 129 0 is_stmt 0 discriminator 1
ARM GAS  C:\Users\Moi\AppData\Local\Temp\cc7J1o70.s 			page 3


 115 0054 6B68     		ldr	r3, [r5, #4]
 116 0056 9B68     		ldr	r3, [r3, #8]
 117 0058 43B1     		cbz	r3, .L1
 118              		.loc 1 130 0 is_stmt 1
 119 005a 0199     		ldr	r1, [sp, #4]
 120 005c 3268     		ldr	r2, [r6]
 121 005e 9142     		cmp	r1, r2
 122 0060 0AD1     		bne	.L40
 123 0062 2846     		mov	r0, r5
 124              		.loc 1 131 0
 125 0064 02B0     		add	sp, sp, #8
 126              		.cfi_remember_state
 127              		.cfi_def_cfa_offset 16
 128              		@ sp needed
 129 0066 BDE87040 		pop	{r4, r5, r6, lr}
 130              		.cfi_restore 14
 131              		.cfi_restore 6
 132              		.cfi_restore 5
 133              		.cfi_restore 4
 134              		.cfi_def_cfa_offset 0
 135              	.LVL7:
 136              		.loc 1 130 0
 137 006a 1847     		bx	r3	@ indirect register sibling call
 138              	.LVL8:
 139              	.L1:
 140              		.cfi_restore_state
 141              		.loc 1 131 0
 142 006c 019A     		ldr	r2, [sp, #4]
 143 006e 3368     		ldr	r3, [r6]
 144 0070 9A42     		cmp	r2, r3
 145 0072 01D1     		bne	.L40
 146 0074 02B0     		add	sp, sp, #8
 147              		.cfi_remember_state
 148              		.cfi_def_cfa_offset 16
 149              		@ sp needed
 150 0076 70BD     		pop	{r4, r5, r6, pc}
 151              	.LVL9:
 152              	.L40:
 153              		.cfi_restore_state
 154 0078 FFF7FEFF 		bl	__stack_chk_fail
 155              	.LVL10:
 156              	.L43:
 157              		.align	2
 158              	.L42:
 159 007c 00000000 		.word	__stack_chk_guard
 160              		.cfi_endproc
 161              	.LFE256:
 162              		.size	pwm_lld_serve_interrupt, .-pwm_lld_serve_interrupt
 163              		.section	.text.VectorB0,"ax",%progbits
 164              		.align	1
 165              		.p2align 4,,15
 166              		.global	VectorB0
 167              		.syntax unified
 168              		.thumb
 169              		.thumb_func
 170              		.fpu fpv4-sp-d16
 171              		.type	VectorB0, %function
ARM GAS  C:\Users\Moi\AppData\Local\Temp\cc7J1o70.s 			page 4


 172              	VectorB0:
 173              	.LFB257:
 174              		.loc 1 208 0
 175              		.cfi_startproc
 176              		@ args = 0, pretend = 0, frame = 8
 177              		@ frame_needed = 0, uses_anonymous_args = 0
 178 0000 10B5     		push	{r4, lr}
 179              		.cfi_def_cfa_offset 8
 180              		.cfi_offset 4, -8
 181              		.cfi_offset 14, -4
 182 0002 0C4C     		ldr	r4, .L49
 183 0004 82B0     		sub	sp, sp, #8
 184              		.cfi_def_cfa_offset 16
 185              		.loc 1 208 0
 186 0006 2368     		ldr	r3, [r4]
 187 0008 0193     		str	r3, [sp, #4]
 188              		.loc 1 210 0
 189 000a FFF7FEFF 		bl	_stats_increase_irq
 190              	.LVL11:
 191 000e FFF7FEFF 		bl	_dbg_check_enter_isr
 192              	.LVL12:
 193              		.loc 1 212 0
 194 0012 0948     		ldr	r0, .L49+4
 195 0014 FFF7FEFF 		bl	pwm_lld_serve_interrupt
 196              	.LVL13:
 197              		.loc 1 214 0
 198 0018 FFF7FEFF 		bl	_dbg_check_leave_isr
 199              	.LVL14:
 200 001c 019A     		ldr	r2, [sp, #4]
 201 001e 2368     		ldr	r3, [r4]
 202 0020 9A42     		cmp	r2, r3
 203 0022 04D1     		bne	.L48
 204              		.loc 1 215 0
 205 0024 02B0     		add	sp, sp, #8
 206              		.cfi_remember_state
 207              		.cfi_def_cfa_offset 8
 208              		@ sp needed
 209 0026 BDE81040 		pop	{r4, lr}
 210              		.cfi_restore 14
 211              		.cfi_restore 4
 212              		.cfi_def_cfa_offset 0
 213              		.loc 1 214 0
 214 002a FFF7FEBF 		b	_port_irq_epilogue
 215              	.LVL15:
 216              	.L48:
 217              		.cfi_restore_state
 218 002e FFF7FEFF 		bl	__stack_chk_fail
 219              	.LVL16:
 220              	.L50:
 221 0032 00BF     		.align	2
 222              	.L49:
 223 0034 00000000 		.word	__stack_chk_guard
 224 0038 00000000 		.word	.LANCHOR0
 225              		.cfi_endproc
 226              	.LFE257:
 227              		.size	VectorB0, .-VectorB0
 228              		.section	.text.VectorB4,"ax",%progbits
ARM GAS  C:\Users\Moi\AppData\Local\Temp\cc7J1o70.s 			page 5


 229              		.align	1
 230              		.p2align 4,,15
 231              		.global	VectorB4
 232              		.syntax unified
 233              		.thumb
 234              		.thumb_func
 235              		.fpu fpv4-sp-d16
 236              		.type	VectorB4, %function
 237              	VectorB4:
 238              	.LFB258:
 239              		.loc 1 227 0
 240              		.cfi_startproc
 241              		@ args = 0, pretend = 0, frame = 8
 242              		@ frame_needed = 0, uses_anonymous_args = 0
 243 0000 10B5     		push	{r4, lr}
 244              		.cfi_def_cfa_offset 8
 245              		.cfi_offset 4, -8
 246              		.cfi_offset 14, -4
 247 0002 0C4C     		ldr	r4, .L56
 248 0004 82B0     		sub	sp, sp, #8
 249              		.cfi_def_cfa_offset 16
 250              		.loc 1 227 0
 251 0006 2368     		ldr	r3, [r4]
 252 0008 0193     		str	r3, [sp, #4]
 253              		.loc 1 229 0
 254 000a FFF7FEFF 		bl	_stats_increase_irq
 255              	.LVL17:
 256 000e FFF7FEFF 		bl	_dbg_check_enter_isr
 257              	.LVL18:
 258              		.loc 1 231 0
 259 0012 0948     		ldr	r0, .L56+4
 260 0014 FFF7FEFF 		bl	pwm_lld_serve_interrupt
 261              	.LVL19:
 262              		.loc 1 233 0
 263 0018 FFF7FEFF 		bl	_dbg_check_leave_isr
 264              	.LVL20:
 265 001c 019A     		ldr	r2, [sp, #4]
 266 001e 2368     		ldr	r3, [r4]
 267 0020 9A42     		cmp	r2, r3
 268 0022 04D1     		bne	.L55
 269              		.loc 1 234 0
 270 0024 02B0     		add	sp, sp, #8
 271              		.cfi_remember_state
 272              		.cfi_def_cfa_offset 8
 273              		@ sp needed
 274 0026 BDE81040 		pop	{r4, lr}
 275              		.cfi_restore 14
 276              		.cfi_restore 4
 277              		.cfi_def_cfa_offset 0
 278              		.loc 1 233 0
 279 002a FFF7FEBF 		b	_port_irq_epilogue
 280              	.LVL21:
 281              	.L55:
 282              		.cfi_restore_state
 283 002e FFF7FEFF 		bl	__stack_chk_fail
 284              	.LVL22:
 285              	.L57:
ARM GAS  C:\Users\Moi\AppData\Local\Temp\cc7J1o70.s 			page 6


 286 0032 00BF     		.align	2
 287              	.L56:
 288 0034 00000000 		.word	__stack_chk_guard
 289 0038 00000000 		.word	.LANCHOR1
 290              		.cfi_endproc
 291              	.LFE258:
 292              		.size	VectorB4, .-VectorB4
 293              		.section	.text.VectorB8,"ax",%progbits
 294              		.align	1
 295              		.p2align 4,,15
 296              		.global	VectorB8
 297              		.syntax unified
 298              		.thumb
 299              		.thumb_func
 300              		.fpu fpv4-sp-d16
 301              		.type	VectorB8, %function
 302              	VectorB8:
 303              	.LFB259:
 304              		.loc 1 246 0
 305              		.cfi_startproc
 306              		@ args = 0, pretend = 0, frame = 8
 307              		@ frame_needed = 0, uses_anonymous_args = 0
 308 0000 10B5     		push	{r4, lr}
 309              		.cfi_def_cfa_offset 8
 310              		.cfi_offset 4, -8
 311              		.cfi_offset 14, -4
 312 0002 0C4C     		ldr	r4, .L63
 313 0004 82B0     		sub	sp, sp, #8
 314              		.cfi_def_cfa_offset 16
 315              		.loc 1 246 0
 316 0006 2368     		ldr	r3, [r4]
 317 0008 0193     		str	r3, [sp, #4]
 318              		.loc 1 248 0
 319 000a FFF7FEFF 		bl	_stats_increase_irq
 320              	.LVL23:
 321 000e FFF7FEFF 		bl	_dbg_check_enter_isr
 322              	.LVL24:
 323              		.loc 1 250 0
 324 0012 0948     		ldr	r0, .L63+4
 325 0014 FFF7FEFF 		bl	pwm_lld_serve_interrupt
 326              	.LVL25:
 327              		.loc 1 252 0
 328 0018 FFF7FEFF 		bl	_dbg_check_leave_isr
 329              	.LVL26:
 330 001c 019A     		ldr	r2, [sp, #4]
 331 001e 2368     		ldr	r3, [r4]
 332 0020 9A42     		cmp	r2, r3
 333 0022 04D1     		bne	.L62
 334              		.loc 1 253 0
 335 0024 02B0     		add	sp, sp, #8
 336              		.cfi_remember_state
 337              		.cfi_def_cfa_offset 8
 338              		@ sp needed
 339 0026 BDE81040 		pop	{r4, lr}
 340              		.cfi_restore 14
 341              		.cfi_restore 4
 342              		.cfi_def_cfa_offset 0
ARM GAS  C:\Users\Moi\AppData\Local\Temp\cc7J1o70.s 			page 7


 343              		.loc 1 252 0
 344 002a FFF7FEBF 		b	_port_irq_epilogue
 345              	.LVL27:
 346              	.L62:
 347              		.cfi_restore_state
 348 002e FFF7FEFF 		bl	__stack_chk_fail
 349              	.LVL28:
 350              	.L64:
 351 0032 00BF     		.align	2
 352              	.L63:
 353 0034 00000000 		.word	__stack_chk_guard
 354 0038 00000000 		.word	.LANCHOR2
 355              		.cfi_endproc
 356              	.LFE259:
 357              		.size	VectorB8, .-VectorB8
 358              		.section	.text.Vector108,"ax",%progbits
 359              		.align	1
 360              		.p2align 4,,15
 361              		.global	Vector108
 362              		.syntax unified
 363              		.thumb
 364              		.thumb_func
 365              		.fpu fpv4-sp-d16
 366              		.type	Vector108, %function
 367              	Vector108:
 368              	.LFB260:
 369              		.loc 1 265 0
 370              		.cfi_startproc
 371              		@ args = 0, pretend = 0, frame = 8
 372              		@ frame_needed = 0, uses_anonymous_args = 0
 373 0000 10B5     		push	{r4, lr}
 374              		.cfi_def_cfa_offset 8
 375              		.cfi_offset 4, -8
 376              		.cfi_offset 14, -4
 377 0002 0C4C     		ldr	r4, .L70
 378 0004 82B0     		sub	sp, sp, #8
 379              		.cfi_def_cfa_offset 16
 380              		.loc 1 265 0
 381 0006 2368     		ldr	r3, [r4]
 382 0008 0193     		str	r3, [sp, #4]
 383              		.loc 1 267 0
 384 000a FFF7FEFF 		bl	_stats_increase_irq
 385              	.LVL29:
 386 000e FFF7FEFF 		bl	_dbg_check_enter_isr
 387              	.LVL30:
 388              		.loc 1 269 0
 389 0012 0948     		ldr	r0, .L70+4
 390 0014 FFF7FEFF 		bl	pwm_lld_serve_interrupt
 391              	.LVL31:
 392              		.loc 1 271 0
 393 0018 FFF7FEFF 		bl	_dbg_check_leave_isr
 394              	.LVL32:
 395 001c 019A     		ldr	r2, [sp, #4]
 396 001e 2368     		ldr	r3, [r4]
 397 0020 9A42     		cmp	r2, r3
 398 0022 04D1     		bne	.L69
 399              		.loc 1 272 0
ARM GAS  C:\Users\Moi\AppData\Local\Temp\cc7J1o70.s 			page 8


 400 0024 02B0     		add	sp, sp, #8
 401              		.cfi_remember_state
 402              		.cfi_def_cfa_offset 8
 403              		@ sp needed
 404 0026 BDE81040 		pop	{r4, lr}
 405              		.cfi_restore 14
 406              		.cfi_restore 4
 407              		.cfi_def_cfa_offset 0
 408              		.loc 1 271 0
 409 002a FFF7FEBF 		b	_port_irq_epilogue
 410              	.LVL33:
 411              	.L69:
 412              		.cfi_restore_state
 413 002e FFF7FEFF 		bl	__stack_chk_fail
 414              	.LVL34:
 415              	.L71:
 416 0032 00BF     		.align	2
 417              	.L70:
 418 0034 00000000 		.word	__stack_chk_guard
 419 0038 00000000 		.word	.LANCHOR3
 420              		.cfi_endproc
 421              	.LFE260:
 422              		.size	Vector108, .-Vector108
 423              		.section	.text.pwm_lld_init,"ax",%progbits
 424              		.align	1
 425              		.p2align 4,,15
 426              		.global	pwm_lld_init
 427              		.syntax unified
 428              		.thumb
 429              		.thumb_func
 430              		.fpu fpv4-sp-d16
 431              		.type	pwm_lld_init, %function
 432              	pwm_lld_init:
 433              	.LFB261:
 434              		.loc 1 364 0
 435              		.cfi_startproc
 436              		@ args = 0, pretend = 0, frame = 8
 437              		@ frame_needed = 0, uses_anonymous_args = 0
 438 0000 2DE9F041 		push	{r4, r5, r6, r7, r8, lr}
 439              		.cfi_def_cfa_offset 24
 440              		.cfi_offset 4, -24
 441              		.cfi_offset 5, -20
 442              		.cfi_offset 6, -16
 443              		.cfi_offset 7, -12
 444              		.cfi_offset 8, -8
 445              		.cfi_offset 14, -4
 446              		.loc 1 375 0
 447 0004 164D     		ldr	r5, .L76
 448              		.loc 1 364 0
 449 0006 DFF87480 		ldr	r8, .L76+28
 450              		.loc 1 382 0
 451 000a 164F     		ldr	r7, .L76+4
 452              		.loc 1 364 0
 453 000c D8F80030 		ldr	r3, [r8]
 454              		.loc 1 389 0
 455 0010 154E     		ldr	r6, .L76+8
 456              		.loc 1 364 0
ARM GAS  C:\Users\Moi\AppData\Local\Temp\cc7J1o70.s 			page 9


 457 0012 82B0     		sub	sp, sp, #8
 458              		.cfi_def_cfa_offset 32
 459              		.loc 1 375 0
 460 0014 2846     		mov	r0, r5
 461              		.loc 1 376 0
 462 0016 0424     		movs	r4, #4
 463              		.loc 1 364 0
 464 0018 0193     		str	r3, [sp, #4]
 465              		.loc 1 375 0
 466 001a FFF7FEFF 		bl	pwmObjectInit
 467              	.LVL35:
 468              		.loc 1 377 0
 469 001e 4FF08043 		mov	r3, #1073741824
 470 0022 AB61     		str	r3, [r5, #24]
 471              		.loc 1 382 0
 472 0024 3846     		mov	r0, r7
 473              		.loc 1 376 0
 474 0026 2C74     		strb	r4, [r5, #16]
 475              		.loc 1 396 0
 476 0028 104D     		ldr	r5, .L76+12
 477              		.loc 1 382 0
 478 002a FFF7FEFF 		bl	pwmObjectInit
 479              	.LVL36:
 480              		.loc 1 384 0
 481 002e 104B     		ldr	r3, .L76+16
 482 0030 BB61     		str	r3, [r7, #24]
 483              		.loc 1 389 0
 484 0032 3046     		mov	r0, r6
 485              		.loc 1 383 0
 486 0034 3C74     		strb	r4, [r7, #16]
 487              		.loc 1 389 0
 488 0036 FFF7FEFF 		bl	pwmObjectInit
 489              	.LVL37:
 490              		.loc 1 391 0
 491 003a 0E4B     		ldr	r3, .L76+20
 492 003c B361     		str	r3, [r6, #24]
 493              		.loc 1 396 0
 494 003e 2846     		mov	r0, r5
 495              		.loc 1 390 0
 496 0040 3474     		strb	r4, [r6, #16]
 497              		.loc 1 396 0
 498 0042 FFF7FEFF 		bl	pwmObjectInit
 499              	.LVL38:
 500              		.loc 1 414 0
 501 0046 019A     		ldr	r2, [sp, #4]
 502 0048 D8F80030 		ldr	r3, [r8]
 503              		.loc 1 398 0
 504 004c 0A49     		ldr	r1, .L76+24
 505              		.loc 1 397 0
 506 004e 2C74     		strb	r4, [r5, #16]
 507              		.loc 1 414 0
 508 0050 9A42     		cmp	r2, r3
 509              		.loc 1 398 0
 510 0052 A961     		str	r1, [r5, #24]
 511              		.loc 1 414 0
 512 0054 02D1     		bne	.L75
 513 0056 02B0     		add	sp, sp, #8
ARM GAS  C:\Users\Moi\AppData\Local\Temp\cc7J1o70.s 			page 10


 514              		.cfi_remember_state
 515              		.cfi_def_cfa_offset 24
 516              		@ sp needed
 517 0058 BDE8F081 		pop	{r4, r5, r6, r7, r8, pc}
 518              	.L75:
 519              		.cfi_restore_state
 520 005c FFF7FEFF 		bl	__stack_chk_fail
 521              	.LVL39:
 522              	.L77:
 523              		.align	2
 524              	.L76:
 525 0060 00000000 		.word	.LANCHOR0
 526 0064 00000000 		.word	.LANCHOR1
 527 0068 00000000 		.word	.LANCHOR2
 528 006c 00000000 		.word	.LANCHOR3
 529 0070 00040040 		.word	1073742848
 530 0074 00080040 		.word	1073743872
 531 0078 000C0040 		.word	1073744896
 532 007c 00000000 		.word	__stack_chk_guard
 533              		.cfi_endproc
 534              	.LFE261:
 535              		.size	pwm_lld_init, .-pwm_lld_init
 536              		.section	.text.pwm_lld_start,"ax",%progbits
 537              		.align	1
 538              		.p2align 4,,15
 539              		.global	pwm_lld_start
 540              		.syntax unified
 541              		.thumb
 542              		.thumb_func
 543              		.fpu fpv4-sp-d16
 544              		.type	pwm_lld_start, %function
 545              	pwm_lld_start:
 546              	.LFB262:
 547              		.loc 1 425 0
 548              		.cfi_startproc
 549              		@ args = 0, pretend = 0, frame = 8
 550              		@ frame_needed = 0, uses_anonymous_args = 0
 551              	.LVL40:
 552 0000 F0B5     		push	{r4, r5, r6, r7, lr}
 553              		.cfi_def_cfa_offset 20
 554              		.cfi_offset 4, -20
 555              		.cfi_offset 5, -16
 556              		.cfi_offset 6, -12
 557              		.cfi_offset 7, -8
 558              		.cfi_offset 14, -4
 559              		.loc 1 429 0
 560 0002 0378     		ldrb	r3, [r0]	@ zero_extendqisi2
 561              		.loc 1 425 0
 562 0004 634D     		ldr	r5, .L121
 563 0006 83B0     		sub	sp, sp, #12
 564              		.cfi_def_cfa_offset 32
 565              		.loc 1 425 0
 566 0008 2A68     		ldr	r2, [r5]
 567 000a 0192     		str	r2, [sp, #4]
 568              		.loc 1 429 0
 569 000c 012B     		cmp	r3, #1
 570              		.loc 1 425 0
ARM GAS  C:\Users\Moi\AppData\Local\Temp\cc7J1o70.s 			page 11


 571 000e 0446     		mov	r4, r0
 572              		.loc 1 429 0
 573 0010 64D0     		beq	.L112
 574              		.loc 1 512 0
 575 0012 8369     		ldr	r3, [r0, #24]
 576 0014 0022     		movs	r2, #0
 577 0016 1A60     		str	r2, [r3]
 578              		.loc 1 513 0
 579 0018 5A63     		str	r2, [r3, #52]
 580              		.loc 1 514 0
 581 001a 9A63     		str	r2, [r3, #56]
 582              		.loc 1 515 0
 583 001c DA63     		str	r2, [r3, #60]
 584              		.loc 1 516 0
 585 001e 1A64     		str	r2, [r3, #64]
 586              		.loc 1 523 0
 587 0020 5A62     		str	r2, [r3, #36]
 588              	.LVL41:
 589              	.L84:
 590              		.loc 1 527 0
 591 0022 6168     		ldr	r1, [r4, #4]
 592 0024 6069     		ldr	r0, [r4, #20]
 593 0026 0F68     		ldr	r7, [r1]
 594 0028 B0FBF7F2 		udiv	r2, r0, r7
 595 002c 561E     		subs	r6, r2, #1
 596              	.LVL42:
 597              		.loc 1 528 0
 598 002e B6F5803F 		cmp	r6, #65536
 599 0032 03D2     		bcs	.L85
 600              		.loc 1 528 0 is_stmt 0 discriminator 3
 601 0034 02FB07F2 		mul	r2, r2, r7
 602 0038 9042     		cmp	r0, r2
 603 003a 04D0     		beq	.L86
 604              	.L85:
 605              		.loc 1 528 0 discriminator 4
 606 003c 5648     		ldr	r0, .L121+4
 607 003e FFF7FEFF 		bl	chSysHalt
 608              	.LVL43:
 609 0042 6168     		ldr	r1, [r4, #4]
 610 0044 A369     		ldr	r3, [r4, #24]
 611              	.L86:
 612              		.loc 1 537 0 is_stmt 1
 613 0046 CA68     		ldr	r2, [r1, #12]
 614              		.loc 1 532 0
 615 0048 A068     		ldr	r0, [r4, #8]
 616              		.loc 1 533 0
 617 004a CC6A     		ldr	r4, [r1, #44]
 618              	.LVL44:
 619              		.loc 1 531 0
 620 004c 9E62     		str	r6, [r3, #40]
 621              		.loc 1 537 0
 622 004e 02F00F02 		and	r2, r2, #15
 623              		.loc 1 532 0
 624 0052 0138     		subs	r0, r0, #1
 625              		.loc 1 537 0
 626 0054 012A     		cmp	r2, #1
 627              		.loc 1 532 0
ARM GAS  C:\Users\Moi\AppData\Local\Temp\cc7J1o70.s 			page 12


 628 0056 D862     		str	r0, [r3, #44]
 629              		.loc 1 533 0
 630 0058 5C60     		str	r4, [r3, #4]
 631              	.LVL45:
 632              		.loc 1 537 0
 633 005a 03D0     		beq	.L87
 634              		.loc 1 536 0
 635 005c 022A     		cmp	r2, #2
 636 005e 0CBF     		ite	eq
 637 0060 0322     		moveq	r2, #3
 638 0062 0022     		movne	r2, #0
 639              	.L87:
 640              	.LVL46:
 641              		.loc 1 545 0
 642 0064 4869     		ldr	r0, [r1, #20]
 643 0066 00F00F00 		and	r0, r0, #15
 644 006a 0128     		cmp	r0, #1
 645 006c 2ED0     		beq	.L91
 646 006e 0228     		cmp	r0, #2
 647 0070 2AD0     		beq	.L113
 648              	.L90:
 649              		.loc 1 553 0
 650 0072 C869     		ldr	r0, [r1, #28]
 651 0074 00F00F00 		and	r0, r0, #15
 652 0078 0128     		cmp	r0, #1
 653 007a 1BD0     		beq	.L94
 654 007c 0228     		cmp	r0, #2
 655 007e 17D0     		beq	.L114
 656              		.loc 1 561 0
 657 0080 486A     		ldr	r0, [r1, #36]
 658 0082 00F00F00 		and	r0, r0, #15
 659 0086 0128     		cmp	r0, #1
 660 0088 1BD0     		beq	.L97
 661              	.L117:
 662 008a 0228     		cmp	r0, #2
 663 008c 21D0     		beq	.L115
 664              	.L96:
 665              		.loc 1 609 0
 666 008e 096B     		ldr	r1, [r1, #48]
 667              		.loc 1 606 0
 668 0090 1A62     		str	r2, [r3, #32]
 669              		.loc 1 607 0
 670 0092 0124     		movs	r4, #1
 671              		.loc 1 609 0
 672 0094 21F0FF02 		bic	r2, r1, #255
 673              	.LVL47:
 674              		.loc 1 608 0
 675 0098 0020     		movs	r0, #0
 676              		.loc 1 619 0
 677 009a 8521     		movs	r1, #133
 678              		.loc 1 607 0
 679 009c 5C61     		str	r4, [r3, #20]
 680              	.LVL48:
 681              		.loc 1 608 0
 682 009e 1861     		str	r0, [r3, #16]
 683              		.loc 1 609 0
 684 00a0 DA60     		str	r2, [r3, #12]
ARM GAS  C:\Users\Moi\AppData\Local\Temp\cc7J1o70.s 			page 13


 685              		.loc 1 619 0
 686 00a2 1960     		str	r1, [r3]
 687              		.loc 1 621 0
 688 00a4 019A     		ldr	r2, [sp, #4]
 689 00a6 2B68     		ldr	r3, [r5]
 690 00a8 9A42     		cmp	r2, r3
 691 00aa 70D1     		bne	.L116
 692 00ac 03B0     		add	sp, sp, #12
 693              		.cfi_remember_state
 694              		.cfi_def_cfa_offset 20
 695              		@ sp needed
 696 00ae F0BD     		pop	{r4, r5, r6, r7, pc}
 697              	.LVL49:
 698              	.L114:
 699              		.cfi_restore_state
 700              		.loc 1 555 0
 701 00b0 42F40072 		orr	r2, r2, #512
 702              	.LVL50:
 703              	.L94:
 704              		.loc 1 561 0
 705 00b4 486A     		ldr	r0, [r1, #36]
 706 00b6 00F00F00 		and	r0, r0, #15
 707 00ba 0128     		cmp	r0, #1
 708              		.loc 1 557 0
 709 00bc 42F48072 		orr	r2, r2, #256
 710              	.LVL51:
 711              		.loc 1 561 0
 712 00c0 E3D1     		bne	.L117
 713              	.L97:
 714              		.loc 1 565 0
 715 00c2 42F48052 		orr	r2, r2, #4096
 716              	.LVL52:
 717 00c6 E2E7     		b	.L96
 718              	.L113:
 719              		.loc 1 547 0
 720 00c8 42F02002 		orr	r2, r2, #32
 721              	.LVL53:
 722              	.L91:
 723              		.loc 1 549 0
 724 00cc 42F01002 		orr	r2, r2, #16
 725              	.LVL54:
 726 00d0 CFE7     		b	.L90
 727              	.L115:
 728              		.loc 1 563 0
 729 00d2 42F40052 		orr	r2, r2, #8192
 730              	.LVL55:
 731              		.loc 1 565 0
 732 00d6 42F48052 		orr	r2, r2, #4096
 733              	.LVL56:
 734 00da D8E7     		b	.L96
 735              	.LVL57:
 736              	.L112:
 737              		.loc 1 445 0
 738 00dc 2F4B     		ldr	r3, .L121+8
 739 00de 9842     		cmp	r0, r3
 740 00e0 43D0     		beq	.L118
 741              		.loc 1 453 0
ARM GAS  C:\Users\Moi\AppData\Local\Temp\cc7J1o70.s 			page 14


 742 00e2 2F4B     		ldr	r3, .L121+12
 743 00e4 9842     		cmp	r0, r3
 744 00e6 2ED0     		beq	.L119
 745              		.loc 1 461 0
 746 00e8 2E4B     		ldr	r3, .L121+16
 747 00ea 9842     		cmp	r0, r3
 748 00ec 19D0     		beq	.L120
 749              		.loc 1 470 0
 750 00ee 2E4B     		ldr	r3, .L121+20
 751 00f0 9842     		cmp	r0, r3
 752 00f2 10D1     		bne	.L81
 753              		.loc 1 471 0
 754 00f4 2D4B     		ldr	r3, .L121+24
 755 00f6 1A6C     		ldr	r2, [r3, #64]
 756 00f8 42F00802 		orr	r2, r2, #8
 757 00fc 1A64     		str	r2, [r3, #64]
 758              		.loc 1 472 0
 759 00fe 1A6A     		ldr	r2, [r3, #32]
 760 0100 0020     		movs	r0, #0
 761              	.LVL58:
 762 0102 42F00802 		orr	r2, r2, #8
 763 0106 1A62     		str	r2, [r3, #32]
 764              		.loc 1 473 0
 765 0108 0721     		movs	r1, #7
 766              		.loc 1 472 0
 767 010a 1862     		str	r0, [r3, #32]
 768              		.loc 1 473 0
 769 010c 3220     		movs	r0, #50
 770 010e FFF7FEFF 		bl	nvicEnableVector
 771              	.LVL59:
 772              		.loc 1 474 0
 773 0112 274B     		ldr	r3, .L121+28
 774 0114 6361     		str	r3, [r4, #20]
 775              	.L81:
 776              		.loc 1 501 0
 777 0116 A369     		ldr	r3, [r4, #24]
 778 0118 46F66802 		movw	r2, #26728
 779 011c 9A61     		str	r2, [r3, #24]
 780              		.loc 1 503 0
 781 011e DA61     		str	r2, [r3, #28]
 782 0120 7FE7     		b	.L84
 783              	.LVL60:
 784              	.L120:
 785              		.loc 1 462 0
 786 0122 224B     		ldr	r3, .L121+24
 787 0124 1A6C     		ldr	r2, [r3, #64]
 788 0126 42F00402 		orr	r2, r2, #4
 789 012a 1A64     		str	r2, [r3, #64]
 790              		.loc 1 463 0
 791 012c 1A6A     		ldr	r2, [r3, #32]
 792 012e 0020     		movs	r0, #0
 793              	.LVL61:
 794 0130 42F00402 		orr	r2, r2, #4
 795 0134 1A62     		str	r2, [r3, #32]
 796              		.loc 1 464 0
 797 0136 0721     		movs	r1, #7
 798              		.loc 1 463 0
ARM GAS  C:\Users\Moi\AppData\Local\Temp\cc7J1o70.s 			page 15


 799 0138 1862     		str	r0, [r3, #32]
 800              		.loc 1 464 0
 801 013a 1E20     		movs	r0, #30
 802 013c FFF7FEFF 		bl	nvicEnableVector
 803              	.LVL62:
 804              		.loc 1 465 0
 805 0140 1B4B     		ldr	r3, .L121+28
 806 0142 6361     		str	r3, [r4, #20]
 807 0144 E7E7     		b	.L81
 808              	.LVL63:
 809              	.L119:
 810              		.loc 1 454 0
 811 0146 194B     		ldr	r3, .L121+24
 812 0148 1A6C     		ldr	r2, [r3, #64]
 813 014a 42F00202 		orr	r2, r2, #2
 814 014e 1A64     		str	r2, [r3, #64]
 815              		.loc 1 455 0
 816 0150 1A6A     		ldr	r2, [r3, #32]
 817 0152 0020     		movs	r0, #0
 818              	.LVL64:
 819 0154 42F00202 		orr	r2, r2, #2
 820 0158 1A62     		str	r2, [r3, #32]
 821              		.loc 1 456 0
 822 015a 0721     		movs	r1, #7
 823              		.loc 1 455 0
 824 015c 1862     		str	r0, [r3, #32]
 825              		.loc 1 456 0
 826 015e 1D20     		movs	r0, #29
 827 0160 FFF7FEFF 		bl	nvicEnableVector
 828              	.LVL65:
 829              		.loc 1 457 0
 830 0164 124B     		ldr	r3, .L121+28
 831 0166 6361     		str	r3, [r4, #20]
 832 0168 D5E7     		b	.L81
 833              	.LVL66:
 834              	.L118:
 835              		.loc 1 446 0
 836 016a 104B     		ldr	r3, .L121+24
 837 016c 1A6C     		ldr	r2, [r3, #64]
 838 016e 42F00102 		orr	r2, r2, #1
 839 0172 1A64     		str	r2, [r3, #64]
 840              		.loc 1 447 0
 841 0174 1A6A     		ldr	r2, [r3, #32]
 842 0176 0020     		movs	r0, #0
 843              	.LVL67:
 844 0178 42F00102 		orr	r2, r2, #1
 845 017c 1A62     		str	r2, [r3, #32]
 846              		.loc 1 448 0
 847 017e 0721     		movs	r1, #7
 848              		.loc 1 447 0
 849 0180 1862     		str	r0, [r3, #32]
 850              		.loc 1 448 0
 851 0182 1C20     		movs	r0, #28
 852 0184 FFF7FEFF 		bl	nvicEnableVector
 853              	.LVL68:
 854              		.loc 1 449 0
 855 0188 094B     		ldr	r3, .L121+28
ARM GAS  C:\Users\Moi\AppData\Local\Temp\cc7J1o70.s 			page 16


 856 018a 6361     		str	r3, [r4, #20]
 857 018c C3E7     		b	.L81
 858              	.LVL69:
 859              	.L116:
 860              		.loc 1 621 0
 861 018e FFF7FEFF 		bl	__stack_chk_fail
 862              	.LVL70:
 863              	.L122:
 864 0192 00BF     		.align	2
 865              	.L121:
 866 0194 00000000 		.word	__stack_chk_guard
 867 0198 00000000 		.word	.LANCHOR4
 868 019c 00000000 		.word	.LANCHOR0
 869 01a0 00000000 		.word	.LANCHOR1
 870 01a4 00000000 		.word	.LANCHOR2
 871 01a8 00000000 		.word	.LANCHOR3
 872 01ac 00380240 		.word	1073887232
 873 01b0 00BD0105 		.word	84000000
 874              		.cfi_endproc
 875              	.LFE262:
 876              		.size	pwm_lld_start, .-pwm_lld_start
 877              		.section	.text.pwm_lld_stop,"ax",%progbits
 878              		.align	1
 879              		.p2align 4,,15
 880              		.global	pwm_lld_stop
 881              		.syntax unified
 882              		.thumb
 883              		.thumb_func
 884              		.fpu fpv4-sp-d16
 885              		.type	pwm_lld_stop, %function
 886              	pwm_lld_stop:
 887              	.LFB263:
 888              		.loc 1 630 0
 889              		.cfi_startproc
 890              		@ args = 0, pretend = 0, frame = 8
 891              		@ frame_needed = 0, uses_anonymous_args = 0
 892              	.LVL71:
 893 0000 10B5     		push	{r4, lr}
 894              		.cfi_def_cfa_offset 8
 895              		.cfi_offset 4, -8
 896              		.cfi_offset 14, -4
 897              		.loc 1 633 0
 898 0002 0378     		ldrb	r3, [r0]	@ zero_extendqisi2
 899              		.loc 1 630 0
 900 0004 214C     		ldr	r4, .L137
 901 0006 82B0     		sub	sp, sp, #8
 902              		.cfi_def_cfa_offset 16
 903              		.loc 1 630 0
 904 0008 2268     		ldr	r2, [r4]
 905 000a 0192     		str	r2, [sp, #4]
 906              		.loc 1 633 0
 907 000c 022B     		cmp	r3, #2
 908 000e 05D0     		beq	.L132
 909              	.LVL72:
 910              	.L123:
 911              		.loc 1 686 0
 912 0010 019A     		ldr	r2, [sp, #4]
ARM GAS  C:\Users\Moi\AppData\Local\Temp\cc7J1o70.s 			page 17


 913 0012 2368     		ldr	r3, [r4]
 914 0014 9A42     		cmp	r2, r3
 915 0016 36D1     		bne	.L133
 916 0018 02B0     		add	sp, sp, #8
 917              		.cfi_remember_state
 918              		.cfi_def_cfa_offset 8
 919              		@ sp needed
 920 001a 10BD     		pop	{r4, pc}
 921              	.LVL73:
 922              	.L132:
 923              		.cfi_restore_state
 924              		.loc 1 649 0
 925 001c 1C49     		ldr	r1, .L137+4
 926              		.loc 1 634 0
 927 001e 8369     		ldr	r3, [r0, #24]
 928 0020 0022     		movs	r2, #0
 929              		.loc 1 649 0
 930 0022 8842     		cmp	r0, r1
 931              		.loc 1 634 0
 932 0024 1A60     		str	r2, [r3]
 933              		.loc 1 635 0
 934 0026 DA60     		str	r2, [r3, #12]
 935              		.loc 1 636 0
 936 0028 1A61     		str	r2, [r3, #16]
 937              		.loc 1 649 0
 938 002a 23D0     		beq	.L134
 939              		.loc 1 655 0
 940 002c 194B     		ldr	r3, .L137+8
 941 002e 9842     		cmp	r0, r3
 942 0030 17D0     		beq	.L135
 943              		.loc 1 661 0
 944 0032 194B     		ldr	r3, .L137+12
 945 0034 9842     		cmp	r0, r3
 946 0036 0BD0     		beq	.L136
 947              		.loc 1 667 0
 948 0038 184B     		ldr	r3, .L137+16
 949 003a 9842     		cmp	r0, r3
 950 003c E8D1     		bne	.L123
 951              		.loc 1 668 0
 952 003e 3220     		movs	r0, #50
 953              	.LVL74:
 954 0040 FFF7FEFF 		bl	nvicDisableVector
 955              	.LVL75:
 956              		.loc 1 669 0
 957 0044 164A     		ldr	r2, .L137+20
 958 0046 136C     		ldr	r3, [r2, #64]
 959 0048 23F00803 		bic	r3, r3, #8
 960 004c 1364     		str	r3, [r2, #64]
 961              		.loc 1 686 0
 962 004e DFE7     		b	.L123
 963              	.LVL76:
 964              	.L136:
 965              		.loc 1 662 0
 966 0050 1E20     		movs	r0, #30
 967              	.LVL77:
 968 0052 FFF7FEFF 		bl	nvicDisableVector
 969              	.LVL78:
ARM GAS  C:\Users\Moi\AppData\Local\Temp\cc7J1o70.s 			page 18


 970              		.loc 1 663 0
 971 0056 124A     		ldr	r2, .L137+20
 972 0058 136C     		ldr	r3, [r2, #64]
 973 005a 23F00403 		bic	r3, r3, #4
 974 005e 1364     		str	r3, [r2, #64]
 975 0060 D6E7     		b	.L123
 976              	.LVL79:
 977              	.L135:
 978              		.loc 1 656 0
 979 0062 1D20     		movs	r0, #29
 980              	.LVL80:
 981 0064 FFF7FEFF 		bl	nvicDisableVector
 982              	.LVL81:
 983              		.loc 1 657 0
 984 0068 0D4A     		ldr	r2, .L137+20
 985 006a 136C     		ldr	r3, [r2, #64]
 986 006c 23F00203 		bic	r3, r3, #2
 987 0070 1364     		str	r3, [r2, #64]
 988 0072 CDE7     		b	.L123
 989              	.LVL82:
 990              	.L134:
 991              		.loc 1 650 0
 992 0074 1C20     		movs	r0, #28
 993              	.LVL83:
 994 0076 FFF7FEFF 		bl	nvicDisableVector
 995              	.LVL84:
 996              		.loc 1 651 0
 997 007a 094A     		ldr	r2, .L137+20
 998 007c 136C     		ldr	r3, [r2, #64]
 999 007e 23F00103 		bic	r3, r3, #1
 1000 0082 1364     		str	r3, [r2, #64]
 1001 0084 C4E7     		b	.L123
 1002              	.L133:
 1003              		.loc 1 686 0
 1004 0086 FFF7FEFF 		bl	__stack_chk_fail
 1005              	.LVL85:
 1006              	.L138:
 1007 008a 00BF     		.align	2
 1008              	.L137:
 1009 008c 00000000 		.word	__stack_chk_guard
 1010 0090 00000000 		.word	.LANCHOR0
 1011 0094 00000000 		.word	.LANCHOR1
 1012 0098 00000000 		.word	.LANCHOR2
 1013 009c 00000000 		.word	.LANCHOR3
 1014 00a0 00380240 		.word	1073887232
 1015              		.cfi_endproc
 1016              	.LFE263:
 1017              		.size	pwm_lld_stop, .-pwm_lld_stop
 1018              		.section	.text.pwm_lld_enable_channel,"ax",%progbits
 1019              		.align	1
 1020              		.p2align 4,,15
 1021              		.global	pwm_lld_enable_channel
 1022              		.syntax unified
 1023              		.thumb
 1024              		.thumb_func
 1025              		.fpu fpv4-sp-d16
 1026              		.type	pwm_lld_enable_channel, %function
ARM GAS  C:\Users\Moi\AppData\Local\Temp\cc7J1o70.s 			page 19


 1027              	pwm_lld_enable_channel:
 1028              	.LFB264:
 1029              		.loc 1 703 0
 1030              		.cfi_startproc
 1031              		@ args = 0, pretend = 0, frame = 8
 1032              		@ frame_needed = 0, uses_anonymous_args = 0
 1033              	.LVL86:
 1034 0000 00B5     		push	{lr}
 1035              		.cfi_def_cfa_offset 4
 1036              		.cfi_offset 14, -4
 1037              		.loc 1 707 0
 1038 0002 8369     		ldr	r3, [r0, #24]
 1039              		.loc 1 703 0
 1040 0004 0848     		ldr	r0, .L143
 1041              	.LVL87:
 1042              		.loc 1 707 0
 1043 0006 0C31     		adds	r1, r1, #12
 1044              	.LVL88:
 1045 0008 03EB8103 		add	r3, r3, r1, lsl #2
 1046              		.loc 1 703 0
 1047 000c 83B0     		sub	sp, sp, #12
 1048              		.cfi_def_cfa_offset 16
 1049              		.loc 1 703 0
 1050 000e 0168     		ldr	r1, [r0]
 1051 0010 0191     		str	r1, [sp, #4]
 1052              		.loc 1 707 0
 1053 0012 5A60     		str	r2, [r3, #4]
 1054              		.loc 1 714 0
 1055 0014 019A     		ldr	r2, [sp, #4]
 1056              	.LVL89:
 1057 0016 0368     		ldr	r3, [r0]
 1058              	.LVL90:
 1059 0018 9A42     		cmp	r2, r3
 1060 001a 02D1     		bne	.L142
 1061 001c 03B0     		add	sp, sp, #12
 1062              		.cfi_remember_state
 1063              		.cfi_def_cfa_offset 4
 1064              		@ sp needed
 1065 001e 5DF804FB 		ldr	pc, [sp], #4
 1066              	.L142:
 1067              		.cfi_restore_state
 1068 0022 FFF7FEFF 		bl	__stack_chk_fail
 1069              	.LVL91:
 1070              	.L144:
 1071 0026 00BF     		.align	2
 1072              	.L143:
 1073 0028 00000000 		.word	__stack_chk_guard
 1074              		.cfi_endproc
 1075              	.LFE264:
 1076              		.size	pwm_lld_enable_channel, .-pwm_lld_enable_channel
 1077              		.section	.text.pwm_lld_disable_channel,"ax",%progbits
 1078              		.align	1
 1079              		.p2align 4,,15
 1080              		.global	pwm_lld_disable_channel
 1081              		.syntax unified
 1082              		.thumb
 1083              		.thumb_func
ARM GAS  C:\Users\Moi\AppData\Local\Temp\cc7J1o70.s 			page 20


 1084              		.fpu fpv4-sp-d16
 1085              		.type	pwm_lld_disable_channel, %function
 1086              	pwm_lld_disable_channel:
 1087              	.LFB265:
 1088              		.loc 1 728 0
 1089              		.cfi_startproc
 1090              		@ args = 0, pretend = 0, frame = 8
 1091              		@ frame_needed = 0, uses_anonymous_args = 0
 1092              	.LVL92:
 1093 0000 10B5     		push	{r4, lr}
 1094              		.cfi_def_cfa_offset 8
 1095              		.cfi_offset 4, -8
 1096              		.cfi_offset 14, -4
 1097              		.loc 1 731 0
 1098 0002 8369     		ldr	r3, [r0, #24]
 1099              		.loc 1 728 0
 1100 0004 0C4C     		ldr	r4, .L149
 1101 0006 82B0     		sub	sp, sp, #8
 1102              		.cfi_def_cfa_offset 16
 1103              		.loc 1 731 0
 1104 0008 01F10C02 		add	r2, r1, #12
 1105              		.loc 1 728 0
 1106 000c 2068     		ldr	r0, [r4]
 1107              	.LVL93:
 1108 000e 0190     		str	r0, [sp, #4]
 1109              		.loc 1 731 0
 1110 0010 03EB8202 		add	r2, r3, r2, lsl #2
 1111 0014 0020     		movs	r0, #0
 1112 0016 5060     		str	r0, [r2, #4]
 1113              		.loc 1 732 0
 1114 0018 DA68     		ldr	r2, [r3, #12]
 1115 001a 0220     		movs	r0, #2
 1116 001c 00FA01F1 		lsl	r1, r0, r1
 1117              	.LVL94:
 1118 0020 22EA0101 		bic	r1, r2, r1
 1119 0024 D960     		str	r1, [r3, #12]
 1120              		.loc 1 741 0
 1121 0026 019A     		ldr	r2, [sp, #4]
 1122 0028 2368     		ldr	r3, [r4]
 1123 002a 9A42     		cmp	r2, r3
 1124 002c 01D1     		bne	.L148
 1125 002e 02B0     		add	sp, sp, #8
 1126              		.cfi_remember_state
 1127              		.cfi_def_cfa_offset 8
 1128              		@ sp needed
 1129 0030 10BD     		pop	{r4, pc}
 1130              	.L148:
 1131              		.cfi_restore_state
 1132 0032 FFF7FEFF 		bl	__stack_chk_fail
 1133              	.LVL95:
 1134              	.L150:
 1135 0036 00BF     		.align	2
 1136              	.L149:
 1137 0038 00000000 		.word	__stack_chk_guard
 1138              		.cfi_endproc
 1139              	.LFE265:
 1140              		.size	pwm_lld_disable_channel, .-pwm_lld_disable_channel
ARM GAS  C:\Users\Moi\AppData\Local\Temp\cc7J1o70.s 			page 21


 1141              		.section	.text.pwm_lld_enable_periodic_notification,"ax",%progbits
 1142              		.align	1
 1143              		.p2align 4,,15
 1144              		.global	pwm_lld_enable_periodic_notification
 1145              		.syntax unified
 1146              		.thumb
 1147              		.thumb_func
 1148              		.fpu fpv4-sp-d16
 1149              		.type	pwm_lld_enable_periodic_notification, %function
 1150              	pwm_lld_enable_periodic_notification:
 1151              	.LFB266:
 1152              		.loc 1 752 0
 1153              		.cfi_startproc
 1154              		@ args = 0, pretend = 0, frame = 8
 1155              		@ frame_needed = 0, uses_anonymous_args = 0
 1156              	.LVL96:
 1157 0000 00B5     		push	{lr}
 1158              		.cfi_def_cfa_offset 4
 1159              		.cfi_offset 14, -4
 1160 0002 0C49     		ldr	r1, .L156
 1161              		.loc 1 753 0
 1162 0004 8369     		ldr	r3, [r0, #24]
 1163              		.loc 1 752 0
 1164 0006 0A68     		ldr	r2, [r1]
 1165 0008 83B0     		sub	sp, sp, #12
 1166              		.cfi_def_cfa_offset 16
 1167              		.loc 1 752 0
 1168 000a 0192     		str	r2, [sp, #4]
 1169              		.loc 1 753 0
 1170 000c DA68     		ldr	r2, [r3, #12]
 1171              	.LVL97:
 1172              		.loc 1 757 0
 1173 000e D007     		lsls	r0, r2, #31
 1174              	.LVL98:
 1175 0010 06D4     		bmi	.L151
 1176              		.loc 1 758 0
 1177 0012 1869     		ldr	r0, [r3, #16]
 1178              		.loc 1 759 0
 1179 0014 42F00102 		orr	r2, r2, #1
 1180              	.LVL99:
 1181              		.loc 1 758 0
 1182 0018 20F00100 		bic	r0, r0, #1
 1183 001c 1861     		str	r0, [r3, #16]
 1184              		.loc 1 759 0
 1185 001e DA60     		str	r2, [r3, #12]
 1186              	.L151:
 1187              		.loc 1 761 0
 1188 0020 019A     		ldr	r2, [sp, #4]
 1189 0022 0B68     		ldr	r3, [r1]
 1190 0024 9A42     		cmp	r2, r3
 1191 0026 02D1     		bne	.L155
 1192 0028 03B0     		add	sp, sp, #12
 1193              		.cfi_remember_state
 1194              		.cfi_def_cfa_offset 4
 1195              		@ sp needed
 1196 002a 5DF804FB 		ldr	pc, [sp], #4
 1197              	.L155:
ARM GAS  C:\Users\Moi\AppData\Local\Temp\cc7J1o70.s 			page 22


 1198              		.cfi_restore_state
 1199 002e FFF7FEFF 		bl	__stack_chk_fail
 1200              	.LVL100:
 1201              	.L157:
 1202 0032 00BF     		.align	2
 1203              	.L156:
 1204 0034 00000000 		.word	__stack_chk_guard
 1205              		.cfi_endproc
 1206              	.LFE266:
 1207              		.size	pwm_lld_enable_periodic_notification, .-pwm_lld_enable_periodic_notification
 1208              		.section	.text.pwm_lld_disable_periodic_notification,"ax",%progbits
 1209              		.align	1
 1210              		.p2align 4,,15
 1211              		.global	pwm_lld_disable_periodic_notification
 1212              		.syntax unified
 1213              		.thumb
 1214              		.thumb_func
 1215              		.fpu fpv4-sp-d16
 1216              		.type	pwm_lld_disable_periodic_notification, %function
 1217              	pwm_lld_disable_periodic_notification:
 1218              	.LFB267:
 1219              		.loc 1 772 0
 1220              		.cfi_startproc
 1221              		@ args = 0, pretend = 0, frame = 8
 1222              		@ frame_needed = 0, uses_anonymous_args = 0
 1223              	.LVL101:
 1224 0000 00B5     		push	{lr}
 1225              		.cfi_def_cfa_offset 4
 1226              		.cfi_offset 14, -4
 1227 0002 094A     		ldr	r2, .L162
 1228              		.loc 1 774 0
 1229 0004 8169     		ldr	r1, [r0, #24]
 1230              		.loc 1 772 0
 1231 0006 1368     		ldr	r3, [r2]
 1232 0008 83B0     		sub	sp, sp, #12
 1233              		.cfi_def_cfa_offset 16
 1234              		.loc 1 772 0
 1235 000a 0193     		str	r3, [sp, #4]
 1236              		.loc 1 774 0
 1237 000c CB68     		ldr	r3, [r1, #12]
 1238 000e 23F00103 		bic	r3, r3, #1
 1239 0012 CB60     		str	r3, [r1, #12]
 1240              		.loc 1 775 0
 1241 0014 0199     		ldr	r1, [sp, #4]
 1242 0016 1368     		ldr	r3, [r2]
 1243 0018 9942     		cmp	r1, r3
 1244 001a 02D1     		bne	.L161
 1245 001c 03B0     		add	sp, sp, #12
 1246              		.cfi_remember_state
 1247              		.cfi_def_cfa_offset 4
 1248              		@ sp needed
 1249 001e 5DF804FB 		ldr	pc, [sp], #4
 1250              	.L161:
 1251              		.cfi_restore_state
 1252 0022 FFF7FEFF 		bl	__stack_chk_fail
 1253              	.LVL102:
 1254              	.L163:
ARM GAS  C:\Users\Moi\AppData\Local\Temp\cc7J1o70.s 			page 23


 1255 0026 00BF     		.align	2
 1256              	.L162:
 1257 0028 00000000 		.word	__stack_chk_guard
 1258              		.cfi_endproc
 1259              	.LFE267:
 1260              		.size	pwm_lld_disable_periodic_notification, .-pwm_lld_disable_periodic_notification
 1261              		.section	.text.pwm_lld_enable_channel_notification,"ax",%progbits
 1262              		.align	1
 1263              		.p2align 4,,15
 1264              		.global	pwm_lld_enable_channel_notification
 1265              		.syntax unified
 1266              		.thumb
 1267              		.thumb_func
 1268              		.fpu fpv4-sp-d16
 1269              		.type	pwm_lld_enable_channel_notification, %function
 1270              	pwm_lld_enable_channel_notification:
 1271              	.LFB268:
 1272              		.loc 1 789 0
 1273              		.cfi_startproc
 1274              		@ args = 0, pretend = 0, frame = 8
 1275              		@ frame_needed = 0, uses_anonymous_args = 0
 1276              	.LVL103:
 1277 0000 10B5     		push	{r4, lr}
 1278              		.cfi_def_cfa_offset 8
 1279              		.cfi_offset 4, -8
 1280              		.cfi_offset 14, -4
 1281 0002 0B4C     		ldr	r4, .L169
 1282              		.loc 1 790 0
 1283 0004 8069     		ldr	r0, [r0, #24]
 1284              	.LVL104:
 1285              		.loc 1 789 0
 1286 0006 2368     		ldr	r3, [r4]
 1287 0008 82B0     		sub	sp, sp, #8
 1288              		.cfi_def_cfa_offset 16
 1289              		.loc 1 789 0
 1290 000a 0193     		str	r3, [sp, #4]
 1291              		.loc 1 790 0
 1292 000c C268     		ldr	r2, [r0, #12]
 1293              	.LVL105:
 1294              		.loc 1 799 0
 1295 000e 0223     		movs	r3, #2
 1296 0010 03FA01F1 		lsl	r1, r3, r1
 1297              	.LVL106:
 1298 0014 1142     		tst	r1, r2
 1299 0016 03D1     		bne	.L164
 1300              		.loc 1 800 0
 1301 0018 0A43     		orrs	r2, r2, r1
 1302              	.LVL107:
 1303              		.loc 1 801 0
 1304 001a C943     		mvns	r1, r1
 1305              		.loc 1 800 0
 1306 001c C260     		str	r2, [r0, #12]
 1307              		.loc 1 801 0
 1308 001e 0161     		str	r1, [r0, #16]
 1309              	.L164:
 1310              		.loc 1 803 0
 1311 0020 019A     		ldr	r2, [sp, #4]
ARM GAS  C:\Users\Moi\AppData\Local\Temp\cc7J1o70.s 			page 24


 1312 0022 2368     		ldr	r3, [r4]
 1313 0024 9A42     		cmp	r2, r3
 1314 0026 01D1     		bne	.L168
 1315 0028 02B0     		add	sp, sp, #8
 1316              		.cfi_remember_state
 1317              		.cfi_def_cfa_offset 8
 1318              		@ sp needed
 1319 002a 10BD     		pop	{r4, pc}
 1320              	.L168:
 1321              		.cfi_restore_state
 1322 002c FFF7FEFF 		bl	__stack_chk_fail
 1323              	.LVL108:
 1324              	.L170:
 1325              		.align	2
 1326              	.L169:
 1327 0030 00000000 		.word	__stack_chk_guard
 1328              		.cfi_endproc
 1329              	.LFE268:
 1330              		.size	pwm_lld_enable_channel_notification, .-pwm_lld_enable_channel_notification
 1331              		.section	.text.pwm_lld_disable_channel_notification,"ax",%progbits
 1332              		.align	1
 1333              		.p2align 4,,15
 1334              		.global	pwm_lld_disable_channel_notification
 1335              		.syntax unified
 1336              		.thumb
 1337              		.thumb_func
 1338              		.fpu fpv4-sp-d16
 1339              		.type	pwm_lld_disable_channel_notification, %function
 1340              	pwm_lld_disable_channel_notification:
 1341              	.LFB269:
 1342              		.loc 1 817 0
 1343              		.cfi_startproc
 1344              		@ args = 0, pretend = 0, frame = 8
 1345              		@ frame_needed = 0, uses_anonymous_args = 0
 1346              	.LVL109:
 1347 0000 10B5     		push	{r4, lr}
 1348              		.cfi_def_cfa_offset 8
 1349              		.cfi_offset 4, -8
 1350              		.cfi_offset 14, -4
 1351 0002 0A4C     		ldr	r4, .L175
 1352              		.loc 1 819 0
 1353 0004 8069     		ldr	r0, [r0, #24]
 1354              	.LVL110:
 1355              		.loc 1 817 0
 1356 0006 2368     		ldr	r3, [r4]
 1357 0008 82B0     		sub	sp, sp, #8
 1358              		.cfi_def_cfa_offset 16
 1359              		.loc 1 819 0
 1360 000a 0222     		movs	r2, #2
 1361              		.loc 1 817 0
 1362 000c 0193     		str	r3, [sp, #4]
 1363              		.loc 1 819 0
 1364 000e C368     		ldr	r3, [r0, #12]
 1365 0010 02FA01F1 		lsl	r1, r2, r1
 1366              	.LVL111:
 1367 0014 23EA0103 		bic	r3, r3, r1
 1368 0018 C360     		str	r3, [r0, #12]
ARM GAS  C:\Users\Moi\AppData\Local\Temp\cc7J1o70.s 			page 25


 1369              		.loc 1 820 0
 1370 001a 019A     		ldr	r2, [sp, #4]
 1371 001c 2368     		ldr	r3, [r4]
 1372 001e 9A42     		cmp	r2, r3
 1373 0020 01D1     		bne	.L174
 1374 0022 02B0     		add	sp, sp, #8
 1375              		.cfi_remember_state
 1376              		.cfi_def_cfa_offset 8
 1377              		@ sp needed
 1378 0024 10BD     		pop	{r4, pc}
 1379              	.L174:
 1380              		.cfi_restore_state
 1381 0026 FFF7FEFF 		bl	__stack_chk_fail
 1382              	.LVL112:
 1383              	.L176:
 1384 002a 00BF     		.align	2
 1385              	.L175:
 1386 002c 00000000 		.word	__stack_chk_guard
 1387              		.cfi_endproc
 1388              	.LFE269:
 1389              		.size	pwm_lld_disable_channel_notification, .-pwm_lld_disable_channel_notification
 1390              		.global	PWMD5
 1391              		.global	PWMD4
 1392              		.global	PWMD3
 1393              		.global	PWMD2
 1394              		.section	.bss.PWMD2,"aw",%nobits
 1395              		.align	2
 1396              		.set	.LANCHOR0,. + 0
 1397              		.type	PWMD2, %object
 1398              		.size	PWMD2, 28
 1399              	PWMD2:
 1400 0000 00000000 		.space	28
 1400      00000000 
 1400      00000000 
 1400      00000000 
 1400      00000000 
 1401              		.section	.bss.PWMD3,"aw",%nobits
 1402              		.align	2
 1403              		.set	.LANCHOR1,. + 0
 1404              		.type	PWMD3, %object
 1405              		.size	PWMD3, 28
 1406              	PWMD3:
 1407 0000 00000000 		.space	28
 1407      00000000 
 1407      00000000 
 1407      00000000 
 1407      00000000 
 1408              		.section	.bss.PWMD4,"aw",%nobits
 1409              		.align	2
 1410              		.set	.LANCHOR2,. + 0
 1411              		.type	PWMD4, %object
 1412              		.size	PWMD4, 28
 1413              	PWMD4:
 1414 0000 00000000 		.space	28
 1414      00000000 
 1414      00000000 
 1414      00000000 
ARM GAS  C:\Users\Moi\AppData\Local\Temp\cc7J1o70.s 			page 26


 1414      00000000 
 1415              		.section	.bss.PWMD5,"aw",%nobits
 1416              		.align	2
 1417              		.set	.LANCHOR3,. + 0
 1418              		.type	PWMD5, %object
 1419              		.size	PWMD5, 28
 1420              	PWMD5:
 1421 0000 00000000 		.space	28
 1421      00000000 
 1421      00000000 
 1421      00000000 
 1421      00000000 
 1422              		.section	.rodata.__func__.9866,"a",%progbits
 1423              		.align	2
 1424              		.set	.LANCHOR4,. + 0
 1425              		.type	__func__.9866, %object
 1426              		.size	__func__.9866, 14
 1427              	__func__.9866:
 1428 0000 70776D5F 		.ascii	"pwm_lld_start\000"
 1428      6C6C645F 
 1428      73746172 
 1428      7400
 1429              		.text
 1430              	.Letext0:
 1431              		.file 2 "c:\\users\\moi\\documents\\_microinfo\\epuck-eclipse\\tools\\gcc-arm-none-eabi-7-2017-q4-
 1432              		.file 3 "c:\\users\\moi\\documents\\_microinfo\\epuck-eclipse\\tools\\gcc-arm-none-eabi-7-2017-q4-
 1433              		.file 4 "c:\\users\\moi\\documents\\_microinfo\\epuck-eclipse\\tools\\gcc-arm-none-eabi-7-2017-q4-
 1434              		.file 5 "..//ChibiOS//os/rt/ports/ARMCMx/compilers/GCC/chtypes.h"
 1435              		.file 6 "..//ChibiOS//os/rt/include/chsystypes.h"
 1436              		.file 7 "..//ChibiOS//os/rt/include/chschd.h"
 1437              		.file 8 "..//ChibiOS//os/ext/CMSIS/include/core_cm4.h"
 1438              		.file 9 "..//ChibiOS//os/ext/CMSIS/ST/system_stm32f4xx.h"
 1439              		.file 10 "..//ChibiOS//os/ext/CMSIS/ST/stm32f407xx.h"
 1440              		.file 11 "..//ChibiOS//os/rt/ports/ARMCMx/chcore.h"
 1441              		.file 12 "..//ChibiOS//os/rt/ports/ARMCMx/chcore_v7m.h"
 1442              		.file 13 "..//ChibiOS//os/rt/include/chdebug.h"
 1443              		.file 14 "..//ChibiOS//os/rt/include/chtm.h"
 1444              		.file 15 "..//ChibiOS//os/rt/include/chstats.h"
 1445              		.file 16 "..//ChibiOS//os/rt/include/chsem.h"
 1446              		.file 17 "..//ChibiOS//os/rt/include/chmtx.h"
 1447              		.file 18 "..//ChibiOS//os/rt/include/chregistry.h"
 1448              		.file 19 "..//ChibiOS//os/rt/include/chevents.h"
 1449              		.file 20 "..//ChibiOS//os/rt/include/chqueues.h"
 1450              		.file 21 "..//ChibiOS//os/hal/ports/STM32/STM32F4xx/stm32_dma.h"
 1451              		.file 22 "..//ChibiOS//os/hal/include/hal_ioblock.h"
 1452              		.file 23 "..//ChibiOS//os/hal/ports/STM32/LLD/GPIOv2/pal_lld.h"
 1453              		.file 24 "..//ChibiOS//os/hal/include/adc.h"
 1454              		.file 25 "..//ChibiOS//os/hal/ports/STM32/STM32F4xx/adc_lld.h"
 1455              		.file 26 "..//ChibiOS//os/hal/include/can.h"
 1456              		.file 27 "..//ChibiOS//os/hal/ports/STM32/LLD/can_lld.h"
 1457              		.file 28 "..//ChibiOS//os/hal/include/dac.h"
 1458              		.file 29 "..//ChibiOS//os/hal/ports/STM32/LLD/DACv1/dac_lld.h"
 1459              		.file 30 "..//ChibiOS//os/hal/include/ext.h"
 1460              		.file 31 "..//ChibiOS//os/hal/ports/STM32/LLD/ext_lld.h"
 1461              		.file 32 "..//ChibiOS//os/hal/include/gpt.h"
 1462              		.file 33 "..//ChibiOS//os/hal/ports/STM32/LLD/TIMv1/gpt_lld.h"
 1463              		.file 34 "..//ChibiOS//os/hal/ports/STM32/LLD/TIMv1/stm32_tim.h"
ARM GAS  C:\Users\Moi\AppData\Local\Temp\cc7J1o70.s 			page 27


 1464              		.file 35 "..//ChibiOS//os/hal/include/i2c.h"
 1465              		.file 36 "..//ChibiOS//os/hal/ports/STM32/LLD/I2Cv1/i2c_lld.h"
 1466              		.file 37 "..//ChibiOS//os/hal/include/i2s.h"
 1467              		.file 38 "..//ChibiOS//os/hal/ports/STM32/LLD/SPIv1/i2s_lld.h"
 1468              		.file 39 "..//ChibiOS//os/hal/include/pwm.h"
 1469              		.file 40 "..//ChibiOS//os/hal/ports/STM32/LLD/TIMv1/pwm_lld.h"
 1470              		.file 41 "..//ChibiOS//os/hal/include/serial.h"
 1471              		.file 42 "..//ChibiOS//os/hal/ports/STM32/LLD/USARTv1/serial_lld.h"
 1472              		.file 43 "..//ChibiOS//os/hal/include/sdc.h"
 1473              		.file 44 "..//ChibiOS//os/hal/ports/STM32/LLD/sdc_lld.h"
 1474              		.file 45 "..//ChibiOS//os/hal/include/spi.h"
 1475              		.file 46 "..//ChibiOS//os/hal/ports/STM32/LLD/SPIv1/spi_lld.h"
 1476              		.file 47 "..//ChibiOS//os/hal/include/usb.h"
 1477              		.file 48 "..//ChibiOS//os/hal/ports/STM32/LLD/OTGv1/usb_lld.h"
 1478              		.file 49 "..//ChibiOS//os/hal/ports/STM32/LLD/OTGv1/stm32_otg.h"
 1479              		.file 50 "..//ChibiOS//os/hal/ports/common/ARMCMx/nvic.h"
 1480              		.file 51 "..//ChibiOS//os/rt/include/chsys.h"