ARM GAS  C:\Users\Moi\AppData\Local\Temp\cc2Dlx38.s 			page 1


   1              		.cpu cortex-m4
   2              		.eabi_attribute 27, 1
   3              		.eabi_attribute 28, 1
   4              		.eabi_attribute 20, 1
   5              		.eabi_attribute 21, 1
   6              		.eabi_attribute 23, 3
   7              		.eabi_attribute 24, 1
   8              		.eabi_attribute 25, 1
   9              		.eabi_attribute 26, 1
  10              		.eabi_attribute 30, 2
  11              		.eabi_attribute 34, 1
  12              		.eabi_attribute 18, 4
  13              		.file	"sdc_lld.c"
  14              		.text
  15              	.Ltext0:
  16              		.cfi_sections	.debug_frame
  17              		.section	.text.sdc_lld_collect_errors.isra.0,"ax",%progbits
  18              		.align	1
  19              		.p2align 4,,15
  20              		.syntax unified
  21              		.thumb
  22              		.thumb_func
  23              		.fpu fpv4-sp-d16
  24              		.type	sdc_lld_collect_errors.isra.0, %function
  25              	sdc_lld_collect_errors.isra.0:
  26              	.LFB280:
  27              		.file 1 "..//ChibiOS//os/hal/ports/STM32/LLD/sdc_lld.c"
  28              		.loc 1 261 0
  29              		.cfi_startproc
  30              		@ args = 0, pretend = 0, frame = 8
  31              		@ frame_needed = 0, uses_anonymous_args = 0
  32              	.LVL0:
  33 0000 30B5     		push	{r4, r5, lr}
  34              		.cfi_def_cfa_offset 12
  35              		.cfi_offset 4, -12
  36              		.cfi_offset 5, -8
  37              		.cfi_offset 14, -4
  38 0002 144C     		ldr	r4, .L30
  39 0004 83B0     		sub	sp, sp, #12
  40              		.cfi_def_cfa_offset 24
  41              		.loc 1 261 0
  42 0006 2368     		ldr	r3, [r4]
  43 0008 0193     		str	r3, [sp, #4]
  44              	.LVL1:
  45              		.loc 1 266 0
  46 000a 8D07     		lsls	r5, r1, #30
  47              		.loc 1 264 0
  48 000c 01F00103 		and	r3, r1, #1
  49              	.LVL2:
  50              		.loc 1 267 0
  51 0010 48BF     		it	mi
  52 0012 43F00203 		orrmi	r3, r3, #2
  53              	.LVL3:
  54              		.loc 1 268 0
  55 0016 4A07     		lsls	r2, r1, #29
  56              		.loc 1 269 0
  57 0018 48BF     		it	mi
ARM GAS  C:\Users\Moi\AppData\Local\Temp\cc2Dlx38.s 			page 2


  58 001a 43F00803 		orrmi	r3, r3, #8
  59              	.LVL4:
  60              		.loc 1 270 0
  61 001e 0D07     		lsls	r5, r1, #28
  62              		.loc 1 271 0
  63 0020 48BF     		it	mi
  64 0022 43F00403 		orrmi	r3, r3, #4
  65              	.LVL5:
  66              		.loc 1 272 0
  67 0026 CA06     		lsls	r2, r1, #27
  68              		.loc 1 273 0
  69 0028 48BF     		it	mi
  70 002a 43F01003 		orrmi	r3, r3, #16
  71              	.LVL6:
  72              		.loc 1 274 0
  73 002e 8D06     		lsls	r5, r1, #26
  74              		.loc 1 275 0
  75 0030 48BF     		it	mi
  76 0032 43F02003 		orrmi	r3, r3, #32
  77              	.LVL7:
  78              		.loc 1 280 0
  79 0036 019D     		ldr	r5, [sp, #4]
  80              		.loc 1 276 0
  81 0038 8A05     		lsls	r2, r1, #22
  82              		.loc 1 279 0
  83 003a 0268     		ldr	r2, [r0]
  84              		.loc 1 280 0
  85 003c 2168     		ldr	r1, [r4]
  86              	.LVL8:
  87              		.loc 1 277 0
  88 003e 48BF     		it	mi
  89 0040 43F04003 		orrmi	r3, r3, #64
  90              	.LVL9:
  91              		.loc 1 279 0
  92 0044 1343     		orrs	r3, r3, r2
  93              	.LVL10:
  94              		.loc 1 280 0
  95 0046 8D42     		cmp	r5, r1
  96              	.LVL11:
  97              		.loc 1 279 0
  98 0048 0360     		str	r3, [r0]
  99              		.loc 1 280 0
 100 004a 01D1     		bne	.L29
 101 004c 03B0     		add	sp, sp, #12
 102              		.cfi_remember_state
 103              		.cfi_def_cfa_offset 12
 104              		@ sp needed
 105 004e 30BD     		pop	{r4, r5, pc}
 106              	.L29:
 107              		.cfi_restore_state
 108 0050 FFF7FEFF 		bl	__stack_chk_fail
 109              	.LVL12:
 110              	.L31:
 111              		.align	2
 112              	.L30:
 113 0054 00000000 		.word	__stack_chk_guard
 114              		.cfi_endproc
ARM GAS  C:\Users\Moi\AppData\Local\Temp\cc2Dlx38.s 			page 3


 115              	.LFE280:
 116              		.size	sdc_lld_collect_errors.isra.0, .-sdc_lld_collect_errors.isra.0
 117              		.section	.text.Vector104,"ax",%progbits
 118              		.align	1
 119              		.p2align 4,,15
 120              		.global	Vector104
 121              		.syntax unified
 122              		.thumb
 123              		.thumb_func
 124              		.fpu fpv4-sp-d16
 125              		.type	Vector104, %function
 126              	Vector104:
 127              	.LFB262:
 128              		.loc 1 320 0
 129              		.cfi_startproc
 130              		@ args = 0, pretend = 0, frame = 8
 131              		@ frame_needed = 0, uses_anonymous_args = 0
 132 0000 30B5     		push	{r4, r5, lr}
 133              		.cfi_def_cfa_offset 12
 134              		.cfi_offset 4, -12
 135              		.cfi_offset 5, -8
 136              		.cfi_offset 14, -4
 137 0002 144D     		ldr	r5, .L37
 138 0004 83B0     		sub	sp, sp, #12
 139              		.cfi_def_cfa_offset 24
 140              		.loc 1 320 0
 141 0006 2B68     		ldr	r3, [r5]
 142 0008 0193     		str	r3, [sp, #4]
 143              		.loc 1 322 0
 144 000a FFF7FEFF 		bl	_stats_increase_irq
 145              	.LVL13:
 146 000e FFF7FEFF 		bl	_dbg_check_enter_isr
 147              	.LVL14:
 148              	.LBB94:
 149              	.LBB95:
 150              	.LBB96:
 151              	.LBB97:
 152              	.LBB98:
 153              	.LBB99:
 154              	.LBB100:
 155              		.file 2 "..//ChibiOS//os/ext/CMSIS/include/core_cmFunc.h"
 156              		.loc 2 546 0
 157 0012 2023     		movs	r3, #32
 158              		.syntax unified
 159              	@ 546 "..//ChibiOS//os/ext/CMSIS/include/core_cmFunc.h" 1
 160 0014 83F31188 		MSR basepri, r3
 161              	@ 0 "" 2
 162              	.LVL15:
 163              		.thumb
 164              		.syntax unified
 165              	.LBE100:
 166              	.LBE99:
 167              	.LBE98:
 168              	.LBE97:
 169              		.file 3 "..//ChibiOS//os/rt/include/chsys.h"
 170              		.loc 3 389 0
 171 0018 FFF7FEFF 		bl	_stats_start_measure_crit_isr
ARM GAS  C:\Users\Moi\AppData\Local\Temp\cc2Dlx38.s 			page 4


 172              	.LVL16:
 173              		.loc 3 390 0
 174 001c FFF7FEFF 		bl	_dbg_check_lock_from_isr
 175              	.LVL17:
 176              	.LBE96:
 177              	.LBE95:
 178              	.LBE94:
 179              		.loc 1 328 0
 180 0020 0D4B     		ldr	r3, .L37+4
 181              	.LBB101:
 182              	.LBB102:
 183              		.file 4 "..//ChibiOS//os/hal/osal/rt/osal.h"
 184              		.loc 4 682 0
 185 0022 0E48     		ldr	r0, .L37+8
 186              	.LBE102:
 187              	.LBE101:
 188              		.loc 1 328 0
 189 0024 0024     		movs	r4, #0
 190 0026 DC63     		str	r4, [r3, #60]
 191              	.LVL18:
 192              	.LBB104:
 193              	.LBB103:
 194              		.loc 4 682 0
 195 0028 2146     		mov	r1, r4
 196 002a FFF7FEFF 		bl	chThdResumeI
 197              	.LVL19:
 198              	.LBE103:
 199              	.LBE104:
 200              	.LBB105:
 201              	.LBB106:
 202              	.LBB107:
 203              		.loc 3 408 0
 204 002e FFF7FEFF 		bl	_dbg_check_unlock_from_isr
 205              	.LVL20:
 206              		.loc 3 409 0
 207 0032 FFF7FEFF 		bl	_stats_stop_measure_crit_isr
 208              	.LVL21:
 209              	.LBB108:
 210              	.LBB109:
 211              	.LBB110:
 212              	.LBB111:
 213              		.loc 2 546 0
 214              		.syntax unified
 215              	@ 546 "..//ChibiOS//os/ext/CMSIS/include/core_cmFunc.h" 1
 216 0036 84F31188 		MSR basepri, r4
 217              	@ 0 "" 2
 218              	.LVL22:
 219              		.thumb
 220              		.syntax unified
 221              	.LBE111:
 222              	.LBE110:
 223              	.LBE109:
 224              	.LBE108:
 225              	.LBE107:
 226              	.LBE106:
 227              	.LBE105:
 228              		.loc 1 334 0
ARM GAS  C:\Users\Moi\AppData\Local\Temp\cc2Dlx38.s 			page 5


 229 003a FFF7FEFF 		bl	_dbg_check_leave_isr
 230              	.LVL23:
 231 003e 019A     		ldr	r2, [sp, #4]
 232 0040 2B68     		ldr	r3, [r5]
 233 0042 9A42     		cmp	r2, r3
 234 0044 04D1     		bne	.L36
 235              		.loc 1 335 0
 236 0046 03B0     		add	sp, sp, #12
 237              		.cfi_remember_state
 238              		.cfi_def_cfa_offset 12
 239              		@ sp needed
 240 0048 BDE83040 		pop	{r4, r5, lr}
 241              		.cfi_restore 14
 242              		.cfi_restore 5
 243              		.cfi_restore 4
 244              		.cfi_def_cfa_offset 0
 245              		.loc 1 334 0
 246 004c FFF7FEBF 		b	_port_irq_epilogue
 247              	.LVL24:
 248              	.L36:
 249              		.cfi_restore_state
 250 0050 FFF7FEFF 		bl	__stack_chk_fail
 251              	.LVL25:
 252              	.L38:
 253              		.align	2
 254              	.L37:
 255 0054 00000000 		.word	__stack_chk_guard
 256 0058 002C0140 		.word	1073818624
 257 005c 3C000000 		.word	.LANCHOR0+60
 258              		.cfi_endproc
 259              	.LFE262:
 260              		.size	Vector104, .-Vector104
 261              		.section	.text.sdc_lld_init,"ax",%progbits
 262              		.align	1
 263              		.p2align 4,,15
 264              		.global	sdc_lld_init
 265              		.syntax unified
 266              		.thumb
 267              		.thumb_func
 268              		.fpu fpv4-sp-d16
 269              		.type	sdc_lld_init, %function
 270              	sdc_lld_init:
 271              	.LFB263:
 272              		.loc 1 346 0
 273              		.cfi_startproc
 274              		@ args = 0, pretend = 0, frame = 8
 275              		@ frame_needed = 0, uses_anonymous_args = 0
 276 0000 30B5     		push	{r4, r5, lr}
 277              		.cfi_def_cfa_offset 12
 278              		.cfi_offset 4, -12
 279              		.cfi_offset 5, -8
 280              		.cfi_offset 14, -4
 281              		.loc 1 348 0
 282 0002 0B4C     		ldr	r4, .L43
 283              		.loc 1 346 0
 284 0004 0B4D     		ldr	r5, .L43+4
 285 0006 83B0     		sub	sp, sp, #12
ARM GAS  C:\Users\Moi\AppData\Local\Temp\cc2Dlx38.s 			page 6


 286              		.cfi_def_cfa_offset 24
 287              		.loc 1 346 0
 288 0008 2B68     		ldr	r3, [r5]
 289 000a 0193     		str	r3, [sp, #4]
 290              		.loc 1 348 0
 291 000c 2046     		mov	r0, r4
 292 000e FFF7FEFF 		bl	sdcObjectInit
 293              	.LVL26:
 294              		.loc 1 352 0
 295 0012 019A     		ldr	r2, [sp, #4]
 296 0014 2B68     		ldr	r3, [r5]
 297              		.loc 1 350 0
 298 0016 0848     		ldr	r0, .L43+8
 299              		.loc 1 351 0
 300 0018 0849     		ldr	r1, .L43+12
 301              		.loc 1 350 0
 302 001a 6064     		str	r0, [r4, #68]
 303              		.loc 1 352 0
 304 001c 9A42     		cmp	r2, r3
 305              		.loc 1 349 0
 306 001e 4FF00000 		mov	r0, #0
 307 0022 E063     		str	r0, [r4, #60]
 308              		.loc 1 351 0
 309 0024 A164     		str	r1, [r4, #72]
 310              		.loc 1 352 0
 311 0026 01D1     		bne	.L42
 312 0028 03B0     		add	sp, sp, #12
 313              		.cfi_remember_state
 314              		.cfi_def_cfa_offset 12
 315              		@ sp needed
 316 002a 30BD     		pop	{r4, r5, pc}
 317              	.L42:
 318              		.cfi_restore_state
 319 002c FFF7FEFF 		bl	__stack_chk_fail
 320              	.LVL27:
 321              	.L44:
 322              		.align	2
 323              	.L43:
 324 0030 00000000 		.word	.LANCHOR0
 325 0034 00000000 		.word	__stack_chk_guard
 326 0038 84000000 		.word	_stm32_dma_streams+132
 327 003c 002C0140 		.word	1073818624
 328              		.cfi_endproc
 329              	.LFE263:
 330              		.size	sdc_lld_init, .-sdc_lld_init
 331              		.section	.text.sdc_lld_start,"ax",%progbits
 332              		.align	1
 333              		.p2align 4,,15
 334              		.global	sdc_lld_start
 335              		.syntax unified
 336              		.thumb
 337              		.thumb_func
 338              		.fpu fpv4-sp-d16
 339              		.type	sdc_lld_start, %function
 340              	sdc_lld_start:
 341              	.LFB264:
 342              		.loc 1 361 0
ARM GAS  C:\Users\Moi\AppData\Local\Temp\cc2Dlx38.s 			page 7


 343              		.cfi_startproc
 344              		@ args = 0, pretend = 0, frame = 8
 345              		@ frame_needed = 0, uses_anonymous_args = 0
 346              	.LVL28:
 347 0000 30B5     		push	{r4, r5, lr}
 348              		.cfi_def_cfa_offset 12
 349              		.cfi_offset 4, -12
 350              		.cfi_offset 5, -8
 351              		.cfi_offset 14, -4
 352 0002 1E4D     		ldr	r5, .L58
 353              		.loc 1 364 0
 354 0004 C36A     		ldr	r3, [r0, #44]
 355              		.loc 1 361 0
 356 0006 2A68     		ldr	r2, [r5]
 357 0008 83B0     		sub	sp, sp, #12
 358              		.cfi_def_cfa_offset 24
 359              		.loc 1 361 0
 360 000a 0446     		mov	r4, r0
 361 000c 0192     		str	r2, [sp, #4]
 362              		.loc 1 364 0
 363 000e 83B1     		cbz	r3, .L54
 364              		.loc 1 380 0
 365 0010 2379     		ldrb	r3, [r4, #4]	@ zero_extendqisi2
 366              		.loc 1 375 0
 367 0012 1B4A     		ldr	r2, .L58+4
 368 0014 2264     		str	r2, [r4, #64]
 369              		.loc 1 380 0
 370 0016 012B     		cmp	r3, #1
 371 0018 12D0     		beq	.L55
 372              	.LVL29:
 373              	.L47:
 374              		.loc 1 394 0
 375 001a A36C     		ldr	r3, [r4, #72]
 376 001c 0022     		movs	r2, #0
 377 001e 1A60     		str	r2, [r3]
 378              		.loc 1 395 0
 379 0020 5A60     		str	r2, [r3, #4]
 380              		.loc 1 396 0
 381 0022 DA62     		str	r2, [r3, #44]
 382              		.loc 1 397 0
 383 0024 5A62     		str	r2, [r3, #36]
 384              		.loc 1 398 0
 385 0026 019A     		ldr	r2, [sp, #4]
 386 0028 2B68     		ldr	r3, [r5]
 387 002a 9A42     		cmp	r2, r3
 388 002c 24D1     		bne	.L56
 389 002e 03B0     		add	sp, sp, #12
 390              		.cfi_remember_state
 391              		.cfi_def_cfa_offset 12
 392              		@ sp needed
 393 0030 30BD     		pop	{r4, r5, pc}
 394              	.LVL30:
 395              	.L54:
 396              		.cfi_restore_state
 397              		.loc 1 365 0
 398 0032 144B     		ldr	r3, .L58+8
 399 0034 C362     		str	r3, [r0, #44]
ARM GAS  C:\Users\Moi\AppData\Local\Temp\cc2Dlx38.s 			page 8


 400              		.loc 1 380 0
 401 0036 2379     		ldrb	r3, [r4, #4]	@ zero_extendqisi2
 402              		.loc 1 375 0
 403 0038 114A     		ldr	r2, .L58+4
 404 003a 2264     		str	r2, [r4, #64]
 405              		.loc 1 380 0
 406 003c 012B     		cmp	r3, #1
 407 003e ECD1     		bne	.L47
 408              	.L55:
 409              	.LBB112:
 410              		.loc 1 383 0
 411 0040 0023     		movs	r3, #0
 412 0042 1A46     		mov	r2, r3
 413 0044 0921     		movs	r1, #9
 414 0046 606C     		ldr	r0, [r4, #68]
 415              	.LVL31:
 416 0048 FFF7FEFF 		bl	dmaStreamAllocate
 417              	.LVL32:
 418              		.loc 1 384 0
 419 004c 80B9     		cbnz	r0, .L57
 420              	.LVL33:
 421              	.L48:
 422              		.loc 1 385 0
 423 004e D4E91123 		ldrd	r2, r3, [r4, #68]
 424 0052 1268     		ldr	r2, [r2]
 425 0054 8033     		adds	r3, r3, #128
 426              		.loc 1 387 0
 427 0056 0720     		movs	r0, #7
 428              		.loc 1 385 0
 429 0058 9360     		str	r3, [r2, #8]
 430              		.loc 1 389 0
 431 005a 0921     		movs	r1, #9
 432              		.loc 1 387 0
 433 005c 5061     		str	r0, [r2, #20]
 434              		.loc 1 389 0
 435 005e 3120     		movs	r0, #49
 436 0060 FFF7FEFF 		bl	nvicEnableVector
 437              	.LVL34:
 438              		.loc 1 390 0
 439 0064 084A     		ldr	r2, .L58+12
 440 0066 536C     		ldr	r3, [r2, #68]
 441 0068 43F40063 		orr	r3, r3, #2048
 442 006c 5364     		str	r3, [r2, #68]
 443 006e D4E7     		b	.L47
 444              	.LVL35:
 445              	.L57:
 446              		.loc 1 384 0 discriminator 2
 447 0070 0648     		ldr	r0, .L58+16
 448              	.LVL36:
 449 0072 FFF7FEFF 		bl	chSysHalt
 450              	.LVL37:
 451 0076 EAE7     		b	.L48
 452              	.L56:
 453              	.LBE112:
 454              		.loc 1 398 0
 455 0078 FFF7FEFF 		bl	__stack_chk_fail
 456              	.LVL38:
ARM GAS  C:\Users\Moi\AppData\Local\Temp\cc2Dlx38.s 			page 9


 457              	.L59:
 458              		.align	2
 459              	.L58:
 460 007c 00000000 		.word	__stack_chk_guard
 461 0080 2054A308 		.word	144921632
 462 0084 00000000 		.word	.LANCHOR1
 463 0088 00380240 		.word	1073887232
 464 008c 00000000 		.word	.LANCHOR2
 465              		.cfi_endproc
 466              	.LFE264:
 467              		.size	sdc_lld_start, .-sdc_lld_start
 468              		.section	.text.sdc_lld_stop,"ax",%progbits
 469              		.align	1
 470              		.p2align 4,,15
 471              		.global	sdc_lld_stop
 472              		.syntax unified
 473              		.thumb
 474              		.thumb_func
 475              		.fpu fpv4-sp-d16
 476              		.type	sdc_lld_stop, %function
 477              	sdc_lld_stop:
 478              	.LFB265:
 479              		.loc 1 407 0
 480              		.cfi_startproc
 481              		@ args = 0, pretend = 0, frame = 8
 482              		@ frame_needed = 0, uses_anonymous_args = 0
 483              	.LVL39:
 484 0000 30B5     		push	{r4, r5, lr}
 485              		.cfi_def_cfa_offset 12
 486              		.cfi_offset 4, -12
 487              		.cfi_offset 5, -8
 488              		.cfi_offset 14, -4
 489              		.loc 1 409 0
 490 0002 0379     		ldrb	r3, [r0, #4]	@ zero_extendqisi2
 491              		.loc 1 407 0
 492 0004 0F4D     		ldr	r5, .L68
 493 0006 83B0     		sub	sp, sp, #12
 494              		.cfi_def_cfa_offset 24
 495              		.loc 1 407 0
 496 0008 2A68     		ldr	r2, [r5]
 497 000a 0192     		str	r2, [sp, #4]
 498              		.loc 1 409 0
 499 000c 012B     		cmp	r3, #1
 500 000e 11D0     		beq	.L60
 501              		.loc 1 412 0
 502 0010 836C     		ldr	r3, [r0, #72]
 503 0012 0022     		movs	r2, #0
 504 0014 0446     		mov	r4, r0
 505 0016 1A60     		str	r2, [r3]
 506              		.loc 1 418 0
 507 0018 3120     		movs	r0, #49
 508              	.LVL40:
 509              		.loc 1 413 0
 510 001a 5A60     		str	r2, [r3, #4]
 511              		.loc 1 414 0
 512 001c DA62     		str	r2, [r3, #44]
 513              		.loc 1 415 0
ARM GAS  C:\Users\Moi\AppData\Local\Temp\cc2Dlx38.s 			page 10


 514 001e 5A62     		str	r2, [r3, #36]
 515              		.loc 1 418 0
 516 0020 FFF7FEFF 		bl	nvicDisableVector
 517              	.LVL41:
 518              		.loc 1 419 0
 519 0024 606C     		ldr	r0, [r4, #68]
 520 0026 FFF7FEFF 		bl	dmaStreamRelease
 521              	.LVL42:
 522              		.loc 1 420 0
 523 002a 074A     		ldr	r2, .L68+4
 524 002c 536C     		ldr	r3, [r2, #68]
 525 002e 23F40063 		bic	r3, r3, #2048
 526 0032 5364     		str	r3, [r2, #68]
 527              	.LVL43:
 528              	.L60:
 529              		.loc 1 422 0
 530 0034 019A     		ldr	r2, [sp, #4]
 531 0036 2B68     		ldr	r3, [r5]
 532 0038 9A42     		cmp	r2, r3
 533 003a 01D1     		bne	.L67
 534 003c 03B0     		add	sp, sp, #12
 535              		.cfi_remember_state
 536              		.cfi_def_cfa_offset 12
 537              		@ sp needed
 538 003e 30BD     		pop	{r4, r5, pc}
 539              	.L67:
 540              		.cfi_restore_state
 541 0040 FFF7FEFF 		bl	__stack_chk_fail
 542              	.LVL44:
 543              	.L69:
 544              		.align	2
 545              	.L68:
 546 0044 00000000 		.word	__stack_chk_guard
 547 0048 00380240 		.word	1073887232
 548              		.cfi_endproc
 549              	.LFE265:
 550              		.size	sdc_lld_stop, .-sdc_lld_stop
 551              		.section	.text.sdc_lld_start_clk,"ax",%progbits
 552              		.align	1
 553              		.p2align 4,,15
 554              		.global	sdc_lld_start_clk
 555              		.syntax unified
 556              		.thumb
 557              		.thumb_func
 558              		.fpu fpv4-sp-d16
 559              		.type	sdc_lld_start_clk, %function
 560              	sdc_lld_start_clk:
 561              	.LFB266:
 562              		.loc 1 431 0
 563              		.cfi_startproc
 564              		@ args = 0, pretend = 0, frame = 8
 565              		@ frame_needed = 0, uses_anonymous_args = 0
 566              	.LVL45:
 567 0000 00B5     		push	{lr}
 568              		.cfi_def_cfa_offset 4
 569              		.cfi_offset 14, -4
 570 0002 0D49     		ldr	r1, .L75
ARM GAS  C:\Users\Moi\AppData\Local\Temp\cc2Dlx38.s 			page 11


 571              		.loc 1 434 0
 572 0004 836C     		ldr	r3, [r0, #72]
 573              		.loc 1 431 0
 574 0006 0A68     		ldr	r2, [r1]
 575 0008 83B0     		sub	sp, sp, #12
 576              		.cfi_def_cfa_offset 16
 577              		.loc 1 431 0
 578 000a 0192     		str	r2, [sp, #4]
 579              		.loc 1 434 0
 580 000c 7822     		movs	r2, #120
 581 000e 5A60     		str	r2, [r3, #4]
 582              		.loc 1 435 0
 583 0010 1A68     		ldr	r2, [r3]
 584 0012 42F00302 		orr	r2, r2, #3
 585 0016 1A60     		str	r2, [r3]
 586              		.loc 1 436 0
 587 0018 5A68     		ldr	r2, [r3, #4]
 588 001a 42F48072 		orr	r2, r2, #256
 589 001e 5A60     		str	r2, [r3, #4]
 590              	.LVL46:
 591              	.LBB113:
 592              	.LBB114:
 593              		.loc 4 627 0
 594 0020 019A     		ldr	r2, [sp, #4]
 595 0022 0B68     		ldr	r3, [r1]
 596 0024 9A42     		cmp	r2, r3
 597 0026 05D1     		bne	.L74
 598 0028 0A20     		movs	r0, #10
 599              	.LVL47:
 600              	.LBE114:
 601              	.LBE113:
 602              		.loc 1 440 0
 603 002a 03B0     		add	sp, sp, #12
 604              		.cfi_remember_state
 605              		.cfi_def_cfa_offset 4
 606              		@ sp needed
 607 002c 5DF804EB 		ldr	lr, [sp], #4
 608              		.cfi_restore 14
 609              		.cfi_def_cfa_offset 0
 610              	.LBB116:
 611              	.LBB115:
 612              		.loc 4 627 0
 613 0030 FFF7FEBF 		b	chThdSleep
 614              	.LVL48:
 615              	.L74:
 616              		.cfi_restore_state
 617 0034 FFF7FEFF 		bl	__stack_chk_fail
 618              	.LVL49:
 619              	.L76:
 620              		.align	2
 621              	.L75:
 622 0038 00000000 		.word	__stack_chk_guard
 623              	.LBE115:
 624              	.LBE116:
 625              		.cfi_endproc
 626              	.LFE266:
 627              		.size	sdc_lld_start_clk, .-sdc_lld_start_clk
ARM GAS  C:\Users\Moi\AppData\Local\Temp\cc2Dlx38.s 			page 12


 628              		.section	.text.sdc_lld_set_data_clk,"ax",%progbits
 629              		.align	1
 630              		.p2align 4,,15
 631              		.global	sdc_lld_set_data_clk
 632              		.syntax unified
 633              		.thumb
 634              		.thumb_func
 635              		.fpu fpv4-sp-d16
 636              		.type	sdc_lld_set_data_clk, %function
 637              	sdc_lld_set_data_clk:
 638              	.LFB267:
 639              		.loc 1 450 0
 640              		.cfi_startproc
 641              		@ args = 0, pretend = 0, frame = 8
 642              		@ frame_needed = 0, uses_anonymous_args = 0
 643              	.LVL50:
 644 0000 00B5     		push	{lr}
 645              		.cfi_def_cfa_offset 4
 646              		.cfi_offset 14, -4
 647 0002 094A     		ldr	r2, .L81
 648              		.loc 1 461 0
 649 0004 816C     		ldr	r1, [r0, #72]
 650              	.LVL51:
 651              		.loc 1 450 0
 652 0006 1368     		ldr	r3, [r2]
 653 0008 83B0     		sub	sp, sp, #12
 654              		.cfi_def_cfa_offset 16
 655              		.loc 1 450 0
 656 000a 0193     		str	r3, [sp, #4]
 657              		.loc 1 461 0
 658 000c 4B68     		ldr	r3, [r1, #4]
 659 000e 23F0FF03 		bic	r3, r3, #255
 660 0012 4B60     		str	r3, [r1, #4]
 661              		.loc 1 463 0
 662 0014 0199     		ldr	r1, [sp, #4]
 663 0016 1368     		ldr	r3, [r2]
 664 0018 9942     		cmp	r1, r3
 665 001a 02D1     		bne	.L80
 666 001c 03B0     		add	sp, sp, #12
 667              		.cfi_remember_state
 668              		.cfi_def_cfa_offset 4
 669              		@ sp needed
 670 001e 5DF804FB 		ldr	pc, [sp], #4
 671              	.L80:
 672              		.cfi_restore_state
 673 0022 FFF7FEFF 		bl	__stack_chk_fail
 674              	.LVL52:
 675              	.L82:
 676 0026 00BF     		.align	2
 677              	.L81:
 678 0028 00000000 		.word	__stack_chk_guard
 679              		.cfi_endproc
 680              	.LFE267:
 681              		.size	sdc_lld_set_data_clk, .-sdc_lld_set_data_clk
 682              		.section	.text.sdc_lld_stop_clk,"ax",%progbits
 683              		.align	1
 684              		.p2align 4,,15
ARM GAS  C:\Users\Moi\AppData\Local\Temp\cc2Dlx38.s 			page 13


 685              		.global	sdc_lld_stop_clk
 686              		.syntax unified
 687              		.thumb
 688              		.thumb_func
 689              		.fpu fpv4-sp-d16
 690              		.type	sdc_lld_stop_clk, %function
 691              	sdc_lld_stop_clk:
 692              	.LFB268:
 693              		.loc 1 472 0
 694              		.cfi_startproc
 695              		@ args = 0, pretend = 0, frame = 8
 696              		@ frame_needed = 0, uses_anonymous_args = 0
 697              	.LVL53:
 698 0000 00B5     		push	{lr}
 699              		.cfi_def_cfa_offset 4
 700              		.cfi_offset 14, -4
 701 0002 084B     		ldr	r3, .L87
 702              		.loc 1 474 0
 703 0004 826C     		ldr	r2, [r0, #72]
 704              		.loc 1 472 0
 705 0006 1968     		ldr	r1, [r3]
 706 0008 83B0     		sub	sp, sp, #12
 707              		.cfi_def_cfa_offset 16
 708              		.loc 1 472 0
 709 000a 0191     		str	r1, [sp, #4]
 710              		.loc 1 474 0
 711 000c 0021     		movs	r1, #0
 712 000e 5160     		str	r1, [r2, #4]
 713              		.loc 1 475 0
 714 0010 1160     		str	r1, [r2]
 715              		.loc 1 476 0
 716 0012 019A     		ldr	r2, [sp, #4]
 717 0014 1B68     		ldr	r3, [r3]
 718 0016 9A42     		cmp	r2, r3
 719 0018 02D1     		bne	.L86
 720 001a 03B0     		add	sp, sp, #12
 721              		.cfi_remember_state
 722              		.cfi_def_cfa_offset 4
 723              		@ sp needed
 724 001c 5DF804FB 		ldr	pc, [sp], #4
 725              	.L86:
 726              		.cfi_restore_state
 727 0020 FFF7FEFF 		bl	__stack_chk_fail
 728              	.LVL54:
 729              	.L88:
 730              		.align	2
 731              	.L87:
 732 0024 00000000 		.word	__stack_chk_guard
 733              		.cfi_endproc
 734              	.LFE268:
 735              		.size	sdc_lld_stop_clk, .-sdc_lld_stop_clk
 736              		.section	.text.sdc_lld_set_bus_mode,"ax",%progbits
 737              		.align	1
 738              		.p2align 4,,15
 739              		.global	sdc_lld_set_bus_mode
 740              		.syntax unified
 741              		.thumb
ARM GAS  C:\Users\Moi\AppData\Local\Temp\cc2Dlx38.s 			page 14


 742              		.thumb_func
 743              		.fpu fpv4-sp-d16
 744              		.type	sdc_lld_set_bus_mode, %function
 745              	sdc_lld_set_bus_mode:
 746              	.LFB269:
 747              		.loc 1 486 0
 748              		.cfi_startproc
 749              		@ args = 0, pretend = 0, frame = 8
 750              		@ frame_needed = 0, uses_anonymous_args = 0
 751              	.LVL55:
 752 0000 00B5     		push	{lr}
 753              		.cfi_def_cfa_offset 4
 754              		.cfi_offset 14, -4
 755 0002 0F4A     		ldr	r2, .L98
 756              		.loc 1 487 0
 757 0004 806C     		ldr	r0, [r0, #72]
 758              	.LVL56:
 759              		.loc 1 486 0
 760 0006 1368     		ldr	r3, [r2]
 761 0008 83B0     		sub	sp, sp, #12
 762              		.cfi_def_cfa_offset 16
 763              		.loc 1 489 0
 764 000a 0129     		cmp	r1, #1
 765              		.loc 1 486 0
 766 000c 0193     		str	r3, [sp, #4]
 767              		.loc 1 487 0
 768 000e 4368     		ldr	r3, [r0, #4]
 769 0010 23F4C053 		bic	r3, r3, #6144
 770              	.LVL57:
 771              		.loc 1 489 0
 772 0014 0DD0     		beq	.L91
 773 0016 0AD3     		bcc	.L96
 774 0018 0229     		cmp	r1, #2
 775 001a 06D0     		beq	.L93
 776              	.LVL58:
 777              	.L89:
 778              		.loc 1 500 0
 779 001c 0199     		ldr	r1, [sp, #4]
 780              	.LVL59:
 781 001e 1368     		ldr	r3, [r2]
 782 0020 9942     		cmp	r1, r3
 783 0022 0AD1     		bne	.L97
 784 0024 03B0     		add	sp, sp, #12
 785              		.cfi_remember_state
 786              		.cfi_def_cfa_offset 4
 787              		@ sp needed
 788 0026 5DF804FB 		ldr	pc, [sp], #4
 789              	.LVL60:
 790              	.L93:
 791              		.cfi_restore_state
 792              		.loc 1 497 0
 793 002a 43F48053 		orr	r3, r3, #4096
 794              	.LVL61:
 795              	.L96:
 796 002e 4360     		str	r3, [r0, #4]
 797              		.loc 1 500 0
 798 0030 F4E7     		b	.L89
ARM GAS  C:\Users\Moi\AppData\Local\Temp\cc2Dlx38.s 			page 15


 799              	.LVL62:
 800              	.L91:
 801              		.loc 1 494 0
 802 0032 43F40063 		orr	r3, r3, #2048
 803              	.LVL63:
 804 0036 4360     		str	r3, [r0, #4]
 805              		.loc 1 495 0
 806 0038 F0E7     		b	.L89
 807              	.LVL64:
 808              	.L97:
 809              		.loc 1 500 0
 810 003a FFF7FEFF 		bl	__stack_chk_fail
 811              	.LVL65:
 812              	.L99:
 813 003e 00BF     		.align	2
 814              	.L98:
 815 0040 00000000 		.word	__stack_chk_guard
 816              		.cfi_endproc
 817              	.LFE269:
 818              		.size	sdc_lld_set_bus_mode, .-sdc_lld_set_bus_mode
 819              		.section	.text.sdc_lld_send_cmd_none,"ax",%progbits
 820              		.align	1
 821              		.p2align 4,,15
 822              		.global	sdc_lld_send_cmd_none
 823              		.syntax unified
 824              		.thumb
 825              		.thumb_func
 826              		.fpu fpv4-sp-d16
 827              		.type	sdc_lld_send_cmd_none, %function
 828              	sdc_lld_send_cmd_none:
 829              	.LFB270:
 830              		.loc 1 511 0
 831              		.cfi_startproc
 832              		@ args = 0, pretend = 0, frame = 8
 833              		@ frame_needed = 0, uses_anonymous_args = 0
 834              	.LVL66:
 835 0000 10B5     		push	{r4, lr}
 836              		.cfi_def_cfa_offset 8
 837              		.cfi_offset 4, -8
 838              		.cfi_offset 14, -4
 839 0002 0B4C     		ldr	r4, .L107
 840              		.loc 1 513 0
 841 0004 806C     		ldr	r0, [r0, #72]
 842              	.LVL67:
 843              		.loc 1 511 0
 844 0006 2368     		ldr	r3, [r4]
 845 0008 82B0     		sub	sp, sp, #8
 846              		.cfi_def_cfa_offset 16
 847              		.loc 1 514 0
 848 000a 41F48061 		orr	r1, r1, #1024
 849              	.LVL68:
 850              		.loc 1 511 0
 851 000e 0193     		str	r3, [sp, #4]
 852              		.loc 1 513 0
 853 0010 8260     		str	r2, [r0, #8]
 854              		.loc 1 514 0
 855 0012 C160     		str	r1, [r0, #12]
ARM GAS  C:\Users\Moi\AppData\Local\Temp\cc2Dlx38.s 			page 16


 856              	.L101:
 857              		.loc 1 515 0 discriminator 1
 858 0014 436B     		ldr	r3, [r0, #52]
 859 0016 1B06     		lsls	r3, r3, #24
 860 0018 FCD5     		bpl	.L101
 861              		.loc 1 517 0
 862 001a 8023     		movs	r3, #128
 863 001c 8363     		str	r3, [r0, #56]
 864              		.loc 1 518 0
 865 001e 019A     		ldr	r2, [sp, #4]
 866              	.LVL69:
 867 0020 2368     		ldr	r3, [r4]
 868 0022 9A42     		cmp	r2, r3
 869 0024 01D1     		bne	.L106
 870 0026 02B0     		add	sp, sp, #8
 871              		.cfi_remember_state
 872              		.cfi_def_cfa_offset 8
 873              		@ sp needed
 874 0028 10BD     		pop	{r4, pc}
 875              	.L106:
 876              		.cfi_restore_state
 877 002a FFF7FEFF 		bl	__stack_chk_fail
 878              	.LVL70:
 879              	.L108:
 880 002e 00BF     		.align	2
 881              	.L107:
 882 0030 00000000 		.word	__stack_chk_guard
 883              		.cfi_endproc
 884              	.LFE270:
 885              		.size	sdc_lld_send_cmd_none, .-sdc_lld_send_cmd_none
 886              		.section	.text.sdc_lld_send_cmd_short,"ax",%progbits
 887              		.align	1
 888              		.p2align 4,,15
 889              		.global	sdc_lld_send_cmd_short
 890              		.syntax unified
 891              		.thumb
 892              		.thumb_func
 893              		.fpu fpv4-sp-d16
 894              		.type	sdc_lld_send_cmd_short, %function
 895              	sdc_lld_send_cmd_short:
 896              	.LFB271:
 897              		.loc 1 536 0
 898              		.cfi_startproc
 899              		@ args = 0, pretend = 0, frame = 8
 900              		@ frame_needed = 0, uses_anonymous_args = 0
 901              	.LVL71:
 902 0000 70B5     		push	{r4, r5, r6, lr}
 903              		.cfi_def_cfa_offset 16
 904              		.cfi_offset 4, -16
 905              		.cfi_offset 5, -12
 906              		.cfi_offset 6, -8
 907              		.cfi_offset 14, -4
 908 0002 104D     		ldr	r5, .L119
 909              		.loc 1 539 0
 910 0004 846C     		ldr	r4, [r0, #72]
 911              		.loc 1 536 0
 912 0006 2E68     		ldr	r6, [r5]
ARM GAS  C:\Users\Moi\AppData\Local\Temp\cc2Dlx38.s 			page 17


 913 0008 82B0     		sub	sp, sp, #8
 914              		.cfi_def_cfa_offset 24
 915              		.loc 1 540 0
 916 000a 41F48861 		orr	r1, r1, #1088
 917              	.LVL72:
 918              		.loc 1 536 0
 919 000e 0196     		str	r6, [sp, #4]
 920              		.loc 1 539 0
 921 0010 A260     		str	r2, [r4, #8]
 922              		.loc 1 540 0
 923 0012 E160     		str	r1, [r4, #12]
 924              	.LVL73:
 925              	.L110:
 926              		.loc 1 541 0 discriminator 1
 927 0014 616B     		ldr	r1, [r4, #52]
 928              	.LVL74:
 929 0016 11F04502 		ands	r2, r1, #69
 930 001a FBD0     		beq	.L110
 931              		.loc 1 544 0
 932 001c A263     		str	r2, [r4, #56]
 933              		.loc 1 546 0
 934 001e 11F00402 		ands	r2, r1, #4
 935 0022 08D1     		bne	.L117
 936              		.loc 1 550 0
 937 0024 6169     		ldr	r1, [r4, #20]
 938              	.LVL75:
 939 0026 1960     		str	r1, [r3]
 940              		.loc 1 551 0
 941 0028 1046     		mov	r0, r2
 942              	.LVL76:
 943              	.L112:
 944              		.loc 1 552 0
 945 002a 019A     		ldr	r2, [sp, #4]
 946 002c 2B68     		ldr	r3, [r5]
 947 002e 9A42     		cmp	r2, r3
 948 0030 06D1     		bne	.L118
 949 0032 02B0     		add	sp, sp, #8
 950              		.cfi_remember_state
 951              		.cfi_def_cfa_offset 16
 952              		@ sp needed
 953 0034 70BD     		pop	{r4, r5, r6, pc}
 954              	.LVL77:
 955              	.L117:
 956              		.cfi_restore_state
 957              		.loc 1 547 0
 958 0036 3430     		adds	r0, r0, #52
 959              	.LVL78:
 960 0038 FFF7FEFF 		bl	sdc_lld_collect_errors.isra.0
 961              	.LVL79:
 962              		.loc 1 548 0
 963 003c 0120     		movs	r0, #1
 964 003e F4E7     		b	.L112
 965              	.L118:
 966              		.loc 1 552 0
 967 0040 FFF7FEFF 		bl	__stack_chk_fail
 968              	.LVL80:
 969              	.L120:
ARM GAS  C:\Users\Moi\AppData\Local\Temp\cc2Dlx38.s 			page 18


 970              		.align	2
 971              	.L119:
 972 0044 00000000 		.word	__stack_chk_guard
 973              		.cfi_endproc
 974              	.LFE271:
 975              		.size	sdc_lld_send_cmd_short, .-sdc_lld_send_cmd_short
 976              		.section	.text.sdc_lld_send_cmd_short_crc,"ax",%progbits
 977              		.align	1
 978              		.p2align 4,,15
 979              		.global	sdc_lld_send_cmd_short_crc
 980              		.syntax unified
 981              		.thumb
 982              		.thumb_func
 983              		.fpu fpv4-sp-d16
 984              		.type	sdc_lld_send_cmd_short_crc, %function
 985              	sdc_lld_send_cmd_short_crc:
 986              	.LFB272:
 987              		.loc 1 569 0
 988              		.cfi_startproc
 989              		@ args = 0, pretend = 0, frame = 8
 990              		@ frame_needed = 0, uses_anonymous_args = 0
 991              	.LVL81:
 992 0000 70B5     		push	{r4, r5, r6, lr}
 993              		.cfi_def_cfa_offset 16
 994              		.cfi_offset 4, -16
 995              		.cfi_offset 5, -12
 996              		.cfi_offset 6, -8
 997              		.cfi_offset 14, -4
 998 0002 104D     		ldr	r5, .L131
 999              		.loc 1 572 0
 1000 0004 846C     		ldr	r4, [r0, #72]
 1001              		.loc 1 569 0
 1002 0006 2E68     		ldr	r6, [r5]
 1003 0008 82B0     		sub	sp, sp, #8
 1004              		.cfi_def_cfa_offset 24
 1005              		.loc 1 573 0
 1006 000a 41F48861 		orr	r1, r1, #1088
 1007              	.LVL82:
 1008              		.loc 1 569 0
 1009 000e 0196     		str	r6, [sp, #4]
 1010              		.loc 1 572 0
 1011 0010 A260     		str	r2, [r4, #8]
 1012              		.loc 1 573 0
 1013 0012 E160     		str	r1, [r4, #12]
 1014              	.LVL83:
 1015              	.L122:
 1016              		.loc 1 574 0 discriminator 1
 1017 0014 616B     		ldr	r1, [r4, #52]
 1018              	.LVL84:
 1019 0016 11F04502 		ands	r2, r1, #69
 1020 001a FBD0     		beq	.L122
 1021              		.loc 1 577 0
 1022 001c A263     		str	r2, [r4, #56]
 1023              		.loc 1 578 0
 1024 001e 11F00502 		ands	r2, r1, #5
 1025 0022 08D1     		bne	.L129
 1026              		.loc 1 582 0
ARM GAS  C:\Users\Moi\AppData\Local\Temp\cc2Dlx38.s 			page 19


 1027 0024 6169     		ldr	r1, [r4, #20]
 1028              	.LVL85:
 1029 0026 1960     		str	r1, [r3]
 1030              		.loc 1 583 0
 1031 0028 1046     		mov	r0, r2
 1032              	.LVL86:
 1033              	.L124:
 1034              		.loc 1 584 0
 1035 002a 019A     		ldr	r2, [sp, #4]
 1036 002c 2B68     		ldr	r3, [r5]
 1037 002e 9A42     		cmp	r2, r3
 1038 0030 06D1     		bne	.L130
 1039 0032 02B0     		add	sp, sp, #8
 1040              		.cfi_remember_state
 1041              		.cfi_def_cfa_offset 16
 1042              		@ sp needed
 1043 0034 70BD     		pop	{r4, r5, r6, pc}
 1044              	.LVL87:
 1045              	.L129:
 1046              		.cfi_restore_state
 1047              		.loc 1 579 0
 1048 0036 3430     		adds	r0, r0, #52
 1049              	.LVL88:
 1050 0038 FFF7FEFF 		bl	sdc_lld_collect_errors.isra.0
 1051              	.LVL89:
 1052              		.loc 1 580 0
 1053 003c 0120     		movs	r0, #1
 1054 003e F4E7     		b	.L124
 1055              	.L130:
 1056              		.loc 1 584 0
 1057 0040 FFF7FEFF 		bl	__stack_chk_fail
 1058              	.LVL90:
 1059              	.L132:
 1060              		.align	2
 1061              	.L131:
 1062 0044 00000000 		.word	__stack_chk_guard
 1063              		.cfi_endproc
 1064              	.LFE272:
 1065              		.size	sdc_lld_send_cmd_short_crc, .-sdc_lld_send_cmd_short_crc
 1066              		.section	.text.sdc_lld_wait_transaction_end,"ax",%progbits
 1067              		.align	1
 1068              		.p2align 4,,15
 1069              		.syntax unified
 1070              		.thumb
 1071              		.thumb_func
 1072              		.fpu fpv4-sp-d16
 1073              		.type	sdc_lld_wait_transaction_end, %function
 1074              	sdc_lld_wait_transaction_end:
 1075              	.LFB259:
 1076              		.loc 1 209 0
 1077              		.cfi_startproc
 1078              		@ args = 0, pretend = 0, frame = 8
 1079              		@ frame_needed = 0, uses_anonymous_args = 0
 1080              	.LVL91:
 1081 0000 F0B5     		push	{r4, r5, r6, r7, lr}
 1082              		.cfi_def_cfa_offset 20
 1083              		.cfi_offset 4, -20
ARM GAS  C:\Users\Moi\AppData\Local\Temp\cc2Dlx38.s 			page 20


 1084              		.cfi_offset 5, -16
 1085              		.cfi_offset 6, -12
 1086              		.cfi_offset 7, -8
 1087              		.cfi_offset 14, -4
 1088 0002 3A4D     		ldr	r5, .L154
 1089 0004 83B0     		sub	sp, sp, #12
 1090              		.cfi_def_cfa_offset 32
 1091              		.loc 1 209 0
 1092 0006 2B68     		ldr	r3, [r5]
 1093 0008 0193     		str	r3, [sp, #4]
 1094 000a 0446     		mov	r4, r0
 1095              	.LVL92:
 1096 000c 0E46     		mov	r6, r1
 1097 000e 1746     		mov	r7, r2
 1098              	.LBB153:
 1099              	.LBB154:
 1100              	.LBB155:
 1101              	.LBB156:
 1102              	.LBB157:
 1103              	.LBB158:
 1104              		.loc 2 546 0
 1105 0010 2023     		movs	r3, #32
 1106              		.syntax unified
 1107              	@ 546 "..//ChibiOS//os/ext/CMSIS/include/core_cmFunc.h" 1
 1108 0012 83F31188 		MSR basepri, r3
 1109              	@ 0 "" 2
 1110              	.LVL93:
 1111              		.thumb
 1112              		.syntax unified
 1113              	.LBE158:
 1114              	.LBE157:
 1115              	.LBE156:
 1116              		.loc 3 349 0
 1117 0016 FFF7FEFF 		bl	_stats_start_measure_crit_thd
 1118              	.LVL94:
 1119              		.loc 3 350 0
 1120 001a FFF7FEFF 		bl	_dbg_check_lock
 1121              	.LVL95:
 1122              	.LBE155:
 1123              	.LBE154:
 1124              	.LBE153:
 1125              		.loc 1 214 0
 1126 001e A16C     		ldr	r1, [r4, #72]
 1127 0020 CB6B     		ldr	r3, [r1, #60]
 1128 0022 002B     		cmp	r3, #0
 1129 0024 39D1     		bne	.L149
 1130              		.loc 1 216 0
 1131 0026 4B6B     		ldr	r3, [r1, #52]
 1132 0028 DB05     		lsls	r3, r3, #23
 1133 002a 3ED5     		bpl	.L150
 1134              	.L135:
 1135              		.loc 1 223 0
 1136 002c 606C     		ldr	r0, [r4, #68]
 1137 002e 0268     		ldr	r2, [r0]
 1138              	.L138:
 1139              		.loc 1 223 0 is_stmt 0 discriminator 1
 1140 0030 1368     		ldr	r3, [r2]
ARM GAS  C:\Users\Moi\AppData\Local\Temp\cc2Dlx38.s 			page 21


 1141 0032 13F00103 		ands	r3, r3, #1
 1142 0036 FBD1     		bne	.L138
 1143              		.loc 1 227 0 is_stmt 1
 1144 0038 90F808E0 		ldrb	lr, [r0, #8]	@ zero_extendqisi2
 1145 003c D0F804C0 		ldr	ip, [r0, #4]
 1146              		.loc 1 229 0
 1147 0040 2B48     		ldr	r0, .L154+4
 1148              		.loc 1 227 0
 1149 0042 3D22     		movs	r2, #61
 1150 0044 02FA0EF2 		lsl	r2, r2, lr
 1151 0048 CCF80020 		str	r2, [ip]
 1152              		.loc 1 229 0
 1153 004c 8863     		str	r0, [r1, #56]
 1154              		.loc 1 230 0
 1155 004e CB62     		str	r3, [r1, #44]
 1156              	.LBB159:
 1157              	.LBB160:
 1158              	.LBB161:
 1159              		.loc 3 360 0
 1160 0050 FFF7FEFF 		bl	_dbg_check_unlock
 1161              	.LVL96:
 1162              		.loc 3 361 0
 1163 0054 FFF7FEFF 		bl	_stats_stop_measure_crit_thd
 1164              	.LVL97:
 1165              		.loc 3 367 0
 1166 0058 264B     		ldr	r3, .L154+8
 1167 005a 1A68     		ldr	r2, [r3]
 1168 005c 9A42     		cmp	r2, r3
 1169 005e 04D0     		beq	.L139
 1170 0060 9969     		ldr	r1, [r3, #24]
 1171 0062 9368     		ldr	r3, [r2, #8]
 1172 0064 8A68     		ldr	r2, [r1, #8]
 1173 0066 9A42     		cmp	r2, r3
 1174 0068 31D3     		bcc	.L151
 1175              	.L139:
 1176              	.LVL98:
 1177              	.LBB162:
 1178              	.LBB163:
 1179              	.LBB164:
 1180              		.loc 2 546 0
 1181 006a 0022     		movs	r2, #0
 1182              		.syntax unified
 1183              	@ 546 "..//ChibiOS//os/ext/CMSIS/include/core_cmFunc.h" 1
 1184 006c 82F31188 		MSR basepri, r2
 1185              	@ 0 "" 2
 1186              	.LVL99:
 1187              		.thumb
 1188              		.syntax unified
 1189              	.LBE164:
 1190              	.LBE163:
 1191              	.LBE162:
 1192              	.LBE161:
 1193              	.LBE160:
 1194              	.LBE159:
 1195              		.loc 1 247 0
 1196 0070 012E     		cmp	r6, #1
 1197 0072 0BD9     		bls	.L142
ARM GAS  C:\Users\Moi\AppData\Local\Temp\cc2Dlx38.s 			page 22


 1198              	.L153:
 1199              	.LVL100:
 1200              	.LBB170:
 1201              	.LBB171:
 1202              		.loc 1 248 0
 1203 0074 0199     		ldr	r1, [sp, #4]
 1204 0076 2B68     		ldr	r3, [r5]
 1205 0078 9942     		cmp	r1, r3
 1206 007a 35D1     		bne	.L148
 1207 007c 3B46     		mov	r3, r7
 1208 007e 2046     		mov	r0, r4
 1209 0080 0C21     		movs	r1, #12
 1210              	.LBE171:
 1211              	.LBE170:
 1212              		.loc 1 251 0
 1213 0082 03B0     		add	sp, sp, #12
 1214              		.cfi_remember_state
 1215              		.cfi_def_cfa_offset 20
 1216              		@ sp needed
 1217 0084 BDE8F040 		pop	{r4, r5, r6, r7, lr}
 1218              		.cfi_restore 14
 1219              		.cfi_restore 7
 1220              		.cfi_restore 6
 1221              		.cfi_restore 5
 1222              		.cfi_restore 4
 1223              		.cfi_def_cfa_offset 0
 1224              	.LVL101:
 1225              	.LBB173:
 1226              	.LBB172:
 1227              		.loc 1 248 0
 1228 0088 FFF7FEBF 		b	sdc_lld_send_cmd_short_crc
 1229              	.LVL102:
 1230              	.L142:
 1231              		.cfi_restore_state
 1232              	.LBE172:
 1233              	.LBE173:
 1234              		.loc 1 250 0
 1235 008c 1046     		mov	r0, r2
 1236              	.L137:
 1237              		.loc 1 251 0
 1238 008e 019A     		ldr	r2, [sp, #4]
 1239 0090 2B68     		ldr	r3, [r5]
 1240 0092 9A42     		cmp	r2, r3
 1241 0094 28D1     		bne	.L148
 1242 0096 03B0     		add	sp, sp, #12
 1243              		.cfi_remember_state
 1244              		.cfi_def_cfa_offset 20
 1245              		@ sp needed
 1246 0098 F0BD     		pop	{r4, r5, r6, r7, pc}
 1247              	.LVL103:
 1248              	.L149:
 1249              		.cfi_restore_state
 1250              	.LBB174:
 1251              	.LBB175:
 1252              		.loc 4 642 0
 1253 009a 04F13C00 		add	r0, r4, #60
 1254              	.LVL104:
ARM GAS  C:\Users\Moi\AppData\Local\Temp\cc2Dlx38.s 			page 23


 1255 009e FFF7FEFF 		bl	chThdSuspendS
 1256              	.LVL105:
 1257 00a2 A16C     		ldr	r1, [r4, #72]
 1258              	.LBE175:
 1259              	.LBE174:
 1260              		.loc 1 216 0
 1261 00a4 4B6B     		ldr	r3, [r1, #52]
 1262 00a6 DB05     		lsls	r3, r3, #23
 1263 00a8 C0D4     		bmi	.L135
 1264              	.LVL106:
 1265              	.L150:
 1266              	.LBB176:
 1267              	.LBB177:
 1268              	.LBB178:
 1269              		.loc 3 360 0
 1270 00aa FFF7FEFF 		bl	_dbg_check_unlock
 1271              	.LVL107:
 1272              		.loc 3 361 0
 1273 00ae FFF7FEFF 		bl	_stats_stop_measure_crit_thd
 1274              	.LVL108:
 1275              		.loc 3 367 0
 1276 00b2 104B     		ldr	r3, .L154+8
 1277 00b4 1A68     		ldr	r2, [r3]
 1278 00b6 9A42     		cmp	r2, r3
 1279 00b8 04D0     		beq	.L136
 1280 00ba 9969     		ldr	r1, [r3, #24]
 1281 00bc 9368     		ldr	r3, [r2, #8]
 1282 00be 8A68     		ldr	r2, [r1, #8]
 1283 00c0 9A42     		cmp	r2, r3
 1284 00c2 0DD3     		bcc	.L152
 1285              	.L136:
 1286              	.LVL109:
 1287              	.LBB179:
 1288              	.LBB180:
 1289              	.LBB181:
 1290              		.loc 2 546 0
 1291 00c4 0023     		movs	r3, #0
 1292              		.syntax unified
 1293              	@ 546 "..//ChibiOS//os/ext/CMSIS/include/core_cmFunc.h" 1
 1294 00c6 83F31188 		MSR basepri, r3
 1295              	@ 0 "" 2
 1296              	.LVL110:
 1297              		.thumb
 1298              		.syntax unified
 1299              	.LBE181:
 1300              	.LBE180:
 1301              	.LBE179:
 1302              	.LBE178:
 1303              	.LBE177:
 1304              	.LBE176:
 1305              		.loc 1 218 0
 1306 00ca 0120     		movs	r0, #1
 1307 00cc DFE7     		b	.L137
 1308              	.L151:
 1309              	.LBB184:
 1310              	.LBB169:
 1311              	.LBB168:
ARM GAS  C:\Users\Moi\AppData\Local\Temp\cc2Dlx38.s 			page 24


 1312              		.loc 3 367 0
 1313 00ce 0A48     		ldr	r0, .L154+12
 1314 00d0 FFF7FEFF 		bl	chSysHalt
 1315              	.LVL111:
 1316              	.LBB167:
 1317              	.LBB166:
 1318              	.LBB165:
 1319              		.loc 2 546 0
 1320 00d4 0022     		movs	r2, #0
 1321              		.syntax unified
 1322              	@ 546 "..//ChibiOS//os/ext/CMSIS/include/core_cmFunc.h" 1
 1323 00d6 82F31188 		MSR basepri, r2
 1324              	@ 0 "" 2
 1325              	.LVL112:
 1326              		.thumb
 1327              		.syntax unified
 1328              	.LBE165:
 1329              	.LBE166:
 1330              	.LBE167:
 1331              	.LBE168:
 1332              	.LBE169:
 1333              	.LBE184:
 1334              		.loc 1 247 0
 1335 00da 012E     		cmp	r6, #1
 1336 00dc CAD8     		bhi	.L153
 1337 00de D5E7     		b	.L142
 1338              	.L152:
 1339              	.LBB185:
 1340              	.LBB183:
 1341              	.LBB182:
 1342              		.loc 3 367 0
 1343 00e0 0548     		ldr	r0, .L154+12
 1344 00e2 FFF7FEFF 		bl	chSysHalt
 1345              	.LVL113:
 1346 00e6 EDE7     		b	.L136
 1347              	.L148:
 1348              	.LBE182:
 1349              	.LBE183:
 1350              	.LBE185:
 1351              		.loc 1 251 0
 1352 00e8 FFF7FEFF 		bl	__stack_chk_fail
 1353              	.LVL114:
 1354              	.L155:
 1355              		.align	2
 1356              	.L154:
 1357 00ec 00000000 		.word	__stack_chk_guard
 1358 00f0 FF07C000 		.word	12584959
 1359 00f4 00000000 		.word	ch
 1360 00f8 00000000 		.word	.LANCHOR3
 1361              		.cfi_endproc
 1362              	.LFE259:
 1363              		.size	sdc_lld_wait_transaction_end, .-sdc_lld_wait_transaction_end
 1364              		.section	.text.sdc_lld_error_cleanup,"ax",%progbits
 1365              		.align	1
 1366              		.p2align 4,,15
 1367              		.syntax unified
 1368              		.thumb
ARM GAS  C:\Users\Moi\AppData\Local\Temp\cc2Dlx38.s 			page 25


 1369              		.thumb_func
 1370              		.fpu fpv4-sp-d16
 1371              		.type	sdc_lld_error_cleanup, %function
 1372              	sdc_lld_error_cleanup:
 1373              	.LFB261:
 1374              		.loc 1 293 0
 1375              		.cfi_startproc
 1376              		@ args = 0, pretend = 0, frame = 8
 1377              		@ frame_needed = 0, uses_anonymous_args = 0
 1378              	.LVL115:
 1379 0000 2DE9F043 		push	{r4, r5, r6, r7, r8, r9, lr}
 1380              		.cfi_def_cfa_offset 28
 1381              		.cfi_offset 4, -28
 1382              		.cfi_offset 5, -24
 1383              		.cfi_offset 6, -20
 1384              		.cfi_offset 7, -16
 1385              		.cfi_offset 8, -12
 1386              		.cfi_offset 9, -8
 1387              		.cfi_offset 14, -4
 1388              		.loc 1 296 0
 1389 0004 436C     		ldr	r3, [r0, #68]
 1390              		.loc 1 293 0
 1391 0006 1E4F     		ldr	r7, .L164
 1392              		.loc 1 296 0
 1393 0008 D3F804C0 		ldr	ip, [r3, #4]
 1394              		.loc 1 293 0
 1395 000c 3C68     		ldr	r4, [r7]
 1396 000e 0646     		mov	r6, r0
 1397 0010 83B0     		sub	sp, sp, #12
 1398              		.cfi_def_cfa_offset 40
 1399              		.loc 1 296 0
 1400 0012 187A     		ldrb	r0, [r3, #8]	@ zero_extendqisi2
 1401              	.LVL116:
 1402              		.loc 1 293 0
 1403 0014 0194     		str	r4, [sp, #4]
 1404              		.loc 1 294 0
 1405 0016 B56C     		ldr	r5, [r6, #72]
 1406              		.loc 1 297 0
 1407 0018 1B68     		ldr	r3, [r3]
 1408              		.loc 1 294 0
 1409 001a D5F834E0 		ldr	lr, [r5, #52]
 1410              	.LVL117:
 1411              		.loc 1 296 0
 1412 001e 3D24     		movs	r4, #61
 1413 0020 04FA00F0 		lsl	r0, r4, r0
 1414 0024 CCF80000 		str	r0, [ip]
 1415              		.loc 1 297 0
 1416 0028 1C68     		ldr	r4, [r3]
 1417 002a 24F01F04 		bic	r4, r4, #31
 1418              		.loc 1 293 0
 1419 002e 8946     		mov	r9, r1
 1420 0030 9046     		mov	r8, r2
 1421              		.loc 1 297 0
 1422 0032 1C60     		str	r4, [r3]
 1423              	.L157:
 1424              		.loc 1 297 0 is_stmt 0 discriminator 2
 1425 0034 1C68     		ldr	r4, [r3]
ARM GAS  C:\Users\Moi\AppData\Local\Temp\cc2Dlx38.s 			page 26


 1426 0036 14F00104 		ands	r4, r4, #1
 1427 003a FBD1     		bne	.L157
 1428              		.loc 1 298 0 is_stmt 1 discriminator 3
 1429 003c 114B     		ldr	r3, .L164+4
 1430              		.loc 1 297 0 discriminator 3
 1431 003e CCF80000 		str	r0, [ip]
 1432              		.loc 1 301 0 discriminator 3
 1433 0042 7146     		mov	r1, lr
 1434              	.LVL118:
 1435              		.loc 1 298 0 discriminator 3
 1436 0044 AB63     		str	r3, [r5, #56]
 1437              		.loc 1 301 0 discriminator 3
 1438 0046 06F13400 		add	r0, r6, #52
 1439              		.loc 1 299 0 discriminator 3
 1440 004a EC63     		str	r4, [r5, #60]
 1441              		.loc 1 300 0 discriminator 3
 1442 004c EC62     		str	r4, [r5, #44]
 1443              		.loc 1 301 0 discriminator 3
 1444 004e FFF7FEFF 		bl	sdc_lld_collect_errors.isra.0
 1445              	.LVL119:
 1446              		.loc 1 302 0 discriminator 3
 1447 0052 B9F1010F 		cmp	r9, #1
 1448              	.LBB188:
 1449              	.LBB189:
 1450              		.loc 1 303 0 discriminator 3
 1451 0056 019A     		ldr	r2, [sp, #4]
 1452 0058 3B68     		ldr	r3, [r7]
 1453              	.LBE189:
 1454              	.LBE188:
 1455              		.loc 1 302 0 discriminator 3
 1456 005a 0AD9     		bls	.L156
 1457              	.LVL120:
 1458              	.LBB192:
 1459              	.LBB190:
 1460              		.loc 1 303 0
 1461 005c 9A42     		cmp	r2, r3
 1462 005e 0DD1     		bne	.L163
 1463 0060 4346     		mov	r3, r8
 1464 0062 2246     		mov	r2, r4
 1465 0064 3046     		mov	r0, r6
 1466 0066 0C21     		movs	r1, #12
 1467              	.LBE190:
 1468              	.LBE192:
 1469              		.loc 1 304 0
 1470 0068 03B0     		add	sp, sp, #12
 1471              		.cfi_remember_state
 1472              		.cfi_def_cfa_offset 28
 1473              		@ sp needed
 1474 006a BDE8F043 		pop	{r4, r5, r6, r7, r8, r9, lr}
 1475              		.cfi_restore 14
 1476              		.cfi_restore 9
 1477              		.cfi_restore 8
 1478              		.cfi_restore 7
 1479              		.cfi_restore 6
 1480              		.cfi_restore 5
 1481              		.cfi_restore 4
 1482              		.cfi_def_cfa_offset 0
ARM GAS  C:\Users\Moi\AppData\Local\Temp\cc2Dlx38.s 			page 27


 1483              	.LVL121:
 1484              	.LBB193:
 1485              	.LBB191:
 1486              		.loc 1 303 0
 1487 006e FFF7FEBF 		b	sdc_lld_send_cmd_short_crc
 1488              	.LVL122:
 1489              	.L156:
 1490              		.cfi_restore_state
 1491              	.LBE191:
 1492              	.LBE193:
 1493              		.loc 1 304 0
 1494 0072 9A42     		cmp	r2, r3
 1495 0074 02D1     		bne	.L163
 1496 0076 03B0     		add	sp, sp, #12
 1497              		.cfi_remember_state
 1498              		.cfi_def_cfa_offset 28
 1499              		@ sp needed
 1500 0078 BDE8F083 		pop	{r4, r5, r6, r7, r8, r9, pc}
 1501              	.LVL123:
 1502              	.L163:
 1503              		.cfi_restore_state
 1504 007c FFF7FEFF 		bl	__stack_chk_fail
 1505              	.LVL124:
 1506              	.L165:
 1507              		.align	2
 1508              	.L164:
 1509 0080 00000000 		.word	__stack_chk_guard
 1510 0084 FF07C000 		.word	12584959
 1511              		.cfi_endproc
 1512              	.LFE261:
 1513              		.size	sdc_lld_error_cleanup, .-sdc_lld_error_cleanup
 1514              		.section	.text.sdc_lld_send_cmd_long_crc,"ax",%progbits
 1515              		.align	1
 1516              		.p2align 4,,15
 1517              		.global	sdc_lld_send_cmd_long_crc
 1518              		.syntax unified
 1519              		.thumb
 1520              		.thumb_func
 1521              		.fpu fpv4-sp-d16
 1522              		.type	sdc_lld_send_cmd_long_crc, %function
 1523              	sdc_lld_send_cmd_long_crc:
 1524              	.LFB273:
 1525              		.loc 1 601 0
 1526              		.cfi_startproc
 1527              		@ args = 0, pretend = 0, frame = 8
 1528              		@ frame_needed = 0, uses_anonymous_args = 0
 1529              	.LVL125:
 1530 0000 70B5     		push	{r4, r5, r6, lr}
 1531              		.cfi_def_cfa_offset 16
 1532              		.cfi_offset 4, -16
 1533              		.cfi_offset 5, -12
 1534              		.cfi_offset 6, -8
 1535              		.cfi_offset 14, -4
 1536 0002 134D     		ldr	r5, .L176
 1537              		.loc 1 606 0
 1538 0004 846C     		ldr	r4, [r0, #72]
 1539              		.loc 1 601 0
ARM GAS  C:\Users\Moi\AppData\Local\Temp\cc2Dlx38.s 			page 28


 1540 0006 2E68     		ldr	r6, [r5]
 1541 0008 82B0     		sub	sp, sp, #8
 1542              		.cfi_def_cfa_offset 24
 1543              		.loc 1 607 0
 1544 000a 41F49861 		orr	r1, r1, #1216
 1545              	.LVL126:
 1546              		.loc 1 601 0
 1547 000e 0196     		str	r6, [sp, #4]
 1548              		.loc 1 606 0
 1549 0010 A260     		str	r2, [r4, #8]
 1550              		.loc 1 607 0
 1551 0012 E160     		str	r1, [r4, #12]
 1552              	.LVL127:
 1553              	.L167:
 1554              		.loc 1 609 0 discriminator 1
 1555 0014 616B     		ldr	r1, [r4, #52]
 1556              	.LVL128:
 1557 0016 11F04502 		ands	r2, r1, #69
 1558 001a FBD0     		beq	.L167
 1559              		.loc 1 612 0
 1560 001c A263     		str	r2, [r4, #56]
 1561              		.loc 1 614 0
 1562 001e 11F03F02 		ands	r2, r1, #63
 1563 0022 0ED1     		bne	.L174
 1564              	.LVL129:
 1565              		.loc 1 619 0
 1566 0024 216A     		ldr	r1, [r4, #32]
 1567              	.LVL130:
 1568 0026 1960     		str	r1, [r3]
 1569              	.LVL131:
 1570              		.loc 1 620 0
 1571 0028 E169     		ldr	r1, [r4, #28]
 1572 002a 5960     		str	r1, [r3, #4]
 1573              	.LVL132:
 1574              		.loc 1 621 0
 1575 002c A169     		ldr	r1, [r4, #24]
 1576 002e 9960     		str	r1, [r3, #8]
 1577              		.loc 1 622 0
 1578 0030 6169     		ldr	r1, [r4, #20]
 1579 0032 D960     		str	r1, [r3, #12]
 1580              		.loc 1 623 0
 1581 0034 1046     		mov	r0, r2
 1582              	.LVL133:
 1583              	.L169:
 1584              		.loc 1 624 0
 1585 0036 019A     		ldr	r2, [sp, #4]
 1586 0038 2B68     		ldr	r3, [r5]
 1587 003a 9A42     		cmp	r2, r3
 1588 003c 06D1     		bne	.L175
 1589 003e 02B0     		add	sp, sp, #8
 1590              		.cfi_remember_state
 1591              		.cfi_def_cfa_offset 16
 1592              		@ sp needed
 1593 0040 70BD     		pop	{r4, r5, r6, pc}
 1594              	.LVL134:
 1595              	.L174:
 1596              		.cfi_restore_state
ARM GAS  C:\Users\Moi\AppData\Local\Temp\cc2Dlx38.s 			page 29


 1597              		.loc 1 615 0
 1598 0042 3430     		adds	r0, r0, #52
 1599              	.LVL135:
 1600 0044 FFF7FEFF 		bl	sdc_lld_collect_errors.isra.0
 1601              	.LVL136:
 1602              		.loc 1 616 0
 1603 0048 0120     		movs	r0, #1
 1604 004a F4E7     		b	.L169
 1605              	.LVL137:
 1606              	.L175:
 1607              		.loc 1 624 0
 1608 004c FFF7FEFF 		bl	__stack_chk_fail
 1609              	.LVL138:
 1610              	.L177:
 1611              		.align	2
 1612              	.L176:
 1613 0050 00000000 		.word	__stack_chk_guard
 1614              		.cfi_endproc
 1615              	.LFE273:
 1616              		.size	sdc_lld_send_cmd_long_crc, .-sdc_lld_send_cmd_long_crc
 1617              		.section	.text.sdc_lld_read_special,"ax",%progbits
 1618              		.align	1
 1619              		.p2align 4,,15
 1620              		.global	sdc_lld_read_special
 1621              		.syntax unified
 1622              		.thumb
 1623              		.thumb_func
 1624              		.fpu fpv4-sp-d16
 1625              		.type	sdc_lld_read_special, %function
 1626              	sdc_lld_read_special:
 1627              	.LFB274:
 1628              		.loc 1 643 0
 1629              		.cfi_startproc
 1630              		@ args = 4, pretend = 0, frame = 8
 1631              		@ frame_needed = 0, uses_anonymous_args = 0
 1632              	.LVL139:
 1633 0000 2DE9F043 		push	{r4, r5, r6, r7, r8, r9, lr}
 1634              		.cfi_def_cfa_offset 28
 1635              		.cfi_offset 4, -28
 1636              		.cfi_offset 5, -24
 1637              		.cfi_offset 6, -20
 1638              		.cfi_offset 7, -16
 1639              		.cfi_offset 8, -12
 1640              		.cfi_offset 9, -8
 1641              		.cfi_offset 14, -4
 1642 0004 2A4E     		ldr	r6, .L189
 1643 0006 83B0     		sub	sp, sp, #12
 1644              		.cfi_def_cfa_offset 40
 1645              		.loc 1 643 0
 1646 0008 3468     		ldr	r4, [r6]
 1647 000a 0194     		str	r4, [sp, #4]
 1648              	.LBB196:
 1649              	.LBB197:
 1650              		.loc 1 89 0
 1651 000c B2F1807F 		cmp	r2, #16777216
 1652              	.LBE197:
 1653              	.LBE196:
ARM GAS  C:\Users\Moi\AppData\Local\Temp\cc2Dlx38.s 			page 30


 1654              		.loc 1 643 0
 1655 0010 DDF82890 		ldr	r9, [sp, #40]
 1656 0014 1546     		mov	r5, r2
 1657 0016 0446     		mov	r4, r0
 1658              	.LVL140:
 1659 0018 0F46     		mov	r7, r1
 1660              	.LVL141:
 1661 001a 9846     		mov	r8, r3
 1662              	.LBB202:
 1663              	.LBB198:
 1664              		.loc 1 89 0
 1665 001c 41D2     		bcs	.L185
 1666              	.LVL142:
 1667              	.L179:
 1668              		.loc 1 91 0
 1669 001e A36C     		ldr	r3, [r4, #72]
 1670 0020 244A     		ldr	r2, .L189+4
 1671 0022 5A62     		str	r2, [r3, #36]
 1672              		.loc 1 94 0
 1673 0024 2046     		mov	r0, r4
 1674 0026 FFF7FEFF 		bl	_sdc_wait_for_transfer_state
 1675              	.LVL143:
 1676 002a 0028     		cmp	r0, #0
 1677 002c 37D1     		bne	.L186
 1678              		.loc 1 100 0
 1679 002e D4E91023 		ldrd	r2, r3, [r4, #64]
 1680              		.loc 1 98 0
 1681 0032 1B68     		ldr	r3, [r3]
 1682              		.loc 1 104 0
 1683 0034 A06C     		ldr	r0, [r4, #72]
 1684              		.loc 1 98 0
 1685 0036 DF60     		str	r7, [r3, #12]
 1686              		.loc 1 99 0
 1687 0038 A908     		lsrs	r1, r5, #2
 1688 003a 5960     		str	r1, [r3, #4]
 1689              		.loc 1 100 0
 1690 003c 1A60     		str	r2, [r3]
 1691              		.loc 1 101 0
 1692 003e 1F68     		ldr	r7, [r3]
 1693              	.LVL144:
 1694              		.loc 1 104 0
 1695 0040 DFF87CC0 		ldr	ip, .L189+16
 1696              		.loc 1 101 0
 1697 0044 47F00107 		orr	r7, r7, #1
 1698 0048 1F60     		str	r7, [r3]
 1699              		.loc 1 105 0
 1700 004a 40F22A37 		movw	r7, #810
 1701              		.loc 1 104 0
 1702 004e C0F838C0 		str	ip, [r0, #56]
 1703              		.loc 1 113 0
 1704 0052 0F23     		movs	r3, #15
 1705              		.loc 1 105 0
 1706 0054 C763     		str	r7, [r0, #60]
 1707              	.LBE198:
 1708              	.LBE202:
 1709              		.loc 1 649 0
 1710 0056 6F46     		mov	r7, sp
ARM GAS  C:\Users\Moi\AppData\Local\Temp\cc2Dlx38.s 			page 31


 1711              	.LBB203:
 1712              	.LBB199:
 1713              		.loc 1 110 0
 1714 0058 8562     		str	r5, [r0, #40]
 1715              	.LBE199:
 1716              	.LBE203:
 1717              		.loc 1 649 0
 1718 005a 4A46     		mov	r2, r9
 1719              	.LBB204:
 1720              	.LBB200:
 1721              		.loc 1 113 0
 1722 005c C362     		str	r3, [r0, #44]
 1723              	.LVL145:
 1724              	.LBE200:
 1725              	.LBE204:
 1726              		.loc 1 649 0
 1727 005e 4146     		mov	r1, r8
 1728 0060 3B46     		mov	r3, r7
 1729 0062 2046     		mov	r0, r4
 1730 0064 FFF7FEFF 		bl	sdc_lld_send_cmd_short_crc
 1731              	.LVL146:
 1732 0068 60B1     		cbz	r0, .L187
 1733              	.L182:
 1734              	.LDL1:
 1735              		.loc 1 659 0
 1736 006a 2046     		mov	r0, r4
 1737 006c 3A46     		mov	r2, r7
 1738 006e 0121     		movs	r1, #1
 1739 0070 FFF7FEFF 		bl	sdc_lld_error_cleanup
 1740              	.LVL147:
 1741              		.loc 1 660 0
 1742 0074 0120     		movs	r0, #1
 1743              	.L181:
 1744              		.loc 1 661 0
 1745 0076 019A     		ldr	r2, [sp, #4]
 1746 0078 3368     		ldr	r3, [r6]
 1747 007a 9A42     		cmp	r2, r3
 1748 007c 15D1     		bne	.L188
 1749 007e 03B0     		add	sp, sp, #12
 1750              		.cfi_remember_state
 1751              		.cfi_def_cfa_offset 28
 1752              		@ sp needed
 1753 0080 BDE8F083 		pop	{r4, r5, r6, r7, r8, r9, pc}
 1754              	.LVL148:
 1755              	.L187:
 1756              		.cfi_restore_state
 1757              		.loc 1 650 0
 1758 0084 009A     		ldr	r2, [sp]
 1759 0086 0C4B     		ldr	r3, .L189+8
 1760 0088 1340     		ands	r3, r3, r2
 1761 008a 002B     		cmp	r3, #0
 1762 008c EDD1     		bne	.L182
 1763              		.loc 1 653 0
 1764 008e 3A46     		mov	r2, r7
 1765 0090 0121     		movs	r1, #1
 1766 0092 2046     		mov	r0, r4
 1767 0094 FFF7FEFF 		bl	sdc_lld_wait_transaction_end
ARM GAS  C:\Users\Moi\AppData\Local\Temp\cc2Dlx38.s 			page 32


 1768              	.LVL149:
 1769 0098 0028     		cmp	r0, #0
 1770 009a E6D1     		bne	.L182
 1771 009c EBE7     		b	.L181
 1772              	.LVL150:
 1773              	.L186:
 1774 009e 6F46     		mov	r7, sp
 1775              	.LVL151:
 1776 00a0 E3E7     		b	.L182
 1777              	.LVL152:
 1778              	.L185:
 1779              	.LBB205:
 1780              	.LBB201:
 1781              		.loc 1 89 0
 1782 00a2 0648     		ldr	r0, .L189+12
 1783              	.LVL153:
 1784 00a4 FFF7FEFF 		bl	chSysHalt
 1785              	.LVL154:
 1786 00a8 B9E7     		b	.L179
 1787              	.LVL155:
 1788              	.L188:
 1789              	.LBE201:
 1790              	.LBE205:
 1791              		.loc 1 661 0
 1792 00aa FFF7FEFF 		bl	__stack_chk_fail
 1793              	.LVL156:
 1794              	.L190:
 1795 00ae 00BF     		.align	2
 1796              	.L189:
 1797 00b0 00000000 		.word	__stack_chk_guard
 1798 00b4 C0270900 		.word	600000
 1799 00b8 08E0FFFD 		.word	-33562616
 1800 00bc 00000000 		.word	.LANCHOR4
 1801 00c0 FF07C000 		.word	12584959
 1802              		.cfi_endproc
 1803              	.LFE274:
 1804              		.size	sdc_lld_read_special, .-sdc_lld_read_special
 1805              		.section	.text.sdc_lld_read_aligned,"ax",%progbits
 1806              		.align	1
 1807              		.p2align 4,,15
 1808              		.global	sdc_lld_read_aligned
 1809              		.syntax unified
 1810              		.thumb
 1811              		.thumb_func
 1812              		.fpu fpv4-sp-d16
 1813              		.type	sdc_lld_read_aligned, %function
 1814              	sdc_lld_read_aligned:
 1815              	.LFB275:
 1816              		.loc 1 678 0
 1817              		.cfi_startproc
 1818              		@ args = 0, pretend = 0, frame = 8
 1819              		@ frame_needed = 0, uses_anonymous_args = 0
 1820              	.LVL157:
 1821 0000 2DE9F041 		push	{r4, r5, r6, r7, r8, lr}
 1822              		.cfi_def_cfa_offset 24
 1823              		.cfi_offset 4, -24
 1824              		.cfi_offset 5, -20
ARM GAS  C:\Users\Moi\AppData\Local\Temp\cc2Dlx38.s 			page 33


 1825              		.cfi_offset 6, -16
 1826              		.cfi_offset 7, -12
 1827              		.cfi_offset 8, -8
 1828              		.cfi_offset 14, -4
 1829 0004 2E4E     		ldr	r6, .L206
 1830 0006 1D46     		mov	r5, r3
 1831 0008 82B0     		sub	sp, sp, #8
 1832              		.cfi_def_cfa_offset 32
 1833              		.loc 1 678 0
 1834 000a 3368     		ldr	r3, [r6]
 1835              	.LVL158:
 1836 000c 0193     		str	r3, [sp, #4]
 1837              		.loc 1 681 0
 1838 000e B5F5004F 		cmp	r5, #32768
 1839              		.loc 1 678 0
 1840 0012 0446     		mov	r4, r0
 1841 0014 0F46     		mov	r7, r1
 1842 0016 9046     		mov	r8, r2
 1843              		.loc 1 681 0
 1844 0018 45D2     		bcs	.L203
 1845              	.LVL159:
 1846              	.L192:
 1847              		.loc 1 683 0
 1848 001a A36C     		ldr	r3, [r4, #72]
 1849 001c 294A     		ldr	r2, .L206+4
 1850 001e 5A62     		str	r2, [r3, #36]
 1851              		.loc 1 686 0
 1852 0020 2046     		mov	r0, r4
 1853 0022 FFF7FEFF 		bl	_sdc_wait_for_transfer_state
 1854              	.LVL160:
 1855 0026 30B1     		cbz	r0, .L204
 1856              	.LVL161:
 1857              	.L193:
 1858              		.loc 1 723 0
 1859 0028 019A     		ldr	r2, [sp, #4]
 1860 002a 3368     		ldr	r3, [r6]
 1861 002c 9A42     		cmp	r2, r3
 1862 002e 45D1     		bne	.L205
 1863 0030 02B0     		add	sp, sp, #8
 1864              		.cfi_remember_state
 1865              		.cfi_def_cfa_offset 24
 1866              		@ sp needed
 1867 0032 BDE8F081 		pop	{r4, r5, r6, r7, r8, pc}
 1868              	.LVL162:
 1869              	.L204:
 1870              		.cfi_restore_state
 1871              	.LBB210:
 1872              	.LBB211:
 1873              		.loc 1 693 0
 1874 0036 D4E91023 		ldrd	r2, r3, [r4, #64]
 1875              		.loc 1 691 0
 1876 003a 6902     		lsls	r1, r5, #9
 1877              		.loc 1 690 0
 1878 003c 1B68     		ldr	r3, [r3]
 1879              	.LBB212:
 1880              	.LBB213:
 1881              		.loc 1 140 0
ARM GAS  C:\Users\Moi\AppData\Local\Temp\cc2Dlx38.s 			page 34


 1882 003e D4F830C0 		ldr	ip, [r4, #48]
 1883              	.LBE213:
 1884              	.LBE212:
 1885              		.loc 1 690 0
 1886 0042 C3F80C80 		str	r8, [r3, #12]
 1887              		.loc 1 691 0
 1888 0046 8808     		lsrs	r0, r1, #2
 1889 0048 5860     		str	r0, [r3, #4]
 1890              		.loc 1 693 0
 1891 004a 1A60     		str	r2, [r3]
 1892              		.loc 1 694 0
 1893 004c 1868     		ldr	r0, [r3]
 1894              		.loc 1 697 0
 1895 004e A26C     		ldr	r2, [r4, #72]
 1896              		.loc 1 694 0
 1897 0050 40F00100 		orr	r0, r0, #1
 1898 0054 1860     		str	r0, [r3]
 1899              		.loc 1 697 0
 1900 0056 1C4B     		ldr	r3, .L206+8
 1901 0058 9363     		str	r3, [r2, #56]
 1902              	.LBB219:
 1903              	.LBB214:
 1904              		.loc 1 140 0
 1905 005a 1CF0100F 		tst	ip, #16
 1906              	.LBE214:
 1907              	.LBE219:
 1908              		.loc 1 698 0
 1909 005e 40F22A33 		movw	r3, #810
 1910 0062 D363     		str	r3, [r2, #60]
 1911              	.LBB220:
 1912              	.LBB215:
 1913              		.loc 1 141 0
 1914 0064 08BF     		it	eq
 1915 0066 7F02     		lsleq	r7, r7, #9
 1916              	.LVL163:
 1917              	.LBE215:
 1918              	.LBE220:
 1919              		.loc 1 706 0
 1920 0068 9B23     		movs	r3, #155
 1921              	.LBB221:
 1922              	.LBB216:
 1923              		.loc 1 145 0
 1924 006a E846     		mov	r8, sp
 1925              	.LVL164:
 1926              		.loc 1 143 0
 1927 006c 012D     		cmp	r5, #1
 1928              	.LBE216:
 1929              	.LBE221:
 1930              		.loc 1 703 0
 1931 006e 9162     		str	r1, [r2, #40]
 1932              		.loc 1 706 0
 1933 0070 D362     		str	r3, [r2, #44]
 1934              	.LVL165:
 1935              	.LBB222:
 1936              	.LBB217:
 1937              		.loc 1 145 0
 1938 0072 3A46     		mov	r2, r7
ARM GAS  C:\Users\Moi\AppData\Local\Temp\cc2Dlx38.s 			page 35


 1939 0074 4346     		mov	r3, r8
 1940              		.loc 1 143 0
 1941 0076 1AD9     		bls	.L195
 1942              		.loc 1 145 0
 1943 0078 1221     		movs	r1, #18
 1944 007a 2046     		mov	r0, r4
 1945 007c FFF7FEFF 		bl	sdc_lld_send_cmd_short_crc
 1946              	.LVL166:
 1947 0080 50B9     		cbnz	r0, .L198
 1948              	.L202:
 1949              		.loc 1 152 0
 1950 0082 009A     		ldr	r2, [sp]
 1951 0084 114B     		ldr	r3, .L206+12
 1952 0086 1340     		ands	r3, r3, r2
 1953 0088 33B9     		cbnz	r3, .L198
 1954              	.LBE217:
 1955              	.LBE222:
 1956              		.loc 1 715 0
 1957 008a 4246     		mov	r2, r8
 1958 008c 2946     		mov	r1, r5
 1959 008e 2046     		mov	r0, r4
 1960 0090 FFF7FEFF 		bl	sdc_lld_wait_transaction_end
 1961              	.LVL167:
 1962 0094 0028     		cmp	r0, #0
 1963 0096 C7D0     		beq	.L193
 1964              	.L198:
 1965              	.LDL2:
 1966              		.loc 1 721 0
 1967 0098 2046     		mov	r0, r4
 1968 009a 4246     		mov	r2, r8
 1969 009c 2946     		mov	r1, r5
 1970 009e FFF7FEFF 		bl	sdc_lld_error_cleanup
 1971              	.LVL168:
 1972              		.loc 1 722 0
 1973 00a2 0120     		movs	r0, #1
 1974 00a4 C0E7     		b	.L193
 1975              	.LVL169:
 1976              	.L203:
 1977              	.LBE211:
 1978              	.LBE210:
 1979              		.loc 1 681 0 discriminator 2
 1980 00a6 0A48     		ldr	r0, .L206+16
 1981              	.LVL170:
 1982 00a8 FFF7FEFF 		bl	chSysHalt
 1983              	.LVL171:
 1984 00ac B5E7     		b	.L192
 1985              	.LVL172:
 1986              	.L195:
 1987              	.LBB225:
 1988              	.LBB224:
 1989              	.LBB223:
 1990              	.LBB218:
 1991              		.loc 1 151 0
 1992 00ae 1121     		movs	r1, #17
 1993 00b0 2046     		mov	r0, r4
 1994 00b2 FFF7FEFF 		bl	sdc_lld_send_cmd_short_crc
 1995              	.LVL173:
ARM GAS  C:\Users\Moi\AppData\Local\Temp\cc2Dlx38.s 			page 36


 1996 00b6 0028     		cmp	r0, #0
 1997 00b8 E3D0     		beq	.L202
 1998 00ba EDE7     		b	.L198
 1999              	.LVL174:
 2000              	.L205:
 2001              	.LBE218:
 2002              	.LBE223:
 2003              	.LBE224:
 2004              	.LBE225:
 2005              		.loc 1 723 0
 2006 00bc FFF7FEFF 		bl	__stack_chk_fail
 2007              	.LVL175:
 2008              	.L207:
 2009              		.align	2
 2010              	.L206:
 2011 00c0 00000000 		.word	__stack_chk_guard
 2012 00c4 C0270900 		.word	600000
 2013 00c8 FF07C000 		.word	12584959
 2014 00cc 08E0FFFD 		.word	-33562616
 2015 00d0 00000000 		.word	.LANCHOR5
 2016              		.cfi_endproc
 2017              	.LFE275:
 2018              		.size	sdc_lld_read_aligned, .-sdc_lld_read_aligned
 2019              		.section	.text.sdc_lld_write_aligned,"ax",%progbits
 2020              		.align	1
 2021              		.p2align 4,,15
 2022              		.global	sdc_lld_write_aligned
 2023              		.syntax unified
 2024              		.thumb
 2025              		.thumb_func
 2026              		.fpu fpv4-sp-d16
 2027              		.type	sdc_lld_write_aligned, %function
 2028              	sdc_lld_write_aligned:
 2029              	.LFB276:
 2030              		.loc 1 740 0
 2031              		.cfi_startproc
 2032              		@ args = 0, pretend = 0, frame = 8
 2033              		@ frame_needed = 0, uses_anonymous_args = 0
 2034              	.LVL176:
 2035 0000 2DE9F041 		push	{r4, r5, r6, r7, r8, lr}
 2036              		.cfi_def_cfa_offset 24
 2037              		.cfi_offset 4, -24
 2038              		.cfi_offset 5, -20
 2039              		.cfi_offset 6, -16
 2040              		.cfi_offset 7, -12
 2041              		.cfi_offset 8, -8
 2042              		.cfi_offset 14, -4
 2043 0004 304E     		ldr	r6, .L223
 2044 0006 1D46     		mov	r5, r3
 2045 0008 82B0     		sub	sp, sp, #8
 2046              		.cfi_def_cfa_offset 32
 2047              		.loc 1 740 0
 2048 000a 3368     		ldr	r3, [r6]
 2049              	.LVL177:
 2050 000c 0193     		str	r3, [sp, #4]
 2051              		.loc 1 743 0
 2052 000e B5F5004F 		cmp	r5, #32768
ARM GAS  C:\Users\Moi\AppData\Local\Temp\cc2Dlx38.s 			page 37


 2053              		.loc 1 740 0
 2054 0012 0446     		mov	r4, r0
 2055 0014 0F46     		mov	r7, r1
 2056 0016 9046     		mov	r8, r2
 2057              		.loc 1 743 0
 2058 0018 48D2     		bcs	.L220
 2059              	.LVL178:
 2060              	.L209:
 2061              		.loc 1 745 0
 2062 001a A36C     		ldr	r3, [r4, #72]
 2063 001c 2B4A     		ldr	r2, .L223+4
 2064 001e 5A62     		str	r2, [r3, #36]
 2065              		.loc 1 748 0
 2066 0020 2046     		mov	r0, r4
 2067 0022 FFF7FEFF 		bl	_sdc_wait_for_transfer_state
 2068              	.LVL179:
 2069 0026 30B1     		cbz	r0, .L221
 2070              	.LVL180:
 2071              	.L210:
 2072              		.loc 1 785 0
 2073 0028 019A     		ldr	r2, [sp, #4]
 2074 002a 3368     		ldr	r3, [r6]
 2075 002c 9A42     		cmp	r2, r3
 2076 002e 48D1     		bne	.L222
 2077 0030 02B0     		add	sp, sp, #8
 2078              		.cfi_remember_state
 2079              		.cfi_def_cfa_offset 24
 2080              		@ sp needed
 2081 0032 BDE8F081 		pop	{r4, r5, r6, r7, r8, pc}
 2082              	.LVL181:
 2083              	.L221:
 2084              		.cfi_restore_state
 2085              	.LBB230:
 2086              	.LBB231:
 2087              		.loc 1 755 0
 2088 0036 D4E91013 		ldrd	r1, r3, [r4, #64]
 2089              		.loc 1 753 0
 2090 003a 6A02     		lsls	r2, r5, #9
 2091              		.loc 1 752 0
 2092 003c 1B68     		ldr	r3, [r3]
 2093              	.LBB232:
 2094              	.LBB233:
 2095              		.loc 1 178 0
 2096 003e D4F830C0 		ldr	ip, [r4, #48]
 2097              	.LBE233:
 2098              	.LBE232:
 2099              		.loc 1 752 0
 2100 0042 C3F80C80 		str	r8, [r3, #12]
 2101              		.loc 1 753 0
 2102 0046 9008     		lsrs	r0, r2, #2
 2103              		.loc 1 755 0
 2104 0048 41F04001 		orr	r1, r1, #64
 2105              		.loc 1 753 0
 2106 004c 5860     		str	r0, [r3, #4]
 2107              		.loc 1 755 0
 2108 004e 1960     		str	r1, [r3]
 2109              		.loc 1 756 0
ARM GAS  C:\Users\Moi\AppData\Local\Temp\cc2Dlx38.s 			page 38


 2110 0050 1868     		ldr	r0, [r3]
 2111              		.loc 1 759 0
 2112 0052 A16C     		ldr	r1, [r4, #72]
 2113              		.loc 1 756 0
 2114 0054 40F00100 		orr	r0, r0, #1
 2115 0058 1860     		str	r0, [r3]
 2116              	.LBB239:
 2117              	.LBB234:
 2118              		.loc 1 178 0
 2119 005a 1CF0100F 		tst	ip, #16
 2120              	.LBE234:
 2121              	.LBE239:
 2122              		.loc 1 759 0
 2123 005e 1C4B     		ldr	r3, .L223+8
 2124 0060 8B63     		str	r3, [r1, #56]
 2125              	.LBB240:
 2126              	.LBB235:
 2127              		.loc 1 179 0
 2128 0062 08BF     		it	eq
 2129 0064 7F02     		lsleq	r7, r7, #9
 2130              	.LVL182:
 2131              	.LBE235:
 2132              	.LBE240:
 2133              		.loc 1 760 0
 2134 0066 40F21A33 		movw	r3, #794
 2135              	.LBB241:
 2136              	.LBB236:
 2137              		.loc 1 183 0
 2138 006a E846     		mov	r8, sp
 2139              	.LVL183:
 2140              		.loc 1 181 0
 2141 006c 012D     		cmp	r5, #1
 2142              	.LBE236:
 2143              	.LBE241:
 2144              		.loc 1 760 0
 2145 006e CB63     		str	r3, [r1, #60]
 2146              		.loc 1 765 0
 2147 0070 8A62     		str	r2, [r1, #40]
 2148              	.LVL184:
 2149              	.LBB242:
 2150              	.LBB237:
 2151              		.loc 1 183 0
 2152 0072 4346     		mov	r3, r8
 2153 0074 3A46     		mov	r2, r7
 2154              		.loc 1 181 0
 2155 0076 1DD9     		bls	.L212
 2156              		.loc 1 183 0
 2157 0078 1921     		movs	r1, #25
 2158 007a 2046     		mov	r0, r4
 2159 007c FFF7FEFF 		bl	sdc_lld_send_cmd_short_crc
 2160              	.LVL185:
 2161 0080 68B9     		cbnz	r0, .L215
 2162              	.L219:
 2163              		.loc 1 190 0
 2164 0082 009A     		ldr	r2, [sp]
 2165 0084 134B     		ldr	r3, .L223+12
 2166 0086 1340     		ands	r3, r3, r2
ARM GAS  C:\Users\Moi\AppData\Local\Temp\cc2Dlx38.s 			page 39


 2167 0088 4BB9     		cbnz	r3, .L215
 2168              	.LBE237:
 2169              	.LBE242:
 2170              		.loc 1 772 0
 2171 008a A36C     		ldr	r3, [r4, #72]
 2172 008c 9922     		movs	r2, #153
 2173 008e DA62     		str	r2, [r3, #44]
 2174              		.loc 1 777 0
 2175 0090 2946     		mov	r1, r5
 2176 0092 4246     		mov	r2, r8
 2177 0094 2046     		mov	r0, r4
 2178 0096 FFF7FEFF 		bl	sdc_lld_wait_transaction_end
 2179              	.LVL186:
 2180 009a 0028     		cmp	r0, #0
 2181 009c C4D0     		beq	.L210
 2182              	.L215:
 2183              	.LDL3:
 2184              		.loc 1 783 0
 2185 009e 2046     		mov	r0, r4
 2186 00a0 4246     		mov	r2, r8
 2187 00a2 2946     		mov	r1, r5
 2188 00a4 FFF7FEFF 		bl	sdc_lld_error_cleanup
 2189              	.LVL187:
 2190              		.loc 1 784 0
 2191 00a8 0120     		movs	r0, #1
 2192 00aa BDE7     		b	.L210
 2193              	.LVL188:
 2194              	.L220:
 2195              	.LBE231:
 2196              	.LBE230:
 2197              		.loc 1 743 0 discriminator 2
 2198 00ac 0A48     		ldr	r0, .L223+16
 2199              	.LVL189:
 2200 00ae FFF7FEFF 		bl	chSysHalt
 2201              	.LVL190:
 2202 00b2 B2E7     		b	.L209
 2203              	.LVL191:
 2204              	.L212:
 2205              	.LBB245:
 2206              	.LBB244:
 2207              	.LBB243:
 2208              	.LBB238:
 2209              		.loc 1 189 0
 2210 00b4 1821     		movs	r1, #24
 2211 00b6 2046     		mov	r0, r4
 2212 00b8 FFF7FEFF 		bl	sdc_lld_send_cmd_short_crc
 2213              	.LVL192:
 2214 00bc 0028     		cmp	r0, #0
 2215 00be E0D0     		beq	.L219
 2216 00c0 EDE7     		b	.L215
 2217              	.LVL193:
 2218              	.L222:
 2219              	.LBE238:
 2220              	.LBE243:
 2221              	.LBE244:
 2222              	.LBE245:
 2223              		.loc 1 785 0
ARM GAS  C:\Users\Moi\AppData\Local\Temp\cc2Dlx38.s 			page 40


 2224 00c2 FFF7FEFF 		bl	__stack_chk_fail
 2225              	.LVL194:
 2226              	.L224:
 2227 00c6 00BF     		.align	2
 2228              	.L223:
 2229 00c8 00000000 		.word	__stack_chk_guard
 2230 00cc 808D5B00 		.word	6000000
 2231 00d0 FF07C000 		.word	12584959
 2232 00d4 08E0FFFD 		.word	-33562616
 2233 00d8 00000000 		.word	.LANCHOR6
 2234              		.cfi_endproc
 2235              	.LFE276:
 2236              		.size	sdc_lld_write_aligned, .-sdc_lld_write_aligned
 2237              		.section	.text.sdc_lld_read,"ax",%progbits
 2238              		.align	1
 2239              		.p2align 4,,15
 2240              		.global	sdc_lld_read
 2241              		.syntax unified
 2242              		.thumb
 2243              		.thumb_func
 2244              		.fpu fpv4-sp-d16
 2245              		.type	sdc_lld_read, %function
 2246              	sdc_lld_read:
 2247              	.LFB277:
 2248              		.loc 1 802 0
 2249              		.cfi_startproc
 2250              		@ args = 0, pretend = 0, frame = 8
 2251              		@ frame_needed = 0, uses_anonymous_args = 0
 2252              	.LVL195:
 2253 0000 2DE9F043 		push	{r4, r5, r6, r7, r8, r9, lr}
 2254              		.cfi_def_cfa_offset 28
 2255              		.cfi_offset 4, -28
 2256              		.cfi_offset 5, -24
 2257              		.cfi_offset 6, -20
 2258              		.cfi_offset 7, -16
 2259              		.cfi_offset 8, -12
 2260              		.cfi_offset 9, -8
 2261              		.cfi_offset 14, -4
 2262 0004 DFF87490 		ldr	r9, .L237+4
 2263 0008 83B0     		sub	sp, sp, #12
 2264              		.cfi_def_cfa_offset 40
 2265              		.loc 1 802 0
 2266 000a D9F80040 		ldr	r4, [r9]
 2267 000e 0194     		str	r4, [sp, #4]
 2268              		.loc 1 805 0
 2269 0010 9407     		lsls	r4, r2, #30
 2270 0012 24D0     		beq	.L226
 2271              	.LVL196:
 2272 0014 1F46     		mov	r7, r3
 2273              	.LBB246:
 2274              		.loc 1 807 0
 2275 0016 03B3     		cbz	r3, .L230
 2276 0018 1546     		mov	r5, r2
 2277 001a 8046     		mov	r8, r0
 2278 001c 0C46     		mov	r4, r1
 2279              		.loc 1 808 0
 2280 001e 164E     		ldr	r6, .L237
ARM GAS  C:\Users\Moi\AppData\Local\Temp\cc2Dlx38.s 			page 41


 2281 0020 0F44     		add	r7, r7, r1
 2282 0022 0AE0     		b	.L229
 2283              	.LVL197:
 2284              	.L236:
 2285              		.loc 1 810 0 discriminator 2
 2286 0024 2846     		mov	r0, r5
 2287              		.loc 1 812 0 discriminator 2
 2288 0026 0134     		adds	r4, r4, #1
 2289              	.LVL198:
 2290              		.loc 1 810 0 discriminator 2
 2291 0028 4FF40072 		mov	r2, #512
 2292 002c 3146     		mov	r1, r6
 2293 002e FFF7FEFF 		bl	memcpy
 2294              	.LVL199:
 2295              		.loc 1 807 0 discriminator 2
 2296 0032 BC42     		cmp	r4, r7
 2297              		.loc 1 811 0 discriminator 2
 2298 0034 05F50075 		add	r5, r5, #512
 2299              	.LVL200:
 2300              		.loc 1 807 0 discriminator 2
 2301 0038 0FD0     		beq	.L230
 2302              	.LVL201:
 2303              	.L229:
 2304              		.loc 1 808 0
 2305 003a 0123     		movs	r3, #1
 2306 003c 3246     		mov	r2, r6
 2307 003e 2146     		mov	r1, r4
 2308 0040 4046     		mov	r0, r8
 2309 0042 FFF7FEFF 		bl	sdc_lld_read_aligned
 2310              	.LVL202:
 2311 0046 0028     		cmp	r0, #0
 2312 0048 ECD0     		beq	.L236
 2313              	.LVL203:
 2314              	.L228:
 2315              	.LBE246:
 2316              		.loc 1 818 0
 2317 004a 019A     		ldr	r2, [sp, #4]
 2318 004c D9F80030 		ldr	r3, [r9]
 2319 0050 9A42     		cmp	r2, r3
 2320 0052 0ED1     		bne	.L235
 2321 0054 03B0     		add	sp, sp, #12
 2322              		.cfi_remember_state
 2323              		.cfi_def_cfa_offset 28
 2324              		@ sp needed
 2325 0056 BDE8F083 		pop	{r4, r5, r6, r7, r8, r9, pc}
 2326              	.L230:
 2327              		.cfi_restore_state
 2328              	.LBB247:
 2329              		.loc 1 814 0
 2330 005a 0020     		movs	r0, #0
 2331 005c F5E7     		b	.L228
 2332              	.LVL204:
 2333              	.L226:
 2334              	.LBE247:
 2335              		.loc 1 817 0
 2336 005e 019D     		ldr	r5, [sp, #4]
 2337 0060 D9F80040 		ldr	r4, [r9]
ARM GAS  C:\Users\Moi\AppData\Local\Temp\cc2Dlx38.s 			page 42


 2338 0064 A542     		cmp	r5, r4
 2339 0066 04D1     		bne	.L235
 2340              		.loc 1 818 0
 2341 0068 03B0     		add	sp, sp, #12
 2342              		.cfi_remember_state
 2343              		.cfi_def_cfa_offset 28
 2344              		@ sp needed
 2345 006a BDE8F043 		pop	{r4, r5, r6, r7, r8, r9, lr}
 2346              		.cfi_restore 14
 2347              		.cfi_restore 9
 2348              		.cfi_restore 8
 2349              		.cfi_restore 7
 2350              		.cfi_restore 6
 2351              		.cfi_restore 5
 2352              		.cfi_restore 4
 2353              		.cfi_def_cfa_offset 0
 2354              		.loc 1 817 0
 2355 006e FFF7FEBF 		b	sdc_lld_read_aligned
 2356              	.LVL205:
 2357              	.L235:
 2358              		.cfi_restore_state
 2359              		.loc 1 818 0
 2360 0072 FFF7FEFF 		bl	__stack_chk_fail
 2361              	.LVL206:
 2362              	.L238:
 2363 0076 00BF     		.align	2
 2364              	.L237:
 2365 0078 00000000 		.word	.LANCHOR7
 2366 007c 00000000 		.word	__stack_chk_guard
 2367              		.cfi_endproc
 2368              	.LFE277:
 2369              		.size	sdc_lld_read, .-sdc_lld_read
 2370              		.section	.text.sdc_lld_write,"ax",%progbits
 2371              		.align	1
 2372              		.p2align 4,,15
 2373              		.global	sdc_lld_write
 2374              		.syntax unified
 2375              		.thumb
 2376              		.thumb_func
 2377              		.fpu fpv4-sp-d16
 2378              		.type	sdc_lld_write, %function
 2379              	sdc_lld_write:
 2380              	.LFB278:
 2381              		.loc 1 835 0
 2382              		.cfi_startproc
 2383              		@ args = 0, pretend = 0, frame = 8
 2384              		@ frame_needed = 0, uses_anonymous_args = 0
 2385              	.LVL207:
 2386 0000 2DE9F043 		push	{r4, r5, r6, r7, r8, r9, lr}
 2387              		.cfi_def_cfa_offset 28
 2388              		.cfi_offset 4, -28
 2389              		.cfi_offset 5, -24
 2390              		.cfi_offset 6, -20
 2391              		.cfi_offset 7, -16
 2392              		.cfi_offset 8, -12
 2393              		.cfi_offset 9, -8
 2394              		.cfi_offset 14, -4
ARM GAS  C:\Users\Moi\AppData\Local\Temp\cc2Dlx38.s 			page 43


 2395 0004 DFF87490 		ldr	r9, .L251+4
 2396 0008 83B0     		sub	sp, sp, #12
 2397              		.cfi_def_cfa_offset 40
 2398              		.loc 1 835 0
 2399 000a D9F80040 		ldr	r4, [r9]
 2400 000e 0194     		str	r4, [sp, #4]
 2401              		.loc 1 838 0
 2402 0010 9407     		lsls	r4, r2, #30
 2403 0012 24D0     		beq	.L240
 2404              	.LVL208:
 2405 0014 1F46     		mov	r7, r3
 2406              	.LBB248:
 2407              		.loc 1 840 0
 2408 0016 03B3     		cbz	r3, .L244
 2409 0018 1546     		mov	r5, r2
 2410 001a 8046     		mov	r8, r0
 2411 001c 0C46     		mov	r4, r1
 2412              		.loc 1 841 0
 2413 001e 164E     		ldr	r6, .L251
 2414 0020 0F44     		add	r7, r7, r1
 2415 0022 02E0     		b	.L243
 2416              	.LVL209:
 2417              	.L250:
 2418              		.loc 1 845 0 discriminator 2
 2419 0024 0134     		adds	r4, r4, #1
 2420              	.LVL210:
 2421              		.loc 1 840 0 discriminator 2
 2422 0026 BC42     		cmp	r4, r7
 2423 0028 17D0     		beq	.L244
 2424              	.LVL211:
 2425              	.L243:
 2426              		.loc 1 841 0
 2427 002a 2946     		mov	r1, r5
 2428 002c 4FF40072 		mov	r2, #512
 2429 0030 3046     		mov	r0, r6
 2430 0032 FFF7FEFF 		bl	memcpy
 2431              	.LVL212:
 2432              		.loc 1 843 0
 2433 0036 0123     		movs	r3, #1
 2434 0038 3246     		mov	r2, r6
 2435 003a 2146     		mov	r1, r4
 2436 003c 4046     		mov	r0, r8
 2437 003e FFF7FEFF 		bl	sdc_lld_write_aligned
 2438              	.LVL213:
 2439              		.loc 1 842 0
 2440 0042 05F50075 		add	r5, r5, #512
 2441              	.LVL214:
 2442              		.loc 1 843 0
 2443 0046 0028     		cmp	r0, #0
 2444 0048 ECD0     		beq	.L250
 2445              	.LVL215:
 2446              	.L242:
 2447              	.LBE248:
 2448              		.loc 1 851 0
 2449 004a 019A     		ldr	r2, [sp, #4]
 2450 004c D9F80030 		ldr	r3, [r9]
 2451 0050 9A42     		cmp	r2, r3
ARM GAS  C:\Users\Moi\AppData\Local\Temp\cc2Dlx38.s 			page 44


 2452 0052 0ED1     		bne	.L249
 2453 0054 03B0     		add	sp, sp, #12
 2454              		.cfi_remember_state
 2455              		.cfi_def_cfa_offset 28
 2456              		@ sp needed
 2457 0056 BDE8F083 		pop	{r4, r5, r6, r7, r8, r9, pc}
 2458              	.L244:
 2459              		.cfi_restore_state
 2460              	.LBB249:
 2461              		.loc 1 847 0
 2462 005a 0020     		movs	r0, #0
 2463 005c F5E7     		b	.L242
 2464              	.LVL216:
 2465              	.L240:
 2466              	.LBE249:
 2467              		.loc 1 850 0
 2468 005e 019D     		ldr	r5, [sp, #4]
 2469 0060 D9F80040 		ldr	r4, [r9]
 2470 0064 A542     		cmp	r5, r4
 2471 0066 04D1     		bne	.L249
 2472              		.loc 1 851 0
 2473 0068 03B0     		add	sp, sp, #12
 2474              		.cfi_remember_state
 2475              		.cfi_def_cfa_offset 28
 2476              		@ sp needed
 2477 006a BDE8F043 		pop	{r4, r5, r6, r7, r8, r9, lr}
 2478              		.cfi_restore 14
 2479              		.cfi_restore 9
 2480              		.cfi_restore 8
 2481              		.cfi_restore 7
 2482              		.cfi_restore 6
 2483              		.cfi_restore 5
 2484              		.cfi_restore 4
 2485              		.cfi_def_cfa_offset 0
 2486              		.loc 1 850 0
 2487 006e FFF7FEBF 		b	sdc_lld_write_aligned
 2488              	.LVL217:
 2489              	.L249:
 2490              		.cfi_restore_state
 2491              		.loc 1 851 0
 2492 0072 FFF7FEFF 		bl	__stack_chk_fail
 2493              	.LVL218:
 2494              	.L252:
 2495 0076 00BF     		.align	2
 2496              	.L251:
 2497 0078 00000000 		.word	.LANCHOR7
 2498 007c 00000000 		.word	__stack_chk_guard
 2499              		.cfi_endproc
 2500              	.LFE278:
 2501              		.size	sdc_lld_write, .-sdc_lld_write
 2502              		.section	.text.sdc_lld_sync,"ax",%progbits
 2503              		.align	1
 2504              		.p2align 4,,15
 2505              		.global	sdc_lld_sync
 2506              		.syntax unified
 2507              		.thumb
 2508              		.thumb_func
ARM GAS  C:\Users\Moi\AppData\Local\Temp\cc2Dlx38.s 			page 45


 2509              		.fpu fpv4-sp-d16
 2510              		.type	sdc_lld_sync, %function
 2511              	sdc_lld_sync:
 2512              	.LFB279:
 2513              		.loc 1 864 0
 2514              		.cfi_startproc
 2515              		@ args = 0, pretend = 0, frame = 8
 2516              		@ frame_needed = 0, uses_anonymous_args = 0
 2517              	.LVL219:
 2518 0000 00B5     		push	{lr}
 2519              		.cfi_def_cfa_offset 4
 2520              		.cfi_offset 14, -4
 2521 0002 074B     		ldr	r3, .L257
 2522 0004 83B0     		sub	sp, sp, #12
 2523              		.cfi_def_cfa_offset 16
 2524              		.loc 1 864 0
 2525 0006 1A68     		ldr	r2, [r3]
 2526 0008 0192     		str	r2, [sp, #4]
 2527              		.loc 1 869 0
 2528 000a 019A     		ldr	r2, [sp, #4]
 2529 000c 1B68     		ldr	r3, [r3]
 2530 000e 9A42     		cmp	r2, r3
 2531 0010 03D1     		bne	.L256
 2532 0012 0020     		movs	r0, #0
 2533              	.LVL220:
 2534 0014 03B0     		add	sp, sp, #12
 2535              		.cfi_remember_state
 2536              		.cfi_def_cfa_offset 4
 2537              		@ sp needed
 2538 0016 5DF804FB 		ldr	pc, [sp], #4
 2539              	.LVL221:
 2540              	.L256:
 2541              		.cfi_restore_state
 2542 001a FFF7FEFF 		bl	__stack_chk_fail
 2543              	.LVL222:
 2544              	.L258:
 2545 001e 00BF     		.align	2
 2546              	.L257:
 2547 0020 00000000 		.word	__stack_chk_guard
 2548              		.cfi_endproc
 2549              	.LFE279:
 2550              		.size	sdc_lld_sync, .-sdc_lld_sync
 2551              		.global	SDCD1
 2552              		.section	.bss.SDCD1,"aw",%nobits
 2553              		.align	2
 2554              		.set	.LANCHOR0,. + 0
 2555              		.type	SDCD1, %object
 2556              		.size	SDCD1, 76
 2557              	SDCD1:
 2558 0000 00000000 		.space	76
 2558      00000000 
 2558      00000000 
 2558      00000000 
 2558      00000000 
 2559              		.section	.bss.u,"aw",%nobits
 2560              		.align	2
 2561              		.set	.LANCHOR7,. + 0
ARM GAS  C:\Users\Moi\AppData\Local\Temp\cc2Dlx38.s 			page 46


 2562              		.type	u, %object
 2563              		.size	u, 512
 2564              	u:
 2565 0000 00000000 		.space	512
 2565      00000000 
 2565      00000000 
 2565      00000000 
 2565      00000000 
 2566              		.section	.rodata.__func__.10250,"a",%progbits
 2567              		.align	2
 2568              		.set	.LANCHOR4,. + 0
 2569              		.type	__func__.10250, %object
 2570              		.size	__func__.10250, 27
 2571              	__func__.10250:
 2572 0000 7364635F 		.ascii	"sdc_lld_prepare_read_bytes\000"
 2572      6C6C645F 
 2572      70726570 
 2572      6172655F 
 2572      72656164 
 2573              		.section	.rodata.__func__.10295,"a",%progbits
 2574              		.align	2
 2575              		.set	.LANCHOR2,. + 0
 2576              		.type	__func__.10295, %object
 2577              		.size	__func__.10295, 14
 2578              	__func__.10295:
 2579 0000 7364635F 		.ascii	"sdc_lld_start\000"
 2579      6C6C645F 
 2579      73746172 
 2579      7400
 2580              		.section	.rodata.__func__.10372,"a",%progbits
 2581              		.align	2
 2582              		.set	.LANCHOR5,. + 0
 2583              		.type	__func__.10372, %object
 2584              		.size	__func__.10372, 21
 2585              	__func__.10372:
 2586 0000 7364635F 		.ascii	"sdc_lld_read_aligned\000"
 2586      6C6C645F 
 2586      72656164 
 2586      5F616C69 
 2586      676E6564 
 2587              		.section	.rodata.__func__.10381,"a",%progbits
 2588              		.align	2
 2589              		.set	.LANCHOR6,. + 0
 2590              		.type	__func__.10381, %object
 2591              		.size	__func__.10381, 22
 2592              	__func__.10381:
 2593 0000 7364635F 		.ascii	"sdc_lld_write_aligned\000"
 2593      6C6C645F 
 2593      77726974 
 2593      655F616C 
 2593      69676E65 
 2594              		.section	.rodata.__func__.7554,"a",%progbits
 2595              		.align	2
 2596              		.set	.LANCHOR3,. + 0
 2597              		.type	__func__.7554, %object
 2598              		.size	__func__.7554, 12
 2599              	__func__.7554:
ARM GAS  C:\Users\Moi\AppData\Local\Temp\cc2Dlx38.s 			page 47


 2600 0000 63685379 		.ascii	"chSysUnlock\000"
 2600      73556E6C 
 2600      6F636B00 
 2601              		.section	.rodata.sdc_default_cfg,"a",%progbits
 2602              		.align	2
 2603              		.set	.LANCHOR1,. + 0
 2604              		.type	sdc_default_cfg, %object
 2605              		.size	sdc_default_cfg, 8
 2606              	sdc_default_cfg:
 2607 0000 00000000 		.word	0
 2608 0004 01       		.byte	1
 2609 0005 000000   		.space	3
 2610              		.text
 2611              	.Letext0:
 2612              		.file 5 "c:\\users\\moi\\documents\\_microinfo\\epuck-eclipse\\tools\\gcc-arm-none-eabi-7-2017-q4-
 2613              		.file 6 "c:\\users\\moi\\documents\\_microinfo\\epuck-eclipse\\tools\\gcc-arm-none-eabi-7-2017-q4-
 2614              		.file 7 "c:\\users\\moi\\documents\\_microinfo\\epuck-eclipse\\tools\\gcc-arm-none-eabi-7-2017-q4-
 2615              		.file 8 "c:\\users\\moi\\documents\\_microinfo\\epuck-eclipse\\tools\\gcc-arm-none-eabi-7-2017-q4-
 2616              		.file 9 "c:\\users\\moi\\documents\\_microinfo\\epuck-eclipse\\tools\\gcc-arm-none-eabi-7-2017-q4-
 2617              		.file 10 "c:\\users\\moi\\documents\\_microinfo\\epuck-eclipse\\tools\\gcc-arm-none-eabi-7-2017-q4
 2618              		.file 11 "..//ChibiOS//os/rt/ports/ARMCMx/compilers/GCC/chtypes.h"
 2619              		.file 12 "..//ChibiOS//os/rt/include/chsystypes.h"
 2620              		.file 13 "..//ChibiOS//os/rt/include/chschd.h"
 2621              		.file 14 "..//ChibiOS//os/ext/CMSIS/include/core_cm4.h"
 2622              		.file 15 "..//ChibiOS//os/ext/CMSIS/ST/system_stm32f4xx.h"
 2623              		.file 16 "..//ChibiOS//os/ext/CMSIS/ST/stm32f407xx.h"
 2624              		.file 17 "..//ChibiOS//os/rt/ports/ARMCMx/chcore.h"
 2625              		.file 18 "..//ChibiOS//os/rt/ports/ARMCMx/chcore_v7m.h"
 2626              		.file 19 "..//ChibiOS//os/rt/include/chdebug.h"
 2627              		.file 20 "..//ChibiOS//os/rt/include/chtm.h"
 2628              		.file 21 "..//ChibiOS//os/rt/include/chstats.h"
 2629              		.file 22 "..//ChibiOS//os/rt/include/chsem.h"
 2630              		.file 23 "..//ChibiOS//os/rt/include/chmtx.h"
 2631              		.file 24 "..//ChibiOS//os/rt/include/chregistry.h"
 2632              		.file 25 "..//ChibiOS//os/rt/include/chevents.h"
 2633              		.file 26 "..//ChibiOS//os/rt/include/chqueues.h"
 2634              		.file 27 "..//ChibiOS//os/hal/ports/STM32/STM32F4xx/stm32_dma.h"
 2635              		.file 28 "..//ChibiOS//os/hal/include/hal_ioblock.h"
 2636              		.file 29 "..//ChibiOS//os/hal/ports/STM32/LLD/GPIOv2/pal_lld.h"
 2637              		.file 30 "..//ChibiOS//os/hal/include/adc.h"
 2638              		.file 31 "..//ChibiOS//os/hal/ports/STM32/STM32F4xx/adc_lld.h"
 2639              		.file 32 "..//ChibiOS//os/hal/include/can.h"
 2640              		.file 33 "..//ChibiOS//os/hal/ports/STM32/LLD/can_lld.h"
 2641              		.file 34 "..//ChibiOS//os/hal/include/dac.h"
 2642              		.file 35 "..//ChibiOS//os/hal/ports/STM32/LLD/DACv1/dac_lld.h"
 2643              		.file 36 "..//ChibiOS//os/hal/include/ext.h"
 2644              		.file 37 "..//ChibiOS//os/hal/ports/STM32/LLD/ext_lld.h"
 2645              		.file 38 "..//ChibiOS//os/hal/include/gpt.h"
 2646              		.file 39 "..//ChibiOS//os/hal/ports/STM32/LLD/TIMv1/gpt_lld.h"
 2647              		.file 40 "..//ChibiOS//os/hal/ports/STM32/LLD/TIMv1/stm32_tim.h"
 2648              		.file 41 "..//ChibiOS//os/hal/include/i2c.h"
 2649              		.file 42 "..//ChibiOS//os/hal/ports/STM32/LLD/I2Cv1/i2c_lld.h"
 2650              		.file 43 "..//ChibiOS//os/hal/include/i2s.h"
 2651              		.file 44 "..//ChibiOS//os/hal/ports/STM32/LLD/SPIv1/i2s_lld.h"
 2652              		.file 45 "..//ChibiOS//os/hal/include/pwm.h"
 2653              		.file 46 "..//ChibiOS//os/hal/ports/STM32/LLD/TIMv1/pwm_lld.h"
 2654              		.file 47 "..//ChibiOS//os/hal/include/serial.h"
ARM GAS  C:\Users\Moi\AppData\Local\Temp\cc2Dlx38.s 			page 48


 2655              		.file 48 "..//ChibiOS//os/hal/ports/STM32/LLD/USARTv1/serial_lld.h"
 2656              		.file 49 "..//ChibiOS//os/hal/include/sdc.h"
 2657              		.file 50 "..//ChibiOS//os/hal/ports/STM32/LLD/sdc_lld.h"
 2658              		.file 51 "..//ChibiOS//os/hal/include/spi.h"
 2659              		.file 52 "..//ChibiOS//os/hal/ports/STM32/LLD/SPIv1/spi_lld.h"
 2660              		.file 53 "..//ChibiOS//os/hal/include/usb.h"
 2661              		.file 54 "..//ChibiOS//os/hal/ports/STM32/LLD/OTGv1/usb_lld.h"
 2662              		.file 55 "..//ChibiOS//os/hal/ports/STM32/LLD/OTGv1/stm32_otg.h"
 2663              		.file 56 "..//ChibiOS//os/rt/include/chthreads.h"
 2664              		.file 57 "..//ChibiOS//os/hal/ports/common/ARMCMx/nvic.h"
 2665              		.file 58 "<built-in>"