ARM GAS  C:\Users\Moi\AppData\Local\Temp\cc4NwxyC.s 			page 1


   1              		.cpu cortex-m4
   2              		.eabi_attribute 27, 1
   3              		.eabi_attribute 28, 1
   4              		.eabi_attribute 20, 1
   5              		.eabi_attribute 21, 1
   6              		.eabi_attribute 23, 3
   7              		.eabi_attribute 24, 1
   8              		.eabi_attribute 25, 1
   9              		.eabi_attribute 26, 1
  10              		.eabi_attribute 30, 2
  11              		.eabi_attribute 34, 1
  12              		.eabi_attribute 18, 4
  13              		.file	"serial_usb.c"
  14              		.text
  15              	.Ltext0:
  16              		.cfi_sections	.debug_frame
  17              		.section	.text.inotify,"ax",%progbits
  18              		.align	1
  19              		.p2align 4,,15
  20              		.syntax unified
  21              		.thumb
  22              		.thumb_func
  23              		.fpu fpv4-sp-d16
  24              		.type	inotify, %function
  25              	inotify:
  26              	.LFB264:
  27              		.file 1 "..//ChibiOS//os/hal/src/serial_usb.c"
  28              		.loc 1 109 0
  29              		.cfi_startproc
  30              		@ args = 0, pretend = 0, frame = 8
  31              		@ frame_needed = 0, uses_anonymous_args = 0
  32              	.LVL0:
  33 0000 F0B5     		push	{r4, r5, r6, r7, lr}
  34              		.cfi_def_cfa_offset 20
  35              		.cfi_offset 4, -20
  36              		.cfi_offset 5, -16
  37              		.cfi_offset 6, -12
  38              		.cfi_offset 7, -8
  39              		.cfi_offset 14, -4
  40              		.loc 1 111 0
  41 0002 056A     		ldr	r5, [r0, #32]
  42              	.LVL1:
  43              		.loc 1 109 0
  44 0004 2D4C     		ldr	r4, .L12
  45              		.loc 1 115 0
  46 0006 D5F85422 		ldr	r2, [r5, #596]
  47              		.loc 1 109 0
  48 000a 2168     		ldr	r1, [r4]
  49              		.loc 1 115 0
  50 000c 1368     		ldr	r3, [r2]
  51              		.loc 1 109 0
  52 000e 83B0     		sub	sp, sp, #12
  53              		.cfi_def_cfa_offset 32
  54              		.loc 1 109 0
  55 0010 0191     		str	r1, [sp, #4]
  56              		.loc 1 115 0
  57 0012 1978     		ldrb	r1, [r3]	@ zero_extendqisi2
ARM GAS  C:\Users\Moi\AppData\Local\Temp\cc4NwxyC.s 			page 2


  58 0014 0429     		cmp	r1, #4
  59 0016 05D0     		beq	.L11
  60              	.LVL2:
  61              	.L1:
  62              		.loc 1 137 0
  63 0018 019A     		ldr	r2, [sp, #4]
  64 001a 2368     		ldr	r3, [r4]
  65 001c 9A42     		cmp	r2, r3
  66 001e 4AD1     		bne	.L9
  67 0020 03B0     		add	sp, sp, #12
  68              		.cfi_remember_state
  69              		.cfi_def_cfa_offset 20
  70              		@ sp needed
  71 0022 F0BD     		pop	{r4, r5, r6, r7, pc}
  72              	.LVL3:
  73              	.L11:
  74              		.cfi_restore_state
  75              		.loc 1 115 0 discriminator 1
  76 0024 297A     		ldrb	r1, [r5, #8]	@ zero_extendqisi2
  77 0026 0229     		cmp	r1, #2
  78 0028 F6D1     		bne	.L1
  79              		.loc 1 123 0
  80 002a 5179     		ldrb	r1, [r2, #5]	@ zero_extendqisi2
  81              	.LVL4:
  82              		.loc 1 124 0
  83 002c 5889     		ldrh	r0, [r3, #10]
  84              	.LVL5:
  85 002e 0122     		movs	r2, #1
  86 0030 8A40     		lsls	r2, r2, r1
  87 0032 0242     		tst	r2, r0
  88 0034 F0D1     		bne	.L1
  89              		.loc 1 123 0
  90 0036 03EB8103 		add	r3, r3, r1, lsl #2
  91              	.LVL6:
  92 003a DB68     		ldr	r3, [r3, #12]
  93 003c 5F8A     		ldrh	r7, [r3, #18]
  94              	.LVL7:
  95              	.LBB204:
  96              	.LBB205:
  97              		.file 2 "..//ChibiOS//os/rt/include/chqueues.h"
  98              		.loc 2 288 0
  99 003e FFF7FEFF 		bl	chDbgCheckClassI
 100              	.LVL8:
 101              		.loc 2 290 0
 102 0042 D5E90623 		ldrd	r2, r3, [r5, #24]
 103 0046 6E69     		ldr	r6, [r5, #20]
 104 0048 9B1A     		subs	r3, r3, r2
 105 004a 9E1B     		subs	r6, r3, r6
 106              	.LVL9:
 107              	.LBE205:
 108              	.LBE204:
 109              		.loc 1 125 0
 110 004c B742     		cmp	r7, r6
 111 004e E3D8     		bhi	.L1
 112              	.LBB206:
 113              	.LBB207:
 114              	.LBB208:
ARM GAS  C:\Users\Moi\AppData\Local\Temp\cc4NwxyC.s 			page 3


 115              		.file 3 "..//ChibiOS//os/rt/include/chsys.h"
 116              		.loc 3 360 0
 117 0050 FFF7FEFF 		bl	_dbg_check_unlock
 118              	.LVL10:
 119              		.loc 3 361 0
 120 0054 FFF7FEFF 		bl	_stats_stop_measure_crit_thd
 121              	.LVL11:
 122              		.loc 3 367 0
 123 0058 194B     		ldr	r3, .L12+4
 124 005a 1A68     		ldr	r2, [r3]
 125 005c 9A42     		cmp	r2, r3
 126 005e 07D0     		beq	.L5
 127 0060 9969     		ldr	r1, [r3, #24]
 128 0062 9368     		ldr	r3, [r2, #8]
 129 0064 8A68     		ldr	r2, [r1, #8]
 130 0066 9A42     		cmp	r2, r3
 131 0068 02D2     		bcs	.L5
 132 006a 1648     		ldr	r0, .L12+8
 133 006c FFF7FEFF 		bl	chSysHalt
 134              	.LVL12:
 135              	.L5:
 136              	.LBB209:
 137              	.LBB210:
 138              	.LBB211:
 139              		.file 4 "..//ChibiOS//os/ext/CMSIS/include/core_cmFunc.h"
 140              		.loc 4 546 0
 141 0070 0023     		movs	r3, #0
 142              		.syntax unified
 143              	@ 546 "..//ChibiOS//os/ext/CMSIS/include/core_cmFunc.h" 1
 144 0072 83F31188 		MSR basepri, r3
 145              	@ 0 "" 2
 146              	.LVL13:
 147              		.thumb
 148              		.syntax unified
 149              	.LBE211:
 150              	.LBE210:
 151              	.LBE209:
 152              	.LBE208:
 153              	.LBE207:
 154              	.LBE206:
 155              		.loc 1 129 0
 156 0076 D5F85422 		ldr	r2, [r5, #596]
 157              		.loc 1 128 0
 158 007a B6FBF7F3 		udiv	r3, r6, r7
 159              		.loc 1 129 0
 160 007e 5179     		ldrb	r1, [r2, #5]	@ zero_extendqisi2
 161 0080 1068     		ldr	r0, [r2]
 162 0082 07FB03F3 		mul	r3, r7, r3
 163              	.LVL14:
 164 0086 05F10C02 		add	r2, r5, #12
 165 008a FFF7FEFF 		bl	usbPrepareQueuedReceive
 166              	.LVL15:
 167              	.LBB212:
 168              	.LBB213:
 169              	.LBB214:
 170              	.LBB215:
 171              	.LBB216:
ARM GAS  C:\Users\Moi\AppData\Local\Temp\cc4NwxyC.s 			page 4


 172              	.LBB217:
 173              		.loc 4 546 0
 174 008e 2023     		movs	r3, #32
 175              		.syntax unified
 176              	@ 546 "..//ChibiOS//os/ext/CMSIS/include/core_cmFunc.h" 1
 177 0090 83F31188 		MSR basepri, r3
 178              	@ 0 "" 2
 179              	.LVL16:
 180              		.thumb
 181              		.syntax unified
 182              	.LBE217:
 183              	.LBE216:
 184              	.LBE215:
 185              		.loc 3 349 0
 186 0094 FFF7FEFF 		bl	_stats_start_measure_crit_thd
 187              	.LVL17:
 188              		.loc 3 350 0
 189 0098 FFF7FEFF 		bl	_dbg_check_lock
 190              	.LVL18:
 191              	.LBE214:
 192              	.LBE213:
 193              	.LBE212:
 194              		.loc 1 134 0
 195 009c 0199     		ldr	r1, [sp, #4]
 196 009e 2268     		ldr	r2, [r4]
 197 00a0 D5F85432 		ldr	r3, [r5, #596]
 198 00a4 9142     		cmp	r1, r2
 199 00a6 06D1     		bne	.L9
 200 00a8 5979     		ldrb	r1, [r3, #5]	@ zero_extendqisi2
 201 00aa 1868     		ldr	r0, [r3]
 202              		.loc 1 137 0
 203 00ac 03B0     		add	sp, sp, #12
 204              		.cfi_remember_state
 205              		.cfi_def_cfa_offset 20
 206              		@ sp needed
 207 00ae BDE8F040 		pop	{r4, r5, r6, r7, lr}
 208              		.cfi_restore 14
 209              		.cfi_restore 7
 210              		.cfi_restore 6
 211              		.cfi_restore 5
 212              		.cfi_restore 4
 213              		.cfi_def_cfa_offset 0
 214              	.LVL19:
 215              		.loc 1 134 0
 216 00b2 FFF7FEBF 		b	usbStartReceiveI
 217              	.LVL20:
 218              	.L9:
 219              		.cfi_restore_state
 220              		.loc 1 137 0
 221 00b6 FFF7FEFF 		bl	__stack_chk_fail
 222              	.LVL21:
 223              	.L13:
 224 00ba 00BF     		.align	2
 225              	.L12:
 226 00bc 00000000 		.word	__stack_chk_guard
 227 00c0 00000000 		.word	ch
 228 00c4 00000000 		.word	.LANCHOR0
ARM GAS  C:\Users\Moi\AppData\Local\Temp\cc4NwxyC.s 			page 5


 229              		.cfi_endproc
 230              	.LFE264:
 231              		.size	inotify, .-inotify
 232              		.section	.text.readt,"ax",%progbits
 233              		.align	1
 234              		.p2align 4,,15
 235              		.syntax unified
 236              		.thumb
 237              		.thumb_func
 238              		.fpu fpv4-sp-d16
 239              		.type	readt, %function
 240              	readt:
 241              	.LFB263:
 242              		.loc 1 94 0
 243              		.cfi_startproc
 244              		@ args = 0, pretend = 0, frame = 8
 245              		@ frame_needed = 0, uses_anonymous_args = 0
 246              	.LVL22:
 247 0000 30B5     		push	{r4, r5, lr}
 248              		.cfi_def_cfa_offset 12
 249              		.cfi_offset 4, -12
 250              		.cfi_offset 5, -8
 251              		.cfi_offset 14, -4
 252 0002 084C     		ldr	r4, .L19
 253 0004 83B0     		sub	sp, sp, #12
 254              		.cfi_def_cfa_offset 24
 255              		.loc 1 94 0
 256 0006 2568     		ldr	r5, [r4]
 257 0008 0195     		str	r5, [sp, #4]
 258              		.loc 1 96 0
 259 000a 019D     		ldr	r5, [sp, #4]
 260 000c 2468     		ldr	r4, [r4]
 261 000e A542     		cmp	r5, r4
 262 0010 05D1     		bne	.L18
 263 0012 0C30     		adds	r0, r0, #12
 264              	.LVL23:
 265              		.loc 1 97 0
 266 0014 03B0     		add	sp, sp, #12
 267              		.cfi_remember_state
 268              		.cfi_def_cfa_offset 12
 269              		@ sp needed
 270 0016 BDE83040 		pop	{r4, r5, lr}
 271              		.cfi_restore 14
 272              		.cfi_restore 5
 273              		.cfi_restore 4
 274              		.cfi_def_cfa_offset 0
 275              		.loc 1 96 0
 276 001a FFF7FEBF 		b	chIQReadTimeout
 277              	.LVL24:
 278              	.L18:
 279              		.cfi_restore_state
 280 001e FFF7FEFF 		bl	__stack_chk_fail
 281              	.LVL25:
 282              	.L20:
 283 0022 00BF     		.align	2
 284              	.L19:
 285 0024 00000000 		.word	__stack_chk_guard
ARM GAS  C:\Users\Moi\AppData\Local\Temp\cc4NwxyC.s 			page 6


 286              		.cfi_endproc
 287              	.LFE263:
 288              		.size	readt, .-readt
 289              		.section	.text.read,"ax",%progbits
 290              		.align	1
 291              		.p2align 4,,15
 292              		.syntax unified
 293              		.thumb
 294              		.thumb_func
 295              		.fpu fpv4-sp-d16
 296              		.type	read, %function
 297              	read:
 298              	.LFB257:
 299              		.loc 1 63 0
 300              		.cfi_startproc
 301              		@ args = 0, pretend = 0, frame = 8
 302              		@ frame_needed = 0, uses_anonymous_args = 0
 303              	.LVL26:
 304 0000 10B5     		push	{r4, lr}
 305              		.cfi_def_cfa_offset 8
 306              		.cfi_offset 4, -8
 307              		.cfi_offset 14, -4
 308 0002 094B     		ldr	r3, .L26
 309 0004 82B0     		sub	sp, sp, #8
 310              		.cfi_def_cfa_offset 16
 311              		.loc 1 63 0
 312 0006 1C68     		ldr	r4, [r3]
 313 0008 0194     		str	r4, [sp, #4]
 314              		.loc 1 65 0
 315 000a 019C     		ldr	r4, [sp, #4]
 316 000c 1B68     		ldr	r3, [r3]
 317 000e 9C42     		cmp	r4, r3
 318 0010 07D1     		bne	.L25
 319 0012 0C30     		adds	r0, r0, #12
 320              	.LVL27:
 321 0014 4FF0FF33 		mov	r3, #-1
 322              		.loc 1 67 0
 323 0018 02B0     		add	sp, sp, #8
 324              		.cfi_remember_state
 325              		.cfi_def_cfa_offset 8
 326              		@ sp needed
 327 001a BDE81040 		pop	{r4, lr}
 328              		.cfi_restore 14
 329              		.cfi_restore 4
 330              		.cfi_def_cfa_offset 0
 331              		.loc 1 65 0
 332 001e FFF7FEBF 		b	chIQReadTimeout
 333              	.LVL28:
 334              	.L25:
 335              		.cfi_restore_state
 336 0022 FFF7FEFF 		bl	__stack_chk_fail
 337              	.LVL29:
 338              	.L27:
 339 0026 00BF     		.align	2
 340              	.L26:
 341 0028 00000000 		.word	__stack_chk_guard
 342              		.cfi_endproc
ARM GAS  C:\Users\Moi\AppData\Local\Temp\cc4NwxyC.s 			page 7


 343              	.LFE257:
 344              		.size	read, .-read
 345              		.section	.text.writet,"ax",%progbits
 346              		.align	1
 347              		.p2align 4,,15
 348              		.syntax unified
 349              		.thumb
 350              		.thumb_func
 351              		.fpu fpv4-sp-d16
 352              		.type	writet, %function
 353              	writet:
 354              	.LFB262:
 355              		.loc 1 89 0
 356              		.cfi_startproc
 357              		@ args = 0, pretend = 0, frame = 8
 358              		@ frame_needed = 0, uses_anonymous_args = 0
 359              	.LVL30:
 360 0000 30B5     		push	{r4, r5, lr}
 361              		.cfi_def_cfa_offset 12
 362              		.cfi_offset 4, -12
 363              		.cfi_offset 5, -8
 364              		.cfi_offset 14, -4
 365 0002 084C     		ldr	r4, .L33
 366 0004 83B0     		sub	sp, sp, #12
 367              		.cfi_def_cfa_offset 24
 368              		.loc 1 89 0
 369 0006 2568     		ldr	r5, [r4]
 370 0008 0195     		str	r5, [sp, #4]
 371              		.loc 1 91 0
 372 000a 019D     		ldr	r5, [sp, #4]
 373 000c 2468     		ldr	r4, [r4]
 374 000e A542     		cmp	r5, r4
 375 0010 05D1     		bne	.L32
 376 0012 3030     		adds	r0, r0, #48
 377              	.LVL31:
 378              		.loc 1 92 0
 379 0014 03B0     		add	sp, sp, #12
 380              		.cfi_remember_state
 381              		.cfi_def_cfa_offset 12
 382              		@ sp needed
 383 0016 BDE83040 		pop	{r4, r5, lr}
 384              		.cfi_restore 14
 385              		.cfi_restore 5
 386              		.cfi_restore 4
 387              		.cfi_def_cfa_offset 0
 388              		.loc 1 91 0
 389 001a FFF7FEBF 		b	chOQWriteTimeout
 390              	.LVL32:
 391              	.L32:
 392              		.cfi_restore_state
 393 001e FFF7FEFF 		bl	__stack_chk_fail
 394              	.LVL33:
 395              	.L34:
 396 0022 00BF     		.align	2
 397              	.L33:
 398 0024 00000000 		.word	__stack_chk_guard
 399              		.cfi_endproc
ARM GAS  C:\Users\Moi\AppData\Local\Temp\cc4NwxyC.s 			page 8


 400              	.LFE262:
 401              		.size	writet, .-writet
 402              		.section	.text.write,"ax",%progbits
 403              		.align	1
 404              		.p2align 4,,15
 405              		.syntax unified
 406              		.thumb
 407              		.thumb_func
 408              		.fpu fpv4-sp-d16
 409              		.type	write, %function
 410              	write:
 411              	.LFB256:
 412              		.loc 1 57 0
 413              		.cfi_startproc
 414              		@ args = 0, pretend = 0, frame = 8
 415              		@ frame_needed = 0, uses_anonymous_args = 0
 416              	.LVL34:
 417 0000 10B5     		push	{r4, lr}
 418              		.cfi_def_cfa_offset 8
 419              		.cfi_offset 4, -8
 420              		.cfi_offset 14, -4
 421 0002 094B     		ldr	r3, .L40
 422 0004 82B0     		sub	sp, sp, #8
 423              		.cfi_def_cfa_offset 16
 424              		.loc 1 57 0
 425 0006 1C68     		ldr	r4, [r3]
 426 0008 0194     		str	r4, [sp, #4]
 427              		.loc 1 59 0
 428 000a 019C     		ldr	r4, [sp, #4]
 429 000c 1B68     		ldr	r3, [r3]
 430 000e 9C42     		cmp	r4, r3
 431 0010 07D1     		bne	.L39
 432 0012 3030     		adds	r0, r0, #48
 433              	.LVL35:
 434 0014 4FF0FF33 		mov	r3, #-1
 435              		.loc 1 61 0
 436 0018 02B0     		add	sp, sp, #8
 437              		.cfi_remember_state
 438              		.cfi_def_cfa_offset 8
 439              		@ sp needed
 440 001a BDE81040 		pop	{r4, lr}
 441              		.cfi_restore 14
 442              		.cfi_restore 4
 443              		.cfi_def_cfa_offset 0
 444              		.loc 1 59 0
 445 001e FFF7FEBF 		b	chOQWriteTimeout
 446              	.LVL36:
 447              	.L39:
 448              		.cfi_restore_state
 449 0022 FFF7FEFF 		bl	__stack_chk_fail
 450              	.LVL37:
 451              	.L41:
 452 0026 00BF     		.align	2
 453              	.L40:
 454 0028 00000000 		.word	__stack_chk_guard
 455              		.cfi_endproc
 456              	.LFE256:
ARM GAS  C:\Users\Moi\AppData\Local\Temp\cc4NwxyC.s 			page 9


 457              		.size	write, .-write
 458              		.section	.text.gett,"ax",%progbits
 459              		.align	1
 460              		.p2align 4,,15
 461              		.syntax unified
 462              		.thumb
 463              		.thumb_func
 464              		.fpu fpv4-sp-d16
 465              		.type	gett, %function
 466              	gett:
 467              	.LFB261:
 468              		.loc 1 84 0
 469              		.cfi_startproc
 470              		@ args = 0, pretend = 0, frame = 8
 471              		@ frame_needed = 0, uses_anonymous_args = 0
 472              	.LVL38:
 473 0000 00B5     		push	{lr}
 474              		.cfi_def_cfa_offset 4
 475              		.cfi_offset 14, -4
 476 0002 084B     		ldr	r3, .L47
 477 0004 83B0     		sub	sp, sp, #12
 478              		.cfi_def_cfa_offset 16
 479              		.loc 1 84 0
 480 0006 1A68     		ldr	r2, [r3]
 481 0008 0192     		str	r2, [sp, #4]
 482              		.loc 1 86 0
 483 000a 019A     		ldr	r2, [sp, #4]
 484 000c 1B68     		ldr	r3, [r3]
 485 000e 9A42     		cmp	r2, r3
 486 0010 05D1     		bne	.L46
 487 0012 0C30     		adds	r0, r0, #12
 488              	.LVL39:
 489              		.loc 1 87 0
 490 0014 03B0     		add	sp, sp, #12
 491              		.cfi_remember_state
 492              		.cfi_def_cfa_offset 4
 493              		@ sp needed
 494 0016 5DF804EB 		ldr	lr, [sp], #4
 495              		.cfi_restore 14
 496              		.cfi_def_cfa_offset 0
 497              		.loc 1 86 0
 498 001a FFF7FEBF 		b	chIQGetTimeout
 499              	.LVL40:
 500              	.L46:
 501              		.cfi_restore_state
 502 001e FFF7FEFF 		bl	__stack_chk_fail
 503              	.LVL41:
 504              	.L48:
 505 0022 00BF     		.align	2
 506              	.L47:
 507 0024 00000000 		.word	__stack_chk_guard
 508              		.cfi_endproc
 509              	.LFE261:
 510              		.size	gett, .-gett
 511              		.section	.text.get,"ax",%progbits
 512              		.align	1
 513              		.p2align 4,,15
ARM GAS  C:\Users\Moi\AppData\Local\Temp\cc4NwxyC.s 			page 10


 514              		.syntax unified
 515              		.thumb
 516              		.thumb_func
 517              		.fpu fpv4-sp-d16
 518              		.type	get, %function
 519              	get:
 520              	.LFB259:
 521              		.loc 1 74 0
 522              		.cfi_startproc
 523              		@ args = 0, pretend = 0, frame = 8
 524              		@ frame_needed = 0, uses_anonymous_args = 0
 525              	.LVL42:
 526 0000 00B5     		push	{lr}
 527              		.cfi_def_cfa_offset 4
 528              		.cfi_offset 14, -4
 529 0002 094B     		ldr	r3, .L54
 530 0004 83B0     		sub	sp, sp, #12
 531              		.cfi_def_cfa_offset 16
 532              		.loc 1 74 0
 533 0006 1A68     		ldr	r2, [r3]
 534 0008 0192     		str	r2, [sp, #4]
 535              		.loc 1 76 0
 536 000a 019A     		ldr	r2, [sp, #4]
 537 000c 1B68     		ldr	r3, [r3]
 538 000e 9A42     		cmp	r2, r3
 539 0010 07D1     		bne	.L53
 540 0012 0C30     		adds	r0, r0, #12
 541              	.LVL43:
 542 0014 4FF0FF31 		mov	r1, #-1
 543              		.loc 1 77 0
 544 0018 03B0     		add	sp, sp, #12
 545              		.cfi_remember_state
 546              		.cfi_def_cfa_offset 4
 547              		@ sp needed
 548 001a 5DF804EB 		ldr	lr, [sp], #4
 549              		.cfi_restore 14
 550              		.cfi_def_cfa_offset 0
 551              		.loc 1 76 0
 552 001e FFF7FEBF 		b	chIQGetTimeout
 553              	.LVL44:
 554              	.L53:
 555              		.cfi_restore_state
 556 0022 FFF7FEFF 		bl	__stack_chk_fail
 557              	.LVL45:
 558              	.L55:
 559 0026 00BF     		.align	2
 560              	.L54:
 561 0028 00000000 		.word	__stack_chk_guard
 562              		.cfi_endproc
 563              	.LFE259:
 564              		.size	get, .-get
 565              		.section	.text.putt,"ax",%progbits
 566              		.align	1
 567              		.p2align 4,,15
 568              		.syntax unified
 569              		.thumb
 570              		.thumb_func
ARM GAS  C:\Users\Moi\AppData\Local\Temp\cc4NwxyC.s 			page 11


 571              		.fpu fpv4-sp-d16
 572              		.type	putt, %function
 573              	putt:
 574              	.LFB260:
 575              		.loc 1 79 0
 576              		.cfi_startproc
 577              		@ args = 0, pretend = 0, frame = 8
 578              		@ frame_needed = 0, uses_anonymous_args = 0
 579              	.LVL46:
 580 0000 10B5     		push	{r4, lr}
 581              		.cfi_def_cfa_offset 8
 582              		.cfi_offset 4, -8
 583              		.cfi_offset 14, -4
 584 0002 084B     		ldr	r3, .L61
 585 0004 82B0     		sub	sp, sp, #8
 586              		.cfi_def_cfa_offset 16
 587              		.loc 1 79 0
 588 0006 1C68     		ldr	r4, [r3]
 589 0008 0194     		str	r4, [sp, #4]
 590              		.loc 1 81 0
 591 000a 019C     		ldr	r4, [sp, #4]
 592 000c 1B68     		ldr	r3, [r3]
 593 000e 9C42     		cmp	r4, r3
 594 0010 05D1     		bne	.L60
 595 0012 3030     		adds	r0, r0, #48
 596              	.LVL47:
 597              		.loc 1 82 0
 598 0014 02B0     		add	sp, sp, #8
 599              		.cfi_remember_state
 600              		.cfi_def_cfa_offset 8
 601              		@ sp needed
 602 0016 BDE81040 		pop	{r4, lr}
 603              		.cfi_restore 14
 604              		.cfi_restore 4
 605              		.cfi_def_cfa_offset 0
 606              		.loc 1 81 0
 607 001a FFF7FEBF 		b	chOQPutTimeout
 608              	.LVL48:
 609              	.L60:
 610              		.cfi_restore_state
 611 001e FFF7FEFF 		bl	__stack_chk_fail
 612              	.LVL49:
 613              	.L62:
 614 0022 00BF     		.align	2
 615              	.L61:
 616 0024 00000000 		.word	__stack_chk_guard
 617              		.cfi_endproc
 618              	.LFE260:
 619              		.size	putt, .-putt
 620              		.section	.text.put,"ax",%progbits
 621              		.align	1
 622              		.p2align 4,,15
 623              		.syntax unified
 624              		.thumb
 625              		.thumb_func
 626              		.fpu fpv4-sp-d16
 627              		.type	put, %function
ARM GAS  C:\Users\Moi\AppData\Local\Temp\cc4NwxyC.s 			page 12


 628              	put:
 629              	.LFB258:
 630              		.loc 1 69 0
 631              		.cfi_startproc
 632              		@ args = 0, pretend = 0, frame = 8
 633              		@ frame_needed = 0, uses_anonymous_args = 0
 634              	.LVL50:
 635 0000 00B5     		push	{lr}
 636              		.cfi_def_cfa_offset 4
 637              		.cfi_offset 14, -4
 638 0002 094B     		ldr	r3, .L68
 639 0004 83B0     		sub	sp, sp, #12
 640              		.cfi_def_cfa_offset 16
 641              		.loc 1 69 0
 642 0006 1A68     		ldr	r2, [r3]
 643 0008 0192     		str	r2, [sp, #4]
 644              		.loc 1 71 0
 645 000a 019A     		ldr	r2, [sp, #4]
 646 000c 1B68     		ldr	r3, [r3]
 647 000e 9A42     		cmp	r2, r3
 648 0010 07D1     		bne	.L67
 649 0012 3030     		adds	r0, r0, #48
 650              	.LVL51:
 651 0014 4FF0FF32 		mov	r2, #-1
 652              		.loc 1 72 0
 653 0018 03B0     		add	sp, sp, #12
 654              		.cfi_remember_state
 655              		.cfi_def_cfa_offset 4
 656              		@ sp needed
 657 001a 5DF804EB 		ldr	lr, [sp], #4
 658              		.cfi_restore 14
 659              		.cfi_def_cfa_offset 0
 660              		.loc 1 71 0
 661 001e FFF7FEBF 		b	chOQPutTimeout
 662              	.LVL52:
 663              	.L67:
 664              		.cfi_restore_state
 665 0022 FFF7FEFF 		bl	__stack_chk_fail
 666              	.LVL53:
 667              	.L69:
 668 0026 00BF     		.align	2
 669              	.L68:
 670 0028 00000000 		.word	__stack_chk_guard
 671              		.cfi_endproc
 672              	.LFE258:
 673              		.size	put, .-put
 674              		.section	.text.onotify,"ax",%progbits
 675              		.align	1
 676              		.p2align 4,,15
 677              		.syntax unified
 678              		.thumb
 679              		.thumb_func
 680              		.fpu fpv4-sp-d16
 681              		.type	onotify, %function
 682              	onotify:
 683              	.LFB265:
 684              		.loc 1 144 0
ARM GAS  C:\Users\Moi\AppData\Local\Temp\cc4NwxyC.s 			page 13


 685              		.cfi_startproc
 686              		@ args = 0, pretend = 0, frame = 8
 687              		@ frame_needed = 0, uses_anonymous_args = 0
 688              	.LVL54:
 689 0000 70B5     		push	{r4, r5, r6, lr}
 690              		.cfi_def_cfa_offset 16
 691              		.cfi_offset 4, -16
 692              		.cfi_offset 5, -12
 693              		.cfi_offset 6, -8
 694              		.cfi_offset 14, -4
 695              		.loc 1 146 0
 696 0002 056A     		ldr	r5, [r0, #32]
 697              	.LVL55:
 698              		.loc 1 144 0
 699 0004 294C     		ldr	r4, .L83
 700              		.loc 1 150 0
 701 0006 D5F85422 		ldr	r2, [r5, #596]
 702              		.loc 1 144 0
 703 000a 2168     		ldr	r1, [r4]
 704              		.loc 1 150 0
 705 000c 1368     		ldr	r3, [r2]
 706              		.loc 1 144 0
 707 000e 82B0     		sub	sp, sp, #8
 708              		.cfi_def_cfa_offset 24
 709              		.loc 1 144 0
 710 0010 0191     		str	r1, [sp, #4]
 711              		.loc 1 150 0
 712 0012 1978     		ldrb	r1, [r3]	@ zero_extendqisi2
 713 0014 0429     		cmp	r1, #4
 714 0016 05D0     		beq	.L82
 715              	.LVL56:
 716              	.L70:
 717              		.loc 1 169 0
 718 0018 019A     		ldr	r2, [sp, #4]
 719 001a 2368     		ldr	r3, [r4]
 720 001c 9A42     		cmp	r2, r3
 721 001e 42D1     		bne	.L81
 722 0020 02B0     		add	sp, sp, #8
 723              		.cfi_remember_state
 724              		.cfi_def_cfa_offset 16
 725              		@ sp needed
 726 0022 70BD     		pop	{r4, r5, r6, pc}
 727              	.LVL57:
 728              	.L82:
 729              		.cfi_restore_state
 730              		.loc 1 150 0 discriminator 1
 731 0024 297A     		ldrb	r1, [r5, #8]	@ zero_extendqisi2
 732 0026 0229     		cmp	r1, #2
 733 0028 F6D1     		bne	.L70
 734              		.loc 1 157 0
 735 002a 1179     		ldrb	r1, [r2, #4]	@ zero_extendqisi2
 736 002c 1A89     		ldrh	r2, [r3, #8]
 737 002e 0123     		movs	r3, #1
 738 0030 8B40     		lsls	r3, r3, r1
 739 0032 1342     		tst	r3, r2
 740 0034 F0D1     		bne	.L70
 741              	.LVL58:
ARM GAS  C:\Users\Moi\AppData\Local\Temp\cc4NwxyC.s 			page 14


 742              	.LBB233:
 743              	.LBB234:
 744              		.loc 2 355 0
 745 0036 FFF7FEFF 		bl	chDbgCheckClassI
 746              	.LVL59:
 747              		.loc 2 357 0
 748 003a D5E90F23 		ldrd	r2, r3, [r5, #60]
 749 003e AE6B     		ldr	r6, [r5, #56]
 750 0040 9B1A     		subs	r3, r3, r2
 751              	.LBE234:
 752              	.LBE233:
 753              		.loc 1 158 0
 754 0042 9E1B     		subs	r6, r3, r6
 755 0044 E8D0     		beq	.L70
 756              	.LBB235:
 757              	.LBB236:
 758              	.LBB237:
 759              		.loc 3 360 0
 760 0046 FFF7FEFF 		bl	_dbg_check_unlock
 761              	.LVL60:
 762              		.loc 3 361 0
 763 004a FFF7FEFF 		bl	_stats_stop_measure_crit_thd
 764              	.LVL61:
 765              		.loc 3 367 0
 766 004e 184B     		ldr	r3, .L83+4
 767 0050 1A68     		ldr	r2, [r3]
 768 0052 9A42     		cmp	r2, r3
 769 0054 07D0     		beq	.L74
 770 0056 9969     		ldr	r1, [r3, #24]
 771 0058 9368     		ldr	r3, [r2, #8]
 772 005a 8A68     		ldr	r2, [r1, #8]
 773 005c 9A42     		cmp	r2, r3
 774 005e 02D2     		bcs	.L74
 775 0060 1448     		ldr	r0, .L83+8
 776 0062 FFF7FEFF 		bl	chSysHalt
 777              	.LVL62:
 778              	.L74:
 779              	.LBB238:
 780              	.LBB239:
 781              	.LBB240:
 782              		.loc 4 546 0
 783 0066 0023     		movs	r3, #0
 784              		.syntax unified
 785              	@ 546 "..//ChibiOS//os/ext/CMSIS/include/core_cmFunc.h" 1
 786 0068 83F31188 		MSR basepri, r3
 787              	@ 0 "" 2
 788              	.LVL63:
 789              		.thumb
 790              		.syntax unified
 791              	.LBE240:
 792              	.LBE239:
 793              	.LBE238:
 794              	.LBE237:
 795              	.LBE236:
 796              	.LBE235:
 797              		.loc 1 161 0
 798 006c D5F85422 		ldr	r2, [r5, #596]
ARM GAS  C:\Users\Moi\AppData\Local\Temp\cc4NwxyC.s 			page 15


 799 0070 3346     		mov	r3, r6
 800 0072 1179     		ldrb	r1, [r2, #4]	@ zero_extendqisi2
 801 0074 1068     		ldr	r0, [r2]
 802 0076 05F13002 		add	r2, r5, #48
 803 007a FFF7FEFF 		bl	usbPrepareQueuedTransmit
 804              	.LVL64:
 805              	.LBB241:
 806              	.LBB242:
 807              	.LBB243:
 808              	.LBB244:
 809              	.LBB245:
 810              	.LBB246:
 811              		.loc 4 546 0
 812 007e 2023     		movs	r3, #32
 813              		.syntax unified
 814              	@ 546 "..//ChibiOS//os/ext/CMSIS/include/core_cmFunc.h" 1
 815 0080 83F31188 		MSR basepri, r3
 816              	@ 0 "" 2
 817              	.LVL65:
 818              		.thumb
 819              		.syntax unified
 820              	.LBE246:
 821              	.LBE245:
 822              	.LBE244:
 823              		.loc 3 349 0
 824 0084 FFF7FEFF 		bl	_stats_start_measure_crit_thd
 825              	.LVL66:
 826              		.loc 3 350 0
 827 0088 FFF7FEFF 		bl	_dbg_check_lock
 828              	.LVL67:
 829              	.LBE243:
 830              	.LBE242:
 831              	.LBE241:
 832              		.loc 1 166 0
 833 008c 0199     		ldr	r1, [sp, #4]
 834 008e 2268     		ldr	r2, [r4]
 835 0090 D5F85432 		ldr	r3, [r5, #596]
 836 0094 9142     		cmp	r1, r2
 837 0096 06D1     		bne	.L81
 838 0098 1979     		ldrb	r1, [r3, #4]	@ zero_extendqisi2
 839 009a 1868     		ldr	r0, [r3]
 840              		.loc 1 169 0
 841 009c 02B0     		add	sp, sp, #8
 842              		.cfi_remember_state
 843              		.cfi_def_cfa_offset 16
 844              		@ sp needed
 845 009e BDE87040 		pop	{r4, r5, r6, lr}
 846              		.cfi_restore 14
 847              		.cfi_restore 6
 848              		.cfi_restore 5
 849              		.cfi_restore 4
 850              		.cfi_def_cfa_offset 0
 851              	.LVL68:
 852              		.loc 1 166 0
 853 00a2 FFF7FEBF 		b	usbStartTransmitI
 854              	.LVL69:
 855              	.L81:
ARM GAS  C:\Users\Moi\AppData\Local\Temp\cc4NwxyC.s 			page 16


 856              		.cfi_restore_state
 857              		.loc 1 169 0
 858 00a6 FFF7FEFF 		bl	__stack_chk_fail
 859              	.LVL70:
 860              	.L84:
 861 00aa 00BF     		.align	2
 862              	.L83:
 863 00ac 00000000 		.word	__stack_chk_guard
 864 00b0 00000000 		.word	ch
 865 00b4 00000000 		.word	.LANCHOR0
 866              		.cfi_endproc
 867              	.LFE265:
 868              		.size	onotify, .-onotify
 869              		.section	.text.sduInit,"ax",%progbits
 870              		.align	1
 871              		.p2align 4,,15
 872              		.global	sduInit
 873              		.syntax unified
 874              		.thumb
 875              		.thumb_func
 876              		.fpu fpv4-sp-d16
 877              		.type	sduInit, %function
 878              	sduInit:
 879              	.LFB266:
 880              		.loc 1 182 0
 881              		.cfi_startproc
 882              		@ args = 0, pretend = 0, frame = 8
 883              		@ frame_needed = 0, uses_anonymous_args = 0
 884 0000 00B5     		push	{lr}
 885              		.cfi_def_cfa_offset 4
 886              		.cfi_offset 14, -4
 887 0002 064B     		ldr	r3, .L89
 888 0004 83B0     		sub	sp, sp, #12
 889              		.cfi_def_cfa_offset 16
 890              		.loc 1 182 0
 891 0006 1A68     		ldr	r2, [r3]
 892 0008 0192     		str	r2, [sp, #4]
 893              		.loc 1 183 0
 894 000a 019A     		ldr	r2, [sp, #4]
 895 000c 1B68     		ldr	r3, [r3]
 896 000e 9A42     		cmp	r2, r3
 897 0010 02D1     		bne	.L88
 898 0012 03B0     		add	sp, sp, #12
 899              		.cfi_remember_state
 900              		.cfi_def_cfa_offset 4
 901              		@ sp needed
 902 0014 5DF804FB 		ldr	pc, [sp], #4
 903              	.L88:
 904              		.cfi_restore_state
 905 0018 FFF7FEFF 		bl	__stack_chk_fail
 906              	.LVL71:
 907              	.L90:
 908              		.align	2
 909              	.L89:
 910 001c 00000000 		.word	__stack_chk_guard
 911              		.cfi_endproc
 912              	.LFE266:
ARM GAS  C:\Users\Moi\AppData\Local\Temp\cc4NwxyC.s 			page 17


 913              		.size	sduInit, .-sduInit
 914              		.section	.text.sduObjectInit,"ax",%progbits
 915              		.align	1
 916              		.p2align 4,,15
 917              		.global	sduObjectInit
 918              		.syntax unified
 919              		.thumb
 920              		.thumb_func
 921              		.fpu fpv4-sp-d16
 922              		.type	sduObjectInit, %function
 923              	sduObjectInit:
 924              	.LFB267:
 925              		.loc 1 194 0
 926              		.cfi_startproc
 927              		@ args = 0, pretend = 0, frame = 8
 928              		@ frame_needed = 0, uses_anonymous_args = 0
 929              	.LVL72:
 930 0000 30B5     		push	{r4, r5, lr}
 931              		.cfi_def_cfa_offset 12
 932              		.cfi_offset 4, -12
 933              		.cfi_offset 5, -8
 934              		.cfi_offset 14, -4
 935              		.loc 1 196 0
 936 0002 0346     		mov	r3, r0
 937              		.loc 1 194 0
 938 0004 124D     		ldr	r5, .L95
 939              		.loc 1 196 0
 940 0006 1349     		ldr	r1, .L95+4
 941              		.loc 1 194 0
 942 0008 2A68     		ldr	r2, [r5]
 943              		.loc 1 196 0
 944 000a 43F8041B 		str	r1, [r3], #4
 945              	.LVL73:
 946              		.loc 1 194 0
 947 000e 85B0     		sub	sp, sp, #20
 948              		.cfi_def_cfa_offset 32
 949              		.loc 1 198 0
 950 0010 0121     		movs	r1, #1
 951              		.loc 1 194 0
 952 0012 0446     		mov	r4, r0
 953              		.loc 1 199 0
 954 0014 0090     		str	r0, [sp]
 955              		.loc 1 194 0
 956 0016 0392     		str	r2, [sp, #12]
 957              	.LBB247:
 958              	.LBB248:
 959              	.LBB249:
 960              		.file 5 "..//ChibiOS//os/rt/include/chevents.h"
 961              		.loc 5 172 0
 962 0018 4360     		str	r3, [r0, #4]
 963              	.LVL74:
 964              	.LBE249:
 965              	.LBE248:
 966              	.LBE247:
 967              		.loc 1 198 0
 968 001a 0172     		strb	r1, [r0, #8]
 969              		.loc 1 199 0
ARM GAS  C:\Users\Moi\AppData\Local\Temp\cc4NwxyC.s 			page 18


 970 001c 0E4B     		ldr	r3, .L95+8
 971 001e 00F15401 		add	r1, r0, #84
 972 0022 4FF48072 		mov	r2, #256
 973 0026 0C30     		adds	r0, r0, #12
 974              	.LVL75:
 975 0028 FFF7FEFF 		bl	chIQObjectInit
 976              	.LVL76:
 977              		.loc 1 200 0
 978 002c 0B4B     		ldr	r3, .L95+12
 979 002e 0094     		str	r4, [sp]
 980 0030 4FF48072 		mov	r2, #256
 981 0034 04F5AA71 		add	r1, r4, #340
 982 0038 04F13000 		add	r0, r4, #48
 983 003c FFF7FEFF 		bl	chOQObjectInit
 984              	.LVL77:
 985              		.loc 1 201 0
 986 0040 039A     		ldr	r2, [sp, #12]
 987 0042 2B68     		ldr	r3, [r5]
 988 0044 9A42     		cmp	r2, r3
 989 0046 01D1     		bne	.L94
 990 0048 05B0     		add	sp, sp, #20
 991              		.cfi_remember_state
 992              		.cfi_def_cfa_offset 12
 993              		@ sp needed
 994 004a 30BD     		pop	{r4, r5, pc}
 995              	.LVL78:
 996              	.L94:
 997              		.cfi_restore_state
 998 004c FFF7FEFF 		bl	__stack_chk_fail
 999              	.LVL79:
 1000              	.L96:
 1001              		.align	2
 1002              	.L95:
 1003 0050 00000000 		.word	__stack_chk_guard
 1004 0054 00000000 		.word	.LANCHOR1
 1005 0058 00000000 		.word	inotify
 1006 005c 00000000 		.word	onotify
 1007              		.cfi_endproc
 1008              	.LFE267:
 1009              		.size	sduObjectInit, .-sduObjectInit
 1010              		.section	.text.sduStart,"ax",%progbits
 1011              		.align	1
 1012              		.p2align 4,,15
 1013              		.global	sduStart
 1014              		.syntax unified
 1015              		.thumb
 1016              		.thumb_func
 1017              		.fpu fpv4-sp-d16
 1018              		.type	sduStart, %function
 1019              	sduStart:
 1020              	.LFB268:
 1021              		.loc 1 211 0
 1022              		.cfi_startproc
 1023              		@ args = 0, pretend = 0, frame = 8
 1024              		@ frame_needed = 0, uses_anonymous_args = 0
 1025              	.LVL80:
 1026 0000 F0B5     		push	{r4, r5, r6, r7, lr}
ARM GAS  C:\Users\Moi\AppData\Local\Temp\cc4NwxyC.s 			page 19


 1027              		.cfi_def_cfa_offset 20
 1028              		.cfi_offset 4, -20
 1029              		.cfi_offset 5, -16
 1030              		.cfi_offset 6, -12
 1031              		.cfi_offset 7, -8
 1032              		.cfi_offset 14, -4
 1033 0002 244F     		ldr	r7, .L110
 1034              		.loc 1 212 0
 1035 0004 0E68     		ldr	r6, [r1]
 1036              	.LVL81:
 1037              		.loc 1 211 0
 1038 0006 3B68     		ldr	r3, [r7]
 1039 0008 83B0     		sub	sp, sp, #12
 1040              		.cfi_def_cfa_offset 32
 1041              		.loc 1 211 0
 1042 000a 0D46     		mov	r5, r1
 1043 000c 0193     		str	r3, [sp, #4]
 1044              		.loc 1 214 0
 1045 000e 0446     		mov	r4, r0
 1046 0010 0028     		cmp	r0, #0
 1047 0012 38D0     		beq	.L107
 1048              	.LVL82:
 1049              	.L98:
 1050              	.LBB263:
 1051              	.LBB264:
 1052              	.LBB265:
 1053              	.LBB266:
 1054              	.LBB267:
 1055              	.LBB268:
 1056              		.loc 4 546 0
 1057 0014 2023     		movs	r3, #32
 1058              		.syntax unified
 1059              	@ 546 "..//ChibiOS//os/ext/CMSIS/include/core_cmFunc.h" 1
 1060 0016 83F31188 		MSR basepri, r3
 1061              	@ 0 "" 2
 1062              	.LVL83:
 1063              		.thumb
 1064              		.syntax unified
 1065              	.LBE268:
 1066              	.LBE267:
 1067              	.LBE266:
 1068              		.loc 3 349 0
 1069 001a FFF7FEFF 		bl	_stats_start_measure_crit_thd
 1070              	.LVL84:
 1071              		.loc 3 350 0
 1072 001e FFF7FEFF 		bl	_dbg_check_lock
 1073              	.LVL85:
 1074              	.LBE265:
 1075              	.LBE264:
 1076              	.LBE263:
 1077              		.loc 1 217 0
 1078 0022 237A     		ldrb	r3, [r4, #8]	@ zero_extendqisi2
 1079 0024 013B     		subs	r3, r3, #1
 1080 0026 012B     		cmp	r3, #1
 1081 0028 02D9     		bls	.L99
 1082              		.loc 1 217 0 is_stmt 0 discriminator 2
 1083 002a 1B48     		ldr	r0, .L110+4
ARM GAS  C:\Users\Moi\AppData\Local\Temp\cc4NwxyC.s 			page 20


 1084 002c FFF7FEFF 		bl	chSysHalt
 1085              	.LVL86:
 1086              	.L99:
 1087              		.loc 1 219 0 is_stmt 1
 1088 0030 2B79     		ldrb	r3, [r5, #4]	@ zero_extendqisi2
 1089 0032 06EB8303 		add	r3, r6, r3, lsl #2
 1090 0036 9C61     		str	r4, [r3, #24]
 1091              		.loc 1 220 0
 1092 0038 6B79     		ldrb	r3, [r5, #5]	@ zero_extendqisi2
 1093 003a 0933     		adds	r3, r3, #9
 1094 003c 46F82340 		str	r4, [r6, r3, lsl #2]
 1095              		.loc 1 221 0
 1096 0040 AB79     		ldrb	r3, [r5, #6]	@ zero_extendqisi2
 1097 0042 13B1     		cbz	r3, .L100
 1098              		.loc 1 222 0
 1099 0044 06EB8306 		add	r6, r6, r3, lsl #2
 1100              	.LVL87:
 1101 0048 B461     		str	r4, [r6, #24]
 1102              	.L100:
 1103              		.loc 1 225 0
 1104 004a 0223     		movs	r3, #2
 1105 004c 2372     		strb	r3, [r4, #8]
 1106              		.loc 1 224 0
 1107 004e C4F85452 		str	r5, [r4, #596]
 1108              	.LBB269:
 1109              	.LBB270:
 1110              	.LBB271:
 1111              		.loc 3 360 0
 1112 0052 FFF7FEFF 		bl	_dbg_check_unlock
 1113              	.LVL88:
 1114              		.loc 3 361 0
 1115 0056 FFF7FEFF 		bl	_stats_stop_measure_crit_thd
 1116              	.LVL89:
 1117              		.loc 3 367 0
 1118 005a 104B     		ldr	r3, .L110+8
 1119 005c 1A68     		ldr	r2, [r3]
 1120 005e 9A42     		cmp	r2, r3
 1121 0060 04D0     		beq	.L101
 1122 0062 9969     		ldr	r1, [r3, #24]
 1123 0064 9368     		ldr	r3, [r2, #8]
 1124 0066 8A68     		ldr	r2, [r1, #8]
 1125 0068 9A42     		cmp	r2, r3
 1126 006a 08D3     		bcc	.L108
 1127              	.L101:
 1128              	.LVL90:
 1129              	.LBB272:
 1130              	.LBB273:
 1131              	.LBB274:
 1132              		.loc 4 546 0
 1133 006c 0023     		movs	r3, #0
 1134              		.syntax unified
 1135              	@ 546 "..//ChibiOS//os/ext/CMSIS/include/core_cmFunc.h" 1
 1136 006e 83F31188 		MSR basepri, r3
 1137              	@ 0 "" 2
 1138              	.LVL91:
 1139              		.thumb
 1140              		.syntax unified
ARM GAS  C:\Users\Moi\AppData\Local\Temp\cc4NwxyC.s 			page 21


 1141              	.LBE274:
 1142              	.LBE273:
 1143              	.LBE272:
 1144              	.LBE271:
 1145              	.LBE270:
 1146              	.LBE269:
 1147              		.loc 1 227 0
 1148 0072 019A     		ldr	r2, [sp, #4]
 1149 0074 3B68     		ldr	r3, [r7]
 1150 0076 9A42     		cmp	r2, r3
 1151 0078 09D1     		bne	.L109
 1152 007a 03B0     		add	sp, sp, #12
 1153              		.cfi_remember_state
 1154              		.cfi_def_cfa_offset 20
 1155              		@ sp needed
 1156 007c F0BD     		pop	{r4, r5, r6, r7, pc}
 1157              	.LVL92:
 1158              	.L108:
 1159              		.cfi_restore_state
 1160              	.LBB277:
 1161              	.LBB276:
 1162              	.LBB275:
 1163              		.loc 3 367 0
 1164 007e 0848     		ldr	r0, .L110+12
 1165 0080 FFF7FEFF 		bl	chSysHalt
 1166              	.LVL93:
 1167 0084 F2E7     		b	.L101
 1168              	.LVL94:
 1169              	.L107:
 1170              	.LBE275:
 1171              	.LBE276:
 1172              	.LBE277:
 1173              		.loc 1 214 0 discriminator 2
 1174 0086 0448     		ldr	r0, .L110+4
 1175              	.LVL95:
 1176 0088 FFF7FEFF 		bl	chSysHalt
 1177              	.LVL96:
 1178 008c C2E7     		b	.L98
 1179              	.LVL97:
 1180              	.L109:
 1181              		.loc 1 227 0
 1182 008e FFF7FEFF 		bl	__stack_chk_fail
 1183              	.LVL98:
 1184              	.L111:
 1185 0092 00BF     		.align	2
 1186              	.L110:
 1187 0094 00000000 		.word	__stack_chk_guard
 1188 0098 00000000 		.word	.LANCHOR2
 1189 009c 00000000 		.word	ch
 1190 00a0 00000000 		.word	.LANCHOR0
 1191              		.cfi_endproc
 1192              	.LFE268:
 1193              		.size	sduStart, .-sduStart
 1194              		.section	.text.sduStop,"ax",%progbits
 1195              		.align	1
 1196              		.p2align 4,,15
 1197              		.global	sduStop
ARM GAS  C:\Users\Moi\AppData\Local\Temp\cc4NwxyC.s 			page 22


 1198              		.syntax unified
 1199              		.thumb
 1200              		.thumb_func
 1201              		.fpu fpv4-sp-d16
 1202              		.type	sduStop, %function
 1203              	sduStop:
 1204              	.LFB269:
 1205              		.loc 1 238 0
 1206              		.cfi_startproc
 1207              		@ args = 0, pretend = 0, frame = 8
 1208              		@ frame_needed = 0, uses_anonymous_args = 0
 1209              	.LVL99:
 1210 0000 70B5     		push	{r4, r5, r6, lr}
 1211              		.cfi_def_cfa_offset 16
 1212              		.cfi_offset 4, -16
 1213              		.cfi_offset 5, -12
 1214              		.cfi_offset 6, -8
 1215              		.cfi_offset 14, -4
 1216 0002 2A4E     		ldr	r6, .L123
 1217              		.loc 1 239 0
 1218 0004 D0F85422 		ldr	r2, [r0, #596]
 1219              		.loc 1 238 0
 1220 0008 3368     		ldr	r3, [r6]
 1221              		.loc 1 239 0
 1222 000a 1568     		ldr	r5, [r2]
 1223              	.LVL100:
 1224              		.loc 1 238 0
 1225 000c 82B0     		sub	sp, sp, #8
 1226              		.cfi_def_cfa_offset 24
 1227              		.loc 1 238 0
 1228 000e 0446     		mov	r4, r0
 1229 0010 0193     		str	r3, [sp, #4]
 1230              	.LBB295:
 1231              	.LBB296:
 1232              	.LBB297:
 1233              	.LBB298:
 1234              	.LBB299:
 1235              	.LBB300:
 1236              		.loc 4 546 0
 1237 0012 2023     		movs	r3, #32
 1238              		.syntax unified
 1239              	@ 546 "..//ChibiOS//os/ext/CMSIS/include/core_cmFunc.h" 1
 1240 0014 83F31188 		MSR basepri, r3
 1241              	@ 0 "" 2
 1242              	.LVL101:
 1243              		.thumb
 1244              		.syntax unified
 1245              	.LBE300:
 1246              	.LBE299:
 1247              	.LBE298:
 1248              		.loc 3 349 0
 1249 0018 FFF7FEFF 		bl	_stats_start_measure_crit_thd
 1250              	.LVL102:
 1251              		.loc 3 350 0
 1252 001c FFF7FEFF 		bl	_dbg_check_lock
 1253              	.LVL103:
 1254              	.LBE297:
ARM GAS  C:\Users\Moi\AppData\Local\Temp\cc4NwxyC.s 			page 23


 1255              	.LBE296:
 1256              	.LBE295:
 1257              		.loc 1 244 0
 1258 0020 237A     		ldrb	r3, [r4, #8]	@ zero_extendqisi2
 1259 0022 013B     		subs	r3, r3, #1
 1260 0024 012B     		cmp	r3, #1
 1261 0026 02D9     		bls	.L113
 1262              		.loc 1 244 0 is_stmt 0 discriminator 2
 1263 0028 2148     		ldr	r0, .L123+4
 1264 002a FFF7FEFF 		bl	chSysHalt
 1265              	.LVL104:
 1266              	.L113:
 1267              		.loc 1 248 0 is_stmt 1
 1268 002e D4F85422 		ldr	r2, [r4, #596]
 1269 0032 1379     		ldrb	r3, [r2, #4]	@ zero_extendqisi2
 1270 0034 0533     		adds	r3, r3, #5
 1271 0036 05EB8303 		add	r3, r5, r3, lsl #2
 1272 003a 0021     		movs	r1, #0
 1273 003c 5960     		str	r1, [r3, #4]
 1274              		.loc 1 249 0
 1275 003e 5379     		ldrb	r3, [r2, #5]	@ zero_extendqisi2
 1276 0040 0933     		adds	r3, r3, #9
 1277 0042 45F82310 		str	r1, [r5, r3, lsl #2]
 1278              		.loc 1 250 0
 1279 0046 9379     		ldrb	r3, [r2, #6]	@ zero_extendqisi2
 1280 0048 1BB1     		cbz	r3, .L114
 1281              		.loc 1 251 0
 1282 004a 0533     		adds	r3, r3, #5
 1283 004c 05EB8305 		add	r5, r5, r3, lsl #2
 1284              	.LVL105:
 1285 0050 6960     		str	r1, [r5, #4]
 1286              	.L114:
 1287              		.loc 1 253 0
 1288 0052 0123     		movs	r3, #1
 1289 0054 2372     		strb	r3, [r4, #8]
 1290              	.LVL106:
 1291              	.LBB301:
 1292              	.LBB302:
 1293              		.file 6 "..//ChibiOS//os/hal/osal/rt/osal.h"
 1294              		.loc 6 798 0
 1295 0056 0221     		movs	r1, #2
 1296 0058 201D     		adds	r0, r4, #4
 1297              	.LVL107:
 1298 005a FFF7FEFF 		bl	chEvtBroadcastFlagsI
 1299              	.LVL108:
 1300              	.LBE302:
 1301              	.LBE301:
 1302              		.loc 1 257 0
 1303 005e 04F10C00 		add	r0, r4, #12
 1304 0062 FFF7FEFF 		bl	chIQResetI
 1305              	.LVL109:
 1306              		.loc 1 258 0
 1307 0066 04F13000 		add	r0, r4, #48
 1308 006a FFF7FEFF 		bl	chIQResetI
 1309              	.LVL110:
 1310              	.LBB303:
 1311              	.LBB304:
ARM GAS  C:\Users\Moi\AppData\Local\Temp\cc4NwxyC.s 			page 24


 1312              		.loc 6 554 0
 1313 006e FFF7FEFF 		bl	chSchRescheduleS
 1314              	.LVL111:
 1315              	.LBE304:
 1316              	.LBE303:
 1317              	.LBB305:
 1318              	.LBB306:
 1319              	.LBB307:
 1320              		.loc 3 360 0
 1321 0072 FFF7FEFF 		bl	_dbg_check_unlock
 1322              	.LVL112:
 1323              		.loc 3 361 0
 1324 0076 FFF7FEFF 		bl	_stats_stop_measure_crit_thd
 1325              	.LVL113:
 1326              		.loc 3 367 0
 1327 007a 0E4B     		ldr	r3, .L123+8
 1328 007c 1A68     		ldr	r2, [r3]
 1329 007e 9A42     		cmp	r2, r3
 1330 0080 04D0     		beq	.L115
 1331 0082 9969     		ldr	r1, [r3, #24]
 1332 0084 9368     		ldr	r3, [r2, #8]
 1333 0086 8A68     		ldr	r2, [r1, #8]
 1334 0088 9A42     		cmp	r2, r3
 1335 008a 08D3     		bcc	.L121
 1336              	.L115:
 1337              	.LVL114:
 1338              	.LBB308:
 1339              	.LBB309:
 1340              	.LBB310:
 1341              		.loc 4 546 0
 1342 008c 0023     		movs	r3, #0
 1343              		.syntax unified
 1344              	@ 546 "..//ChibiOS//os/ext/CMSIS/include/core_cmFunc.h" 1
 1345 008e 83F31188 		MSR basepri, r3
 1346              	@ 0 "" 2
 1347              	.LVL115:
 1348              		.thumb
 1349              		.syntax unified
 1350              	.LBE310:
 1351              	.LBE309:
 1352              	.LBE308:
 1353              	.LBE307:
 1354              	.LBE306:
 1355              	.LBE305:
 1356              		.loc 1 261 0
 1357 0092 019A     		ldr	r2, [sp, #4]
 1358 0094 3368     		ldr	r3, [r6]
 1359 0096 9A42     		cmp	r2, r3
 1360 0098 05D1     		bne	.L122
 1361 009a 02B0     		add	sp, sp, #8
 1362              		.cfi_remember_state
 1363              		.cfi_def_cfa_offset 16
 1364              		@ sp needed
 1365 009c 70BD     		pop	{r4, r5, r6, pc}
 1366              	.LVL116:
 1367              	.L121:
 1368              		.cfi_restore_state
ARM GAS  C:\Users\Moi\AppData\Local\Temp\cc4NwxyC.s 			page 25


 1369              	.LBB313:
 1370              	.LBB312:
 1371              	.LBB311:
 1372              		.loc 3 367 0
 1373 009e 0648     		ldr	r0, .L123+12
 1374 00a0 FFF7FEFF 		bl	chSysHalt
 1375              	.LVL117:
 1376 00a4 F2E7     		b	.L115
 1377              	.L122:
 1378              	.LBE311:
 1379              	.LBE312:
 1380              	.LBE313:
 1381              		.loc 1 261 0
 1382 00a6 FFF7FEFF 		bl	__stack_chk_fail
 1383              	.LVL118:
 1384              	.L124:
 1385 00aa 00BF     		.align	2
 1386              	.L123:
 1387 00ac 00000000 		.word	__stack_chk_guard
 1388 00b0 00000000 		.word	.LANCHOR3
 1389 00b4 00000000 		.word	ch
 1390 00b8 00000000 		.word	.LANCHOR0
 1391              		.cfi_endproc
 1392              	.LFE269:
 1393              		.size	sduStop, .-sduStop
 1394              		.section	.text.sduConfigureHookI,"ax",%progbits
 1395              		.align	1
 1396              		.p2align 4,,15
 1397              		.global	sduConfigureHookI
 1398              		.syntax unified
 1399              		.thumb
 1400              		.thumb_func
 1401              		.fpu fpv4-sp-d16
 1402              		.type	sduConfigureHookI, %function
 1403              	sduConfigureHookI:
 1404              	.LFB270:
 1405              		.loc 1 270 0
 1406              		.cfi_startproc
 1407              		@ args = 0, pretend = 0, frame = 8
 1408              		@ frame_needed = 0, uses_anonymous_args = 0
 1409              	.LVL119:
 1410 0000 F0B5     		push	{r4, r5, r6, r7, lr}
 1411              		.cfi_def_cfa_offset 20
 1412              		.cfi_offset 4, -20
 1413              		.cfi_offset 5, -16
 1414              		.cfi_offset 6, -12
 1415              		.cfi_offset 7, -8
 1416              		.cfi_offset 14, -4
 1417 0002 174E     		ldr	r6, .L130
 1418              		.loc 1 271 0
 1419 0004 D0F85422 		ldr	r2, [r0, #596]
 1420              		.loc 1 270 0
 1421 0008 3368     		ldr	r3, [r6]
 1422              		.loc 1 271 0
 1423 000a 1568     		ldr	r5, [r2]
 1424              	.LVL120:
 1425              		.loc 1 270 0
ARM GAS  C:\Users\Moi\AppData\Local\Temp\cc4NwxyC.s 			page 26


 1426 000c 83B0     		sub	sp, sp, #12
 1427              		.cfi_def_cfa_offset 32
 1428              		.loc 1 273 0
 1429 000e 00F10C07 		add	r7, r0, #12
 1430              		.loc 1 270 0
 1431 0012 0446     		mov	r4, r0
 1432              		.loc 1 273 0
 1433 0014 3846     		mov	r0, r7
 1434              	.LVL121:
 1435              		.loc 1 270 0
 1436 0016 0193     		str	r3, [sp, #4]
 1437              		.loc 1 273 0
 1438 0018 FFF7FEFF 		bl	chIQResetI
 1439              	.LVL122:
 1440              		.loc 1 274 0
 1441 001c 04F13000 		add	r0, r4, #48
 1442 0020 FFF7FEFF 		bl	chOQResetI
 1443              	.LVL123:
 1444              	.LBB314:
 1445              	.LBB315:
 1446              		.loc 6 798 0
 1447 0024 201D     		adds	r0, r4, #4
 1448              	.LVL124:
 1449 0026 0121     		movs	r1, #1
 1450 0028 FFF7FEFF 		bl	chEvtBroadcastFlagsI
 1451              	.LVL125:
 1452              	.LBE315:
 1453              	.LBE314:
 1454              		.loc 1 278 0
 1455 002c D4F85432 		ldr	r3, [r4, #596]
 1456 0030 5979     		ldrb	r1, [r3, #5]	@ zero_extendqisi2
 1457              		.loc 1 279 0
 1458 0032 05EB8103 		add	r3, r5, r1, lsl #2
 1459              		.loc 1 278 0
 1460 0036 3A46     		mov	r2, r7
 1461              		.loc 1 279 0
 1462 0038 DB68     		ldr	r3, [r3, #12]
 1463              		.loc 1 278 0
 1464 003a 2846     		mov	r0, r5
 1465 003c 5B8A     		ldrh	r3, [r3, #18]
 1466 003e FFF7FEFF 		bl	usbPrepareQueuedReceive
 1467              	.LVL126:
 1468              		.loc 1 280 0
 1469 0042 019A     		ldr	r2, [sp, #4]
 1470 0044 3368     		ldr	r3, [r6]
 1471 0046 9A42     		cmp	r2, r3
 1472 0048 08D1     		bne	.L129
 1473 004a D4F85432 		ldr	r3, [r4, #596]
 1474 004e 5979     		ldrb	r1, [r3, #5]	@ zero_extendqisi2
 1475 0050 2846     		mov	r0, r5
 1476              		.loc 1 281 0
 1477 0052 03B0     		add	sp, sp, #12
 1478              		.cfi_remember_state
 1479              		.cfi_def_cfa_offset 20
 1480              		@ sp needed
 1481 0054 BDE8F040 		pop	{r4, r5, r6, r7, lr}
 1482              		.cfi_restore 14
ARM GAS  C:\Users\Moi\AppData\Local\Temp\cc4NwxyC.s 			page 27


 1483              		.cfi_restore 7
 1484              		.cfi_restore 6
 1485              		.cfi_restore 5
 1486              		.cfi_restore 4
 1487              		.cfi_def_cfa_offset 0
 1488              	.LVL127:
 1489              		.loc 1 280 0
 1490 0058 FFF7FEBF 		b	usbStartReceiveI
 1491              	.LVL128:
 1492              	.L129:
 1493              		.cfi_restore_state
 1494 005c FFF7FEFF 		bl	__stack_chk_fail
 1495              	.LVL129:
 1496              	.L131:
 1497              		.align	2
 1498              	.L130:
 1499 0060 00000000 		.word	__stack_chk_guard
 1500              		.cfi_endproc
 1501              	.LFE270:
 1502              		.size	sduConfigureHookI, .-sduConfigureHookI
 1503              		.section	.text.sduRequestsHook,"ax",%progbits
 1504              		.align	1
 1505              		.p2align 4,,15
 1506              		.global	sduRequestsHook
 1507              		.syntax unified
 1508              		.thumb
 1509              		.thumb_func
 1510              		.fpu fpv4-sp-d16
 1511              		.type	sduRequestsHook, %function
 1512              	sduRequestsHook:
 1513              	.LFB271:
 1514              		.loc 1 298 0
 1515              		.cfi_startproc
 1516              		@ args = 0, pretend = 0, frame = 8
 1517              		@ frame_needed = 0, uses_anonymous_args = 0
 1518              	.LVL130:
 1519 0000 00B5     		push	{lr}
 1520              		.cfi_def_cfa_offset 4
 1521              		.cfi_offset 14, -4
 1522              		.loc 1 300 0
 1523 0002 90F84430 		ldrb	r3, [r0, #68]	@ zero_extendqisi2
 1524              		.loc 1 298 0
 1525 0006 144A     		ldr	r2, .L143
 1526 0008 83B0     		sub	sp, sp, #12
 1527              		.cfi_def_cfa_offset 16
 1528              		.loc 1 300 0
 1529 000a 03F06003 		and	r3, r3, #96
 1530              		.loc 1 298 0
 1531 000e 1168     		ldr	r1, [r2]
 1532 0010 0191     		str	r1, [sp, #4]
 1533              		.loc 1 300 0
 1534 0012 202B     		cmp	r3, #32
 1535 0014 07D0     		beq	.L140
 1536              	.L138:
 1537              		.loc 1 313 0
 1538 0016 0020     		movs	r0, #0
 1539              	.LVL131:
ARM GAS  C:\Users\Moi\AppData\Local\Temp\cc4NwxyC.s 			page 28


 1540              	.L133:
 1541              		.loc 1 317 0
 1542 0018 0199     		ldr	r1, [sp, #4]
 1543 001a 1368     		ldr	r3, [r2]
 1544 001c 9942     		cmp	r1, r3
 1545 001e 18D1     		bne	.L141
 1546 0020 03B0     		add	sp, sp, #12
 1547              		.cfi_remember_state
 1548              		.cfi_def_cfa_offset 4
 1549              		@ sp needed
 1550 0022 5DF804FB 		ldr	pc, [sp], #4
 1551              	.LVL132:
 1552              	.L140:
 1553              		.cfi_restore_state
 1554              		.loc 1 301 0
 1555 0026 90F84530 		ldrb	r3, [r0, #69]	@ zero_extendqisi2
 1556 002a 202B     		cmp	r3, #32
 1557 002c F3D3     		bcc	.L138
 1558 002e 212B     		cmp	r3, #33
 1559 0030 07D8     		bhi	.L142
 1560              		.loc 1 303 0
 1561 0032 0A4B     		ldr	r3, .L143+4
 1562 0034 8363     		str	r3, [r0, #56]
 1563 0036 0721     		movs	r1, #7
 1564 0038 0023     		movs	r3, #0
 1565 003a C0E90F13 		strd	r1, r3, [r0, #60]
 1566              		.loc 1 304 0
 1567 003e 0120     		movs	r0, #1
 1568              	.LVL133:
 1569 0040 EAE7     		b	.L133
 1570              	.LVL134:
 1571              	.L142:
 1572              		.loc 1 301 0
 1573 0042 222B     		cmp	r3, #34
 1574 0044 E7D1     		bne	.L138
 1575              		.loc 1 310 0
 1576 0046 0023     		movs	r3, #0
 1577 0048 C0E90E33 		strd	r3, r3, [r0, #56]
 1578 004c 0364     		str	r3, [r0, #64]
 1579              		.loc 1 311 0
 1580 004e 0120     		movs	r0, #1
 1581              	.LVL135:
 1582 0050 E2E7     		b	.L133
 1583              	.L141:
 1584              		.loc 1 317 0
 1585 0052 FFF7FEFF 		bl	__stack_chk_fail
 1586              	.LVL136:
 1587              	.L144:
 1588 0056 00BF     		.align	2
 1589              	.L143:
 1590 0058 00000000 		.word	__stack_chk_guard
 1591 005c 00000000 		.word	.LANCHOR4
 1592              		.cfi_endproc
 1593              	.LFE271:
 1594              		.size	sduRequestsHook, .-sduRequestsHook
 1595              		.section	.text.sduDataTransmitted,"ax",%progbits
 1596              		.align	1
ARM GAS  C:\Users\Moi\AppData\Local\Temp\cc4NwxyC.s 			page 29


 1597              		.p2align 4,,15
 1598              		.global	sduDataTransmitted
 1599              		.syntax unified
 1600              		.thumb
 1601              		.thumb_func
 1602              		.fpu fpv4-sp-d16
 1603              		.type	sduDataTransmitted, %function
 1604              	sduDataTransmitted:
 1605              	.LFB272:
 1606              		.loc 1 327 0
 1607              		.cfi_startproc
 1608              		@ args = 0, pretend = 0, frame = 8
 1609              		@ frame_needed = 0, uses_anonymous_args = 0
 1610              	.LVL137:
 1611 0000 2DE9F043 		push	{r4, r5, r6, r7, r8, r9, lr}
 1612              		.cfi_def_cfa_offset 28
 1613              		.cfi_offset 4, -28
 1614              		.cfi_offset 5, -24
 1615              		.cfi_offset 6, -20
 1616              		.cfi_offset 7, -16
 1617              		.cfi_offset 8, -12
 1618              		.cfi_offset 9, -8
 1619              		.cfi_offset 14, -4
 1620              		.loc 1 329 0
 1621 0004 00EB8103 		add	r3, r0, r1, lsl #2
 1622              		.loc 1 327 0
 1623 0008 2A4E     		ldr	r6, .L160
 1624              		.loc 1 329 0
 1625 000a 9C69     		ldr	r4, [r3, #24]
 1626              	.LVL138:
 1627              		.loc 1 327 0
 1628 000c 3368     		ldr	r3, [r6]
 1629 000e 83B0     		sub	sp, sp, #12
 1630              		.cfi_def_cfa_offset 40
 1631              		.loc 1 327 0
 1632 0010 0193     		str	r3, [sp, #4]
 1633              		.loc 1 331 0
 1634 0012 002C     		cmp	r4, #0
 1635 0014 3DD0     		beq	.L145
 1636              	.LVL139:
 1637 0016 0746     		mov	r7, r0
 1638 0018 8846     		mov	r8, r1
 1639              	.LBB316:
 1640              	.LBB317:
 1641              	.LBB318:
 1642              	.LBB319:
 1643              	.LBB320:
 1644              	.LBB321:
 1645              	.LBB322:
 1646              		.loc 4 546 0
 1647 001a 4FF02009 		mov	r9, #32
 1648              		.syntax unified
 1649              	@ 546 "..//ChibiOS//os/ext/CMSIS/include/core_cmFunc.h" 1
 1650 001e 89F31188 		MSR basepri, r9
 1651              	@ 0 "" 2
 1652              	.LVL140:
 1653              		.thumb
ARM GAS  C:\Users\Moi\AppData\Local\Temp\cc4NwxyC.s 			page 30


 1654              		.syntax unified
 1655              	.LBE322:
 1656              	.LBE321:
 1657              	.LBE320:
 1658              	.LBE319:
 1659              		.loc 3 389 0
 1660 0022 FFF7FEFF 		bl	_stats_start_measure_crit_isr
 1661              	.LVL141:
 1662              		.loc 3 390 0
 1663 0026 FFF7FEFF 		bl	_dbg_check_lock_from_isr
 1664              	.LVL142:
 1665              	.LBE318:
 1666              	.LBE317:
 1667              	.LBE316:
 1668              	.LBB323:
 1669              	.LBB324:
 1670              		.loc 6 798 0
 1671 002a 201D     		adds	r0, r4, #4
 1672              	.LVL143:
 1673 002c 0821     		movs	r1, #8
 1674 002e FFF7FEFF 		bl	chEvtBroadcastFlagsI
 1675              	.LVL144:
 1676              	.LBE324:
 1677              	.LBE323:
 1678              	.LBB325:
 1679              	.LBB326:
 1680              		.loc 2 355 0
 1681 0032 FFF7FEFF 		bl	chDbgCheckClassI
 1682              	.LVL145:
 1683              		.loc 2 357 0
 1684 0036 D4E90F23 		ldrd	r2, r3, [r4, #60]
 1685 003a A56B     		ldr	r5, [r4, #56]
 1686 003c 9B1A     		subs	r3, r3, r2
 1687              	.LBE326:
 1688              	.LBE325:
 1689              		.loc 1 339 0
 1690 003e 5D1B     		subs	r5, r3, r5
 1691 0040 2ED1     		bne	.L158
 1692              		.loc 1 349 0
 1693 0042 07EB8803 		add	r3, r7, r8, lsl #2
 1694 0046 DB68     		ldr	r3, [r3, #12]
 1695 0048 5A69     		ldr	r2, [r3, #20]
 1696 004a 5568     		ldr	r5, [r2, #4]
 1697 004c D5B1     		cbz	r5, .L148
 1698              		.loc 1 351 0 discriminator 1
 1699 004e 1B8A     		ldrh	r3, [r3, #16]
 1700 0050 013B     		subs	r3, r3, #1
 1701              		.loc 1 349 0 discriminator 1
 1702 0052 1D40     		ands	r5, r3, r5
 1703 0054 16D1     		bne	.L148
 1704              	.LBB327:
 1705              	.LBB328:
 1706              	.LBB329:
 1707              		.loc 3 408 0
 1708 0056 FFF7FEFF 		bl	_dbg_check_unlock_from_isr
 1709              	.LVL146:
 1710              		.loc 3 409 0
ARM GAS  C:\Users\Moi\AppData\Local\Temp\cc4NwxyC.s 			page 31


 1711 005a FFF7FEFF 		bl	_stats_stop_measure_crit_isr
 1712              	.LVL147:
 1713              	.LBB330:
 1714              	.LBB331:
 1715              	.LBB332:
 1716              	.LBB333:
 1717              		.loc 4 546 0
 1718              		.syntax unified
 1719              	@ 546 "..//ChibiOS//os/ext/CMSIS/include/core_cmFunc.h" 1
 1720 005e 85F31188 		MSR basepri, r5
 1721              	@ 0 "" 2
 1722              	.LVL148:
 1723              		.thumb
 1724              		.syntax unified
 1725              	.L157:
 1726              	.LBE333:
 1727              	.LBE332:
 1728              	.LBE331:
 1729              	.LBE330:
 1730              	.LBE329:
 1731              	.LBE328:
 1732              	.LBE327:
 1733              		.loc 1 358 0
 1734 0062 2B46     		mov	r3, r5
 1735 0064 04F13002 		add	r2, r4, #48
 1736 0068 4146     		mov	r1, r8
 1737 006a 3846     		mov	r0, r7
 1738 006c FFF7FEFF 		bl	usbPrepareQueuedTransmit
 1739              	.LVL149:
 1740              	.LBB334:
 1741              	.LBB335:
 1742              	.LBB336:
 1743              	.LBB337:
 1744              	.LBB338:
 1745              	.LBB339:
 1746              	.LBB340:
 1747              		.loc 4 546 0
 1748              		.syntax unified
 1749              	@ 546 "..//ChibiOS//os/ext/CMSIS/include/core_cmFunc.h" 1
 1750 0070 89F31188 		MSR basepri, r9
 1751              	@ 0 "" 2
 1752              	.LVL150:
 1753              		.thumb
 1754              		.syntax unified
 1755              	.LBE340:
 1756              	.LBE339:
 1757              	.LBE338:
 1758              	.LBE337:
 1759              		.loc 3 389 0
 1760 0074 FFF7FEFF 		bl	_stats_start_measure_crit_isr
 1761              	.LVL151:
 1762              		.loc 3 390 0
 1763 0078 FFF7FEFF 		bl	_dbg_check_lock_from_isr
 1764              	.LVL152:
 1765              	.LBE336:
 1766              	.LBE335:
 1767              	.LBE334:
ARM GAS  C:\Users\Moi\AppData\Local\Temp\cc4NwxyC.s 			page 32


 1768              		.loc 1 361 0
 1769 007c 4146     		mov	r1, r8
 1770 007e 3846     		mov	r0, r7
 1771 0080 FFF7FEFF 		bl	usbStartTransmitI
 1772              	.LVL153:
 1773              	.L148:
 1774              	.LBB341:
 1775              	.LBB342:
 1776              	.LBB343:
 1777              		.loc 3 408 0
 1778 0084 FFF7FEFF 		bl	_dbg_check_unlock_from_isr
 1779              	.LVL154:
 1780              		.loc 3 409 0
 1781 0088 FFF7FEFF 		bl	_stats_stop_measure_crit_isr
 1782              	.LVL155:
 1783              	.LBB344:
 1784              	.LBB345:
 1785              	.LBB346:
 1786              	.LBB347:
 1787              		.loc 4 546 0
 1788 008c 0023     		movs	r3, #0
 1789              		.syntax unified
 1790              	@ 546 "..//ChibiOS//os/ext/CMSIS/include/core_cmFunc.h" 1
 1791 008e 83F31188 		MSR basepri, r3
 1792              	@ 0 "" 2
 1793              	.LVL156:
 1794              		.thumb
 1795              		.syntax unified
 1796              	.L145:
 1797              	.LBE347:
 1798              	.LBE346:
 1799              	.LBE345:
 1800              	.LBE344:
 1801              	.LBE343:
 1802              	.LBE342:
 1803              	.LBE341:
 1804              		.loc 1 366 0
 1805 0092 019A     		ldr	r2, [sp, #4]
 1806 0094 3368     		ldr	r3, [r6]
 1807 0096 9A42     		cmp	r2, r3
 1808 0098 0AD1     		bne	.L159
 1809 009a 03B0     		add	sp, sp, #12
 1810              		.cfi_remember_state
 1811              		.cfi_def_cfa_offset 28
 1812              		@ sp needed
 1813 009c BDE8F083 		pop	{r4, r5, r6, r7, r8, r9, pc}
 1814              	.LVL157:
 1815              	.L158:
 1816              		.cfi_restore_state
 1817              	.LBB348:
 1818              	.LBB349:
 1819              	.LBB350:
 1820              		.loc 3 408 0
 1821 00a0 FFF7FEFF 		bl	_dbg_check_unlock_from_isr
 1822              	.LVL158:
 1823              		.loc 3 409 0
 1824 00a4 FFF7FEFF 		bl	_stats_stop_measure_crit_isr
ARM GAS  C:\Users\Moi\AppData\Local\Temp\cc4NwxyC.s 			page 33


 1825              	.LVL159:
 1826              	.LBB351:
 1827              	.LBB352:
 1828              	.LBB353:
 1829              	.LBB354:
 1830              		.loc 4 546 0
 1831 00a8 0023     		movs	r3, #0
 1832              		.syntax unified
 1833              	@ 546 "..//ChibiOS//os/ext/CMSIS/include/core_cmFunc.h" 1
 1834 00aa 83F31188 		MSR basepri, r3
 1835              	@ 0 "" 2
 1836              	.LVL160:
 1837              		.thumb
 1838              		.syntax unified
 1839 00ae D8E7     		b	.L157
 1840              	.LVL161:
 1841              	.L159:
 1842              	.LBE354:
 1843              	.LBE353:
 1844              	.LBE352:
 1845              	.LBE351:
 1846              	.LBE350:
 1847              	.LBE349:
 1848              	.LBE348:
 1849              		.loc 1 366 0
 1850 00b0 FFF7FEFF 		bl	__stack_chk_fail
 1851              	.LVL162:
 1852              	.L161:
 1853              		.align	2
 1854              	.L160:
 1855 00b4 00000000 		.word	__stack_chk_guard
 1856              		.cfi_endproc
 1857              	.LFE272:
 1858              		.size	sduDataTransmitted, .-sduDataTransmitted
 1859              		.section	.text.sduDataReceived,"ax",%progbits
 1860              		.align	1
 1861              		.p2align 4,,15
 1862              		.global	sduDataReceived
 1863              		.syntax unified
 1864              		.thumb
 1865              		.thumb_func
 1866              		.fpu fpv4-sp-d16
 1867              		.type	sduDataReceived, %function
 1868              	sduDataReceived:
 1869              	.LFB273:
 1870              		.loc 1 376 0
 1871              		.cfi_startproc
 1872              		@ args = 0, pretend = 0, frame = 8
 1873              		@ frame_needed = 0, uses_anonymous_args = 0
 1874              	.LVL163:
 1875 0000 2DE9F047 		push	{r4, r5, r6, r7, r8, r9, r10, lr}
 1876              		.cfi_def_cfa_offset 32
 1877              		.cfi_offset 4, -32
 1878              		.cfi_offset 5, -28
 1879              		.cfi_offset 6, -24
 1880              		.cfi_offset 7, -20
 1881              		.cfi_offset 8, -16
ARM GAS  C:\Users\Moi\AppData\Local\Temp\cc4NwxyC.s 			page 34


 1882              		.cfi_offset 9, -12
 1883              		.cfi_offset 10, -8
 1884              		.cfi_offset 14, -4
 1885              		.loc 1 378 0
 1886 0004 01F10903 		add	r3, r1, #9
 1887              		.loc 1 376 0
 1888 0008 274E     		ldr	r6, .L172
 1889              		.loc 1 378 0
 1890 000a 50F82340 		ldr	r4, [r0, r3, lsl #2]
 1891              	.LVL164:
 1892              		.loc 1 376 0
 1893 000e 3368     		ldr	r3, [r6]
 1894 0010 82B0     		sub	sp, sp, #8
 1895              		.cfi_def_cfa_offset 40
 1896              		.loc 1 376 0
 1897 0012 0193     		str	r3, [sp, #4]
 1898              		.loc 1 380 0
 1899 0014 14B3     		cbz	r4, .L162
 1900              	.LVL165:
 1901 0016 8846     		mov	r8, r1
 1902 0018 0746     		mov	r7, r0
 1903              	.LBB355:
 1904              	.LBB356:
 1905              	.LBB357:
 1906              	.LBB358:
 1907              	.LBB359:
 1908              	.LBB360:
 1909              	.LBB361:
 1910              		.loc 4 546 0
 1911 001a 4FF02009 		mov	r9, #32
 1912              		.syntax unified
 1913              	@ 546 "..//ChibiOS//os/ext/CMSIS/include/core_cmFunc.h" 1
 1914 001e 89F31188 		MSR basepri, r9
 1915              	@ 0 "" 2
 1916              	.LVL166:
 1917              		.thumb
 1918              		.syntax unified
 1919              	.LBE361:
 1920              	.LBE360:
 1921              	.LBE359:
 1922              	.LBE358:
 1923              		.loc 3 389 0
 1924 0022 FFF7FEFF 		bl	_stats_start_measure_crit_isr
 1925              	.LVL167:
 1926              		.loc 3 390 0
 1927 0026 FFF7FEFF 		bl	_dbg_check_lock_from_isr
 1928              	.LVL168:
 1929              	.LBE357:
 1930              	.LBE356:
 1931              	.LBE355:
 1932              	.LBB362:
 1933              	.LBB363:
 1934              		.loc 6 798 0
 1935 002a 0421     		movs	r1, #4
 1936 002c 201D     		adds	r0, r4, #4
 1937              	.LVL169:
 1938 002e FFF7FEFF 		bl	chEvtBroadcastFlagsI
ARM GAS  C:\Users\Moi\AppData\Local\Temp\cc4NwxyC.s 			page 35


 1939              	.LVL170:
 1940              	.LBE363:
 1941              	.LBE362:
 1942              		.loc 1 389 0
 1943 0032 07EB8803 		add	r3, r7, r8, lsl #2
 1944 0036 DB68     		ldr	r3, [r3, #12]
 1945 0038 B3F812A0 		ldrh	r10, [r3, #18]
 1946              	.LVL171:
 1947              	.LBB364:
 1948              	.LBB365:
 1949              		.loc 2 288 0
 1950 003c FFF7FEFF 		bl	chDbgCheckClassI
 1951              	.LVL172:
 1952              		.loc 2 290 0
 1953 0040 D4E90612 		ldrd	r1, r2, [r4, #24]
 1954 0044 6569     		ldr	r5, [r4, #20]
 1955 0046 521A     		subs	r2, r2, r1
 1956 0048 551B     		subs	r5, r2, r5
 1957              	.LVL173:
 1958              	.LBE365:
 1959              	.LBE364:
 1960              		.loc 1 390 0
 1961 004a AA45     		cmp	r10, r5
 1962 004c 0DD9     		bls	.L170
 1963              	.L164:
 1964              	.LBB366:
 1965              	.LBB367:
 1966              	.LBB368:
 1967              		.loc 3 408 0
 1968 004e FFF7FEFF 		bl	_dbg_check_unlock_from_isr
 1969              	.LVL174:
 1970              		.loc 3 409 0
 1971 0052 FFF7FEFF 		bl	_stats_stop_measure_crit_isr
 1972              	.LVL175:
 1973              	.LBB369:
 1974              	.LBB370:
 1975              	.LBB371:
 1976              	.LBB372:
 1977              		.loc 4 546 0
 1978 0056 0023     		movs	r3, #0
 1979              		.syntax unified
 1980              	@ 546 "..//ChibiOS//os/ext/CMSIS/include/core_cmFunc.h" 1
 1981 0058 83F31188 		MSR basepri, r3
 1982              	@ 0 "" 2
 1983              	.LVL176:
 1984              		.thumb
 1985              		.syntax unified
 1986              	.L162:
 1987              	.LBE372:
 1988              	.LBE371:
 1989              	.LBE370:
 1990              	.LBE369:
 1991              	.LBE368:
 1992              	.LBE367:
 1993              	.LBE366:
 1994              		.loc 1 402 0
 1995 005c 019A     		ldr	r2, [sp, #4]
ARM GAS  C:\Users\Moi\AppData\Local\Temp\cc4NwxyC.s 			page 36


 1996 005e 3368     		ldr	r3, [r6]
 1997 0060 9A42     		cmp	r2, r3
 1998 0062 1ED1     		bne	.L171
 1999 0064 02B0     		add	sp, sp, #8
 2000              		.cfi_remember_state
 2001              		.cfi_def_cfa_offset 32
 2002              		@ sp needed
 2003 0066 BDE8F087 		pop	{r4, r5, r6, r7, r8, r9, r10, pc}
 2004              	.LVL177:
 2005              	.L170:
 2006              		.cfi_restore_state
 2007              	.LBB373:
 2008              	.LBB374:
 2009              	.LBB375:
 2010              		.loc 3 408 0
 2011 006a FFF7FEFF 		bl	_dbg_check_unlock_from_isr
 2012              	.LVL178:
 2013              		.loc 3 409 0
 2014 006e FFF7FEFF 		bl	_stats_stop_measure_crit_isr
 2015              	.LVL179:
 2016              	.LBB376:
 2017              	.LBB377:
 2018              	.LBB378:
 2019              	.LBB379:
 2020              		.loc 4 546 0
 2021 0072 0023     		movs	r3, #0
 2022              		.syntax unified
 2023              	@ 546 "..//ChibiOS//os/ext/CMSIS/include/core_cmFunc.h" 1
 2024 0074 83F31188 		MSR basepri, r3
 2025              	@ 0 "" 2
 2026              	.LVL180:
 2027              		.thumb
 2028              		.syntax unified
 2029              	.LBE379:
 2030              	.LBE378:
 2031              	.LBE377:
 2032              	.LBE376:
 2033              	.LBE375:
 2034              	.LBE374:
 2035              	.LBE373:
 2036              		.loc 1 395 0
 2037 0078 B5FBFAF3 		udiv	r3, r5, r10
 2038              		.loc 1 396 0
 2039 007c 04F10C02 		add	r2, r4, #12
 2040 0080 0AFB03F3 		mul	r3, r10, r3
 2041              	.LVL181:
 2042 0084 4146     		mov	r1, r8
 2043 0086 3846     		mov	r0, r7
 2044 0088 FFF7FEFF 		bl	usbPrepareQueuedReceive
 2045              	.LVL182:
 2046              	.LBB380:
 2047              	.LBB381:
 2048              	.LBB382:
 2049              	.LBB383:
 2050              	.LBB384:
 2051              	.LBB385:
 2052              	.LBB386:
ARM GAS  C:\Users\Moi\AppData\Local\Temp\cc4NwxyC.s 			page 37


 2053              		.loc 4 546 0
 2054              		.syntax unified
 2055              	@ 546 "..//ChibiOS//os/ext/CMSIS/include/core_cmFunc.h" 1
 2056 008c 89F31188 		MSR basepri, r9
 2057              	@ 0 "" 2
 2058              	.LVL183:
 2059              		.thumb
 2060              		.syntax unified
 2061              	.LBE386:
 2062              	.LBE385:
 2063              	.LBE384:
 2064              	.LBE383:
 2065              		.loc 3 389 0
 2066 0090 FFF7FEFF 		bl	_stats_start_measure_crit_isr
 2067              	.LVL184:
 2068              		.loc 3 390 0
 2069 0094 FFF7FEFF 		bl	_dbg_check_lock_from_isr
 2070              	.LVL185:
 2071              	.LBE382:
 2072              	.LBE381:
 2073              	.LBE380:
 2074              		.loc 1 399 0
 2075 0098 4146     		mov	r1, r8
 2076 009a 3846     		mov	r0, r7
 2077 009c FFF7FEFF 		bl	usbStartReceiveI
 2078              	.LVL186:
 2079 00a0 D5E7     		b	.L164
 2080              	.LVL187:
 2081              	.L171:
 2082              		.loc 1 402 0
 2083 00a2 FFF7FEFF 		bl	__stack_chk_fail
 2084              	.LVL188:
 2085              	.L173:
 2086 00a6 00BF     		.align	2
 2087              	.L172:
 2088 00a8 00000000 		.word	__stack_chk_guard
 2089              		.cfi_endproc
 2090              	.LFE273:
 2091              		.size	sduDataReceived, .-sduDataReceived
 2092              		.section	.text.sduInterruptTransmitted,"ax",%progbits
 2093              		.align	1
 2094              		.p2align 4,,15
 2095              		.global	sduInterruptTransmitted
 2096              		.syntax unified
 2097              		.thumb
 2098              		.thumb_func
 2099              		.fpu fpv4-sp-d16
 2100              		.type	sduInterruptTransmitted, %function
 2101              	sduInterruptTransmitted:
 2102              	.LFB274:
 2103              		.loc 1 412 0
 2104              		.cfi_startproc
 2105              		@ args = 0, pretend = 0, frame = 8
 2106              		@ frame_needed = 0, uses_anonymous_args = 0
 2107              	.LVL189:
 2108 0000 00B5     		push	{lr}
 2109              		.cfi_def_cfa_offset 4
ARM GAS  C:\Users\Moi\AppData\Local\Temp\cc4NwxyC.s 			page 38


 2110              		.cfi_offset 14, -4
 2111 0002 064B     		ldr	r3, .L178
 2112 0004 83B0     		sub	sp, sp, #12
 2113              		.cfi_def_cfa_offset 16
 2114              		.loc 1 412 0
 2115 0006 1A68     		ldr	r2, [r3]
 2116 0008 0192     		str	r2, [sp, #4]
 2117              		.loc 1 416 0
 2118 000a 019A     		ldr	r2, [sp, #4]
 2119 000c 1B68     		ldr	r3, [r3]
 2120 000e 9A42     		cmp	r2, r3
 2121 0010 02D1     		bne	.L177
 2122 0012 03B0     		add	sp, sp, #12
 2123              		.cfi_remember_state
 2124              		.cfi_def_cfa_offset 4
 2125              		@ sp needed
 2126 0014 5DF804FB 		ldr	pc, [sp], #4
 2127              	.L177:
 2128              		.cfi_restore_state
 2129 0018 FFF7FEFF 		bl	__stack_chk_fail
 2130              	.LVL190:
 2131              	.L179:
 2132              		.align	2
 2133              	.L178:
 2134 001c 00000000 		.word	__stack_chk_guard
 2135              		.cfi_endproc
 2136              	.LFE274:
 2137              		.size	sduInterruptTransmitted, .-sduInterruptTransmitted
 2138              		.section	.data.linecoding,"aw",%progbits
 2139              		.align	2
 2140              		.set	.LANCHOR4,. + 0
 2141              		.type	linecoding, %object
 2142              		.size	linecoding, 7
 2143              	linecoding:
 2144 0000 00       		.byte	0
 2145 0001 96       		.byte	-106
 2146 0002 00       		.byte	0
 2147 0003 00       		.byte	0
 2148 0004 00       		.byte	0
 2149 0005 00       		.byte	0
 2150 0006 08       		.byte	8
 2151              		.section	.rodata.__func__.7153,"a",%progbits
 2152              		.align	2
 2153              		.set	.LANCHOR0,. + 0
 2154              		.type	__func__.7153, %object
 2155              		.size	__func__.7153, 12
 2156              	__func__.7153:
 2157 0000 63685379 		.ascii	"chSysUnlock\000"
 2157      73556E6C 
 2157      6F636B00 
 2158              		.section	.rodata.__func__.9900,"a",%progbits
 2159              		.align	2
 2160              		.set	.LANCHOR2,. + 0
 2161              		.type	__func__.9900, %object
 2162              		.size	__func__.9900, 9
 2163              	__func__.9900:
 2164 0000 73647553 		.ascii	"sduStart\000"
ARM GAS  C:\Users\Moi\AppData\Local\Temp\cc4NwxyC.s 			page 39


 2164      74617274 
 2164      00
 2165              		.section	.rodata.__func__.9905,"a",%progbits
 2166              		.align	2
 2167              		.set	.LANCHOR3,. + 0
 2168              		.type	__func__.9905, %object
 2169              		.size	__func__.9905, 8
 2170              	__func__.9905:
 2171 0000 73647553 		.ascii	"sduStop\000"
 2171      746F7000 
 2172              		.section	.rodata.vmt,"a",%progbits
 2173              		.align	2
 2174              		.set	.LANCHOR1,. + 0
 2175              		.type	vmt, %object
 2176              		.size	vmt, 32
 2177              	vmt:
 2178 0000 00000000 		.word	write
 2179 0004 00000000 		.word	read
 2180 0008 00000000 		.word	put
 2181 000c 00000000 		.word	get
 2182 0010 00000000 		.word	putt
 2183 0014 00000000 		.word	gett
 2184 0018 00000000 		.word	writet
 2185 001c 00000000 		.word	readt
 2186              		.text
 2187              	.Letext0:
 2188              		.file 7 "c:\\users\\moi\\documents\\_microinfo\\epuck-eclipse\\tools\\gcc-arm-none-eabi-7-2017-q4-
 2189              		.file 8 "c:\\users\\moi\\documents\\_microinfo\\epuck-eclipse\\tools\\gcc-arm-none-eabi-7-2017-q4-
 2190              		.file 9 "c:\\users\\moi\\documents\\_microinfo\\epuck-eclipse\\tools\\gcc-arm-none-eabi-7-2017-q4-
 2191              		.file 10 "..//ChibiOS//os/rt/ports/ARMCMx/compilers/GCC/chtypes.h"
 2192              		.file 11 "..//ChibiOS//os/rt/include/chsystypes.h"
 2193              		.file 12 "..//ChibiOS//os/rt/include/chschd.h"
 2194              		.file 13 "..//ChibiOS//os/ext/CMSIS/include/core_cm4.h"
 2195              		.file 14 "..//ChibiOS//os/ext/CMSIS/ST/system_stm32f4xx.h"
 2196              		.file 15 "..//ChibiOS//os/ext/CMSIS/ST/stm32f407xx.h"
 2197              		.file 16 "..//ChibiOS//os/rt/ports/ARMCMx/chcore.h"
 2198              		.file 17 "..//ChibiOS//os/rt/ports/ARMCMx/chcore_v7m.h"
 2199              		.file 18 "..//ChibiOS//os/rt/include/chdebug.h"
 2200              		.file 19 "..//ChibiOS//os/rt/include/chtm.h"
 2201              		.file 20 "..//ChibiOS//os/rt/include/chstats.h"
 2202              		.file 21 "..//ChibiOS//os/rt/include/chsem.h"
 2203              		.file 22 "..//ChibiOS//os/rt/include/chmtx.h"
 2204              		.file 23 "..//ChibiOS//os/rt/include/chregistry.h"
 2205              		.file 24 "..//ChibiOS//os/hal/ports/STM32/STM32F4xx/stm32_dma.h"
 2206              		.file 25 "..//ChibiOS//os/hal/include/hal_ioblock.h"
 2207              		.file 26 "..//ChibiOS//os/hal/ports/STM32/LLD/GPIOv2/pal_lld.h"
 2208              		.file 27 "..//ChibiOS//os/hal/include/adc.h"
 2209              		.file 28 "..//ChibiOS//os/hal/ports/STM32/STM32F4xx/adc_lld.h"
 2210              		.file 29 "..//ChibiOS//os/hal/include/can.h"
 2211              		.file 30 "..//ChibiOS//os/hal/ports/STM32/LLD/can_lld.h"
 2212              		.file 31 "..//ChibiOS//os/hal/include/dac.h"
 2213              		.file 32 "..//ChibiOS//os/hal/ports/STM32/LLD/DACv1/dac_lld.h"
 2214              		.file 33 "..//ChibiOS//os/hal/include/ext.h"
 2215              		.file 34 "..//ChibiOS//os/hal/ports/STM32/LLD/ext_lld.h"
 2216              		.file 35 "..//ChibiOS//os/hal/include/gpt.h"
 2217              		.file 36 "..//ChibiOS//os/hal/ports/STM32/LLD/TIMv1/gpt_lld.h"
 2218              		.file 37 "..//ChibiOS//os/hal/ports/STM32/LLD/TIMv1/stm32_tim.h"
ARM GAS  C:\Users\Moi\AppData\Local\Temp\cc4NwxyC.s 			page 40


 2219              		.file 38 "..//ChibiOS//os/hal/include/i2c.h"
 2220              		.file 39 "..//ChibiOS//os/hal/ports/STM32/LLD/I2Cv1/i2c_lld.h"
 2221              		.file 40 "..//ChibiOS//os/hal/include/i2s.h"
 2222              		.file 41 "..//ChibiOS//os/hal/ports/STM32/LLD/SPIv1/i2s_lld.h"
 2223              		.file 42 "..//ChibiOS//os/hal/include/pwm.h"
 2224              		.file 43 "..//ChibiOS//os/hal/ports/STM32/LLD/TIMv1/pwm_lld.h"
 2225              		.file 44 "..//ChibiOS//os/hal/include/serial.h"
 2226              		.file 45 "..//ChibiOS//os/hal/ports/STM32/LLD/USARTv1/serial_lld.h"
 2227              		.file 46 "..//ChibiOS//os/hal/include/sdc.h"
 2228              		.file 47 "..//ChibiOS//os/hal/ports/STM32/LLD/sdc_lld.h"
 2229              		.file 48 "..//ChibiOS//os/hal/include/spi.h"
 2230              		.file 49 "..//ChibiOS//os/hal/ports/STM32/LLD/SPIv1/spi_lld.h"
 2231              		.file 50 "..//ChibiOS//os/hal/include/usb.h"
 2232              		.file 51 "..//ChibiOS//os/hal/ports/STM32/LLD/OTGv1/usb_lld.h"
 2233              		.file 52 "..//ChibiOS//os/hal/ports/STM32/LLD/OTGv1/stm32_otg.h"
 2234              		.file 53 "..//ChibiOS//os/hal/include/serial_usb.h"