ARM GAS  C:\Users\Moi\AppData\Local\Temp\cciP7z0x.s 			page 1


   1              		.cpu cortex-m4
   2              		.eabi_attribute 27, 1
   3              		.eabi_attribute 28, 1
   4              		.eabi_attribute 20, 1
   5              		.eabi_attribute 21, 1
   6              		.eabi_attribute 23, 3
   7              		.eabi_attribute 24, 1
   8              		.eabi_attribute 25, 1
   9              		.eabi_attribute 26, 1
  10              		.eabi_attribute 30, 2
  11              		.eabi_attribute 34, 1
  12              		.eabi_attribute 18, 4
  13              		.file	"spi3_slave.c"
  14              		.text
  15              	.Ltext0:
  16              		.cfi_sections	.debug_frame
  17              		.section	.text.spi3SlaveInit,"ax",%progbits
  18              		.align	1
  19              		.p2align 4,,15
  20              		.global	spi3SlaveInit
  21              		.syntax unified
  22              		.thumb
  23              		.thumb_func
  24              		.fpu fpv4-sp-d16
  25              		.type	spi3SlaveInit, %function
  26              	spi3SlaveInit:
  27              	.LFB256:
  28              		.file 1 "..//ChibiOS_ext/os/hal/src/spi3_slave.c"
  29              		.loc 1 62 0
  30              		.cfi_startproc
  31              		@ args = 0, pretend = 0, frame = 8
  32              		@ frame_needed = 0, uses_anonymous_args = 0
  33 0000 00B5     		push	{lr}
  34              		.cfi_def_cfa_offset 4
  35              		.cfi_offset 14, -4
  36 0002 074B     		ldr	r3, .L7
  37 0004 83B0     		sub	sp, sp, #12
  38              		.cfi_def_cfa_offset 16
  39              		.loc 1 62 0
  40 0006 1A68     		ldr	r2, [r3]
  41 0008 0192     		str	r2, [sp, #4]
  42              		.loc 1 64 0
  43 000a 019A     		ldr	r2, [sp, #4]
  44 000c 1B68     		ldr	r3, [r3]
  45 000e 9A42     		cmp	r2, r3
  46 0010 04D1     		bne	.L6
  47              		.loc 1 65 0
  48 0012 03B0     		add	sp, sp, #12
  49              		.cfi_remember_state
  50              		.cfi_def_cfa_offset 4
  51              		@ sp needed
  52 0014 5DF804EB 		ldr	lr, [sp], #4
  53              		.cfi_restore 14
  54              		.cfi_def_cfa_offset 0
  55              		.loc 1 64 0
  56 0018 FFF7FEBF 		b	spi3_slave_lld_init
  57              	.LVL0:
ARM GAS  C:\Users\Moi\AppData\Local\Temp\cciP7z0x.s 			page 2


  58              	.L6:
  59              		.cfi_restore_state
  60 001c FFF7FEFF 		bl	__stack_chk_fail
  61              	.LVL1:
  62              	.L8:
  63              		.align	2
  64              	.L7:
  65 0020 00000000 		.word	__stack_chk_guard
  66              		.cfi_endproc
  67              	.LFE256:
  68              		.size	spi3SlaveInit, .-spi3SlaveInit
  69              		.section	.text.spi3SlaveObjectInit,"ax",%progbits
  70              		.align	1
  71              		.p2align 4,,15
  72              		.global	spi3SlaveObjectInit
  73              		.syntax unified
  74              		.thumb
  75              		.thumb_func
  76              		.fpu fpv4-sp-d16
  77              		.type	spi3SlaveObjectInit, %function
  78              	spi3SlaveObjectInit:
  79              	.LFB257:
  80              		.loc 1 74 0
  81              		.cfi_startproc
  82              		@ args = 0, pretend = 0, frame = 8
  83              		@ frame_needed = 0, uses_anonymous_args = 0
  84              	.LVL2:
  85 0000 10B5     		push	{r4, lr}
  86              		.cfi_def_cfa_offset 8
  87              		.cfi_offset 4, -8
  88              		.cfi_offset 14, -4
  89 0002 0A4B     		ldr	r3, .L14
  90 0004 82B0     		sub	sp, sp, #8
  91              		.cfi_def_cfa_offset 16
  92              		.loc 1 74 0
  93 0006 1A68     		ldr	r2, [r3]
  94 0008 0192     		str	r2, [sp, #4]
  95              	.LBB132:
  96              	.LBB133:
  97              		.file 2 "..//ChibiOS//os/hal/osal/rt/osal.h"
  98              		.loc 2 841 0
  99 000a 0199     		ldr	r1, [sp, #4]
 100 000c 1A68     		ldr	r2, [r3]
 101              	.LBE133:
 102              	.LBE132:
 103              		.loc 1 76 0
 104 000e 0124     		movs	r4, #1
 105              		.loc 1 77 0
 106 0010 0023     		movs	r3, #0
 107              	.LBB137:
 108              	.LBB134:
 109              		.loc 2 841 0
 110 0012 9142     		cmp	r1, r2
 111              	.LBE134:
 112              	.LBE137:
 113              		.loc 1 76 0
 114 0014 0470     		strb	r4, [r0]
ARM GAS  C:\Users\Moi\AppData\Local\Temp\cciP7z0x.s 			page 3


 115              		.loc 1 79 0
 116 0016 C0E90133 		strd	r3, r3, [r0, #4]
 117              	.LVL3:
 118              	.LBB138:
 119              	.LBB135:
 120              		.loc 2 841 0
 121 001a 05D1     		bne	.L13
 122 001c 0C30     		adds	r0, r0, #12
 123              	.LVL4:
 124              	.LBE135:
 125              	.LBE138:
 126              		.loc 1 87 0
 127 001e 02B0     		add	sp, sp, #8
 128              		.cfi_remember_state
 129              		.cfi_def_cfa_offset 8
 130              		@ sp needed
 131 0020 BDE81040 		pop	{r4, lr}
 132              		.cfi_restore 14
 133              		.cfi_restore 4
 134              		.cfi_def_cfa_offset 0
 135              	.LBB139:
 136              	.LBB136:
 137              		.loc 2 841 0
 138 0024 FFF7FEBF 		b	chMtxObjectInit
 139              	.LVL5:
 140              	.L13:
 141              		.cfi_restore_state
 142 0028 FFF7FEFF 		bl	__stack_chk_fail
 143              	.LVL6:
 144              	.L15:
 145              		.align	2
 146              	.L14:
 147 002c 00000000 		.word	__stack_chk_guard
 148              	.LBE136:
 149              	.LBE139:
 150              		.cfi_endproc
 151              	.LFE257:
 152              		.size	spi3SlaveObjectInit, .-spi3SlaveObjectInit
 153              		.section	.text.spi3SlaveStart,"ax",%progbits
 154              		.align	1
 155              		.p2align 4,,15
 156              		.global	spi3SlaveStart
 157              		.syntax unified
 158              		.thumb
 159              		.thumb_func
 160              		.fpu fpv4-sp-d16
 161              		.type	spi3SlaveStart, %function
 162              	spi3SlaveStart:
 163              	.LFB258:
 164              		.loc 1 97 0
 165              		.cfi_startproc
 166              		@ args = 0, pretend = 0, frame = 8
 167              		@ frame_needed = 0, uses_anonymous_args = 0
 168              	.LVL7:
 169 0000 70B5     		push	{r4, r5, r6, lr}
 170              		.cfi_def_cfa_offset 16
 171              		.cfi_offset 4, -16
ARM GAS  C:\Users\Moi\AppData\Local\Temp\cciP7z0x.s 			page 4


 172              		.cfi_offset 5, -12
 173              		.cfi_offset 6, -8
 174              		.cfi_offset 14, -4
 175 0002 1E4D     		ldr	r5, .L28
 176 0004 82B0     		sub	sp, sp, #8
 177              		.cfi_def_cfa_offset 24
 178              		.loc 1 97 0
 179 0006 2B68     		ldr	r3, [r5]
 180 0008 0193     		str	r3, [sp, #4]
 181 000a 0E46     		mov	r6, r1
 182              		.loc 1 99 0
 183 000c 0446     		mov	r4, r0
 184 000e 70B3     		cbz	r0, .L17
 185              		.loc 1 99 0 is_stmt 0 discriminator 3
 186 0010 69B3     		cbz	r1, .L17
 187              	.LVL8:
 188              	.L18:
 189              	.LBB153:
 190              	.LBB154:
 191              	.LBB155:
 192              	.LBB156:
 193              	.LBB157:
 194              	.LBB158:
 195              		.file 3 "..//ChibiOS//os/ext/CMSIS/include/core_cmFunc.h"
 196              		.loc 3 546 0 is_stmt 1
 197 0012 2023     		movs	r3, #32
 198              		.syntax unified
 199              	@ 546 "..//ChibiOS//os/ext/CMSIS/include/core_cmFunc.h" 1
 200 0014 83F31188 		MSR basepri, r3
 201              	@ 0 "" 2
 202              	.LVL9:
 203              		.thumb
 204              		.syntax unified
 205              	.LBE158:
 206              	.LBE157:
 207              	.LBE156:
 208              		.file 4 "..//ChibiOS//os/rt/include/chsys.h"
 209              		.loc 4 349 0
 210 0018 FFF7FEFF 		bl	_stats_start_measure_crit_thd
 211              	.LVL10:
 212              		.loc 4 350 0
 213 001c FFF7FEFF 		bl	_dbg_check_lock
 214              	.LVL11:
 215              	.LBE155:
 216              	.LBE154:
 217              	.LBE153:
 218              		.loc 1 102 0
 219 0020 2378     		ldrb	r3, [r4]	@ zero_extendqisi2
 220 0022 013B     		subs	r3, r3, #1
 221 0024 012B     		cmp	r3, #1
 222 0026 02D9     		bls	.L19
 223              		.loc 1 102 0 is_stmt 0 discriminator 2
 224 0028 1548     		ldr	r0, .L28+4
 225 002a FFF7FEFF 		bl	chSysHalt
 226              	.LVL12:
 227              	.L19:
 228              		.loc 1 105 0 is_stmt 1
ARM GAS  C:\Users\Moi\AppData\Local\Temp\cciP7z0x.s 			page 5


 229 002e 2046     		mov	r0, r4
 230              		.loc 1 104 0
 231 0030 6660     		str	r6, [r4, #4]
 232              		.loc 1 105 0
 233 0032 FFF7FEFF 		bl	spi3_slave_lld_start
 234              	.LVL13:
 235              		.loc 1 106 0
 236 0036 0223     		movs	r3, #2
 237 0038 2370     		strb	r3, [r4]
 238              	.LBB159:
 239              	.LBB160:
 240              	.LBB161:
 241              		.loc 4 360 0
 242 003a FFF7FEFF 		bl	_dbg_check_unlock
 243              	.LVL14:
 244              		.loc 4 361 0
 245 003e FFF7FEFF 		bl	_stats_stop_measure_crit_thd
 246              	.LVL15:
 247              		.loc 4 367 0
 248 0042 104B     		ldr	r3, .L28+8
 249 0044 1A68     		ldr	r2, [r3]
 250 0046 9A42     		cmp	r2, r3
 251 0048 04D0     		beq	.L20
 252 004a 9969     		ldr	r1, [r3, #24]
 253 004c 9368     		ldr	r3, [r2, #8]
 254 004e 8A68     		ldr	r2, [r1, #8]
 255 0050 9A42     		cmp	r2, r3
 256 0052 08D3     		bcc	.L26
 257              	.L20:
 258              	.LVL16:
 259              	.LBB162:
 260              	.LBB163:
 261              	.LBB164:
 262              		.loc 3 546 0
 263 0054 0023     		movs	r3, #0
 264              		.syntax unified
 265              	@ 546 "..//ChibiOS//os/ext/CMSIS/include/core_cmFunc.h" 1
 266 0056 83F31188 		MSR basepri, r3
 267              	@ 0 "" 2
 268              	.LVL17:
 269              		.thumb
 270              		.syntax unified
 271              	.LBE164:
 272              	.LBE163:
 273              	.LBE162:
 274              	.LBE161:
 275              	.LBE160:
 276              	.LBE159:
 277              		.loc 1 108 0
 278 005a 019A     		ldr	r2, [sp, #4]
 279 005c 2B68     		ldr	r3, [r5]
 280 005e 9A42     		cmp	r2, r3
 281 0060 09D1     		bne	.L27
 282 0062 02B0     		add	sp, sp, #8
 283              		.cfi_remember_state
 284              		.cfi_def_cfa_offset 16
 285              		@ sp needed
ARM GAS  C:\Users\Moi\AppData\Local\Temp\cciP7z0x.s 			page 6


 286 0064 70BD     		pop	{r4, r5, r6, pc}
 287              	.LVL18:
 288              	.L26:
 289              		.cfi_restore_state
 290              	.LBB167:
 291              	.LBB166:
 292              	.LBB165:
 293              		.loc 4 367 0
 294 0066 0848     		ldr	r0, .L28+12
 295 0068 FFF7FEFF 		bl	chSysHalt
 296              	.LVL19:
 297 006c F2E7     		b	.L20
 298              	.LVL20:
 299              	.L17:
 300              	.LBE165:
 301              	.LBE166:
 302              	.LBE167:
 303              		.loc 1 99 0 discriminator 4
 304 006e 0448     		ldr	r0, .L28+4
 305              	.LVL21:
 306 0070 FFF7FEFF 		bl	chSysHalt
 307              	.LVL22:
 308 0074 CDE7     		b	.L18
 309              	.L27:
 310              		.loc 1 108 0
 311 0076 FFF7FEFF 		bl	__stack_chk_fail
 312              	.LVL23:
 313              	.L29:
 314 007a 00BF     		.align	2
 315              	.L28:
 316 007c 00000000 		.word	__stack_chk_guard
 317 0080 00000000 		.word	.LANCHOR0
 318 0084 00000000 		.word	ch
 319 0088 00000000 		.word	.LANCHOR1
 320              		.cfi_endproc
 321              	.LFE258:
 322              		.size	spi3SlaveStart, .-spi3SlaveStart
 323              		.section	.text.spi3SlaveStop,"ax",%progbits
 324              		.align	1
 325              		.p2align 4,,15
 326              		.global	spi3SlaveStop
 327              		.syntax unified
 328              		.thumb
 329              		.thumb_func
 330              		.fpu fpv4-sp-d16
 331              		.type	spi3SlaveStop, %function
 332              	spi3SlaveStop:
 333              	.LFB259:
 334              		.loc 1 119 0
 335              		.cfi_startproc
 336              		@ args = 0, pretend = 0, frame = 8
 337              		@ frame_needed = 0, uses_anonymous_args = 0
 338              	.LVL24:
 339 0000 30B5     		push	{r4, r5, lr}
 340              		.cfi_def_cfa_offset 12
 341              		.cfi_offset 4, -12
 342              		.cfi_offset 5, -8
ARM GAS  C:\Users\Moi\AppData\Local\Temp\cciP7z0x.s 			page 7


 343              		.cfi_offset 14, -4
 344 0002 1C4D     		ldr	r5, .L39
 345 0004 83B0     		sub	sp, sp, #12
 346              		.cfi_def_cfa_offset 24
 347              		.loc 1 119 0
 348 0006 2B68     		ldr	r3, [r5]
 349 0008 0193     		str	r3, [sp, #4]
 350              		.loc 1 121 0
 351 000a 0446     		mov	r4, r0
 352 000c 60B3     		cbz	r0, .L36
 353              	.LVL25:
 354              	.L31:
 355              	.LBB181:
 356              	.LBB182:
 357              	.LBB183:
 358              	.LBB184:
 359              	.LBB185:
 360              	.LBB186:
 361              		.loc 3 546 0
 362 000e 2023     		movs	r3, #32
 363              		.syntax unified
 364              	@ 546 "..//ChibiOS//os/ext/CMSIS/include/core_cmFunc.h" 1
 365 0010 83F31188 		MSR basepri, r3
 366              	@ 0 "" 2
 367              	.LVL26:
 368              		.thumb
 369              		.syntax unified
 370              	.LBE186:
 371              	.LBE185:
 372              	.LBE184:
 373              		.loc 4 349 0
 374 0014 FFF7FEFF 		bl	_stats_start_measure_crit_thd
 375              	.LVL27:
 376              		.loc 4 350 0
 377 0018 FFF7FEFF 		bl	_dbg_check_lock
 378              	.LVL28:
 379              	.LBE183:
 380              	.LBE182:
 381              	.LBE181:
 382              		.loc 1 124 0
 383 001c 2378     		ldrb	r3, [r4]	@ zero_extendqisi2
 384 001e 013B     		subs	r3, r3, #1
 385 0020 012B     		cmp	r3, #1
 386 0022 02D9     		bls	.L32
 387              		.loc 1 124 0 is_stmt 0 discriminator 2
 388 0024 1448     		ldr	r0, .L39+4
 389 0026 FFF7FEFF 		bl	chSysHalt
 390              	.LVL29:
 391              	.L32:
 392              		.loc 1 126 0 is_stmt 1
 393 002a 2046     		mov	r0, r4
 394 002c FFF7FEFF 		bl	spi3_slave_lld_stop
 395              	.LVL30:
 396              		.loc 1 127 0
 397 0030 0123     		movs	r3, #1
 398 0032 2370     		strb	r3, [r4]
 399              	.LBB187:
ARM GAS  C:\Users\Moi\AppData\Local\Temp\cciP7z0x.s 			page 8


 400              	.LBB188:
 401              	.LBB189:
 402              		.loc 4 360 0
 403 0034 FFF7FEFF 		bl	_dbg_check_unlock
 404              	.LVL31:
 405              		.loc 4 361 0
 406 0038 FFF7FEFF 		bl	_stats_stop_measure_crit_thd
 407              	.LVL32:
 408              		.loc 4 367 0
 409 003c 0F4B     		ldr	r3, .L39+8
 410 003e 1A68     		ldr	r2, [r3]
 411 0040 9A42     		cmp	r2, r3
 412 0042 04D0     		beq	.L33
 413 0044 9969     		ldr	r1, [r3, #24]
 414 0046 9368     		ldr	r3, [r2, #8]
 415 0048 8A68     		ldr	r2, [r1, #8]
 416 004a 9A42     		cmp	r2, r3
 417 004c 08D3     		bcc	.L37
 418              	.L33:
 419              	.LVL33:
 420              	.LBB190:
 421              	.LBB191:
 422              	.LBB192:
 423              		.loc 3 546 0
 424 004e 0023     		movs	r3, #0
 425              		.syntax unified
 426              	@ 546 "..//ChibiOS//os/ext/CMSIS/include/core_cmFunc.h" 1
 427 0050 83F31188 		MSR basepri, r3
 428              	@ 0 "" 2
 429              	.LVL34:
 430              		.thumb
 431              		.syntax unified
 432              	.LBE192:
 433              	.LBE191:
 434              	.LBE190:
 435              	.LBE189:
 436              	.LBE188:
 437              	.LBE187:
 438              		.loc 1 129 0
 439 0054 019A     		ldr	r2, [sp, #4]
 440 0056 2B68     		ldr	r3, [r5]
 441 0058 9A42     		cmp	r2, r3
 442 005a 09D1     		bne	.L38
 443 005c 03B0     		add	sp, sp, #12
 444              		.cfi_remember_state
 445              		.cfi_def_cfa_offset 12
 446              		@ sp needed
 447 005e 30BD     		pop	{r4, r5, pc}
 448              	.LVL35:
 449              	.L37:
 450              		.cfi_restore_state
 451              	.LBB195:
 452              	.LBB194:
 453              	.LBB193:
 454              		.loc 4 367 0
 455 0060 0748     		ldr	r0, .L39+12
 456 0062 FFF7FEFF 		bl	chSysHalt
ARM GAS  C:\Users\Moi\AppData\Local\Temp\cciP7z0x.s 			page 9


 457              	.LVL36:
 458 0066 F2E7     		b	.L33
 459              	.LVL37:
 460              	.L36:
 461              	.LBE193:
 462              	.LBE194:
 463              	.LBE195:
 464              		.loc 1 121 0 discriminator 2
 465 0068 0348     		ldr	r0, .L39+4
 466              	.LVL38:
 467 006a FFF7FEFF 		bl	chSysHalt
 468              	.LVL39:
 469 006e CEE7     		b	.L31
 470              	.L38:
 471              		.loc 1 129 0
 472 0070 FFF7FEFF 		bl	__stack_chk_fail
 473              	.LVL40:
 474              	.L40:
 475              		.align	2
 476              	.L39:
 477 0074 00000000 		.word	__stack_chk_guard
 478 0078 00000000 		.word	.LANCHOR2
 479 007c 00000000 		.word	ch
 480 0080 00000000 		.word	.LANCHOR1
 481              		.cfi_endproc
 482              	.LFE259:
 483              		.size	spi3SlaveStop, .-spi3SlaveStop
 484              		.section	.text.spi3SlaveStartIgnore,"ax",%progbits
 485              		.align	1
 486              		.p2align 4,,15
 487              		.global	spi3SlaveStartIgnore
 488              		.syntax unified
 489              		.thumb
 490              		.thumb_func
 491              		.fpu fpv4-sp-d16
 492              		.type	spi3SlaveStartIgnore, %function
 493              	spi3SlaveStartIgnore:
 494              	.LFB260:
 495              		.loc 1 144 0
 496              		.cfi_startproc
 497              		@ args = 0, pretend = 0, frame = 8
 498              		@ frame_needed = 0, uses_anonymous_args = 0
 499              	.LVL41:
 500 0000 70B5     		push	{r4, r5, r6, lr}
 501              		.cfi_def_cfa_offset 16
 502              		.cfi_offset 4, -16
 503              		.cfi_offset 5, -12
 504              		.cfi_offset 6, -8
 505              		.cfi_offset 14, -4
 506 0002 1D4D     		ldr	r5, .L56
 507 0004 82B0     		sub	sp, sp, #8
 508              		.cfi_def_cfa_offset 24
 509              		.loc 1 144 0
 510 0006 2B68     		ldr	r3, [r5]
 511 0008 0193     		str	r3, [sp, #4]
 512 000a 0E46     		mov	r6, r1
 513              		.loc 1 146 0
ARM GAS  C:\Users\Moi\AppData\Local\Temp\cciP7z0x.s 			page 10


 514 000c 0446     		mov	r4, r0
 515 000e 48B3     		cbz	r0, .L42
 516              		.loc 1 146 0 is_stmt 0 discriminator 3
 517 0010 41B3     		cbz	r1, .L42
 518              	.LVL42:
 519              	.L43:
 520              	.LBB209:
 521              	.LBB210:
 522              	.LBB211:
 523              	.LBB212:
 524              	.LBB213:
 525              	.LBB214:
 526              		.loc 3 546 0 is_stmt 1
 527 0012 2023     		movs	r3, #32
 528              		.syntax unified
 529              	@ 546 "..//ChibiOS//os/ext/CMSIS/include/core_cmFunc.h" 1
 530 0014 83F31188 		MSR basepri, r3
 531              	@ 0 "" 2
 532              	.LVL43:
 533              		.thumb
 534              		.syntax unified
 535              	.LBE214:
 536              	.LBE213:
 537              	.LBE212:
 538              		.loc 4 349 0
 539 0018 FFF7FEFF 		bl	_stats_start_measure_crit_thd
 540              	.LVL44:
 541              		.loc 4 350 0
 542 001c FFF7FEFF 		bl	_dbg_check_lock
 543              	.LVL45:
 544              	.LBE211:
 545              	.LBE210:
 546              	.LBE209:
 547              		.loc 1 149 0
 548 0020 2378     		ldrb	r3, [r4]	@ zero_extendqisi2
 549 0022 022B     		cmp	r3, #2
 550 0024 02D0     		beq	.L44
 551              		.loc 1 149 0 is_stmt 0 discriminator 2
 552 0026 1548     		ldr	r0, .L56+4
 553 0028 FFF7FEFF 		bl	chSysHalt
 554              	.LVL46:
 555              	.L44:
 556              		.loc 1 150 0 is_stmt 1
 557 002c 0323     		movs	r3, #3
 558 002e 2370     		strb	r3, [r4]
 559 0030 3146     		mov	r1, r6
 560 0032 2046     		mov	r0, r4
 561 0034 FFF7FEFF 		bl	spi3_slave_lld_ignore
 562              	.LVL47:
 563              	.LBB215:
 564              	.LBB216:
 565              	.LBB217:
 566              		.loc 4 360 0
 567 0038 FFF7FEFF 		bl	_dbg_check_unlock
 568              	.LVL48:
 569              		.loc 4 361 0
 570 003c FFF7FEFF 		bl	_stats_stop_measure_crit_thd
ARM GAS  C:\Users\Moi\AppData\Local\Temp\cciP7z0x.s 			page 11


 571              	.LVL49:
 572              		.loc 4 367 0
 573 0040 0F4B     		ldr	r3, .L56+8
 574 0042 1A68     		ldr	r2, [r3]
 575 0044 9A42     		cmp	r2, r3
 576 0046 04D0     		beq	.L45
 577 0048 9969     		ldr	r1, [r3, #24]
 578 004a 9368     		ldr	r3, [r2, #8]
 579 004c 8A68     		ldr	r2, [r1, #8]
 580 004e 9A42     		cmp	r2, r3
 581 0050 0CD3     		bcc	.L54
 582              	.L45:
 583              	.LVL50:
 584              	.LBB218:
 585              	.LBB219:
 586              	.LBB220:
 587              		.loc 3 546 0
 588 0052 0023     		movs	r3, #0
 589              		.syntax unified
 590              	@ 546 "..//ChibiOS//os/ext/CMSIS/include/core_cmFunc.h" 1
 591 0054 83F31188 		MSR basepri, r3
 592              	@ 0 "" 2
 593              	.LVL51:
 594              		.thumb
 595              		.syntax unified
 596              	.LBE220:
 597              	.LBE219:
 598              	.LBE218:
 599              	.LBE217:
 600              	.LBE216:
 601              	.LBE215:
 602              		.loc 1 152 0
 603 0058 019A     		ldr	r2, [sp, #4]
 604 005a 2B68     		ldr	r3, [r5]
 605 005c 9A42     		cmp	r2, r3
 606 005e 09D1     		bne	.L55
 607 0060 02B0     		add	sp, sp, #8
 608              		.cfi_remember_state
 609              		.cfi_def_cfa_offset 16
 610              		@ sp needed
 611 0062 70BD     		pop	{r4, r5, r6, pc}
 612              	.LVL52:
 613              	.L42:
 614              		.cfi_restore_state
 615              		.loc 1 146 0 discriminator 4
 616 0064 0548     		ldr	r0, .L56+4
 617              	.LVL53:
 618 0066 FFF7FEFF 		bl	chSysHalt
 619              	.LVL54:
 620 006a D2E7     		b	.L43
 621              	.L54:
 622              	.LBB223:
 623              	.LBB222:
 624              	.LBB221:
 625              		.loc 4 367 0
 626 006c 0548     		ldr	r0, .L56+12
 627 006e FFF7FEFF 		bl	chSysHalt
ARM GAS  C:\Users\Moi\AppData\Local\Temp\cciP7z0x.s 			page 12


 628              	.LVL55:
 629 0072 EEE7     		b	.L45
 630              	.L55:
 631              	.LBE221:
 632              	.LBE222:
 633              	.LBE223:
 634              		.loc 1 152 0
 635 0074 FFF7FEFF 		bl	__stack_chk_fail
 636              	.LVL56:
 637              	.L57:
 638              		.align	2
 639              	.L56:
 640 0078 00000000 		.word	__stack_chk_guard
 641 007c 00000000 		.word	.LANCHOR3
 642 0080 00000000 		.word	ch
 643 0084 00000000 		.word	.LANCHOR1
 644              		.cfi_endproc
 645              	.LFE260:
 646              		.size	spi3SlaveStartIgnore, .-spi3SlaveStartIgnore
 647              		.section	.text.spi3SlaveStartExchange,"ax",%progbits
 648              		.align	1
 649              		.p2align 4,,15
 650              		.global	spi3SlaveStartExchange
 651              		.syntax unified
 652              		.thumb
 653              		.thumb_func
 654              		.fpu fpv4-sp-d16
 655              		.type	spi3SlaveStartExchange, %function
 656              	spi3SlaveStartExchange:
 657              	.LFB261:
 658              		.loc 1 172 0
 659              		.cfi_startproc
 660              		@ args = 0, pretend = 0, frame = 8
 661              		@ frame_needed = 0, uses_anonymous_args = 0
 662              	.LVL57:
 663 0000 2DE9F041 		push	{r4, r5, r6, r7, r8, lr}
 664              		.cfi_def_cfa_offset 24
 665              		.cfi_offset 4, -24
 666              		.cfi_offset 5, -20
 667              		.cfi_offset 6, -16
 668              		.cfi_offset 7, -12
 669              		.cfi_offset 8, -8
 670              		.cfi_offset 14, -4
 671 0004 214D     		ldr	r5, .L80
 672 0006 82B0     		sub	sp, sp, #8
 673              		.cfi_def_cfa_offset 32
 674              		.loc 1 172 0
 675 0008 2C68     		ldr	r4, [r5]
 676 000a 0194     		str	r4, [sp, #4]
 677 000c 0E46     		mov	r6, r1
 678 000e 9046     		mov	r8, r2
 679 0010 1F46     		mov	r7, r3
 680              		.loc 1 174 0
 681 0012 0446     		mov	r4, r0
 682 0014 00B1     		cbz	r0, .L59
 683              		.loc 1 174 0 is_stmt 0 discriminator 3
 684 0016 71BB     		cbnz	r1, .L77
ARM GAS  C:\Users\Moi\AppData\Local\Temp\cciP7z0x.s 			page 13


 685              	.L59:
 686              		.loc 1 174 0 discriminator 8
 687 0018 1D48     		ldr	r0, .L80+4
 688              	.LVL58:
 689 001a FFF7FEFF 		bl	chSysHalt
 690              	.LVL59:
 691              	.L60:
 692              	.LBB237:
 693              	.LBB238:
 694              	.LBB239:
 695              	.LBB240:
 696              	.LBB241:
 697              	.LBB242:
 698              		.loc 3 546 0 is_stmt 1
 699 001e 2023     		movs	r3, #32
 700              		.syntax unified
 701              	@ 546 "..//ChibiOS//os/ext/CMSIS/include/core_cmFunc.h" 1
 702 0020 83F31188 		MSR basepri, r3
 703              	@ 0 "" 2
 704              	.LVL60:
 705              		.thumb
 706              		.syntax unified
 707              	.LBE242:
 708              	.LBE241:
 709              	.LBE240:
 710              		.loc 4 349 0
 711 0024 FFF7FEFF 		bl	_stats_start_measure_crit_thd
 712              	.LVL61:
 713              		.loc 4 350 0
 714 0028 FFF7FEFF 		bl	_dbg_check_lock
 715              	.LVL62:
 716              	.LBE239:
 717              	.LBE238:
 718              	.LBE237:
 719              		.loc 1 178 0
 720 002c 2378     		ldrb	r3, [r4]	@ zero_extendqisi2
 721 002e 022B     		cmp	r3, #2
 722 0030 02D0     		beq	.L61
 723              		.loc 1 178 0 is_stmt 0 discriminator 2
 724 0032 1748     		ldr	r0, .L80+4
 725 0034 FFF7FEFF 		bl	chSysHalt
 726              	.LVL63:
 727              	.L61:
 728              		.loc 1 179 0 is_stmt 1
 729 0038 0320     		movs	r0, #3
 730 003a 3B46     		mov	r3, r7
 731 003c 4246     		mov	r2, r8
 732 003e 3146     		mov	r1, r6
 733 0040 2070     		strb	r0, [r4]
 734 0042 2046     		mov	r0, r4
 735 0044 FFF7FEFF 		bl	spi3_slave_lld_exchange
 736              	.LVL64:
 737              	.LBB243:
 738              	.LBB244:
 739              	.LBB245:
 740              		.loc 4 360 0
 741 0048 FFF7FEFF 		bl	_dbg_check_unlock
ARM GAS  C:\Users\Moi\AppData\Local\Temp\cciP7z0x.s 			page 14


 742              	.LVL65:
 743              		.loc 4 361 0
 744 004c FFF7FEFF 		bl	_stats_stop_measure_crit_thd
 745              	.LVL66:
 746              		.loc 4 367 0
 747 0050 104B     		ldr	r3, .L80+8
 748 0052 1A68     		ldr	r2, [r3]
 749 0054 9A42     		cmp	r2, r3
 750 0056 04D0     		beq	.L62
 751 0058 9969     		ldr	r1, [r3, #24]
 752 005a 9368     		ldr	r3, [r2, #8]
 753 005c 8A68     		ldr	r2, [r1, #8]
 754 005e 9A42     		cmp	r2, r3
 755 0060 0ED3     		bcc	.L78
 756              	.L62:
 757              	.LVL67:
 758              	.LBB246:
 759              	.LBB247:
 760              	.LBB248:
 761              		.loc 3 546 0
 762 0062 0023     		movs	r3, #0
 763              		.syntax unified
 764              	@ 546 "..//ChibiOS//os/ext/CMSIS/include/core_cmFunc.h" 1
 765 0064 83F31188 		MSR basepri, r3
 766              	@ 0 "" 2
 767              	.LVL68:
 768              		.thumb
 769              		.syntax unified
 770              	.LBE248:
 771              	.LBE247:
 772              	.LBE246:
 773              	.LBE245:
 774              	.LBE244:
 775              	.LBE243:
 776              		.loc 1 181 0
 777 0068 019A     		ldr	r2, [sp, #4]
 778 006a 2B68     		ldr	r3, [r5]
 779 006c 9A42     		cmp	r2, r3
 780 006e 0BD1     		bne	.L79
 781 0070 02B0     		add	sp, sp, #8
 782              		.cfi_remember_state
 783              		.cfi_def_cfa_offset 24
 784              		@ sp needed
 785 0072 BDE8F081 		pop	{r4, r5, r6, r7, r8, pc}
 786              	.LVL69:
 787              	.L77:
 788              		.cfi_restore_state
 789              		.loc 1 174 0 discriminator 5
 790 0076 002B     		cmp	r3, #0
 791 0078 CED0     		beq	.L59
 792              		.loc 1 174 0 is_stmt 0 discriminator 7
 793 007a 002A     		cmp	r2, #0
 794 007c CFD1     		bne	.L60
 795 007e CBE7     		b	.L59
 796              	.LVL70:
 797              	.L78:
 798              	.LBB251:
ARM GAS  C:\Users\Moi\AppData\Local\Temp\cciP7z0x.s 			page 15


 799              	.LBB250:
 800              	.LBB249:
 801              		.loc 4 367 0 is_stmt 1
 802 0080 0548     		ldr	r0, .L80+12
 803 0082 FFF7FEFF 		bl	chSysHalt
 804              	.LVL71:
 805 0086 ECE7     		b	.L62
 806              	.L79:
 807              	.LBE249:
 808              	.LBE250:
 809              	.LBE251:
 810              		.loc 1 181 0
 811 0088 FFF7FEFF 		bl	__stack_chk_fail
 812              	.LVL72:
 813              	.L81:
 814              		.align	2
 815              	.L80:
 816 008c 00000000 		.word	__stack_chk_guard
 817 0090 00000000 		.word	.LANCHOR4
 818 0094 00000000 		.word	ch
 819 0098 00000000 		.word	.LANCHOR1
 820              		.cfi_endproc
 821              	.LFE261:
 822              		.size	spi3SlaveStartExchange, .-spi3SlaveStartExchange
 823              		.section	.text.spi3SlaveStartSend,"ax",%progbits
 824              		.align	1
 825              		.p2align 4,,15
 826              		.global	spi3SlaveStartSend
 827              		.syntax unified
 828              		.thumb
 829              		.thumb_func
 830              		.fpu fpv4-sp-d16
 831              		.type	spi3SlaveStartSend, %function
 832              	spi3SlaveStartSend:
 833              	.LFB262:
 834              		.loc 1 198 0
 835              		.cfi_startproc
 836              		@ args = 0, pretend = 0, frame = 8
 837              		@ frame_needed = 0, uses_anonymous_args = 0
 838              	.LVL73:
 839 0000 F0B5     		push	{r4, r5, r6, r7, lr}
 840              		.cfi_def_cfa_offset 20
 841              		.cfi_offset 4, -20
 842              		.cfi_offset 5, -16
 843              		.cfi_offset 6, -12
 844              		.cfi_offset 7, -8
 845              		.cfi_offset 14, -4
 846 0002 1F4D     		ldr	r5, .L101
 847 0004 83B0     		sub	sp, sp, #12
 848              		.cfi_def_cfa_offset 32
 849              		.loc 1 198 0
 850 0006 2B68     		ldr	r3, [r5]
 851 0008 0193     		str	r3, [sp, #4]
 852 000a 0E46     		mov	r6, r1
 853 000c 1746     		mov	r7, r2
 854              		.loc 1 200 0
 855 000e 0446     		mov	r4, r0
ARM GAS  C:\Users\Moi\AppData\Local\Temp\cciP7z0x.s 			page 16


 856 0010 00B1     		cbz	r0, .L83
 857              		.loc 1 200 0 is_stmt 0 discriminator 3
 858 0012 61BB     		cbnz	r1, .L98
 859              	.L83:
 860              		.loc 1 200 0 discriminator 6
 861 0014 1B48     		ldr	r0, .L101+4
 862              	.LVL74:
 863 0016 FFF7FEFF 		bl	chSysHalt
 864              	.LVL75:
 865              	.L84:
 866              	.LBB265:
 867              	.LBB266:
 868              	.LBB267:
 869              	.LBB268:
 870              	.LBB269:
 871              	.LBB270:
 872              		.loc 3 546 0 is_stmt 1
 873 001a 2023     		movs	r3, #32
 874              		.syntax unified
 875              	@ 546 "..//ChibiOS//os/ext/CMSIS/include/core_cmFunc.h" 1
 876 001c 83F31188 		MSR basepri, r3
 877              	@ 0 "" 2
 878              	.LVL76:
 879              		.thumb
 880              		.syntax unified
 881              	.LBE270:
 882              	.LBE269:
 883              	.LBE268:
 884              		.loc 4 349 0
 885 0020 FFF7FEFF 		bl	_stats_start_measure_crit_thd
 886              	.LVL77:
 887              		.loc 4 350 0
 888 0024 FFF7FEFF 		bl	_dbg_check_lock
 889              	.LVL78:
 890              	.LBE267:
 891              	.LBE266:
 892              	.LBE265:
 893              		.loc 1 203 0
 894 0028 2378     		ldrb	r3, [r4]	@ zero_extendqisi2
 895 002a 022B     		cmp	r3, #2
 896 002c 02D0     		beq	.L85
 897              		.loc 1 203 0 is_stmt 0 discriminator 2
 898 002e 1548     		ldr	r0, .L101+4
 899 0030 FFF7FEFF 		bl	chSysHalt
 900              	.LVL79:
 901              	.L85:
 902              		.loc 1 204 0 is_stmt 1
 903 0034 0323     		movs	r3, #3
 904 0036 3A46     		mov	r2, r7
 905 0038 2370     		strb	r3, [r4]
 906 003a 3146     		mov	r1, r6
 907 003c 2046     		mov	r0, r4
 908 003e FFF7FEFF 		bl	spi3_slave_lld_send
 909              	.LVL80:
 910              	.LBB271:
 911              	.LBB272:
 912              	.LBB273:
ARM GAS  C:\Users\Moi\AppData\Local\Temp\cciP7z0x.s 			page 17


 913              		.loc 4 360 0
 914 0042 FFF7FEFF 		bl	_dbg_check_unlock
 915              	.LVL81:
 916              		.loc 4 361 0
 917 0046 FFF7FEFF 		bl	_stats_stop_measure_crit_thd
 918              	.LVL82:
 919              		.loc 4 367 0
 920 004a 0F4B     		ldr	r3, .L101+8
 921 004c 1A68     		ldr	r2, [r3]
 922 004e 9A42     		cmp	r2, r3
 923 0050 04D0     		beq	.L86
 924 0052 9969     		ldr	r1, [r3, #24]
 925 0054 9368     		ldr	r3, [r2, #8]
 926 0056 8A68     		ldr	r2, [r1, #8]
 927 0058 9A42     		cmp	r2, r3
 928 005a 0BD3     		bcc	.L99
 929              	.L86:
 930              	.LVL83:
 931              	.LBB274:
 932              	.LBB275:
 933              	.LBB276:
 934              		.loc 3 546 0
 935 005c 0023     		movs	r3, #0
 936              		.syntax unified
 937              	@ 546 "..//ChibiOS//os/ext/CMSIS/include/core_cmFunc.h" 1
 938 005e 83F31188 		MSR basepri, r3
 939              	@ 0 "" 2
 940              	.LVL84:
 941              		.thumb
 942              		.syntax unified
 943              	.LBE276:
 944              	.LBE275:
 945              	.LBE274:
 946              	.LBE273:
 947              	.LBE272:
 948              	.LBE271:
 949              		.loc 1 206 0
 950 0062 019A     		ldr	r2, [sp, #4]
 951 0064 2B68     		ldr	r3, [r5]
 952 0066 9A42     		cmp	r2, r3
 953 0068 08D1     		bne	.L100
 954 006a 03B0     		add	sp, sp, #12
 955              		.cfi_remember_state
 956              		.cfi_def_cfa_offset 20
 957              		@ sp needed
 958 006c F0BD     		pop	{r4, r5, r6, r7, pc}
 959              	.LVL85:
 960              	.L98:
 961              		.cfi_restore_state
 962              		.loc 1 200 0 discriminator 5
 963 006e 002A     		cmp	r2, #0
 964 0070 D3D1     		bne	.L84
 965 0072 CFE7     		b	.L83
 966              	.LVL86:
 967              	.L99:
 968              	.LBB279:
 969              	.LBB278:
ARM GAS  C:\Users\Moi\AppData\Local\Temp\cciP7z0x.s 			page 18


 970              	.LBB277:
 971              		.loc 4 367 0
 972 0074 0548     		ldr	r0, .L101+12
 973 0076 FFF7FEFF 		bl	chSysHalt
 974              	.LVL87:
 975 007a EFE7     		b	.L86
 976              	.L100:
 977              	.LBE277:
 978              	.LBE278:
 979              	.LBE279:
 980              		.loc 1 206 0
 981 007c FFF7FEFF 		bl	__stack_chk_fail
 982              	.LVL88:
 983              	.L102:
 984              		.align	2
 985              	.L101:
 986 0080 00000000 		.word	__stack_chk_guard
 987 0084 00000000 		.word	.LANCHOR5
 988 0088 00000000 		.word	ch
 989 008c 00000000 		.word	.LANCHOR1
 990              		.cfi_endproc
 991              	.LFE262:
 992              		.size	spi3SlaveStartSend, .-spi3SlaveStartSend
 993              		.section	.text.spi3SlaveStartReceive,"ax",%progbits
 994              		.align	1
 995              		.p2align 4,,15
 996              		.global	spi3SlaveStartReceive
 997              		.syntax unified
 998              		.thumb
 999              		.thumb_func
 1000              		.fpu fpv4-sp-d16
 1001              		.type	spi3SlaveStartReceive, %function
 1002              	spi3SlaveStartReceive:
 1003              	.LFB263:
 1004              		.loc 1 223 0
 1005              		.cfi_startproc
 1006              		@ args = 0, pretend = 0, frame = 8
 1007              		@ frame_needed = 0, uses_anonymous_args = 0
 1008              	.LVL89:
 1009 0000 F0B5     		push	{r4, r5, r6, r7, lr}
 1010              		.cfi_def_cfa_offset 20
 1011              		.cfi_offset 4, -20
 1012              		.cfi_offset 5, -16
 1013              		.cfi_offset 6, -12
 1014              		.cfi_offset 7, -8
 1015              		.cfi_offset 14, -4
 1016 0002 1F4D     		ldr	r5, .L122
 1017 0004 83B0     		sub	sp, sp, #12
 1018              		.cfi_def_cfa_offset 32
 1019              		.loc 1 223 0
 1020 0006 2B68     		ldr	r3, [r5]
 1021 0008 0193     		str	r3, [sp, #4]
 1022 000a 0E46     		mov	r6, r1
 1023 000c 1746     		mov	r7, r2
 1024              		.loc 1 225 0
 1025 000e 0446     		mov	r4, r0
 1026 0010 00B1     		cbz	r0, .L104
ARM GAS  C:\Users\Moi\AppData\Local\Temp\cciP7z0x.s 			page 19


 1027              		.loc 1 225 0 is_stmt 0 discriminator 3
 1028 0012 61BB     		cbnz	r1, .L119
 1029              	.L104:
 1030              		.loc 1 225 0 discriminator 6
 1031 0014 1B48     		ldr	r0, .L122+4
 1032              	.LVL90:
 1033 0016 FFF7FEFF 		bl	chSysHalt
 1034              	.LVL91:
 1035              	.L105:
 1036              	.LBB293:
 1037              	.LBB294:
 1038              	.LBB295:
 1039              	.LBB296:
 1040              	.LBB297:
 1041              	.LBB298:
 1042              		.loc 3 546 0 is_stmt 1
 1043 001a 2023     		movs	r3, #32
 1044              		.syntax unified
 1045              	@ 546 "..//ChibiOS//os/ext/CMSIS/include/core_cmFunc.h" 1
 1046 001c 83F31188 		MSR basepri, r3
 1047              	@ 0 "" 2
 1048              	.LVL92:
 1049              		.thumb
 1050              		.syntax unified
 1051              	.LBE298:
 1052              	.LBE297:
 1053              	.LBE296:
 1054              		.loc 4 349 0
 1055 0020 FFF7FEFF 		bl	_stats_start_measure_crit_thd
 1056              	.LVL93:
 1057              		.loc 4 350 0
 1058 0024 FFF7FEFF 		bl	_dbg_check_lock
 1059              	.LVL94:
 1060              	.LBE295:
 1061              	.LBE294:
 1062              	.LBE293:
 1063              		.loc 1 228 0
 1064 0028 2378     		ldrb	r3, [r4]	@ zero_extendqisi2
 1065 002a 022B     		cmp	r3, #2
 1066 002c 02D0     		beq	.L106
 1067              		.loc 1 228 0 is_stmt 0 discriminator 2
 1068 002e 1548     		ldr	r0, .L122+4
 1069 0030 FFF7FEFF 		bl	chSysHalt
 1070              	.LVL95:
 1071              	.L106:
 1072              		.loc 1 229 0 is_stmt 1
 1073 0034 0323     		movs	r3, #3
 1074 0036 3A46     		mov	r2, r7
 1075 0038 2370     		strb	r3, [r4]
 1076 003a 3146     		mov	r1, r6
 1077 003c 2046     		mov	r0, r4
 1078 003e FFF7FEFF 		bl	spi3_slave_lld_receive
 1079              	.LVL96:
 1080              	.LBB299:
 1081              	.LBB300:
 1082              	.LBB301:
 1083              		.loc 4 360 0
ARM GAS  C:\Users\Moi\AppData\Local\Temp\cciP7z0x.s 			page 20


 1084 0042 FFF7FEFF 		bl	_dbg_check_unlock
 1085              	.LVL97:
 1086              		.loc 4 361 0
 1087 0046 FFF7FEFF 		bl	_stats_stop_measure_crit_thd
 1088              	.LVL98:
 1089              		.loc 4 367 0
 1090 004a 0F4B     		ldr	r3, .L122+8
 1091 004c 1A68     		ldr	r2, [r3]
 1092 004e 9A42     		cmp	r2, r3
 1093 0050 04D0     		beq	.L107
 1094 0052 9969     		ldr	r1, [r3, #24]
 1095 0054 9368     		ldr	r3, [r2, #8]
 1096 0056 8A68     		ldr	r2, [r1, #8]
 1097 0058 9A42     		cmp	r2, r3
 1098 005a 0BD3     		bcc	.L120
 1099              	.L107:
 1100              	.LVL99:
 1101              	.LBB302:
 1102              	.LBB303:
 1103              	.LBB304:
 1104              		.loc 3 546 0
 1105 005c 0023     		movs	r3, #0
 1106              		.syntax unified
 1107              	@ 546 "..//ChibiOS//os/ext/CMSIS/include/core_cmFunc.h" 1
 1108 005e 83F31188 		MSR basepri, r3
 1109              	@ 0 "" 2
 1110              	.LVL100:
 1111              		.thumb
 1112              		.syntax unified
 1113              	.LBE304:
 1114              	.LBE303:
 1115              	.LBE302:
 1116              	.LBE301:
 1117              	.LBE300:
 1118              	.LBE299:
 1119              		.loc 1 231 0
 1120 0062 019A     		ldr	r2, [sp, #4]
 1121 0064 2B68     		ldr	r3, [r5]
 1122 0066 9A42     		cmp	r2, r3
 1123 0068 08D1     		bne	.L121
 1124 006a 03B0     		add	sp, sp, #12
 1125              		.cfi_remember_state
 1126              		.cfi_def_cfa_offset 20
 1127              		@ sp needed
 1128 006c F0BD     		pop	{r4, r5, r6, r7, pc}
 1129              	.LVL101:
 1130              	.L119:
 1131              		.cfi_restore_state
 1132              		.loc 1 225 0 discriminator 5
 1133 006e 002A     		cmp	r2, #0
 1134 0070 D3D1     		bne	.L105
 1135 0072 CFE7     		b	.L104
 1136              	.LVL102:
 1137              	.L120:
 1138              	.LBB307:
 1139              	.LBB306:
 1140              	.LBB305:
ARM GAS  C:\Users\Moi\AppData\Local\Temp\cciP7z0x.s 			page 21


 1141              		.loc 4 367 0
 1142 0074 0548     		ldr	r0, .L122+12
 1143 0076 FFF7FEFF 		bl	chSysHalt
 1144              	.LVL103:
 1145 007a EFE7     		b	.L107
 1146              	.L121:
 1147              	.LBE305:
 1148              	.LBE306:
 1149              	.LBE307:
 1150              		.loc 1 231 0
 1151 007c FFF7FEFF 		bl	__stack_chk_fail
 1152              	.LVL104:
 1153              	.L123:
 1154              		.align	2
 1155              	.L122:
 1156 0080 00000000 		.word	__stack_chk_guard
 1157 0084 00000000 		.word	.LANCHOR6
 1158 0088 00000000 		.word	ch
 1159 008c 00000000 		.word	.LANCHOR1
 1160              		.cfi_endproc
 1161              	.LFE263:
 1162              		.size	spi3SlaveStartReceive, .-spi3SlaveStartReceive
 1163              		.section	.text.spi3SlaveIgnore,"ax",%progbits
 1164              		.align	1
 1165              		.p2align 4,,15
 1166              		.global	spi3SlaveIgnore
 1167              		.syntax unified
 1168              		.thumb
 1169              		.thumb_func
 1170              		.fpu fpv4-sp-d16
 1171              		.type	spi3SlaveIgnore, %function
 1172              	spi3SlaveIgnore:
 1173              	.LFB264:
 1174              		.loc 1 248 0
 1175              		.cfi_startproc
 1176              		@ args = 0, pretend = 0, frame = 8
 1177              		@ frame_needed = 0, uses_anonymous_args = 0
 1178              	.LVL105:
 1179 0000 70B5     		push	{r4, r5, r6, lr}
 1180              		.cfi_def_cfa_offset 16
 1181              		.cfi_offset 4, -16
 1182              		.cfi_offset 5, -12
 1183              		.cfi_offset 6, -8
 1184              		.cfi_offset 14, -4
 1185 0002 234D     		ldr	r5, .L143
 1186 0004 82B0     		sub	sp, sp, #8
 1187              		.cfi_def_cfa_offset 24
 1188              		.loc 1 248 0
 1189 0006 2B68     		ldr	r3, [r5]
 1190 0008 0193     		str	r3, [sp, #4]
 1191 000a 0E46     		mov	r6, r1
 1192              		.loc 1 250 0
 1193 000c 0446     		mov	r4, r0
 1194 000e 0028     		cmp	r0, #0
 1195 0010 33D0     		beq	.L125
 1196              		.loc 1 250 0 is_stmt 0 discriminator 3
 1197 0012 91B3     		cbz	r1, .L125
ARM GAS  C:\Users\Moi\AppData\Local\Temp\cciP7z0x.s 			page 22


 1198              	.LVL106:
 1199              	.L126:
 1200              	.LBB323:
 1201              	.LBB324:
 1202              	.LBB325:
 1203              	.LBB326:
 1204              	.LBB327:
 1205              	.LBB328:
 1206              		.loc 3 546 0 is_stmt 1
 1207 0014 2023     		movs	r3, #32
 1208              		.syntax unified
 1209              	@ 546 "..//ChibiOS//os/ext/CMSIS/include/core_cmFunc.h" 1
 1210 0016 83F31188 		MSR basepri, r3
 1211              	@ 0 "" 2
 1212              	.LVL107:
 1213              		.thumb
 1214              		.syntax unified
 1215              	.LBE328:
 1216              	.LBE327:
 1217              	.LBE326:
 1218              		.loc 4 349 0
 1219 001a FFF7FEFF 		bl	_stats_start_measure_crit_thd
 1220              	.LVL108:
 1221              		.loc 4 350 0
 1222 001e FFF7FEFF 		bl	_dbg_check_lock
 1223              	.LVL109:
 1224              	.LBE325:
 1225              	.LBE324:
 1226              	.LBE323:
 1227              		.loc 1 253 0
 1228 0022 2378     		ldrb	r3, [r4]	@ zero_extendqisi2
 1229 0024 022B     		cmp	r3, #2
 1230 0026 02D0     		beq	.L127
 1231              		.loc 1 253 0 is_stmt 0 discriminator 2
 1232 0028 1A48     		ldr	r0, .L143+4
 1233 002a FFF7FEFF 		bl	chSysHalt
 1234              	.LVL110:
 1235              	.L127:
 1236              		.loc 1 254 0 is_stmt 1 discriminator 1
 1237 002e 6368     		ldr	r3, [r4, #4]
 1238 0030 1B68     		ldr	r3, [r3]
 1239 0032 13B1     		cbz	r3, .L128
 1240              		.loc 1 254 0 is_stmt 0 discriminator 2
 1241 0034 1748     		ldr	r0, .L143+4
 1242 0036 FFF7FEFF 		bl	chSysHalt
 1243              	.LVL111:
 1244              	.L128:
 1245              		.loc 1 255 0 is_stmt 1
 1246 003a 0323     		movs	r3, #3
 1247 003c 2370     		strb	r3, [r4]
 1248 003e 3146     		mov	r1, r6
 1249 0040 2046     		mov	r0, r4
 1250 0042 FFF7FEFF 		bl	spi3_slave_lld_ignore
 1251              	.LVL112:
 1252              	.LBB329:
 1253              	.LBB330:
 1254              		.loc 2 642 0
ARM GAS  C:\Users\Moi\AppData\Local\Temp\cciP7z0x.s 			page 23


 1255 0046 04F10800 		add	r0, r4, #8
 1256              	.LVL113:
 1257 004a FFF7FEFF 		bl	chThdSuspendS
 1258              	.LVL114:
 1259              	.LBE330:
 1260              	.LBE329:
 1261              	.LBB331:
 1262              	.LBB332:
 1263              	.LBB333:
 1264              		.loc 4 360 0
 1265 004e FFF7FEFF 		bl	_dbg_check_unlock
 1266              	.LVL115:
 1267              		.loc 4 361 0
 1268 0052 FFF7FEFF 		bl	_stats_stop_measure_crit_thd
 1269              	.LVL116:
 1270              		.loc 4 367 0
 1271 0056 104B     		ldr	r3, .L143+8
 1272 0058 1A68     		ldr	r2, [r3]
 1273 005a 9A42     		cmp	r2, r3
 1274 005c 04D0     		beq	.L129
 1275 005e 9969     		ldr	r1, [r3, #24]
 1276 0060 9368     		ldr	r3, [r2, #8]
 1277 0062 8A68     		ldr	r2, [r1, #8]
 1278 0064 9A42     		cmp	r2, r3
 1279 0066 0CD3     		bcc	.L141
 1280              	.L129:
 1281              	.LVL117:
 1282              	.LBB334:
 1283              	.LBB335:
 1284              	.LBB336:
 1285              		.loc 3 546 0
 1286 0068 0023     		movs	r3, #0
 1287              		.syntax unified
 1288              	@ 546 "..//ChibiOS//os/ext/CMSIS/include/core_cmFunc.h" 1
 1289 006a 83F31188 		MSR basepri, r3
 1290              	@ 0 "" 2
 1291              	.LVL118:
 1292              		.thumb
 1293              		.syntax unified
 1294              	.LBE336:
 1295              	.LBE335:
 1296              	.LBE334:
 1297              	.LBE333:
 1298              	.LBE332:
 1299              	.LBE331:
 1300              		.loc 1 258 0
 1301 006e 019A     		ldr	r2, [sp, #4]
 1302 0070 2B68     		ldr	r3, [r5]
 1303 0072 9A42     		cmp	r2, r3
 1304 0074 09D1     		bne	.L142
 1305 0076 02B0     		add	sp, sp, #8
 1306              		.cfi_remember_state
 1307              		.cfi_def_cfa_offset 16
 1308              		@ sp needed
 1309 0078 70BD     		pop	{r4, r5, r6, pc}
 1310              	.LVL119:
 1311              	.L125:
ARM GAS  C:\Users\Moi\AppData\Local\Temp\cciP7z0x.s 			page 24


 1312              		.cfi_restore_state
 1313              		.loc 1 250 0 discriminator 4
 1314 007a 0648     		ldr	r0, .L143+4
 1315              	.LVL120:
 1316 007c FFF7FEFF 		bl	chSysHalt
 1317              	.LVL121:
 1318 0080 C8E7     		b	.L126
 1319              	.L141:
 1320              	.LBB339:
 1321              	.LBB338:
 1322              	.LBB337:
 1323              		.loc 4 367 0
 1324 0082 0648     		ldr	r0, .L143+12
 1325 0084 FFF7FEFF 		bl	chSysHalt
 1326              	.LVL122:
 1327 0088 EEE7     		b	.L129
 1328              	.L142:
 1329              	.LBE337:
 1330              	.LBE338:
 1331              	.LBE339:
 1332              		.loc 1 258 0
 1333 008a FFF7FEFF 		bl	__stack_chk_fail
 1334              	.LVL123:
 1335              	.L144:
 1336 008e 00BF     		.align	2
 1337              	.L143:
 1338 0090 00000000 		.word	__stack_chk_guard
 1339 0094 00000000 		.word	.LANCHOR7
 1340 0098 00000000 		.word	ch
 1341 009c 00000000 		.word	.LANCHOR1
 1342              		.cfi_endproc
 1343              	.LFE264:
 1344              		.size	spi3SlaveIgnore, .-spi3SlaveIgnore
 1345              		.section	.text.spi3SlaveExchange,"ax",%progbits
 1346              		.align	1
 1347              		.p2align 4,,15
 1348              		.global	spi3SlaveExchange
 1349              		.syntax unified
 1350              		.thumb
 1351              		.thumb_func
 1352              		.fpu fpv4-sp-d16
 1353              		.type	spi3SlaveExchange, %function
 1354              	spi3SlaveExchange:
 1355              	.LFB265:
 1356              		.loc 1 279 0
 1357              		.cfi_startproc
 1358              		@ args = 0, pretend = 0, frame = 8
 1359              		@ frame_needed = 0, uses_anonymous_args = 0
 1360              	.LVL124:
 1361 0000 2DE9F041 		push	{r4, r5, r6, r7, r8, lr}
 1362              		.cfi_def_cfa_offset 24
 1363              		.cfi_offset 4, -24
 1364              		.cfi_offset 5, -20
 1365              		.cfi_offset 6, -16
 1366              		.cfi_offset 7, -12
 1367              		.cfi_offset 8, -8
 1368              		.cfi_offset 14, -4
ARM GAS  C:\Users\Moi\AppData\Local\Temp\cciP7z0x.s 			page 25


 1369 0004 274D     		ldr	r5, .L171
 1370 0006 82B0     		sub	sp, sp, #8
 1371              		.cfi_def_cfa_offset 32
 1372              		.loc 1 279 0
 1373 0008 2C68     		ldr	r4, [r5]
 1374 000a 0194     		str	r4, [sp, #4]
 1375 000c 0E46     		mov	r6, r1
 1376 000e 9046     		mov	r8, r2
 1377 0010 1F46     		mov	r7, r3
 1378              		.loc 1 281 0
 1379 0012 0446     		mov	r4, r0
 1380 0014 08B1     		cbz	r0, .L146
 1381              		.loc 1 281 0 is_stmt 0 discriminator 3
 1382 0016 0029     		cmp	r1, #0
 1383 0018 38D1     		bne	.L168
 1384              	.L146:
 1385              		.loc 1 281 0 discriminator 8
 1386 001a 2348     		ldr	r0, .L171+4
 1387              	.LVL125:
 1388 001c FFF7FEFF 		bl	chSysHalt
 1389              	.LVL126:
 1390              	.L147:
 1391              	.LBB355:
 1392              	.LBB356:
 1393              	.LBB357:
 1394              	.LBB358:
 1395              	.LBB359:
 1396              	.LBB360:
 1397              		.loc 3 546 0 is_stmt 1
 1398 0020 2023     		movs	r3, #32
 1399              		.syntax unified
 1400              	@ 546 "..//ChibiOS//os/ext/CMSIS/include/core_cmFunc.h" 1
 1401 0022 83F31188 		MSR basepri, r3
 1402              	@ 0 "" 2
 1403              	.LVL127:
 1404              		.thumb
 1405              		.syntax unified
 1406              	.LBE360:
 1407              	.LBE359:
 1408              	.LBE358:
 1409              		.loc 4 349 0
 1410 0026 FFF7FEFF 		bl	_stats_start_measure_crit_thd
 1411              	.LVL128:
 1412              		.loc 4 350 0
 1413 002a FFF7FEFF 		bl	_dbg_check_lock
 1414              	.LVL129:
 1415              	.LBE357:
 1416              	.LBE356:
 1417              	.LBE355:
 1418              		.loc 1 285 0
 1419 002e 2378     		ldrb	r3, [r4]	@ zero_extendqisi2
 1420 0030 022B     		cmp	r3, #2
 1421 0032 02D0     		beq	.L148
 1422              		.loc 1 285 0 is_stmt 0 discriminator 2
 1423 0034 1C48     		ldr	r0, .L171+4
 1424 0036 FFF7FEFF 		bl	chSysHalt
 1425              	.LVL130:
ARM GAS  C:\Users\Moi\AppData\Local\Temp\cciP7z0x.s 			page 26


 1426              	.L148:
 1427              		.loc 1 286 0 is_stmt 1 discriminator 1
 1428 003a 6368     		ldr	r3, [r4, #4]
 1429 003c 1B68     		ldr	r3, [r3]
 1430 003e 13B1     		cbz	r3, .L149
 1431              		.loc 1 286 0 is_stmt 0 discriminator 2
 1432 0040 1948     		ldr	r0, .L171+4
 1433 0042 FFF7FEFF 		bl	chSysHalt
 1434              	.LVL131:
 1435              	.L149:
 1436              		.loc 1 287 0 is_stmt 1
 1437 0046 0320     		movs	r0, #3
 1438 0048 3B46     		mov	r3, r7
 1439 004a 4246     		mov	r2, r8
 1440 004c 3146     		mov	r1, r6
 1441 004e 2070     		strb	r0, [r4]
 1442 0050 2046     		mov	r0, r4
 1443 0052 FFF7FEFF 		bl	spi3_slave_lld_exchange
 1444              	.LVL132:
 1445              	.LBB361:
 1446              	.LBB362:
 1447              		.loc 2 642 0
 1448 0056 04F10800 		add	r0, r4, #8
 1449              	.LVL133:
 1450 005a FFF7FEFF 		bl	chThdSuspendS
 1451              	.LVL134:
 1452              	.LBE362:
 1453              	.LBE361:
 1454              	.LBB363:
 1455              	.LBB364:
 1456              	.LBB365:
 1457              		.loc 4 360 0
 1458 005e FFF7FEFF 		bl	_dbg_check_unlock
 1459              	.LVL135:
 1460              		.loc 4 361 0
 1461 0062 FFF7FEFF 		bl	_stats_stop_measure_crit_thd
 1462              	.LVL136:
 1463              		.loc 4 367 0
 1464 0066 114B     		ldr	r3, .L171+8
 1465 0068 1A68     		ldr	r2, [r3]
 1466 006a 9A42     		cmp	r2, r3
 1467 006c 04D0     		beq	.L150
 1468 006e 9969     		ldr	r1, [r3, #24]
 1469 0070 9368     		ldr	r3, [r2, #8]
 1470 0072 8A68     		ldr	r2, [r1, #8]
 1471 0074 9A42     		cmp	r2, r3
 1472 0076 0ED3     		bcc	.L169
 1473              	.L150:
 1474              	.LVL137:
 1475              	.LBB366:
 1476              	.LBB367:
 1477              	.LBB368:
 1478              		.loc 3 546 0
 1479 0078 0023     		movs	r3, #0
 1480              		.syntax unified
 1481              	@ 546 "..//ChibiOS//os/ext/CMSIS/include/core_cmFunc.h" 1
 1482 007a 83F31188 		MSR basepri, r3
ARM GAS  C:\Users\Moi\AppData\Local\Temp\cciP7z0x.s 			page 27


 1483              	@ 0 "" 2
 1484              	.LVL138:
 1485              		.thumb
 1486              		.syntax unified
 1487              	.LBE368:
 1488              	.LBE367:
 1489              	.LBE366:
 1490              	.LBE365:
 1491              	.LBE364:
 1492              	.LBE363:
 1493              		.loc 1 290 0
 1494 007e 019A     		ldr	r2, [sp, #4]
 1495 0080 2B68     		ldr	r3, [r5]
 1496 0082 9A42     		cmp	r2, r3
 1497 0084 0BD1     		bne	.L170
 1498 0086 02B0     		add	sp, sp, #8
 1499              		.cfi_remember_state
 1500              		.cfi_def_cfa_offset 24
 1501              		@ sp needed
 1502 0088 BDE8F081 		pop	{r4, r5, r6, r7, r8, pc}
 1503              	.LVL139:
 1504              	.L168:
 1505              		.cfi_restore_state
 1506              		.loc 1 281 0 discriminator 5
 1507 008c 002B     		cmp	r3, #0
 1508 008e C4D0     		beq	.L146
 1509              		.loc 1 281 0 is_stmt 0 discriminator 7
 1510 0090 002A     		cmp	r2, #0
 1511 0092 C5D1     		bne	.L147
 1512 0094 C1E7     		b	.L146
 1513              	.LVL140:
 1514              	.L169:
 1515              	.LBB371:
 1516              	.LBB370:
 1517              	.LBB369:
 1518              		.loc 4 367 0 is_stmt 1
 1519 0096 0648     		ldr	r0, .L171+12
 1520 0098 FFF7FEFF 		bl	chSysHalt
 1521              	.LVL141:
 1522 009c ECE7     		b	.L150
 1523              	.L170:
 1524              	.LBE369:
 1525              	.LBE370:
 1526              	.LBE371:
 1527              		.loc 1 290 0
 1528 009e FFF7FEFF 		bl	__stack_chk_fail
 1529              	.LVL142:
 1530              	.L172:
 1531 00a2 00BF     		.align	2
 1532              	.L171:
 1533 00a4 00000000 		.word	__stack_chk_guard
 1534 00a8 00000000 		.word	.LANCHOR8
 1535 00ac 00000000 		.word	ch
 1536 00b0 00000000 		.word	.LANCHOR1
 1537              		.cfi_endproc
 1538              	.LFE265:
 1539              		.size	spi3SlaveExchange, .-spi3SlaveExchange
ARM GAS  C:\Users\Moi\AppData\Local\Temp\cciP7z0x.s 			page 28


 1540              		.section	.text.spi3SlaveSend,"ax",%progbits
 1541              		.align	1
 1542              		.p2align 4,,15
 1543              		.global	spi3SlaveSend
 1544              		.syntax unified
 1545              		.thumb
 1546              		.thumb_func
 1547              		.fpu fpv4-sp-d16
 1548              		.type	spi3SlaveSend, %function
 1549              	spi3SlaveSend:
 1550              	.LFB266:
 1551              		.loc 1 308 0
 1552              		.cfi_startproc
 1553              		@ args = 0, pretend = 0, frame = 8
 1554              		@ frame_needed = 0, uses_anonymous_args = 0
 1555              	.LVL143:
 1556 0000 F0B5     		push	{r4, r5, r6, r7, lr}
 1557              		.cfi_def_cfa_offset 20
 1558              		.cfi_offset 4, -20
 1559              		.cfi_offset 5, -16
 1560              		.cfi_offset 6, -12
 1561              		.cfi_offset 7, -8
 1562              		.cfi_offset 14, -4
 1563 0002 254D     		ldr	r5, .L196
 1564 0004 83B0     		sub	sp, sp, #12
 1565              		.cfi_def_cfa_offset 32
 1566              		.loc 1 308 0
 1567 0006 2B68     		ldr	r3, [r5]
 1568 0008 0193     		str	r3, [sp, #4]
 1569 000a 0E46     		mov	r6, r1
 1570 000c 1746     		mov	r7, r2
 1571              		.loc 1 310 0
 1572 000e 0446     		mov	r4, r0
 1573 0010 08B1     		cbz	r0, .L174
 1574              		.loc 1 310 0 is_stmt 0 discriminator 3
 1575 0012 0029     		cmp	r1, #0
 1576 0014 36D1     		bne	.L193
 1577              	.L174:
 1578              		.loc 1 310 0 discriminator 6
 1579 0016 2148     		ldr	r0, .L196+4
 1580              	.LVL144:
 1581 0018 FFF7FEFF 		bl	chSysHalt
 1582              	.LVL145:
 1583              	.L175:
 1584              	.LBB387:
 1585              	.LBB388:
 1586              	.LBB389:
 1587              	.LBB390:
 1588              	.LBB391:
 1589              	.LBB392:
 1590              		.loc 3 546 0 is_stmt 1
 1591 001c 2023     		movs	r3, #32
 1592              		.syntax unified
 1593              	@ 546 "..//ChibiOS//os/ext/CMSIS/include/core_cmFunc.h" 1
 1594 001e 83F31188 		MSR basepri, r3
 1595              	@ 0 "" 2
 1596              	.LVL146:
ARM GAS  C:\Users\Moi\AppData\Local\Temp\cciP7z0x.s 			page 29


 1597              		.thumb
 1598              		.syntax unified
 1599              	.LBE392:
 1600              	.LBE391:
 1601              	.LBE390:
 1602              		.loc 4 349 0
 1603 0022 FFF7FEFF 		bl	_stats_start_measure_crit_thd
 1604              	.LVL147:
 1605              		.loc 4 350 0
 1606 0026 FFF7FEFF 		bl	_dbg_check_lock
 1607              	.LVL148:
 1608              	.LBE389:
 1609              	.LBE388:
 1610              	.LBE387:
 1611              		.loc 1 313 0
 1612 002a 2378     		ldrb	r3, [r4]	@ zero_extendqisi2
 1613 002c 022B     		cmp	r3, #2
 1614 002e 02D0     		beq	.L176
 1615              		.loc 1 313 0 is_stmt 0 discriminator 2
 1616 0030 1A48     		ldr	r0, .L196+4
 1617 0032 FFF7FEFF 		bl	chSysHalt
 1618              	.LVL149:
 1619              	.L176:
 1620              		.loc 1 314 0 is_stmt 1 discriminator 1
 1621 0036 6368     		ldr	r3, [r4, #4]
 1622 0038 1B68     		ldr	r3, [r3]
 1623 003a 13B1     		cbz	r3, .L177
 1624              		.loc 1 314 0 is_stmt 0 discriminator 2
 1625 003c 1748     		ldr	r0, .L196+4
 1626 003e FFF7FEFF 		bl	chSysHalt
 1627              	.LVL150:
 1628              	.L177:
 1629              		.loc 1 315 0 is_stmt 1
 1630 0042 0323     		movs	r3, #3
 1631 0044 3A46     		mov	r2, r7
 1632 0046 2370     		strb	r3, [r4]
 1633 0048 3146     		mov	r1, r6
 1634 004a 2046     		mov	r0, r4
 1635 004c FFF7FEFF 		bl	spi3_slave_lld_send
 1636              	.LVL151:
 1637              	.LBB393:
 1638              	.LBB394:
 1639              		.loc 2 642 0
 1640 0050 04F10800 		add	r0, r4, #8
 1641              	.LVL152:
 1642 0054 FFF7FEFF 		bl	chThdSuspendS
 1643              	.LVL153:
 1644              	.LBE394:
 1645              	.LBE393:
 1646              	.LBB395:
 1647              	.LBB396:
 1648              	.LBB397:
 1649              		.loc 4 360 0
 1650 0058 FFF7FEFF 		bl	_dbg_check_unlock
 1651              	.LVL154:
 1652              		.loc 4 361 0
 1653 005c FFF7FEFF 		bl	_stats_stop_measure_crit_thd
ARM GAS  C:\Users\Moi\AppData\Local\Temp\cciP7z0x.s 			page 30


 1654              	.LVL155:
 1655              		.loc 4 367 0
 1656 0060 0F4B     		ldr	r3, .L196+8
 1657 0062 1A68     		ldr	r2, [r3]
 1658 0064 9A42     		cmp	r2, r3
 1659 0066 04D0     		beq	.L178
 1660 0068 9969     		ldr	r1, [r3, #24]
 1661 006a 9368     		ldr	r3, [r2, #8]
 1662 006c 8A68     		ldr	r2, [r1, #8]
 1663 006e 9A42     		cmp	r2, r3
 1664 0070 0BD3     		bcc	.L194
 1665              	.L178:
 1666              	.LVL156:
 1667              	.LBB398:
 1668              	.LBB399:
 1669              	.LBB400:
 1670              		.loc 3 546 0
 1671 0072 0023     		movs	r3, #0
 1672              		.syntax unified
 1673              	@ 546 "..//ChibiOS//os/ext/CMSIS/include/core_cmFunc.h" 1
 1674 0074 83F31188 		MSR basepri, r3
 1675              	@ 0 "" 2
 1676              	.LVL157:
 1677              		.thumb
 1678              		.syntax unified
 1679              	.LBE400:
 1680              	.LBE399:
 1681              	.LBE398:
 1682              	.LBE397:
 1683              	.LBE396:
 1684              	.LBE395:
 1685              		.loc 1 318 0
 1686 0078 019A     		ldr	r2, [sp, #4]
 1687 007a 2B68     		ldr	r3, [r5]
 1688 007c 9A42     		cmp	r2, r3
 1689 007e 08D1     		bne	.L195
 1690 0080 03B0     		add	sp, sp, #12
 1691              		.cfi_remember_state
 1692              		.cfi_def_cfa_offset 20
 1693              		@ sp needed
 1694 0082 F0BD     		pop	{r4, r5, r6, r7, pc}
 1695              	.LVL158:
 1696              	.L193:
 1697              		.cfi_restore_state
 1698              		.loc 1 310 0 discriminator 5
 1699 0084 002A     		cmp	r2, #0
 1700 0086 C9D1     		bne	.L175
 1701 0088 C5E7     		b	.L174
 1702              	.LVL159:
 1703              	.L194:
 1704              	.LBB403:
 1705              	.LBB402:
 1706              	.LBB401:
 1707              		.loc 4 367 0
 1708 008a 0648     		ldr	r0, .L196+12
 1709 008c FFF7FEFF 		bl	chSysHalt
 1710              	.LVL160:
ARM GAS  C:\Users\Moi\AppData\Local\Temp\cciP7z0x.s 			page 31


 1711 0090 EFE7     		b	.L178
 1712              	.L195:
 1713              	.LBE401:
 1714              	.LBE402:
 1715              	.LBE403:
 1716              		.loc 1 318 0
 1717 0092 FFF7FEFF 		bl	__stack_chk_fail
 1718              	.LVL161:
 1719              	.L197:
 1720 0096 00BF     		.align	2
 1721              	.L196:
 1722 0098 00000000 		.word	__stack_chk_guard
 1723 009c 00000000 		.word	.LANCHOR9
 1724 00a0 00000000 		.word	ch
 1725 00a4 00000000 		.word	.LANCHOR1
 1726              		.cfi_endproc
 1727              	.LFE266:
 1728              		.size	spi3SlaveSend, .-spi3SlaveSend
 1729              		.section	.text.spi3SlaveReceive,"ax",%progbits
 1730              		.align	1
 1731              		.p2align 4,,15
 1732              		.global	spi3SlaveReceive
 1733              		.syntax unified
 1734              		.thumb
 1735              		.thumb_func
 1736              		.fpu fpv4-sp-d16
 1737              		.type	spi3SlaveReceive, %function
 1738              	spi3SlaveReceive:
 1739              	.LFB267:
 1740              		.loc 1 336 0
 1741              		.cfi_startproc
 1742              		@ args = 0, pretend = 0, frame = 8
 1743              		@ frame_needed = 0, uses_anonymous_args = 0
 1744              	.LVL162:
 1745 0000 F0B5     		push	{r4, r5, r6, r7, lr}
 1746              		.cfi_def_cfa_offset 20
 1747              		.cfi_offset 4, -20
 1748              		.cfi_offset 5, -16
 1749              		.cfi_offset 6, -12
 1750              		.cfi_offset 7, -8
 1751              		.cfi_offset 14, -4
 1752 0002 254D     		ldr	r5, .L221
 1753 0004 83B0     		sub	sp, sp, #12
 1754              		.cfi_def_cfa_offset 32
 1755              		.loc 1 336 0
 1756 0006 2B68     		ldr	r3, [r5]
 1757 0008 0193     		str	r3, [sp, #4]
 1758 000a 0E46     		mov	r6, r1
 1759 000c 1746     		mov	r7, r2
 1760              		.loc 1 338 0
 1761 000e 0446     		mov	r4, r0
 1762 0010 08B1     		cbz	r0, .L199
 1763              		.loc 1 338 0 is_stmt 0 discriminator 3
 1764 0012 0029     		cmp	r1, #0
 1765 0014 36D1     		bne	.L218
 1766              	.L199:
 1767              		.loc 1 338 0 discriminator 6
ARM GAS  C:\Users\Moi\AppData\Local\Temp\cciP7z0x.s 			page 32


 1768 0016 2148     		ldr	r0, .L221+4
 1769              	.LVL163:
 1770 0018 FFF7FEFF 		bl	chSysHalt
 1771              	.LVL164:
 1772              	.L200:
 1773              	.LBB419:
 1774              	.LBB420:
 1775              	.LBB421:
 1776              	.LBB422:
 1777              	.LBB423:
 1778              	.LBB424:
 1779              		.loc 3 546 0 is_stmt 1
 1780 001c 2023     		movs	r3, #32
 1781              		.syntax unified
 1782              	@ 546 "..//ChibiOS//os/ext/CMSIS/include/core_cmFunc.h" 1
 1783 001e 83F31188 		MSR basepri, r3
 1784              	@ 0 "" 2
 1785              	.LVL165:
 1786              		.thumb
 1787              		.syntax unified
 1788              	.LBE424:
 1789              	.LBE423:
 1790              	.LBE422:
 1791              		.loc 4 349 0
 1792 0022 FFF7FEFF 		bl	_stats_start_measure_crit_thd
 1793              	.LVL166:
 1794              		.loc 4 350 0
 1795 0026 FFF7FEFF 		bl	_dbg_check_lock
 1796              	.LVL167:
 1797              	.LBE421:
 1798              	.LBE420:
 1799              	.LBE419:
 1800              		.loc 1 341 0
 1801 002a 2378     		ldrb	r3, [r4]	@ zero_extendqisi2
 1802 002c 022B     		cmp	r3, #2
 1803 002e 02D0     		beq	.L201
 1804              		.loc 1 341 0 is_stmt 0 discriminator 2
 1805 0030 1A48     		ldr	r0, .L221+4
 1806 0032 FFF7FEFF 		bl	chSysHalt
 1807              	.LVL168:
 1808              	.L201:
 1809              		.loc 1 342 0 is_stmt 1 discriminator 1
 1810 0036 6368     		ldr	r3, [r4, #4]
 1811 0038 1B68     		ldr	r3, [r3]
 1812 003a 13B1     		cbz	r3, .L202
 1813              		.loc 1 342 0 is_stmt 0 discriminator 2
 1814 003c 1748     		ldr	r0, .L221+4
 1815 003e FFF7FEFF 		bl	chSysHalt
 1816              	.LVL169:
 1817              	.L202:
 1818              		.loc 1 343 0 is_stmt 1
 1819 0042 0323     		movs	r3, #3
 1820 0044 3A46     		mov	r2, r7
 1821 0046 2370     		strb	r3, [r4]
 1822 0048 3146     		mov	r1, r6
 1823 004a 2046     		mov	r0, r4
 1824 004c FFF7FEFF 		bl	spi3_slave_lld_receive
ARM GAS  C:\Users\Moi\AppData\Local\Temp\cciP7z0x.s 			page 33


 1825              	.LVL170:
 1826              	.LBB425:
 1827              	.LBB426:
 1828              		.loc 2 642 0
 1829 0050 04F10800 		add	r0, r4, #8
 1830              	.LVL171:
 1831 0054 FFF7FEFF 		bl	chThdSuspendS
 1832              	.LVL172:
 1833              	.LBE426:
 1834              	.LBE425:
 1835              	.LBB427:
 1836              	.LBB428:
 1837              	.LBB429:
 1838              		.loc 4 360 0
 1839 0058 FFF7FEFF 		bl	_dbg_check_unlock
 1840              	.LVL173:
 1841              		.loc 4 361 0
 1842 005c FFF7FEFF 		bl	_stats_stop_measure_crit_thd
 1843              	.LVL174:
 1844              		.loc 4 367 0
 1845 0060 0F4B     		ldr	r3, .L221+8
 1846 0062 1A68     		ldr	r2, [r3]
 1847 0064 9A42     		cmp	r2, r3
 1848 0066 04D0     		beq	.L203
 1849 0068 9969     		ldr	r1, [r3, #24]
 1850 006a 9368     		ldr	r3, [r2, #8]
 1851 006c 8A68     		ldr	r2, [r1, #8]
 1852 006e 9A42     		cmp	r2, r3
 1853 0070 0BD3     		bcc	.L219
 1854              	.L203:
 1855              	.LVL175:
 1856              	.LBB430:
 1857              	.LBB431:
 1858              	.LBB432:
 1859              		.loc 3 546 0
 1860 0072 0023     		movs	r3, #0
 1861              		.syntax unified
 1862              	@ 546 "..//ChibiOS//os/ext/CMSIS/include/core_cmFunc.h" 1
 1863 0074 83F31188 		MSR basepri, r3
 1864              	@ 0 "" 2
 1865              	.LVL176:
 1866              		.thumb
 1867              		.syntax unified
 1868              	.LBE432:
 1869              	.LBE431:
 1870              	.LBE430:
 1871              	.LBE429:
 1872              	.LBE428:
 1873              	.LBE427:
 1874              		.loc 1 346 0
 1875 0078 019A     		ldr	r2, [sp, #4]
 1876 007a 2B68     		ldr	r3, [r5]
 1877 007c 9A42     		cmp	r2, r3
 1878 007e 08D1     		bne	.L220
 1879 0080 03B0     		add	sp, sp, #12
 1880              		.cfi_remember_state
 1881              		.cfi_def_cfa_offset 20
ARM GAS  C:\Users\Moi\AppData\Local\Temp\cciP7z0x.s 			page 34


 1882              		@ sp needed
 1883 0082 F0BD     		pop	{r4, r5, r6, r7, pc}
 1884              	.LVL177:
 1885              	.L218:
 1886              		.cfi_restore_state
 1887              		.loc 1 338 0 discriminator 5
 1888 0084 002A     		cmp	r2, #0
 1889 0086 C9D1     		bne	.L200
 1890 0088 C5E7     		b	.L199
 1891              	.LVL178:
 1892              	.L219:
 1893              	.LBB435:
 1894              	.LBB434:
 1895              	.LBB433:
 1896              		.loc 4 367 0
 1897 008a 0648     		ldr	r0, .L221+12
 1898 008c FFF7FEFF 		bl	chSysHalt
 1899              	.LVL179:
 1900 0090 EFE7     		b	.L203
 1901              	.L220:
 1902              	.LBE433:
 1903              	.LBE434:
 1904              	.LBE435:
 1905              		.loc 1 346 0
 1906 0092 FFF7FEFF 		bl	__stack_chk_fail
 1907              	.LVL180:
 1908              	.L222:
 1909 0096 00BF     		.align	2
 1910              	.L221:
 1911 0098 00000000 		.word	__stack_chk_guard
 1912 009c 00000000 		.word	.LANCHOR10
 1913 00a0 00000000 		.word	ch
 1914 00a4 00000000 		.word	.LANCHOR1
 1915              		.cfi_endproc
 1916              	.LFE267:
 1917              		.size	spi3SlaveReceive, .-spi3SlaveReceive
 1918              		.section	.text.spi3SlaveAcquireBus,"ax",%progbits
 1919              		.align	1
 1920              		.p2align 4,,15
 1921              		.global	spi3SlaveAcquireBus
 1922              		.syntax unified
 1923              		.thumb
 1924              		.thumb_func
 1925              		.fpu fpv4-sp-d16
 1926              		.type	spi3SlaveAcquireBus, %function
 1927              	spi3SlaveAcquireBus:
 1928              	.LFB268:
 1929              		.loc 1 361 0
 1930              		.cfi_startproc
 1931              		@ args = 0, pretend = 0, frame = 8
 1932              		@ frame_needed = 0, uses_anonymous_args = 0
 1933              	.LVL181:
 1934 0000 30B5     		push	{r4, r5, lr}
 1935              		.cfi_def_cfa_offset 12
 1936              		.cfi_offset 4, -12
 1937              		.cfi_offset 5, -8
 1938              		.cfi_offset 14, -4
ARM GAS  C:\Users\Moi\AppData\Local\Temp\cciP7z0x.s 			page 35


 1939 0002 0B4C     		ldr	r4, .L230
 1940 0004 83B0     		sub	sp, sp, #12
 1941              		.cfi_def_cfa_offset 24
 1942              		.loc 1 361 0
 1943 0006 2368     		ldr	r3, [r4]
 1944 0008 0193     		str	r3, [sp, #4]
 1945              		.loc 1 363 0
 1946 000a 0546     		mov	r5, r0
 1947 000c 50B1     		cbz	r0, .L228
 1948              	.LVL182:
 1949              	.L224:
 1950              	.LBB436:
 1951              	.LBB437:
 1952              		.loc 2 861 0
 1953 000e 019A     		ldr	r2, [sp, #4]
 1954 0010 2368     		ldr	r3, [r4]
 1955 0012 9A42     		cmp	r2, r3
 1956 0014 0AD1     		bne	.L229
 1957 0016 05F10C00 		add	r0, r5, #12
 1958              	.LVL183:
 1959              	.LBE437:
 1960              	.LBE436:
 1961              		.loc 1 366 0
 1962 001a 03B0     		add	sp, sp, #12
 1963              		.cfi_remember_state
 1964              		.cfi_def_cfa_offset 12
 1965              		@ sp needed
 1966 001c BDE83040 		pop	{r4, r5, lr}
 1967              		.cfi_restore 14
 1968              		.cfi_restore 5
 1969              		.cfi_restore 4
 1970              		.cfi_def_cfa_offset 0
 1971              	.LVL184:
 1972              	.LBB440:
 1973              	.LBB438:
 1974              		.loc 2 861 0
 1975 0020 FFF7FEBF 		b	chMtxLock
 1976              	.LVL185:
 1977              	.L228:
 1978              		.cfi_restore_state
 1979              	.LBE438:
 1980              	.LBE440:
 1981              		.loc 1 363 0 discriminator 2
 1982 0024 0348     		ldr	r0, .L230+4
 1983              	.LVL186:
 1984 0026 FFF7FEFF 		bl	chSysHalt
 1985              	.LVL187:
 1986 002a F0E7     		b	.L224
 1987              	.LVL188:
 1988              	.L229:
 1989              	.LBB441:
 1990              	.LBB439:
 1991              		.loc 2 861 0
 1992 002c FFF7FEFF 		bl	__stack_chk_fail
 1993              	.LVL189:
 1994              	.L231:
 1995              		.align	2
ARM GAS  C:\Users\Moi\AppData\Local\Temp\cciP7z0x.s 			page 36


 1996              	.L230:
 1997 0030 00000000 		.word	__stack_chk_guard
 1998 0034 00000000 		.word	.LANCHOR11
 1999              	.LBE439:
 2000              	.LBE441:
 2001              		.cfi_endproc
 2002              	.LFE268:
 2003              		.size	spi3SlaveAcquireBus, .-spi3SlaveAcquireBus
 2004              		.section	.text.spi3SlaveReleaseBus,"ax",%progbits
 2005              		.align	1
 2006              		.p2align 4,,15
 2007              		.global	spi3SlaveReleaseBus
 2008              		.syntax unified
 2009              		.thumb
 2010              		.thumb_func
 2011              		.fpu fpv4-sp-d16
 2012              		.type	spi3SlaveReleaseBus, %function
 2013              	spi3SlaveReleaseBus:
 2014              	.LFB269:
 2015              		.loc 1 377 0
 2016              		.cfi_startproc
 2017              		@ args = 0, pretend = 0, frame = 8
 2018              		@ frame_needed = 0, uses_anonymous_args = 0
 2019              	.LVL190:
 2020 0000 30B5     		push	{r4, r5, lr}
 2021              		.cfi_def_cfa_offset 12
 2022              		.cfi_offset 4, -12
 2023              		.cfi_offset 5, -8
 2024              		.cfi_offset 14, -4
 2025 0002 0B4C     		ldr	r4, .L239
 2026 0004 83B0     		sub	sp, sp, #12
 2027              		.cfi_def_cfa_offset 24
 2028              		.loc 1 377 0
 2029 0006 2368     		ldr	r3, [r4]
 2030 0008 0193     		str	r3, [sp, #4]
 2031              		.loc 1 379 0
 2032 000a 0546     		mov	r5, r0
 2033 000c 50B1     		cbz	r0, .L237
 2034              	.LVL191:
 2035              	.L233:
 2036              	.LBB442:
 2037              	.LBB443:
 2038              		.loc 2 885 0
 2039 000e 019A     		ldr	r2, [sp, #4]
 2040 0010 2368     		ldr	r3, [r4]
 2041 0012 9A42     		cmp	r2, r3
 2042 0014 0AD1     		bne	.L238
 2043 0016 05F10C00 		add	r0, r5, #12
 2044              	.LVL192:
 2045              	.LBE443:
 2046              	.LBE442:
 2047              		.loc 1 382 0
 2048 001a 03B0     		add	sp, sp, #12
 2049              		.cfi_remember_state
 2050              		.cfi_def_cfa_offset 12
 2051              		@ sp needed
 2052 001c BDE83040 		pop	{r4, r5, lr}
ARM GAS  C:\Users\Moi\AppData\Local\Temp\cciP7z0x.s 			page 37


 2053              		.cfi_restore 14
 2054              		.cfi_restore 5
 2055              		.cfi_restore 4
 2056              		.cfi_def_cfa_offset 0
 2057              	.LVL193:
 2058              	.LBB446:
 2059              	.LBB444:
 2060              		.loc 2 885 0
 2061 0020 FFF7FEBF 		b	chMtxUnlock
 2062              	.LVL194:
 2063              	.L237:
 2064              		.cfi_restore_state
 2065              	.LBE444:
 2066              	.LBE446:
 2067              		.loc 1 379 0 discriminator 2
 2068 0024 0348     		ldr	r0, .L239+4
 2069              	.LVL195:
 2070 0026 FFF7FEFF 		bl	chSysHalt
 2071              	.LVL196:
 2072 002a F0E7     		b	.L233
 2073              	.LVL197:
 2074              	.L238:
 2075              	.LBB447:
 2076              	.LBB445:
 2077              		.loc 2 885 0
 2078 002c FFF7FEFF 		bl	__stack_chk_fail
 2079              	.LVL198:
 2080              	.L240:
 2081              		.align	2
 2082              	.L239:
 2083 0030 00000000 		.word	__stack_chk_guard
 2084 0034 00000000 		.word	.LANCHOR12
 2085              	.LBE445:
 2086              	.LBE447:
 2087              		.cfi_endproc
 2088              	.LFE269:
 2089              		.size	spi3SlaveReleaseBus, .-spi3SlaveReleaseBus
 2090              		.section	.text.spi3SlaveStopExchange,"ax",%progbits
 2091              		.align	1
 2092              		.p2align 4,,15
 2093              		.global	spi3SlaveStopExchange
 2094              		.syntax unified
 2095              		.thumb
 2096              		.thumb_func
 2097              		.fpu fpv4-sp-d16
 2098              		.type	spi3SlaveStopExchange, %function
 2099              	spi3SlaveStopExchange:
 2100              	.LFB270:
 2101              		.loc 1 393 0
 2102              		.cfi_startproc
 2103              		@ args = 0, pretend = 0, frame = 8
 2104              		@ frame_needed = 0, uses_anonymous_args = 0
 2105              	.LVL199:
 2106 0000 30B5     		push	{r4, r5, lr}
 2107              		.cfi_def_cfa_offset 12
 2108              		.cfi_offset 4, -12
 2109              		.cfi_offset 5, -8
ARM GAS  C:\Users\Moi\AppData\Local\Temp\cciP7z0x.s 			page 38


 2110              		.cfi_offset 14, -4
 2111 0002 1C4D     		ldr	r5, .L250
 2112 0004 83B0     		sub	sp, sp, #12
 2113              		.cfi_def_cfa_offset 24
 2114              		.loc 1 393 0
 2115 0006 2B68     		ldr	r3, [r5]
 2116 0008 0193     		str	r3, [sp, #4]
 2117              		.loc 1 394 0
 2118 000a 0446     		mov	r4, r0
 2119 000c 60B3     		cbz	r0, .L247
 2120              	.LVL200:
 2121              	.L242:
 2122              	.LBB461:
 2123              	.LBB462:
 2124              	.LBB463:
 2125              	.LBB464:
 2126              	.LBB465:
 2127              	.LBB466:
 2128              		.loc 3 546 0
 2129 000e 2023     		movs	r3, #32
 2130              		.syntax unified
 2131              	@ 546 "..//ChibiOS//os/ext/CMSIS/include/core_cmFunc.h" 1
 2132 0010 83F31188 		MSR basepri, r3
 2133              	@ 0 "" 2
 2134              	.LVL201:
 2135              		.thumb
 2136              		.syntax unified
 2137              	.LBE466:
 2138              	.LBE465:
 2139              	.LBE464:
 2140              		.loc 4 349 0
 2141 0014 FFF7FEFF 		bl	_stats_start_measure_crit_thd
 2142              	.LVL202:
 2143              		.loc 4 350 0
 2144 0018 FFF7FEFF 		bl	_dbg_check_lock
 2145              	.LVL203:
 2146              	.LBE463:
 2147              	.LBE462:
 2148              	.LBE461:
 2149              		.loc 1 397 0
 2150 001c 2378     		ldrb	r3, [r4]	@ zero_extendqisi2
 2151 001e 023B     		subs	r3, r3, #2
 2152 0020 022B     		cmp	r3, #2
 2153 0022 02D9     		bls	.L243
 2154              		.loc 1 397 0 is_stmt 0 discriminator 2
 2155 0024 1448     		ldr	r0, .L250+4
 2156 0026 FFF7FEFF 		bl	chSysHalt
 2157              	.LVL204:
 2158              	.L243:
 2159              		.loc 1 401 0 is_stmt 1
 2160 002a 2046     		mov	r0, r4
 2161 002c FFF7FEFF 		bl	spi3_slave_lld_stop_exchange
 2162              	.LVL205:
 2163 0030 0223     		movs	r3, #2
 2164 0032 2370     		strb	r3, [r4]
 2165              	.LBB467:
 2166              	.LBB468:
ARM GAS  C:\Users\Moi\AppData\Local\Temp\cciP7z0x.s 			page 39


 2167              	.LBB469:
 2168              		.loc 4 360 0
 2169 0034 FFF7FEFF 		bl	_dbg_check_unlock
 2170              	.LVL206:
 2171              		.loc 4 361 0
 2172 0038 FFF7FEFF 		bl	_stats_stop_measure_crit_thd
 2173              	.LVL207:
 2174              		.loc 4 367 0
 2175 003c 0F4B     		ldr	r3, .L250+8
 2176 003e 1A68     		ldr	r2, [r3]
 2177 0040 9A42     		cmp	r2, r3
 2178 0042 04D0     		beq	.L244
 2179 0044 9969     		ldr	r1, [r3, #24]
 2180 0046 9368     		ldr	r3, [r2, #8]
 2181 0048 8A68     		ldr	r2, [r1, #8]
 2182 004a 9A42     		cmp	r2, r3
 2183 004c 08D3     		bcc	.L248
 2184              	.L244:
 2185              	.LVL208:
 2186              	.LBB470:
 2187              	.LBB471:
 2188              	.LBB472:
 2189              		.loc 3 546 0
 2190 004e 0023     		movs	r3, #0
 2191              		.syntax unified
 2192              	@ 546 "..//ChibiOS//os/ext/CMSIS/include/core_cmFunc.h" 1
 2193 0050 83F31188 		MSR basepri, r3
 2194              	@ 0 "" 2
 2195              	.LVL209:
 2196              		.thumb
 2197              		.syntax unified
 2198              	.LBE472:
 2199              	.LBE471:
 2200              	.LBE470:
 2201              	.LBE469:
 2202              	.LBE468:
 2203              	.LBE467:
 2204              		.loc 1 403 0
 2205 0054 019A     		ldr	r2, [sp, #4]
 2206 0056 2B68     		ldr	r3, [r5]
 2207 0058 9A42     		cmp	r2, r3
 2208 005a 09D1     		bne	.L249
 2209 005c 03B0     		add	sp, sp, #12
 2210              		.cfi_remember_state
 2211              		.cfi_def_cfa_offset 12
 2212              		@ sp needed
 2213 005e 30BD     		pop	{r4, r5, pc}
 2214              	.LVL210:
 2215              	.L248:
 2216              		.cfi_restore_state
 2217              	.LBB475:
 2218              	.LBB474:
 2219              	.LBB473:
 2220              		.loc 4 367 0
 2221 0060 0748     		ldr	r0, .L250+12
 2222 0062 FFF7FEFF 		bl	chSysHalt
 2223              	.LVL211:
ARM GAS  C:\Users\Moi\AppData\Local\Temp\cciP7z0x.s 			page 40


 2224 0066 F2E7     		b	.L244
 2225              	.LVL212:
 2226              	.L247:
 2227              	.LBE473:
 2228              	.LBE474:
 2229              	.LBE475:
 2230              		.loc 1 394 0 discriminator 2
 2231 0068 0348     		ldr	r0, .L250+4
 2232              	.LVL213:
 2233 006a FFF7FEFF 		bl	chSysHalt
 2234              	.LVL214:
 2235 006e CEE7     		b	.L242
 2236              	.L249:
 2237              		.loc 1 403 0
 2238 0070 FFF7FEFF 		bl	__stack_chk_fail
 2239              	.LVL215:
 2240              	.L251:
 2241              		.align	2
 2242              	.L250:
 2243 0074 00000000 		.word	__stack_chk_guard
 2244 0078 00000000 		.word	.LANCHOR13
 2245 007c 00000000 		.word	ch
 2246 0080 00000000 		.word	.LANCHOR1
 2247              		.cfi_endproc
 2248              	.LFE270:
 2249              		.size	spi3SlaveStopExchange, .-spi3SlaveStopExchange
 2250              		.global	SPISLAVED3
 2251              		.section	.bss.SPISLAVED3,"aw",%nobits
 2252              		.align	2
 2253              		.type	SPISLAVED3, %object
 2254              		.size	SPISLAVED3, 52
 2255              	SPISLAVED3:
 2256 0000 00000000 		.space	52
 2256      00000000 
 2256      00000000 
 2256      00000000 
 2256      00000000 
 2257              		.section	.rodata.__func__.10000,"a",%progbits
 2258              		.align	2
 2259              		.set	.LANCHOR9,. + 0
 2260              		.type	__func__.10000, %object
 2261              		.size	__func__.10000, 14
 2262              	__func__.10000:
 2263 0000 73706933 		.ascii	"spi3SlaveSend\000"
 2263      536C6176 
 2263      6553656E 
 2263      6400
 2264              		.section	.rodata.__func__.10006,"a",%progbits
 2265              		.align	2
 2266              		.set	.LANCHOR10,. + 0
 2267              		.type	__func__.10006, %object
 2268              		.size	__func__.10006, 17
 2269              	__func__.10006:
 2270 0000 73706933 		.ascii	"spi3SlaveReceive\000"
 2270      536C6176 
 2270      65526563 
 2270      65697665 
ARM GAS  C:\Users\Moi\AppData\Local\Temp\cciP7z0x.s 			page 41


 2270      00
 2271              		.section	.rodata.__func__.10010,"a",%progbits
 2272              		.align	2
 2273              		.set	.LANCHOR11,. + 0
 2274              		.type	__func__.10010, %object
 2275              		.size	__func__.10010, 20
 2276              	__func__.10010:
 2277 0000 73706933 		.ascii	"spi3SlaveAcquireBus\000"
 2277      536C6176 
 2277      65416371 
 2277      75697265 
 2277      42757300 
 2278              		.section	.rodata.__func__.10014,"a",%progbits
 2279              		.align	2
 2280              		.set	.LANCHOR12,. + 0
 2281              		.type	__func__.10014, %object
 2282              		.size	__func__.10014, 20
 2283              	__func__.10014:
 2284 0000 73706933 		.ascii	"spi3SlaveReleaseBus\000"
 2284      536C6176 
 2284      6552656C 
 2284      65617365 
 2284      42757300 
 2285              		.section	.rodata.__func__.10018,"a",%progbits
 2286              		.align	2
 2287              		.set	.LANCHOR13,. + 0
 2288              		.type	__func__.10018, %object
 2289              		.size	__func__.10018, 22
 2290              	__func__.10018:
 2291 0000 73706933 		.ascii	"spi3SlaveStopExchange\000"
 2291      536C6176 
 2291      6553746F 
 2291      70457863 
 2291      68616E67 
 2292              		.section	.rodata.__func__.7153,"a",%progbits
 2293              		.align	2
 2294              		.set	.LANCHOR1,. + 0
 2295              		.type	__func__.7153, %object
 2296              		.size	__func__.7153, 12
 2297              	__func__.7153:
 2298 0000 63685379 		.ascii	"chSysUnlock\000"
 2298      73556E6C 
 2298      6F636B00 
 2299              		.section	.rodata.__func__.9954,"a",%progbits
 2300              		.align	2
 2301              		.set	.LANCHOR0,. + 0
 2302              		.type	__func__.9954, %object
 2303              		.size	__func__.9954, 15
 2304              	__func__.9954:
 2305 0000 73706933 		.ascii	"spi3SlaveStart\000"
 2305      536C6176 
 2305      65537461 
 2305      727400
 2306              		.section	.rodata.__func__.9958,"a",%progbits
 2307              		.align	2
 2308              		.set	.LANCHOR2,. + 0
 2309              		.type	__func__.9958, %object
ARM GAS  C:\Users\Moi\AppData\Local\Temp\cciP7z0x.s 			page 42


 2310              		.size	__func__.9958, 14
 2311              	__func__.9958:
 2312 0000 73706933 		.ascii	"spi3SlaveStop\000"
 2312      536C6176 
 2312      6553746F 
 2312      7000
 2313              		.section	.rodata.__func__.9963,"a",%progbits
 2314              		.align	2
 2315              		.set	.LANCHOR3,. + 0
 2316              		.type	__func__.9963, %object
 2317              		.size	__func__.9963, 21
 2318              	__func__.9963:
 2319 0000 73706933 		.ascii	"spi3SlaveStartIgnore\000"
 2319      536C6176 
 2319      65537461 
 2319      72744967 
 2319      6E6F7265 
 2320              		.section	.rodata.__func__.9970,"a",%progbits
 2321              		.align	2
 2322              		.set	.LANCHOR4,. + 0
 2323              		.type	__func__.9970, %object
 2324              		.size	__func__.9970, 23
 2325              	__func__.9970:
 2326 0000 73706933 		.ascii	"spi3SlaveStartExchange\000"
 2326      536C6176 
 2326      65537461 
 2326      72744578 
 2326      6368616E 
 2327              		.section	.rodata.__func__.9976,"a",%progbits
 2328              		.align	2
 2329              		.set	.LANCHOR5,. + 0
 2330              		.type	__func__.9976, %object
 2331              		.size	__func__.9976, 19
 2332              	__func__.9976:
 2333 0000 73706933 		.ascii	"spi3SlaveStartSend\000"
 2333      536C6176 
 2333      65537461 
 2333      72745365 
 2333      6E6400
 2334              		.section	.rodata.__func__.9982,"a",%progbits
 2335              		.align	2
 2336              		.set	.LANCHOR6,. + 0
 2337              		.type	__func__.9982, %object
 2338              		.size	__func__.9982, 22
 2339              	__func__.9982:
 2340 0000 73706933 		.ascii	"spi3SlaveStartReceive\000"
 2340      536C6176 
 2340      65537461 
 2340      72745265 
 2340      63656976 
 2341              		.section	.rodata.__func__.9987,"a",%progbits
 2342              		.align	2
 2343              		.set	.LANCHOR7,. + 0
 2344              		.type	__func__.9987, %object
 2345              		.size	__func__.9987, 16
 2346              	__func__.9987:
 2347 0000 73706933 		.ascii	"spi3SlaveIgnore\000"
ARM GAS  C:\Users\Moi\AppData\Local\Temp\cciP7z0x.s 			page 43


 2347      536C6176 
 2347      6549676E 
 2347      6F726500 
 2348              		.section	.rodata.__func__.9994,"a",%progbits
 2349              		.align	2
 2350              		.set	.LANCHOR8,. + 0
 2351              		.type	__func__.9994, %object
 2352              		.size	__func__.9994, 18
 2353              	__func__.9994:
 2354 0000 73706933 		.ascii	"spi3SlaveExchange\000"
 2354      536C6176 
 2354      65457863 
 2354      68616E67 
 2354      6500
 2355              		.text
 2356              	.Letext0:
 2357              		.file 5 "c:\\users\\moi\\documents\\_microinfo\\epuck-eclipse\\tools\\gcc-arm-none-eabi-7-2017-q4-
 2358              		.file 6 "c:\\users\\moi\\documents\\_microinfo\\epuck-eclipse\\tools\\gcc-arm-none-eabi-7-2017-q4-
 2359              		.file 7 "c:\\users\\moi\\documents\\_microinfo\\epuck-eclipse\\tools\\gcc-arm-none-eabi-7-2017-q4-
 2360              		.file 8 "..//ChibiOS//os/rt/ports/ARMCMx/compilers/GCC/chtypes.h"
 2361              		.file 9 "..//ChibiOS//os/rt/include/chsystypes.h"
 2362              		.file 10 "..//ChibiOS//os/rt/include/chschd.h"
 2363              		.file 11 "..//ChibiOS//os/ext/CMSIS/include/core_cm4.h"
 2364              		.file 12 "..//ChibiOS//os/ext/CMSIS/ST/system_stm32f4xx.h"
 2365              		.file 13 "..//ChibiOS//os/ext/CMSIS/ST/stm32f407xx.h"
 2366              		.file 14 "..//ChibiOS//os/rt/ports/ARMCMx/chcore.h"
 2367              		.file 15 "..//ChibiOS//os/rt/ports/ARMCMx/chcore_v7m.h"
 2368              		.file 16 "..//ChibiOS//os/rt/include/chdebug.h"
 2369              		.file 17 "..//ChibiOS//os/rt/include/chtm.h"
 2370              		.file 18 "..//ChibiOS//os/rt/include/chstats.h"
 2371              		.file 19 "..//ChibiOS//os/rt/include/chsem.h"
 2372              		.file 20 "..//ChibiOS//os/rt/include/chmtx.h"
 2373              		.file 21 "..//ChibiOS//os/rt/include/chregistry.h"
 2374              		.file 22 "..//ChibiOS//os/rt/include/chevents.h"
 2375              		.file 23 "..//ChibiOS//os/rt/include/chqueues.h"
 2376              		.file 24 "..//ChibiOS//os/hal/ports/STM32/STM32F4xx/stm32_dma.h"
 2377              		.file 25 "..//ChibiOS//os/hal/include/hal_ioblock.h"
 2378              		.file 26 "..//ChibiOS//os/hal/ports/STM32/LLD/GPIOv2/pal_lld.h"
 2379              		.file 27 "..//ChibiOS//os/hal/include/adc.h"
 2380              		.file 28 "..//ChibiOS//os/hal/ports/STM32/STM32F4xx/adc_lld.h"
 2381              		.file 29 "..//ChibiOS//os/hal/include/can.h"
 2382              		.file 30 "..//ChibiOS//os/hal/ports/STM32/LLD/can_lld.h"
 2383              		.file 31 "..//ChibiOS//os/hal/include/dac.h"
 2384              		.file 32 "..//ChibiOS//os/hal/ports/STM32/LLD/DACv1/dac_lld.h"
 2385              		.file 33 "..//ChibiOS//os/hal/include/ext.h"
 2386              		.file 34 "..//ChibiOS//os/hal/ports/STM32/LLD/ext_lld.h"
 2387              		.file 35 "..//ChibiOS//os/hal/include/gpt.h"
 2388              		.file 36 "..//ChibiOS//os/hal/ports/STM32/LLD/TIMv1/gpt_lld.h"
 2389              		.file 37 "..//ChibiOS//os/hal/ports/STM32/LLD/TIMv1/stm32_tim.h"
 2390              		.file 38 "..//ChibiOS//os/hal/include/i2c.h"
 2391              		.file 39 "..//ChibiOS//os/hal/ports/STM32/LLD/I2Cv1/i2c_lld.h"
 2392              		.file 40 "..//ChibiOS//os/hal/include/i2s.h"
 2393              		.file 41 "..//ChibiOS//os/hal/ports/STM32/LLD/SPIv1/i2s_lld.h"
 2394              		.file 42 "..//ChibiOS//os/hal/include/pwm.h"
 2395              		.file 43 "..//ChibiOS//os/hal/ports/STM32/LLD/TIMv1/pwm_lld.h"
 2396              		.file 44 "..//ChibiOS//os/hal/include/serial.h"
 2397              		.file 45 "..//ChibiOS//os/hal/ports/STM32/LLD/USARTv1/serial_lld.h"
ARM GAS  C:\Users\Moi\AppData\Local\Temp\cciP7z0x.s 			page 44


 2398              		.file 46 "..//ChibiOS//os/hal/include/sdc.h"
 2399              		.file 47 "..//ChibiOS//os/hal/ports/STM32/LLD/sdc_lld.h"
 2400              		.file 48 "..//ChibiOS//os/hal/include/spi.h"
 2401              		.file 49 "..//ChibiOS//os/hal/ports/STM32/LLD/SPIv1/spi_lld.h"
 2402              		.file 50 "..//ChibiOS//os/hal/include/usb.h"
 2403              		.file 51 "..//ChibiOS//os/hal/ports/STM32/LLD/OTGv1/usb_lld.h"
 2404              		.file 52 "..//ChibiOS//os/hal/ports/STM32/LLD/OTGv1/stm32_otg.h"
 2405              		.file 53 "..//ChibiOS_ext/os/hal/include/spi3_slave.h"
 2406              		.file 54 "..//ChibiOS_ext/os/hal/src/../ports/STM32/LLD/SPIv1/spi3_slave_lld.h"
 2407              		.file 55 "..//ChibiOS//os/rt/include/chthreads.h"