ARM GAS  C:\Users\Moi\AppData\Local\Temp\cc70352K.s 			page 1


   1              		.cpu cortex-m4
   2              		.eabi_attribute 27, 1
   3              		.eabi_attribute 28, 1
   4              		.eabi_attribute 20, 1
   5              		.eabi_attribute 21, 1
   6              		.eabi_attribute 23, 3
   7              		.eabi_attribute 24, 1
   8              		.eabi_attribute 25, 1
   9              		.eabi_attribute 26, 1
  10              		.eabi_attribute 30, 2
  11              		.eabi_attribute 34, 1
  12              		.eabi_attribute 18, 4
  13              		.file	"spi_lld.c"
  14              		.text
  15              	.Ltext0:
  16              		.cfi_sections	.debug_frame
  17              		.section	.text.spi_lld_serve_tx_interrupt,"ax",%progbits
  18              		.align	1
  19              		.p2align 4,,15
  20              		.syntax unified
  21              		.thumb
  22              		.thumb_func
  23              		.fpu fpv4-sp-d16
  24              		.type	spi_lld_serve_tx_interrupt, %function
  25              	spi_lld_serve_tx_interrupt:
  26              	.LFB257:
  27              		.file 1 "..//ChibiOS//os/hal/ports/STM32/LLD/SPIv1/spi_lld.c"
  28              		.loc 1 158 0
  29              		.cfi_startproc
  30              		@ args = 0, pretend = 0, frame = 8
  31              		@ frame_needed = 0, uses_anonymous_args = 0
  32              	.LVL0:
  33 0000 00B5     		push	{lr}
  34              		.cfi_def_cfa_offset 4
  35              		.cfi_offset 14, -4
  36 0002 0C4B     		ldr	r3, .L9
  37 0004 83B0     		sub	sp, sp, #12
  38              		.cfi_def_cfa_offset 16
  39              		.loc 1 158 0
  40 0006 1A68     		ldr	r2, [r3]
  41 0008 0192     		str	r2, [sp, #4]
  42              		.loc 1 163 0
  43 000a 11F00C0F 		tst	r1, #12
  44              	.LBB58:
  45              	.LBB59:
  46              		.file 2 "..//ChibiOS//os/hal/osal/rt/osal.h"
  47              		.loc 2 416 0
  48 000e 019A     		ldr	r2, [sp, #4]
  49 0010 1B68     		ldr	r3, [r3]
  50              	.LBE59:
  51              	.LBE58:
  52              		.loc 1 163 0
  53 0012 04D1     		bne	.L8
  54              		.loc 1 170 0
  55 0014 9A42     		cmp	r2, r3
  56 0016 0AD1     		bne	.L6
  57 0018 03B0     		add	sp, sp, #12
ARM GAS  C:\Users\Moi\AppData\Local\Temp\cc70352K.s 			page 2


  58              		.cfi_remember_state
  59              		.cfi_def_cfa_offset 4
  60              		@ sp needed
  61 001a 5DF804FB 		ldr	pc, [sp], #4
  62              	.L8:
  63              		.cfi_restore_state
  64              	.LVL1:
  65              	.LBB62:
  66              	.LBB60:
  67              		.loc 2 416 0
  68 001e 9A42     		cmp	r2, r3
  69 0020 05D1     		bne	.L6
  70 0022 0548     		ldr	r0, .L9+4
  71              	.LVL2:
  72              	.LBE60:
  73              	.LBE62:
  74              		.loc 1 170 0
  75 0024 03B0     		add	sp, sp, #12
  76              		.cfi_remember_state
  77              		.cfi_def_cfa_offset 4
  78              		@ sp needed
  79 0026 5DF804EB 		ldr	lr, [sp], #4
  80              		.cfi_restore 14
  81              		.cfi_def_cfa_offset 0
  82              	.LBB63:
  83              	.LBB61:
  84              		.loc 2 416 0
  85 002a FFF7FEBF 		b	chSysHalt
  86              	.LVL3:
  87              	.L6:
  88              		.cfi_restore_state
  89              	.LBE61:
  90              	.LBE63:
  91              		.loc 1 170 0
  92 002e FFF7FEFF 		bl	__stack_chk_fail
  93              	.LVL4:
  94              	.L10:
  95 0032 00BF     		.align	2
  96              	.L9:
  97 0034 00000000 		.word	__stack_chk_guard
  98 0038 00000000 		.word	.LC0
  99              		.cfi_endproc
 100              	.LFE257:
 101              		.size	spi_lld_serve_tx_interrupt, .-spi_lld_serve_tx_interrupt
 102              		.section	.text.spi_lld_serve_rx_interrupt,"ax",%progbits
 103              		.align	1
 104              		.p2align 4,,15
 105              		.syntax unified
 106              		.thumb
 107              		.thumb_func
 108              		.fpu fpv4-sp-d16
 109              		.type	spi_lld_serve_rx_interrupt, %function
 110              	spi_lld_serve_rx_interrupt:
 111              	.LFB256:
 112              		.loc 1 132 0
 113              		.cfi_startproc
 114              		@ args = 0, pretend = 0, frame = 8
ARM GAS  C:\Users\Moi\AppData\Local\Temp\cc70352K.s 			page 3


 115              		@ frame_needed = 0, uses_anonymous_args = 0
 116              	.LVL5:
 117 0000 30B5     		push	{r4, r5, lr}
 118              		.cfi_def_cfa_offset 12
 119              		.cfi_offset 4, -12
 120              		.cfi_offset 5, -8
 121              		.cfi_offset 14, -4
 122 0002 284D     		ldr	r5, .L29
 123 0004 83B0     		sub	sp, sp, #12
 124              		.cfi_def_cfa_offset 24
 125              		.loc 1 132 0
 126 0006 2B68     		ldr	r3, [r5]
 127 0008 0193     		str	r3, [sp, #4]
 128              		.loc 1 136 0
 129 000a 11F00C0F 		tst	r1, #12
 130              		.loc 1 132 0
 131 000e 0446     		mov	r4, r0
 132              		.loc 1 136 0
 133 0010 41D1     		bne	.L27
 134              	.LVL6:
 135              	.L12:
 136              		.loc 1 144 0
 137 0012 A06A     		ldr	r0, [r4, #40]
 138 0014 0268     		ldr	r2, [r0]
 139 0016 1368     		ldr	r3, [r2]
 140 0018 23F01F03 		bic	r3, r3, #31
 141 001c 1360     		str	r3, [r2]
 142              	.L13:
 143              		.loc 1 144 0 is_stmt 0 discriminator 2
 144 001e 1368     		ldr	r3, [r2]
 145 0020 D907     		lsls	r1, r3, #31
 146 0022 FCD4     		bmi	.L13
 147              		.loc 1 144 0 discriminator 3
 148 0024 027A     		ldrb	r2, [r0, #8]	@ zero_extendqisi2
 149              		.loc 1 145 0 is_stmt 1 discriminator 3
 150 0026 616A     		ldr	r1, [r4, #36]
 151              		.loc 1 144 0 discriminator 3
 152 0028 4068     		ldr	r0, [r0, #4]
 153 002a 3D23     		movs	r3, #61
 154 002c 9340     		lsls	r3, r3, r2
 155              		.loc 1 145 0 discriminator 3
 156 002e 0A68     		ldr	r2, [r1]
 157              		.loc 1 144 0 discriminator 3
 158 0030 0360     		str	r3, [r0]
 159              		.loc 1 145 0 discriminator 3
 160 0032 1368     		ldr	r3, [r2]
 161 0034 23F01F03 		bic	r3, r3, #31
 162 0038 1360     		str	r3, [r2]
 163              	.L14:
 164              		.loc 1 145 0 is_stmt 0 discriminator 2
 165 003a 1368     		ldr	r3, [r2]
 166 003c DB07     		lsls	r3, r3, #31
 167 003e FCD4     		bmi	.L14
 168              		.loc 1 149 0 is_stmt 1 discriminator 3
 169 0040 6368     		ldr	r3, [r4, #4]
 170              		.loc 1 145 0 discriminator 3
 171 0042 087A     		ldrb	r0, [r1, #8]	@ zero_extendqisi2
ARM GAS  C:\Users\Moi\AppData\Local\Temp\cc70352K.s 			page 4


 172              		.loc 1 149 0 discriminator 3
 173 0044 1A68     		ldr	r2, [r3]
 174              		.loc 1 145 0 discriminator 3
 175 0046 4968     		ldr	r1, [r1, #4]
 176 0048 3D23     		movs	r3, #61
 177 004a 8340     		lsls	r3, r3, r0
 178 004c 0B60     		str	r3, [r1]
 179              		.loc 1 149 0 discriminator 3
 180 004e FAB1     		cbz	r2, .L15
 181              		.loc 1 149 0 is_stmt 0 discriminator 1
 182 0050 0423     		movs	r3, #4
 183 0052 2370     		strb	r3, [r4]
 184 0054 2046     		mov	r0, r4
 185 0056 9047     		blx	r2
 186              	.LVL7:
 187 0058 2378     		ldrb	r3, [r4]	@ zero_extendqisi2
 188 005a 042B     		cmp	r3, #4
 189 005c 18D0     		beq	.L15
 190              	.L16:
 191              	.LVL8:
 192              	.LBB64:
 193              	.LBB65:
 194              	.LBB66:
 195              	.LBB67:
 196              	.LBB68:
 197              	.LBB69:
 198              	.LBB70:
 199              		.file 3 "..//ChibiOS//os/ext/CMSIS/include/core_cmFunc.h"
 200              		.loc 3 546 0 is_stmt 1 discriminator 4
 201 005e 2023     		movs	r3, #32
 202              		.syntax unified
 203              	@ 546 "..//ChibiOS//os/ext/CMSIS/include/core_cmFunc.h" 1
 204 0060 83F31188 		MSR basepri, r3
 205              	@ 0 "" 2
 206              	.LVL9:
 207              		.thumb
 208              		.syntax unified
 209              	.LBE70:
 210              	.LBE69:
 211              	.LBE68:
 212              	.LBE67:
 213              		.file 4 "..//ChibiOS//os/rt/include/chsys.h"
 214              		.loc 4 389 0 discriminator 4
 215 0064 FFF7FEFF 		bl	_stats_start_measure_crit_isr
 216              	.LVL10:
 217              		.loc 4 390 0 discriminator 4
 218 0068 FFF7FEFF 		bl	_dbg_check_lock_from_isr
 219              	.LVL11:
 220              	.LBE66:
 221              	.LBE65:
 222              	.LBE64:
 223              	.LBB71:
 224              	.LBB72:
 225              		.loc 2 682 0 discriminator 4
 226 006c 04F10800 		add	r0, r4, #8
 227              	.LVL12:
 228 0070 0021     		movs	r1, #0
ARM GAS  C:\Users\Moi\AppData\Local\Temp\cc70352K.s 			page 5


 229 0072 FFF7FEFF 		bl	chThdResumeI
 230              	.LVL13:
 231              	.LBE72:
 232              	.LBE71:
 233              	.LBB73:
 234              	.LBB74:
 235              	.LBB75:
 236              		.loc 4 408 0 discriminator 4
 237 0076 FFF7FEFF 		bl	_dbg_check_unlock_from_isr
 238              	.LVL14:
 239              		.loc 4 409 0 discriminator 4
 240 007a FFF7FEFF 		bl	_stats_stop_measure_crit_isr
 241              	.LVL15:
 242              	.LBB76:
 243              	.LBB77:
 244              	.LBB78:
 245              	.LBB79:
 246              		.loc 3 546 0 discriminator 4
 247 007e 0023     		movs	r3, #0
 248              		.syntax unified
 249              	@ 546 "..//ChibiOS//os/ext/CMSIS/include/core_cmFunc.h" 1
 250 0080 83F31188 		MSR basepri, r3
 251              	@ 0 "" 2
 252              	.LVL16:
 253              		.thumb
 254              		.syntax unified
 255              	.LBE79:
 256              	.LBE78:
 257              	.LBE77:
 258              	.LBE76:
 259              	.LBE75:
 260              	.LBE74:
 261              	.LBE73:
 262              		.loc 1 150 0 discriminator 4
 263 0084 019A     		ldr	r2, [sp, #4]
 264 0086 2B68     		ldr	r3, [r5]
 265 0088 9A42     		cmp	r2, r3
 266 008a 08D1     		bne	.L28
 267              		.loc 1 150 0 is_stmt 0
 268 008c 03B0     		add	sp, sp, #12
 269              		.cfi_remember_state
 270              		.cfi_def_cfa_offset 12
 271              		@ sp needed
 272 008e 30BD     		pop	{r4, r5, pc}
 273              	.LVL17:
 274              	.L15:
 275              		.cfi_restore_state
 276              		.loc 1 149 0 is_stmt 1 discriminator 3
 277 0090 0223     		movs	r3, #2
 278 0092 2370     		strb	r3, [r4]
 279 0094 E3E7     		b	.L16
 280              	.LVL18:
 281              	.L27:
 282              	.LBB80:
 283              	.LBB81:
 284              		.loc 2 416 0
 285 0096 0448     		ldr	r0, .L29+4
ARM GAS  C:\Users\Moi\AppData\Local\Temp\cc70352K.s 			page 6


 286              	.LVL19:
 287 0098 FFF7FEFF 		bl	chSysHalt
 288              	.LVL20:
 289 009c B9E7     		b	.L12
 290              	.LVL21:
 291              	.L28:
 292              	.LBE81:
 293              	.LBE80:
 294              		.loc 1 150 0
 295 009e FFF7FEFF 		bl	__stack_chk_fail
 296              	.LVL22:
 297              	.L30:
 298 00a2 00BF     		.align	2
 299              	.L29:
 300 00a4 00000000 		.word	__stack_chk_guard
 301 00a8 00000000 		.word	.LC0
 302              		.cfi_endproc
 303              	.LFE256:
 304              		.size	spi_lld_serve_rx_interrupt, .-spi_lld_serve_rx_interrupt
 305              		.section	.text.spi_lld_init,"ax",%progbits
 306              		.align	1
 307              		.p2align 4,,15
 308              		.global	spi_lld_init
 309              		.syntax unified
 310              		.thumb
 311              		.thumb_func
 312              		.fpu fpv4-sp-d16
 313              		.type	spi_lld_init, %function
 314              	spi_lld_init:
 315              	.LFB258:
 316              		.loc 1 185 0
 317              		.cfi_startproc
 318              		@ args = 0, pretend = 0, frame = 8
 319              		@ frame_needed = 0, uses_anonymous_args = 0
 320 0000 30B5     		push	{r4, r5, lr}
 321              		.cfi_def_cfa_offset 12
 322              		.cfi_offset 4, -12
 323              		.cfi_offset 5, -8
 324              		.cfi_offset 14, -4
 325 0002 0F4D     		ldr	r5, .L35
 326              		.loc 1 190 0
 327 0004 0F4C     		ldr	r4, .L35+4
 328              		.loc 1 185 0
 329 0006 2A68     		ldr	r2, [r5]
 330              		.loc 1 187 0
 331 0008 0F4B     		ldr	r3, .L35+8
 332              		.loc 1 185 0
 333 000a 83B0     		sub	sp, sp, #12
 334              		.cfi_def_cfa_offset 24
 335              		.loc 1 190 0
 336 000c 2046     		mov	r0, r4
 337              		.loc 1 185 0
 338 000e 0192     		str	r2, [sp, #4]
 339              		.loc 1 187 0
 340 0010 4FF6FF72 		movw	r2, #65535
 341 0014 1A80     		strh	r2, [r3]	@ movhi
 342              		.loc 1 190 0
ARM GAS  C:\Users\Moi\AppData\Local\Temp\cc70352K.s 			page 7


 343 0016 FFF7FEFF 		bl	spiObjectInit
 344              	.LVL23:
 345              		.loc 1 192 0
 346 001a 0C4B     		ldr	r3, .L35+12
 347              		.loc 1 296 0
 348 001c 0199     		ldr	r1, [sp, #4]
 349 001e 2A68     		ldr	r2, [r5]
 350              		.loc 1 194 0
 351 0020 0B48     		ldr	r0, .L35+16
 352              		.loc 1 191 0
 353 0022 0C4D     		ldr	r5, .L35+20
 354 0024 2562     		str	r5, [r4, #32]
 355              		.loc 1 192 0
 356 0026 6362     		str	r3, [r4, #36]
 357              		.loc 1 193 0
 358 0028 03F13C05 		add	r5, r3, #60
 359              		.loc 1 296 0
 360 002c 9142     		cmp	r1, r2
 361              		.loc 1 200 0
 362 002e 0A4B     		ldr	r3, .L35+24
 363 0030 2363     		str	r3, [r4, #48]
 364              		.loc 1 194 0
 365 0032 C4E90A50 		strd	r5, r0, [r4, #40]
 366              		.loc 1 296 0
 367 0036 01D1     		bne	.L34
 368 0038 03B0     		add	sp, sp, #12
 369              		.cfi_remember_state
 370              		.cfi_def_cfa_offset 12
 371              		@ sp needed
 372 003a 30BD     		pop	{r4, r5, pc}
 373              	.L34:
 374              		.cfi_restore_state
 375 003c FFF7FEFF 		bl	__stack_chk_fail
 376              	.LVL24:
 377              	.L36:
 378              		.align	2
 379              	.L35:
 380 0040 00000000 		.word	__stack_chk_guard
 381 0044 00000000 		.word	.LANCHOR1
 382 0048 00000000 		.word	.LANCHOR0
 383 004c 60000000 		.word	_stm32_dma_streams+96
 384 0050 16000106 		.word	100728854
 385 0054 00300140 		.word	1073819648
 386 0058 46000106 		.word	100728902
 387              		.cfi_endproc
 388              	.LFE258:
 389              		.size	spi_lld_init, .-spi_lld_init
 390              		.section	.text.spi_lld_start,"ax",%progbits
 391              		.align	1
 392              		.p2align 4,,15
 393              		.global	spi_lld_start
 394              		.syntax unified
 395              		.thumb
 396              		.thumb_func
 397              		.fpu fpv4-sp-d16
 398              		.type	spi_lld_start, %function
 399              	spi_lld_start:
ARM GAS  C:\Users\Moi\AppData\Local\Temp\cc70352K.s 			page 8


 400              	.LFB259:
 401              		.loc 1 305 0
 402              		.cfi_startproc
 403              		@ args = 0, pretend = 0, frame = 8
 404              		@ frame_needed = 0, uses_anonymous_args = 0
 405              	.LVL25:
 406 0000 70B5     		push	{r4, r5, r6, lr}
 407              		.cfi_def_cfa_offset 16
 408              		.cfi_offset 4, -16
 409              		.cfi_offset 5, -12
 410              		.cfi_offset 6, -8
 411              		.cfi_offset 14, -4
 412              		.loc 1 308 0
 413 0002 0378     		ldrb	r3, [r0]	@ zero_extendqisi2
 414              		.loc 1 305 0
 415 0004 294D     		ldr	r5, .L59
 416 0006 82B0     		sub	sp, sp, #8
 417              		.cfi_def_cfa_offset 24
 418              		.loc 1 305 0
 419 0008 2A68     		ldr	r2, [r5]
 420 000a 0192     		str	r2, [sp, #4]
 421              		.loc 1 308 0
 422 000c 012B     		cmp	r3, #1
 423              		.loc 1 305 0
 424 000e 0446     		mov	r4, r0
 425              		.loc 1 308 0
 426 0010 21D0     		beq	.L52
 427 0012 036A     		ldr	r3, [r0, #32]
 428              	.LVL26:
 429              	.L38:
 430              		.loc 1 412 0
 431 0014 6268     		ldr	r2, [r4, #4]
 432 0016 E16A     		ldr	r1, [r4, #44]
 433 0018 5089     		ldrh	r0, [r2, #10]
 434 001a 226B     		ldr	r2, [r4, #48]
 435 001c 0605     		lsls	r6, r0, #20
 436 001e 21F4F041 		bic	r1, r1, #30720
 437 0022 22F4F042 		bic	r2, r2, #30720
 438              		.loc 1 422 0
 439 0026 44BF     		itt	mi
 440 0028 41F42051 		orrmi	r1, r1, #10240
 441              		.loc 1 424 0
 442 002c 42F42052 		orrmi	r2, r2, #10240
 443              		.loc 1 423 0
 444 0030 C4E90B12 		strd	r1, r2, [r4, #44]
 445              		.loc 1 428 0
 446 0034 40F44170 		orr	r0, r0, #772
 447              		.loc 1 430 0
 448 0038 0722     		movs	r2, #7
 449              		.loc 1 427 0
 450 003a 0021     		movs	r1, #0
 451 003c 1960     		str	r1, [r3]
 452              		.loc 1 428 0
 453 003e 1860     		str	r0, [r3]
 454              		.loc 1 430 0
 455 0040 5A60     		str	r2, [r3, #4]
 456              		.loc 1 431 0
ARM GAS  C:\Users\Moi\AppData\Local\Temp\cc70352K.s 			page 9


 457 0042 1A68     		ldr	r2, [r3]
 458 0044 42F04002 		orr	r2, r2, #64
 459 0048 1A60     		str	r2, [r3]
 460              		.loc 1 432 0
 461 004a 019A     		ldr	r2, [sp, #4]
 462 004c 2B68     		ldr	r3, [r5]
 463 004e 9A42     		cmp	r2, r3
 464 0050 2AD1     		bne	.L55
 465 0052 02B0     		add	sp, sp, #8
 466              		.cfi_remember_state
 467              		.cfi_def_cfa_offset 16
 468              		@ sp needed
 469 0054 70BD     		pop	{r4, r5, r6, pc}
 470              	.LVL27:
 471              	.L52:
 472              		.cfi_restore_state
 473              		.loc 1 310 0
 474 0056 164E     		ldr	r6, .L59+4
 475 0058 B042     		cmp	r0, r6
 476 005a 09D0     		beq	.L56
 477              	.LVL28:
 478              	.L39:
 479              		.loc 1 408 0
 480 005c D4E90912 		ldrd	r1, r2, [r4, #36]
 481              		.loc 1 407 0
 482 0060 236A     		ldr	r3, [r4, #32]
 483 0062 0868     		ldr	r0, [r1]
 484              		.loc 1 408 0
 485 0064 1168     		ldr	r1, [r2]
 486              		.loc 1 407 0
 487 0066 03F10C02 		add	r2, r3, #12
 488 006a 8260     		str	r2, [r0, #8]
 489              		.loc 1 408 0
 490 006c 8A60     		str	r2, [r1, #8]
 491 006e D1E7     		b	.L38
 492              	.LVL29:
 493              	.L56:
 494              	.LBB82:
 495              		.loc 1 312 0
 496 0070 0346     		mov	r3, r0
 497 0072 104A     		ldr	r2, .L59+8
 498 0074 406A     		ldr	r0, [r0, #36]
 499              	.LVL30:
 500 0076 0A21     		movs	r1, #10
 501 0078 FFF7FEFF 		bl	dmaStreamAllocate
 502              	.LVL31:
 503              		.loc 1 316 0
 504 007c 80B9     		cbnz	r0, .L57
 505              	.LVL32:
 506              	.L40:
 507              		.loc 1 317 0
 508 007e B06A     		ldr	r0, [r6, #40]
 509 0080 0B4B     		ldr	r3, .L59+4
 510 0082 0D4A     		ldr	r2, .L59+12
 511 0084 0A21     		movs	r1, #10
 512 0086 FFF7FEFF 		bl	dmaStreamAllocate
 513              	.LVL33:
ARM GAS  C:\Users\Moi\AppData\Local\Temp\cc70352K.s 			page 10


 514              		.loc 1 321 0
 515 008a 28B9     		cbnz	r0, .L58
 516              	.LVL34:
 517              	.L41:
 518              		.loc 1 322 0
 519 008c 0B4A     		ldr	r2, .L59+16
 520 008e 536C     		ldr	r3, [r2, #68]
 521 0090 43F48053 		orr	r3, r3, #4096
 522 0094 5364     		str	r3, [r2, #68]
 523 0096 E1E7     		b	.L39
 524              	.LVL35:
 525              	.L58:
 526              		.loc 1 321 0 discriminator 2
 527 0098 0948     		ldr	r0, .L59+20
 528              	.LVL36:
 529 009a FFF7FEFF 		bl	chSysHalt
 530              	.LVL37:
 531 009e F5E7     		b	.L41
 532              	.LVL38:
 533              	.L57:
 534              		.loc 1 316 0 discriminator 2
 535 00a0 0748     		ldr	r0, .L59+20
 536              	.LVL39:
 537 00a2 FFF7FEFF 		bl	chSysHalt
 538              	.LVL40:
 539 00a6 EAE7     		b	.L40
 540              	.L55:
 541              	.LBE82:
 542              		.loc 1 432 0
 543 00a8 FFF7FEFF 		bl	__stack_chk_fail
 544              	.LVL41:
 545              	.L60:
 546              		.align	2
 547              	.L59:
 548 00ac 00000000 		.word	__stack_chk_guard
 549 00b0 00000000 		.word	.LANCHOR1
 550 00b4 00000000 		.word	spi_lld_serve_rx_interrupt
 551 00b8 00000000 		.word	spi_lld_serve_tx_interrupt
 552 00bc 00380240 		.word	1073887232
 553 00c0 00000000 		.word	.LANCHOR2
 554              		.cfi_endproc
 555              	.LFE259:
 556              		.size	spi_lld_start, .-spi_lld_start
 557              		.section	.text.spi_lld_stop,"ax",%progbits
 558              		.align	1
 559              		.p2align 4,,15
 560              		.global	spi_lld_stop
 561              		.syntax unified
 562              		.thumb
 563              		.thumb_func
 564              		.fpu fpv4-sp-d16
 565              		.type	spi_lld_stop, %function
 566              	spi_lld_stop:
 567              	.LFB260:
 568              		.loc 1 441 0
 569              		.cfi_startproc
 570              		@ args = 0, pretend = 0, frame = 8
ARM GAS  C:\Users\Moi\AppData\Local\Temp\cc70352K.s 			page 11


 571              		@ frame_needed = 0, uses_anonymous_args = 0
 572              	.LVL42:
 573 0000 30B5     		push	{r4, r5, lr}
 574              		.cfi_def_cfa_offset 12
 575              		.cfi_offset 4, -12
 576              		.cfi_offset 5, -8
 577              		.cfi_offset 14, -4
 578              		.loc 1 444 0
 579 0002 0378     		ldrb	r3, [r0]	@ zero_extendqisi2
 580              		.loc 1 441 0
 581 0004 104C     		ldr	r4, .L69
 582 0006 83B0     		sub	sp, sp, #12
 583              		.cfi_def_cfa_offset 24
 584              		.loc 1 441 0
 585 0008 2268     		ldr	r2, [r4]
 586 000a 0192     		str	r2, [sp, #4]
 587              		.loc 1 444 0
 588 000c 022B     		cmp	r3, #2
 589 000e 05D0     		beq	.L67
 590              	.LVL43:
 591              	.L61:
 592              		.loc 1 477 0
 593 0010 019A     		ldr	r2, [sp, #4]
 594 0012 2368     		ldr	r3, [r4]
 595 0014 9A42     		cmp	r2, r3
 596 0016 15D1     		bne	.L68
 597 0018 03B0     		add	sp, sp, #12
 598              		.cfi_remember_state
 599              		.cfi_def_cfa_offset 12
 600              		@ sp needed
 601 001a 30BD     		pop	{r4, r5, pc}
 602              	.LVL44:
 603              	.L67:
 604              		.cfi_restore_state
 605 001c 0546     		mov	r5, r0
 606              		.loc 1 449 0
 607 001e D0E90830 		ldrd	r3, r0, [r0, #32]
 608              	.LVL45:
 609              		.loc 1 447 0
 610 0022 0022     		movs	r2, #0
 611 0024 1A60     		str	r2, [r3]
 612              		.loc 1 448 0
 613 0026 5A60     		str	r2, [r3, #4]
 614              		.loc 1 449 0
 615 0028 FFF7FEFF 		bl	dmaStreamRelease
 616              	.LVL46:
 617              		.loc 1 450 0
 618 002c A86A     		ldr	r0, [r5, #40]
 619 002e FFF7FEFF 		bl	dmaStreamRelease
 620              	.LVL47:
 621              		.loc 1 453 0
 622 0032 064B     		ldr	r3, .L69+4
 623 0034 9D42     		cmp	r5, r3
 624 0036 EBD1     		bne	.L61
 625              		.loc 1 454 0
 626 0038 054A     		ldr	r2, .L69+8
 627 003a 536C     		ldr	r3, [r2, #68]
ARM GAS  C:\Users\Moi\AppData\Local\Temp\cc70352K.s 			page 12


 628 003c 23F48053 		bic	r3, r3, #4096
 629 0040 5364     		str	r3, [r2, #68]
 630              		.loc 1 477 0
 631 0042 E5E7     		b	.L61
 632              	.LVL48:
 633              	.L68:
 634 0044 FFF7FEFF 		bl	__stack_chk_fail
 635              	.LVL49:
 636              	.L70:
 637              		.align	2
 638              	.L69:
 639 0048 00000000 		.word	__stack_chk_guard
 640 004c 00000000 		.word	.LANCHOR1
 641 0050 00380240 		.word	1073887232
 642              		.cfi_endproc
 643              	.LFE260:
 644              		.size	spi_lld_stop, .-spi_lld_stop
 645              		.section	.text.spi_lld_select,"ax",%progbits
 646              		.align	1
 647              		.p2align 4,,15
 648              		.global	spi_lld_select
 649              		.syntax unified
 650              		.thumb
 651              		.thumb_func
 652              		.fpu fpv4-sp-d16
 653              		.type	spi_lld_select, %function
 654              	spi_lld_select:
 655              	.LFB261:
 656              		.loc 1 486 0
 657              		.cfi_startproc
 658              		@ args = 0, pretend = 0, frame = 8
 659              		@ frame_needed = 0, uses_anonymous_args = 0
 660              	.LVL50:
 661 0000 00B5     		push	{lr}
 662              		.cfi_def_cfa_offset 4
 663              		.cfi_offset 14, -4
 664              		.loc 1 488 0
 665 0002 4168     		ldr	r1, [r0, #4]
 666              		.loc 1 486 0
 667 0004 094A     		ldr	r2, .L75
 668              		.loc 1 488 0
 669 0006 0889     		ldrh	r0, [r1, #8]
 670              	.LVL51:
 671              		.loc 1 486 0
 672 0008 1368     		ldr	r3, [r2]
 673              		.loc 1 488 0
 674 000a 4968     		ldr	r1, [r1, #4]
 675              		.loc 1 486 0
 676 000c 83B0     		sub	sp, sp, #12
 677              		.cfi_def_cfa_offset 16
 678              		.loc 1 486 0
 679 000e 0193     		str	r3, [sp, #4]
 680              		.loc 1 488 0
 681 0010 0123     		movs	r3, #1
 682 0012 8340     		lsls	r3, r3, r0
 683 0014 9BB2     		uxth	r3, r3
 684 0016 4B83     		strh	r3, [r1, #26]	@ movhi
ARM GAS  C:\Users\Moi\AppData\Local\Temp\cc70352K.s 			page 13


 685              		.loc 1 489 0
 686 0018 0199     		ldr	r1, [sp, #4]
 687 001a 1368     		ldr	r3, [r2]
 688 001c 9942     		cmp	r1, r3
 689 001e 02D1     		bne	.L74
 690 0020 03B0     		add	sp, sp, #12
 691              		.cfi_remember_state
 692              		.cfi_def_cfa_offset 4
 693              		@ sp needed
 694 0022 5DF804FB 		ldr	pc, [sp], #4
 695              	.L74:
 696              		.cfi_restore_state
 697 0026 FFF7FEFF 		bl	__stack_chk_fail
 698              	.LVL52:
 699              	.L76:
 700 002a 00BF     		.align	2
 701              	.L75:
 702 002c 00000000 		.word	__stack_chk_guard
 703              		.cfi_endproc
 704              	.LFE261:
 705              		.size	spi_lld_select, .-spi_lld_select
 706              		.section	.text.spi_lld_unselect,"ax",%progbits
 707              		.align	1
 708              		.p2align 4,,15
 709              		.global	spi_lld_unselect
 710              		.syntax unified
 711              		.thumb
 712              		.thumb_func
 713              		.fpu fpv4-sp-d16
 714              		.type	spi_lld_unselect, %function
 715              	spi_lld_unselect:
 716              	.LFB262:
 717              		.loc 1 499 0
 718              		.cfi_startproc
 719              		@ args = 0, pretend = 0, frame = 8
 720              		@ frame_needed = 0, uses_anonymous_args = 0
 721              	.LVL53:
 722 0000 00B5     		push	{lr}
 723              		.cfi_def_cfa_offset 4
 724              		.cfi_offset 14, -4
 725              		.loc 1 501 0
 726 0002 4168     		ldr	r1, [r0, #4]
 727              		.loc 1 499 0
 728 0004 094A     		ldr	r2, .L81
 729              		.loc 1 501 0
 730 0006 0889     		ldrh	r0, [r1, #8]
 731              	.LVL54:
 732              		.loc 1 499 0
 733 0008 1368     		ldr	r3, [r2]
 734              		.loc 1 501 0
 735 000a 4968     		ldr	r1, [r1, #4]
 736              		.loc 1 499 0
 737 000c 83B0     		sub	sp, sp, #12
 738              		.cfi_def_cfa_offset 16
 739              		.loc 1 499 0
 740 000e 0193     		str	r3, [sp, #4]
 741              		.loc 1 501 0
ARM GAS  C:\Users\Moi\AppData\Local\Temp\cc70352K.s 			page 14


 742 0010 0123     		movs	r3, #1
 743 0012 8340     		lsls	r3, r3, r0
 744 0014 9BB2     		uxth	r3, r3
 745 0016 0B83     		strh	r3, [r1, #24]	@ movhi
 746              		.loc 1 502 0
 747 0018 0199     		ldr	r1, [sp, #4]
 748 001a 1368     		ldr	r3, [r2]
 749 001c 9942     		cmp	r1, r3
 750 001e 02D1     		bne	.L80
 751 0020 03B0     		add	sp, sp, #12
 752              		.cfi_remember_state
 753              		.cfi_def_cfa_offset 4
 754              		@ sp needed
 755 0022 5DF804FB 		ldr	pc, [sp], #4
 756              	.L80:
 757              		.cfi_restore_state
 758 0026 FFF7FEFF 		bl	__stack_chk_fail
 759              	.LVL55:
 760              	.L82:
 761 002a 00BF     		.align	2
 762              	.L81:
 763 002c 00000000 		.word	__stack_chk_guard
 764              		.cfi_endproc
 765              	.LFE262:
 766              		.size	spi_lld_unselect, .-spi_lld_unselect
 767              		.section	.text.spi_lld_ignore,"ax",%progbits
 768              		.align	1
 769              		.p2align 4,,15
 770              		.global	spi_lld_ignore
 771              		.syntax unified
 772              		.thumb
 773              		.thumb_func
 774              		.fpu fpv4-sp-d16
 775              		.type	spi_lld_ignore, %function
 776              	spi_lld_ignore:
 777              	.LFB263:
 778              		.loc 1 515 0
 779              		.cfi_startproc
 780              		@ args = 0, pretend = 0, frame = 8
 781              		@ frame_needed = 0, uses_anonymous_args = 0
 782              	.LVL56:
 783 0000 70B5     		push	{r4, r5, r6, lr}
 784              		.cfi_def_cfa_offset 16
 785              		.cfi_offset 4, -16
 786              		.cfi_offset 5, -12
 787              		.cfi_offset 6, -8
 788              		.cfi_offset 14, -4
 789              		.loc 1 521 0
 790 0002 D0E90923 		ldrd	r2, r3, [r0, #36]
 791              		.loc 1 515 0
 792 0006 104C     		ldr	r4, .L87
 793              		.loc 1 517 0
 794 0008 1268     		ldr	r2, [r2]
 795              		.loc 1 515 0
 796 000a 2668     		ldr	r6, [r4]
 797              		.loc 1 521 0
 798 000c 1B68     		ldr	r3, [r3]
ARM GAS  C:\Users\Moi\AppData\Local\Temp\cc70352K.s 			page 15


 799              		.loc 1 517 0
 800 000e 0F4D     		ldr	r5, .L87+4
 801              		.loc 1 515 0
 802 0010 82B0     		sub	sp, sp, #8
 803              		.cfi_def_cfa_offset 24
 804              		.loc 1 515 0
 805 0012 0196     		str	r6, [sp, #4]
 806              		.loc 1 523 0
 807 0014 D0E90B60 		ldrd	r6, r0, [r0, #44]
 808              	.LVL57:
 809              		.loc 1 517 0
 810 0018 D560     		str	r5, [r2, #12]
 811              		.loc 1 521 0
 812 001a 0D4D     		ldr	r5, .L87+8
 813              		.loc 1 518 0
 814 001c 5160     		str	r1, [r2, #4]
 815              		.loc 1 519 0
 816 001e 1660     		str	r6, [r2]
 817              		.loc 1 521 0
 818 0020 DD60     		str	r5, [r3, #12]
 819              		.loc 1 522 0
 820 0022 5960     		str	r1, [r3, #4]
 821              		.loc 1 523 0
 822 0024 1860     		str	r0, [r3]
 823              		.loc 1 525 0
 824 0026 1168     		ldr	r1, [r2]
 825              	.LVL58:
 826 0028 41F00101 		orr	r1, r1, #1
 827 002c 1160     		str	r1, [r2]
 828              		.loc 1 526 0
 829 002e 1A68     		ldr	r2, [r3]
 830 0030 42F00102 		orr	r2, r2, #1
 831 0034 1A60     		str	r2, [r3]
 832              		.loc 1 527 0
 833 0036 019A     		ldr	r2, [sp, #4]
 834 0038 2368     		ldr	r3, [r4]
 835 003a 9A42     		cmp	r2, r3
 836 003c 01D1     		bne	.L86
 837 003e 02B0     		add	sp, sp, #8
 838              		.cfi_remember_state
 839              		.cfi_def_cfa_offset 16
 840              		@ sp needed
 841 0040 70BD     		pop	{r4, r5, r6, pc}
 842              	.L86:
 843              		.cfi_restore_state
 844 0042 FFF7FEFF 		bl	__stack_chk_fail
 845              	.LVL59:
 846              	.L88:
 847 0046 00BF     		.align	2
 848              	.L87:
 849 0048 00000000 		.word	__stack_chk_guard
 850 004c 00000000 		.word	.LANCHOR3
 851 0050 00000000 		.word	.LANCHOR0
 852              		.cfi_endproc
 853              	.LFE263:
 854              		.size	spi_lld_ignore, .-spi_lld_ignore
 855              		.section	.text.spi_lld_exchange,"ax",%progbits
ARM GAS  C:\Users\Moi\AppData\Local\Temp\cc70352K.s 			page 16


 856              		.align	1
 857              		.p2align 4,,15
 858              		.global	spi_lld_exchange
 859              		.syntax unified
 860              		.thumb
 861              		.thumb_func
 862              		.fpu fpv4-sp-d16
 863              		.type	spi_lld_exchange, %function
 864              	spi_lld_exchange:
 865              	.LFB264:
 866              		.loc 1 545 0
 867              		.cfi_startproc
 868              		@ args = 0, pretend = 0, frame = 8
 869              		@ frame_needed = 0, uses_anonymous_args = 0
 870              	.LVL60:
 871 0000 F0B5     		push	{r4, r5, r6, r7, lr}
 872              		.cfi_def_cfa_offset 20
 873              		.cfi_offset 4, -20
 874              		.cfi_offset 5, -16
 875              		.cfi_offset 6, -12
 876              		.cfi_offset 7, -8
 877              		.cfi_offset 14, -4
 878              		.loc 1 551 0
 879 0002 D0E90954 		ldrd	r5, r4, [r0, #36]
 880              		.loc 1 553 0
 881 0006 D0E90B60 		ldrd	r6, r0, [r0, #44]
 882              	.LVL61:
 883              		.loc 1 545 0
 884 000a 114F     		ldr	r7, .L93
 885              		.loc 1 547 0
 886 000c 2D68     		ldr	r5, [r5]
 887              		.loc 1 551 0
 888 000e 2468     		ldr	r4, [r4]
 889              		.loc 1 545 0
 890 0010 D7F800C0 		ldr	ip, [r7]
 891 0014 83B0     		sub	sp, sp, #12
 892              		.cfi_def_cfa_offset 32
 893              		.loc 1 549 0
 894 0016 46F48066 		orr	r6, r6, #1024
 895              		.loc 1 553 0
 896 001a 40F48060 		orr	r0, r0, #1024
 897              		.loc 1 545 0
 898 001e CDF804C0 		str	ip, [sp, #4]
 899              		.loc 1 547 0
 900 0022 EB60     		str	r3, [r5, #12]
 901              		.loc 1 548 0
 902 0024 6960     		str	r1, [r5, #4]
 903              		.loc 1 549 0
 904 0026 2E60     		str	r6, [r5]
 905              		.loc 1 551 0
 906 0028 E260     		str	r2, [r4, #12]
 907              		.loc 1 552 0
 908 002a 6160     		str	r1, [r4, #4]
 909              		.loc 1 553 0
 910 002c 2060     		str	r0, [r4]
 911              		.loc 1 555 0
 912 002e 2B68     		ldr	r3, [r5]
ARM GAS  C:\Users\Moi\AppData\Local\Temp\cc70352K.s 			page 17


 913              	.LVL62:
 914 0030 43F00103 		orr	r3, r3, #1
 915 0034 2B60     		str	r3, [r5]
 916              		.loc 1 556 0
 917 0036 2368     		ldr	r3, [r4]
 918 0038 43F00103 		orr	r3, r3, #1
 919 003c 2360     		str	r3, [r4]
 920              		.loc 1 557 0
 921 003e 019A     		ldr	r2, [sp, #4]
 922              	.LVL63:
 923 0040 3B68     		ldr	r3, [r7]
 924 0042 9A42     		cmp	r2, r3
 925 0044 01D1     		bne	.L92
 926 0046 03B0     		add	sp, sp, #12
 927              		.cfi_remember_state
 928              		.cfi_def_cfa_offset 20
 929              		@ sp needed
 930 0048 F0BD     		pop	{r4, r5, r6, r7, pc}
 931              	.L92:
 932              		.cfi_restore_state
 933 004a FFF7FEFF 		bl	__stack_chk_fail
 934              	.LVL64:
 935              	.L94:
 936 004e 00BF     		.align	2
 937              	.L93:
 938 0050 00000000 		.word	__stack_chk_guard
 939              		.cfi_endproc
 940              	.LFE264:
 941              		.size	spi_lld_exchange, .-spi_lld_exchange
 942              		.section	.text.spi_lld_send,"ax",%progbits
 943              		.align	1
 944              		.p2align 4,,15
 945              		.global	spi_lld_send
 946              		.syntax unified
 947              		.thumb
 948              		.thumb_func
 949              		.fpu fpv4-sp-d16
 950              		.type	spi_lld_send, %function
 951              	spi_lld_send:
 952              	.LFB265:
 953              		.loc 1 572 0
 954              		.cfi_startproc
 955              		@ args = 0, pretend = 0, frame = 8
 956              		@ frame_needed = 0, uses_anonymous_args = 0
 957              	.LVL65:
 958 0000 F0B5     		push	{r4, r5, r6, r7, lr}
 959              		.cfi_def_cfa_offset 20
 960              		.cfi_offset 4, -20
 961              		.cfi_offset 5, -16
 962              		.cfi_offset 6, -12
 963              		.cfi_offset 7, -8
 964              		.cfi_offset 14, -4
 965              		.loc 1 578 0
 966 0002 D0E90943 		ldrd	r4, r3, [r0, #36]
 967              		.loc 1 572 0
 968 0006 104E     		ldr	r6, .L99
 969              		.loc 1 580 0
ARM GAS  C:\Users\Moi\AppData\Local\Temp\cc70352K.s 			page 18


 970 0008 056B     		ldr	r5, [r0, #48]
 971              		.loc 1 572 0
 972 000a 3768     		ldr	r7, [r6]
 973              		.loc 1 578 0
 974 000c 1B68     		ldr	r3, [r3]
 975              		.loc 1 574 0
 976 000e 2468     		ldr	r4, [r4]
 977              		.loc 1 576 0
 978 0010 C06A     		ldr	r0, [r0, #44]
 979              	.LVL66:
 980              		.loc 1 572 0
 981 0012 83B0     		sub	sp, sp, #12
 982              		.cfi_def_cfa_offset 32
 983              		.loc 1 580 0
 984 0014 45F48065 		orr	r5, r5, #1024
 985              		.loc 1 572 0
 986 0018 0197     		str	r7, [sp, #4]
 987              		.loc 1 574 0
 988 001a 0C4F     		ldr	r7, .L99+4
 989 001c E760     		str	r7, [r4, #12]
 990              		.loc 1 575 0
 991 001e 6160     		str	r1, [r4, #4]
 992              		.loc 1 576 0
 993 0020 2060     		str	r0, [r4]
 994              		.loc 1 578 0
 995 0022 DA60     		str	r2, [r3, #12]
 996              		.loc 1 579 0
 997 0024 5960     		str	r1, [r3, #4]
 998              		.loc 1 580 0
 999 0026 1D60     		str	r5, [r3]
 1000              		.loc 1 582 0
 1001 0028 2268     		ldr	r2, [r4]
 1002              	.LVL67:
 1003 002a 42F00102 		orr	r2, r2, #1
 1004 002e 2260     		str	r2, [r4]
 1005              		.loc 1 583 0
 1006 0030 1A68     		ldr	r2, [r3]
 1007 0032 42F00102 		orr	r2, r2, #1
 1008 0036 1A60     		str	r2, [r3]
 1009              		.loc 1 584 0
 1010 0038 019A     		ldr	r2, [sp, #4]
 1011 003a 3368     		ldr	r3, [r6]
 1012 003c 9A42     		cmp	r2, r3
 1013 003e 01D1     		bne	.L98
 1014 0040 03B0     		add	sp, sp, #12
 1015              		.cfi_remember_state
 1016              		.cfi_def_cfa_offset 20
 1017              		@ sp needed
 1018 0042 F0BD     		pop	{r4, r5, r6, r7, pc}
 1019              	.L98:
 1020              		.cfi_restore_state
 1021 0044 FFF7FEFF 		bl	__stack_chk_fail
 1022              	.LVL68:
 1023              	.L100:
 1024              		.align	2
 1025              	.L99:
 1026 0048 00000000 		.word	__stack_chk_guard
ARM GAS  C:\Users\Moi\AppData\Local\Temp\cc70352K.s 			page 19


 1027 004c 00000000 		.word	.LANCHOR3
 1028              		.cfi_endproc
 1029              	.LFE265:
 1030              		.size	spi_lld_send, .-spi_lld_send
 1031              		.section	.text.spi_lld_receive,"ax",%progbits
 1032              		.align	1
 1033              		.p2align 4,,15
 1034              		.global	spi_lld_receive
 1035              		.syntax unified
 1036              		.thumb
 1037              		.thumb_func
 1038              		.fpu fpv4-sp-d16
 1039              		.type	spi_lld_receive, %function
 1040              	spi_lld_receive:
 1041              	.LFB266:
 1042              		.loc 1 599 0
 1043              		.cfi_startproc
 1044              		@ args = 0, pretend = 0, frame = 8
 1045              		@ frame_needed = 0, uses_anonymous_args = 0
 1046              	.LVL69:
 1047 0000 F0B5     		push	{r4, r5, r6, r7, lr}
 1048              		.cfi_def_cfa_offset 20
 1049              		.cfi_offset 4, -20
 1050              		.cfi_offset 5, -16
 1051              		.cfi_offset 6, -12
 1052              		.cfi_offset 7, -8
 1053              		.cfi_offset 14, -4
 1054              		.loc 1 605 0
 1055 0002 D0E90943 		ldrd	r4, r3, [r0, #36]
 1056              		.loc 1 599 0
 1057 0006 104E     		ldr	r6, .L105
 1058              		.loc 1 603 0
 1059 0008 C56A     		ldr	r5, [r0, #44]
 1060              		.loc 1 601 0
 1061 000a 2468     		ldr	r4, [r4]
 1062              		.loc 1 599 0
 1063 000c 3768     		ldr	r7, [r6]
 1064              		.loc 1 605 0
 1065 000e 1B68     		ldr	r3, [r3]
 1066              		.loc 1 607 0
 1067 0010 006B     		ldr	r0, [r0, #48]
 1068              	.LVL70:
 1069              		.loc 1 599 0
 1070 0012 83B0     		sub	sp, sp, #12
 1071              		.cfi_def_cfa_offset 32
 1072              		.loc 1 603 0
 1073 0014 45F48065 		orr	r5, r5, #1024
 1074              		.loc 1 599 0
 1075 0018 0197     		str	r7, [sp, #4]
 1076              		.loc 1 601 0
 1077 001a E260     		str	r2, [r4, #12]
 1078              		.loc 1 605 0
 1079 001c 0B4A     		ldr	r2, .L105+4
 1080              	.LVL71:
 1081              		.loc 1 602 0
 1082 001e 6160     		str	r1, [r4, #4]
 1083              	.LVL72:
ARM GAS  C:\Users\Moi\AppData\Local\Temp\cc70352K.s 			page 20


 1084              		.loc 1 603 0
 1085 0020 2560     		str	r5, [r4]
 1086              		.loc 1 605 0
 1087 0022 DA60     		str	r2, [r3, #12]
 1088              		.loc 1 606 0
 1089 0024 5960     		str	r1, [r3, #4]
 1090              		.loc 1 607 0
 1091 0026 1860     		str	r0, [r3]
 1092              		.loc 1 609 0
 1093 0028 2268     		ldr	r2, [r4]
 1094 002a 42F00102 		orr	r2, r2, #1
 1095 002e 2260     		str	r2, [r4]
 1096              		.loc 1 610 0
 1097 0030 1A68     		ldr	r2, [r3]
 1098 0032 42F00102 		orr	r2, r2, #1
 1099 0036 1A60     		str	r2, [r3]
 1100              		.loc 1 611 0
 1101 0038 019A     		ldr	r2, [sp, #4]
 1102 003a 3368     		ldr	r3, [r6]
 1103 003c 9A42     		cmp	r2, r3
 1104 003e 01D1     		bne	.L104
 1105 0040 03B0     		add	sp, sp, #12
 1106              		.cfi_remember_state
 1107              		.cfi_def_cfa_offset 20
 1108              		@ sp needed
 1109 0042 F0BD     		pop	{r4, r5, r6, r7, pc}
 1110              	.L104:
 1111              		.cfi_restore_state
 1112 0044 FFF7FEFF 		bl	__stack_chk_fail
 1113              	.LVL73:
 1114              	.L106:
 1115              		.align	2
 1116              	.L105:
 1117 0048 00000000 		.word	__stack_chk_guard
 1118 004c 00000000 		.word	.LANCHOR0
 1119              		.cfi_endproc
 1120              	.LFE266:
 1121              		.size	spi_lld_receive, .-spi_lld_receive
 1122              		.section	.text.spi_lld_polled_exchange,"ax",%progbits
 1123              		.align	1
 1124              		.p2align 4,,15
 1125              		.global	spi_lld_polled_exchange
 1126              		.syntax unified
 1127              		.thumb
 1128              		.thumb_func
 1129              		.fpu fpv4-sp-d16
 1130              		.type	spi_lld_polled_exchange, %function
 1131              	spi_lld_polled_exchange:
 1132              	.LFB267:
 1133              		.loc 1 625 0
 1134              		.cfi_startproc
 1135              		@ args = 0, pretend = 0, frame = 8
 1136              		@ frame_needed = 0, uses_anonymous_args = 0
 1137              	.LVL74:
 1138 0000 10B5     		push	{r4, lr}
 1139              		.cfi_def_cfa_offset 8
 1140              		.cfi_offset 4, -8
ARM GAS  C:\Users\Moi\AppData\Local\Temp\cc70352K.s 			page 21


 1141              		.cfi_offset 14, -4
 1142 0002 094C     		ldr	r4, .L114
 1143              		.loc 1 627 0
 1144 0004 026A     		ldr	r2, [r0, #32]
 1145              		.loc 1 625 0
 1146 0006 2368     		ldr	r3, [r4]
 1147 0008 82B0     		sub	sp, sp, #8
 1148              		.cfi_def_cfa_offset 16
 1149              		.loc 1 625 0
 1150 000a 0193     		str	r3, [sp, #4]
 1151              		.loc 1 627 0
 1152 000c D160     		str	r1, [r2, #12]
 1153              	.L108:
 1154              		.loc 1 628 0 discriminator 1
 1155 000e 9368     		ldr	r3, [r2, #8]
 1156 0010 DB07     		lsls	r3, r3, #31
 1157 0012 FCD5     		bpl	.L108
 1158              		.loc 1 630 0
 1159 0014 D068     		ldr	r0, [r2, #12]
 1160              	.LVL75:
 1161              		.loc 1 631 0
 1162 0016 019A     		ldr	r2, [sp, #4]
 1163 0018 2368     		ldr	r3, [r4]
 1164 001a 9A42     		cmp	r2, r3
 1165 001c 80B2     		uxth	r0, r0
 1166 001e 01D1     		bne	.L113
 1167 0020 02B0     		add	sp, sp, #8
 1168              		.cfi_remember_state
 1169              		.cfi_def_cfa_offset 8
 1170              		@ sp needed
 1171 0022 10BD     		pop	{r4, pc}
 1172              	.L113:
 1173              		.cfi_restore_state
 1174 0024 FFF7FEFF 		bl	__stack_chk_fail
 1175              	.LVL76:
 1176              	.L115:
 1177              		.align	2
 1178              	.L114:
 1179 0028 00000000 		.word	__stack_chk_guard
 1180              		.cfi_endproc
 1181              	.LFE267:
 1182              		.size	spi_lld_polled_exchange, .-spi_lld_polled_exchange
 1183              		.global	SPID1
 1184              		.section	.bss.SPID1,"aw",%nobits
 1185              		.align	2
 1186              		.set	.LANCHOR1,. + 0
 1187              		.type	SPID1, %object
 1188              		.size	SPID1, 52
 1189              	SPID1:
 1190 0000 00000000 		.space	52
 1190      00000000 
 1190      00000000 
 1190      00000000 
 1190      00000000 
 1191              		.section	.bss.dummyrx,"aw",%nobits
 1192              		.align	1
 1193              		.set	.LANCHOR3,. + 0
ARM GAS  C:\Users\Moi\AppData\Local\Temp\cc70352K.s 			page 22


 1194              		.type	dummyrx, %object
 1195              		.size	dummyrx, 2
 1196              	dummyrx:
 1197 0000 0000     		.space	2
 1198              		.section	.bss.dummytx,"aw",%nobits
 1199              		.align	1
 1200              		.set	.LANCHOR0,. + 0
 1201              		.type	dummytx, %object
 1202              		.size	dummytx, 2
 1203              	dummytx:
 1204 0000 0000     		.space	2
 1205              		.section	.rodata.__func__.9862,"a",%progbits
 1206              		.align	2
 1207              		.set	.LANCHOR2,. + 0
 1208              		.type	__func__.9862, %object
 1209              		.size	__func__.9862, 14
 1210              	__func__.9862:
 1211 0000 7370695F 		.ascii	"spi_lld_start\000"
 1211      6C6C645F 
 1211      73746172 
 1211      7400
 1212              		.section	.rodata.spi_lld_serve_tx_interrupt.str1.4,"aMS",%progbits,1
 1213              		.align	2
 1214              	.LC0:
 1215 0000 444D4120 		.ascii	"DMA failure\000"
 1215      6661696C 
 1215      75726500 
 1216              		.text
 1217              	.Letext0:
 1218              		.file 5 "c:\\users\\moi\\documents\\_microinfo\\epuck-eclipse\\tools\\gcc-arm-none-eabi-7-2017-q4-
 1219              		.file 6 "c:\\users\\moi\\documents\\_microinfo\\epuck-eclipse\\tools\\gcc-arm-none-eabi-7-2017-q4-
 1220              		.file 7 "c:\\users\\moi\\documents\\_microinfo\\epuck-eclipse\\tools\\gcc-arm-none-eabi-7-2017-q4-
 1221              		.file 8 "..//ChibiOS//os/rt/ports/ARMCMx/compilers/GCC/chtypes.h"
 1222              		.file 9 "..//ChibiOS//os/rt/include/chsystypes.h"
 1223              		.file 10 "..//ChibiOS//os/rt/include/chschd.h"
 1224              		.file 11 "..//ChibiOS//os/ext/CMSIS/include/core_cm4.h"
 1225              		.file 12 "..//ChibiOS//os/ext/CMSIS/ST/system_stm32f4xx.h"
 1226              		.file 13 "..//ChibiOS//os/ext/CMSIS/ST/stm32f407xx.h"
 1227              		.file 14 "..//ChibiOS//os/rt/ports/ARMCMx/chcore.h"
 1228              		.file 15 "..//ChibiOS//os/rt/ports/ARMCMx/chcore_v7m.h"
 1229              		.file 16 "..//ChibiOS//os/rt/include/chdebug.h"
 1230              		.file 17 "..//ChibiOS//os/rt/include/chtm.h"
 1231              		.file 18 "..//ChibiOS//os/rt/include/chstats.h"
 1232              		.file 19 "..//ChibiOS//os/rt/include/chsem.h"
 1233              		.file 20 "..//ChibiOS//os/rt/include/chmtx.h"
 1234              		.file 21 "..//ChibiOS//os/rt/include/chregistry.h"
 1235              		.file 22 "..//ChibiOS//os/rt/include/chevents.h"
 1236              		.file 23 "..//ChibiOS//os/rt/include/chqueues.h"
 1237              		.file 24 "..//ChibiOS//os/hal/ports/STM32/STM32F4xx/stm32_dma.h"
 1238              		.file 25 "..//ChibiOS//os/hal/include/hal_ioblock.h"
 1239              		.file 26 "..//ChibiOS//os/hal/ports/STM32/LLD/GPIOv2/pal_lld.h"
 1240              		.file 27 "..//ChibiOS//os/hal/include/adc.h"
 1241              		.file 28 "..//ChibiOS//os/hal/ports/STM32/STM32F4xx/adc_lld.h"
 1242              		.file 29 "..//ChibiOS//os/hal/include/can.h"
 1243              		.file 30 "..//ChibiOS//os/hal/ports/STM32/LLD/can_lld.h"
 1244              		.file 31 "..//ChibiOS//os/hal/include/dac.h"
 1245              		.file 32 "..//ChibiOS//os/hal/ports/STM32/LLD/DACv1/dac_lld.h"
ARM GAS  C:\Users\Moi\AppData\Local\Temp\cc70352K.s 			page 23


 1246              		.file 33 "..//ChibiOS//os/hal/include/ext.h"
 1247              		.file 34 "..//ChibiOS//os/hal/ports/STM32/LLD/ext_lld.h"
 1248              		.file 35 "..//ChibiOS//os/hal/include/gpt.h"
 1249              		.file 36 "..//ChibiOS//os/hal/ports/STM32/LLD/TIMv1/gpt_lld.h"
 1250              		.file 37 "..//ChibiOS//os/hal/ports/STM32/LLD/TIMv1/stm32_tim.h"
 1251              		.file 38 "..//ChibiOS//os/hal/include/i2c.h"
 1252              		.file 39 "..//ChibiOS//os/hal/ports/STM32/LLD/I2Cv1/i2c_lld.h"
 1253              		.file 40 "..//ChibiOS//os/hal/include/i2s.h"
 1254              		.file 41 "..//ChibiOS//os/hal/ports/STM32/LLD/SPIv1/i2s_lld.h"
 1255              		.file 42 "..//ChibiOS//os/hal/include/pwm.h"
 1256              		.file 43 "..//ChibiOS//os/hal/ports/STM32/LLD/TIMv1/pwm_lld.h"
 1257              		.file 44 "..//ChibiOS//os/hal/include/serial.h"
 1258              		.file 45 "..//ChibiOS//os/hal/ports/STM32/LLD/USARTv1/serial_lld.h"
 1259              		.file 46 "..//ChibiOS//os/hal/include/sdc.h"
 1260              		.file 47 "..//ChibiOS//os/hal/ports/STM32/LLD/sdc_lld.h"
 1261              		.file 48 "..//ChibiOS//os/hal/include/spi.h"
 1262              		.file 49 "..//ChibiOS//os/hal/ports/STM32/LLD/SPIv1/spi_lld.h"
 1263              		.file 50 "..//ChibiOS//os/hal/include/usb.h"
 1264              		.file 51 "..//ChibiOS//os/hal/ports/STM32/LLD/OTGv1/usb_lld.h"
 1265              		.file 52 "..//ChibiOS//os/hal/ports/STM32/LLD/OTGv1/stm32_otg.h"
 1266              		.file 53 "..//ChibiOS//os/rt/include/chthreads.h"