ARM GAS  C:\Users\Moi\AppData\Local\Temp\ccwG6ltn.s 			page 1


   1              		.cpu cortex-m4
   2              		.eabi_attribute 27, 1
   3              		.eabi_attribute 28, 1
   4              		.eabi_attribute 20, 1
   5              		.eabi_attribute 21, 1
   6              		.eabi_attribute 23, 3
   7              		.eabi_attribute 24, 1
   8              		.eabi_attribute 25, 1
   9              		.eabi_attribute 26, 1
  10              		.eabi_attribute 30, 2
  11              		.eabi_attribute 34, 1
  12              		.eabi_attribute 18, 4
  13              		.file	"testbmk.c"
  14              		.text
  15              	.Ltext0:
  16              		.cfi_sections	.debug_frame
  17              		.section	.text.tmo,"ax",%progbits
  18              		.align	1
  19              		.p2align 4,,15
  20              		.syntax unified
  21              		.thumb
  22              		.thumb_func
  23              		.fpu fpv4-sp-d16
  24              		.type	tmo, %function
  25              	tmo:
  26              	.LFB235:
  27              		.file 1 "..//ChibiOS//test/rt/testbmk.c"
  28              		.loc 1 505 0
  29              		.cfi_startproc
  30              		@ args = 0, pretend = 0, frame = 8
  31              		@ frame_needed = 0, uses_anonymous_args = 0
  32              	.LVL0:
  33 0000 00B5     		push	{lr}
  34              		.cfi_def_cfa_offset 4
  35              		.cfi_offset 14, -4
  36 0002 064B     		ldr	r3, .L6
  37 0004 83B0     		sub	sp, sp, #12
  38              		.cfi_def_cfa_offset 16
  39              		.loc 1 505 0
  40 0006 1A68     		ldr	r2, [r3]
  41 0008 0192     		str	r2, [sp, #4]
  42 000a 019A     		ldr	r2, [sp, #4]
  43 000c 1B68     		ldr	r3, [r3]
  44 000e 9A42     		cmp	r2, r3
  45 0010 02D1     		bne	.L5
  46 0012 03B0     		add	sp, sp, #12
  47              		.cfi_remember_state
  48              		.cfi_def_cfa_offset 4
  49              		@ sp needed
  50 0014 5DF804FB 		ldr	pc, [sp], #4
  51              	.L5:
  52              		.cfi_restore_state
  53 0018 FFF7FEFF 		bl	__stack_chk_fail
  54              	.LVL1:
  55              	.L7:
  56              		.align	2
  57              	.L6:
ARM GAS  C:\Users\Moi\AppData\Local\Temp\ccwG6ltn.s 			page 2


  58 001c 00000000 		.word	__stack_chk_guard
  59              		.cfi_endproc
  60              	.LFE235:
  61              		.size	tmo, .-tmo
  62              		.section	.text.bmk13_execute,"ax",%progbits
  63              		.align	1
  64              		.p2align 4,,15
  65              		.syntax unified
  66              		.thumb
  67              		.thumb_func
  68              		.fpu fpv4-sp-d16
  69              		.type	bmk13_execute, %function
  70              	bmk13_execute:
  71              	.LFB241:
  72              		.loc 1 640 0
  73              		.cfi_startproc
  74              		@ args = 0, pretend = 0, frame = 8
  75              		@ frame_needed = 0, uses_anonymous_args = 0
  76 0000 10B5     		push	{r4, lr}
  77              		.cfi_def_cfa_offset 8
  78              		.cfi_offset 4, -8
  79              		.cfi_offset 14, -4
  80 0002 344C     		ldr	r4, .L13
  81              		.loc 1 642 0
  82 0004 3448     		ldr	r0, .L13+4
  83              		.loc 1 640 0
  84 0006 2368     		ldr	r3, [r4]
  85 0008 82B0     		sub	sp, sp, #8
  86              		.cfi_def_cfa_offset 16
  87              		.loc 1 640 0
  88 000a 0193     		str	r3, [sp, #4]
  89              		.loc 1 642 0
  90 000c FFF7FEFF 		bl	test_print
  91              	.LVL2:
  92              		.loc 1 643 0
  93 0010 4FF4CE60 		mov	r0, #1648
  94 0014 FFF7FEFF 		bl	test_printn
  95              	.LVL3:
  96              		.loc 1 644 0
  97 0018 3048     		ldr	r0, .L13+8
  98 001a FFF7FEFF 		bl	test_println
  99              	.LVL4:
 100              		.loc 1 645 0
 101 001e 3048     		ldr	r0, .L13+12
 102 0020 FFF7FEFF 		bl	test_print
 103              	.LVL5:
 104              		.loc 1 646 0
 105 0024 6820     		movs	r0, #104
 106 0026 FFF7FEFF 		bl	test_printn
 107              	.LVL6:
 108              		.loc 1 647 0
 109 002a 2C48     		ldr	r0, .L13+8
 110 002c FFF7FEFF 		bl	test_println
 111              	.LVL7:
 112              		.loc 1 648 0
 113 0030 2C48     		ldr	r0, .L13+16
 114 0032 FFF7FEFF 		bl	test_print
ARM GAS  C:\Users\Moi\AppData\Local\Temp\ccwG6ltn.s 			page 3


 115              	.LVL8:
 116              		.loc 1 649 0
 117 0036 1420     		movs	r0, #20
 118 0038 FFF7FEFF 		bl	test_printn
 119              	.LVL9:
 120              		.loc 1 650 0
 121 003c 2748     		ldr	r0, .L13+8
 122 003e FFF7FEFF 		bl	test_println
 123              	.LVL10:
 124              		.loc 1 652 0
 125 0042 2948     		ldr	r0, .L13+20
 126 0044 FFF7FEFF 		bl	test_print
 127              	.LVL11:
 128              		.loc 1 653 0
 129 0048 0C20     		movs	r0, #12
 130 004a FFF7FEFF 		bl	test_printn
 131              	.LVL12:
 132              		.loc 1 654 0
 133 004e 2348     		ldr	r0, .L13+8
 134 0050 FFF7FEFF 		bl	test_println
 135              	.LVL13:
 136              		.loc 1 657 0
 137 0054 2548     		ldr	r0, .L13+24
 138 0056 FFF7FEFF 		bl	test_print
 139              	.LVL14:
 140              		.loc 1 658 0
 141 005a 0420     		movs	r0, #4
 142 005c FFF7FEFF 		bl	test_printn
 143              	.LVL15:
 144              		.loc 1 659 0
 145 0060 1E48     		ldr	r0, .L13+8
 146 0062 FFF7FEFF 		bl	test_println
 147              	.LVL16:
 148              		.loc 1 660 0
 149 0066 2248     		ldr	r0, .L13+28
 150 0068 FFF7FEFF 		bl	test_print
 151              	.LVL17:
 152              		.loc 1 661 0
 153 006c 1420     		movs	r0, #20
 154 006e FFF7FEFF 		bl	test_printn
 155              	.LVL18:
 156              		.loc 1 662 0
 157 0072 1A48     		ldr	r0, .L13+8
 158 0074 FFF7FEFF 		bl	test_println
 159              	.LVL19:
 160              		.loc 1 665 0
 161 0078 1E48     		ldr	r0, .L13+32
 162 007a FFF7FEFF 		bl	test_print
 163              	.LVL20:
 164              		.loc 1 666 0
 165 007e 1420     		movs	r0, #20
 166 0080 FFF7FEFF 		bl	test_printn
 167              	.LVL21:
 168              		.loc 1 667 0
 169 0084 1548     		ldr	r0, .L13+8
 170 0086 FFF7FEFF 		bl	test_println
 171              	.LVL22:
ARM GAS  C:\Users\Moi\AppData\Local\Temp\ccwG6ltn.s 			page 4


 172              		.loc 1 670 0
 173 008a 1B48     		ldr	r0, .L13+36
 174 008c FFF7FEFF 		bl	test_print
 175              	.LVL23:
 176              		.loc 1 671 0
 177 0090 0820     		movs	r0, #8
 178 0092 FFF7FEFF 		bl	test_printn
 179              	.LVL24:
 180              		.loc 1 672 0
 181 0096 1148     		ldr	r0, .L13+8
 182 0098 FFF7FEFF 		bl	test_println
 183              	.LVL25:
 184              		.loc 1 675 0
 185 009c 1748     		ldr	r0, .L13+40
 186 009e FFF7FEFF 		bl	test_print
 187              	.LVL26:
 188              		.loc 1 676 0
 189 00a2 2420     		movs	r0, #36
 190 00a4 FFF7FEFF 		bl	test_printn
 191              	.LVL27:
 192              		.loc 1 677 0
 193 00a8 0C48     		ldr	r0, .L13+8
 194 00aa FFF7FEFF 		bl	test_println
 195              	.LVL28:
 196              		.loc 1 680 0
 197 00ae 1448     		ldr	r0, .L13+44
 198 00b0 FFF7FEFF 		bl	test_print
 199              	.LVL29:
 200              		.loc 1 681 0
 201 00b4 2820     		movs	r0, #40
 202 00b6 FFF7FEFF 		bl	test_printn
 203              	.LVL30:
 204              		.loc 1 682 0
 205 00ba 019A     		ldr	r2, [sp, #4]
 206 00bc 2368     		ldr	r3, [r4]
 207 00be 9A42     		cmp	r2, r3
 208 00c0 05D1     		bne	.L12
 209 00c2 0648     		ldr	r0, .L13+8
 210              		.loc 1 684 0
 211 00c4 02B0     		add	sp, sp, #8
 212              		.cfi_remember_state
 213              		.cfi_def_cfa_offset 8
 214              		@ sp needed
 215 00c6 BDE81040 		pop	{r4, lr}
 216              		.cfi_restore 14
 217              		.cfi_restore 4
 218              		.cfi_def_cfa_offset 0
 219              		.loc 1 682 0
 220 00ca FFF7FEBF 		b	test_println
 221              	.LVL31:
 222              	.L12:
 223              		.cfi_restore_state
 224 00ce FFF7FEFF 		bl	__stack_chk_fail
 225              	.LVL32:
 226              	.L14:
 227 00d2 00BF     		.align	2
 228              	.L13:
ARM GAS  C:\Users\Moi\AppData\Local\Temp\ccwG6ltn.s 			page 5


 229 00d4 00000000 		.word	__stack_chk_guard
 230 00d8 00000000 		.word	.LC0
 231 00dc 10000000 		.word	.LC1
 232 00e0 18000000 		.word	.LC2
 233 00e4 28000000 		.word	.LC3
 234 00e8 38000000 		.word	.LC4
 235 00ec 48000000 		.word	.LC5
 236 00f0 58000000 		.word	.LC6
 237 00f4 68000000 		.word	.LC7
 238 00f8 78000000 		.word	.LC8
 239 00fc 88000000 		.word	.LC9
 240 0100 98000000 		.word	.LC10
 241              		.cfi_endproc
 242              	.LFE241:
 243              		.size	bmk13_execute, .-bmk13_execute
 244              		.section	.text.thread2,"ax",%progbits
 245              		.align	1
 246              		.p2align 4,,15
 247              		.syntax unified
 248              		.thumb
 249              		.thumb_func
 250              		.fpu fpv4-sp-d16
 251              		.type	thread2, %function
 252              	thread2:
 253              	.LFB220:
 254              		.loc 1 72 0
 255              		.cfi_startproc
 256              		@ args = 0, pretend = 0, frame = 8
 257              		@ frame_needed = 0, uses_anonymous_args = 0
 258              	.LVL33:
 259 0000 30B5     		push	{r4, r5, lr}
 260              		.cfi_def_cfa_offset 12
 261              		.cfi_offset 4, -12
 262              		.cfi_offset 5, -8
 263              		.cfi_offset 14, -4
 264 0002 0A4D     		ldr	r5, .L21
 265 0004 83B0     		sub	sp, sp, #12
 266              		.cfi_def_cfa_offset 24
 267              		.loc 1 72 0
 268 0006 2B68     		ldr	r3, [r5]
 269 0008 0193     		str	r3, [sp, #4]
 270              	.LVL34:
 271              	.L16:
 272              		.loc 1 78 0 discriminator 1
 273 000a FFF7FEFF 		bl	chMsgWait
 274              	.LVL35:
 275              	.LBB143:
 276              	.LBB144:
 277              		.file 2 "..//ChibiOS//os/rt/include/chmsg.h"
 278              		.loc 2 98 0 discriminator 1
 279 000e 846B     		ldr	r4, [r0, #56]
 280              	.LVL36:
 281              	.LBE144:
 282              	.LBE143:
 283              		.loc 1 80 0 discriminator 1
 284 0010 2146     		mov	r1, r4
 285 0012 FFF7FEFF 		bl	chMsgRelease
ARM GAS  C:\Users\Moi\AppData\Local\Temp\ccwG6ltn.s 			page 6


 286              	.LVL37:
 287              		.loc 1 81 0 discriminator 1
 288 0016 002C     		cmp	r4, #0
 289 0018 F7D1     		bne	.L16
 290              		.loc 1 82 0
 291 001a 019A     		ldr	r2, [sp, #4]
 292 001c 2B68     		ldr	r3, [r5]
 293 001e 9A42     		cmp	r2, r3
 294 0020 01D1     		bne	.L20
 295 0022 03B0     		add	sp, sp, #12
 296              		.cfi_remember_state
 297              		.cfi_def_cfa_offset 12
 298              		@ sp needed
 299 0024 30BD     		pop	{r4, r5, pc}
 300              	.L20:
 301              		.cfi_restore_state
 302 0026 FFF7FEFF 		bl	__stack_chk_fail
 303              	.LVL38:
 304              	.L22:
 305 002a 00BF     		.align	2
 306              	.L21:
 307 002c 00000000 		.word	__stack_chk_guard
 308              		.cfi_endproc
 309              	.LFE220:
 310              		.size	thread2, .-thread2
 311              		.section	.text.bmk6_execute,"ax",%progbits
 312              		.align	1
 313              		.p2align 4,,15
 314              		.syntax unified
 315              		.thumb
 316              		.thumb_func
 317              		.fpu fpv4-sp-d16
 318              		.type	bmk6_execute, %function
 319              	bmk6_execute:
 320              	.LFB228:
 321              		.loc 1 307 0
 322              		.cfi_startproc
 323              		@ args = 0, pretend = 0, frame = 8
 324              		@ frame_needed = 0, uses_anonymous_args = 0
 325 0000 2DE9F047 		push	{r4, r5, r6, r7, r8, r9, r10, lr}
 326              		.cfi_def_cfa_offset 32
 327              		.cfi_offset 4, -32
 328              		.cfi_offset 5, -28
 329              		.cfi_offset 6, -24
 330              		.cfi_offset 7, -20
 331              		.cfi_offset 8, -16
 332              		.cfi_offset 9, -12
 333              		.cfi_offset 10, -8
 334              		.cfi_offset 14, -4
 335              	.LBB145:
 336              	.LBB146:
 337              	.LBB147:
 338              	.LBB148:
 339              		.file 3 "..//ChibiOS//os/rt/include/chthreads.h"
 340              		.loc 3 176 0
 341 0004 1B4B     		ldr	r3, .L31
 342              	.LBE148:
ARM GAS  C:\Users\Moi\AppData\Local\Temp\ccwG6ltn.s 			page 7


 343              	.LBE147:
 344              	.LBE146:
 345              	.LBE145:
 346              		.loc 1 307 0
 347 0006 DFF880A0 		ldr	r10, .L31+20
 348              	.LBB150:
 349              	.LBB149:
 350              		.loc 3 189 0
 351 000a 9A69     		ldr	r2, [r3, #24]
 352              	.LBE149:
 353              	.LBE150:
 354              		.loc 1 310 0
 355 000c 1A4B     		ldr	r3, .L31+4
 356              		.loc 1 311 0
 357 000e 9568     		ldr	r5, [r2, #8]
 358              		.loc 1 307 0
 359 0010 DAF80020 		ldr	r2, [r10]
 360              		.loc 1 310 0
 361 0014 D3F80090 		ldr	r9, [r3]
 362 0018 DFF87080 		ldr	r8, .L31+24
 363              		.loc 1 315 0
 364 001c 174F     		ldr	r7, .L31+8
 365              		.loc 1 307 0
 366 001e 84B0     		sub	sp, sp, #16
 367              		.cfi_def_cfa_offset 48
 368              		.loc 1 309 0
 369 0020 0024     		movs	r4, #0
 370              		.loc 1 307 0
 371 0022 0392     		str	r2, [sp, #12]
 372              	.LVL39:
 373              		.loc 1 312 0
 374 0024 FFF7FEFF 		bl	test_wait_tick
 375              	.LVL40:
 376              		.loc 1 313 0
 377 0028 4FF47A70 		mov	r0, #1000
 378 002c FFF7FEFF 		bl	test_start_timer
 379              	.LVL41:
 380              		.loc 1 311 0
 381 0030 0135     		adds	r5, r5, #1
 382              	.LVL42:
 383              		.loc 1 315 0
 384 0032 2646     		mov	r6, r4
 385              	.LVL43:
 386              	.L24:
 387              		.loc 1 315 0 is_stmt 0 discriminator 1
 388 0034 3B46     		mov	r3, r7
 389 0036 0096     		str	r6, [sp]
 390 0038 2A46     		mov	r2, r5
 391 003a 4FF4FC71 		mov	r1, #504
 392 003e 4846     		mov	r0, r9
 393 0040 FFF7FEFF 		bl	chThdCreateStatic
 394              	.LVL44:
 395              		.loc 1 320 0 is_stmt 1 discriminator 1
 396 0044 98F80030 		ldrb	r3, [r8]	@ zero_extendqisi2
 397              		.loc 1 316 0 discriminator 1
 398 0048 0134     		adds	r4, r4, #1
 399              	.LVL45:
ARM GAS  C:\Users\Moi\AppData\Local\Temp\ccwG6ltn.s 			page 8


 400              		.loc 1 320 0 discriminator 1
 401 004a 002B     		cmp	r3, #0
 402 004c F2D0     		beq	.L24
 403              		.loc 1 321 0
 404 004e 0C48     		ldr	r0, .L31+12
 405 0050 FFF7FEFF 		bl	test_print
 406              	.LVL46:
 407              		.loc 1 322 0
 408 0054 2046     		mov	r0, r4
 409 0056 FFF7FEFF 		bl	test_printn
 410              	.LVL47:
 411              		.loc 1 323 0
 412 005a 039A     		ldr	r2, [sp, #12]
 413 005c DAF80030 		ldr	r3, [r10]
 414 0060 9A42     		cmp	r2, r3
 415 0062 05D1     		bne	.L30
 416 0064 0748     		ldr	r0, .L31+16
 417              		.loc 1 324 0
 418 0066 04B0     		add	sp, sp, #16
 419              		.cfi_remember_state
 420              		.cfi_def_cfa_offset 32
 421              		@ sp needed
 422 0068 BDE8F047 		pop	{r4, r5, r6, r7, r8, r9, r10, lr}
 423              		.cfi_restore 14
 424              		.cfi_restore 10
 425              		.cfi_restore 9
 426              		.cfi_restore 8
 427              		.cfi_restore 7
 428              		.cfi_restore 6
 429              		.cfi_restore 5
 430              		.cfi_restore 4
 431              		.cfi_def_cfa_offset 0
 432              	.LVL48:
 433              		.loc 1 323 0
 434 006c FFF7FEBF 		b	test_println
 435              	.LVL49:
 436              	.L30:
 437              		.cfi_restore_state
 438 0070 FFF7FEFF 		bl	__stack_chk_fail
 439              	.LVL50:
 440              	.L32:
 441              		.align	2
 442              	.L31:
 443 0074 00000000 		.word	ch
 444 0078 00000000 		.word	wa
 445 007c 00000000 		.word	thread1
 446 0080 00000000 		.word	.LC11
 447 0084 10000000 		.word	.LC12
 448 0088 00000000 		.word	__stack_chk_guard
 449 008c 00000000 		.word	test_timer_done
 450              		.cfi_endproc
 451              	.LFE228:
 452              		.size	bmk6_execute, .-bmk6_execute
 453              		.section	.text.msg_loop_test,"ax",%progbits
 454              		.align	1
 455              		.p2align 4,,15
 456              		.syntax unified
ARM GAS  C:\Users\Moi\AppData\Local\Temp\ccwG6ltn.s 			page 9


 457              		.thumb
 458              		.thumb_func
 459              		.fpu fpv4-sp-d16
 460              		.type	msg_loop_test, %function
 461              	msg_loop_test:
 462              	.LFB221:
 463              		.loc 1 87 0
 464              		.cfi_startproc
 465              		@ args = 0, pretend = 0, frame = 8
 466              		@ frame_needed = 0, uses_anonymous_args = 0
 467              	.LVL51:
 468 0000 F0B5     		push	{r4, r5, r6, r7, lr}
 469              		.cfi_def_cfa_offset 20
 470              		.cfi_offset 4, -20
 471              		.cfi_offset 5, -16
 472              		.cfi_offset 6, -12
 473              		.cfi_offset 7, -8
 474              		.cfi_offset 14, -4
 475 0002 114F     		ldr	r7, .L40
 476 0004 114E     		ldr	r6, .L40+4
 477 0006 3B68     		ldr	r3, [r7]
 478 0008 83B0     		sub	sp, sp, #12
 479              		.cfi_def_cfa_offset 32
 480              		.loc 1 87 0
 481 000a 0546     		mov	r5, r0
 482 000c 0193     		str	r3, [sp, #4]
 483              	.LVL52:
 484              		.loc 1 90 0
 485 000e FFF7FEFF 		bl	test_wait_tick
 486              	.LVL53:
 487              		.loc 1 91 0
 488 0012 4FF47A70 		mov	r0, #1000
 489 0016 FFF7FEFF 		bl	test_start_timer
 490              	.LVL54:
 491              		.loc 1 89 0
 492 001a 0024     		movs	r4, #0
 493              	.LVL55:
 494              	.L34:
 495              		.loc 1 93 0 discriminator 1
 496 001c 0121     		movs	r1, #1
 497 001e 2846     		mov	r0, r5
 498 0020 FFF7FEFF 		bl	chMsgSend
 499              	.LVL56:
 500              		.loc 1 98 0 discriminator 1
 501 0024 3378     		ldrb	r3, [r6]	@ zero_extendqisi2
 502              		.loc 1 94 0 discriminator 1
 503 0026 0134     		adds	r4, r4, #1
 504              	.LVL57:
 505              		.loc 1 98 0 discriminator 1
 506 0028 002B     		cmp	r3, #0
 507 002a F7D0     		beq	.L34
 508              		.loc 1 99 0
 509 002c 2846     		mov	r0, r5
 510 002e 0021     		movs	r1, #0
 511 0030 FFF7FEFF 		bl	chMsgSend
 512              	.LVL58:
 513              		.loc 1 101 0
ARM GAS  C:\Users\Moi\AppData\Local\Temp\ccwG6ltn.s 			page 10


 514 0034 019A     		ldr	r2, [sp, #4]
 515 0036 3B68     		ldr	r3, [r7]
 516 0038 9A42     		cmp	r2, r3
 517 003a 2046     		mov	r0, r4
 518 003c 01D1     		bne	.L39
 519 003e 03B0     		add	sp, sp, #12
 520              		.cfi_remember_state
 521              		.cfi_def_cfa_offset 20
 522              		@ sp needed
 523 0040 F0BD     		pop	{r4, r5, r6, r7, pc}
 524              	.LVL59:
 525              	.L39:
 526              		.cfi_restore_state
 527 0042 FFF7FEFF 		bl	__stack_chk_fail
 528              	.LVL60:
 529              	.L41:
 530 0046 00BF     		.align	2
 531              	.L40:
 532 0048 00000000 		.word	__stack_chk_guard
 533 004c 00000000 		.word	test_timer_done
 534              		.cfi_endproc
 535              	.LFE221:
 536              		.size	msg_loop_test, .-msg_loop_test
 537              		.section	.text.bmk1_execute,"ax",%progbits
 538              		.align	1
 539              		.p2align 4,,15
 540              		.syntax unified
 541              		.thumb
 542              		.thumb_func
 543              		.fpu fpv4-sp-d16
 544              		.type	bmk1_execute, %function
 545              	bmk1_execute:
 546              	.LFB222:
 547              		.loc 1 112 0
 548              		.cfi_startproc
 549              		@ args = 0, pretend = 0, frame = 8
 550              		@ frame_needed = 0, uses_anonymous_args = 0
 551 0000 30B5     		push	{r4, r5, lr}
 552              		.cfi_def_cfa_offset 12
 553              		.cfi_offset 4, -12
 554              		.cfi_offset 5, -8
 555              		.cfi_offset 14, -4
 556              	.LBB151:
 557              	.LBB152:
 558              	.LBB153:
 559              	.LBB154:
 560              		.loc 3 176 0
 561 0002 184B     		ldr	r3, .L47
 562              	.LBE154:
 563              	.LBE153:
 564              	.LBE152:
 565              	.LBE151:
 566              		.loc 1 115 0
 567 0004 184A     		ldr	r2, .L47+4
 568              	.LBB156:
 569              	.LBB155:
 570              		.loc 3 189 0
ARM GAS  C:\Users\Moi\AppData\Local\Temp\ccwG6ltn.s 			page 11


 571 0006 9B69     		ldr	r3, [r3, #24]
 572              	.LBE155:
 573              	.LBE156:
 574              		.loc 1 112 0
 575 0008 184C     		ldr	r4, .L47+8
 576              		.loc 1 115 0
 577 000a 1068     		ldr	r0, [r2]
 578              		.loc 1 112 0
 579 000c 2168     		ldr	r1, [r4]
 580              		.loc 1 115 0
 581 000e 9A68     		ldr	r2, [r3, #8]
 582 0010 174B     		ldr	r3, .L47+12
 583              		.loc 1 112 0
 584 0012 85B0     		sub	sp, sp, #20
 585              		.cfi_def_cfa_offset 32
 586              		.loc 1 115 0
 587 0014 013A     		subs	r2, r2, #1
 588              		.loc 1 112 0
 589 0016 0391     		str	r1, [sp, #12]
 590              		.loc 1 115 0
 591 0018 0021     		movs	r1, #0
 592 001a 0091     		str	r1, [sp]
 593 001c 4FF4FC71 		mov	r1, #504
 594 0020 FFF7FEFF 		bl	chThdCreateStatic
 595              	.LVL61:
 596 0024 134B     		ldr	r3, .L47+16
 597 0026 1860     		str	r0, [r3]
 598              		.loc 1 116 0
 599 0028 FFF7FEFF 		bl	msg_loop_test
 600              	.LVL62:
 601 002c 0546     		mov	r5, r0
 602              	.LVL63:
 603              		.loc 1 117 0
 604 002e FFF7FEFF 		bl	test_wait_threads
 605              	.LVL64:
 606              		.loc 1 118 0
 607 0032 1148     		ldr	r0, .L47+20
 608 0034 FFF7FEFF 		bl	test_print
 609              	.LVL65:
 610              		.loc 1 119 0
 611 0038 2846     		mov	r0, r5
 612 003a FFF7FEFF 		bl	test_printn
 613              	.LVL66:
 614              		.loc 1 120 0
 615 003e 0F48     		ldr	r0, .L47+24
 616 0040 FFF7FEFF 		bl	test_print
 617              	.LVL67:
 618              		.loc 1 121 0
 619 0044 6800     		lsls	r0, r5, #1
 620 0046 FFF7FEFF 		bl	test_printn
 621              	.LVL68:
 622              		.loc 1 122 0
 623 004a 039A     		ldr	r2, [sp, #12]
 624 004c 2368     		ldr	r3, [r4]
 625 004e 9A42     		cmp	r2, r3
 626 0050 05D1     		bne	.L46
 627 0052 0B48     		ldr	r0, .L47+28
ARM GAS  C:\Users\Moi\AppData\Local\Temp\ccwG6ltn.s 			page 12


 628              		.loc 1 123 0
 629 0054 05B0     		add	sp, sp, #20
 630              		.cfi_remember_state
 631              		.cfi_def_cfa_offset 12
 632              		@ sp needed
 633 0056 BDE83040 		pop	{r4, r5, lr}
 634              		.cfi_restore 14
 635              		.cfi_restore 5
 636              		.cfi_restore 4
 637              		.cfi_def_cfa_offset 0
 638              	.LVL69:
 639              		.loc 1 122 0
 640 005a FFF7FEBF 		b	test_println
 641              	.LVL70:
 642              	.L46:
 643              		.cfi_restore_state
 644 005e FFF7FEFF 		bl	__stack_chk_fail
 645              	.LVL71:
 646              	.L48:
 647 0062 00BF     		.align	2
 648              	.L47:
 649 0064 00000000 		.word	ch
 650 0068 00000000 		.word	wa
 651 006c 00000000 		.word	__stack_chk_guard
 652 0070 00000000 		.word	thread2
 653 0074 00000000 		.word	threads
 654 0078 00000000 		.word	.LC11
 655 007c 00000000 		.word	.LC13
 656 0080 0C000000 		.word	.LC14
 657              		.cfi_endproc
 658              	.LFE222:
 659              		.size	bmk1_execute, .-bmk1_execute
 660              		.section	.text.bmk2_execute,"ax",%progbits
 661              		.align	1
 662              		.p2align 4,,15
 663              		.syntax unified
 664              		.thumb
 665              		.thumb_func
 666              		.fpu fpv4-sp-d16
 667              		.type	bmk2_execute, %function
 668              	bmk2_execute:
 669              	.LFB223:
 670              		.loc 1 141 0
 671              		.cfi_startproc
 672              		@ args = 0, pretend = 0, frame = 8
 673              		@ frame_needed = 0, uses_anonymous_args = 0
 674 0000 30B5     		push	{r4, r5, lr}
 675              		.cfi_def_cfa_offset 12
 676              		.cfi_offset 4, -12
 677              		.cfi_offset 5, -8
 678              		.cfi_offset 14, -4
 679              	.LBB157:
 680              	.LBB158:
 681              	.LBB159:
 682              	.LBB160:
 683              		.loc 3 176 0
 684 0002 184B     		ldr	r3, .L54
ARM GAS  C:\Users\Moi\AppData\Local\Temp\ccwG6ltn.s 			page 13


 685              	.LBE160:
 686              	.LBE159:
 687              	.LBE158:
 688              	.LBE157:
 689              		.loc 1 144 0
 690 0004 184A     		ldr	r2, .L54+4
 691              	.LBB162:
 692              	.LBB161:
 693              		.loc 3 189 0
 694 0006 9B69     		ldr	r3, [r3, #24]
 695              	.LBE161:
 696              	.LBE162:
 697              		.loc 1 141 0
 698 0008 184C     		ldr	r4, .L54+8
 699              		.loc 1 144 0
 700 000a 1068     		ldr	r0, [r2]
 701              		.loc 1 141 0
 702 000c 2168     		ldr	r1, [r4]
 703              		.loc 1 144 0
 704 000e 9A68     		ldr	r2, [r3, #8]
 705 0010 174B     		ldr	r3, .L54+12
 706              		.loc 1 141 0
 707 0012 85B0     		sub	sp, sp, #20
 708              		.cfi_def_cfa_offset 32
 709              		.loc 1 144 0
 710 0014 0132     		adds	r2, r2, #1
 711              		.loc 1 141 0
 712 0016 0391     		str	r1, [sp, #12]
 713              		.loc 1 144 0
 714 0018 0021     		movs	r1, #0
 715 001a 0091     		str	r1, [sp]
 716 001c 4FF4FC71 		mov	r1, #504
 717 0020 FFF7FEFF 		bl	chThdCreateStatic
 718              	.LVL72:
 719 0024 134B     		ldr	r3, .L54+16
 720 0026 1860     		str	r0, [r3]
 721              		.loc 1 145 0
 722 0028 FFF7FEFF 		bl	msg_loop_test
 723              	.LVL73:
 724 002c 0546     		mov	r5, r0
 725              	.LVL74:
 726              		.loc 1 146 0
 727 002e FFF7FEFF 		bl	test_wait_threads
 728              	.LVL75:
 729              		.loc 1 147 0
 730 0032 1148     		ldr	r0, .L54+20
 731 0034 FFF7FEFF 		bl	test_print
 732              	.LVL76:
 733              		.loc 1 148 0
 734 0038 2846     		mov	r0, r5
 735 003a FFF7FEFF 		bl	test_printn
 736              	.LVL77:
 737              		.loc 1 149 0
 738 003e 0F48     		ldr	r0, .L54+24
 739 0040 FFF7FEFF 		bl	test_print
 740              	.LVL78:
 741              		.loc 1 150 0
ARM GAS  C:\Users\Moi\AppData\Local\Temp\ccwG6ltn.s 			page 14


 742 0044 6800     		lsls	r0, r5, #1
 743 0046 FFF7FEFF 		bl	test_printn
 744              	.LVL79:
 745              		.loc 1 151 0
 746 004a 039A     		ldr	r2, [sp, #12]
 747 004c 2368     		ldr	r3, [r4]
 748 004e 9A42     		cmp	r2, r3
 749 0050 05D1     		bne	.L53
 750 0052 0B48     		ldr	r0, .L54+28
 751              		.loc 1 152 0
 752 0054 05B0     		add	sp, sp, #20
 753              		.cfi_remember_state
 754              		.cfi_def_cfa_offset 12
 755              		@ sp needed
 756 0056 BDE83040 		pop	{r4, r5, lr}
 757              		.cfi_restore 14
 758              		.cfi_restore 5
 759              		.cfi_restore 4
 760              		.cfi_def_cfa_offset 0
 761              	.LVL80:
 762              		.loc 1 151 0
 763 005a FFF7FEBF 		b	test_println
 764              	.LVL81:
 765              	.L53:
 766              		.cfi_restore_state
 767 005e FFF7FEFF 		bl	__stack_chk_fail
 768              	.LVL82:
 769              	.L55:
 770 0062 00BF     		.align	2
 771              	.L54:
 772 0064 00000000 		.word	ch
 773 0068 00000000 		.word	wa
 774 006c 00000000 		.word	__stack_chk_guard
 775 0070 00000000 		.word	thread2
 776 0074 00000000 		.word	threads
 777 0078 00000000 		.word	.LC11
 778 007c 00000000 		.word	.LC13
 779 0080 0C000000 		.word	.LC14
 780              		.cfi_endproc
 781              	.LFE223:
 782              		.size	bmk2_execute, .-bmk2_execute
 783              		.section	.text.bmk3_execute,"ax",%progbits
 784              		.align	1
 785              		.p2align 4,,15
 786              		.syntax unified
 787              		.thumb
 788              		.thumb_func
 789              		.fpu fpv4-sp-d16
 790              		.type	bmk3_execute, %function
 791              	bmk3_execute:
 792              	.LFB224:
 793              		.loc 1 171 0
 794              		.cfi_startproc
 795              		@ args = 0, pretend = 0, frame = 8
 796              		@ frame_needed = 0, uses_anonymous_args = 0
 797 0000 2DE9F041 		push	{r4, r5, r6, r7, r8, lr}
 798              		.cfi_def_cfa_offset 24
ARM GAS  C:\Users\Moi\AppData\Local\Temp\ccwG6ltn.s 			page 15


 799              		.cfi_offset 4, -24
 800              		.cfi_offset 5, -20
 801              		.cfi_offset 6, -16
 802              		.cfi_offset 7, -12
 803              		.cfi_offset 8, -8
 804              		.cfi_offset 14, -4
 805              	.LBB163:
 806              	.LBB164:
 807              	.LBB165:
 808              	.LBB166:
 809              		.loc 3 176 0
 810 0004 314F     		ldr	r7, .L61
 811              	.LBE166:
 812              	.LBE165:
 813              	.LBE164:
 814              	.LBE163:
 815              		.loc 1 171 0
 816 0006 DFF8E480 		ldr	r8, .L61+32
 817              	.LBB168:
 818              	.LBB167:
 819              		.loc 3 189 0
 820 000a BB69     		ldr	r3, [r7, #24]
 821              	.LBE167:
 822              	.LBE168:
 823              		.loc 1 174 0
 824 000c 304E     		ldr	r6, .L61+4
 825 000e 9A68     		ldr	r2, [r3, #8]
 826              		.loc 1 171 0
 827 0010 D8F80010 		ldr	r1, [r8]
 828              		.loc 1 174 0
 829 0014 2F4B     		ldr	r3, .L61+8
 830 0016 3068     		ldr	r0, [r6]
 831 0018 2F4C     		ldr	r4, .L61+12
 832              		.loc 1 171 0
 833 001a 84B0     		sub	sp, sp, #16
 834              		.cfi_def_cfa_offset 40
 835              		.loc 1 174 0
 836 001c 0025     		movs	r5, #0
 837              		.loc 1 171 0
 838 001e 0391     		str	r1, [sp, #12]
 839              		.loc 1 174 0
 840 0020 0132     		adds	r2, r2, #1
 841 0022 4FF4FC71 		mov	r1, #504
 842 0026 0095     		str	r5, [sp]
 843 0028 FFF7FEFF 		bl	chThdCreateStatic
 844              	.LVL83:
 845              	.LBB169:
 846              	.LBB170:
 847              		.loc 3 189 0
 848 002c BB69     		ldr	r3, [r7, #24]
 849              	.LBE170:
 850              	.LBE169:
 851              		.loc 1 175 0
 852 002e 9A68     		ldr	r2, [r3, #8]
 853 0030 7368     		ldr	r3, [r6, #4]
 854              		.loc 1 174 0
 855 0032 2060     		str	r0, [r4]
ARM GAS  C:\Users\Moi\AppData\Local\Temp\ccwG6ltn.s 			page 16


 856              		.loc 1 175 0
 857 0034 023A     		subs	r2, r2, #2
 858 0036 1846     		mov	r0, r3
 859 0038 4FF4FC71 		mov	r1, #504
 860 003c 274B     		ldr	r3, .L61+16
 861 003e 0095     		str	r5, [sp]
 862 0040 FFF7FEFF 		bl	chThdCreateStatic
 863              	.LVL84:
 864              	.LBB171:
 865              	.LBB172:
 866              		.loc 3 189 0
 867 0044 BA69     		ldr	r2, [r7, #24]
 868              	.LBE172:
 869              	.LBE171:
 870              		.loc 1 176 0
 871 0046 B368     		ldr	r3, [r6, #8]
 872 0048 9268     		ldr	r2, [r2, #8]
 873              		.loc 1 175 0
 874 004a 6060     		str	r0, [r4, #4]
 875              		.loc 1 176 0
 876 004c 033A     		subs	r2, r2, #3
 877 004e 1846     		mov	r0, r3
 878 0050 4FF4FC71 		mov	r1, #504
 879 0054 214B     		ldr	r3, .L61+16
 880 0056 0095     		str	r5, [sp]
 881 0058 FFF7FEFF 		bl	chThdCreateStatic
 882              	.LVL85:
 883              	.LBB173:
 884              	.LBB174:
 885              		.loc 3 189 0
 886 005c BA69     		ldr	r2, [r7, #24]
 887              	.LBE174:
 888              	.LBE173:
 889              		.loc 1 177 0
 890 005e F368     		ldr	r3, [r6, #12]
 891 0060 9268     		ldr	r2, [r2, #8]
 892              		.loc 1 176 0
 893 0062 A060     		str	r0, [r4, #8]
 894              		.loc 1 177 0
 895 0064 043A     		subs	r2, r2, #4
 896 0066 1846     		mov	r0, r3
 897 0068 4FF4FC71 		mov	r1, #504
 898 006c 1B4B     		ldr	r3, .L61+16
 899 006e 0095     		str	r5, [sp]
 900 0070 FFF7FEFF 		bl	chThdCreateStatic
 901              	.LVL86:
 902              	.LBB175:
 903              	.LBB176:
 904              		.loc 3 189 0
 905 0074 BA69     		ldr	r2, [r7, #24]
 906              	.LBE176:
 907              	.LBE175:
 908              		.loc 1 178 0
 909 0076 3369     		ldr	r3, [r6, #16]
 910 0078 9268     		ldr	r2, [r2, #8]
 911              		.loc 1 177 0
 912 007a E060     		str	r0, [r4, #12]
ARM GAS  C:\Users\Moi\AppData\Local\Temp\ccwG6ltn.s 			page 17


 913              		.loc 1 178 0
 914 007c 053A     		subs	r2, r2, #5
 915 007e 4FF4FC71 		mov	r1, #504
 916 0082 1846     		mov	r0, r3
 917 0084 0095     		str	r5, [sp]
 918 0086 154B     		ldr	r3, .L61+16
 919 0088 FFF7FEFF 		bl	chThdCreateStatic
 920              	.LVL87:
 921 008c 2061     		str	r0, [r4, #16]
 922              		.loc 1 179 0
 923 008e 2068     		ldr	r0, [r4]
 924 0090 FFF7FEFF 		bl	msg_loop_test
 925              	.LVL88:
 926 0094 0446     		mov	r4, r0
 927              	.LVL89:
 928              		.loc 1 180 0
 929 0096 FFF7FEFF 		bl	test_wait_threads
 930              	.LVL90:
 931              		.loc 1 181 0
 932 009a 1148     		ldr	r0, .L61+20
 933 009c FFF7FEFF 		bl	test_print
 934              	.LVL91:
 935              		.loc 1 182 0
 936 00a0 2046     		mov	r0, r4
 937 00a2 FFF7FEFF 		bl	test_printn
 938              	.LVL92:
 939              		.loc 1 183 0
 940 00a6 0F48     		ldr	r0, .L61+24
 941 00a8 FFF7FEFF 		bl	test_print
 942              	.LVL93:
 943              		.loc 1 184 0
 944 00ac 6000     		lsls	r0, r4, #1
 945 00ae FFF7FEFF 		bl	test_printn
 946              	.LVL94:
 947              		.loc 1 185 0
 948 00b2 039A     		ldr	r2, [sp, #12]
 949 00b4 D8F80030 		ldr	r3, [r8]
 950 00b8 9A42     		cmp	r2, r3
 951 00ba 05D1     		bne	.L60
 952 00bc 0A48     		ldr	r0, .L61+28
 953              		.loc 1 186 0
 954 00be 04B0     		add	sp, sp, #16
 955              		.cfi_remember_state
 956              		.cfi_def_cfa_offset 24
 957              		@ sp needed
 958 00c0 BDE8F041 		pop	{r4, r5, r6, r7, r8, lr}
 959              		.cfi_restore 14
 960              		.cfi_restore 8
 961              		.cfi_restore 7
 962              		.cfi_restore 6
 963              		.cfi_restore 5
 964              		.cfi_restore 4
 965              		.cfi_def_cfa_offset 0
 966              	.LVL95:
 967              		.loc 1 185 0
 968 00c4 FFF7FEBF 		b	test_println
 969              	.LVL96:
ARM GAS  C:\Users\Moi\AppData\Local\Temp\ccwG6ltn.s 			page 18


 970              	.L60:
 971              		.cfi_restore_state
 972 00c8 FFF7FEFF 		bl	__stack_chk_fail
 973              	.LVL97:
 974              	.L62:
 975              		.align	2
 976              	.L61:
 977 00cc 00000000 		.word	ch
 978 00d0 00000000 		.word	wa
 979 00d4 00000000 		.word	thread2
 980 00d8 00000000 		.word	threads
 981 00dc 00000000 		.word	thread1
 982 00e0 00000000 		.word	.LC11
 983 00e4 00000000 		.word	.LC13
 984 00e8 0C000000 		.word	.LC14
 985 00ec 00000000 		.word	__stack_chk_guard
 986              		.cfi_endproc
 987              	.LFE224:
 988              		.size	bmk3_execute, .-bmk3_execute
 989              		.section	.text.thread1,"ax",%progbits
 990              		.align	1
 991              		.p2align 4,,15
 992              		.syntax unified
 993              		.thumb
 994              		.thumb_func
 995              		.fpu fpv4-sp-d16
 996              		.type	thread1, %function
 997              	thread1:
 998              	.LFB219:
 999              		.loc 1 66 0
 1000              		.cfi_startproc
 1001              		@ args = 0, pretend = 0, frame = 8
 1002              		@ frame_needed = 0, uses_anonymous_args = 0
 1003              	.LVL98:
 1004 0000 00B5     		push	{lr}
 1005              		.cfi_def_cfa_offset 4
 1006              		.cfi_offset 14, -4
 1007 0002 074B     		ldr	r3, .L68
 1008 0004 83B0     		sub	sp, sp, #12
 1009              		.cfi_def_cfa_offset 16
 1010              		.loc 1 66 0
 1011 0006 1A68     		ldr	r2, [r3]
 1012 0008 0192     		str	r2, [sp, #4]
 1013              		.loc 1 68 0
 1014 000a 019A     		ldr	r2, [sp, #4]
 1015 000c 1B68     		ldr	r3, [r3]
 1016 000e 9A42     		cmp	r2, r3
 1017 0010 04D1     		bne	.L67
 1018              		.loc 1 69 0
 1019 0012 03B0     		add	sp, sp, #12
 1020              		.cfi_remember_state
 1021              		.cfi_def_cfa_offset 4
 1022              		@ sp needed
 1023 0014 5DF804EB 		ldr	lr, [sp], #4
 1024              		.cfi_restore 14
 1025              		.cfi_def_cfa_offset 0
 1026              		.loc 1 68 0
ARM GAS  C:\Users\Moi\AppData\Local\Temp\ccwG6ltn.s 			page 19


 1027 0018 FFF7FEBF 		b	chThdExit
 1028              	.LVL99:
 1029              	.L67:
 1030              		.cfi_restore_state
 1031 001c FFF7FEFF 		bl	__stack_chk_fail
 1032              	.LVL100:
 1033              	.L69:
 1034              		.align	2
 1035              	.L68:
 1036 0020 00000000 		.word	__stack_chk_guard
 1037              		.cfi_endproc
 1038              	.LFE219:
 1039              		.size	thread1, .-thread1
 1040              		.section	.text.bmk5_execute,"ax",%progbits
 1041              		.align	1
 1042              		.p2align 4,,15
 1043              		.syntax unified
 1044              		.thumb
 1045              		.thumb_func
 1046              		.fpu fpv4-sp-d16
 1047              		.type	bmk5_execute, %function
 1048              	bmk5_execute:
 1049              	.LFB227:
 1050              		.loc 1 268 0
 1051              		.cfi_startproc
 1052              		@ args = 0, pretend = 0, frame = 8
 1053              		@ frame_needed = 0, uses_anonymous_args = 0
 1054 0000 2DE9F047 		push	{r4, r5, r6, r7, r8, r9, r10, lr}
 1055              		.cfi_def_cfa_offset 32
 1056              		.cfi_offset 4, -32
 1057              		.cfi_offset 5, -28
 1058              		.cfi_offset 6, -24
 1059              		.cfi_offset 7, -20
 1060              		.cfi_offset 8, -16
 1061              		.cfi_offset 9, -12
 1062              		.cfi_offset 10, -8
 1063              		.cfi_offset 14, -4
 1064              	.LBB177:
 1065              	.LBB178:
 1066              	.LBB179:
 1067              	.LBB180:
 1068              		.loc 3 176 0
 1069 0004 1C4B     		ldr	r3, .L78
 1070              	.LBE180:
 1071              	.LBE179:
 1072              	.LBE178:
 1073              	.LBE177:
 1074              		.loc 1 268 0
 1075 0006 DFF884A0 		ldr	r10, .L78+20
 1076              	.LBB182:
 1077              	.LBB181:
 1078              		.loc 3 189 0
 1079 000a 9A69     		ldr	r2, [r3, #24]
 1080              	.LBE181:
 1081              	.LBE182:
 1082              		.loc 1 271 0
 1083 000c 1B4B     		ldr	r3, .L78+4
ARM GAS  C:\Users\Moi\AppData\Local\Temp\ccwG6ltn.s 			page 20


 1084              		.loc 1 272 0
 1085 000e 9568     		ldr	r5, [r2, #8]
 1086              		.loc 1 268 0
 1087 0010 DAF80020 		ldr	r2, [r10]
 1088              		.loc 1 271 0
 1089 0014 D3F80090 		ldr	r9, [r3]
 1090 0018 DFF87480 		ldr	r8, .L78+24
 1091              		.loc 1 276 0
 1092 001c 184F     		ldr	r7, .L78+8
 1093              		.loc 1 268 0
 1094 001e 84B0     		sub	sp, sp, #16
 1095              		.cfi_def_cfa_offset 48
 1096              		.loc 1 270 0
 1097 0020 0024     		movs	r4, #0
 1098              		.loc 1 268 0
 1099 0022 0392     		str	r2, [sp, #12]
 1100              	.LVL101:
 1101              		.loc 1 273 0
 1102 0024 FFF7FEFF 		bl	test_wait_tick
 1103              	.LVL102:
 1104              		.loc 1 274 0
 1105 0028 4FF47A70 		mov	r0, #1000
 1106 002c FFF7FEFF 		bl	test_start_timer
 1107              	.LVL103:
 1108              		.loc 1 272 0
 1109 0030 013D     		subs	r5, r5, #1
 1110              	.LVL104:
 1111              		.loc 1 276 0
 1112 0032 2646     		mov	r6, r4
 1113              	.LVL105:
 1114              	.L71:
 1115              		.loc 1 276 0 is_stmt 0 discriminator 1
 1116 0034 3B46     		mov	r3, r7
 1117 0036 2A46     		mov	r2, r5
 1118 0038 4FF4FC71 		mov	r1, #504
 1119 003c 0096     		str	r6, [sp]
 1120 003e 4846     		mov	r0, r9
 1121 0040 FFF7FEFF 		bl	chThdCreateStatic
 1122              	.LVL106:
 1123 0044 FFF7FEFF 		bl	chThdWait
 1124              	.LVL107:
 1125              		.loc 1 281 0 is_stmt 1 discriminator 1
 1126 0048 98F80030 		ldrb	r3, [r8]	@ zero_extendqisi2
 1127              		.loc 1 277 0 discriminator 1
 1128 004c 0134     		adds	r4, r4, #1
 1129              	.LVL108:
 1130              		.loc 1 281 0 discriminator 1
 1131 004e 002B     		cmp	r3, #0
 1132 0050 F0D0     		beq	.L71
 1133              		.loc 1 282 0
 1134 0052 0C48     		ldr	r0, .L78+12
 1135 0054 FFF7FEFF 		bl	test_print
 1136              	.LVL109:
 1137              		.loc 1 283 0
 1138 0058 2046     		mov	r0, r4
 1139 005a FFF7FEFF 		bl	test_printn
 1140              	.LVL110:
ARM GAS  C:\Users\Moi\AppData\Local\Temp\ccwG6ltn.s 			page 21


 1141              		.loc 1 284 0
 1142 005e 039A     		ldr	r2, [sp, #12]
 1143 0060 DAF80030 		ldr	r3, [r10]
 1144 0064 9A42     		cmp	r2, r3
 1145 0066 05D1     		bne	.L77
 1146 0068 0748     		ldr	r0, .L78+16
 1147              		.loc 1 285 0
 1148 006a 04B0     		add	sp, sp, #16
 1149              		.cfi_remember_state
 1150              		.cfi_def_cfa_offset 32
 1151              		@ sp needed
 1152 006c BDE8F047 		pop	{r4, r5, r6, r7, r8, r9, r10, lr}
 1153              		.cfi_restore 14
 1154              		.cfi_restore 10
 1155              		.cfi_restore 9
 1156              		.cfi_restore 8
 1157              		.cfi_restore 7
 1158              		.cfi_restore 6
 1159              		.cfi_restore 5
 1160              		.cfi_restore 4
 1161              		.cfi_def_cfa_offset 0
 1162              	.LVL111:
 1163              		.loc 1 284 0
 1164 0070 FFF7FEBF 		b	test_println
 1165              	.LVL112:
 1166              	.L77:
 1167              		.cfi_restore_state
 1168 0074 FFF7FEFF 		bl	__stack_chk_fail
 1169              	.LVL113:
 1170              	.L79:
 1171              		.align	2
 1172              	.L78:
 1173 0078 00000000 		.word	ch
 1174 007c 00000000 		.word	wa
 1175 0080 00000000 		.word	thread1
 1176 0084 00000000 		.word	.LC11
 1177 0088 10000000 		.word	.LC12
 1178 008c 00000000 		.word	__stack_chk_guard
 1179 0090 00000000 		.word	test_timer_done
 1180              		.cfi_endproc
 1181              	.LFE227:
 1182              		.size	bmk5_execute, .-bmk5_execute
 1183              		.section	.text.bmk7_execute,"ax",%progbits
 1184              		.align	1
 1185              		.p2align 4,,15
 1186              		.syntax unified
 1187              		.thumb
 1188              		.thumb_func
 1189              		.fpu fpv4-sp-d16
 1190              		.type	bmk7_execute, %function
 1191              	bmk7_execute:
 1192              	.LFB231:
 1193              		.loc 1 357 0
 1194              		.cfi_startproc
 1195              		@ args = 0, pretend = 0, frame = 8
 1196              		@ frame_needed = 0, uses_anonymous_args = 0
 1197 0000 2DE9F043 		push	{r4, r5, r6, r7, r8, r9, lr}
ARM GAS  C:\Users\Moi\AppData\Local\Temp\ccwG6ltn.s 			page 22


 1198              		.cfi_def_cfa_offset 28
 1199              		.cfi_offset 4, -28
 1200              		.cfi_offset 5, -24
 1201              		.cfi_offset 6, -20
 1202              		.cfi_offset 7, -16
 1203              		.cfi_offset 8, -12
 1204              		.cfi_offset 9, -8
 1205              		.cfi_offset 14, -4
 1206              	.LBB183:
 1207              	.LBB184:
 1208              	.LBB185:
 1209              	.LBB186:
 1210              		.loc 3 176 0
 1211 0004 DFF81891 		ldr	r9, .L88+32
 1212              	.LBE186:
 1213              	.LBE185:
 1214              	.LBE184:
 1215              	.LBE183:
 1216              		.loc 1 357 0
 1217 0008 DFF81881 		ldr	r8, .L88+36
 1218              	.LBB188:
 1219              	.LBB187:
 1220              		.loc 3 189 0
 1221 000c D9F81830 		ldr	r3, [r9, #24]
 1222              	.LBE187:
 1223              	.LBE188:
 1224              		.loc 1 360 0
 1225 0010 3B4D     		ldr	r5, .L88
 1226 0012 9A68     		ldr	r2, [r3, #8]
 1227              		.loc 1 357 0
 1228 0014 D8F80010 		ldr	r1, [r8]
 1229              		.loc 1 360 0
 1230 0018 2868     		ldr	r0, [r5]
 1231 001a 3A4B     		ldr	r3, .L88+4
 1232 001c 3A4F     		ldr	r7, .L88+8
 1233 001e 3B4E     		ldr	r6, .L88+12
 1234              		.loc 1 357 0
 1235 0020 85B0     		sub	sp, sp, #20
 1236              		.cfi_def_cfa_offset 48
 1237              		.loc 1 360 0
 1238 0022 0024     		movs	r4, #0
 1239              		.loc 1 357 0
 1240 0024 0391     		str	r1, [sp, #12]
 1241              		.loc 1 360 0
 1242 0026 0532     		adds	r2, r2, #5
 1243 0028 4FF4FC71 		mov	r1, #504
 1244 002c 0094     		str	r4, [sp]
 1245 002e FFF7FEFF 		bl	chThdCreateStatic
 1246              	.LVL114:
 1247              	.LBB189:
 1248              	.LBB190:
 1249              		.loc 3 189 0
 1250 0032 D9F81830 		ldr	r3, [r9, #24]
 1251              	.LBE190:
 1252              	.LBE189:
 1253              		.loc 1 361 0
 1254 0036 9A68     		ldr	r2, [r3, #8]
ARM GAS  C:\Users\Moi\AppData\Local\Temp\ccwG6ltn.s 			page 23


 1255 0038 6B68     		ldr	r3, [r5, #4]
 1256              		.loc 1 360 0
 1257 003a 3860     		str	r0, [r7]
 1258              		.loc 1 361 0
 1259 003c 0432     		adds	r2, r2, #4
 1260 003e 1846     		mov	r0, r3
 1261 0040 4FF4FC71 		mov	r1, #504
 1262 0044 2F4B     		ldr	r3, .L88+4
 1263 0046 0094     		str	r4, [sp]
 1264 0048 FFF7FEFF 		bl	chThdCreateStatic
 1265              	.LVL115:
 1266              	.LBB191:
 1267              	.LBB192:
 1268              		.loc 3 189 0
 1269 004c D9F81820 		ldr	r2, [r9, #24]
 1270              	.LBE192:
 1271              	.LBE191:
 1272              		.loc 1 362 0
 1273 0050 AB68     		ldr	r3, [r5, #8]
 1274 0052 9268     		ldr	r2, [r2, #8]
 1275              		.loc 1 361 0
 1276 0054 7860     		str	r0, [r7, #4]
 1277              		.loc 1 362 0
 1278 0056 0332     		adds	r2, r2, #3
 1279 0058 1846     		mov	r0, r3
 1280 005a 4FF4FC71 		mov	r1, #504
 1281 005e 294B     		ldr	r3, .L88+4
 1282 0060 0094     		str	r4, [sp]
 1283 0062 FFF7FEFF 		bl	chThdCreateStatic
 1284              	.LVL116:
 1285              	.LBB193:
 1286              	.LBB194:
 1287              		.loc 3 189 0
 1288 0066 D9F81820 		ldr	r2, [r9, #24]
 1289              	.LBE194:
 1290              	.LBE193:
 1291              		.loc 1 363 0
 1292 006a EB68     		ldr	r3, [r5, #12]
 1293 006c 9268     		ldr	r2, [r2, #8]
 1294              		.loc 1 362 0
 1295 006e B860     		str	r0, [r7, #8]
 1296              		.loc 1 363 0
 1297 0070 0232     		adds	r2, r2, #2
 1298 0072 1846     		mov	r0, r3
 1299 0074 4FF4FC71 		mov	r1, #504
 1300 0078 224B     		ldr	r3, .L88+4
 1301 007a 0094     		str	r4, [sp]
 1302 007c FFF7FEFF 		bl	chThdCreateStatic
 1303              	.LVL117:
 1304              	.LBB195:
 1305              	.LBB196:
 1306              		.loc 3 189 0
 1307 0080 D9F81820 		ldr	r2, [r9, #24]
 1308              	.LBE196:
 1309              	.LBE195:
 1310              		.loc 1 364 0
 1311 0084 2B69     		ldr	r3, [r5, #16]
ARM GAS  C:\Users\Moi\AppData\Local\Temp\ccwG6ltn.s 			page 24


 1312 0086 9268     		ldr	r2, [r2, #8]
 1313              		.loc 1 363 0
 1314 0088 F860     		str	r0, [r7, #12]
 1315              		.loc 1 364 0
 1316 008a 0132     		adds	r2, r2, #1
 1317 008c 1846     		mov	r0, r3
 1318 008e 4FF4FC71 		mov	r1, #504
 1319 0092 1C4B     		ldr	r3, .L88+4
 1320 0094 0094     		str	r4, [sp]
 1321 0096 FFF7FEFF 		bl	chThdCreateStatic
 1322              	.LVL118:
 1323 009a 3861     		str	r0, [r7, #16]
 1324              	.LVL119:
 1325              		.loc 1 367 0
 1326 009c FFF7FEFF 		bl	test_wait_tick
 1327              	.LVL120:
 1328              		.loc 1 368 0
 1329 00a0 4FF47A70 		mov	r0, #1000
 1330              		.loc 1 370 0
 1331 00a4 1A4D     		ldr	r5, .L88+16
 1332              		.loc 1 368 0
 1333 00a6 FFF7FEFF 		bl	test_start_timer
 1334              	.LVL121:
 1335              	.L81:
 1336              		.loc 1 370 0 discriminator 1
 1337 00aa 0021     		movs	r1, #0
 1338 00ac 2846     		mov	r0, r5
 1339 00ae FFF7FEFF 		bl	chSemReset
 1340              	.LVL122:
 1341              		.loc 1 375 0 discriminator 1
 1342 00b2 3378     		ldrb	r3, [r6]	@ zero_extendqisi2
 1343              		.loc 1 371 0 discriminator 1
 1344 00b4 0134     		adds	r4, r4, #1
 1345              	.LVL123:
 1346              		.loc 1 375 0 discriminator 1
 1347 00b6 002B     		cmp	r3, #0
 1348 00b8 F7D0     		beq	.L81
 1349              		.loc 1 376 0
 1350 00ba FFF7FEFF 		bl	test_terminate_threads
 1351              	.LVL124:
 1352              		.loc 1 377 0
 1353 00be 0021     		movs	r1, #0
 1354 00c0 1348     		ldr	r0, .L88+16
 1355 00c2 FFF7FEFF 		bl	chSemReset
 1356              	.LVL125:
 1357              		.loc 1 378 0
 1358 00c6 FFF7FEFF 		bl	test_wait_threads
 1359              	.LVL126:
 1360              		.loc 1 380 0
 1361 00ca 1248     		ldr	r0, .L88+20
 1362 00cc FFF7FEFF 		bl	test_print
 1363              	.LVL127:
 1364              		.loc 1 381 0
 1365 00d0 2046     		mov	r0, r4
 1366 00d2 FFF7FEFF 		bl	test_printn
 1367              	.LVL128:
 1368              		.loc 1 383 0
ARM GAS  C:\Users\Moi\AppData\Local\Temp\ccwG6ltn.s 			page 25


 1369 00d6 04EB4404 		add	r4, r4, r4, lsl #1
 1370              	.LVL129:
 1371              		.loc 1 382 0
 1372 00da 0F48     		ldr	r0, .L88+24
 1373 00dc FFF7FEFF 		bl	test_print
 1374              	.LVL130:
 1375              		.loc 1 383 0
 1376 00e0 6000     		lsls	r0, r4, #1
 1377 00e2 FFF7FEFF 		bl	test_printn
 1378              	.LVL131:
 1379              		.loc 1 384 0
 1380 00e6 039A     		ldr	r2, [sp, #12]
 1381 00e8 D8F80030 		ldr	r3, [r8]
 1382 00ec 9A42     		cmp	r2, r3
 1383 00ee 05D1     		bne	.L87
 1384 00f0 0A48     		ldr	r0, .L88+28
 1385              		.loc 1 385 0
 1386 00f2 05B0     		add	sp, sp, #20
 1387              		.cfi_remember_state
 1388              		.cfi_def_cfa_offset 28
 1389              		@ sp needed
 1390 00f4 BDE8F043 		pop	{r4, r5, r6, r7, r8, r9, lr}
 1391              		.cfi_restore 14
 1392              		.cfi_restore 9
 1393              		.cfi_restore 8
 1394              		.cfi_restore 7
 1395              		.cfi_restore 6
 1396              		.cfi_restore 5
 1397              		.cfi_restore 4
 1398              		.cfi_def_cfa_offset 0
 1399              		.loc 1 384 0
 1400 00f8 FFF7FEBF 		b	test_println
 1401              	.LVL132:
 1402              	.L87:
 1403              		.cfi_restore_state
 1404 00fc FFF7FEFF 		bl	__stack_chk_fail
 1405              	.LVL133:
 1406              	.L89:
 1407              		.align	2
 1408              	.L88:
 1409 0100 00000000 		.word	wa
 1410 0104 00000000 		.word	thread3
 1411 0108 00000000 		.word	threads
 1412 010c 00000000 		.word	test_timer_done
 1413 0110 00000000 		.word	.LANCHOR0
 1414 0114 00000000 		.word	.LC11
 1415 0118 00000000 		.word	.LC15
 1416 011c 0C000000 		.word	.LC14
 1417 0120 00000000 		.word	ch
 1418 0124 00000000 		.word	__stack_chk_guard
 1419              		.cfi_endproc
 1420              	.LFE231:
 1421              		.size	bmk7_execute, .-bmk7_execute
 1422              		.section	.text.thread3,"ax",%progbits
 1423              		.align	1
 1424              		.p2align 4,,15
 1425              		.syntax unified
ARM GAS  C:\Users\Moi\AppData\Local\Temp\ccwG6ltn.s 			page 26


 1426              		.thumb
 1427              		.thumb_func
 1428              		.fpu fpv4-sp-d16
 1429              		.type	thread3, %function
 1430              	thread3:
 1431              	.LFB229:
 1432              		.loc 1 345 0
 1433              		.cfi_startproc
 1434              		@ args = 0, pretend = 0, frame = 8
 1435              		@ frame_needed = 0, uses_anonymous_args = 0
 1436              	.LVL134:
 1437 0000 70B5     		push	{r4, r5, r6, lr}
 1438              		.cfi_def_cfa_offset 16
 1439              		.cfi_offset 4, -16
 1440              		.cfi_offset 5, -12
 1441              		.cfi_offset 6, -8
 1442              		.cfi_offset 14, -4
 1443              	.LBB197:
 1444              	.LBB198:
 1445              	.LBB199:
 1446              	.LBB200:
 1447              		.loc 3 176 0
 1448 0002 0D4C     		ldr	r4, .L98
 1449              	.LBE200:
 1450              	.LBE199:
 1451              	.LBE198:
 1452              	.LBE197:
 1453              		.loc 1 345 0
 1454 0004 0D4E     		ldr	r6, .L98+4
 1455              	.LBB203:
 1456              	.LBB201:
 1457              		.loc 3 233 0
 1458 0006 A369     		ldr	r3, [r4, #24]
 1459              	.LBE201:
 1460              	.LBE203:
 1461              		.loc 1 345 0
 1462 0008 3268     		ldr	r2, [r6]
 1463              		.loc 1 348 0
 1464 000a 93F82130 		ldrb	r3, [r3, #33]	@ zero_extendqisi2
 1465              		.loc 1 345 0
 1466 000e 82B0     		sub	sp, sp, #8
 1467              		.cfi_def_cfa_offset 24
 1468              		.loc 1 345 0
 1469 0010 0192     		str	r2, [sp, #4]
 1470              		.loc 1 348 0
 1471 0012 5A07     		lsls	r2, r3, #29
 1472 0014 08D4     		bmi	.L90
 1473              		.loc 1 349 0
 1474 0016 0A4D     		ldr	r5, .L98+8
 1475              	.LVL135:
 1476              	.L92:
 1477 0018 2846     		mov	r0, r5
 1478 001a FFF7FEFF 		bl	chSemWait
 1479              	.LVL136:
 1480              	.LBB204:
 1481              	.LBB202:
 1482              		.loc 3 233 0
ARM GAS  C:\Users\Moi\AppData\Local\Temp\ccwG6ltn.s 			page 27


 1483 001e A369     		ldr	r3, [r4, #24]
 1484              	.LBE202:
 1485              	.LBE204:
 1486              		.loc 1 348 0
 1487 0020 93F82130 		ldrb	r3, [r3, #33]	@ zero_extendqisi2
 1488 0024 5B07     		lsls	r3, r3, #29
 1489 0026 F7D5     		bpl	.L92
 1490              	.L90:
 1491              		.loc 1 350 0
 1492 0028 019A     		ldr	r2, [sp, #4]
 1493 002a 3368     		ldr	r3, [r6]
 1494 002c 9A42     		cmp	r2, r3
 1495 002e 01D1     		bne	.L97
 1496 0030 02B0     		add	sp, sp, #8
 1497              		.cfi_remember_state
 1498              		.cfi_def_cfa_offset 16
 1499              		@ sp needed
 1500 0032 70BD     		pop	{r4, r5, r6, pc}
 1501              	.L97:
 1502              		.cfi_restore_state
 1503 0034 FFF7FEFF 		bl	__stack_chk_fail
 1504              	.LVL137:
 1505              	.L99:
 1506              		.align	2
 1507              	.L98:
 1508 0038 00000000 		.word	ch
 1509 003c 00000000 		.word	__stack_chk_guard
 1510 0040 00000000 		.word	.LANCHOR0
 1511              		.cfi_endproc
 1512              	.LFE229:
 1513              		.size	thread3, .-thread3
 1514              		.section	.text.bmk7_setup,"ax",%progbits
 1515              		.align	1
 1516              		.p2align 4,,15
 1517              		.syntax unified
 1518              		.thumb
 1519              		.thumb_func
 1520              		.fpu fpv4-sp-d16
 1521              		.type	bmk7_setup, %function
 1522              	bmk7_setup:
 1523              	.LFB230:
 1524              		.loc 1 352 0
 1525              		.cfi_startproc
 1526              		@ args = 0, pretend = 0, frame = 8
 1527              		@ frame_needed = 0, uses_anonymous_args = 0
 1528 0000 00B5     		push	{lr}
 1529              		.cfi_def_cfa_offset 4
 1530              		.cfi_offset 14, -4
 1531 0002 084B     		ldr	r3, .L105
 1532 0004 83B0     		sub	sp, sp, #12
 1533              		.cfi_def_cfa_offset 16
 1534              		.loc 1 352 0
 1535 0006 1A68     		ldr	r2, [r3]
 1536 0008 0192     		str	r2, [sp, #4]
 1537              		.loc 1 354 0
 1538 000a 019A     		ldr	r2, [sp, #4]
 1539 000c 1B68     		ldr	r3, [r3]
ARM GAS  C:\Users\Moi\AppData\Local\Temp\ccwG6ltn.s 			page 28


 1540 000e 9A42     		cmp	r2, r3
 1541 0010 06D1     		bne	.L104
 1542 0012 0548     		ldr	r0, .L105+4
 1543 0014 0021     		movs	r1, #0
 1544              		.loc 1 355 0
 1545 0016 03B0     		add	sp, sp, #12
 1546              		.cfi_remember_state
 1547              		.cfi_def_cfa_offset 4
 1548              		@ sp needed
 1549 0018 5DF804EB 		ldr	lr, [sp], #4
 1550              		.cfi_restore 14
 1551              		.cfi_def_cfa_offset 0
 1552              		.loc 1 354 0
 1553 001c FFF7FEBF 		b	chSemObjectInit
 1554              	.LVL138:
 1555              	.L104:
 1556              		.cfi_restore_state
 1557 0020 FFF7FEFF 		bl	__stack_chk_fail
 1558              	.LVL139:
 1559              	.L106:
 1560              		.align	2
 1561              	.L105:
 1562 0024 00000000 		.word	__stack_chk_guard
 1563 0028 00000000 		.word	.LANCHOR0
 1564              		.cfi_endproc
 1565              	.LFE230:
 1566              		.size	bmk7_setup, .-bmk7_setup
 1567              		.section	.text.bmk11_setup,"ax",%progbits
 1568              		.align	1
 1569              		.p2align 4,,15
 1570              		.syntax unified
 1571              		.thumb
 1572              		.thumb_func
 1573              		.fpu fpv4-sp-d16
 1574              		.type	bmk11_setup, %function
 1575              	bmk11_setup:
 1576              	.LFB237:
 1577              		.loc 1 548 0
 1578              		.cfi_startproc
 1579              		@ args = 0, pretend = 0, frame = 8
 1580              		@ frame_needed = 0, uses_anonymous_args = 0
 1581 0000 00B5     		push	{lr}
 1582              		.cfi_def_cfa_offset 4
 1583              		.cfi_offset 14, -4
 1584 0002 084B     		ldr	r3, .L112
 1585 0004 83B0     		sub	sp, sp, #12
 1586              		.cfi_def_cfa_offset 16
 1587              		.loc 1 548 0
 1588 0006 1A68     		ldr	r2, [r3]
 1589 0008 0192     		str	r2, [sp, #4]
 1590              		.loc 1 550 0
 1591 000a 019A     		ldr	r2, [sp, #4]
 1592 000c 1B68     		ldr	r3, [r3]
 1593 000e 9A42     		cmp	r2, r3
 1594 0010 06D1     		bne	.L111
 1595 0012 0548     		ldr	r0, .L112+4
 1596 0014 0121     		movs	r1, #1
ARM GAS  C:\Users\Moi\AppData\Local\Temp\ccwG6ltn.s 			page 29


 1597              		.loc 1 551 0
 1598 0016 03B0     		add	sp, sp, #12
 1599              		.cfi_remember_state
 1600              		.cfi_def_cfa_offset 4
 1601              		@ sp needed
 1602 0018 5DF804EB 		ldr	lr, [sp], #4
 1603              		.cfi_restore 14
 1604              		.cfi_def_cfa_offset 0
 1605              		.loc 1 550 0
 1606 001c FFF7FEBF 		b	chSemObjectInit
 1607              	.LVL140:
 1608              	.L111:
 1609              		.cfi_restore_state
 1610 0020 FFF7FEFF 		bl	__stack_chk_fail
 1611              	.LVL141:
 1612              	.L113:
 1613              		.align	2
 1614              	.L112:
 1615 0024 00000000 		.word	__stack_chk_guard
 1616 0028 00000000 		.word	.LANCHOR0
 1617              		.cfi_endproc
 1618              	.LFE237:
 1619              		.size	bmk11_setup, .-bmk11_setup
 1620              		.section	.text.bmk8_execute,"ax",%progbits
 1621              		.align	1
 1622              		.p2align 4,,15
 1623              		.syntax unified
 1624              		.thumb
 1625              		.thumb_func
 1626              		.fpu fpv4-sp-d16
 1627              		.type	bmk8_execute, %function
 1628              	bmk8_execute:
 1629              	.LFB233:
 1630              		.loc 1 419 0
 1631              		.cfi_startproc
 1632              		@ args = 0, pretend = 0, frame = 8
 1633              		@ frame_needed = 0, uses_anonymous_args = 0
 1634 0000 2DE9F041 		push	{r4, r5, r6, r7, r8, lr}
 1635              		.cfi_def_cfa_offset 24
 1636              		.cfi_offset 4, -24
 1637              		.cfi_offset 5, -20
 1638              		.cfi_offset 6, -16
 1639              		.cfi_offset 7, -12
 1640              		.cfi_offset 8, -8
 1641              		.cfi_offset 14, -4
 1642 0004 DFF8E080 		ldr	r8, .L118+24
 1643              	.LBB205:
 1644              	.LBB206:
 1645              	.LBB207:
 1646              	.LBB208:
 1647              		.loc 3 176 0
 1648 0008 314F     		ldr	r7, .L118
 1649              	.LBE208:
 1650              	.LBE207:
 1651              	.LBE206:
 1652              	.LBE205:
 1653              		.loc 1 419 0
ARM GAS  C:\Users\Moi\AppData\Local\Temp\ccwG6ltn.s 			page 30


 1654 000a D8F80030 		ldr	r3, [r8]
 1655              		.loc 1 425 0
 1656 000e 314E     		ldr	r6, .L118+4
 1657 0010 314D     		ldr	r5, .L118+8
 1658              		.loc 1 419 0
 1659 0012 84B0     		sub	sp, sp, #16
 1660              		.cfi_def_cfa_offset 40
 1661              		.loc 1 422 0
 1662 0014 04AC     		add	r4, sp, #16
 1663              		.loc 1 419 0
 1664 0016 0393     		str	r3, [sp, #12]
 1665              		.loc 1 422 0
 1666 0018 0023     		movs	r3, #0
 1667 001a 44F8083D 		str	r3, [r4, #-8]!
 1668              		.loc 1 423 0
 1669 001e FFF7FEFF 		bl	test_wait_tick
 1670              	.LVL142:
 1671              	.LBB210:
 1672              	.LBB209:
 1673              		.loc 3 189 0
 1674 0022 BB69     		ldr	r3, [r7, #24]
 1675              	.LBE209:
 1676              	.LBE210:
 1677              		.loc 1 425 0
 1678 0024 3068     		ldr	r0, [r6]
 1679 0026 9A68     		ldr	r2, [r3, #8]
 1680 0028 2C4B     		ldr	r3, .L118+12
 1681 002a 0094     		str	r4, [sp]
 1682 002c 013A     		subs	r2, r2, #1
 1683 002e 4FF4FC71 		mov	r1, #504
 1684 0032 FFF7FEFF 		bl	chThdCreateStatic
 1685              	.LVL143:
 1686              	.LBB211:
 1687              	.LBB212:
 1688              		.loc 3 189 0
 1689 0036 BA69     		ldr	r2, [r7, #24]
 1690              	.LBE212:
 1691              	.LBE211:
 1692              		.loc 1 426 0
 1693 0038 7368     		ldr	r3, [r6, #4]
 1694 003a 9268     		ldr	r2, [r2, #8]
 1695              		.loc 1 425 0
 1696 003c 2860     		str	r0, [r5]
 1697              		.loc 1 426 0
 1698 003e 013A     		subs	r2, r2, #1
 1699 0040 1846     		mov	r0, r3
 1700 0042 4FF4FC71 		mov	r1, #504
 1701 0046 254B     		ldr	r3, .L118+12
 1702 0048 0094     		str	r4, [sp]
 1703 004a FFF7FEFF 		bl	chThdCreateStatic
 1704              	.LVL144:
 1705              	.LBB213:
 1706              	.LBB214:
 1707              		.loc 3 189 0
 1708 004e BA69     		ldr	r2, [r7, #24]
 1709              	.LBE214:
 1710              	.LBE213:
ARM GAS  C:\Users\Moi\AppData\Local\Temp\ccwG6ltn.s 			page 31


 1711              		.loc 1 427 0
 1712 0050 B368     		ldr	r3, [r6, #8]
 1713 0052 9268     		ldr	r2, [r2, #8]
 1714              		.loc 1 426 0
 1715 0054 6860     		str	r0, [r5, #4]
 1716              		.loc 1 427 0
 1717 0056 013A     		subs	r2, r2, #1
 1718 0058 1846     		mov	r0, r3
 1719 005a 4FF4FC71 		mov	r1, #504
 1720 005e 1F4B     		ldr	r3, .L118+12
 1721 0060 0094     		str	r4, [sp]
 1722 0062 FFF7FEFF 		bl	chThdCreateStatic
 1723              	.LVL145:
 1724              	.LBB215:
 1725              	.LBB216:
 1726              		.loc 3 189 0
 1727 0066 BA69     		ldr	r2, [r7, #24]
 1728              	.LBE216:
 1729              	.LBE215:
 1730              		.loc 1 428 0
 1731 0068 F368     		ldr	r3, [r6, #12]
 1732 006a 9268     		ldr	r2, [r2, #8]
 1733              		.loc 1 427 0
 1734 006c A860     		str	r0, [r5, #8]
 1735              		.loc 1 428 0
 1736 006e 013A     		subs	r2, r2, #1
 1737 0070 1846     		mov	r0, r3
 1738 0072 4FF4FC71 		mov	r1, #504
 1739 0076 194B     		ldr	r3, .L118+12
 1740 0078 0094     		str	r4, [sp]
 1741 007a FFF7FEFF 		bl	chThdCreateStatic
 1742              	.LVL146:
 1743              	.LBB217:
 1744              	.LBB218:
 1745              		.loc 3 189 0
 1746 007e BA69     		ldr	r2, [r7, #24]
 1747              	.LBE218:
 1748              	.LBE217:
 1749              		.loc 1 429 0
 1750 0080 3369     		ldr	r3, [r6, #16]
 1751 0082 9268     		ldr	r2, [r2, #8]
 1752              		.loc 1 428 0
 1753 0084 E860     		str	r0, [r5, #12]
 1754              		.loc 1 429 0
 1755 0086 013A     		subs	r2, r2, #1
 1756 0088 4FF4FC71 		mov	r1, #504
 1757 008c 1846     		mov	r0, r3
 1758 008e 0094     		str	r4, [sp]
 1759 0090 124B     		ldr	r3, .L118+12
 1760 0092 FFF7FEFF 		bl	chThdCreateStatic
 1761              	.LVL147:
 1762 0096 2861     		str	r0, [r5, #16]
 1763              		.loc 1 431 0
 1764 0098 4FF47A70 		mov	r0, #1000
 1765 009c FFF7FEFF 		bl	chThdSleep
 1766              	.LVL148:
 1767              		.loc 1 432 0
ARM GAS  C:\Users\Moi\AppData\Local\Temp\ccwG6ltn.s 			page 32


 1768 00a0 FFF7FEFF 		bl	test_terminate_threads
 1769              	.LVL149:
 1770              		.loc 1 433 0
 1771 00a4 FFF7FEFF 		bl	test_wait_threads
 1772              	.LVL150:
 1773              		.loc 1 435 0
 1774 00a8 0D48     		ldr	r0, .L118+16
 1775 00aa FFF7FEFF 		bl	test_print
 1776              	.LVL151:
 1777              		.loc 1 436 0
 1778 00ae 0298     		ldr	r0, [sp, #8]
 1779 00b0 FFF7FEFF 		bl	test_printn
 1780              	.LVL152:
 1781              		.loc 1 437 0
 1782 00b4 0B48     		ldr	r0, .L118+20
 1783 00b6 FFF7FEFF 		bl	test_println
 1784              	.LVL153:
 1785              		.loc 1 438 0
 1786 00ba 039A     		ldr	r2, [sp, #12]
 1787 00bc D8F80030 		ldr	r3, [r8]
 1788 00c0 9A42     		cmp	r2, r3
 1789 00c2 02D1     		bne	.L117
 1790 00c4 04B0     		add	sp, sp, #16
 1791              		.cfi_remember_state
 1792              		.cfi_def_cfa_offset 24
 1793              		@ sp needed
 1794 00c6 BDE8F081 		pop	{r4, r5, r6, r7, r8, pc}
 1795              	.L117:
 1796              		.cfi_restore_state
 1797 00ca FFF7FEFF 		bl	__stack_chk_fail
 1798              	.LVL154:
 1799              	.L119:
 1800 00ce 00BF     		.align	2
 1801              	.L118:
 1802 00d0 00000000 		.word	ch
 1803 00d4 00000000 		.word	wa
 1804 00d8 00000000 		.word	threads
 1805 00dc 00000000 		.word	thread8
 1806 00e0 00000000 		.word	.LC11
 1807 00e4 0C000000 		.word	.LC14
 1808 00e8 00000000 		.word	__stack_chk_guard
 1809              		.cfi_endproc
 1810              	.LFE233:
 1811              		.size	bmk8_execute, .-bmk8_execute
 1812              		.section	.text.thread8,"ax",%progbits
 1813              		.align	1
 1814              		.p2align 4,,15
 1815              		.syntax unified
 1816              		.thumb
 1817              		.thumb_func
 1818              		.fpu fpv4-sp-d16
 1819              		.type	thread8, %function
 1820              	thread8:
 1821              	.LFB232:
 1822              		.loc 1 405 0
 1823              		.cfi_startproc
 1824              		@ args = 0, pretend = 0, frame = 8
ARM GAS  C:\Users\Moi\AppData\Local\Temp\ccwG6ltn.s 			page 33


 1825              		@ frame_needed = 0, uses_anonymous_args = 0
 1826              	.LVL155:
 1827 0000 70B5     		push	{r4, r5, r6, lr}
 1828              		.cfi_def_cfa_offset 16
 1829              		.cfi_offset 4, -16
 1830              		.cfi_offset 5, -12
 1831              		.cfi_offset 6, -8
 1832              		.cfi_offset 14, -4
 1833 0002 0F4E     		ldr	r6, .L127
 1834 0004 0F4D     		ldr	r5, .L127+4
 1835 0006 3368     		ldr	r3, [r6]
 1836 0008 82B0     		sub	sp, sp, #8
 1837              		.cfi_def_cfa_offset 24
 1838              		.loc 1 405 0
 1839 000a 0446     		mov	r4, r0
 1840 000c 0193     		str	r3, [sp, #4]
 1841              	.LVL156:
 1842              	.L121:
 1843              		.loc 1 408 0 discriminator 1
 1844 000e FFF7FEFF 		bl	chThdYield
 1845              	.LVL157:
 1846              		.loc 1 409 0 discriminator 1
 1847 0012 FFF7FEFF 		bl	chThdYield
 1848              	.LVL158:
 1849              		.loc 1 410 0 discriminator 1
 1850 0016 FFF7FEFF 		bl	chThdYield
 1851              	.LVL159:
 1852              		.loc 1 411 0 discriminator 1
 1853 001a FFF7FEFF 		bl	chThdYield
 1854              	.LVL160:
 1855              		.loc 1 412 0 discriminator 1
 1856 001e 2368     		ldr	r3, [r4]
 1857              	.LBB219:
 1858              	.LBB220:
 1859              		.loc 3 233 0 discriminator 1
 1860 0020 AA69     		ldr	r2, [r5, #24]
 1861              	.LBE220:
 1862              	.LBE219:
 1863              		.loc 1 412 0 discriminator 1
 1864 0022 0433     		adds	r3, r3, #4
 1865 0024 2360     		str	r3, [r4]
 1866              		.loc 1 416 0 discriminator 1
 1867 0026 92F82130 		ldrb	r3, [r2, #33]	@ zero_extendqisi2
 1868 002a 5B07     		lsls	r3, r3, #29
 1869 002c EFD5     		bpl	.L121
 1870              		.loc 1 417 0
 1871 002e 019A     		ldr	r2, [sp, #4]
 1872 0030 3368     		ldr	r3, [r6]
 1873 0032 9A42     		cmp	r2, r3
 1874 0034 01D1     		bne	.L126
 1875 0036 02B0     		add	sp, sp, #8
 1876              		.cfi_remember_state
 1877              		.cfi_def_cfa_offset 16
 1878              		@ sp needed
 1879 0038 70BD     		pop	{r4, r5, r6, pc}
 1880              	.LVL161:
 1881              	.L126:
ARM GAS  C:\Users\Moi\AppData\Local\Temp\ccwG6ltn.s 			page 34


 1882              		.cfi_restore_state
 1883 003a FFF7FEFF 		bl	__stack_chk_fail
 1884              	.LVL162:
 1885              	.L128:
 1886 003e 00BF     		.align	2
 1887              	.L127:
 1888 0040 00000000 		.word	__stack_chk_guard
 1889 0044 00000000 		.word	ch
 1890              		.cfi_endproc
 1891              	.LFE232:
 1892              		.size	thread8, .-thread8
 1893              		.section	.text.bmk11_execute,"ax",%progbits
 1894              		.align	1
 1895              		.p2align 4,,15
 1896              		.syntax unified
 1897              		.thumb
 1898              		.thumb_func
 1899              		.fpu fpv4-sp-d16
 1900              		.type	bmk11_execute, %function
 1901              	bmk11_execute:
 1902              	.LFB238:
 1903              		.loc 1 553 0
 1904              		.cfi_startproc
 1905              		@ args = 0, pretend = 0, frame = 8
 1906              		@ frame_needed = 0, uses_anonymous_args = 0
 1907 0000 F0B5     		push	{r4, r5, r6, r7, lr}
 1908              		.cfi_def_cfa_offset 20
 1909              		.cfi_offset 4, -20
 1910              		.cfi_offset 5, -16
 1911              		.cfi_offset 6, -12
 1912              		.cfi_offset 7, -8
 1913              		.cfi_offset 14, -4
 1914 0002 1D4F     		ldr	r7, .L137
 1915 0004 1D4E     		ldr	r6, .L137+4
 1916 0006 3B68     		ldr	r3, [r7]
 1917              		.loc 1 559 0
 1918 0008 1D4C     		ldr	r4, .L137+8
 1919              		.loc 1 553 0
 1920 000a 83B0     		sub	sp, sp, #12
 1921              		.cfi_def_cfa_offset 32
 1922              		.loc 1 554 0
 1923 000c 0025     		movs	r5, #0
 1924              		.loc 1 553 0
 1925 000e 0193     		str	r3, [sp, #4]
 1926              	.LVL163:
 1927              		.loc 1 556 0
 1928 0010 FFF7FEFF 		bl	test_wait_tick
 1929              	.LVL164:
 1930              		.loc 1 557 0
 1931 0014 4FF47A70 		mov	r0, #1000
 1932 0018 FFF7FEFF 		bl	test_start_timer
 1933              	.LVL165:
 1934              	.L130:
 1935              		.loc 1 559 0 discriminator 1
 1936 001c 2046     		mov	r0, r4
 1937 001e FFF7FEFF 		bl	chSemWait
 1938              	.LVL166:
ARM GAS  C:\Users\Moi\AppData\Local\Temp\ccwG6ltn.s 			page 35


 1939              		.loc 1 560 0 discriminator 1
 1940 0022 2046     		mov	r0, r4
 1941 0024 FFF7FEFF 		bl	chSemSignal
 1942              	.LVL167:
 1943              		.loc 1 561 0 discriminator 1
 1944 0028 2046     		mov	r0, r4
 1945 002a FFF7FEFF 		bl	chSemWait
 1946              	.LVL168:
 1947              		.loc 1 562 0 discriminator 1
 1948 002e 2046     		mov	r0, r4
 1949 0030 FFF7FEFF 		bl	chSemSignal
 1950              	.LVL169:
 1951              		.loc 1 563 0 discriminator 1
 1952 0034 2046     		mov	r0, r4
 1953 0036 FFF7FEFF 		bl	chSemWait
 1954              	.LVL170:
 1955              		.loc 1 564 0 discriminator 1
 1956 003a 2046     		mov	r0, r4
 1957 003c FFF7FEFF 		bl	chSemSignal
 1958              	.LVL171:
 1959              		.loc 1 565 0 discriminator 1
 1960 0040 2046     		mov	r0, r4
 1961 0042 FFF7FEFF 		bl	chSemWait
 1962              	.LVL172:
 1963              		.loc 1 566 0 discriminator 1
 1964 0046 2046     		mov	r0, r4
 1965 0048 FFF7FEFF 		bl	chSemSignal
 1966              	.LVL173:
 1967              		.loc 1 571 0 discriminator 1
 1968 004c 3378     		ldrb	r3, [r6]	@ zero_extendqisi2
 1969              		.loc 1 567 0 discriminator 1
 1970 004e 0135     		adds	r5, r5, #1
 1971              	.LVL174:
 1972              		.loc 1 571 0 discriminator 1
 1973 0050 002B     		cmp	r3, #0
 1974 0052 E3D0     		beq	.L130
 1975              		.loc 1 572 0
 1976 0054 0B48     		ldr	r0, .L137+12
 1977 0056 FFF7FEFF 		bl	test_print
 1978              	.LVL175:
 1979              		.loc 1 573 0
 1980 005a A800     		lsls	r0, r5, #2
 1981 005c FFF7FEFF 		bl	test_printn
 1982              	.LVL176:
 1983              		.loc 1 574 0
 1984 0060 019A     		ldr	r2, [sp, #4]
 1985 0062 3B68     		ldr	r3, [r7]
 1986 0064 9A42     		cmp	r2, r3
 1987 0066 05D1     		bne	.L136
 1988 0068 0748     		ldr	r0, .L137+16
 1989              		.loc 1 575 0
 1990 006a 03B0     		add	sp, sp, #12
 1991              		.cfi_remember_state
 1992              		.cfi_def_cfa_offset 20
 1993              		@ sp needed
 1994 006c BDE8F040 		pop	{r4, r5, r6, r7, lr}
 1995              		.cfi_restore 14
ARM GAS  C:\Users\Moi\AppData\Local\Temp\ccwG6ltn.s 			page 36


 1996              		.cfi_restore 7
 1997              		.cfi_restore 6
 1998              		.cfi_restore 5
 1999              		.cfi_restore 4
 2000              		.cfi_def_cfa_offset 0
 2001              	.LVL177:
 2002              		.loc 1 574 0
 2003 0070 FFF7FEBF 		b	test_println
 2004              	.LVL178:
 2005              	.L136:
 2006              		.cfi_restore_state
 2007 0074 FFF7FEFF 		bl	__stack_chk_fail
 2008              	.LVL179:
 2009              	.L138:
 2010              		.align	2
 2011              	.L137:
 2012 0078 00000000 		.word	__stack_chk_guard
 2013 007c 00000000 		.word	test_timer_done
 2014 0080 00000000 		.word	.LANCHOR0
 2015 0084 00000000 		.word	.LC11
 2016 0088 00000000 		.word	.LC16
 2017              		.cfi_endproc
 2018              	.LFE238:
 2019              		.size	bmk11_execute, .-bmk11_execute
 2020              		.section	.text.bmk12_execute,"ax",%progbits
 2021              		.align	1
 2022              		.p2align 4,,15
 2023              		.syntax unified
 2024              		.thumb
 2025              		.thumb_func
 2026              		.fpu fpv4-sp-d16
 2027              		.type	bmk12_execute, %function
 2028              	bmk12_execute:
 2029              	.LFB240:
 2030              		.loc 1 601 0
 2031              		.cfi_startproc
 2032              		@ args = 0, pretend = 0, frame = 8
 2033              		@ frame_needed = 0, uses_anonymous_args = 0
 2034 0000 F0B5     		push	{r4, r5, r6, r7, lr}
 2035              		.cfi_def_cfa_offset 20
 2036              		.cfi_offset 4, -20
 2037              		.cfi_offset 5, -16
 2038              		.cfi_offset 6, -12
 2039              		.cfi_offset 7, -8
 2040              		.cfi_offset 14, -4
 2041 0002 1D4F     		ldr	r7, .L147
 2042 0004 1D4E     		ldr	r6, .L147+4
 2043 0006 3B68     		ldr	r3, [r7]
 2044              		.loc 1 607 0
 2045 0008 1D4C     		ldr	r4, .L147+8
 2046              		.loc 1 601 0
 2047 000a 83B0     		sub	sp, sp, #12
 2048              		.cfi_def_cfa_offset 32
 2049              		.loc 1 602 0
 2050 000c 0025     		movs	r5, #0
 2051              		.loc 1 601 0
 2052 000e 0193     		str	r3, [sp, #4]
ARM GAS  C:\Users\Moi\AppData\Local\Temp\ccwG6ltn.s 			page 37


 2053              	.LVL180:
 2054              		.loc 1 604 0
 2055 0010 FFF7FEFF 		bl	test_wait_tick
 2056              	.LVL181:
 2057              		.loc 1 605 0
 2058 0014 4FF47A70 		mov	r0, #1000
 2059 0018 FFF7FEFF 		bl	test_start_timer
 2060              	.LVL182:
 2061              	.L140:
 2062              		.loc 1 607 0 discriminator 1
 2063 001c 2046     		mov	r0, r4
 2064 001e FFF7FEFF 		bl	chMtxLock
 2065              	.LVL183:
 2066              		.loc 1 608 0 discriminator 1
 2067 0022 2046     		mov	r0, r4
 2068 0024 FFF7FEFF 		bl	chMtxUnlock
 2069              	.LVL184:
 2070              		.loc 1 609 0 discriminator 1
 2071 0028 2046     		mov	r0, r4
 2072 002a FFF7FEFF 		bl	chMtxLock
 2073              	.LVL185:
 2074              		.loc 1 610 0 discriminator 1
 2075 002e 2046     		mov	r0, r4
 2076 0030 FFF7FEFF 		bl	chMtxUnlock
 2077              	.LVL186:
 2078              		.loc 1 611 0 discriminator 1
 2079 0034 2046     		mov	r0, r4
 2080 0036 FFF7FEFF 		bl	chMtxLock
 2081              	.LVL187:
 2082              		.loc 1 612 0 discriminator 1
 2083 003a 2046     		mov	r0, r4
 2084 003c FFF7FEFF 		bl	chMtxUnlock
 2085              	.LVL188:
 2086              		.loc 1 613 0 discriminator 1
 2087 0040 2046     		mov	r0, r4
 2088 0042 FFF7FEFF 		bl	chMtxLock
 2089              	.LVL189:
 2090              		.loc 1 614 0 discriminator 1
 2091 0046 2046     		mov	r0, r4
 2092 0048 FFF7FEFF 		bl	chMtxUnlock
 2093              	.LVL190:
 2094              		.loc 1 619 0 discriminator 1
 2095 004c 3378     		ldrb	r3, [r6]	@ zero_extendqisi2
 2096              		.loc 1 615 0 discriminator 1
 2097 004e 0135     		adds	r5, r5, #1
 2098              	.LVL191:
 2099              		.loc 1 619 0 discriminator 1
 2100 0050 002B     		cmp	r3, #0
 2101 0052 E3D0     		beq	.L140
 2102              		.loc 1 620 0
 2103 0054 0B48     		ldr	r0, .L147+12
 2104 0056 FFF7FEFF 		bl	test_print
 2105              	.LVL192:
 2106              		.loc 1 621 0
 2107 005a A800     		lsls	r0, r5, #2
 2108 005c FFF7FEFF 		bl	test_printn
 2109              	.LVL193:
ARM GAS  C:\Users\Moi\AppData\Local\Temp\ccwG6ltn.s 			page 38


 2110              		.loc 1 622 0
 2111 0060 019A     		ldr	r2, [sp, #4]
 2112 0062 3B68     		ldr	r3, [r7]
 2113 0064 9A42     		cmp	r2, r3
 2114 0066 05D1     		bne	.L146
 2115 0068 0748     		ldr	r0, .L147+16
 2116              		.loc 1 623 0
 2117 006a 03B0     		add	sp, sp, #12
 2118              		.cfi_remember_state
 2119              		.cfi_def_cfa_offset 20
 2120              		@ sp needed
 2121 006c BDE8F040 		pop	{r4, r5, r6, r7, lr}
 2122              		.cfi_restore 14
 2123              		.cfi_restore 7
 2124              		.cfi_restore 6
 2125              		.cfi_restore 5
 2126              		.cfi_restore 4
 2127              		.cfi_def_cfa_offset 0
 2128              	.LVL194:
 2129              		.loc 1 622 0
 2130 0070 FFF7FEBF 		b	test_println
 2131              	.LVL195:
 2132              	.L146:
 2133              		.cfi_restore_state
 2134 0074 FFF7FEFF 		bl	__stack_chk_fail
 2135              	.LVL196:
 2136              	.L148:
 2137              		.align	2
 2138              	.L147:
 2139 0078 00000000 		.word	__stack_chk_guard
 2140 007c 00000000 		.word	test_timer_done
 2141 0080 00000000 		.word	.LANCHOR1
 2142 0084 00000000 		.word	.LC11
 2143 0088 00000000 		.word	.LC17
 2144              		.cfi_endproc
 2145              	.LFE240:
 2146              		.size	bmk12_execute, .-bmk12_execute
 2147              		.section	.text.bmk12_setup,"ax",%progbits
 2148              		.align	1
 2149              		.p2align 4,,15
 2150              		.syntax unified
 2151              		.thumb
 2152              		.thumb_func
 2153              		.fpu fpv4-sp-d16
 2154              		.type	bmk12_setup, %function
 2155              	bmk12_setup:
 2156              	.LFB239:
 2157              		.loc 1 596 0
 2158              		.cfi_startproc
 2159              		@ args = 0, pretend = 0, frame = 8
 2160              		@ frame_needed = 0, uses_anonymous_args = 0
 2161 0000 00B5     		push	{lr}
 2162              		.cfi_def_cfa_offset 4
 2163              		.cfi_offset 14, -4
 2164 0002 084B     		ldr	r3, .L154
 2165 0004 83B0     		sub	sp, sp, #12
 2166              		.cfi_def_cfa_offset 16
ARM GAS  C:\Users\Moi\AppData\Local\Temp\ccwG6ltn.s 			page 39


 2167              		.loc 1 596 0
 2168 0006 1A68     		ldr	r2, [r3]
 2169 0008 0192     		str	r2, [sp, #4]
 2170              		.loc 1 598 0
 2171 000a 019A     		ldr	r2, [sp, #4]
 2172 000c 1B68     		ldr	r3, [r3]
 2173 000e 9A42     		cmp	r2, r3
 2174 0010 05D1     		bne	.L153
 2175 0012 0548     		ldr	r0, .L154+4
 2176              		.loc 1 599 0
 2177 0014 03B0     		add	sp, sp, #12
 2178              		.cfi_remember_state
 2179              		.cfi_def_cfa_offset 4
 2180              		@ sp needed
 2181 0016 5DF804EB 		ldr	lr, [sp], #4
 2182              		.cfi_restore 14
 2183              		.cfi_def_cfa_offset 0
 2184              		.loc 1 598 0
 2185 001a FFF7FEBF 		b	chMtxObjectInit
 2186              	.LVL197:
 2187              	.L153:
 2188              		.cfi_restore_state
 2189 001e FFF7FEFF 		bl	__stack_chk_fail
 2190              	.LVL198:
 2191              	.L155:
 2192 0022 00BF     		.align	2
 2193              	.L154:
 2194 0024 00000000 		.word	__stack_chk_guard
 2195 0028 00000000 		.word	.LANCHOR1
 2196              		.cfi_endproc
 2197              	.LFE239:
 2198              		.size	bmk12_setup, .-bmk12_setup
 2199              		.section	.text.bmk10_execute,"ax",%progbits
 2200              		.align	1
 2201              		.p2align 4,,15
 2202              		.syntax unified
 2203              		.thumb
 2204              		.thumb_func
 2205              		.fpu fpv4-sp-d16
 2206              		.type	bmk10_execute, %function
 2207              	bmk10_execute:
 2208              	.LFB236:
 2209              		.loc 1 507 0
 2210              		.cfi_startproc
 2211              		@ args = 0, pretend = 0, frame = 8
 2212              		@ frame_needed = 0, uses_anonymous_args = 0
 2213 0000 2DE9F04F 		push	{r4, r5, r6, r7, r8, r9, r10, fp, lr}
 2214              		.cfi_def_cfa_offset 36
 2215              		.cfi_offset 4, -36
 2216              		.cfi_offset 5, -32
 2217              		.cfi_offset 6, -28
 2218              		.cfi_offset 7, -24
 2219              		.cfi_offset 8, -20
 2220              		.cfi_offset 9, -16
 2221              		.cfi_offset 10, -12
 2222              		.cfi_offset 11, -8
 2223              		.cfi_offset 14, -4
ARM GAS  C:\Users\Moi\AppData\Local\Temp\ccwG6ltn.s 			page 40


 2224 0004 2B4B     		ldr	r3, .L165
 2225 0006 2C4C     		ldr	r4, .L165+4
 2226 0008 1B68     		ldr	r3, [r3]
 2227 000a DFF8C4B0 		ldr	fp, .L165+28
 2228              		.loc 1 515 0
 2229 000e DFF8C480 		ldr	r8, .L165+32
 2230 0012 2A4F     		ldr	r7, .L165+8
 2231              		.loc 1 516 0
 2232 0014 2A4E     		ldr	r6, .L165+12
 2233              		.loc 1 507 0
 2234 0016 83B0     		sub	sp, sp, #12
 2235              		.cfi_def_cfa_offset 48
 2236              		.loc 1 509 0
 2237 0018 0025     		movs	r5, #0
 2238              		.loc 1 507 0
 2239 001a 0193     		str	r3, [sp, #4]
 2240              	.LVL199:
 2241              		.loc 1 511 0
 2242 001c FFF7FEFF 		bl	test_wait_tick
 2243              	.LVL200:
 2244              		.loc 1 512 0
 2245 0020 4FF47A70 		mov	r0, #1000
 2246 0024 FFF7FEFF 		bl	test_start_timer
 2247              	.LVL201:
 2248              		.loc 1 515 0
 2249 0028 AA46     		mov	r10, r5
 2250              	.LBB231:
 2251              	.LBB232:
 2252              	.LBB233:
 2253              	.LBB234:
 2254              	.LBB235:
 2255              		.file 4 "..//ChibiOS//os/ext/CMSIS/include/core_cmFunc.h"
 2256              		.loc 4 546 0
 2257 002a 4FF02009 		mov	r9, #32
 2258              	.LVL202:
 2259              	.L158:
 2260              		.loc 4 546 0 is_stmt 0 discriminator 1
 2261              		.syntax unified
 2262              	@ 546 "..//ChibiOS//os/ext/CMSIS/include/core_cmFunc.h" 1
 2263 002e 89F31188 		MSR basepri, r9
 2264              	@ 0 "" 2
 2265              	.LVL203:
 2266              		.thumb
 2267              		.syntax unified
 2268              	.LBE235:
 2269              	.LBE234:
 2270              	.LBE233:
 2271              		.file 5 "..//ChibiOS//os/rt/include/chsys.h"
 2272              		.loc 5 349 0 is_stmt 1 discriminator 1
 2273 0032 FFF7FEFF 		bl	_stats_start_measure_crit_thd
 2274              	.LVL204:
 2275              		.loc 5 350 0 discriminator 1
 2276 0036 FFF7FEFF 		bl	_dbg_check_lock
 2277              	.LVL205:
 2278              	.LBE232:
 2279              	.LBE231:
 2280              		.loc 1 515 0 discriminator 1
ARM GAS  C:\Users\Moi\AppData\Local\Temp\ccwG6ltn.s 			page 41


 2281 003a 4246     		mov	r2, r8
 2282 003c 3846     		mov	r0, r7
 2283 003e 0023     		movs	r3, #0
 2284 0040 0121     		movs	r1, #1
 2285 0042 FFF7FEFF 		bl	chVTDoSetI
 2286              	.LVL206:
 2287              		.loc 1 516 0 discriminator 1
 2288 0046 0023     		movs	r3, #0
 2289 0048 4246     		mov	r2, r8
 2290 004a 42F21071 		movw	r1, #10000
 2291 004e 3046     		mov	r0, r6
 2292 0050 FFF7FEFF 		bl	chVTDoSetI
 2293              	.LVL207:
 2294              		.loc 1 517 0 discriminator 1
 2295 0054 3846     		mov	r0, r7
 2296 0056 FFF7FEFF 		bl	chVTDoResetI
 2297              	.LVL208:
 2298              		.loc 1 518 0 discriminator 1
 2299 005a 3046     		mov	r0, r6
 2300 005c FFF7FEFF 		bl	chVTDoResetI
 2301              	.LVL209:
 2302              	.LBB236:
 2303              	.LBB237:
 2304              		.loc 5 360 0 discriminator 1
 2305 0060 FFF7FEFF 		bl	_dbg_check_unlock
 2306              	.LVL210:
 2307              		.loc 5 361 0 discriminator 1
 2308 0064 FFF7FEFF 		bl	_stats_stop_measure_crit_thd
 2309              	.LVL211:
 2310              		.loc 5 367 0 discriminator 1
 2311 0068 2368     		ldr	r3, [r4]
 2312 006a A342     		cmp	r3, r4
 2313 006c 07D0     		beq	.L157
 2314              		.loc 5 367 0 is_stmt 0
 2315 006e A269     		ldr	r2, [r4, #24]
 2316 0070 9B68     		ldr	r3, [r3, #8]
 2317 0072 9268     		ldr	r2, [r2, #8]
 2318 0074 9A42     		cmp	r2, r3
 2319 0076 02D2     		bcs	.L157
 2320 0078 1248     		ldr	r0, .L165+16
 2321 007a FFF7FEFF 		bl	chSysHalt
 2322              	.LVL212:
 2323              	.L157:
 2324              	.LBB238:
 2325              	.LBB239:
 2326              	.LBB240:
 2327              		.loc 4 546 0 is_stmt 1
 2328              		.syntax unified
 2329              	@ 546 "..//ChibiOS//os/ext/CMSIS/include/core_cmFunc.h" 1
 2330 007e 8AF31188 		MSR basepri, r10
 2331              	@ 0 "" 2
 2332              	.LVL213:
 2333              		.thumb
 2334              		.syntax unified
 2335              	.LBE240:
 2336              	.LBE239:
 2337              	.LBE238:
ARM GAS  C:\Users\Moi\AppData\Local\Temp\ccwG6ltn.s 			page 42


 2338              	.LBE237:
 2339              	.LBE236:
 2340              		.loc 1 524 0
 2341 0082 9BF80030 		ldrb	r3, [fp]	@ zero_extendqisi2
 2342              		.loc 1 520 0
 2343 0086 0135     		adds	r5, r5, #1
 2344              	.LVL214:
 2345              		.loc 1 524 0
 2346 0088 002B     		cmp	r3, #0
 2347 008a D0D0     		beq	.L158
 2348              		.loc 1 525 0
 2349 008c 0E48     		ldr	r0, .L165+20
 2350 008e FFF7FEFF 		bl	test_print
 2351              	.LVL215:
 2352              		.loc 1 526 0
 2353 0092 6800     		lsls	r0, r5, #1
 2354 0094 FFF7FEFF 		bl	test_printn
 2355              	.LVL216:
 2356              		.loc 1 527 0
 2357 0098 064B     		ldr	r3, .L165
 2358 009a 019A     		ldr	r2, [sp, #4]
 2359 009c 1B68     		ldr	r3, [r3]
 2360 009e 9A42     		cmp	r2, r3
 2361 00a0 05D1     		bne	.L164
 2362 00a2 0A48     		ldr	r0, .L165+24
 2363              		.loc 1 528 0
 2364 00a4 03B0     		add	sp, sp, #12
 2365              		.cfi_remember_state
 2366              		.cfi_def_cfa_offset 36
 2367              		@ sp needed
 2368 00a6 BDE8F04F 		pop	{r4, r5, r6, r7, r8, r9, r10, fp, lr}
 2369              		.cfi_restore 14
 2370              		.cfi_restore 11
 2371              		.cfi_restore 10
 2372              		.cfi_restore 9
 2373              		.cfi_restore 8
 2374              		.cfi_restore 7
 2375              		.cfi_restore 6
 2376              		.cfi_restore 5
 2377              		.cfi_restore 4
 2378              		.cfi_def_cfa_offset 0
 2379              	.LVL217:
 2380              		.loc 1 527 0
 2381 00aa FFF7FEBF 		b	test_println
 2382              	.LVL218:
 2383              	.L164:
 2384              		.cfi_restore_state
 2385 00ae FFF7FEFF 		bl	__stack_chk_fail
 2386              	.LVL219:
 2387              	.L166:
 2388 00b2 00BF     		.align	2
 2389              	.L165:
 2390 00b4 00000000 		.word	__stack_chk_guard
 2391 00b8 00000000 		.word	ch
 2392 00bc 00000000 		.word	.LANCHOR2
 2393 00c0 00000000 		.word	.LANCHOR3
 2394 00c4 00000000 		.word	.LANCHOR4
ARM GAS  C:\Users\Moi\AppData\Local\Temp\ccwG6ltn.s 			page 43


 2395 00c8 00000000 		.word	.LC11
 2396 00cc 00000000 		.word	.LC18
 2397 00d0 00000000 		.word	test_timer_done
 2398 00d4 00000000 		.word	tmo
 2399              		.cfi_endproc
 2400              	.LFE236:
 2401              		.size	bmk10_execute, .-bmk10_execute
 2402              		.section	.text.bmk9_execute,"ax",%progbits
 2403              		.align	1
 2404              		.p2align 4,,15
 2405              		.syntax unified
 2406              		.thumb
 2407              		.thumb_func
 2408              		.fpu fpv4-sp-d16
 2409              		.type	bmk9_execute, %function
 2410              	bmk9_execute:
 2411              	.LFB234:
 2412              		.loc 1 458 0
 2413              		.cfi_startproc
 2414              		@ args = 0, pretend = 0, frame = 8
 2415              		@ frame_needed = 0, uses_anonymous_args = 0
 2416 0000 2DE9F043 		push	{r4, r5, r6, r7, r8, r9, lr}
 2417              		.cfi_def_cfa_offset 28
 2418              		.cfi_offset 4, -28
 2419              		.cfi_offset 5, -24
 2420              		.cfi_offset 6, -20
 2421              		.cfi_offset 7, -16
 2422              		.cfi_offset 8, -12
 2423              		.cfi_offset 9, -8
 2424              		.cfi_offset 14, -4
 2425 0004 DFF8F090 		ldr	r9, .L176+24
 2426              		.loc 1 463 0
 2427 0008 3549     		ldr	r1, .L176
 2428              		.loc 1 458 0
 2429 000a D9F80030 		ldr	r3, [r9]
 2430              		.loc 1 463 0
 2431 000e 3548     		ldr	r0, .L176+4
 2432 0010 354E     		ldr	r6, .L176+8
 2433 0012 DFF8E880 		ldr	r8, .L176+28
 2434              		.loc 1 469 0
 2435 0016 334C     		ldr	r4, .L176+4
 2436              		.loc 1 458 0
 2437 0018 85B0     		sub	sp, sp, #20
 2438              		.cfi_def_cfa_offset 48
 2439              		.loc 1 463 0
 2440 001a 0025     		movs	r5, #0
 2441 001c 1022     		movs	r2, #16
 2442              		.loc 1 458 0
 2443 001e 0393     		str	r3, [sp, #12]
 2444              		.loc 1 463 0
 2445 0020 0095     		str	r5, [sp]
 2446 0022 2B46     		mov	r3, r5
 2447 0024 FFF7FEFF 		bl	chIQObjectInit
 2448              	.LVL220:
 2449              		.loc 1 465 0
 2450 0028 FFF7FEFF 		bl	test_wait_tick
 2451              	.LVL221:
ARM GAS  C:\Users\Moi\AppData\Local\Temp\ccwG6ltn.s 			page 44


 2452              		.loc 1 466 0
 2453 002c 4FF47A70 		mov	r0, #1000
 2454 0030 FFF7FEFF 		bl	test_start_timer
 2455              	.LVL222:
 2456              		.loc 1 469 0
 2457 0034 2F46     		mov	r7, r5
 2458              	.LVL223:
 2459              	.L169:
 2460              	.LBB259:
 2461              	.LBB260:
 2462              	.LBB261:
 2463              	.LBB262:
 2464              	.LBB263:
 2465              		.loc 4 546 0 discriminator 1
 2466 0036 2023     		movs	r3, #32
 2467              		.syntax unified
 2468              	@ 546 "..//ChibiOS//os/ext/CMSIS/include/core_cmFunc.h" 1
 2469 0038 83F31188 		MSR basepri, r3
 2470              	@ 0 "" 2
 2471              	.LVL224:
 2472              		.thumb
 2473              		.syntax unified
 2474              	.LBE263:
 2475              	.LBE262:
 2476              	.LBE261:
 2477              		.loc 5 349 0 discriminator 1
 2478 003c FFF7FEFF 		bl	_stats_start_measure_crit_thd
 2479              	.LVL225:
 2480              		.loc 5 350 0 discriminator 1
 2481 0040 FFF7FEFF 		bl	_dbg_check_lock
 2482              	.LVL226:
 2483              	.LBE260:
 2484              	.LBE259:
 2485              		.loc 1 469 0 discriminator 1
 2486 0044 0021     		movs	r1, #0
 2487 0046 2046     		mov	r0, r4
 2488 0048 FFF7FEFF 		bl	chIQPutI
 2489              	.LVL227:
 2490              		.loc 1 470 0 discriminator 1
 2491 004c 0121     		movs	r1, #1
 2492 004e 2046     		mov	r0, r4
 2493 0050 FFF7FEFF 		bl	chIQPutI
 2494              	.LVL228:
 2495              		.loc 1 471 0 discriminator 1
 2496 0054 0221     		movs	r1, #2
 2497 0056 2046     		mov	r0, r4
 2498 0058 FFF7FEFF 		bl	chIQPutI
 2499              	.LVL229:
 2500              		.loc 1 472 0 discriminator 1
 2501 005c 0321     		movs	r1, #3
 2502 005e 2046     		mov	r0, r4
 2503 0060 FFF7FEFF 		bl	chIQPutI
 2504              	.LVL230:
 2505              	.LBB264:
 2506              	.LBB265:
 2507              		.loc 5 360 0 discriminator 1
 2508 0064 FFF7FEFF 		bl	_dbg_check_unlock
ARM GAS  C:\Users\Moi\AppData\Local\Temp\ccwG6ltn.s 			page 45


 2509              	.LVL231:
 2510              		.loc 5 361 0 discriminator 1
 2511 0068 FFF7FEFF 		bl	_stats_stop_measure_crit_thd
 2512              	.LVL232:
 2513              		.loc 5 367 0 discriminator 1
 2514 006c 3368     		ldr	r3, [r6]
 2515 006e B342     		cmp	r3, r6
 2516 0070 07D0     		beq	.L168
 2517              		.loc 5 367 0 is_stmt 0
 2518 0072 B269     		ldr	r2, [r6, #24]
 2519 0074 9B68     		ldr	r3, [r3, #8]
 2520 0076 9268     		ldr	r2, [r2, #8]
 2521 0078 9A42     		cmp	r2, r3
 2522 007a 02D2     		bcs	.L168
 2523 007c 1B48     		ldr	r0, .L176+12
 2524 007e FFF7FEFF 		bl	chSysHalt
 2525              	.LVL233:
 2526              	.L168:
 2527              	.LBB266:
 2528              	.LBB267:
 2529              	.LBB268:
 2530              		.loc 4 546 0 is_stmt 1
 2531              		.syntax unified
 2532              	@ 546 "..//ChibiOS//os/ext/CMSIS/include/core_cmFunc.h" 1
 2533 0082 87F31188 		MSR basepri, r7
 2534              	@ 0 "" 2
 2535              	.LVL234:
 2536              		.thumb
 2537              		.syntax unified
 2538              	.LBE268:
 2539              	.LBE267:
 2540              	.LBE266:
 2541              	.LBE265:
 2542              	.LBE264:
 2543              	.LBB269:
 2544              	.LBB270:
 2545              		.file 6 "..//ChibiOS//os/rt/include/chqueues.h"
 2546              		.loc 6 341 0
 2547 0086 4FF0FF31 		mov	r1, #-1
 2548 008a 2046     		mov	r0, r4
 2549 008c FFF7FEFF 		bl	chIQGetTimeout
 2550              	.LVL235:
 2551              	.LBE270:
 2552              	.LBE269:
 2553              	.LBB271:
 2554              	.LBB272:
 2555 0090 4FF0FF31 		mov	r1, #-1
 2556 0094 2046     		mov	r0, r4
 2557 0096 FFF7FEFF 		bl	chIQGetTimeout
 2558              	.LVL236:
 2559              	.LBE272:
 2560              	.LBE271:
 2561              	.LBB273:
 2562              	.LBB274:
 2563 009a 4FF0FF31 		mov	r1, #-1
 2564 009e 2046     		mov	r0, r4
 2565 00a0 FFF7FEFF 		bl	chIQGetTimeout
ARM GAS  C:\Users\Moi\AppData\Local\Temp\ccwG6ltn.s 			page 46


 2566              	.LVL237:
 2567              	.LBE274:
 2568              	.LBE273:
 2569              	.LBB275:
 2570              	.LBB276:
 2571 00a4 2046     		mov	r0, r4
 2572 00a6 4FF0FF31 		mov	r1, #-1
 2573 00aa FFF7FEFF 		bl	chIQGetTimeout
 2574              	.LVL238:
 2575              	.LBE276:
 2576              	.LBE275:
 2577              		.loc 1 482 0
 2578 00ae 98F80030 		ldrb	r3, [r8]	@ zero_extendqisi2
 2579              		.loc 1 478 0
 2580 00b2 0135     		adds	r5, r5, #1
 2581              	.LVL239:
 2582              		.loc 1 482 0
 2583 00b4 002B     		cmp	r3, #0
 2584 00b6 BED0     		beq	.L169
 2585              		.loc 1 483 0
 2586 00b8 0D48     		ldr	r0, .L176+16
 2587 00ba FFF7FEFF 		bl	test_print
 2588              	.LVL240:
 2589              		.loc 1 484 0
 2590 00be A800     		lsls	r0, r5, #2
 2591 00c0 FFF7FEFF 		bl	test_printn
 2592              	.LVL241:
 2593              		.loc 1 485 0
 2594 00c4 039A     		ldr	r2, [sp, #12]
 2595 00c6 D9F80030 		ldr	r3, [r9]
 2596 00ca 9A42     		cmp	r2, r3
 2597 00cc 05D1     		bne	.L175
 2598 00ce 0948     		ldr	r0, .L176+20
 2599              		.loc 1 486 0
 2600 00d0 05B0     		add	sp, sp, #20
 2601              		.cfi_remember_state
 2602              		.cfi_def_cfa_offset 28
 2603              		@ sp needed
 2604 00d2 BDE8F043 		pop	{r4, r5, r6, r7, r8, r9, lr}
 2605              		.cfi_restore 14
 2606              		.cfi_restore 9
 2607              		.cfi_restore 8
 2608              		.cfi_restore 7
 2609              		.cfi_restore 6
 2610              		.cfi_restore 5
 2611              		.cfi_restore 4
 2612              		.cfi_def_cfa_offset 0
 2613              	.LVL242:
 2614              		.loc 1 485 0
 2615 00d6 FFF7FEBF 		b	test_println
 2616              	.LVL243:
 2617              	.L175:
 2618              		.cfi_restore_state
 2619 00da FFF7FEFF 		bl	__stack_chk_fail
 2620              	.LVL244:
 2621              	.L177:
 2622 00de 00BF     		.align	2
ARM GAS  C:\Users\Moi\AppData\Local\Temp\ccwG6ltn.s 			page 47


 2623              	.L176:
 2624 00e0 00000000 		.word	.LANCHOR5
 2625 00e4 00000000 		.word	.LANCHOR6
 2626 00e8 00000000 		.word	ch
 2627 00ec 00000000 		.word	.LANCHOR4
 2628 00f0 00000000 		.word	.LC11
 2629 00f4 00000000 		.word	.LC19
 2630 00f8 00000000 		.word	__stack_chk_guard
 2631 00fc 00000000 		.word	test_timer_done
 2632              		.cfi_endproc
 2633              	.LFE234:
 2634              		.size	bmk9_execute, .-bmk9_execute
 2635              		.section	.text.bmk4_execute,"ax",%progbits
 2636              		.align	1
 2637              		.p2align 4,,15
 2638              		.syntax unified
 2639              		.thumb
 2640              		.thumb_func
 2641              		.fpu fpv4-sp-d16
 2642              		.type	bmk4_execute, %function
 2643              	bmk4_execute:
 2644              	.LFB226:
 2645              		.loc 1 219 0
 2646              		.cfi_startproc
 2647              		@ args = 0, pretend = 0, frame = 8
 2648              		@ frame_needed = 0, uses_anonymous_args = 0
 2649 0000 2DE9F04F 		push	{r4, r5, r6, r7, r8, r9, r10, fp, lr}
 2650              		.cfi_def_cfa_offset 36
 2651              		.cfi_offset 4, -36
 2652              		.cfi_offset 5, -32
 2653              		.cfi_offset 6, -28
 2654              		.cfi_offset 7, -24
 2655              		.cfi_offset 8, -20
 2656              		.cfi_offset 9, -16
 2657              		.cfi_offset 10, -12
 2658              		.cfi_offset 11, -8
 2659              		.cfi_offset 14, -4
 2660              	.LBB301:
 2661              	.LBB302:
 2662              	.LBB303:
 2663              	.LBB304:
 2664              		.loc 3 176 0
 2665 0004 404D     		ldr	r5, .L189
 2666              	.LBE304:
 2667              	.LBE303:
 2668              	.LBE302:
 2669              	.LBE301:
 2670              		.loc 1 223 0
 2671 0006 414A     		ldr	r2, .L189+4
 2672              	.LBB306:
 2673              	.LBB305:
 2674              		.loc 3 189 0
 2675 0008 AB69     		ldr	r3, [r5, #24]
 2676              	.LBE305:
 2677              	.LBE306:
 2678              		.loc 1 219 0
 2679 000a DFF818A1 		ldr	r10, .L189+28
ARM GAS  C:\Users\Moi\AppData\Local\Temp\ccwG6ltn.s 			page 48


 2680              		.loc 1 223 0
 2681 000e 1068     		ldr	r0, [r2]
 2682 0010 9A68     		ldr	r2, [r3, #8]
 2683              		.loc 1 219 0
 2684 0012 DAF80010 		ldr	r1, [r10]
 2685              		.loc 1 223 0
 2686 0016 3E4B     		ldr	r3, .L189+8
 2687 0018 DFF80C91 		ldr	r9, .L189+32
 2688              	.LBB307:
 2689              	.LBB308:
 2690              		.loc 5 367 0
 2691 001c DFF800B1 		ldr	fp, .L189+24
 2692              	.LBE308:
 2693              	.LBE307:
 2694              		.loc 1 219 0
 2695 0020 85B0     		sub	sp, sp, #20
 2696              		.cfi_def_cfa_offset 56
 2697              		.loc 1 223 0
 2698 0022 0026     		movs	r6, #0
 2699 0024 0132     		adds	r2, r2, #1
 2700              		.loc 1 219 0
 2701 0026 0391     		str	r1, [sp, #12]
 2702              		.loc 1 223 0
 2703 0028 0096     		str	r6, [sp]
 2704 002a 4FF4FC71 		mov	r1, #504
 2705 002e FFF7FEFF 		bl	chThdCreateStatic
 2706              	.LVL245:
 2707 0032 384B     		ldr	r3, .L189+12
 2708 0034 0446     		mov	r4, r0
 2709 0036 1860     		str	r0, [r3]
 2710              	.LVL246:
 2711              		.loc 1 226 0
 2712 0038 FFF7FEFF 		bl	test_wait_tick
 2713              	.LVL247:
 2714              		.loc 1 227 0
 2715 003c 4FF47A70 		mov	r0, #1000
 2716 0040 FFF7FEFF 		bl	test_start_timer
 2717              	.LVL248:
 2718              		.loc 1 230 0
 2719 0044 B046     		mov	r8, r6
 2720              	.LBB313:
 2721              	.LBB314:
 2722              	.LBB315:
 2723              	.LBB316:
 2724              	.LBB317:
 2725              		.loc 4 546 0
 2726 0046 2027     		movs	r7, #32
 2727              	.LVL249:
 2728              	.L180:
 2729              		.loc 4 546 0 is_stmt 0 discriminator 1
 2730              		.syntax unified
 2731              	@ 546 "..//ChibiOS//os/ext/CMSIS/include/core_cmFunc.h" 1
 2732 0048 87F31188 		MSR basepri, r7
 2733              	@ 0 "" 2
 2734              	.LVL250:
 2735              		.thumb
 2736              		.syntax unified
ARM GAS  C:\Users\Moi\AppData\Local\Temp\ccwG6ltn.s 			page 49


 2737              	.LBE317:
 2738              	.LBE316:
 2739              	.LBE315:
 2740              		.loc 5 349 0 is_stmt 1 discriminator 1
 2741 004c FFF7FEFF 		bl	_stats_start_measure_crit_thd
 2742              	.LVL251:
 2743              		.loc 5 350 0 discriminator 1
 2744 0050 FFF7FEFF 		bl	_dbg_check_lock
 2745              	.LVL252:
 2746              	.LBE314:
 2747              	.LBE313:
 2748              		.loc 1 230 0 discriminator 1
 2749 0054 2046     		mov	r0, r4
 2750 0056 0021     		movs	r1, #0
 2751 0058 FFF7FEFF 		bl	chSchWakeupS
 2752              	.LVL253:
 2753              		.loc 1 231 0 discriminator 1
 2754 005c 2046     		mov	r0, r4
 2755 005e 0021     		movs	r1, #0
 2756 0060 FFF7FEFF 		bl	chSchWakeupS
 2757              	.LVL254:
 2758              		.loc 1 232 0 discriminator 1
 2759 0064 2046     		mov	r0, r4
 2760 0066 0021     		movs	r1, #0
 2761 0068 FFF7FEFF 		bl	chSchWakeupS
 2762              	.LVL255:
 2763              		.loc 1 233 0 discriminator 1
 2764 006c 2046     		mov	r0, r4
 2765 006e 0021     		movs	r1, #0
 2766 0070 FFF7FEFF 		bl	chSchWakeupS
 2767              	.LVL256:
 2768              	.LBB318:
 2769              	.LBB312:
 2770              		.loc 5 360 0 discriminator 1
 2771 0074 FFF7FEFF 		bl	_dbg_check_unlock
 2772              	.LVL257:
 2773              		.loc 5 361 0 discriminator 1
 2774 0078 FFF7FEFF 		bl	_stats_stop_measure_crit_thd
 2775              	.LVL258:
 2776              		.loc 5 367 0 discriminator 1
 2777 007c 2B68     		ldr	r3, [r5]
 2778 007e AB42     		cmp	r3, r5
 2779 0080 07D0     		beq	.L179
 2780              		.loc 5 367 0 is_stmt 0
 2781 0082 AA69     		ldr	r2, [r5, #24]
 2782 0084 9B68     		ldr	r3, [r3, #8]
 2783 0086 9268     		ldr	r2, [r2, #8]
 2784 0088 9A42     		cmp	r2, r3
 2785 008a 02D2     		bcs	.L179
 2786 008c 5846     		mov	r0, fp
 2787 008e FFF7FEFF 		bl	chSysHalt
 2788              	.LVL259:
 2789              	.L179:
 2790              	.LBB309:
 2791              	.LBB310:
 2792              	.LBB311:
 2793              		.loc 4 546 0 is_stmt 1
ARM GAS  C:\Users\Moi\AppData\Local\Temp\ccwG6ltn.s 			page 50


 2794              		.syntax unified
 2795              	@ 546 "..//ChibiOS//os/ext/CMSIS/include/core_cmFunc.h" 1
 2796 0092 88F31188 		MSR basepri, r8
 2797              	@ 0 "" 2
 2798              	.LVL260:
 2799              		.thumb
 2800              		.syntax unified
 2801              	.LBE311:
 2802              	.LBE310:
 2803              	.LBE309:
 2804              	.LBE312:
 2805              	.LBE318:
 2806              		.loc 1 239 0
 2807 0096 99F80030 		ldrb	r3, [r9]	@ zero_extendqisi2
 2808              		.loc 1 235 0
 2809 009a 0436     		adds	r6, r6, #4
 2810              	.LVL261:
 2811              		.loc 1 239 0
 2812 009c 002B     		cmp	r3, #0
 2813 009e D3D0     		beq	.L180
 2814              	.LVL262:
 2815              	.LBB319:
 2816              	.LBB320:
 2817              	.LBB321:
 2818              	.LBB322:
 2819              	.LBB323:
 2820              		.loc 4 546 0
 2821 00a0 2023     		movs	r3, #32
 2822              		.syntax unified
 2823              	@ 546 "..//ChibiOS//os/ext/CMSIS/include/core_cmFunc.h" 1
 2824 00a2 83F31188 		MSR basepri, r3
 2825              	@ 0 "" 2
 2826              	.LVL263:
 2827              		.thumb
 2828              		.syntax unified
 2829              	.LBE323:
 2830              	.LBE322:
 2831              	.LBE321:
 2832              		.loc 5 349 0
 2833 00a6 FFF7FEFF 		bl	_stats_start_measure_crit_thd
 2834              	.LVL264:
 2835              		.loc 5 350 0
 2836 00aa FFF7FEFF 		bl	_dbg_check_lock
 2837              	.LVL265:
 2838              	.LBE320:
 2839              	.LBE319:
 2840              		.loc 1 241 0
 2841 00ae 2046     		mov	r0, r4
 2842 00b0 4FF0FF31 		mov	r1, #-1
 2843 00b4 FFF7FEFF 		bl	chSchWakeupS
 2844              	.LVL266:
 2845              	.LBB324:
 2846              	.LBB325:
 2847              		.loc 5 360 0
 2848 00b8 FFF7FEFF 		bl	_dbg_check_unlock
 2849              	.LVL267:
 2850              		.loc 5 361 0
ARM GAS  C:\Users\Moi\AppData\Local\Temp\ccwG6ltn.s 			page 51


 2851 00bc FFF7FEFF 		bl	_stats_stop_measure_crit_thd
 2852              	.LVL268:
 2853              		.loc 5 367 0
 2854 00c0 2B68     		ldr	r3, [r5]
 2855 00c2 AB42     		cmp	r3, r5
 2856 00c4 04D0     		beq	.L181
 2857 00c6 AA69     		ldr	r2, [r5, #24]
 2858 00c8 9B68     		ldr	r3, [r3, #8]
 2859 00ca 9268     		ldr	r2, [r2, #8]
 2860 00cc 9A42     		cmp	r2, r3
 2861 00ce 15D3     		bcc	.L187
 2862              	.L181:
 2863              	.LVL269:
 2864              	.LBB326:
 2865              	.LBB327:
 2866              	.LBB328:
 2867              		.loc 4 546 0
 2868 00d0 0023     		movs	r3, #0
 2869              		.syntax unified
 2870              	@ 546 "..//ChibiOS//os/ext/CMSIS/include/core_cmFunc.h" 1
 2871 00d2 83F31188 		MSR basepri, r3
 2872              	@ 0 "" 2
 2873              	.LVL270:
 2874              		.thumb
 2875              		.syntax unified
 2876              	.LBE328:
 2877              	.LBE327:
 2878              	.LBE326:
 2879              	.LBE325:
 2880              	.LBE324:
 2881              		.loc 1 244 0
 2882 00d6 FFF7FEFF 		bl	test_wait_threads
 2883              	.LVL271:
 2884              		.loc 1 245 0
 2885 00da 0F48     		ldr	r0, .L189+16
 2886 00dc FFF7FEFF 		bl	test_print
 2887              	.LVL272:
 2888              		.loc 1 246 0
 2889 00e0 7000     		lsls	r0, r6, #1
 2890 00e2 FFF7FEFF 		bl	test_printn
 2891              	.LVL273:
 2892              		.loc 1 247 0
 2893 00e6 039A     		ldr	r2, [sp, #12]
 2894 00e8 DAF80030 		ldr	r3, [r10]
 2895 00ec 9A42     		cmp	r2, r3
 2896 00ee 09D1     		bne	.L188
 2897 00f0 0A48     		ldr	r0, .L189+20
 2898              		.loc 1 248 0
 2899 00f2 05B0     		add	sp, sp, #20
 2900              		.cfi_remember_state
 2901              		.cfi_def_cfa_offset 36
 2902              		@ sp needed
 2903 00f4 BDE8F04F 		pop	{r4, r5, r6, r7, r8, r9, r10, fp, lr}
 2904              		.cfi_restore 14
 2905              		.cfi_restore 11
 2906              		.cfi_restore 10
 2907              		.cfi_restore 9
ARM GAS  C:\Users\Moi\AppData\Local\Temp\ccwG6ltn.s 			page 52


 2908              		.cfi_restore 8
 2909              		.cfi_restore 7
 2910              		.cfi_restore 6
 2911              		.cfi_restore 5
 2912              		.cfi_restore 4
 2913              		.cfi_def_cfa_offset 0
 2914              	.LVL274:
 2915              		.loc 1 247 0
 2916 00f8 FFF7FEBF 		b	test_println
 2917              	.LVL275:
 2918              	.L187:
 2919              		.cfi_restore_state
 2920              	.LBB330:
 2921              	.LBB329:
 2922              		.loc 5 367 0
 2923 00fc 0848     		ldr	r0, .L189+24
 2924 00fe FFF7FEFF 		bl	chSysHalt
 2925              	.LVL276:
 2926 0102 E5E7     		b	.L181
 2927              	.L188:
 2928              	.LBE329:
 2929              	.LBE330:
 2930              		.loc 1 247 0
 2931 0104 FFF7FEFF 		bl	__stack_chk_fail
 2932              	.LVL277:
 2933              	.L190:
 2934              		.align	2
 2935              	.L189:
 2936 0108 00000000 		.word	ch
 2937 010c 00000000 		.word	wa
 2938 0110 00000000 		.word	thread4
 2939 0114 00000000 		.word	threads
 2940 0118 00000000 		.word	.LC11
 2941 011c 0C000000 		.word	.LC14
 2942 0120 00000000 		.word	.LANCHOR4
 2943 0124 00000000 		.word	__stack_chk_guard
 2944 0128 00000000 		.word	test_timer_done
 2945              		.cfi_endproc
 2946              	.LFE226:
 2947              		.size	bmk4_execute, .-bmk4_execute
 2948              		.section	.text.thread4,"ax",%progbits
 2949              		.align	1
 2950              		.p2align 4,,15
 2951              		.syntax unified
 2952              		.thumb
 2953              		.thumb_func
 2954              		.fpu fpv4-sp-d16
 2955              		.type	thread4, %function
 2956              	thread4:
 2957              	.LFB225:
 2958              		.loc 1 206 0
 2959              		.cfi_startproc
 2960              		@ args = 0, pretend = 0, frame = 8
 2961              		@ frame_needed = 0, uses_anonymous_args = 0
 2962              	.LVL278:
 2963 0000 70B5     		push	{r4, r5, r6, lr}
 2964              		.cfi_def_cfa_offset 16
ARM GAS  C:\Users\Moi\AppData\Local\Temp\ccwG6ltn.s 			page 53


 2965              		.cfi_offset 4, -16
 2966              		.cfi_offset 5, -12
 2967              		.cfi_offset 6, -8
 2968              		.cfi_offset 14, -4
 2969 0002 174E     		ldr	r6, .L200
 2970              	.LBB343:
 2971              	.LBB344:
 2972              		.loc 3 176 0
 2973 0004 174D     		ldr	r5, .L200+4
 2974              	.LBE344:
 2975              	.LBE343:
 2976              		.loc 1 206 0
 2977 0006 3368     		ldr	r3, [r6]
 2978              	.LBB346:
 2979              	.LBB345:
 2980              		.loc 3 176 0
 2981 0008 AC69     		ldr	r4, [r5, #24]
 2982              	.LVL279:
 2983              	.LBE345:
 2984              	.LBE346:
 2985              		.loc 1 206 0
 2986 000a 82B0     		sub	sp, sp, #8
 2987              		.cfi_def_cfa_offset 24
 2988              		.loc 1 206 0
 2989 000c 0193     		str	r3, [sp, #4]
 2990              	.LBB347:
 2991              	.LBB348:
 2992              	.LBB349:
 2993              	.LBB350:
 2994              	.LBB351:
 2995              		.loc 4 546 0
 2996 000e 2023     		movs	r3, #32
 2997              		.syntax unified
 2998              	@ 546 "..//ChibiOS//os/ext/CMSIS/include/core_cmFunc.h" 1
 2999 0010 83F31188 		MSR basepri, r3
 3000              	@ 0 "" 2
 3001              	.LVL280:
 3002              		.thumb
 3003              		.syntax unified
 3004              	.LBE351:
 3005              	.LBE350:
 3006              	.LBE349:
 3007              		.loc 5 349 0
 3008 0014 FFF7FEFF 		bl	_stats_start_measure_crit_thd
 3009              	.LVL281:
 3010              		.loc 5 350 0
 3011 0018 FFF7FEFF 		bl	_dbg_check_lock
 3012              	.LVL282:
 3013              	.L192:
 3014              	.LBE348:
 3015              	.LBE347:
 3016              		.loc 1 213 0 discriminator 1
 3017 001c 0320     		movs	r0, #3
 3018 001e FFF7FEFF 		bl	chSchGoSleepS
 3019              	.LVL283:
 3020              		.loc 1 215 0 discriminator 1
 3021 0022 A36A     		ldr	r3, [r4, #40]
ARM GAS  C:\Users\Moi\AppData\Local\Temp\ccwG6ltn.s 			page 54


 3022 0024 002B     		cmp	r3, #0
 3023 0026 F9D0     		beq	.L192
 3024              	.LBB352:
 3025              	.LBB353:
 3026              		.loc 5 360 0
 3027 0028 FFF7FEFF 		bl	_dbg_check_unlock
 3028              	.LVL284:
 3029              		.loc 5 361 0
 3030 002c FFF7FEFF 		bl	_stats_stop_measure_crit_thd
 3031              	.LVL285:
 3032              		.loc 5 367 0
 3033 0030 2B68     		ldr	r3, [r5]
 3034 0032 AB42     		cmp	r3, r5
 3035 0034 04D0     		beq	.L193
 3036 0036 AA69     		ldr	r2, [r5, #24]
 3037 0038 9B68     		ldr	r3, [r3, #8]
 3038 003a 9268     		ldr	r2, [r2, #8]
 3039 003c 9A42     		cmp	r2, r3
 3040 003e 08D3     		bcc	.L198
 3041              	.L193:
 3042              	.LVL286:
 3043              	.LBB354:
 3044              	.LBB355:
 3045              	.LBB356:
 3046              		.loc 4 546 0
 3047 0040 0023     		movs	r3, #0
 3048              		.syntax unified
 3049              	@ 546 "..//ChibiOS//os/ext/CMSIS/include/core_cmFunc.h" 1
 3050 0042 83F31188 		MSR basepri, r3
 3051              	@ 0 "" 2
 3052              	.LVL287:
 3053              		.thumb
 3054              		.syntax unified
 3055              	.LBE356:
 3056              	.LBE355:
 3057              	.LBE354:
 3058              	.LBE353:
 3059              	.LBE352:
 3060              		.loc 1 217 0
 3061 0046 019A     		ldr	r2, [sp, #4]
 3062 0048 3368     		ldr	r3, [r6]
 3063 004a 9A42     		cmp	r2, r3
 3064 004c 05D1     		bne	.L199
 3065 004e 02B0     		add	sp, sp, #8
 3066              		.cfi_remember_state
 3067              		.cfi_def_cfa_offset 16
 3068              		@ sp needed
 3069 0050 70BD     		pop	{r4, r5, r6, pc}
 3070              	.L198:
 3071              		.cfi_restore_state
 3072              	.LBB358:
 3073              	.LBB357:
 3074              		.loc 5 367 0
 3075 0052 0548     		ldr	r0, .L200+8
 3076 0054 FFF7FEFF 		bl	chSysHalt
 3077              	.LVL288:
 3078 0058 F2E7     		b	.L193
ARM GAS  C:\Users\Moi\AppData\Local\Temp\ccwG6ltn.s 			page 55


 3079              	.L199:
 3080              	.LBE357:
 3081              	.LBE358:
 3082              		.loc 1 217 0
 3083 005a FFF7FEFF 		bl	__stack_chk_fail
 3084              	.LVL289:
 3085              	.L201:
 3086 005e 00BF     		.align	2
 3087              	.L200:
 3088 0060 00000000 		.word	__stack_chk_guard
 3089 0064 00000000 		.word	ch
 3090 0068 00000000 		.word	.LANCHOR4
 3091              		.cfi_endproc
 3092              	.LFE225:
 3093              		.size	thread4, .-thread4
 3094              		.global	patternbmk
 3095              		.global	testbmk13
 3096              		.global	testbmk12
 3097              		.global	testbmk11
 3098              		.global	testbmk10
 3099              		.global	testbmk9
 3100              		.global	testbmk8
 3101              		.global	testbmk7
 3102              		.global	testbmk6
 3103              		.global	testbmk5
 3104              		.global	testbmk4
 3105              		.global	testbmk3
 3106              		.global	testbmk2
 3107              		.global	testbmk1
 3108              		.section	.bss.ib.7996,"aw",%nobits
 3109              		.align	2
 3110              		.set	.LANCHOR5,. + 0
 3111              		.type	ib.7996, %object
 3112              		.size	ib.7996, 16
 3113              	ib.7996:
 3114 0000 00000000 		.space	16
 3114      00000000 
 3114      00000000 
 3114      00000000 
 3115              		.section	.bss.iq.7997,"aw",%nobits
 3116              		.align	2
 3117              		.set	.LANCHOR6,. + 0
 3118              		.type	iq.7997, %object
 3119              		.size	iq.7997, 36
 3120              	iq.7997:
 3121 0000 00000000 		.space	36
 3121      00000000 
 3121      00000000 
 3121      00000000 
 3121      00000000 
 3122              		.section	.bss.mtx1,"aw",%nobits
 3123              		.align	2
 3124              		.set	.LANCHOR1,. + 0
 3125              		.type	mtx1, %object
 3126              		.size	mtx1, 20
 3127              	mtx1:
 3128 0000 00000000 		.space	20
ARM GAS  C:\Users\Moi\AppData\Local\Temp\ccwG6ltn.s 			page 56


 3128      00000000 
 3128      00000000 
 3128      00000000 
 3128      00000000 
 3129              		.section	.bss.sem1,"aw",%nobits
 3130              		.align	2
 3131              		.set	.LANCHOR0,. + 0
 3132              		.type	sem1, %object
 3133              		.size	sem1, 12
 3134              	sem1:
 3135 0000 00000000 		.space	12
 3135      00000000 
 3135      00000000 
 3136              		.section	.bss.vt1.8007,"aw",%nobits
 3137              		.align	2
 3138              		.set	.LANCHOR2,. + 0
 3139              		.type	vt1.8007, %object
 3140              		.size	vt1.8007, 20
 3141              	vt1.8007:
 3142 0000 00000000 		.space	20
 3142      00000000 
 3142      00000000 
 3142      00000000 
 3142      00000000 
 3143              		.section	.bss.vt2.8008,"aw",%nobits
 3144              		.align	2
 3145              		.set	.LANCHOR3,. + 0
 3146              		.type	vt2.8008, %object
 3147              		.size	vt2.8008, 20
 3148              	vt2.8008:
 3149 0000 00000000 		.space	20
 3149      00000000 
 3149      00000000 
 3149      00000000 
 3149      00000000 
 3150              		.section	.rodata.__func__.7153,"a",%progbits
 3151              		.align	2
 3152              		.set	.LANCHOR4,. + 0
 3153              		.type	__func__.7153, %object
 3154              		.size	__func__.7153, 12
 3155              	__func__.7153:
 3156 0000 63685379 		.ascii	"chSysUnlock\000"
 3156      73556E6C 
 3156      6F636B00 
 3157              		.section	.rodata.bmk10_execute.str1.4,"aMS",%progbits,1
 3158              		.align	2
 3159              	.LC18:
 3160 0000 2074696D 		.ascii	" timers/S\000"
 3160      6572732F 
 3160      5300
 3161              		.section	.rodata.bmk11_execute.str1.4,"aMS",%progbits,1
 3162              		.align	2
 3163              	.LC16:
 3164 0000 20776169 		.ascii	" wait+signal/S\000"
 3164      742B7369 
 3164      676E616C 
 3164      2F5300
ARM GAS  C:\Users\Moi\AppData\Local\Temp\ccwG6ltn.s 			page 57


 3165              		.section	.rodata.bmk12_execute.str1.4,"aMS",%progbits,1
 3166              		.align	2
 3167              	.LC17:
 3168 0000 206C6F63 		.ascii	" lock+unlock/S\000"
 3168      6B2B756E 
 3168      6C6F636B 
 3168      2F5300
 3169              		.section	.rodata.bmk13_execute.str1.4,"aMS",%progbits,1
 3170              		.align	2
 3171              	.LC0:
 3172 0000 2D2D2D20 		.ascii	"--- System: \000"
 3172      53797374 
 3172      656D3A20 
 3172      00
 3173 000d 000000   		.space	3
 3174              	.LC1:
 3175 0010 20627974 		.ascii	" bytes\000"
 3175      657300
 3176 0017 00       		.space	1
 3177              	.LC2:
 3178 0018 2D2D2D20 		.ascii	"--- Thread: \000"
 3178      54687265 
 3178      61643A20 
 3178      00
 3179 0025 000000   		.space	3
 3180              	.LC3:
 3181 0028 2D2D2D20 		.ascii	"--- Timer : \000"
 3181      54696D65 
 3181      72203A20 
 3181      00
 3182 0035 000000   		.space	3
 3183              	.LC4:
 3184 0038 2D2D2D20 		.ascii	"--- Semaph: \000"
 3184      53656D61 
 3184      70683A20 
 3184      00
 3185 0045 000000   		.space	3
 3186              	.LC5:
 3187 0048 2D2D2D20 		.ascii	"--- EventS: \000"
 3187      4576656E 
 3187      74533A20 
 3187      00
 3188 0055 000000   		.space	3
 3189              	.LC6:
 3190 0058 2D2D2D20 		.ascii	"--- EventL: \000"
 3190      4576656E 
 3190      744C3A20 
 3190      00
 3191 0065 000000   		.space	3
 3192              	.LC7:
 3193 0068 2D2D2D20 		.ascii	"--- Mutex : \000"
 3193      4D757465 
 3193      78203A20 
 3193      00
 3194 0075 000000   		.space	3
 3195              	.LC8:
 3196 0078 2D2D2D20 		.ascii	"--- CondV.: \000"
ARM GAS  C:\Users\Moi\AppData\Local\Temp\ccwG6ltn.s 			page 58


 3196      436F6E64 
 3196      562E3A20 
 3196      00
 3197 0085 000000   		.space	3
 3198              	.LC9:
 3199 0088 2D2D2D20 		.ascii	"--- Queue : \000"
 3199      51756575 
 3199      65203A20 
 3199      00
 3200 0095 000000   		.space	3
 3201              	.LC10:
 3202 0098 2D2D2D20 		.ascii	"--- MailB.: \000"
 3202      4D61696C 
 3202      422E3A20 
 3202      00
 3203              		.section	.rodata.bmk1_execute.str1.4,"aMS",%progbits,1
 3204              		.align	2
 3205              	.LC13:
 3206 0000 206D7367 		.ascii	" msgs/S, \000"
 3206      732F532C 
 3206      2000
 3207 000a 0000     		.space	2
 3208              	.LC14:
 3209 000c 20637478 		.ascii	" ctxswc/S\000"
 3209      7377632F 
 3209      5300
 3210              		.section	.rodata.bmk6_execute.str1.4,"aMS",%progbits,1
 3211              		.align	2
 3212              	.LC11:
 3213 0000 2D2D2D20 		.ascii	"--- Score : \000"
 3213      53636F72 
 3213      65203A20 
 3213      00
 3214 000d 000000   		.space	3
 3215              	.LC12:
 3216 0010 20746872 		.ascii	" threads/S\000"
 3216      65616473 
 3216      2F5300
 3217              		.section	.rodata.bmk7_execute.str1.4,"aMS",%progbits,1
 3218              		.align	2
 3219              	.LC15:
 3220 0000 20726573 		.ascii	" reschedules/S, \000"
 3220      63686564 
 3220      756C6573 
 3220      2F532C20 
 3220      00
 3221              		.section	.rodata.bmk9_execute.str1.4,"aMS",%progbits,1
 3222              		.align	2
 3223              	.LC19:
 3224 0000 20627974 		.ascii	" bytes/S\000"
 3224      65732F53 
 3224      00
 3225              		.section	.rodata.patternbmk,"a",%progbits
 3226              		.align	2
 3227              		.type	patternbmk, %object
 3228              		.size	patternbmk, 56
 3229              	patternbmk:
ARM GAS  C:\Users\Moi\AppData\Local\Temp\ccwG6ltn.s 			page 59


 3230 0000 00000000 		.word	testbmk1
 3231 0004 00000000 		.word	testbmk2
 3232 0008 00000000 		.word	testbmk3
 3233 000c 00000000 		.word	testbmk4
 3234 0010 00000000 		.word	testbmk5
 3235 0014 00000000 		.word	testbmk6
 3236 0018 00000000 		.word	testbmk7
 3237 001c 00000000 		.word	testbmk8
 3238 0020 00000000 		.word	testbmk9
 3239 0024 00000000 		.word	testbmk10
 3240 0028 00000000 		.word	testbmk11
 3241 002c 00000000 		.word	testbmk12
 3242 0030 00000000 		.word	testbmk13
 3243 0034 00000000 		.word	0
 3244              		.section	.rodata.str1.4,"aMS",%progbits,1
 3245              		.align	2
 3246              	.LC20:
 3247 0000 42656E63 		.ascii	"Benchmark, RAM footprint\000"
 3247      686D6172 
 3247      6B2C2052 
 3247      414D2066 
 3247      6F6F7470 
 3248 0019 000000   		.space	3
 3249              	.LC21:
 3250 001c 42656E63 		.ascii	"Benchmark, mutexes lock/unlock\000"
 3250      686D6172 
 3250      6B2C206D 
 3250      75746578 
 3250      6573206C 
 3251 003b 00       		.space	1
 3252              	.LC22:
 3253 003c 42656E63 		.ascii	"Benchmark, semaphores wait/signal\000"
 3253      686D6172 
 3253      6B2C2073 
 3253      656D6170 
 3253      686F7265 
 3254 005e 0000     		.space	2
 3255              	.LC23:
 3256 0060 42656E63 		.ascii	"Benchmark, virtual timers set/reset\000"
 3256      686D6172 
 3256      6B2C2076 
 3256      69727475 
 3256      616C2074 
 3257              	.LC24:
 3258 0084 42656E63 		.ascii	"Benchmark, I/O Queues throughput\000"
 3258      686D6172 
 3258      6B2C2049 
 3258      2F4F2051 
 3258      75657565 
 3259 00a5 000000   		.space	3
 3260              	.LC25:
 3261 00a8 42656E63 		.ascii	"Benchmark, round robin context switching\000"
 3261      686D6172 
 3261      6B2C2072 
 3261      6F756E64 
 3261      20726F62 
 3262 00d1 000000   		.space	3
ARM GAS  C:\Users\Moi\AppData\Local\Temp\ccwG6ltn.s 			page 60


 3263              	.LC26:
 3264 00d4 42656E63 		.ascii	"Benchmark, mass reschedule, 5 threads\000"
 3264      686D6172 
 3264      6B2C206D 
 3264      61737320 
 3264      72657363 
 3265 00fa 0000     		.space	2
 3266              	.LC27:
 3267 00fc 42656E63 		.ascii	"Benchmark, threads, create only\000"
 3267      686D6172 
 3267      6B2C2074 
 3267      68726561 
 3267      64732C20 
 3268              	.LC28:
 3269 011c 42656E63 		.ascii	"Benchmark, threads, full cycle\000"
 3269      686D6172 
 3269      6B2C2074 
 3269      68726561 
 3269      64732C20 
 3270 013b 00       		.space	1
 3271              	.LC29:
 3272 013c 42656E63 		.ascii	"Benchmark, context switch\000"
 3272      686D6172 
 3272      6B2C2063 
 3272      6F6E7465 
 3272      78742073 
 3273 0156 0000     		.space	2
 3274              	.LC30:
 3275 0158 42656E63 		.ascii	"Benchmark, messages #3\000"
 3275      686D6172 
 3275      6B2C206D 
 3275      65737361 
 3275      67657320 
 3276 016f 00       		.space	1
 3277              	.LC31:
 3278 0170 42656E63 		.ascii	"Benchmark, messages #2\000"
 3278      686D6172 
 3278      6B2C206D 
 3278      65737361 
 3278      67657320 
 3279 0187 00       		.space	1
 3280              	.LC32:
 3281 0188 42656E63 		.ascii	"Benchmark, messages #1\000"
 3281      686D6172 
 3281      6B2C206D 
 3281      65737361 
 3281      67657320 
 3282              		.section	.rodata.testbmk1,"a",%progbits
 3283              		.align	2
 3284              		.type	testbmk1, %object
 3285              		.size	testbmk1, 16
 3286              	testbmk1:
 3287 0000 88010000 		.word	.LC32
 3288 0004 00000000 		.word	0
 3289 0008 00000000 		.word	0
 3290 000c 00000000 		.word	bmk1_execute
 3291              		.section	.rodata.testbmk10,"a",%progbits
ARM GAS  C:\Users\Moi\AppData\Local\Temp\ccwG6ltn.s 			page 61


 3292              		.align	2
 3293              		.type	testbmk10, %object
 3294              		.size	testbmk10, 16
 3295              	testbmk10:
 3296 0000 60000000 		.word	.LC23
 3297 0004 00000000 		.word	0
 3298 0008 00000000 		.word	0
 3299 000c 00000000 		.word	bmk10_execute
 3300              		.section	.rodata.testbmk11,"a",%progbits
 3301              		.align	2
 3302              		.type	testbmk11, %object
 3303              		.size	testbmk11, 16
 3304              	testbmk11:
 3305 0000 3C000000 		.word	.LC22
 3306 0004 00000000 		.word	bmk11_setup
 3307 0008 00000000 		.word	0
 3308 000c 00000000 		.word	bmk11_execute
 3309              		.section	.rodata.testbmk12,"a",%progbits
 3310              		.align	2
 3311              		.type	testbmk12, %object
 3312              		.size	testbmk12, 16
 3313              	testbmk12:
 3314 0000 1C000000 		.word	.LC21
 3315 0004 00000000 		.word	bmk12_setup
 3316 0008 00000000 		.word	0
 3317 000c 00000000 		.word	bmk12_execute
 3318              		.section	.rodata.testbmk13,"a",%progbits
 3319              		.align	2
 3320              		.type	testbmk13, %object
 3321              		.size	testbmk13, 16
 3322              	testbmk13:
 3323 0000 00000000 		.word	.LC20
 3324 0004 00000000 		.word	0
 3325 0008 00000000 		.word	0
 3326 000c 00000000 		.word	bmk13_execute
 3327              		.section	.rodata.testbmk2,"a",%progbits
 3328              		.align	2
 3329              		.type	testbmk2, %object
 3330              		.size	testbmk2, 16
 3331              	testbmk2:
 3332 0000 70010000 		.word	.LC31
 3333 0004 00000000 		.word	0
 3334 0008 00000000 		.word	0
 3335 000c 00000000 		.word	bmk2_execute
 3336              		.section	.rodata.testbmk3,"a",%progbits
 3337              		.align	2
 3338              		.type	testbmk3, %object
 3339              		.size	testbmk3, 16
 3340              	testbmk3:
 3341 0000 58010000 		.word	.LC30
 3342 0004 00000000 		.word	0
 3343 0008 00000000 		.word	0
 3344 000c 00000000 		.word	bmk3_execute
 3345              		.section	.rodata.testbmk4,"a",%progbits
 3346              		.align	2
 3347              		.type	testbmk4, %object
 3348              		.size	testbmk4, 16
ARM GAS  C:\Users\Moi\AppData\Local\Temp\ccwG6ltn.s 			page 62


 3349              	testbmk4:
 3350 0000 3C010000 		.word	.LC29
 3351 0004 00000000 		.word	0
 3352 0008 00000000 		.word	0
 3353 000c 00000000 		.word	bmk4_execute
 3354              		.section	.rodata.testbmk5,"a",%progbits
 3355              		.align	2
 3356              		.type	testbmk5, %object
 3357              		.size	testbmk5, 16
 3358              	testbmk5:
 3359 0000 1C010000 		.word	.LC28
 3360 0004 00000000 		.word	0
 3361 0008 00000000 		.word	0
 3362 000c 00000000 		.word	bmk5_execute
 3363              		.section	.rodata.testbmk6,"a",%progbits
 3364              		.align	2
 3365              		.type	testbmk6, %object
 3366              		.size	testbmk6, 16
 3367              	testbmk6:
 3368 0000 FC000000 		.word	.LC27
 3369 0004 00000000 		.word	0
 3370 0008 00000000 		.word	0
 3371 000c 00000000 		.word	bmk6_execute
 3372              		.section	.rodata.testbmk7,"a",%progbits
 3373              		.align	2
 3374              		.type	testbmk7, %object
 3375              		.size	testbmk7, 16
 3376              	testbmk7:
 3377 0000 D4000000 		.word	.LC26
 3378 0004 00000000 		.word	bmk7_setup
 3379 0008 00000000 		.word	0
 3380 000c 00000000 		.word	bmk7_execute
 3381              		.section	.rodata.testbmk8,"a",%progbits
 3382              		.align	2
 3383              		.type	testbmk8, %object
 3384              		.size	testbmk8, 16
 3385              	testbmk8:
 3386 0000 A8000000 		.word	.LC25
 3387 0004 00000000 		.word	0
 3388 0008 00000000 		.word	0
 3389 000c 00000000 		.word	bmk8_execute
 3390              		.section	.rodata.testbmk9,"a",%progbits
 3391              		.align	2
 3392              		.type	testbmk9, %object
 3393              		.size	testbmk9, 16
 3394              	testbmk9:
 3395 0000 84000000 		.word	.LC24
 3396 0004 00000000 		.word	0
 3397 0008 00000000 		.word	0
 3398 000c 00000000 		.word	bmk9_execute
 3399              		.text
 3400              	.Letext0:
 3401              		.file 7 "c:\\users\\moi\\documents\\_microinfo\\epuck-eclipse\\tools\\gcc-arm-none-eabi-7-2017-q4-
 3402              		.file 8 "c:\\users\\moi\\documents\\_microinfo\\epuck-eclipse\\tools\\gcc-arm-none-eabi-7-2017-q4-
 3403              		.file 9 "c:\\users\\moi\\documents\\_microinfo\\epuck-eclipse\\tools\\gcc-arm-none-eabi-7-2017-q4-
 3404              		.file 10 "..//ChibiOS//os/rt/ports/ARMCMx/compilers/GCC/chtypes.h"
 3405              		.file 11 "..//ChibiOS//os/rt/include/chsystypes.h"
ARM GAS  C:\Users\Moi\AppData\Local\Temp\ccwG6ltn.s 			page 63


 3406              		.file 12 "..//ChibiOS//os/rt/include/chschd.h"
 3407              		.file 13 "..//ChibiOS//os/ext/CMSIS/include/core_cm4.h"
 3408              		.file 14 "..//ChibiOS//os/ext/CMSIS/ST/system_stm32f4xx.h"
 3409              		.file 15 "..//ChibiOS//os/rt/ports/ARMCMx/chcore.h"
 3410              		.file 16 "..//ChibiOS//os/rt/ports/ARMCMx/chcore_v7m.h"
 3411              		.file 17 "..//ChibiOS//os/rt/include/chdebug.h"
 3412              		.file 18 "..//ChibiOS//os/rt/include/chtm.h"
 3413              		.file 19 "..//ChibiOS//os/rt/include/chstats.h"
 3414              		.file 20 "..//ChibiOS//os/rt/include/chsem.h"
 3415              		.file 21 "..//ChibiOS//os/rt/include/chmtx.h"
 3416              		.file 22 "..//ChibiOS//os/rt/include/chregistry.h"
 3417              		.file 23 "..//ChibiOS//test/rt/test.h"
 3418              		.file 24 "..//ChibiOS//os/rt/include/chvt.h"
 3419              		.section	.debug_info,"",%progbits
 3420              	.Ldebug_info0:
 3421 0000 652A0000 		.4byte	0x2a65
 3422 0004 0400     		.2byte	0x4
 3423 0006 00000000 		.4byte	.Ldebug_abbrev0
 3424 000a 04       		.byte	0x4
 3425 000b 01       		.uleb128 0x1
 3426 000c 0A0A0000 		.4byte	.LASF267
 3427 0010 0C       		.byte	0xc
 3428 0011 81080000 		.4byte	.LASF268
 3429 0015 49050000 		.4byte	.LASF269
 3430 0019 40010000 		.4byte	.Ldebug_ranges0+0x140
 3431 001d 00000000 		.4byte	0
 3432 0021 00000000 		.4byte	.Ldebug_line0
 3433 0025 02       		.uleb128 0x2
 3434 0026 04       		.byte	0x4
 3435 0027 05       		.byte	0x5
 3436 0028 696E7400 		.ascii	"int\000"
 3437 002c 03       		.uleb128 0x3
 3438 002d 08000000 		.4byte	.LASF4
 3439 0031 07       		.byte	0x7
 3440 0032 D8       		.byte	0xd8
 3441 0033 37000000 		.4byte	0x37
 3442 0037 04       		.uleb128 0x4
 3443 0038 04       		.byte	0x4
 3444 0039 07       		.byte	0x7
 3445 003a E0060000 		.4byte	.LASF0
 3446 003e 04       		.uleb128 0x4
 3447 003f 08       		.byte	0x8
 3448 0040 05       		.byte	0x5
 3449 0041 13060000 		.4byte	.LASF1
 3450 0045 04       		.uleb128 0x4
 3451 0046 08       		.byte	0x8
 3452 0047 04       		.byte	0x4
 3453 0048 AF070000 		.4byte	.LASF2
 3454 004c 04       		.uleb128 0x4
 3455 004d 01       		.byte	0x1
 3456 004e 06       		.byte	0x6
 3457 004f 97020000 		.4byte	.LASF3
 3458 0053 03       		.uleb128 0x3
 3459 0054 72010000 		.4byte	.LASF5
 3460 0058 08       		.byte	0x8
 3461 0059 2B       		.byte	0x2b
 3462 005a 5E000000 		.4byte	0x5e
ARM GAS  C:\Users\Moi\AppData\Local\Temp\ccwG6ltn.s 			page 64


 3463 005e 04       		.uleb128 0x4
 3464 005f 01       		.byte	0x1
 3465 0060 08       		.byte	0x8
 3466 0061 D7020000 		.4byte	.LASF6
 3467 0065 04       		.uleb128 0x4
 3468 0066 02       		.byte	0x2
 3469 0067 05       		.byte	0x5
 3470 0068 C0090000 		.4byte	.LASF7
 3471 006c 03       		.uleb128 0x3
 3472 006d 7E030000 		.4byte	.LASF8
 3473 0071 08       		.byte	0x8
 3474 0072 39       		.byte	0x39
 3475 0073 77000000 		.4byte	0x77
 3476 0077 04       		.uleb128 0x4
 3477 0078 02       		.byte	0x2
 3478 0079 07       		.byte	0x7
 3479 007a 1B0C0000 		.4byte	.LASF9
 3480 007e 03       		.uleb128 0x3
 3481 007f 750C0000 		.4byte	.LASF10
 3482 0083 08       		.byte	0x8
 3483 0084 4D       		.byte	0x4d
 3484 0085 89000000 		.4byte	0x89
 3485 0089 04       		.uleb128 0x4
 3486 008a 04       		.byte	0x4
 3487 008b 05       		.byte	0x5
 3488 008c BB010000 		.4byte	.LASF11
 3489 0090 03       		.uleb128 0x3
 3490 0091 F7050000 		.4byte	.LASF12
 3491 0095 08       		.byte	0x8
 3492 0096 4F       		.byte	0x4f
 3493 0097 9B000000 		.4byte	0x9b
 3494 009b 04       		.uleb128 0x4
 3495 009c 04       		.byte	0x4
 3496 009d 07       		.byte	0x7
 3497 009e 8E040000 		.4byte	.LASF13
 3498 00a2 03       		.uleb128 0x3
 3499 00a3 77040000 		.4byte	.LASF14
 3500 00a7 08       		.byte	0x8
 3501 00a8 69       		.byte	0x69
 3502 00a9 AD000000 		.4byte	0xad
 3503 00ad 04       		.uleb128 0x4
 3504 00ae 08       		.byte	0x8
 3505 00af 07       		.byte	0x7
 3506 00b0 2B080000 		.4byte	.LASF15
 3507 00b4 03       		.uleb128 0x3
 3508 00b5 AD020000 		.4byte	.LASF16
 3509 00b9 09       		.byte	0x9
 3510 00ba 18       		.byte	0x18
 3511 00bb 53000000 		.4byte	0x53
 3512 00bf 03       		.uleb128 0x3
 3513 00c0 4A080000 		.4byte	.LASF17
 3514 00c4 09       		.byte	0x9
 3515 00c5 24       		.byte	0x24
 3516 00c6 6C000000 		.4byte	0x6c
 3517 00ca 03       		.uleb128 0x3
 3518 00cb A1000000 		.4byte	.LASF18
 3519 00cf 09       		.byte	0x9
ARM GAS  C:\Users\Moi\AppData\Local\Temp\ccwG6ltn.s 			page 65


 3520 00d0 2C       		.byte	0x2c
 3521 00d1 7E000000 		.4byte	0x7e
 3522 00d5 05       		.uleb128 0x5
 3523 00d6 CA000000 		.4byte	0xca
 3524 00da 03       		.uleb128 0x3
 3525 00db F30B0000 		.4byte	.LASF19
 3526 00df 09       		.byte	0x9
 3527 00e0 30       		.byte	0x30
 3528 00e1 90000000 		.4byte	0x90
 3529 00e5 03       		.uleb128 0x3
 3530 00e6 CA090000 		.4byte	.LASF20
 3531 00ea 09       		.byte	0x9
 3532 00eb 3C       		.byte	0x3c
 3533 00ec A2000000 		.4byte	0xa2
 3534 00f0 03       		.uleb128 0x3
 3535 00f1 FA060000 		.4byte	.LASF21
 3536 00f5 0A       		.byte	0xa
 3537 00f6 45       		.byte	0x45
 3538 00f7 DA000000 		.4byte	0xda
 3539 00fb 03       		.uleb128 0x3
 3540 00fc 18020000 		.4byte	.LASF22
 3541 0100 0A       		.byte	0xa
 3542 0101 46       		.byte	0x46
 3543 0102 E5000000 		.4byte	0xe5
 3544 0106 03       		.uleb128 0x3
 3545 0107 58090000 		.4byte	.LASF23
 3546 010b 0A       		.byte	0xa
 3547 010c 48       		.byte	0x48
 3548 010d B4000000 		.4byte	0xb4
 3549 0111 03       		.uleb128 0x3
 3550 0112 0F020000 		.4byte	.LASF24
 3551 0116 0A       		.byte	0xa
 3552 0117 49       		.byte	0x49
 3553 0118 B4000000 		.4byte	0xb4
 3554 011c 03       		.uleb128 0x3
 3555 011d 930B0000 		.4byte	.LASF25
 3556 0121 0A       		.byte	0xa
 3557 0122 4A       		.byte	0x4a
 3558 0123 B4000000 		.4byte	0xb4
 3559 0127 03       		.uleb128 0x3
 3560 0128 77080000 		.4byte	.LASF26
 3561 012c 0A       		.byte	0xa
 3562 012d 4B       		.byte	0x4b
 3563 012e B4000000 		.4byte	0xb4
 3564 0132 03       		.uleb128 0x3
 3565 0133 5A000000 		.4byte	.LASF27
 3566 0137 0A       		.byte	0xa
 3567 0138 4C       		.byte	0x4c
 3568 0139 DA000000 		.4byte	0xda
 3569 013d 03       		.uleb128 0x3
 3570 013e 53080000 		.4byte	.LASF28
 3571 0142 0A       		.byte	0xa
 3572 0143 4D       		.byte	0x4d
 3573 0144 CA000000 		.4byte	0xca
 3574 0148 03       		.uleb128 0x3
 3575 0149 BD020000 		.4byte	.LASF29
 3576 014d 0A       		.byte	0xa
ARM GAS  C:\Users\Moi\AppData\Local\Temp\ccwG6ltn.s 			page 66


 3577 014e 4F       		.byte	0x4f
 3578 014f DA000000 		.4byte	0xda
 3579 0153 03       		.uleb128 0x3
 3580 0154 D0030000 		.4byte	.LASF30
 3581 0158 0A       		.byte	0xa
 3582 0159 51       		.byte	0x51
 3583 015a CA000000 		.4byte	0xca
 3584 015e 03       		.uleb128 0x3
 3585 015f 30050000 		.4byte	.LASF31
 3586 0163 0A       		.byte	0xa
 3587 0164 52       		.byte	0x52
 3588 0165 DA000000 		.4byte	0xda
 3589 0169 03       		.uleb128 0x3
 3590 016a 22000000 		.4byte	.LASF32
 3591 016e 0B       		.byte	0xb
 3592 016f 33       		.byte	0x33
 3593 0170 DA000000 		.4byte	0xda
 3594 0174 05       		.uleb128 0x5
 3595 0175 69010000 		.4byte	0x169
 3596 0179 03       		.uleb128 0x3
 3597 017a A6070000 		.4byte	.LASF33
 3598 017e 0B       		.byte	0xb
 3599 017f 3F       		.byte	0x3f
 3600 0180 84010000 		.4byte	0x184
 3601 0184 06       		.uleb128 0x6
 3602 0185 EB040000 		.4byte	.LASF57
 3603 0189 68       		.byte	0x68
 3604 018a 0C       		.byte	0xc
 3605 018b C2       		.byte	0xc2
 3606 018c A2020000 		.4byte	0x2a2
 3607 0190 07       		.uleb128 0x7
 3608 0191 C4010000 		.4byte	.LASF34
 3609 0195 0C       		.byte	0xc
 3610 0196 C3       		.byte	0xc3
 3611 0197 AD020000 		.4byte	0x2ad
 3612 019b 00       		.byte	0
 3613 019c 07       		.uleb128 0x7
 3614 019d 03020000 		.4byte	.LASF35
 3615 01a1 0C       		.byte	0xc
 3616 01a2 C5       		.byte	0xc5
 3617 01a3 AD020000 		.4byte	0x2ad
 3618 01a7 04       		.byte	0x4
 3619 01a8 07       		.uleb128 0x7
 3620 01a9 77030000 		.4byte	.LASF36
 3621 01ad 0C       		.byte	0xc
 3622 01ae C7       		.byte	0xc7
 3623 01af 32010000 		.4byte	0x132
 3624 01b3 08       		.byte	0x8
 3625 01b4 07       		.uleb128 0x7
 3626 01b5 47000000 		.4byte	.LASF37
 3627 01b9 0C       		.byte	0xc
 3628 01ba C8       		.byte	0xc8
 3629 01bb 2B050000 		.4byte	0x52b
 3630 01bf 0C       		.byte	0xc
 3631 01c0 07       		.uleb128 0x7
 3632 01c1 B3010000 		.4byte	.LASF38
 3633 01c5 0C       		.byte	0xc
ARM GAS  C:\Users\Moi\AppData\Local\Temp\ccwG6ltn.s 			page 67


 3634 01c6 CA       		.byte	0xca
 3635 01c7 AD020000 		.4byte	0x2ad
 3636 01cb 10       		.byte	0x10
 3637 01cc 07       		.uleb128 0x7
 3638 01cd 42080000 		.4byte	.LASF39
 3639 01d1 0C       		.byte	0xc
 3640 01d2 CB       		.byte	0xcb
 3641 01d3 AD020000 		.4byte	0x2ad
 3642 01d7 14       		.byte	0x14
 3643 01d8 07       		.uleb128 0x7
 3644 01d9 AD0C0000 		.4byte	.LASF40
 3645 01dd 0C       		.byte	0xc
 3646 01de D2       		.byte	0xd2
 3647 01df A1080000 		.4byte	0x8a1
 3648 01e3 18       		.byte	0x18
 3649 01e4 07       		.uleb128 0x7
 3650 01e5 6A0C0000 		.4byte	.LASF41
 3651 01e9 0C       		.byte	0xc
 3652 01ea D8       		.byte	0xd8
 3653 01eb B8080000 		.4byte	0x8b8
 3654 01ef 1C       		.byte	0x1c
 3655 01f0 07       		.uleb128 0x7
 3656 01f1 E50C0000 		.4byte	.LASF42
 3657 01f5 0C       		.byte	0xc
 3658 01f6 DD       		.byte	0xdd
 3659 01f7 11010000 		.4byte	0x111
 3660 01fb 20       		.byte	0x20
 3661 01fc 07       		.uleb128 0x7
 3662 01fd BA060000 		.4byte	.LASF43
 3663 0201 0C       		.byte	0xc
 3664 0202 E1       		.byte	0xe1
 3665 0203 06010000 		.4byte	0x106
 3666 0207 21       		.byte	0x21
 3667 0208 07       		.uleb128 0x7
 3668 0209 19070000 		.4byte	.LASF44
 3669 020d 0C       		.byte	0xc
 3670 020e E6       		.byte	0xe6
 3671 020f 1C010000 		.4byte	0x11c
 3672 0213 22       		.byte	0x22
 3673 0214 07       		.uleb128 0x7
 3674 0215 A3020000 		.4byte	.LASF45
 3675 0219 0C       		.byte	0xc
 3676 021a EC       		.byte	0xec
 3677 021b 27010000 		.4byte	0x127
 3678 021f 23       		.byte	0x23
 3679 0220 07       		.uleb128 0x7
 3680 0221 8B070000 		.4byte	.LASF46
 3681 0225 0C       		.byte	0xc
 3682 0226 F3       		.byte	0xf3
 3683 0227 74010000 		.4byte	0x174
 3684 022b 24       		.byte	0x24
 3685 022c 08       		.uleb128 0x8
 3686 022d 705F7500 		.ascii	"p_u\000"
 3687 0231 0C       		.byte	0xc
 3688 0232 3101     		.2byte	0x131
 3689 0234 D0070000 		.4byte	0x7d0
 3690 0238 28       		.byte	0x28
ARM GAS  C:\Users\Moi\AppData\Local\Temp\ccwG6ltn.s 			page 68


 3691 0239 09       		.uleb128 0x9
 3692 023a A6060000 		.4byte	.LASF47
 3693 023e 0C       		.byte	0xc
 3694 023f 3601     		.2byte	0x136
 3695 0241 B3020000 		.4byte	0x2b3
 3696 0245 2C       		.byte	0x2c
 3697 0246 09       		.uleb128 0x9
 3698 0247 90000000 		.4byte	.LASF48
 3699 024b 0C       		.byte	0xc
 3700 024c 3C01     		.2byte	0x13c
 3701 024e D7020000 		.4byte	0x2d7
 3702 0252 30       		.byte	0x30
 3703 0253 09       		.uleb128 0x9
 3704 0254 D30C0000 		.4byte	.LASF49
 3705 0258 0C       		.byte	0xc
 3706 0259 4001     		.2byte	0x140
 3707 025b 3D010000 		.4byte	0x13d
 3708 025f 38       		.byte	0x38
 3709 0260 09       		.uleb128 0x9
 3710 0261 08040000 		.4byte	.LASF50
 3711 0265 0C       		.byte	0xc
 3712 0266 4601     		.2byte	0x146
 3713 0268 48010000 		.4byte	0x148
 3714 026c 3C       		.byte	0x3c
 3715 026d 09       		.uleb128 0x9
 3716 026e 31020000 		.4byte	.LASF51
 3717 0272 0C       		.byte	0xc
 3718 0273 4D01     		.2byte	0x14d
 3719 0275 9B080000 		.4byte	0x89b
 3720 0279 40       		.byte	0x40
 3721 027a 09       		.uleb128 0x9
 3722 027b CE070000 		.4byte	.LASF52
 3723 027f 0C       		.byte	0xc
 3724 0280 5101     		.2byte	0x151
 3725 0282 32010000 		.4byte	0x132
 3726 0286 44       		.byte	0x44
 3727 0287 09       		.uleb128 0x9
 3728 0288 02070000 		.4byte	.LASF53
 3729 028c 0C       		.byte	0xc
 3730 028d 5801     		.2byte	0x158
 3731 028f 8A030000 		.4byte	0x38a
 3732 0293 48       		.byte	0x48
 3733 0294 09       		.uleb128 0x9
 3734 0295 00000000 		.4byte	.LASF54
 3735 0299 0C       		.byte	0xc
 3736 029a 5E01     		.2byte	0x15e
 3737 029c 81070000 		.4byte	0x781
 3738 02a0 50       		.byte	0x50
 3739 02a1 00       		.byte	0
 3740 02a2 03       		.uleb128 0x3
 3741 02a3 BB070000 		.4byte	.LASF55
 3742 02a7 0B       		.byte	0xb
 3743 02a8 44       		.byte	0x44
 3744 02a9 AD020000 		.4byte	0x2ad
 3745 02ad 0A       		.uleb128 0xa
 3746 02ae 04       		.byte	0x4
 3747 02af 79010000 		.4byte	0x179
ARM GAS  C:\Users\Moi\AppData\Local\Temp\ccwG6ltn.s 			page 69


 3748 02b3 03       		.uleb128 0x3
 3749 02b4 C40B0000 		.4byte	.LASF56
 3750 02b8 0B       		.byte	0xb
 3751 02b9 49       		.byte	0x49
 3752 02ba BE020000 		.4byte	0x2be
 3753 02be 06       		.uleb128 0x6
 3754 02bf 8B050000 		.4byte	.LASF58
 3755 02c3 04       		.byte	0x4
 3756 02c4 0C       		.byte	0xc
 3757 02c5 B0       		.byte	0xb0
 3758 02c6 D7020000 		.4byte	0x2d7
 3759 02ca 07       		.uleb128 0x7
 3760 02cb C4010000 		.4byte	.LASF34
 3761 02cf 0C       		.byte	0xc
 3762 02d0 B1       		.byte	0xb1
 3763 02d1 AD020000 		.4byte	0x2ad
 3764 02d5 00       		.byte	0
 3765 02d6 00       		.byte	0
 3766 02d7 03       		.uleb128 0x3
 3767 02d8 21020000 		.4byte	.LASF59
 3768 02dc 0B       		.byte	0xb
 3769 02dd 50       		.byte	0x50
 3770 02de E2020000 		.4byte	0x2e2
 3771 02e2 06       		.uleb128 0x6
 3772 02e3 59080000 		.4byte	.LASF60
 3773 02e7 08       		.byte	0x8
 3774 02e8 0C       		.byte	0xc
 3775 02e9 B7       		.byte	0xb7
 3776 02ea 07030000 		.4byte	0x307
 3777 02ee 07       		.uleb128 0x7
 3778 02ef C4010000 		.4byte	.LASF34
 3779 02f3 0C       		.byte	0xc
 3780 02f4 B8       		.byte	0xb8
 3781 02f5 AD020000 		.4byte	0x2ad
 3782 02f9 00       		.byte	0
 3783 02fa 07       		.uleb128 0x7
 3784 02fb 03020000 		.4byte	.LASF35
 3785 02ff 0C       		.byte	0xc
 3786 0300 B9       		.byte	0xb9
 3787 0301 AD020000 		.4byte	0x2ad
 3788 0305 04       		.byte	0x4
 3789 0306 00       		.byte	0
 3790 0307 03       		.uleb128 0x3
 3791 0308 1B050000 		.4byte	.LASF61
 3792 030c 0B       		.byte	0xb
 3793 030d 57       		.byte	0x57
 3794 030e 12030000 		.4byte	0x312
 3795 0312 0B       		.uleb128 0xb
 3796 0313 1A040000 		.4byte	.LASF62
 3797 0317 1C       		.byte	0x1c
 3798 0318 0C       		.byte	0xc
 3799 0319 9001     		.2byte	0x190
 3800 031b 6E030000 		.4byte	0x36e
 3801 031f 09       		.uleb128 0x9
 3802 0320 38090000 		.4byte	.LASF63
 3803 0324 0C       		.byte	0xc
 3804 0325 9101     		.2byte	0x191
ARM GAS  C:\Users\Moi\AppData\Local\Temp\ccwG6ltn.s 			page 70


 3805 0327 D7020000 		.4byte	0x2d7
 3806 032b 00       		.byte	0
 3807 032c 09       		.uleb128 0x9
 3808 032d EA090000 		.4byte	.LASF64
 3809 0331 0C       		.byte	0xc
 3810 0332 9201     		.2byte	0x192
 3811 0334 32010000 		.4byte	0x132
 3812 0338 08       		.byte	0x8
 3813 0339 09       		.uleb128 0x9
 3814 033a 9B000000 		.4byte	.LASF65
 3815 033e 0C       		.byte	0xc
 3816 033f 9401     		.2byte	0x194
 3817 0341 2B050000 		.4byte	0x52b
 3818 0345 0C       		.byte	0xc
 3819 0346 09       		.uleb128 0x9
 3820 0347 10030000 		.4byte	.LASF66
 3821 034b 0C       		.byte	0xc
 3822 034c 9701     		.2byte	0x197
 3823 034e AD020000 		.4byte	0x2ad
 3824 0352 10       		.byte	0x10
 3825 0353 09       		.uleb128 0x9
 3826 0354 6B090000 		.4byte	.LASF67
 3827 0358 0C       		.byte	0xc
 3828 0359 9801     		.2byte	0x198
 3829 035b AD020000 		.4byte	0x2ad
 3830 035f 14       		.byte	0x14
 3831 0360 09       		.uleb128 0x9
 3832 0361 A0080000 		.4byte	.LASF68
 3833 0365 0C       		.byte	0xc
 3834 0366 9B01     		.2byte	0x19b
 3835 0368 AD020000 		.4byte	0x2ad
 3836 036c 18       		.byte	0x18
 3837 036d 00       		.byte	0
 3838 036e 03       		.uleb128 0x3
 3839 036f B4000000 		.4byte	.LASF69
 3840 0373 0B       		.byte	0xb
 3841 0374 5C       		.byte	0x5c
 3842 0375 79030000 		.4byte	0x379
 3843 0379 0A       		.uleb128 0xa
 3844 037a 04       		.byte	0x4
 3845 037b 7F030000 		.4byte	0x37f
 3846 037f 0C       		.uleb128 0xc
 3847 0380 8A030000 		.4byte	0x38a
 3848 0384 0D       		.uleb128 0xd
 3849 0385 8A030000 		.4byte	0x38a
 3850 0389 00       		.byte	0
 3851 038a 0E       		.uleb128 0xe
 3852 038b 04       		.byte	0x4
 3853 038c 0F       		.uleb128 0xf
 3854 038d 8A030000 		.4byte	0x38a
 3855 0391 03       		.uleb128 0x3
 3856 0392 0B050000 		.4byte	.LASF70
 3857 0396 0B       		.byte	0xb
 3858 0397 61       		.byte	0x61
 3859 0398 9C030000 		.4byte	0x39c
 3860 039c 0B       		.uleb128 0xb
 3861 039d FA070000 		.4byte	.LASF71
ARM GAS  C:\Users\Moi\AppData\Local\Temp\ccwG6ltn.s 			page 71


 3862 03a1 14       		.byte	0x14
 3863 03a2 0C       		.byte	0xc
 3864 03a3 6B01     		.2byte	0x16b
 3865 03a5 EB030000 		.4byte	0x3eb
 3866 03a9 09       		.uleb128 0x9
 3867 03aa 34060000 		.4byte	.LASF72
 3868 03ae 0C       		.byte	0xc
 3869 03af 6C01     		.2byte	0x16c
 3870 03b1 BE080000 		.4byte	0x8be
 3871 03b5 00       		.byte	0
 3872 03b6 09       		.uleb128 0x9
 3873 03b7 58060000 		.4byte	.LASF73
 3874 03bb 0C       		.byte	0xc
 3875 03bc 6D01     		.2byte	0x16d
 3876 03be BE080000 		.4byte	0x8be
 3877 03c2 04       		.byte	0x4
 3878 03c3 09       		.uleb128 0x9
 3879 03c4 F1070000 		.4byte	.LASF74
 3880 03c8 0C       		.byte	0xc
 3881 03c9 6E01     		.2byte	0x16e
 3882 03cb 69010000 		.4byte	0x169
 3883 03cf 08       		.byte	0x8
 3884 03d0 09       		.uleb128 0x9
 3885 03d1 E1030000 		.4byte	.LASF75
 3886 03d5 0C       		.byte	0xc
 3887 03d6 6F01     		.2byte	0x16f
 3888 03d8 6E030000 		.4byte	0x36e
 3889 03dc 0C       		.byte	0xc
 3890 03dd 09       		.uleb128 0x9
 3891 03de 57010000 		.4byte	.LASF76
 3892 03e2 0C       		.byte	0xc
 3893 03e3 7101     		.2byte	0x171
 3894 03e5 8A030000 		.4byte	0x38a
 3895 03e9 10       		.byte	0x10
 3896 03ea 00       		.byte	0
 3897 03eb 03       		.uleb128 0x3
 3898 03ec F5040000 		.4byte	.LASF77
 3899 03f0 0B       		.byte	0xb
 3900 03f1 66       		.byte	0x66
 3901 03f2 F6030000 		.4byte	0x3f6
 3902 03f6 0B       		.uleb128 0xb
 3903 03f7 BD000000 		.4byte	.LASF78
 3904 03fb 10       		.byte	0x10
 3905 03fc 0C       		.byte	0xc
 3906 03fd 7B01     		.2byte	0x17b
 3907 03ff 38040000 		.4byte	0x438
 3908 0403 09       		.uleb128 0x9
 3909 0404 34060000 		.4byte	.LASF72
 3910 0408 0C       		.byte	0xc
 3911 0409 7C01     		.2byte	0x17c
 3912 040b BE080000 		.4byte	0x8be
 3913 040f 00       		.byte	0
 3914 0410 09       		.uleb128 0x9
 3915 0411 58060000 		.4byte	.LASF73
 3916 0415 0C       		.byte	0xc
 3917 0416 7E01     		.2byte	0x17e
 3918 0418 BE080000 		.4byte	0x8be
ARM GAS  C:\Users\Moi\AppData\Local\Temp\ccwG6ltn.s 			page 72


 3919 041c 04       		.byte	0x4
 3920 041d 09       		.uleb128 0x9
 3921 041e F1070000 		.4byte	.LASF74
 3922 0422 0C       		.byte	0xc
 3923 0423 8001     		.2byte	0x180
 3924 0425 69010000 		.4byte	0x169
 3925 0429 08       		.byte	0x8
 3926 042a 09       		.uleb128 0x9
 3927 042b 60090000 		.4byte	.LASF79
 3928 042f 0C       		.byte	0xc
 3929 0430 8201     		.2byte	0x182
 3930 0432 74010000 		.4byte	0x174
 3931 0436 0C       		.byte	0xc
 3932 0437 00       		.byte	0
 3933 0438 03       		.uleb128 0x3
 3934 0439 26030000 		.4byte	.LASF80
 3935 043d 0B       		.byte	0xb
 3936 043e 6B       		.byte	0x6b
 3937 043f 43040000 		.4byte	0x443
 3938 0443 10       		.uleb128 0x10
 3939 0444 FA090000 		.4byte	.LASF81
 3940 0448 1404     		.2byte	0x414
 3941 044a 0C       		.byte	0xc
 3942 044b A201     		.2byte	0x1a2
 3943 044d 86040000 		.4byte	0x486
 3944 0451 09       		.uleb128 0x9
 3945 0452 EC020000 		.4byte	.LASF82
 3946 0456 0C       		.byte	0xc
 3947 0457 AA01     		.2byte	0x1aa
 3948 0459 A7080000 		.4byte	0x8a7
 3949 045d 00       		.byte	0
 3950 045e 09       		.uleb128 0x9
 3951 045f 46040000 		.4byte	.LASF83
 3952 0463 0C       		.byte	0xc
 3953 0464 AF01     		.2byte	0x1af
 3954 0466 53010000 		.4byte	0x153
 3955 046a 04       		.byte	0x4
 3956 046b 09       		.uleb128 0x9
 3957 046c EF000000 		.4byte	.LASF84
 3958 0470 0C       		.byte	0xc
 3959 0471 B301     		.2byte	0x1b3
 3960 0473 53010000 		.4byte	0x153
 3961 0477 08       		.byte	0x8
 3962 0478 09       		.uleb128 0x9
 3963 0479 03030000 		.4byte	.LASF85
 3964 047d 0C       		.byte	0xc
 3965 047e B901     		.2byte	0x1b9
 3966 0480 13070000 		.4byte	0x713
 3967 0484 0C       		.byte	0xc
 3968 0485 00       		.byte	0
 3969 0486 03       		.uleb128 0x3
 3970 0487 2E0C0000 		.4byte	.LASF86
 3971 048b 0B       		.byte	0xb
 3972 048c 70       		.byte	0x70
 3973 048d 91040000 		.4byte	0x491
 3974 0491 10       		.uleb128 0x10
 3975 0492 DC0B0000 		.4byte	.LASF87
ARM GAS  C:\Users\Moi\AppData\Local\Temp\ccwG6ltn.s 			page 73


 3976 0496 7006     		.2byte	0x670
 3977 0498 0C       		.byte	0xc
 3978 0499 C201     		.2byte	0x1c2
 3979 049b FE040000 		.4byte	0x4fe
 3980 049f 09       		.uleb128 0x9
 3981 04a0 52090000 		.4byte	.LASF88
 3982 04a4 0C       		.byte	0xc
 3983 04a5 C601     		.2byte	0x1c6
 3984 04a7 07030000 		.4byte	0x307
 3985 04ab 00       		.byte	0
 3986 04ac 09       		.uleb128 0x9
 3987 04ad 6E0B0000 		.4byte	.LASF89
 3988 04b1 0C       		.byte	0xc
 3989 04b2 CA01     		.2byte	0x1ca
 3990 04b4 EB030000 		.4byte	0x3eb
 3991 04b8 1C       		.byte	0x1c
 3992 04b9 08       		.uleb128 0x8
 3993 04ba 64626700 		.ascii	"dbg\000"
 3994 04be 0C       		.byte	0xc
 3995 04bf CE01     		.2byte	0x1ce
 3996 04c1 38040000 		.4byte	0x438
 3997 04c5 2C       		.byte	0x2c
 3998 04c6 11       		.uleb128 0x11
 3999 04c7 0A090000 		.4byte	.LASF90
 4000 04cb 0C       		.byte	0xc
 4001 04cc D201     		.2byte	0x1d2
 4002 04ce 79010000 		.4byte	0x179
 4003 04d2 4004     		.2byte	0x440
 4004 04d4 12       		.uleb128 0x12
 4005 04d5 746D00   		.ascii	"tm\000"
 4006 04d8 0C       		.byte	0xc
 4007 04d9 D701     		.2byte	0x1d7
 4008 04db 33070000 		.4byte	0x733
 4009 04df A804     		.2byte	0x4a8
 4010 04e1 11       		.uleb128 0x11
 4011 04e2 1E080000 		.4byte	.LASF91
 4012 04e6 0C       		.byte	0xc
 4013 04e7 DD01     		.2byte	0x1dd
 4014 04e9 C5070000 		.4byte	0x7c5
 4015 04ed B004     		.2byte	0x4b0
 4016 04ef 11       		.uleb128 0x11
 4017 04f0 D1060000 		.4byte	.LASF92
 4018 04f4 0C       		.byte	0xc
 4019 04f5 E301     		.2byte	0x1e3
 4020 04f7 C4080000 		.4byte	0x8c4
 4021 04fb E804     		.2byte	0x4e8
 4022 04fd 00       		.byte	0
 4023 04fe 13       		.uleb128 0x13
 4024 04ff 8F060000 		.4byte	.LASF93
 4025 0503 0D       		.byte	0xd
 4026 0504 A706     		.2byte	0x6a7
 4027 0506 D5000000 		.4byte	0xd5
 4028 050a 14       		.uleb128 0x14
 4029 050b C9040000 		.4byte	.LASF94
 4030 050f 0E       		.byte	0xe
 4031 0510 4C       		.byte	0x4c
 4032 0511 DA000000 		.4byte	0xda
ARM GAS  C:\Users\Moi\AppData\Local\Temp\ccwG6ltn.s 			page 74


 4033 0515 03       		.uleb128 0x3
 4034 0516 3B020000 		.4byte	.LASF95
 4035 051a 0F       		.byte	0xf
 4036 051b 65       		.byte	0x65
 4037 051c 8A030000 		.4byte	0x38a
 4038 0520 03       		.uleb128 0x3
 4039 0521 A6030000 		.4byte	.LASF96
 4040 0525 0F       		.byte	0xf
 4041 0526 6D       		.byte	0x6d
 4042 0527 E5000000 		.4byte	0xe5
 4043 052b 06       		.uleb128 0x6
 4044 052c C9020000 		.4byte	.LASF97
 4045 0530 04       		.byte	0x4
 4046 0531 0F       		.byte	0xf
 4047 0532 89       		.byte	0x89
 4048 0533 44050000 		.4byte	0x544
 4049 0537 15       		.uleb128 0x15
 4050 0538 72313300 		.ascii	"r13\000"
 4051 053c 0F       		.byte	0xf
 4052 053d 8A       		.byte	0x8a
 4053 053e 85060000 		.4byte	0x685
 4054 0542 00       		.byte	0
 4055 0543 00       		.byte	0
 4056 0544 06       		.uleb128 0x6
 4057 0545 D9070000 		.4byte	.LASF98
 4058 0549 64       		.byte	0x64
 4059 054a 10       		.byte	0x10
 4060 054b F4       		.byte	0xf4
 4061 054c 85060000 		.4byte	0x685
 4062 0550 15       		.uleb128 0x15
 4063 0551 73313600 		.ascii	"s16\000"
 4064 0555 10       		.byte	0x10
 4065 0556 F6       		.byte	0xf6
 4066 0557 15050000 		.4byte	0x515
 4067 055b 00       		.byte	0
 4068 055c 15       		.uleb128 0x15
 4069 055d 73313700 		.ascii	"s17\000"
 4070 0561 10       		.byte	0x10
 4071 0562 F7       		.byte	0xf7
 4072 0563 15050000 		.4byte	0x515
 4073 0567 04       		.byte	0x4
 4074 0568 15       		.uleb128 0x15
 4075 0569 73313800 		.ascii	"s18\000"
 4076 056d 10       		.byte	0x10
 4077 056e F8       		.byte	0xf8
 4078 056f 15050000 		.4byte	0x515
 4079 0573 08       		.byte	0x8
 4080 0574 15       		.uleb128 0x15
 4081 0575 73313900 		.ascii	"s19\000"
 4082 0579 10       		.byte	0x10
 4083 057a F9       		.byte	0xf9
 4084 057b 15050000 		.4byte	0x515
 4085 057f 0C       		.byte	0xc
 4086 0580 15       		.uleb128 0x15
 4087 0581 73323000 		.ascii	"s20\000"
 4088 0585 10       		.byte	0x10
 4089 0586 FA       		.byte	0xfa
ARM GAS  C:\Users\Moi\AppData\Local\Temp\ccwG6ltn.s 			page 75


 4090 0587 15050000 		.4byte	0x515
 4091 058b 10       		.byte	0x10
 4092 058c 15       		.uleb128 0x15
 4093 058d 73323100 		.ascii	"s21\000"
 4094 0591 10       		.byte	0x10
 4095 0592 FB       		.byte	0xfb
 4096 0593 15050000 		.4byte	0x515
 4097 0597 14       		.byte	0x14
 4098 0598 15       		.uleb128 0x15
 4099 0599 73323200 		.ascii	"s22\000"
 4100 059d 10       		.byte	0x10
 4101 059e FC       		.byte	0xfc
 4102 059f 15050000 		.4byte	0x515
 4103 05a3 18       		.byte	0x18
 4104 05a4 15       		.uleb128 0x15
 4105 05a5 73323300 		.ascii	"s23\000"
 4106 05a9 10       		.byte	0x10
 4107 05aa FD       		.byte	0xfd
 4108 05ab 15050000 		.4byte	0x515
 4109 05af 1C       		.byte	0x1c
 4110 05b0 15       		.uleb128 0x15
 4111 05b1 73323400 		.ascii	"s24\000"
 4112 05b5 10       		.byte	0x10
 4113 05b6 FE       		.byte	0xfe
 4114 05b7 15050000 		.4byte	0x515
 4115 05bb 20       		.byte	0x20
 4116 05bc 15       		.uleb128 0x15
 4117 05bd 73323500 		.ascii	"s25\000"
 4118 05c1 10       		.byte	0x10
 4119 05c2 FF       		.byte	0xff
 4120 05c3 15050000 		.4byte	0x515
 4121 05c7 24       		.byte	0x24
 4122 05c8 08       		.uleb128 0x8
 4123 05c9 73323600 		.ascii	"s26\000"
 4124 05cd 10       		.byte	0x10
 4125 05ce 0001     		.2byte	0x100
 4126 05d0 15050000 		.4byte	0x515
 4127 05d4 28       		.byte	0x28
 4128 05d5 08       		.uleb128 0x8
 4129 05d6 73323700 		.ascii	"s27\000"
 4130 05da 10       		.byte	0x10
 4131 05db 0101     		.2byte	0x101
 4132 05dd 15050000 		.4byte	0x515
 4133 05e1 2C       		.byte	0x2c
 4134 05e2 08       		.uleb128 0x8
 4135 05e3 73323800 		.ascii	"s28\000"
 4136 05e7 10       		.byte	0x10
 4137 05e8 0201     		.2byte	0x102
 4138 05ea 15050000 		.4byte	0x515
 4139 05ee 30       		.byte	0x30
 4140 05ef 08       		.uleb128 0x8
 4141 05f0 73323900 		.ascii	"s29\000"
 4142 05f4 10       		.byte	0x10
 4143 05f5 0301     		.2byte	0x103
 4144 05f7 15050000 		.4byte	0x515
 4145 05fb 34       		.byte	0x34
 4146 05fc 08       		.uleb128 0x8
ARM GAS  C:\Users\Moi\AppData\Local\Temp\ccwG6ltn.s 			page 76


 4147 05fd 73333000 		.ascii	"s30\000"
 4148 0601 10       		.byte	0x10
 4149 0602 0401     		.2byte	0x104
 4150 0604 15050000 		.4byte	0x515
 4151 0608 38       		.byte	0x38
 4152 0609 08       		.uleb128 0x8
 4153 060a 73333100 		.ascii	"s31\000"
 4154 060e 10       		.byte	0x10
 4155 060f 0501     		.2byte	0x105
 4156 0611 15050000 		.4byte	0x515
 4157 0615 3C       		.byte	0x3c
 4158 0616 08       		.uleb128 0x8
 4159 0617 723400   		.ascii	"r4\000"
 4160 061a 10       		.byte	0x10
 4161 061b 0701     		.2byte	0x107
 4162 061d 15050000 		.4byte	0x515
 4163 0621 40       		.byte	0x40
 4164 0622 08       		.uleb128 0x8
 4165 0623 723500   		.ascii	"r5\000"
 4166 0626 10       		.byte	0x10
 4167 0627 0801     		.2byte	0x108
 4168 0629 15050000 		.4byte	0x515
 4169 062d 44       		.byte	0x44
 4170 062e 08       		.uleb128 0x8
 4171 062f 723600   		.ascii	"r6\000"
 4172 0632 10       		.byte	0x10
 4173 0633 0901     		.2byte	0x109
 4174 0635 15050000 		.4byte	0x515
 4175 0639 48       		.byte	0x48
 4176 063a 08       		.uleb128 0x8
 4177 063b 723700   		.ascii	"r7\000"
 4178 063e 10       		.byte	0x10
 4179 063f 0A01     		.2byte	0x10a
 4180 0641 15050000 		.4byte	0x515
 4181 0645 4C       		.byte	0x4c
 4182 0646 08       		.uleb128 0x8
 4183 0647 723800   		.ascii	"r8\000"
 4184 064a 10       		.byte	0x10
 4185 064b 0B01     		.2byte	0x10b
 4186 064d 15050000 		.4byte	0x515
 4187 0651 50       		.byte	0x50
 4188 0652 08       		.uleb128 0x8
 4189 0653 723900   		.ascii	"r9\000"
 4190 0656 10       		.byte	0x10
 4191 0657 0C01     		.2byte	0x10c
 4192 0659 15050000 		.4byte	0x515
 4193 065d 54       		.byte	0x54
 4194 065e 08       		.uleb128 0x8
 4195 065f 72313000 		.ascii	"r10\000"
 4196 0663 10       		.byte	0x10
 4197 0664 0D01     		.2byte	0x10d
 4198 0666 15050000 		.4byte	0x515
 4199 066a 58       		.byte	0x58
 4200 066b 08       		.uleb128 0x8
 4201 066c 72313100 		.ascii	"r11\000"
 4202 0670 10       		.byte	0x10
 4203 0671 0E01     		.2byte	0x10e
ARM GAS  C:\Users\Moi\AppData\Local\Temp\ccwG6ltn.s 			page 77


 4204 0673 15050000 		.4byte	0x515
 4205 0677 5C       		.byte	0x5c
 4206 0678 08       		.uleb128 0x8
 4207 0679 6C7200   		.ascii	"lr\000"
 4208 067c 10       		.byte	0x10
 4209 067d 0F01     		.2byte	0x10f
 4210 067f 15050000 		.4byte	0x515
 4211 0683 60       		.byte	0x60
 4212 0684 00       		.byte	0
 4213 0685 0A       		.uleb128 0xa
 4214 0686 04       		.byte	0x4
 4215 0687 44050000 		.4byte	0x544
 4216 068b 16       		.uleb128 0x16
 4217 068c 10       		.byte	0x10
 4218 068d 11       		.byte	0x11
 4219 068e 51       		.byte	0x51
 4220 068f C4060000 		.4byte	0x6c4
 4221 0693 07       		.uleb128 0x7
 4222 0694 A50C0000 		.4byte	.LASF99
 4223 0698 11       		.byte	0x11
 4224 0699 55       		.byte	0x55
 4225 069a 69010000 		.4byte	0x169
 4226 069e 00       		.byte	0
 4227 069f 07       		.uleb128 0x7
 4228 06a0 10010000 		.4byte	.LASF100
 4229 06a4 11       		.byte	0x11
 4230 06a5 59       		.byte	0x59
 4231 06a6 AD020000 		.4byte	0x2ad
 4232 06aa 04       		.byte	0x4
 4233 06ab 07       		.uleb128 0x7
 4234 06ac B0060000 		.4byte	.LASF101
 4235 06b0 11       		.byte	0x11
 4236 06b1 5D       		.byte	0x5d
 4237 06b2 8A030000 		.4byte	0x38a
 4238 06b6 08       		.byte	0x8
 4239 06b7 07       		.uleb128 0x7
 4240 06b8 63040000 		.4byte	.LASF102
 4241 06bc 11       		.byte	0x11
 4242 06bd 61       		.byte	0x61
 4243 06be B4000000 		.4byte	0xb4
 4244 06c2 0C       		.byte	0xc
 4245 06c3 00       		.byte	0
 4246 06c4 03       		.uleb128 0x3
 4247 06c5 AD050000 		.4byte	.LASF103
 4248 06c9 11       		.byte	0x11
 4249 06ca 62       		.byte	0x62
 4250 06cb 8B060000 		.4byte	0x68b
 4251 06cf 17       		.uleb128 0x17
 4252 06d0 0804     		.2byte	0x408
 4253 06d2 11       		.byte	0x11
 4254 06d3 67       		.byte	0x67
 4255 06d4 FD060000 		.4byte	0x6fd
 4256 06d8 07       		.uleb128 0x7
 4257 06d9 6B060000 		.4byte	.LASF104
 4258 06dd 11       		.byte	0x11
 4259 06de 6B       		.byte	0x6b
 4260 06df 37000000 		.4byte	0x37
ARM GAS  C:\Users\Moi\AppData\Local\Temp\ccwG6ltn.s 			page 78


 4261 06e3 00       		.byte	0
 4262 06e4 07       		.uleb128 0x7
 4263 06e5 BB0C0000 		.4byte	.LASF105
 4264 06e9 11       		.byte	0x11
 4265 06ea 6F       		.byte	0x6f
 4266 06eb FD060000 		.4byte	0x6fd
 4267 06ef 04       		.byte	0x4
 4268 06f0 07       		.uleb128 0x7
 4269 06f1 59070000 		.4byte	.LASF106
 4270 06f5 11       		.byte	0x11
 4271 06f6 73       		.byte	0x73
 4272 06f7 03070000 		.4byte	0x703
 4273 06fb 08       		.byte	0x8
 4274 06fc 00       		.byte	0
 4275 06fd 0A       		.uleb128 0xa
 4276 06fe 04       		.byte	0x4
 4277 06ff C4060000 		.4byte	0x6c4
 4278 0703 18       		.uleb128 0x18
 4279 0704 C4060000 		.4byte	0x6c4
 4280 0708 13070000 		.4byte	0x713
 4281 070c 19       		.uleb128 0x19
 4282 070d 37000000 		.4byte	0x37
 4283 0711 3F       		.byte	0x3f
 4284 0712 00       		.byte	0
 4285 0713 03       		.uleb128 0x3
 4286 0714 F6030000 		.4byte	.LASF107
 4287 0718 11       		.byte	0x11
 4288 0719 74       		.byte	0x74
 4289 071a CF060000 		.4byte	0x6cf
 4290 071e 16       		.uleb128 0x16
 4291 071f 04       		.byte	0x4
 4292 0720 12       		.byte	0x12
 4293 0721 38       		.byte	0x38
 4294 0722 33070000 		.4byte	0x733
 4295 0726 07       		.uleb128 0x7
 4296 0727 52070000 		.4byte	.LASF108
 4297 072b 12       		.byte	0x12
 4298 072c 3C       		.byte	0x3c
 4299 072d F0000000 		.4byte	0xf0
 4300 0731 00       		.byte	0
 4301 0732 00       		.byte	0
 4302 0733 03       		.uleb128 0x3
 4303 0734 73090000 		.4byte	.LASF109
 4304 0738 12       		.byte	0x12
 4305 0739 3D       		.byte	0x3d
 4306 073a 1E070000 		.4byte	0x71e
 4307 073e 16       		.uleb128 0x16
 4308 073f 18       		.byte	0x18
 4309 0740 12       		.byte	0x12
 4310 0741 48       		.byte	0x48
 4311 0742 81070000 		.4byte	0x781
 4312 0746 07       		.uleb128 0x7
 4313 0747 33090000 		.4byte	.LASF110
 4314 074b 12       		.byte	0x12
 4315 074c 49       		.byte	0x49
 4316 074d F0000000 		.4byte	0xf0
 4317 0751 00       		.byte	0
ARM GAS  C:\Users\Moi\AppData\Local\Temp\ccwG6ltn.s 			page 79


 4318 0752 07       		.uleb128 0x7
 4319 0753 BD030000 		.4byte	.LASF111
 4320 0757 12       		.byte	0x12
 4321 0758 4A       		.byte	0x4a
 4322 0759 F0000000 		.4byte	0xf0
 4323 075d 04       		.byte	0x4
 4324 075e 07       		.uleb128 0x7
 4325 075f CE0C0000 		.4byte	.LASF112
 4326 0763 12       		.byte	0x12
 4327 0764 4B       		.byte	0x4b
 4328 0765 F0000000 		.4byte	0xf0
 4329 0769 08       		.byte	0x8
 4330 076a 15       		.uleb128 0x15
 4331 076b 6E00     		.ascii	"n\000"
 4332 076d 12       		.byte	0x12
 4333 076e 4C       		.byte	0x4c
 4334 076f 5E010000 		.4byte	0x15e
 4335 0773 0C       		.byte	0xc
 4336 0774 07       		.uleb128 0x7
 4337 0775 8C020000 		.4byte	.LASF113
 4338 0779 12       		.byte	0x12
 4339 077a 4D       		.byte	0x4d
 4340 077b FB000000 		.4byte	0xfb
 4341 077f 10       		.byte	0x10
 4342 0780 00       		.byte	0
 4343 0781 03       		.uleb128 0x3
 4344 0782 16010000 		.4byte	.LASF114
 4345 0786 12       		.byte	0x12
 4346 0787 4E       		.byte	0x4e
 4347 0788 3E070000 		.4byte	0x73e
 4348 078c 16       		.uleb128 0x16
 4349 078d 38       		.byte	0x38
 4350 078e 13       		.byte	0x13
 4351 078f 38       		.byte	0x38
 4352 0790 C5070000 		.4byte	0x7c5
 4353 0794 07       		.uleb128 0x7
 4354 0795 D7050000 		.4byte	.LASF115
 4355 0799 13       		.byte	0x13
 4356 079a 39       		.byte	0x39
 4357 079b 5E010000 		.4byte	0x15e
 4358 079f 00       		.byte	0
 4359 07a0 07       		.uleb128 0x7
 4360 07a1 90030000 		.4byte	.LASF116
 4361 07a5 13       		.byte	0x13
 4362 07a6 3A       		.byte	0x3a
 4363 07a7 5E010000 		.4byte	0x15e
 4364 07ab 04       		.byte	0x4
 4365 07ac 07       		.uleb128 0x7
 4366 07ad 6C040000 		.4byte	.LASF117
 4367 07b1 13       		.byte	0x13
 4368 07b2 3B       		.byte	0x3b
 4369 07b3 81070000 		.4byte	0x781
 4370 07b7 08       		.byte	0x8
 4371 07b8 07       		.uleb128 0x7
 4372 07b9 4E040000 		.4byte	.LASF118
 4373 07bd 13       		.byte	0x13
 4374 07be 3D       		.byte	0x3d
ARM GAS  C:\Users\Moi\AppData\Local\Temp\ccwG6ltn.s 			page 80


 4375 07bf 81070000 		.4byte	0x781
 4376 07c3 20       		.byte	0x20
 4377 07c4 00       		.byte	0
 4378 07c5 03       		.uleb128 0x3
 4379 07c6 3A070000 		.4byte	.LASF119
 4380 07ca 13       		.byte	0x13
 4381 07cb 3F       		.byte	0x3f
 4382 07cc 8C070000 		.4byte	0x78c
 4383 07d0 1A       		.uleb128 0x1a
 4384 07d1 04       		.byte	0x4
 4385 07d2 0C       		.byte	0xc
 4386 07d3 FA       		.byte	0xfa
 4387 07d4 2D080000 		.4byte	0x82d
 4388 07d8 1B       		.uleb128 0x1b
 4389 07d9 140C0000 		.4byte	.LASF120
 4390 07dd 0C       		.byte	0xc
 4391 07de 0101     		.2byte	0x101
 4392 07e0 3D010000 		.4byte	0x13d
 4393 07e4 1B       		.uleb128 0x1b
 4394 07e5 5E010000 		.4byte	.LASF121
 4395 07e9 0C       		.byte	0xc
 4396 07ea 0801     		.2byte	0x108
 4397 07ec 3D010000 		.4byte	0x13d
 4398 07f0 1B       		.uleb128 0x1b
 4399 07f1 89030000 		.4byte	.LASF122
 4400 07f5 0C       		.byte	0xc
 4401 07f6 0F01     		.2byte	0x10f
 4402 07f8 8A030000 		.4byte	0x38a
 4403 07fc 1B       		.uleb128 0x1b
 4404 07fd D1020000 		.4byte	.LASF123
 4405 0801 0C       		.byte	0xc
 4406 0802 1601     		.2byte	0x116
 4407 0804 2D080000 		.4byte	0x82d
 4408 0808 1B       		.uleb128 0x1b
 4409 0809 0F000000 		.4byte	.LASF124
 4410 080d 0C       		.byte	0xc
 4411 080e 1E01     		.2byte	0x11e
 4412 0810 58080000 		.4byte	0x858
 4413 0814 1B       		.uleb128 0x1b
 4414 0815 13040000 		.4byte	.LASF125
 4415 0819 0C       		.byte	0xc
 4416 081a 2701     		.2byte	0x127
 4417 081c 9B080000 		.4byte	0x89b
 4418 0820 1B       		.uleb128 0x1b
 4419 0821 82010000 		.4byte	.LASF126
 4420 0825 0C       		.byte	0xc
 4421 0826 2F01     		.2byte	0x12f
 4422 0828 48010000 		.4byte	0x148
 4423 082c 00       		.byte	0
 4424 082d 0A       		.uleb128 0xa
 4425 082e 04       		.byte	0x4
 4426 082f A2020000 		.4byte	0x2a2
 4427 0833 06       		.uleb128 0x6
 4428 0834 D9040000 		.4byte	.LASF127
 4429 0838 0C       		.byte	0xc
 4430 0839 14       		.byte	0x14
 4431 083a 34       		.byte	0x34
ARM GAS  C:\Users\Moi\AppData\Local\Temp\ccwG6ltn.s 			page 81


 4432 083b 58080000 		.4byte	0x858
 4433 083f 07       		.uleb128 0x7
 4434 0840 AA090000 		.4byte	.LASF128
 4435 0844 14       		.byte	0x14
 4436 0845 35       		.byte	0x35
 4437 0846 D7020000 		.4byte	0x2d7
 4438 084a 00       		.byte	0
 4439 084b 07       		.uleb128 0x7
 4440 084c 0B080000 		.4byte	.LASF129
 4441 0850 14       		.byte	0x14
 4442 0851 37       		.byte	0x37
 4443 0852 53010000 		.4byte	0x153
 4444 0856 08       		.byte	0x8
 4445 0857 00       		.byte	0
 4446 0858 0A       		.uleb128 0xa
 4447 0859 04       		.byte	0x4
 4448 085a 33080000 		.4byte	0x833
 4449 085e 06       		.uleb128 0x6
 4450 085f D3090000 		.4byte	.LASF130
 4451 0863 14       		.byte	0x14
 4452 0864 15       		.byte	0x15
 4453 0865 39       		.byte	0x39
 4454 0866 9B080000 		.4byte	0x89b
 4455 086a 07       		.uleb128 0x7
 4456 086b 2C060000 		.4byte	.LASF131
 4457 086f 15       		.byte	0x15
 4458 0870 3A       		.byte	0x3a
 4459 0871 D7020000 		.4byte	0x2d7
 4460 0875 00       		.byte	0
 4461 0876 07       		.uleb128 0x7
 4462 0877 4F010000 		.4byte	.LASF132
 4463 087b 15       		.byte	0x15
 4464 087c 3C       		.byte	0x3c
 4465 087d AD020000 		.4byte	0x2ad
 4466 0881 08       		.byte	0x8
 4467 0882 07       		.uleb128 0x7
 4468 0883 B40C0000 		.4byte	.LASF133
 4469 0887 15       		.byte	0x15
 4470 0888 3E       		.byte	0x3e
 4471 0889 010A0000 		.4byte	0xa01
 4472 088d 0C       		.byte	0xc
 4473 088e 07       		.uleb128 0x7
 4474 088f 60030000 		.4byte	.LASF134
 4475 0893 15       		.byte	0x15
 4476 0894 41       		.byte	0x41
 4477 0895 53010000 		.4byte	0x153
 4478 0899 10       		.byte	0x10
 4479 089a 00       		.byte	0
 4480 089b 0A       		.uleb128 0xa
 4481 089c 04       		.byte	0x4
 4482 089d 5E080000 		.4byte	0x85e
 4483 08a1 0A       		.uleb128 0xa
 4484 08a2 04       		.byte	0x4
 4485 08a3 B3080000 		.4byte	0x8b3
 4486 08a7 05       		.uleb128 0x5
 4487 08a8 A1080000 		.4byte	0x8a1
 4488 08ac 04       		.uleb128 0x4
ARM GAS  C:\Users\Moi\AppData\Local\Temp\ccwG6ltn.s 			page 82


 4489 08ad 01       		.byte	0x1
 4490 08ae 08       		.byte	0x8
 4491 08af 5B030000 		.4byte	.LASF135
 4492 08b3 0F       		.uleb128 0xf
 4493 08b4 AC080000 		.4byte	0x8ac
 4494 08b8 0A       		.uleb128 0xa
 4495 08b9 04       		.byte	0x4
 4496 08ba 20050000 		.4byte	0x520
 4497 08be 0A       		.uleb128 0xa
 4498 08bf 04       		.byte	0x4
 4499 08c0 91030000 		.4byte	0x391
 4500 08c4 18       		.uleb128 0x18
 4501 08c5 20050000 		.4byte	0x520
 4502 08c9 D4080000 		.4byte	0x8d4
 4503 08cd 19       		.uleb128 0x19
 4504 08ce 37000000 		.4byte	0x37
 4505 08d2 30       		.byte	0x30
 4506 08d3 00       		.byte	0
 4507 08d4 1C       		.uleb128 0x1c
 4508 08d5 636800   		.ascii	"ch\000"
 4509 08d8 0C       		.byte	0xc
 4510 08d9 0902     		.2byte	0x209
 4511 08db 86040000 		.4byte	0x486
 4512 08df 16       		.uleb128 0x16
 4513 08e0 16       		.byte	0x16
 4514 08e1 16       		.byte	0x16
 4515 08e2 34       		.byte	0x34
 4516 08e3 C0090000 		.4byte	0x9c0
 4517 08e7 07       		.uleb128 0x7
 4518 08e8 39000000 		.4byte	.LASF136
 4519 08ec 16       		.byte	0x16
 4520 08ed 35       		.byte	0x35
 4521 08ee C0090000 		.4byte	0x9c0
 4522 08f2 00       		.byte	0
 4523 08f3 07       		.uleb128 0x7
 4524 08f4 A0040000 		.4byte	.LASF137
 4525 08f8 16       		.byte	0x16
 4526 08f9 36       		.byte	0x36
 4527 08fa B4000000 		.4byte	0xb4
 4528 08fe 04       		.byte	0x4
 4529 08ff 07       		.uleb128 0x7
 4530 0900 560C0000 		.4byte	.LASF138
 4531 0904 16       		.byte	0x16
 4532 0905 37       		.byte	0x37
 4533 0906 B4000000 		.4byte	0xb4
 4534 090a 05       		.byte	0x5
 4535 090b 07       		.uleb128 0x7
 4536 090c 21060000 		.4byte	.LASF139
 4537 0910 16       		.byte	0x16
 4538 0911 38       		.byte	0x38
 4539 0912 BF000000 		.4byte	0xbf
 4540 0916 06       		.byte	0x6
 4541 0917 07       		.uleb128 0x7
 4542 0918 F8000000 		.4byte	.LASF140
 4543 091c 16       		.byte	0x16
 4544 091d 39       		.byte	0x39
 4545 091e B4000000 		.4byte	0xb4
ARM GAS  C:\Users\Moi\AppData\Local\Temp\ccwG6ltn.s 			page 83


 4546 0922 08       		.byte	0x8
 4547 0923 07       		.uleb128 0x7
 4548 0924 20070000 		.4byte	.LASF141
 4549 0928 16       		.byte	0x16
 4550 0929 3A       		.byte	0x3a
 4551 092a B4000000 		.4byte	0xb4
 4552 092e 09       		.byte	0x9
 4553 092f 07       		.uleb128 0x7
 4554 0930 89010000 		.4byte	.LASF142
 4555 0934 16       		.byte	0x16
 4556 0935 3B       		.byte	0x3b
 4557 0936 B4000000 		.4byte	0xb4
 4558 093a 0A       		.byte	0xa
 4559 093b 07       		.uleb128 0x7
 4560 093c B1030000 		.4byte	.LASF143
 4561 0940 16       		.byte	0x16
 4562 0941 3C       		.byte	0x3c
 4563 0942 B4000000 		.4byte	0xb4
 4564 0946 0B       		.byte	0xb
 4565 0947 07       		.uleb128 0x7
 4566 0948 A9000000 		.4byte	.LASF144
 4567 094c 16       		.byte	0x16
 4568 094d 3D       		.byte	0x3d
 4569 094e B4000000 		.4byte	0xb4
 4570 0952 0C       		.byte	0xc
 4571 0953 07       		.uleb128 0x7
 4572 0954 99030000 		.4byte	.LASF145
 4573 0958 16       		.byte	0x16
 4574 0959 3E       		.byte	0x3e
 4575 095a B4000000 		.4byte	0xb4
 4576 095e 0D       		.byte	0xd
 4577 095f 07       		.uleb128 0x7
 4578 0960 390B0000 		.4byte	.LASF146
 4579 0964 16       		.byte	0x16
 4580 0965 3F       		.byte	0x3f
 4581 0966 B4000000 		.4byte	0xb4
 4582 096a 0E       		.byte	0xe
 4583 096b 07       		.uleb128 0x7
 4584 096c 16000000 		.4byte	.LASF147
 4585 0970 16       		.byte	0x16
 4586 0971 40       		.byte	0x40
 4587 0972 B4000000 		.4byte	0xb4
 4588 0976 0F       		.byte	0xf
 4589 0977 07       		.uleb128 0x7
 4590 0978 A90B0000 		.4byte	.LASF148
 4591 097c 16       		.byte	0x16
 4592 097d 41       		.byte	0x41
 4593 097e B4000000 		.4byte	0xb4
 4594 0982 10       		.byte	0x10
 4595 0983 07       		.uleb128 0x7
 4596 0984 F6010000 		.4byte	.LASF149
 4597 0988 16       		.byte	0x16
 4598 0989 43       		.byte	0x43
 4599 098a B4000000 		.4byte	0xb4
 4600 098e 11       		.byte	0x11
 4601 098f 07       		.uleb128 0x7
 4602 0990 6A080000 		.4byte	.LASF150
ARM GAS  C:\Users\Moi\AppData\Local\Temp\ccwG6ltn.s 			page 84


 4603 0994 16       		.byte	0x16
 4604 0995 44       		.byte	0x44
 4605 0996 B4000000 		.4byte	0xb4
 4606 099a 12       		.byte	0x12
 4607 099b 07       		.uleb128 0x7
 4608 099c 92070000 		.4byte	.LASF151
 4609 09a0 16       		.byte	0x16
 4610 09a1 45       		.byte	0x45
 4611 09a2 B4000000 		.4byte	0xb4
 4612 09a6 13       		.byte	0x13
 4613 09a7 07       		.uleb128 0x7
 4614 09a8 E8050000 		.4byte	.LASF152
 4615 09ac 16       		.byte	0x16
 4616 09ad 46       		.byte	0x46
 4617 09ae B4000000 		.4byte	0xb4
 4618 09b2 14       		.byte	0x14
 4619 09b3 07       		.uleb128 0x7
 4620 09b4 E5070000 		.4byte	.LASF153
 4621 09b8 16       		.byte	0x16
 4622 09b9 48       		.byte	0x48
 4623 09ba B4000000 		.4byte	0xb4
 4624 09be 15       		.byte	0x15
 4625 09bf 00       		.byte	0
 4626 09c0 18       		.uleb128 0x18
 4627 09c1 AC080000 		.4byte	0x8ac
 4628 09c5 D0090000 		.4byte	0x9d0
 4629 09c9 19       		.uleb128 0x19
 4630 09ca 37000000 		.4byte	0x37
 4631 09ce 03       		.byte	0x3
 4632 09cf 00       		.byte	0
 4633 09d0 03       		.uleb128 0x3
 4634 09d1 3A0C0000 		.4byte	.LASF154
 4635 09d5 16       		.byte	0x16
 4636 09d6 49       		.byte	0x49
 4637 09d7 DF080000 		.4byte	0x8df
 4638 09db 0F       		.uleb128 0xf
 4639 09dc D0090000 		.4byte	0x9d0
 4640 09e0 14       		.uleb128 0x14
 4641 09e1 7A000000 		.4byte	.LASF155
 4642 09e5 16       		.byte	0x16
 4643 09e6 6E       		.byte	0x6e
 4644 09e7 DB090000 		.4byte	0x9db
 4645 09eb 03       		.uleb128 0x3
 4646 09ec C20C0000 		.4byte	.LASF156
 4647 09f0 14       		.byte	0x14
 4648 09f1 38       		.byte	0x38
 4649 09f2 33080000 		.4byte	0x833
 4650 09f6 03       		.uleb128 0x3
 4651 09f7 8B0B0000 		.4byte	.LASF157
 4652 09fb 15       		.byte	0x15
 4653 09fc 34       		.byte	0x34
 4654 09fd 5E080000 		.4byte	0x85e
 4655 0a01 0A       		.uleb128 0xa
 4656 0a02 04       		.byte	0x4
 4657 0a03 F6090000 		.4byte	0x9f6
 4658 0a07 03       		.uleb128 0x3
 4659 0a08 460B0000 		.4byte	.LASF158
ARM GAS  C:\Users\Moi\AppData\Local\Temp\ccwG6ltn.s 			page 85


 4660 0a0c 06       		.byte	0x6
 4661 0a0d 3F       		.byte	0x3f
 4662 0a0e 120A0000 		.4byte	0xa12
 4663 0a12 06       		.uleb128 0x6
 4664 0a13 5B020000 		.4byte	.LASF159
 4665 0a17 24       		.byte	0x24
 4666 0a18 06       		.byte	0x6
 4667 0a19 4D       		.byte	0x4d
 4668 0a1a 7F0A0000 		.4byte	0xa7f
 4669 0a1e 07       		.uleb128 0x7
 4670 0a1f 40090000 		.4byte	.LASF160
 4671 0a23 06       		.byte	0x6
 4672 0a24 4E       		.byte	0x4e
 4673 0a25 D7020000 		.4byte	0x2d7
 4674 0a29 00       		.byte	0
 4675 0a2a 07       		.uleb128 0x7
 4676 0a2b 59040000 		.4byte	.LASF161
 4677 0a2f 06       		.byte	0x6
 4678 0a30 4F       		.byte	0x4f
 4679 0a31 2C000000 		.4byte	0x2c
 4680 0a35 08       		.byte	0x8
 4681 0a36 07       		.uleb128 0x7
 4682 0a37 97010000 		.4byte	.LASF162
 4683 0a3b 06       		.byte	0x6
 4684 0a3c 50       		.byte	0x50
 4685 0a3d A10A0000 		.4byte	0xaa1
 4686 0a41 0C       		.byte	0xc
 4687 0a42 07       		.uleb128 0x7
 4688 0a43 7C010000 		.4byte	.LASF163
 4689 0a47 06       		.byte	0x6
 4690 0a48 51       		.byte	0x51
 4691 0a49 A10A0000 		.4byte	0xaa1
 4692 0a4d 10       		.byte	0x10
 4693 0a4e 07       		.uleb128 0x7
 4694 0a4f 28050000 		.4byte	.LASF164
 4695 0a53 06       		.byte	0x6
 4696 0a54 53       		.byte	0x53
 4697 0a55 A10A0000 		.4byte	0xaa1
 4698 0a59 14       		.byte	0x14
 4699 0a5a 07       		.uleb128 0x7
 4700 0a5b D7010000 		.4byte	.LASF165
 4701 0a5f 06       		.byte	0x6
 4702 0a60 54       		.byte	0x54
 4703 0a61 A10A0000 		.4byte	0xaa1
 4704 0a65 18       		.byte	0x18
 4705 0a66 07       		.uleb128 0x7
 4706 0a67 AA010000 		.4byte	.LASF166
 4707 0a6b 06       		.byte	0x6
 4708 0a6c 55       		.byte	0x55
 4709 0a6d 7F0A0000 		.4byte	0xa7f
 4710 0a71 1C       		.byte	0x1c
 4711 0a72 07       		.uleb128 0x7
 4712 0a73 E5020000 		.4byte	.LASF167
 4713 0a77 06       		.byte	0x6
 4714 0a78 56       		.byte	0x56
 4715 0a79 8A030000 		.4byte	0x38a
 4716 0a7d 20       		.byte	0x20
ARM GAS  C:\Users\Moi\AppData\Local\Temp\ccwG6ltn.s 			page 86


 4717 0a7e 00       		.byte	0
 4718 0a7f 03       		.uleb128 0x3
 4719 0a80 9C060000 		.4byte	.LASF168
 4720 0a84 06       		.byte	0x6
 4721 0a85 42       		.byte	0x42
 4722 0a86 8A0A0000 		.4byte	0xa8a
 4723 0a8a 0A       		.uleb128 0xa
 4724 0a8b 04       		.byte	0x4
 4725 0a8c 900A0000 		.4byte	0xa90
 4726 0a90 0C       		.uleb128 0xc
 4727 0a91 9B0A0000 		.4byte	0xa9b
 4728 0a95 0D       		.uleb128 0xd
 4729 0a96 9B0A0000 		.4byte	0xa9b
 4730 0a9a 00       		.byte	0
 4731 0a9b 0A       		.uleb128 0xa
 4732 0a9c 04       		.byte	0x4
 4733 0a9d 070A0000 		.4byte	0xa07
 4734 0aa1 0A       		.uleb128 0xa
 4735 0aa2 04       		.byte	0x4
 4736 0aa3 B4000000 		.4byte	0xb4
 4737 0aa7 03       		.uleb128 0x3
 4738 0aa8 FC0B0000 		.4byte	.LASF169
 4739 0aac 06       		.byte	0x6
 4740 0aad 64       		.byte	0x64
 4741 0aae 070A0000 		.4byte	0xa07
 4742 0ab2 06       		.uleb128 0x6
 4743 0ab3 F1090000 		.4byte	.LASF170
 4744 0ab7 10       		.byte	0x10
 4745 0ab8 17       		.byte	0x17
 4746 0ab9 3B       		.byte	0x3b
 4747 0aba EF0A0000 		.4byte	0xaef
 4748 0abe 07       		.uleb128 0x7
 4749 0abf 9B090000 		.4byte	.LASF171
 4750 0ac3 17       		.byte	0x17
 4751 0ac4 3C       		.byte	0x3c
 4752 0ac5 A1080000 		.4byte	0x8a1
 4753 0ac9 00       		.byte	0
 4754 0aca 07       		.uleb128 0x7
 4755 0acb F0030000 		.4byte	.LASF172
 4756 0acf 17       		.byte	0x17
 4757 0ad0 3D       		.byte	0x3d
 4758 0ad1 F50A0000 		.4byte	0xaf5
 4759 0ad5 04       		.byte	0x4
 4760 0ad6 07       		.uleb128 0x7
 4761 0ad7 49070000 		.4byte	.LASF173
 4762 0adb 17       		.byte	0x17
 4763 0adc 3E       		.byte	0x3e
 4764 0add F50A0000 		.4byte	0xaf5
 4765 0ae1 08       		.byte	0x8
 4766 0ae2 07       		.uleb128 0x7
 4767 0ae3 AA080000 		.4byte	.LASF174
 4768 0ae7 17       		.byte	0x17
 4769 0ae8 3F       		.byte	0x3f
 4770 0ae9 F50A0000 		.4byte	0xaf5
 4771 0aed 0C       		.byte	0xc
 4772 0aee 00       		.byte	0
 4773 0aef 0F       		.uleb128 0xf
ARM GAS  C:\Users\Moi\AppData\Local\Temp\ccwG6ltn.s 			page 87


 4774 0af0 B20A0000 		.4byte	0xab2
 4775 0af4 1D       		.uleb128 0x1d
 4776 0af5 0A       		.uleb128 0xa
 4777 0af6 04       		.byte	0x4
 4778 0af7 F40A0000 		.4byte	0xaf4
 4779 0afb 17       		.uleb128 0x17
 4780 0afc D809     		.2byte	0x9d8
 4781 0afe 17       		.byte	0x17
 4782 0aff 44       		.byte	0x44
 4783 0b00 400B0000 		.4byte	0xb40
 4784 0b04 15       		.uleb128 0x15
 4785 0b05 543000   		.ascii	"T0\000"
 4786 0b08 17       		.byte	0x17
 4787 0b09 45       		.byte	0x45
 4788 0b0a 400B0000 		.4byte	0xb40
 4789 0b0e 00       		.byte	0
 4790 0b0f 1E       		.uleb128 0x1e
 4791 0b10 543100   		.ascii	"T1\000"
 4792 0b13 17       		.byte	0x17
 4793 0b14 46       		.byte	0x46
 4794 0b15 400B0000 		.4byte	0xb40
 4795 0b19 F801     		.2byte	0x1f8
 4796 0b1b 1E       		.uleb128 0x1e
 4797 0b1c 543200   		.ascii	"T2\000"
 4798 0b1f 17       		.byte	0x17
 4799 0b20 47       		.byte	0x47
 4800 0b21 400B0000 		.4byte	0xb40
 4801 0b25 F003     		.2byte	0x3f0
 4802 0b27 1E       		.uleb128 0x1e
 4803 0b28 543300   		.ascii	"T3\000"
 4804 0b2b 17       		.byte	0x17
 4805 0b2c 48       		.byte	0x48
 4806 0b2d 400B0000 		.4byte	0xb40
 4807 0b31 E805     		.2byte	0x5e8
 4808 0b33 1E       		.uleb128 0x1e
 4809 0b34 543400   		.ascii	"T4\000"
 4810 0b37 17       		.byte	0x17
 4811 0b38 49       		.byte	0x49
 4812 0b39 400B0000 		.4byte	0xb40
 4813 0b3d E007     		.2byte	0x7e0
 4814 0b3f 00       		.byte	0
 4815 0b40 18       		.uleb128 0x18
 4816 0b41 20050000 		.4byte	0x520
 4817 0b45 500B0000 		.4byte	0xb50
 4818 0b49 19       		.uleb128 0x19
 4819 0b4a 37000000 		.4byte	0x37
 4820 0b4e 3E       		.byte	0x3e
 4821 0b4f 00       		.byte	0
 4822 0b50 1F       		.uleb128 0x1f
 4823 0b51 83000000 		.4byte	.LASF270
 4824 0b55 D809     		.2byte	0x9d8
 4825 0b57 17       		.byte	0x17
 4826 0b58 43       		.byte	0x43
 4827 0b59 730B0000 		.4byte	0xb73
 4828 0b5d 20       		.uleb128 0x20
 4829 0b5e 776100   		.ascii	"wa\000"
 4830 0b61 17       		.byte	0x17
ARM GAS  C:\Users\Moi\AppData\Local\Temp\ccwG6ltn.s 			page 88


 4831 0b62 4A       		.byte	0x4a
 4832 0b63 FB0A0000 		.4byte	0xafb
 4833 0b67 21       		.uleb128 0x21
 4834 0b68 E9030000 		.4byte	.LASF175
 4835 0b6c 17       		.byte	0x17
 4836 0b6d 4B       		.byte	0x4b
 4837 0b6e 730B0000 		.4byte	0xb73
 4838 0b72 00       		.byte	0
 4839 0b73 18       		.uleb128 0x18
 4840 0b74 B4000000 		.4byte	0xb4
 4841 0b78 840B0000 		.4byte	0xb84
 4842 0b7c 22       		.uleb128 0x22
 4843 0b7d 37000000 		.4byte	0x37
 4844 0b81 D709     		.2byte	0x9d7
 4845 0b83 00       		.byte	0
 4846 0b84 14       		.uleb128 0x14
 4847 0b85 D9080000 		.4byte	.LASF176
 4848 0b89 17       		.byte	0x17
 4849 0b8a 4F       		.byte	0x4f
 4850 0b8b 8F0B0000 		.4byte	0xb8f
 4851 0b8f 04       		.uleb128 0x4
 4852 0b90 01       		.byte	0x1
 4853 0b91 02       		.byte	0x2
 4854 0b92 35030000 		.4byte	.LASF177
 4855 0b96 18       		.uleb128 0x18
 4856 0b97 AD020000 		.4byte	0x2ad
 4857 0b9b A60B0000 		.4byte	0xba6
 4858 0b9f 19       		.uleb128 0x19
 4859 0ba0 37000000 		.4byte	0x37
 4860 0ba4 04       		.byte	0x4
 4861 0ba5 00       		.byte	0
 4862 0ba6 14       		.uleb128 0x14
 4863 0ba7 4A090000 		.4byte	.LASF178
 4864 0bab 17       		.byte	0x17
 4865 0bac A7       		.byte	0xa7
 4866 0bad 960B0000 		.4byte	0xb96
 4867 0bb1 14       		.uleb128 0x14
 4868 0bb2 0A020000 		.4byte	.LASF179
 4869 0bb6 17       		.byte	0x17
 4870 0bb7 A8       		.byte	0xa8
 4871 0bb8 500B0000 		.4byte	0xb50
 4872 0bbc 18       		.uleb128 0x18
 4873 0bbd 8C030000 		.4byte	0x38c
 4874 0bc1 C70B0000 		.4byte	0xbc7
 4875 0bc5 23       		.uleb128 0x23
 4876 0bc6 00       		.byte	0
 4877 0bc7 0F       		.uleb128 0xf
 4878 0bc8 BC0B0000 		.4byte	0xbbc
 4879 0bcc 24       		.uleb128 0x24
 4880 0bcd 776100   		.ascii	"wa\000"
 4881 0bd0 17       		.byte	0x17
 4882 0bd1 A9       		.byte	0xa9
 4883 0bd2 C70B0000 		.4byte	0xbc7
 4884 0bd6 14       		.uleb128 0x14
 4885 0bd7 36040000 		.4byte	.LASF180
 4886 0bdb 17       		.byte	0x17
 4887 0bdc AA       		.byte	0xaa
ARM GAS  C:\Users\Moi\AppData\Local\Temp\ccwG6ltn.s 			page 89


 4888 0bdd 8F0B0000 		.4byte	0xb8f
 4889 0be1 25       		.uleb128 0x25
 4890 0be2 E6040000 		.4byte	.LASF181
 4891 0be6 01       		.byte	0x1
 4892 0be7 3C       		.byte	0x3c
 4893 0be8 EB090000 		.4byte	0x9eb
 4894 0bec 05       		.uleb128 0x5
 4895 0bed 03       		.byte	0x3
 4896 0bee 00000000 		.4byte	sem1
 4897 0bf2 25       		.uleb128 0x25
 4898 0bf3 44050000 		.4byte	.LASF182
 4899 0bf7 01       		.byte	0x1
 4900 0bf8 3F       		.byte	0x3f
 4901 0bf9 F6090000 		.4byte	0x9f6
 4902 0bfd 05       		.uleb128 0x5
 4903 0bfe 03       		.byte	0x3
 4904 0bff 00000000 		.4byte	mtx1
 4905 0c03 26       		.uleb128 0x26
 4906 0c04 79050000 		.4byte	.LASF183
 4907 0c08 01       		.byte	0x1
 4908 0c09 7D       		.byte	0x7d
 4909 0c0a EF0A0000 		.4byte	0xaef
 4910 0c0e 05       		.uleb128 0x5
 4911 0c0f 03       		.byte	0x3
 4912 0c10 00000000 		.4byte	testbmk1
 4913 0c14 26       		.uleb128 0x26
 4914 0c15 82050000 		.4byte	.LASF184
 4915 0c19 01       		.byte	0x1
 4916 0c1a 9A       		.byte	0x9a
 4917 0c1b EF0A0000 		.4byte	0xaef
 4918 0c1f 05       		.uleb128 0x5
 4919 0c20 03       		.byte	0x3
 4920 0c21 00000000 		.4byte	testbmk2
 4921 0c25 26       		.uleb128 0x26
 4922 0c26 440C0000 		.4byte	.LASF185
 4923 0c2a 01       		.byte	0x1
 4924 0c2b BC       		.byte	0xbc
 4925 0c2c EF0A0000 		.4byte	0xaef
 4926 0c30 05       		.uleb128 0x5
 4927 0c31 03       		.byte	0x3
 4928 0c32 00000000 		.4byte	testbmk3
 4929 0c36 26       		.uleb128 0x26
 4930 0c37 9B050000 		.4byte	.LASF186
 4931 0c3b 01       		.byte	0x1
 4932 0c3c FA       		.byte	0xfa
 4933 0c3d EF0A0000 		.4byte	0xaef
 4934 0c41 05       		.uleb128 0x5
 4935 0c42 03       		.byte	0x3
 4936 0c43 00000000 		.4byte	testbmk4
 4937 0c47 27       		.uleb128 0x27
 4938 0c48 A4050000 		.4byte	.LASF187
 4939 0c4c 01       		.byte	0x1
 4940 0c4d 1F01     		.2byte	0x11f
 4941 0c4f EF0A0000 		.4byte	0xaef
 4942 0c53 05       		.uleb128 0x5
 4943 0c54 03       		.byte	0x3
 4944 0c55 00000000 		.4byte	testbmk5
ARM GAS  C:\Users\Moi\AppData\Local\Temp\ccwG6ltn.s 			page 90


 4945 0c59 27       		.uleb128 0x27
 4946 0c5a 4D0C0000 		.4byte	.LASF188
 4947 0c5e 01       		.byte	0x1
 4948 0c5f 4601     		.2byte	0x146
 4949 0c61 EF0A0000 		.4byte	0xaef
 4950 0c65 05       		.uleb128 0x5
 4951 0c66 03       		.byte	0x3
 4952 0c67 00000000 		.4byte	testbmk6
 4953 0c6b 27       		.uleb128 0x27
 4954 0c6c BC050000 		.4byte	.LASF189
 4955 0c70 01       		.byte	0x1
 4956 0c71 8301     		.2byte	0x183
 4957 0c73 EF0A0000 		.4byte	0xaef
 4958 0c77 05       		.uleb128 0x5
 4959 0c78 03       		.byte	0x3
 4960 0c79 00000000 		.4byte	testbmk7
 4961 0c7d 27       		.uleb128 0x27
 4962 0c7e C5050000 		.4byte	.LASF190
 4963 0c82 01       		.byte	0x1
 4964 0c83 B801     		.2byte	0x1b8
 4965 0c85 EF0A0000 		.4byte	0xaef
 4966 0c89 05       		.uleb128 0x5
 4967 0c8a 03       		.byte	0x3
 4968 0c8b 00000000 		.4byte	testbmk8
 4969 0c8f 27       		.uleb128 0x27
 4970 0c90 CE050000 		.4byte	.LASF191
 4971 0c94 01       		.byte	0x1
 4972 0c95 E801     		.2byte	0x1e8
 4973 0c97 EF0A0000 		.4byte	0xaef
 4974 0c9b 05       		.uleb128 0x5
 4975 0c9c 03       		.byte	0x3
 4976 0c9d 00000000 		.4byte	testbmk9
 4977 0ca1 27       		.uleb128 0x27
 4978 0ca2 63070000 		.4byte	.LASF192
 4979 0ca6 01       		.byte	0x1
 4980 0ca7 1202     		.2byte	0x212
 4981 0ca9 EF0A0000 		.4byte	0xaef
 4982 0cad 05       		.uleb128 0x5
 4983 0cae 03       		.byte	0x3
 4984 0caf 00000000 		.4byte	testbmk10
 4985 0cb3 27       		.uleb128 0x27
 4986 0cb4 6D070000 		.4byte	.LASF193
 4987 0cb8 01       		.byte	0x1
 4988 0cb9 4102     		.2byte	0x241
 4989 0cbb EF0A0000 		.4byte	0xaef
 4990 0cbf 05       		.uleb128 0x5
 4991 0cc0 03       		.byte	0x3
 4992 0cc1 00000000 		.4byte	testbmk11
 4993 0cc5 27       		.uleb128 0x27
 4994 0cc6 77070000 		.4byte	.LASF194
 4995 0cca 01       		.byte	0x1
 4996 0ccb 7102     		.2byte	0x271
 4997 0ccd EF0A0000 		.4byte	0xaef
 4998 0cd1 05       		.uleb128 0x5
 4999 0cd2 03       		.byte	0x3
 5000 0cd3 00000000 		.4byte	testbmk12
 5001 0cd7 27       		.uleb128 0x27
ARM GAS  C:\Users\Moi\AppData\Local\Temp\ccwG6ltn.s 			page 91


 5002 0cd8 81070000 		.4byte	.LASF195
 5003 0cdc 01       		.byte	0x1
 5004 0cdd AE02     		.2byte	0x2ae
 5005 0cdf EF0A0000 		.4byte	0xaef
 5006 0ce3 05       		.uleb128 0x5
 5007 0ce4 03       		.byte	0x3
 5008 0ce5 00000000 		.4byte	testbmk13
 5009 0ce9 18       		.uleb128 0x18
 5010 0cea 040D0000 		.4byte	0xd04
 5011 0cee F90C0000 		.4byte	0xcf9
 5012 0cf2 19       		.uleb128 0x19
 5013 0cf3 37000000 		.4byte	0x37
 5014 0cf7 0D       		.byte	0xd
 5015 0cf8 00       		.byte	0
 5016 0cf9 0F       		.uleb128 0xf
 5017 0cfa E90C0000 		.4byte	0xce9
 5018 0cfe 0A       		.uleb128 0xa
 5019 0cff 04       		.byte	0x4
 5020 0d00 EF0A0000 		.4byte	0xaef
 5021 0d04 0F       		.uleb128 0xf
 5022 0d05 FE0C0000 		.4byte	0xcfe
 5023 0d09 27       		.uleb128 0x27
 5024 0d0a 64020000 		.4byte	.LASF196
 5025 0d0e 01       		.byte	0x1
 5026 0d0f B802     		.2byte	0x2b8
 5027 0d11 F90C0000 		.4byte	0xcf9
 5028 0d15 05       		.uleb128 0x5
 5029 0d16 03       		.byte	0x3
 5030 0d17 00000000 		.4byte	patternbmk
 5031 0d1b 28       		.uleb128 0x28
 5032 0d1c 18030000 		.4byte	.LASF197
 5033 0d20 01       		.byte	0x1
 5034 0d21 8002     		.2byte	0x280
 5035 0d23 00000000 		.4byte	.LFB241
 5036 0d27 04010000 		.4byte	.LFE241-.LFB241
 5037 0d2b 01       		.uleb128 0x1
 5038 0d2c 9C       		.byte	0x9c
 5039 0d2d CA0F0000 		.4byte	0xfca
 5040 0d31 29       		.uleb128 0x29
 5041 0d32 10000000 		.4byte	.LVL2
 5042 0d36 E6280000 		.4byte	0x28e6
 5043 0d3a 480D0000 		.4byte	0xd48
 5044 0d3e 2A       		.uleb128 0x2a
 5045 0d3f 01       		.uleb128 0x1
 5046 0d40 50       		.byte	0x50
 5047 0d41 05       		.uleb128 0x5
 5048 0d42 03       		.byte	0x3
 5049 0d43 00000000 		.4byte	.LC0
 5050 0d47 00       		.byte	0
 5051 0d48 29       		.uleb128 0x29
 5052 0d49 18000000 		.4byte	.LVL3
 5053 0d4d F1280000 		.4byte	0x28f1
 5054 0d51 5D0D0000 		.4byte	0xd5d
 5055 0d55 2A       		.uleb128 0x2a
 5056 0d56 01       		.uleb128 0x1
 5057 0d57 50       		.byte	0x50
 5058 0d58 03       		.uleb128 0x3
ARM GAS  C:\Users\Moi\AppData\Local\Temp\ccwG6ltn.s 			page 92


 5059 0d59 0A       		.byte	0xa
 5060 0d5a 7006     		.2byte	0x670
 5061 0d5c 00       		.byte	0
 5062 0d5d 29       		.uleb128 0x29
 5063 0d5e 1E000000 		.4byte	.LVL4
 5064 0d62 FC280000 		.4byte	0x28fc
 5065 0d66 740D0000 		.4byte	0xd74
 5066 0d6a 2A       		.uleb128 0x2a
 5067 0d6b 01       		.uleb128 0x1
 5068 0d6c 50       		.byte	0x50
 5069 0d6d 05       		.uleb128 0x5
 5070 0d6e 03       		.byte	0x3
 5071 0d6f 10000000 		.4byte	.LC1
 5072 0d73 00       		.byte	0
 5073 0d74 29       		.uleb128 0x29
 5074 0d75 24000000 		.4byte	.LVL5
 5075 0d79 E6280000 		.4byte	0x28e6
 5076 0d7d 8B0D0000 		.4byte	0xd8b
 5077 0d81 2A       		.uleb128 0x2a
 5078 0d82 01       		.uleb128 0x1
 5079 0d83 50       		.byte	0x50
 5080 0d84 05       		.uleb128 0x5
 5081 0d85 03       		.byte	0x3
 5082 0d86 18000000 		.4byte	.LC2
 5083 0d8a 00       		.byte	0
 5084 0d8b 29       		.uleb128 0x29
 5085 0d8c 2A000000 		.4byte	.LVL6
 5086 0d90 F1280000 		.4byte	0x28f1
 5087 0d94 9F0D0000 		.4byte	0xd9f
 5088 0d98 2A       		.uleb128 0x2a
 5089 0d99 01       		.uleb128 0x1
 5090 0d9a 50       		.byte	0x50
 5091 0d9b 02       		.uleb128 0x2
 5092 0d9c 08       		.byte	0x8
 5093 0d9d 68       		.byte	0x68
 5094 0d9e 00       		.byte	0
 5095 0d9f 29       		.uleb128 0x29
 5096 0da0 30000000 		.4byte	.LVL7
 5097 0da4 FC280000 		.4byte	0x28fc
 5098 0da8 B60D0000 		.4byte	0xdb6
 5099 0dac 2A       		.uleb128 0x2a
 5100 0dad 01       		.uleb128 0x1
 5101 0dae 50       		.byte	0x50
 5102 0daf 05       		.uleb128 0x5
 5103 0db0 03       		.byte	0x3
 5104 0db1 10000000 		.4byte	.LC1
 5105 0db5 00       		.byte	0
 5106 0db6 29       		.uleb128 0x29
 5107 0db7 36000000 		.4byte	.LVL8
 5108 0dbb E6280000 		.4byte	0x28e6
 5109 0dbf CD0D0000 		.4byte	0xdcd
 5110 0dc3 2A       		.uleb128 0x2a
 5111 0dc4 01       		.uleb128 0x1
 5112 0dc5 50       		.byte	0x50
 5113 0dc6 05       		.uleb128 0x5
 5114 0dc7 03       		.byte	0x3
 5115 0dc8 28000000 		.4byte	.LC3
ARM GAS  C:\Users\Moi\AppData\Local\Temp\ccwG6ltn.s 			page 93


 5116 0dcc 00       		.byte	0
 5117 0dcd 29       		.uleb128 0x29
 5118 0dce 3C000000 		.4byte	.LVL9
 5119 0dd2 F1280000 		.4byte	0x28f1
 5120 0dd6 E00D0000 		.4byte	0xde0
 5121 0dda 2A       		.uleb128 0x2a
 5122 0ddb 01       		.uleb128 0x1
 5123 0ddc 50       		.byte	0x50
 5124 0ddd 01       		.uleb128 0x1
 5125 0dde 44       		.byte	0x44
 5126 0ddf 00       		.byte	0
 5127 0de0 29       		.uleb128 0x29
 5128 0de1 42000000 		.4byte	.LVL10
 5129 0de5 FC280000 		.4byte	0x28fc
 5130 0de9 F70D0000 		.4byte	0xdf7
 5131 0ded 2A       		.uleb128 0x2a
 5132 0dee 01       		.uleb128 0x1
 5133 0def 50       		.byte	0x50
 5134 0df0 05       		.uleb128 0x5
 5135 0df1 03       		.byte	0x3
 5136 0df2 10000000 		.4byte	.LC1
 5137 0df6 00       		.byte	0
 5138 0df7 29       		.uleb128 0x29
 5139 0df8 48000000 		.4byte	.LVL11
 5140 0dfc E6280000 		.4byte	0x28e6
 5141 0e00 0E0E0000 		.4byte	0xe0e
 5142 0e04 2A       		.uleb128 0x2a
 5143 0e05 01       		.uleb128 0x1
 5144 0e06 50       		.byte	0x50
 5145 0e07 05       		.uleb128 0x5
 5146 0e08 03       		.byte	0x3
 5147 0e09 38000000 		.4byte	.LC4
 5148 0e0d 00       		.byte	0
 5149 0e0e 29       		.uleb128 0x29
 5150 0e0f 4E000000 		.4byte	.LVL12
 5151 0e13 F1280000 		.4byte	0x28f1
 5152 0e17 210E0000 		.4byte	0xe21
 5153 0e1b 2A       		.uleb128 0x2a
 5154 0e1c 01       		.uleb128 0x1
 5155 0e1d 50       		.byte	0x50
 5156 0e1e 01       		.uleb128 0x1
 5157 0e1f 3C       		.byte	0x3c
 5158 0e20 00       		.byte	0
 5159 0e21 29       		.uleb128 0x29
 5160 0e22 54000000 		.4byte	.LVL13
 5161 0e26 FC280000 		.4byte	0x28fc
 5162 0e2a 380E0000 		.4byte	0xe38
 5163 0e2e 2A       		.uleb128 0x2a
 5164 0e2f 01       		.uleb128 0x1
 5165 0e30 50       		.byte	0x50
 5166 0e31 05       		.uleb128 0x5
 5167 0e32 03       		.byte	0x3
 5168 0e33 10000000 		.4byte	.LC1
 5169 0e37 00       		.byte	0
 5170 0e38 29       		.uleb128 0x29
 5171 0e39 5A000000 		.4byte	.LVL14
 5172 0e3d E6280000 		.4byte	0x28e6
ARM GAS  C:\Users\Moi\AppData\Local\Temp\ccwG6ltn.s 			page 94


 5173 0e41 4F0E0000 		.4byte	0xe4f
 5174 0e45 2A       		.uleb128 0x2a
 5175 0e46 01       		.uleb128 0x1
 5176 0e47 50       		.byte	0x50
 5177 0e48 05       		.uleb128 0x5
 5178 0e49 03       		.byte	0x3
 5179 0e4a 48000000 		.4byte	.LC5
 5180 0e4e 00       		.byte	0
 5181 0e4f 29       		.uleb128 0x29
 5182 0e50 60000000 		.4byte	.LVL15
 5183 0e54 F1280000 		.4byte	0x28f1
 5184 0e58 620E0000 		.4byte	0xe62
 5185 0e5c 2A       		.uleb128 0x2a
 5186 0e5d 01       		.uleb128 0x1
 5187 0e5e 50       		.byte	0x50
 5188 0e5f 01       		.uleb128 0x1
 5189 0e60 34       		.byte	0x34
 5190 0e61 00       		.byte	0
 5191 0e62 29       		.uleb128 0x29
 5192 0e63 66000000 		.4byte	.LVL16
 5193 0e67 FC280000 		.4byte	0x28fc
 5194 0e6b 790E0000 		.4byte	0xe79
 5195 0e6f 2A       		.uleb128 0x2a
 5196 0e70 01       		.uleb128 0x1
 5197 0e71 50       		.byte	0x50
 5198 0e72 05       		.uleb128 0x5
 5199 0e73 03       		.byte	0x3
 5200 0e74 10000000 		.4byte	.LC1
 5201 0e78 00       		.byte	0
 5202 0e79 29       		.uleb128 0x29
 5203 0e7a 6C000000 		.4byte	.LVL17
 5204 0e7e E6280000 		.4byte	0x28e6
 5205 0e82 900E0000 		.4byte	0xe90
 5206 0e86 2A       		.uleb128 0x2a
 5207 0e87 01       		.uleb128 0x1
 5208 0e88 50       		.byte	0x50
 5209 0e89 05       		.uleb128 0x5
 5210 0e8a 03       		.byte	0x3
 5211 0e8b 58000000 		.4byte	.LC6
 5212 0e8f 00       		.byte	0
 5213 0e90 29       		.uleb128 0x29
 5214 0e91 72000000 		.4byte	.LVL18
 5215 0e95 F1280000 		.4byte	0x28f1
 5216 0e99 A30E0000 		.4byte	0xea3
 5217 0e9d 2A       		.uleb128 0x2a
 5218 0e9e 01       		.uleb128 0x1
 5219 0e9f 50       		.byte	0x50
 5220 0ea0 01       		.uleb128 0x1
 5221 0ea1 44       		.byte	0x44
 5222 0ea2 00       		.byte	0
 5223 0ea3 29       		.uleb128 0x29
 5224 0ea4 78000000 		.4byte	.LVL19
 5225 0ea8 FC280000 		.4byte	0x28fc
 5226 0eac BA0E0000 		.4byte	0xeba
 5227 0eb0 2A       		.uleb128 0x2a
 5228 0eb1 01       		.uleb128 0x1
 5229 0eb2 50       		.byte	0x50
ARM GAS  C:\Users\Moi\AppData\Local\Temp\ccwG6ltn.s 			page 95


 5230 0eb3 05       		.uleb128 0x5
 5231 0eb4 03       		.byte	0x3
 5232 0eb5 10000000 		.4byte	.LC1
 5233 0eb9 00       		.byte	0
 5234 0eba 29       		.uleb128 0x29
 5235 0ebb 7E000000 		.4byte	.LVL20
 5236 0ebf E6280000 		.4byte	0x28e6
 5237 0ec3 D10E0000 		.4byte	0xed1
 5238 0ec7 2A       		.uleb128 0x2a
 5239 0ec8 01       		.uleb128 0x1
 5240 0ec9 50       		.byte	0x50
 5241 0eca 05       		.uleb128 0x5
 5242 0ecb 03       		.byte	0x3
 5243 0ecc 68000000 		.4byte	.LC7
 5244 0ed0 00       		.byte	0
 5245 0ed1 29       		.uleb128 0x29
 5246 0ed2 84000000 		.4byte	.LVL21
 5247 0ed6 F1280000 		.4byte	0x28f1
 5248 0eda E40E0000 		.4byte	0xee4
 5249 0ede 2A       		.uleb128 0x2a
 5250 0edf 01       		.uleb128 0x1
 5251 0ee0 50       		.byte	0x50
 5252 0ee1 01       		.uleb128 0x1
 5253 0ee2 44       		.byte	0x44
 5254 0ee3 00       		.byte	0
 5255 0ee4 29       		.uleb128 0x29
 5256 0ee5 8A000000 		.4byte	.LVL22
 5257 0ee9 FC280000 		.4byte	0x28fc
 5258 0eed FB0E0000 		.4byte	0xefb
 5259 0ef1 2A       		.uleb128 0x2a
 5260 0ef2 01       		.uleb128 0x1
 5261 0ef3 50       		.byte	0x50
 5262 0ef4 05       		.uleb128 0x5
 5263 0ef5 03       		.byte	0x3
 5264 0ef6 10000000 		.4byte	.LC1
 5265 0efa 00       		.byte	0
 5266 0efb 29       		.uleb128 0x29
 5267 0efc 90000000 		.4byte	.LVL23
 5268 0f00 E6280000 		.4byte	0x28e6
 5269 0f04 120F0000 		.4byte	0xf12
 5270 0f08 2A       		.uleb128 0x2a
 5271 0f09 01       		.uleb128 0x1
 5272 0f0a 50       		.byte	0x50
 5273 0f0b 05       		.uleb128 0x5
 5274 0f0c 03       		.byte	0x3
 5275 0f0d 78000000 		.4byte	.LC8
 5276 0f11 00       		.byte	0
 5277 0f12 29       		.uleb128 0x29
 5278 0f13 96000000 		.4byte	.LVL24
 5279 0f17 F1280000 		.4byte	0x28f1
 5280 0f1b 250F0000 		.4byte	0xf25
 5281 0f1f 2A       		.uleb128 0x2a
 5282 0f20 01       		.uleb128 0x1
 5283 0f21 50       		.byte	0x50
 5284 0f22 01       		.uleb128 0x1
 5285 0f23 38       		.byte	0x38
 5286 0f24 00       		.byte	0
ARM GAS  C:\Users\Moi\AppData\Local\Temp\ccwG6ltn.s 			page 96


 5287 0f25 29       		.uleb128 0x29
 5288 0f26 9C000000 		.4byte	.LVL25
 5289 0f2a FC280000 		.4byte	0x28fc
 5290 0f2e 3C0F0000 		.4byte	0xf3c
 5291 0f32 2A       		.uleb128 0x2a
 5292 0f33 01       		.uleb128 0x1
 5293 0f34 50       		.byte	0x50
 5294 0f35 05       		.uleb128 0x5
 5295 0f36 03       		.byte	0x3
 5296 0f37 10000000 		.4byte	.LC1
 5297 0f3b 00       		.byte	0
 5298 0f3c 29       		.uleb128 0x29
 5299 0f3d A2000000 		.4byte	.LVL26
 5300 0f41 E6280000 		.4byte	0x28e6
 5301 0f45 530F0000 		.4byte	0xf53
 5302 0f49 2A       		.uleb128 0x2a
 5303 0f4a 01       		.uleb128 0x1
 5304 0f4b 50       		.byte	0x50
 5305 0f4c 05       		.uleb128 0x5
 5306 0f4d 03       		.byte	0x3
 5307 0f4e 88000000 		.4byte	.LC9
 5308 0f52 00       		.byte	0
 5309 0f53 29       		.uleb128 0x29
 5310 0f54 A8000000 		.4byte	.LVL27
 5311 0f58 F1280000 		.4byte	0x28f1
 5312 0f5c 670F0000 		.4byte	0xf67
 5313 0f60 2A       		.uleb128 0x2a
 5314 0f61 01       		.uleb128 0x1
 5315 0f62 50       		.byte	0x50
 5316 0f63 02       		.uleb128 0x2
 5317 0f64 08       		.byte	0x8
 5318 0f65 24       		.byte	0x24
 5319 0f66 00       		.byte	0
 5320 0f67 29       		.uleb128 0x29
 5321 0f68 AE000000 		.4byte	.LVL28
 5322 0f6c FC280000 		.4byte	0x28fc
 5323 0f70 7E0F0000 		.4byte	0xf7e
 5324 0f74 2A       		.uleb128 0x2a
 5325 0f75 01       		.uleb128 0x1
 5326 0f76 50       		.byte	0x50
 5327 0f77 05       		.uleb128 0x5
 5328 0f78 03       		.byte	0x3
 5329 0f79 10000000 		.4byte	.LC1
 5330 0f7d 00       		.byte	0
 5331 0f7e 29       		.uleb128 0x29
 5332 0f7f B4000000 		.4byte	.LVL29
 5333 0f83 E6280000 		.4byte	0x28e6
 5334 0f87 950F0000 		.4byte	0xf95
 5335 0f8b 2A       		.uleb128 0x2a
 5336 0f8c 01       		.uleb128 0x1
 5337 0f8d 50       		.byte	0x50
 5338 0f8e 05       		.uleb128 0x5
 5339 0f8f 03       		.byte	0x3
 5340 0f90 98000000 		.4byte	.LC10
 5341 0f94 00       		.byte	0
 5342 0f95 29       		.uleb128 0x29
 5343 0f96 BA000000 		.4byte	.LVL30
ARM GAS  C:\Users\Moi\AppData\Local\Temp\ccwG6ltn.s 			page 97


 5344 0f9a F1280000 		.4byte	0x28f1
 5345 0f9e A90F0000 		.4byte	0xfa9
 5346 0fa2 2A       		.uleb128 0x2a
 5347 0fa3 01       		.uleb128 0x1
 5348 0fa4 50       		.byte	0x50
 5349 0fa5 02       		.uleb128 0x2
 5350 0fa6 08       		.byte	0x8
 5351 0fa7 28       		.byte	0x28
 5352 0fa8 00       		.byte	0
 5353 0fa9 2B       		.uleb128 0x2b
 5354 0faa CE000000 		.4byte	.LVL31
 5355 0fae FC280000 		.4byte	0x28fc
 5356 0fb2 C00F0000 		.4byte	0xfc0
 5357 0fb6 2A       		.uleb128 0x2a
 5358 0fb7 01       		.uleb128 0x1
 5359 0fb8 50       		.byte	0x50
 5360 0fb9 05       		.uleb128 0x5
 5361 0fba 03       		.byte	0x3
 5362 0fbb 10000000 		.4byte	.LC1
 5363 0fbf 00       		.byte	0
 5364 0fc0 2C       		.uleb128 0x2c
 5365 0fc1 D2000000 		.4byte	.LVL32
 5366 0fc5 07290000 		.4byte	0x2907
 5367 0fc9 00       		.byte	0
 5368 0fca 28       		.uleb128 0x28
 5369 0fcb 62000000 		.4byte	.LASF198
 5370 0fcf 01       		.byte	0x1
 5371 0fd0 5902     		.2byte	0x259
 5372 0fd2 00000000 		.4byte	.LFB240
 5373 0fd6 8C000000 		.4byte	.LFE240-.LFB240
 5374 0fda 01       		.uleb128 0x1
 5375 0fdb 9C       		.byte	0x9c
 5376 0fdc FA100000 		.4byte	0x10fa
 5377 0fe0 2D       		.uleb128 0x2d
 5378 0fe1 6E00     		.ascii	"n\000"
 5379 0fe3 01       		.byte	0x1
 5380 0fe4 5A02     		.2byte	0x25a
 5381 0fe6 DA000000 		.4byte	0xda
 5382 0fea 00000000 		.4byte	.LLST20
 5383 0fee 2C       		.uleb128 0x2c
 5384 0fef 14000000 		.4byte	.LVL181
 5385 0ff3 10290000 		.4byte	0x2910
 5386 0ff7 29       		.uleb128 0x29
 5387 0ff8 1C000000 		.4byte	.LVL182
 5388 0ffc 1B290000 		.4byte	0x291b
 5389 1000 0C100000 		.4byte	0x100c
 5390 1004 2A       		.uleb128 0x2a
 5391 1005 01       		.uleb128 0x1
 5392 1006 50       		.byte	0x50
 5393 1007 03       		.uleb128 0x3
 5394 1008 0A       		.byte	0xa
 5395 1009 E803     		.2byte	0x3e8
 5396 100b 00       		.byte	0
 5397 100c 29       		.uleb128 0x29
 5398 100d 22000000 		.4byte	.LVL183
 5399 1011 26290000 		.4byte	0x2926
 5400 1015 20100000 		.4byte	0x1020
ARM GAS  C:\Users\Moi\AppData\Local\Temp\ccwG6ltn.s 			page 98


 5401 1019 2A       		.uleb128 0x2a
 5402 101a 01       		.uleb128 0x1
 5403 101b 50       		.byte	0x50
 5404 101c 02       		.uleb128 0x2
 5405 101d 74       		.byte	0x74
 5406 101e 00       		.sleb128 0
 5407 101f 00       		.byte	0
 5408 1020 29       		.uleb128 0x29
 5409 1021 28000000 		.4byte	.LVL184
 5410 1025 31290000 		.4byte	0x2931
 5411 1029 34100000 		.4byte	0x1034
 5412 102d 2A       		.uleb128 0x2a
 5413 102e 01       		.uleb128 0x1
 5414 102f 50       		.byte	0x50
 5415 1030 02       		.uleb128 0x2
 5416 1031 74       		.byte	0x74
 5417 1032 00       		.sleb128 0
 5418 1033 00       		.byte	0
 5419 1034 29       		.uleb128 0x29
 5420 1035 2E000000 		.4byte	.LVL185
 5421 1039 26290000 		.4byte	0x2926
 5422 103d 48100000 		.4byte	0x1048
 5423 1041 2A       		.uleb128 0x2a
 5424 1042 01       		.uleb128 0x1
 5425 1043 50       		.byte	0x50
 5426 1044 02       		.uleb128 0x2
 5427 1045 74       		.byte	0x74
 5428 1046 00       		.sleb128 0
 5429 1047 00       		.byte	0
 5430 1048 29       		.uleb128 0x29
 5431 1049 34000000 		.4byte	.LVL186
 5432 104d 31290000 		.4byte	0x2931
 5433 1051 5C100000 		.4byte	0x105c
 5434 1055 2A       		.uleb128 0x2a
 5435 1056 01       		.uleb128 0x1
 5436 1057 50       		.byte	0x50
 5437 1058 02       		.uleb128 0x2
 5438 1059 74       		.byte	0x74
 5439 105a 00       		.sleb128 0
 5440 105b 00       		.byte	0
 5441 105c 29       		.uleb128 0x29
 5442 105d 3A000000 		.4byte	.LVL187
 5443 1061 26290000 		.4byte	0x2926
 5444 1065 70100000 		.4byte	0x1070
 5445 1069 2A       		.uleb128 0x2a
 5446 106a 01       		.uleb128 0x1
 5447 106b 50       		.byte	0x50
 5448 106c 02       		.uleb128 0x2
 5449 106d 74       		.byte	0x74
 5450 106e 00       		.sleb128 0
 5451 106f 00       		.byte	0
 5452 1070 29       		.uleb128 0x29
 5453 1071 40000000 		.4byte	.LVL188
 5454 1075 31290000 		.4byte	0x2931
 5455 1079 84100000 		.4byte	0x1084
 5456 107d 2A       		.uleb128 0x2a
 5457 107e 01       		.uleb128 0x1
ARM GAS  C:\Users\Moi\AppData\Local\Temp\ccwG6ltn.s 			page 99


 5458 107f 50       		.byte	0x50
 5459 1080 02       		.uleb128 0x2
 5460 1081 74       		.byte	0x74
 5461 1082 00       		.sleb128 0
 5462 1083 00       		.byte	0
 5463 1084 29       		.uleb128 0x29
 5464 1085 46000000 		.4byte	.LVL189
 5465 1089 26290000 		.4byte	0x2926
 5466 108d 98100000 		.4byte	0x1098
 5467 1091 2A       		.uleb128 0x2a
 5468 1092 01       		.uleb128 0x1
 5469 1093 50       		.byte	0x50
 5470 1094 02       		.uleb128 0x2
 5471 1095 74       		.byte	0x74
 5472 1096 00       		.sleb128 0
 5473 1097 00       		.byte	0
 5474 1098 29       		.uleb128 0x29
 5475 1099 4C000000 		.4byte	.LVL190
 5476 109d 31290000 		.4byte	0x2931
 5477 10a1 AC100000 		.4byte	0x10ac
 5478 10a5 2A       		.uleb128 0x2a
 5479 10a6 01       		.uleb128 0x1
 5480 10a7 50       		.byte	0x50
 5481 10a8 02       		.uleb128 0x2
 5482 10a9 74       		.byte	0x74
 5483 10aa 00       		.sleb128 0
 5484 10ab 00       		.byte	0
 5485 10ac 29       		.uleb128 0x29
 5486 10ad 5A000000 		.4byte	.LVL192
 5487 10b1 E6280000 		.4byte	0x28e6
 5488 10b5 C3100000 		.4byte	0x10c3
 5489 10b9 2A       		.uleb128 0x2a
 5490 10ba 01       		.uleb128 0x1
 5491 10bb 50       		.byte	0x50
 5492 10bc 05       		.uleb128 0x5
 5493 10bd 03       		.byte	0x3
 5494 10be 00000000 		.4byte	.LC11
 5495 10c2 00       		.byte	0
 5496 10c3 29       		.uleb128 0x29
 5497 10c4 60000000 		.4byte	.LVL193
 5498 10c8 F1280000 		.4byte	0x28f1
 5499 10cc D9100000 		.4byte	0x10d9
 5500 10d0 2A       		.uleb128 0x2a
 5501 10d1 01       		.uleb128 0x1
 5502 10d2 50       		.byte	0x50
 5503 10d3 04       		.uleb128 0x4
 5504 10d4 75       		.byte	0x75
 5505 10d5 00       		.sleb128 0
 5506 10d6 32       		.byte	0x32
 5507 10d7 24       		.byte	0x24
 5508 10d8 00       		.byte	0
 5509 10d9 2B       		.uleb128 0x2b
 5510 10da 74000000 		.4byte	.LVL195
 5511 10de FC280000 		.4byte	0x28fc
 5512 10e2 F0100000 		.4byte	0x10f0
 5513 10e6 2A       		.uleb128 0x2a
 5514 10e7 01       		.uleb128 0x1
ARM GAS  C:\Users\Moi\AppData\Local\Temp\ccwG6ltn.s 			page 100


 5515 10e8 50       		.byte	0x50
 5516 10e9 05       		.uleb128 0x5
 5517 10ea 03       		.byte	0x3
 5518 10eb 00000000 		.4byte	.LC17
 5519 10ef 00       		.byte	0
 5520 10f0 2C       		.uleb128 0x2c
 5521 10f1 78000000 		.4byte	.LVL196
 5522 10f5 07290000 		.4byte	0x2907
 5523 10f9 00       		.byte	0
 5524 10fa 28       		.uleb128 0x28
 5525 10fb D90C0000 		.4byte	.LASF199
 5526 10ff 01       		.byte	0x1
 5527 1100 5402     		.2byte	0x254
 5528 1102 00000000 		.4byte	.LFB239
 5529 1106 2C000000 		.4byte	.LFE239-.LFB239
 5530 110a 01       		.uleb128 0x1
 5531 110b 9C       		.byte	0x9c
 5532 110c 31110000 		.4byte	0x1131
 5533 1110 2B       		.uleb128 0x2b
 5534 1111 1E000000 		.4byte	.LVL197
 5535 1115 3C290000 		.4byte	0x293c
 5536 1119 27110000 		.4byte	0x1127
 5537 111d 2A       		.uleb128 0x2a
 5538 111e 01       		.uleb128 0x1
 5539 111f 50       		.byte	0x50
 5540 1120 05       		.uleb128 0x5
 5541 1121 03       		.byte	0x3
 5542 1122 00000000 		.4byte	.LANCHOR1
 5543 1126 00       		.byte	0
 5544 1127 2C       		.uleb128 0x2c
 5545 1128 22000000 		.4byte	.LVL198
 5546 112c 07290000 		.4byte	0x2907
 5547 1130 00       		.byte	0
 5548 1131 28       		.uleb128 0x28
 5549 1132 B2090000 		.4byte	.LASF200
 5550 1136 01       		.byte	0x1
 5551 1137 2902     		.2byte	0x229
 5552 1139 00000000 		.4byte	.LFB238
 5553 113d 8C000000 		.4byte	.LFE238-.LFB238
 5554 1141 01       		.uleb128 0x1
 5555 1142 9C       		.byte	0x9c
 5556 1143 61120000 		.4byte	0x1261
 5557 1147 2D       		.uleb128 0x2d
 5558 1148 6E00     		.ascii	"n\000"
 5559 114a 01       		.byte	0x1
 5560 114b 2A02     		.2byte	0x22a
 5561 114d DA000000 		.4byte	0xda
 5562 1151 2A000000 		.4byte	.LLST19
 5563 1155 2C       		.uleb128 0x2c
 5564 1156 14000000 		.4byte	.LVL164
 5565 115a 10290000 		.4byte	0x2910
 5566 115e 29       		.uleb128 0x29
 5567 115f 1C000000 		.4byte	.LVL165
 5568 1163 1B290000 		.4byte	0x291b
 5569 1167 73110000 		.4byte	0x1173
 5570 116b 2A       		.uleb128 0x2a
 5571 116c 01       		.uleb128 0x1
ARM GAS  C:\Users\Moi\AppData\Local\Temp\ccwG6ltn.s 			page 101


 5572 116d 50       		.byte	0x50
 5573 116e 03       		.uleb128 0x3
 5574 116f 0A       		.byte	0xa
 5575 1170 E803     		.2byte	0x3e8
 5576 1172 00       		.byte	0
 5577 1173 29       		.uleb128 0x29
 5578 1174 22000000 		.4byte	.LVL166
 5579 1178 47290000 		.4byte	0x2947
 5580 117c 87110000 		.4byte	0x1187
 5581 1180 2A       		.uleb128 0x2a
 5582 1181 01       		.uleb128 0x1
 5583 1182 50       		.byte	0x50
 5584 1183 02       		.uleb128 0x2
 5585 1184 74       		.byte	0x74
 5586 1185 00       		.sleb128 0
 5587 1186 00       		.byte	0
 5588 1187 29       		.uleb128 0x29
 5589 1188 28000000 		.4byte	.LVL167
 5590 118c 52290000 		.4byte	0x2952
 5591 1190 9B110000 		.4byte	0x119b
 5592 1194 2A       		.uleb128 0x2a
 5593 1195 01       		.uleb128 0x1
 5594 1196 50       		.byte	0x50
 5595 1197 02       		.uleb128 0x2
 5596 1198 74       		.byte	0x74
 5597 1199 00       		.sleb128 0
 5598 119a 00       		.byte	0
 5599 119b 29       		.uleb128 0x29
 5600 119c 2E000000 		.4byte	.LVL168
 5601 11a0 47290000 		.4byte	0x2947
 5602 11a4 AF110000 		.4byte	0x11af
 5603 11a8 2A       		.uleb128 0x2a
 5604 11a9 01       		.uleb128 0x1
 5605 11aa 50       		.byte	0x50
 5606 11ab 02       		.uleb128 0x2
 5607 11ac 74       		.byte	0x74
 5608 11ad 00       		.sleb128 0
 5609 11ae 00       		.byte	0
 5610 11af 29       		.uleb128 0x29
 5611 11b0 34000000 		.4byte	.LVL169
 5612 11b4 52290000 		.4byte	0x2952
 5613 11b8 C3110000 		.4byte	0x11c3
 5614 11bc 2A       		.uleb128 0x2a
 5615 11bd 01       		.uleb128 0x1
 5616 11be 50       		.byte	0x50
 5617 11bf 02       		.uleb128 0x2
 5618 11c0 74       		.byte	0x74
 5619 11c1 00       		.sleb128 0
 5620 11c2 00       		.byte	0
 5621 11c3 29       		.uleb128 0x29
 5622 11c4 3A000000 		.4byte	.LVL170
 5623 11c8 47290000 		.4byte	0x2947
 5624 11cc D7110000 		.4byte	0x11d7
 5625 11d0 2A       		.uleb128 0x2a
 5626 11d1 01       		.uleb128 0x1
 5627 11d2 50       		.byte	0x50
 5628 11d3 02       		.uleb128 0x2
ARM GAS  C:\Users\Moi\AppData\Local\Temp\ccwG6ltn.s 			page 102


 5629 11d4 74       		.byte	0x74
 5630 11d5 00       		.sleb128 0
 5631 11d6 00       		.byte	0
 5632 11d7 29       		.uleb128 0x29
 5633 11d8 40000000 		.4byte	.LVL171
 5634 11dc 52290000 		.4byte	0x2952
 5635 11e0 EB110000 		.4byte	0x11eb
 5636 11e4 2A       		.uleb128 0x2a
 5637 11e5 01       		.uleb128 0x1
 5638 11e6 50       		.byte	0x50
 5639 11e7 02       		.uleb128 0x2
 5640 11e8 74       		.byte	0x74
 5641 11e9 00       		.sleb128 0
 5642 11ea 00       		.byte	0
 5643 11eb 29       		.uleb128 0x29
 5644 11ec 46000000 		.4byte	.LVL172
 5645 11f0 47290000 		.4byte	0x2947
 5646 11f4 FF110000 		.4byte	0x11ff
 5647 11f8 2A       		.uleb128 0x2a
 5648 11f9 01       		.uleb128 0x1
 5649 11fa 50       		.byte	0x50
 5650 11fb 02       		.uleb128 0x2
 5651 11fc 74       		.byte	0x74
 5652 11fd 00       		.sleb128 0
 5653 11fe 00       		.byte	0
 5654 11ff 29       		.uleb128 0x29
 5655 1200 4C000000 		.4byte	.LVL173
 5656 1204 52290000 		.4byte	0x2952
 5657 1208 13120000 		.4byte	0x1213
 5658 120c 2A       		.uleb128 0x2a
 5659 120d 01       		.uleb128 0x1
 5660 120e 50       		.byte	0x50
 5661 120f 02       		.uleb128 0x2
 5662 1210 74       		.byte	0x74
 5663 1211 00       		.sleb128 0
 5664 1212 00       		.byte	0
 5665 1213 29       		.uleb128 0x29
 5666 1214 5A000000 		.4byte	.LVL175
 5667 1218 E6280000 		.4byte	0x28e6
 5668 121c 2A120000 		.4byte	0x122a
 5669 1220 2A       		.uleb128 0x2a
 5670 1221 01       		.uleb128 0x1
 5671 1222 50       		.byte	0x50
 5672 1223 05       		.uleb128 0x5
 5673 1224 03       		.byte	0x3
 5674 1225 00000000 		.4byte	.LC11
 5675 1229 00       		.byte	0
 5676 122a 29       		.uleb128 0x29
 5677 122b 60000000 		.4byte	.LVL176
 5678 122f F1280000 		.4byte	0x28f1
 5679 1233 40120000 		.4byte	0x1240
 5680 1237 2A       		.uleb128 0x2a
 5681 1238 01       		.uleb128 0x1
 5682 1239 50       		.byte	0x50
 5683 123a 04       		.uleb128 0x4
 5684 123b 75       		.byte	0x75
 5685 123c 00       		.sleb128 0
ARM GAS  C:\Users\Moi\AppData\Local\Temp\ccwG6ltn.s 			page 103


 5686 123d 32       		.byte	0x32
 5687 123e 24       		.byte	0x24
 5688 123f 00       		.byte	0
 5689 1240 2B       		.uleb128 0x2b
 5690 1241 74000000 		.4byte	.LVL178
 5691 1245 FC280000 		.4byte	0x28fc
 5692 1249 57120000 		.4byte	0x1257
 5693 124d 2A       		.uleb128 0x2a
 5694 124e 01       		.uleb128 0x1
 5695 124f 50       		.byte	0x50
 5696 1250 05       		.uleb128 0x5
 5697 1251 03       		.byte	0x3
 5698 1252 00000000 		.4byte	.LC16
 5699 1256 00       		.byte	0
 5700 1257 2C       		.uleb128 0x2c
 5701 1258 78000000 		.4byte	.LVL179
 5702 125c 07290000 		.4byte	0x2907
 5703 1260 00       		.byte	0
 5704 1261 28       		.uleb128 0x28
 5705 1262 5E0C0000 		.4byte	.LASF201
 5706 1266 01       		.byte	0x1
 5707 1267 2402     		.2byte	0x224
 5708 1269 00000000 		.4byte	.LFB237
 5709 126d 2C000000 		.4byte	.LFE237-.LFB237
 5710 1271 01       		.uleb128 0x1
 5711 1272 9C       		.byte	0x9c
 5712 1273 9D120000 		.4byte	0x129d
 5713 1277 2B       		.uleb128 0x2b
 5714 1278 20000000 		.4byte	.LVL140
 5715 127c 5D290000 		.4byte	0x295d
 5716 1280 93120000 		.4byte	0x1293
 5717 1284 2A       		.uleb128 0x2a
 5718 1285 01       		.uleb128 0x1
 5719 1286 50       		.byte	0x50
 5720 1287 05       		.uleb128 0x5
 5721 1288 03       		.byte	0x3
 5722 1289 00000000 		.4byte	.LANCHOR0
 5723 128d 2A       		.uleb128 0x2a
 5724 128e 01       		.uleb128 0x1
 5725 128f 51       		.byte	0x51
 5726 1290 01       		.uleb128 0x1
 5727 1291 31       		.byte	0x31
 5728 1292 00       		.byte	0
 5729 1293 2C       		.uleb128 0x2c
 5730 1294 24000000 		.4byte	.LVL141
 5731 1298 07290000 		.4byte	0x2907
 5732 129c 00       		.byte	0
 5733 129d 28       		.uleb128 0x28
 5734 129e 2C070000 		.4byte	.LASF202
 5735 12a2 01       		.byte	0x1
 5736 12a3 FB01     		.2byte	0x1fb
 5737 12a5 00000000 		.4byte	.LFB236
 5738 12a9 D8000000 		.4byte	.LFE236-.LFB236
 5739 12ad 01       		.uleb128 0x1
 5740 12ae 9C       		.byte	0x9c
 5741 12af 93140000 		.4byte	0x1493
 5742 12b3 2E       		.uleb128 0x2e
ARM GAS  C:\Users\Moi\AppData\Local\Temp\ccwG6ltn.s 			page 104


 5743 12b4 76743100 		.ascii	"vt1\000"
 5744 12b8 01       		.byte	0x1
 5745 12b9 FC01     		.2byte	0x1fc
 5746 12bb 91030000 		.4byte	0x391
 5747 12bf 05       		.uleb128 0x5
 5748 12c0 03       		.byte	0x3
 5749 12c1 00000000 		.4byte	vt1.8007
 5750 12c5 2E       		.uleb128 0x2e
 5751 12c6 76743200 		.ascii	"vt2\000"
 5752 12ca 01       		.byte	0x1
 5753 12cb FC01     		.2byte	0x1fc
 5754 12cd 91030000 		.4byte	0x391
 5755 12d1 05       		.uleb128 0x5
 5756 12d2 03       		.byte	0x3
 5757 12d3 00000000 		.4byte	vt2.8008
 5758 12d7 2D       		.uleb128 0x2d
 5759 12d8 6E00     		.ascii	"n\000"
 5760 12da 01       		.byte	0x1
 5761 12db FD01     		.2byte	0x1fd
 5762 12dd DA000000 		.4byte	0xda
 5763 12e1 54000000 		.4byte	.LLST21
 5764 12e5 2F       		.uleb128 0x2f
 5765 12e6 B1280000 		.4byte	0x28b1
 5766 12ea 2A000000 		.4byte	.LBB231
 5767 12ee 10000000 		.4byte	.LBE231-.LBB231
 5768 12f2 01       		.byte	0x1
 5769 12f3 0202     		.2byte	0x202
 5770 12f5 3B130000 		.4byte	0x133b
 5771 12f9 2F       		.uleb128 0x2f
 5772 12fa C3280000 		.4byte	0x28c3
 5773 12fe 2A000000 		.4byte	.LBB233
 5774 1302 08000000 		.4byte	.LBE233-.LBB233
 5775 1306 05       		.byte	0x5
 5776 1307 5C01     		.2byte	0x15c
 5777 1309 28130000 		.4byte	0x1328
 5778 130d 30       		.uleb128 0x30
 5779 130e CC280000 		.4byte	0x28cc
 5780 1312 2A000000 		.4byte	.LBB234
 5781 1316 08000000 		.4byte	.LBE234-.LBB234
 5782 131a 10       		.byte	0x10
 5783 131b BF01     		.2byte	0x1bf
 5784 131d 31       		.uleb128 0x31
 5785 131e D9280000 		.4byte	0x28d9
 5786 1322 7E000000 		.4byte	.LLST22
 5787 1326 00       		.byte	0
 5788 1327 00       		.byte	0
 5789 1328 2C       		.uleb128 0x2c
 5790 1329 36000000 		.4byte	.LVL204
 5791 132d 68290000 		.4byte	0x2968
 5792 1331 2C       		.uleb128 0x2c
 5793 1332 3A000000 		.4byte	.LVL205
 5794 1336 73290000 		.4byte	0x2973
 5795 133a 00       		.byte	0
 5796 133b 2F       		.uleb128 0x2f
 5797 133c 81280000 		.4byte	0x2881
 5798 1340 60000000 		.4byte	.LBB236
 5799 1344 22000000 		.4byte	.LBE236-.LBB236
ARM GAS  C:\Users\Moi\AppData\Local\Temp\ccwG6ltn.s 			page 105


 5800 1348 01       		.byte	0x1
 5801 1349 0702     		.2byte	0x207
 5802 134b B3130000 		.4byte	0x13b3
 5803 134f 32       		.uleb128 0x32
 5804 1350 60000000 		.4byte	.LBB237
 5805 1354 22000000 		.4byte	.LBE237-.LBB237
 5806 1358 33       		.uleb128 0x33
 5807 1359 8E280000 		.4byte	0x288e
 5808 135d 2F       		.uleb128 0x2f
 5809 135e BA280000 		.4byte	0x28ba
 5810 1362 7E000000 		.4byte	.LBB238
 5811 1366 04000000 		.4byte	.LBE238-.LBB238
 5812 136a 05       		.byte	0x5
 5813 136b 7301     		.2byte	0x173
 5814 136d 8C130000 		.4byte	0x138c
 5815 1371 30       		.uleb128 0x30
 5816 1372 CC280000 		.4byte	0x28cc
 5817 1376 7E000000 		.4byte	.LBB239
 5818 137a 04000000 		.4byte	.LBE239-.LBB239
 5819 137e 10       		.byte	0x10
 5820 137f CD01     		.2byte	0x1cd
 5821 1381 31       		.uleb128 0x31
 5822 1382 D9280000 		.4byte	0x28d9
 5823 1386 93000000 		.4byte	.LLST23
 5824 138a 00       		.byte	0
 5825 138b 00       		.byte	0
 5826 138c 2C       		.uleb128 0x2c
 5827 138d 64000000 		.4byte	.LVL210
 5828 1391 7E290000 		.4byte	0x297e
 5829 1395 2C       		.uleb128 0x2c
 5830 1396 68000000 		.4byte	.LVL211
 5831 139a 89290000 		.4byte	0x2989
 5832 139e 34       		.uleb128 0x34
 5833 139f 7E000000 		.4byte	.LVL212
 5834 13a3 94290000 		.4byte	0x2994
 5835 13a7 2A       		.uleb128 0x2a
 5836 13a8 01       		.uleb128 0x1
 5837 13a9 50       		.byte	0x50
 5838 13aa 05       		.uleb128 0x5
 5839 13ab 03       		.byte	0x3
 5840 13ac 00000000 		.4byte	.LANCHOR4
 5841 13b0 00       		.byte	0
 5842 13b1 00       		.byte	0
 5843 13b2 00       		.byte	0
 5844 13b3 2C       		.uleb128 0x2c
 5845 13b4 20000000 		.4byte	.LVL200
 5846 13b8 10290000 		.4byte	0x2910
 5847 13bc 29       		.uleb128 0x29
 5848 13bd 28000000 		.4byte	.LVL201
 5849 13c1 1B290000 		.4byte	0x291b
 5850 13c5 D1130000 		.4byte	0x13d1
 5851 13c9 2A       		.uleb128 0x2a
 5852 13ca 01       		.uleb128 0x1
 5853 13cb 50       		.byte	0x50
 5854 13cc 03       		.uleb128 0x3
 5855 13cd 0A       		.byte	0xa
 5856 13ce E803     		.2byte	0x3e8
ARM GAS  C:\Users\Moi\AppData\Local\Temp\ccwG6ltn.s 			page 106


 5857 13d0 00       		.byte	0
 5858 13d1 29       		.uleb128 0x29
 5859 13d2 46000000 		.4byte	.LVL206
 5860 13d6 A0290000 		.4byte	0x29a0
 5861 13da F6130000 		.4byte	0x13f6
 5862 13de 2A       		.uleb128 0x2a
 5863 13df 01       		.uleb128 0x1
 5864 13e0 50       		.byte	0x50
 5865 13e1 02       		.uleb128 0x2
 5866 13e2 77       		.byte	0x77
 5867 13e3 00       		.sleb128 0
 5868 13e4 2A       		.uleb128 0x2a
 5869 13e5 01       		.uleb128 0x1
 5870 13e6 51       		.byte	0x51
 5871 13e7 01       		.uleb128 0x1
 5872 13e8 31       		.byte	0x31
 5873 13e9 2A       		.uleb128 0x2a
 5874 13ea 01       		.uleb128 0x1
 5875 13eb 52       		.byte	0x52
 5876 13ec 02       		.uleb128 0x2
 5877 13ed 78       		.byte	0x78
 5878 13ee 00       		.sleb128 0
 5879 13ef 2A       		.uleb128 0x2a
 5880 13f0 01       		.uleb128 0x1
 5881 13f1 53       		.byte	0x53
 5882 13f2 02       		.uleb128 0x2
 5883 13f3 7A       		.byte	0x7a
 5884 13f4 00       		.sleb128 0
 5885 13f5 00       		.byte	0
 5886 13f6 29       		.uleb128 0x29
 5887 13f7 54000000 		.4byte	.LVL207
 5888 13fb A0290000 		.4byte	0x29a0
 5889 13ff 1D140000 		.4byte	0x141d
 5890 1403 2A       		.uleb128 0x2a
 5891 1404 01       		.uleb128 0x1
 5892 1405 50       		.byte	0x50
 5893 1406 02       		.uleb128 0x2
 5894 1407 76       		.byte	0x76
 5895 1408 00       		.sleb128 0
 5896 1409 2A       		.uleb128 0x2a
 5897 140a 01       		.uleb128 0x1
 5898 140b 51       		.byte	0x51
 5899 140c 03       		.uleb128 0x3
 5900 140d 0A       		.byte	0xa
 5901 140e 1027     		.2byte	0x2710
 5902 1410 2A       		.uleb128 0x2a
 5903 1411 01       		.uleb128 0x1
 5904 1412 52       		.byte	0x52
 5905 1413 02       		.uleb128 0x2
 5906 1414 78       		.byte	0x78
 5907 1415 00       		.sleb128 0
 5908 1416 2A       		.uleb128 0x2a
 5909 1417 01       		.uleb128 0x1
 5910 1418 53       		.byte	0x53
 5911 1419 02       		.uleb128 0x2
 5912 141a 7A       		.byte	0x7a
 5913 141b 00       		.sleb128 0
ARM GAS  C:\Users\Moi\AppData\Local\Temp\ccwG6ltn.s 			page 107


 5914 141c 00       		.byte	0
 5915 141d 29       		.uleb128 0x29
 5916 141e 5A000000 		.4byte	.LVL208
 5917 1422 AB290000 		.4byte	0x29ab
 5918 1426 31140000 		.4byte	0x1431
 5919 142a 2A       		.uleb128 0x2a
 5920 142b 01       		.uleb128 0x1
 5921 142c 50       		.byte	0x50
 5922 142d 02       		.uleb128 0x2
 5923 142e 77       		.byte	0x77
 5924 142f 00       		.sleb128 0
 5925 1430 00       		.byte	0
 5926 1431 29       		.uleb128 0x29
 5927 1432 60000000 		.4byte	.LVL209
 5928 1436 AB290000 		.4byte	0x29ab
 5929 143a 45140000 		.4byte	0x1445
 5930 143e 2A       		.uleb128 0x2a
 5931 143f 01       		.uleb128 0x1
 5932 1440 50       		.byte	0x50
 5933 1441 02       		.uleb128 0x2
 5934 1442 76       		.byte	0x76
 5935 1443 00       		.sleb128 0
 5936 1444 00       		.byte	0
 5937 1445 29       		.uleb128 0x29
 5938 1446 92000000 		.4byte	.LVL215
 5939 144a E6280000 		.4byte	0x28e6
 5940 144e 5C140000 		.4byte	0x145c
 5941 1452 2A       		.uleb128 0x2a
 5942 1453 01       		.uleb128 0x1
 5943 1454 50       		.byte	0x50
 5944 1455 05       		.uleb128 0x5
 5945 1456 03       		.byte	0x3
 5946 1457 00000000 		.4byte	.LC11
 5947 145b 00       		.byte	0
 5948 145c 29       		.uleb128 0x29
 5949 145d 98000000 		.4byte	.LVL216
 5950 1461 F1280000 		.4byte	0x28f1
 5951 1465 72140000 		.4byte	0x1472
 5952 1469 2A       		.uleb128 0x2a
 5953 146a 01       		.uleb128 0x1
 5954 146b 50       		.byte	0x50
 5955 146c 04       		.uleb128 0x4
 5956 146d 75       		.byte	0x75
 5957 146e 00       		.sleb128 0
 5958 146f 31       		.byte	0x31
 5959 1470 24       		.byte	0x24
 5960 1471 00       		.byte	0
 5961 1472 2B       		.uleb128 0x2b
 5962 1473 AE000000 		.4byte	.LVL218
 5963 1477 FC280000 		.4byte	0x28fc
 5964 147b 89140000 		.4byte	0x1489
 5965 147f 2A       		.uleb128 0x2a
 5966 1480 01       		.uleb128 0x1
 5967 1481 50       		.byte	0x50
 5968 1482 05       		.uleb128 0x5
 5969 1483 03       		.byte	0x3
 5970 1484 00000000 		.4byte	.LC18
ARM GAS  C:\Users\Moi\AppData\Local\Temp\ccwG6ltn.s 			page 108


 5971 1488 00       		.byte	0
 5972 1489 2C       		.uleb128 0x2c
 5973 148a B2000000 		.4byte	.LVL219
 5974 148e 07290000 		.4byte	0x2907
 5975 1492 00       		.byte	0
 5976 1493 35       		.uleb128 0x35
 5977 1494 746D6F00 		.ascii	"tmo\000"
 5978 1498 01       		.byte	0x1
 5979 1499 F901     		.2byte	0x1f9
 5980 149b 00000000 		.4byte	.LFB235
 5981 149f 20000000 		.4byte	.LFE235-.LFB235
 5982 14a3 01       		.uleb128 0x1
 5983 14a4 9C       		.byte	0x9c
 5984 14a5 C3140000 		.4byte	0x14c3
 5985 14a9 36       		.uleb128 0x36
 5986 14aa C3040000 		.4byte	.LASF206
 5987 14ae 01       		.byte	0x1
 5988 14af F901     		.2byte	0x1f9
 5989 14b1 8A030000 		.4byte	0x38a
 5990 14b5 A7000000 		.4byte	.LLST0
 5991 14b9 2C       		.uleb128 0x2c
 5992 14ba 1C000000 		.4byte	.LVL1
 5993 14be 07290000 		.4byte	0x2907
 5994 14c2 00       		.byte	0
 5995 14c3 28       		.uleb128 0x28
 5996 14c4 ED060000 		.4byte	.LASF203
 5997 14c8 01       		.byte	0x1
 5998 14c9 CA01     		.2byte	0x1ca
 5999 14cb 00000000 		.4byte	.LFB234
 6000 14cf 00010000 		.4byte	.LFE234-.LFB234
 6001 14d3 01       		.uleb128 0x1
 6002 14d4 9C       		.byte	0x9c
 6003 14d5 A7170000 		.4byte	0x17a7
 6004 14d9 2D       		.uleb128 0x2d
 6005 14da 6E00     		.ascii	"n\000"
 6006 14dc 01       		.byte	0x1
 6007 14dd CB01     		.2byte	0x1cb
 6008 14df DA000000 		.4byte	0xda
 6009 14e3 C8000000 		.4byte	.LLST24
 6010 14e7 2E       		.uleb128 0x2e
 6011 14e8 696200   		.ascii	"ib\000"
 6012 14eb 01       		.byte	0x1
 6013 14ec CC01     		.2byte	0x1cc
 6014 14ee A7170000 		.4byte	0x17a7
 6015 14f2 05       		.uleb128 0x5
 6016 14f3 03       		.byte	0x3
 6017 14f4 00000000 		.4byte	ib.7996
 6018 14f8 2E       		.uleb128 0x2e
 6019 14f9 697100   		.ascii	"iq\000"
 6020 14fc 01       		.byte	0x1
 6021 14fd CD01     		.2byte	0x1cd
 6022 14ff A70A0000 		.4byte	0xaa7
 6023 1503 05       		.uleb128 0x5
 6024 1504 03       		.byte	0x3
 6025 1505 00000000 		.4byte	iq.7997
 6026 1509 2F       		.uleb128 0x2f
 6027 150a B1280000 		.4byte	0x28b1
ARM GAS  C:\Users\Moi\AppData\Local\Temp\ccwG6ltn.s 			page 109


 6028 150e 36000000 		.4byte	.LBB259
 6029 1512 0E000000 		.4byte	.LBE259-.LBB259
 6030 1516 01       		.byte	0x1
 6031 1517 D401     		.2byte	0x1d4
 6032 1519 5F150000 		.4byte	0x155f
 6033 151d 2F       		.uleb128 0x2f
 6034 151e C3280000 		.4byte	0x28c3
 6035 1522 36000000 		.4byte	.LBB261
 6036 1526 06000000 		.4byte	.LBE261-.LBB261
 6037 152a 05       		.byte	0x5
 6038 152b 5C01     		.2byte	0x15c
 6039 152d 4C150000 		.4byte	0x154c
 6040 1531 30       		.uleb128 0x30
 6041 1532 CC280000 		.4byte	0x28cc
 6042 1536 36000000 		.4byte	.LBB262
 6043 153a 06000000 		.4byte	.LBE262-.LBB262
 6044 153e 10       		.byte	0x10
 6045 153f BF01     		.2byte	0x1bf
 6046 1541 31       		.uleb128 0x31
 6047 1542 D9280000 		.4byte	0x28d9
 6048 1546 F2000000 		.4byte	.LLST25
 6049 154a 00       		.byte	0
 6050 154b 00       		.byte	0
 6051 154c 2C       		.uleb128 0x2c
 6052 154d 40000000 		.4byte	.LVL225
 6053 1551 68290000 		.4byte	0x2968
 6054 1555 2C       		.uleb128 0x2c
 6055 1556 44000000 		.4byte	.LVL226
 6056 155a 73290000 		.4byte	0x2973
 6057 155e 00       		.byte	0
 6058 155f 2F       		.uleb128 0x2f
 6059 1560 81280000 		.4byte	0x2881
 6060 1564 64000000 		.4byte	.LBB264
 6061 1568 22000000 		.4byte	.LBE264-.LBB264
 6062 156c 01       		.byte	0x1
 6063 156d D901     		.2byte	0x1d9
 6064 156f D7150000 		.4byte	0x15d7
 6065 1573 32       		.uleb128 0x32
 6066 1574 64000000 		.4byte	.LBB265
 6067 1578 22000000 		.4byte	.LBE265-.LBB265
 6068 157c 33       		.uleb128 0x33
 6069 157d 8E280000 		.4byte	0x288e
 6070 1581 2F       		.uleb128 0x2f
 6071 1582 BA280000 		.4byte	0x28ba
 6072 1586 82000000 		.4byte	.LBB266
 6073 158a 04000000 		.4byte	.LBE266-.LBB266
 6074 158e 05       		.byte	0x5
 6075 158f 7301     		.2byte	0x173
 6076 1591 B0150000 		.4byte	0x15b0
 6077 1595 30       		.uleb128 0x30
 6078 1596 CC280000 		.4byte	0x28cc
 6079 159a 82000000 		.4byte	.LBB267
 6080 159e 04000000 		.4byte	.LBE267-.LBB267
 6081 15a2 10       		.byte	0x10
 6082 15a3 CD01     		.2byte	0x1cd
 6083 15a5 31       		.uleb128 0x31
 6084 15a6 D9280000 		.4byte	0x28d9
ARM GAS  C:\Users\Moi\AppData\Local\Temp\ccwG6ltn.s 			page 110


 6085 15aa 07010000 		.4byte	.LLST26
 6086 15ae 00       		.byte	0
 6087 15af 00       		.byte	0
 6088 15b0 2C       		.uleb128 0x2c
 6089 15b1 68000000 		.4byte	.LVL231
 6090 15b5 7E290000 		.4byte	0x297e
 6091 15b9 2C       		.uleb128 0x2c
 6092 15ba 6C000000 		.4byte	.LVL232
 6093 15be 89290000 		.4byte	0x2989
 6094 15c2 34       		.uleb128 0x34
 6095 15c3 82000000 		.4byte	.LVL233
 6096 15c7 94290000 		.4byte	0x2994
 6097 15cb 2A       		.uleb128 0x2a
 6098 15cc 01       		.uleb128 0x1
 6099 15cd 50       		.byte	0x50
 6100 15ce 05       		.uleb128 0x5
 6101 15cf 03       		.byte	0x3
 6102 15d0 00000000 		.4byte	.LANCHOR4
 6103 15d4 00       		.byte	0
 6104 15d5 00       		.byte	0
 6105 15d6 00       		.byte	0
 6106 15d7 2F       		.uleb128 0x2f
 6107 15d8 1E280000 		.4byte	0x281e
 6108 15dc 86000000 		.4byte	.LBB269
 6109 15e0 0A000000 		.4byte	.LBE269-.LBB269
 6110 15e4 01       		.byte	0x1
 6111 15e5 DA01     		.2byte	0x1da
 6112 15e7 0B160000 		.4byte	0x160b
 6113 15eb 31       		.uleb128 0x31
 6114 15ec 2F280000 		.4byte	0x282f
 6115 15f0 1B010000 		.4byte	.LLST27
 6116 15f4 34       		.uleb128 0x34
 6117 15f5 90000000 		.4byte	.LVL235
 6118 15f9 B6290000 		.4byte	0x29b6
 6119 15fd 2A       		.uleb128 0x2a
 6120 15fe 01       		.uleb128 0x1
 6121 15ff 50       		.byte	0x50
 6122 1600 02       		.uleb128 0x2
 6123 1601 74       		.byte	0x74
 6124 1602 00       		.sleb128 0
 6125 1603 2A       		.uleb128 0x2a
 6126 1604 01       		.uleb128 0x1
 6127 1605 51       		.byte	0x51
 6128 1606 02       		.uleb128 0x2
 6129 1607 09       		.byte	0x9
 6130 1608 FF       		.byte	0xff
 6131 1609 00       		.byte	0
 6132 160a 00       		.byte	0
 6133 160b 2F       		.uleb128 0x2f
 6134 160c 1E280000 		.4byte	0x281e
 6135 1610 90000000 		.4byte	.LBB271
 6136 1614 0A000000 		.4byte	.LBE271-.LBB271
 6137 1618 01       		.byte	0x1
 6138 1619 DB01     		.2byte	0x1db
 6139 161b 3F160000 		.4byte	0x163f
 6140 161f 31       		.uleb128 0x31
 6141 1620 2F280000 		.4byte	0x282f
ARM GAS  C:\Users\Moi\AppData\Local\Temp\ccwG6ltn.s 			page 111


 6142 1624 33010000 		.4byte	.LLST28
 6143 1628 34       		.uleb128 0x34
 6144 1629 9A000000 		.4byte	.LVL236
 6145 162d B6290000 		.4byte	0x29b6
 6146 1631 2A       		.uleb128 0x2a
 6147 1632 01       		.uleb128 0x1
 6148 1633 50       		.byte	0x50
 6149 1634 02       		.uleb128 0x2
 6150 1635 74       		.byte	0x74
 6151 1636 00       		.sleb128 0
 6152 1637 2A       		.uleb128 0x2a
 6153 1638 01       		.uleb128 0x1
 6154 1639 51       		.byte	0x51
 6155 163a 02       		.uleb128 0x2
 6156 163b 09       		.byte	0x9
 6157 163c FF       		.byte	0xff
 6158 163d 00       		.byte	0
 6159 163e 00       		.byte	0
 6160 163f 2F       		.uleb128 0x2f
 6161 1640 1E280000 		.4byte	0x281e
 6162 1644 9A000000 		.4byte	.LBB273
 6163 1648 0A000000 		.4byte	.LBE273-.LBB273
 6164 164c 01       		.byte	0x1
 6165 164d DC01     		.2byte	0x1dc
 6166 164f 73160000 		.4byte	0x1673
 6167 1653 31       		.uleb128 0x31
 6168 1654 2F280000 		.4byte	0x282f
 6169 1658 4B010000 		.4byte	.LLST29
 6170 165c 34       		.uleb128 0x34
 6171 165d A4000000 		.4byte	.LVL237
 6172 1661 B6290000 		.4byte	0x29b6
 6173 1665 2A       		.uleb128 0x2a
 6174 1666 01       		.uleb128 0x1
 6175 1667 50       		.byte	0x50
 6176 1668 02       		.uleb128 0x2
 6177 1669 74       		.byte	0x74
 6178 166a 00       		.sleb128 0
 6179 166b 2A       		.uleb128 0x2a
 6180 166c 01       		.uleb128 0x1
 6181 166d 51       		.byte	0x51
 6182 166e 02       		.uleb128 0x2
 6183 166f 09       		.byte	0x9
 6184 1670 FF       		.byte	0xff
 6185 1671 00       		.byte	0
 6186 1672 00       		.byte	0
 6187 1673 2F       		.uleb128 0x2f
 6188 1674 1E280000 		.4byte	0x281e
 6189 1678 A4000000 		.4byte	.LBB275
 6190 167c 0A000000 		.4byte	.LBE275-.LBB275
 6191 1680 01       		.byte	0x1
 6192 1681 DD01     		.2byte	0x1dd
 6193 1683 A7160000 		.4byte	0x16a7
 6194 1687 31       		.uleb128 0x31
 6195 1688 2F280000 		.4byte	0x282f
 6196 168c 63010000 		.4byte	.LLST30
 6197 1690 34       		.uleb128 0x34
 6198 1691 AE000000 		.4byte	.LVL238
ARM GAS  C:\Users\Moi\AppData\Local\Temp\ccwG6ltn.s 			page 112


 6199 1695 B6290000 		.4byte	0x29b6
 6200 1699 2A       		.uleb128 0x2a
 6201 169a 01       		.uleb128 0x1
 6202 169b 50       		.byte	0x50
 6203 169c 02       		.uleb128 0x2
 6204 169d 74       		.byte	0x74
 6205 169e 00       		.sleb128 0
 6206 169f 2A       		.uleb128 0x2a
 6207 16a0 01       		.uleb128 0x1
 6208 16a1 51       		.byte	0x51
 6209 16a2 02       		.uleb128 0x2
 6210 16a3 09       		.byte	0x9
 6211 16a4 FF       		.byte	0xff
 6212 16a5 00       		.byte	0
 6213 16a6 00       		.byte	0
 6214 16a7 29       		.uleb128 0x29
 6215 16a8 28000000 		.4byte	.LVL220
 6216 16ac C1290000 		.4byte	0x29c1
 6217 16b0 D6160000 		.4byte	0x16d6
 6218 16b4 2A       		.uleb128 0x2a
 6219 16b5 01       		.uleb128 0x1
 6220 16b6 50       		.byte	0x50
 6221 16b7 02       		.uleb128 0x2
 6222 16b8 74       		.byte	0x74
 6223 16b9 00       		.sleb128 0
 6224 16ba 2A       		.uleb128 0x2a
 6225 16bb 01       		.uleb128 0x1
 6226 16bc 51       		.byte	0x51
 6227 16bd 05       		.uleb128 0x5
 6228 16be 03       		.byte	0x3
 6229 16bf 00000000 		.4byte	.LANCHOR5
 6230 16c3 2A       		.uleb128 0x2a
 6231 16c4 01       		.uleb128 0x1
 6232 16c5 52       		.byte	0x52
 6233 16c6 01       		.uleb128 0x1
 6234 16c7 40       		.byte	0x40
 6235 16c8 2A       		.uleb128 0x2a
 6236 16c9 01       		.uleb128 0x1
 6237 16ca 53       		.byte	0x53
 6238 16cb 02       		.uleb128 0x2
 6239 16cc 75       		.byte	0x75
 6240 16cd 00       		.sleb128 0
 6241 16ce 2A       		.uleb128 0x2a
 6242 16cf 02       		.uleb128 0x2
 6243 16d0 7D       		.byte	0x7d
 6244 16d1 00       		.sleb128 0
 6245 16d2 02       		.uleb128 0x2
 6246 16d3 75       		.byte	0x75
 6247 16d4 00       		.sleb128 0
 6248 16d5 00       		.byte	0
 6249 16d6 2C       		.uleb128 0x2c
 6250 16d7 2C000000 		.4byte	.LVL221
 6251 16db 10290000 		.4byte	0x2910
 6252 16df 29       		.uleb128 0x29
 6253 16e0 34000000 		.4byte	.LVL222
 6254 16e4 1B290000 		.4byte	0x291b
 6255 16e8 F4160000 		.4byte	0x16f4
ARM GAS  C:\Users\Moi\AppData\Local\Temp\ccwG6ltn.s 			page 113


 6256 16ec 2A       		.uleb128 0x2a
 6257 16ed 01       		.uleb128 0x1
 6258 16ee 50       		.byte	0x50
 6259 16ef 03       		.uleb128 0x3
 6260 16f0 0A       		.byte	0xa
 6261 16f1 E803     		.2byte	0x3e8
 6262 16f3 00       		.byte	0
 6263 16f4 29       		.uleb128 0x29
 6264 16f5 4C000000 		.4byte	.LVL227
 6265 16f9 CC290000 		.4byte	0x29cc
 6266 16fd 0E170000 		.4byte	0x170e
 6267 1701 2A       		.uleb128 0x2a
 6268 1702 01       		.uleb128 0x1
 6269 1703 50       		.byte	0x50
 6270 1704 02       		.uleb128 0x2
 6271 1705 74       		.byte	0x74
 6272 1706 00       		.sleb128 0
 6273 1707 2A       		.uleb128 0x2a
 6274 1708 01       		.uleb128 0x1
 6275 1709 51       		.byte	0x51
 6276 170a 02       		.uleb128 0x2
 6277 170b 77       		.byte	0x77
 6278 170c 00       		.sleb128 0
 6279 170d 00       		.byte	0
 6280 170e 29       		.uleb128 0x29
 6281 170f 54000000 		.4byte	.LVL228
 6282 1713 CC290000 		.4byte	0x29cc
 6283 1717 27170000 		.4byte	0x1727
 6284 171b 2A       		.uleb128 0x2a
 6285 171c 01       		.uleb128 0x1
 6286 171d 50       		.byte	0x50
 6287 171e 02       		.uleb128 0x2
 6288 171f 74       		.byte	0x74
 6289 1720 00       		.sleb128 0
 6290 1721 2A       		.uleb128 0x2a
 6291 1722 01       		.uleb128 0x1
 6292 1723 51       		.byte	0x51
 6293 1724 01       		.uleb128 0x1
 6294 1725 31       		.byte	0x31
 6295 1726 00       		.byte	0
 6296 1727 29       		.uleb128 0x29
 6297 1728 5C000000 		.4byte	.LVL229
 6298 172c CC290000 		.4byte	0x29cc
 6299 1730 40170000 		.4byte	0x1740
 6300 1734 2A       		.uleb128 0x2a
 6301 1735 01       		.uleb128 0x1
 6302 1736 50       		.byte	0x50
 6303 1737 02       		.uleb128 0x2
 6304 1738 74       		.byte	0x74
 6305 1739 00       		.sleb128 0
 6306 173a 2A       		.uleb128 0x2a
 6307 173b 01       		.uleb128 0x1
 6308 173c 51       		.byte	0x51
 6309 173d 01       		.uleb128 0x1
 6310 173e 32       		.byte	0x32
 6311 173f 00       		.byte	0
 6312 1740 29       		.uleb128 0x29
ARM GAS  C:\Users\Moi\AppData\Local\Temp\ccwG6ltn.s 			page 114


 6313 1741 64000000 		.4byte	.LVL230
 6314 1745 CC290000 		.4byte	0x29cc
 6315 1749 59170000 		.4byte	0x1759
 6316 174d 2A       		.uleb128 0x2a
 6317 174e 01       		.uleb128 0x1
 6318 174f 50       		.byte	0x50
 6319 1750 02       		.uleb128 0x2
 6320 1751 74       		.byte	0x74
 6321 1752 00       		.sleb128 0
 6322 1753 2A       		.uleb128 0x2a
 6323 1754 01       		.uleb128 0x1
 6324 1755 51       		.byte	0x51
 6325 1756 01       		.uleb128 0x1
 6326 1757 33       		.byte	0x33
 6327 1758 00       		.byte	0
 6328 1759 29       		.uleb128 0x29
 6329 175a BE000000 		.4byte	.LVL240
 6330 175e E6280000 		.4byte	0x28e6
 6331 1762 70170000 		.4byte	0x1770
 6332 1766 2A       		.uleb128 0x2a
 6333 1767 01       		.uleb128 0x1
 6334 1768 50       		.byte	0x50
 6335 1769 05       		.uleb128 0x5
 6336 176a 03       		.byte	0x3
 6337 176b 00000000 		.4byte	.LC11
 6338 176f 00       		.byte	0
 6339 1770 29       		.uleb128 0x29
 6340 1771 C4000000 		.4byte	.LVL241
 6341 1775 F1280000 		.4byte	0x28f1
 6342 1779 86170000 		.4byte	0x1786
 6343 177d 2A       		.uleb128 0x2a
 6344 177e 01       		.uleb128 0x1
 6345 177f 50       		.byte	0x50
 6346 1780 04       		.uleb128 0x4
 6347 1781 75       		.byte	0x75
 6348 1782 00       		.sleb128 0
 6349 1783 32       		.byte	0x32
 6350 1784 24       		.byte	0x24
 6351 1785 00       		.byte	0
 6352 1786 2B       		.uleb128 0x2b
 6353 1787 DA000000 		.4byte	.LVL243
 6354 178b FC280000 		.4byte	0x28fc
 6355 178f 9D170000 		.4byte	0x179d
 6356 1793 2A       		.uleb128 0x2a
 6357 1794 01       		.uleb128 0x1
 6358 1795 50       		.byte	0x50
 6359 1796 05       		.uleb128 0x5
 6360 1797 03       		.byte	0x3
 6361 1798 00000000 		.4byte	.LC19
 6362 179c 00       		.byte	0
 6363 179d 2C       		.uleb128 0x2c
 6364 179e DE000000 		.4byte	.LVL244
 6365 17a2 07290000 		.4byte	0x2907
 6366 17a6 00       		.byte	0
 6367 17a7 18       		.uleb128 0x18
 6368 17a8 B4000000 		.4byte	0xb4
 6369 17ac B7170000 		.4byte	0x17b7
ARM GAS  C:\Users\Moi\AppData\Local\Temp\ccwG6ltn.s 			page 115


 6370 17b0 19       		.uleb128 0x19
 6371 17b1 37000000 		.4byte	0x37
 6372 17b5 0F       		.byte	0xf
 6373 17b6 00       		.byte	0
 6374 17b7 28       		.uleb128 0x28
 6375 17b8 C3030000 		.4byte	.LASF204
 6376 17bc 01       		.byte	0x1
 6377 17bd A301     		.2byte	0x1a3
 6378 17bf 00000000 		.4byte	.LFB233
 6379 17c3 EC000000 		.4byte	.LFE233-.LFB233
 6380 17c7 01       		.uleb128 0x1
 6381 17c8 9C       		.byte	0x9c
 6382 17c9 8B190000 		.4byte	0x198b
 6383 17cd 2E       		.uleb128 0x2e
 6384 17ce 6E00     		.ascii	"n\000"
 6385 17d0 01       		.byte	0x1
 6386 17d1 A401     		.2byte	0x1a4
 6387 17d3 DA000000 		.4byte	0xda
 6388 17d7 02       		.uleb128 0x2
 6389 17d8 91       		.byte	0x91
 6390 17d9 60       		.sleb128 -32
 6391 17da 37       		.uleb128 0x37
 6392 17db 69280000 		.4byte	0x2869
 6393 17df 08000000 		.4byte	.LBB205
 6394 17e3 B0000000 		.4byte	.Ldebug_ranges0+0xb0
 6395 17e7 01       		.byte	0x1
 6396 17e8 A901     		.2byte	0x1a9
 6397 17ea FE170000 		.4byte	0x17fe
 6398 17ee 38       		.uleb128 0x38
 6399 17ef 75280000 		.4byte	0x2875
 6400 17f3 08000000 		.4byte	.LBB207
 6401 17f7 02000000 		.4byte	.LBE207-.LBB207
 6402 17fb 03       		.byte	0x3
 6403 17fc BD       		.byte	0xbd
 6404 17fd 00       		.byte	0
 6405 17fe 39       		.uleb128 0x39
 6406 17ff 69280000 		.4byte	0x2869
 6407 1803 36000000 		.4byte	.LBB211
 6408 1807 02000000 		.4byte	.LBE211-.LBB211
 6409 180b 01       		.byte	0x1
 6410 180c AA01     		.2byte	0x1aa
 6411 180e 39       		.uleb128 0x39
 6412 180f 69280000 		.4byte	0x2869
 6413 1813 4E000000 		.4byte	.LBB213
 6414 1817 02000000 		.4byte	.LBE213-.LBB213
 6415 181b 01       		.byte	0x1
 6416 181c AB01     		.2byte	0x1ab
 6417 181e 39       		.uleb128 0x39
 6418 181f 69280000 		.4byte	0x2869
 6419 1823 66000000 		.4byte	.LBB215
 6420 1827 02000000 		.4byte	.LBE215-.LBB215
 6421 182b 01       		.byte	0x1
 6422 182c AC01     		.2byte	0x1ac
 6423 182e 39       		.uleb128 0x39
 6424 182f 69280000 		.4byte	0x2869
 6425 1833 7E000000 		.4byte	.LBB217
 6426 1837 02000000 		.4byte	.LBE217-.LBB217
ARM GAS  C:\Users\Moi\AppData\Local\Temp\ccwG6ltn.s 			page 116


 6427 183b 01       		.byte	0x1
 6428 183c AD01     		.2byte	0x1ad
 6429 183e 2C       		.uleb128 0x2c
 6430 183f 22000000 		.4byte	.LVL142
 6431 1843 10290000 		.4byte	0x2910
 6432 1847 29       		.uleb128 0x29
 6433 1848 36000000 		.4byte	.LVL143
 6434 184c D7290000 		.4byte	0x29d7
 6435 1850 73180000 		.4byte	0x1873
 6436 1854 2A       		.uleb128 0x2a
 6437 1855 01       		.uleb128 0x1
 6438 1856 50       		.byte	0x50
 6439 1857 03       		.uleb128 0x3
 6440 1858 76       		.byte	0x76
 6441 1859 00       		.sleb128 0
 6442 185a 06       		.byte	0x6
 6443 185b 2A       		.uleb128 0x2a
 6444 185c 01       		.uleb128 0x1
 6445 185d 51       		.byte	0x51
 6446 185e 03       		.uleb128 0x3
 6447 185f 0A       		.byte	0xa
 6448 1860 F801     		.2byte	0x1f8
 6449 1862 2A       		.uleb128 0x2a
 6450 1863 01       		.uleb128 0x1
 6451 1864 53       		.byte	0x53
 6452 1865 05       		.uleb128 0x5
 6453 1866 03       		.byte	0x3
 6454 1867 00000000 		.4byte	thread8
 6455 186b 2A       		.uleb128 0x2a
 6456 186c 02       		.uleb128 0x2
 6457 186d 7D       		.byte	0x7d
 6458 186e 00       		.sleb128 0
 6459 186f 02       		.uleb128 0x2
 6460 1870 74       		.byte	0x74
 6461 1871 00       		.sleb128 0
 6462 1872 00       		.byte	0
 6463 1873 29       		.uleb128 0x29
 6464 1874 4E000000 		.4byte	.LVL144
 6465 1878 D7290000 		.4byte	0x29d7
 6466 187c 9F180000 		.4byte	0x189f
 6467 1880 2A       		.uleb128 0x2a
 6468 1881 01       		.uleb128 0x1
 6469 1882 50       		.byte	0x50
 6470 1883 03       		.uleb128 0x3
 6471 1884 76       		.byte	0x76
 6472 1885 04       		.sleb128 4
 6473 1886 06       		.byte	0x6
 6474 1887 2A       		.uleb128 0x2a
 6475 1888 01       		.uleb128 0x1
 6476 1889 51       		.byte	0x51
 6477 188a 03       		.uleb128 0x3
 6478 188b 0A       		.byte	0xa
 6479 188c F801     		.2byte	0x1f8
 6480 188e 2A       		.uleb128 0x2a
 6481 188f 01       		.uleb128 0x1
 6482 1890 53       		.byte	0x53
 6483 1891 05       		.uleb128 0x5
ARM GAS  C:\Users\Moi\AppData\Local\Temp\ccwG6ltn.s 			page 117


 6484 1892 03       		.byte	0x3
 6485 1893 00000000 		.4byte	thread8
 6486 1897 2A       		.uleb128 0x2a
 6487 1898 02       		.uleb128 0x2
 6488 1899 7D       		.byte	0x7d
 6489 189a 00       		.sleb128 0
 6490 189b 02       		.uleb128 0x2
 6491 189c 74       		.byte	0x74
 6492 189d 00       		.sleb128 0
 6493 189e 00       		.byte	0
 6494 189f 29       		.uleb128 0x29
 6495 18a0 66000000 		.4byte	.LVL145
 6496 18a4 D7290000 		.4byte	0x29d7
 6497 18a8 CB180000 		.4byte	0x18cb
 6498 18ac 2A       		.uleb128 0x2a
 6499 18ad 01       		.uleb128 0x1
 6500 18ae 50       		.byte	0x50
 6501 18af 03       		.uleb128 0x3
 6502 18b0 76       		.byte	0x76
 6503 18b1 08       		.sleb128 8
 6504 18b2 06       		.byte	0x6
 6505 18b3 2A       		.uleb128 0x2a
 6506 18b4 01       		.uleb128 0x1
 6507 18b5 51       		.byte	0x51
 6508 18b6 03       		.uleb128 0x3
 6509 18b7 0A       		.byte	0xa
 6510 18b8 F801     		.2byte	0x1f8
 6511 18ba 2A       		.uleb128 0x2a
 6512 18bb 01       		.uleb128 0x1
 6513 18bc 53       		.byte	0x53
 6514 18bd 05       		.uleb128 0x5
 6515 18be 03       		.byte	0x3
 6516 18bf 00000000 		.4byte	thread8
 6517 18c3 2A       		.uleb128 0x2a
 6518 18c4 02       		.uleb128 0x2
 6519 18c5 7D       		.byte	0x7d
 6520 18c6 00       		.sleb128 0
 6521 18c7 02       		.uleb128 0x2
 6522 18c8 74       		.byte	0x74
 6523 18c9 00       		.sleb128 0
 6524 18ca 00       		.byte	0
 6525 18cb 29       		.uleb128 0x29
 6526 18cc 7E000000 		.4byte	.LVL146
 6527 18d0 D7290000 		.4byte	0x29d7
 6528 18d4 F7180000 		.4byte	0x18f7
 6529 18d8 2A       		.uleb128 0x2a
 6530 18d9 01       		.uleb128 0x1
 6531 18da 50       		.byte	0x50
 6532 18db 03       		.uleb128 0x3
 6533 18dc 76       		.byte	0x76
 6534 18dd 0C       		.sleb128 12
 6535 18de 06       		.byte	0x6
 6536 18df 2A       		.uleb128 0x2a
 6537 18e0 01       		.uleb128 0x1
 6538 18e1 51       		.byte	0x51
 6539 18e2 03       		.uleb128 0x3
 6540 18e3 0A       		.byte	0xa
ARM GAS  C:\Users\Moi\AppData\Local\Temp\ccwG6ltn.s 			page 118


 6541 18e4 F801     		.2byte	0x1f8
 6542 18e6 2A       		.uleb128 0x2a
 6543 18e7 01       		.uleb128 0x1
 6544 18e8 53       		.byte	0x53
 6545 18e9 05       		.uleb128 0x5
 6546 18ea 03       		.byte	0x3
 6547 18eb 00000000 		.4byte	thread8
 6548 18ef 2A       		.uleb128 0x2a
 6549 18f0 02       		.uleb128 0x2
 6550 18f1 7D       		.byte	0x7d
 6551 18f2 00       		.sleb128 0
 6552 18f3 02       		.uleb128 0x2
 6553 18f4 74       		.byte	0x74
 6554 18f5 00       		.sleb128 0
 6555 18f6 00       		.byte	0
 6556 18f7 29       		.uleb128 0x29
 6557 18f8 96000000 		.4byte	.LVL147
 6558 18fc D7290000 		.4byte	0x29d7
 6559 1900 23190000 		.4byte	0x1923
 6560 1904 2A       		.uleb128 0x2a
 6561 1905 01       		.uleb128 0x1
 6562 1906 50       		.byte	0x50
 6563 1907 03       		.uleb128 0x3
 6564 1908 76       		.byte	0x76
 6565 1909 10       		.sleb128 16
 6566 190a 06       		.byte	0x6
 6567 190b 2A       		.uleb128 0x2a
 6568 190c 01       		.uleb128 0x1
 6569 190d 51       		.byte	0x51
 6570 190e 03       		.uleb128 0x3
 6571 190f 0A       		.byte	0xa
 6572 1910 F801     		.2byte	0x1f8
 6573 1912 2A       		.uleb128 0x2a
 6574 1913 01       		.uleb128 0x1
 6575 1914 53       		.byte	0x53
 6576 1915 05       		.uleb128 0x5
 6577 1916 03       		.byte	0x3
 6578 1917 00000000 		.4byte	thread8
 6579 191b 2A       		.uleb128 0x2a
 6580 191c 02       		.uleb128 0x2
 6581 191d 7D       		.byte	0x7d
 6582 191e 00       		.sleb128 0
 6583 191f 02       		.uleb128 0x2
 6584 1920 74       		.byte	0x74
 6585 1921 00       		.sleb128 0
 6586 1922 00       		.byte	0
 6587 1923 29       		.uleb128 0x29
 6588 1924 A0000000 		.4byte	.LVL148
 6589 1928 E2290000 		.4byte	0x29e2
 6590 192c 38190000 		.4byte	0x1938
 6591 1930 2A       		.uleb128 0x2a
 6592 1931 01       		.uleb128 0x1
 6593 1932 50       		.byte	0x50
 6594 1933 03       		.uleb128 0x3
 6595 1934 0A       		.byte	0xa
 6596 1935 E803     		.2byte	0x3e8
 6597 1937 00       		.byte	0
ARM GAS  C:\Users\Moi\AppData\Local\Temp\ccwG6ltn.s 			page 119


 6598 1938 2C       		.uleb128 0x2c
 6599 1939 A4000000 		.4byte	.LVL149
 6600 193d ED290000 		.4byte	0x29ed
 6601 1941 2C       		.uleb128 0x2c
 6602 1942 A8000000 		.4byte	.LVL150
 6603 1946 F8290000 		.4byte	0x29f8
 6604 194a 29       		.uleb128 0x29
 6605 194b AE000000 		.4byte	.LVL151
 6606 194f E6280000 		.4byte	0x28e6
 6607 1953 61190000 		.4byte	0x1961
 6608 1957 2A       		.uleb128 0x2a
 6609 1958 01       		.uleb128 0x1
 6610 1959 50       		.byte	0x50
 6611 195a 05       		.uleb128 0x5
 6612 195b 03       		.byte	0x3
 6613 195c 00000000 		.4byte	.LC11
 6614 1960 00       		.byte	0
 6615 1961 2C       		.uleb128 0x2c
 6616 1962 B4000000 		.4byte	.LVL152
 6617 1966 F1280000 		.4byte	0x28f1
 6618 196a 29       		.uleb128 0x29
 6619 196b BA000000 		.4byte	.LVL153
 6620 196f FC280000 		.4byte	0x28fc
 6621 1973 81190000 		.4byte	0x1981
 6622 1977 2A       		.uleb128 0x2a
 6623 1978 01       		.uleb128 0x1
 6624 1979 50       		.byte	0x50
 6625 197a 05       		.uleb128 0x5
 6626 197b 03       		.byte	0x3
 6627 197c 0C000000 		.4byte	.LC14
 6628 1980 00       		.byte	0
 6629 1981 2C       		.uleb128 0x2c
 6630 1982 CE000000 		.4byte	.LVL154
 6631 1986 07290000 		.4byte	0x2907
 6632 198a 00       		.byte	0
 6633 198b 28       		.uleb128 0x28
 6634 198c 1D090000 		.4byte	.LASF205
 6635 1990 01       		.byte	0x1
 6636 1991 9501     		.2byte	0x195
 6637 1993 00000000 		.4byte	.LFB232
 6638 1997 48000000 		.4byte	.LFE232-.LFB232
 6639 199b 01       		.uleb128 0x1
 6640 199c 9C       		.byte	0x9c
 6641 199d ED190000 		.4byte	0x19ed
 6642 19a1 3A       		.uleb128 0x3a
 6643 19a2 7000     		.ascii	"p\000"
 6644 19a4 01       		.byte	0x1
 6645 19a5 9501     		.2byte	0x195
 6646 19a7 8A030000 		.4byte	0x38a
 6647 19ab 7B010000 		.4byte	.LLST18
 6648 19af 39       		.uleb128 0x39
 6649 19b0 5D280000 		.4byte	0x285d
 6650 19b4 20000000 		.4byte	.LBB219
 6651 19b8 02000000 		.4byte	.LBE219-.LBB219
 6652 19bc 01       		.byte	0x1
 6653 19bd A001     		.2byte	0x1a0
 6654 19bf 2C       		.uleb128 0x2c
ARM GAS  C:\Users\Moi\AppData\Local\Temp\ccwG6ltn.s 			page 120


 6655 19c0 12000000 		.4byte	.LVL157
 6656 19c4 032A0000 		.4byte	0x2a03
 6657 19c8 2C       		.uleb128 0x2c
 6658 19c9 16000000 		.4byte	.LVL158
 6659 19cd 032A0000 		.4byte	0x2a03
 6660 19d1 2C       		.uleb128 0x2c
 6661 19d2 1A000000 		.4byte	.LVL159
 6662 19d6 032A0000 		.4byte	0x2a03
 6663 19da 2C       		.uleb128 0x2c
 6664 19db 1E000000 		.4byte	.LVL160
 6665 19df 032A0000 		.4byte	0x2a03
 6666 19e3 2C       		.uleb128 0x2c
 6667 19e4 3E000000 		.4byte	.LVL162
 6668 19e8 07290000 		.4byte	0x2907
 6669 19ec 00       		.byte	0
 6670 19ed 28       		.uleb128 0x28
 6671 19ee 4E020000 		.4byte	.LASF207
 6672 19f2 01       		.byte	0x1
 6673 19f3 6501     		.2byte	0x165
 6674 19f5 00000000 		.4byte	.LFB231
 6675 19f9 28010000 		.4byte	.LFE231-.LFB231
 6676 19fd 01       		.uleb128 0x1
 6677 19fe 9C       		.byte	0x9c
 6678 19ff 2C1C0000 		.4byte	0x1c2c
 6679 1a03 2D       		.uleb128 0x2d
 6680 1a04 6E00     		.ascii	"n\000"
 6681 1a06 01       		.byte	0x1
 6682 1a07 6601     		.2byte	0x166
 6683 1a09 DA000000 		.4byte	0xda
 6684 1a0d 99010000 		.4byte	.LLST16
 6685 1a11 37       		.uleb128 0x37
 6686 1a12 69280000 		.4byte	0x2869
 6687 1a16 04000000 		.4byte	.LBB183
 6688 1a1a 78000000 		.4byte	.Ldebug_ranges0+0x78
 6689 1a1e 01       		.byte	0x1
 6690 1a1f 6801     		.2byte	0x168
 6691 1a21 351A0000 		.4byte	0x1a35
 6692 1a25 38       		.uleb128 0x38
 6693 1a26 75280000 		.4byte	0x2875
 6694 1a2a 04000000 		.4byte	.LBB185
 6695 1a2e 04000000 		.4byte	.LBE185-.LBB185
 6696 1a32 03       		.byte	0x3
 6697 1a33 BD       		.byte	0xbd
 6698 1a34 00       		.byte	0
 6699 1a35 39       		.uleb128 0x39
 6700 1a36 69280000 		.4byte	0x2869
 6701 1a3a 32000000 		.4byte	.LBB189
 6702 1a3e 04000000 		.4byte	.LBE189-.LBB189
 6703 1a42 01       		.byte	0x1
 6704 1a43 6901     		.2byte	0x169
 6705 1a45 39       		.uleb128 0x39
 6706 1a46 69280000 		.4byte	0x2869
 6707 1a4a 4C000000 		.4byte	.LBB191
 6708 1a4e 04000000 		.4byte	.LBE191-.LBB191
 6709 1a52 01       		.byte	0x1
 6710 1a53 6A01     		.2byte	0x16a
 6711 1a55 39       		.uleb128 0x39
ARM GAS  C:\Users\Moi\AppData\Local\Temp\ccwG6ltn.s 			page 121


 6712 1a56 69280000 		.4byte	0x2869
 6713 1a5a 66000000 		.4byte	.LBB193
 6714 1a5e 04000000 		.4byte	.LBE193-.LBB193
 6715 1a62 01       		.byte	0x1
 6716 1a63 6B01     		.2byte	0x16b
 6717 1a65 39       		.uleb128 0x39
 6718 1a66 69280000 		.4byte	0x2869
 6719 1a6a 80000000 		.4byte	.LBB195
 6720 1a6e 04000000 		.4byte	.LBE195-.LBB195
 6721 1a72 01       		.byte	0x1
 6722 1a73 6C01     		.2byte	0x16c
 6723 1a75 29       		.uleb128 0x29
 6724 1a76 32000000 		.4byte	.LVL114
 6725 1a7a D7290000 		.4byte	0x29d7
 6726 1a7e A11A0000 		.4byte	0x1aa1
 6727 1a82 2A       		.uleb128 0x2a
 6728 1a83 01       		.uleb128 0x1
 6729 1a84 50       		.byte	0x50
 6730 1a85 03       		.uleb128 0x3
 6731 1a86 75       		.byte	0x75
 6732 1a87 00       		.sleb128 0
 6733 1a88 06       		.byte	0x6
 6734 1a89 2A       		.uleb128 0x2a
 6735 1a8a 01       		.uleb128 0x1
 6736 1a8b 51       		.byte	0x51
 6737 1a8c 03       		.uleb128 0x3
 6738 1a8d 0A       		.byte	0xa
 6739 1a8e F801     		.2byte	0x1f8
 6740 1a90 2A       		.uleb128 0x2a
 6741 1a91 01       		.uleb128 0x1
 6742 1a92 53       		.byte	0x53
 6743 1a93 05       		.uleb128 0x5
 6744 1a94 03       		.byte	0x3
 6745 1a95 00000000 		.4byte	thread3
 6746 1a99 2A       		.uleb128 0x2a
 6747 1a9a 02       		.uleb128 0x2
 6748 1a9b 7D       		.byte	0x7d
 6749 1a9c 00       		.sleb128 0
 6750 1a9d 02       		.uleb128 0x2
 6751 1a9e 74       		.byte	0x74
 6752 1a9f 00       		.sleb128 0
 6753 1aa0 00       		.byte	0
 6754 1aa1 29       		.uleb128 0x29
 6755 1aa2 4C000000 		.4byte	.LVL115
 6756 1aa6 D7290000 		.4byte	0x29d7
 6757 1aaa CD1A0000 		.4byte	0x1acd
 6758 1aae 2A       		.uleb128 0x2a
 6759 1aaf 01       		.uleb128 0x1
 6760 1ab0 50       		.byte	0x50
 6761 1ab1 03       		.uleb128 0x3
 6762 1ab2 75       		.byte	0x75
 6763 1ab3 04       		.sleb128 4
 6764 1ab4 06       		.byte	0x6
 6765 1ab5 2A       		.uleb128 0x2a
 6766 1ab6 01       		.uleb128 0x1
 6767 1ab7 51       		.byte	0x51
 6768 1ab8 03       		.uleb128 0x3
ARM GAS  C:\Users\Moi\AppData\Local\Temp\ccwG6ltn.s 			page 122


 6769 1ab9 0A       		.byte	0xa
 6770 1aba F801     		.2byte	0x1f8
 6771 1abc 2A       		.uleb128 0x2a
 6772 1abd 01       		.uleb128 0x1
 6773 1abe 53       		.byte	0x53
 6774 1abf 05       		.uleb128 0x5
 6775 1ac0 03       		.byte	0x3
 6776 1ac1 00000000 		.4byte	thread3
 6777 1ac5 2A       		.uleb128 0x2a
 6778 1ac6 02       		.uleb128 0x2
 6779 1ac7 7D       		.byte	0x7d
 6780 1ac8 00       		.sleb128 0
 6781 1ac9 02       		.uleb128 0x2
 6782 1aca 74       		.byte	0x74
 6783 1acb 00       		.sleb128 0
 6784 1acc 00       		.byte	0
 6785 1acd 29       		.uleb128 0x29
 6786 1ace 66000000 		.4byte	.LVL116
 6787 1ad2 D7290000 		.4byte	0x29d7
 6788 1ad6 F91A0000 		.4byte	0x1af9
 6789 1ada 2A       		.uleb128 0x2a
 6790 1adb 01       		.uleb128 0x1
 6791 1adc 50       		.byte	0x50
 6792 1add 03       		.uleb128 0x3
 6793 1ade 75       		.byte	0x75
 6794 1adf 08       		.sleb128 8
 6795 1ae0 06       		.byte	0x6
 6796 1ae1 2A       		.uleb128 0x2a
 6797 1ae2 01       		.uleb128 0x1
 6798 1ae3 51       		.byte	0x51
 6799 1ae4 03       		.uleb128 0x3
 6800 1ae5 0A       		.byte	0xa
 6801 1ae6 F801     		.2byte	0x1f8
 6802 1ae8 2A       		.uleb128 0x2a
 6803 1ae9 01       		.uleb128 0x1
 6804 1aea 53       		.byte	0x53
 6805 1aeb 05       		.uleb128 0x5
 6806 1aec 03       		.byte	0x3
 6807 1aed 00000000 		.4byte	thread3
 6808 1af1 2A       		.uleb128 0x2a
 6809 1af2 02       		.uleb128 0x2
 6810 1af3 7D       		.byte	0x7d
 6811 1af4 00       		.sleb128 0
 6812 1af5 02       		.uleb128 0x2
 6813 1af6 74       		.byte	0x74
 6814 1af7 00       		.sleb128 0
 6815 1af8 00       		.byte	0
 6816 1af9 29       		.uleb128 0x29
 6817 1afa 80000000 		.4byte	.LVL117
 6818 1afe D7290000 		.4byte	0x29d7
 6819 1b02 251B0000 		.4byte	0x1b25
 6820 1b06 2A       		.uleb128 0x2a
 6821 1b07 01       		.uleb128 0x1
 6822 1b08 50       		.byte	0x50
 6823 1b09 03       		.uleb128 0x3
 6824 1b0a 75       		.byte	0x75
 6825 1b0b 0C       		.sleb128 12
ARM GAS  C:\Users\Moi\AppData\Local\Temp\ccwG6ltn.s 			page 123


 6826 1b0c 06       		.byte	0x6
 6827 1b0d 2A       		.uleb128 0x2a
 6828 1b0e 01       		.uleb128 0x1
 6829 1b0f 51       		.byte	0x51
 6830 1b10 03       		.uleb128 0x3
 6831 1b11 0A       		.byte	0xa
 6832 1b12 F801     		.2byte	0x1f8
 6833 1b14 2A       		.uleb128 0x2a
 6834 1b15 01       		.uleb128 0x1
 6835 1b16 53       		.byte	0x53
 6836 1b17 05       		.uleb128 0x5
 6837 1b18 03       		.byte	0x3
 6838 1b19 00000000 		.4byte	thread3
 6839 1b1d 2A       		.uleb128 0x2a
 6840 1b1e 02       		.uleb128 0x2
 6841 1b1f 7D       		.byte	0x7d
 6842 1b20 00       		.sleb128 0
 6843 1b21 02       		.uleb128 0x2
 6844 1b22 74       		.byte	0x74
 6845 1b23 00       		.sleb128 0
 6846 1b24 00       		.byte	0
 6847 1b25 29       		.uleb128 0x29
 6848 1b26 9A000000 		.4byte	.LVL118
 6849 1b2a D7290000 		.4byte	0x29d7
 6850 1b2e 511B0000 		.4byte	0x1b51
 6851 1b32 2A       		.uleb128 0x2a
 6852 1b33 01       		.uleb128 0x1
 6853 1b34 50       		.byte	0x50
 6854 1b35 03       		.uleb128 0x3
 6855 1b36 75       		.byte	0x75
 6856 1b37 10       		.sleb128 16
 6857 1b38 06       		.byte	0x6
 6858 1b39 2A       		.uleb128 0x2a
 6859 1b3a 01       		.uleb128 0x1
 6860 1b3b 51       		.byte	0x51
 6861 1b3c 03       		.uleb128 0x3
 6862 1b3d 0A       		.byte	0xa
 6863 1b3e F801     		.2byte	0x1f8
 6864 1b40 2A       		.uleb128 0x2a
 6865 1b41 01       		.uleb128 0x1
 6866 1b42 53       		.byte	0x53
 6867 1b43 05       		.uleb128 0x5
 6868 1b44 03       		.byte	0x3
 6869 1b45 00000000 		.4byte	thread3
 6870 1b49 2A       		.uleb128 0x2a
 6871 1b4a 02       		.uleb128 0x2
 6872 1b4b 7D       		.byte	0x7d
 6873 1b4c 00       		.sleb128 0
 6874 1b4d 02       		.uleb128 0x2
 6875 1b4e 74       		.byte	0x74
 6876 1b4f 00       		.sleb128 0
 6877 1b50 00       		.byte	0
 6878 1b51 2C       		.uleb128 0x2c
 6879 1b52 A0000000 		.4byte	.LVL120
 6880 1b56 10290000 		.4byte	0x2910
 6881 1b5a 29       		.uleb128 0x29
 6882 1b5b AA000000 		.4byte	.LVL121
ARM GAS  C:\Users\Moi\AppData\Local\Temp\ccwG6ltn.s 			page 124


 6883 1b5f 1B290000 		.4byte	0x291b
 6884 1b63 6F1B0000 		.4byte	0x1b6f
 6885 1b67 2A       		.uleb128 0x2a
 6886 1b68 01       		.uleb128 0x1
 6887 1b69 50       		.byte	0x50
 6888 1b6a 03       		.uleb128 0x3
 6889 1b6b 0A       		.byte	0xa
 6890 1b6c E803     		.2byte	0x3e8
 6891 1b6e 00       		.byte	0
 6892 1b6f 29       		.uleb128 0x29
 6893 1b70 B2000000 		.4byte	.LVL122
 6894 1b74 0E2A0000 		.4byte	0x2a0e
 6895 1b78 881B0000 		.4byte	0x1b88
 6896 1b7c 2A       		.uleb128 0x2a
 6897 1b7d 01       		.uleb128 0x1
 6898 1b7e 50       		.byte	0x50
 6899 1b7f 02       		.uleb128 0x2
 6900 1b80 75       		.byte	0x75
 6901 1b81 00       		.sleb128 0
 6902 1b82 2A       		.uleb128 0x2a
 6903 1b83 01       		.uleb128 0x1
 6904 1b84 51       		.byte	0x51
 6905 1b85 01       		.uleb128 0x1
 6906 1b86 30       		.byte	0x30
 6907 1b87 00       		.byte	0
 6908 1b88 2C       		.uleb128 0x2c
 6909 1b89 BE000000 		.4byte	.LVL124
 6910 1b8d ED290000 		.4byte	0x29ed
 6911 1b91 29       		.uleb128 0x29
 6912 1b92 C6000000 		.4byte	.LVL125
 6913 1b96 0E2A0000 		.4byte	0x2a0e
 6914 1b9a AA1B0000 		.4byte	0x1baa
 6915 1b9e 2A       		.uleb128 0x2a
 6916 1b9f 01       		.uleb128 0x1
 6917 1ba0 50       		.byte	0x50
 6918 1ba1 02       		.uleb128 0x2
 6919 1ba2 75       		.byte	0x75
 6920 1ba3 00       		.sleb128 0
 6921 1ba4 2A       		.uleb128 0x2a
 6922 1ba5 01       		.uleb128 0x1
 6923 1ba6 51       		.byte	0x51
 6924 1ba7 01       		.uleb128 0x1
 6925 1ba8 30       		.byte	0x30
 6926 1ba9 00       		.byte	0
 6927 1baa 2C       		.uleb128 0x2c
 6928 1bab CA000000 		.4byte	.LVL126
 6929 1baf F8290000 		.4byte	0x29f8
 6930 1bb3 29       		.uleb128 0x29
 6931 1bb4 D0000000 		.4byte	.LVL127
 6932 1bb8 E6280000 		.4byte	0x28e6
 6933 1bbc CA1B0000 		.4byte	0x1bca
 6934 1bc0 2A       		.uleb128 0x2a
 6935 1bc1 01       		.uleb128 0x1
 6936 1bc2 50       		.byte	0x50
 6937 1bc3 05       		.uleb128 0x5
 6938 1bc4 03       		.byte	0x3
 6939 1bc5 00000000 		.4byte	.LC11
ARM GAS  C:\Users\Moi\AppData\Local\Temp\ccwG6ltn.s 			page 125


 6940 1bc9 00       		.byte	0
 6941 1bca 29       		.uleb128 0x29
 6942 1bcb D6000000 		.4byte	.LVL128
 6943 1bcf F1280000 		.4byte	0x28f1
 6944 1bd3 DE1B0000 		.4byte	0x1bde
 6945 1bd7 2A       		.uleb128 0x2a
 6946 1bd8 01       		.uleb128 0x1
 6947 1bd9 50       		.byte	0x50
 6948 1bda 02       		.uleb128 0x2
 6949 1bdb 74       		.byte	0x74
 6950 1bdc 00       		.sleb128 0
 6951 1bdd 00       		.byte	0
 6952 1bde 29       		.uleb128 0x29
 6953 1bdf E0000000 		.4byte	.LVL130
 6954 1be3 E6280000 		.4byte	0x28e6
 6955 1be7 F51B0000 		.4byte	0x1bf5
 6956 1beb 2A       		.uleb128 0x2a
 6957 1bec 01       		.uleb128 0x1
 6958 1bed 50       		.byte	0x50
 6959 1bee 05       		.uleb128 0x5
 6960 1bef 03       		.byte	0x3
 6961 1bf0 00000000 		.4byte	.LC15
 6962 1bf4 00       		.byte	0
 6963 1bf5 29       		.uleb128 0x29
 6964 1bf6 E6000000 		.4byte	.LVL131
 6965 1bfa F1280000 		.4byte	0x28f1
 6966 1bfe 0B1C0000 		.4byte	0x1c0b
 6967 1c02 2A       		.uleb128 0x2a
 6968 1c03 01       		.uleb128 0x1
 6969 1c04 50       		.byte	0x50
 6970 1c05 04       		.uleb128 0x4
 6971 1c06 74       		.byte	0x74
 6972 1c07 00       		.sleb128 0
 6973 1c08 31       		.byte	0x31
 6974 1c09 24       		.byte	0x24
 6975 1c0a 00       		.byte	0
 6976 1c0b 2B       		.uleb128 0x2b
 6977 1c0c FC000000 		.4byte	.LVL132
 6978 1c10 FC280000 		.4byte	0x28fc
 6979 1c14 221C0000 		.4byte	0x1c22
 6980 1c18 2A       		.uleb128 0x2a
 6981 1c19 01       		.uleb128 0x1
 6982 1c1a 50       		.byte	0x50
 6983 1c1b 05       		.uleb128 0x5
 6984 1c1c 03       		.byte	0x3
 6985 1c1d 0C000000 		.4byte	.LC14
 6986 1c21 00       		.byte	0
 6987 1c22 2C       		.uleb128 0x2c
 6988 1c23 00010000 		.4byte	.LVL133
 6989 1c27 07290000 		.4byte	0x2907
 6990 1c2b 00       		.byte	0
 6991 1c2c 28       		.uleb128 0x28
 6992 1c2d DD050000 		.4byte	.LASF208
 6993 1c31 01       		.byte	0x1
 6994 1c32 6001     		.2byte	0x160
 6995 1c34 00000000 		.4byte	.LFB230
 6996 1c38 2C000000 		.4byte	.LFE230-.LFB230
ARM GAS  C:\Users\Moi\AppData\Local\Temp\ccwG6ltn.s 			page 126


 6997 1c3c 01       		.uleb128 0x1
 6998 1c3d 9C       		.byte	0x9c
 6999 1c3e 681C0000 		.4byte	0x1c68
 7000 1c42 2B       		.uleb128 0x2b
 7001 1c43 20000000 		.4byte	.LVL138
 7002 1c47 5D290000 		.4byte	0x295d
 7003 1c4b 5E1C0000 		.4byte	0x1c5e
 7004 1c4f 2A       		.uleb128 0x2a
 7005 1c50 01       		.uleb128 0x1
 7006 1c51 50       		.byte	0x50
 7007 1c52 05       		.uleb128 0x5
 7008 1c53 03       		.byte	0x3
 7009 1c54 00000000 		.4byte	.LANCHOR0
 7010 1c58 2A       		.uleb128 0x2a
 7011 1c59 01       		.uleb128 0x1
 7012 1c5a 51       		.byte	0x51
 7013 1c5b 01       		.uleb128 0x1
 7014 1c5c 30       		.byte	0x30
 7015 1c5d 00       		.byte	0
 7016 1c5e 2C       		.uleb128 0x2c
 7017 1c5f 24000000 		.4byte	.LVL139
 7018 1c63 07290000 		.4byte	0x2907
 7019 1c67 00       		.byte	0
 7020 1c68 28       		.uleb128 0x28
 7021 1c69 B5020000 		.4byte	.LASF209
 7022 1c6d 01       		.byte	0x1
 7023 1c6e 5901     		.2byte	0x159
 7024 1c70 00000000 		.4byte	.LFB229
 7025 1c74 44000000 		.4byte	.LFE229-.LFB229
 7026 1c78 01       		.uleb128 0x1
 7027 1c79 9C       		.byte	0x9c
 7028 1c7a CE1C0000 		.4byte	0x1cce
 7029 1c7e 3A       		.uleb128 0x3a
 7030 1c7f 7000     		.ascii	"p\000"
 7031 1c81 01       		.byte	0x1
 7032 1c82 5901     		.2byte	0x159
 7033 1c84 8A030000 		.4byte	0x38a
 7034 1c88 B8010000 		.4byte	.LLST17
 7035 1c8c 37       		.uleb128 0x37
 7036 1c8d 5D280000 		.4byte	0x285d
 7037 1c91 02000000 		.4byte	.LBB197
 7038 1c95 90000000 		.4byte	.Ldebug_ranges0+0x90
 7039 1c99 01       		.byte	0x1
 7040 1c9a 5C01     		.2byte	0x15c
 7041 1c9c B01C0000 		.4byte	0x1cb0
 7042 1ca0 38       		.uleb128 0x38
 7043 1ca1 75280000 		.4byte	0x2875
 7044 1ca5 02000000 		.4byte	.LBB199
 7045 1ca9 02000000 		.4byte	.LBE199-.LBB199
 7046 1cad 03       		.byte	0x3
 7047 1cae E9       		.byte	0xe9
 7048 1caf 00       		.byte	0
 7049 1cb0 29       		.uleb128 0x29
 7050 1cb1 1E000000 		.4byte	.LVL136
 7051 1cb5 47290000 		.4byte	0x2947
 7052 1cb9 C41C0000 		.4byte	0x1cc4
 7053 1cbd 2A       		.uleb128 0x2a
ARM GAS  C:\Users\Moi\AppData\Local\Temp\ccwG6ltn.s 			page 127


 7054 1cbe 01       		.uleb128 0x1
 7055 1cbf 50       		.byte	0x50
 7056 1cc0 02       		.uleb128 0x2
 7057 1cc1 75       		.byte	0x75
 7058 1cc2 00       		.sleb128 0
 7059 1cc3 00       		.byte	0
 7060 1cc4 2C       		.uleb128 0x2c
 7061 1cc5 38000000 		.4byte	.LVL137
 7062 1cc9 07290000 		.4byte	0x2907
 7063 1ccd 00       		.byte	0
 7064 1cce 28       		.uleb128 0x28
 7065 1ccf E60B0000 		.4byte	.LASF210
 7066 1cd3 01       		.byte	0x1
 7067 1cd4 3301     		.2byte	0x133
 7068 1cd6 00000000 		.4byte	.LFB228
 7069 1cda 90000000 		.4byte	.LFE228-.LFB228
 7070 1cde 01       		.uleb128 0x1
 7071 1cdf 9C       		.byte	0x9c
 7072 1ce0 CE1D0000 		.4byte	0x1dce
 7073 1ce4 2D       		.uleb128 0x2d
 7074 1ce5 6E00     		.ascii	"n\000"
 7075 1ce7 01       		.byte	0x1
 7076 1ce8 3501     		.2byte	0x135
 7077 1cea DA000000 		.4byte	0xda
 7078 1cee D9010000 		.4byte	.LLST4
 7079 1cf2 2D       		.uleb128 0x2d
 7080 1cf3 77617000 		.ascii	"wap\000"
 7081 1cf7 01       		.byte	0x1
 7082 1cf8 3601     		.2byte	0x136
 7083 1cfa 8A030000 		.4byte	0x38a
 7084 1cfe 03020000 		.4byte	.LLST5
 7085 1d02 3B       		.uleb128 0x3b
 7086 1d03 38010000 		.4byte	.LASF211
 7087 1d07 01       		.byte	0x1
 7088 1d08 3701     		.2byte	0x137
 7089 1d0a 32010000 		.4byte	0x132
 7090 1d0e 21020000 		.4byte	.LLST6
 7091 1d12 37       		.uleb128 0x37
 7092 1d13 69280000 		.4byte	0x2869
 7093 1d17 04000000 		.4byte	.LBB145
 7094 1d1b 00000000 		.4byte	.Ldebug_ranges0+0
 7095 1d1f 01       		.byte	0x1
 7096 1d20 3701     		.2byte	0x137
 7097 1d22 361D0000 		.4byte	0x1d36
 7098 1d26 38       		.uleb128 0x38
 7099 1d27 75280000 		.4byte	0x2875
 7100 1d2b 04000000 		.4byte	.LBB147
 7101 1d2f 02000000 		.4byte	.LBE147-.LBB147
 7102 1d33 03       		.byte	0x3
 7103 1d34 BD       		.byte	0xbd
 7104 1d35 00       		.byte	0
 7105 1d36 2C       		.uleb128 0x2c
 7106 1d37 28000000 		.4byte	.LVL40
 7107 1d3b 10290000 		.4byte	0x2910
 7108 1d3f 29       		.uleb128 0x29
 7109 1d40 30000000 		.4byte	.LVL41
 7110 1d44 1B290000 		.4byte	0x291b
ARM GAS  C:\Users\Moi\AppData\Local\Temp\ccwG6ltn.s 			page 128


 7111 1d48 541D0000 		.4byte	0x1d54
 7112 1d4c 2A       		.uleb128 0x2a
 7113 1d4d 01       		.uleb128 0x1
 7114 1d4e 50       		.byte	0x50
 7115 1d4f 03       		.uleb128 0x3
 7116 1d50 0A       		.byte	0xa
 7117 1d51 E803     		.2byte	0x3e8
 7118 1d53 00       		.byte	0
 7119 1d54 29       		.uleb128 0x29
 7120 1d55 44000000 		.4byte	.LVL44
 7121 1d59 D7290000 		.4byte	0x29d7
 7122 1d5d 821D0000 		.4byte	0x1d82
 7123 1d61 2A       		.uleb128 0x2a
 7124 1d62 01       		.uleb128 0x1
 7125 1d63 50       		.byte	0x50
 7126 1d64 02       		.uleb128 0x2
 7127 1d65 79       		.byte	0x79
 7128 1d66 00       		.sleb128 0
 7129 1d67 2A       		.uleb128 0x2a
 7130 1d68 01       		.uleb128 0x1
 7131 1d69 51       		.byte	0x51
 7132 1d6a 03       		.uleb128 0x3
 7133 1d6b 0A       		.byte	0xa
 7134 1d6c F801     		.2byte	0x1f8
 7135 1d6e 2A       		.uleb128 0x2a
 7136 1d6f 01       		.uleb128 0x1
 7137 1d70 52       		.byte	0x52
 7138 1d71 02       		.uleb128 0x2
 7139 1d72 75       		.byte	0x75
 7140 1d73 00       		.sleb128 0
 7141 1d74 2A       		.uleb128 0x2a
 7142 1d75 01       		.uleb128 0x1
 7143 1d76 53       		.byte	0x53
 7144 1d77 02       		.uleb128 0x2
 7145 1d78 77       		.byte	0x77
 7146 1d79 00       		.sleb128 0
 7147 1d7a 2A       		.uleb128 0x2a
 7148 1d7b 02       		.uleb128 0x2
 7149 1d7c 7D       		.byte	0x7d
 7150 1d7d 00       		.sleb128 0
 7151 1d7e 02       		.uleb128 0x2
 7152 1d7f 76       		.byte	0x76
 7153 1d80 00       		.sleb128 0
 7154 1d81 00       		.byte	0
 7155 1d82 29       		.uleb128 0x29
 7156 1d83 54000000 		.4byte	.LVL46
 7157 1d87 E6280000 		.4byte	0x28e6
 7158 1d8b 991D0000 		.4byte	0x1d99
 7159 1d8f 2A       		.uleb128 0x2a
 7160 1d90 01       		.uleb128 0x1
 7161 1d91 50       		.byte	0x50
 7162 1d92 05       		.uleb128 0x5
 7163 1d93 03       		.byte	0x3
 7164 1d94 00000000 		.4byte	.LC11
 7165 1d98 00       		.byte	0
 7166 1d99 29       		.uleb128 0x29
 7167 1d9a 5A000000 		.4byte	.LVL47
ARM GAS  C:\Users\Moi\AppData\Local\Temp\ccwG6ltn.s 			page 129


 7168 1d9e F1280000 		.4byte	0x28f1
 7169 1da2 AD1D0000 		.4byte	0x1dad
 7170 1da6 2A       		.uleb128 0x2a
 7171 1da7 01       		.uleb128 0x1
 7172 1da8 50       		.byte	0x50
 7173 1da9 02       		.uleb128 0x2
 7174 1daa 74       		.byte	0x74
 7175 1dab 00       		.sleb128 0
 7176 1dac 00       		.byte	0
 7177 1dad 2B       		.uleb128 0x2b
 7178 1dae 70000000 		.4byte	.LVL49
 7179 1db2 FC280000 		.4byte	0x28fc
 7180 1db6 C41D0000 		.4byte	0x1dc4
 7181 1dba 2A       		.uleb128 0x2a
 7182 1dbb 01       		.uleb128 0x1
 7183 1dbc 50       		.byte	0x50
 7184 1dbd 05       		.uleb128 0x5
 7185 1dbe 03       		.byte	0x3
 7186 1dbf 10000000 		.4byte	.LC12
 7187 1dc3 00       		.byte	0
 7188 1dc4 2C       		.uleb128 0x2c
 7189 1dc5 74000000 		.4byte	.LVL50
 7190 1dc9 07290000 		.4byte	0x2907
 7191 1dcd 00       		.byte	0
 7192 1dce 28       		.uleb128 0x28
 7193 1dcf 11080000 		.4byte	.LASF212
 7194 1dd3 01       		.byte	0x1
 7195 1dd4 0C01     		.2byte	0x10c
 7196 1dd6 00000000 		.4byte	.LFB227
 7197 1dda 94000000 		.4byte	.LFE227-.LFB227
 7198 1dde 01       		.uleb128 0x1
 7199 1ddf 9C       		.byte	0x9c
 7200 1de0 D71E0000 		.4byte	0x1ed7
 7201 1de4 2D       		.uleb128 0x2d
 7202 1de5 6E00     		.ascii	"n\000"
 7203 1de7 01       		.byte	0x1
 7204 1de8 0E01     		.2byte	0x10e
 7205 1dea DA000000 		.4byte	0xda
 7206 1dee 3F020000 		.4byte	.LLST13
 7207 1df2 2D       		.uleb128 0x2d
 7208 1df3 77617000 		.ascii	"wap\000"
 7209 1df7 01       		.byte	0x1
 7210 1df8 0F01     		.2byte	0x10f
 7211 1dfa 8A030000 		.4byte	0x38a
 7212 1dfe 69020000 		.4byte	.LLST14
 7213 1e02 3B       		.uleb128 0x3b
 7214 1e03 38010000 		.4byte	.LASF211
 7215 1e07 01       		.byte	0x1
 7216 1e08 1001     		.2byte	0x110
 7217 1e0a 32010000 		.4byte	0x132
 7218 1e0e 87020000 		.4byte	.LLST15
 7219 1e12 37       		.uleb128 0x37
 7220 1e13 69280000 		.4byte	0x2869
 7221 1e17 04000000 		.4byte	.LBB177
 7222 1e1b 60000000 		.4byte	.Ldebug_ranges0+0x60
 7223 1e1f 01       		.byte	0x1
 7224 1e20 1001     		.2byte	0x110
ARM GAS  C:\Users\Moi\AppData\Local\Temp\ccwG6ltn.s 			page 130


 7225 1e22 361E0000 		.4byte	0x1e36
 7226 1e26 38       		.uleb128 0x38
 7227 1e27 75280000 		.4byte	0x2875
 7228 1e2b 04000000 		.4byte	.LBB179
 7229 1e2f 02000000 		.4byte	.LBE179-.LBB179
 7230 1e33 03       		.byte	0x3
 7231 1e34 BD       		.byte	0xbd
 7232 1e35 00       		.byte	0
 7233 1e36 2C       		.uleb128 0x2c
 7234 1e37 28000000 		.4byte	.LVL102
 7235 1e3b 10290000 		.4byte	0x2910
 7236 1e3f 29       		.uleb128 0x29
 7237 1e40 30000000 		.4byte	.LVL103
 7238 1e44 1B290000 		.4byte	0x291b
 7239 1e48 541E0000 		.4byte	0x1e54
 7240 1e4c 2A       		.uleb128 0x2a
 7241 1e4d 01       		.uleb128 0x1
 7242 1e4e 50       		.byte	0x50
 7243 1e4f 03       		.uleb128 0x3
 7244 1e50 0A       		.byte	0xa
 7245 1e51 E803     		.2byte	0x3e8
 7246 1e53 00       		.byte	0
 7247 1e54 29       		.uleb128 0x29
 7248 1e55 44000000 		.4byte	.LVL106
 7249 1e59 D7290000 		.4byte	0x29d7
 7250 1e5d 821E0000 		.4byte	0x1e82
 7251 1e61 2A       		.uleb128 0x2a
 7252 1e62 01       		.uleb128 0x1
 7253 1e63 50       		.byte	0x50
 7254 1e64 02       		.uleb128 0x2
 7255 1e65 79       		.byte	0x79
 7256 1e66 00       		.sleb128 0
 7257 1e67 2A       		.uleb128 0x2a
 7258 1e68 01       		.uleb128 0x1
 7259 1e69 51       		.byte	0x51
 7260 1e6a 03       		.uleb128 0x3
 7261 1e6b 0A       		.byte	0xa
 7262 1e6c F801     		.2byte	0x1f8
 7263 1e6e 2A       		.uleb128 0x2a
 7264 1e6f 01       		.uleb128 0x1
 7265 1e70 52       		.byte	0x52
 7266 1e71 02       		.uleb128 0x2
 7267 1e72 75       		.byte	0x75
 7268 1e73 00       		.sleb128 0
 7269 1e74 2A       		.uleb128 0x2a
 7270 1e75 01       		.uleb128 0x1
 7271 1e76 53       		.byte	0x53
 7272 1e77 02       		.uleb128 0x2
 7273 1e78 77       		.byte	0x77
 7274 1e79 00       		.sleb128 0
 7275 1e7a 2A       		.uleb128 0x2a
 7276 1e7b 02       		.uleb128 0x2
 7277 1e7c 7D       		.byte	0x7d
 7278 1e7d 00       		.sleb128 0
 7279 1e7e 02       		.uleb128 0x2
 7280 1e7f 76       		.byte	0x76
 7281 1e80 00       		.sleb128 0
ARM GAS  C:\Users\Moi\AppData\Local\Temp\ccwG6ltn.s 			page 131


 7282 1e81 00       		.byte	0
 7283 1e82 2C       		.uleb128 0x2c
 7284 1e83 48000000 		.4byte	.LVL107
 7285 1e87 192A0000 		.4byte	0x2a19
 7286 1e8b 29       		.uleb128 0x29
 7287 1e8c 58000000 		.4byte	.LVL109
 7288 1e90 E6280000 		.4byte	0x28e6
 7289 1e94 A21E0000 		.4byte	0x1ea2
 7290 1e98 2A       		.uleb128 0x2a
 7291 1e99 01       		.uleb128 0x1
 7292 1e9a 50       		.byte	0x50
 7293 1e9b 05       		.uleb128 0x5
 7294 1e9c 03       		.byte	0x3
 7295 1e9d 00000000 		.4byte	.LC11
 7296 1ea1 00       		.byte	0
 7297 1ea2 29       		.uleb128 0x29
 7298 1ea3 5E000000 		.4byte	.LVL110
 7299 1ea7 F1280000 		.4byte	0x28f1
 7300 1eab B61E0000 		.4byte	0x1eb6
 7301 1eaf 2A       		.uleb128 0x2a
 7302 1eb0 01       		.uleb128 0x1
 7303 1eb1 50       		.byte	0x50
 7304 1eb2 02       		.uleb128 0x2
 7305 1eb3 74       		.byte	0x74
 7306 1eb4 00       		.sleb128 0
 7307 1eb5 00       		.byte	0
 7308 1eb6 2B       		.uleb128 0x2b
 7309 1eb7 74000000 		.4byte	.LVL112
 7310 1ebb FC280000 		.4byte	0x28fc
 7311 1ebf CD1E0000 		.4byte	0x1ecd
 7312 1ec3 2A       		.uleb128 0x2a
 7313 1ec4 01       		.uleb128 0x1
 7314 1ec5 50       		.byte	0x50
 7315 1ec6 05       		.uleb128 0x5
 7316 1ec7 03       		.byte	0x3
 7317 1ec8 10000000 		.4byte	.LC12
 7318 1ecc 00       		.byte	0
 7319 1ecd 2C       		.uleb128 0x2c
 7320 1ece 78000000 		.4byte	.LVL113
 7321 1ed2 07290000 		.4byte	0x2907
 7322 1ed6 00       		.byte	0
 7323 1ed7 3C       		.uleb128 0x3c
 7324 1ed8 37050000 		.4byte	.LASF213
 7325 1edc 01       		.byte	0x1
 7326 1edd DB       		.byte	0xdb
 7327 1ede 00000000 		.4byte	.LFB226
 7328 1ee2 2C010000 		.4byte	.LFE226-.LFB226
 7329 1ee6 01       		.uleb128 0x1
 7330 1ee7 9C       		.byte	0x9c
 7331 1ee8 D0210000 		.4byte	0x21d0
 7332 1eec 3D       		.uleb128 0x3d
 7333 1eed 747000   		.ascii	"tp\000"
 7334 1ef0 01       		.byte	0x1
 7335 1ef1 DC       		.byte	0xdc
 7336 1ef2 AD020000 		.4byte	0x2ad
 7337 1ef6 A5020000 		.4byte	.LLST31
 7338 1efa 3D       		.uleb128 0x3d
ARM GAS  C:\Users\Moi\AppData\Local\Temp\ccwG6ltn.s 			page 132


 7339 1efb 6E00     		.ascii	"n\000"
 7340 1efd 01       		.byte	0x1
 7341 1efe DD       		.byte	0xdd
 7342 1eff DA000000 		.4byte	0xda
 7343 1f03 CE020000 		.4byte	.LLST32
 7344 1f07 3E       		.uleb128 0x3e
 7345 1f08 69280000 		.4byte	0x2869
 7346 1f0c 04000000 		.4byte	.LBB301
 7347 1f10 C8000000 		.4byte	.Ldebug_ranges0+0xc8
 7348 1f14 01       		.byte	0x1
 7349 1f15 DF       		.byte	0xdf
 7350 1f16 2A1F0000 		.4byte	0x1f2a
 7351 1f1a 38       		.uleb128 0x38
 7352 1f1b 75280000 		.4byte	0x2875
 7353 1f1f 04000000 		.4byte	.LBB303
 7354 1f23 02000000 		.4byte	.LBE303-.LBB303
 7355 1f27 03       		.byte	0x3
 7356 1f28 BD       		.byte	0xbd
 7357 1f29 00       		.byte	0
 7358 1f2a 3E       		.uleb128 0x3e
 7359 1f2b 81280000 		.4byte	0x2881
 7360 1f2f 1C000000 		.4byte	.LBB307
 7361 1f33 E0000000 		.4byte	.Ldebug_ranges0+0xe0
 7362 1f37 01       		.byte	0x1
 7363 1f38 EA       		.byte	0xea
 7364 1f39 9A1F0000 		.4byte	0x1f9a
 7365 1f3d 3F       		.uleb128 0x3f
 7366 1f3e E0000000 		.4byte	.Ldebug_ranges0+0xe0
 7367 1f42 33       		.uleb128 0x33
 7368 1f43 8E280000 		.4byte	0x288e
 7369 1f47 2F       		.uleb128 0x2f
 7370 1f48 BA280000 		.4byte	0x28ba
 7371 1f4c 92000000 		.4byte	.LBB309
 7372 1f50 04000000 		.4byte	.LBE309-.LBB309
 7373 1f54 05       		.byte	0x5
 7374 1f55 7301     		.2byte	0x173
 7375 1f57 761F0000 		.4byte	0x1f76
 7376 1f5b 30       		.uleb128 0x30
 7377 1f5c CC280000 		.4byte	0x28cc
 7378 1f60 92000000 		.4byte	.LBB310
 7379 1f64 04000000 		.4byte	.LBE310-.LBB310
 7380 1f68 10       		.byte	0x10
 7381 1f69 CD01     		.2byte	0x1cd
 7382 1f6b 31       		.uleb128 0x31
 7383 1f6c D9280000 		.4byte	0x28d9
 7384 1f70 F8020000 		.4byte	.LLST33
 7385 1f74 00       		.byte	0
 7386 1f75 00       		.byte	0
 7387 1f76 2C       		.uleb128 0x2c
 7388 1f77 78000000 		.4byte	.LVL257
 7389 1f7b 7E290000 		.4byte	0x297e
 7390 1f7f 2C       		.uleb128 0x2c
 7391 1f80 7C000000 		.4byte	.LVL258
 7392 1f84 89290000 		.4byte	0x2989
 7393 1f88 34       		.uleb128 0x34
 7394 1f89 92000000 		.4byte	.LVL259
 7395 1f8d 94290000 		.4byte	0x2994
ARM GAS  C:\Users\Moi\AppData\Local\Temp\ccwG6ltn.s 			page 133


 7396 1f91 2A       		.uleb128 0x2a
 7397 1f92 01       		.uleb128 0x1
 7398 1f93 50       		.byte	0x50
 7399 1f94 02       		.uleb128 0x2
 7400 1f95 7B       		.byte	0x7b
 7401 1f96 00       		.sleb128 0
 7402 1f97 00       		.byte	0
 7403 1f98 00       		.byte	0
 7404 1f99 00       		.byte	0
 7405 1f9a 40       		.uleb128 0x40
 7406 1f9b B1280000 		.4byte	0x28b1
 7407 1f9f 46000000 		.4byte	.LBB313
 7408 1fa3 0E000000 		.4byte	.LBE313-.LBB313
 7409 1fa7 01       		.byte	0x1
 7410 1fa8 E5       		.byte	0xe5
 7411 1fa9 EF1F0000 		.4byte	0x1fef
 7412 1fad 2F       		.uleb128 0x2f
 7413 1fae C3280000 		.4byte	0x28c3
 7414 1fb2 46000000 		.4byte	.LBB315
 7415 1fb6 06000000 		.4byte	.LBE315-.LBB315
 7416 1fba 05       		.byte	0x5
 7417 1fbb 5C01     		.2byte	0x15c
 7418 1fbd DC1F0000 		.4byte	0x1fdc
 7419 1fc1 30       		.uleb128 0x30
 7420 1fc2 CC280000 		.4byte	0x28cc
 7421 1fc6 46000000 		.4byte	.LBB316
 7422 1fca 06000000 		.4byte	.LBE316-.LBB316
 7423 1fce 10       		.byte	0x10
 7424 1fcf BF01     		.2byte	0x1bf
 7425 1fd1 31       		.uleb128 0x31
 7426 1fd2 D9280000 		.4byte	0x28d9
 7427 1fd6 0C030000 		.4byte	.LLST34
 7428 1fda 00       		.byte	0
 7429 1fdb 00       		.byte	0
 7430 1fdc 2C       		.uleb128 0x2c
 7431 1fdd 50000000 		.4byte	.LVL251
 7432 1fe1 68290000 		.4byte	0x2968
 7433 1fe5 2C       		.uleb128 0x2c
 7434 1fe6 54000000 		.4byte	.LVL252
 7435 1fea 73290000 		.4byte	0x2973
 7436 1fee 00       		.byte	0
 7437 1fef 40       		.uleb128 0x40
 7438 1ff0 B1280000 		.4byte	0x28b1
 7439 1ff4 A0000000 		.4byte	.LBB319
 7440 1ff8 0E000000 		.4byte	.LBE319-.LBB319
 7441 1ffc 01       		.byte	0x1
 7442 1ffd F0       		.byte	0xf0
 7443 1ffe 44200000 		.4byte	0x2044
 7444 2002 2F       		.uleb128 0x2f
 7445 2003 C3280000 		.4byte	0x28c3
 7446 2007 A0000000 		.4byte	.LBB321
 7447 200b 06000000 		.4byte	.LBE321-.LBB321
 7448 200f 05       		.byte	0x5
 7449 2010 5C01     		.2byte	0x15c
 7450 2012 31200000 		.4byte	0x2031
 7451 2016 30       		.uleb128 0x30
 7452 2017 CC280000 		.4byte	0x28cc
ARM GAS  C:\Users\Moi\AppData\Local\Temp\ccwG6ltn.s 			page 134


 7453 201b A0000000 		.4byte	.LBB322
 7454 201f 06000000 		.4byte	.LBE322-.LBB322
 7455 2023 10       		.byte	0x10
 7456 2024 BF01     		.2byte	0x1bf
 7457 2026 31       		.uleb128 0x31
 7458 2027 D9280000 		.4byte	0x28d9
 7459 202b 21030000 		.4byte	.LLST35
 7460 202f 00       		.byte	0
 7461 2030 00       		.byte	0
 7462 2031 2C       		.uleb128 0x2c
 7463 2032 AA000000 		.4byte	.LVL264
 7464 2036 68290000 		.4byte	0x2968
 7465 203a 2C       		.uleb128 0x2c
 7466 203b AE000000 		.4byte	.LVL265
 7467 203f 73290000 		.4byte	0x2973
 7468 2043 00       		.byte	0
 7469 2044 3E       		.uleb128 0x3e
 7470 2045 81280000 		.4byte	0x2881
 7471 2049 B8000000 		.4byte	.LBB324
 7472 204d F8000000 		.4byte	.Ldebug_ranges0+0xf8
 7473 2051 01       		.byte	0x1
 7474 2052 F2       		.byte	0xf2
 7475 2053 B4200000 		.4byte	0x20b4
 7476 2057 3F       		.uleb128 0x3f
 7477 2058 F8000000 		.4byte	.Ldebug_ranges0+0xf8
 7478 205c 33       		.uleb128 0x33
 7479 205d 8E280000 		.4byte	0x288e
 7480 2061 2F       		.uleb128 0x2f
 7481 2062 BA280000 		.4byte	0x28ba
 7482 2066 D0000000 		.4byte	.LBB326
 7483 206a 06000000 		.4byte	.LBE326-.LBB326
 7484 206e 05       		.byte	0x5
 7485 206f 7301     		.2byte	0x173
 7486 2071 90200000 		.4byte	0x2090
 7487 2075 30       		.uleb128 0x30
 7488 2076 CC280000 		.4byte	0x28cc
 7489 207a D0000000 		.4byte	.LBB327
 7490 207e 06000000 		.4byte	.LBE327-.LBB327
 7491 2082 10       		.byte	0x10
 7492 2083 CD01     		.2byte	0x1cd
 7493 2085 31       		.uleb128 0x31
 7494 2086 D9280000 		.4byte	0x28d9
 7495 208a 36030000 		.4byte	.LLST36
 7496 208e 00       		.byte	0
 7497 208f 00       		.byte	0
 7498 2090 2C       		.uleb128 0x2c
 7499 2091 BC000000 		.4byte	.LVL267
 7500 2095 7E290000 		.4byte	0x297e
 7501 2099 2C       		.uleb128 0x2c
 7502 209a C0000000 		.4byte	.LVL268
 7503 209e 89290000 		.4byte	0x2989
 7504 20a2 34       		.uleb128 0x34
 7505 20a3 02010000 		.4byte	.LVL276
 7506 20a7 94290000 		.4byte	0x2994
 7507 20ab 2A       		.uleb128 0x2a
 7508 20ac 01       		.uleb128 0x1
 7509 20ad 50       		.byte	0x50
ARM GAS  C:\Users\Moi\AppData\Local\Temp\ccwG6ltn.s 			page 135


 7510 20ae 02       		.uleb128 0x2
 7511 20af 7B       		.byte	0x7b
 7512 20b0 00       		.sleb128 0
 7513 20b1 00       		.byte	0
 7514 20b2 00       		.byte	0
 7515 20b3 00       		.byte	0
 7516 20b4 29       		.uleb128 0x29
 7517 20b5 32000000 		.4byte	.LVL245
 7518 20b9 D7290000 		.4byte	0x29d7
 7519 20bd D9200000 		.4byte	0x20d9
 7520 20c1 2A       		.uleb128 0x2a
 7521 20c2 01       		.uleb128 0x1
 7522 20c3 51       		.byte	0x51
 7523 20c4 03       		.uleb128 0x3
 7524 20c5 0A       		.byte	0xa
 7525 20c6 F801     		.2byte	0x1f8
 7526 20c8 2A       		.uleb128 0x2a
 7527 20c9 01       		.uleb128 0x1
 7528 20ca 53       		.byte	0x53
 7529 20cb 05       		.uleb128 0x5
 7530 20cc 03       		.byte	0x3
 7531 20cd 00000000 		.4byte	thread4
 7532 20d1 2A       		.uleb128 0x2a
 7533 20d2 02       		.uleb128 0x2
 7534 20d3 7D       		.byte	0x7d
 7535 20d4 00       		.sleb128 0
 7536 20d5 02       		.uleb128 0x2
 7537 20d6 76       		.byte	0x76
 7538 20d7 00       		.sleb128 0
 7539 20d8 00       		.byte	0
 7540 20d9 2C       		.uleb128 0x2c
 7541 20da 3C000000 		.4byte	.LVL247
 7542 20de 10290000 		.4byte	0x2910
 7543 20e2 29       		.uleb128 0x29
 7544 20e3 44000000 		.4byte	.LVL248
 7545 20e7 1B290000 		.4byte	0x291b
 7546 20eb F7200000 		.4byte	0x20f7
 7547 20ef 2A       		.uleb128 0x2a
 7548 20f0 01       		.uleb128 0x1
 7549 20f1 50       		.byte	0x50
 7550 20f2 03       		.uleb128 0x3
 7551 20f3 0A       		.byte	0xa
 7552 20f4 E803     		.2byte	0x3e8
 7553 20f6 00       		.byte	0
 7554 20f7 29       		.uleb128 0x29
 7555 20f8 5C000000 		.4byte	.LVL253
 7556 20fc 242A0000 		.4byte	0x2a24
 7557 2100 11210000 		.4byte	0x2111
 7558 2104 2A       		.uleb128 0x2a
 7559 2105 01       		.uleb128 0x1
 7560 2106 50       		.byte	0x50
 7561 2107 02       		.uleb128 0x2
 7562 2108 74       		.byte	0x74
 7563 2109 00       		.sleb128 0
 7564 210a 2A       		.uleb128 0x2a
 7565 210b 01       		.uleb128 0x1
 7566 210c 51       		.byte	0x51
ARM GAS  C:\Users\Moi\AppData\Local\Temp\ccwG6ltn.s 			page 136


 7567 210d 02       		.uleb128 0x2
 7568 210e 78       		.byte	0x78
 7569 210f 00       		.sleb128 0
 7570 2110 00       		.byte	0
 7571 2111 29       		.uleb128 0x29
 7572 2112 64000000 		.4byte	.LVL254
 7573 2116 242A0000 		.4byte	0x2a24
 7574 211a 2B210000 		.4byte	0x212b
 7575 211e 2A       		.uleb128 0x2a
 7576 211f 01       		.uleb128 0x1
 7577 2120 50       		.byte	0x50
 7578 2121 02       		.uleb128 0x2
 7579 2122 74       		.byte	0x74
 7580 2123 00       		.sleb128 0
 7581 2124 2A       		.uleb128 0x2a
 7582 2125 01       		.uleb128 0x1
 7583 2126 51       		.byte	0x51
 7584 2127 02       		.uleb128 0x2
 7585 2128 78       		.byte	0x78
 7586 2129 00       		.sleb128 0
 7587 212a 00       		.byte	0
 7588 212b 29       		.uleb128 0x29
 7589 212c 6C000000 		.4byte	.LVL255
 7590 2130 242A0000 		.4byte	0x2a24
 7591 2134 45210000 		.4byte	0x2145
 7592 2138 2A       		.uleb128 0x2a
 7593 2139 01       		.uleb128 0x1
 7594 213a 50       		.byte	0x50
 7595 213b 02       		.uleb128 0x2
 7596 213c 74       		.byte	0x74
 7597 213d 00       		.sleb128 0
 7598 213e 2A       		.uleb128 0x2a
 7599 213f 01       		.uleb128 0x1
 7600 2140 51       		.byte	0x51
 7601 2141 02       		.uleb128 0x2
 7602 2142 78       		.byte	0x78
 7603 2143 00       		.sleb128 0
 7604 2144 00       		.byte	0
 7605 2145 29       		.uleb128 0x29
 7606 2146 74000000 		.4byte	.LVL256
 7607 214a 242A0000 		.4byte	0x2a24
 7608 214e 5F210000 		.4byte	0x215f
 7609 2152 2A       		.uleb128 0x2a
 7610 2153 01       		.uleb128 0x1
 7611 2154 50       		.byte	0x50
 7612 2155 02       		.uleb128 0x2
 7613 2156 74       		.byte	0x74
 7614 2157 00       		.sleb128 0
 7615 2158 2A       		.uleb128 0x2a
 7616 2159 01       		.uleb128 0x1
 7617 215a 51       		.byte	0x51
 7618 215b 02       		.uleb128 0x2
 7619 215c 78       		.byte	0x78
 7620 215d 00       		.sleb128 0
 7621 215e 00       		.byte	0
 7622 215f 29       		.uleb128 0x29
 7623 2160 B8000000 		.4byte	.LVL266
ARM GAS  C:\Users\Moi\AppData\Local\Temp\ccwG6ltn.s 			page 137


 7624 2164 242A0000 		.4byte	0x2a24
 7625 2168 79210000 		.4byte	0x2179
 7626 216c 2A       		.uleb128 0x2a
 7627 216d 01       		.uleb128 0x1
 7628 216e 50       		.byte	0x50
 7629 216f 02       		.uleb128 0x2
 7630 2170 74       		.byte	0x74
 7631 2171 00       		.sleb128 0
 7632 2172 2A       		.uleb128 0x2a
 7633 2173 01       		.uleb128 0x1
 7634 2174 51       		.byte	0x51
 7635 2175 02       		.uleb128 0x2
 7636 2176 09       		.byte	0x9
 7637 2177 FF       		.byte	0xff
 7638 2178 00       		.byte	0
 7639 2179 2C       		.uleb128 0x2c
 7640 217a DA000000 		.4byte	.LVL271
 7641 217e F8290000 		.4byte	0x29f8
 7642 2182 29       		.uleb128 0x29
 7643 2183 E0000000 		.4byte	.LVL272
 7644 2187 E6280000 		.4byte	0x28e6
 7645 218b 99210000 		.4byte	0x2199
 7646 218f 2A       		.uleb128 0x2a
 7647 2190 01       		.uleb128 0x1
 7648 2191 50       		.byte	0x50
 7649 2192 05       		.uleb128 0x5
 7650 2193 03       		.byte	0x3
 7651 2194 00000000 		.4byte	.LC11
 7652 2198 00       		.byte	0
 7653 2199 29       		.uleb128 0x29
 7654 219a E6000000 		.4byte	.LVL273
 7655 219e F1280000 		.4byte	0x28f1
 7656 21a2 AF210000 		.4byte	0x21af
 7657 21a6 2A       		.uleb128 0x2a
 7658 21a7 01       		.uleb128 0x1
 7659 21a8 50       		.byte	0x50
 7660 21a9 04       		.uleb128 0x4
 7661 21aa 76       		.byte	0x76
 7662 21ab 00       		.sleb128 0
 7663 21ac 31       		.byte	0x31
 7664 21ad 24       		.byte	0x24
 7665 21ae 00       		.byte	0
 7666 21af 2B       		.uleb128 0x2b
 7667 21b0 FC000000 		.4byte	.LVL275
 7668 21b4 FC280000 		.4byte	0x28fc
 7669 21b8 C6210000 		.4byte	0x21c6
 7670 21bc 2A       		.uleb128 0x2a
 7671 21bd 01       		.uleb128 0x1
 7672 21be 50       		.byte	0x50
 7673 21bf 05       		.uleb128 0x5
 7674 21c0 03       		.byte	0x3
 7675 21c1 0C000000 		.4byte	.LC14
 7676 21c5 00       		.byte	0
 7677 21c6 2C       		.uleb128 0x2c
 7678 21c7 08010000 		.4byte	.LVL277
 7679 21cb 07290000 		.4byte	0x2907
 7680 21cf 00       		.byte	0
ARM GAS  C:\Users\Moi\AppData\Local\Temp\ccwG6ltn.s 			page 138


 7681 21d0 3C       		.uleb128 0x3c
 7682 21d1 15090000 		.4byte	.LASF214
 7683 21d5 01       		.byte	0x1
 7684 21d6 CE       		.byte	0xce
 7685 21d7 00000000 		.4byte	.LFB225
 7686 21db 6C000000 		.4byte	.LFE225-.LFB225
 7687 21df 01       		.uleb128 0x1
 7688 21e0 9C       		.byte	0x9c
 7689 21e1 00230000 		.4byte	0x2300
 7690 21e5 41       		.uleb128 0x41
 7691 21e6 7000     		.ascii	"p\000"
 7692 21e8 01       		.byte	0x1
 7693 21e9 CE       		.byte	0xce
 7694 21ea 8A030000 		.4byte	0x38a
 7695 21ee 4A030000 		.4byte	.LLST37
 7696 21f2 3D       		.uleb128 0x3d
 7697 21f3 6D736700 		.ascii	"msg\000"
 7698 21f7 01       		.byte	0x1
 7699 21f8 CF       		.byte	0xcf
 7700 21f9 3D010000 		.4byte	0x13d
 7701 21fd 6B030000 		.4byte	.LLST38
 7702 2201 42       		.uleb128 0x42
 7703 2202 B2040000 		.4byte	.LASF219
 7704 2206 01       		.byte	0x1
 7705 2207 D0       		.byte	0xd0
 7706 2208 AD020000 		.4byte	0x2ad
 7707 220c 43       		.uleb128 0x43
 7708 220d 75280000 		.4byte	0x2875
 7709 2211 04000000 		.4byte	.LBB343
 7710 2215 10010000 		.4byte	.Ldebug_ranges0+0x110
 7711 2219 01       		.byte	0x1
 7712 221a D0       		.byte	0xd0
 7713 221b 40       		.uleb128 0x40
 7714 221c B1280000 		.4byte	0x28b1
 7715 2220 0E000000 		.4byte	.LBB347
 7716 2224 0E000000 		.4byte	.LBE347-.LBB347
 7717 2228 01       		.byte	0x1
 7718 2229 D3       		.byte	0xd3
 7719 222a 70220000 		.4byte	0x2270
 7720 222e 2F       		.uleb128 0x2f
 7721 222f C3280000 		.4byte	0x28c3
 7722 2233 0E000000 		.4byte	.LBB349
 7723 2237 06000000 		.4byte	.LBE349-.LBB349
 7724 223b 05       		.byte	0x5
 7725 223c 5C01     		.2byte	0x15c
 7726 223e 5D220000 		.4byte	0x225d
 7727 2242 30       		.uleb128 0x30
 7728 2243 CC280000 		.4byte	0x28cc
 7729 2247 0E000000 		.4byte	.LBB350
 7730 224b 06000000 		.4byte	.LBE350-.LBB350
 7731 224f 10       		.byte	0x10
 7732 2250 BF01     		.2byte	0x1bf
 7733 2252 31       		.uleb128 0x31
 7734 2253 D9280000 		.4byte	0x28d9
 7735 2257 7F030000 		.4byte	.LLST39
 7736 225b 00       		.byte	0
 7737 225c 00       		.byte	0
ARM GAS  C:\Users\Moi\AppData\Local\Temp\ccwG6ltn.s 			page 139


 7738 225d 2C       		.uleb128 0x2c
 7739 225e 18000000 		.4byte	.LVL281
 7740 2262 68290000 		.4byte	0x2968
 7741 2266 2C       		.uleb128 0x2c
 7742 2267 1C000000 		.4byte	.LVL282
 7743 226b 73290000 		.4byte	0x2973
 7744 226f 00       		.byte	0
 7745 2270 3E       		.uleb128 0x3e
 7746 2271 81280000 		.4byte	0x2881
 7747 2275 28000000 		.4byte	.LBB352
 7748 2279 28010000 		.4byte	.Ldebug_ranges0+0x128
 7749 227d 01       		.byte	0x1
 7750 227e D8       		.byte	0xd8
 7751 227f E3220000 		.4byte	0x22e3
 7752 2283 3F       		.uleb128 0x3f
 7753 2284 28010000 		.4byte	.Ldebug_ranges0+0x128
 7754 2288 33       		.uleb128 0x33
 7755 2289 8E280000 		.4byte	0x288e
 7756 228d 2F       		.uleb128 0x2f
 7757 228e BA280000 		.4byte	0x28ba
 7758 2292 40000000 		.4byte	.LBB354
 7759 2296 06000000 		.4byte	.LBE354-.LBB354
 7760 229a 05       		.byte	0x5
 7761 229b 7301     		.2byte	0x173
 7762 229d BC220000 		.4byte	0x22bc
 7763 22a1 30       		.uleb128 0x30
 7764 22a2 CC280000 		.4byte	0x28cc
 7765 22a6 40000000 		.4byte	.LBB355
 7766 22aa 06000000 		.4byte	.LBE355-.LBB355
 7767 22ae 10       		.byte	0x10
 7768 22af CD01     		.2byte	0x1cd
 7769 22b1 31       		.uleb128 0x31
 7770 22b2 D9280000 		.4byte	0x28d9
 7771 22b6 94030000 		.4byte	.LLST40
 7772 22ba 00       		.byte	0
 7773 22bb 00       		.byte	0
 7774 22bc 2C       		.uleb128 0x2c
 7775 22bd 2C000000 		.4byte	.LVL284
 7776 22c1 7E290000 		.4byte	0x297e
 7777 22c5 2C       		.uleb128 0x2c
 7778 22c6 30000000 		.4byte	.LVL285
 7779 22ca 89290000 		.4byte	0x2989
 7780 22ce 34       		.uleb128 0x34
 7781 22cf 58000000 		.4byte	.LVL288
 7782 22d3 94290000 		.4byte	0x2994
 7783 22d7 2A       		.uleb128 0x2a
 7784 22d8 01       		.uleb128 0x1
 7785 22d9 50       		.byte	0x50
 7786 22da 05       		.uleb128 0x5
 7787 22db 03       		.byte	0x3
 7788 22dc 00000000 		.4byte	.LANCHOR4
 7789 22e0 00       		.byte	0
 7790 22e1 00       		.byte	0
 7791 22e2 00       		.byte	0
 7792 22e3 29       		.uleb128 0x29
 7793 22e4 22000000 		.4byte	.LVL283
 7794 22e8 302A0000 		.4byte	0x2a30
ARM GAS  C:\Users\Moi\AppData\Local\Temp\ccwG6ltn.s 			page 140


 7795 22ec F6220000 		.4byte	0x22f6
 7796 22f0 2A       		.uleb128 0x2a
 7797 22f1 01       		.uleb128 0x1
 7798 22f2 50       		.byte	0x50
 7799 22f3 01       		.uleb128 0x1
 7800 22f4 33       		.byte	0x33
 7801 22f5 00       		.byte	0
 7802 22f6 2C       		.uleb128 0x2c
 7803 22f7 5E000000 		.4byte	.LVL289
 7804 22fb 07290000 		.4byte	0x2907
 7805 22ff 00       		.byte	0
 7806 2300 3C       		.uleb128 0x3c
 7807 2301 F6020000 		.4byte	.LASF215
 7808 2305 01       		.byte	0x1
 7809 2306 AB       		.byte	0xab
 7810 2307 00000000 		.4byte	.LFB224
 7811 230b F0000000 		.4byte	.LFE224-.LFB224
 7812 230f 01       		.uleb128 0x1
 7813 2310 9C       		.byte	0x9c
 7814 2311 E8240000 		.4byte	0x24e8
 7815 2315 3D       		.uleb128 0x3d
 7816 2316 6E00     		.ascii	"n\000"
 7817 2318 01       		.byte	0x1
 7818 2319 AC       		.byte	0xac
 7819 231a DA000000 		.4byte	0xda
 7820 231e A8030000 		.4byte	.LLST11
 7821 2322 3E       		.uleb128 0x3e
 7822 2323 69280000 		.4byte	0x2869
 7823 2327 04000000 		.4byte	.LBB163
 7824 232b 48000000 		.4byte	.Ldebug_ranges0+0x48
 7825 232f 01       		.byte	0x1
 7826 2330 AE       		.byte	0xae
 7827 2331 45230000 		.4byte	0x2345
 7828 2335 38       		.uleb128 0x38
 7829 2336 75280000 		.4byte	0x2875
 7830 233a 04000000 		.4byte	.LBB165
 7831 233e 02000000 		.4byte	.LBE165-.LBB165
 7832 2342 03       		.byte	0x3
 7833 2343 BD       		.byte	0xbd
 7834 2344 00       		.byte	0
 7835 2345 38       		.uleb128 0x38
 7836 2346 69280000 		.4byte	0x2869
 7837 234a 2C000000 		.4byte	.LBB169
 7838 234e 02000000 		.4byte	.LBE169-.LBB169
 7839 2352 01       		.byte	0x1
 7840 2353 AF       		.byte	0xaf
 7841 2354 38       		.uleb128 0x38
 7842 2355 69280000 		.4byte	0x2869
 7843 2359 44000000 		.4byte	.LBB171
 7844 235d 02000000 		.4byte	.LBE171-.LBB171
 7845 2361 01       		.byte	0x1
 7846 2362 B0       		.byte	0xb0
 7847 2363 38       		.uleb128 0x38
 7848 2364 69280000 		.4byte	0x2869
 7849 2368 5C000000 		.4byte	.LBB173
 7850 236c 02000000 		.4byte	.LBE173-.LBB173
 7851 2370 01       		.byte	0x1
ARM GAS  C:\Users\Moi\AppData\Local\Temp\ccwG6ltn.s 			page 141


 7852 2371 B1       		.byte	0xb1
 7853 2372 38       		.uleb128 0x38
 7854 2373 69280000 		.4byte	0x2869
 7855 2377 74000000 		.4byte	.LBB175
 7856 237b 02000000 		.4byte	.LBE175-.LBB175
 7857 237f 01       		.byte	0x1
 7858 2380 B2       		.byte	0xb2
 7859 2381 29       		.uleb128 0x29
 7860 2382 2C000000 		.4byte	.LVL83
 7861 2386 D7290000 		.4byte	0x29d7
 7862 238a AD230000 		.4byte	0x23ad
 7863 238e 2A       		.uleb128 0x2a
 7864 238f 01       		.uleb128 0x1
 7865 2390 50       		.byte	0x50
 7866 2391 03       		.uleb128 0x3
 7867 2392 76       		.byte	0x76
 7868 2393 00       		.sleb128 0
 7869 2394 06       		.byte	0x6
 7870 2395 2A       		.uleb128 0x2a
 7871 2396 01       		.uleb128 0x1
 7872 2397 51       		.byte	0x51
 7873 2398 03       		.uleb128 0x3
 7874 2399 0A       		.byte	0xa
 7875 239a F801     		.2byte	0x1f8
 7876 239c 2A       		.uleb128 0x2a
 7877 239d 01       		.uleb128 0x1
 7878 239e 53       		.byte	0x53
 7879 239f 05       		.uleb128 0x5
 7880 23a0 03       		.byte	0x3
 7881 23a1 00000000 		.4byte	thread2
 7882 23a5 2A       		.uleb128 0x2a
 7883 23a6 02       		.uleb128 0x2
 7884 23a7 7D       		.byte	0x7d
 7885 23a8 00       		.sleb128 0
 7886 23a9 02       		.uleb128 0x2
 7887 23aa 75       		.byte	0x75
 7888 23ab 00       		.sleb128 0
 7889 23ac 00       		.byte	0
 7890 23ad 29       		.uleb128 0x29
 7891 23ae 44000000 		.4byte	.LVL84
 7892 23b2 D7290000 		.4byte	0x29d7
 7893 23b6 D9230000 		.4byte	0x23d9
 7894 23ba 2A       		.uleb128 0x2a
 7895 23bb 01       		.uleb128 0x1
 7896 23bc 50       		.byte	0x50
 7897 23bd 03       		.uleb128 0x3
 7898 23be 76       		.byte	0x76
 7899 23bf 04       		.sleb128 4
 7900 23c0 06       		.byte	0x6
 7901 23c1 2A       		.uleb128 0x2a
 7902 23c2 01       		.uleb128 0x1
 7903 23c3 51       		.byte	0x51
 7904 23c4 03       		.uleb128 0x3
 7905 23c5 0A       		.byte	0xa
 7906 23c6 F801     		.2byte	0x1f8
 7907 23c8 2A       		.uleb128 0x2a
 7908 23c9 01       		.uleb128 0x1
ARM GAS  C:\Users\Moi\AppData\Local\Temp\ccwG6ltn.s 			page 142


 7909 23ca 53       		.byte	0x53
 7910 23cb 05       		.uleb128 0x5
 7911 23cc 03       		.byte	0x3
 7912 23cd 00000000 		.4byte	thread1
 7913 23d1 2A       		.uleb128 0x2a
 7914 23d2 02       		.uleb128 0x2
 7915 23d3 7D       		.byte	0x7d
 7916 23d4 00       		.sleb128 0
 7917 23d5 02       		.uleb128 0x2
 7918 23d6 75       		.byte	0x75
 7919 23d7 00       		.sleb128 0
 7920 23d8 00       		.byte	0
 7921 23d9 29       		.uleb128 0x29
 7922 23da 5C000000 		.4byte	.LVL85
 7923 23de D7290000 		.4byte	0x29d7
 7924 23e2 05240000 		.4byte	0x2405
 7925 23e6 2A       		.uleb128 0x2a
 7926 23e7 01       		.uleb128 0x1
 7927 23e8 50       		.byte	0x50
 7928 23e9 03       		.uleb128 0x3
 7929 23ea 76       		.byte	0x76
 7930 23eb 08       		.sleb128 8
 7931 23ec 06       		.byte	0x6
 7932 23ed 2A       		.uleb128 0x2a
 7933 23ee 01       		.uleb128 0x1
 7934 23ef 51       		.byte	0x51
 7935 23f0 03       		.uleb128 0x3
 7936 23f1 0A       		.byte	0xa
 7937 23f2 F801     		.2byte	0x1f8
 7938 23f4 2A       		.uleb128 0x2a
 7939 23f5 01       		.uleb128 0x1
 7940 23f6 53       		.byte	0x53
 7941 23f7 05       		.uleb128 0x5
 7942 23f8 03       		.byte	0x3
 7943 23f9 00000000 		.4byte	thread1
 7944 23fd 2A       		.uleb128 0x2a
 7945 23fe 02       		.uleb128 0x2
 7946 23ff 7D       		.byte	0x7d
 7947 2400 00       		.sleb128 0
 7948 2401 02       		.uleb128 0x2
 7949 2402 75       		.byte	0x75
 7950 2403 00       		.sleb128 0
 7951 2404 00       		.byte	0
 7952 2405 29       		.uleb128 0x29
 7953 2406 74000000 		.4byte	.LVL86
 7954 240a D7290000 		.4byte	0x29d7
 7955 240e 31240000 		.4byte	0x2431
 7956 2412 2A       		.uleb128 0x2a
 7957 2413 01       		.uleb128 0x1
 7958 2414 50       		.byte	0x50
 7959 2415 03       		.uleb128 0x3
 7960 2416 76       		.byte	0x76
 7961 2417 0C       		.sleb128 12
 7962 2418 06       		.byte	0x6
 7963 2419 2A       		.uleb128 0x2a
 7964 241a 01       		.uleb128 0x1
 7965 241b 51       		.byte	0x51
ARM GAS  C:\Users\Moi\AppData\Local\Temp\ccwG6ltn.s 			page 143


 7966 241c 03       		.uleb128 0x3
 7967 241d 0A       		.byte	0xa
 7968 241e F801     		.2byte	0x1f8
 7969 2420 2A       		.uleb128 0x2a
 7970 2421 01       		.uleb128 0x1
 7971 2422 53       		.byte	0x53
 7972 2423 05       		.uleb128 0x5
 7973 2424 03       		.byte	0x3
 7974 2425 00000000 		.4byte	thread1
 7975 2429 2A       		.uleb128 0x2a
 7976 242a 02       		.uleb128 0x2
 7977 242b 7D       		.byte	0x7d
 7978 242c 00       		.sleb128 0
 7979 242d 02       		.uleb128 0x2
 7980 242e 75       		.byte	0x75
 7981 242f 00       		.sleb128 0
 7982 2430 00       		.byte	0
 7983 2431 29       		.uleb128 0x29
 7984 2432 8C000000 		.4byte	.LVL87
 7985 2436 D7290000 		.4byte	0x29d7
 7986 243a 5D240000 		.4byte	0x245d
 7987 243e 2A       		.uleb128 0x2a
 7988 243f 01       		.uleb128 0x1
 7989 2440 50       		.byte	0x50
 7990 2441 03       		.uleb128 0x3
 7991 2442 76       		.byte	0x76
 7992 2443 10       		.sleb128 16
 7993 2444 06       		.byte	0x6
 7994 2445 2A       		.uleb128 0x2a
 7995 2446 01       		.uleb128 0x1
 7996 2447 51       		.byte	0x51
 7997 2448 03       		.uleb128 0x3
 7998 2449 0A       		.byte	0xa
 7999 244a F801     		.2byte	0x1f8
 8000 244c 2A       		.uleb128 0x2a
 8001 244d 01       		.uleb128 0x1
 8002 244e 53       		.byte	0x53
 8003 244f 05       		.uleb128 0x5
 8004 2450 03       		.byte	0x3
 8005 2451 00000000 		.4byte	thread1
 8006 2455 2A       		.uleb128 0x2a
 8007 2456 02       		.uleb128 0x2
 8008 2457 7D       		.byte	0x7d
 8009 2458 00       		.sleb128 0
 8010 2459 02       		.uleb128 0x2
 8011 245a 75       		.byte	0x75
 8012 245b 00       		.sleb128 0
 8013 245c 00       		.byte	0
 8014 245d 2C       		.uleb128 0x2c
 8015 245e 94000000 		.4byte	.LVL88
 8016 2462 D0260000 		.4byte	0x26d0
 8017 2466 2C       		.uleb128 0x2c
 8018 2467 9A000000 		.4byte	.LVL90
 8019 246b F8290000 		.4byte	0x29f8
 8020 246f 29       		.uleb128 0x29
 8021 2470 A0000000 		.4byte	.LVL91
 8022 2474 E6280000 		.4byte	0x28e6
ARM GAS  C:\Users\Moi\AppData\Local\Temp\ccwG6ltn.s 			page 144


 8023 2478 86240000 		.4byte	0x2486
 8024 247c 2A       		.uleb128 0x2a
 8025 247d 01       		.uleb128 0x1
 8026 247e 50       		.byte	0x50
 8027 247f 05       		.uleb128 0x5
 8028 2480 03       		.byte	0x3
 8029 2481 00000000 		.4byte	.LC11
 8030 2485 00       		.byte	0
 8031 2486 29       		.uleb128 0x29
 8032 2487 A6000000 		.4byte	.LVL92
 8033 248b F1280000 		.4byte	0x28f1
 8034 248f 9A240000 		.4byte	0x249a
 8035 2493 2A       		.uleb128 0x2a
 8036 2494 01       		.uleb128 0x1
 8037 2495 50       		.byte	0x50
 8038 2496 02       		.uleb128 0x2
 8039 2497 74       		.byte	0x74
 8040 2498 00       		.sleb128 0
 8041 2499 00       		.byte	0
 8042 249a 29       		.uleb128 0x29
 8043 249b AC000000 		.4byte	.LVL93
 8044 249f E6280000 		.4byte	0x28e6
 8045 24a3 B1240000 		.4byte	0x24b1
 8046 24a7 2A       		.uleb128 0x2a
 8047 24a8 01       		.uleb128 0x1
 8048 24a9 50       		.byte	0x50
 8049 24aa 05       		.uleb128 0x5
 8050 24ab 03       		.byte	0x3
 8051 24ac 00000000 		.4byte	.LC13
 8052 24b0 00       		.byte	0
 8053 24b1 29       		.uleb128 0x29
 8054 24b2 B2000000 		.4byte	.LVL94
 8055 24b6 F1280000 		.4byte	0x28f1
 8056 24ba C7240000 		.4byte	0x24c7
 8057 24be 2A       		.uleb128 0x2a
 8058 24bf 01       		.uleb128 0x1
 8059 24c0 50       		.byte	0x50
 8060 24c1 04       		.uleb128 0x4
 8061 24c2 74       		.byte	0x74
 8062 24c3 00       		.sleb128 0
 8063 24c4 31       		.byte	0x31
 8064 24c5 24       		.byte	0x24
 8065 24c6 00       		.byte	0
 8066 24c7 2B       		.uleb128 0x2b
 8067 24c8 C8000000 		.4byte	.LVL96
 8068 24cc FC280000 		.4byte	0x28fc
 8069 24d0 DE240000 		.4byte	0x24de
 8070 24d4 2A       		.uleb128 0x2a
 8071 24d5 01       		.uleb128 0x1
 8072 24d6 50       		.byte	0x50
 8073 24d7 05       		.uleb128 0x5
 8074 24d8 03       		.byte	0x3
 8075 24d9 0C000000 		.4byte	.LC14
 8076 24dd 00       		.byte	0
 8077 24de 2C       		.uleb128 0x2c
 8078 24df CC000000 		.4byte	.LVL97
 8079 24e3 07290000 		.4byte	0x2907
ARM GAS  C:\Users\Moi\AppData\Local\Temp\ccwG6ltn.s 			page 145


 8080 24e7 00       		.byte	0
 8081 24e8 3C       		.uleb128 0x3c
 8082 24e9 2C000000 		.4byte	.LASF216
 8083 24ed 01       		.byte	0x1
 8084 24ee 8D       		.byte	0x8d
 8085 24ef 00000000 		.4byte	.LFB223
 8086 24f3 84000000 		.4byte	.LFE223-.LFB223
 8087 24f7 01       		.uleb128 0x1
 8088 24f8 9C       		.byte	0x9c
 8089 24f9 DC250000 		.4byte	0x25dc
 8090 24fd 3D       		.uleb128 0x3d
 8091 24fe 6E00     		.ascii	"n\000"
 8092 2500 01       		.byte	0x1
 8093 2501 8E       		.byte	0x8e
 8094 2502 DA000000 		.4byte	0xda
 8095 2506 D1030000 		.4byte	.LLST10
 8096 250a 3E       		.uleb128 0x3e
 8097 250b 69280000 		.4byte	0x2869
 8098 250f 02000000 		.4byte	.LBB157
 8099 2513 30000000 		.4byte	.Ldebug_ranges0+0x30
 8100 2517 01       		.byte	0x1
 8101 2518 90       		.byte	0x90
 8102 2519 2D250000 		.4byte	0x252d
 8103 251d 38       		.uleb128 0x38
 8104 251e 75280000 		.4byte	0x2875
 8105 2522 02000000 		.4byte	.LBB159
 8106 2526 02000000 		.4byte	.LBE159-.LBB159
 8107 252a 03       		.byte	0x3
 8108 252b BD       		.byte	0xbd
 8109 252c 00       		.byte	0
 8110 252d 29       		.uleb128 0x29
 8111 252e 24000000 		.4byte	.LVL72
 8112 2532 D7290000 		.4byte	0x29d7
 8113 2536 51250000 		.4byte	0x2551
 8114 253a 2A       		.uleb128 0x2a
 8115 253b 01       		.uleb128 0x1
 8116 253c 51       		.byte	0x51
 8117 253d 03       		.uleb128 0x3
 8118 253e 0A       		.byte	0xa
 8119 253f F801     		.2byte	0x1f8
 8120 2541 2A       		.uleb128 0x2a
 8121 2542 01       		.uleb128 0x1
 8122 2543 53       		.byte	0x53
 8123 2544 05       		.uleb128 0x5
 8124 2545 03       		.byte	0x3
 8125 2546 00000000 		.4byte	thread2
 8126 254a 2A       		.uleb128 0x2a
 8127 254b 02       		.uleb128 0x2
 8128 254c 7D       		.byte	0x7d
 8129 254d 00       		.sleb128 0
 8130 254e 01       		.uleb128 0x1
 8131 254f 30       		.byte	0x30
 8132 2550 00       		.byte	0
 8133 2551 2C       		.uleb128 0x2c
 8134 2552 2C000000 		.4byte	.LVL73
 8135 2556 D0260000 		.4byte	0x26d0
 8136 255a 2C       		.uleb128 0x2c
ARM GAS  C:\Users\Moi\AppData\Local\Temp\ccwG6ltn.s 			page 146


 8137 255b 32000000 		.4byte	.LVL75
 8138 255f F8290000 		.4byte	0x29f8
 8139 2563 29       		.uleb128 0x29
 8140 2564 38000000 		.4byte	.LVL76
 8141 2568 E6280000 		.4byte	0x28e6
 8142 256c 7A250000 		.4byte	0x257a
 8143 2570 2A       		.uleb128 0x2a
 8144 2571 01       		.uleb128 0x1
 8145 2572 50       		.byte	0x50
 8146 2573 05       		.uleb128 0x5
 8147 2574 03       		.byte	0x3
 8148 2575 00000000 		.4byte	.LC11
 8149 2579 00       		.byte	0
 8150 257a 29       		.uleb128 0x29
 8151 257b 3E000000 		.4byte	.LVL77
 8152 257f F1280000 		.4byte	0x28f1
 8153 2583 8E250000 		.4byte	0x258e
 8154 2587 2A       		.uleb128 0x2a
 8155 2588 01       		.uleb128 0x1
 8156 2589 50       		.byte	0x50
 8157 258a 02       		.uleb128 0x2
 8158 258b 75       		.byte	0x75
 8159 258c 00       		.sleb128 0
 8160 258d 00       		.byte	0
 8161 258e 29       		.uleb128 0x29
 8162 258f 44000000 		.4byte	.LVL78
 8163 2593 E6280000 		.4byte	0x28e6
 8164 2597 A5250000 		.4byte	0x25a5
 8165 259b 2A       		.uleb128 0x2a
 8166 259c 01       		.uleb128 0x1
 8167 259d 50       		.byte	0x50
 8168 259e 05       		.uleb128 0x5
 8169 259f 03       		.byte	0x3
 8170 25a0 00000000 		.4byte	.LC13
 8171 25a4 00       		.byte	0
 8172 25a5 29       		.uleb128 0x29
 8173 25a6 4A000000 		.4byte	.LVL79
 8174 25aa F1280000 		.4byte	0x28f1
 8175 25ae BB250000 		.4byte	0x25bb
 8176 25b2 2A       		.uleb128 0x2a
 8177 25b3 01       		.uleb128 0x1
 8178 25b4 50       		.byte	0x50
 8179 25b5 04       		.uleb128 0x4
 8180 25b6 75       		.byte	0x75
 8181 25b7 00       		.sleb128 0
 8182 25b8 31       		.byte	0x31
 8183 25b9 24       		.byte	0x24
 8184 25ba 00       		.byte	0
 8185 25bb 2B       		.uleb128 0x2b
 8186 25bc 5E000000 		.4byte	.LVL81
 8187 25c0 FC280000 		.4byte	0x28fc
 8188 25c4 D2250000 		.4byte	0x25d2
 8189 25c8 2A       		.uleb128 0x2a
 8190 25c9 01       		.uleb128 0x1
 8191 25ca 50       		.byte	0x50
 8192 25cb 05       		.uleb128 0x5
 8193 25cc 03       		.byte	0x3
ARM GAS  C:\Users\Moi\AppData\Local\Temp\ccwG6ltn.s 			page 147


 8194 25cd 0C000000 		.4byte	.LC14
 8195 25d1 00       		.byte	0
 8196 25d2 2C       		.uleb128 0x2c
 8197 25d3 62000000 		.4byte	.LVL82
 8198 25d7 07290000 		.4byte	0x2907
 8199 25db 00       		.byte	0
 8200 25dc 3C       		.uleb128 0x3c
 8201 25dd 48030000 		.4byte	.LASF217
 8202 25e1 01       		.byte	0x1
 8203 25e2 70       		.byte	0x70
 8204 25e3 00000000 		.4byte	.LFB222
 8205 25e7 84000000 		.4byte	.LFE222-.LFB222
 8206 25eb 01       		.uleb128 0x1
 8207 25ec 9C       		.byte	0x9c
 8208 25ed D0260000 		.4byte	0x26d0
 8209 25f1 3D       		.uleb128 0x3d
 8210 25f2 6E00     		.ascii	"n\000"
 8211 25f4 01       		.byte	0x1
 8212 25f5 71       		.byte	0x71
 8213 25f6 DA000000 		.4byte	0xda
 8214 25fa FA030000 		.4byte	.LLST9
 8215 25fe 3E       		.uleb128 0x3e
 8216 25ff 69280000 		.4byte	0x2869
 8217 2603 02000000 		.4byte	.LBB151
 8218 2607 18000000 		.4byte	.Ldebug_ranges0+0x18
 8219 260b 01       		.byte	0x1
 8220 260c 73       		.byte	0x73
 8221 260d 21260000 		.4byte	0x2621
 8222 2611 38       		.uleb128 0x38
 8223 2612 75280000 		.4byte	0x2875
 8224 2616 02000000 		.4byte	.LBB153
 8225 261a 02000000 		.4byte	.LBE153-.LBB153
 8226 261e 03       		.byte	0x3
 8227 261f BD       		.byte	0xbd
 8228 2620 00       		.byte	0
 8229 2621 29       		.uleb128 0x29
 8230 2622 24000000 		.4byte	.LVL61
 8231 2626 D7290000 		.4byte	0x29d7
 8232 262a 45260000 		.4byte	0x2645
 8233 262e 2A       		.uleb128 0x2a
 8234 262f 01       		.uleb128 0x1
 8235 2630 51       		.byte	0x51
 8236 2631 03       		.uleb128 0x3
 8237 2632 0A       		.byte	0xa
 8238 2633 F801     		.2byte	0x1f8
 8239 2635 2A       		.uleb128 0x2a
 8240 2636 01       		.uleb128 0x1
 8241 2637 53       		.byte	0x53
 8242 2638 05       		.uleb128 0x5
 8243 2639 03       		.byte	0x3
 8244 263a 00000000 		.4byte	thread2
 8245 263e 2A       		.uleb128 0x2a
 8246 263f 02       		.uleb128 0x2
 8247 2640 7D       		.byte	0x7d
 8248 2641 00       		.sleb128 0
 8249 2642 01       		.uleb128 0x1
 8250 2643 30       		.byte	0x30
ARM GAS  C:\Users\Moi\AppData\Local\Temp\ccwG6ltn.s 			page 148


 8251 2644 00       		.byte	0
 8252 2645 2C       		.uleb128 0x2c
 8253 2646 2C000000 		.4byte	.LVL62
 8254 264a D0260000 		.4byte	0x26d0
 8255 264e 2C       		.uleb128 0x2c
 8256 264f 32000000 		.4byte	.LVL64
 8257 2653 F8290000 		.4byte	0x29f8
 8258 2657 29       		.uleb128 0x29
 8259 2658 38000000 		.4byte	.LVL65
 8260 265c E6280000 		.4byte	0x28e6
 8261 2660 6E260000 		.4byte	0x266e
 8262 2664 2A       		.uleb128 0x2a
 8263 2665 01       		.uleb128 0x1
 8264 2666 50       		.byte	0x50
 8265 2667 05       		.uleb128 0x5
 8266 2668 03       		.byte	0x3
 8267 2669 00000000 		.4byte	.LC11
 8268 266d 00       		.byte	0
 8269 266e 29       		.uleb128 0x29
 8270 266f 3E000000 		.4byte	.LVL66
 8271 2673 F1280000 		.4byte	0x28f1
 8272 2677 82260000 		.4byte	0x2682
 8273 267b 2A       		.uleb128 0x2a
 8274 267c 01       		.uleb128 0x1
 8275 267d 50       		.byte	0x50
 8276 267e 02       		.uleb128 0x2
 8277 267f 75       		.byte	0x75
 8278 2680 00       		.sleb128 0
 8279 2681 00       		.byte	0
 8280 2682 29       		.uleb128 0x29
 8281 2683 44000000 		.4byte	.LVL67
 8282 2687 E6280000 		.4byte	0x28e6
 8283 268b 99260000 		.4byte	0x2699
 8284 268f 2A       		.uleb128 0x2a
 8285 2690 01       		.uleb128 0x1
 8286 2691 50       		.byte	0x50
 8287 2692 05       		.uleb128 0x5
 8288 2693 03       		.byte	0x3
 8289 2694 00000000 		.4byte	.LC13
 8290 2698 00       		.byte	0
 8291 2699 29       		.uleb128 0x29
 8292 269a 4A000000 		.4byte	.LVL68
 8293 269e F1280000 		.4byte	0x28f1
 8294 26a2 AF260000 		.4byte	0x26af
 8295 26a6 2A       		.uleb128 0x2a
 8296 26a7 01       		.uleb128 0x1
 8297 26a8 50       		.byte	0x50
 8298 26a9 04       		.uleb128 0x4
 8299 26aa 75       		.byte	0x75
 8300 26ab 00       		.sleb128 0
 8301 26ac 31       		.byte	0x31
 8302 26ad 24       		.byte	0x24
 8303 26ae 00       		.byte	0
 8304 26af 2B       		.uleb128 0x2b
 8305 26b0 5E000000 		.4byte	.LVL70
 8306 26b4 FC280000 		.4byte	0x28fc
 8307 26b8 C6260000 		.4byte	0x26c6
ARM GAS  C:\Users\Moi\AppData\Local\Temp\ccwG6ltn.s 			page 149


 8308 26bc 2A       		.uleb128 0x2a
 8309 26bd 01       		.uleb128 0x1
 8310 26be 50       		.byte	0x50
 8311 26bf 05       		.uleb128 0x5
 8312 26c0 03       		.byte	0x3
 8313 26c1 0C000000 		.4byte	.LC14
 8314 26c5 00       		.byte	0
 8315 26c6 2C       		.uleb128 0x2c
 8316 26c7 62000000 		.4byte	.LVL71
 8317 26cb 07290000 		.4byte	0x2907
 8318 26cf 00       		.byte	0
 8319 26d0 44       		.uleb128 0x44
 8320 26d1 9B0B0000 		.4byte	.LASF271
 8321 26d5 01       		.byte	0x1
 8322 26d6 57       		.byte	0x57
 8323 26d7 37000000 		.4byte	0x37
 8324 26db 00000000 		.4byte	.LFB221
 8325 26df 50000000 		.4byte	.LFE221-.LFB221
 8326 26e3 01       		.uleb128 0x1
 8327 26e4 9C       		.byte	0x9c
 8328 26e5 5E270000 		.4byte	0x275e
 8329 26e9 41       		.uleb128 0x41
 8330 26ea 747000   		.ascii	"tp\000"
 8331 26ed 01       		.byte	0x1
 8332 26ee 57       		.byte	0x57
 8333 26ef AD020000 		.4byte	0x2ad
 8334 26f3 23040000 		.4byte	.LLST7
 8335 26f7 3D       		.uleb128 0x3d
 8336 26f8 6E00     		.ascii	"n\000"
 8337 26fa 01       		.byte	0x1
 8338 26fb 59       		.byte	0x59
 8339 26fc DA000000 		.4byte	0xda
 8340 2700 41040000 		.4byte	.LLST8
 8341 2704 2C       		.uleb128 0x2c
 8342 2705 12000000 		.4byte	.LVL53
 8343 2709 10290000 		.4byte	0x2910
 8344 270d 29       		.uleb128 0x29
 8345 270e 1A000000 		.4byte	.LVL54
 8346 2712 1B290000 		.4byte	0x291b
 8347 2716 22270000 		.4byte	0x2722
 8348 271a 2A       		.uleb128 0x2a
 8349 271b 01       		.uleb128 0x1
 8350 271c 50       		.byte	0x50
 8351 271d 03       		.uleb128 0x3
 8352 271e 0A       		.byte	0xa
 8353 271f E803     		.2byte	0x3e8
 8354 2721 00       		.byte	0
 8355 2722 29       		.uleb128 0x29
 8356 2723 24000000 		.4byte	.LVL56
 8357 2727 3C2A0000 		.4byte	0x2a3c
 8358 272b 3B270000 		.4byte	0x273b
 8359 272f 2A       		.uleb128 0x2a
 8360 2730 01       		.uleb128 0x1
 8361 2731 50       		.byte	0x50
 8362 2732 02       		.uleb128 0x2
 8363 2733 75       		.byte	0x75
 8364 2734 00       		.sleb128 0
ARM GAS  C:\Users\Moi\AppData\Local\Temp\ccwG6ltn.s 			page 150


 8365 2735 2A       		.uleb128 0x2a
 8366 2736 01       		.uleb128 0x1
 8367 2737 51       		.byte	0x51
 8368 2738 01       		.uleb128 0x1
 8369 2739 31       		.byte	0x31
 8370 273a 00       		.byte	0
 8371 273b 29       		.uleb128 0x29
 8372 273c 34000000 		.4byte	.LVL58
 8373 2740 3C2A0000 		.4byte	0x2a3c
 8374 2744 54270000 		.4byte	0x2754
 8375 2748 2A       		.uleb128 0x2a
 8376 2749 01       		.uleb128 0x1
 8377 274a 50       		.byte	0x50
 8378 274b 02       		.uleb128 0x2
 8379 274c 75       		.byte	0x75
 8380 274d 00       		.sleb128 0
 8381 274e 2A       		.uleb128 0x2a
 8382 274f 01       		.uleb128 0x1
 8383 2750 51       		.byte	0x51
 8384 2751 01       		.uleb128 0x1
 8385 2752 30       		.byte	0x30
 8386 2753 00       		.byte	0
 8387 2754 2C       		.uleb128 0x2c
 8388 2755 46000000 		.4byte	.LVL60
 8389 2759 07290000 		.4byte	0x2907
 8390 275d 00       		.byte	0
 8391 275e 3C       		.uleb128 0x3c
 8392 275f 02090000 		.4byte	.LASF218
 8393 2763 01       		.byte	0x1
 8394 2764 48       		.byte	0x48
 8395 2765 00000000 		.4byte	.LFB220
 8396 2769 30000000 		.4byte	.LFE220-.LFB220
 8397 276d 01       		.uleb128 0x1
 8398 276e 9C       		.byte	0x9c
 8399 276f DD270000 		.4byte	0x27dd
 8400 2773 41       		.uleb128 0x41
 8401 2774 7000     		.ascii	"p\000"
 8402 2776 01       		.byte	0x1
 8403 2777 48       		.byte	0x48
 8404 2778 8A030000 		.4byte	0x38a
 8405 277c 76040000 		.4byte	.LLST1
 8406 2780 3D       		.uleb128 0x3d
 8407 2781 747000   		.ascii	"tp\000"
 8408 2784 01       		.byte	0x1
 8409 2785 49       		.byte	0x49
 8410 2786 AD020000 		.4byte	0x2ad
 8411 278a 97040000 		.4byte	.LLST2
 8412 278e 45       		.uleb128 0x45
 8413 278f 6D736700 		.ascii	"msg\000"
 8414 2793 01       		.byte	0x1
 8415 2794 4A       		.byte	0x4a
 8416 2795 3D010000 		.4byte	0x13d
 8417 2799 40       		.uleb128 0x40
 8418 279a 42280000 		.4byte	0x2842
 8419 279e 0E000000 		.4byte	.LBB143
 8420 27a2 02000000 		.4byte	.LBE143-.LBB143
 8421 27a6 01       		.byte	0x1
ARM GAS  C:\Users\Moi\AppData\Local\Temp\ccwG6ltn.s 			page 151


 8422 27a7 4F       		.byte	0x4f
 8423 27a8 B6270000 		.4byte	0x27b6
 8424 27ac 31       		.uleb128 0x31
 8425 27ad 52280000 		.4byte	0x2852
 8426 27b1 AA040000 		.4byte	.LLST3
 8427 27b5 00       		.byte	0
 8428 27b6 2C       		.uleb128 0x2c
 8429 27b7 0E000000 		.4byte	.LVL35
 8430 27bb 472A0000 		.4byte	0x2a47
 8431 27bf 29       		.uleb128 0x29
 8432 27c0 16000000 		.4byte	.LVL37
 8433 27c4 522A0000 		.4byte	0x2a52
 8434 27c8 D3270000 		.4byte	0x27d3
 8435 27cc 2A       		.uleb128 0x2a
 8436 27cd 01       		.uleb128 0x1
 8437 27ce 51       		.byte	0x51
 8438 27cf 02       		.uleb128 0x2
 8439 27d0 74       		.byte	0x74
 8440 27d1 00       		.sleb128 0
 8441 27d2 00       		.byte	0
 8442 27d3 2C       		.uleb128 0x2c
 8443 27d4 2A000000 		.4byte	.LVL38
 8444 27d8 07290000 		.4byte	0x2907
 8445 27dc 00       		.byte	0
 8446 27dd 3C       		.uleb128 0x3c
 8447 27de FA080000 		.4byte	.LASF220
 8448 27e2 01       		.byte	0x1
 8449 27e3 42       		.byte	0x42
 8450 27e4 00000000 		.4byte	.LFB219
 8451 27e8 24000000 		.4byte	.LFE219-.LFB219
 8452 27ec 01       		.uleb128 0x1
 8453 27ed 9C       		.byte	0x9c
 8454 27ee 1E280000 		.4byte	0x281e
 8455 27f2 41       		.uleb128 0x41
 8456 27f3 7000     		.ascii	"p\000"
 8457 27f5 01       		.byte	0x1
 8458 27f6 42       		.byte	0x42
 8459 27f7 8A030000 		.4byte	0x38a
 8460 27fb BD040000 		.4byte	.LLST12
 8461 27ff 2B       		.uleb128 0x2b
 8462 2800 1C000000 		.4byte	.LVL99
 8463 2804 5D2A0000 		.4byte	0x2a5d
 8464 2808 14280000 		.4byte	0x2814
 8465 280c 2A       		.uleb128 0x2a
 8466 280d 01       		.uleb128 0x1
 8467 280e 50       		.byte	0x50
 8468 280f 03       		.uleb128 0x3
 8469 2810 F3       		.byte	0xf3
 8470 2811 01       		.uleb128 0x1
 8471 2812 50       		.byte	0x50
 8472 2813 00       		.byte	0
 8473 2814 2C       		.uleb128 0x2c
 8474 2815 20000000 		.4byte	.LVL100
 8475 2819 07290000 		.4byte	0x2907
 8476 281d 00       		.byte	0
 8477 281e 46       		.uleb128 0x46
 8478 281f 9E070000 		.4byte	.LASF221
ARM GAS  C:\Users\Moi\AppData\Local\Temp\ccwG6ltn.s 			page 152


 8479 2823 06       		.byte	0x6
 8480 2824 5301     		.2byte	0x153
 8481 2826 3D010000 		.4byte	0x13d
 8482 282a 03       		.byte	0x3
 8483 282b 3C280000 		.4byte	0x283c
 8484 282f 47       		.uleb128 0x47
 8485 2830 69717000 		.ascii	"iqp\000"
 8486 2834 06       		.byte	0x6
 8487 2835 5301     		.2byte	0x153
 8488 2837 3C280000 		.4byte	0x283c
 8489 283b 00       		.byte	0
 8490 283c 0A       		.uleb128 0xa
 8491 283d 04       		.byte	0x4
 8492 283e A70A0000 		.4byte	0xaa7
 8493 2842 48       		.uleb128 0x48
 8494 2843 B2080000 		.4byte	.LASF222
 8495 2847 02       		.byte	0x2
 8496 2848 60       		.byte	0x60
 8497 2849 3D010000 		.4byte	0x13d
 8498 284d 03       		.byte	0x3
 8499 284e 5D280000 		.4byte	0x285d
 8500 2852 49       		.uleb128 0x49
 8501 2853 747000   		.ascii	"tp\000"
 8502 2856 02       		.byte	0x2
 8503 2857 60       		.byte	0x60
 8504 2858 AD020000 		.4byte	0x2ad
 8505 285c 00       		.byte	0
 8506 285d 4A       		.uleb128 0x4a
 8507 285e 8F0C0000 		.4byte	.LASF223
 8508 2862 03       		.byte	0x3
 8509 2863 E7       		.byte	0xe7
 8510 2864 8F0B0000 		.4byte	0xb8f
 8511 2868 03       		.byte	0x3
 8512 2869 4A       		.uleb128 0x4a
 8513 286a D4000000 		.4byte	.LASF224
 8514 286e 03       		.byte	0x3
 8515 286f BB       		.byte	0xbb
 8516 2870 32010000 		.4byte	0x132
 8517 2874 03       		.byte	0x3
 8518 2875 4A       		.uleb128 0x4a
 8519 2876 DC090000 		.4byte	.LASF225
 8520 287a 03       		.byte	0x3
 8521 287b AE       		.byte	0xae
 8522 287c AD020000 		.4byte	0x2ad
 8523 2880 03       		.byte	0x3
 8524 2881 4B       		.uleb128 0x4b
 8525 2882 82040000 		.4byte	.LASF230
 8526 2886 05       		.byte	0x5
 8527 2887 6601     		.2byte	0x166
 8528 2889 03       		.byte	0x3
 8529 288a 9C280000 		.4byte	0x289c
 8530 288e 4C       		.uleb128 0x4c
 8531 288f E6000000 		.4byte	.LASF226
 8532 2893 AC280000 		.4byte	0x28ac
 8533 2897 82040000 		.4byte	.LASF230
 8534 289b 00       		.byte	0
 8535 289c 18       		.uleb128 0x18
ARM GAS  C:\Users\Moi\AppData\Local\Temp\ccwG6ltn.s 			page 153


 8536 289d B3080000 		.4byte	0x8b3
 8537 28a1 AC280000 		.4byte	0x28ac
 8538 28a5 19       		.uleb128 0x19
 8539 28a6 37000000 		.4byte	0x37
 8540 28aa 0B       		.byte	0xb
 8541 28ab 00       		.byte	0
 8542 28ac 0F       		.uleb128 0xf
 8543 28ad 9C280000 		.4byte	0x289c
 8544 28b1 4D       		.uleb128 0x4d
 8545 28b2 A8040000 		.4byte	.LASF227
 8546 28b6 05       		.byte	0x5
 8547 28b7 5A01     		.2byte	0x15a
 8548 28b9 03       		.byte	0x3
 8549 28ba 4D       		.uleb128 0x4d
 8550 28bb CB010000 		.4byte	.LASF228
 8551 28bf 10       		.byte	0x10
 8552 28c0 CA01     		.2byte	0x1ca
 8553 28c2 03       		.byte	0x3
 8554 28c3 4D       		.uleb128 0x4d
 8555 28c4 A0090000 		.4byte	.LASF229
 8556 28c8 10       		.byte	0x10
 8557 28c9 BC01     		.2byte	0x1bc
 8558 28cb 03       		.byte	0x3
 8559 28cc 4B       		.uleb128 0x4b
 8560 28cd 25090000 		.4byte	.LASF231
 8561 28d1 04       		.byte	0x4
 8562 28d2 2002     		.2byte	0x220
 8563 28d4 03       		.byte	0x3
 8564 28d5 E6280000 		.4byte	0x28e6
 8565 28d9 4E       		.uleb128 0x4e
 8566 28da 55030000 		.4byte	.LASF232
 8567 28de 04       		.byte	0x4
 8568 28df 2002     		.2byte	0x220
 8569 28e1 DA000000 		.4byte	0xda
 8570 28e5 00       		.byte	0
 8571 28e6 4F       		.uleb128 0x4f
 8572 28e7 EB010000 		.4byte	.LASF233
 8573 28eb EB010000 		.4byte	.LASF233
 8574 28ef 17       		.byte	0x17
 8575 28f0 56       		.byte	0x56
 8576 28f1 4F       		.uleb128 0x4f
 8577 28f2 750B0000 		.4byte	.LASF234
 8578 28f6 750B0000 		.4byte	.LASF234
 8579 28fa 17       		.byte	0x17
 8580 28fb 55       		.byte	0x55
 8581 28fc 4F       		.uleb128 0x4f
 8582 28fd 510B0000 		.4byte	.LASF235
 8583 2901 510B0000 		.4byte	.LASF235
 8584 2905 17       		.byte	0x17
 8585 2906 57       		.byte	0x57
 8586 2907 50       		.uleb128 0x50
 8587 2908 02060000 		.4byte	.LASF272
 8588 290c 02060000 		.4byte	.LASF272
 8589 2910 4F       		.uleb128 0x4f
 8590 2911 C2060000 		.4byte	.LASF236
 8591 2915 C2060000 		.4byte	.LASF236
 8592 2919 17       		.byte	0x17
ARM GAS  C:\Users\Moi\AppData\Local\Temp\ccwG6ltn.s 			page 154


 8593 291a 5F       		.byte	0x5f
 8594 291b 4F       		.uleb128 0x4f
 8595 291c 66030000 		.4byte	.LASF237
 8596 2920 66030000 		.4byte	.LASF237
 8597 2924 17       		.byte	0x17
 8598 2925 60       		.byte	0x60
 8599 2926 4F       		.uleb128 0x4f
 8600 2927 85060000 		.4byte	.LASF238
 8601 292b 85060000 		.4byte	.LASF238
 8602 292f 15       		.byte	0x15
 8603 2930 68       		.byte	0x68
 8604 2931 4F       		.uleb128 0x4f
 8605 2932 DF010000 		.4byte	.LASF239
 8606 2936 DF010000 		.4byte	.LASF239
 8607 293a 15       		.byte	0x15
 8608 293b 6C       		.byte	0x6c
 8609 293c 4F       		.uleb128 0x4f
 8610 293d 7F0C0000 		.4byte	.LASF240
 8611 2941 7F0C0000 		.4byte	.LASF240
 8612 2945 15       		.byte	0x15
 8613 2946 67       		.byte	0x67
 8614 2947 4F       		.uleb128 0x4f
 8615 2948 70000000 		.4byte	.LASF241
 8616 294c 70000000 		.4byte	.LASF241
 8617 2950 14       		.byte	0x14
 8618 2951 5E       		.byte	0x5e
 8619 2952 4F       		.uleb128 0x4f
 8620 2953 B7040000 		.4byte	.LASF242
 8621 2957 B7040000 		.4byte	.LASF242
 8622 295b 14       		.byte	0x14
 8623 295c 62       		.byte	0x62
 8624 295d 4F       		.uleb128 0x4f
 8625 295e 5E0B0000 		.4byte	.LASF243
 8626 2962 5E0B0000 		.4byte	.LASF243
 8627 2966 14       		.byte	0x14
 8628 2967 5B       		.byte	0x5b
 8629 2968 4F       		.uleb128 0x4f
 8630 2969 BB080000 		.4byte	.LASF244
 8631 296d BB080000 		.4byte	.LASF244
 8632 2971 13       		.byte	0x13
 8633 2972 4F       		.byte	0x4f
 8634 2973 4F       		.uleb128 0x4f
 8635 2974 EA080000 		.4byte	.LASF245
 8636 2978 EA080000 		.4byte	.LASF245
 8637 297c 11       		.byte	0x11
 8638 297d D8       		.byte	0xd8
 8639 297e 4F       		.uleb128 0x4f
 8640 297f 3D010000 		.4byte	.LASF246
 8641 2983 3D010000 		.4byte	.LASF246
 8642 2987 11       		.byte	0x11
 8643 2988 D9       		.byte	0xd9
 8644 2989 4F       		.uleb128 0x4f
 8645 298a 6F020000 		.4byte	.LASF247
 8646 298e 6F020000 		.4byte	.LASF247
 8647 2992 13       		.byte	0x13
 8648 2993 50       		.byte	0x50
 8649 2994 51       		.uleb128 0x51
ARM GAS  C:\Users\Moi\AppData\Local\Temp\ccwG6ltn.s 			page 155


 8650 2995 810B0000 		.4byte	.LASF248
 8651 2999 810B0000 		.4byte	.LASF248
 8652 299d 05       		.byte	0x5
 8653 299e 1601     		.2byte	0x116
 8654 29a0 4F       		.uleb128 0x4f
 8655 29a1 67010000 		.4byte	.LASF249
 8656 29a5 67010000 		.4byte	.LASF249
 8657 29a9 18       		.byte	0x18
 8658 29aa BC       		.byte	0xbc
 8659 29ab 4F       		.uleb128 0x4f
 8660 29ac 03010000 		.4byte	.LASF250
 8661 29b0 03010000 		.4byte	.LASF250
 8662 29b4 18       		.byte	0x18
 8663 29b5 BE       		.byte	0xbe
 8664 29b6 4F       		.uleb128 0x4f
 8665 29b7 0A070000 		.4byte	.LASF251
 8666 29bb 0A070000 		.4byte	.LASF251
 8667 29bf 06       		.byte	0x6
 8668 29c0 F2       		.byte	0xf2
 8669 29c1 4F       		.uleb128 0x4f
 8670 29c2 29010000 		.4byte	.LASF252
 8671 29c6 29010000 		.4byte	.LASF252
 8672 29ca 06       		.byte	0x6
 8673 29cb EE       		.byte	0xee
 8674 29cc 4F       		.uleb128 0x4f
 8675 29cd D30B0000 		.4byte	.LASF253
 8676 29d1 D30B0000 		.4byte	.LASF253
 8677 29d5 06       		.byte	0x6
 8678 29d6 F1       		.byte	0xf1
 8679 29d7 4F       		.uleb128 0x4f
 8680 29d8 3C060000 		.4byte	.LASF254
 8681 29dc 3C060000 		.4byte	.LASF254
 8682 29e0 03       		.byte	0x3
 8683 29e1 89       		.byte	0x89
 8684 29e2 4F       		.uleb128 0x4f
 8685 29e3 D6030000 		.4byte	.LASF255
 8686 29e7 D6030000 		.4byte	.LASF255
 8687 29eb 03       		.byte	0x3
 8688 29ec 96       		.byte	0x96
 8689 29ed 4F       		.uleb128 0x4f
 8690 29ee 84090000 		.4byte	.LASF256
 8691 29f2 84090000 		.4byte	.LASF256
 8692 29f6 17       		.byte	0x17
 8693 29f7 5D       		.byte	0x5d
 8694 29f8 4F       		.uleb128 0x4f
 8695 29f9 73060000 		.4byte	.LASF257
 8696 29fd 73060000 		.4byte	.LASF257
 8697 2a01 17       		.byte	0x17
 8698 2a02 5E       		.byte	0x5e
 8699 2a03 4F       		.uleb128 0x4f
 8700 2a04 B90B0000 		.4byte	.LASF258
 8701 2a08 B90B0000 		.4byte	.LASF258
 8702 2a0c 03       		.byte	0x3
 8703 2a0d 99       		.byte	0x99
 8704 2a0e 4F       		.uleb128 0x4f
 8705 2a0f 60060000 		.4byte	.LASF259
 8706 2a13 60060000 		.4byte	.LASF259
ARM GAS  C:\Users\Moi\AppData\Local\Temp\ccwG6ltn.s 			page 156


 8707 2a17 14       		.byte	0x14
 8708 2a18 5C       		.byte	0x5c
 8709 2a19 4F       		.uleb128 0x4f
 8710 2a1a A0010000 		.4byte	.LASF260
 8711 2a1e A0010000 		.4byte	.LASF260
 8712 2a22 03       		.byte	0x3
 8713 2a23 9D       		.byte	0x9d
 8714 2a24 51       		.uleb128 0x51
 8715 2a25 3B030000 		.4byte	.LASF261
 8716 2a29 3B030000 		.4byte	.LASF261
 8717 2a2d 0C       		.byte	0xc
 8718 2a2e 1602     		.2byte	0x216
 8719 2a30 51       		.uleb128 0x51
 8720 2a31 28040000 		.4byte	.LASF262
 8721 2a35 28040000 		.4byte	.LASF262
 8722 2a39 0C       		.byte	0xc
 8723 2a3a 1402     		.2byte	0x214
 8724 2a3c 4F       		.uleb128 0x4f
 8725 2a3d 4E060000 		.4byte	.LASF263
 8726 2a41 4E060000 		.4byte	.LASF263
 8727 2a45 02       		.byte	0x2
 8728 2a46 3C       		.byte	0x3c
 8729 2a47 4F       		.uleb128 0x4f
 8730 2a48 0A0C0000 		.4byte	.LASF264
 8731 2a4c 0A0C0000 		.4byte	.LASF264
 8732 2a50 02       		.byte	0x2
 8733 2a51 3D       		.byte	0x3d
 8734 2a52 4F       		.uleb128 0x4f
 8735 2a53 4D000000 		.4byte	.LASF265
 8736 2a57 4D000000 		.4byte	.LASF265
 8737 2a5b 02       		.byte	0x2
 8738 2a5c 3E       		.byte	0x3e
 8739 2a5d 4F       		.uleb128 0x4f
 8740 2a5e 44020000 		.4byte	.LASF266
 8741 2a62 44020000 		.4byte	.LASF266
 8742 2a66 03       		.byte	0x3
 8743 2a67 9A       		.byte	0x9a
 8744 2a68 00       		.byte	0
 8745              		.section	.debug_abbrev,"",%progbits
 8746              	.Ldebug_abbrev0:
 8747 0000 01       		.uleb128 0x1
 8748 0001 11       		.uleb128 0x11
 8749 0002 01       		.byte	0x1
 8750 0003 25       		.uleb128 0x25
 8751 0004 0E       		.uleb128 0xe
 8752 0005 13       		.uleb128 0x13
 8753 0006 0B       		.uleb128 0xb
 8754 0007 03       		.uleb128 0x3
 8755 0008 0E       		.uleb128 0xe
 8756 0009 1B       		.uleb128 0x1b
 8757 000a 0E       		.uleb128 0xe
 8758 000b 55       		.uleb128 0x55
 8759 000c 17       		.uleb128 0x17
 8760 000d 11       		.uleb128 0x11
 8761 000e 01       		.uleb128 0x1
 8762 000f 10       		.uleb128 0x10
 8763 0010 17       		.uleb128 0x17
ARM GAS  C:\Users\Moi\AppData\Local\Temp\ccwG6ltn.s 			page 157


 8764 0011 00       		.byte	0
 8765 0012 00       		.byte	0
 8766 0013 02       		.uleb128 0x2
 8767 0014 24       		.uleb128 0x24
 8768 0015 00       		.byte	0
 8769 0016 0B       		.uleb128 0xb
 8770 0017 0B       		.uleb128 0xb
 8771 0018 3E       		.uleb128 0x3e
 8772 0019 0B       		.uleb128 0xb
 8773 001a 03       		.uleb128 0x3
 8774 001b 08       		.uleb128 0x8
 8775 001c 00       		.byte	0
 8776 001d 00       		.byte	0
 8777 001e 03       		.uleb128 0x3
 8778 001f 16       		.uleb128 0x16
 8779 0020 00       		.byte	0
 8780 0021 03       		.uleb128 0x3
 8781 0022 0E       		.uleb128 0xe
 8782 0023 3A       		.uleb128 0x3a
 8783 0024 0B       		.uleb128 0xb
 8784 0025 3B       		.uleb128 0x3b
 8785 0026 0B       		.uleb128 0xb
 8786 0027 49       		.uleb128 0x49
 8787 0028 13       		.uleb128 0x13
 8788 0029 00       		.byte	0
 8789 002a 00       		.byte	0
 8790 002b 04       		.uleb128 0x4
 8791 002c 24       		.uleb128 0x24
 8792 002d 00       		.byte	0
 8793 002e 0B       		.uleb128 0xb
 8794 002f 0B       		.uleb128 0xb
 8795 0030 3E       		.uleb128 0x3e
 8796 0031 0B       		.uleb128 0xb
 8797 0032 03       		.uleb128 0x3
 8798 0033 0E       		.uleb128 0xe
 8799 0034 00       		.byte	0
 8800 0035 00       		.byte	0
 8801 0036 05       		.uleb128 0x5
 8802 0037 35       		.uleb128 0x35
 8803 0038 00       		.byte	0
 8804 0039 49       		.uleb128 0x49
 8805 003a 13       		.uleb128 0x13
 8806 003b 00       		.byte	0
 8807 003c 00       		.byte	0
 8808 003d 06       		.uleb128 0x6
 8809 003e 13       		.uleb128 0x13
 8810 003f 01       		.byte	0x1
 8811 0040 03       		.uleb128 0x3
 8812 0041 0E       		.uleb128 0xe
 8813 0042 0B       		.uleb128 0xb
 8814 0043 0B       		.uleb128 0xb
 8815 0044 3A       		.uleb128 0x3a
 8816 0045 0B       		.uleb128 0xb
 8817 0046 3B       		.uleb128 0x3b
 8818 0047 0B       		.uleb128 0xb
 8819 0048 01       		.uleb128 0x1
 8820 0049 13       		.uleb128 0x13
ARM GAS  C:\Users\Moi\AppData\Local\Temp\ccwG6ltn.s 			page 158


 8821 004a 00       		.byte	0
 8822 004b 00       		.byte	0
 8823 004c 07       		.uleb128 0x7
 8824 004d 0D       		.uleb128 0xd
 8825 004e 00       		.byte	0
 8826 004f 03       		.uleb128 0x3
 8827 0050 0E       		.uleb128 0xe
 8828 0051 3A       		.uleb128 0x3a
 8829 0052 0B       		.uleb128 0xb
 8830 0053 3B       		.uleb128 0x3b
 8831 0054 0B       		.uleb128 0xb
 8832 0055 49       		.uleb128 0x49
 8833 0056 13       		.uleb128 0x13
 8834 0057 38       		.uleb128 0x38
 8835 0058 0B       		.uleb128 0xb
 8836 0059 00       		.byte	0
 8837 005a 00       		.byte	0
 8838 005b 08       		.uleb128 0x8
 8839 005c 0D       		.uleb128 0xd
 8840 005d 00       		.byte	0
 8841 005e 03       		.uleb128 0x3
 8842 005f 08       		.uleb128 0x8
 8843 0060 3A       		.uleb128 0x3a
 8844 0061 0B       		.uleb128 0xb
 8845 0062 3B       		.uleb128 0x3b
 8846 0063 05       		.uleb128 0x5
 8847 0064 49       		.uleb128 0x49
 8848 0065 13       		.uleb128 0x13
 8849 0066 38       		.uleb128 0x38
 8850 0067 0B       		.uleb128 0xb
 8851 0068 00       		.byte	0
 8852 0069 00       		.byte	0
 8853 006a 09       		.uleb128 0x9
 8854 006b 0D       		.uleb128 0xd
 8855 006c 00       		.byte	0
 8856 006d 03       		.uleb128 0x3
 8857 006e 0E       		.uleb128 0xe
 8858 006f 3A       		.uleb128 0x3a
 8859 0070 0B       		.uleb128 0xb
 8860 0071 3B       		.uleb128 0x3b
 8861 0072 05       		.uleb128 0x5
 8862 0073 49       		.uleb128 0x49
 8863 0074 13       		.uleb128 0x13
 8864 0075 38       		.uleb128 0x38
 8865 0076 0B       		.uleb128 0xb
 8866 0077 00       		.byte	0
 8867 0078 00       		.byte	0
 8868 0079 0A       		.uleb128 0xa
 8869 007a 0F       		.uleb128 0xf
 8870 007b 00       		.byte	0
 8871 007c 0B       		.uleb128 0xb
 8872 007d 0B       		.uleb128 0xb
 8873 007e 49       		.uleb128 0x49
 8874 007f 13       		.uleb128 0x13
 8875 0080 00       		.byte	0
 8876 0081 00       		.byte	0
 8877 0082 0B       		.uleb128 0xb
ARM GAS  C:\Users\Moi\AppData\Local\Temp\ccwG6ltn.s 			page 159


 8878 0083 13       		.uleb128 0x13
 8879 0084 01       		.byte	0x1
 8880 0085 03       		.uleb128 0x3
 8881 0086 0E       		.uleb128 0xe
 8882 0087 0B       		.uleb128 0xb
 8883 0088 0B       		.uleb128 0xb
 8884 0089 3A       		.uleb128 0x3a
 8885 008a 0B       		.uleb128 0xb
 8886 008b 3B       		.uleb128 0x3b
 8887 008c 05       		.uleb128 0x5
 8888 008d 01       		.uleb128 0x1
 8889 008e 13       		.uleb128 0x13
 8890 008f 00       		.byte	0
 8891 0090 00       		.byte	0
 8892 0091 0C       		.uleb128 0xc
 8893 0092 15       		.uleb128 0x15
 8894 0093 01       		.byte	0x1
 8895 0094 27       		.uleb128 0x27
 8896 0095 19       		.uleb128 0x19
 8897 0096 01       		.uleb128 0x1
 8898 0097 13       		.uleb128 0x13
 8899 0098 00       		.byte	0
 8900 0099 00       		.byte	0
 8901 009a 0D       		.uleb128 0xd
 8902 009b 05       		.uleb128 0x5
 8903 009c 00       		.byte	0
 8904 009d 49       		.uleb128 0x49
 8905 009e 13       		.uleb128 0x13
 8906 009f 00       		.byte	0
 8907 00a0 00       		.byte	0
 8908 00a1 0E       		.uleb128 0xe
 8909 00a2 0F       		.uleb128 0xf
 8910 00a3 00       		.byte	0
 8911 00a4 0B       		.uleb128 0xb
 8912 00a5 0B       		.uleb128 0xb
 8913 00a6 00       		.byte	0
 8914 00a7 00       		.byte	0
 8915 00a8 0F       		.uleb128 0xf
 8916 00a9 26       		.uleb128 0x26
 8917 00aa 00       		.byte	0
 8918 00ab 49       		.uleb128 0x49
 8919 00ac 13       		.uleb128 0x13
 8920 00ad 00       		.byte	0
 8921 00ae 00       		.byte	0
 8922 00af 10       		.uleb128 0x10
 8923 00b0 13       		.uleb128 0x13
 8924 00b1 01       		.byte	0x1
 8925 00b2 03       		.uleb128 0x3
 8926 00b3 0E       		.uleb128 0xe
 8927 00b4 0B       		.uleb128 0xb
 8928 00b5 05       		.uleb128 0x5
 8929 00b6 3A       		.uleb128 0x3a
 8930 00b7 0B       		.uleb128 0xb
 8931 00b8 3B       		.uleb128 0x3b
 8932 00b9 05       		.uleb128 0x5
 8933 00ba 01       		.uleb128 0x1
 8934 00bb 13       		.uleb128 0x13
ARM GAS  C:\Users\Moi\AppData\Local\Temp\ccwG6ltn.s 			page 160


 8935 00bc 00       		.byte	0
 8936 00bd 00       		.byte	0
 8937 00be 11       		.uleb128 0x11
 8938 00bf 0D       		.uleb128 0xd
 8939 00c0 00       		.byte	0
 8940 00c1 03       		.uleb128 0x3
 8941 00c2 0E       		.uleb128 0xe
 8942 00c3 3A       		.uleb128 0x3a
 8943 00c4 0B       		.uleb128 0xb
 8944 00c5 3B       		.uleb128 0x3b
 8945 00c6 05       		.uleb128 0x5
 8946 00c7 49       		.uleb128 0x49
 8947 00c8 13       		.uleb128 0x13
 8948 00c9 38       		.uleb128 0x38
 8949 00ca 05       		.uleb128 0x5
 8950 00cb 00       		.byte	0
 8951 00cc 00       		.byte	0
 8952 00cd 12       		.uleb128 0x12
 8953 00ce 0D       		.uleb128 0xd
 8954 00cf 00       		.byte	0
 8955 00d0 03       		.uleb128 0x3
 8956 00d1 08       		.uleb128 0x8
 8957 00d2 3A       		.uleb128 0x3a
 8958 00d3 0B       		.uleb128 0xb
 8959 00d4 3B       		.uleb128 0x3b
 8960 00d5 05       		.uleb128 0x5
 8961 00d6 49       		.uleb128 0x49
 8962 00d7 13       		.uleb128 0x13
 8963 00d8 38       		.uleb128 0x38
 8964 00d9 05       		.uleb128 0x5
 8965 00da 00       		.byte	0
 8966 00db 00       		.byte	0
 8967 00dc 13       		.uleb128 0x13
 8968 00dd 34       		.uleb128 0x34
 8969 00de 00       		.byte	0
 8970 00df 03       		.uleb128 0x3
 8971 00e0 0E       		.uleb128 0xe
 8972 00e1 3A       		.uleb128 0x3a
 8973 00e2 0B       		.uleb128 0xb
 8974 00e3 3B       		.uleb128 0x3b
 8975 00e4 05       		.uleb128 0x5
 8976 00e5 49       		.uleb128 0x49
 8977 00e6 13       		.uleb128 0x13
 8978 00e7 3F       		.uleb128 0x3f
 8979 00e8 19       		.uleb128 0x19
 8980 00e9 3C       		.uleb128 0x3c
 8981 00ea 19       		.uleb128 0x19
 8982 00eb 00       		.byte	0
 8983 00ec 00       		.byte	0
 8984 00ed 14       		.uleb128 0x14
 8985 00ee 34       		.uleb128 0x34
 8986 00ef 00       		.byte	0
 8987 00f0 03       		.uleb128 0x3
 8988 00f1 0E       		.uleb128 0xe
 8989 00f2 3A       		.uleb128 0x3a
 8990 00f3 0B       		.uleb128 0xb
 8991 00f4 3B       		.uleb128 0x3b
ARM GAS  C:\Users\Moi\AppData\Local\Temp\ccwG6ltn.s 			page 161


 8992 00f5 0B       		.uleb128 0xb
 8993 00f6 49       		.uleb128 0x49
 8994 00f7 13       		.uleb128 0x13
 8995 00f8 3F       		.uleb128 0x3f
 8996 00f9 19       		.uleb128 0x19
 8997 00fa 3C       		.uleb128 0x3c
 8998 00fb 19       		.uleb128 0x19
 8999 00fc 00       		.byte	0
 9000 00fd 00       		.byte	0
 9001 00fe 15       		.uleb128 0x15
 9002 00ff 0D       		.uleb128 0xd
 9003 0100 00       		.byte	0
 9004 0101 03       		.uleb128 0x3
 9005 0102 08       		.uleb128 0x8
 9006 0103 3A       		.uleb128 0x3a
 9007 0104 0B       		.uleb128 0xb
 9008 0105 3B       		.uleb128 0x3b
 9009 0106 0B       		.uleb128 0xb
 9010 0107 49       		.uleb128 0x49
 9011 0108 13       		.uleb128 0x13
 9012 0109 38       		.uleb128 0x38
 9013 010a 0B       		.uleb128 0xb
 9014 010b 00       		.byte	0
 9015 010c 00       		.byte	0
 9016 010d 16       		.uleb128 0x16
 9017 010e 13       		.uleb128 0x13
 9018 010f 01       		.byte	0x1
 9019 0110 0B       		.uleb128 0xb
 9020 0111 0B       		.uleb128 0xb
 9021 0112 3A       		.uleb128 0x3a
 9022 0113 0B       		.uleb128 0xb
 9023 0114 3B       		.uleb128 0x3b
 9024 0115 0B       		.uleb128 0xb
 9025 0116 01       		.uleb128 0x1
 9026 0117 13       		.uleb128 0x13
 9027 0118 00       		.byte	0
 9028 0119 00       		.byte	0
 9029 011a 17       		.uleb128 0x17
 9030 011b 13       		.uleb128 0x13
 9031 011c 01       		.byte	0x1
 9032 011d 0B       		.uleb128 0xb
 9033 011e 05       		.uleb128 0x5
 9034 011f 3A       		.uleb128 0x3a
 9035 0120 0B       		.uleb128 0xb
 9036 0121 3B       		.uleb128 0x3b
 9037 0122 0B       		.uleb128 0xb
 9038 0123 01       		.uleb128 0x1
 9039 0124 13       		.uleb128 0x13
 9040 0125 00       		.byte	0
 9041 0126 00       		.byte	0
 9042 0127 18       		.uleb128 0x18
 9043 0128 01       		.uleb128 0x1
 9044 0129 01       		.byte	0x1
 9045 012a 49       		.uleb128 0x49
 9046 012b 13       		.uleb128 0x13
 9047 012c 01       		.uleb128 0x1
 9048 012d 13       		.uleb128 0x13
ARM GAS  C:\Users\Moi\AppData\Local\Temp\ccwG6ltn.s 			page 162


 9049 012e 00       		.byte	0
 9050 012f 00       		.byte	0
 9051 0130 19       		.uleb128 0x19
 9052 0131 21       		.uleb128 0x21
 9053 0132 00       		.byte	0
 9054 0133 49       		.uleb128 0x49
 9055 0134 13       		.uleb128 0x13
 9056 0135 2F       		.uleb128 0x2f
 9057 0136 0B       		.uleb128 0xb
 9058 0137 00       		.byte	0
 9059 0138 00       		.byte	0
 9060 0139 1A       		.uleb128 0x1a
 9061 013a 17       		.uleb128 0x17
 9062 013b 01       		.byte	0x1
 9063 013c 0B       		.uleb128 0xb
 9064 013d 0B       		.uleb128 0xb
 9065 013e 3A       		.uleb128 0x3a
 9066 013f 0B       		.uleb128 0xb
 9067 0140 3B       		.uleb128 0x3b
 9068 0141 0B       		.uleb128 0xb
 9069 0142 01       		.uleb128 0x1
 9070 0143 13       		.uleb128 0x13
 9071 0144 00       		.byte	0
 9072 0145 00       		.byte	0
 9073 0146 1B       		.uleb128 0x1b
 9074 0147 0D       		.uleb128 0xd
 9075 0148 00       		.byte	0
 9076 0149 03       		.uleb128 0x3
 9077 014a 0E       		.uleb128 0xe
 9078 014b 3A       		.uleb128 0x3a
 9079 014c 0B       		.uleb128 0xb
 9080 014d 3B       		.uleb128 0x3b
 9081 014e 05       		.uleb128 0x5
 9082 014f 49       		.uleb128 0x49
 9083 0150 13       		.uleb128 0x13
 9084 0151 00       		.byte	0
 9085 0152 00       		.byte	0
 9086 0153 1C       		.uleb128 0x1c
 9087 0154 34       		.uleb128 0x34
 9088 0155 00       		.byte	0
 9089 0156 03       		.uleb128 0x3
 9090 0157 08       		.uleb128 0x8
 9091 0158 3A       		.uleb128 0x3a
 9092 0159 0B       		.uleb128 0xb
 9093 015a 3B       		.uleb128 0x3b
 9094 015b 05       		.uleb128 0x5
 9095 015c 49       		.uleb128 0x49
 9096 015d 13       		.uleb128 0x13
 9097 015e 3F       		.uleb128 0x3f
 9098 015f 19       		.uleb128 0x19
 9099 0160 3C       		.uleb128 0x3c
 9100 0161 19       		.uleb128 0x19
 9101 0162 00       		.byte	0
 9102 0163 00       		.byte	0
 9103 0164 1D       		.uleb128 0x1d
 9104 0165 15       		.uleb128 0x15
 9105 0166 00       		.byte	0
ARM GAS  C:\Users\Moi\AppData\Local\Temp\ccwG6ltn.s 			page 163


 9106 0167 27       		.uleb128 0x27
 9107 0168 19       		.uleb128 0x19
 9108 0169 00       		.byte	0
 9109 016a 00       		.byte	0
 9110 016b 1E       		.uleb128 0x1e
 9111 016c 0D       		.uleb128 0xd
 9112 016d 00       		.byte	0
 9113 016e 03       		.uleb128 0x3
 9114 016f 08       		.uleb128 0x8
 9115 0170 3A       		.uleb128 0x3a
 9116 0171 0B       		.uleb128 0xb
 9117 0172 3B       		.uleb128 0x3b
 9118 0173 0B       		.uleb128 0xb
 9119 0174 49       		.uleb128 0x49
 9120 0175 13       		.uleb128 0x13
 9121 0176 38       		.uleb128 0x38
 9122 0177 05       		.uleb128 0x5
 9123 0178 00       		.byte	0
 9124 0179 00       		.byte	0
 9125 017a 1F       		.uleb128 0x1f
 9126 017b 17       		.uleb128 0x17
 9127 017c 01       		.byte	0x1
 9128 017d 03       		.uleb128 0x3
 9129 017e 0E       		.uleb128 0xe
 9130 017f 0B       		.uleb128 0xb
 9131 0180 05       		.uleb128 0x5
 9132 0181 3A       		.uleb128 0x3a
 9133 0182 0B       		.uleb128 0xb
 9134 0183 3B       		.uleb128 0x3b
 9135 0184 0B       		.uleb128 0xb
 9136 0185 01       		.uleb128 0x1
 9137 0186 13       		.uleb128 0x13
 9138 0187 00       		.byte	0
 9139 0188 00       		.byte	0
 9140 0189 20       		.uleb128 0x20
 9141 018a 0D       		.uleb128 0xd
 9142 018b 00       		.byte	0
 9143 018c 03       		.uleb128 0x3
 9144 018d 08       		.uleb128 0x8
 9145 018e 3A       		.uleb128 0x3a
 9146 018f 0B       		.uleb128 0xb
 9147 0190 3B       		.uleb128 0x3b
 9148 0191 0B       		.uleb128 0xb
 9149 0192 49       		.uleb128 0x49
 9150 0193 13       		.uleb128 0x13
 9151 0194 00       		.byte	0
 9152 0195 00       		.byte	0
 9153 0196 21       		.uleb128 0x21
 9154 0197 0D       		.uleb128 0xd
 9155 0198 00       		.byte	0
 9156 0199 03       		.uleb128 0x3
 9157 019a 0E       		.uleb128 0xe
 9158 019b 3A       		.uleb128 0x3a
 9159 019c 0B       		.uleb128 0xb
 9160 019d 3B       		.uleb128 0x3b
 9161 019e 0B       		.uleb128 0xb
 9162 019f 49       		.uleb128 0x49
ARM GAS  C:\Users\Moi\AppData\Local\Temp\ccwG6ltn.s 			page 164


 9163 01a0 13       		.uleb128 0x13
 9164 01a1 00       		.byte	0
 9165 01a2 00       		.byte	0
 9166 01a3 22       		.uleb128 0x22
 9167 01a4 21       		.uleb128 0x21
 9168 01a5 00       		.byte	0
 9169 01a6 49       		.uleb128 0x49
 9170 01a7 13       		.uleb128 0x13
 9171 01a8 2F       		.uleb128 0x2f
 9172 01a9 05       		.uleb128 0x5
 9173 01aa 00       		.byte	0
 9174 01ab 00       		.byte	0
 9175 01ac 23       		.uleb128 0x23
 9176 01ad 21       		.uleb128 0x21
 9177 01ae 00       		.byte	0
 9178 01af 00       		.byte	0
 9179 01b0 00       		.byte	0
 9180 01b1 24       		.uleb128 0x24
 9181 01b2 34       		.uleb128 0x34
 9182 01b3 00       		.byte	0
 9183 01b4 03       		.uleb128 0x3
 9184 01b5 08       		.uleb128 0x8
 9185 01b6 3A       		.uleb128 0x3a
 9186 01b7 0B       		.uleb128 0xb
 9187 01b8 3B       		.uleb128 0x3b
 9188 01b9 0B       		.uleb128 0xb
 9189 01ba 49       		.uleb128 0x49
 9190 01bb 13       		.uleb128 0x13
 9191 01bc 3F       		.uleb128 0x3f
 9192 01bd 19       		.uleb128 0x19
 9193 01be 3C       		.uleb128 0x3c
 9194 01bf 19       		.uleb128 0x19
 9195 01c0 00       		.byte	0
 9196 01c1 00       		.byte	0
 9197 01c2 25       		.uleb128 0x25
 9198 01c3 34       		.uleb128 0x34
 9199 01c4 00       		.byte	0
 9200 01c5 03       		.uleb128 0x3
 9201 01c6 0E       		.uleb128 0xe
 9202 01c7 3A       		.uleb128 0x3a
 9203 01c8 0B       		.uleb128 0xb
 9204 01c9 3B       		.uleb128 0x3b
 9205 01ca 0B       		.uleb128 0xb
 9206 01cb 49       		.uleb128 0x49
 9207 01cc 13       		.uleb128 0x13
 9208 01cd 02       		.uleb128 0x2
 9209 01ce 18       		.uleb128 0x18
 9210 01cf 00       		.byte	0
 9211 01d0 00       		.byte	0
 9212 01d1 26       		.uleb128 0x26
 9213 01d2 34       		.uleb128 0x34
 9214 01d3 00       		.byte	0
 9215 01d4 03       		.uleb128 0x3
 9216 01d5 0E       		.uleb128 0xe
 9217 01d6 3A       		.uleb128 0x3a
 9218 01d7 0B       		.uleb128 0xb
 9219 01d8 3B       		.uleb128 0x3b
ARM GAS  C:\Users\Moi\AppData\Local\Temp\ccwG6ltn.s 			page 165


 9220 01d9 0B       		.uleb128 0xb
 9221 01da 49       		.uleb128 0x49
 9222 01db 13       		.uleb128 0x13
 9223 01dc 3F       		.uleb128 0x3f
 9224 01dd 19       		.uleb128 0x19
 9225 01de 02       		.uleb128 0x2
 9226 01df 18       		.uleb128 0x18
 9227 01e0 00       		.byte	0
 9228 01e1 00       		.byte	0
 9229 01e2 27       		.uleb128 0x27
 9230 01e3 34       		.uleb128 0x34
 9231 01e4 00       		.byte	0
 9232 01e5 03       		.uleb128 0x3
 9233 01e6 0E       		.uleb128 0xe
 9234 01e7 3A       		.uleb128 0x3a
 9235 01e8 0B       		.uleb128 0xb
 9236 01e9 3B       		.uleb128 0x3b
 9237 01ea 05       		.uleb128 0x5
 9238 01eb 49       		.uleb128 0x49
 9239 01ec 13       		.uleb128 0x13
 9240 01ed 3F       		.uleb128 0x3f
 9241 01ee 19       		.uleb128 0x19
 9242 01ef 02       		.uleb128 0x2
 9243 01f0 18       		.uleb128 0x18
 9244 01f1 00       		.byte	0
 9245 01f2 00       		.byte	0
 9246 01f3 28       		.uleb128 0x28
 9247 01f4 2E       		.uleb128 0x2e
 9248 01f5 01       		.byte	0x1
 9249 01f6 03       		.uleb128 0x3
 9250 01f7 0E       		.uleb128 0xe
 9251 01f8 3A       		.uleb128 0x3a
 9252 01f9 0B       		.uleb128 0xb
 9253 01fa 3B       		.uleb128 0x3b
 9254 01fb 05       		.uleb128 0x5
 9255 01fc 27       		.uleb128 0x27
 9256 01fd 19       		.uleb128 0x19
 9257 01fe 11       		.uleb128 0x11
 9258 01ff 01       		.uleb128 0x1
 9259 0200 12       		.uleb128 0x12
 9260 0201 06       		.uleb128 0x6
 9261 0202 40       		.uleb128 0x40
 9262 0203 18       		.uleb128 0x18
 9263 0204 9742     		.uleb128 0x2117
 9264 0206 19       		.uleb128 0x19
 9265 0207 01       		.uleb128 0x1
 9266 0208 13       		.uleb128 0x13
 9267 0209 00       		.byte	0
 9268 020a 00       		.byte	0
 9269 020b 29       		.uleb128 0x29
 9270 020c 898201   		.uleb128 0x4109
 9271 020f 01       		.byte	0x1
 9272 0210 11       		.uleb128 0x11
 9273 0211 01       		.uleb128 0x1
 9274 0212 31       		.uleb128 0x31
 9275 0213 13       		.uleb128 0x13
 9276 0214 01       		.uleb128 0x1
ARM GAS  C:\Users\Moi\AppData\Local\Temp\ccwG6ltn.s 			page 166


 9277 0215 13       		.uleb128 0x13
 9278 0216 00       		.byte	0
 9279 0217 00       		.byte	0
 9280 0218 2A       		.uleb128 0x2a
 9281 0219 8A8201   		.uleb128 0x410a
 9282 021c 00       		.byte	0
 9283 021d 02       		.uleb128 0x2
 9284 021e 18       		.uleb128 0x18
 9285 021f 9142     		.uleb128 0x2111
 9286 0221 18       		.uleb128 0x18
 9287 0222 00       		.byte	0
 9288 0223 00       		.byte	0
 9289 0224 2B       		.uleb128 0x2b
 9290 0225 898201   		.uleb128 0x4109
 9291 0228 01       		.byte	0x1
 9292 0229 11       		.uleb128 0x11
 9293 022a 01       		.uleb128 0x1
 9294 022b 9542     		.uleb128 0x2115
 9295 022d 19       		.uleb128 0x19
 9296 022e 31       		.uleb128 0x31
 9297 022f 13       		.uleb128 0x13
 9298 0230 01       		.uleb128 0x1
 9299 0231 13       		.uleb128 0x13
 9300 0232 00       		.byte	0
 9301 0233 00       		.byte	0
 9302 0234 2C       		.uleb128 0x2c
 9303 0235 898201   		.uleb128 0x4109
 9304 0238 00       		.byte	0
 9305 0239 11       		.uleb128 0x11
 9306 023a 01       		.uleb128 0x1
 9307 023b 31       		.uleb128 0x31
 9308 023c 13       		.uleb128 0x13
 9309 023d 00       		.byte	0
 9310 023e 00       		.byte	0
 9311 023f 2D       		.uleb128 0x2d
 9312 0240 34       		.uleb128 0x34
 9313 0241 00       		.byte	0
 9314 0242 03       		.uleb128 0x3
 9315 0243 08       		.uleb128 0x8
 9316 0244 3A       		.uleb128 0x3a
 9317 0245 0B       		.uleb128 0xb
 9318 0246 3B       		.uleb128 0x3b
 9319 0247 05       		.uleb128 0x5
 9320 0248 49       		.uleb128 0x49
 9321 0249 13       		.uleb128 0x13
 9322 024a 02       		.uleb128 0x2
 9323 024b 17       		.uleb128 0x17
 9324 024c 00       		.byte	0
 9325 024d 00       		.byte	0
 9326 024e 2E       		.uleb128 0x2e
 9327 024f 34       		.uleb128 0x34
 9328 0250 00       		.byte	0
 9329 0251 03       		.uleb128 0x3
 9330 0252 08       		.uleb128 0x8
 9331 0253 3A       		.uleb128 0x3a
 9332 0254 0B       		.uleb128 0xb
 9333 0255 3B       		.uleb128 0x3b
ARM GAS  C:\Users\Moi\AppData\Local\Temp\ccwG6ltn.s 			page 167


 9334 0256 05       		.uleb128 0x5
 9335 0257 49       		.uleb128 0x49
 9336 0258 13       		.uleb128 0x13
 9337 0259 02       		.uleb128 0x2
 9338 025a 18       		.uleb128 0x18
 9339 025b 00       		.byte	0
 9340 025c 00       		.byte	0
 9341 025d 2F       		.uleb128 0x2f
 9342 025e 1D       		.uleb128 0x1d
 9343 025f 01       		.byte	0x1
 9344 0260 31       		.uleb128 0x31
 9345 0261 13       		.uleb128 0x13
 9346 0262 11       		.uleb128 0x11
 9347 0263 01       		.uleb128 0x1
 9348 0264 12       		.uleb128 0x12
 9349 0265 06       		.uleb128 0x6
 9350 0266 58       		.uleb128 0x58
 9351 0267 0B       		.uleb128 0xb
 9352 0268 59       		.uleb128 0x59
 9353 0269 05       		.uleb128 0x5
 9354 026a 01       		.uleb128 0x1
 9355 026b 13       		.uleb128 0x13
 9356 026c 00       		.byte	0
 9357 026d 00       		.byte	0
 9358 026e 30       		.uleb128 0x30
 9359 026f 1D       		.uleb128 0x1d
 9360 0270 01       		.byte	0x1
 9361 0271 31       		.uleb128 0x31
 9362 0272 13       		.uleb128 0x13
 9363 0273 11       		.uleb128 0x11
 9364 0274 01       		.uleb128 0x1
 9365 0275 12       		.uleb128 0x12
 9366 0276 06       		.uleb128 0x6
 9367 0277 58       		.uleb128 0x58
 9368 0278 0B       		.uleb128 0xb
 9369 0279 59       		.uleb128 0x59
 9370 027a 05       		.uleb128 0x5
 9371 027b 00       		.byte	0
 9372 027c 00       		.byte	0
 9373 027d 31       		.uleb128 0x31
 9374 027e 05       		.uleb128 0x5
 9375 027f 00       		.byte	0
 9376 0280 31       		.uleb128 0x31
 9377 0281 13       		.uleb128 0x13
 9378 0282 02       		.uleb128 0x2
 9379 0283 17       		.uleb128 0x17
 9380 0284 00       		.byte	0
 9381 0285 00       		.byte	0
 9382 0286 32       		.uleb128 0x32
 9383 0287 0B       		.uleb128 0xb
 9384 0288 01       		.byte	0x1
 9385 0289 11       		.uleb128 0x11
 9386 028a 01       		.uleb128 0x1
 9387 028b 12       		.uleb128 0x12
 9388 028c 06       		.uleb128 0x6
 9389 028d 00       		.byte	0
 9390 028e 00       		.byte	0
ARM GAS  C:\Users\Moi\AppData\Local\Temp\ccwG6ltn.s 			page 168


 9391 028f 33       		.uleb128 0x33
 9392 0290 34       		.uleb128 0x34
 9393 0291 00       		.byte	0
 9394 0292 31       		.uleb128 0x31
 9395 0293 13       		.uleb128 0x13
 9396 0294 00       		.byte	0
 9397 0295 00       		.byte	0
 9398 0296 34       		.uleb128 0x34
 9399 0297 898201   		.uleb128 0x4109
 9400 029a 01       		.byte	0x1
 9401 029b 11       		.uleb128 0x11
 9402 029c 01       		.uleb128 0x1
 9403 029d 31       		.uleb128 0x31
 9404 029e 13       		.uleb128 0x13
 9405 029f 00       		.byte	0
 9406 02a0 00       		.byte	0
 9407 02a1 35       		.uleb128 0x35
 9408 02a2 2E       		.uleb128 0x2e
 9409 02a3 01       		.byte	0x1
 9410 02a4 03       		.uleb128 0x3
 9411 02a5 08       		.uleb128 0x8
 9412 02a6 3A       		.uleb128 0x3a
 9413 02a7 0B       		.uleb128 0xb
 9414 02a8 3B       		.uleb128 0x3b
 9415 02a9 05       		.uleb128 0x5
 9416 02aa 27       		.uleb128 0x27
 9417 02ab 19       		.uleb128 0x19
 9418 02ac 11       		.uleb128 0x11
 9419 02ad 01       		.uleb128 0x1
 9420 02ae 12       		.uleb128 0x12
 9421 02af 06       		.uleb128 0x6
 9422 02b0 40       		.uleb128 0x40
 9423 02b1 18       		.uleb128 0x18
 9424 02b2 9742     		.uleb128 0x2117
 9425 02b4 19       		.uleb128 0x19
 9426 02b5 01       		.uleb128 0x1
 9427 02b6 13       		.uleb128 0x13
 9428 02b7 00       		.byte	0
 9429 02b8 00       		.byte	0
 9430 02b9 36       		.uleb128 0x36
 9431 02ba 05       		.uleb128 0x5
 9432 02bb 00       		.byte	0
 9433 02bc 03       		.uleb128 0x3
 9434 02bd 0E       		.uleb128 0xe
 9435 02be 3A       		.uleb128 0x3a
 9436 02bf 0B       		.uleb128 0xb
 9437 02c0 3B       		.uleb128 0x3b
 9438 02c1 05       		.uleb128 0x5
 9439 02c2 49       		.uleb128 0x49
 9440 02c3 13       		.uleb128 0x13
 9441 02c4 02       		.uleb128 0x2
 9442 02c5 17       		.uleb128 0x17
 9443 02c6 00       		.byte	0
 9444 02c7 00       		.byte	0
 9445 02c8 37       		.uleb128 0x37
 9446 02c9 1D       		.uleb128 0x1d
 9447 02ca 01       		.byte	0x1
ARM GAS  C:\Users\Moi\AppData\Local\Temp\ccwG6ltn.s 			page 169


 9448 02cb 31       		.uleb128 0x31
 9449 02cc 13       		.uleb128 0x13
 9450 02cd 52       		.uleb128 0x52
 9451 02ce 01       		.uleb128 0x1
 9452 02cf 55       		.uleb128 0x55
 9453 02d0 17       		.uleb128 0x17
 9454 02d1 58       		.uleb128 0x58
 9455 02d2 0B       		.uleb128 0xb
 9456 02d3 59       		.uleb128 0x59
 9457 02d4 05       		.uleb128 0x5
 9458 02d5 01       		.uleb128 0x1
 9459 02d6 13       		.uleb128 0x13
 9460 02d7 00       		.byte	0
 9461 02d8 00       		.byte	0
 9462 02d9 38       		.uleb128 0x38
 9463 02da 1D       		.uleb128 0x1d
 9464 02db 00       		.byte	0
 9465 02dc 31       		.uleb128 0x31
 9466 02dd 13       		.uleb128 0x13
 9467 02de 11       		.uleb128 0x11
 9468 02df 01       		.uleb128 0x1
 9469 02e0 12       		.uleb128 0x12
 9470 02e1 06       		.uleb128 0x6
 9471 02e2 58       		.uleb128 0x58
 9472 02e3 0B       		.uleb128 0xb
 9473 02e4 59       		.uleb128 0x59
 9474 02e5 0B       		.uleb128 0xb
 9475 02e6 00       		.byte	0
 9476 02e7 00       		.byte	0
 9477 02e8 39       		.uleb128 0x39
 9478 02e9 1D       		.uleb128 0x1d
 9479 02ea 00       		.byte	0
 9480 02eb 31       		.uleb128 0x31
 9481 02ec 13       		.uleb128 0x13
 9482 02ed 11       		.uleb128 0x11
 9483 02ee 01       		.uleb128 0x1
 9484 02ef 12       		.uleb128 0x12
 9485 02f0 06       		.uleb128 0x6
 9486 02f1 58       		.uleb128 0x58
 9487 02f2 0B       		.uleb128 0xb
 9488 02f3 59       		.uleb128 0x59
 9489 02f4 05       		.uleb128 0x5
 9490 02f5 00       		.byte	0
 9491 02f6 00       		.byte	0
 9492 02f7 3A       		.uleb128 0x3a
 9493 02f8 05       		.uleb128 0x5
 9494 02f9 00       		.byte	0
 9495 02fa 03       		.uleb128 0x3
 9496 02fb 08       		.uleb128 0x8
 9497 02fc 3A       		.uleb128 0x3a
 9498 02fd 0B       		.uleb128 0xb
 9499 02fe 3B       		.uleb128 0x3b
 9500 02ff 05       		.uleb128 0x5
 9501 0300 49       		.uleb128 0x49
 9502 0301 13       		.uleb128 0x13
 9503 0302 02       		.uleb128 0x2
 9504 0303 17       		.uleb128 0x17
ARM GAS  C:\Users\Moi\AppData\Local\Temp\ccwG6ltn.s 			page 170


 9505 0304 00       		.byte	0
 9506 0305 00       		.byte	0
 9507 0306 3B       		.uleb128 0x3b
 9508 0307 34       		.uleb128 0x34
 9509 0308 00       		.byte	0
 9510 0309 03       		.uleb128 0x3
 9511 030a 0E       		.uleb128 0xe
 9512 030b 3A       		.uleb128 0x3a
 9513 030c 0B       		.uleb128 0xb
 9514 030d 3B       		.uleb128 0x3b
 9515 030e 05       		.uleb128 0x5
 9516 030f 49       		.uleb128 0x49
 9517 0310 13       		.uleb128 0x13
 9518 0311 02       		.uleb128 0x2
 9519 0312 17       		.uleb128 0x17
 9520 0313 00       		.byte	0
 9521 0314 00       		.byte	0
 9522 0315 3C       		.uleb128 0x3c
 9523 0316 2E       		.uleb128 0x2e
 9524 0317 01       		.byte	0x1
 9525 0318 03       		.uleb128 0x3
 9526 0319 0E       		.uleb128 0xe
 9527 031a 3A       		.uleb128 0x3a
 9528 031b 0B       		.uleb128 0xb
 9529 031c 3B       		.uleb128 0x3b
 9530 031d 0B       		.uleb128 0xb
 9531 031e 27       		.uleb128 0x27
 9532 031f 19       		.uleb128 0x19
 9533 0320 11       		.uleb128 0x11
 9534 0321 01       		.uleb128 0x1
 9535 0322 12       		.uleb128 0x12
 9536 0323 06       		.uleb128 0x6
 9537 0324 40       		.uleb128 0x40
 9538 0325 18       		.uleb128 0x18
 9539 0326 9742     		.uleb128 0x2117
 9540 0328 19       		.uleb128 0x19
 9541 0329 01       		.uleb128 0x1
 9542 032a 13       		.uleb128 0x13
 9543 032b 00       		.byte	0
 9544 032c 00       		.byte	0
 9545 032d 3D       		.uleb128 0x3d
 9546 032e 34       		.uleb128 0x34
 9547 032f 00       		.byte	0
 9548 0330 03       		.uleb128 0x3
 9549 0331 08       		.uleb128 0x8
 9550 0332 3A       		.uleb128 0x3a
 9551 0333 0B       		.uleb128 0xb
 9552 0334 3B       		.uleb128 0x3b
 9553 0335 0B       		.uleb128 0xb
 9554 0336 49       		.uleb128 0x49
 9555 0337 13       		.uleb128 0x13
 9556 0338 02       		.uleb128 0x2
 9557 0339 17       		.uleb128 0x17
 9558 033a 00       		.byte	0
 9559 033b 00       		.byte	0
 9560 033c 3E       		.uleb128 0x3e
 9561 033d 1D       		.uleb128 0x1d
ARM GAS  C:\Users\Moi\AppData\Local\Temp\ccwG6ltn.s 			page 171


 9562 033e 01       		.byte	0x1
 9563 033f 31       		.uleb128 0x31
 9564 0340 13       		.uleb128 0x13
 9565 0341 52       		.uleb128 0x52
 9566 0342 01       		.uleb128 0x1
 9567 0343 55       		.uleb128 0x55
 9568 0344 17       		.uleb128 0x17
 9569 0345 58       		.uleb128 0x58
 9570 0346 0B       		.uleb128 0xb
 9571 0347 59       		.uleb128 0x59
 9572 0348 0B       		.uleb128 0xb
 9573 0349 01       		.uleb128 0x1
 9574 034a 13       		.uleb128 0x13
 9575 034b 00       		.byte	0
 9576 034c 00       		.byte	0
 9577 034d 3F       		.uleb128 0x3f
 9578 034e 0B       		.uleb128 0xb
 9579 034f 01       		.byte	0x1
 9580 0350 55       		.uleb128 0x55
 9581 0351 17       		.uleb128 0x17
 9582 0352 00       		.byte	0
 9583 0353 00       		.byte	0
 9584 0354 40       		.uleb128 0x40
 9585 0355 1D       		.uleb128 0x1d
 9586 0356 01       		.byte	0x1
 9587 0357 31       		.uleb128 0x31
 9588 0358 13       		.uleb128 0x13
 9589 0359 11       		.uleb128 0x11
 9590 035a 01       		.uleb128 0x1
 9591 035b 12       		.uleb128 0x12
 9592 035c 06       		.uleb128 0x6
 9593 035d 58       		.uleb128 0x58
 9594 035e 0B       		.uleb128 0xb
 9595 035f 59       		.uleb128 0x59
 9596 0360 0B       		.uleb128 0xb
 9597 0361 01       		.uleb128 0x1
 9598 0362 13       		.uleb128 0x13
 9599 0363 00       		.byte	0
 9600 0364 00       		.byte	0
 9601 0365 41       		.uleb128 0x41
 9602 0366 05       		.uleb128 0x5
 9603 0367 00       		.byte	0
 9604 0368 03       		.uleb128 0x3
 9605 0369 08       		.uleb128 0x8
 9606 036a 3A       		.uleb128 0x3a
 9607 036b 0B       		.uleb128 0xb
 9608 036c 3B       		.uleb128 0x3b
 9609 036d 0B       		.uleb128 0xb
 9610 036e 49       		.uleb128 0x49
 9611 036f 13       		.uleb128 0x13
 9612 0370 02       		.uleb128 0x2
 9613 0371 17       		.uleb128 0x17
 9614 0372 00       		.byte	0
 9615 0373 00       		.byte	0
 9616 0374 42       		.uleb128 0x42
 9617 0375 34       		.uleb128 0x34
 9618 0376 00       		.byte	0
ARM GAS  C:\Users\Moi\AppData\Local\Temp\ccwG6ltn.s 			page 172


 9619 0377 03       		.uleb128 0x3
 9620 0378 0E       		.uleb128 0xe
 9621 0379 3A       		.uleb128 0x3a
 9622 037a 0B       		.uleb128 0xb
 9623 037b 3B       		.uleb128 0x3b
 9624 037c 0B       		.uleb128 0xb
 9625 037d 49       		.uleb128 0x49
 9626 037e 13       		.uleb128 0x13
 9627 037f 00       		.byte	0
 9628 0380 00       		.byte	0
 9629 0381 43       		.uleb128 0x43
 9630 0382 1D       		.uleb128 0x1d
 9631 0383 00       		.byte	0
 9632 0384 31       		.uleb128 0x31
 9633 0385 13       		.uleb128 0x13
 9634 0386 52       		.uleb128 0x52
 9635 0387 01       		.uleb128 0x1
 9636 0388 55       		.uleb128 0x55
 9637 0389 17       		.uleb128 0x17
 9638 038a 58       		.uleb128 0x58
 9639 038b 0B       		.uleb128 0xb
 9640 038c 59       		.uleb128 0x59
 9641 038d 0B       		.uleb128 0xb
 9642 038e 00       		.byte	0
 9643 038f 00       		.byte	0
 9644 0390 44       		.uleb128 0x44
 9645 0391 2E       		.uleb128 0x2e
 9646 0392 01       		.byte	0x1
 9647 0393 03       		.uleb128 0x3
 9648 0394 0E       		.uleb128 0xe
 9649 0395 3A       		.uleb128 0x3a
 9650 0396 0B       		.uleb128 0xb
 9651 0397 3B       		.uleb128 0x3b
 9652 0398 0B       		.uleb128 0xb
 9653 0399 27       		.uleb128 0x27
 9654 039a 19       		.uleb128 0x19
 9655 039b 49       		.uleb128 0x49
 9656 039c 13       		.uleb128 0x13
 9657 039d 11       		.uleb128 0x11
 9658 039e 01       		.uleb128 0x1
 9659 039f 12       		.uleb128 0x12
 9660 03a0 06       		.uleb128 0x6
 9661 03a1 40       		.uleb128 0x40
 9662 03a2 18       		.uleb128 0x18
 9663 03a3 9742     		.uleb128 0x2117
 9664 03a5 19       		.uleb128 0x19
 9665 03a6 01       		.uleb128 0x1
 9666 03a7 13       		.uleb128 0x13
 9667 03a8 00       		.byte	0
 9668 03a9 00       		.byte	0
 9669 03aa 45       		.uleb128 0x45
 9670 03ab 34       		.uleb128 0x34
 9671 03ac 00       		.byte	0
 9672 03ad 03       		.uleb128 0x3
 9673 03ae 08       		.uleb128 0x8
 9674 03af 3A       		.uleb128 0x3a
 9675 03b0 0B       		.uleb128 0xb
ARM GAS  C:\Users\Moi\AppData\Local\Temp\ccwG6ltn.s 			page 173


 9676 03b1 3B       		.uleb128 0x3b
 9677 03b2 0B       		.uleb128 0xb
 9678 03b3 49       		.uleb128 0x49
 9679 03b4 13       		.uleb128 0x13
 9680 03b5 00       		.byte	0
 9681 03b6 00       		.byte	0
 9682 03b7 46       		.uleb128 0x46
 9683 03b8 2E       		.uleb128 0x2e
 9684 03b9 01       		.byte	0x1
 9685 03ba 03       		.uleb128 0x3
 9686 03bb 0E       		.uleb128 0xe
 9687 03bc 3A       		.uleb128 0x3a
 9688 03bd 0B       		.uleb128 0xb
 9689 03be 3B       		.uleb128 0x3b
 9690 03bf 05       		.uleb128 0x5
 9691 03c0 27       		.uleb128 0x27
 9692 03c1 19       		.uleb128 0x19
 9693 03c2 49       		.uleb128 0x49
 9694 03c3 13       		.uleb128 0x13
 9695 03c4 20       		.uleb128 0x20
 9696 03c5 0B       		.uleb128 0xb
 9697 03c6 01       		.uleb128 0x1
 9698 03c7 13       		.uleb128 0x13
 9699 03c8 00       		.byte	0
 9700 03c9 00       		.byte	0
 9701 03ca 47       		.uleb128 0x47
 9702 03cb 05       		.uleb128 0x5
 9703 03cc 00       		.byte	0
 9704 03cd 03       		.uleb128 0x3
 9705 03ce 08       		.uleb128 0x8
 9706 03cf 3A       		.uleb128 0x3a
 9707 03d0 0B       		.uleb128 0xb
 9708 03d1 3B       		.uleb128 0x3b
 9709 03d2 05       		.uleb128 0x5
 9710 03d3 49       		.uleb128 0x49
 9711 03d4 13       		.uleb128 0x13
 9712 03d5 00       		.byte	0
 9713 03d6 00       		.byte	0
 9714 03d7 48       		.uleb128 0x48
 9715 03d8 2E       		.uleb128 0x2e
 9716 03d9 01       		.byte	0x1
 9717 03da 03       		.uleb128 0x3
 9718 03db 0E       		.uleb128 0xe
 9719 03dc 3A       		.uleb128 0x3a
 9720 03dd 0B       		.uleb128 0xb
 9721 03de 3B       		.uleb128 0x3b
 9722 03df 0B       		.uleb128 0xb
 9723 03e0 27       		.uleb128 0x27
 9724 03e1 19       		.uleb128 0x19
 9725 03e2 49       		.uleb128 0x49
 9726 03e3 13       		.uleb128 0x13
 9727 03e4 20       		.uleb128 0x20
 9728 03e5 0B       		.uleb128 0xb
 9729 03e6 01       		.uleb128 0x1
 9730 03e7 13       		.uleb128 0x13
 9731 03e8 00       		.byte	0
 9732 03e9 00       		.byte	0
ARM GAS  C:\Users\Moi\AppData\Local\Temp\ccwG6ltn.s 			page 174


 9733 03ea 49       		.uleb128 0x49
 9734 03eb 05       		.uleb128 0x5
 9735 03ec 00       		.byte	0
 9736 03ed 03       		.uleb128 0x3
 9737 03ee 08       		.uleb128 0x8
 9738 03ef 3A       		.uleb128 0x3a
 9739 03f0 0B       		.uleb128 0xb
 9740 03f1 3B       		.uleb128 0x3b
 9741 03f2 0B       		.uleb128 0xb
 9742 03f3 49       		.uleb128 0x49
 9743 03f4 13       		.uleb128 0x13
 9744 03f5 00       		.byte	0
 9745 03f6 00       		.byte	0
 9746 03f7 4A       		.uleb128 0x4a
 9747 03f8 2E       		.uleb128 0x2e
 9748 03f9 00       		.byte	0
 9749 03fa 03       		.uleb128 0x3
 9750 03fb 0E       		.uleb128 0xe
 9751 03fc 3A       		.uleb128 0x3a
 9752 03fd 0B       		.uleb128 0xb
 9753 03fe 3B       		.uleb128 0x3b
 9754 03ff 0B       		.uleb128 0xb
 9755 0400 27       		.uleb128 0x27
 9756 0401 19       		.uleb128 0x19
 9757 0402 49       		.uleb128 0x49
 9758 0403 13       		.uleb128 0x13
 9759 0404 20       		.uleb128 0x20
 9760 0405 0B       		.uleb128 0xb
 9761 0406 00       		.byte	0
 9762 0407 00       		.byte	0
 9763 0408 4B       		.uleb128 0x4b
 9764 0409 2E       		.uleb128 0x2e
 9765 040a 01       		.byte	0x1
 9766 040b 03       		.uleb128 0x3
 9767 040c 0E       		.uleb128 0xe
 9768 040d 3A       		.uleb128 0x3a
 9769 040e 0B       		.uleb128 0xb
 9770 040f 3B       		.uleb128 0x3b
 9771 0410 05       		.uleb128 0x5
 9772 0411 27       		.uleb128 0x27
 9773 0412 19       		.uleb128 0x19
 9774 0413 20       		.uleb128 0x20
 9775 0414 0B       		.uleb128 0xb
 9776 0415 01       		.uleb128 0x1
 9777 0416 13       		.uleb128 0x13
 9778 0417 00       		.byte	0
 9779 0418 00       		.byte	0
 9780 0419 4C       		.uleb128 0x4c
 9781 041a 34       		.uleb128 0x34
 9782 041b 00       		.byte	0
 9783 041c 03       		.uleb128 0x3
 9784 041d 0E       		.uleb128 0xe
 9785 041e 49       		.uleb128 0x49
 9786 041f 13       		.uleb128 0x13
 9787 0420 34       		.uleb128 0x34
 9788 0421 19       		.uleb128 0x19
 9789 0422 1C       		.uleb128 0x1c
ARM GAS  C:\Users\Moi\AppData\Local\Temp\ccwG6ltn.s 			page 175


 9790 0423 0E       		.uleb128 0xe
 9791 0424 00       		.byte	0
 9792 0425 00       		.byte	0
 9793 0426 4D       		.uleb128 0x4d
 9794 0427 2E       		.uleb128 0x2e
 9795 0428 00       		.byte	0
 9796 0429 03       		.uleb128 0x3
 9797 042a 0E       		.uleb128 0xe
 9798 042b 3A       		.uleb128 0x3a
 9799 042c 0B       		.uleb128 0xb
 9800 042d 3B       		.uleb128 0x3b
 9801 042e 05       		.uleb128 0x5
 9802 042f 27       		.uleb128 0x27
 9803 0430 19       		.uleb128 0x19
 9804 0431 20       		.uleb128 0x20
 9805 0432 0B       		.uleb128 0xb
 9806 0433 00       		.byte	0
 9807 0434 00       		.byte	0
 9808 0435 4E       		.uleb128 0x4e
 9809 0436 05       		.uleb128 0x5
 9810 0437 00       		.byte	0
 9811 0438 03       		.uleb128 0x3
 9812 0439 0E       		.uleb128 0xe
 9813 043a 3A       		.uleb128 0x3a
 9814 043b 0B       		.uleb128 0xb
 9815 043c 3B       		.uleb128 0x3b
 9816 043d 05       		.uleb128 0x5
 9817 043e 49       		.uleb128 0x49
 9818 043f 13       		.uleb128 0x13
 9819 0440 00       		.byte	0
 9820 0441 00       		.byte	0
 9821 0442 4F       		.uleb128 0x4f
 9822 0443 2E       		.uleb128 0x2e
 9823 0444 00       		.byte	0
 9824 0445 3F       		.uleb128 0x3f
 9825 0446 19       		.uleb128 0x19
 9826 0447 3C       		.uleb128 0x3c
 9827 0448 19       		.uleb128 0x19
 9828 0449 6E       		.uleb128 0x6e
 9829 044a 0E       		.uleb128 0xe
 9830 044b 03       		.uleb128 0x3
 9831 044c 0E       		.uleb128 0xe
 9832 044d 3A       		.uleb128 0x3a
 9833 044e 0B       		.uleb128 0xb
 9834 044f 3B       		.uleb128 0x3b
 9835 0450 0B       		.uleb128 0xb
 9836 0451 00       		.byte	0
 9837 0452 00       		.byte	0
 9838 0453 50       		.uleb128 0x50
 9839 0454 2E       		.uleb128 0x2e
 9840 0455 00       		.byte	0
 9841 0456 3F       		.uleb128 0x3f
 9842 0457 19       		.uleb128 0x19
 9843 0458 3C       		.uleb128 0x3c
 9844 0459 19       		.uleb128 0x19
 9845 045a 6E       		.uleb128 0x6e
 9846 045b 0E       		.uleb128 0xe
ARM GAS  C:\Users\Moi\AppData\Local\Temp\ccwG6ltn.s 			page 176


 9847 045c 03       		.uleb128 0x3
 9848 045d 0E       		.uleb128 0xe
 9849 045e 00       		.byte	0
 9850 045f 00       		.byte	0
 9851 0460 51       		.uleb128 0x51
 9852 0461 2E       		.uleb128 0x2e
 9853 0462 00       		.byte	0
 9854 0463 3F       		.uleb128 0x3f
 9855 0464 19       		.uleb128 0x19
 9856 0465 3C       		.uleb128 0x3c
 9857 0466 19       		.uleb128 0x19
 9858 0467 6E       		.uleb128 0x6e
 9859 0468 0E       		.uleb128 0xe
 9860 0469 03       		.uleb128 0x3
 9861 046a 0E       		.uleb128 0xe
 9862 046b 3A       		.uleb128 0x3a
 9863 046c 0B       		.uleb128 0xb
 9864 046d 3B       		.uleb128 0x3b
 9865 046e 05       		.uleb128 0x5
 9866 046f 00       		.byte	0
 9867 0470 00       		.byte	0
 9868 0471 00       		.byte	0
 9869              		.section	.debug_loc,"",%progbits
 9870              	.Ldebug_loc0:
 9871              	.LLST20:
 9872 0000 10000000 		.4byte	.LVL180
 9873 0004 1C000000 		.4byte	.LVL182
 9874 0008 0200     		.2byte	0x2
 9875 000a 30       		.byte	0x30
 9876 000b 9F       		.byte	0x9f
 9877 000c 1C000000 		.4byte	.LVL182
 9878 0010 70000000 		.4byte	.LVL194
 9879 0014 0100     		.2byte	0x1
 9880 0016 55       		.byte	0x55
 9881 0017 74000000 		.4byte	.LVL195
 9882 001b 8C000000 		.4byte	.LFE240
 9883 001f 0100     		.2byte	0x1
 9884 0021 55       		.byte	0x55
 9885 0022 00000000 		.4byte	0
 9886 0026 00000000 		.4byte	0
 9887              	.LLST19:
 9888 002a 10000000 		.4byte	.LVL163
 9889 002e 1C000000 		.4byte	.LVL165
 9890 0032 0200     		.2byte	0x2
 9891 0034 30       		.byte	0x30
 9892 0035 9F       		.byte	0x9f
 9893 0036 1C000000 		.4byte	.LVL165
 9894 003a 70000000 		.4byte	.LVL177
 9895 003e 0100     		.2byte	0x1
 9896 0040 55       		.byte	0x55
 9897 0041 74000000 		.4byte	.LVL178
 9898 0045 8C000000 		.4byte	.LFE238
 9899 0049 0100     		.2byte	0x1
 9900 004b 55       		.byte	0x55
 9901 004c 00000000 		.4byte	0
 9902 0050 00000000 		.4byte	0
 9903              	.LLST21:
ARM GAS  C:\Users\Moi\AppData\Local\Temp\ccwG6ltn.s 			page 177


 9904 0054 1C000000 		.4byte	.LVL199
 9905 0058 2E000000 		.4byte	.LVL202
 9906 005c 0200     		.2byte	0x2
 9907 005e 30       		.byte	0x30
 9908 005f 9F       		.byte	0x9f
 9909 0060 2E000000 		.4byte	.LVL202
 9910 0064 AA000000 		.4byte	.LVL217
 9911 0068 0100     		.2byte	0x1
 9912 006a 55       		.byte	0x55
 9913 006b AE000000 		.4byte	.LVL218
 9914 006f D8000000 		.4byte	.LFE236
 9915 0073 0100     		.2byte	0x1
 9916 0075 55       		.byte	0x55
 9917 0076 00000000 		.4byte	0
 9918 007a 00000000 		.4byte	0
 9919              	.LLST22:
 9920 007e 2E000000 		.4byte	.LVL202
 9921 0082 32000000 		.4byte	.LVL203
 9922 0086 0300     		.2byte	0x3
 9923 0088 08       		.byte	0x8
 9924 0089 20       		.byte	0x20
 9925 008a 9F       		.byte	0x9f
 9926 008b 00000000 		.4byte	0
 9927 008f 00000000 		.4byte	0
 9928              	.LLST23:
 9929 0093 7E000000 		.4byte	.LVL212
 9930 0097 82000000 		.4byte	.LVL213
 9931 009b 0200     		.2byte	0x2
 9932 009d 30       		.byte	0x30
 9933 009e 9F       		.byte	0x9f
 9934 009f 00000000 		.4byte	0
 9935 00a3 00000000 		.4byte	0
 9936              	.LLST0:
 9937 00a7 00000000 		.4byte	.LVL0
 9938 00ab 1B000000 		.4byte	.LVL1-1
 9939 00af 0100     		.2byte	0x1
 9940 00b1 50       		.byte	0x50
 9941 00b2 1B000000 		.4byte	.LVL1-1
 9942 00b6 20000000 		.4byte	.LFE235
 9943 00ba 0400     		.2byte	0x4
 9944 00bc F3       		.byte	0xf3
 9945 00bd 01       		.uleb128 0x1
 9946 00be 50       		.byte	0x50
 9947 00bf 9F       		.byte	0x9f
 9948 00c0 00000000 		.4byte	0
 9949 00c4 00000000 		.4byte	0
 9950              	.LLST24:
 9951 00c8 28000000 		.4byte	.LVL220
 9952 00cc 36000000 		.4byte	.LVL223
 9953 00d0 0200     		.2byte	0x2
 9954 00d2 30       		.byte	0x30
 9955 00d3 9F       		.byte	0x9f
 9956 00d4 36000000 		.4byte	.LVL223
 9957 00d8 D6000000 		.4byte	.LVL242
 9958 00dc 0100     		.2byte	0x1
 9959 00de 55       		.byte	0x55
 9960 00df DA000000 		.4byte	.LVL243
ARM GAS  C:\Users\Moi\AppData\Local\Temp\ccwG6ltn.s 			page 178


 9961 00e3 00010000 		.4byte	.LFE234
 9962 00e7 0100     		.2byte	0x1
 9963 00e9 55       		.byte	0x55
 9964 00ea 00000000 		.4byte	0
 9965 00ee 00000000 		.4byte	0
 9966              	.LLST25:
 9967 00f2 36000000 		.4byte	.LVL223
 9968 00f6 3C000000 		.4byte	.LVL224
 9969 00fa 0300     		.2byte	0x3
 9970 00fc 08       		.byte	0x8
 9971 00fd 20       		.byte	0x20
 9972 00fe 9F       		.byte	0x9f
 9973 00ff 00000000 		.4byte	0
 9974 0103 00000000 		.4byte	0
 9975              	.LLST26:
 9976 0107 82000000 		.4byte	.LVL233
 9977 010b 86000000 		.4byte	.LVL234
 9978 010f 0200     		.2byte	0x2
 9979 0111 30       		.byte	0x30
 9980 0112 9F       		.byte	0x9f
 9981 0113 00000000 		.4byte	0
 9982 0117 00000000 		.4byte	0
 9983              	.LLST27:
 9984 011b 86000000 		.4byte	.LVL234
 9985 011f 90000000 		.4byte	.LVL235
 9986 0123 0600     		.2byte	0x6
 9987 0125 03       		.byte	0x3
 9988 0126 00000000 		.4byte	iq.7997
 9989 012a 9F       		.byte	0x9f
 9990 012b 00000000 		.4byte	0
 9991 012f 00000000 		.4byte	0
 9992              	.LLST28:
 9993 0133 90000000 		.4byte	.LVL235
 9994 0137 9A000000 		.4byte	.LVL236
 9995 013b 0600     		.2byte	0x6
 9996 013d 03       		.byte	0x3
 9997 013e 00000000 		.4byte	iq.7997
 9998 0142 9F       		.byte	0x9f
 9999 0143 00000000 		.4byte	0
 10000 0147 00000000 		.4byte	0
 10001              	.LLST29:
 10002 014b 9A000000 		.4byte	.LVL236
 10003 014f A4000000 		.4byte	.LVL237
 10004 0153 0600     		.2byte	0x6
 10005 0155 03       		.byte	0x3
 10006 0156 00000000 		.4byte	iq.7997
 10007 015a 9F       		.byte	0x9f
 10008 015b 00000000 		.4byte	0
 10009 015f 00000000 		.4byte	0
 10010              	.LLST30:
 10011 0163 A4000000 		.4byte	.LVL237
 10012 0167 AE000000 		.4byte	.LVL238
 10013 016b 0600     		.2byte	0x6
 10014 016d 03       		.byte	0x3
 10015 016e 00000000 		.4byte	iq.7997
 10016 0172 9F       		.byte	0x9f
 10017 0173 00000000 		.4byte	0
ARM GAS  C:\Users\Moi\AppData\Local\Temp\ccwG6ltn.s 			page 179


 10018 0177 00000000 		.4byte	0
 10019              	.LLST18:
 10020 017b 00000000 		.4byte	.LVL155
 10021 017f 0E000000 		.4byte	.LVL156
 10022 0183 0100     		.2byte	0x1
 10023 0185 50       		.byte	0x50
 10024 0186 0E000000 		.4byte	.LVL156
 10025 018a 48000000 		.4byte	.LFE232
 10026 018e 0100     		.2byte	0x1
 10027 0190 54       		.byte	0x54
 10028 0191 00000000 		.4byte	0
 10029 0195 00000000 		.4byte	0
 10030              	.LLST16:
 10031 0199 9C000000 		.4byte	.LVL119
 10032 019d AA000000 		.4byte	.LVL121
 10033 01a1 0200     		.2byte	0x2
 10034 01a3 30       		.byte	0x30
 10035 01a4 9F       		.byte	0x9f
 10036 01a5 AA000000 		.4byte	.LVL121
 10037 01a9 DA000000 		.4byte	.LVL129
 10038 01ad 0100     		.2byte	0x1
 10039 01af 54       		.byte	0x54
 10040 01b0 00000000 		.4byte	0
 10041 01b4 00000000 		.4byte	0
 10042              	.LLST17:
 10043 01b8 00000000 		.4byte	.LVL134
 10044 01bc 18000000 		.4byte	.LVL135
 10045 01c0 0100     		.2byte	0x1
 10046 01c2 50       		.byte	0x50
 10047 01c3 18000000 		.4byte	.LVL135
 10048 01c7 44000000 		.4byte	.LFE229
 10049 01cb 0400     		.2byte	0x4
 10050 01cd F3       		.byte	0xf3
 10051 01ce 01       		.uleb128 0x1
 10052 01cf 50       		.byte	0x50
 10053 01d0 9F       		.byte	0x9f
 10054 01d1 00000000 		.4byte	0
 10055 01d5 00000000 		.4byte	0
 10056              	.LLST4:
 10057 01d9 24000000 		.4byte	.LVL39
 10058 01dd 34000000 		.4byte	.LVL43
 10059 01e1 0200     		.2byte	0x2
 10060 01e3 30       		.byte	0x30
 10061 01e4 9F       		.byte	0x9f
 10062 01e5 34000000 		.4byte	.LVL43
 10063 01e9 6C000000 		.4byte	.LVL48
 10064 01ed 0100     		.2byte	0x1
 10065 01ef 54       		.byte	0x54
 10066 01f0 70000000 		.4byte	.LVL49
 10067 01f4 90000000 		.4byte	.LFE228
 10068 01f8 0100     		.2byte	0x1
 10069 01fa 54       		.byte	0x54
 10070 01fb 00000000 		.4byte	0
 10071 01ff 00000000 		.4byte	0
 10072              	.LLST5:
 10073 0203 24000000 		.4byte	.LVL39
 10074 0207 6C000000 		.4byte	.LVL48
ARM GAS  C:\Users\Moi\AppData\Local\Temp\ccwG6ltn.s 			page 180


 10075 020b 0100     		.2byte	0x1
 10076 020d 59       		.byte	0x59
 10077 020e 70000000 		.4byte	.LVL49
 10078 0212 90000000 		.4byte	.LFE228
 10079 0216 0100     		.2byte	0x1
 10080 0218 59       		.byte	0x59
 10081 0219 00000000 		.4byte	0
 10082 021d 00000000 		.4byte	0
 10083              	.LLST6:
 10084 0221 32000000 		.4byte	.LVL42
 10085 0225 6C000000 		.4byte	.LVL48
 10086 0229 0100     		.2byte	0x1
 10087 022b 55       		.byte	0x55
 10088 022c 70000000 		.4byte	.LVL49
 10089 0230 90000000 		.4byte	.LFE228
 10090 0234 0100     		.2byte	0x1
 10091 0236 55       		.byte	0x55
 10092 0237 00000000 		.4byte	0
 10093 023b 00000000 		.4byte	0
 10094              	.LLST13:
 10095 023f 24000000 		.4byte	.LVL101
 10096 0243 34000000 		.4byte	.LVL105
 10097 0247 0200     		.2byte	0x2
 10098 0249 30       		.byte	0x30
 10099 024a 9F       		.byte	0x9f
 10100 024b 34000000 		.4byte	.LVL105
 10101 024f 70000000 		.4byte	.LVL111
 10102 0253 0100     		.2byte	0x1
 10103 0255 54       		.byte	0x54
 10104 0256 74000000 		.4byte	.LVL112
 10105 025a 94000000 		.4byte	.LFE227
 10106 025e 0100     		.2byte	0x1
 10107 0260 54       		.byte	0x54
 10108 0261 00000000 		.4byte	0
 10109 0265 00000000 		.4byte	0
 10110              	.LLST14:
 10111 0269 24000000 		.4byte	.LVL101
 10112 026d 70000000 		.4byte	.LVL111
 10113 0271 0100     		.2byte	0x1
 10114 0273 59       		.byte	0x59
 10115 0274 74000000 		.4byte	.LVL112
 10116 0278 94000000 		.4byte	.LFE227
 10117 027c 0100     		.2byte	0x1
 10118 027e 59       		.byte	0x59
 10119 027f 00000000 		.4byte	0
 10120 0283 00000000 		.4byte	0
 10121              	.LLST15:
 10122 0287 32000000 		.4byte	.LVL104
 10123 028b 70000000 		.4byte	.LVL111
 10124 028f 0100     		.2byte	0x1
 10125 0291 55       		.byte	0x55
 10126 0292 74000000 		.4byte	.LVL112
 10127 0296 94000000 		.4byte	.LFE227
 10128 029a 0100     		.2byte	0x1
 10129 029c 55       		.byte	0x55
 10130 029d 00000000 		.4byte	0
 10131 02a1 00000000 		.4byte	0
ARM GAS  C:\Users\Moi\AppData\Local\Temp\ccwG6ltn.s 			page 181


 10132              	.LLST31:
 10133 02a5 38000000 		.4byte	.LVL246
 10134 02a9 3B000000 		.4byte	.LVL247-1
 10135 02ad 0100     		.2byte	0x1
 10136 02af 50       		.byte	0x50
 10137 02b0 3B000000 		.4byte	.LVL247-1
 10138 02b4 F8000000 		.4byte	.LVL274
 10139 02b8 0100     		.2byte	0x1
 10140 02ba 54       		.byte	0x54
 10141 02bb FC000000 		.4byte	.LVL275
 10142 02bf 2C010000 		.4byte	.LFE226
 10143 02c3 0100     		.2byte	0x1
 10144 02c5 54       		.byte	0x54
 10145 02c6 00000000 		.4byte	0
 10146 02ca 00000000 		.4byte	0
 10147              	.LLST32:
 10148 02ce 38000000 		.4byte	.LVL246
 10149 02d2 48000000 		.4byte	.LVL249
 10150 02d6 0200     		.2byte	0x2
 10151 02d8 30       		.byte	0x30
 10152 02d9 9F       		.byte	0x9f
 10153 02da 48000000 		.4byte	.LVL249
 10154 02de F8000000 		.4byte	.LVL274
 10155 02e2 0100     		.2byte	0x1
 10156 02e4 56       		.byte	0x56
 10157 02e5 FC000000 		.4byte	.LVL275
 10158 02e9 2C010000 		.4byte	.LFE226
 10159 02ed 0100     		.2byte	0x1
 10160 02ef 56       		.byte	0x56
 10161 02f0 00000000 		.4byte	0
 10162 02f4 00000000 		.4byte	0
 10163              	.LLST33:
 10164 02f8 92000000 		.4byte	.LVL259
 10165 02fc 96000000 		.4byte	.LVL260
 10166 0300 0200     		.2byte	0x2
 10167 0302 30       		.byte	0x30
 10168 0303 9F       		.byte	0x9f
 10169 0304 00000000 		.4byte	0
 10170 0308 00000000 		.4byte	0
 10171              	.LLST34:
 10172 030c 48000000 		.4byte	.LVL249
 10173 0310 4C000000 		.4byte	.LVL250
 10174 0314 0300     		.2byte	0x3
 10175 0316 08       		.byte	0x8
 10176 0317 20       		.byte	0x20
 10177 0318 9F       		.byte	0x9f
 10178 0319 00000000 		.4byte	0
 10179 031d 00000000 		.4byte	0
 10180              	.LLST35:
 10181 0321 A0000000 		.4byte	.LVL262
 10182 0325 A6000000 		.4byte	.LVL263
 10183 0329 0300     		.2byte	0x3
 10184 032b 08       		.byte	0x8
 10185 032c 20       		.byte	0x20
 10186 032d 9F       		.byte	0x9f
 10187 032e 00000000 		.4byte	0
 10188 0332 00000000 		.4byte	0
ARM GAS  C:\Users\Moi\AppData\Local\Temp\ccwG6ltn.s 			page 182


 10189              	.LLST36:
 10190 0336 D0000000 		.4byte	.LVL269
 10191 033a D6000000 		.4byte	.LVL270
 10192 033e 0200     		.2byte	0x2
 10193 0340 30       		.byte	0x30
 10194 0341 9F       		.byte	0x9f
 10195 0342 00000000 		.4byte	0
 10196 0346 00000000 		.4byte	0
 10197              	.LLST37:
 10198 034a 00000000 		.4byte	.LVL278
 10199 034e 17000000 		.4byte	.LVL281-1
 10200 0352 0100     		.2byte	0x1
 10201 0354 50       		.byte	0x50
 10202 0355 17000000 		.4byte	.LVL281-1
 10203 0359 6C000000 		.4byte	.LFE225
 10204 035d 0400     		.2byte	0x4
 10205 035f F3       		.byte	0xf3
 10206 0360 01       		.uleb128 0x1
 10207 0361 50       		.byte	0x50
 10208 0362 9F       		.byte	0x9f
 10209 0363 00000000 		.4byte	0
 10210 0367 00000000 		.4byte	0
 10211              	.LLST38:
 10212 036b 22000000 		.4byte	.LVL283
 10213 036f 2B000000 		.4byte	.LVL284-1
 10214 0373 0200     		.2byte	0x2
 10215 0375 74       		.byte	0x74
 10216 0376 28       		.sleb128 40
 10217 0377 00000000 		.4byte	0
 10218 037b 00000000 		.4byte	0
 10219              	.LLST39:
 10220 037f 0A000000 		.4byte	.LVL279
 10221 0383 14000000 		.4byte	.LVL280
 10222 0387 0300     		.2byte	0x3
 10223 0389 08       		.byte	0x8
 10224 038a 20       		.byte	0x20
 10225 038b 9F       		.byte	0x9f
 10226 038c 00000000 		.4byte	0
 10227 0390 00000000 		.4byte	0
 10228              	.LLST40:
 10229 0394 40000000 		.4byte	.LVL286
 10230 0398 46000000 		.4byte	.LVL287
 10231 039c 0200     		.2byte	0x2
 10232 039e 30       		.byte	0x30
 10233 039f 9F       		.byte	0x9f
 10234 03a0 00000000 		.4byte	0
 10235 03a4 00000000 		.4byte	0
 10236              	.LLST11:
 10237 03a8 96000000 		.4byte	.LVL89
 10238 03ac 99000000 		.4byte	.LVL90-1
 10239 03b0 0100     		.2byte	0x1
 10240 03b2 50       		.byte	0x50
 10241 03b3 99000000 		.4byte	.LVL90-1
 10242 03b7 C4000000 		.4byte	.LVL95
 10243 03bb 0100     		.2byte	0x1
 10244 03bd 54       		.byte	0x54
 10245 03be C8000000 		.4byte	.LVL96
ARM GAS  C:\Users\Moi\AppData\Local\Temp\ccwG6ltn.s 			page 183


 10246 03c2 F0000000 		.4byte	.LFE224
 10247 03c6 0100     		.2byte	0x1
 10248 03c8 54       		.byte	0x54
 10249 03c9 00000000 		.4byte	0
 10250 03cd 00000000 		.4byte	0
 10251              	.LLST10:
 10252 03d1 2E000000 		.4byte	.LVL74
 10253 03d5 31000000 		.4byte	.LVL75-1
 10254 03d9 0100     		.2byte	0x1
 10255 03db 50       		.byte	0x50
 10256 03dc 31000000 		.4byte	.LVL75-1
 10257 03e0 5A000000 		.4byte	.LVL80
 10258 03e4 0100     		.2byte	0x1
 10259 03e6 55       		.byte	0x55
 10260 03e7 5E000000 		.4byte	.LVL81
 10261 03eb 84000000 		.4byte	.LFE223
 10262 03ef 0100     		.2byte	0x1
 10263 03f1 55       		.byte	0x55
 10264 03f2 00000000 		.4byte	0
 10265 03f6 00000000 		.4byte	0
 10266              	.LLST9:
 10267 03fa 2E000000 		.4byte	.LVL63
 10268 03fe 31000000 		.4byte	.LVL64-1
 10269 0402 0100     		.2byte	0x1
 10270 0404 50       		.byte	0x50
 10271 0405 31000000 		.4byte	.LVL64-1
 10272 0409 5A000000 		.4byte	.LVL69
 10273 040d 0100     		.2byte	0x1
 10274 040f 55       		.byte	0x55
 10275 0410 5E000000 		.4byte	.LVL70
 10276 0414 84000000 		.4byte	.LFE222
 10277 0418 0100     		.2byte	0x1
 10278 041a 55       		.byte	0x55
 10279 041b 00000000 		.4byte	0
 10280 041f 00000000 		.4byte	0
 10281              	.LLST7:
 10282 0423 00000000 		.4byte	.LVL51
 10283 0427 11000000 		.4byte	.LVL53-1
 10284 042b 0100     		.2byte	0x1
 10285 042d 50       		.byte	0x50
 10286 042e 11000000 		.4byte	.LVL53-1
 10287 0432 50000000 		.4byte	.LFE221
 10288 0436 0100     		.2byte	0x1
 10289 0438 55       		.byte	0x55
 10290 0439 00000000 		.4byte	0
 10291 043d 00000000 		.4byte	0
 10292              	.LLST8:
 10293 0441 0E000000 		.4byte	.LVL52
 10294 0445 1C000000 		.4byte	.LVL55
 10295 0449 0200     		.2byte	0x2
 10296 044b 30       		.byte	0x30
 10297 044c 9F       		.byte	0x9f
 10298 044d 1C000000 		.4byte	.LVL55
 10299 0451 42000000 		.4byte	.LVL59
 10300 0455 0100     		.2byte	0x1
 10301 0457 54       		.byte	0x54
 10302 0458 42000000 		.4byte	.LVL59
ARM GAS  C:\Users\Moi\AppData\Local\Temp\ccwG6ltn.s 			page 184


 10303 045c 45000000 		.4byte	.LVL60-1
 10304 0460 0100     		.2byte	0x1
 10305 0462 50       		.byte	0x50
 10306 0463 45000000 		.4byte	.LVL60-1
 10307 0467 50000000 		.4byte	.LFE221
 10308 046b 0100     		.2byte	0x1
 10309 046d 54       		.byte	0x54
 10310 046e 00000000 		.4byte	0
 10311 0472 00000000 		.4byte	0
 10312              	.LLST1:
 10313 0476 00000000 		.4byte	.LVL33
 10314 047a 0A000000 		.4byte	.LVL34
 10315 047e 0100     		.2byte	0x1
 10316 0480 50       		.byte	0x50
 10317 0481 0A000000 		.4byte	.LVL34
 10318 0485 30000000 		.4byte	.LFE220
 10319 0489 0400     		.2byte	0x4
 10320 048b F3       		.byte	0xf3
 10321 048c 01       		.uleb128 0x1
 10322 048d 50       		.byte	0x50
 10323 048e 9F       		.byte	0x9f
 10324 048f 00000000 		.4byte	0
 10325 0493 00000000 		.4byte	0
 10326              	.LLST2:
 10327 0497 0E000000 		.4byte	.LVL35
 10328 049b 15000000 		.4byte	.LVL37-1
 10329 049f 0100     		.2byte	0x1
 10330 04a1 50       		.byte	0x50
 10331 04a2 00000000 		.4byte	0
 10332 04a6 00000000 		.4byte	0
 10333              	.LLST3:
 10334 04aa 0E000000 		.4byte	.LVL35
 10335 04ae 10000000 		.4byte	.LVL36
 10336 04b2 0100     		.2byte	0x1
 10337 04b4 50       		.byte	0x50
 10338 04b5 00000000 		.4byte	0
 10339 04b9 00000000 		.4byte	0
 10340              	.LLST12:
 10341 04bd 00000000 		.4byte	.LVL98
 10342 04c1 1B000000 		.4byte	.LVL99-1
 10343 04c5 0100     		.2byte	0x1
 10344 04c7 50       		.byte	0x50
 10345 04c8 1B000000 		.4byte	.LVL99-1
 10346 04cc 1C000000 		.4byte	.LVL99
 10347 04d0 0400     		.2byte	0x4
 10348 04d2 F3       		.byte	0xf3
 10349 04d3 01       		.uleb128 0x1
 10350 04d4 50       		.byte	0x50
 10351 04d5 9F       		.byte	0x9f
 10352 04d6 1C000000 		.4byte	.LVL99
 10353 04da 1F000000 		.4byte	.LVL100-1
 10354 04de 0100     		.2byte	0x1
 10355 04e0 50       		.byte	0x50
 10356 04e1 1F000000 		.4byte	.LVL100-1
 10357 04e5 24000000 		.4byte	.LFE219
 10358 04e9 0400     		.2byte	0x4
 10359 04eb F3       		.byte	0xf3
ARM GAS  C:\Users\Moi\AppData\Local\Temp\ccwG6ltn.s 			page 185


 10360 04ec 01       		.uleb128 0x1
 10361 04ed 50       		.byte	0x50
 10362 04ee 9F       		.byte	0x9f
 10363 04ef 00000000 		.4byte	0
 10364 04f3 00000000 		.4byte	0
 10365              		.section	.debug_aranges,"",%progbits
 10366 0000 CC000000 		.4byte	0xcc
 10367 0004 0200     		.2byte	0x2
 10368 0006 00000000 		.4byte	.Ldebug_info0
 10369 000a 04       		.byte	0x4
 10370 000b 00       		.byte	0
 10371 000c 0000     		.2byte	0
 10372 000e 0000     		.2byte	0
 10373 0010 00000000 		.4byte	.LFB235
 10374 0014 20000000 		.4byte	.LFE235-.LFB235
 10375 0018 00000000 		.4byte	.LFB241
 10376 001c 04010000 		.4byte	.LFE241-.LFB241
 10377 0020 00000000 		.4byte	.LFB220
 10378 0024 30000000 		.4byte	.LFE220-.LFB220
 10379 0028 00000000 		.4byte	.LFB228
 10380 002c 90000000 		.4byte	.LFE228-.LFB228
 10381 0030 00000000 		.4byte	.LFB221
 10382 0034 50000000 		.4byte	.LFE221-.LFB221
 10383 0038 00000000 		.4byte	.LFB222
 10384 003c 84000000 		.4byte	.LFE222-.LFB222
 10385 0040 00000000 		.4byte	.LFB223
 10386 0044 84000000 		.4byte	.LFE223-.LFB223
 10387 0048 00000000 		.4byte	.LFB224
 10388 004c F0000000 		.4byte	.LFE224-.LFB224
 10389 0050 00000000 		.4byte	.LFB219
 10390 0054 24000000 		.4byte	.LFE219-.LFB219
 10391 0058 00000000 		.4byte	.LFB227
 10392 005c 94000000 		.4byte	.LFE227-.LFB227
 10393 0060 00000000 		.4byte	.LFB231
 10394 0064 28010000 		.4byte	.LFE231-.LFB231
 10395 0068 00000000 		.4byte	.LFB229
 10396 006c 44000000 		.4byte	.LFE229-.LFB229
 10397 0070 00000000 		.4byte	.LFB230
 10398 0074 2C000000 		.4byte	.LFE230-.LFB230
 10399 0078 00000000 		.4byte	.LFB237
 10400 007c 2C000000 		.4byte	.LFE237-.LFB237
 10401 0080 00000000 		.4byte	.LFB233
 10402 0084 EC000000 		.4byte	.LFE233-.LFB233
 10403 0088 00000000 		.4byte	.LFB232
 10404 008c 48000000 		.4byte	.LFE232-.LFB232
 10405 0090 00000000 		.4byte	.LFB238
 10406 0094 8C000000 		.4byte	.LFE238-.LFB238
 10407 0098 00000000 		.4byte	.LFB240
 10408 009c 8C000000 		.4byte	.LFE240-.LFB240
 10409 00a0 00000000 		.4byte	.LFB239
 10410 00a4 2C000000 		.4byte	.LFE239-.LFB239
 10411 00a8 00000000 		.4byte	.LFB236
 10412 00ac D8000000 		.4byte	.LFE236-.LFB236
 10413 00b0 00000000 		.4byte	.LFB234
 10414 00b4 00010000 		.4byte	.LFE234-.LFB234
 10415 00b8 00000000 		.4byte	.LFB226
 10416 00bc 2C010000 		.4byte	.LFE226-.LFB226
ARM GAS  C:\Users\Moi\AppData\Local\Temp\ccwG6ltn.s 			page 186


 10417 00c0 00000000 		.4byte	.LFB225
 10418 00c4 6C000000 		.4byte	.LFE225-.LFB225
 10419 00c8 00000000 		.4byte	0
 10420 00cc 00000000 		.4byte	0
 10421              		.section	.debug_ranges,"",%progbits
 10422              	.Ldebug_ranges0:
 10423 0000 04000000 		.4byte	.LBB145
 10424 0004 06000000 		.4byte	.LBE145
 10425 0008 0A000000 		.4byte	.LBB150
 10426 000c 0C000000 		.4byte	.LBE150
 10427 0010 00000000 		.4byte	0
 10428 0014 00000000 		.4byte	0
 10429 0018 02000000 		.4byte	.LBB151
 10430 001c 04000000 		.4byte	.LBE151
 10431 0020 06000000 		.4byte	.LBB156
 10432 0024 08000000 		.4byte	.LBE156
 10433 0028 00000000 		.4byte	0
 10434 002c 00000000 		.4byte	0
 10435 0030 02000000 		.4byte	.LBB157
 10436 0034 04000000 		.4byte	.LBE157
 10437 0038 06000000 		.4byte	.LBB162
 10438 003c 08000000 		.4byte	.LBE162
 10439 0040 00000000 		.4byte	0
 10440 0044 00000000 		.4byte	0
 10441 0048 04000000 		.4byte	.LBB163
 10442 004c 06000000 		.4byte	.LBE163
 10443 0050 0A000000 		.4byte	.LBB168
 10444 0054 0C000000 		.4byte	.LBE168
 10445 0058 00000000 		.4byte	0
 10446 005c 00000000 		.4byte	0
 10447 0060 04000000 		.4byte	.LBB177
 10448 0064 06000000 		.4byte	.LBE177
 10449 0068 0A000000 		.4byte	.LBB182
 10450 006c 0C000000 		.4byte	.LBE182
 10451 0070 00000000 		.4byte	0
 10452 0074 00000000 		.4byte	0
 10453 0078 04000000 		.4byte	.LBB183
 10454 007c 08000000 		.4byte	.LBE183
 10455 0080 0C000000 		.4byte	.LBB188
 10456 0084 10000000 		.4byte	.LBE188
 10457 0088 00000000 		.4byte	0
 10458 008c 00000000 		.4byte	0
 10459 0090 02000000 		.4byte	.LBB197
 10460 0094 04000000 		.4byte	.LBE197
 10461 0098 06000000 		.4byte	.LBB203
 10462 009c 08000000 		.4byte	.LBE203
 10463 00a0 1E000000 		.4byte	.LBB204
 10464 00a4 20000000 		.4byte	.LBE204
 10465 00a8 00000000 		.4byte	0
 10466 00ac 00000000 		.4byte	0
 10467 00b0 08000000 		.4byte	.LBB205
 10468 00b4 0A000000 		.4byte	.LBE205
 10469 00b8 22000000 		.4byte	.LBB210
 10470 00bc 24000000 		.4byte	.LBE210
 10471 00c0 00000000 		.4byte	0
 10472 00c4 00000000 		.4byte	0
 10473 00c8 04000000 		.4byte	.LBB301
ARM GAS  C:\Users\Moi\AppData\Local\Temp\ccwG6ltn.s 			page 187


 10474 00cc 06000000 		.4byte	.LBE301
 10475 00d0 08000000 		.4byte	.LBB306
 10476 00d4 0A000000 		.4byte	.LBE306
 10477 00d8 00000000 		.4byte	0
 10478 00dc 00000000 		.4byte	0
 10479 00e0 1C000000 		.4byte	.LBB307
 10480 00e4 20000000 		.4byte	.LBE307
 10481 00e8 74000000 		.4byte	.LBB318
 10482 00ec 96000000 		.4byte	.LBE318
 10483 00f0 00000000 		.4byte	0
 10484 00f4 00000000 		.4byte	0
 10485 00f8 B8000000 		.4byte	.LBB324
 10486 00fc D6000000 		.4byte	.LBE324
 10487 0100 FC000000 		.4byte	.LBB330
 10488 0104 04010000 		.4byte	.LBE330
 10489 0108 00000000 		.4byte	0
 10490 010c 00000000 		.4byte	0
 10491 0110 04000000 		.4byte	.LBB343
 10492 0114 06000000 		.4byte	.LBE343
 10493 0118 08000000 		.4byte	.LBB346
 10494 011c 0A000000 		.4byte	.LBE346
 10495 0120 00000000 		.4byte	0
 10496 0124 00000000 		.4byte	0
 10497 0128 28000000 		.4byte	.LBB352
 10498 012c 46000000 		.4byte	.LBE352
 10499 0130 52000000 		.4byte	.LBB358
 10500 0134 5A000000 		.4byte	.LBE358
 10501 0138 00000000 		.4byte	0
 10502 013c 00000000 		.4byte	0
 10503 0140 00000000 		.4byte	.LFB235
 10504 0144 20000000 		.4byte	.LFE235
 10505 0148 00000000 		.4byte	.LFB241
 10506 014c 04010000 		.4byte	.LFE241
 10507 0150 00000000 		.4byte	.LFB220
 10508 0154 30000000 		.4byte	.LFE220
 10509 0158 00000000 		.4byte	.LFB228
 10510 015c 90000000 		.4byte	.LFE228
 10511 0160 00000000 		.4byte	.LFB221
 10512 0164 50000000 		.4byte	.LFE221
 10513 0168 00000000 		.4byte	.LFB222
 10514 016c 84000000 		.4byte	.LFE222
 10515 0170 00000000 		.4byte	.LFB223
 10516 0174 84000000 		.4byte	.LFE223
 10517 0178 00000000 		.4byte	.LFB224
 10518 017c F0000000 		.4byte	.LFE224
 10519 0180 00000000 		.4byte	.LFB219
 10520 0184 24000000 		.4byte	.LFE219
 10521 0188 00000000 		.4byte	.LFB227
 10522 018c 94000000 		.4byte	.LFE227
 10523 0190 00000000 		.4byte	.LFB231
 10524 0194 28010000 		.4byte	.LFE231
 10525 0198 00000000 		.4byte	.LFB229
 10526 019c 44000000 		.4byte	.LFE229
 10527 01a0 00000000 		.4byte	.LFB230
 10528 01a4 2C000000 		.4byte	.LFE230
 10529 01a8 00000000 		.4byte	.LFB237
 10530 01ac 2C000000 		.4byte	.LFE237
ARM GAS  C:\Users\Moi\AppData\Local\Temp\ccwG6ltn.s 			page 188


 10531 01b0 00000000 		.4byte	.LFB233
 10532 01b4 EC000000 		.4byte	.LFE233
 10533 01b8 00000000 		.4byte	.LFB232
 10534 01bc 48000000 		.4byte	.LFE232
 10535 01c0 00000000 		.4byte	.LFB238
 10536 01c4 8C000000 		.4byte	.LFE238
 10537 01c8 00000000 		.4byte	.LFB240
 10538 01cc 8C000000 		.4byte	.LFE240
 10539 01d0 00000000 		.4byte	.LFB239
 10540 01d4 2C000000 		.4byte	.LFE239
 10541 01d8 00000000 		.4byte	.LFB236
 10542 01dc D8000000 		.4byte	.LFE236
 10543 01e0 00000000 		.4byte	.LFB234
 10544 01e4 00010000 		.4byte	.LFE234
 10545 01e8 00000000 		.4byte	.LFB226
 10546 01ec 2C010000 		.4byte	.LFE226
 10547 01f0 00000000 		.4byte	.LFB225
 10548 01f4 6C000000 		.4byte	.LFE225
 10549 01f8 00000000 		.4byte	0
 10550 01fc 00000000 		.4byte	0
 10551              		.section	.debug_line,"",%progbits
 10552              	.Ldebug_line0:
 10553 0000 280A0000 		.section	.debug_str,"MS",%progbits,1
 10553      02008B03 
 10553      00000201 
 10553      FB0E0D00 
 10553      01010101 
 10554              	.LASF54:
 10555 0000 705F7374 		.ascii	"p_stats\000"
 10555      61747300 
 10556              	.LASF4:
 10557 0008 73697A65 		.ascii	"size_t\000"
 10557      5F7400
 10558              	.LASF124:
 10559 000f 77747365 		.ascii	"wtsemp\000"
 10559      6D7000
 10560              	.LASF147:
 10561 0016 63665F6F 		.ascii	"cf_off_name\000"
 10561      66665F6E 
 10561      616D6500 
 10562              	.LASF32:
 10563 0022 73797374 		.ascii	"systime_t\000"
 10563      696D655F 
 10563      7400
 10564              	.LASF216:
 10565 002c 626D6B32 		.ascii	"bmk2_execute\000"
 10565      5F657865 
 10565      63757465 
 10565      00
 10566              	.LASF136:
 10567 0039 63685F69 		.ascii	"ch_identifier\000"
 10567      64656E74 
 10567      69666965 
 10567      7200
 10568              	.LASF37:
 10569 0047 705F6374 		.ascii	"p_ctx\000"
 10569      7800
ARM GAS  C:\Users\Moi\AppData\Local\Temp\ccwG6ltn.s 			page 189


 10570              	.LASF265:
 10571 004d 63684D73 		.ascii	"chMsgRelease\000"
 10571      6752656C 
 10571      65617365 
 10571      00
 10572              	.LASF27:
 10573 005a 74707269 		.ascii	"tprio_t\000"
 10573      6F5F7400 
 10574              	.LASF198:
 10575 0062 626D6B31 		.ascii	"bmk12_execute\000"
 10575      325F6578 
 10575      65637574 
 10575      6500
 10576              	.LASF241:
 10577 0070 63685365 		.ascii	"chSemWait\000"
 10577      6D576169 
 10577      7400
 10578              	.LASF155:
 10579 007a 63685F64 		.ascii	"ch_debug\000"
 10579      65627567 
 10579      00
 10580              	.LASF270:
 10581 0083 74657374 		.ascii	"test_buffers\000"
 10581      5F627566 
 10581      66657273 
 10581      00
 10582              	.LASF48:
 10583 0090 705F6D73 		.ascii	"p_msgqueue\000"
 10583      67717565 
 10583      756500
 10584              	.LASF65:
 10585 009b 725F6374 		.ascii	"r_ctx\000"
 10585      7800
 10586              	.LASF18:
 10587 00a1 696E7433 		.ascii	"int32_t\000"
 10587      325F7400 
 10588              	.LASF144:
 10589 00a9 63665F6F 		.ascii	"cf_off_ctx\000"
 10589      66665F63 
 10589      747800
 10590              	.LASF69:
 10591 00b4 76746675 		.ascii	"vtfunc_t\000"
 10591      6E635F74 
 10591      00
 10592              	.LASF78:
 10593 00bd 63685F76 		.ascii	"ch_virtual_timers_list\000"
 10593      69727475 
 10593      616C5F74 
 10593      696D6572 
 10593      735F6C69 
 10594              	.LASF224:
 10595 00d4 63685468 		.ascii	"chThdGetPriorityX\000"
 10595      64476574 
 10595      5072696F 
 10595      72697479 
 10595      5800
 10596              	.LASF226:
ARM GAS  C:\Users\Moi\AppData\Local\Temp\ccwG6ltn.s 			page 190


 10597 00e6 5F5F6675 		.ascii	"__func__\000"
 10597      6E635F5F 
 10597      00
 10598              	.LASF84:
 10599 00ef 6C6F636B 		.ascii	"lock_cnt\000"
 10599      5F636E74 
 10599      00
 10600              	.LASF140:
 10601 00f8 63685F70 		.ascii	"ch_ptrsize\000"
 10601      74727369 
 10601      7A6500
 10602              	.LASF250:
 10603 0103 63685654 		.ascii	"chVTDoResetI\000"
 10603      446F5265 
 10603      73657449 
 10603      00
 10604              	.LASF100:
 10605 0110 73655F74 		.ascii	"se_tp\000"
 10605      7000
 10606              	.LASF114:
 10607 0116 74696D65 		.ascii	"time_measurement_t\000"
 10607      5F6D6561 
 10607      73757265 
 10607      6D656E74 
 10607      5F7400
 10608              	.LASF252:
 10609 0129 63684951 		.ascii	"chIQObjectInit\000"
 10609      4F626A65 
 10609      6374496E 
 10609      697400
 10610              	.LASF211:
 10611 0138 7072696F 		.ascii	"prio\000"
 10611      00
 10612              	.LASF246:
 10613 013d 5F646267 		.ascii	"_dbg_check_unlock\000"
 10613      5F636865 
 10613      636B5F75 
 10613      6E6C6F63 
 10613      6B00
 10614              	.LASF132:
 10615 014f 6D5F6F77 		.ascii	"m_owner\000"
 10615      6E657200 
 10616              	.LASF76:
 10617 0157 76745F70 		.ascii	"vt_par\000"
 10617      617200
 10618              	.LASF121:
 10619 015e 65786974 		.ascii	"exitcode\000"
 10619      636F6465 
 10619      00
 10620              	.LASF249:
 10621 0167 63685654 		.ascii	"chVTDoSetI\000"
 10621      446F5365 
 10621      744900
 10622              	.LASF5:
 10623 0172 5F5F7569 		.ascii	"__uint8_t\000"
 10623      6E74385F 
 10623      7400
ARM GAS  C:\Users\Moi\AppData\Local\Temp\ccwG6ltn.s 			page 191


 10624              	.LASF163:
 10625 017c 715F746F 		.ascii	"q_top\000"
 10625      7000
 10626              	.LASF126:
 10627 0182 65776D61 		.ascii	"ewmask\000"
 10627      736B00
 10628              	.LASF142:
 10629 0189 63685F74 		.ascii	"ch_threadsize\000"
 10629      68726561 
 10629      6473697A 
 10629      6500
 10630              	.LASF162:
 10631 0197 715F6275 		.ascii	"q_buffer\000"
 10631      66666572 
 10631      00
 10632              	.LASF260:
 10633 01a0 63685468 		.ascii	"chThdWait\000"
 10633      64576169 
 10633      7400
 10634              	.LASF166:
 10635 01aa 715F6E6F 		.ascii	"q_notify\000"
 10635      74696679 
 10635      00
 10636              	.LASF38:
 10637 01b3 705F6E65 		.ascii	"p_newer\000"
 10637      77657200 
 10638              	.LASF11:
 10639 01bb 6C6F6E67 		.ascii	"long int\000"
 10639      20696E74 
 10639      00
 10640              	.LASF34:
 10641 01c4 705F6E65 		.ascii	"p_next\000"
 10641      787400
 10642              	.LASF228:
 10643 01cb 706F7274 		.ascii	"port_unlock\000"
 10643      5F756E6C 
 10643      6F636B00 
 10644              	.LASF165:
 10645 01d7 715F7264 		.ascii	"q_rdptr\000"
 10645      70747200 
 10646              	.LASF239:
 10647 01df 63684D74 		.ascii	"chMtxUnlock\000"
 10647      78556E6C 
 10647      6F636B00 
 10648              	.LASF233:
 10649 01eb 74657374 		.ascii	"test_print\000"
 10649      5F707269 
 10649      6E7400
 10650              	.LASF149:
 10651 01f6 63665F6F 		.ascii	"cf_off_state\000"
 10651      66665F73 
 10651      74617465 
 10651      00
 10652              	.LASF35:
 10653 0203 705F7072 		.ascii	"p_prev\000"
 10653      657600
 10654              	.LASF179:
ARM GAS  C:\Users\Moi\AppData\Local\Temp\ccwG6ltn.s 			page 192


 10655 020a 74657374 		.ascii	"test\000"
 10655      00
 10656              	.LASF24:
 10657 020f 74737461 		.ascii	"tstate_t\000"
 10657      74655F74 
 10657      00
 10658              	.LASF22:
 10659 0218 72747469 		.ascii	"rttime_t\000"
 10659      6D655F74 
 10659      00
 10660              	.LASF59:
 10661 0221 74687265 		.ascii	"threads_queue_t\000"
 10661      6164735F 
 10661      71756575 
 10661      655F7400 
 10662              	.LASF51:
 10663 0231 705F6D74 		.ascii	"p_mtxlist\000"
 10663      786C6973 
 10663      7400
 10664              	.LASF95:
 10665 023b 72656761 		.ascii	"regarm_t\000"
 10665      726D5F74 
 10665      00
 10666              	.LASF266:
 10667 0244 63685468 		.ascii	"chThdExit\000"
 10667      64457869 
 10667      7400
 10668              	.LASF207:
 10669 024e 626D6B37 		.ascii	"bmk7_execute\000"
 10669      5F657865 
 10669      63757465 
 10669      00
 10670              	.LASF159:
 10671 025b 696F5F71 		.ascii	"io_queue\000"
 10671      75657565 
 10671      00
 10672              	.LASF196:
 10673 0264 70617474 		.ascii	"patternbmk\000"
 10673      65726E62 
 10673      6D6B00
 10674              	.LASF247:
 10675 026f 5F737461 		.ascii	"_stats_stop_measure_crit_thd\000"
 10675      74735F73 
 10675      746F705F 
 10675      6D656173 
 10675      7572655F 
 10676              	.LASF113:
 10677 028c 63756D75 		.ascii	"cumulative\000"
 10677      6C617469 
 10677      766500
 10678              	.LASF3:
 10679 0297 7369676E 		.ascii	"signed char\000"
 10679      65642063 
 10679      68617200 
 10680              	.LASF45:
 10681 02a3 705F7072 		.ascii	"p_preempt\000"
 10681      65656D70 
ARM GAS  C:\Users\Moi\AppData\Local\Temp\ccwG6ltn.s 			page 193


 10681      7400
 10682              	.LASF16:
 10683 02ad 75696E74 		.ascii	"uint8_t\000"
 10683      385F7400 
 10684              	.LASF209:
 10685 02b5 74687265 		.ascii	"thread3\000"
 10685      61643300 
 10686              	.LASF29:
 10687 02bd 6576656E 		.ascii	"eventmask_t\000"
 10687      746D6173 
 10687      6B5F7400 
 10688              	.LASF97:
 10689 02c9 636F6E74 		.ascii	"context\000"
 10689      65787400 
 10690              	.LASF123:
 10691 02d1 77747472 		.ascii	"wttrp\000"
 10691      7000
 10692              	.LASF6:
 10693 02d7 756E7369 		.ascii	"unsigned char\000"
 10693      676E6564 
 10693      20636861 
 10693      7200
 10694              	.LASF167:
 10695 02e5 715F6C69 		.ascii	"q_link\000"
 10695      6E6B00
 10696              	.LASF82:
 10697 02ec 70616E69 		.ascii	"panic_msg\000"
 10697      635F6D73 
 10697      6700
 10698              	.LASF215:
 10699 02f6 626D6B33 		.ascii	"bmk3_execute\000"
 10699      5F657865 
 10699      63757465 
 10699      00
 10700              	.LASF85:
 10701 0303 74726163 		.ascii	"trace_buffer\000"
 10701      655F6275 
 10701      66666572 
 10701      00
 10702              	.LASF66:
 10703 0310 725F6E65 		.ascii	"r_newer\000"
 10703      77657200 
 10704              	.LASF197:
 10705 0318 626D6B31 		.ascii	"bmk13_execute\000"
 10705      335F6578 
 10705      65637574 
 10705      6500
 10706              	.LASF80:
 10707 0326 73797374 		.ascii	"system_debug_t\000"
 10707      656D5F64 
 10707      65627567 
 10707      5F7400
 10708              	.LASF177:
 10709 0335 5F426F6F 		.ascii	"_Bool\000"
 10709      6C00
 10710              	.LASF261:
 10711 033b 63685363 		.ascii	"chSchWakeupS\000"
ARM GAS  C:\Users\Moi\AppData\Local\Temp\ccwG6ltn.s 			page 194


 10711      6857616B 
 10711      65757053 
 10711      00
 10712              	.LASF217:
 10713 0348 626D6B31 		.ascii	"bmk1_execute\000"
 10713      5F657865 
 10713      63757465 
 10713      00
 10714              	.LASF232:
 10715 0355 76616C75 		.ascii	"value\000"
 10715      6500
 10716              	.LASF135:
 10717 035b 63686172 		.ascii	"char\000"
 10717      00
 10718              	.LASF134:
 10719 0360 6D5F636E 		.ascii	"m_cnt\000"
 10719      7400
 10720              	.LASF237:
 10721 0366 74657374 		.ascii	"test_start_timer\000"
 10721      5F737461 
 10721      72745F74 
 10721      696D6572 
 10721      00
 10722              	.LASF36:
 10723 0377 705F7072 		.ascii	"p_prio\000"
 10723      696F00
 10724              	.LASF8:
 10725 037e 5F5F7569 		.ascii	"__uint16_t\000"
 10725      6E743136 
 10725      5F7400
 10726              	.LASF122:
 10727 0389 77746F62 		.ascii	"wtobjp\000"
 10727      6A7000
 10728              	.LASF116:
 10729 0390 6E5F6374 		.ascii	"n_ctxswc\000"
 10729      78737763 
 10729      00
 10730              	.LASF145:
 10731 0399 63665F6F 		.ascii	"cf_off_newer\000"
 10731      66665F6E 
 10731      65776572 
 10731      00
 10732              	.LASF96:
 10733 03a6 73746B61 		.ascii	"stkalign_t\000"
 10733      6C69676E 
 10733      5F7400
 10734              	.LASF143:
 10735 03b1 63665F6F 		.ascii	"cf_off_prio\000"
 10735      66665F70 
 10735      72696F00 
 10736              	.LASF111:
 10737 03bd 776F7273 		.ascii	"worst\000"
 10737      7400
 10738              	.LASF204:
 10739 03c3 626D6B38 		.ascii	"bmk8_execute\000"
 10739      5F657865 
 10739      63757465 
ARM GAS  C:\Users\Moi\AppData\Local\Temp\ccwG6ltn.s 			page 195


 10739      00
 10740              	.LASF30:
 10741 03d0 636E745F 		.ascii	"cnt_t\000"
 10741      7400
 10742              	.LASF255:
 10743 03d6 63685468 		.ascii	"chThdSleep\000"
 10743      64536C65 
 10743      657000
 10744              	.LASF75:
 10745 03e1 76745F66 		.ascii	"vt_func\000"
 10745      756E6300 
 10746              	.LASF175:
 10747 03e9 62756666 		.ascii	"buffer\000"
 10747      657200
 10748              	.LASF172:
 10749 03f0 73657475 		.ascii	"setup\000"
 10749      7000
 10750              	.LASF107:
 10751 03f6 63685F74 		.ascii	"ch_trace_buffer_t\000"
 10751      72616365 
 10751      5F627566 
 10751      6665725F 
 10751      7400
 10752              	.LASF50:
 10753 0408 705F6570 		.ascii	"p_epending\000"
 10753      656E6469 
 10753      6E6700
 10754              	.LASF125:
 10755 0413 77746D74 		.ascii	"wtmtxp\000"
 10755      787000
 10756              	.LASF62:
 10757 041a 63685F72 		.ascii	"ch_ready_list\000"
 10757      65616479 
 10757      5F6C6973 
 10757      7400
 10758              	.LASF262:
 10759 0428 63685363 		.ascii	"chSchGoSleepS\000"
 10759      68476F53 
 10759      6C656570 
 10759      5300
 10760              	.LASF180:
 10761 0436 74657374 		.ascii	"test_timer_done\000"
 10761      5F74696D 
 10761      65725F64 
 10761      6F6E6500 
 10762              	.LASF83:
 10763 0446 6973725F 		.ascii	"isr_cnt\000"
 10763      636E7400 
 10764              	.LASF118:
 10765 044e 6D5F6372 		.ascii	"m_crit_isr\000"
 10765      69745F69 
 10765      737200
 10766              	.LASF161:
 10767 0459 715F636F 		.ascii	"q_counter\000"
 10767      756E7465 
 10767      7200
 10768              	.LASF102:
ARM GAS  C:\Users\Moi\AppData\Local\Temp\ccwG6ltn.s 			page 196


 10769 0463 73655F73 		.ascii	"se_state\000"
 10769      74617465 
 10769      00
 10770              	.LASF117:
 10771 046c 6D5F6372 		.ascii	"m_crit_thd\000"
 10771      69745F74 
 10771      686400
 10772              	.LASF14:
 10773 0477 5F5F7569 		.ascii	"__uint64_t\000"
 10773      6E743634 
 10773      5F7400
 10774              	.LASF230:
 10775 0482 63685379 		.ascii	"chSysUnlock\000"
 10775      73556E6C 
 10775      6F636B00 
 10776              	.LASF13:
 10777 048e 6C6F6E67 		.ascii	"long unsigned int\000"
 10777      20756E73 
 10777      69676E65 
 10777      6420696E 
 10777      7400
 10778              	.LASF137:
 10779 04a0 63685F7A 		.ascii	"ch_zero\000"
 10779      65726F00 
 10780              	.LASF227:
 10781 04a8 63685379 		.ascii	"chSysLock\000"
 10781      734C6F63 
 10781      6B00
 10782              	.LASF219:
 10783 04b2 73656C66 		.ascii	"self\000"
 10783      00
 10784              	.LASF242:
 10785 04b7 63685365 		.ascii	"chSemSignal\000"
 10785      6D536967 
 10785      6E616C00 
 10786              	.LASF206:
 10787 04c3 70617261 		.ascii	"param\000"
 10787      6D00
 10788              	.LASF94:
 10789 04c9 53797374 		.ascii	"SystemCoreClock\000"
 10789      656D436F 
 10789      7265436C 
 10789      6F636B00 
 10790              	.LASF127:
 10791 04d9 63685F73 		.ascii	"ch_semaphore\000"
 10791      656D6170 
 10791      686F7265 
 10791      00
 10792              	.LASF181:
 10793 04e6 73656D31 		.ascii	"sem1\000"
 10793      00
 10794              	.LASF57:
 10795 04eb 63685F74 		.ascii	"ch_thread\000"
 10795      68726561 
 10795      6400
 10796              	.LASF77:
 10797 04f5 76697274 		.ascii	"virtual_timers_list_t\000"
ARM GAS  C:\Users\Moi\AppData\Local\Temp\ccwG6ltn.s 			page 197


 10797      75616C5F 
 10797      74696D65 
 10797      72735F6C 
 10797      6973745F 
 10798              	.LASF70:
 10799 050b 76697274 		.ascii	"virtual_timer_t\000"
 10799      75616C5F 
 10799      74696D65 
 10799      725F7400 
 10800              	.LASF61:
 10801 051b 72656164 		.ascii	"ready_list_t\000"
 10801      795F6C69 
 10801      73745F74 
 10801      00
 10802              	.LASF164:
 10803 0528 715F7772 		.ascii	"q_wrptr\000"
 10803      70747200 
 10804              	.LASF31:
 10805 0530 75636E74 		.ascii	"ucnt_t\000"
 10805      5F7400
 10806              	.LASF213:
 10807 0537 626D6B34 		.ascii	"bmk4_execute\000"
 10807      5F657865 
 10807      63757465 
 10807      00
 10808              	.LASF182:
 10809 0544 6D747831 		.ascii	"mtx1\000"
 10809      00
 10810              	.LASF269:
 10811 0549 433A5C55 		.ascii	"C:\\Users\\Moi\\Documents\\_microinfo\\_projet\\hug"
 10811      73657273 
 10811      5C4D6F69 
 10811      5C446F63 
 10811      756D656E 
 10812 0576 756900   		.ascii	"ui\000"
 10813              	.LASF183:
 10814 0579 74657374 		.ascii	"testbmk1\000"
 10814      626D6B31 
 10814      00
 10815              	.LASF184:
 10816 0582 74657374 		.ascii	"testbmk2\000"
 10816      626D6B32 
 10816      00
 10817              	.LASF58:
 10818 058b 63685F74 		.ascii	"ch_threads_list\000"
 10818      68726561 
 10818      64735F6C 
 10818      69737400 
 10819              	.LASF186:
 10820 059b 74657374 		.ascii	"testbmk4\000"
 10820      626D6B34 
 10820      00
 10821              	.LASF187:
 10822 05a4 74657374 		.ascii	"testbmk5\000"
 10822      626D6B35 
 10822      00
 10823              	.LASF103:
ARM GAS  C:\Users\Moi\AppData\Local\Temp\ccwG6ltn.s 			page 198


 10824 05ad 63685F73 		.ascii	"ch_swc_event_t\000"
 10824      77635F65 
 10824      76656E74 
 10824      5F7400
 10825              	.LASF189:
 10826 05bc 74657374 		.ascii	"testbmk7\000"
 10826      626D6B37 
 10826      00
 10827              	.LASF190:
 10828 05c5 74657374 		.ascii	"testbmk8\000"
 10828      626D6B38 
 10828      00
 10829              	.LASF191:
 10830 05ce 74657374 		.ascii	"testbmk9\000"
 10830      626D6B39 
 10830      00
 10831              	.LASF115:
 10832 05d7 6E5F6972 		.ascii	"n_irq\000"
 10832      7100
 10833              	.LASF208:
 10834 05dd 626D6B37 		.ascii	"bmk7_setup\000"
 10834      5F736574 
 10834      757000
 10835              	.LASF152:
 10836 05e8 63665F6F 		.ascii	"cf_off_preempt\000"
 10836      66665F70 
 10836      7265656D 
 10836      707400
 10837              	.LASF12:
 10838 05f7 5F5F7569 		.ascii	"__uint32_t\000"
 10838      6E743332 
 10838      5F7400
 10839              	.LASF272:
 10840 0602 5F5F7374 		.ascii	"__stack_chk_fail\000"
 10840      61636B5F 
 10840      63686B5F 
 10840      6661696C 
 10840      00
 10841              	.LASF1:
 10842 0613 6C6F6E67 		.ascii	"long long int\000"
 10842      206C6F6E 
 10842      6720696E 
 10842      7400
 10843              	.LASF139:
 10844 0621 63685F76 		.ascii	"ch_version\000"
 10844      65727369 
 10844      6F6E00
 10845              	.LASF131:
 10846 062c 6D5F7175 		.ascii	"m_queue\000"
 10846      65756500 
 10847              	.LASF72:
 10848 0634 76745F6E 		.ascii	"vt_next\000"
 10848      65787400 
 10849              	.LASF254:
 10850 063c 63685468 		.ascii	"chThdCreateStatic\000"
 10850      64437265 
 10850      61746553 
ARM GAS  C:\Users\Moi\AppData\Local\Temp\ccwG6ltn.s 			page 199


 10850      74617469 
 10850      6300
 10851              	.LASF263:
 10852 064e 63684D73 		.ascii	"chMsgSend\000"
 10852      6753656E 
 10852      6400
 10853              	.LASF73:
 10854 0658 76745F70 		.ascii	"vt_prev\000"
 10854      72657600 
 10855              	.LASF259:
 10856 0660 63685365 		.ascii	"chSemReset\000"
 10856      6D526573 
 10856      657400
 10857              	.LASF104:
 10858 066b 74625F73 		.ascii	"tb_size\000"
 10858      697A6500 
 10859              	.LASF257:
 10860 0673 74657374 		.ascii	"test_wait_threads\000"
 10860      5F776169 
 10860      745F7468 
 10860      72656164 
 10860      7300
 10861              	.LASF238:
 10862 0685 63684D74 		.ascii	"chMtxLock\000"
 10862      784C6F63 
 10862      6B00
 10863              	.LASF93:
 10864 068f 49544D5F 		.ascii	"ITM_RxBuffer\000"
 10864      52784275 
 10864      66666572 
 10864      00
 10865              	.LASF168:
 10866 069c 716E6F74 		.ascii	"qnotify_t\000"
 10866      6966795F 
 10866      7400
 10867              	.LASF47:
 10868 06a6 705F7761 		.ascii	"p_waiting\000"
 10868      6974696E 
 10868      6700
 10869              	.LASF101:
 10870 06b0 73655F77 		.ascii	"se_wtobjp\000"
 10870      746F626A 
 10870      7000
 10871              	.LASF43:
 10872 06ba 705F666C 		.ascii	"p_flags\000"
 10872      61677300 
 10873              	.LASF236:
 10874 06c2 74657374 		.ascii	"test_wait_tick\000"
 10874      5F776169 
 10874      745F7469 
 10874      636B00
 10875              	.LASF92:
 10876 06d1 69646C65 		.ascii	"idle_thread_wa\000"
 10876      5F746872 
 10876      6561645F 
 10876      776100
 10877              	.LASF0:
ARM GAS  C:\Users\Moi\AppData\Local\Temp\ccwG6ltn.s 			page 200


 10878 06e0 756E7369 		.ascii	"unsigned int\000"
 10878      676E6564 
 10878      20696E74 
 10878      00
 10879              	.LASF203:
 10880 06ed 626D6B39 		.ascii	"bmk9_execute\000"
 10880      5F657865 
 10880      63757465 
 10880      00
 10881              	.LASF21:
 10882 06fa 7274636E 		.ascii	"rtcnt_t\000"
 10882      745F7400 
 10883              	.LASF53:
 10884 0702 705F6D70 		.ascii	"p_mpool\000"
 10884      6F6F6C00 
 10885              	.LASF251:
 10886 070a 63684951 		.ascii	"chIQGetTimeout\000"
 10886      47657454 
 10886      696D656F 
 10886      757400
 10887              	.LASF44:
 10888 0719 705F7265 		.ascii	"p_refs\000"
 10888      667300
 10889              	.LASF141:
 10890 0720 63685F74 		.ascii	"ch_timesize\000"
 10890      696D6573 
 10890      697A6500 
 10891              	.LASF202:
 10892 072c 626D6B31 		.ascii	"bmk10_execute\000"
 10892      305F6578 
 10892      65637574 
 10892      6500
 10893              	.LASF119:
 10894 073a 6B65726E 		.ascii	"kernel_stats_t\000"
 10894      656C5F73 
 10894      74617473 
 10894      5F7400
 10895              	.LASF173:
 10896 0749 74656172 		.ascii	"teardown\000"
 10896      646F776E 
 10896      00
 10897              	.LASF108:
 10898 0752 6F666673 		.ascii	"offset\000"
 10898      657400
 10899              	.LASF106:
 10900 0759 74625F62 		.ascii	"tb_buffer\000"
 10900      75666665 
 10900      7200
 10901              	.LASF192:
 10902 0763 74657374 		.ascii	"testbmk10\000"
 10902      626D6B31 
 10902      3000
 10903              	.LASF193:
 10904 076d 74657374 		.ascii	"testbmk11\000"
 10904      626D6B31 
 10904      3100
 10905              	.LASF194:
ARM GAS  C:\Users\Moi\AppData\Local\Temp\ccwG6ltn.s 			page 201


 10906 0777 74657374 		.ascii	"testbmk12\000"
 10906      626D6B31 
 10906      3200
 10907              	.LASF195:
 10908 0781 74657374 		.ascii	"testbmk13\000"
 10908      626D6B31 
 10908      3300
 10909              	.LASF46:
 10910 078b 705F7469 		.ascii	"p_time\000"
 10910      6D6500
 10911              	.LASF151:
 10912 0792 63665F6F 		.ascii	"cf_off_refs\000"
 10912      66665F72 
 10912      65667300 
 10913              	.LASF221:
 10914 079e 63684951 		.ascii	"chIQGet\000"
 10914      47657400 
 10915              	.LASF33:
 10916 07a6 74687265 		.ascii	"thread_t\000"
 10916      61645F74 
 10916      00
 10917              	.LASF2:
 10918 07af 6C6F6E67 		.ascii	"long double\000"
 10918      20646F75 
 10918      626C6500 
 10919              	.LASF55:
 10920 07bb 74687265 		.ascii	"thread_reference_t\000"
 10920      61645F72 
 10920      65666572 
 10920      656E6365 
 10920      5F7400
 10921              	.LASF52:
 10922 07ce 705F7265 		.ascii	"p_realprio\000"
 10922      616C7072 
 10922      696F00
 10923              	.LASF98:
 10924 07d9 706F7274 		.ascii	"port_intctx\000"
 10924      5F696E74 
 10924      63747800 
 10925              	.LASF153:
 10926 07e5 63665F6F 		.ascii	"cf_off_time\000"
 10926      66665F74 
 10926      696D6500 
 10927              	.LASF74:
 10928 07f1 76745F64 		.ascii	"vt_delta\000"
 10928      656C7461 
 10928      00
 10929              	.LASF71:
 10930 07fa 63685F76 		.ascii	"ch_virtual_timer\000"
 10930      69727475 
 10930      616C5F74 
 10930      696D6572 
 10930      00
 10931              	.LASF129:
 10932 080b 735F636E 		.ascii	"s_cnt\000"
 10932      7400
 10933              	.LASF212:
ARM GAS  C:\Users\Moi\AppData\Local\Temp\ccwG6ltn.s 			page 202


 10934 0811 626D6B35 		.ascii	"bmk5_execute\000"
 10934      5F657865 
 10934      63757465 
 10934      00
 10935              	.LASF91:
 10936 081e 6B65726E 		.ascii	"kernel_stats\000"
 10936      656C5F73 
 10936      74617473 
 10936      00
 10937              	.LASF15:
 10938 082b 6C6F6E67 		.ascii	"long long unsigned int\000"
 10938      206C6F6E 
 10938      6720756E 
 10938      7369676E 
 10938      65642069 
 10939              	.LASF39:
 10940 0842 705F6F6C 		.ascii	"p_older\000"
 10940      64657200 
 10941              	.LASF17:
 10942 084a 75696E74 		.ascii	"uint16_t\000"
 10942      31365F74 
 10942      00
 10943              	.LASF28:
 10944 0853 6D73675F 		.ascii	"msg_t\000"
 10944      7400
 10945              	.LASF60:
 10946 0859 63685F74 		.ascii	"ch_threads_queue\000"
 10946      68726561 
 10946      64735F71 
 10946      75657565 
 10946      00
 10947              	.LASF150:
 10948 086a 63665F6F 		.ascii	"cf_off_flags\000"
 10948      66665F66 
 10948      6C616773 
 10948      00
 10949              	.LASF26:
 10950 0877 74736C69 		.ascii	"tslices_t\000"
 10950      6365735F 
 10950      7400
 10951              	.LASF268:
 10952 0881 2E2E2F2F 		.ascii	"..//ChibiOS//test/rt/testbmk.c\000"
 10952      43686962 
 10952      694F532F 
 10952      2F746573 
 10952      742F7274 
 10953              	.LASF68:
 10954 08a0 725F6375 		.ascii	"r_current\000"
 10954      7272656E 
 10954      7400
 10955              	.LASF174:
 10956 08aa 65786563 		.ascii	"execute\000"
 10956      75746500 
 10957              	.LASF222:
 10958 08b2 63684D73 		.ascii	"chMsgGet\000"
 10958      67476574 
 10958      00
ARM GAS  C:\Users\Moi\AppData\Local\Temp\ccwG6ltn.s 			page 203


 10959              	.LASF244:
 10960 08bb 5F737461 		.ascii	"_stats_start_measure_crit_thd\000"
 10960      74735F73 
 10960      74617274 
 10960      5F6D6561 
 10960      73757265 
 10961              	.LASF176:
 10962 08d9 74657374 		.ascii	"test_global_fail\000"
 10962      5F676C6F 
 10962      62616C5F 
 10962      6661696C 
 10962      00
 10963              	.LASF245:
 10964 08ea 5F646267 		.ascii	"_dbg_check_lock\000"
 10964      5F636865 
 10964      636B5F6C 
 10964      6F636B00 
 10965              	.LASF220:
 10966 08fa 74687265 		.ascii	"thread1\000"
 10966      61643100 
 10967              	.LASF218:
 10968 0902 74687265 		.ascii	"thread2\000"
 10968      61643200 
 10969              	.LASF90:
 10970 090a 6D61696E 		.ascii	"mainthread\000"
 10970      74687265 
 10970      616400
 10971              	.LASF214:
 10972 0915 74687265 		.ascii	"thread4\000"
 10972      61643400 
 10973              	.LASF205:
 10974 091d 74687265 		.ascii	"thread8\000"
 10974      61643800 
 10975              	.LASF231:
 10976 0925 5F5F7365 		.ascii	"__set_BASEPRI\000"
 10976      745F4241 
 10976      53455052 
 10976      4900
 10977              	.LASF110:
 10978 0933 62657374 		.ascii	"best\000"
 10978      00
 10979              	.LASF63:
 10980 0938 725F7175 		.ascii	"r_queue\000"
 10980      65756500 
 10981              	.LASF160:
 10982 0940 715F7761 		.ascii	"q_waiting\000"
 10982      6974696E 
 10982      6700
 10983              	.LASF178:
 10984 094a 74687265 		.ascii	"threads\000"
 10984      61647300 
 10985              	.LASF88:
 10986 0952 726C6973 		.ascii	"rlist\000"
 10986      7400
 10987              	.LASF23:
 10988 0958 746D6F64 		.ascii	"tmode_t\000"
 10988      655F7400 
ARM GAS  C:\Users\Moi\AppData\Local\Temp\ccwG6ltn.s 			page 204


 10989              	.LASF79:
 10990 0960 76745F73 		.ascii	"vt_systime\000"
 10990      79737469 
 10990      6D6500
 10991              	.LASF67:
 10992 096b 725F6F6C 		.ascii	"r_older\000"
 10992      64657200 
 10993              	.LASF109:
 10994 0973 746D5F63 		.ascii	"tm_calibration_t\000"
 10994      616C6962 
 10994      72617469 
 10994      6F6E5F74 
 10994      00
 10995              	.LASF256:
 10996 0984 74657374 		.ascii	"test_terminate_threads\000"
 10996      5F746572 
 10996      6D696E61 
 10996      74655F74 
 10996      68726561 
 10997              	.LASF171:
 10998 099b 6E616D65 		.ascii	"name\000"
 10998      00
 10999              	.LASF229:
 11000 09a0 706F7274 		.ascii	"port_lock\000"
 11000      5F6C6F63 
 11000      6B00
 11001              	.LASF128:
 11002 09aa 735F7175 		.ascii	"s_queue\000"
 11002      65756500 
 11003              	.LASF200:
 11004 09b2 626D6B31 		.ascii	"bmk11_execute\000"
 11004      315F6578 
 11004      65637574 
 11004      6500
 11005              	.LASF7:
 11006 09c0 73686F72 		.ascii	"short int\000"
 11006      7420696E 
 11006      7400
 11007              	.LASF20:
 11008 09ca 75696E74 		.ascii	"uint64_t\000"
 11008      36345F74 
 11008      00
 11009              	.LASF130:
 11010 09d3 63685F6D 		.ascii	"ch_mutex\000"
 11010      75746578 
 11010      00
 11011              	.LASF225:
 11012 09dc 63685468 		.ascii	"chThdGetSelfX\000"
 11012      64476574 
 11012      53656C66 
 11012      5800
 11013              	.LASF64:
 11014 09ea 725F7072 		.ascii	"r_prio\000"
 11014      696F00
 11015              	.LASF170:
 11016 09f1 74657374 		.ascii	"testcase\000"
 11016      63617365 
ARM GAS  C:\Users\Moi\AppData\Local\Temp\ccwG6ltn.s 			page 205


 11016      00
 11017              	.LASF81:
 11018 09fa 63685F73 		.ascii	"ch_system_debug\000"
 11018      79737465 
 11018      6D5F6465 
 11018      62756700 
 11019              	.LASF267:
 11020 0a0a 474E5520 		.ascii	"GNU C11 7.2.1 20170904 (release) [ARM/embedded-7-br"
 11020      43313120 
 11020      372E322E 
 11020      31203230 
 11020      31373039 
 11021 0a3d 616E6368 		.ascii	"anch revision 255204] -mcpu=cortex-m4 -mfloat-abi=h"
 11021      20726576 
 11021      6973696F 
 11021      6E203235 
 11021      35323034 
 11022 0a70 61726420 		.ascii	"ard -mfpu=fpv4-sp-d16 -mno-thumb-interwork -mthumb "
 11022      2D6D6670 
 11022      753D6670 
 11022      76342D73 
 11022      702D6431 
 11023 0aa3 2D676764 		.ascii	"-ggdb -O2 -fomit-frame-pointer -falign-functions=16"
 11023      62202D4F 
 11023      32202D66 
 11023      6F6D6974 
 11023      2D667261 
 11024 0ad6 202D6673 		.ascii	" -fstack-protector-all -ffunction-sections -fdata-s"
 11024      7461636B 
 11024      2D70726F 
 11024      74656374 
 11024      6F722D61 
 11025 0b09 65637469 		.ascii	"ections -fno-common -fsingle-precision-constant\000"
 11025      6F6E7320 
 11025      2D666E6F 
 11025      2D636F6D 
 11025      6D6F6E20 
 11026              	.LASF146:
 11027 0b39 63665F6F 		.ascii	"cf_off_older\000"
 11027      66665F6F 
 11027      6C646572 
 11027      00
 11028              	.LASF158:
 11029 0b46 696F5F71 		.ascii	"io_queue_t\000"
 11029      75657565 
 11029      5F7400
 11030              	.LASF235:
 11031 0b51 74657374 		.ascii	"test_println\000"
 11031      5F707269 
 11031      6E746C6E 
 11031      00
 11032              	.LASF243:
 11033 0b5e 63685365 		.ascii	"chSemObjectInit\000"
 11033      6D4F626A 
 11033      65637449 
 11033      6E697400 
 11034              	.LASF89:
ARM GAS  C:\Users\Moi\AppData\Local\Temp\ccwG6ltn.s 			page 206


 11035 0b6e 76746C69 		.ascii	"vtlist\000"
 11035      737400
 11036              	.LASF234:
 11037 0b75 74657374 		.ascii	"test_printn\000"
 11037      5F707269 
 11037      6E746E00 
 11038              	.LASF248:
 11039 0b81 63685379 		.ascii	"chSysHalt\000"
 11039      7348616C 
 11039      7400
 11040              	.LASF157:
 11041 0b8b 6D757465 		.ascii	"mutex_t\000"
 11041      785F7400 
 11042              	.LASF25:
 11043 0b93 74726566 		.ascii	"trefs_t\000"
 11043      735F7400 
 11044              	.LASF271:
 11045 0b9b 6D73675F 		.ascii	"msg_loop_test\000"
 11045      6C6F6F70 
 11045      5F746573 
 11045      7400
 11046              	.LASF148:
 11047 0ba9 63665F6F 		.ascii	"cf_off_stklimit\000"
 11047      66665F73 
 11047      746B6C69 
 11047      6D697400 
 11048              	.LASF258:
 11049 0bb9 63685468 		.ascii	"chThdYield\000"
 11049      64596965 
 11049      6C6400
 11050              	.LASF56:
 11051 0bc4 74687265 		.ascii	"threads_list_t\000"
 11051      6164735F 
 11051      6C697374 
 11051      5F7400
 11052              	.LASF253:
 11053 0bd3 63684951 		.ascii	"chIQPutI\000"
 11053      50757449 
 11053      00
 11054              	.LASF87:
 11055 0bdc 63685F73 		.ascii	"ch_system\000"
 11055      79737465 
 11055      6D00
 11056              	.LASF210:
 11057 0be6 626D6B36 		.ascii	"bmk6_execute\000"
 11057      5F657865 
 11057      63757465 
 11057      00
 11058              	.LASF19:
 11059 0bf3 75696E74 		.ascii	"uint32_t\000"
 11059      33325F74 
 11059      00
 11060              	.LASF169:
 11061 0bfc 696E7075 		.ascii	"input_queue_t\000"
 11061      745F7175 
 11061      6575655F 
 11061      7400
ARM GAS  C:\Users\Moi\AppData\Local\Temp\ccwG6ltn.s 			page 207


 11062              	.LASF264:
 11063 0c0a 63684D73 		.ascii	"chMsgWait\000"
 11063      67576169 
 11063      7400
 11064              	.LASF120:
 11065 0c14 7264796D 		.ascii	"rdymsg\000"
 11065      736700
 11066              	.LASF9:
 11067 0c1b 73686F72 		.ascii	"short unsigned int\000"
 11067      7420756E 
 11067      7369676E 
 11067      65642069 
 11067      6E7400
 11068              	.LASF86:
 11069 0c2e 63685F73 		.ascii	"ch_system_t\000"
 11069      79737465 
 11069      6D5F7400 
 11070              	.LASF154:
 11071 0c3a 63686465 		.ascii	"chdebug_t\000"
 11071      6275675F 
 11071      7400
 11072              	.LASF185:
 11073 0c44 74657374 		.ascii	"testbmk3\000"
 11073      626D6B33 
 11073      00
 11074              	.LASF188:
 11075 0c4d 74657374 		.ascii	"testbmk6\000"
 11075      626D6B36 
 11075      00
 11076              	.LASF138:
 11077 0c56 63685F73 		.ascii	"ch_size\000"
 11077      697A6500 
 11078              	.LASF201:
 11079 0c5e 626D6B31 		.ascii	"bmk11_setup\000"
 11079      315F7365 
 11079      74757000 
 11080              	.LASF41:
 11081 0c6a 705F7374 		.ascii	"p_stklimit\000"
 11081      6B6C696D 
 11081      697400
 11082              	.LASF10:
 11083 0c75 5F5F696E 		.ascii	"__int32_t\000"
 11083      7433325F 
 11083      7400
 11084              	.LASF240:
 11085 0c7f 63684D74 		.ascii	"chMtxObjectInit\000"
 11085      784F626A 
 11085      65637449 
 11085      6E697400 
 11086              	.LASF223:
 11087 0c8f 63685468 		.ascii	"chThdShouldTerminateX\000"
 11087      6453686F 
 11087      756C6454 
 11087      65726D69 
 11087      6E617465 
 11088              	.LASF99:
 11089 0ca5 73655F74 		.ascii	"se_time\000"
ARM GAS  C:\Users\Moi\AppData\Local\Temp\ccwG6ltn.s 			page 208


 11089      696D6500 
 11090              	.LASF40:
 11091 0cad 705F6E61 		.ascii	"p_name\000"
 11091      6D6500
 11092              	.LASF133:
 11093 0cb4 6D5F6E65 		.ascii	"m_next\000"
 11093      787400
 11094              	.LASF105:
 11095 0cbb 74625F70 		.ascii	"tb_ptr\000"
 11095      747200
 11096              	.LASF156:
 11097 0cc2 73656D61 		.ascii	"semaphore_t\000"
 11097      70686F72 
 11097      655F7400 
 11098              	.LASF112:
 11099 0cce 6C617374 		.ascii	"last\000"
 11099      00
 11100              	.LASF49:
 11101 0cd3 705F6D73 		.ascii	"p_msg\000"
 11101      6700
 11102              	.LASF199:
 11103 0cd9 626D6B31 		.ascii	"bmk12_setup\000"
 11103      325F7365 
 11103      74757000 
 11104              	.LASF42:
 11105 0ce5 705F7374 		.ascii	"p_state\000"
 11105      61746500 
 11106              		.ident	"GCC: (GNU Tools for Arm Embedded Processors 7-2017-q4-major) 7.2.1 20170904 (release) [ARM
ARM GAS  C:\Users\Moi\AppData\Local\Temp\ccwG6ltn.s 			page 209


DEFINED SYMBOLS
                            *ABS*:00000000 testbmk.c
C:\Users\Moi\AppData\Local\Temp\ccwG6ltn.s:18     .text.tmo:00000000 $t
C:\Users\Moi\AppData\Local\Temp\ccwG6ltn.s:25     .text.tmo:00000000 tmo
C:\Users\Moi\AppData\Local\Temp\ccwG6ltn.s:58     .text.tmo:0000001c $d
C:\Users\Moi\AppData\Local\Temp\ccwG6ltn.s:63     .text.bmk13_execute:00000000 $t
C:\Users\Moi\AppData\Local\Temp\ccwG6ltn.s:70     .text.bmk13_execute:00000000 bmk13_execute
C:\Users\Moi\AppData\Local\Temp\ccwG6ltn.s:229    .text.bmk13_execute:000000d4 $d
C:\Users\Moi\AppData\Local\Temp\ccwG6ltn.s:245    .text.thread2:00000000 $t
C:\Users\Moi\AppData\Local\Temp\ccwG6ltn.s:252    .text.thread2:00000000 thread2
C:\Users\Moi\AppData\Local\Temp\ccwG6ltn.s:307    .text.thread2:0000002c $d
C:\Users\Moi\AppData\Local\Temp\ccwG6ltn.s:312    .text.bmk6_execute:00000000 $t
C:\Users\Moi\AppData\Local\Temp\ccwG6ltn.s:319    .text.bmk6_execute:00000000 bmk6_execute
C:\Users\Moi\AppData\Local\Temp\ccwG6ltn.s:443    .text.bmk6_execute:00000074 $d
C:\Users\Moi\AppData\Local\Temp\ccwG6ltn.s:997    .text.thread1:00000000 thread1
C:\Users\Moi\AppData\Local\Temp\ccwG6ltn.s:454    .text.msg_loop_test:00000000 $t
C:\Users\Moi\AppData\Local\Temp\ccwG6ltn.s:461    .text.msg_loop_test:00000000 msg_loop_test
C:\Users\Moi\AppData\Local\Temp\ccwG6ltn.s:532    .text.msg_loop_test:00000048 $d
C:\Users\Moi\AppData\Local\Temp\ccwG6ltn.s:538    .text.bmk1_execute:00000000 $t
C:\Users\Moi\AppData\Local\Temp\ccwG6ltn.s:545    .text.bmk1_execute:00000000 bmk1_execute
C:\Users\Moi\AppData\Local\Temp\ccwG6ltn.s:649    .text.bmk1_execute:00000064 $d
C:\Users\Moi\AppData\Local\Temp\ccwG6ltn.s:661    .text.bmk2_execute:00000000 $t
C:\Users\Moi\AppData\Local\Temp\ccwG6ltn.s:668    .text.bmk2_execute:00000000 bmk2_execute
C:\Users\Moi\AppData\Local\Temp\ccwG6ltn.s:772    .text.bmk2_execute:00000064 $d
C:\Users\Moi\AppData\Local\Temp\ccwG6ltn.s:784    .text.bmk3_execute:00000000 $t
C:\Users\Moi\AppData\Local\Temp\ccwG6ltn.s:791    .text.bmk3_execute:00000000 bmk3_execute
C:\Users\Moi\AppData\Local\Temp\ccwG6ltn.s:977    .text.bmk3_execute:000000cc $d
C:\Users\Moi\AppData\Local\Temp\ccwG6ltn.s:990    .text.thread1:00000000 $t
C:\Users\Moi\AppData\Local\Temp\ccwG6ltn.s:1036   .text.thread1:00000020 $d
C:\Users\Moi\AppData\Local\Temp\ccwG6ltn.s:1041   .text.bmk5_execute:00000000 $t
C:\Users\Moi\AppData\Local\Temp\ccwG6ltn.s:1048   .text.bmk5_execute:00000000 bmk5_execute
C:\Users\Moi\AppData\Local\Temp\ccwG6ltn.s:1173   .text.bmk5_execute:00000078 $d
C:\Users\Moi\AppData\Local\Temp\ccwG6ltn.s:1184   .text.bmk7_execute:00000000 $t
C:\Users\Moi\AppData\Local\Temp\ccwG6ltn.s:1191   .text.bmk7_execute:00000000 bmk7_execute
C:\Users\Moi\AppData\Local\Temp\ccwG6ltn.s:1409   .text.bmk7_execute:00000100 $d
C:\Users\Moi\AppData\Local\Temp\ccwG6ltn.s:1430   .text.thread3:00000000 thread3
C:\Users\Moi\AppData\Local\Temp\ccwG6ltn.s:1423   .text.thread3:00000000 $t
C:\Users\Moi\AppData\Local\Temp\ccwG6ltn.s:1508   .text.thread3:00000038 $d
C:\Users\Moi\AppData\Local\Temp\ccwG6ltn.s:1515   .text.bmk7_setup:00000000 $t
C:\Users\Moi\AppData\Local\Temp\ccwG6ltn.s:1522   .text.bmk7_setup:00000000 bmk7_setup
C:\Users\Moi\AppData\Local\Temp\ccwG6ltn.s:1562   .text.bmk7_setup:00000024 $d
C:\Users\Moi\AppData\Local\Temp\ccwG6ltn.s:1568   .text.bmk11_setup:00000000 $t
C:\Users\Moi\AppData\Local\Temp\ccwG6ltn.s:1575   .text.bmk11_setup:00000000 bmk11_setup
C:\Users\Moi\AppData\Local\Temp\ccwG6ltn.s:1615   .text.bmk11_setup:00000024 $d
C:\Users\Moi\AppData\Local\Temp\ccwG6ltn.s:1621   .text.bmk8_execute:00000000 $t
C:\Users\Moi\AppData\Local\Temp\ccwG6ltn.s:1628   .text.bmk8_execute:00000000 bmk8_execute
C:\Users\Moi\AppData\Local\Temp\ccwG6ltn.s:1802   .text.bmk8_execute:000000d0 $d
C:\Users\Moi\AppData\Local\Temp\ccwG6ltn.s:1820   .text.thread8:00000000 thread8
C:\Users\Moi\AppData\Local\Temp\ccwG6ltn.s:1813   .text.thread8:00000000 $t
C:\Users\Moi\AppData\Local\Temp\ccwG6ltn.s:1888   .text.thread8:00000040 $d
C:\Users\Moi\AppData\Local\Temp\ccwG6ltn.s:1894   .text.bmk11_execute:00000000 $t
C:\Users\Moi\AppData\Local\Temp\ccwG6ltn.s:1901   .text.bmk11_execute:00000000 bmk11_execute
C:\Users\Moi\AppData\Local\Temp\ccwG6ltn.s:2012   .text.bmk11_execute:00000078 $d
C:\Users\Moi\AppData\Local\Temp\ccwG6ltn.s:2021   .text.bmk12_execute:00000000 $t
C:\Users\Moi\AppData\Local\Temp\ccwG6ltn.s:2028   .text.bmk12_execute:00000000 bmk12_execute
C:\Users\Moi\AppData\Local\Temp\ccwG6ltn.s:2139   .text.bmk12_execute:00000078 $d
C:\Users\Moi\AppData\Local\Temp\ccwG6ltn.s:2148   .text.bmk12_setup:00000000 $t
ARM GAS  C:\Users\Moi\AppData\Local\Temp\ccwG6ltn.s 			page 210


C:\Users\Moi\AppData\Local\Temp\ccwG6ltn.s:2155   .text.bmk12_setup:00000000 bmk12_setup
C:\Users\Moi\AppData\Local\Temp\ccwG6ltn.s:2194   .text.bmk12_setup:00000024 $d
C:\Users\Moi\AppData\Local\Temp\ccwG6ltn.s:2200   .text.bmk10_execute:00000000 $t
C:\Users\Moi\AppData\Local\Temp\ccwG6ltn.s:2207   .text.bmk10_execute:00000000 bmk10_execute
C:\Users\Moi\AppData\Local\Temp\ccwG6ltn.s:2390   .text.bmk10_execute:000000b4 $d
C:\Users\Moi\AppData\Local\Temp\ccwG6ltn.s:2403   .text.bmk9_execute:00000000 $t
C:\Users\Moi\AppData\Local\Temp\ccwG6ltn.s:2410   .text.bmk9_execute:00000000 bmk9_execute
C:\Users\Moi\AppData\Local\Temp\ccwG6ltn.s:2624   .text.bmk9_execute:000000e0 $d
C:\Users\Moi\AppData\Local\Temp\ccwG6ltn.s:2636   .text.bmk4_execute:00000000 $t
C:\Users\Moi\AppData\Local\Temp\ccwG6ltn.s:2643   .text.bmk4_execute:00000000 bmk4_execute
C:\Users\Moi\AppData\Local\Temp\ccwG6ltn.s:2936   .text.bmk4_execute:00000108 $d
C:\Users\Moi\AppData\Local\Temp\ccwG6ltn.s:2956   .text.thread4:00000000 thread4
C:\Users\Moi\AppData\Local\Temp\ccwG6ltn.s:2949   .text.thread4:00000000 $t
C:\Users\Moi\AppData\Local\Temp\ccwG6ltn.s:3088   .text.thread4:00000060 $d
C:\Users\Moi\AppData\Local\Temp\ccwG6ltn.s:3229   .rodata.patternbmk:00000000 patternbmk
C:\Users\Moi\AppData\Local\Temp\ccwG6ltn.s:3322   .rodata.testbmk13:00000000 testbmk13
C:\Users\Moi\AppData\Local\Temp\ccwG6ltn.s:3313   .rodata.testbmk12:00000000 testbmk12
C:\Users\Moi\AppData\Local\Temp\ccwG6ltn.s:3304   .rodata.testbmk11:00000000 testbmk11
C:\Users\Moi\AppData\Local\Temp\ccwG6ltn.s:3295   .rodata.testbmk10:00000000 testbmk10
C:\Users\Moi\AppData\Local\Temp\ccwG6ltn.s:3394   .rodata.testbmk9:00000000 testbmk9
C:\Users\Moi\AppData\Local\Temp\ccwG6ltn.s:3385   .rodata.testbmk8:00000000 testbmk8
C:\Users\Moi\AppData\Local\Temp\ccwG6ltn.s:3376   .rodata.testbmk7:00000000 testbmk7
C:\Users\Moi\AppData\Local\Temp\ccwG6ltn.s:3367   .rodata.testbmk6:00000000 testbmk6
C:\Users\Moi\AppData\Local\Temp\ccwG6ltn.s:3358   .rodata.testbmk5:00000000 testbmk5
C:\Users\Moi\AppData\Local\Temp\ccwG6ltn.s:3349   .rodata.testbmk4:00000000 testbmk4
C:\Users\Moi\AppData\Local\Temp\ccwG6ltn.s:3340   .rodata.testbmk3:00000000 testbmk3
C:\Users\Moi\AppData\Local\Temp\ccwG6ltn.s:3331   .rodata.testbmk2:00000000 testbmk2
C:\Users\Moi\AppData\Local\Temp\ccwG6ltn.s:3286   .rodata.testbmk1:00000000 testbmk1
C:\Users\Moi\AppData\Local\Temp\ccwG6ltn.s:3109   .bss.ib.7996:00000000 $d
C:\Users\Moi\AppData\Local\Temp\ccwG6ltn.s:3113   .bss.ib.7996:00000000 ib.7996
C:\Users\Moi\AppData\Local\Temp\ccwG6ltn.s:3116   .bss.iq.7997:00000000 $d
C:\Users\Moi\AppData\Local\Temp\ccwG6ltn.s:3120   .bss.iq.7997:00000000 iq.7997
C:\Users\Moi\AppData\Local\Temp\ccwG6ltn.s:3123   .bss.mtx1:00000000 $d
C:\Users\Moi\AppData\Local\Temp\ccwG6ltn.s:3127   .bss.mtx1:00000000 mtx1
C:\Users\Moi\AppData\Local\Temp\ccwG6ltn.s:3130   .bss.sem1:00000000 $d
C:\Users\Moi\AppData\Local\Temp\ccwG6ltn.s:3134   .bss.sem1:00000000 sem1
C:\Users\Moi\AppData\Local\Temp\ccwG6ltn.s:3137   .bss.vt1.8007:00000000 $d
C:\Users\Moi\AppData\Local\Temp\ccwG6ltn.s:3141   .bss.vt1.8007:00000000 vt1.8007
C:\Users\Moi\AppData\Local\Temp\ccwG6ltn.s:3144   .bss.vt2.8008:00000000 $d
C:\Users\Moi\AppData\Local\Temp\ccwG6ltn.s:3148   .bss.vt2.8008:00000000 vt2.8008
C:\Users\Moi\AppData\Local\Temp\ccwG6ltn.s:3151   .rodata.__func__.7153:00000000 $d
C:\Users\Moi\AppData\Local\Temp\ccwG6ltn.s:3155   .rodata.__func__.7153:00000000 __func__.7153
C:\Users\Moi\AppData\Local\Temp\ccwG6ltn.s:3158   .rodata.bmk10_execute.str1.4:00000000 $d
C:\Users\Moi\AppData\Local\Temp\ccwG6ltn.s:3162   .rodata.bmk11_execute.str1.4:00000000 $d
C:\Users\Moi\AppData\Local\Temp\ccwG6ltn.s:3166   .rodata.bmk12_execute.str1.4:00000000 $d
C:\Users\Moi\AppData\Local\Temp\ccwG6ltn.s:3170   .rodata.bmk13_execute.str1.4:00000000 $d
C:\Users\Moi\AppData\Local\Temp\ccwG6ltn.s:3204   .rodata.bmk1_execute.str1.4:00000000 $d
C:\Users\Moi\AppData\Local\Temp\ccwG6ltn.s:3211   .rodata.bmk6_execute.str1.4:00000000 $d
C:\Users\Moi\AppData\Local\Temp\ccwG6ltn.s:3218   .rodata.bmk7_execute.str1.4:00000000 $d
C:\Users\Moi\AppData\Local\Temp\ccwG6ltn.s:3222   .rodata.bmk9_execute.str1.4:00000000 $d
C:\Users\Moi\AppData\Local\Temp\ccwG6ltn.s:3226   .rodata.patternbmk:00000000 $d
C:\Users\Moi\AppData\Local\Temp\ccwG6ltn.s:3245   .rodata.str1.4:00000000 $d
C:\Users\Moi\AppData\Local\Temp\ccwG6ltn.s:3283   .rodata.testbmk1:00000000 $d
C:\Users\Moi\AppData\Local\Temp\ccwG6ltn.s:3292   .rodata.testbmk10:00000000 $d
C:\Users\Moi\AppData\Local\Temp\ccwG6ltn.s:3301   .rodata.testbmk11:00000000 $d
C:\Users\Moi\AppData\Local\Temp\ccwG6ltn.s:3310   .rodata.testbmk12:00000000 $d
C:\Users\Moi\AppData\Local\Temp\ccwG6ltn.s:3319   .rodata.testbmk13:00000000 $d
ARM GAS  C:\Users\Moi\AppData\Local\Temp\ccwG6ltn.s 			page 211


C:\Users\Moi\AppData\Local\Temp\ccwG6ltn.s:3328   .rodata.testbmk2:00000000 $d
C:\Users\Moi\AppData\Local\Temp\ccwG6ltn.s:3337   .rodata.testbmk3:00000000 $d
C:\Users\Moi\AppData\Local\Temp\ccwG6ltn.s:3346   .rodata.testbmk4:00000000 $d
C:\Users\Moi\AppData\Local\Temp\ccwG6ltn.s:3355   .rodata.testbmk5:00000000 $d
C:\Users\Moi\AppData\Local\Temp\ccwG6ltn.s:3364   .rodata.testbmk6:00000000 $d
C:\Users\Moi\AppData\Local\Temp\ccwG6ltn.s:3373   .rodata.testbmk7:00000000 $d
C:\Users\Moi\AppData\Local\Temp\ccwG6ltn.s:3382   .rodata.testbmk8:00000000 $d
C:\Users\Moi\AppData\Local\Temp\ccwG6ltn.s:3391   .rodata.testbmk9:00000000 $d

UNDEFINED SYMBOLS
__stack_chk_fail
__stack_chk_guard
test_print
test_printn
test_println
chMsgWait
chMsgRelease
test_wait_tick
test_start_timer
chThdCreateStatic
ch
wa
test_timer_done
chMsgSend
test_wait_threads
threads
chThdExit
chThdWait
chSemReset
test_terminate_threads
chSemWait
chSemObjectInit
chThdSleep
chThdYield
chSemSignal
chMtxLock
chMtxUnlock
chMtxObjectInit
_stats_start_measure_crit_thd
_dbg_check_lock
chVTDoSetI
chVTDoResetI
_dbg_check_unlock
_stats_stop_measure_crit_thd
chSysHalt
chIQObjectInit
chIQPutI
chIQGetTimeout
chSchWakeupS
chSchGoSleepS
