ARM GAS  C:\Users\Moi\AppData\Local\Temp\cchSO4ph.s 			page 1


   1              		.cpu cortex-m4
   2              		.eabi_attribute 27, 1
   3              		.eabi_attribute 28, 1
   4              		.eabi_attribute 20, 1
   5              		.eabi_attribute 21, 1
   6              		.eabi_attribute 23, 3
   7              		.eabi_attribute 24, 1
   8              		.eabi_attribute 25, 1
   9              		.eabi_attribute 26, 1
  10              		.eabi_attribute 30, 2
  11              		.eabi_attribute 34, 1
  12              		.eabi_attribute 18, 4
  13              		.file	"testthd.c"
  14              		.text
  15              	.Ltext0:
  16              		.cfi_sections	.debug_frame
  17              		.section	.text.thd1_execute,"ax",%progbits
  18              		.align	1
  19              		.p2align 4,,15
  20              		.syntax unified
  21              		.thumb
  22              		.thumb_func
  23              		.fpu fpv4-sp-d16
  24              		.type	thd1_execute, %function
  25              	thd1_execute:
  26              	.LFB220:
  27              		.file 1 "..//ChibiOS//test/rt/testthd.c"
  28              		.loc 1 65 0
  29              		.cfi_startproc
  30              		@ args = 0, pretend = 0, frame = 8
  31              		@ frame_needed = 0, uses_anonymous_args = 0
  32 0000 F0B5     		push	{r4, r5, r6, r7, lr}
  33              		.cfi_def_cfa_offset 20
  34              		.cfi_offset 4, -20
  35              		.cfi_offset 5, -16
  36              		.cfi_offset 6, -12
  37              		.cfi_offset 7, -8
  38              		.cfi_offset 14, -4
  39              	.LBB180:
  40              	.LBB181:
  41              	.LBB182:
  42              	.LBB183:
  43              		.file 2 "..//ChibiOS//os/rt/include/chthreads.h"
  44              		.loc 2 176 0
  45 0002 2B4E     		ldr	r6, .L7
  46              	.LBE183:
  47              	.LBE182:
  48              	.LBE181:
  49              	.LBE180:
  50              		.loc 1 65 0
  51 0004 2B4F     		ldr	r7, .L7+4
  52              	.LBB185:
  53              	.LBB184:
  54              		.loc 2 189 0
  55 0006 B369     		ldr	r3, [r6, #24]
  56              	.LBE184:
  57              	.LBE185:
ARM GAS  C:\Users\Moi\AppData\Local\Temp\cchSO4ph.s 			page 2


  58              		.loc 1 67 0
  59 0008 2B4D     		ldr	r5, .L7+8
  60 000a 9A68     		ldr	r2, [r3, #8]
  61              		.loc 1 65 0
  62 000c 3968     		ldr	r1, [r7]
  63              		.loc 1 67 0
  64 000e 2B4B     		ldr	r3, .L7+12
  65 0010 2868     		ldr	r0, [r5]
  66 0012 2B4C     		ldr	r4, .L7+16
  67              		.loc 1 65 0
  68 0014 85B0     		sub	sp, sp, #20
  69              		.cfi_def_cfa_offset 40
  70              		.loc 1 67 0
  71 0016 053A     		subs	r2, r2, #5
  72 0018 0093     		str	r3, [sp]
  73              		.loc 1 65 0
  74 001a 0391     		str	r1, [sp, #12]
  75              		.loc 1 67 0
  76 001c 294B     		ldr	r3, .L7+20
  77 001e 4FF4FC71 		mov	r1, #504
  78 0022 FFF7FEFF 		bl	chThdCreateStatic
  79              	.LVL0:
  80              	.LBB186:
  81              	.LBB187:
  82              		.loc 2 189 0
  83 0026 B369     		ldr	r3, [r6, #24]
  84              	.LBE187:
  85              	.LBE186:
  86              		.loc 1 68 0
  87 0028 6968     		ldr	r1, [r5, #4]
  88 002a 9A68     		ldr	r2, [r3, #8]
  89 002c 264B     		ldr	r3, .L7+24
  90              		.loc 1 67 0
  91 002e 2060     		str	r0, [r4]
  92              		.loc 1 68 0
  93 0030 043A     		subs	r2, r2, #4
  94 0032 0846     		mov	r0, r1
  95 0034 0093     		str	r3, [sp]
  96 0036 4FF4FC71 		mov	r1, #504
  97 003a 224B     		ldr	r3, .L7+20
  98 003c FFF7FEFF 		bl	chThdCreateStatic
  99              	.LVL1:
 100              	.LBB188:
 101              	.LBB189:
 102              		.loc 2 189 0
 103 0040 B369     		ldr	r3, [r6, #24]
 104              	.LBE189:
 105              	.LBE188:
 106              		.loc 1 69 0
 107 0042 A968     		ldr	r1, [r5, #8]
 108 0044 9A68     		ldr	r2, [r3, #8]
 109 0046 214B     		ldr	r3, .L7+28
 110              		.loc 1 68 0
 111 0048 6060     		str	r0, [r4, #4]
 112              		.loc 1 69 0
 113 004a 033A     		subs	r2, r2, #3
 114 004c 0846     		mov	r0, r1
ARM GAS  C:\Users\Moi\AppData\Local\Temp\cchSO4ph.s 			page 3


 115 004e 0093     		str	r3, [sp]
 116 0050 4FF4FC71 		mov	r1, #504
 117 0054 1B4B     		ldr	r3, .L7+20
 118 0056 FFF7FEFF 		bl	chThdCreateStatic
 119              	.LVL2:
 120              	.LBB190:
 121              	.LBB191:
 122              		.loc 2 189 0
 123 005a B369     		ldr	r3, [r6, #24]
 124              	.LBE191:
 125              	.LBE190:
 126              		.loc 1 70 0
 127 005c E968     		ldr	r1, [r5, #12]
 128 005e 9A68     		ldr	r2, [r3, #8]
 129 0060 1B4B     		ldr	r3, .L7+32
 130              		.loc 1 69 0
 131 0062 A060     		str	r0, [r4, #8]
 132              		.loc 1 70 0
 133 0064 023A     		subs	r2, r2, #2
 134 0066 0846     		mov	r0, r1
 135 0068 0093     		str	r3, [sp]
 136 006a 4FF4FC71 		mov	r1, #504
 137 006e 154B     		ldr	r3, .L7+20
 138 0070 FFF7FEFF 		bl	chThdCreateStatic
 139              	.LVL3:
 140              	.LBB192:
 141              	.LBB193:
 142              		.loc 2 189 0
 143 0074 B369     		ldr	r3, [r6, #24]
 144              	.LBE193:
 145              	.LBE192:
 146              		.loc 1 71 0
 147 0076 2969     		ldr	r1, [r5, #16]
 148 0078 9A68     		ldr	r2, [r3, #8]
 149 007a 164B     		ldr	r3, .L7+36
 150              		.loc 1 70 0
 151 007c E060     		str	r0, [r4, #12]
 152              		.loc 1 71 0
 153 007e 013A     		subs	r2, r2, #1
 154 0080 0846     		mov	r0, r1
 155 0082 0093     		str	r3, [sp]
 156 0084 4FF4FC71 		mov	r1, #504
 157 0088 0E4B     		ldr	r3, .L7+20
 158 008a FFF7FEFF 		bl	chThdCreateStatic
 159              	.LVL4:
 160 008e 2061     		str	r0, [r4, #16]
 161              		.loc 1 72 0
 162 0090 FFF7FEFF 		bl	test_wait_threads
 163              	.LVL5:
 164              		.loc 1 73 0
 165 0094 039A     		ldr	r2, [sp, #12]
 166 0096 3B68     		ldr	r3, [r7]
 167 0098 9A42     		cmp	r2, r3
 168 009a 06D1     		bne	.L6
 169 009c 0E49     		ldr	r1, .L7+40
 170 009e 0120     		movs	r0, #1
 171              		.loc 1 74 0
ARM GAS  C:\Users\Moi\AppData\Local\Temp\cchSO4ph.s 			page 4


 172 00a0 05B0     		add	sp, sp, #20
 173              		.cfi_remember_state
 174              		.cfi_def_cfa_offset 20
 175              		@ sp needed
 176 00a2 BDE8F040 		pop	{r4, r5, r6, r7, lr}
 177              		.cfi_restore 14
 178              		.cfi_restore 7
 179              		.cfi_restore 6
 180              		.cfi_restore 5
 181              		.cfi_restore 4
 182              		.cfi_def_cfa_offset 0
 183              		.loc 1 73 0
 184 00a6 FFF7FEBF 		b	_test_assert_sequence
 185              	.LVL6:
 186              	.L6:
 187              		.cfi_restore_state
 188 00aa FFF7FEFF 		bl	__stack_chk_fail
 189              	.LVL7:
 190              	.L8:
 191 00ae 00BF     		.align	2
 192              	.L7:
 193 00b0 00000000 		.word	ch
 194 00b4 00000000 		.word	__stack_chk_guard
 195 00b8 00000000 		.word	wa
 196 00bc 00000000 		.word	.LC0
 197 00c0 00000000 		.word	threads
 198 00c4 00000000 		.word	thread
 199 00c8 04000000 		.word	.LC1
 200 00cc 08000000 		.word	.LC2
 201 00d0 0C000000 		.word	.LC3
 202 00d4 10000000 		.word	.LC4
 203 00d8 14000000 		.word	.LC5
 204              		.cfi_endproc
 205              	.LFE220:
 206              		.size	thd1_execute, .-thd1_execute
 207              		.section	.text.thread,"ax",%progbits
 208              		.align	1
 209              		.p2align 4,,15
 210              		.syntax unified
 211              		.thumb
 212              		.thumb_func
 213              		.fpu fpv4-sp-d16
 214              		.type	thread, %function
 215              	thread:
 216              	.LFB219:
 217              		.loc 1 60 0
 218              		.cfi_startproc
 219              		@ args = 0, pretend = 0, frame = 8
 220              		@ frame_needed = 0, uses_anonymous_args = 0
 221              	.LVL8:
 222 0000 00B5     		push	{lr}
 223              		.cfi_def_cfa_offset 4
 224              		.cfi_offset 14, -4
 225 0002 084B     		ldr	r3, .L14
 226 0004 83B0     		sub	sp, sp, #12
 227              		.cfi_def_cfa_offset 16
 228              		.loc 1 60 0
ARM GAS  C:\Users\Moi\AppData\Local\Temp\cchSO4ph.s 			page 5


 229 0006 1A68     		ldr	r2, [r3]
 230 0008 0192     		str	r2, [sp, #4]
 231              		.loc 1 62 0
 232 000a 019A     		ldr	r2, [sp, #4]
 233 000c 1B68     		ldr	r3, [r3]
 234 000e 9A42     		cmp	r2, r3
 235 0010 05D1     		bne	.L13
 236 0012 0078     		ldrb	r0, [r0]	@ zero_extendqisi2
 237              	.LVL9:
 238              		.loc 1 63 0
 239 0014 03B0     		add	sp, sp, #12
 240              		.cfi_remember_state
 241              		.cfi_def_cfa_offset 4
 242              		@ sp needed
 243 0016 5DF804EB 		ldr	lr, [sp], #4
 244              		.cfi_restore 14
 245              		.cfi_def_cfa_offset 0
 246              		.loc 1 62 0
 247 001a FFF7FEBF 		b	test_emit_token
 248              	.LVL10:
 249              	.L13:
 250              		.cfi_restore_state
 251 001e FFF7FEFF 		bl	__stack_chk_fail
 252              	.LVL11:
 253              	.L15:
 254 0022 00BF     		.align	2
 255              	.L14:
 256 0024 00000000 		.word	__stack_chk_guard
 257              		.cfi_endproc
 258              	.LFE219:
 259              		.size	thread, .-thread
 260              		.section	.text.thd2_execute,"ax",%progbits
 261              		.align	1
 262              		.p2align 4,,15
 263              		.syntax unified
 264              		.thumb
 265              		.thumb_func
 266              		.fpu fpv4-sp-d16
 267              		.type	thd2_execute, %function
 268              	thd2_execute:
 269              	.LFB221:
 270              		.loc 1 93 0
 271              		.cfi_startproc
 272              		@ args = 0, pretend = 0, frame = 8
 273              		@ frame_needed = 0, uses_anonymous_args = 0
 274 0000 F0B5     		push	{r4, r5, r6, r7, lr}
 275              		.cfi_def_cfa_offset 20
 276              		.cfi_offset 4, -20
 277              		.cfi_offset 5, -16
 278              		.cfi_offset 6, -12
 279              		.cfi_offset 7, -8
 280              		.cfi_offset 14, -4
 281              	.LBB224:
 282              	.LBB225:
 283              	.LBB226:
 284              	.LBB227:
 285              		.loc 2 176 0
ARM GAS  C:\Users\Moi\AppData\Local\Temp\cchSO4ph.s 			page 6


 286 0002 394C     		ldr	r4, .L23
 287              	.LBE227:
 288              	.LBE226:
 289              	.LBE225:
 290              	.LBE224:
 291              		.loc 1 93 0
 292 0004 394F     		ldr	r7, .L23+4
 293              	.LBB229:
 294              	.LBB228:
 295              		.loc 2 189 0
 296 0006 A369     		ldr	r3, [r4, #24]
 297              	.LBE228:
 298              	.LBE229:
 299              		.loc 1 95 0
 300 0008 394E     		ldr	r6, .L23+8
 301 000a 9A68     		ldr	r2, [r3, #8]
 302              		.loc 1 93 0
 303 000c 3968     		ldr	r1, [r7]
 304              		.loc 1 95 0
 305 000e 394B     		ldr	r3, .L23+12
 306 0010 7068     		ldr	r0, [r6, #4]
 307 0012 394D     		ldr	r5, .L23+16
 308              		.loc 1 93 0
 309 0014 85B0     		sub	sp, sp, #20
 310              		.cfi_def_cfa_offset 40
 311              		.loc 1 95 0
 312 0016 043A     		subs	r2, r2, #4
 313 0018 0093     		str	r3, [sp]
 314              		.loc 1 93 0
 315 001a 0391     		str	r1, [sp, #12]
 316              		.loc 1 95 0
 317 001c 374B     		ldr	r3, .L23+20
 318 001e 4FF4FC71 		mov	r1, #504
 319 0022 FFF7FEFF 		bl	chThdCreateStatic
 320              	.LVL12:
 321              	.LBB230:
 322              	.LBB231:
 323              		.loc 2 189 0
 324 0026 A369     		ldr	r3, [r4, #24]
 325              	.LBE231:
 326              	.LBE230:
 327              		.loc 1 96 0
 328 0028 3168     		ldr	r1, [r6]
 329 002a 9A68     		ldr	r2, [r3, #8]
 330 002c 344B     		ldr	r3, .L23+24
 331              		.loc 1 95 0
 332 002e 6860     		str	r0, [r5, #4]
 333              		.loc 1 96 0
 334 0030 0093     		str	r3, [sp]
 335 0032 053A     		subs	r2, r2, #5
 336 0034 0846     		mov	r0, r1
 337 0036 314B     		ldr	r3, .L23+20
 338 0038 4FF4FC71 		mov	r1, #504
 339 003c FFF7FEFF 		bl	chThdCreateStatic
 340              	.LVL13:
 341              	.LBB232:
 342              	.LBB233:
ARM GAS  C:\Users\Moi\AppData\Local\Temp\cchSO4ph.s 			page 7


 343              		.loc 2 189 0
 344 0040 A369     		ldr	r3, [r4, #24]
 345              	.LBE233:
 346              	.LBE232:
 347              		.loc 1 97 0
 348 0042 3169     		ldr	r1, [r6, #16]
 349 0044 9A68     		ldr	r2, [r3, #8]
 350 0046 2F4B     		ldr	r3, .L23+28
 351              		.loc 1 96 0
 352 0048 2860     		str	r0, [r5]
 353              		.loc 1 97 0
 354 004a 0093     		str	r3, [sp]
 355 004c 013A     		subs	r2, r2, #1
 356 004e 0846     		mov	r0, r1
 357 0050 2A4B     		ldr	r3, .L23+20
 358 0052 4FF4FC71 		mov	r1, #504
 359 0056 FFF7FEFF 		bl	chThdCreateStatic
 360              	.LVL14:
 361              	.LBB234:
 362              	.LBB235:
 363              		.loc 2 189 0
 364 005a A369     		ldr	r3, [r4, #24]
 365              	.LBE235:
 366              	.LBE234:
 367              		.loc 1 98 0
 368 005c F168     		ldr	r1, [r6, #12]
 369 005e 9A68     		ldr	r2, [r3, #8]
 370 0060 294B     		ldr	r3, .L23+32
 371              		.loc 1 97 0
 372 0062 2861     		str	r0, [r5, #16]
 373              		.loc 1 98 0
 374 0064 0093     		str	r3, [sp]
 375 0066 023A     		subs	r2, r2, #2
 376 0068 0846     		mov	r0, r1
 377 006a 244B     		ldr	r3, .L23+20
 378 006c 4FF4FC71 		mov	r1, #504
 379 0070 FFF7FEFF 		bl	chThdCreateStatic
 380              	.LVL15:
 381              	.LBB236:
 382              	.LBB237:
 383              	.LBB238:
 384              	.LBB239:
 385              	.LBB240:
 386              		.file 3 "..//ChibiOS//os/ext/CMSIS/include/core_cmFunc.h"
 387              		.loc 3 546 0
 388 0074 2023     		movs	r3, #32
 389              	.LBE240:
 390              	.LBE239:
 391              	.LBE238:
 392              	.LBE237:
 393              	.LBE236:
 394              		.loc 1 98 0
 395 0076 E860     		str	r0, [r5, #12]
 396              	.LVL16:
 397              	.LBB245:
 398              	.LBB244:
 399              	.LBB243:
ARM GAS  C:\Users\Moi\AppData\Local\Temp\cchSO4ph.s 			page 8


 400              	.LBB242:
 401              	.LBB241:
 402              		.loc 3 546 0
 403              		.syntax unified
 404              	@ 546 "..//ChibiOS//os/ext/CMSIS/include/core_cmFunc.h" 1
 405 0078 83F31188 		MSR basepri, r3
 406              	@ 0 "" 2
 407              	.LVL17:
 408              		.thumb
 409              		.syntax unified
 410              	.LBE241:
 411              	.LBE242:
 412              	.LBE243:
 413              		.file 4 "..//ChibiOS//os/rt/include/chsys.h"
 414              		.loc 4 349 0
 415 007c FFF7FEFF 		bl	_stats_start_measure_crit_thd
 416              	.LVL18:
 417              		.loc 4 350 0
 418 0080 FFF7FEFF 		bl	_dbg_check_lock
 419              	.LVL19:
 420              	.LBE244:
 421              	.LBE245:
 422              	.LBB246:
 423              	.LBB247:
 424              		.loc 2 189 0
 425 0084 A369     		ldr	r3, [r4, #24]
 426              	.LBE247:
 427              	.LBE246:
 428              		.loc 1 101 0
 429 0086 B068     		ldr	r0, [r6, #8]
 430 0088 9A68     		ldr	r2, [r3, #8]
 431 008a 204B     		ldr	r3, .L23+36
 432 008c 0093     		str	r3, [sp]
 433 008e 033A     		subs	r2, r2, #3
 434 0090 1A4B     		ldr	r3, .L23+20
 435 0092 4FF4FC71 		mov	r1, #504
 436 0096 FFF7FEFF 		bl	chThdCreateI
 437              	.LVL20:
 438 009a A860     		str	r0, [r5, #8]
 439              	.LBB248:
 440              	.LBB249:
 441              		.loc 4 360 0
 442 009c FFF7FEFF 		bl	_dbg_check_unlock
 443              	.LVL21:
 444              		.loc 4 361 0
 445 00a0 FFF7FEFF 		bl	_stats_stop_measure_crit_thd
 446              	.LVL22:
 447              		.loc 4 367 0
 448 00a4 2368     		ldr	r3, [r4]
 449 00a6 A342     		cmp	r3, r4
 450 00a8 04D0     		beq	.L17
 451 00aa A269     		ldr	r2, [r4, #24]
 452 00ac 9B68     		ldr	r3, [r3, #8]
 453 00ae 9268     		ldr	r2, [r2, #8]
 454 00b0 9A42     		cmp	r2, r3
 455 00b2 12D3     		bcc	.L21
 456              	.L17:
ARM GAS  C:\Users\Moi\AppData\Local\Temp\cchSO4ph.s 			page 9


 457              	.LVL23:
 458              	.LBB250:
 459              	.LBB251:
 460              	.LBB252:
 461              		.loc 3 546 0
 462 00b4 0023     		movs	r3, #0
 463              		.syntax unified
 464              	@ 546 "..//ChibiOS//os/ext/CMSIS/include/core_cmFunc.h" 1
 465 00b6 83F31188 		MSR basepri, r3
 466              	@ 0 "" 2
 467              	.LVL24:
 468              		.thumb
 469              		.syntax unified
 470              	.LBE252:
 471              	.LBE251:
 472              	.LBE250:
 473              	.LBE249:
 474              	.LBE248:
 475              		.loc 1 103 0
 476 00ba A868     		ldr	r0, [r5, #8]
 477 00bc FFF7FEFF 		bl	chThdStart
 478              	.LVL25:
 479              		.loc 1 104 0
 480 00c0 FFF7FEFF 		bl	test_wait_threads
 481              	.LVL26:
 482              		.loc 1 105 0
 483 00c4 039A     		ldr	r2, [sp, #12]
 484 00c6 3B68     		ldr	r3, [r7]
 485 00c8 9A42     		cmp	r2, r3
 486 00ca 0AD1     		bne	.L22
 487 00cc 1049     		ldr	r1, .L23+40
 488 00ce 0120     		movs	r0, #1
 489              		.loc 1 106 0
 490 00d0 05B0     		add	sp, sp, #20
 491              		.cfi_remember_state
 492              		.cfi_def_cfa_offset 20
 493              		@ sp needed
 494 00d2 BDE8F040 		pop	{r4, r5, r6, r7, lr}
 495              		.cfi_restore 14
 496              		.cfi_restore 7
 497              		.cfi_restore 6
 498              		.cfi_restore 5
 499              		.cfi_restore 4
 500              		.cfi_def_cfa_offset 0
 501              		.loc 1 105 0
 502 00d6 FFF7FEBF 		b	_test_assert_sequence
 503              	.LVL27:
 504              	.L21:
 505              		.cfi_restore_state
 506              	.LBB254:
 507              	.LBB253:
 508              		.loc 4 367 0
 509 00da 0E48     		ldr	r0, .L23+44
 510 00dc FFF7FEFF 		bl	chSysHalt
 511              	.LVL28:
 512 00e0 E8E7     		b	.L17
 513              	.L22:
ARM GAS  C:\Users\Moi\AppData\Local\Temp\cchSO4ph.s 			page 10


 514              	.LBE253:
 515              	.LBE254:
 516              		.loc 1 105 0
 517 00e2 FFF7FEFF 		bl	__stack_chk_fail
 518              	.LVL29:
 519              	.L24:
 520 00e6 00BF     		.align	2
 521              	.L23:
 522 00e8 00000000 		.word	ch
 523 00ec 00000000 		.word	__stack_chk_guard
 524 00f0 00000000 		.word	wa
 525 00f4 04000000 		.word	.LC1
 526 00f8 00000000 		.word	threads
 527 00fc 00000000 		.word	thread
 528 0100 00000000 		.word	.LC0
 529 0104 10000000 		.word	.LC4
 530 0108 0C000000 		.word	.LC3
 531 010c 08000000 		.word	.LC2
 532 0110 14000000 		.word	.LC5
 533 0114 00000000 		.word	.LANCHOR0
 534              		.cfi_endproc
 535              	.LFE221:
 536              		.size	thd2_execute, .-thd2_execute
 537              		.section	.text.thd4_execute,"ax",%progbits
 538              		.align	1
 539              		.p2align 4,,15
 540              		.syntax unified
 541              		.thumb
 542              		.thumb_func
 543              		.fpu fpv4-sp-d16
 544              		.type	thd4_execute, %function
 545              	thd4_execute:
 546              	.LFB223:
 547              		.loc 1 188 0
 548              		.cfi_startproc
 549              		@ args = 0, pretend = 0, frame = 8
 550              		@ frame_needed = 0, uses_anonymous_args = 0
 551 0000 70B5     		push	{r4, r5, r6, lr}
 552              		.cfi_def_cfa_offset 16
 553              		.cfi_offset 4, -16
 554              		.cfi_offset 5, -12
 555              		.cfi_offset 6, -8
 556              		.cfi_offset 14, -4
 557 0002 574E     		ldr	r6, .L40
 558 0004 82B0     		sub	sp, sp, #8
 559              		.cfi_def_cfa_offset 24
 560              		.loc 1 188 0
 561 0006 3368     		ldr	r3, [r6]
 562 0008 0193     		str	r3, [sp, #4]
 563              		.loc 1 191 0
 564 000a FFF7FEFF 		bl	test_wait_tick
 565              	.LVL30:
 566              	.LBB331:
 567              	.LBB332:
 568              	.LBB333:
 569              	.LBB334:
 570              	.LBB335:
ARM GAS  C:\Users\Moi\AppData\Local\Temp\cchSO4ph.s 			page 11


 571              	.LBB336:
 572              	.LBB337:
 573              		.loc 3 546 0
 574 000e 2023     		movs	r3, #32
 575              		.syntax unified
 576              	@ 546 "..//ChibiOS//os/ext/CMSIS/include/core_cmFunc.h" 1
 577 0010 83F31188 		MSR basepri, r3
 578              	@ 0 "" 2
 579              	.LVL31:
 580              		.thumb
 581              		.syntax unified
 582              	.LBE337:
 583              	.LBE336:
 584              	.LBE335:
 585              	.LBE334:
 586              	.LBE333:
 587              	.LBB339:
 588              	.LBB340:
 589              		.file 5 "..//ChibiOS//os/rt/include/chvt.h"
 590              		.loc 5 231 0
 591 0014 534C     		ldr	r4, .L40+4
 592              	.LBE340:
 593              	.LBE339:
 594              	.LBB342:
 595              	.LBB338:
 596              		.loc 4 349 0
 597 0016 FFF7FEFF 		bl	_stats_start_measure_crit_thd
 598              	.LVL32:
 599              		.loc 4 350 0
 600 001a FFF7FEFF 		bl	_dbg_check_lock
 601              	.LVL33:
 602              	.LBE338:
 603              	.LBE342:
 604              	.LBB343:
 605              	.LBB341:
 606              		.loc 5 231 0
 607 001e A56A     		ldr	r5, [r4, #40]
 608              	.LBE341:
 609              	.LBE343:
 610              	.LBB344:
 611              	.LBB345:
 612              		.loc 4 360 0
 613 0020 FFF7FEFF 		bl	_dbg_check_unlock
 614              	.LVL34:
 615              		.loc 4 361 0
 616 0024 FFF7FEFF 		bl	_stats_stop_measure_crit_thd
 617              	.LVL35:
 618              		.loc 4 367 0
 619 0028 2368     		ldr	r3, [r4]
 620 002a A342     		cmp	r3, r4
 621 002c 04D0     		beq	.L26
 622 002e A269     		ldr	r2, [r4, #24]
 623 0030 9B68     		ldr	r3, [r3, #8]
 624 0032 9268     		ldr	r2, [r2, #8]
 625 0034 9A42     		cmp	r2, r3
 626 0036 13D3     		bcc	.L37
 627              	.L26:
ARM GAS  C:\Users\Moi\AppData\Local\Temp\cchSO4ph.s 			page 12


 628              	.LVL36:
 629              	.LBB346:
 630              	.LBB347:
 631              	.LBB348:
 632              		.loc 3 546 0
 633 0038 0023     		movs	r3, #0
 634              		.syntax unified
 635              	@ 546 "..//ChibiOS//os/ext/CMSIS/include/core_cmFunc.h" 1
 636 003a 83F31188 		MSR basepri, r3
 637              	@ 0 "" 2
 638              	.LVL37:
 639              		.thumb
 640              		.syntax unified
 641              	.LBE348:
 642              	.LBE347:
 643              	.LBE346:
 644              	.LBE345:
 645              	.LBE344:
 646              	.LBE332:
 647              	.LBE331:
 648              		.loc 1 195 0
 649 003e 6420     		movs	r0, #100
 650 0040 FFF7FEFF 		bl	chThdSleep
 651              	.LVL38:
 652              		.loc 1 196 0
 653 0044 05F16502 		add	r2, r5, #101
 654 0048 05F16401 		add	r1, r5, #100
 655 004c 0120     		movs	r0, #1
 656 004e FFF7FEFF 		bl	_test_assert_time_window
 657              	.LVL39:
 658 0052 48B1     		cbz	r0, .L38
 659              	.L25:
 660              		.loc 1 220 0
 661 0054 019A     		ldr	r2, [sp, #4]
 662 0056 3368     		ldr	r3, [r6]
 663 0058 9A42     		cmp	r2, r3
 664 005a 7FD1     		bne	.L36
 665 005c 02B0     		add	sp, sp, #8
 666              		.cfi_remember_state
 667              		.cfi_def_cfa_offset 16
 668              		@ sp needed
 669 005e 70BD     		pop	{r4, r5, r6, pc}
 670              	.L37:
 671              		.cfi_restore_state
 672              	.LBB352:
 673              	.LBB351:
 674              	.LBB350:
 675              	.LBB349:
 676              		.loc 4 367 0
 677 0060 4148     		ldr	r0, .L40+8
 678 0062 FFF7FEFF 		bl	chSysHalt
 679              	.LVL40:
 680 0066 E7E7     		b	.L26
 681              	.L38:
 682              	.LVL41:
 683              	.LBE349:
 684              	.LBE350:
ARM GAS  C:\Users\Moi\AppData\Local\Temp\cchSO4ph.s 			page 13


 685              	.LBE351:
 686              	.LBE352:
 687              	.LBB353:
 688              	.LBB354:
 689              	.LBB355:
 690              	.LBB356:
 691              	.LBB357:
 692              	.LBB358:
 693              	.LBB359:
 694              		.loc 3 546 0
 695 0068 2023     		movs	r3, #32
 696              		.syntax unified
 697              	@ 546 "..//ChibiOS//os/ext/CMSIS/include/core_cmFunc.h" 1
 698 006a 83F31188 		MSR basepri, r3
 699              	@ 0 "" 2
 700              	.LVL42:
 701              		.thumb
 702              		.syntax unified
 703              	.LBE359:
 704              	.LBE358:
 705              	.LBE357:
 706              		.loc 4 349 0
 707 006e FFF7FEFF 		bl	_stats_start_measure_crit_thd
 708              	.LVL43:
 709              		.loc 4 350 0
 710 0072 FFF7FEFF 		bl	_dbg_check_lock
 711              	.LVL44:
 712              	.LBE356:
 713              	.LBE355:
 714              	.LBB360:
 715              	.LBB361:
 716              		.loc 5 231 0
 717 0076 A56A     		ldr	r5, [r4, #40]
 718              	.LBE361:
 719              	.LBE360:
 720              	.LBB362:
 721              	.LBB363:
 722              		.loc 4 360 0
 723 0078 FFF7FEFF 		bl	_dbg_check_unlock
 724              	.LVL45:
 725              		.loc 4 361 0
 726 007c FFF7FEFF 		bl	_stats_stop_measure_crit_thd
 727              	.LVL46:
 728              		.loc 4 367 0
 729 0080 2368     		ldr	r3, [r4]
 730 0082 A342     		cmp	r3, r4
 731 0084 04D0     		beq	.L29
 732 0086 A269     		ldr	r2, [r4, #24]
 733 0088 9B68     		ldr	r3, [r3, #8]
 734 008a 9268     		ldr	r2, [r2, #8]
 735 008c 9A42     		cmp	r2, r3
 736 008e 61D3     		bcc	.L39
 737              	.L29:
 738              	.LVL47:
 739              	.LBB364:
 740              	.LBB365:
 741              	.LBB366:
ARM GAS  C:\Users\Moi\AppData\Local\Temp\cchSO4ph.s 			page 14


 742              		.loc 3 546 0
 743 0090 0023     		movs	r3, #0
 744              		.syntax unified
 745              	@ 546 "..//ChibiOS//os/ext/CMSIS/include/core_cmFunc.h" 1
 746 0092 83F31188 		MSR basepri, r3
 747              	@ 0 "" 2
 748              	.LVL48:
 749              		.thumb
 750              		.syntax unified
 751              	.LBE366:
 752              	.LBE365:
 753              	.LBE364:
 754              	.LBE363:
 755              	.LBE362:
 756              	.LBE354:
 757              	.LBE353:
 758              		.loc 1 202 0
 759 0096 6420     		movs	r0, #100
 760 0098 FFF7FEFF 		bl	chThdSleep
 761              	.LVL49:
 762              		.loc 1 203 0
 763 009c 05F16502 		add	r2, r5, #101
 764 00a0 05F16401 		add	r1, r5, #100
 765 00a4 0220     		movs	r0, #2
 766 00a6 FFF7FEFF 		bl	_test_assert_time_window
 767              	.LVL50:
 768 00aa 0028     		cmp	r0, #0
 769 00ac D2D1     		bne	.L25
 770              	.LVL51:
 771              	.LBB370:
 772              	.LBB371:
 773              	.LBB372:
 774              	.LBB373:
 775              	.LBB374:
 776              	.LBB375:
 777              	.LBB376:
 778              	.LBB377:
 779              	.LBB378:
 780              		.loc 3 546 0
 781 00ae 2023     		movs	r3, #32
 782              		.syntax unified
 783              	@ 546 "..//ChibiOS//os/ext/CMSIS/include/core_cmFunc.h" 1
 784 00b0 83F31188 		MSR basepri, r3
 785              	@ 0 "" 2
 786              	.LVL52:
 787              		.thumb
 788              		.syntax unified
 789              	.LBE378:
 790              	.LBE377:
 791              	.LBE376:
 792              		.loc 4 349 0
 793 00b4 FFF7FEFF 		bl	_stats_start_measure_crit_thd
 794              	.LVL53:
 795              		.loc 4 350 0
 796 00b8 FFF7FEFF 		bl	_dbg_check_lock
 797              	.LVL54:
 798              	.LBE375:
ARM GAS  C:\Users\Moi\AppData\Local\Temp\cchSO4ph.s 			page 15


 799              	.LBE374:
 800              	.LBB379:
 801              	.LBB380:
 802              		.loc 5 231 0
 803 00bc A56A     		ldr	r5, [r4, #40]
 804              	.LBE380:
 805              	.LBE379:
 806              	.LBB381:
 807              	.LBB382:
 808              		.loc 4 360 0
 809 00be FFF7FEFF 		bl	_dbg_check_unlock
 810              	.LVL55:
 811              		.loc 4 361 0
 812 00c2 FFF7FEFF 		bl	_stats_stop_measure_crit_thd
 813              	.LVL56:
 814              		.loc 4 367 0
 815 00c6 2368     		ldr	r3, [r4]
 816 00c8 A342     		cmp	r3, r4
 817 00ca 07D0     		beq	.L31
 818 00cc A269     		ldr	r2, [r4, #24]
 819 00ce 9B68     		ldr	r3, [r3, #8]
 820 00d0 9268     		ldr	r2, [r2, #8]
 821 00d2 9A42     		cmp	r2, r3
 822 00d4 02D2     		bcs	.L31
 823 00d6 2448     		ldr	r0, .L40+8
 824 00d8 FFF7FEFF 		bl	chSysHalt
 825              	.LVL57:
 826              	.L31:
 827              	.LBB383:
 828              	.LBB384:
 829              	.LBB385:
 830              		.loc 3 546 0
 831 00dc 0023     		movs	r3, #0
 832              		.syntax unified
 833              	@ 546 "..//ChibiOS//os/ext/CMSIS/include/core_cmFunc.h" 1
 834 00de 83F31188 		MSR basepri, r3
 835              	@ 0 "" 2
 836              	.LVL58:
 837              		.thumb
 838              		.syntax unified
 839              	.LBE385:
 840              	.LBE384:
 841              	.LBE383:
 842              	.LBE382:
 843              	.LBE381:
 844              	.LBE373:
 845              	.LBE372:
 846              		.loc 1 209 0
 847 00e2 4FF47A70 		mov	r0, #1000
 848 00e6 FFF7FEFF 		bl	chThdSleep
 849              	.LVL59:
 850              		.loc 1 210 0
 851 00ea 05F2E932 		addw	r2, r5, #1001
 852 00ee 05F57A71 		add	r1, r5, #1000
 853 00f2 0320     		movs	r0, #3
 854 00f4 FFF7FEFF 		bl	_test_assert_time_window
 855              	.LVL60:
ARM GAS  C:\Users\Moi\AppData\Local\Temp\cchSO4ph.s 			page 16


 856 00f8 0028     		cmp	r0, #0
 857 00fa ABD1     		bne	.L25
 858              	.LVL61:
 859              	.LBB386:
 860              	.LBB387:
 861              	.LBB388:
 862              	.LBB389:
 863              	.LBB390:
 864              	.LBB391:
 865              	.LBB392:
 866              		.loc 3 546 0
 867 00fc 2023     		movs	r3, #32
 868              		.syntax unified
 869              	@ 546 "..//ChibiOS//os/ext/CMSIS/include/core_cmFunc.h" 1
 870 00fe 83F31188 		MSR basepri, r3
 871              	@ 0 "" 2
 872              	.LVL62:
 873              		.thumb
 874              		.syntax unified
 875              	.LBE392:
 876              	.LBE391:
 877              	.LBE390:
 878              		.loc 4 349 0
 879 0102 FFF7FEFF 		bl	_stats_start_measure_crit_thd
 880              	.LVL63:
 881              		.loc 4 350 0
 882 0106 FFF7FEFF 		bl	_dbg_check_lock
 883              	.LVL64:
 884              	.LBE389:
 885              	.LBE388:
 886              	.LBB393:
 887              	.LBB394:
 888              		.loc 5 231 0
 889 010a A56A     		ldr	r5, [r4, #40]
 890              	.LBE394:
 891              	.LBE393:
 892              	.LBB395:
 893              	.LBB396:
 894              		.loc 4 360 0
 895 010c FFF7FEFF 		bl	_dbg_check_unlock
 896              	.LVL65:
 897              		.loc 4 361 0
 898 0110 FFF7FEFF 		bl	_stats_stop_measure_crit_thd
 899              	.LVL66:
 900              		.loc 4 367 0
 901 0114 2368     		ldr	r3, [r4]
 902 0116 A342     		cmp	r3, r4
 903 0118 07D0     		beq	.L32
 904 011a A269     		ldr	r2, [r4, #24]
 905 011c 9B68     		ldr	r3, [r3, #8]
 906 011e 9268     		ldr	r2, [r2, #8]
 907 0120 9A42     		cmp	r2, r3
 908 0122 02D2     		bcs	.L32
 909 0124 1048     		ldr	r0, .L40+8
 910 0126 FFF7FEFF 		bl	chSysHalt
 911              	.LVL67:
 912              	.L32:
ARM GAS  C:\Users\Moi\AppData\Local\Temp\cchSO4ph.s 			page 17


 913              	.LBB397:
 914              	.LBB398:
 915              	.LBB399:
 916              		.loc 3 546 0
 917 012a 0023     		movs	r3, #0
 918              		.syntax unified
 919              	@ 546 "..//ChibiOS//os/ext/CMSIS/include/core_cmFunc.h" 1
 920 012c 83F31188 		MSR basepri, r3
 921              	@ 0 "" 2
 922              	.LVL68:
 923              		.thumb
 924              		.syntax unified
 925              	.LBE399:
 926              	.LBE398:
 927              	.LBE397:
 928              	.LBE396:
 929              	.LBE395:
 930              	.LBE387:
 931              	.LBE386:
 932              		.loc 1 215 0
 933 0130 05F16404 		add	r4, r5, #100
 934              	.LVL69:
 935              		.loc 1 216 0
 936 0134 2046     		mov	r0, r4
 937 0136 FFF7FEFF 		bl	chThdSleepUntil
 938              	.LVL70:
 939              		.loc 1 217 0
 940 013a 019A     		ldr	r2, [sp, #4]
 941 013c 3368     		ldr	r3, [r6]
 942 013e 9A42     		cmp	r2, r3
 943 0140 0CD1     		bne	.L36
 944 0142 05F16502 		add	r2, r5, #101
 945 0146 2146     		mov	r1, r4
 946 0148 0420     		movs	r0, #4
 947              	.LBE371:
 948              	.LBE370:
 949              		.loc 1 220 0
 950 014a 02B0     		add	sp, sp, #8
 951              		.cfi_remember_state
 952              		.cfi_def_cfa_offset 16
 953              		@ sp needed
 954 014c BDE87040 		pop	{r4, r5, r6, lr}
 955              		.cfi_restore 14
 956              		.cfi_restore 6
 957              		.cfi_restore 5
 958              		.cfi_restore 4
 959              		.cfi_def_cfa_offset 0
 960              	.LVL71:
 961              	.LBB401:
 962              	.LBB400:
 963              		.loc 1 217 0
 964 0150 FFF7FEBF 		b	_test_assert_time_window
 965              	.LVL72:
 966              	.L39:
 967              		.cfi_restore_state
 968              	.LBE400:
 969              	.LBE401:
ARM GAS  C:\Users\Moi\AppData\Local\Temp\cchSO4ph.s 			page 18


 970              	.LBB402:
 971              	.LBB369:
 972              	.LBB368:
 973              	.LBB367:
 974              		.loc 4 367 0
 975 0154 0448     		ldr	r0, .L40+8
 976 0156 FFF7FEFF 		bl	chSysHalt
 977              	.LVL73:
 978 015a 99E7     		b	.L29
 979              	.L36:
 980              	.LBE367:
 981              	.LBE368:
 982              	.LBE369:
 983              	.LBE402:
 984              		.loc 1 220 0
 985 015c FFF7FEFF 		bl	__stack_chk_fail
 986              	.LVL74:
 987              	.L41:
 988              		.align	2
 989              	.L40:
 990 0160 00000000 		.word	__stack_chk_guard
 991 0164 00000000 		.word	ch
 992 0168 00000000 		.word	.LANCHOR0
 993              		.cfi_endproc
 994              	.LFE223:
 995              		.size	thd4_execute, .-thd4_execute
 996              		.section	.text.thd3_execute,"ax",%progbits
 997              		.align	1
 998              		.p2align 4,,15
 999              		.syntax unified
 1000              		.thumb
 1001              		.thumb_func
 1002              		.fpu fpv4-sp-d16
 1003              		.type	thd3_execute, %function
 1004              	thd3_execute:
 1005              	.LFB222:
 1006              		.loc 1 125 0
 1007              		.cfi_startproc
 1008              		@ args = 0, pretend = 0, frame = 8
 1009              		@ frame_needed = 0, uses_anonymous_args = 0
 1010 0000 2DE9F041 		push	{r4, r5, r6, r7, r8, lr}
 1011              		.cfi_def_cfa_offset 24
 1012              		.cfi_offset 4, -24
 1013              		.cfi_offset 5, -20
 1014              		.cfi_offset 6, -16
 1015              		.cfi_offset 7, -12
 1016              		.cfi_offset 8, -8
 1017              		.cfi_offset 14, -4
 1018              	.LBB451:
 1019              	.LBB452:
 1020              	.LBB453:
 1021              	.LBB454:
 1022              		.loc 2 176 0
 1023 0004 694E     		ldr	r6, .L52
 1024              	.LBE454:
 1025              	.LBE453:
 1026              	.LBE452:
ARM GAS  C:\Users\Moi\AppData\Local\Temp\cchSO4ph.s 			page 19


 1027              	.LBE451:
 1028              		.loc 1 125 0
 1029 0006 6A4D     		ldr	r5, .L52+4
 1030              	.LBB457:
 1031              	.LBB455:
 1032              		.loc 2 189 0
 1033 0008 B269     		ldr	r2, [r6, #24]
 1034              	.LBE455:
 1035              	.LBE457:
 1036              		.loc 1 125 0
 1037 000a 2B68     		ldr	r3, [r5]
 1038              	.LBB458:
 1039              	.LBB456:
 1040              		.loc 2 189 0
 1041 000c 9468     		ldr	r4, [r2, #8]
 1042              	.LBE456:
 1043              	.LBE458:
 1044              		.loc 1 125 0
 1045 000e 82B0     		sub	sp, sp, #8
 1046              		.cfi_def_cfa_offset 32
 1047              		.loc 1 129 0
 1048 0010 671C     		adds	r7, r4, #1
 1049 0012 3846     		mov	r0, r7
 1050              		.loc 1 125 0
 1051 0014 0193     		str	r3, [sp, #4]
 1052              		.loc 1 129 0
 1053 0016 FFF7FEFF 		bl	chThdSetPriority
 1054              	.LVL75:
 1055              		.loc 1 130 0
 1056 001a 011B     		subs	r1, r0, r4
 1057 001c B1FA81F1 		clz	r1, r1
 1058              		.loc 1 129 0
 1059 0020 8046     		mov	r8, r0
 1060              	.LVL76:
 1061              		.loc 1 130 0
 1062 0022 4909     		lsrs	r1, r1, #5
 1063 0024 0120     		movs	r0, #1
 1064              	.LVL77:
 1065 0026 FFF7FEFF 		bl	_test_assert
 1066              	.LVL78:
 1067 002a 38B1     		cbz	r0, .L50
 1068              	.LVL79:
 1069              	.L42:
 1070              		.loc 1 171 0
 1071 002c 019A     		ldr	r2, [sp, #4]
 1072 002e 2B68     		ldr	r3, [r5]
 1073 0030 9A42     		cmp	r2, r3
 1074 0032 40F0B880 		bne	.L51
 1075 0036 02B0     		add	sp, sp, #8
 1076              		.cfi_remember_state
 1077              		.cfi_def_cfa_offset 24
 1078              		@ sp needed
 1079 0038 BDE8F081 		pop	{r4, r5, r6, r7, r8, pc}
 1080              	.LVL80:
 1081              	.L50:
 1082              		.cfi_restore_state
 1083              	.LBB459:
ARM GAS  C:\Users\Moi\AppData\Local\Temp\cchSO4ph.s 			page 20


 1084              	.LBB460:
 1085              		.loc 2 189 0
 1086 003c B369     		ldr	r3, [r6, #24]
 1087              	.LBE460:
 1088              	.LBE459:
 1089              		.loc 1 132 0
 1090 003e 9968     		ldr	r1, [r3, #8]
 1091 0040 C91B     		subs	r1, r1, r7
 1092 0042 B1FA81F1 		clz	r1, r1
 1093 0046 0220     		movs	r0, #2
 1094 0048 4909     		lsrs	r1, r1, #5
 1095 004a FFF7FEFF 		bl	_test_assert
 1096              	.LVL81:
 1097 004e 0028     		cmp	r0, #0
 1098 0050 ECD1     		bne	.L42
 1099              		.loc 1 134 0
 1100 0052 4046     		mov	r0, r8
 1101 0054 FFF7FEFF 		bl	chThdSetPriority
 1102              	.LVL82:
 1103              		.loc 1 135 0
 1104 0058 391A     		subs	r1, r7, r0
 1105 005a B1FA81F1 		clz	r1, r1
 1106 005e 4909     		lsrs	r1, r1, #5
 1107 0060 0320     		movs	r0, #3
 1108              	.LVL83:
 1109 0062 FFF7FEFF 		bl	_test_assert
 1110              	.LVL84:
 1111 0066 0028     		cmp	r0, #0
 1112 0068 E0D1     		bne	.L42
 1113              	.LBB461:
 1114              	.LBB462:
 1115              		.loc 2 189 0
 1116 006a B369     		ldr	r3, [r6, #24]
 1117              	.LBE462:
 1118              	.LBE461:
 1119              		.loc 1 137 0
 1120 006c 9968     		ldr	r1, [r3, #8]
 1121 006e 091B     		subs	r1, r1, r4
 1122 0070 B1FA81F1 		clz	r1, r1
 1123 0074 0420     		movs	r0, #4
 1124 0076 4909     		lsrs	r1, r1, #5
 1125 0078 FFF7FEFF 		bl	_test_assert
 1126              	.LVL85:
 1127 007c 0028     		cmp	r0, #0
 1128 007e D5D1     		bne	.L42
 1129              	.LVL86:
 1130              	.LBB463:
 1131              	.LBB464:
 1132              	.LBB465:
 1133              	.LBB466:
 1134              	.LBB467:
 1135              		.loc 3 546 0
 1136 0080 2023     		movs	r3, #32
 1137              		.syntax unified
 1138              	@ 546 "..//ChibiOS//os/ext/CMSIS/include/core_cmFunc.h" 1
 1139 0082 83F31188 		MSR basepri, r3
 1140              	@ 0 "" 2
ARM GAS  C:\Users\Moi\AppData\Local\Temp\cchSO4ph.s 			page 21


 1141              	.LVL87:
 1142              		.thumb
 1143              		.syntax unified
 1144              	.LBE467:
 1145              	.LBE466:
 1146              	.LBE465:
 1147              		.loc 4 349 0
 1148 0086 FFF7FEFF 		bl	_stats_start_measure_crit_thd
 1149              	.LVL88:
 1150              		.loc 4 350 0
 1151 008a FFF7FEFF 		bl	_dbg_check_lock
 1152              	.LVL89:
 1153              	.LBE464:
 1154              	.LBE463:
 1155              	.LBB468:
 1156              	.LBB469:
 1157              		.loc 2 176 0
 1158 008e B269     		ldr	r2, [r6, #24]
 1159              	.LBE469:
 1160              	.LBE468:
 1161              		.loc 1 143 0
 1162 0090 9368     		ldr	r3, [r2, #8]
 1163 0092 0233     		adds	r3, r3, #2
 1164 0094 9360     		str	r3, [r2, #8]
 1165              	.LBB470:
 1166              	.LBB471:
 1167              		.loc 4 360 0
 1168 0096 FFF7FEFF 		bl	_dbg_check_unlock
 1169              	.LVL90:
 1170              		.loc 4 361 0
 1171 009a FFF7FEFF 		bl	_stats_stop_measure_crit_thd
 1172              	.LVL91:
 1173              		.loc 4 367 0
 1174 009e 3368     		ldr	r3, [r6]
 1175 00a0 B342     		cmp	r3, r6
 1176 00a2 07D0     		beq	.L46
 1177 00a4 B269     		ldr	r2, [r6, #24]
 1178 00a6 9B68     		ldr	r3, [r3, #8]
 1179 00a8 9268     		ldr	r2, [r2, #8]
 1180 00aa 9A42     		cmp	r2, r3
 1181 00ac 02D2     		bcs	.L46
 1182 00ae 4148     		ldr	r0, .L52+8
 1183 00b0 FFF7FEFF 		bl	chSysHalt
 1184              	.LVL92:
 1185              	.L46:
 1186              	.LBB472:
 1187              	.LBB473:
 1188              	.LBB474:
 1189              		.loc 3 546 0
 1190 00b4 0023     		movs	r3, #0
 1191              		.syntax unified
 1192              	@ 546 "..//ChibiOS//os/ext/CMSIS/include/core_cmFunc.h" 1
 1193 00b6 83F31188 		MSR basepri, r3
 1194              	@ 0 "" 2
 1195              	.LVL93:
 1196              		.thumb
 1197              		.syntax unified
ARM GAS  C:\Users\Moi\AppData\Local\Temp\cchSO4ph.s 			page 22


 1198              	.LBE474:
 1199              	.LBE473:
 1200              	.LBE472:
 1201              	.LBE471:
 1202              	.LBE470:
 1203              	.LBB475:
 1204              	.LBB476:
 1205              		.loc 2 189 0
 1206 00ba B369     		ldr	r3, [r6, #24]
 1207              	.LBE476:
 1208              	.LBE475:
 1209              		.loc 1 145 0
 1210 00bc 9968     		ldr	r1, [r3, #8]
 1211 00be 04F10208 		add	r8, r4, #2
 1212 00c2 A1EB0801 		sub	r1, r1, r8
 1213 00c6 B1FA81F1 		clz	r1, r1
 1214 00ca 4909     		lsrs	r1, r1, #5
 1215 00cc 0520     		movs	r0, #5
 1216 00ce FFF7FEFF 		bl	_test_assert
 1217              	.LVL94:
 1218 00d2 0028     		cmp	r0, #0
 1219 00d4 AAD1     		bne	.L42
 1220              		.loc 1 149 0
 1221 00d6 3846     		mov	r0, r7
 1222 00d8 FFF7FEFF 		bl	chThdSetPriority
 1223              	.LVL95:
 1224              		.loc 1 150 0
 1225 00dc 011B     		subs	r1, r0, r4
 1226 00de B1FA81F1 		clz	r1, r1
 1227 00e2 4909     		lsrs	r1, r1, #5
 1228 00e4 0620     		movs	r0, #6
 1229              	.LVL96:
 1230 00e6 FFF7FEFF 		bl	_test_assert
 1231              	.LVL97:
 1232 00ea 0028     		cmp	r0, #0
 1233 00ec 9ED1     		bne	.L42
 1234              		.loc 1 152 0
 1235 00ee B369     		ldr	r3, [r6, #24]
 1236 00f0 9968     		ldr	r1, [r3, #8]
 1237 00f2 A1EB0801 		sub	r1, r1, r8
 1238 00f6 B1FA81F1 		clz	r1, r1
 1239 00fa 4909     		lsrs	r1, r1, #5
 1240 00fc 0720     		movs	r0, #7
 1241 00fe FFF7FEFF 		bl	_test_assert
 1242              	.LVL98:
 1243 0102 0028     		cmp	r0, #0
 1244 0104 92D1     		bne	.L42
 1245              		.loc 1 154 0
 1246 0106 B369     		ldr	r3, [r6, #24]
 1247 0108 596C     		ldr	r1, [r3, #68]
 1248 010a A1EB070C 		sub	ip, r1, r7
 1249 010e DCF10001 		rsbs	r1, ip, #0
 1250 0112 41EB0C01 		adc	r1, r1, ip
 1251 0116 0820     		movs	r0, #8
 1252 0118 FFF7FEFF 		bl	_test_assert
 1253              	.LVL99:
 1254 011c 0028     		cmp	r0, #0
ARM GAS  C:\Users\Moi\AppData\Local\Temp\cchSO4ph.s 			page 23


 1255 011e 85D1     		bne	.L42
 1256              		.loc 1 158 0
 1257 0120 04F10308 		add	r8, r4, #3
 1258 0124 4046     		mov	r0, r8
 1259 0126 FFF7FEFF 		bl	chThdSetPriority
 1260              	.LVL100:
 1261              		.loc 1 159 0
 1262 012a 381A     		subs	r0, r7, r0
 1263              	.LVL101:
 1264 012c 4142     		rsbs	r1, r0, #0
 1265 012e 4141     		adcs	r1, r1, r0
 1266 0130 0920     		movs	r0, #9
 1267 0132 FFF7FEFF 		bl	_test_assert
 1268              	.LVL102:
 1269 0136 0028     		cmp	r0, #0
 1270 0138 7FF478AF 		bne	.L42
 1271              		.loc 1 161 0
 1272 013c B369     		ldr	r3, [r6, #24]
 1273 013e 9968     		ldr	r1, [r3, #8]
 1274 0140 A1EB0802 		sub	r2, r1, r8
 1275 0144 5142     		rsbs	r1, r2, #0
 1276 0146 5141     		adcs	r1, r1, r2
 1277 0148 0A20     		movs	r0, #10
 1278 014a FFF7FEFF 		bl	_test_assert
 1279              	.LVL103:
 1280 014e 0028     		cmp	r0, #0
 1281 0150 7FF46CAF 		bne	.L42
 1282              		.loc 1 163 0
 1283 0154 B369     		ldr	r3, [r6, #24]
 1284 0156 596C     		ldr	r1, [r3, #68]
 1285 0158 A1EB0803 		sub	r3, r1, r8
 1286 015c 5942     		rsbs	r1, r3, #0
 1287 015e 5941     		adcs	r1, r1, r3
 1288 0160 0B20     		movs	r0, #11
 1289 0162 FFF7FEFF 		bl	_test_assert
 1290              	.LVL104:
 1291 0166 0028     		cmp	r0, #0
 1292 0168 7FF460AF 		bne	.L42
 1293              	.LVL105:
 1294              	.LBB477:
 1295              	.LBB478:
 1296              	.LBB479:
 1297              	.LBB480:
 1298              	.LBB481:
 1299              		.loc 3 546 0
 1300 016c 2023     		movs	r3, #32
 1301              		.syntax unified
 1302              	@ 546 "..//ChibiOS//os/ext/CMSIS/include/core_cmFunc.h" 1
 1303 016e 83F31188 		MSR basepri, r3
 1304              	@ 0 "" 2
 1305              	.LVL106:
 1306              		.thumb
 1307              		.syntax unified
 1308              	.LBE481:
 1309              	.LBE480:
 1310              	.LBE479:
 1311              		.loc 4 349 0
ARM GAS  C:\Users\Moi\AppData\Local\Temp\cchSO4ph.s 			page 24


 1312 0172 FFF7FEFF 		bl	_stats_start_measure_crit_thd
 1313              	.LVL107:
 1314              		.loc 4 350 0
 1315 0176 FFF7FEFF 		bl	_dbg_check_lock
 1316              	.LVL108:
 1317              	.LBE478:
 1318              	.LBE477:
 1319              	.LBB482:
 1320              	.LBB483:
 1321              		.loc 2 176 0
 1322 017a B369     		ldr	r3, [r6, #24]
 1323              	.LBE483:
 1324              	.LBE482:
 1325              		.loc 1 167 0
 1326 017c 9C60     		str	r4, [r3, #8]
 1327              		.loc 1 168 0
 1328 017e 5C64     		str	r4, [r3, #68]
 1329              	.LBB484:
 1330              	.LBB485:
 1331              		.loc 4 360 0
 1332 0180 FFF7FEFF 		bl	_dbg_check_unlock
 1333              	.LVL109:
 1334              		.loc 4 361 0
 1335 0184 FFF7FEFF 		bl	_stats_stop_measure_crit_thd
 1336              	.LVL110:
 1337              		.loc 4 367 0
 1338 0188 3368     		ldr	r3, [r6]
 1339 018a B342     		cmp	r3, r6
 1340 018c 07D0     		beq	.L47
 1341 018e B269     		ldr	r2, [r6, #24]
 1342 0190 9B68     		ldr	r3, [r3, #8]
 1343 0192 9268     		ldr	r2, [r2, #8]
 1344 0194 9A42     		cmp	r2, r3
 1345 0196 02D2     		bcs	.L47
 1346 0198 0648     		ldr	r0, .L52+8
 1347 019a FFF7FEFF 		bl	chSysHalt
 1348              	.LVL111:
 1349              	.L47:
 1350              	.LBB486:
 1351              	.LBB487:
 1352              	.LBB488:
 1353              		.loc 3 546 0
 1354 019e 0023     		movs	r3, #0
 1355              		.syntax unified
 1356              	@ 546 "..//ChibiOS//os/ext/CMSIS/include/core_cmFunc.h" 1
 1357 01a0 83F31188 		MSR basepri, r3
 1358              	@ 0 "" 2
 1359              	.LVL112:
 1360              		.thumb
 1361              		.syntax unified
 1362 01a4 42E7     		b	.L42
 1363              	.L51:
 1364              	.LBE488:
 1365              	.LBE487:
 1366              	.LBE486:
 1367              	.LBE485:
 1368              	.LBE484:
ARM GAS  C:\Users\Moi\AppData\Local\Temp\cchSO4ph.s 			page 25


 1369              		.loc 1 171 0
 1370 01a6 FFF7FEFF 		bl	__stack_chk_fail
 1371              	.LVL113:
 1372              	.L53:
 1373 01aa 00BF     		.align	2
 1374              	.L52:
 1375 01ac 00000000 		.word	ch
 1376 01b0 00000000 		.word	__stack_chk_guard
 1377 01b4 00000000 		.word	.LANCHOR0
 1378              		.cfi_endproc
 1379              	.LFE222:
 1380              		.size	thd3_execute, .-thd3_execute
 1381              		.global	patternthd
 1382              		.global	testthd4
 1383              		.global	testthd3
 1384              		.global	testthd2
 1385              		.global	testthd1
 1386              		.section	.rodata.__func__.7153,"a",%progbits
 1387              		.align	2
 1388              		.set	.LANCHOR0,. + 0
 1389              		.type	__func__.7153, %object
 1390              		.size	__func__.7153, 12
 1391              	__func__.7153:
 1392 0000 63685379 		.ascii	"chSysUnlock\000"
 1392      73556E6C 
 1392      6F636B00 
 1393              		.section	.rodata.patternthd,"a",%progbits
 1394              		.align	2
 1395              		.type	patternthd, %object
 1396              		.size	patternthd, 20
 1397              	patternthd:
 1398 0000 00000000 		.word	testthd1
 1399 0004 00000000 		.word	testthd2
 1400 0008 00000000 		.word	testthd3
 1401 000c 00000000 		.word	testthd4
 1402 0010 00000000 		.word	0
 1403              		.section	.rodata.str1.4,"aMS",%progbits,1
 1404              		.align	2
 1405              	.LC6:
 1406 0000 54687265 		.ascii	"Threads, delays\000"
 1406      6164732C 
 1406      2064656C 
 1406      61797300 
 1407              	.LC7:
 1408 0010 54687265 		.ascii	"Threads, priority change\000"
 1408      6164732C 
 1408      20707269 
 1408      6F726974 
 1408      79206368 
 1409 0029 000000   		.space	3
 1410              	.LC8:
 1411 002c 54687265 		.ascii	"Threads, enqueuing test #2\000"
 1411      6164732C 
 1411      20656E71 
 1411      75657569 
 1411      6E672074 
 1412 0047 00       		.space	1
ARM GAS  C:\Users\Moi\AppData\Local\Temp\cchSO4ph.s 			page 26


 1413              	.LC9:
 1414 0048 54687265 		.ascii	"Threads, enqueuing test #1\000"
 1414      6164732C 
 1414      20656E71 
 1414      75657569 
 1414      6E672074 
 1415              		.section	.rodata.testthd1,"a",%progbits
 1416              		.align	2
 1417              		.type	testthd1, %object
 1418              		.size	testthd1, 16
 1419              	testthd1:
 1420 0000 48000000 		.word	.LC9
 1421 0004 00000000 		.word	0
 1422 0008 00000000 		.word	0
 1423 000c 00000000 		.word	thd1_execute
 1424              		.section	.rodata.testthd2,"a",%progbits
 1425              		.align	2
 1426              		.type	testthd2, %object
 1427              		.size	testthd2, 16
 1428              	testthd2:
 1429 0000 2C000000 		.word	.LC8
 1430 0004 00000000 		.word	0
 1431 0008 00000000 		.word	0
 1432 000c 00000000 		.word	thd2_execute
 1433              		.section	.rodata.testthd3,"a",%progbits
 1434              		.align	2
 1435              		.type	testthd3, %object
 1436              		.size	testthd3, 16
 1437              	testthd3:
 1438 0000 10000000 		.word	.LC7
 1439 0004 00000000 		.word	0
 1440 0008 00000000 		.word	0
 1441 000c 00000000 		.word	thd3_execute
 1442              		.section	.rodata.testthd4,"a",%progbits
 1443              		.align	2
 1444              		.type	testthd4, %object
 1445              		.size	testthd4, 16
 1446              	testthd4:
 1447 0000 00000000 		.word	.LC6
 1448 0004 00000000 		.word	0
 1449 0008 00000000 		.word	0
 1450 000c 00000000 		.word	thd4_execute
 1451              		.section	.rodata.thd1_execute.str1.4,"aMS",%progbits,1
 1452              		.align	2
 1453              	.LC0:
 1454 0000 4500     		.ascii	"E\000"
 1455 0002 0000     		.space	2
 1456              	.LC1:
 1457 0004 4400     		.ascii	"D\000"
 1458 0006 0000     		.space	2
 1459              	.LC2:
 1460 0008 4300     		.ascii	"C\000"
 1461 000a 0000     		.space	2
 1462              	.LC3:
 1463 000c 4200     		.ascii	"B\000"
 1464 000e 0000     		.space	2
 1465              	.LC4:
ARM GAS  C:\Users\Moi\AppData\Local\Temp\cchSO4ph.s 			page 27


 1466 0010 4100     		.ascii	"A\000"
 1467 0012 0000     		.space	2
 1468              	.LC5:
 1469 0014 41424344 		.ascii	"ABCDE\000"
 1469      4500
 1470              		.text
 1471              	.Letext0:
 1472              		.file 6 "c:\\users\\moi\\documents\\_microinfo\\epuck-eclipse\\tools\\gcc-arm-none-eabi-7-2017-q4-
 1473              		.file 7 "c:\\users\\moi\\documents\\_microinfo\\epuck-eclipse\\tools\\gcc-arm-none-eabi-7-2017-q4-
 1474              		.file 8 "c:\\users\\moi\\documents\\_microinfo\\epuck-eclipse\\tools\\gcc-arm-none-eabi-7-2017-q4-
 1475              		.file 9 "..//ChibiOS//os/rt/ports/ARMCMx/compilers/GCC/chtypes.h"
 1476              		.file 10 "..//ChibiOS//os/rt/include/chsystypes.h"
 1477              		.file 11 "..//ChibiOS//os/rt/include/chschd.h"
 1478              		.file 12 "..//ChibiOS//os/ext/CMSIS/include/core_cm4.h"
 1479              		.file 13 "..//ChibiOS//os/ext/CMSIS/ST/system_stm32f4xx.h"
 1480              		.file 14 "..//ChibiOS//os/rt/ports/ARMCMx/chcore.h"
 1481              		.file 15 "..//ChibiOS//os/rt/ports/ARMCMx/chcore_v7m.h"
 1482              		.file 16 "..//ChibiOS//os/rt/include/chdebug.h"
 1483              		.file 17 "..//ChibiOS//os/rt/include/chtm.h"
 1484              		.file 18 "..//ChibiOS//os/rt/include/chstats.h"
 1485              		.file 19 "..//ChibiOS//os/rt/include/chsem.h"
 1486              		.file 20 "..//ChibiOS//os/rt/include/chmtx.h"
 1487              		.file 21 "..//ChibiOS//os/rt/include/chregistry.h"
 1488              		.file 22 "..//ChibiOS//test/rt/test.h"