ARM GAS  C:\Users\Moi\AppData\Local\Temp\ccwG6ltn.s 			page 1


   1              		.cpu cortex-m4
   2              		.eabi_attribute 27, 1
   3              		.eabi_attribute 28, 1
   4              		.eabi_attribute 20, 1
   5              		.eabi_attribute 21, 1
   6              		.eabi_attribute 23, 3
   7              		.eabi_attribute 24, 1
   8              		.eabi_attribute 25, 1
   9              		.eabi_attribute 26, 1
  10              		.eabi_attribute 30, 2
  11              		.eabi_attribute 34, 1
  12              		.eabi_attribute 18, 4
  13              		.file	"testbmk.c"
  14              		.text
  15              	.Ltext0:
  16              		.cfi_sections	.debug_frame
  17              		.section	.text.tmo,"ax",%progbits
  18              		.align	1
  19              		.p2align 4,,15
  20              		.syntax unified
  21              		.thumb
  22              		.thumb_func
  23              		.fpu fpv4-sp-d16
  24              		.type	tmo, %function
  25              	tmo:
  26              	.LFB235:
  27              		.file 1 "..//ChibiOS//test/rt/testbmk.c"
  28              		.loc 1 505 0
  29              		.cfi_startproc
  30              		@ args = 0, pretend = 0, frame = 8
  31              		@ frame_needed = 0, uses_anonymous_args = 0
  32              	.LVL0:
  33 0000 00B5     		push	{lr}
  34              		.cfi_def_cfa_offset 4
  35              		.cfi_offset 14, -4
  36 0002 064B     		ldr	r3, .L6
  37 0004 83B0     		sub	sp, sp, #12
  38              		.cfi_def_cfa_offset 16
  39              		.loc 1 505 0
  40 0006 1A68     		ldr	r2, [r3]
  41 0008 0192     		str	r2, [sp, #4]
  42 000a 019A     		ldr	r2, [sp, #4]
  43 000c 1B68     		ldr	r3, [r3]
  44 000e 9A42     		cmp	r2, r3
  45 0010 02D1     		bne	.L5
  46 0012 03B0     		add	sp, sp, #12
  47              		.cfi_remember_state
  48              		.cfi_def_cfa_offset 4
  49              		@ sp needed
  50 0014 5DF804FB 		ldr	pc, [sp], #4
  51              	.L5:
  52              		.cfi_restore_state
  53 0018 FFF7FEFF 		bl	__stack_chk_fail
  54              	.LVL1:
  55              	.L7:
  56              		.align	2
  57              	.L6:
ARM GAS  C:\Users\Moi\AppData\Local\Temp\ccwG6ltn.s 			page 2


  58 001c 00000000 		.word	__stack_chk_guard
  59              		.cfi_endproc
  60              	.LFE235:
  61              		.size	tmo, .-tmo
  62              		.section	.text.bmk13_execute,"ax",%progbits
  63              		.align	1
  64              		.p2align 4,,15
  65              		.syntax unified
  66              		.thumb
  67              		.thumb_func
  68              		.fpu fpv4-sp-d16
  69              		.type	bmk13_execute, %function
  70              	bmk13_execute:
  71              	.LFB241:
  72              		.loc 1 640 0
  73              		.cfi_startproc
  74              		@ args = 0, pretend = 0, frame = 8
  75              		@ frame_needed = 0, uses_anonymous_args = 0
  76 0000 10B5     		push	{r4, lr}
  77              		.cfi_def_cfa_offset 8
  78              		.cfi_offset 4, -8
  79              		.cfi_offset 14, -4
  80 0002 344C     		ldr	r4, .L13
  81              		.loc 1 642 0
  82 0004 3448     		ldr	r0, .L13+4
  83              		.loc 1 640 0
  84 0006 2368     		ldr	r3, [r4]
  85 0008 82B0     		sub	sp, sp, #8
  86              		.cfi_def_cfa_offset 16
  87              		.loc 1 640 0
  88 000a 0193     		str	r3, [sp, #4]
  89              		.loc 1 642 0
  90 000c FFF7FEFF 		bl	test_print
  91              	.LVL2:
  92              		.loc 1 643 0
  93 0010 4FF4CE60 		mov	r0, #1648
  94 0014 FFF7FEFF 		bl	test_printn
  95              	.LVL3:
  96              		.loc 1 644 0
  97 0018 3048     		ldr	r0, .L13+8
  98 001a FFF7FEFF 		bl	test_println
  99              	.LVL4:
 100              		.loc 1 645 0
 101 001e 3048     		ldr	r0, .L13+12
 102 0020 FFF7FEFF 		bl	test_print
 103              	.LVL5:
 104              		.loc 1 646 0
 105 0024 6820     		movs	r0, #104
 106 0026 FFF7FEFF 		bl	test_printn
 107              	.LVL6:
 108              		.loc 1 647 0
 109 002a 2C48     		ldr	r0, .L13+8
 110 002c FFF7FEFF 		bl	test_println
 111              	.LVL7:
 112              		.loc 1 648 0
 113 0030 2C48     		ldr	r0, .L13+16
 114 0032 FFF7FEFF 		bl	test_print
ARM GAS  C:\Users\Moi\AppData\Local\Temp\ccwG6ltn.s 			page 3


 115              	.LVL8:
 116              		.loc 1 649 0
 117 0036 1420     		movs	r0, #20
 118 0038 FFF7FEFF 		bl	test_printn
 119              	.LVL9:
 120              		.loc 1 650 0
 121 003c 2748     		ldr	r0, .L13+8
 122 003e FFF7FEFF 		bl	test_println
 123              	.LVL10:
 124              		.loc 1 652 0
 125 0042 2948     		ldr	r0, .L13+20
 126 0044 FFF7FEFF 		bl	test_print
 127              	.LVL11:
 128              		.loc 1 653 0
 129 0048 0C20     		movs	r0, #12
 130 004a FFF7FEFF 		bl	test_printn
 131              	.LVL12:
 132              		.loc 1 654 0
 133 004e 2348     		ldr	r0, .L13+8
 134 0050 FFF7FEFF 		bl	test_println
 135              	.LVL13:
 136              		.loc 1 657 0
 137 0054 2548     		ldr	r0, .L13+24
 138 0056 FFF7FEFF 		bl	test_print
 139              	.LVL14:
 140              		.loc 1 658 0
 141 005a 0420     		movs	r0, #4
 142 005c FFF7FEFF 		bl	test_printn
 143              	.LVL15:
 144              		.loc 1 659 0
 145 0060 1E48     		ldr	r0, .L13+8
 146 0062 FFF7FEFF 		bl	test_println
 147              	.LVL16:
 148              		.loc 1 660 0
 149 0066 2248     		ldr	r0, .L13+28
 150 0068 FFF7FEFF 		bl	test_print
 151              	.LVL17:
 152              		.loc 1 661 0
 153 006c 1420     		movs	r0, #20
 154 006e FFF7FEFF 		bl	test_printn
 155              	.LVL18:
 156              		.loc 1 662 0
 157 0072 1A48     		ldr	r0, .L13+8
 158 0074 FFF7FEFF 		bl	test_println
 159              	.LVL19:
 160              		.loc 1 665 0
 161 0078 1E48     		ldr	r0, .L13+32
 162 007a FFF7FEFF 		bl	test_print
 163              	.LVL20:
 164              		.loc 1 666 0
 165 007e 1420     		movs	r0, #20
 166 0080 FFF7FEFF 		bl	test_printn
 167              	.LVL21:
 168              		.loc 1 667 0
 169 0084 1548     		ldr	r0, .L13+8
 170 0086 FFF7FEFF 		bl	test_println
 171              	.LVL22:
ARM GAS  C:\Users\Moi\AppData\Local\Temp\ccwG6ltn.s 			page 4


 172              		.loc 1 670 0
 173 008a 1B48     		ldr	r0, .L13+36
 174 008c FFF7FEFF 		bl	test_print
 175              	.LVL23:
 176              		.loc 1 671 0
 177 0090 0820     		movs	r0, #8
 178 0092 FFF7FEFF 		bl	test_printn
 179              	.LVL24:
 180              		.loc 1 672 0
 181 0096 1148     		ldr	r0, .L13+8
 182 0098 FFF7FEFF 		bl	test_println
 183              	.LVL25:
 184              		.loc 1 675 0
 185 009c 1748     		ldr	r0, .L13+40
 186 009e FFF7FEFF 		bl	test_print
 187              	.LVL26:
 188              		.loc 1 676 0
 189 00a2 2420     		movs	r0, #36
 190 00a4 FFF7FEFF 		bl	test_printn
 191              	.LVL27:
 192              		.loc 1 677 0
 193 00a8 0C48     		ldr	r0, .L13+8
 194 00aa FFF7FEFF 		bl	test_println
 195              	.LVL28:
 196              		.loc 1 680 0
 197 00ae 1448     		ldr	r0, .L13+44
 198 00b0 FFF7FEFF 		bl	test_print
 199              	.LVL29:
 200              		.loc 1 681 0
 201 00b4 2820     		movs	r0, #40
 202 00b6 FFF7FEFF 		bl	test_printn
 203              	.LVL30:
 204              		.loc 1 682 0
 205 00ba 019A     		ldr	r2, [sp, #4]
 206 00bc 2368     		ldr	r3, [r4]
 207 00be 9A42     		cmp	r2, r3
 208 00c0 05D1     		bne	.L12
 209 00c2 0648     		ldr	r0, .L13+8
 210              		.loc 1 684 0
 211 00c4 02B0     		add	sp, sp, #8
 212              		.cfi_remember_state
 213              		.cfi_def_cfa_offset 8
 214              		@ sp needed
 215 00c6 BDE81040 		pop	{r4, lr}
 216              		.cfi_restore 14
 217              		.cfi_restore 4
 218              		.cfi_def_cfa_offset 0
 219              		.loc 1 682 0
 220 00ca FFF7FEBF 		b	test_println
 221              	.LVL31:
 222              	.L12:
 223              		.cfi_restore_state
 224 00ce FFF7FEFF 		bl	__stack_chk_fail
 225              	.LVL32:
 226              	.L14:
 227 00d2 00BF     		.align	2
 228              	.L13:
ARM GAS  C:\Users\Moi\AppData\Local\Temp\ccwG6ltn.s 			page 5


 229 00d4 00000000 		.word	__stack_chk_guard
 230 00d8 00000000 		.word	.LC0
 231 00dc 10000000 		.word	.LC1
 232 00e0 18000000 		.word	.LC2
 233 00e4 28000000 		.word	.LC3
 234 00e8 38000000 		.word	.LC4
 235 00ec 48000000 		.word	.LC5
 236 00f0 58000000 		.word	.LC6
 237 00f4 68000000 		.word	.LC7
 238 00f8 78000000 		.word	.LC8
 239 00fc 88000000 		.word	.LC9
 240 0100 98000000 		.word	.LC10
 241              		.cfi_endproc
 242              	.LFE241:
 243              		.size	bmk13_execute, .-bmk13_execute
 244              		.section	.text.thread2,"ax",%progbits
 245              		.align	1
 246              		.p2align 4,,15
 247              		.syntax unified
 248              		.thumb
 249              		.thumb_func
 250              		.fpu fpv4-sp-d16
 251              		.type	thread2, %function
 252              	thread2:
 253              	.LFB220:
 254              		.loc 1 72 0
 255              		.cfi_startproc
 256              		@ args = 0, pretend = 0, frame = 8
 257              		@ frame_needed = 0, uses_anonymous_args = 0
 258              	.LVL33:
 259 0000 30B5     		push	{r4, r5, lr}
 260              		.cfi_def_cfa_offset 12
 261              		.cfi_offset 4, -12
 262              		.cfi_offset 5, -8
 263              		.cfi_offset 14, -4
 264 0002 0A4D     		ldr	r5, .L21
 265 0004 83B0     		sub	sp, sp, #12
 266              		.cfi_def_cfa_offset 24
 267              		.loc 1 72 0
 268 0006 2B68     		ldr	r3, [r5]
 269 0008 0193     		str	r3, [sp, #4]
 270              	.LVL34:
 271              	.L16:
 272              		.loc 1 78 0 discriminator 1
 273 000a FFF7FEFF 		bl	chMsgWait
 274              	.LVL35:
 275              	.LBB143:
 276              	.LBB144:
 277              		.file 2 "..//ChibiOS//os/rt/include/chmsg.h"
 278              		.loc 2 98 0 discriminator 1
 279 000e 846B     		ldr	r4, [r0, #56]
 280              	.LVL36:
 281              	.LBE144:
 282              	.LBE143:
 283              		.loc 1 80 0 discriminator 1
 284 0010 2146     		mov	r1, r4
 285 0012 FFF7FEFF 		bl	chMsgRelease
ARM GAS  C:\Users\Moi\AppData\Local\Temp\ccwG6ltn.s 			page 6


 286              	.LVL37:
 287              		.loc 1 81 0 discriminator 1
 288 0016 002C     		cmp	r4, #0
 289 0018 F7D1     		bne	.L16
 290              		.loc 1 82 0
 291 001a 019A     		ldr	r2, [sp, #4]
 292 001c 2B68     		ldr	r3, [r5]
 293 001e 9A42     		cmp	r2, r3
 294 0020 01D1     		bne	.L20
 295 0022 03B0     		add	sp, sp, #12
 296              		.cfi_remember_state
 297              		.cfi_def_cfa_offset 12
 298              		@ sp needed
 299 0024 30BD     		pop	{r4, r5, pc}
 300              	.L20:
 301              		.cfi_restore_state
 302 0026 FFF7FEFF 		bl	__stack_chk_fail
 303              	.LVL38:
 304              	.L22:
 305 002a 00BF     		.align	2
 306              	.L21:
 307 002c 00000000 		.word	__stack_chk_guard
 308              		.cfi_endproc
 309              	.LFE220:
 310              		.size	thread2, .-thread2
 311              		.section	.text.bmk6_execute,"ax",%progbits
 312              		.align	1
 313              		.p2align 4,,15
 314              		.syntax unified
 315              		.thumb
 316              		.thumb_func
 317              		.fpu fpv4-sp-d16
 318              		.type	bmk6_execute, %function
 319              	bmk6_execute:
 320              	.LFB228:
 321              		.loc 1 307 0
 322              		.cfi_startproc
 323              		@ args = 0, pretend = 0, frame = 8
 324              		@ frame_needed = 0, uses_anonymous_args = 0
 325 0000 2DE9F047 		push	{r4, r5, r6, r7, r8, r9, r10, lr}
 326              		.cfi_def_cfa_offset 32
 327              		.cfi_offset 4, -32
 328              		.cfi_offset 5, -28
 329              		.cfi_offset 6, -24
 330              		.cfi_offset 7, -20
 331              		.cfi_offset 8, -16
 332              		.cfi_offset 9, -12
 333              		.cfi_offset 10, -8
 334              		.cfi_offset 14, -4
 335              	.LBB145:
 336              	.LBB146:
 337              	.LBB147:
 338              	.LBB148:
 339              		.file 3 "..//ChibiOS//os/rt/include/chthreads.h"
 340              		.loc 3 176 0
 341 0004 1B4B     		ldr	r3, .L31
 342              	.LBE148:
ARM GAS  C:\Users\Moi\AppData\Local\Temp\ccwG6ltn.s 			page 7


 343              	.LBE147:
 344              	.LBE146:
 345              	.LBE145:
 346              		.loc 1 307 0
 347 0006 DFF880A0 		ldr	r10, .L31+20
 348              	.LBB150:
 349              	.LBB149:
 350              		.loc 3 189 0
 351 000a 9A69     		ldr	r2, [r3, #24]
 352              	.LBE149:
 353              	.LBE150:
 354              		.loc 1 310 0
 355 000c 1A4B     		ldr	r3, .L31+4
 356              		.loc 1 311 0
 357 000e 9568     		ldr	r5, [r2, #8]
 358              		.loc 1 307 0
 359 0010 DAF80020 		ldr	r2, [r10]
 360              		.loc 1 310 0
 361 0014 D3F80090 		ldr	r9, [r3]
 362 0018 DFF87080 		ldr	r8, .L31+24
 363              		.loc 1 315 0
 364 001c 174F     		ldr	r7, .L31+8
 365              		.loc 1 307 0
 366 001e 84B0     		sub	sp, sp, #16
 367              		.cfi_def_cfa_offset 48
 368              		.loc 1 309 0
 369 0020 0024     		movs	r4, #0
 370              		.loc 1 307 0
 371 0022 0392     		str	r2, [sp, #12]
 372              	.LVL39:
 373              		.loc 1 312 0
 374 0024 FFF7FEFF 		bl	test_wait_tick
 375              	.LVL40:
 376              		.loc 1 313 0
 377 0028 4FF47A70 		mov	r0, #1000
 378 002c FFF7FEFF 		bl	test_start_timer
 379              	.LVL41:
 380              		.loc 1 311 0
 381 0030 0135     		adds	r5, r5, #1
 382              	.LVL42:
 383              		.loc 1 315 0
 384 0032 2646     		mov	r6, r4
 385              	.LVL43:
 386              	.L24:
 387              		.loc 1 315 0 is_stmt 0 discriminator 1
 388 0034 3B46     		mov	r3, r7
 389 0036 0096     		str	r6, [sp]
 390 0038 2A46     		mov	r2, r5
 391 003a 4FF4FC71 		mov	r1, #504
 392 003e 4846     		mov	r0, r9
 393 0040 FFF7FEFF 		bl	chThdCreateStatic
 394              	.LVL44:
 395              		.loc 1 320 0 is_stmt 1 discriminator 1
 396 0044 98F80030 		ldrb	r3, [r8]	@ zero_extendqisi2
 397              		.loc 1 316 0 discriminator 1
 398 0048 0134     		adds	r4, r4, #1
 399              	.LVL45:
ARM GAS  C:\Users\Moi\AppData\Local\Temp\ccwG6ltn.s 			page 8


 400              		.loc 1 320 0 discriminator 1
 401 004a 002B     		cmp	r3, #0
 402 004c F2D0     		beq	.L24
 403              		.loc 1 321 0
 404 004e 0C48     		ldr	r0, .L31+12
 405 0050 FFF7FEFF 		bl	test_print
 406              	.LVL46:
 407              		.loc 1 322 0
 408 0054 2046     		mov	r0, r4
 409 0056 FFF7FEFF 		bl	test_printn
 410              	.LVL47:
 411              		.loc 1 323 0
 412 005a 039A     		ldr	r2, [sp, #12]
 413 005c DAF80030 		ldr	r3, [r10]
 414 0060 9A42     		cmp	r2, r3
 415 0062 05D1     		bne	.L30
 416 0064 0748     		ldr	r0, .L31+16
 417              		.loc 1 324 0
 418 0066 04B0     		add	sp, sp, #16
 419              		.cfi_remember_state
 420              		.cfi_def_cfa_offset 32
 421              		@ sp needed
 422 0068 BDE8F047 		pop	{r4, r5, r6, r7, r8, r9, r10, lr}
 423              		.cfi_restore 14
 424              		.cfi_restore 10
 425              		.cfi_restore 9
 426              		.cfi_restore 8
 427              		.cfi_restore 7
 428              		.cfi_restore 6
 429              		.cfi_restore 5
 430              		.cfi_restore 4
 431              		.cfi_def_cfa_offset 0
 432              	.LVL48:
 433              		.loc 1 323 0
 434 006c FFF7FEBF 		b	test_println
 435              	.LVL49:
 436              	.L30:
 437              		.cfi_restore_state
 438 0070 FFF7FEFF 		bl	__stack_chk_fail
 439              	.LVL50:
 440              	.L32:
 441              		.align	2
 442              	.L31:
 443 0074 00000000 		.word	ch
 444 0078 00000000 		.word	wa
 445 007c 00000000 		.word	thread1
 446 0080 00000000 		.word	.LC11
 447 0084 10000000 		.word	.LC12
 448 0088 00000000 		.word	__stack_chk_guard
 449 008c 00000000 		.word	test_timer_done
 450              		.cfi_endproc
 451              	.LFE228:
 452              		.size	bmk6_execute, .-bmk6_execute
 453              		.section	.text.msg_loop_test,"ax",%progbits
 454              		.align	1
 455              		.p2align 4,,15
 456              		.syntax unified
ARM GAS  C:\Users\Moi\AppData\Local\Temp\ccwG6ltn.s 			page 9


 457              		.thumb
 458              		.thumb_func
 459              		.fpu fpv4-sp-d16
 460              		.type	msg_loop_test, %function
 461              	msg_loop_test:
 462              	.LFB221:
 463              		.loc 1 87 0
 464              		.cfi_startproc
 465              		@ args = 0, pretend = 0, frame = 8
 466              		@ frame_needed = 0, uses_anonymous_args = 0
 467              	.LVL51:
 468 0000 F0B5     		push	{r4, r5, r6, r7, lr}
 469              		.cfi_def_cfa_offset 20
 470              		.cfi_offset 4, -20
 471              		.cfi_offset 5, -16
 472              		.cfi_offset 6, -12
 473              		.cfi_offset 7, -8
 474              		.cfi_offset 14, -4
 475 0002 114F     		ldr	r7, .L40
 476 0004 114E     		ldr	r6, .L40+4
 477 0006 3B68     		ldr	r3, [r7]
 478 0008 83B0     		sub	sp, sp, #12
 479              		.cfi_def_cfa_offset 32
 480              		.loc 1 87 0
 481 000a 0546     		mov	r5, r0
 482 000c 0193     		str	r3, [sp, #4]
 483              	.LVL52:
 484              		.loc 1 90 0
 485 000e FFF7FEFF 		bl	test_wait_tick
 486              	.LVL53:
 487              		.loc 1 91 0
 488 0012 4FF47A70 		mov	r0, #1000
 489 0016 FFF7FEFF 		bl	test_start_timer
 490              	.LVL54:
 491              		.loc 1 89 0
 492 001a 0024     		movs	r4, #0
 493              	.LVL55:
 494              	.L34:
 495              		.loc 1 93 0 discriminator 1
 496 001c 0121     		movs	r1, #1
 497 001e 2846     		mov	r0, r5
 498 0020 FFF7FEFF 		bl	chMsgSend
 499              	.LVL56:
 500              		.loc 1 98 0 discriminator 1
 501 0024 3378     		ldrb	r3, [r6]	@ zero_extendqisi2
 502              		.loc 1 94 0 discriminator 1
 503 0026 0134     		adds	r4, r4, #1
 504              	.LVL57:
 505              		.loc 1 98 0 discriminator 1
 506 0028 002B     		cmp	r3, #0
 507 002a F7D0     		beq	.L34
 508              		.loc 1 99 0
 509 002c 2846     		mov	r0, r5
 510 002e 0021     		movs	r1, #0
 511 0030 FFF7FEFF 		bl	chMsgSend
 512              	.LVL58:
 513              		.loc 1 101 0
ARM GAS  C:\Users\Moi\AppData\Local\Temp\ccwG6ltn.s 			page 10


 514 0034 019A     		ldr	r2, [sp, #4]
 515 0036 3B68     		ldr	r3, [r7]
 516 0038 9A42     		cmp	r2, r3
 517 003a 2046     		mov	r0, r4
 518 003c 01D1     		bne	.L39
 519 003e 03B0     		add	sp, sp, #12
 520              		.cfi_remember_state
 521              		.cfi_def_cfa_offset 20
 522              		@ sp needed
 523 0040 F0BD     		pop	{r4, r5, r6, r7, pc}
 524              	.LVL59:
 525              	.L39:
 526              		.cfi_restore_state
 527 0042 FFF7FEFF 		bl	__stack_chk_fail
 528              	.LVL60:
 529              	.L41:
 530 0046 00BF     		.align	2
 531              	.L40:
 532 0048 00000000 		.word	__stack_chk_guard
 533 004c 00000000 		.word	test_timer_done
 534              		.cfi_endproc
 535              	.LFE221:
 536              		.size	msg_loop_test, .-msg_loop_test
 537              		.section	.text.bmk1_execute,"ax",%progbits
 538              		.align	1
 539              		.p2align 4,,15
 540              		.syntax unified
 541              		.thumb
 542              		.thumb_func
 543              		.fpu fpv4-sp-d16
 544              		.type	bmk1_execute, %function
 545              	bmk1_execute:
 546              	.LFB222:
 547              		.loc 1 112 0
 548              		.cfi_startproc
 549              		@ args = 0, pretend = 0, frame = 8
 550              		@ frame_needed = 0, uses_anonymous_args = 0
 551 0000 30B5     		push	{r4, r5, lr}
 552              		.cfi_def_cfa_offset 12
 553              		.cfi_offset 4, -12
 554              		.cfi_offset 5, -8
 555              		.cfi_offset 14, -4
 556              	.LBB151:
 557              	.LBB152:
 558              	.LBB153:
 559              	.LBB154:
 560              		.loc 3 176 0
 561 0002 184B     		ldr	r3, .L47
 562              	.LBE154:
 563              	.LBE153:
 564              	.LBE152:
 565              	.LBE151:
 566              		.loc 1 115 0
 567 0004 184A     		ldr	r2, .L47+4
 568              	.LBB156:
 569              	.LBB155:
 570              		.loc 3 189 0
ARM GAS  C:\Users\Moi\AppData\Local\Temp\ccwG6ltn.s 			page 11


 571 0006 9B69     		ldr	r3, [r3, #24]
 572              	.LBE155:
 573              	.LBE156:
 574              		.loc 1 112 0
 575 0008 184C     		ldr	r4, .L47+8
 576              		.loc 1 115 0
 577 000a 1068     		ldr	r0, [r2]
 578              		.loc 1 112 0
 579 000c 2168     		ldr	r1, [r4]
 580              		.loc 1 115 0
 581 000e 9A68     		ldr	r2, [r3, #8]
 582 0010 174B     		ldr	r3, .L47+12
 583              		.loc 1 112 0
 584 0012 85B0     		sub	sp, sp, #20
 585              		.cfi_def_cfa_offset 32
 586              		.loc 1 115 0
 587 0014 013A     		subs	r2, r2, #1
 588              		.loc 1 112 0
 589 0016 0391     		str	r1, [sp, #12]
 590              		.loc 1 115 0
 591 0018 0021     		movs	r1, #0
 592 001a 0091     		str	r1, [sp]
 593 001c 4FF4FC71 		mov	r1, #504
 594 0020 FFF7FEFF 		bl	chThdCreateStatic
 595              	.LVL61:
 596 0024 134B     		ldr	r3, .L47+16
 597 0026 1860     		str	r0, [r3]
 598              		.loc 1 116 0
 599 0028 FFF7FEFF 		bl	msg_loop_test
 600              	.LVL62:
 601 002c 0546     		mov	r5, r0
 602              	.LVL63:
 603              		.loc 1 117 0
 604 002e FFF7FEFF 		bl	test_wait_threads
 605              	.LVL64:
 606              		.loc 1 118 0
 607 0032 1148     		ldr	r0, .L47+20
 608 0034 FFF7FEFF 		bl	test_print
 609              	.LVL65:
 610              		.loc 1 119 0
 611 0038 2846     		mov	r0, r5
 612 003a FFF7FEFF 		bl	test_printn
 613              	.LVL66:
 614              		.loc 1 120 0
 615 003e 0F48     		ldr	r0, .L47+24
 616 0040 FFF7FEFF 		bl	test_print
 617              	.LVL67:
 618              		.loc 1 121 0
 619 0044 6800     		lsls	r0, r5, #1
 620 0046 FFF7FEFF 		bl	test_printn
 621              	.LVL68:
 622              		.loc 1 122 0
 623 004a 039A     		ldr	r2, [sp, #12]
 624 004c 2368     		ldr	r3, [r4]
 625 004e 9A42     		cmp	r2, r3
 626 0050 05D1     		bne	.L46
 627 0052 0B48     		ldr	r0, .L47+28
ARM GAS  C:\Users\Moi\AppData\Local\Temp\ccwG6ltn.s 			page 12


 628              		.loc 1 123 0
 629 0054 05B0     		add	sp, sp, #20
 630              		.cfi_remember_state
 631              		.cfi_def_cfa_offset 12
 632              		@ sp needed
 633 0056 BDE83040 		pop	{r4, r5, lr}
 634              		.cfi_restore 14
 635              		.cfi_restore 5
 636              		.cfi_restore 4
 637              		.cfi_def_cfa_offset 0
 638              	.LVL69:
 639              		.loc 1 122 0
 640 005a FFF7FEBF 		b	test_println
 641              	.LVL70:
 642              	.L46:
 643              		.cfi_restore_state
 644 005e FFF7FEFF 		bl	__stack_chk_fail
 645              	.LVL71:
 646              	.L48:
 647 0062 00BF     		.align	2
 648              	.L47:
 649 0064 00000000 		.word	ch
 650 0068 00000000 		.word	wa
 651 006c 00000000 		.word	__stack_chk_guard
 652 0070 00000000 		.word	thread2
 653 0074 00000000 		.word	threads
 654 0078 00000000 		.word	.LC11
 655 007c 00000000 		.word	.LC13
 656 0080 0C000000 		.word	.LC14
 657              		.cfi_endproc
 658              	.LFE222:
 659              		.size	bmk1_execute, .-bmk1_execute
 660              		.section	.text.bmk2_execute,"ax",%progbits
 661              		.align	1
 662              		.p2align 4,,15
 663              		.syntax unified
 664              		.thumb
 665              		.thumb_func
 666              		.fpu fpv4-sp-d16
 667              		.type	bmk2_execute, %function
 668              	bmk2_execute:
 669              	.LFB223:
 670              		.loc 1 141 0
 671              		.cfi_startproc
 672              		@ args = 0, pretend = 0, frame = 8
 673              		@ frame_needed = 0, uses_anonymous_args = 0
 674 0000 30B5     		push	{r4, r5, lr}
 675              		.cfi_def_cfa_offset 12
 676              		.cfi_offset 4, -12
 677              		.cfi_offset 5, -8
 678              		.cfi_offset 14, -4
 679              	.LBB157:
 680              	.LBB158:
 681              	.LBB159:
 682              	.LBB160:
 683              		.loc 3 176 0
 684 0002 184B     		ldr	r3, .L54
ARM GAS  C:\Users\Moi\AppData\Local\Temp\ccwG6ltn.s 			page 13


 685              	.LBE160:
 686              	.LBE159:
 687              	.LBE158:
 688              	.LBE157:
 689              		.loc 1 144 0
 690 0004 184A     		ldr	r2, .L54+4
 691              	.LBB162:
 692              	.LBB161:
 693              		.loc 3 189 0
 694 0006 9B69     		ldr	r3, [r3, #24]
 695              	.LBE161:
 696              	.LBE162:
 697              		.loc 1 141 0
 698 0008 184C     		ldr	r4, .L54+8
 699              		.loc 1 144 0
 700 000a 1068     		ldr	r0, [r2]
 701              		.loc 1 141 0
 702 000c 2168     		ldr	r1, [r4]
 703              		.loc 1 144 0
 704 000e 9A68     		ldr	r2, [r3, #8]
 705 0010 174B     		ldr	r3, .L54+12
 706              		.loc 1 141 0
 707 0012 85B0     		sub	sp, sp, #20
 708              		.cfi_def_cfa_offset 32
 709              		.loc 1 144 0
 710 0014 0132     		adds	r2, r2, #1
 711              		.loc 1 141 0
 712 0016 0391     		str	r1, [sp, #12]
 713              		.loc 1 144 0
 714 0018 0021     		movs	r1, #0
 715 001a 0091     		str	r1, [sp]
 716 001c 4FF4FC71 		mov	r1, #504
 717 0020 FFF7FEFF 		bl	chThdCreateStatic
 718              	.LVL72:
 719 0024 134B     		ldr	r3, .L54+16
 720 0026 1860     		str	r0, [r3]
 721              		.loc 1 145 0
 722 0028 FFF7FEFF 		bl	msg_loop_test
 723              	.LVL73:
 724 002c 0546     		mov	r5, r0
 725              	.LVL74:
 726              		.loc 1 146 0
 727 002e FFF7FEFF 		bl	test_wait_threads
 728              	.LVL75:
 729              		.loc 1 147 0
 730 0032 1148     		ldr	r0, .L54+20
 731 0034 FFF7FEFF 		bl	test_print
 732              	.LVL76:
 733              		.loc 1 148 0
 734 0038 2846     		mov	r0, r5
 735 003a FFF7FEFF 		bl	test_printn
 736              	.LVL77:
 737              		.loc 1 149 0
 738 003e 0F48     		ldr	r0, .L54+24
 739 0040 FFF7FEFF 		bl	test_print
 740              	.LVL78:
 741              		.loc 1 150 0
ARM GAS  C:\Users\Moi\AppData\Local\Temp\ccwG6ltn.s 			page 14


 742 0044 6800     		lsls	r0, r5, #1
 743 0046 FFF7FEFF 		bl	test_printn
 744              	.LVL79:
 745              		.loc 1 151 0
 746 004a 039A     		ldr	r2, [sp, #12]
 747 004c 2368     		ldr	r3, [r4]
 748 004e 9A42     		cmp	r2, r3
 749 0050 05D1     		bne	.L53
 750 0052 0B48     		ldr	r0, .L54+28
 751              		.loc 1 152 0
 752 0054 05B0     		add	sp, sp, #20
 753              		.cfi_remember_state
 754              		.cfi_def_cfa_offset 12
 755              		@ sp needed
 756 0056 BDE83040 		pop	{r4, r5, lr}
 757              		.cfi_restore 14
 758              		.cfi_restore 5
 759              		.cfi_restore 4
 760              		.cfi_def_cfa_offset 0
 761              	.LVL80:
 762              		.loc 1 151 0
 763 005a FFF7FEBF 		b	test_println
 764              	.LVL81:
 765              	.L53:
 766              		.cfi_restore_state
 767 005e FFF7FEFF 		bl	__stack_chk_fail
 768              	.LVL82:
 769              	.L55:
 770 0062 00BF     		.align	2
 771              	.L54:
 772 0064 00000000 		.word	ch
 773 0068 00000000 		.word	wa
 774 006c 00000000 		.word	__stack_chk_guard
 775 0070 00000000 		.word	thread2
 776 0074 00000000 		.word	threads
 777 0078 00000000 		.word	.LC11
 778 007c 00000000 		.word	.LC13
 779 0080 0C000000 		.word	.LC14
 780              		.cfi_endproc
 781              	.LFE223:
 782              		.size	bmk2_execute, .-bmk2_execute
 783              		.section	.text.bmk3_execute,"ax",%progbits
 784              		.align	1
 785              		.p2align 4,,15
 786              		.syntax unified
 787              		.thumb
 788              		.thumb_func
 789              		.fpu fpv4-sp-d16
 790              		.type	bmk3_execute, %function
 791              	bmk3_execute:
 792              	.LFB224:
 793              		.loc 1 171 0
 794              		.cfi_startproc
 795              		@ args = 0, pretend = 0, frame = 8
 796              		@ frame_needed = 0, uses_anonymous_args = 0
 797 0000 2DE9F041 		push	{r4, r5, r6, r7, r8, lr}
 798              		.cfi_def_cfa_offset 24
ARM GAS  C:\Users\Moi\AppData\Local\Temp\ccwG6ltn.s 			page 15


 799              		.cfi_offset 4, -24
 800              		.cfi_offset 5, -20
 801              		.cfi_offset 6, -16
 802              		.cfi_offset 7, -12
 803              		.cfi_offset 8, -8
 804              		.cfi_offset 14, -4
 805              	.LBB163:
 806              	.LBB164:
 807              	.LBB165:
 808              	.LBB166:
 809              		.loc 3 176 0
 810 0004 314F     		ldr	r7, .L61
 811              	.LBE166:
 812              	.LBE165:
 813              	.LBE164:
 814              	.LBE163:
 815              		.loc 1 171 0
 816 0006 DFF8E480 		ldr	r8, .L61+32
 817              	.LBB168:
 818              	.LBB167:
 819              		.loc 3 189 0
 820 000a BB69     		ldr	r3, [r7, #24]
 821              	.LBE167:
 822              	.LBE168:
 823              		.loc 1 174 0
 824 000c 304E     		ldr	r6, .L61+4
 825 000e 9A68     		ldr	r2, [r3, #8]
 826              		.loc 1 171 0
 827 0010 D8F80010 		ldr	r1, [r8]
 828              		.loc 1 174 0
 829 0014 2F4B     		ldr	r3, .L61+8
 830 0016 3068     		ldr	r0, [r6]
 831 0018 2F4C     		ldr	r4, .L61+12
 832              		.loc 1 171 0
 833 001a 84B0     		sub	sp, sp, #16
 834              		.cfi_def_cfa_offset 40
 835              		.loc 1 174 0
 836 001c 0025     		movs	r5, #0
 837              		.loc 1 171 0
 838 001e 0391     		str	r1, [sp, #12]
 839              		.loc 1 174 0
 840 0020 0132     		adds	r2, r2, #1
 841 0022 4FF4FC71 		mov	r1, #504
 842 0026 0095     		str	r5, [sp]
 843 0028 FFF7FEFF 		bl	chThdCreateStatic
 844              	.LVL83:
 845              	.LBB169:
 846              	.LBB170:
 847              		.loc 3 189 0
 848 002c BB69     		ldr	r3, [r7, #24]
 849              	.LBE170:
 850              	.LBE169:
 851              		.loc 1 175 0
 852 002e 9A68     		ldr	r2, [r3, #8]
 853 0030 7368     		ldr	r3, [r6, #4]
 854              		.loc 1 174 0
 855 0032 2060     		str	r0, [r4]
ARM GAS  C:\Users\Moi\AppData\Local\Temp\ccwG6ltn.s 			page 16


 856              		.loc 1 175 0
 857 0034 023A     		subs	r2, r2, #2
 858 0036 1846     		mov	r0, r3
 859 0038 4FF4FC71 		mov	r1, #504
 860 003c 274B     		ldr	r3, .L61+16
 861 003e 0095     		str	r5, [sp]
 862 0040 FFF7FEFF 		bl	chThdCreateStatic
 863              	.LVL84:
 864              	.LBB171:
 865              	.LBB172:
 866              		.loc 3 189 0
 867 0044 BA69     		ldr	r2, [r7, #24]
 868              	.LBE172:
 869              	.LBE171:
 870              		.loc 1 176 0
 871 0046 B368     		ldr	r3, [r6, #8]
 872 0048 9268     		ldr	r2, [r2, #8]
 873              		.loc 1 175 0
 874 004a 6060     		str	r0, [r4, #4]
 875              		.loc 1 176 0
 876 004c 033A     		subs	r2, r2, #3
 877 004e 1846     		mov	r0, r3
 878 0050 4FF4FC71 		mov	r1, #504
 879 0054 214B     		ldr	r3, .L61+16
 880 0056 0095     		str	r5, [sp]
 881 0058 FFF7FEFF 		bl	chThdCreateStatic
 882              	.LVL85:
 883              	.LBB173:
 884              	.LBB174:
 885              		.loc 3 189 0
 886 005c BA69     		ldr	r2, [r7, #24]
 887              	.LBE174:
 888              	.LBE173:
 889              		.loc 1 177 0
 890 005e F368     		ldr	r3, [r6, #12]
 891 0060 9268     		ldr	r2, [r2, #8]
 892              		.loc 1 176 0
 893 0062 A060     		str	r0, [r4, #8]
 894              		.loc 1 177 0
 895 0064 043A     		subs	r2, r2, #4
 896 0066 1846     		mov	r0, r3
 897 0068 4FF4FC71 		mov	r1, #504
 898 006c 1B4B     		ldr	r3, .L61+16
 899 006e 0095     		str	r5, [sp]
 900 0070 FFF7FEFF 		bl	chThdCreateStatic
 901              	.LVL86:
 902              	.LBB175:
 903              	.LBB176:
 904              		.loc 3 189 0
 905 0074 BA69     		ldr	r2, [r7, #24]
 906              	.LBE176:
 907              	.LBE175:
 908              		.loc 1 178 0
 909 0076 3369     		ldr	r3, [r6, #16]
 910 0078 9268     		ldr	r2, [r2, #8]
 911              		.loc 1 177 0
 912 007a E060     		str	r0, [r4, #12]
ARM GAS  C:\Users\Moi\AppData\Local\Temp\ccwG6ltn.s 			page 17


 913              		.loc 1 178 0
 914 007c 053A     		subs	r2, r2, #5
 915 007e 4FF4FC71 		mov	r1, #504
 916 0082 1846     		mov	r0, r3
 917 0084 0095     		str	r5, [sp]
 918 0086 154B     		ldr	r3, .L61+16
 919 0088 FFF7FEFF 		bl	chThdCreateStatic
 920              	.LVL87:
 921 008c 2061     		str	r0, [r4, #16]
 922              		.loc 1 179 0
 923 008e 2068     		ldr	r0, [r4]
 924 0090 FFF7FEFF 		bl	msg_loop_test
 925              	.LVL88:
 926 0094 0446     		mov	r4, r0
 927              	.LVL89:
 928              		.loc 1 180 0
 929 0096 FFF7FEFF 		bl	test_wait_threads
 930              	.LVL90:
 931              		.loc 1 181 0
 932 009a 1148     		ldr	r0, .L61+20
 933 009c FFF7FEFF 		bl	test_print
 934              	.LVL91:
 935              		.loc 1 182 0
 936 00a0 2046     		mov	r0, r4
 937 00a2 FFF7FEFF 		bl	test_printn
 938              	.LVL92:
 939              		.loc 1 183 0
 940 00a6 0F48     		ldr	r0, .L61+24
 941 00a8 FFF7FEFF 		bl	test_print
 942              	.LVL93:
 943              		.loc 1 184 0
 944 00ac 6000     		lsls	r0, r4, #1
 945 00ae FFF7FEFF 		bl	test_printn
 946              	.LVL94:
 947              		.loc 1 185 0
 948 00b2 039A     		ldr	r2, [sp, #12]
 949 00b4 D8F80030 		ldr	r3, [r8]
 950 00b8 9A42     		cmp	r2, r3
 951 00ba 05D1     		bne	.L60
 952 00bc 0A48     		ldr	r0, .L61+28
 953              		.loc 1 186 0
 954 00be 04B0     		add	sp, sp, #16
 955              		.cfi_remember_state
 956              		.cfi_def_cfa_offset 24
 957              		@ sp needed
 958 00c0 BDE8F041 		pop	{r4, r5, r6, r7, r8, lr}
 959              		.cfi_restore 14
 960              		.cfi_restore 8
 961              		.cfi_restore 7
 962              		.cfi_restore 6
 963              		.cfi_restore 5
 964              		.cfi_restore 4
 965              		.cfi_def_cfa_offset 0
 966              	.LVL95:
 967              		.loc 1 185 0
 968 00c4 FFF7FEBF 		b	test_println
 969              	.LVL96:
ARM GAS  C:\Users\Moi\AppData\Local\Temp\ccwG6ltn.s 			page 18


 970              	.L60:
 971              		.cfi_restore_state
 972 00c8 FFF7FEFF 		bl	__stack_chk_fail
 973              	.LVL97:
 974              	.L62:
 975              		.align	2
 976              	.L61:
 977 00cc 00000000 		.word	ch
 978 00d0 00000000 		.word	wa
 979 00d4 00000000 		.word	thread2
 980 00d8 00000000 		.word	threads
 981 00dc 00000000 		.word	thread1
 982 00e0 00000000 		.word	.LC11
 983 00e4 00000000 		.word	.LC13
 984 00e8 0C000000 		.word	.LC14
 985 00ec 00000000 		.word	__stack_chk_guard
 986              		.cfi_endproc
 987              	.LFE224:
 988              		.size	bmk3_execute, .-bmk3_execute
 989              		.section	.text.thread1,"ax",%progbits
 990              		.align	1
 991              		.p2align 4,,15
 992              		.syntax unified
 993              		.thumb
 994              		.thumb_func
 995              		.fpu fpv4-sp-d16
 996              		.type	thread1, %function
 997              	thread1:
 998              	.LFB219:
 999              		.loc 1 66 0
 1000              		.cfi_startproc
 1001              		@ args = 0, pretend = 0, frame = 8
 1002              		@ frame_needed = 0, uses_anonymous_args = 0
 1003              	.LVL98:
 1004 0000 00B5     		push	{lr}
 1005              		.cfi_def_cfa_offset 4
 1006              		.cfi_offset 14, -4
 1007 0002 074B     		ldr	r3, .L68
 1008 0004 83B0     		sub	sp, sp, #12
 1009              		.cfi_def_cfa_offset 16
 1010              		.loc 1 66 0
 1011 0006 1A68     		ldr	r2, [r3]
 1012 0008 0192     		str	r2, [sp, #4]
 1013              		.loc 1 68 0
 1014 000a 019A     		ldr	r2, [sp, #4]
 1015 000c 1B68     		ldr	r3, [r3]
 1016 000e 9A42     		cmp	r2, r3
 1017 0010 04D1     		bne	.L67
 1018              		.loc 1 69 0
 1019 0012 03B0     		add	sp, sp, #12
 1020              		.cfi_remember_state
 1021              		.cfi_def_cfa_offset 4
 1022              		@ sp needed
 1023 0014 5DF804EB 		ldr	lr, [sp], #4
 1024              		.cfi_restore 14
 1025              		.cfi_def_cfa_offset 0
 1026              		.loc 1 68 0
ARM GAS  C:\Users\Moi\AppData\Local\Temp\ccwG6ltn.s 			page 19


 1027 0018 FFF7FEBF 		b	chThdExit
 1028              	.LVL99:
 1029              	.L67:
 1030              		.cfi_restore_state
 1031 001c FFF7FEFF 		bl	__stack_chk_fail
 1032              	.LVL100:
 1033              	.L69:
 1034              		.align	2
 1035              	.L68:
 1036 0020 00000000 		.word	__stack_chk_guard
 1037              		.cfi_endproc
 1038              	.LFE219:
 1039              		.size	thread1, .-thread1
 1040              		.section	.text.bmk5_execute,"ax",%progbits
 1041              		.align	1
 1042              		.p2align 4,,15
 1043              		.syntax unified
 1044              		.thumb
 1045              		.thumb_func
 1046              		.fpu fpv4-sp-d16
 1047              		.type	bmk5_execute, %function
 1048              	bmk5_execute:
 1049              	.LFB227:
 1050              		.loc 1 268 0
 1051              		.cfi_startproc
 1052              		@ args = 0, pretend = 0, frame = 8
 1053              		@ frame_needed = 0, uses_anonymous_args = 0
 1054 0000 2DE9F047 		push	{r4, r5, r6, r7, r8, r9, r10, lr}
 1055              		.cfi_def_cfa_offset 32
 1056              		.cfi_offset 4, -32
 1057              		.cfi_offset 5, -28
 1058              		.cfi_offset 6, -24
 1059              		.cfi_offset 7, -20
 1060              		.cfi_offset 8, -16
 1061              		.cfi_offset 9, -12
 1062              		.cfi_offset 10, -8
 1063              		.cfi_offset 14, -4
 1064              	.LBB177:
 1065              	.LBB178:
 1066              	.LBB179:
 1067              	.LBB180:
 1068              		.loc 3 176 0
 1069 0004 1C4B     		ldr	r3, .L78
 1070              	.LBE180:
 1071              	.LBE179:
 1072              	.LBE178:
 1073              	.LBE177:
 1074              		.loc 1 268 0
 1075 0006 DFF884A0 		ldr	r10, .L78+20
 1076              	.LBB182:
 1077              	.LBB181:
 1078              		.loc 3 189 0
 1079 000a 9A69     		ldr	r2, [r3, #24]
 1080              	.LBE181:
 1081              	.LBE182:
 1082              		.loc 1 271 0
 1083 000c 1B4B     		ldr	r3, .L78+4
ARM GAS  C:\Users\Moi\AppData\Local\Temp\ccwG6ltn.s 			page 20


 1084              		.loc 1 272 0
 1085 000e 9568     		ldr	r5, [r2, #8]
 1086              		.loc 1 268 0
 1087 0010 DAF80020 		ldr	r2, [r10]
 1088              		.loc 1 271 0
 1089 0014 D3F80090 		ldr	r9, [r3]
 1090 0018 DFF87480 		ldr	r8, .L78+24
 1091              		.loc 1 276 0
 1092 001c 184F     		ldr	r7, .L78+8
 1093              		.loc 1 268 0
 1094 001e 84B0     		sub	sp, sp, #16
 1095              		.cfi_def_cfa_offset 48
 1096              		.loc 1 270 0
 1097 0020 0024     		movs	r4, #0
 1098              		.loc 1 268 0
 1099 0022 0392     		str	r2, [sp, #12]
 1100              	.LVL101:
 1101              		.loc 1 273 0
 1102 0024 FFF7FEFF 		bl	test_wait_tick
 1103              	.LVL102:
 1104              		.loc 1 274 0
 1105 0028 4FF47A70 		mov	r0, #1000
 1106 002c FFF7FEFF 		bl	test_start_timer
 1107              	.LVL103:
 1108              		.loc 1 272 0
 1109 0030 013D     		subs	r5, r5, #1
 1110              	.LVL104:
 1111              		.loc 1 276 0
 1112 0032 2646     		mov	r6, r4
 1113              	.LVL105:
 1114              	.L71:
 1115              		.loc 1 276 0 is_stmt 0 discriminator 1
 1116 0034 3B46     		mov	r3, r7
 1117 0036 2A46     		mov	r2, r5
 1118 0038 4FF4FC71 		mov	r1, #504
 1119 003c 0096     		str	r6, [sp]
 1120 003e 4846     		mov	r0, r9
 1121 0040 FFF7FEFF 		bl	chThdCreateStatic
 1122              	.LVL106:
 1123 0044 FFF7FEFF 		bl	chThdWait
 1124              	.LVL107:
 1125              		.loc 1 281 0 is_stmt 1 discriminator 1
 1126 0048 98F80030 		ldrb	r3, [r8]	@ zero_extendqisi2
 1127              		.loc 1 277 0 discriminator 1
 1128 004c 0134     		adds	r4, r4, #1
 1129              	.LVL108:
 1130              		.loc 1 281 0 discriminator 1
 1131 004e 002B     		cmp	r3, #0
 1132 0050 F0D0     		beq	.L71
 1133              		.loc 1 282 0
 1134 0052 0C48     		ldr	r0, .L78+12
 1135 0054 FFF7FEFF 		bl	test_print
 1136              	.LVL109:
 1137              		.loc 1 283 0
 1138 0058 2046     		mov	r0, r4
 1139 005a FFF7FEFF 		bl	test_printn
 1140              	.LVL110:
ARM GAS  C:\Users\Moi\AppData\Local\Temp\ccwG6ltn.s 			page 21


 1141              		.loc 1 284 0
 1142 005e 039A     		ldr	r2, [sp, #12]
 1143 0060 DAF80030 		ldr	r3, [r10]
 1144 0064 9A42     		cmp	r2, r3
 1145 0066 05D1     		bne	.L77
 1146 0068 0748     		ldr	r0, .L78+16
 1147              		.loc 1 285 0
 1148 006a 04B0     		add	sp, sp, #16
 1149              		.cfi_remember_state
 1150              		.cfi_def_cfa_offset 32
 1151              		@ sp needed
 1152 006c BDE8F047 		pop	{r4, r5, r6, r7, r8, r9, r10, lr}
 1153              		.cfi_restore 14
 1154              		.cfi_restore 10
 1155              		.cfi_restore 9
 1156              		.cfi_restore 8
 1157              		.cfi_restore 7
 1158              		.cfi_restore 6
 1159              		.cfi_restore 5
 1160              		.cfi_restore 4
 1161              		.cfi_def_cfa_offset 0
 1162              	.LVL111:
 1163              		.loc 1 284 0
 1164 0070 FFF7FEBF 		b	test_println
 1165              	.LVL112:
 1166              	.L77:
 1167              		.cfi_restore_state
 1168 0074 FFF7FEFF 		bl	__stack_chk_fail
 1169              	.LVL113:
 1170              	.L79:
 1171              		.align	2
 1172              	.L78:
 1173 0078 00000000 		.word	ch
 1174 007c 00000000 		.word	wa
 1175 0080 00000000 		.word	thread1
 1176 0084 00000000 		.word	.LC11
 1177 0088 10000000 		.word	.LC12
 1178 008c 00000000 		.word	__stack_chk_guard
 1179 0090 00000000 		.word	test_timer_done
 1180              		.cfi_endproc
 1181              	.LFE227:
 1182              		.size	bmk5_execute, .-bmk5_execute
 1183              		.section	.text.bmk7_execute,"ax",%progbits
 1184              		.align	1
 1185              		.p2align 4,,15
 1186              		.syntax unified
 1187              		.thumb
 1188              		.thumb_func
 1189              		.fpu fpv4-sp-d16
 1190              		.type	bmk7_execute, %function
 1191              	bmk7_execute:
 1192              	.LFB231:
 1193              		.loc 1 357 0
 1194              		.cfi_startproc
 1195              		@ args = 0, pretend = 0, frame = 8
 1196              		@ frame_needed = 0, uses_anonymous_args = 0
 1197 0000 2DE9F043 		push	{r4, r5, r6, r7, r8, r9, lr}
ARM GAS  C:\Users\Moi\AppData\Local\Temp\ccwG6ltn.s 			page 22


 1198              		.cfi_def_cfa_offset 28
 1199              		.cfi_offset 4, -28
 1200              		.cfi_offset 5, -24
 1201              		.cfi_offset 6, -20
 1202              		.cfi_offset 7, -16
 1203              		.cfi_offset 8, -12
 1204              		.cfi_offset 9, -8
 1205              		.cfi_offset 14, -4
 1206              	.LBB183:
 1207              	.LBB184:
 1208              	.LBB185:
 1209              	.LBB186:
 1210              		.loc 3 176 0
 1211 0004 DFF81891 		ldr	r9, .L88+32
 1212              	.LBE186:
 1213              	.LBE185:
 1214              	.LBE184:
 1215              	.LBE183:
 1216              		.loc 1 357 0
 1217 0008 DFF81881 		ldr	r8, .L88+36
 1218              	.LBB188:
 1219              	.LBB187:
 1220              		.loc 3 189 0
 1221 000c D9F81830 		ldr	r3, [r9, #24]
 1222              	.LBE187:
 1223              	.LBE188:
 1224              		.loc 1 360 0
 1225 0010 3B4D     		ldr	r5, .L88
 1226 0012 9A68     		ldr	r2, [r3, #8]
 1227              		.loc 1 357 0
 1228 0014 D8F80010 		ldr	r1, [r8]
 1229              		.loc 1 360 0
 1230 0018 2868     		ldr	r0, [r5]
 1231 001a 3A4B     		ldr	r3, .L88+4
 1232 001c 3A4F     		ldr	r7, .L88+8
 1233 001e 3B4E     		ldr	r6, .L88+12
 1234              		.loc 1 357 0
 1235 0020 85B0     		sub	sp, sp, #20
 1236              		.cfi_def_cfa_offset 48
 1237              		.loc 1 360 0
 1238 0022 0024     		movs	r4, #0
 1239              		.loc 1 357 0
 1240 0024 0391     		str	r1, [sp, #12]
 1241              		.loc 1 360 0
 1242 0026 0532     		adds	r2, r2, #5
 1243 0028 4FF4FC71 		mov	r1, #504
 1244 002c 0094     		str	r4, [sp]
 1245 002e FFF7FEFF 		bl	chThdCreateStatic
 1246              	.LVL114:
 1247              	.LBB189:
 1248              	.LBB190:
 1249              		.loc 3 189 0
 1250 0032 D9F81830 		ldr	r3, [r9, #24]
 1251              	.LBE190:
 1252              	.LBE189:
 1253              		.loc 1 361 0
 1254 0036 9A68     		ldr	r2, [r3, #8]
ARM GAS  C:\Users\Moi\AppData\Local\Temp\ccwG6ltn.s 			page 23


 1255 0038 6B68     		ldr	r3, [r5, #4]
 1256              		.loc 1 360 0
 1257 003a 3860     		str	r0, [r7]
 1258              		.loc 1 361 0
 1259 003c 0432     		adds	r2, r2, #4
 1260 003e 1846     		mov	r0, r3
 1261 0040 4FF4FC71 		mov	r1, #504
 1262 0044 2F4B     		ldr	r3, .L88+4
 1263 0046 0094     		str	r4, [sp]
 1264 0048 FFF7FEFF 		bl	chThdCreateStatic
 1265              	.LVL115:
 1266              	.LBB191:
 1267              	.LBB192:
 1268              		.loc 3 189 0
 1269 004c D9F81820 		ldr	r2, [r9, #24]
 1270              	.LBE192:
 1271              	.LBE191:
 1272              		.loc 1 362 0
 1273 0050 AB68     		ldr	r3, [r5, #8]
 1274 0052 9268     		ldr	r2, [r2, #8]
 1275              		.loc 1 361 0
 1276 0054 7860     		str	r0, [r7, #4]
 1277              		.loc 1 362 0
 1278 0056 0332     		adds	r2, r2, #3
 1279 0058 1846     		mov	r0, r3
 1280 005a 4FF4FC71 		mov	r1, #504
 1281 005e 294B     		ldr	r3, .L88+4
 1282 0060 0094     		str	r4, [sp]
 1283 0062 FFF7FEFF 		bl	chThdCreateStatic
 1284              	.LVL116:
 1285              	.LBB193:
 1286              	.LBB194:
 1287              		.loc 3 189 0
 1288 0066 D9F81820 		ldr	r2, [r9, #24]
 1289              	.LBE194:
 1290              	.LBE193:
 1291              		.loc 1 363 0
 1292 006a EB68     		ldr	r3, [r5, #12]
 1293 006c 9268     		ldr	r2, [r2, #8]
 1294              		.loc 1 362 0
 1295 006e B860     		str	r0, [r7, #8]
 1296              		.loc 1 363 0
 1297 0070 0232     		adds	r2, r2, #2
 1298 0072 1846     		mov	r0, r3
 1299 0074 4FF4FC71 		mov	r1, #504
 1300 0078 224B     		ldr	r3, .L88+4
 1301 007a 0094     		str	r4, [sp]
 1302 007c FFF7FEFF 		bl	chThdCreateStatic
 1303              	.LVL117:
 1304              	.LBB195:
 1305              	.LBB196:
 1306              		.loc 3 189 0
 1307 0080 D9F81820 		ldr	r2, [r9, #24]
 1308              	.LBE196:
 1309              	.LBE195:
 1310              		.loc 1 364 0
 1311 0084 2B69     		ldr	r3, [r5, #16]
ARM GAS  C:\Users\Moi\AppData\Local\Temp\ccwG6ltn.s 			page 24


 1312 0086 9268     		ldr	r2, [r2, #8]
 1313              		.loc 1 363 0
 1314 0088 F860     		str	r0, [r7, #12]
 1315              		.loc 1 364 0
 1316 008a 0132     		adds	r2, r2, #1
 1317 008c 1846     		mov	r0, r3
 1318 008e 4FF4FC71 		mov	r1, #504
 1319 0092 1C4B     		ldr	r3, .L88+4
 1320 0094 0094     		str	r4, [sp]
 1321 0096 FFF7FEFF 		bl	chThdCreateStatic
 1322              	.LVL118:
 1323 009a 3861     		str	r0, [r7, #16]
 1324              	.LVL119:
 1325              		.loc 1 367 0
 1326 009c FFF7FEFF 		bl	test_wait_tick
 1327              	.LVL120:
 1328              		.loc 1 368 0
 1329 00a0 4FF47A70 		mov	r0, #1000
 1330              		.loc 1 370 0
 1331 00a4 1A4D     		ldr	r5, .L88+16
 1332              		.loc 1 368 0
 1333 00a6 FFF7FEFF 		bl	test_start_timer
 1334              	.LVL121:
 1335              	.L81:
 1336              		.loc 1 370 0 discriminator 1
 1337 00aa 0021     		movs	r1, #0
 1338 00ac 2846     		mov	r0, r5
 1339 00ae FFF7FEFF 		bl	chSemReset
 1340              	.LVL122:
 1341              		.loc 1 375 0 discriminator 1
 1342 00b2 3378     		ldrb	r3, [r6]	@ zero_extendqisi2
 1343              		.loc 1 371 0 discriminator 1
 1344 00b4 0134     		adds	r4, r4, #1
 1345              	.LVL123:
 1346              		.loc 1 375 0 discriminator 1
 1347 00b6 002B     		cmp	r3, #0
 1348 00b8 F7D0     		beq	.L81
 1349              		.loc 1 376 0
 1350 00ba FFF7FEFF 		bl	test_terminate_threads
 1351              	.LVL124:
 1352              		.loc 1 377 0
 1353 00be 0021     		movs	r1, #0
 1354 00c0 1348     		ldr	r0, .L88+16
 1355 00c2 FFF7FEFF 		bl	chSemReset
 1356              	.LVL125:
 1357              		.loc 1 378 0
 1358 00c6 FFF7FEFF 		bl	test_wait_threads
 1359              	.LVL126:
 1360              		.loc 1 380 0
 1361 00ca 1248     		ldr	r0, .L88+20
 1362 00cc FFF7FEFF 		bl	test_print
 1363              	.LVL127:
 1364              		.loc 1 381 0
 1365 00d0 2046     		mov	r0, r4
 1366 00d2 FFF7FEFF 		bl	test_printn
 1367              	.LVL128:
 1368              		.loc 1 383 0
ARM GAS  C:\Users\Moi\AppData\Local\Temp\ccwG6ltn.s 			page 25


 1369 00d6 04EB4404 		add	r4, r4, r4, lsl #1
 1370              	.LVL129:
 1371              		.loc 1 382 0
 1372 00da 0F48     		ldr	r0, .L88+24
 1373 00dc FFF7FEFF 		bl	test_print
 1374              	.LVL130:
 1375              		.loc 1 383 0
 1376 00e0 6000     		lsls	r0, r4, #1
 1377 00e2 FFF7FEFF 		bl	test_printn
 1378              	.LVL131:
 1379              		.loc 1 384 0
 1380 00e6 039A     		ldr	r2, [sp, #12]
 1381 00e8 D8F80030 		ldr	r3, [r8]
 1382 00ec 9A42     		cmp	r2, r3
 1383 00ee 05D1     		bne	.L87
 1384 00f0 0A48     		ldr	r0, .L88+28
 1385              		.loc 1 385 0
 1386 00f2 05B0     		add	sp, sp, #20
 1387              		.cfi_remember_state
 1388              		.cfi_def_cfa_offset 28
 1389              		@ sp needed
 1390 00f4 BDE8F043 		pop	{r4, r5, r6, r7, r8, r9, lr}
 1391              		.cfi_restore 14
 1392              		.cfi_restore 9
 1393              		.cfi_restore 8
 1394              		.cfi_restore 7
 1395              		.cfi_restore 6
 1396              		.cfi_restore 5
 1397              		.cfi_restore 4
 1398              		.cfi_def_cfa_offset 0
 1399              		.loc 1 384 0
 1400 00f8 FFF7FEBF 		b	test_println
 1401              	.LVL132:
 1402              	.L87:
 1403              		.cfi_restore_state
 1404 00fc FFF7FEFF 		bl	__stack_chk_fail
 1405              	.LVL133:
 1406              	.L89:
 1407              		.align	2
 1408              	.L88:
 1409 0100 00000000 		.word	wa
 1410 0104 00000000 		.word	thread3
 1411 0108 00000000 		.word	threads
 1412 010c 00000000 		.word	test_timer_done
 1413 0110 00000000 		.word	.LANCHOR0
 1414 0114 00000000 		.word	.LC11
 1415 0118 00000000 		.word	.LC15
 1416 011c 0C000000 		.word	.LC14
 1417 0120 00000000 		.word	ch
 1418 0124 00000000 		.word	__stack_chk_guard
 1419              		.cfi_endproc
 1420              	.LFE231:
 1421              		.size	bmk7_execute, .-bmk7_execute
 1422              		.section	.text.thread3,"ax",%progbits
 1423              		.align	1
 1424              		.p2align 4,,15
 1425              		.syntax unified
ARM GAS  C:\Users\Moi\AppData\Local\Temp\ccwG6ltn.s 			page 26


 1426              		.thumb
 1427              		.thumb_func
 1428              		.fpu fpv4-sp-d16
 1429              		.type	thread3, %function
 1430              	thread3:
 1431              	.LFB229:
 1432              		.loc 1 345 0
 1433              		.cfi_startproc
 1434              		@ args = 0, pretend = 0, frame = 8
 1435              		@ frame_needed = 0, uses_anonymous_args = 0
 1436              	.LVL134:
 1437 0000 70B5     		push	{r4, r5, r6, lr}
 1438              		.cfi_def_cfa_offset 16
 1439              		.cfi_offset 4, -16
 1440              		.cfi_offset 5, -12
 1441              		.cfi_offset 6, -8
 1442              		.cfi_offset 14, -4
 1443              	.LBB197:
 1444              	.LBB198:
 1445              	.LBB199:
 1446              	.LBB200:
 1447              		.loc 3 176 0
 1448 0002 0D4C     		ldr	r4, .L98
 1449              	.LBE200:
 1450              	.LBE199:
 1451              	.LBE198:
 1452              	.LBE197:
 1453              		.loc 1 345 0
 1454 0004 0D4E     		ldr	r6, .L98+4
 1455              	.LBB203:
 1456              	.LBB201:
 1457              		.loc 3 233 0
 1458 0006 A369     		ldr	r3, [r4, #24]
 1459              	.LBE201:
 1460              	.LBE203:
 1461              		.loc 1 345 0
 1462 0008 3268     		ldr	r2, [r6]
 1463              		.loc 1 348 0
 1464 000a 93F82130 		ldrb	r3, [r3, #33]	@ zero_extendqisi2
 1465              		.loc 1 345 0
 1466 000e 82B0     		sub	sp, sp, #8
 1467              		.cfi_def_cfa_offset 24
 1468              		.loc 1 345 0
 1469 0010 0192     		str	r2, [sp, #4]
 1470              		.loc 1 348 0
 1471 0012 5A07     		lsls	r2, r3, #29
 1472 0014 08D4     		bmi	.L90
 1473              		.loc 1 349 0
 1474 0016 0A4D     		ldr	r5, .L98+8
 1475              	.LVL135:
 1476              	.L92:
 1477 0018 2846     		mov	r0, r5
 1478 001a FFF7FEFF 		bl	chSemWait
 1479              	.LVL136:
 1480              	.LBB204:
 1481              	.LBB202:
 1482              		.loc 3 233 0
ARM GAS  C:\Users\Moi\AppData\Local\Temp\ccwG6ltn.s 			page 27


 1483 001e A369     		ldr	r3, [r4, #24]
 1484              	.LBE202:
 1485              	.LBE204:
 1486              		.loc 1 348 0
 1487 0020 93F82130 		ldrb	r3, [r3, #33]	@ zero_extendqisi2
 1488 0024 5B07     		lsls	r3, r3, #29
 1489 0026 F7D5     		bpl	.L92
 1490              	.L90:
 1491              		.loc 1 350 0
 1492 0028 019A     		ldr	r2, [sp, #4]
 1493 002a 3368     		ldr	r3, [r6]
 1494 002c 9A42     		cmp	r2, r3
 1495 002e 01D1     		bne	.L97
 1496 0030 02B0     		add	sp, sp, #8
 1497              		.cfi_remember_state
 1498              		.cfi_def_cfa_offset 16
 1499              		@ sp needed
 1500 0032 70BD     		pop	{r4, r5, r6, pc}
 1501              	.L97:
 1502              		.cfi_restore_state
 1503 0034 FFF7FEFF 		bl	__stack_chk_fail
 1504              	.LVL137:
 1505              	.L99:
 1506              		.align	2
 1507              	.L98:
 1508 0038 00000000 		.word	ch
 1509 003c 00000000 		.word	__stack_chk_guard
 1510 0040 00000000 		.word	.LANCHOR0
 1511              		.cfi_endproc
 1512              	.LFE229:
 1513              		.size	thread3, .-thread3
 1514              		.section	.text.bmk7_setup,"ax",%progbits
 1515              		.align	1
 1516              		.p2align 4,,15
 1517              		.syntax unified
 1518              		.thumb
 1519              		.thumb_func
 1520              		.fpu fpv4-sp-d16
 1521              		.type	bmk7_setup, %function
 1522              	bmk7_setup:
 1523              	.LFB230:
 1524              		.loc 1 352 0
 1525              		.cfi_startproc
 1526              		@ args = 0, pretend = 0, frame = 8
 1527              		@ frame_needed = 0, uses_anonymous_args = 0
 1528 0000 00B5     		push	{lr}
 1529              		.cfi_def_cfa_offset 4
 1530              		.cfi_offset 14, -4
 1531 0002 084B     		ldr	r3, .L105
 1532 0004 83B0     		sub	sp, sp, #12
 1533              		.cfi_def_cfa_offset 16
 1534              		.loc 1 352 0
 1535 0006 1A68     		ldr	r2, [r3]
 1536 0008 0192     		str	r2, [sp, #4]
 1537              		.loc 1 354 0
 1538 000a 019A     		ldr	r2, [sp, #4]
 1539 000c 1B68     		ldr	r3, [r3]
ARM GAS  C:\Users\Moi\AppData\Local\Temp\ccwG6ltn.s 			page 28


 1540 000e 9A42     		cmp	r2, r3
 1541 0010 06D1     		bne	.L104
 1542 0012 0548     		ldr	r0, .L105+4
 1543 0014 0021     		movs	r1, #0
 1544              		.loc 1 355 0
 1545 0016 03B0     		add	sp, sp, #12
 1546              		.cfi_remember_state
 1547              		.cfi_def_cfa_offset 4
 1548              		@ sp needed
 1549 0018 5DF804EB 		ldr	lr, [sp], #4
 1550              		.cfi_restore 14
 1551              		.cfi_def_cfa_offset 0
 1552              		.loc 1 354 0
 1553 001c FFF7FEBF 		b	chSemObjectInit
 1554              	.LVL138:
 1555              	.L104:
 1556              		.cfi_restore_state
 1557 0020 FFF7FEFF 		bl	__stack_chk_fail
 1558              	.LVL139:
 1559              	.L106:
 1560              		.align	2
 1561              	.L105:
 1562 0024 00000000 		.word	__stack_chk_guard
 1563 0028 00000000 		.word	.LANCHOR0
 1564              		.cfi_endproc
 1565              	.LFE230:
 1566              		.size	bmk7_setup, .-bmk7_setup
 1567              		.section	.text.bmk11_setup,"ax",%progbits
 1568              		.align	1
 1569              		.p2align 4,,15
 1570              		.syntax unified
 1571              		.thumb
 1572              		.thumb_func
 1573              		.fpu fpv4-sp-d16
 1574              		.type	bmk11_setup, %function
 1575              	bmk11_setup:
 1576              	.LFB237:
 1577              		.loc 1 548 0
 1578              		.cfi_startproc
 1579              		@ args = 0, pretend = 0, frame = 8
 1580              		@ frame_needed = 0, uses_anonymous_args = 0
 1581 0000 00B5     		push	{lr}
 1582              		.cfi_def_cfa_offset 4
 1583              		.cfi_offset 14, -4
 1584 0002 084B     		ldr	r3, .L112
 1585 0004 83B0     		sub	sp, sp, #12
 1586              		.cfi_def_cfa_offset 16
 1587              		.loc 1 548 0
 1588 0006 1A68     		ldr	r2, [r3]
 1589 0008 0192     		str	r2, [sp, #4]
 1590              		.loc 1 550 0
 1591 000a 019A     		ldr	r2, [sp, #4]
 1592 000c 1B68     		ldr	r3, [r3]
 1593 000e 9A42     		cmp	r2, r3
 1594 0010 06D1     		bne	.L111
 1595 0012 0548     		ldr	r0, .L112+4
 1596 0014 0121     		movs	r1, #1
ARM GAS  C:\Users\Moi\AppData\Local\Temp\ccwG6ltn.s 			page 29


 1597              		.loc 1 551 0
 1598 0016 03B0     		add	sp, sp, #12
 1599              		.cfi_remember_state
 1600              		.cfi_def_cfa_offset 4
 1601              		@ sp needed
 1602 0018 5DF804EB 		ldr	lr, [sp], #4
 1603              		.cfi_restore 14
 1604              		.cfi_def_cfa_offset 0
 1605              		.loc 1 550 0
 1606 001c FFF7FEBF 		b	chSemObjectInit
 1607              	.LVL140:
 1608              	.L111:
 1609              		.cfi_restore_state
 1610 0020 FFF7FEFF 		bl	__stack_chk_fail
 1611              	.LVL141:
 1612              	.L113:
 1613              		.align	2
 1614              	.L112:
 1615 0024 00000000 		.word	__stack_chk_guard
 1616 0028 00000000 		.word	.LANCHOR0
 1617              		.cfi_endproc
 1618              	.LFE237:
 1619              		.size	bmk11_setup, .-bmk11_setup
 1620              		.section	.text.bmk8_execute,"ax",%progbits
 1621              		.align	1
 1622              		.p2align 4,,15
 1623              		.syntax unified
 1624              		.thumb
 1625              		.thumb_func
 1626              		.fpu fpv4-sp-d16
 1627              		.type	bmk8_execute, %function
 1628              	bmk8_execute:
 1629              	.LFB233:
 1630              		.loc 1 419 0
 1631              		.cfi_startproc
 1632              		@ args = 0, pretend = 0, frame = 8
 1633              		@ frame_needed = 0, uses_anonymous_args = 0
 1634 0000 2DE9F041 		push	{r4, r5, r6, r7, r8, lr}
 1635              		.cfi_def_cfa_offset 24
 1636              		.cfi_offset 4, -24
 1637              		.cfi_offset 5, -20
 1638              		.cfi_offset 6, -16
 1639              		.cfi_offset 7, -12
 1640              		.cfi_offset 8, -8
 1641              		.cfi_offset 14, -4
 1642 0004 DFF8E080 		ldr	r8, .L118+24
 1643              	.LBB205:
 1644              	.LBB206:
 1645              	.LBB207:
 1646              	.LBB208:
 1647              		.loc 3 176 0
 1648 0008 314F     		ldr	r7, .L118
 1649              	.LBE208:
 1650              	.LBE207:
 1651              	.LBE206:
 1652              	.LBE205:
 1653              		.loc 1 419 0
ARM GAS  C:\Users\Moi\AppData\Local\Temp\ccwG6ltn.s 			page 30


 1654 000a D8F80030 		ldr	r3, [r8]
 1655              		.loc 1 425 0
 1656 000e 314E     		ldr	r6, .L118+4
 1657 0010 314D     		ldr	r5, .L118+8
 1658              		.loc 1 419 0
 1659 0012 84B0     		sub	sp, sp, #16
 1660              		.cfi_def_cfa_offset 40
 1661              		.loc 1 422 0
 1662 0014 04AC     		add	r4, sp, #16
 1663              		.loc 1 419 0
 1664 0016 0393     		str	r3, [sp, #12]
 1665              		.loc 1 422 0
 1666 0018 0023     		movs	r3, #0
 1667 001a 44F8083D 		str	r3, [r4, #-8]!
 1668              		.loc 1 423 0
 1669 001e FFF7FEFF 		bl	test_wait_tick
 1670              	.LVL142:
 1671              	.LBB210:
 1672              	.LBB209:
 1673              		.loc 3 189 0
 1674 0022 BB69     		ldr	r3, [r7, #24]
 1675              	.LBE209:
 1676              	.LBE210:
 1677              		.loc 1 425 0
 1678 0024 3068     		ldr	r0, [r6]
 1679 0026 9A68     		ldr	r2, [r3, #8]
 1680 0028 2C4B     		ldr	r3, .L118+12
 1681 002a 0094     		str	r4, [sp]
 1682 002c 013A     		subs	r2, r2, #1
 1683 002e 4FF4FC71 		mov	r1, #504
 1684 0032 FFF7FEFF 		bl	chThdCreateStatic
 1685              	.LVL143:
 1686              	.LBB211:
 1687              	.LBB212:
 1688              		.loc 3 189 0
 1689 0036 BA69     		ldr	r2, [r7, #24]
 1690              	.LBE212:
 1691              	.LBE211:
 1692              		.loc 1 426 0
 1693 0038 7368     		ldr	r3, [r6, #4]
 1694 003a 9268     		ldr	r2, [r2, #8]
 1695              		.loc 1 425 0
 1696 003c 2860     		str	r0, [r5]
 1697              		.loc 1 426 0
 1698 003e 013A     		subs	r2, r2, #1
 1699 0040 1846     		mov	r0, r3
 1700 0042 4FF4FC71 		mov	r1, #504
 1701 0046 254B     		ldr	r3, .L118+12
 1702 0048 0094     		str	r4, [sp]
 1703 004a FFF7FEFF 		bl	chThdCreateStatic
 1704              	.LVL144:
 1705              	.LBB213:
 1706              	.LBB214:
 1707              		.loc 3 189 0
 1708 004e BA69     		ldr	r2, [r7, #24]
 1709              	.LBE214:
 1710              	.LBE213:
ARM GAS  C:\Users\Moi\AppData\Local\Temp\ccwG6ltn.s 			page 31


 1711              		.loc 1 427 0
 1712 0050 B368     		ldr	r3, [r6, #8]
 1713 0052 9268     		ldr	r2, [r2, #8]
 1714              		.loc 1 426 0
 1715 0054 6860     		str	r0, [r5, #4]
 1716              		.loc 1 427 0
 1717 0056 013A     		subs	r2, r2, #1
 1718 0058 1846     		mov	r0, r3
 1719 005a 4FF4FC71 		mov	r1, #504
 1720 005e 1F4B     		ldr	r3, .L118+12
 1721 0060 0094     		str	r4, [sp]
 1722 0062 FFF7FEFF 		bl	chThdCreateStatic
 1723              	.LVL145:
 1724              	.LBB215:
 1725              	.LBB216:
 1726              		.loc 3 189 0
 1727 0066 BA69     		ldr	r2, [r7, #24]
 1728              	.LBE216:
 1729              	.LBE215:
 1730              		.loc 1 428 0
 1731 0068 F368     		ldr	r3, [r6, #12]
 1732 006a 9268     		ldr	r2, [r2, #8]
 1733              		.loc 1 427 0
 1734 006c A860     		str	r0, [r5, #8]
 1735              		.loc 1 428 0
 1736 006e 013A     		subs	r2, r2, #1
 1737 0070 1846     		mov	r0, r3
 1738 0072 4FF4FC71 		mov	r1, #504
 1739 0076 194B     		ldr	r3, .L118+12
 1740 0078 0094     		str	r4, [sp]
 1741 007a FFF7FEFF 		bl	chThdCreateStatic
 1742              	.LVL146:
 1743              	.LBB217:
 1744              	.LBB218:
 1745              		.loc 3 189 0
 1746 007e BA69     		ldr	r2, [r7, #24]
 1747              	.LBE218:
 1748              	.LBE217:
 1749              		.loc 1 429 0
 1750 0080 3369     		ldr	r3, [r6, #16]
 1751 0082 9268     		ldr	r2, [r2, #8]
 1752              		.loc 1 428 0
 1753 0084 E860     		str	r0, [r5, #12]
 1754              		.loc 1 429 0
 1755 0086 013A     		subs	r2, r2, #1
 1756 0088 4FF4FC71 		mov	r1, #504
 1757 008c 1846     		mov	r0, r3
 1758 008e 0094     		str	r4, [sp]
 1759 0090 124B     		ldr	r3, .L118+12
 1760 0092 FFF7FEFF 		bl	chThdCreateStatic
 1761              	.LVL147:
 1762 0096 2861     		str	r0, [r5, #16]
 1763              		.loc 1 431 0
 1764 0098 4FF47A70 		mov	r0, #1000
 1765 009c FFF7FEFF 		bl	chThdSleep
 1766              	.LVL148:
 1767              		.loc 1 432 0
ARM GAS  C:\Users\Moi\AppData\Local\Temp\ccwG6ltn.s 			page 32


 1768 00a0 FFF7FEFF 		bl	test_terminate_threads
 1769              	.LVL149:
 1770              		.loc 1 433 0
 1771 00a4 FFF7FEFF 		bl	test_wait_threads
 1772              	.LVL150:
 1773              		.loc 1 435 0
 1774 00a8 0D48     		ldr	r0, .L118+16
 1775 00aa FFF7FEFF 		bl	test_print
 1776              	.LVL151:
 1777              		.loc 1 436 0
 1778 00ae 0298     		ldr	r0, [sp, #8]
 1779 00b0 FFF7FEFF 		bl	test_printn
 1780              	.LVL152:
 1781              		.loc 1 437 0
 1782 00b4 0B48     		ldr	r0, .L118+20
 1783 00b6 FFF7FEFF 		bl	test_println
 1784              	.LVL153:
 1785              		.loc 1 438 0
 1786 00ba 039A     		ldr	r2, [sp, #12]
 1787 00bc D8F80030 		ldr	r3, [r8]
 1788 00c0 9A42     		cmp	r2, r3
 1789 00c2 02D1     		bne	.L117
 1790 00c4 04B0     		add	sp, sp, #16
 1791              		.cfi_remember_state
 1792              		.cfi_def_cfa_offset 24
 1793              		@ sp needed
 1794 00c6 BDE8F081 		pop	{r4, r5, r6, r7, r8, pc}
 1795              	.L117:
 1796              		.cfi_restore_state
 1797 00ca FFF7FEFF 		bl	__stack_chk_fail
 1798              	.LVL154:
 1799              	.L119:
 1800 00ce 00BF     		.align	2
 1801              	.L118:
 1802 00d0 00000000 		.word	ch
 1803 00d4 00000000 		.word	wa
 1804 00d8 00000000 		.word	threads
 1805 00dc 00000000 		.word	thread8
 1806 00e0 00000000 		.word	.LC11
 1807 00e4 0C000000 		.word	.LC14
 1808 00e8 00000000 		.word	__stack_chk_guard
 1809              		.cfi_endproc
 1810              	.LFE233:
 1811              		.size	bmk8_execute, .-bmk8_execute
 1812              		.section	.text.thread8,"ax",%progbits
 1813              		.align	1
 1814              		.p2align 4,,15
 1815              		.syntax unified
 1816              		.thumb
 1817              		.thumb_func
 1818              		.fpu fpv4-sp-d16
 1819              		.type	thread8, %function
 1820              	thread8:
 1821              	.LFB232:
 1822              		.loc 1 405 0
 1823              		.cfi_startproc
 1824              		@ args = 0, pretend = 0, frame = 8
ARM GAS  C:\Users\Moi\AppData\Local\Temp\ccwG6ltn.s 			page 33


 1825              		@ frame_needed = 0, uses_anonymous_args = 0
 1826              	.LVL155:
 1827 0000 70B5     		push	{r4, r5, r6, lr}
 1828              		.cfi_def_cfa_offset 16
 1829              		.cfi_offset 4, -16
 1830              		.cfi_offset 5, -12
 1831              		.cfi_offset 6, -8
 1832              		.cfi_offset 14, -4
 1833 0002 0F4E     		ldr	r6, .L127
 1834 0004 0F4D     		ldr	r5, .L127+4
 1835 0006 3368     		ldr	r3, [r6]
 1836 0008 82B0     		sub	sp, sp, #8
 1837              		.cfi_def_cfa_offset 24
 1838              		.loc 1 405 0
 1839 000a 0446     		mov	r4, r0
 1840 000c 0193     		str	r3, [sp, #4]
 1841              	.LVL156:
 1842              	.L121:
 1843              		.loc 1 408 0 discriminator 1
 1844 000e FFF7FEFF 		bl	chThdYield
 1845              	.LVL157:
 1846              		.loc 1 409 0 discriminator 1
 1847 0012 FFF7FEFF 		bl	chThdYield
 1848              	.LVL158:
 1849              		.loc 1 410 0 discriminator 1
 1850 0016 FFF7FEFF 		bl	chThdYield
 1851              	.LVL159:
 1852              		.loc 1 411 0 discriminator 1
 1853 001a FFF7FEFF 		bl	chThdYield
 1854              	.LVL160:
 1855              		.loc 1 412 0 discriminator 1
 1856 001e 2368     		ldr	r3, [r4]
 1857              	.LBB219:
 1858              	.LBB220:
 1859              		.loc 3 233 0 discriminator 1
 1860 0020 AA69     		ldr	r2, [r5, #24]
 1861              	.LBE220:
 1862              	.LBE219:
 1863              		.loc 1 412 0 discriminator 1
 1864 0022 0433     		adds	r3, r3, #4
 1865 0024 2360     		str	r3, [r4]
 1866              		.loc 1 416 0 discriminator 1
 1867 0026 92F82130 		ldrb	r3, [r2, #33]	@ zero_extendqisi2
 1868 002a 5B07     		lsls	r3, r3, #29
 1869 002c EFD5     		bpl	.L121
 1870              		.loc 1 417 0
 1871 002e 019A     		ldr	r2, [sp, #4]
 1872 0030 3368     		ldr	r3, [r6]
 1873 0032 9A42     		cmp	r2, r3
 1874 0034 01D1     		bne	.L126
 1875 0036 02B0     		add	sp, sp, #8
 1876              		.cfi_remember_state
 1877              		.cfi_def_cfa_offset 16
 1878              		@ sp needed
 1879 0038 70BD     		pop	{r4, r5, r6, pc}
 1880              	.LVL161:
 1881              	.L126:
ARM GAS  C:\Users\Moi\AppData\Local\Temp\ccwG6ltn.s 			page 34


 1882              		.cfi_restore_state
 1883 003a FFF7FEFF 		bl	__stack_chk_fail
 1884              	.LVL162:
 1885              	.L128:
 1886 003e 00BF     		.align	2
 1887              	.L127:
 1888 0040 00000000 		.word	__stack_chk_guard
 1889 0044 00000000 		.word	ch
 1890              		.cfi_endproc
 1891              	.LFE232:
 1892              		.size	thread8, .-thread8
 1893              		.section	.text.bmk11_execute,"ax",%progbits
 1894              		.align	1
 1895              		.p2align 4,,15
 1896              		.syntax unified
 1897              		.thumb
 1898              		.thumb_func
 1899              		.fpu fpv4-sp-d16
 1900              		.type	bmk11_execute, %function
 1901              	bmk11_execute:
 1902              	.LFB238:
 1903              		.loc 1 553 0
 1904              		.cfi_startproc
 1905              		@ args = 0, pretend = 0, frame = 8
 1906              		@ frame_needed = 0, uses_anonymous_args = 0
 1907 0000 F0B5     		push	{r4, r5, r6, r7, lr}
 1908              		.cfi_def_cfa_offset 20
 1909              		.cfi_offset 4, -20
 1910              		.cfi_offset 5, -16
 1911              		.cfi_offset 6, -12
 1912              		.cfi_offset 7, -8
 1913              		.cfi_offset 14, -4
 1914 0002 1D4F     		ldr	r7, .L137
 1915 0004 1D4E     		ldr	r6, .L137+4
 1916 0006 3B68     		ldr	r3, [r7]
 1917              		.loc 1 559 0
 1918 0008 1D4C     		ldr	r4, .L137+8
 1919              		.loc 1 553 0
 1920 000a 83B0     		sub	sp, sp, #12
 1921              		.cfi_def_cfa_offset 32
 1922              		.loc 1 554 0
 1923 000c 0025     		movs	r5, #0
 1924              		.loc 1 553 0
 1925 000e 0193     		str	r3, [sp, #4]
 1926              	.LVL163:
 1927              		.loc 1 556 0
 1928 0010 FFF7FEFF 		bl	test_wait_tick
 1929              	.LVL164:
 1930              		.loc 1 557 0
 1931 0014 4FF47A70 		mov	r0, #1000
 1932 0018 FFF7FEFF 		bl	test_start_timer
 1933              	.LVL165:
 1934              	.L130:
 1935              		.loc 1 559 0 discriminator 1
 1936 001c 2046     		mov	r0, r4
 1937 001e FFF7FEFF 		bl	chSemWait
 1938              	.LVL166:
ARM GAS  C:\Users\Moi\AppData\Local\Temp\ccwG6ltn.s 			page 35


 1939              		.loc 1 560 0 discriminator 1
 1940 0022 2046     		mov	r0, r4
 1941 0024 FFF7FEFF 		bl	chSemSignal
 1942              	.LVL167:
 1943              		.loc 1 561 0 discriminator 1
 1944 0028 2046     		mov	r0, r4
 1945 002a FFF7FEFF 		bl	chSemWait
 1946              	.LVL168:
 1947              		.loc 1 562 0 discriminator 1
 1948 002e 2046     		mov	r0, r4
 1949 0030 FFF7FEFF 		bl	chSemSignal
 1950              	.LVL169:
 1951              		.loc 1 563 0 discriminator 1
 1952 0034 2046     		mov	r0, r4
 1953 0036 FFF7FEFF 		bl	chSemWait
 1954              	.LVL170:
 1955              		.loc 1 564 0 discriminator 1
 1956 003a 2046     		mov	r0, r4
 1957 003c FFF7FEFF 		bl	chSemSignal
 1958              	.LVL171:
 1959              		.loc 1 565 0 discriminator 1
 1960 0040 2046     		mov	r0, r4
 1961 0042 FFF7FEFF 		bl	chSemWait
 1962              	.LVL172:
 1963              		.loc 1 566 0 discriminator 1
 1964 0046 2046     		mov	r0, r4
 1965 0048 FFF7FEFF 		bl	chSemSignal
 1966              	.LVL173:
 1967              		.loc 1 571 0 discriminator 1
 1968 004c 3378     		ldrb	r3, [r6]	@ zero_extendqisi2
 1969              		.loc 1 567 0 discriminator 1
 1970 004e 0135     		adds	r5, r5, #1
 1971              	.LVL174:
 1972              		.loc 1 571 0 discriminator 1
 1973 0050 002B     		cmp	r3, #0
 1974 0052 E3D0     		beq	.L130
 1975              		.loc 1 572 0
 1976 0054 0B48     		ldr	r0, .L137+12
 1977 0056 FFF7FEFF 		bl	test_print
 1978              	.LVL175:
 1979              		.loc 1 573 0
 1980 005a A800     		lsls	r0, r5, #2
 1981 005c FFF7FEFF 		bl	test_printn
 1982              	.LVL176:
 1983              		.loc 1 574 0
 1984 0060 019A     		ldr	r2, [sp, #4]
 1985 0062 3B68     		ldr	r3, [r7]
 1986 0064 9A42     		cmp	r2, r3
 1987 0066 05D1     		bne	.L136
 1988 0068 0748     		ldr	r0, .L137+16
 1989              		.loc 1 575 0
 1990 006a 03B0     		add	sp, sp, #12
 1991              		.cfi_remember_state
 1992              		.cfi_def_cfa_offset 20
 1993              		@ sp needed
 1994 006c BDE8F040 		pop	{r4, r5, r6, r7, lr}
 1995              		.cfi_restore 14
ARM GAS  C:\Users\Moi\AppData\Local\Temp\ccwG6ltn.s 			page 36


 1996              		.cfi_restore 7
 1997              		.cfi_restore 6
 1998              		.cfi_restore 5
 1999              		.cfi_restore 4
 2000              		.cfi_def_cfa_offset 0
 2001              	.LVL177:
 2002              		.loc 1 574 0
 2003 0070 FFF7FEBF 		b	test_println
 2004              	.LVL178:
 2005              	.L136:
 2006              		.cfi_restore_state
 2007 0074 FFF7FEFF 		bl	__stack_chk_fail
 2008              	.LVL179:
 2009              	.L138:
 2010              		.align	2
 2011              	.L137:
 2012 0078 00000000 		.word	__stack_chk_guard
 2013 007c 00000000 		.word	test_timer_done
 2014 0080 00000000 		.word	.LANCHOR0
 2015 0084 00000000 		.word	.LC11
 2016 0088 00000000 		.word	.LC16
 2017              		.cfi_endproc
 2018              	.LFE238:
 2019              		.size	bmk11_execute, .-bmk11_execute
 2020              		.section	.text.bmk12_execute,"ax",%progbits
 2021              		.align	1
 2022              		.p2align 4,,15
 2023              		.syntax unified
 2024              		.thumb
 2025              		.thumb_func
 2026              		.fpu fpv4-sp-d16
 2027              		.type	bmk12_execute, %function
 2028              	bmk12_execute:
 2029              	.LFB240:
 2030              		.loc 1 601 0
 2031              		.cfi_startproc
 2032              		@ args = 0, pretend = 0, frame = 8
 2033              		@ frame_needed = 0, uses_anonymous_args = 0
 2034 0000 F0B5     		push	{r4, r5, r6, r7, lr}
 2035              		.cfi_def_cfa_offset 20
 2036              		.cfi_offset 4, -20
 2037              		.cfi_offset 5, -16
 2038              		.cfi_offset 6, -12
 2039              		.cfi_offset 7, -8
 2040              		.cfi_offset 14, -4
 2041 0002 1D4F     		ldr	r7, .L147
 2042 0004 1D4E     		ldr	r6, .L147+4
 2043 0006 3B68     		ldr	r3, [r7]
 2044              		.loc 1 607 0
 2045 0008 1D4C     		ldr	r4, .L147+8
 2046              		.loc 1 601 0
 2047 000a 83B0     		sub	sp, sp, #12
 2048              		.cfi_def_cfa_offset 32
 2049              		.loc 1 602 0
 2050 000c 0025     		movs	r5, #0
 2051              		.loc 1 601 0
 2052 000e 0193     		str	r3, [sp, #4]
ARM GAS  C:\Users\Moi\AppData\Local\Temp\ccwG6ltn.s 			page 37


 2053              	.LVL180:
 2054              		.loc 1 604 0
 2055 0010 FFF7FEFF 		bl	test_wait_tick
 2056              	.LVL181:
 2057              		.loc 1 605 0
 2058 0014 4FF47A70 		mov	r0, #1000
 2059 0018 FFF7FEFF 		bl	test_start_timer
 2060              	.LVL182:
 2061              	.L140:
 2062              		.loc 1 607 0 discriminator 1
 2063 001c 2046     		mov	r0, r4
 2064 001e FFF7FEFF 		bl	chMtxLock
 2065              	.LVL183:
 2066              		.loc 1 608 0 discriminator 1
 2067 0022 2046     		mov	r0, r4
 2068 0024 FFF7FEFF 		bl	chMtxUnlock
 2069              	.LVL184:
 2070              		.loc 1 609 0 discriminator 1
 2071 0028 2046     		mov	r0, r4
 2072 002a FFF7FEFF 		bl	chMtxLock
 2073              	.LVL185:
 2074              		.loc 1 610 0 discriminator 1
 2075 002e 2046     		mov	r0, r4
 2076 0030 FFF7FEFF 		bl	chMtxUnlock
 2077              	.LVL186:
 2078              		.loc 1 611 0 discriminator 1
 2079 0034 2046     		mov	r0, r4
 2080 0036 FFF7FEFF 		bl	chMtxLock
 2081              	.LVL187:
 2082              		.loc 1 612 0 discriminator 1
 2083 003a 2046     		mov	r0, r4
 2084 003c FFF7FEFF 		bl	chMtxUnlock
 2085              	.LVL188:
 2086              		.loc 1 613 0 discriminator 1
 2087 0040 2046     		mov	r0, r4
 2088 0042 FFF7FEFF 		bl	chMtxLock
 2089              	.LVL189:
 2090              		.loc 1 614 0 discriminator 1
 2091 0046 2046     		mov	r0, r4
 2092 0048 FFF7FEFF 		bl	chMtxUnlock
 2093              	.LVL190:
 2094              		.loc 1 619 0 discriminator 1
 2095 004c 3378     		ldrb	r3, [r6]	@ zero_extendqisi2
 2096              		.loc 1 615 0 discriminator 1
 2097 004e 0135     		adds	r5, r5, #1
 2098              	.LVL191:
 2099              		.loc 1 619 0 discriminator 1
 2100 0050 002B     		cmp	r3, #0
 2101 0052 E3D0     		beq	.L140
 2102              		.loc 1 620 0
 2103 0054 0B48     		ldr	r0, .L147+12
 2104 0056 FFF7FEFF 		bl	test_print
 2105              	.LVL192:
 2106              		.loc 1 621 0
 2107 005a A800     		lsls	r0, r5, #2
 2108 005c FFF7FEFF 		bl	test_printn
 2109              	.LVL193:
ARM GAS  C:\Users\Moi\AppData\Local\Temp\ccwG6ltn.s 			page 38


 2110              		.loc 1 622 0
 2111 0060 019A     		ldr	r2, [sp, #4]
 2112 0062 3B68     		ldr	r3, [r7]
 2113 0064 9A42     		cmp	r2, r3
 2114 0066 05D1     		bne	.L146
 2115 0068 0748     		ldr	r0, .L147+16
 2116              		.loc 1 623 0
 2117 006a 03B0     		add	sp, sp, #12
 2118              		.cfi_remember_state
 2119              		.cfi_def_cfa_offset 20
 2120              		@ sp needed
 2121 006c BDE8F040 		pop	{r4, r5, r6, r7, lr}
 2122              		.cfi_restore 14
 2123              		.cfi_restore 7
 2124              		.cfi_restore 6
 2125              		.cfi_restore 5
 2126              		.cfi_restore 4
 2127              		.cfi_def_cfa_offset 0
 2128              	.LVL194:
 2129              		.loc 1 622 0
 2130 0070 FFF7FEBF 		b	test_println
 2131              	.LVL195:
 2132              	.L146:
 2133              		.cfi_restore_state
 2134 0074 FFF7FEFF 		bl	__stack_chk_fail
 2135              	.LVL196:
 2136              	.L148:
 2137              		.align	2
 2138              	.L147:
 2139 0078 00000000 		.word	__stack_chk_guard
 2140 007c 00000000 		.word	test_timer_done
 2141 0080 00000000 		.word	.LANCHOR1
 2142 0084 00000000 		.word	.LC11
 2143 0088 00000000 		.word	.LC17
 2144              		.cfi_endproc
 2145              	.LFE240:
 2146              		.size	bmk12_execute, .-bmk12_execute
 2147              		.section	.text.bmk12_setup,"ax",%progbits
 2148              		.align	1
 2149              		.p2align 4,,15
 2150              		.syntax unified
 2151              		.thumb
 2152              		.thumb_func
 2153              		.fpu fpv4-sp-d16
 2154              		.type	bmk12_setup, %function
 2155              	bmk12_setup:
 2156              	.LFB239:
 2157              		.loc 1 596 0
 2158              		.cfi_startproc
 2159              		@ args = 0, pretend = 0, frame = 8
 2160              		@ frame_needed = 0, uses_anonymous_args = 0
 2161 0000 00B5     		push	{lr}
 2162              		.cfi_def_cfa_offset 4
 2163              		.cfi_offset 14, -4
 2164 0002 084B     		ldr	r3, .L154
 2165 0004 83B0     		sub	sp, sp, #12
 2166              		.cfi_def_cfa_offset 16
ARM GAS  C:\Users\Moi\AppData\Local\Temp\ccwG6ltn.s 			page 39


 2167              		.loc 1 596 0
 2168 0006 1A68     		ldr	r2, [r3]
 2169 0008 0192     		str	r2, [sp, #4]
 2170              		.loc 1 598 0
 2171 000a 019A     		ldr	r2, [sp, #4]
 2172 000c 1B68     		ldr	r3, [r3]
 2173 000e 9A42     		cmp	r2, r3
 2174 0010 05D1     		bne	.L153
 2175 0012 0548     		ldr	r0, .L154+4
 2176              		.loc 1 599 0
 2177 0014 03B0     		add	sp, sp, #12
 2178              		.cfi_remember_state
 2179              		.cfi_def_cfa_offset 4
 2180              		@ sp needed
 2181 0016 5DF804EB 		ldr	lr, [sp], #4
 2182              		.cfi_restore 14
 2183              		.cfi_def_cfa_offset 0
 2184              		.loc 1 598 0
 2185 001a FFF7FEBF 		b	chMtxObjectInit
 2186              	.LVL197:
 2187              	.L153:
 2188              		.cfi_restore_state
 2189 001e FFF7FEFF 		bl	__stack_chk_fail
 2190              	.LVL198:
 2191              	.L155:
 2192 0022 00BF     		.align	2
 2193              	.L154:
 2194 0024 00000000 		.word	__stack_chk_guard
 2195 0028 00000000 		.word	.LANCHOR1
 2196              		.cfi_endproc
 2197              	.LFE239:
 2198              		.size	bmk12_setup, .-bmk12_setup
 2199              		.section	.text.bmk10_execute,"ax",%progbits
 2200              		.align	1
 2201              		.p2align 4,,15
 2202              		.syntax unified
 2203              		.thumb
 2204              		.thumb_func
 2205              		.fpu fpv4-sp-d16
 2206              		.type	bmk10_execute, %function
 2207              	bmk10_execute:
 2208              	.LFB236:
 2209              		.loc 1 507 0
 2210              		.cfi_startproc
 2211              		@ args = 0, pretend = 0, frame = 8
 2212              		@ frame_needed = 0, uses_anonymous_args = 0
 2213 0000 2DE9F04F 		push	{r4, r5, r6, r7, r8, r9, r10, fp, lr}
 2214              		.cfi_def_cfa_offset 36
 2215              		.cfi_offset 4, -36
 2216              		.cfi_offset 5, -32
 2217              		.cfi_offset 6, -28
 2218              		.cfi_offset 7, -24
 2219              		.cfi_offset 8, -20
 2220              		.cfi_offset 9, -16
 2221              		.cfi_offset 10, -12
 2222              		.cfi_offset 11, -8
 2223              		.cfi_offset 14, -4
ARM GAS  C:\Users\Moi\AppData\Local\Temp\ccwG6ltn.s 			page 40


 2224 0004 2B4B     		ldr	r3, .L165
 2225 0006 2C4C     		ldr	r4, .L165+4
 2226 0008 1B68     		ldr	r3, [r3]
 2227 000a DFF8C4B0 		ldr	fp, .L165+28
 2228              		.loc 1 515 0
 2229 000e DFF8C480 		ldr	r8, .L165+32
 2230 0012 2A4F     		ldr	r7, .L165+8
 2231              		.loc 1 516 0
 2232 0014 2A4E     		ldr	r6, .L165+12
 2233              		.loc 1 507 0
 2234 0016 83B0     		sub	sp, sp, #12
 2235              		.cfi_def_cfa_offset 48
 2236              		.loc 1 509 0
 2237 0018 0025     		movs	r5, #0
 2238              		.loc 1 507 0
 2239 001a 0193     		str	r3, [sp, #4]
 2240              	.LVL199:
 2241              		.loc 1 511 0
 2242 001c FFF7FEFF 		bl	test_wait_tick
 2243              	.LVL200:
 2244              		.loc 1 512 0
 2245 0020 4FF47A70 		mov	r0, #1000
 2246 0024 FFF7FEFF 		bl	test_start_timer
 2247              	.LVL201:
 2248              		.loc 1 515 0
 2249 0028 AA46     		mov	r10, r5
 2250              	.LBB231:
 2251              	.LBB232:
 2252              	.LBB233:
 2253              	.LBB234:
 2254              	.LBB235:
 2255              		.file 4 "..//ChibiOS//os/ext/CMSIS/include/core_cmFunc.h"
 2256              		.loc 4 546 0
 2257 002a 4FF02009 		mov	r9, #32
 2258              	.LVL202:
 2259              	.L158:
 2260              		.loc 4 546 0 is_stmt 0 discriminator 1
 2261              		.syntax unified
 2262              	@ 546 "..//ChibiOS//os/ext/CMSIS/include/core_cmFunc.h" 1
 2263 002e 89F31188 		MSR basepri, r9
 2264              	@ 0 "" 2
 2265              	.LVL203:
 2266              		.thumb
 2267              		.syntax unified
 2268              	.LBE235:
 2269              	.LBE234:
 2270              	.LBE233:
 2271              		.file 5 "..//ChibiOS//os/rt/include/chsys.h"
 2272              		.loc 5 349 0 is_stmt 1 discriminator 1
 2273 0032 FFF7FEFF 		bl	_stats_start_measure_crit_thd
 2274              	.LVL204:
 2275              		.loc 5 350 0 discriminator 1
 2276 0036 FFF7FEFF 		bl	_dbg_check_lock
 2277              	.LVL205:
 2278              	.LBE232:
 2279              	.LBE231:
 2280              		.loc 1 515 0 discriminator 1
ARM GAS  C:\Users\Moi\AppData\Local\Temp\ccwG6ltn.s 			page 41


 2281 003a 4246     		mov	r2, r8
 2282 003c 3846     		mov	r0, r7
 2283 003e 0023     		movs	r3, #0
 2284 0040 0121     		movs	r1, #1
 2285 0042 FFF7FEFF 		bl	chVTDoSetI
 2286              	.LVL206:
 2287              		.loc 1 516 0 discriminator 1
 2288 0046 0023     		movs	r3, #0
 2289 0048 4246     		mov	r2, r8
 2290 004a 42F21071 		movw	r1, #10000
 2291 004e 3046     		mov	r0, r6
 2292 0050 FFF7FEFF 		bl	chVTDoSetI
 2293              	.LVL207:
 2294              		.loc 1 517 0 discriminator 1
 2295 0054 3846     		mov	r0, r7
 2296 0056 FFF7FEFF 		bl	chVTDoResetI
 2297              	.LVL208:
 2298              		.loc 1 518 0 discriminator 1
 2299 005a 3046     		mov	r0, r6
 2300 005c FFF7FEFF 		bl	chVTDoResetI
 2301              	.LVL209:
 2302              	.LBB236:
 2303              	.LBB237:
 2304              		.loc 5 360 0 discriminator 1
 2305 0060 FFF7FEFF 		bl	_dbg_check_unlock
 2306              	.LVL210:
 2307              		.loc 5 361 0 discriminator 1
 2308 0064 FFF7FEFF 		bl	_stats_stop_measure_crit_thd
 2309              	.LVL211:
 2310              		.loc 5 367 0 discriminator 1
 2311 0068 2368     		ldr	r3, [r4]
 2312 006a A342     		cmp	r3, r4
 2313 006c 07D0     		beq	.L157
 2314              		.loc 5 367 0 is_stmt 0
 2315 006e A269     		ldr	r2, [r4, #24]
 2316 0070 9B68     		ldr	r3, [r3, #8]
 2317 0072 9268     		ldr	r2, [r2, #8]
 2318 0074 9A42     		cmp	r2, r3
 2319 0076 02D2     		bcs	.L157
 2320 0078 1248     		ldr	r0, .L165+16
 2321 007a FFF7FEFF 		bl	chSysHalt
 2322              	.LVL212:
 2323              	.L157:
 2324              	.LBB238:
 2325              	.LBB239:
 2326              	.LBB240:
 2327              		.loc 4 546 0 is_stmt 1
 2328              		.syntax unified
 2329              	@ 546 "..//ChibiOS//os/ext/CMSIS/include/core_cmFunc.h" 1
 2330 007e 8AF31188 		MSR basepri, r10
 2331              	@ 0 "" 2
 2332              	.LVL213:
 2333              		.thumb
 2334              		.syntax unified
 2335              	.LBE240:
 2336              	.LBE239:
 2337              	.LBE238:
ARM GAS  C:\Users\Moi\AppData\Local\Temp\ccwG6ltn.s 			page 42


 2338              	.LBE237:
 2339              	.LBE236:
 2340              		.loc 1 524 0
 2341 0082 9BF80030 		ldrb	r3, [fp]	@ zero_extendqisi2
 2342              		.loc 1 520 0
 2343 0086 0135     		adds	r5, r5, #1
 2344              	.LVL214:
 2345              		.loc 1 524 0
 2346 0088 002B     		cmp	r3, #0
 2347 008a D0D0     		beq	.L158
 2348              		.loc 1 525 0
 2349 008c 0E48     		ldr	r0, .L165+20
 2350 008e FFF7FEFF 		bl	test_print
 2351              	.LVL215:
 2352              		.loc 1 526 0
 2353 0092 6800     		lsls	r0, r5, #1
 2354 0094 FFF7FEFF 		bl	test_printn
 2355              	.LVL216:
 2356              		.loc 1 527 0
 2357 0098 064B     		ldr	r3, .L165
 2358 009a 019A     		ldr	r2, [sp, #4]
 2359 009c 1B68     		ldr	r3, [r3]
 2360 009e 9A42     		cmp	r2, r3
 2361 00a0 05D1     		bne	.L164
 2362 00a2 0A48     		ldr	r0, .L165+24
 2363              		.loc 1 528 0
 2364 00a4 03B0     		add	sp, sp, #12
 2365              		.cfi_remember_state
 2366              		.cfi_def_cfa_offset 36
 2367              		@ sp needed
 2368 00a6 BDE8F04F 		pop	{r4, r5, r6, r7, r8, r9, r10, fp, lr}
 2369              		.cfi_restore 14
 2370              		.cfi_restore 11
 2371              		.cfi_restore 10
 2372              		.cfi_restore 9
 2373              		.cfi_restore 8
 2374              		.cfi_restore 7
 2375              		.cfi_restore 6
 2376              		.cfi_restore 5
 2377              		.cfi_restore 4
 2378              		.cfi_def_cfa_offset 0
 2379              	.LVL217:
 2380              		.loc 1 527 0
 2381 00aa FFF7FEBF 		b	test_println
 2382              	.LVL218:
 2383              	.L164:
 2384              		.cfi_restore_state
 2385 00ae FFF7FEFF 		bl	__stack_chk_fail
 2386              	.LVL219:
 2387              	.L166:
 2388 00b2 00BF     		.align	2
 2389              	.L165:
 2390 00b4 00000000 		.word	__stack_chk_guard
 2391 00b8 00000000 		.word	ch
 2392 00bc 00000000 		.word	.LANCHOR2
 2393 00c0 00000000 		.word	.LANCHOR3
 2394 00c4 00000000 		.word	.LANCHOR4
ARM GAS  C:\Users\Moi\AppData\Local\Temp\ccwG6ltn.s 			page 43


 2395 00c8 00000000 		.word	.LC11
 2396 00cc 00000000 		.word	.LC18
 2397 00d0 00000000 		.word	test_timer_done
 2398 00d4 00000000 		.word	tmo
 2399              		.cfi_endproc
 2400              	.LFE236:
 2401              		.size	bmk10_execute, .-bmk10_execute
 2402              		.section	.text.bmk9_execute,"ax",%progbits
 2403              		.align	1
 2404              		.p2align 4,,15
 2405              		.syntax unified
 2406              		.thumb
 2407              		.thumb_func
 2408              		.fpu fpv4-sp-d16
 2409              		.type	bmk9_execute, %function
 2410              	bmk9_execute:
 2411              	.LFB234:
 2412              		.loc 1 458 0
 2413              		.cfi_startproc
 2414              		@ args = 0, pretend = 0, frame = 8
 2415              		@ frame_needed = 0, uses_anonymous_args = 0
 2416 0000 2DE9F043 		push	{r4, r5, r6, r7, r8, r9, lr}
 2417              		.cfi_def_cfa_offset 28
 2418              		.cfi_offset 4, -28
 2419              		.cfi_offset 5, -24
 2420              		.cfi_offset 6, -20
 2421              		.cfi_offset 7, -16
 2422              		.cfi_offset 8, -12
 2423              		.cfi_offset 9, -8
 2424              		.cfi_offset 14, -4
 2425 0004 DFF8F090 		ldr	r9, .L176+24
 2426              		.loc 1 463 0
 2427 0008 3549     		ldr	r1, .L176
 2428              		.loc 1 458 0
 2429 000a D9F80030 		ldr	r3, [r9]
 2430              		.loc 1 463 0
 2431 000e 3548     		ldr	r0, .L176+4
 2432 0010 354E     		ldr	r6, .L176+8
 2433 0012 DFF8E880 		ldr	r8, .L176+28
 2434              		.loc 1 469 0
 2435 0016 334C     		ldr	r4, .L176+4
 2436              		.loc 1 458 0
 2437 0018 85B0     		sub	sp, sp, #20
 2438              		.cfi_def_cfa_offset 48
 2439              		.loc 1 463 0
 2440 001a 0025     		movs	r5, #0
 2441 001c 1022     		movs	r2, #16
 2442              		.loc 1 458 0
 2443 001e 0393     		str	r3, [sp, #12]
 2444              		.loc 1 463 0
 2445 0020 0095     		str	r5, [sp]
 2446 0022 2B46     		mov	r3, r5
 2447 0024 FFF7FEFF 		bl	chIQObjectInit
 2448              	.LVL220:
 2449              		.loc 1 465 0
 2450 0028 FFF7FEFF 		bl	test_wait_tick
 2451              	.LVL221:
ARM GAS  C:\Users\Moi\AppData\Local\Temp\ccwG6ltn.s 			page 44


 2452              		.loc 1 466 0
 2453 002c 4FF47A70 		mov	r0, #1000
 2454 0030 FFF7FEFF 		bl	test_start_timer
 2455              	.LVL222:
 2456              		.loc 1 469 0
 2457 0034 2F46     		mov	r7, r5
 2458              	.LVL223:
 2459              	.L169:
 2460              	.LBB259:
 2461              	.LBB260:
 2462              	.LBB261:
 2463              	.LBB262:
 2464              	.LBB263:
 2465              		.loc 4 546 0 discriminator 1
 2466 0036 2023     		movs	r3, #32
 2467              		.syntax unified
 2468              	@ 546 "..//ChibiOS//os/ext/CMSIS/include/core_cmFunc.h" 1
 2469 0038 83F31188 		MSR basepri, r3
 2470              	@ 0 "" 2
 2471              	.LVL224:
 2472              		.thumb
 2473              		.syntax unified
 2474              	.LBE263:
 2475              	.LBE262:
 2476              	.LBE261:
 2477              		.loc 5 349 0 discriminator 1
 2478 003c FFF7FEFF 		bl	_stats_start_measure_crit_thd
 2479              	.LVL225:
 2480              		.loc 5 350 0 discriminator 1
 2481 0040 FFF7FEFF 		bl	_dbg_check_lock
 2482              	.LVL226:
 2483              	.LBE260:
 2484              	.LBE259:
 2485              		.loc 1 469 0 discriminator 1
 2486 0044 0021     		movs	r1, #0
 2487 0046 2046     		mov	r0, r4
 2488 0048 FFF7FEFF 		bl	chIQPutI
 2489              	.LVL227:
 2490              		.loc 1 470 0 discriminator 1
 2491 004c 0121     		movs	r1, #1
 2492 004e 2046     		mov	r0, r4
 2493 0050 FFF7FEFF 		bl	chIQPutI
 2494              	.LVL228:
 2495              		.loc 1 471 0 discriminator 1
 2496 0054 0221     		movs	r1, #2
 2497 0056 2046     		mov	r0, r4
 2498 0058 FFF7FEFF 		bl	chIQPutI
 2499              	.LVL229:
 2500              		.loc 1 472 0 discriminator 1
 2501 005c 0321     		movs	r1, #3
 2502 005e 2046     		mov	r0, r4
 2503 0060 FFF7FEFF 		bl	chIQPutI
 2504              	.LVL230:
 2505              	.LBB264:
 2506              	.LBB265:
 2507              		.loc 5 360 0 discriminator 1
 2508 0064 FFF7FEFF 		bl	_dbg_check_unlock
ARM GAS  C:\Users\Moi\AppData\Local\Temp\ccwG6ltn.s 			page 45


 2509              	.LVL231:
 2510              		.loc 5 361 0 discriminator 1
 2511 0068 FFF7FEFF 		bl	_stats_stop_measure_crit_thd
 2512              	.LVL232:
 2513              		.loc 5 367 0 discriminator 1
 2514 006c 3368     		ldr	r3, [r6]
 2515 006e B342     		cmp	r3, r6
 2516 0070 07D0     		beq	.L168
 2517              		.loc 5 367 0 is_stmt 0
 2518 0072 B269     		ldr	r2, [r6, #24]
 2519 0074 9B68     		ldr	r3, [r3, #8]
 2520 0076 9268     		ldr	r2, [r2, #8]
 2521 0078 9A42     		cmp	r2, r3
 2522 007a 02D2     		bcs	.L168
 2523 007c 1B48     		ldr	r0, .L176+12
 2524 007e FFF7FEFF 		bl	chSysHalt
 2525              	.LVL233:
 2526              	.L168:
 2527              	.LBB266:
 2528              	.LBB267:
 2529              	.LBB268:
 2530              		.loc 4 546 0 is_stmt 1
 2531              		.syntax unified
 2532              	@ 546 "..//ChibiOS//os/ext/CMSIS/include/core_cmFunc.h" 1
 2533 0082 87F31188 		MSR basepri, r7
 2534              	@ 0 "" 2
 2535              	.LVL234:
 2536              		.thumb
 2537              		.syntax unified
 2538              	.LBE268:
 2539              	.LBE267:
 2540              	.LBE266:
 2541              	.LBE265:
 2542              	.LBE264:
 2543              	.LBB269:
 2544              	.LBB270:
 2545              		.file 6 "..//ChibiOS//os/rt/include/chqueues.h"
 2546              		.loc 6 341 0
 2547 0086 4FF0FF31 		mov	r1, #-1
 2548 008a 2046     		mov	r0, r4
 2549 008c FFF7FEFF 		bl	chIQGetTimeout
 2550              	.LVL235:
 2551              	.LBE270:
 2552              	.LBE269:
 2553              	.LBB271:
 2554              	.LBB272:
 2555 0090 4FF0FF31 		mov	r1, #-1
 2556 0094 2046     		mov	r0, r4
 2557 0096 FFF7FEFF 		bl	chIQGetTimeout
 2558              	.LVL236:
 2559              	.LBE272:
 2560              	.LBE271:
 2561              	.LBB273:
 2562              	.LBB274:
 2563 009a 4FF0FF31 		mov	r1, #-1
 2564 009e 2046     		mov	r0, r4
 2565 00a0 FFF7FEFF 		bl	chIQGetTimeout
ARM GAS  C:\Users\Moi\AppData\Local\Temp\ccwG6ltn.s 			page 46


 2566              	.LVL237:
 2567              	.LBE274:
 2568              	.LBE273:
 2569              	.LBB275:
 2570              	.LBB276:
 2571 00a4 2046     		mov	r0, r4
 2572 00a6 4FF0FF31 		mov	r1, #-1
 2573 00aa FFF7FEFF 		bl	chIQGetTimeout
 2574              	.LVL238:
 2575              	.LBE276:
 2576              	.LBE275:
 2577              		.loc 1 482 0
 2578 00ae 98F80030 		ldrb	r3, [r8]	@ zero_extendqisi2
 2579              		.loc 1 478 0
 2580 00b2 0135     		adds	r5, r5, #1
 2581              	.LVL239:
 2582              		.loc 1 482 0
 2583 00b4 002B     		cmp	r3, #0
 2584 00b6 BED0     		beq	.L169
 2585              		.loc 1 483 0
 2586 00b8 0D48     		ldr	r0, .L176+16
 2587 00ba FFF7FEFF 		bl	test_print
 2588              	.LVL240:
 2589              		.loc 1 484 0
 2590 00be A800     		lsls	r0, r5, #2
 2591 00c0 FFF7FEFF 		bl	test_printn
 2592              	.LVL241:
 2593              		.loc 1 485 0
 2594 00c4 039A     		ldr	r2, [sp, #12]
 2595 00c6 D9F80030 		ldr	r3, [r9]
 2596 00ca 9A42     		cmp	r2, r3
 2597 00cc 05D1     		bne	.L175
 2598 00ce 0948     		ldr	r0, .L176+20
 2599              		.loc 1 486 0
 2600 00d0 05B0     		add	sp, sp, #20
 2601              		.cfi_remember_state
 2602              		.cfi_def_cfa_offset 28
 2603              		@ sp needed
 2604 00d2 BDE8F043 		pop	{r4, r5, r6, r7, r8, r9, lr}
 2605              		.cfi_restore 14
 2606              		.cfi_restore 9
 2607              		.cfi_restore 8
 2608              		.cfi_restore 7
 2609              		.cfi_restore 6
 2610              		.cfi_restore 5
 2611              		.cfi_restore 4
 2612              		.cfi_def_cfa_offset 0
 2613              	.LVL242:
 2614              		.loc 1 485 0
 2615 00d6 FFF7FEBF 		b	test_println
 2616              	.LVL243:
 2617              	.L175:
 2618              		.cfi_restore_state
 2619 00da FFF7FEFF 		bl	__stack_chk_fail
 2620              	.LVL244:
 2621              	.L177:
 2622 00de 00BF     		.align	2
ARM GAS  C:\Users\Moi\AppData\Local\Temp\ccwG6ltn.s 			page 47


 2623              	.L176:
 2624 00e0 00000000 		.word	.LANCHOR5
 2625 00e4 00000000 		.word	.LANCHOR6
 2626 00e8 00000000 		.word	ch
 2627 00ec 00000000 		.word	.LANCHOR4
 2628 00f0 00000000 		.word	.LC11
 2629 00f4 00000000 		.word	.LC19
 2630 00f8 00000000 		.word	__stack_chk_guard
 2631 00fc 00000000 		.word	test_timer_done
 2632              		.cfi_endproc
 2633              	.LFE234:
 2634              		.size	bmk9_execute, .-bmk9_execute
 2635              		.section	.text.bmk4_execute,"ax",%progbits
 2636              		.align	1
 2637              		.p2align 4,,15
 2638              		.syntax unified
 2639              		.thumb
 2640              		.thumb_func
 2641              		.fpu fpv4-sp-d16
 2642              		.type	bmk4_execute, %function
 2643              	bmk4_execute:
 2644              	.LFB226:
 2645              		.loc 1 219 0
 2646              		.cfi_startproc
 2647              		@ args = 0, pretend = 0, frame = 8
 2648              		@ frame_needed = 0, uses_anonymous_args = 0
 2649 0000 2DE9F04F 		push	{r4, r5, r6, r7, r8, r9, r10, fp, lr}
 2650              		.cfi_def_cfa_offset 36
 2651              		.cfi_offset 4, -36
 2652              		.cfi_offset 5, -32
 2653              		.cfi_offset 6, -28
 2654              		.cfi_offset 7, -24
 2655              		.cfi_offset 8, -20
 2656              		.cfi_offset 9, -16
 2657              		.cfi_offset 10, -12
 2658              		.cfi_offset 11, -8
 2659              		.cfi_offset 14, -4
 2660              	.LBB301:
 2661              	.LBB302:
 2662              	.LBB303:
 2663              	.LBB304:
 2664              		.loc 3 176 0
 2665 0004 404D     		ldr	r5, .L189
 2666              	.LBE304:
 2667              	.LBE303:
 2668              	.LBE302:
 2669              	.LBE301:
 2670              		.loc 1 223 0
 2671 0006 414A     		ldr	r2, .L189+4
 2672              	.LBB306:
 2673              	.LBB305:
 2674              		.loc 3 189 0
 2675 0008 AB69     		ldr	r3, [r5, #24]
 2676              	.LBE305:
 2677              	.LBE306:
 2678              		.loc 1 219 0
 2679 000a DFF818A1 		ldr	r10, .L189+28
ARM GAS  C:\Users\Moi\AppData\Local\Temp\ccwG6ltn.s 			page 48


 2680              		.loc 1 223 0
 2681 000e 1068     		ldr	r0, [r2]
 2682 0010 9A68     		ldr	r2, [r3, #8]
 2683              		.loc 1 219 0
 2684 0012 DAF80010 		ldr	r1, [r10]
 2685              		.loc 1 223 0
 2686 0016 3E4B     		ldr	r3, .L189+8
 2687 0018 DFF80C91 		ldr	r9, .L189+32
 2688              	.LBB307:
 2689              	.LBB308:
 2690              		.loc 5 367 0
 2691 001c DFF800B1 		ldr	fp, .L189+24
 2692              	.LBE308:
 2693              	.LBE307:
 2694              		.loc 1 219 0
 2695 0020 85B0     		sub	sp, sp, #20
 2696              		.cfi_def_cfa_offset 56
 2697              		.loc 1 223 0
 2698 0022 0026     		movs	r6, #0
 2699 0024 0132     		adds	r2, r2, #1
 2700              		.loc 1 219 0
 2701 0026 0391     		str	r1, [sp, #12]
 2702              		.loc 1 223 0
 2703 0028 0096     		str	r6, [sp]
 2704 002a 4FF4FC71 		mov	r1, #504
 2705 002e FFF7FEFF 		bl	chThdCreateStatic
 2706              	.LVL245:
 2707 0032 384B     		ldr	r3, .L189+12
 2708 0034 0446     		mov	r4, r0
 2709 0036 1860     		str	r0, [r3]
 2710              	.LVL246:
 2711              		.loc 1 226 0
 2712 0038 FFF7FEFF 		bl	test_wait_tick
 2713              	.LVL247:
 2714              		.loc 1 227 0
 2715 003c 4FF47A70 		mov	r0, #1000
 2716 0040 FFF7FEFF 		bl	test_start_timer
 2717              	.LVL248:
 2718              		.loc 1 230 0
 2719 0044 B046     		mov	r8, r6
 2720              	.LBB313:
 2721              	.LBB314:
 2722              	.LBB315:
 2723              	.LBB316:
 2724              	.LBB317:
 2725              		.loc 4 546 0
 2726 0046 2027     		movs	r7, #32
 2727              	.LVL249:
 2728              	.L180:
 2729              		.loc 4 546 0 is_stmt 0 discriminator 1
 2730              		.syntax unified
 2731              	@ 546 "..//ChibiOS//os/ext/CMSIS/include/core_cmFunc.h" 1
 2732 0048 87F31188 		MSR basepri, r7
 2733              	@ 0 "" 2
 2734              	.LVL250:
 2735              		.thumb
 2736              		.syntax unified
ARM GAS  C:\Users\Moi\AppData\Local\Temp\ccwG6ltn.s 			page 49


 2737              	.LBE317:
 2738              	.LBE316:
 2739              	.LBE315:
 2740              		.loc 5 349 0 is_stmt 1 discriminator 1
 2741 004c FFF7FEFF 		bl	_stats_start_measure_crit_thd
 2742              	.LVL251:
 2743              		.loc 5 350 0 discriminator 1
 2744 0050 FFF7FEFF 		bl	_dbg_check_lock
 2745              	.LVL252:
 2746              	.LBE314:
 2747              	.LBE313:
 2748              		.loc 1 230 0 discriminator 1
 2749 0054 2046     		mov	r0, r4
 2750 0056 0021     		movs	r1, #0
 2751 0058 FFF7FEFF 		bl	chSchWakeupS
 2752              	.LVL253:
 2753              		.loc 1 231 0 discriminator 1
 2754 005c 2046     		mov	r0, r4
 2755 005e 0021     		movs	r1, #0
 2756 0060 FFF7FEFF 		bl	chSchWakeupS
 2757              	.LVL254:
 2758              		.loc 1 232 0 discriminator 1
 2759 0064 2046     		mov	r0, r4
 2760 0066 0021     		movs	r1, #0
 2761 0068 FFF7FEFF 		bl	chSchWakeupS
 2762              	.LVL255:
 2763              		.loc 1 233 0 discriminator 1
 2764 006c 2046     		mov	r0, r4
 2765 006e 0021     		movs	r1, #0
 2766 0070 FFF7FEFF 		bl	chSchWakeupS
 2767              	.LVL256:
 2768              	.LBB318:
 2769              	.LBB312:
 2770              		.loc 5 360 0 discriminator 1
 2771 0074 FFF7FEFF 		bl	_dbg_check_unlock
 2772              	.LVL257:
 2773              		.loc 5 361 0 discriminator 1
 2774 0078 FFF7FEFF 		bl	_stats_stop_measure_crit_thd
 2775              	.LVL258:
 2776              		.loc 5 367 0 discriminator 1
 2777 007c 2B68     		ldr	r3, [r5]
 2778 007e AB42     		cmp	r3, r5
 2779 0080 07D0     		beq	.L179
 2780              		.loc 5 367 0 is_stmt 0
 2781 0082 AA69     		ldr	r2, [r5, #24]
 2782 0084 9B68     		ldr	r3, [r3, #8]
 2783 0086 9268     		ldr	r2, [r2, #8]
 2784 0088 9A42     		cmp	r2, r3
 2785 008a 02D2     		bcs	.L179
 2786 008c 5846     		mov	r0, fp
 2787 008e FFF7FEFF 		bl	chSysHalt
 2788              	.LVL259:
 2789              	.L179:
 2790              	.LBB309:
 2791              	.LBB310:
 2792              	.LBB311:
 2793              		.loc 4 546 0 is_stmt 1
ARM GAS  C:\Users\Moi\AppData\Local\Temp\ccwG6ltn.s 			page 50


 2794              		.syntax unified
 2795              	@ 546 "..//ChibiOS//os/ext/CMSIS/include/core_cmFunc.h" 1
 2796 0092 88F31188 		MSR basepri, r8
 2797              	@ 0 "" 2
 2798              	.LVL260:
 2799              		.thumb
 2800              		.syntax unified
 2801              	.LBE311:
 2802              	.LBE310:
 2803              	.LBE309:
 2804              	.LBE312:
 2805              	.LBE318:
 2806              		.loc 1 239 0
 2807 0096 99F80030 		ldrb	r3, [r9]	@ zero_extendqisi2
 2808              		.loc 1 235 0
 2809 009a 0436     		adds	r6, r6, #4
 2810              	.LVL261:
 2811              		.loc 1 239 0
 2812 009c 002B     		cmp	r3, #0
 2813 009e D3D0     		beq	.L180
 2814              	.LVL262:
 2815              	.LBB319:
 2816              	.LBB320:
 2817              	.LBB321:
 2818              	.LBB322:
 2819              	.LBB323:
 2820              		.loc 4 546 0
 2821 00a0 2023     		movs	r3, #32
 2822              		.syntax unified
 2823              	@ 546 "..//ChibiOS//os/ext/CMSIS/include/core_cmFunc.h" 1
 2824 00a2 83F31188 		MSR basepri, r3
 2825              	@ 0 "" 2
 2826              	.LVL263:
 2827              		.thumb
 2828              		.syntax unified
 2829              	.LBE323:
 2830              	.LBE322:
 2831              	.LBE321:
 2832              		.loc 5 349 0
 2833 00a6 FFF7FEFF 		bl	_stats_start_measure_crit_thd
 2834              	.LVL264:
 2835              		.loc 5 350 0
 2836 00aa FFF7FEFF 		bl	_dbg_check_lock
 2837              	.LVL265:
 2838              	.LBE320:
 2839              	.LBE319:
 2840              		.loc 1 241 0
 2841 00ae 2046     		mov	r0, r4
 2842 00b0 4FF0FF31 		mov	r1, #-1
 2843 00b4 FFF7FEFF 		bl	chSchWakeupS
 2844              	.LVL266:
 2845              	.LBB324:
 2846              	.LBB325:
 2847              		.loc 5 360 0
 2848 00b8 FFF7FEFF 		bl	_dbg_check_unlock
 2849              	.LVL267:
 2850              		.loc 5 361 0
ARM GAS  C:\Users\Moi\AppData\Local\Temp\ccwG6ltn.s 			page 51


 2851 00bc FFF7FEFF 		bl	_stats_stop_measure_crit_thd
 2852              	.LVL268:
 2853              		.loc 5 367 0
 2854 00c0 2B68     		ldr	r3, [r5]
 2855 00c2 AB42     		cmp	r3, r5
 2856 00c4 04D0     		beq	.L181
 2857 00c6 AA69     		ldr	r2, [r5, #24]
 2858 00c8 9B68     		ldr	r3, [r3, #8]
 2859 00ca 9268     		ldr	r2, [r2, #8]
 2860 00cc 9A42     		cmp	r2, r3
 2861 00ce 15D3     		bcc	.L187
 2862              	.L181:
 2863              	.LVL269:
 2864              	.LBB326:
 2865              	.LBB327:
 2866              	.LBB328:
 2867              		.loc 4 546 0
 2868 00d0 0023     		movs	r3, #0
 2869              		.syntax unified
 2870              	@ 546 "..//ChibiOS//os/ext/CMSIS/include/core_cmFunc.h" 1
 2871 00d2 83F31188 		MSR basepri, r3
 2872              	@ 0 "" 2
 2873              	.LVL270:
 2874              		.thumb
 2875              		.syntax unified
 2876              	.LBE328:
 2877              	.LBE327:
 2878              	.LBE326:
 2879              	.LBE325:
 2880              	.LBE324:
 2881              		.loc 1 244 0
 2882 00d6 FFF7FEFF 		bl	test_wait_threads
 2883              	.LVL271:
 2884              		.loc 1 245 0
 2885 00da 0F48     		ldr	r0, .L189+16
 2886 00dc FFF7FEFF 		bl	test_print
 2887              	.LVL272:
 2888              		.loc 1 246 0
 2889 00e0 7000     		lsls	r0, r6, #1
 2890 00e2 FFF7FEFF 		bl	test_printn
 2891              	.LVL273:
 2892              		.loc 1 247 0
 2893 00e6 039A     		ldr	r2, [sp, #12]
 2894 00e8 DAF80030 		ldr	r3, [r10]
 2895 00ec 9A42     		cmp	r2, r3
 2896 00ee 09D1     		bne	.L188
 2897 00f0 0A48     		ldr	r0, .L189+20
 2898              		.loc 1 248 0
 2899 00f2 05B0     		add	sp, sp, #20
 2900              		.cfi_remember_state
 2901              		.cfi_def_cfa_offset 36
 2902              		@ sp needed
 2903 00f4 BDE8F04F 		pop	{r4, r5, r6, r7, r8, r9, r10, fp, lr}
 2904              		.cfi_restore 14
 2905              		.cfi_restore 11
 2906              		.cfi_restore 10
 2907              		.cfi_restore 9
ARM GAS  C:\Users\Moi\AppData\Local\Temp\ccwG6ltn.s 			page 52


 2908              		.cfi_restore 8
 2909              		.cfi_restore 7
 2910              		.cfi_restore 6
 2911              		.cfi_restore 5
 2912              		.cfi_restore 4
 2913              		.cfi_def_cfa_offset 0
 2914              	.LVL274:
 2915              		.loc 1 247 0
 2916 00f8 FFF7FEBF 		b	test_println
 2917              	.LVL275:
 2918              	.L187:
 2919              		.cfi_restore_state
 2920              	.LBB330:
 2921              	.LBB329:
 2922              		.loc 5 367 0
 2923 00fc 0848     		ldr	r0, .L189+24
 2924 00fe FFF7FEFF 		bl	chSysHalt
 2925              	.LVL276:
 2926 0102 E5E7     		b	.L181
 2927              	.L188:
 2928              	.LBE329:
 2929              	.LBE330:
 2930              		.loc 1 247 0
 2931 0104 FFF7FEFF 		bl	__stack_chk_fail
 2932              	.LVL277:
 2933              	.L190:
 2934              		.align	2
 2935              	.L189:
 2936 0108 00000000 		.word	ch
 2937 010c 00000000 		.word	wa
 2938 0110 00000000 		.word	thread4
 2939 0114 00000000 		.word	threads
 2940 0118 00000000 		.word	.LC11
 2941 011c 0C000000 		.word	.LC14
 2942 0120 00000000 		.word	.LANCHOR4
 2943 0124 00000000 		.word	__stack_chk_guard
 2944 0128 00000000 		.word	test_timer_done
 2945              		.cfi_endproc
 2946              	.LFE226:
 2947              		.size	bmk4_execute, .-bmk4_execute
 2948              		.section	.text.thread4,"ax",%progbits
 2949              		.align	1
 2950              		.p2align 4,,15
 2951              		.syntax unified
 2952              		.thumb
 2953              		.thumb_func
 2954              		.fpu fpv4-sp-d16
 2955              		.type	thread4, %function
 2956              	thread4:
 2957              	.LFB225:
 2958              		.loc 1 206 0
 2959              		.cfi_startproc
 2960              		@ args = 0, pretend = 0, frame = 8
 2961              		@ frame_needed = 0, uses_anonymous_args = 0
 2962              	.LVL278:
 2963 0000 70B5     		push	{r4, r5, r6, lr}
 2964              		.cfi_def_cfa_offset 16
ARM GAS  C:\Users\Moi\AppData\Local\Temp\ccwG6ltn.s 			page 53


 2965              		.cfi_offset 4, -16
 2966              		.cfi_offset 5, -12
 2967              		.cfi_offset 6, -8
 2968              		.cfi_offset 14, -4
 2969 0002 174E     		ldr	r6, .L200
 2970              	.LBB343:
 2971              	.LBB344:
 2972              		.loc 3 176 0
 2973 0004 174D     		ldr	r5, .L200+4
 2974              	.LBE344:
 2975              	.LBE343:
 2976              		.loc 1 206 0
 2977 0006 3368     		ldr	r3, [r6]
 2978              	.LBB346:
 2979              	.LBB345:
 2980              		.loc 3 176 0
 2981 0008 AC69     		ldr	r4, [r5, #24]
 2982              	.LVL279:
 2983              	.LBE345:
 2984              	.LBE346:
 2985              		.loc 1 206 0
 2986 000a 82B0     		sub	sp, sp, #8
 2987              		.cfi_def_cfa_offset 24
 2988              		.loc 1 206 0
 2989 000c 0193     		str	r3, [sp, #4]
 2990              	.LBB347:
 2991              	.LBB348:
 2992              	.LBB349:
 2993              	.LBB350:
 2994              	.LBB351:
 2995              		.loc 4 546 0
 2996 000e 2023     		movs	r3, #32
 2997              		.syntax unified
 2998              	@ 546 "..//ChibiOS//os/ext/CMSIS/include/core_cmFunc.h" 1
 2999 0010 83F31188 		MSR basepri, r3
 3000              	@ 0 "" 2
 3001              	.LVL280:
 3002              		.thumb
 3003              		.syntax unified
 3004              	.LBE351:
 3005              	.LBE350:
 3006              	.LBE349:
 3007              		.loc 5 349 0
 3008 0014 FFF7FEFF 		bl	_stats_start_measure_crit_thd
 3009              	.LVL281:
 3010              		.loc 5 350 0
 3011 0018 FFF7FEFF 		bl	_dbg_check_lock
 3012              	.LVL282:
 3013              	.L192:
 3014              	.LBE348:
 3015              	.LBE347:
 3016              		.loc 1 213 0 discriminator 1
 3017 001c 0320     		movs	r0, #3
 3018 001e FFF7FEFF 		bl	chSchGoSleepS
 3019              	.LVL283:
 3020              		.loc 1 215 0 discriminator 1
 3021 0022 A36A     		ldr	r3, [r4, #40]
ARM GAS  C:\Users\Moi\AppData\Local\Temp\ccwG6ltn.s 			page 54


 3022 0024 002B     		cmp	r3, #0
 3023 0026 F9D0     		beq	.L192
 3024              	.LBB352:
 3025              	.LBB353:
 3026              		.loc 5 360 0
 3027 0028 FFF7FEFF 		bl	_dbg_check_unlock
 3028              	.LVL284:
 3029              		.loc 5 361 0
 3030 002c FFF7FEFF 		bl	_stats_stop_measure_crit_thd
 3031              	.LVL285:
 3032              		.loc 5 367 0
 3033 0030 2B68     		ldr	r3, [r5]
 3034 0032 AB42     		cmp	r3, r5
 3035 0034 04D0     		beq	.L193
 3036 0036 AA69     		ldr	r2, [r5, #24]
 3037 0038 9B68     		ldr	r3, [r3, #8]
 3038 003a 9268     		ldr	r2, [r2, #8]
 3039 003c 9A42     		cmp	r2, r3
 3040 003e 08D3     		bcc	.L198
 3041              	.L193:
 3042              	.LVL286:
 3043              	.LBB354:
 3044              	.LBB355:
 3045              	.LBB356:
 3046              		.loc 4 546 0
 3047 0040 0023     		movs	r3, #0
 3048              		.syntax unified
 3049              	@ 546 "..//ChibiOS//os/ext/CMSIS/include/core_cmFunc.h" 1
 3050 0042 83F31188 		MSR basepri, r3
 3051              	@ 0 "" 2
 3052              	.LVL287:
 3053              		.thumb
 3054              		.syntax unified
 3055              	.LBE356:
 3056              	.LBE355:
 3057              	.LBE354:
 3058              	.LBE353:
 3059              	.LBE352:
 3060              		.loc 1 217 0
 3061 0046 019A     		ldr	r2, [sp, #4]
 3062 0048 3368     		ldr	r3, [r6]
 3063 004a 9A42     		cmp	r2, r3
 3064 004c 05D1     		bne	.L199
 3065 004e 02B0     		add	sp, sp, #8
 3066              		.cfi_remember_state
 3067              		.cfi_def_cfa_offset 16
 3068              		@ sp needed
 3069 0050 70BD     		pop	{r4, r5, r6, pc}
 3070              	.L198:
 3071              		.cfi_restore_state
 3072              	.LBB358:
 3073              	.LBB357:
 3074              		.loc 5 367 0
 3075 0052 0548     		ldr	r0, .L200+8
 3076 0054 FFF7FEFF 		bl	chSysHalt
 3077              	.LVL288:
 3078 0058 F2E7     		b	.L193
ARM GAS  C:\Users\Moi\AppData\Local\Temp\ccwG6ltn.s 			page 55


 3079              	.L199:
 3080              	.LBE357:
 3081              	.LBE358:
 3082              		.loc 1 217 0
 3083 005a FFF7FEFF 		bl	__stack_chk_fail
 3084              	.LVL289:
 3085              	.L201:
 3086 005e 00BF     		.align	2
 3087              	.L200:
 3088 0060 00000000 		.word	__stack_chk_guard
 3089 0064 00000000 		.word	ch
 3090 0068 00000000 		.word	.LANCHOR4
 3091              		.cfi_endproc
 3092              	.LFE225:
 3093              		.size	thread4, .-thread4
 3094              		.global	patternbmk
 3095              		.global	testbmk13
 3096              		.global	testbmk12
 3097              		.global	testbmk11
 3098              		.global	testbmk10
 3099              		.global	testbmk9
 3100              		.global	testbmk8
 3101              		.global	testbmk7
 3102              		.global	testbmk6
 3103              		.global	testbmk5
 3104              		.global	testbmk4
 3105              		.global	testbmk3
 3106              		.global	testbmk2
 3107              		.global	testbmk1
 3108              		.section	.bss.ib.7996,"aw",%nobits
 3109              		.align	2
 3110              		.set	.LANCHOR5,. + 0
 3111              		.type	ib.7996, %object
 3112              		.size	ib.7996, 16
 3113              	ib.7996:
 3114 0000 00000000 		.space	16
 3114      00000000 
 3114      00000000 
 3114      00000000 
 3115              		.section	.bss.iq.7997,"aw",%nobits
 3116              		.align	2
 3117              		.set	.LANCHOR6,. + 0
 3118              		.type	iq.7997, %object
 3119              		.size	iq.7997, 36
 3120              	iq.7997:
 3121 0000 00000000 		.space	36
 3121      00000000 
 3121      00000000 
 3121      00000000 
 3121      00000000 
 3122              		.section	.bss.mtx1,"aw",%nobits
 3123              		.align	2
 3124              		.set	.LANCHOR1,. + 0
 3125              		.type	mtx1, %object
 3126              		.size	mtx1, 20
 3127              	mtx1:
 3128 0000 00000000 		.space	20
ARM GAS  C:\Users\Moi\AppData\Local\Temp\ccwG6ltn.s 			page 56


 3128      00000000 
 3128      00000000 
 3128      00000000 
 3128      00000000 
 3129              		.section	.bss.sem1,"aw",%nobits
 3130              		.align	2
 3131              		.set	.LANCHOR0,. + 0
 3132              		.type	sem1, %object
 3133              		.size	sem1, 12
 3134              	sem1:
 3135 0000 00000000 		.space	12
 3135      00000000 
 3135      00000000 
 3136              		.section	.bss.vt1.8007,"aw",%nobits
 3137              		.align	2
 3138              		.set	.LANCHOR2,. + 0
 3139              		.type	vt1.8007, %object
 3140              		.size	vt1.8007, 20
 3141              	vt1.8007:
 3142 0000 00000000 		.space	20
 3142      00000000 
 3142      00000000 
 3142      00000000 
 3142      00000000 
 3143              		.section	.bss.vt2.8008,"aw",%nobits
 3144              		.align	2
 3145              		.set	.LANCHOR3,. + 0
 3146              		.type	vt2.8008, %object
 3147              		.size	vt2.8008, 20
 3148              	vt2.8008:
 3149 0000 00000000 		.space	20
 3149      00000000 
 3149      00000000 
 3149      00000000 
 3149      00000000 
 3150              		.section	.rodata.__func__.7153,"a",%progbits
 3151              		.align	2
 3152              		.set	.LANCHOR4,. + 0
 3153              		.type	__func__.7153, %object
 3154              		.size	__func__.7153, 12
 3155              	__func__.7153:
 3156 0000 63685379 		.ascii	"chSysUnlock\000"
 3156      73556E6C 
 3156      6F636B00 
 3157              		.section	.rodata.bmk10_execute.str1.4,"aMS",%progbits,1
 3158              		.align	2
 3159              	.LC18:
 3160 0000 2074696D 		.ascii	" timers/S\000"
 3160      6572732F 
 3160      5300
 3161              		.section	.rodata.bmk11_execute.str1.4,"aMS",%progbits,1
 3162              		.align	2
 3163              	.LC16:
 3164 0000 20776169 		.ascii	" wait+signal/S\000"
 3164      742B7369 
 3164      676E616C 
 3164      2F5300
ARM GAS  C:\Users\Moi\AppData\Local\Temp\ccwG6ltn.s 			page 57


 3165              		.section	.rodata.bmk12_execute.str1.4,"aMS",%progbits,1
 3166              		.align	2
 3167              	.LC17:
 3168 0000 206C6F63 		.ascii	" lock+unlock/S\000"
 3168      6B2B756E 
 3168      6C6F636B 
 3168      2F5300
 3169              		.section	.rodata.bmk13_execute.str1.4,"aMS",%progbits,1
 3170              		.align	2
 3171              	.LC0:
 3172 0000 2D2D2D20 		.ascii	"--- System: \000"
 3172      53797374 
 3172      656D3A20 
 3172      00
 3173 000d 000000   		.space	3
 3174              	.LC1:
 3175 0010 20627974 		.ascii	" bytes\000"
 3175      657300
 3176 0017 00       		.space	1
 3177              	.LC2:
 3178 0018 2D2D2D20 		.ascii	"--- Thread: \000"
 3178      54687265 
 3178      61643A20 
 3178      00
 3179 0025 000000   		.space	3
 3180              	.LC3:
 3181 0028 2D2D2D20 		.ascii	"--- Timer : \000"
 3181      54696D65 
 3181      72203A20 
 3181      00
 3182 0035 000000   		.space	3
 3183              	.LC4:
 3184 0038 2D2D2D20 		.ascii	"--- Semaph: \000"
 3184      53656D61 
 3184      70683A20 
 3184      00
 3185 0045 000000   		.space	3
 3186              	.LC5:
 3187 0048 2D2D2D20 		.ascii	"--- EventS: \000"
 3187      4576656E 
 3187      74533A20 
 3187      00
 3188 0055 000000   		.space	3
 3189              	.LC6:
 3190 0058 2D2D2D20 		.ascii	"--- EventL: \000"
 3190      4576656E 
 3190      744C3A20 
 3190      00
 3191 0065 000000   		.space	3
 3192              	.LC7:
 3193 0068 2D2D2D20 		.ascii	"--- Mutex : \000"
 3193      4D757465 
 3193      78203A20 
 3193      00
 3194 0075 000000   		.space	3
 3195              	.LC8:
 3196 0078 2D2D2D20 		.ascii	"--- CondV.: \000"
ARM GAS  C:\Users\Moi\AppData\Local\Temp\ccwG6ltn.s 			page 58


 3196      436F6E64 
 3196      562E3A20 
 3196      00
 3197 0085 000000   		.space	3
 3198              	.LC9:
 3199 0088 2D2D2D20 		.ascii	"--- Queue : \000"
 3199      51756575 
 3199      65203A20 
 3199      00
 3200 0095 000000   		.space	3
 3201              	.LC10:
 3202 0098 2D2D2D20 		.ascii	"--- MailB.: \000"
 3202      4D61696C 
 3202      422E3A20 
 3202      00
 3203              		.section	.rodata.bmk1_execute.str1.4,"aMS",%progbits,1
 3204              		.align	2
 3205              	.LC13:
 3206 0000 206D7367 		.ascii	" msgs/S, \000"
 3206      732F532C 
 3206      2000
 3207 000a 0000     		.space	2
 3208              	.LC14:
 3209 000c 20637478 		.ascii	" ctxswc/S\000"
 3209      7377632F 
 3209      5300
 3210              		.section	.rodata.bmk6_execute.str1.4,"aMS",%progbits,1
 3211              		.align	2
 3212              	.LC11:
 3213 0000 2D2D2D20 		.ascii	"--- Score : \000"
 3213      53636F72 
 3213      65203A20 
 3213      00
 3214 000d 000000   		.space	3
 3215              	.LC12:
 3216 0010 20746872 		.ascii	" threads/S\000"
 3216      65616473 
 3216      2F5300
 3217              		.section	.rodata.bmk7_execute.str1.4,"aMS",%progbits,1
 3218              		.align	2
 3219              	.LC15:
 3220 0000 20726573 		.ascii	" reschedules/S, \000"
 3220      63686564 
 3220      756C6573 
 3220      2F532C20 
 3220      00
 3221              		.section	.rodata.bmk9_execute.str1.4,"aMS",%progbits,1
 3222              		.align	2
 3223              	.LC19:
 3224 0000 20627974 		.ascii	" bytes/S\000"
 3224      65732F53 
 3224      00
 3225              		.section	.rodata.patternbmk,"a",%progbits
 3226              		.align	2
 3227              		.type	patternbmk, %object
 3228              		.size	patternbmk, 56
 3229              	patternbmk:
ARM GAS  C:\Users\Moi\AppData\Local\Temp\ccwG6ltn.s 			page 59


 3230 0000 00000000 		.word	testbmk1
 3231 0004 00000000 		.word	testbmk2
 3232 0008 00000000 		.word	testbmk3
 3233 000c 00000000 		.word	testbmk4
 3234 0010 00000000 		.word	testbmk5
 3235 0014 00000000 		.word	testbmk6
 3236 0018 00000000 		.word	testbmk7
 3237 001c 00000000 		.word	testbmk8
 3238 0020 00000000 		.word	testbmk9
 3239 0024 00000000 		.word	testbmk10
 3240 0028 00000000 		.word	testbmk11
 3241 002c 00000000 		.word	testbmk12
 3242 0030 00000000 		.word	testbmk13
 3243 0034 00000000 		.word	0
 3244              		.section	.rodata.str1.4,"aMS",%progbits,1
 3245              		.align	2
 3246              	.LC20:
 3247 0000 42656E63 		.ascii	"Benchmark, RAM footprint\000"
 3247      686D6172 
 3247      6B2C2052 
 3247      414D2066 
 3247      6F6F7470 
 3248 0019 000000   		.space	3
 3249              	.LC21:
 3250 001c 42656E63 		.ascii	"Benchmark, mutexes lock/unlock\000"
 3250      686D6172 
 3250      6B2C206D 
 3250      75746578 
 3250      6573206C 
 3251 003b 00       		.space	1
 3252              	.LC22:
 3253 003c 42656E63 		.ascii	"Benchmark, semaphores wait/signal\000"
 3253      686D6172 
 3253      6B2C2073 
 3253      656D6170 
 3253      686F7265 
 3254 005e 0000     		.space	2
 3255              	.LC23:
 3256 0060 42656E63 		.ascii	"Benchmark, virtual timers set/reset\000"
 3256      686D6172 
 3256      6B2C2076 
 3256      69727475 
 3256      616C2074 
 3257              	.LC24:
 3258 0084 42656E63 		.ascii	"Benchmark, I/O Queues throughput\000"
 3258      686D6172 
 3258      6B2C2049 
 3258      2F4F2051 
 3258      75657565 
 3259 00a5 000000   		.space	3
 3260              	.LC25:
 3261 00a8 42656E63 		.ascii	"Benchmark, round robin context switching\000"
 3261      686D6172 
 3261      6B2C2072 
 3261      6F756E64 
 3261      20726F62 
 3262 00d1 000000   		.space	3
ARM GAS  C:\Users\Moi\AppData\Local\Temp\ccwG6ltn.s 			page 60


 3263              	.LC26:
 3264 00d4 42656E63 		.ascii	"Benchmark, mass reschedule, 5 threads\000"
 3264      686D6172 
 3264      6B2C206D 
 3264      61737320 
 3264      72657363 
 3265 00fa 0000     		.space	2
 3266              	.LC27:
 3267 00fc 42656E63 		.ascii	"Benchmark, threads, create only\000"
 3267      686D6172 
 3267      6B2C2074 
 3267      68726561 
 3267      64732C20 
 3268              	.LC28:
 3269 011c 42656E63 		.ascii	"Benchmark, threads, full cycle\000"
 3269      686D6172 
 3269      6B2C2074 
 3269      68726561 
 3269      64732C20 
 3270 013b 00       		.space	1
 3271              	.LC29:
 3272 013c 42656E63 		.ascii	"Benchmark, context switch\000"
 3272      686D6172 
 3272      6B2C2063 
 3272      6F6E7465 
 3272      78742073 
 3273 0156 0000     		.space	2
 3274              	.LC30:
 3275 0158 42656E63 		.ascii	"Benchmark, messages #3\000"
 3275      686D6172 
 3275      6B2C206D 
 3275      65737361 
 3275      67657320 
 3276 016f 00       		.space	1
 3277              	.LC31:
 3278 0170 42656E63 		.ascii	"Benchmark, messages #2\000"
 3278      686D6172 
 3278      6B2C206D 
 3278      65737361 
 3278      67657320 
 3279 0187 00       		.space	1
 3280              	.LC32:
 3281 0188 42656E63 		.ascii	"Benchmark, messages #1\000"
 3281      686D6172 
 3281      6B2C206D 
 3281      65737361 
 3281      67657320 
 3282              		.section	.rodata.testbmk1,"a",%progbits
 3283              		.align	2
 3284              		.type	testbmk1, %object
 3285              		.size	testbmk1, 16
 3286              	testbmk1:
 3287 0000 88010000 		.word	.LC32
 3288 0004 00000000 		.word	0
 3289 0008 00000000 		.word	0
 3290 000c 00000000 		.word	bmk1_execute
 3291              		.section	.rodata.testbmk10,"a",%progbits
ARM GAS  C:\Users\Moi\AppData\Local\Temp\ccwG6ltn.s 			page 61


 3292              		.align	2
 3293              		.type	testbmk10, %object
 3294              		.size	testbmk10, 16
 3295              	testbmk10:
 3296 0000 60000000 		.word	.LC23
 3297 0004 00000000 		.word	0
 3298 0008 00000000 		.word	0
 3299 000c 00000000 		.word	bmk10_execute
 3300              		.section	.rodata.testbmk11,"a",%progbits
 3301              		.align	2
 3302              		.type	testbmk11, %object
 3303              		.size	testbmk11, 16
 3304              	testbmk11:
 3305 0000 3C000000 		.word	.LC22
 3306 0004 00000000 		.word	bmk11_setup
 3307 0008 00000000 		.word	0
 3308 000c 00000000 		.word	bmk11_execute
 3309              		.section	.rodata.testbmk12,"a",%progbits
 3310              		.align	2
 3311              		.type	testbmk12, %object
 3312              		.size	testbmk12, 16
 3313              	testbmk12:
 3314 0000 1C000000 		.word	.LC21
 3315 0004 00000000 		.word	bmk12_setup
 3316 0008 00000000 		.word	0
 3317 000c 00000000 		.word	bmk12_execute
 3318              		.section	.rodata.testbmk13,"a",%progbits
 3319              		.align	2
 3320              		.type	testbmk13, %object
 3321              		.size	testbmk13, 16
 3322              	testbmk13:
 3323 0000 00000000 		.word	.LC20
 3324 0004 00000000 		.word	0
 3325 0008 00000000 		.word	0
 3326 000c 00000000 		.word	bmk13_execute
 3327              		.section	.rodata.testbmk2,"a",%progbits
 3328              		.align	2
 3329              		.type	testbmk2, %object
 3330              		.size	testbmk2, 16
 3331              	testbmk2:
 3332 0000 70010000 		.word	.LC31
 3333 0004 00000000 		.word	0
 3334 0008 00000000 		.word	0
 3335 000c 00000000 		.word	bmk2_execute
 3336              		.section	.rodata.testbmk3,"a",%progbits
 3337              		.align	2
 3338              		.type	testbmk3, %object
 3339              		.size	testbmk3, 16
 3340              	testbmk3:
 3341 0000 58010000 		.word	.LC30
 3342 0004 00000000 		.word	0
 3343 0008 00000000 		.word	0
 3344 000c 00000000 		.word	bmk3_execute
 3345              		.section	.rodata.testbmk4,"a",%progbits
 3346              		.align	2
 3347              		.type	testbmk4, %object
 3348              		.size	testbmk4, 16
ARM GAS  C:\Users\Moi\AppData\Local\Temp\ccwG6ltn.s 			page 62


 3349              	testbmk4:
 3350 0000 3C010000 		.word	.LC29
 3351 0004 00000000 		.word	0
 3352 0008 00000000 		.word	0
 3353 000c 00000000 		.word	bmk4_execute
 3354              		.section	.rodata.testbmk5,"a",%progbits
 3355              		.align	2
 3356              		.type	testbmk5, %object
 3357              		.size	testbmk5, 16
 3358              	testbmk5:
 3359 0000 1C010000 		.word	.LC28
 3360 0004 00000000 		.word	0
 3361 0008 00000000 		.word	0
 3362 000c 00000000 		.word	bmk5_execute
 3363              		.section	.rodata.testbmk6,"a",%progbits
 3364              		.align	2
 3365              		.type	testbmk6, %object
 3366              		.size	testbmk6, 16
 3367              	testbmk6:
 3368 0000 FC000000 		.word	.LC27
 3369 0004 00000000 		.word	0
 3370 0008 00000000 		.word	0
 3371 000c 00000000 		.word	bmk6_execute
 3372              		.section	.rodata.testbmk7,"a",%progbits
 3373              		.align	2
 3374              		.type	testbmk7, %object
 3375              		.size	testbmk7, 16
 3376              	testbmk7:
 3377 0000 D4000000 		.word	.LC26
 3378 0004 00000000 		.word	bmk7_setup
 3379 0008 00000000 		.word	0
 3380 000c 00000000 		.word	bmk7_execute
 3381              		.section	.rodata.testbmk8,"a",%progbits
 3382              		.align	2
 3383              		.type	testbmk8, %object
 3384              		.size	testbmk8, 16
 3385              	testbmk8:
 3386 0000 A8000000 		.word	.LC25
 3387 0004 00000000 		.word	0
 3388 0008 00000000 		.word	0
 3389 000c 00000000 		.word	bmk8_execute
 3390              		.section	.rodata.testbmk9,"a",%progbits
 3391              		.align	2
 3392              		.type	testbmk9, %object
 3393              		.size	testbmk9, 16
 3394              	testbmk9:
 3395 0000 84000000 		.word	.LC24
 3396 0004 00000000 		.word	0
 3397 0008 00000000 		.word	0
 3398 000c 00000000 		.word	bmk9_execute
 3399              		.text
 3400              	.Letext0:
 3401              		.file 7 "c:\\users\\moi\\documents\\_microinfo\\epuck-eclipse\\tools\\gcc-arm-none-eabi-7-2017-q4-
 3402              		.file 8 "c:\\users\\moi\\documents\\_microinfo\\epuck-eclipse\\tools\\gcc-arm-none-eabi-7-2017-q4-
 3403              		.file 9 "c:\\users\\moi\\documents\\_microinfo\\epuck-eclipse\\tools\\gcc-arm-none-eabi-7-2017-q4-
 3404              		.file 10 "..//ChibiOS//os/rt/ports/ARMCMx/compilers/GCC/chtypes.h"
 3405              		.file 11 "..//ChibiOS//os/rt/include/chsystypes.h"
ARM GAS  C:\Users\Moi\AppData\Local\Temp\ccwG6ltn.s 			page 63


 3406              		.file 12 "..//ChibiOS//os/rt/include/chschd.h"
 3407              		.file 13 "..//ChibiOS//os/ext/CMSIS/include/core_cm4.h"
 3408              		.file 14 "..//ChibiOS//os/ext/CMSIS/ST/system_stm32f4xx.h"
 3409              		.file 15 "..//ChibiOS//os/rt/ports/ARMCMx/chcore.h"
 3410              		.file 16 "..//ChibiOS//os/rt/ports/ARMCMx/chcore_v7m.h"
 3411              		.file 17 "..//ChibiOS//os/rt/include/chdebug.h"
 3412              		.file 18 "..//ChibiOS//os/rt/include/chtm.h"
 3413              		.file 19 "..//ChibiOS//os/rt/include/chstats.h"
 3414              		.file 20 "..//ChibiOS//os/rt/include/chsem.h"
 3415              		.file 21 "..//ChibiOS//os/rt/include/chmtx.h"
 3416              		.file 22 "..//ChibiOS//os/rt/include/chregistry.h"
 3417              		.file 23 "..//ChibiOS//test/rt/test.h"
 3418              		.file 24 "..//ChibiOS//os/rt/include/chvt.h"