ARM GAS  C:\Users\Moi\AppData\Local\Temp\ccYptMCA.s 			page 1


   1              		.cpu cortex-m4
   2              		.eabi_attribute 27, 1
   3              		.eabi_attribute 28, 1
   4              		.eabi_attribute 20, 1
   5              		.eabi_attribute 21, 1
   6              		.eabi_attribute 23, 3
   7              		.eabi_attribute 24, 1
   8              		.eabi_attribute 25, 1
   9              		.eabi_attribute 26, 1
  10              		.eabi_attribute 30, 2
  11              		.eabi_attribute 34, 1
  12              		.eabi_attribute 18, 4
  13              		.file	"usb.c"
  14              		.text
  15              	.Ltext0:
  16              		.cfi_sections	.debug_frame
  17              		.section	.text.usbInit,"ax",%progbits
  18              		.align	1
  19              		.p2align 4,,15
  20              		.global	usbInit
  21              		.syntax unified
  22              		.thumb
  23              		.thumb_func
  24              		.fpu fpv4-sp-d16
  25              		.type	usbInit, %function
  26              	usbInit:
  27              	.LFB259:
  28              		.file 1 "..//ChibiOS//os/hal/src/usb.c"
  29              		.loc 1 254 0
  30              		.cfi_startproc
  31              		@ args = 0, pretend = 0, frame = 8
  32              		@ frame_needed = 0, uses_anonymous_args = 0
  33 0000 00B5     		push	{lr}
  34              		.cfi_def_cfa_offset 4
  35              		.cfi_offset 14, -4
  36 0002 074B     		ldr	r3, .L7
  37 0004 83B0     		sub	sp, sp, #12
  38              		.cfi_def_cfa_offset 16
  39              		.loc 1 254 0
  40 0006 1A68     		ldr	r2, [r3]
  41 0008 0192     		str	r2, [sp, #4]
  42              		.loc 1 256 0
  43 000a 019A     		ldr	r2, [sp, #4]
  44 000c 1B68     		ldr	r3, [r3]
  45 000e 9A42     		cmp	r2, r3
  46 0010 04D1     		bne	.L6
  47              		.loc 1 257 0
  48 0012 03B0     		add	sp, sp, #12
  49              		.cfi_remember_state
  50              		.cfi_def_cfa_offset 4
  51              		@ sp needed
  52 0014 5DF804EB 		ldr	lr, [sp], #4
  53              		.cfi_restore 14
  54              		.cfi_def_cfa_offset 0
  55              		.loc 1 256 0
  56 0018 FFF7FEBF 		b	usb_lld_init
  57              	.LVL0:
ARM GAS  C:\Users\Moi\AppData\Local\Temp\ccYptMCA.s 			page 2


  58              	.L6:
  59              		.cfi_restore_state
  60 001c FFF7FEFF 		bl	__stack_chk_fail
  61              	.LVL1:
  62              	.L8:
  63              		.align	2
  64              	.L7:
  65 0020 00000000 		.word	__stack_chk_guard
  66              		.cfi_endproc
  67              	.LFE259:
  68              		.size	usbInit, .-usbInit
  69              		.section	.text.usbObjectInit,"ax",%progbits
  70              		.align	1
  71              		.p2align 4,,15
  72              		.global	usbObjectInit
  73              		.syntax unified
  74              		.thumb
  75              		.thumb_func
  76              		.fpu fpv4-sp-d16
  77              		.type	usbObjectInit, %function
  78              	usbObjectInit:
  79              	.LFB260:
  80              		.loc 1 266 0
  81              		.cfi_startproc
  82              		@ args = 0, pretend = 0, frame = 8
  83              		@ frame_needed = 0, uses_anonymous_args = 0
  84              	.LVL2:
  85 0000 10B5     		push	{r4, lr}
  86              		.cfi_def_cfa_offset 8
  87              		.cfi_offset 4, -8
  88              		.cfi_offset 14, -4
  89 0002 0B4B     		ldr	r3, .L13
  90 0004 82B0     		sub	sp, sp, #8
  91              		.cfi_def_cfa_offset 16
  92              		.loc 1 266 0
  93 0006 1A68     		ldr	r2, [r3]
  94 0008 0192     		str	r2, [sp, #4]
  95              		.loc 1 277 0
  96 000a 0199     		ldr	r1, [sp, #4]
  97 000c 1A68     		ldr	r2, [r3]
  98              		.loc 1 269 0
  99 000e 0124     		movs	r4, #1
 100              		.loc 1 272 0
 101 0010 0023     		movs	r3, #0
 102              		.loc 1 277 0
 103 0012 9142     		cmp	r1, r2
 104              		.loc 1 269 0
 105 0014 0470     		strb	r4, [r0]
 106              	.LVL3:
 107              		.loc 1 272 0
 108 0016 C361     		str	r3, [r0, #28]
 109              		.loc 1 273 0
 110 0018 8362     		str	r3, [r0, #40]
 111              	.LVL4:
 112              		.loc 1 272 0
 113 001a 0362     		str	r3, [r0, #32]
 114              		.loc 1 273 0
ARM GAS  C:\Users\Moi\AppData\Local\Temp\ccYptMCA.s 			page 3


 115 001c C362     		str	r3, [r0, #44]
 116              	.LVL5:
 117              		.loc 1 272 0
 118 001e 4362     		str	r3, [r0, #36]
 119              		.loc 1 273 0
 120 0020 0363     		str	r3, [r0, #48]
 121              	.LVL6:
 122              		.loc 1 270 0
 123 0022 C0E90133 		strd	r3, r3, [r0, #4]
 124              		.loc 1 277 0
 125 0026 01D1     		bne	.L12
 126 0028 02B0     		add	sp, sp, #8
 127              		.cfi_remember_state
 128              		.cfi_def_cfa_offset 8
 129              		@ sp needed
 130 002a 10BD     		pop	{r4, pc}
 131              	.L12:
 132              		.cfi_restore_state
 133 002c FFF7FEFF 		bl	__stack_chk_fail
 134              	.LVL7:
 135              	.L14:
 136              		.align	2
 137              	.L13:
 138 0030 00000000 		.word	__stack_chk_guard
 139              		.cfi_endproc
 140              	.LFE260:
 141              		.size	usbObjectInit, .-usbObjectInit
 142              		.section	.text.usbStart,"ax",%progbits
 143              		.align	1
 144              		.p2align 4,,15
 145              		.global	usbStart
 146              		.syntax unified
 147              		.thumb
 148              		.thumb_func
 149              		.fpu fpv4-sp-d16
 150              		.type	usbStart, %function
 151              	usbStart:
 152              	.LFB261:
 153              		.loc 1 287 0
 154              		.cfi_startproc
 155              		@ args = 0, pretend = 0, frame = 8
 156              		@ frame_needed = 0, uses_anonymous_args = 0
 157              	.LVL8:
 158 0000 70B5     		push	{r4, r5, r6, lr}
 159              		.cfi_def_cfa_offset 16
 160              		.cfi_offset 4, -16
 161              		.cfi_offset 5, -12
 162              		.cfi_offset 6, -8
 163              		.cfi_offset 14, -4
 164 0002 204D     		ldr	r5, .L27
 165 0004 82B0     		sub	sp, sp, #8
 166              		.cfi_def_cfa_offset 24
 167              		.loc 1 287 0
 168 0006 2B68     		ldr	r3, [r5]
 169 0008 0193     		str	r3, [sp, #4]
 170 000a 0E46     		mov	r6, r1
 171              		.loc 1 290 0
ARM GAS  C:\Users\Moi\AppData\Local\Temp\ccYptMCA.s 			page 4


 172 000c 0446     		mov	r4, r0
 173 000e 98B3     		cbz	r0, .L16
 174              		.loc 1 290 0 is_stmt 0 discriminator 3
 175 0010 91B3     		cbz	r1, .L16
 176              	.LVL9:
 177              	.L17:
 178              	.LBB212:
 179              	.LBB213:
 180              	.LBB214:
 181              	.LBB215:
 182              	.LBB216:
 183              	.LBB217:
 184              		.file 2 "..//ChibiOS//os/ext/CMSIS/include/core_cmFunc.h"
 185              		.loc 2 546 0 is_stmt 1
 186 0012 2023     		movs	r3, #32
 187              		.syntax unified
 188              	@ 546 "..//ChibiOS//os/ext/CMSIS/include/core_cmFunc.h" 1
 189 0014 83F31188 		MSR basepri, r3
 190              	@ 0 "" 2
 191              	.LVL10:
 192              		.thumb
 193              		.syntax unified
 194              	.LBE217:
 195              	.LBE216:
 196              	.LBE215:
 197              		.file 3 "..//ChibiOS//os/rt/include/chsys.h"
 198              		.loc 3 349 0
 199 0018 FFF7FEFF 		bl	_stats_start_measure_crit_thd
 200              	.LVL11:
 201              		.loc 3 350 0
 202 001c FFF7FEFF 		bl	_dbg_check_lock
 203              	.LVL12:
 204              	.LBE214:
 205              	.LBE213:
 206              	.LBE212:
 207              		.loc 1 293 0
 208 0020 2378     		ldrb	r3, [r4]	@ zero_extendqisi2
 209 0022 013B     		subs	r3, r3, #1
 210 0024 012B     		cmp	r3, #1
 211 0026 02D9     		bls	.L18
 212              		.loc 1 293 0 is_stmt 0 discriminator 2
 213 0028 1748     		ldr	r0, .L27+4
 214 002a FFF7FEFF 		bl	chSysHalt
 215              	.LVL13:
 216              	.L18:
 217              		.loc 1 297 0 is_stmt 1
 218 002e 0023     		movs	r3, #0
 219              		.loc 1 299 0
 220 0030 2046     		mov	r0, r4
 221              		.loc 1 297 0
 222 0032 C4E90333 		strd	r3, r3, [r4, #12]
 223 0036 C4E90533 		strd	r3, r3, [r4, #20]
 224              		.loc 1 295 0
 225 003a 6660     		str	r6, [r4, #4]
 226              	.LVL14:
 227              		.loc 1 299 0
 228 003c FFF7FEFF 		bl	usb_lld_start
ARM GAS  C:\Users\Moi\AppData\Local\Temp\ccYptMCA.s 			page 5


 229              	.LVL15:
 230              		.loc 1 300 0
 231 0040 0223     		movs	r3, #2
 232 0042 2370     		strb	r3, [r4]
 233              	.LBB218:
 234              	.LBB219:
 235              	.LBB220:
 236              		.loc 3 360 0
 237 0044 FFF7FEFF 		bl	_dbg_check_unlock
 238              	.LVL16:
 239              		.loc 3 361 0
 240 0048 FFF7FEFF 		bl	_stats_stop_measure_crit_thd
 241              	.LVL17:
 242              		.loc 3 367 0
 243 004c 0F4B     		ldr	r3, .L27+8
 244 004e 1A68     		ldr	r2, [r3]
 245 0050 9A42     		cmp	r2, r3
 246 0052 04D0     		beq	.L19
 247 0054 9969     		ldr	r1, [r3, #24]
 248 0056 9368     		ldr	r3, [r2, #8]
 249 0058 8A68     		ldr	r2, [r1, #8]
 250 005a 9A42     		cmp	r2, r3
 251 005c 08D3     		bcc	.L25
 252              	.L19:
 253              	.LVL18:
 254              	.LBB221:
 255              	.LBB222:
 256              	.LBB223:
 257              		.loc 2 546 0
 258 005e 0023     		movs	r3, #0
 259              		.syntax unified
 260              	@ 546 "..//ChibiOS//os/ext/CMSIS/include/core_cmFunc.h" 1
 261 0060 83F31188 		MSR basepri, r3
 262              	@ 0 "" 2
 263              	.LVL19:
 264              		.thumb
 265              		.syntax unified
 266              	.LBE223:
 267              	.LBE222:
 268              	.LBE221:
 269              	.LBE220:
 270              	.LBE219:
 271              	.LBE218:
 272              		.loc 1 302 0
 273 0064 019A     		ldr	r2, [sp, #4]
 274 0066 2B68     		ldr	r3, [r5]
 275 0068 9A42     		cmp	r2, r3
 276 006a 09D1     		bne	.L26
 277 006c 02B0     		add	sp, sp, #8
 278              		.cfi_remember_state
 279              		.cfi_def_cfa_offset 16
 280              		@ sp needed
 281 006e 70BD     		pop	{r4, r5, r6, pc}
 282              	.LVL20:
 283              	.L25:
 284              		.cfi_restore_state
 285              	.LBB226:
ARM GAS  C:\Users\Moi\AppData\Local\Temp\ccYptMCA.s 			page 6


 286              	.LBB225:
 287              	.LBB224:
 288              		.loc 3 367 0
 289 0070 0748     		ldr	r0, .L27+12
 290 0072 FFF7FEFF 		bl	chSysHalt
 291              	.LVL21:
 292 0076 F2E7     		b	.L19
 293              	.LVL22:
 294              	.L16:
 295              	.LBE224:
 296              	.LBE225:
 297              	.LBE226:
 298              		.loc 1 290 0 discriminator 4
 299 0078 0348     		ldr	r0, .L27+4
 300              	.LVL23:
 301 007a FFF7FEFF 		bl	chSysHalt
 302              	.LVL24:
 303 007e C8E7     		b	.L17
 304              	.LVL25:
 305              	.L26:
 306              		.loc 1 302 0
 307 0080 FFF7FEFF 		bl	__stack_chk_fail
 308              	.LVL26:
 309              	.L28:
 310              		.align	2
 311              	.L27:
 312 0084 00000000 		.word	__stack_chk_guard
 313 0088 00000000 		.word	.LANCHOR0
 314 008c 00000000 		.word	ch
 315 0090 00000000 		.word	.LANCHOR1
 316              		.cfi_endproc
 317              	.LFE261:
 318              		.size	usbStart, .-usbStart
 319              		.section	.text.usbStop,"ax",%progbits
 320              		.align	1
 321              		.p2align 4,,15
 322              		.global	usbStop
 323              		.syntax unified
 324              		.thumb
 325              		.thumb_func
 326              		.fpu fpv4-sp-d16
 327              		.type	usbStop, %function
 328              	usbStop:
 329              	.LFB262:
 330              		.loc 1 311 0
 331              		.cfi_startproc
 332              		@ args = 0, pretend = 0, frame = 8
 333              		@ frame_needed = 0, uses_anonymous_args = 0
 334              	.LVL27:
 335 0000 30B5     		push	{r4, r5, lr}
 336              		.cfi_def_cfa_offset 12
 337              		.cfi_offset 4, -12
 338              		.cfi_offset 5, -8
 339              		.cfi_offset 14, -4
 340 0002 1C4D     		ldr	r5, .L38
 341 0004 83B0     		sub	sp, sp, #12
 342              		.cfi_def_cfa_offset 24
ARM GAS  C:\Users\Moi\AppData\Local\Temp\ccYptMCA.s 			page 7


 343              		.loc 1 311 0
 344 0006 2B68     		ldr	r3, [r5]
 345 0008 0193     		str	r3, [sp, #4]
 346              		.loc 1 313 0
 347 000a 0446     		mov	r4, r0
 348 000c 60B3     		cbz	r0, .L35
 349              	.LVL28:
 350              	.L30:
 351              	.LBB240:
 352              	.LBB241:
 353              	.LBB242:
 354              	.LBB243:
 355              	.LBB244:
 356              	.LBB245:
 357              		.loc 2 546 0
 358 000e 2023     		movs	r3, #32
 359              		.syntax unified
 360              	@ 546 "..//ChibiOS//os/ext/CMSIS/include/core_cmFunc.h" 1
 361 0010 83F31188 		MSR basepri, r3
 362              	@ 0 "" 2
 363              	.LVL29:
 364              		.thumb
 365              		.syntax unified
 366              	.LBE245:
 367              	.LBE244:
 368              	.LBE243:
 369              		.loc 3 349 0
 370 0014 FFF7FEFF 		bl	_stats_start_measure_crit_thd
 371              	.LVL30:
 372              		.loc 3 350 0
 373 0018 FFF7FEFF 		bl	_dbg_check_lock
 374              	.LVL31:
 375              	.LBE242:
 376              	.LBE241:
 377              	.LBE240:
 378              		.loc 1 316 0
 379 001c 2378     		ldrb	r3, [r4]	@ zero_extendqisi2
 380 001e 013B     		subs	r3, r3, #1
 381 0020 032B     		cmp	r3, #3
 382 0022 02D9     		bls	.L31
 383              		.loc 1 316 0 is_stmt 0 discriminator 2
 384 0024 1448     		ldr	r0, .L38+4
 385 0026 FFF7FEFF 		bl	chSysHalt
 386              	.LVL32:
 387              	.L31:
 388              		.loc 1 319 0 is_stmt 1
 389 002a 2046     		mov	r0, r4
 390 002c FFF7FEFF 		bl	usb_lld_stop
 391              	.LVL33:
 392              		.loc 1 320 0
 393 0030 0123     		movs	r3, #1
 394 0032 2370     		strb	r3, [r4]
 395              	.LBB246:
 396              	.LBB247:
 397              	.LBB248:
 398              		.loc 3 360 0
 399 0034 FFF7FEFF 		bl	_dbg_check_unlock
ARM GAS  C:\Users\Moi\AppData\Local\Temp\ccYptMCA.s 			page 8


 400              	.LVL34:
 401              		.loc 3 361 0
 402 0038 FFF7FEFF 		bl	_stats_stop_measure_crit_thd
 403              	.LVL35:
 404              		.loc 3 367 0
 405 003c 0F4B     		ldr	r3, .L38+8
 406 003e 1A68     		ldr	r2, [r3]
 407 0040 9A42     		cmp	r2, r3
 408 0042 04D0     		beq	.L32
 409 0044 9969     		ldr	r1, [r3, #24]
 410 0046 9368     		ldr	r3, [r2, #8]
 411 0048 8A68     		ldr	r2, [r1, #8]
 412 004a 9A42     		cmp	r2, r3
 413 004c 08D3     		bcc	.L36
 414              	.L32:
 415              	.LVL36:
 416              	.LBB249:
 417              	.LBB250:
 418              	.LBB251:
 419              		.loc 2 546 0
 420 004e 0023     		movs	r3, #0
 421              		.syntax unified
 422              	@ 546 "..//ChibiOS//os/ext/CMSIS/include/core_cmFunc.h" 1
 423 0050 83F31188 		MSR basepri, r3
 424              	@ 0 "" 2
 425              	.LVL37:
 426              		.thumb
 427              		.syntax unified
 428              	.LBE251:
 429              	.LBE250:
 430              	.LBE249:
 431              	.LBE248:
 432              	.LBE247:
 433              	.LBE246:
 434              		.loc 1 322 0
 435 0054 019A     		ldr	r2, [sp, #4]
 436 0056 2B68     		ldr	r3, [r5]
 437 0058 9A42     		cmp	r2, r3
 438 005a 09D1     		bne	.L37
 439 005c 03B0     		add	sp, sp, #12
 440              		.cfi_remember_state
 441              		.cfi_def_cfa_offset 12
 442              		@ sp needed
 443 005e 30BD     		pop	{r4, r5, pc}
 444              	.LVL38:
 445              	.L36:
 446              		.cfi_restore_state
 447              	.LBB254:
 448              	.LBB253:
 449              	.LBB252:
 450              		.loc 3 367 0
 451 0060 0748     		ldr	r0, .L38+12
 452 0062 FFF7FEFF 		bl	chSysHalt
 453              	.LVL39:
 454 0066 F2E7     		b	.L32
 455              	.LVL40:
 456              	.L35:
ARM GAS  C:\Users\Moi\AppData\Local\Temp\ccYptMCA.s 			page 9


 457              	.LBE252:
 458              	.LBE253:
 459              	.LBE254:
 460              		.loc 1 313 0 discriminator 2
 461 0068 0348     		ldr	r0, .L38+4
 462              	.LVL41:
 463 006a FFF7FEFF 		bl	chSysHalt
 464              	.LVL42:
 465 006e CEE7     		b	.L30
 466              	.L37:
 467              		.loc 1 322 0
 468 0070 FFF7FEFF 		bl	__stack_chk_fail
 469              	.LVL43:
 470              	.L39:
 471              		.align	2
 472              	.L38:
 473 0074 00000000 		.word	__stack_chk_guard
 474 0078 00000000 		.word	.LANCHOR2
 475 007c 00000000 		.word	ch
 476 0080 00000000 		.word	.LANCHOR1
 477              		.cfi_endproc
 478              	.LFE262:
 479              		.size	usbStop, .-usbStop
 480              		.section	.text.usbInitEndpointI,"ax",%progbits
 481              		.align	1
 482              		.p2align 4,,15
 483              		.global	usbInitEndpointI
 484              		.syntax unified
 485              		.thumb
 486              		.thumb_func
 487              		.fpu fpv4-sp-d16
 488              		.type	usbInitEndpointI, %function
 489              	usbInitEndpointI:
 490              	.LFB263:
 491              		.loc 1 338 0
 492              		.cfi_startproc
 493              		@ args = 0, pretend = 0, frame = 8
 494              		@ frame_needed = 0, uses_anonymous_args = 0
 495              	.LVL44:
 496 0000 2DE9F041 		push	{r4, r5, r6, r7, r8, lr}
 497              		.cfi_def_cfa_offset 24
 498              		.cfi_offset 4, -24
 499              		.cfi_offset 5, -20
 500              		.cfi_offset 6, -16
 501              		.cfi_offset 7, -12
 502              		.cfi_offset 8, -8
 503              		.cfi_offset 14, -4
 504 0004 1D4E     		ldr	r6, .L66
 505 0006 82B0     		sub	sp, sp, #8
 506              		.cfi_def_cfa_offset 32
 507              		.loc 1 338 0
 508 0008 0446     		mov	r4, r0
 509 000a 3368     		ldr	r3, [r6]
 510 000c 0193     		str	r3, [sp, #4]
 511 000e 0F46     		mov	r7, r1
 512 0010 1546     		mov	r5, r2
 513              		.loc 1 340 0
ARM GAS  C:\Users\Moi\AppData\Local\Temp\ccYptMCA.s 			page 10


 514 0012 FFF7FEFF 		bl	chDbgCheckClassI
 515              	.LVL45:
 516              		.loc 1 341 0
 517 0016 5CB3     		cbz	r4, .L41
 518              		.loc 1 341 0 is_stmt 0 discriminator 3
 519 0018 55B3     		cbz	r5, .L41
 520              	.L42:
 521              		.loc 1 342 0 is_stmt 1 discriminator 1
 522 001a 2378     		ldrb	r3, [r4]	@ zero_extendqisi2
 523 001c 042B     		cmp	r3, #4
 524 001e 02D0     		beq	.L43
 525              		.loc 1 342 0 is_stmt 0 discriminator 2
 526 0020 1748     		ldr	r0, .L66+4
 527 0022 FFF7FEFF 		bl	chSysHalt
 528              	.LVL46:
 529              	.L43:
 530 0026 04EB8708 		add	r8, r4, r7, lsl #2
 531              		.loc 1 344 0 is_stmt 1 discriminator 1
 532 002a D8F80C30 		ldr	r3, [r8, #12]
 533 002e 13B1     		cbz	r3, .L44
 534              		.loc 1 344 0 is_stmt 0 discriminator 2
 535 0030 1348     		ldr	r0, .L66+4
 536 0032 FFF7FEFF 		bl	chSysHalt
 537              	.LVL47:
 538              	.L44:
 539              		.loc 1 347 0 is_stmt 1
 540 0036 6B69     		ldr	r3, [r5, #20]
 541 0038 2BB1     		cbz	r3, .L45
 542              		.loc 1 348 0
 543 003a 0022     		movs	r2, #0
 544 003c 1A60     		str	r2, [r3]	@ unaligned
 545 003e 5A60     		str	r2, [r3, #4]	@ unaligned
 546 0040 9A60     		str	r2, [r3, #8]	@ unaligned
 547 0042 DA60     		str	r2, [r3, #12]	@ unaligned
 548 0044 1A61     		str	r2, [r3, #16]	@ unaligned
 549              	.L45:
 550              		.loc 1 350 0
 551 0046 AB69     		ldr	r3, [r5, #24]
 552 0048 2BB1     		cbz	r3, .L46
 553              		.loc 1 351 0
 554 004a 0022     		movs	r2, #0
 555 004c 1A60     		str	r2, [r3]	@ unaligned
 556 004e 5A60     		str	r2, [r3, #4]	@ unaligned
 557 0050 9A60     		str	r2, [r3, #8]	@ unaligned
 558 0052 DA60     		str	r2, [r3, #12]	@ unaligned
 559 0054 1A61     		str	r2, [r3, #16]	@ unaligned
 560              	.L46:
 561              		.loc 1 357 0
 562 0056 019A     		ldr	r2, [sp, #4]
 563 0058 3368     		ldr	r3, [r6]
 564              		.loc 1 354 0
 565 005a C8F80C50 		str	r5, [r8, #12]
 566              		.loc 1 357 0
 567 005e 9A42     		cmp	r2, r3
 568 0060 0AD1     		bne	.L65
 569 0062 3946     		mov	r1, r7
 570 0064 2046     		mov	r0, r4
ARM GAS  C:\Users\Moi\AppData\Local\Temp\ccYptMCA.s 			page 11


 571              		.loc 1 358 0
 572 0066 02B0     		add	sp, sp, #8
 573              		.cfi_remember_state
 574              		.cfi_def_cfa_offset 24
 575              		@ sp needed
 576 0068 BDE8F041 		pop	{r4, r5, r6, r7, r8, lr}
 577              		.cfi_restore 14
 578              		.cfi_restore 8
 579              		.cfi_restore 7
 580              		.cfi_restore 6
 581              		.cfi_restore 5
 582              		.cfi_restore 4
 583              		.cfi_def_cfa_offset 0
 584              	.LVL48:
 585              		.loc 1 357 0
 586 006c FFF7FEBF 		b	usb_lld_init_endpoint
 587              	.LVL49:
 588              	.L41:
 589              		.cfi_restore_state
 590              		.loc 1 341 0 discriminator 4
 591 0070 0348     		ldr	r0, .L66+4
 592 0072 FFF7FEFF 		bl	chSysHalt
 593              	.LVL50:
 594 0076 D0E7     		b	.L42
 595              	.L65:
 596              		.loc 1 357 0
 597 0078 FFF7FEFF 		bl	__stack_chk_fail
 598              	.LVL51:
 599              	.L67:
 600              		.align	2
 601              	.L66:
 602 007c 00000000 		.word	__stack_chk_guard
 603 0080 00000000 		.word	.LANCHOR3
 604              		.cfi_endproc
 605              	.LFE263:
 606              		.size	usbInitEndpointI, .-usbInitEndpointI
 607              		.section	.text.usbDisableEndpointsI,"ax",%progbits
 608              		.align	1
 609              		.p2align 4,,15
 610              		.global	usbDisableEndpointsI
 611              		.syntax unified
 612              		.thumb
 613              		.thumb_func
 614              		.fpu fpv4-sp-d16
 615              		.type	usbDisableEndpointsI, %function
 616              	usbDisableEndpointsI:
 617              	.LFB264:
 618              		.loc 1 371 0
 619              		.cfi_startproc
 620              		@ args = 0, pretend = 0, frame = 8
 621              		@ frame_needed = 0, uses_anonymous_args = 0
 622              	.LVL52:
 623 0000 70B5     		push	{r4, r5, r6, lr}
 624              		.cfi_def_cfa_offset 16
 625              		.cfi_offset 4, -16
 626              		.cfi_offset 5, -12
 627              		.cfi_offset 6, -8
ARM GAS  C:\Users\Moi\AppData\Local\Temp\ccYptMCA.s 			page 12


 628              		.cfi_offset 14, -4
 629 0002 154D     		ldr	r5, .L79
 630 0004 82B0     		sub	sp, sp, #8
 631              		.cfi_def_cfa_offset 24
 632              		.loc 1 371 0
 633 0006 0446     		mov	r4, r0
 634 0008 2B68     		ldr	r3, [r5]
 635 000a 0193     		str	r3, [sp, #4]
 636              		.loc 1 374 0
 637 000c FFF7FEFF 		bl	chDbgCheckClassI
 638              	.LVL53:
 639              		.loc 1 375 0
 640 0010 DCB1     		cbz	r4, .L77
 641              	.L69:
 642              		.loc 1 376 0 discriminator 1
 643 0012 2378     		ldrb	r3, [r4]	@ zero_extendqisi2
 644 0014 032B     		cmp	r3, #3
 645 0016 02D0     		beq	.L70
 646              		.loc 1 376 0 is_stmt 0 discriminator 2
 647 0018 1048     		ldr	r0, .L79+4
 648 001a FFF7FEFF 		bl	chSysHalt
 649              	.LVL54:
 650              	.L70:
 651              		.loc 1 378 0 is_stmt 1
 652 001e 2189     		ldrh	r1, [r4, #8]
 653              		.loc 1 379 0
 654 0020 6289     		ldrh	r2, [r4, #10]
 655              		.loc 1 385 0
 656 0022 019E     		ldr	r6, [sp, #4]
 657 0024 2868     		ldr	r0, [r5]
 658              		.loc 1 381 0
 659 0026 0023     		movs	r3, #0
 660              		.loc 1 378 0
 661 0028 21F00101 		bic	r1, r1, #1
 662              		.loc 1 379 0
 663 002c 22F00102 		bic	r2, r2, #1
 664              		.loc 1 385 0
 665 0030 8642     		cmp	r6, r0
 666              		.loc 1 378 0
 667 0032 2181     		strh	r1, [r4, #8]	@ movhi
 668              		.loc 1 379 0
 669 0034 6281     		strh	r2, [r4, #10]	@ movhi
 670              	.LVL55:
 671              		.loc 1 381 0
 672 0036 C4E90433 		strd	r3, r3, [r4, #16]
 673              	.LVL56:
 674 003a A361     		str	r3, [r4, #24]
 675              	.LVL57:
 676              		.loc 1 385 0
 677 003c 09D1     		bne	.L78
 678 003e 2046     		mov	r0, r4
 679              		.loc 1 386 0
 680 0040 02B0     		add	sp, sp, #8
 681              		.cfi_remember_state
 682              		.cfi_def_cfa_offset 16
 683              		@ sp needed
 684 0042 BDE87040 		pop	{r4, r5, r6, lr}
ARM GAS  C:\Users\Moi\AppData\Local\Temp\ccYptMCA.s 			page 13


 685              		.cfi_restore 14
 686              		.cfi_restore 6
 687              		.cfi_restore 5
 688              		.cfi_restore 4
 689              		.cfi_def_cfa_offset 0
 690              	.LVL58:
 691              		.loc 1 385 0
 692 0046 FFF7FEBF 		b	usb_lld_disable_endpoints
 693              	.LVL59:
 694              	.L77:
 695              		.cfi_restore_state
 696              		.loc 1 375 0 discriminator 2
 697 004a 0448     		ldr	r0, .L79+4
 698 004c FFF7FEFF 		bl	chSysHalt
 699              	.LVL60:
 700 0050 DFE7     		b	.L69
 701              	.LVL61:
 702              	.L78:
 703              		.loc 1 385 0
 704 0052 FFF7FEFF 		bl	__stack_chk_fail
 705              	.LVL62:
 706              	.L80:
 707 0056 00BF     		.align	2
 708              	.L79:
 709 0058 00000000 		.word	__stack_chk_guard
 710 005c 00000000 		.word	.LANCHOR4
 711              		.cfi_endproc
 712              	.LFE264:
 713              		.size	usbDisableEndpointsI, .-usbDisableEndpointsI
 714              		.section	.text.usbPrepareReceive,"ax",%progbits
 715              		.align	1
 716              		.p2align 4,,15
 717              		.global	usbPrepareReceive
 718              		.syntax unified
 719              		.thumb
 720              		.thumb_func
 721              		.fpu fpv4-sp-d16
 722              		.type	usbPrepareReceive, %function
 723              	usbPrepareReceive:
 724              	.LFB265:
 725              		.loc 1 400 0
 726              		.cfi_startproc
 727              		@ args = 0, pretend = 0, frame = 8
 728              		@ frame_needed = 0, uses_anonymous_args = 0
 729              	.LVL63:
 730 0000 70B5     		push	{r4, r5, r6, lr}
 731              		.cfi_def_cfa_offset 16
 732              		.cfi_offset 4, -16
 733              		.cfi_offset 5, -12
 734              		.cfi_offset 6, -8
 735              		.cfi_offset 14, -4
 736 0002 0C4D     		ldr	r5, .L86
 737              		.loc 1 401 0
 738 0004 00EB8104 		add	r4, r0, r1, lsl #2
 739              		.loc 1 400 0
 740 0008 82B0     		sub	sp, sp, #8
 741              		.cfi_def_cfa_offset 24
ARM GAS  C:\Users\Moi\AppData\Local\Temp\ccYptMCA.s 			page 14


 742              		.loc 1 400 0
 743 000a 2E68     		ldr	r6, [r5]
 744              		.loc 1 401 0
 745 000c E468     		ldr	r4, [r4, #12]
 746              		.loc 1 400 0
 747 000e 0196     		str	r6, [sp, #4]
 748              		.loc 1 401 0
 749 0010 A469     		ldr	r4, [r4, #24]
 750              	.LVL64:
 751              		.loc 1 408 0
 752 0012 019E     		ldr	r6, [sp, #4]
 753 0014 2D68     		ldr	r5, [r5]
 754              		.loc 1 404 0
 755 0016 E260     		str	r2, [r4, #12]
 756              		.loc 1 408 0
 757 0018 AE42     		cmp	r6, r5
 758              		.loc 1 403 0
 759 001a 4FF00002 		mov	r2, #0
 760              	.LVL65:
 761              		.loc 1 405 0
 762 001e 6360     		str	r3, [r4, #4]
 763              		.loc 1 403 0
 764 0020 2270     		strb	r2, [r4]
 765              		.loc 1 406 0
 766 0022 A260     		str	r2, [r4, #8]
 767              		.loc 1 408 0
 768 0024 04D1     		bne	.L85
 769              		.loc 1 409 0
 770 0026 02B0     		add	sp, sp, #8
 771              		.cfi_remember_state
 772              		.cfi_def_cfa_offset 16
 773              		@ sp needed
 774 0028 BDE87040 		pop	{r4, r5, r6, lr}
 775              		.cfi_restore 14
 776              		.cfi_restore 6
 777              		.cfi_restore 5
 778              		.cfi_restore 4
 779              		.cfi_def_cfa_offset 0
 780              	.LVL66:
 781              		.loc 1 408 0
 782 002c FFF7FEBF 		b	usb_lld_prepare_receive
 783              	.LVL67:
 784              	.L85:
 785              		.cfi_restore_state
 786 0030 FFF7FEFF 		bl	__stack_chk_fail
 787              	.LVL68:
 788              	.L87:
 789              		.align	2
 790              	.L86:
 791 0034 00000000 		.word	__stack_chk_guard
 792              		.cfi_endproc
 793              	.LFE265:
 794              		.size	usbPrepareReceive, .-usbPrepareReceive
 795              		.section	.text.usbPrepareTransmit,"ax",%progbits
 796              		.align	1
 797              		.p2align 4,,15
 798              		.global	usbPrepareTransmit
ARM GAS  C:\Users\Moi\AppData\Local\Temp\ccYptMCA.s 			page 15


 799              		.syntax unified
 800              		.thumb
 801              		.thumb_func
 802              		.fpu fpv4-sp-d16
 803              		.type	usbPrepareTransmit, %function
 804              	usbPrepareTransmit:
 805              	.LFB266:
 806              		.loc 1 426 0
 807              		.cfi_startproc
 808              		@ args = 0, pretend = 0, frame = 8
 809              		@ frame_needed = 0, uses_anonymous_args = 0
 810              	.LVL69:
 811 0000 70B5     		push	{r4, r5, r6, lr}
 812              		.cfi_def_cfa_offset 16
 813              		.cfi_offset 4, -16
 814              		.cfi_offset 5, -12
 815              		.cfi_offset 6, -8
 816              		.cfi_offset 14, -4
 817 0002 0C4D     		ldr	r5, .L93
 818              		.loc 1 427 0
 819 0004 00EB8104 		add	r4, r0, r1, lsl #2
 820              		.loc 1 426 0
 821 0008 82B0     		sub	sp, sp, #8
 822              		.cfi_def_cfa_offset 24
 823              		.loc 1 426 0
 824 000a 2E68     		ldr	r6, [r5]
 825              		.loc 1 427 0
 826 000c E468     		ldr	r4, [r4, #12]
 827              		.loc 1 426 0
 828 000e 0196     		str	r6, [sp, #4]
 829              		.loc 1 427 0
 830 0010 6469     		ldr	r4, [r4, #20]
 831              	.LVL70:
 832              		.loc 1 434 0
 833 0012 019E     		ldr	r6, [sp, #4]
 834 0014 2D68     		ldr	r5, [r5]
 835              		.loc 1 430 0
 836 0016 E260     		str	r2, [r4, #12]
 837              		.loc 1 434 0
 838 0018 AE42     		cmp	r6, r5
 839              		.loc 1 429 0
 840 001a 4FF00002 		mov	r2, #0
 841              	.LVL71:
 842              		.loc 1 431 0
 843 001e 6360     		str	r3, [r4, #4]
 844              		.loc 1 429 0
 845 0020 2270     		strb	r2, [r4]
 846              		.loc 1 432 0
 847 0022 A260     		str	r2, [r4, #8]
 848              		.loc 1 434 0
 849 0024 04D1     		bne	.L92
 850              		.loc 1 435 0
 851 0026 02B0     		add	sp, sp, #8
 852              		.cfi_remember_state
 853              		.cfi_def_cfa_offset 16
 854              		@ sp needed
 855 0028 BDE87040 		pop	{r4, r5, r6, lr}
ARM GAS  C:\Users\Moi\AppData\Local\Temp\ccYptMCA.s 			page 16


 856              		.cfi_restore 14
 857              		.cfi_restore 6
 858              		.cfi_restore 5
 859              		.cfi_restore 4
 860              		.cfi_def_cfa_offset 0
 861              	.LVL72:
 862              		.loc 1 434 0
 863 002c FFF7FEBF 		b	usb_lld_prepare_transmit
 864              	.LVL73:
 865              	.L92:
 866              		.cfi_restore_state
 867 0030 FFF7FEFF 		bl	__stack_chk_fail
 868              	.LVL74:
 869              	.L94:
 870              		.align	2
 871              	.L93:
 872 0034 00000000 		.word	__stack_chk_guard
 873              		.cfi_endproc
 874              	.LFE266:
 875              		.size	usbPrepareTransmit, .-usbPrepareTransmit
 876              		.section	.text.usbPrepareQueuedReceive,"ax",%progbits
 877              		.align	1
 878              		.p2align 4,,15
 879              		.global	usbPrepareQueuedReceive
 880              		.syntax unified
 881              		.thumb
 882              		.thumb_func
 883              		.fpu fpv4-sp-d16
 884              		.type	usbPrepareQueuedReceive, %function
 885              	usbPrepareQueuedReceive:
 886              	.LFB267:
 887              		.loc 1 455 0
 888              		.cfi_startproc
 889              		@ args = 0, pretend = 0, frame = 8
 890              		@ frame_needed = 0, uses_anonymous_args = 0
 891              	.LVL75:
 892 0000 F0B5     		push	{r4, r5, r6, r7, lr}
 893              		.cfi_def_cfa_offset 20
 894              		.cfi_offset 4, -20
 895              		.cfi_offset 5, -16
 896              		.cfi_offset 6, -12
 897              		.cfi_offset 7, -8
 898              		.cfi_offset 14, -4
 899 0002 0C4D     		ldr	r5, .L100
 900              		.loc 1 456 0
 901 0004 00EB8104 		add	r4, r0, r1, lsl #2
 902              		.loc 1 455 0
 903 0008 83B0     		sub	sp, sp, #12
 904              		.cfi_def_cfa_offset 32
 905              		.loc 1 455 0
 906 000a 2E68     		ldr	r6, [r5]
 907              		.loc 1 456 0
 908 000c E468     		ldr	r4, [r4, #12]
 909              		.loc 1 455 0
 910 000e 0196     		str	r6, [sp, #4]
 911              		.loc 1 456 0
 912 0010 A469     		ldr	r4, [r4, #24]
ARM GAS  C:\Users\Moi\AppData\Local\Temp\ccYptMCA.s 			page 17


 913              	.LVL76:
 914              		.loc 1 463 0
 915 0012 019E     		ldr	r6, [sp, #4]
 916 0014 2D68     		ldr	r5, [r5]
 917              		.loc 1 459 0
 918 0016 E260     		str	r2, [r4, #12]
 919              		.loc 1 458 0
 920 0018 0127     		movs	r7, #1
 921              		.loc 1 461 0
 922 001a 0022     		movs	r2, #0
 923              	.LVL77:
 924              		.loc 1 463 0
 925 001c AE42     		cmp	r6, r5
 926              		.loc 1 460 0
 927 001e 6360     		str	r3, [r4, #4]
 928              		.loc 1 458 0
 929 0020 2770     		strb	r7, [r4]
 930              		.loc 1 461 0
 931 0022 A260     		str	r2, [r4, #8]
 932              		.loc 1 463 0
 933 0024 04D1     		bne	.L99
 934              		.loc 1 464 0
 935 0026 03B0     		add	sp, sp, #12
 936              		.cfi_remember_state
 937              		.cfi_def_cfa_offset 20
 938              		@ sp needed
 939 0028 BDE8F040 		pop	{r4, r5, r6, r7, lr}
 940              		.cfi_restore 14
 941              		.cfi_restore 7
 942              		.cfi_restore 6
 943              		.cfi_restore 5
 944              		.cfi_restore 4
 945              		.cfi_def_cfa_offset 0
 946              	.LVL78:
 947              		.loc 1 463 0
 948 002c FFF7FEBF 		b	usb_lld_prepare_receive
 949              	.LVL79:
 950              	.L99:
 951              		.cfi_restore_state
 952 0030 FFF7FEFF 		bl	__stack_chk_fail
 953              	.LVL80:
 954              	.L101:
 955              		.align	2
 956              	.L100:
 957 0034 00000000 		.word	__stack_chk_guard
 958              		.cfi_endproc
 959              	.LFE267:
 960              		.size	usbPrepareQueuedReceive, .-usbPrepareQueuedReceive
 961              		.section	.text.usbPrepareQueuedTransmit,"ax",%progbits
 962              		.align	1
 963              		.p2align 4,,15
 964              		.global	usbPrepareQueuedTransmit
 965              		.syntax unified
 966              		.thumb
 967              		.thumb_func
 968              		.fpu fpv4-sp-d16
 969              		.type	usbPrepareQueuedTransmit, %function
ARM GAS  C:\Users\Moi\AppData\Local\Temp\ccYptMCA.s 			page 18


 970              	usbPrepareQueuedTransmit:
 971              	.LFB268:
 972              		.loc 1 481 0
 973              		.cfi_startproc
 974              		@ args = 0, pretend = 0, frame = 8
 975              		@ frame_needed = 0, uses_anonymous_args = 0
 976              	.LVL81:
 977 0000 F0B5     		push	{r4, r5, r6, r7, lr}
 978              		.cfi_def_cfa_offset 20
 979              		.cfi_offset 4, -20
 980              		.cfi_offset 5, -16
 981              		.cfi_offset 6, -12
 982              		.cfi_offset 7, -8
 983              		.cfi_offset 14, -4
 984 0002 0C4D     		ldr	r5, .L107
 985              		.loc 1 482 0
 986 0004 00EB8104 		add	r4, r0, r1, lsl #2
 987              		.loc 1 481 0
 988 0008 83B0     		sub	sp, sp, #12
 989              		.cfi_def_cfa_offset 32
 990              		.loc 1 481 0
 991 000a 2E68     		ldr	r6, [r5]
 992              		.loc 1 482 0
 993 000c E468     		ldr	r4, [r4, #12]
 994              		.loc 1 481 0
 995 000e 0196     		str	r6, [sp, #4]
 996              		.loc 1 482 0
 997 0010 6469     		ldr	r4, [r4, #20]
 998              	.LVL82:
 999              		.loc 1 489 0
 1000 0012 019E     		ldr	r6, [sp, #4]
 1001 0014 2D68     		ldr	r5, [r5]
 1002              		.loc 1 485 0
 1003 0016 E260     		str	r2, [r4, #12]
 1004              		.loc 1 484 0
 1005 0018 0127     		movs	r7, #1
 1006              		.loc 1 487 0
 1007 001a 0022     		movs	r2, #0
 1008              	.LVL83:
 1009              		.loc 1 489 0
 1010 001c AE42     		cmp	r6, r5
 1011              		.loc 1 486 0
 1012 001e 6360     		str	r3, [r4, #4]
 1013              		.loc 1 484 0
 1014 0020 2770     		strb	r7, [r4]
 1015              		.loc 1 487 0
 1016 0022 A260     		str	r2, [r4, #8]
 1017              		.loc 1 489 0
 1018 0024 04D1     		bne	.L106
 1019              		.loc 1 490 0
 1020 0026 03B0     		add	sp, sp, #12
 1021              		.cfi_remember_state
 1022              		.cfi_def_cfa_offset 20
 1023              		@ sp needed
 1024 0028 BDE8F040 		pop	{r4, r5, r6, r7, lr}
 1025              		.cfi_restore 14
 1026              		.cfi_restore 7
ARM GAS  C:\Users\Moi\AppData\Local\Temp\ccYptMCA.s 			page 19


 1027              		.cfi_restore 6
 1028              		.cfi_restore 5
 1029              		.cfi_restore 4
 1030              		.cfi_def_cfa_offset 0
 1031              	.LVL84:
 1032              		.loc 1 489 0
 1033 002c FFF7FEBF 		b	usb_lld_prepare_transmit
 1034              	.LVL85:
 1035              	.L106:
 1036              		.cfi_restore_state
 1037 0030 FFF7FEFF 		bl	__stack_chk_fail
 1038              	.LVL86:
 1039              	.L108:
 1040              		.align	2
 1041              	.L107:
 1042 0034 00000000 		.word	__stack_chk_guard
 1043              		.cfi_endproc
 1044              	.LFE268:
 1045              		.size	usbPrepareQueuedTransmit, .-usbPrepareQueuedTransmit
 1046              		.section	.text.usbStartReceiveI,"ax",%progbits
 1047              		.align	1
 1048              		.p2align 4,,15
 1049              		.global	usbStartReceiveI
 1050              		.syntax unified
 1051              		.thumb
 1052              		.thumb_func
 1053              		.fpu fpv4-sp-d16
 1054              		.type	usbStartReceiveI, %function
 1055              	usbStartReceiveI:
 1056              	.LFB269:
 1057              		.loc 1 506 0
 1058              		.cfi_startproc
 1059              		@ args = 0, pretend = 0, frame = 8
 1060              		@ frame_needed = 0, uses_anonymous_args = 0
 1061              	.LVL87:
 1062 0000 F0B5     		push	{r4, r5, r6, r7, lr}
 1063              		.cfi_def_cfa_offset 20
 1064              		.cfi_offset 4, -20
 1065              		.cfi_offset 5, -16
 1066              		.cfi_offset 6, -12
 1067              		.cfi_offset 7, -8
 1068              		.cfi_offset 14, -4
 1069 0002 124D     		ldr	r5, .L117
 1070 0004 83B0     		sub	sp, sp, #12
 1071              		.cfi_def_cfa_offset 32
 1072              		.loc 1 506 0
 1073 0006 0446     		mov	r4, r0
 1074 0008 2B68     		ldr	r3, [r5]
 1075 000a 0193     		str	r3, [sp, #4]
 1076 000c 0E46     		mov	r6, r1
 1077              		.loc 1 508 0
 1078 000e FFF7FEFF 		bl	chDbgCheckClassI
 1079              	.LVL88:
 1080              		.loc 1 509 0
 1081 0012 A4B1     		cbz	r4, .L115
 1082              	.L110:
 1083              		.loc 1 511 0
ARM GAS  C:\Users\Moi\AppData\Local\Temp\ccYptMCA.s 			page 20


 1084 0014 0120     		movs	r0, #1
 1085 0016 00FA06F3 		lsl	r3, r0, r6
 1086 001a 6289     		ldrh	r2, [r4, #10]
 1087 001c 9BB2     		uxth	r3, r3
 1088 001e 12EA0307 		ands	r7, r2, r3
 1089 0022 06D1     		bne	.L111
 1090              		.loc 1 515 0
 1091 0024 1343     		orrs	r3, r3, r2
 1092              		.loc 1 516 0
 1093 0026 2046     		mov	r0, r4
 1094              		.loc 1 515 0
 1095 0028 6381     		strh	r3, [r4, #10]	@ movhi
 1096              		.loc 1 516 0
 1097 002a 3146     		mov	r1, r6
 1098 002c FFF7FEFF 		bl	usb_lld_start_out
 1099              	.LVL89:
 1100              		.loc 1 517 0
 1101 0030 3846     		mov	r0, r7
 1102              	.L111:
 1103              		.loc 1 518 0
 1104 0032 019A     		ldr	r2, [sp, #4]
 1105 0034 2B68     		ldr	r3, [r5]
 1106 0036 9A42     		cmp	r2, r3
 1107 0038 05D1     		bne	.L116
 1108 003a 03B0     		add	sp, sp, #12
 1109              		.cfi_remember_state
 1110              		.cfi_def_cfa_offset 20
 1111              		@ sp needed
 1112 003c F0BD     		pop	{r4, r5, r6, r7, pc}
 1113              	.LVL90:
 1114              	.L115:
 1115              		.cfi_restore_state
 1116              		.loc 1 509 0 discriminator 2
 1117 003e 0448     		ldr	r0, .L117+4
 1118 0040 FFF7FEFF 		bl	chSysHalt
 1119              	.LVL91:
 1120 0044 E6E7     		b	.L110
 1121              	.L116:
 1122              		.loc 1 518 0
 1123 0046 FFF7FEFF 		bl	__stack_chk_fail
 1124              	.LVL92:
 1125              	.L118:
 1126 004a 00BF     		.align	2
 1127              	.L117:
 1128 004c 00000000 		.word	__stack_chk_guard
 1129 0050 00000000 		.word	.LANCHOR5
 1130              		.cfi_endproc
 1131              	.LFE269:
 1132              		.size	usbStartReceiveI, .-usbStartReceiveI
 1133              		.section	.text.usbStartTransmitI,"ax",%progbits
 1134              		.align	1
 1135              		.p2align 4,,15
 1136              		.global	usbStartTransmitI
 1137              		.syntax unified
 1138              		.thumb
 1139              		.thumb_func
 1140              		.fpu fpv4-sp-d16
ARM GAS  C:\Users\Moi\AppData\Local\Temp\ccYptMCA.s 			page 21


 1141              		.type	usbStartTransmitI, %function
 1142              	usbStartTransmitI:
 1143              	.LFB270:
 1144              		.loc 1 534 0
 1145              		.cfi_startproc
 1146              		@ args = 0, pretend = 0, frame = 8
 1147              		@ frame_needed = 0, uses_anonymous_args = 0
 1148              	.LVL93:
 1149 0000 F0B5     		push	{r4, r5, r6, r7, lr}
 1150              		.cfi_def_cfa_offset 20
 1151              		.cfi_offset 4, -20
 1152              		.cfi_offset 5, -16
 1153              		.cfi_offset 6, -12
 1154              		.cfi_offset 7, -8
 1155              		.cfi_offset 14, -4
 1156 0002 124D     		ldr	r5, .L127
 1157 0004 83B0     		sub	sp, sp, #12
 1158              		.cfi_def_cfa_offset 32
 1159              		.loc 1 534 0
 1160 0006 0446     		mov	r4, r0
 1161 0008 2B68     		ldr	r3, [r5]
 1162 000a 0193     		str	r3, [sp, #4]
 1163 000c 0E46     		mov	r6, r1
 1164              		.loc 1 536 0
 1165 000e FFF7FEFF 		bl	chDbgCheckClassI
 1166              	.LVL94:
 1167              		.loc 1 537 0
 1168 0012 A4B1     		cbz	r4, .L125
 1169              	.L120:
 1170              		.loc 1 539 0
 1171 0014 0120     		movs	r0, #1
 1172 0016 00FA06F3 		lsl	r3, r0, r6
 1173 001a 2289     		ldrh	r2, [r4, #8]
 1174 001c 9BB2     		uxth	r3, r3
 1175 001e 12EA0307 		ands	r7, r2, r3
 1176 0022 06D1     		bne	.L121
 1177              		.loc 1 543 0
 1178 0024 1343     		orrs	r3, r3, r2
 1179              		.loc 1 544 0
 1180 0026 2046     		mov	r0, r4
 1181              		.loc 1 543 0
 1182 0028 2381     		strh	r3, [r4, #8]	@ movhi
 1183              		.loc 1 544 0
 1184 002a 3146     		mov	r1, r6
 1185 002c FFF7FEFF 		bl	usb_lld_start_in
 1186              	.LVL95:
 1187              		.loc 1 545 0
 1188 0030 3846     		mov	r0, r7
 1189              	.L121:
 1190              		.loc 1 546 0
 1191 0032 019A     		ldr	r2, [sp, #4]
 1192 0034 2B68     		ldr	r3, [r5]
 1193 0036 9A42     		cmp	r2, r3
 1194 0038 05D1     		bne	.L126
 1195 003a 03B0     		add	sp, sp, #12
 1196              		.cfi_remember_state
 1197              		.cfi_def_cfa_offset 20
ARM GAS  C:\Users\Moi\AppData\Local\Temp\ccYptMCA.s 			page 22


 1198              		@ sp needed
 1199 003c F0BD     		pop	{r4, r5, r6, r7, pc}
 1200              	.LVL96:
 1201              	.L125:
 1202              		.cfi_restore_state
 1203              		.loc 1 537 0 discriminator 2
 1204 003e 0448     		ldr	r0, .L127+4
 1205 0040 FFF7FEFF 		bl	chSysHalt
 1206              	.LVL97:
 1207 0044 E6E7     		b	.L120
 1208              	.L126:
 1209              		.loc 1 546 0
 1210 0046 FFF7FEFF 		bl	__stack_chk_fail
 1211              	.LVL98:
 1212              	.L128:
 1213 004a 00BF     		.align	2
 1214              	.L127:
 1215 004c 00000000 		.word	__stack_chk_guard
 1216 0050 00000000 		.word	.LANCHOR6
 1217              		.cfi_endproc
 1218              	.LFE270:
 1219              		.size	usbStartTransmitI, .-usbStartTransmitI
 1220              		.section	.text.usbStallReceiveI,"ax",%progbits
 1221              		.align	1
 1222              		.p2align 4,,15
 1223              		.global	usbStallReceiveI
 1224              		.syntax unified
 1225              		.thumb
 1226              		.thumb_func
 1227              		.fpu fpv4-sp-d16
 1228              		.type	usbStallReceiveI, %function
 1229              	usbStallReceiveI:
 1230              	.LFB271:
 1231              		.loc 1 560 0
 1232              		.cfi_startproc
 1233              		@ args = 0, pretend = 0, frame = 8
 1234              		@ frame_needed = 0, uses_anonymous_args = 0
 1235              	.LVL99:
 1236 0000 F0B5     		push	{r4, r5, r6, r7, lr}
 1237              		.cfi_def_cfa_offset 20
 1238              		.cfi_offset 4, -20
 1239              		.cfi_offset 5, -16
 1240              		.cfi_offset 6, -12
 1241              		.cfi_offset 7, -8
 1242              		.cfi_offset 14, -4
 1243 0002 104E     		ldr	r6, .L137
 1244 0004 83B0     		sub	sp, sp, #12
 1245              		.cfi_def_cfa_offset 32
 1246              		.loc 1 560 0
 1247 0006 0546     		mov	r5, r0
 1248 0008 3368     		ldr	r3, [r6]
 1249 000a 0193     		str	r3, [sp, #4]
 1250 000c 0F46     		mov	r7, r1
 1251              		.loc 1 562 0
 1252 000e FFF7FEFF 		bl	chDbgCheckClassI
 1253              	.LVL100:
 1254              		.loc 1 563 0
ARM GAS  C:\Users\Moi\AppData\Local\Temp\ccYptMCA.s 			page 23


 1255 0012 85B1     		cbz	r5, .L135
 1256              	.L130:
 1257              		.loc 1 565 0
 1258 0014 0120     		movs	r0, #1
 1259 0016 6C89     		ldrh	r4, [r5, #10]
 1260 0018 00FA07F3 		lsl	r3, r0, r7
 1261 001c 1C40     		ands	r4, r3, r4
 1262 001e 04D1     		bne	.L131
 1263              		.loc 1 569 0
 1264 0020 2846     		mov	r0, r5
 1265 0022 3946     		mov	r1, r7
 1266 0024 FFF7FEFF 		bl	usb_lld_stall_out
 1267              	.LVL101:
 1268              		.loc 1 570 0
 1269 0028 2046     		mov	r0, r4
 1270              	.L131:
 1271              		.loc 1 571 0
 1272 002a 019A     		ldr	r2, [sp, #4]
 1273 002c 3368     		ldr	r3, [r6]
 1274 002e 9A42     		cmp	r2, r3
 1275 0030 05D1     		bne	.L136
 1276 0032 03B0     		add	sp, sp, #12
 1277              		.cfi_remember_state
 1278              		.cfi_def_cfa_offset 20
 1279              		@ sp needed
 1280 0034 F0BD     		pop	{r4, r5, r6, r7, pc}
 1281              	.LVL102:
 1282              	.L135:
 1283              		.cfi_restore_state
 1284              		.loc 1 563 0 discriminator 2
 1285 0036 0448     		ldr	r0, .L137+4
 1286 0038 FFF7FEFF 		bl	chSysHalt
 1287              	.LVL103:
 1288 003c EAE7     		b	.L130
 1289              	.L136:
 1290              		.loc 1 571 0
 1291 003e FFF7FEFF 		bl	__stack_chk_fail
 1292              	.LVL104:
 1293              	.L138:
 1294 0042 00BF     		.align	2
 1295              	.L137:
 1296 0044 00000000 		.word	__stack_chk_guard
 1297 0048 00000000 		.word	.LANCHOR7
 1298              		.cfi_endproc
 1299              	.LFE271:
 1300              		.size	usbStallReceiveI, .-usbStallReceiveI
 1301              		.section	.text.usbStallTransmitI,"ax",%progbits
 1302              		.align	1
 1303              		.p2align 4,,15
 1304              		.global	usbStallTransmitI
 1305              		.syntax unified
 1306              		.thumb
 1307              		.thumb_func
 1308              		.fpu fpv4-sp-d16
 1309              		.type	usbStallTransmitI, %function
 1310              	usbStallTransmitI:
 1311              	.LFB272:
ARM GAS  C:\Users\Moi\AppData\Local\Temp\ccYptMCA.s 			page 24


 1312              		.loc 1 585 0
 1313              		.cfi_startproc
 1314              		@ args = 0, pretend = 0, frame = 8
 1315              		@ frame_needed = 0, uses_anonymous_args = 0
 1316              	.LVL105:
 1317 0000 F0B5     		push	{r4, r5, r6, r7, lr}
 1318              		.cfi_def_cfa_offset 20
 1319              		.cfi_offset 4, -20
 1320              		.cfi_offset 5, -16
 1321              		.cfi_offset 6, -12
 1322              		.cfi_offset 7, -8
 1323              		.cfi_offset 14, -4
 1324 0002 104E     		ldr	r6, .L147
 1325 0004 83B0     		sub	sp, sp, #12
 1326              		.cfi_def_cfa_offset 32
 1327              		.loc 1 585 0
 1328 0006 0546     		mov	r5, r0
 1329 0008 3368     		ldr	r3, [r6]
 1330 000a 0193     		str	r3, [sp, #4]
 1331 000c 0F46     		mov	r7, r1
 1332              		.loc 1 587 0
 1333 000e FFF7FEFF 		bl	chDbgCheckClassI
 1334              	.LVL106:
 1335              		.loc 1 588 0
 1336 0012 85B1     		cbz	r5, .L145
 1337              	.L140:
 1338              		.loc 1 590 0
 1339 0014 0120     		movs	r0, #1
 1340 0016 2C89     		ldrh	r4, [r5, #8]
 1341 0018 00FA07F3 		lsl	r3, r0, r7
 1342 001c 1C40     		ands	r4, r3, r4
 1343 001e 04D1     		bne	.L141
 1344              		.loc 1 594 0
 1345 0020 2846     		mov	r0, r5
 1346 0022 3946     		mov	r1, r7
 1347 0024 FFF7FEFF 		bl	usb_lld_stall_in
 1348              	.LVL107:
 1349              		.loc 1 595 0
 1350 0028 2046     		mov	r0, r4
 1351              	.L141:
 1352              		.loc 1 596 0
 1353 002a 019A     		ldr	r2, [sp, #4]
 1354 002c 3368     		ldr	r3, [r6]
 1355 002e 9A42     		cmp	r2, r3
 1356 0030 05D1     		bne	.L146
 1357 0032 03B0     		add	sp, sp, #12
 1358              		.cfi_remember_state
 1359              		.cfi_def_cfa_offset 20
 1360              		@ sp needed
 1361 0034 F0BD     		pop	{r4, r5, r6, r7, pc}
 1362              	.LVL108:
 1363              	.L145:
 1364              		.cfi_restore_state
 1365              		.loc 1 588 0 discriminator 2
 1366 0036 0448     		ldr	r0, .L147+4
 1367 0038 FFF7FEFF 		bl	chSysHalt
 1368              	.LVL109:
ARM GAS  C:\Users\Moi\AppData\Local\Temp\ccYptMCA.s 			page 25


 1369 003c EAE7     		b	.L140
 1370              	.L146:
 1371              		.loc 1 596 0
 1372 003e FFF7FEFF 		bl	__stack_chk_fail
 1373              	.LVL110:
 1374              	.L148:
 1375 0042 00BF     		.align	2
 1376              	.L147:
 1377 0044 00000000 		.word	__stack_chk_guard
 1378 0048 00000000 		.word	.LANCHOR8
 1379              		.cfi_endproc
 1380              	.LFE272:
 1381              		.size	usbStallTransmitI, .-usbStallTransmitI
 1382              		.section	.text._usb_reset,"ax",%progbits
 1383              		.align	1
 1384              		.p2align 4,,15
 1385              		.global	_usb_reset
 1386              		.syntax unified
 1387              		.thumb
 1388              		.thumb_func
 1389              		.fpu fpv4-sp-d16
 1390              		.type	_usb_reset, %function
 1391              	_usb_reset:
 1392              	.LFB273:
 1393              		.loc 1 607 0
 1394              		.cfi_startproc
 1395              		@ args = 0, pretend = 0, frame = 8
 1396              		@ frame_needed = 0, uses_anonymous_args = 0
 1397              	.LVL111:
 1398 0000 30B5     		push	{r4, r5, lr}
 1399              		.cfi_def_cfa_offset 12
 1400              		.cfi_offset 4, -12
 1401              		.cfi_offset 5, -8
 1402              		.cfi_offset 14, -4
 1403 0002 0D4B     		ldr	r3, .L154
 1404 0004 83B0     		sub	sp, sp, #12
 1405              		.cfi_def_cfa_offset 24
 1406              		.loc 1 607 0
 1407 0006 1A68     		ldr	r2, [r3]
 1408 0008 0192     		str	r2, [sp, #4]
 1409              		.loc 1 626 0
 1410 000a 019C     		ldr	r4, [sp, #4]
 1411 000c 1968     		ldr	r1, [r3]
 1412              		.loc 1 611 0
 1413 000e 0022     		movs	r2, #0
 1414              		.loc 1 610 0
 1415 0010 0225     		movs	r5, #2
 1416              		.loc 1 626 0
 1417 0012 8C42     		cmp	r4, r1
 1418              		.loc 1 610 0
 1419 0014 0570     		strb	r5, [r0]
 1420              		.loc 1 611 0
 1421 0016 C264     		str	r2, [r0, #76]
 1422              	.LVL112:
 1423              		.loc 1 615 0
 1424 0018 C0E90222 		strd	r2, r2, [r0, #8]
 1425              		.loc 1 619 0
ARM GAS  C:\Users\Moi\AppData\Local\Temp\ccYptMCA.s 			page 26


 1426 001c C0E90422 		strd	r2, r2, [r0, #16]
 1427 0020 8261     		str	r2, [r0, #24]
 1428              	.LVL113:
 1429              		.loc 1 623 0
 1430 0022 80F83420 		strb	r2, [r0, #52]
 1431              		.loc 1 626 0
 1432 0026 04D1     		bne	.L153
 1433              		.loc 1 627 0
 1434 0028 03B0     		add	sp, sp, #12
 1435              		.cfi_remember_state
 1436              		.cfi_def_cfa_offset 12
 1437              		@ sp needed
 1438 002a BDE83040 		pop	{r4, r5, lr}
 1439              		.cfi_restore 14
 1440              		.cfi_restore 5
 1441              		.cfi_restore 4
 1442              		.cfi_def_cfa_offset 0
 1443              		.loc 1 626 0
 1444 002e FFF7FEBF 		b	usb_lld_reset
 1445              	.LVL114:
 1446              	.L153:
 1447              		.cfi_restore_state
 1448 0032 FFF7FEFF 		bl	__stack_chk_fail
 1449              	.LVL115:
 1450              	.L155:
 1451 0036 00BF     		.align	2
 1452              	.L154:
 1453 0038 00000000 		.word	__stack_chk_guard
 1454              		.cfi_endproc
 1455              	.LFE273:
 1456              		.size	_usb_reset, .-_usb_reset
 1457              		.section	.text._usb_ep0setup,"ax",%progbits
 1458              		.align	1
 1459              		.p2align 4,,15
 1460              		.global	_usb_ep0setup
 1461              		.syntax unified
 1462              		.thumb
 1463              		.thumb_func
 1464              		.fpu fpv4-sp-d16
 1465              		.type	_usb_ep0setup, %function
 1466              	_usb_ep0setup:
 1467              	.LFB274:
 1468              		.loc 1 639 0
 1469              		.cfi_startproc
 1470              		@ args = 0, pretend = 0, frame = 8
 1471              		@ frame_needed = 0, uses_anonymous_args = 0
 1472              	.LVL116:
 1473 0000 F0B5     		push	{r4, r5, r6, r7, lr}
 1474              		.cfi_def_cfa_offset 20
 1475              		.cfi_offset 4, -20
 1476              		.cfi_offset 5, -16
 1477              		.cfi_offset 6, -12
 1478              		.cfi_offset 7, -8
 1479              		.cfi_offset 14, -4
 1480 0002 C54D     		ldr	r5, .L255
 1481 0004 83B0     		sub	sp, sp, #12
 1482              		.cfi_def_cfa_offset 32
ARM GAS  C:\Users\Moi\AppData\Local\Temp\ccYptMCA.s 			page 27


 1483              		.loc 1 639 0
 1484 0006 0446     		mov	r4, r0
 1485              		.loc 1 642 0
 1486 0008 0022     		movs	r2, #0
 1487              		.loc 1 639 0
 1488 000a 2B68     		ldr	r3, [r5]
 1489              		.loc 1 642 0
 1490 000c 80F83420 		strb	r2, [r0, #52]
 1491              		.loc 1 643 0
 1492 0010 00F14402 		add	r2, r0, #68
 1493              		.loc 1 639 0
 1494 0014 0193     		str	r3, [sp, #4]
 1495              		.loc 1 643 0
 1496 0016 FFF7FEFF 		bl	usb_lld_read_setup
 1497              	.LVL117:
 1498              		.loc 1 648 0
 1499 001a 6368     		ldr	r3, [r4, #4]
 1500 001c 9B68     		ldr	r3, [r3, #8]
 1501 001e 002B     		cmp	r3, #0
 1502 0020 36D0     		beq	.L161
 1503              		.loc 1 649 0 discriminator 1
 1504 0022 2046     		mov	r0, r4
 1505 0024 9847     		blx	r3
 1506              	.LVL118:
 1507              		.loc 1 648 0 discriminator 1
 1508 0026 98B3     		cbz	r0, .L161
 1509 0028 E16B     		ldr	r1, [r4, #60]
 1510 002a 94F84430 		ldrb	r3, [r4, #68]	@ zero_extendqisi2
 1511              	.L178:
 1512              	.LBB327:
 1513              	.LBB328:
 1514              		.loc 1 55 0
 1515 002e 94F84B00 		ldrb	r0, [r4, #75]	@ zero_extendqisi2
 1516 0032 94F84A20 		ldrb	r2, [r4, #74]	@ zero_extendqisi2
 1517              	.LBE328:
 1518              	.LBE327:
 1519              		.loc 1 676 0
 1520 0036 42EA0022 		orr	r2, r2, r0, lsl #8
 1521              	.LVL119:
 1522              		.loc 1 678 0
 1523 003a 8A42     		cmp	r2, r1
 1524 003c 2CBF     		ite	cs
 1525 003e 0A46     		movcs	r2, r1
 1526              	.LVL120:
 1527              		.loc 1 679 0
 1528 0040 E263     		strcc	r2, [r4, #60]
 1529              		.loc 1 681 0
 1530 0042 1806     		lsls	r0, r3, #24
 1531              	.LVL121:
 1532 0044 E168     		ldr	r1, [r4, #12]
 1533 0046 00F1A680 		bmi	.L245
 1534              		.loc 1 707 0
 1535 004a 002A     		cmp	r2, #0
 1536 004c 00F08480 		beq	.L198
 1537              	.LBB329:
 1538              	.LBB330:
 1539              		.loc 1 401 0
ARM GAS  C:\Users\Moi\AppData\Local\Temp\ccYptMCA.s 			page 28


 1540 0050 8B69     		ldr	r3, [r1, #24]
 1541              	.LBE330:
 1542              	.LBE329:
 1543              		.loc 1 710 0
 1544 0052 A16B     		ldr	r1, [r4, #56]
 1545              	.LVL122:
 1546              	.LBB333:
 1547              	.LBB331:
 1548              		.loc 1 403 0
 1549 0054 0026     		movs	r6, #0
 1550              	.LBE331:
 1551              	.LBE333:
 1552              		.loc 1 709 0
 1553 0056 0420     		movs	r0, #4
 1554 0058 84F83400 		strb	r0, [r4, #52]
 1555              	.LBB334:
 1556              	.LBB332:
 1557              		.loc 1 404 0
 1558 005c D960     		str	r1, [r3, #12]
 1559              	.LVL123:
 1560              		.loc 1 405 0
 1561 005e 5A60     		str	r2, [r3, #4]
 1562              		.loc 1 403 0
 1563 0060 1E70     		strb	r6, [r3]
 1564              		.loc 1 406 0
 1565 0062 9E60     		str	r6, [r3, #8]
 1566              		.loc 1 408 0
 1567 0064 3146     		mov	r1, r6
 1568              	.LVL124:
 1569              	.L243:
 1570 0066 2046     		mov	r0, r4
 1571 0068 FFF7FEFF 		bl	usb_lld_prepare_receive
 1572              	.LVL125:
 1573              	.LBE332:
 1574              	.LBE334:
 1575              	.LBB335:
 1576              	.LBB336:
 1577              	.LBB337:
 1578              	.LBB338:
 1579              	.LBB339:
 1580              	.LBB340:
 1581              	.LBB341:
 1582              		.loc 2 546 0
 1583 006c 2023     		movs	r3, #32
 1584              		.syntax unified
 1585              	@ 546 "..//ChibiOS//os/ext/CMSIS/include/core_cmFunc.h" 1
 1586 006e 83F31188 		MSR basepri, r3
 1587              	@ 0 "" 2
 1588              	.LVL126:
 1589              		.thumb
 1590              		.syntax unified
 1591              	.LBE341:
 1592              	.LBE340:
 1593              	.LBE339:
 1594              	.LBE338:
 1595              		.loc 3 389 0
 1596 0072 FFF7FEFF 		bl	_stats_start_measure_crit_isr
ARM GAS  C:\Users\Moi\AppData\Local\Temp\ccYptMCA.s 			page 29


 1597              	.LVL127:
 1598              		.loc 3 390 0
 1599 0076 FFF7FEFF 		bl	_dbg_check_lock_from_isr
 1600              	.LVL128:
 1601              	.LBE337:
 1602              	.LBE336:
 1603              	.LBE335:
 1604              		.loc 1 712 0
 1605 007a 3146     		mov	r1, r6
 1606 007c 2046     		mov	r0, r4
 1607 007e FFF7FEFF 		bl	usbStartReceiveI
 1608              	.LVL129:
 1609              	.LBB342:
 1610              	.LBB343:
 1611              	.LBB344:
 1612              		.loc 3 408 0
 1613 0082 FFF7FEFF 		bl	_dbg_check_unlock_from_isr
 1614              	.LVL130:
 1615              		.loc 3 409 0
 1616 0086 FFF7FEFF 		bl	_stats_stop_measure_crit_isr
 1617              	.LVL131:
 1618              	.LBB345:
 1619              	.LBB346:
 1620              	.LBB347:
 1621              	.LBB348:
 1622              		.loc 2 546 0
 1623              		.syntax unified
 1624              	@ 546 "..//ChibiOS//os/ext/CMSIS/include/core_cmFunc.h" 1
 1625 008a 86F31188 		MSR basepri, r6
 1626              	@ 0 "" 2
 1627              	.LVL132:
 1628              		.thumb
 1629              		.syntax unified
 1630 008e 16E0     		b	.L156
 1631              	.L161:
 1632              	.LBE348:
 1633              	.LBE347:
 1634              	.LBE346:
 1635              	.LBE345:
 1636              	.LBE344:
 1637              	.LBE343:
 1638              	.LBE342:
 1639              		.loc 1 654 0
 1640 0090 94F84430 		ldrb	r3, [r4, #68]	@ zero_extendqisi2
 1641 0094 13F06006 		ands	r6, r3, #96
 1642 0098 1846     		mov	r0, r3
 1643 009a 17D0     		beq	.L246
 1644              	.L177:
 1645              		.loc 1 660 0
 1646 009c 0021     		movs	r1, #0
 1647 009e 2046     		mov	r0, r4
 1648 00a0 FFF7FEFF 		bl	usb_lld_stall_in
 1649              	.LVL133:
 1650              		.loc 1 661 0
 1651 00a4 0021     		movs	r1, #0
 1652 00a6 2046     		mov	r0, r4
 1653 00a8 FFF7FEFF 		bl	usb_lld_stall_out
ARM GAS  C:\Users\Moi\AppData\Local\Temp\ccYptMCA.s 			page 30


 1654              	.LVL134:
 1655              		.loc 1 662 0
 1656 00ac 6368     		ldr	r3, [r4, #4]
 1657 00ae 1B68     		ldr	r3, [r3]
 1658 00b0 13B1     		cbz	r3, .L192
 1659              		.loc 1 662 0 is_stmt 0 discriminator 1
 1660 00b2 0521     		movs	r1, #5
 1661 00b4 2046     		mov	r0, r4
 1662 00b6 9847     		blx	r3
 1663              	.LVL135:
 1664              	.L192:
 1665              		.loc 1 663 0 is_stmt 1
 1666 00b8 0623     		movs	r3, #6
 1667 00ba 84F83430 		strb	r3, [r4, #52]
 1668              	.L156:
 1669              		.loc 1 729 0
 1670 00be 019A     		ldr	r2, [sp, #4]
 1671 00c0 2B68     		ldr	r3, [r5]
 1672 00c2 9A42     		cmp	r2, r3
 1673 00c4 40F03E81 		bne	.L247
 1674 00c8 03B0     		add	sp, sp, #12
 1675              		.cfi_remember_state
 1676              		.cfi_def_cfa_offset 20
 1677              		@ sp needed
 1678 00ca F0BD     		pop	{r4, r5, r6, r7, pc}
 1679              	.LVL136:
 1680              	.L246:
 1681              		.cfi_restore_state
 1682              	.LBB349:
 1683              	.LBB350:
 1684              		.loc 1 90 0
 1685 00cc 94F84510 		ldrb	r1, [r4, #69]	@ zero_extendqisi2
 1686              		.loc 1 88 0
 1687 00d0 03F07F02 		and	r2, r3, #127
 1688              		.loc 1 89 0
 1689 00d4 42EA0122 		orr	r2, r2, r1, lsl #8
 1690              		.loc 1 88 0
 1691 00d8 B2F5407F 		cmp	r2, #768
 1692 00dc 00F00981 		beq	.L163
 1693 00e0 17D9     		bls	.L248
 1694 00e2 B2F5C06F 		cmp	r2, #1536
 1695 00e6 00F0CA80 		beq	.L171
 1696 00ea 40F28E80 		bls	.L249
 1697 00ee B2F5106F 		cmp	r2, #2304
 1698 00f2 68D0     		beq	.L175
 1699 00f4 40F60241 		movw	r1, #3074
 1700 00f8 8A42     		cmp	r2, r1
 1701 00fa 00F0DC80 		beq	.L168
 1702 00fe B2F5006F 		cmp	r2, #2048
 1703 0102 CBD1     		bne	.L177
 1704              		.loc 1 141 0
 1705 0104 04F14F02 		add	r2, r4, #79
 1706 0108 0121     		movs	r1, #1
 1707 010a 2664     		str	r6, [r4, #64]
 1708              	.LVL137:
 1709 010c C4E90E21 		strd	r2, r1, [r4, #56]
 1710 0110 8DE7     		b	.L178
ARM GAS  C:\Users\Moi\AppData\Local\Temp\ccYptMCA.s 			page 31


 1711              	.LVL138:
 1712              	.L248:
 1713              		.loc 1 88 0
 1714 0112 022A     		cmp	r2, #2
 1715 0114 00F0D680 		beq	.L165
 1716 0118 40F29680 		bls	.L250
 1717 011c B2F5807F 		cmp	r2, #256
 1718 0120 64D0     		beq	.L169
 1719 0122 B2F5817F 		cmp	r2, #258
 1720 0126 B9D1     		bne	.L177
 1721              		.loc 1 201 0
 1722 0128 94F84630 		ldrb	r3, [r4, #70]	@ zero_extendqisi2
 1723 012c 002B     		cmp	r3, #0
 1724 012e B5D1     		bne	.L177
 1725              		.loc 1 205 0
 1726 0130 94F84830 		ldrb	r3, [r4, #72]	@ zero_extendqisi2
 1727 0134 13F00F01 		ands	r1, r3, #15
 1728 0138 07D0     		beq	.L190
 1729              		.loc 1 206 0
 1730 013a 1F06     		lsls	r7, r3, #24
 1731              		.loc 1 207 0
 1732 013c 2046     		mov	r0, r4
 1733              		.loc 1 206 0
 1734 013e 00F1F780 		bmi	.L251
 1735              	.LVL139:
 1736              		.loc 1 210 0
 1737 0142 FFF7FEFF 		bl	usb_lld_clear_out
 1738              	.LVL140:
 1739 0146 94F84400 		ldrb	r0, [r4, #68]	@ zero_extendqisi2
 1740              	.L190:
 1741              		.loc 1 229 0
 1742 014a 0023     		movs	r3, #0
 1743 014c C4E90E33 		strd	r3, r3, [r4, #56]
 1744 0150 2364     		str	r3, [r4, #64]
 1745              	.LVL141:
 1746              	.L179:
 1747              	.LBE350:
 1748              	.LBE349:
 1749              		.loc 1 681 0
 1750 0152 0306     		lsls	r3, r0, #24
 1751 0154 E168     		ldr	r1, [r4, #12]
 1752 0156 2BD4     		bmi	.L197
 1753              	.LVL142:
 1754              	.L198:
 1755              	.LBB358:
 1756              	.LBB359:
 1757              		.loc 1 427 0
 1758 0158 4B69     		ldr	r3, [r1, #20]
 1759              		.loc 1 429 0
 1760 015a 0026     		movs	r6, #0
 1761              	.LBE359:
 1762              	.LBE358:
 1763              		.loc 1 718 0
 1764 015c 0522     		movs	r2, #5
 1765 015e 84F83420 		strb	r2, [r4, #52]
 1766              	.LVL143:
 1767              	.LBB361:
ARM GAS  C:\Users\Moi\AppData\Local\Temp\ccYptMCA.s 			page 32


 1768              	.LBB360:
 1769              		.loc 1 432 0
 1770 0162 C3E90166 		strd	r6, r6, [r3, #4]
 1771              		.loc 1 434 0
 1772 0166 3146     		mov	r1, r6
 1773              		.loc 1 429 0
 1774 0168 1E70     		strb	r6, [r3]
 1775              		.loc 1 430 0
 1776 016a DE60     		str	r6, [r3, #12]
 1777              	.LVL144:
 1778              	.L244:
 1779              		.loc 1 434 0
 1780 016c 2046     		mov	r0, r4
 1781 016e FFF7FEFF 		bl	usb_lld_prepare_transmit
 1782              	.LVL145:
 1783              	.LBE360:
 1784              	.LBE361:
 1785              	.LBB362:
 1786              	.LBB363:
 1787              	.LBB364:
 1788              	.LBB365:
 1789              	.LBB366:
 1790              	.LBB367:
 1791              	.LBB368:
 1792              		.loc 2 546 0
 1793 0172 2023     		movs	r3, #32
 1794              		.syntax unified
 1795              	@ 546 "..//ChibiOS//os/ext/CMSIS/include/core_cmFunc.h" 1
 1796 0174 83F31188 		MSR basepri, r3
 1797              	@ 0 "" 2
 1798              	.LVL146:
 1799              		.thumb
 1800              		.syntax unified
 1801              	.LBE368:
 1802              	.LBE367:
 1803              	.LBE366:
 1804              	.LBE365:
 1805              		.loc 3 389 0
 1806 0178 FFF7FEFF 		bl	_stats_start_measure_crit_isr
 1807              	.LVL147:
 1808              		.loc 3 390 0
 1809 017c FFF7FEFF 		bl	_dbg_check_lock_from_isr
 1810              	.LVL148:
 1811              	.LBE364:
 1812              	.LBE363:
 1813              	.LBE362:
 1814              		.loc 1 722 0
 1815 0180 3146     		mov	r1, r6
 1816 0182 2046     		mov	r0, r4
 1817 0184 FFF7FEFF 		bl	usbStartTransmitI
 1818              	.LVL149:
 1819              	.LBB369:
 1820              	.LBB370:
 1821              	.LBB371:
 1822              		.loc 3 408 0
 1823 0188 FFF7FEFF 		bl	_dbg_check_unlock_from_isr
 1824              	.LVL150:
ARM GAS  C:\Users\Moi\AppData\Local\Temp\ccYptMCA.s 			page 33


 1825              		.loc 3 409 0
 1826 018c FFF7FEFF 		bl	_stats_stop_measure_crit_isr
 1827              	.LVL151:
 1828              	.LBB372:
 1829              	.LBB373:
 1830              	.LBB374:
 1831              	.LBB375:
 1832              		.loc 2 546 0
 1833              		.syntax unified
 1834              	@ 546 "..//ChibiOS//os/ext/CMSIS/include/core_cmFunc.h" 1
 1835 0190 86F31188 		MSR basepri, r6
 1836              	@ 0 "" 2
 1837              	.LVL152:
 1838              		.thumb
 1839              		.syntax unified
 1840 0194 93E7     		b	.L156
 1841              	.LVL153:
 1842              	.L245:
 1843              	.LBE375:
 1844              	.LBE374:
 1845              	.LBE373:
 1846              	.LBE372:
 1847              	.LBE371:
 1848              	.LBE370:
 1849              	.LBE369:
 1850              		.loc 1 683 0
 1851 0196 5AB1     		cbz	r2, .L197
 1852              	.LBB376:
 1853              	.LBB377:
 1854              		.loc 1 427 0
 1855 0198 4B69     		ldr	r3, [r1, #20]
 1856              	.LBE377:
 1857              	.LBE376:
 1858              		.loc 1 686 0
 1859 019a A16B     		ldr	r1, [r4, #56]
 1860              	.LVL154:
 1861              	.LBB380:
 1862              	.LBB378:
 1863              		.loc 1 429 0
 1864 019c 0026     		movs	r6, #0
 1865              	.LBE378:
 1866              	.LBE380:
 1867              		.loc 1 685 0
 1868 019e 0120     		movs	r0, #1
 1869 01a0 84F83400 		strb	r0, [r4, #52]
 1870              	.LBB381:
 1871              	.LBB379:
 1872              		.loc 1 430 0
 1873 01a4 D960     		str	r1, [r3, #12]
 1874              	.LVL155:
 1875              		.loc 1 431 0
 1876 01a6 5A60     		str	r2, [r3, #4]
 1877              		.loc 1 429 0
 1878 01a8 1E70     		strb	r6, [r3]
 1879              		.loc 1 432 0
 1880 01aa 9E60     		str	r6, [r3, #8]
 1881              		.loc 1 434 0
ARM GAS  C:\Users\Moi\AppData\Local\Temp\ccYptMCA.s 			page 34


 1882 01ac 3146     		mov	r1, r6
 1883              	.LVL156:
 1884 01ae DDE7     		b	.L244
 1885              	.LVL157:
 1886              	.L197:
 1887              	.LBE379:
 1888              	.LBE381:
 1889              	.LBB382:
 1890              	.LBB383:
 1891              		.loc 1 401 0
 1892 01b0 8B69     		ldr	r3, [r1, #24]
 1893              		.loc 1 403 0
 1894 01b2 0026     		movs	r6, #0
 1895              	.LBE383:
 1896              	.LBE382:
 1897              		.loc 1 694 0
 1898 01b4 0322     		movs	r2, #3
 1899 01b6 84F83420 		strb	r2, [r4, #52]
 1900              	.LVL158:
 1901              	.LBB385:
 1902              	.LBB384:
 1903              		.loc 1 408 0
 1904 01ba 3146     		mov	r1, r6
 1905              		.loc 1 403 0
 1906 01bc 1E70     		strb	r6, [r3]
 1907              		.loc 1 404 0
 1908 01be DE60     		str	r6, [r3, #12]
 1909              		.loc 1 406 0
 1910 01c0 C3E90166 		strd	r6, r6, [r3, #4]
 1911 01c4 4FE7     		b	.L243
 1912              	.LVL159:
 1913              	.L175:
 1914              	.LBE384:
 1915              	.LBE385:
 1916              	.LBB386:
 1917              	.LBB357:
 1918              		.loc 1 145 0
 1919 01c6 94F84630 		ldrb	r3, [r4, #70]	@ zero_extendqisi2
 1920 01ca 84F84F30 		strb	r3, [r4, #79]
 1921              		.loc 1 146 0
 1922 01ce 002B     		cmp	r3, #0
 1923 01d0 40F09E80 		bne	.L182
 1924              		.loc 1 147 0
 1925 01d4 0323     		movs	r3, #3
 1926 01d6 2370     		strb	r3, [r4]
 1927              	.L183:
 1928              		.loc 1 152 0
 1929 01d8 6368     		ldr	r3, [r4, #4]
 1930 01da 1B68     		ldr	r3, [r3]
 1931 01dc 002B     		cmp	r3, #0
 1932 01de B4D0     		beq	.L190
 1933 01e0 2046     		mov	r0, r4
 1934 01e2 0221     		movs	r1, #2
 1935 01e4 9847     		blx	r3
 1936              	.LVL160:
 1937 01e6 94F84400 		ldrb	r0, [r4, #68]	@ zero_extendqisi2
 1938 01ea AEE7     		b	.L190
ARM GAS  C:\Users\Moi\AppData\Local\Temp\ccYptMCA.s 			page 35


 1939              	.L169:
 1940              		.loc 1 98 0
 1941 01ec 94F84630 		ldrb	r3, [r4, #70]	@ zero_extendqisi2
 1942 01f0 012B     		cmp	r3, #1
 1943 01f2 7FF453AF 		bne	.L177
 1944              		.loc 1 99 0
 1945 01f6 B4F84C30 		ldrh	r3, [r4, #76]
 1946              		.loc 1 100 0
 1947 01fa A663     		str	r6, [r4, #56]
 1948              		.loc 1 99 0
 1949 01fc 23F00203 		bic	r3, r3, #2
 1950              		.loc 1 100 0
 1951 0200 C4E90F66 		strd	r6, r6, [r4, #60]
 1952              	.LVL161:
 1953              		.loc 1 99 0
 1954 0204 A4F84C30 		strh	r3, [r4, #76]	@ movhi
 1955 0208 A3E7     		b	.L179
 1956              	.LVL162:
 1957              	.L249:
 1958              		.loc 1 88 0
 1959 020a 40F20233 		movw	r3, #770
 1960 020e 9A42     		cmp	r2, r3
 1961 0210 22D0     		beq	.L173
 1962 0212 B2F5A06F 		cmp	r2, #1280
 1963 0216 7FF441AF 		bne	.L177
 1964              		.loc 1 118 0
 1965 021a B4F84430 		ldrh	r3, [r4, #68]
 1966 021e B3F5A06F 		cmp	r3, #1280
 1967 0222 92D1     		bne	.L190
 1968              	.LVL163:
 1969              	.LBB351:
 1970              	.LBB352:
 1971              		.loc 1 66 0
 1972 0224 94F84630 		ldrb	r3, [r4, #70]	@ zero_extendqisi2
 1973 0228 84F84E30 		strb	r3, [r4, #78]
 1974              		.loc 1 67 0
 1975 022c 2046     		mov	r0, r4
 1976 022e FFF7FEFF 		bl	usb_lld_set_address
 1977              	.LVL164:
 1978              		.loc 1 68 0
 1979 0232 6368     		ldr	r3, [r4, #4]
 1980 0234 1B68     		ldr	r3, [r3]
 1981 0236 13B1     		cbz	r3, .L181
 1982 0238 0121     		movs	r1, #1
 1983 023a 2046     		mov	r0, r4
 1984 023c 9847     		blx	r3
 1985              	.LVL165:
 1986              	.L181:
 1987              		.loc 1 69 0
 1988 023e 0323     		movs	r3, #3
 1989 0240 94F84400 		ldrb	r0, [r4, #68]	@ zero_extendqisi2
 1990 0244 2370     		strb	r3, [r4]
 1991 0246 80E7     		b	.L190
 1992              	.LVL166:
 1993              	.L250:
 1994              	.LBE352:
 1995              	.LBE351:
ARM GAS  C:\Users\Moi\AppData\Local\Temp\ccYptMCA.s 			page 36


 1996              		.loc 1 88 0
 1997 0248 92BB     		cbnz	r2, .L252
 1998              		.loc 1 93 0
 1999 024a 04F14C00 		add	r0, r4, #76
 2000 024e 0221     		movs	r1, #2
 2001 0250 2264     		str	r2, [r4, #64]
 2002              	.LVL167:
 2003 0252 C4E90E01 		strd	r0, r1, [r4, #56]
 2004 0256 EAE6     		b	.L178
 2005              	.LVL168:
 2006              	.L173:
 2007              		.loc 1 217 0
 2008 0258 94F84630 		ldrb	r3, [r4, #70]	@ zero_extendqisi2
 2009 025c 002B     		cmp	r3, #0
 2010 025e 7FF41DAF 		bne	.L177
 2011              		.loc 1 221 0
 2012 0262 94F84830 		ldrb	r3, [r4, #72]	@ zero_extendqisi2
 2013 0266 13F00F01 		ands	r1, r3, #15
 2014 026a 3FF46EAF 		beq	.L190
 2015              		.loc 1 222 0
 2016 026e 1E06     		lsls	r6, r3, #24
 2017              		.loc 1 223 0
 2018 0270 2046     		mov	r0, r4
 2019              		.loc 1 222 0
 2020 0272 62D4     		bmi	.L253
 2021              	.LVL169:
 2022              		.loc 1 226 0
 2023 0274 FFF7FEFF 		bl	usb_lld_stall_out
 2024              	.LVL170:
 2025 0278 94F84400 		ldrb	r0, [r4, #68]	@ zero_extendqisi2
 2026 027c 65E7     		b	.L190
 2027              	.L171:
 2028              	.LBB353:
 2029              	.LBB354:
 2030              		.loc 1 55 0
 2031 027e 94F84900 		ldrb	r0, [r4, #73]	@ zero_extendqisi2
 2032              	.LBE354:
 2033              	.LBE353:
 2034              		.loc 1 129 0
 2035 0282 6168     		ldr	r1, [r4, #4]
 2036              	.LBB356:
 2037              	.LBB355:
 2038              		.loc 1 55 0
 2039 0284 94F84830 		ldrb	r3, [r4, #72]	@ zero_extendqisi2
 2040              	.LBE355:
 2041              	.LBE356:
 2042              		.loc 1 129 0
 2043 0288 4F68     		ldr	r7, [r1, #4]
 2044 028a 94F84620 		ldrb	r2, [r4, #70]	@ zero_extendqisi2
 2045 028e 94F84710 		ldrb	r1, [r4, #71]	@ zero_extendqisi2
 2046 0292 43EA0023 		orr	r3, r3, r0, lsl #8
 2047 0296 2046     		mov	r0, r4
 2048 0298 B847     		blx	r7
 2049              	.LVL171:
 2050              		.loc 1 132 0
 2051 029a 0028     		cmp	r0, #0
 2052 029c 3FF4FEAE 		beq	.L177
ARM GAS  C:\Users\Moi\AppData\Local\Temp\ccYptMCA.s 			page 37


 2053              		.loc 1 136 0
 2054 02a0 D0E90013 		ldrd	r1, r3, [r0]
 2055 02a4 2664     		str	r6, [r4, #64]
 2056              	.LVL172:
 2057 02a6 C4E90E31 		strd	r3, r1, [r4, #56]
 2058 02aa 94F84430 		ldrb	r3, [r4, #68]	@ zero_extendqisi2
 2059 02ae BEE6     		b	.L178
 2060              	.LVL173:
 2061              	.L252:
 2062              		.loc 1 88 0
 2063 02b0 012A     		cmp	r2, #1
 2064 02b2 7FF4F3AE 		bne	.L177
 2065              	.L168:
 2066              		.loc 1 160 0
 2067 02b6 194A     		ldr	r2, .L255+4
 2068 02b8 A263     		str	r2, [r4, #56]
 2069 02ba 0221     		movs	r1, #2
 2070 02bc 0022     		movs	r2, #0
 2071 02be C4E90F12 		strd	r1, r2, [r4, #60]
 2072              	.LVL174:
 2073 02c2 B4E6     		b	.L178
 2074              	.LVL175:
 2075              	.L165:
 2076              		.loc 1 165 0
 2077 02c4 94F84830 		ldrb	r3, [r4, #72]	@ zero_extendqisi2
 2078 02c8 03F00F01 		and	r1, r3, #15
 2079 02cc 1B06     		lsls	r3, r3, #24
 2080              		.loc 1 166 0
 2081 02ce 2046     		mov	r0, r4
 2082              		.loc 1 165 0
 2083 02d0 28D4     		bmi	.L254
 2084              	.LVL176:
 2085              		.loc 1 183 0
 2086 02d2 FFF7FEFF 		bl	usb_lld_get_status_out
 2087              	.LVL177:
 2088 02d6 0128     		cmp	r0, #1
 2089 02d8 28D0     		beq	.L186
 2090              	.L241:
 2091 02da 0228     		cmp	r0, #2
 2092 02dc 7FF4DEAE 		bne	.L177
 2093              		.loc 1 174 0
 2094 02e0 0F4B     		ldr	r3, .L255+8
 2095              	.L242:
 2096 02e2 A363     		str	r3, [r4, #56]
 2097 02e4 0221     		movs	r1, #2
 2098 02e6 0023     		movs	r3, #0
 2099 02e8 C4E90F13 		strd	r1, r3, [r4, #60]
 2100              	.LVL178:
 2101 02ec 94F84430 		ldrb	r3, [r4, #68]	@ zero_extendqisi2
 2102 02f0 9DE6     		b	.L178
 2103              	.LVL179:
 2104              	.L163:
 2105              		.loc 1 107 0
 2106 02f2 94F84630 		ldrb	r3, [r4, #70]	@ zero_extendqisi2
 2107 02f6 012B     		cmp	r3, #1
 2108 02f8 7FF4D0AE 		bne	.L177
 2109              		.loc 1 108 0
ARM GAS  C:\Users\Moi\AppData\Local\Temp\ccYptMCA.s 			page 38


 2110 02fc B4F84C30 		ldrh	r3, [r4, #76]
 2111              		.loc 1 109 0
 2112 0300 A663     		str	r6, [r4, #56]
 2113              		.loc 1 108 0
 2114 0302 43F00203 		orr	r3, r3, #2
 2115              		.loc 1 109 0
 2116 0306 C4E90F66 		strd	r6, r6, [r4, #60]
 2117              	.LVL180:
 2118              		.loc 1 108 0
 2119 030a A4F84C30 		strh	r3, [r4, #76]	@ movhi
 2120 030e 20E7     		b	.L179
 2121              	.LVL181:
 2122              	.L182:
 2123              		.loc 1 150 0
 2124 0310 0423     		movs	r3, #4
 2125 0312 2370     		strb	r3, [r4]
 2126 0314 60E7     		b	.L183
 2127              	.L256:
 2128 0316 00BF     		.align	2
 2129              	.L255:
 2130 0318 00000000 		.word	__stack_chk_guard
 2131 031c 00000000 		.word	.LANCHOR9
 2132 0320 00000000 		.word	.LANCHOR11
 2133              	.LVL182:
 2134              	.L254:
 2135              		.loc 1 166 0
 2136 0324 FFF7FEFF 		bl	usb_lld_get_status_in
 2137              	.LVL183:
 2138 0328 0128     		cmp	r0, #1
 2139 032a D6D1     		bne	.L241
 2140              	.L186:
 2141              		.loc 1 169 0
 2142 032c 064B     		ldr	r3, .L257
 2143 032e D8E7     		b	.L242
 2144              	.LVL184:
 2145              	.L251:
 2146              		.loc 1 207 0
 2147 0330 FFF7FEFF 		bl	usb_lld_clear_in
 2148              	.LVL185:
 2149 0334 94F84400 		ldrb	r0, [r4, #68]	@ zero_extendqisi2
 2150 0338 07E7     		b	.L190
 2151              	.LVL186:
 2152              	.L253:
 2153              		.loc 1 223 0
 2154 033a FFF7FEFF 		bl	usb_lld_stall_in
 2155              	.LVL187:
 2156 033e 94F84400 		ldrb	r0, [r4, #68]	@ zero_extendqisi2
 2157 0342 02E7     		b	.L190
 2158              	.LVL188:
 2159              	.L247:
 2160              	.LBE357:
 2161              	.LBE386:
 2162              		.loc 1 729 0
 2163 0344 FFF7FEFF 		bl	__stack_chk_fail
 2164              	.LVL189:
 2165              	.L258:
 2166              		.align	2
ARM GAS  C:\Users\Moi\AppData\Local\Temp\ccYptMCA.s 			page 39


 2167              	.L257:
 2168 0348 00000000 		.word	.LANCHOR10
 2169              		.cfi_endproc
 2170              	.LFE274:
 2171              		.size	_usb_ep0setup, .-_usb_ep0setup
 2172              		.section	.text._usb_ep0in,"ax",%progbits
 2173              		.align	1
 2174              		.p2align 4,,15
 2175              		.global	_usb_ep0in
 2176              		.syntax unified
 2177              		.thumb
 2178              		.thumb_func
 2179              		.fpu fpv4-sp-d16
 2180              		.type	_usb_ep0in, %function
 2181              	_usb_ep0in:
 2182              	.LFB275:
 2183              		.loc 1 741 0
 2184              		.cfi_startproc
 2185              		@ args = 0, pretend = 0, frame = 8
 2186              		@ frame_needed = 0, uses_anonymous_args = 0
 2187              	.LVL190:
 2188 0000 70B5     		push	{r4, r5, r6, lr}
 2189              		.cfi_def_cfa_offset 16
 2190              		.cfi_offset 4, -16
 2191              		.cfi_offset 5, -12
 2192              		.cfi_offset 6, -8
 2193              		.cfi_offset 14, -4
 2194 0002 454D     		ldr	r5, .L282
 2195              		.loc 1 745 0
 2196 0004 90F83430 		ldrb	r3, [r0, #52]	@ zero_extendqisi2
 2197              		.loc 1 741 0
 2198 0008 2A68     		ldr	r2, [r5]
 2199 000a 82B0     		sub	sp, sp, #8
 2200              		.cfi_def_cfa_offset 24
 2201              		.loc 1 741 0
 2202 000c 0446     		mov	r4, r0
 2203 000e 0192     		str	r2, [sp, #4]
 2204              		.loc 1 745 0
 2205 0010 062B     		cmp	r3, #6
 2206 0012 57D8     		bhi	.L260
 2207 0014 DFE803F0 		tbb	[pc, r3]
 2208              	.L262:
 2209 0018 04       		.byte	(.L261-.L262)/2
 2210 0019 25       		.byte	(.L263-.L262)/2
 2211 001a 54       		.byte	(.L264-.L262)/2
 2212 001b 04       		.byte	(.L261-.L262)/2
 2213 001c 04       		.byte	(.L261-.L262)/2
 2214 001d 1E       		.byte	(.L265-.L262)/2
 2215 001e 07       		.byte	(.L266-.L262)/2
 2216 001f 00       		.p2align 1
 2217              	.L261:
 2218              		.loc 1 784 0 discriminator 2
 2219 0020 3E48     		ldr	r0, .L282+4
 2220              	.LVL191:
 2221 0022 FFF7FEFF 		bl	chSysHalt
 2222              	.LVL192:
 2223              	.L266:
ARM GAS  C:\Users\Moi\AppData\Local\Temp\ccYptMCA.s 			page 40


 2224              		.loc 1 790 0
 2225 0026 0021     		movs	r1, #0
 2226 0028 2046     		mov	r0, r4
 2227 002a FFF7FEFF 		bl	usb_lld_stall_in
 2228              	.LVL193:
 2229              		.loc 1 791 0
 2230 002e 0021     		movs	r1, #0
 2231 0030 2046     		mov	r0, r4
 2232 0032 FFF7FEFF 		bl	usb_lld_stall_out
 2233              	.LVL194:
 2234              		.loc 1 792 0
 2235 0036 6368     		ldr	r3, [r4, #4]
 2236 0038 1B68     		ldr	r3, [r3]
 2237 003a 13B1     		cbz	r3, .L270
 2238              		.loc 1 792 0 is_stmt 0 discriminator 1
 2239 003c 0521     		movs	r1, #5
 2240 003e 2046     		mov	r0, r4
 2241 0040 9847     		blx	r3
 2242              	.LVL195:
 2243              	.L270:
 2244              		.loc 1 793 0 is_stmt 1
 2245 0042 0623     		movs	r3, #6
 2246 0044 84F83430 		strb	r3, [r4, #52]
 2247              	.L259:
 2248              		.loc 1 798 0
 2249 0048 019A     		ldr	r2, [sp, #4]
 2250 004a 2B68     		ldr	r3, [r5]
 2251 004c 9A42     		cmp	r2, r3
 2252 004e 61D1     		bne	.L280
 2253 0050 02B0     		add	sp, sp, #8
 2254              		.cfi_remember_state
 2255              		.cfi_def_cfa_offset 16
 2256              		@ sp needed
 2257 0052 70BD     		pop	{r4, r5, r6, pc}
 2258              	.LVL196:
 2259              	.L265:
 2260              		.cfi_restore_state
 2261              		.loc 1 775 0
 2262 0054 036C     		ldr	r3, [r0, #64]
 2263 0056 03B1     		cbz	r3, .L269
 2264              		.loc 1 776 0
 2265 0058 9847     		blx	r3
 2266              	.LVL197:
 2267              	.L269:
 2268              		.loc 1 778 0
 2269 005a 0023     		movs	r3, #0
 2270 005c 84F83430 		strb	r3, [r4, #52]
 2271              		.loc 1 779 0
 2272 0060 F2E7     		b	.L259
 2273              	.LVL198:
 2274              	.L263:
 2275              	.LBB387:
 2276              	.LBB388:
 2277              		.loc 1 55 0
 2278 0062 90F84B00 		ldrb	r0, [r0, #75]	@ zero_extendqisi2
 2279              	.LVL199:
 2280 0066 94F84A20 		ldrb	r2, [r4, #74]	@ zero_extendqisi2
ARM GAS  C:\Users\Moi\AppData\Local\Temp\ccYptMCA.s 			page 41


 2281              	.LBE388:
 2282              	.LBE387:
 2283              		.loc 1 751 0
 2284 006a E16B     		ldr	r1, [r4, #60]
 2285              	.LVL200:
 2286 006c E368     		ldr	r3, [r4, #12]
 2287              		.loc 1 747 0
 2288 006e 42EA0022 		orr	r2, r2, r0, lsl #8
 2289              		.loc 1 751 0
 2290 0072 9142     		cmp	r1, r2
 2291 0074 05D2     		bcs	.L267
 2292              		.loc 1 752 0 discriminator 1
 2293 0076 1A8A     		ldrh	r2, [r3, #16]
 2294 0078 B1FBF2F6 		udiv	r6, r1, r2
 2295 007c 02FB1616 		mls	r6, r2, r6, r1
 2296              		.loc 1 751 0 discriminator 1
 2297 0080 56B3     		cbz	r6, .L281
 2298              	.LVL201:
 2299              	.L267:
 2300              	.LBB389:
 2301              	.LBB390:
 2302              		.loc 1 401 0
 2303 0082 9B69     		ldr	r3, [r3, #24]
 2304              		.loc 1 403 0
 2305 0084 0026     		movs	r6, #0
 2306              	.LBE390:
 2307              	.LBE389:
 2308              		.loc 1 763 0
 2309 0086 0322     		movs	r2, #3
 2310 0088 84F83420 		strb	r2, [r4, #52]
 2311              	.LVL202:
 2312              	.LBB392:
 2313              	.LBB391:
 2314              		.loc 1 408 0
 2315 008c 3146     		mov	r1, r6
 2316              		.loc 1 403 0
 2317 008e 1E70     		strb	r6, [r3]
 2318              		.loc 1 404 0
 2319 0090 DE60     		str	r6, [r3, #12]
 2320              		.loc 1 406 0
 2321 0092 C3E90166 		strd	r6, r6, [r3, #4]
 2322              		.loc 1 408 0
 2323 0096 2046     		mov	r0, r4
 2324 0098 FFF7FEFF 		bl	usb_lld_prepare_receive
 2325              	.LVL203:
 2326              	.LBE391:
 2327              	.LBE392:
 2328              	.LBB393:
 2329              	.LBB394:
 2330              	.LBB395:
 2331              	.LBB396:
 2332              	.LBB397:
 2333              	.LBB398:
 2334              	.LBB399:
 2335              		.loc 2 546 0
 2336 009c 2023     		movs	r3, #32
 2337              		.syntax unified
ARM GAS  C:\Users\Moi\AppData\Local\Temp\ccYptMCA.s 			page 42


 2338              	@ 546 "..//ChibiOS//os/ext/CMSIS/include/core_cmFunc.h" 1
 2339 009e 83F31188 		MSR basepri, r3
 2340              	@ 0 "" 2
 2341              	.LVL204:
 2342              		.thumb
 2343              		.syntax unified
 2344              	.LBE399:
 2345              	.LBE398:
 2346              	.LBE397:
 2347              	.LBE396:
 2348              		.loc 3 389 0
 2349 00a2 FFF7FEFF 		bl	_stats_start_measure_crit_isr
 2350              	.LVL205:
 2351              		.loc 3 390 0
 2352 00a6 FFF7FEFF 		bl	_dbg_check_lock_from_isr
 2353              	.LVL206:
 2354              	.LBE395:
 2355              	.LBE394:
 2356              	.LBE393:
 2357              		.loc 1 767 0
 2358 00aa 3146     		mov	r1, r6
 2359 00ac 2046     		mov	r0, r4
 2360 00ae FFF7FEFF 		bl	usbStartReceiveI
 2361              	.LVL207:
 2362              	.LBB400:
 2363              	.LBB401:
 2364              	.LBB402:
 2365              		.loc 3 408 0
 2366 00b2 FFF7FEFF 		bl	_dbg_check_unlock_from_isr
 2367              	.LVL208:
 2368              		.loc 3 409 0
 2369 00b6 FFF7FEFF 		bl	_stats_stop_measure_crit_isr
 2370              	.LVL209:
 2371              	.LBB403:
 2372              	.LBB404:
 2373              	.LBB405:
 2374              	.LBB406:
 2375              		.loc 2 546 0
 2376              		.syntax unified
 2377              	@ 546 "..//ChibiOS//os/ext/CMSIS/include/core_cmFunc.h" 1
 2378 00ba 86F31188 		MSR basepri, r6
 2379              	@ 0 "" 2
 2380              	.LVL210:
 2381              		.thumb
 2382              		.syntax unified
 2383 00be C3E7     		b	.L259
 2384              	.LVL211:
 2385              	.L264:
 2386 00c0 C368     		ldr	r3, [r0, #12]
 2387 00c2 DEE7     		b	.L267
 2388              	.L260:
 2389              	.LBE406:
 2390              	.LBE405:
 2391              	.LBE404:
 2392              	.LBE403:
 2393              	.LBE402:
 2394              	.LBE401:
ARM GAS  C:\Users\Moi\AppData\Local\Temp\ccYptMCA.s 			page 43


 2395              	.LBE400:
 2396              		.loc 1 796 0 discriminator 2
 2397 00c4 019A     		ldr	r2, [sp, #4]
 2398 00c6 2B68     		ldr	r3, [r5]
 2399 00c8 9A42     		cmp	r2, r3
 2400 00ca 23D1     		bne	.L280
 2401 00cc 1348     		ldr	r0, .L282+4
 2402              	.LVL212:
 2403              		.loc 1 798 0 discriminator 2
 2404 00ce 02B0     		add	sp, sp, #8
 2405              		@ sp needed
 2406 00d0 BDE87040 		pop	{r4, r5, r6, lr}
 2407              	.LVL213:
 2408              		.loc 1 796 0 discriminator 2
 2409 00d4 FFF7FEBF 		b	chSysHalt
 2410              	.LVL214:
 2411              	.L281:
 2412              	.LBB407:
 2413              	.LBB408:
 2414              		.loc 1 427 0
 2415 00d8 5B69     		ldr	r3, [r3, #20]
 2416              	.LVL215:
 2417              		.loc 1 434 0
 2418 00da 3146     		mov	r1, r6
 2419              		.loc 1 429 0
 2420 00dc 1E70     		strb	r6, [r3]
 2421              	.LVL216:
 2422              		.loc 1 430 0
 2423 00de DE60     		str	r6, [r3, #12]
 2424              		.loc 1 432 0
 2425 00e0 C3E90166 		strd	r6, r6, [r3, #4]
 2426              		.loc 1 434 0
 2427 00e4 2046     		mov	r0, r4
 2428 00e6 FFF7FEFF 		bl	usb_lld_prepare_transmit
 2429              	.LVL217:
 2430              	.LBE408:
 2431              	.LBE407:
 2432              	.LBB409:
 2433              	.LBB410:
 2434              	.LBB411:
 2435              	.LBB412:
 2436              	.LBB413:
 2437              	.LBB414:
 2438              	.LBB415:
 2439              		.loc 2 546 0
 2440 00ea 2023     		movs	r3, #32
 2441              		.syntax unified
 2442              	@ 546 "..//ChibiOS//os/ext/CMSIS/include/core_cmFunc.h" 1
 2443 00ec 83F31188 		MSR basepri, r3
 2444              	@ 0 "" 2
 2445              	.LVL218:
 2446              		.thumb
 2447              		.syntax unified
 2448              	.LBE415:
 2449              	.LBE414:
 2450              	.LBE413:
 2451              	.LBE412:
ARM GAS  C:\Users\Moi\AppData\Local\Temp\ccYptMCA.s 			page 44


 2452              		.loc 3 389 0
 2453 00f0 FFF7FEFF 		bl	_stats_start_measure_crit_isr
 2454              	.LVL219:
 2455              		.loc 3 390 0
 2456 00f4 FFF7FEFF 		bl	_dbg_check_lock_from_isr
 2457              	.LVL220:
 2458              	.LBE411:
 2459              	.LBE410:
 2460              	.LBE409:
 2461              		.loc 1 755 0
 2462 00f8 3146     		mov	r1, r6
 2463 00fa 2046     		mov	r0, r4
 2464 00fc FFF7FEFF 		bl	usbStartTransmitI
 2465              	.LVL221:
 2466              	.LBB416:
 2467              	.LBB417:
 2468              	.LBB418:
 2469              		.loc 3 408 0
 2470 0100 FFF7FEFF 		bl	_dbg_check_unlock_from_isr
 2471              	.LVL222:
 2472              		.loc 3 409 0
 2473 0104 FFF7FEFF 		bl	_stats_stop_measure_crit_isr
 2474              	.LVL223:
 2475              	.LBB419:
 2476              	.LBB420:
 2477              	.LBB421:
 2478              	.LBB422:
 2479              		.loc 2 546 0
 2480              		.syntax unified
 2481              	@ 546 "..//ChibiOS//os/ext/CMSIS/include/core_cmFunc.h" 1
 2482 0108 86F31188 		MSR basepri, r6
 2483              	@ 0 "" 2
 2484              	.LVL224:
 2485              		.thumb
 2486              		.syntax unified
 2487              	.LBE422:
 2488              	.LBE421:
 2489              	.LBE420:
 2490              	.LBE419:
 2491              	.LBE418:
 2492              	.LBE417:
 2493              	.LBE416:
 2494              		.loc 1 757 0
 2495 010c 0223     		movs	r3, #2
 2496 010e 84F83430 		strb	r3, [r4, #52]
 2497              		.loc 1 758 0
 2498 0112 99E7     		b	.L259
 2499              	.L280:
 2500              		.loc 1 798 0
 2501 0114 FFF7FEFF 		bl	__stack_chk_fail
 2502              	.LVL225:
 2503              	.L283:
 2504              		.align	2
 2505              	.L282:
 2506 0118 00000000 		.word	__stack_chk_guard
 2507 011c 00000000 		.word	.LANCHOR12
 2508              		.cfi_endproc
ARM GAS  C:\Users\Moi\AppData\Local\Temp\ccYptMCA.s 			page 45


 2509              	.LFE275:
 2510              		.size	_usb_ep0in, .-_usb_ep0in
 2511              		.section	.text._usb_ep0out,"ax",%progbits
 2512              		.align	1
 2513              		.p2align 4,,15
 2514              		.global	_usb_ep0out
 2515              		.syntax unified
 2516              		.thumb
 2517              		.thumb_func
 2518              		.fpu fpv4-sp-d16
 2519              		.type	_usb_ep0out, %function
 2520              	_usb_ep0out:
 2521              	.LFB276:
 2522              		.loc 1 810 0
 2523              		.cfi_startproc
 2524              		@ args = 0, pretend = 0, frame = 8
 2525              		@ frame_needed = 0, uses_anonymous_args = 0
 2526              	.LVL226:
 2527 0000 70B5     		push	{r4, r5, r6, lr}
 2528              		.cfi_def_cfa_offset 16
 2529              		.cfi_offset 4, -16
 2530              		.cfi_offset 5, -12
 2531              		.cfi_offset 6, -8
 2532              		.cfi_offset 14, -4
 2533 0002 304D     		ldr	r5, .L304
 2534              		.loc 1 813 0
 2535 0004 90F83430 		ldrb	r3, [r0, #52]	@ zero_extendqisi2
 2536              		.loc 1 810 0
 2537 0008 2A68     		ldr	r2, [r5]
 2538 000a 82B0     		sub	sp, sp, #8
 2539              		.cfi_def_cfa_offset 24
 2540              		.loc 1 810 0
 2541 000c 0446     		mov	r4, r0
 2542 000e 0192     		str	r2, [sp, #4]
 2543              		.loc 1 813 0
 2544 0010 062B     		cmp	r3, #6
 2545 0012 4AD8     		bhi	.L285
 2546 0014 DFE803F0 		tbb	[pc, r3]
 2547              	.L287:
 2548 0018 04       		.byte	(.L286-.L287)/2
 2549 0019 04       		.byte	(.L286-.L287)/2
 2550 001a 04       		.byte	(.L286-.L287)/2
 2551 001b 3D       		.byte	(.L288-.L287)/2
 2552 001c 1E       		.byte	(.L289-.L287)/2
 2553 001d 04       		.byte	(.L286-.L287)/2
 2554 001e 07       		.byte	(.L290-.L287)/2
 2555 001f 00       		.p2align 1
 2556              	.L286:
 2557              		.loc 1 844 0 discriminator 2
 2558 0020 2948     		ldr	r0, .L304+4
 2559              	.LVL227:
 2560 0022 FFF7FEFF 		bl	chSysHalt
 2561              	.LVL228:
 2562              	.L290:
 2563              		.loc 1 850 0
 2564 0026 0021     		movs	r1, #0
 2565 0028 2046     		mov	r0, r4
ARM GAS  C:\Users\Moi\AppData\Local\Temp\ccYptMCA.s 			page 46


 2566 002a FFF7FEFF 		bl	usb_lld_stall_in
 2567              	.LVL229:
 2568              		.loc 1 851 0
 2569 002e 0021     		movs	r1, #0
 2570 0030 2046     		mov	r0, r4
 2571 0032 FFF7FEFF 		bl	usb_lld_stall_out
 2572              	.LVL230:
 2573              		.loc 1 852 0
 2574 0036 6368     		ldr	r3, [r4, #4]
 2575 0038 1B68     		ldr	r3, [r3]
 2576 003a 13B1     		cbz	r3, .L293
 2577              		.loc 1 852 0 is_stmt 0 discriminator 1
 2578 003c 0521     		movs	r1, #5
 2579 003e 2046     		mov	r0, r4
 2580 0040 9847     		blx	r3
 2581              	.LVL231:
 2582              	.L293:
 2583              		.loc 1 853 0 is_stmt 1
 2584 0042 0623     		movs	r3, #6
 2585 0044 84F83430 		strb	r3, [r4, #52]
 2586              	.L284:
 2587              		.loc 1 858 0
 2588 0048 019A     		ldr	r2, [sp, #4]
 2589 004a 2B68     		ldr	r3, [r5]
 2590 004c 9A42     		cmp	r2, r3
 2591 004e 36D1     		bne	.L303
 2592 0050 02B0     		add	sp, sp, #8
 2593              		.cfi_remember_state
 2594              		.cfi_def_cfa_offset 16
 2595              		@ sp needed
 2596 0052 70BD     		pop	{r4, r5, r6, pc}
 2597              	.LVL232:
 2598              	.L289:
 2599              		.cfi_restore_state
 2600              	.LBB423:
 2601              	.LBB424:
 2602              		.loc 1 427 0
 2603 0054 C368     		ldr	r3, [r0, #12]
 2604 0056 5B69     		ldr	r3, [r3, #20]
 2605              		.loc 1 429 0
 2606 0058 0026     		movs	r6, #0
 2607              	.LBE424:
 2608              	.LBE423:
 2609              		.loc 1 816 0
 2610 005a 0522     		movs	r2, #5
 2611 005c 80F83420 		strb	r2, [r0, #52]
 2612              	.LVL233:
 2613              	.LBB426:
 2614              	.LBB425:
 2615              		.loc 1 434 0
 2616 0060 3146     		mov	r1, r6
 2617              	.LVL234:
 2618              		.loc 1 429 0
 2619 0062 1E70     		strb	r6, [r3]
 2620              		.loc 1 430 0
 2621 0064 DE60     		str	r6, [r3, #12]
 2622              		.loc 1 432 0
ARM GAS  C:\Users\Moi\AppData\Local\Temp\ccYptMCA.s 			page 47


 2623 0066 C3E90166 		strd	r6, r6, [r3, #4]
 2624              		.loc 1 434 0
 2625 006a FFF7FEFF 		bl	usb_lld_prepare_transmit
 2626              	.LVL235:
 2627              	.LBE425:
 2628              	.LBE426:
 2629              	.LBB427:
 2630              	.LBB428:
 2631              	.LBB429:
 2632              	.LBB430:
 2633              	.LBB431:
 2634              	.LBB432:
 2635              	.LBB433:
 2636              		.loc 2 546 0
 2637 006e 2023     		movs	r3, #32
 2638              		.syntax unified
 2639              	@ 546 "..//ChibiOS//os/ext/CMSIS/include/core_cmFunc.h" 1
 2640 0070 83F31188 		MSR basepri, r3
 2641              	@ 0 "" 2
 2642              	.LVL236:
 2643              		.thumb
 2644              		.syntax unified
 2645              	.LBE433:
 2646              	.LBE432:
 2647              	.LBE431:
 2648              	.LBE430:
 2649              		.loc 3 389 0
 2650 0074 FFF7FEFF 		bl	_stats_start_measure_crit_isr
 2651              	.LVL237:
 2652              		.loc 3 390 0
 2653 0078 FFF7FEFF 		bl	_dbg_check_lock_from_isr
 2654              	.LVL238:
 2655              	.LBE429:
 2656              	.LBE428:
 2657              	.LBE427:
 2658              		.loc 1 820 0
 2659 007c 3146     		mov	r1, r6
 2660 007e 2046     		mov	r0, r4
 2661 0080 FFF7FEFF 		bl	usbStartTransmitI
 2662              	.LVL239:
 2663              	.LBB434:
 2664              	.LBB435:
 2665              	.LBB436:
 2666              		.loc 3 408 0
 2667 0084 FFF7FEFF 		bl	_dbg_check_unlock_from_isr
 2668              	.LVL240:
 2669              		.loc 3 409 0
 2670 0088 FFF7FEFF 		bl	_stats_stop_measure_crit_isr
 2671              	.LVL241:
 2672              	.LBB437:
 2673              	.LBB438:
 2674              	.LBB439:
 2675              	.LBB440:
 2676              		.loc 2 546 0
 2677              		.syntax unified
 2678              	@ 546 "..//ChibiOS//os/ext/CMSIS/include/core_cmFunc.h" 1
 2679 008c 86F31188 		MSR basepri, r6
ARM GAS  C:\Users\Moi\AppData\Local\Temp\ccYptMCA.s 			page 48


 2680              	@ 0 "" 2
 2681              	.LVL242:
 2682              		.thumb
 2683              		.syntax unified
 2684 0090 DAE7     		b	.L284
 2685              	.LVL243:
 2686              	.L288:
 2687              	.LBE440:
 2688              	.LBE439:
 2689              	.LBE438:
 2690              	.LBE437:
 2691              	.LBE436:
 2692              	.LBE435:
 2693              	.LBE434:
 2694              		.loc 1 830 0
 2695 0092 C368     		ldr	r3, [r0, #12]
 2696 0094 9B69     		ldr	r3, [r3, #24]
 2697 0096 9B68     		ldr	r3, [r3, #8]
 2698 0098 002B     		cmp	r3, #0
 2699 009a D5D1     		bne	.L284
 2700              		.loc 1 834 0
 2701 009c 036C     		ldr	r3, [r0, #64]
 2702 009e 03B1     		cbz	r3, .L292
 2703              		.loc 1 835 0
 2704 00a0 9847     		blx	r3
 2705              	.LVL244:
 2706              	.L292:
 2707              		.loc 1 837 0
 2708 00a2 0023     		movs	r3, #0
 2709 00a4 84F83430 		strb	r3, [r4, #52]
 2710              		.loc 1 838 0
 2711 00a8 CEE7     		b	.L284
 2712              	.LVL245:
 2713              	.L285:
 2714              		.loc 1 856 0 discriminator 2
 2715 00aa 019A     		ldr	r2, [sp, #4]
 2716 00ac 2B68     		ldr	r3, [r5]
 2717 00ae 9A42     		cmp	r2, r3
 2718 00b0 05D1     		bne	.L303
 2719 00b2 0548     		ldr	r0, .L304+4
 2720              	.LVL246:
 2721              		.loc 1 858 0 discriminator 2
 2722 00b4 02B0     		add	sp, sp, #8
 2723              		@ sp needed
 2724 00b6 BDE87040 		pop	{r4, r5, r6, lr}
 2725              	.LVL247:
 2726              		.loc 1 856 0 discriminator 2
 2727 00ba FFF7FEBF 		b	chSysHalt
 2728              	.LVL248:
 2729              	.L303:
 2730              		.loc 1 858 0
 2731 00be FFF7FEFF 		bl	__stack_chk_fail
 2732              	.LVL249:
 2733              	.L305:
 2734 00c2 00BF     		.align	2
 2735              	.L304:
 2736 00c4 00000000 		.word	__stack_chk_guard
ARM GAS  C:\Users\Moi\AppData\Local\Temp\ccYptMCA.s 			page 49


 2737 00c8 00000000 		.word	.LANCHOR13
 2738              		.cfi_endproc
 2739              	.LFE276:
 2740              		.size	_usb_ep0out, .-_usb_ep0out
 2741              		.section	.rodata.__func__.10294,"a",%progbits
 2742              		.align	2
 2743              		.set	.LANCHOR0,. + 0
 2744              		.type	__func__.10294, %object
 2745              		.size	__func__.10294, 9
 2746              	__func__.10294:
 2747 0000 75736253 		.ascii	"usbStart\000"
 2747      74617274 
 2747      00
 2748              		.section	.rodata.__func__.10301,"a",%progbits
 2749              		.align	2
 2750              		.set	.LANCHOR2,. + 0
 2751              		.type	__func__.10301, %object
 2752              		.size	__func__.10301, 8
 2753              	__func__.10301:
 2754 0000 75736253 		.ascii	"usbStop\000"
 2754      746F7000 
 2755              		.section	.rodata.__func__.10307,"a",%progbits
 2756              		.align	2
 2757              		.set	.LANCHOR3,. + 0
 2758              		.type	__func__.10307, %object
 2759              		.size	__func__.10307, 17
 2760              	__func__.10307:
 2761 0000 75736249 		.ascii	"usbInitEndpointI\000"
 2761      6E697445 
 2761      6E64706F 
 2761      696E7449 
 2761      00
 2762              		.section	.rodata.__func__.10312,"a",%progbits
 2763              		.align	2
 2764              		.set	.LANCHOR4,. + 0
 2765              		.type	__func__.10312, %object
 2766              		.size	__func__.10312, 21
 2767              	__func__.10312:
 2768 0000 75736244 		.ascii	"usbDisableEndpointsI\000"
 2768      69736162 
 2768      6C65456E 
 2768      64706F69 
 2768      6E747349 
 2769              		.section	.rodata.__func__.10348,"a",%progbits
 2770              		.align	2
 2771              		.set	.LANCHOR5,. + 0
 2772              		.type	__func__.10348, %object
 2773              		.size	__func__.10348, 17
 2774              	__func__.10348:
 2775 0000 75736253 		.ascii	"usbStartReceiveI\000"
 2775      74617274 
 2775      52656365 
 2775      69766549 
 2775      00
 2776              		.section	.rodata.__func__.10353,"a",%progbits
 2777              		.align	2
 2778              		.set	.LANCHOR6,. + 0
ARM GAS  C:\Users\Moi\AppData\Local\Temp\ccYptMCA.s 			page 50


 2779              		.type	__func__.10353, %object
 2780              		.size	__func__.10353, 18
 2781              	__func__.10353:
 2782 0000 75736253 		.ascii	"usbStartTransmitI\000"
 2782      74617274 
 2782      5472616E 
 2782      736D6974 
 2782      4900
 2783              		.section	.rodata.__func__.10358,"a",%progbits
 2784              		.align	2
 2785              		.set	.LANCHOR7,. + 0
 2786              		.type	__func__.10358, %object
 2787              		.size	__func__.10358, 17
 2788              	__func__.10358:
 2789 0000 75736253 		.ascii	"usbStallReceiveI\000"
 2789      74616C6C 
 2789      52656365 
 2789      69766549 
 2789      00
 2790              		.section	.rodata.__func__.10363,"a",%progbits
 2791              		.align	2
 2792              		.set	.LANCHOR8,. + 0
 2793              		.type	__func__.10363, %object
 2794              		.size	__func__.10363, 18
 2795              	__func__.10363:
 2796 0000 75736253 		.ascii	"usbStallTransmitI\000"
 2796      74616C6C 
 2796      5472616E 
 2796      736D6974 
 2796      4900
 2797              		.section	.rodata.__func__.10387,"a",%progbits
 2798              		.align	2
 2799              		.set	.LANCHOR12,. + 0
 2800              		.type	__func__.10387, %object
 2801              		.size	__func__.10387, 11
 2802              	__func__.10387:
 2803 0000 5F757362 		.ascii	"_usb_ep0in\000"
 2803      5F657030 
 2803      696E00
 2804              		.section	.rodata.__func__.10401,"a",%progbits
 2805              		.align	2
 2806              		.set	.LANCHOR13,. + 0
 2807              		.type	__func__.10401, %object
 2808              		.size	__func__.10401, 12
 2809              	__func__.10401:
 2810 0000 5F757362 		.ascii	"_usb_ep0out\000"
 2810      5F657030 
 2810      6F757400 
 2811              		.section	.rodata.__func__.7554,"a",%progbits
 2812              		.align	2
 2813              		.set	.LANCHOR1,. + 0
 2814              		.type	__func__.7554, %object
 2815              		.size	__func__.7554, 12
 2816              	__func__.7554:
 2817 0000 63685379 		.ascii	"chSysUnlock\000"
 2817      73556E6C 
 2817      6F636B00 
ARM GAS  C:\Users\Moi\AppData\Local\Temp\ccYptMCA.s 			page 51


 2818              		.section	.rodata.active_status,"a",%progbits
 2819              		.align	2
 2820              		.set	.LANCHOR11,. + 0
 2821              		.type	active_status, %object
 2822              		.size	active_status, 2
 2823              	active_status:
 2824 0000 0000     		.space	2
 2825              		.section	.rodata.halted_status,"a",%progbits
 2826              		.align	2
 2827              		.set	.LANCHOR10,. + 0
 2828              		.type	halted_status, %object
 2829              		.size	halted_status, 2
 2830              	halted_status:
 2831 0000 01       		.byte	1
 2832 0001 00       		.byte	0
 2833              		.section	.rodata.zero_status,"a",%progbits
 2834              		.align	2
 2835              		.set	.LANCHOR9,. + 0
 2836              		.type	zero_status, %object
 2837              		.size	zero_status, 2
 2838              	zero_status:
 2839 0000 0000     		.space	2
 2840              		.text
 2841              	.Letext0:
 2842              		.file 4 "c:\\users\\moi\\documents\\_microinfo\\epuck-eclipse\\tools\\gcc-arm-none-eabi-7-2017-q4-
 2843              		.file 5 "c:\\users\\moi\\documents\\_microinfo\\epuck-eclipse\\tools\\gcc-arm-none-eabi-7-2017-q4-
 2844              		.file 6 "c:\\users\\moi\\documents\\_microinfo\\epuck-eclipse\\tools\\gcc-arm-none-eabi-7-2017-q4-
 2845              		.file 7 "c:\\users\\moi\\documents\\_microinfo\\epuck-eclipse\\tools\\gcc-arm-none-eabi-7-2017-q4-
 2846              		.file 8 "c:\\users\\moi\\documents\\_microinfo\\epuck-eclipse\\tools\\gcc-arm-none-eabi-7-2017-q4-
 2847              		.file 9 "c:\\users\\moi\\documents\\_microinfo\\epuck-eclipse\\tools\\gcc-arm-none-eabi-7-2017-q4-
 2848              		.file 10 "..//ChibiOS//os/rt/ports/ARMCMx/compilers/GCC/chtypes.h"
 2849              		.file 11 "..//ChibiOS//os/rt/include/chsystypes.h"
 2850              		.file 12 "..//ChibiOS//os/rt/include/chschd.h"
 2851              		.file 13 "..//ChibiOS//os/ext/CMSIS/include/core_cm4.h"
 2852              		.file 14 "..//ChibiOS//os/ext/CMSIS/ST/system_stm32f4xx.h"
 2853              		.file 15 "..//ChibiOS//os/ext/CMSIS/ST/stm32f407xx.h"
 2854              		.file 16 "..//ChibiOS//os/rt/ports/ARMCMx/chcore.h"
 2855              		.file 17 "..//ChibiOS//os/rt/ports/ARMCMx/chcore_v7m.h"
 2856              		.file 18 "..//ChibiOS//os/rt/include/chdebug.h"
 2857              		.file 19 "..//ChibiOS//os/rt/include/chtm.h"
 2858              		.file 20 "..//ChibiOS//os/rt/include/chstats.h"
 2859              		.file 21 "..//ChibiOS//os/rt/include/chsem.h"
 2860              		.file 22 "..//ChibiOS//os/rt/include/chmtx.h"
 2861              		.file 23 "..//ChibiOS//os/rt/include/chregistry.h"
 2862              		.file 24 "..//ChibiOS//os/rt/include/chevents.h"
 2863              		.file 25 "..//ChibiOS//os/rt/include/chqueues.h"
 2864              		.file 26 "..//ChibiOS//os/hal/ports/STM32/STM32F4xx/stm32_dma.h"
 2865              		.file 27 "..//ChibiOS//os/hal/include/hal_ioblock.h"
 2866              		.file 28 "..//ChibiOS//os/hal/ports/STM32/LLD/GPIOv2/pal_lld.h"
 2867              		.file 29 "..//ChibiOS//os/hal/include/adc.h"
 2868              		.file 30 "..//ChibiOS//os/hal/ports/STM32/STM32F4xx/adc_lld.h"
 2869              		.file 31 "..//ChibiOS//os/hal/include/can.h"
 2870              		.file 32 "..//ChibiOS//os/hal/ports/STM32/LLD/can_lld.h"
 2871              		.file 33 "..//ChibiOS//os/hal/include/dac.h"
 2872              		.file 34 "..//ChibiOS//os/hal/ports/STM32/LLD/DACv1/dac_lld.h"
 2873              		.file 35 "..//ChibiOS//os/hal/include/ext.h"
 2874              		.file 36 "..//ChibiOS//os/hal/ports/STM32/LLD/ext_lld.h"
ARM GAS  C:\Users\Moi\AppData\Local\Temp\ccYptMCA.s 			page 52


 2875              		.file 37 "..//ChibiOS//os/hal/include/gpt.h"
 2876              		.file 38 "..//ChibiOS//os/hal/ports/STM32/LLD/TIMv1/gpt_lld.h"
 2877              		.file 39 "..//ChibiOS//os/hal/ports/STM32/LLD/TIMv1/stm32_tim.h"
 2878              		.file 40 "..//ChibiOS//os/hal/include/i2c.h"
 2879              		.file 41 "..//ChibiOS//os/hal/ports/STM32/LLD/I2Cv1/i2c_lld.h"
 2880              		.file 42 "..//ChibiOS//os/hal/include/i2s.h"
 2881              		.file 43 "..//ChibiOS//os/hal/ports/STM32/LLD/SPIv1/i2s_lld.h"
 2882              		.file 44 "..//ChibiOS//os/hal/include/pwm.h"
 2883              		.file 45 "..//ChibiOS//os/hal/ports/STM32/LLD/TIMv1/pwm_lld.h"
 2884              		.file 46 "..//ChibiOS//os/hal/include/serial.h"
 2885              		.file 47 "..//ChibiOS//os/hal/ports/STM32/LLD/USARTv1/serial_lld.h"
 2886              		.file 48 "..//ChibiOS//os/hal/include/sdc.h"
 2887              		.file 49 "..//ChibiOS//os/hal/ports/STM32/LLD/sdc_lld.h"
 2888              		.file 50 "..//ChibiOS//os/hal/include/spi.h"
 2889              		.file 51 "..//ChibiOS//os/hal/ports/STM32/LLD/SPIv1/spi_lld.h"
 2890              		.file 52 "..//ChibiOS//os/hal/include/usb.h"
 2891              		.file 53 "..//ChibiOS//os/hal/ports/STM32/LLD/OTGv1/usb_lld.h"
 2892              		.file 54 "..//ChibiOS//os/hal/ports/STM32/LLD/OTGv1/stm32_otg.h"
 2893              		.file 55 "..//ChibiOS//os/hal/osal/rt/osal.h"