ARM GAS  C:\Users\Moi\AppData\Local\Temp\ccOzHcBd.s 			page 1


   1              		.cpu cortex-m4
   2              		.eabi_attribute 27, 1
   3              		.eabi_attribute 28, 1
   4              		.eabi_attribute 20, 1
   5              		.eabi_attribute 21, 1
   6              		.eabi_attribute 23, 3
   7              		.eabi_attribute 24, 1
   8              		.eabi_attribute 25, 1
   9              		.eabi_attribute 26, 1
  10              		.eabi_attribute 30, 2
  11              		.eabi_attribute 34, 1
  12              		.eabi_attribute 18, 4
  13              		.file	"usb_lld.c"
  14              		.text
  15              	.Ltext0:
  16              		.cfi_sections	.debug_frame
  17              		.section	.text.otg_disable_ep.isra.0,"ax",%progbits
  18              		.align	1
  19              		.p2align 4,,15
  20              		.syntax unified
  21              		.thumb
  22              		.thumb_func
  23              		.fpu fpv4-sp-d16
  24              		.type	otg_disable_ep.isra.0, %function
  25              	otg_disable_ep.isra.0:
  26              	.LFB293:
  27              		.file 1 "..//ChibiOS//os/hal/ports/STM32/LLD/OTGv1/usb_lld.c"
  28              		.loc 1 132 0
  29              		.cfi_startproc
  30              		@ args = 0, pretend = 0, frame = 8
  31              		@ frame_needed = 0, uses_anonymous_args = 0
  32 0000 2DE9F041 		push	{r4, r5, r6, r7, r8, lr}
  33              		.cfi_def_cfa_offset 24
  34              		.cfi_offset 4, -24
  35              		.cfi_offset 5, -20
  36              		.cfi_offset 6, -16
  37              		.cfi_offset 7, -12
  38              		.cfi_offset 8, -8
  39              		.cfi_offset 14, -4
  40 0004 224F     		ldr	r7, .L20
  41 0006 8B68     		ldr	r3, [r1, #8]
  42 0008 3A68     		ldr	r2, [r7]
  43 000a 82B0     		sub	sp, sp, #8
  44              		.cfi_def_cfa_offset 32
  45              		.loc 1 136 0
  46 000c 0024     		movs	r4, #0
  47              		.loc 1 132 0
  48 000e 0192     		str	r2, [sp, #4]
  49              	.LVL0:
  50 0010 03F1010C 		add	ip, r3, #1
  51              		.loc 1 147 0
  52 0014 2546     		mov	r5, r4
  53              		.loc 1 141 0
  54 0016 4FF0804E 		mov	lr, #1073741824
  55              		.loc 1 149 0
  56 001a 4FF0FF36 		mov	r6, #-1
  57 001e 15E0     		b	.L8
ARM GAS  C:\Users\Moi\AppData\Local\Temp\ccOzHcBd.s 			page 2


  58              	.LVL1:
  59              	.L2:
  60              		.loc 1 147 0
  61 0020 C2F80059 		str	r5, [r2, #2304]
  62              	.L4:
  63              		.loc 1 148 0
  64 0024 C118     		adds	r1, r0, r3
  65 0026 C1F81059 		str	r5, [r1, #2320]
  66              		.loc 1 149 0
  67 002a C1F80869 		str	r6, [r1, #2312]
  68              		.loc 1 155 0
  69 002e D2F8008B 		ldr	r8, [r2, #2816]
  70 0032 B8F1000F 		cmp	r8, #0
  71 0036 17DB     		blt	.L17
  72              		.loc 1 162 0
  73 0038 C2F8005B 		str	r5, [r2, #2816]
  74              	.L7:
  75              		.loc 1 163 0
  76 003c 0344     		add	r3, r3, r0
  77              		.loc 1 136 0
  78 003e 0134     		adds	r4, r4, #1
  79              	.LVL2:
  80 0040 6445     		cmp	r4, ip
  81              		.loc 1 163 0
  82 0042 C3F8105B 		str	r5, [r3, #2832]
  83              		.loc 1 164 0
  84 0046 C3F8086B 		str	r6, [r3, #2824]
  85              		.loc 1 136 0
  86 004a 14D0     		beq	.L18
  87              	.LVL3:
  88              	.L8:
  89 004c 6301     		lsls	r3, r4, #5
  90 004e C218     		adds	r2, r0, r3
  91              		.loc 1 140 0
  92 0050 D2F80019 		ldr	r1, [r2, #2304]
  93 0054 0029     		cmp	r1, #0
  94 0056 E3DA     		bge	.L2
  95              		.loc 1 141 0
  96 0058 C2F800E9 		str	lr, [r2, #2304]
  97              		.loc 1 143 0
  98 005c 9046     		mov	r8, r2
  99              	.L3:
 100 005e D8F80819 		ldr	r1, [r8, #2312]
 101 0062 8907     		lsls	r1, r1, #30
 102 0064 FBD5     		bpl	.L3
 103 0066 DDE7     		b	.L4
 104              	.L17:
 105              		.loc 1 156 0
 106 0068 C2F800EB 		str	lr, [r2, #2816]
 107              	.L6:
 108              		.loc 1 158 0
 109 006c D1F8082B 		ldr	r2, [r1, #2824]
 110 0070 D206     		lsls	r2, r2, #27
 111 0072 FBD5     		bpl	.L6
 112 0074 E2E7     		b	.L7
 113              	.L18:
 114              		.loc 1 166 0
ARM GAS  C:\Users\Moi\AppData\Local\Temp\ccOzHcBd.s 			page 3


 115 0076 4FF00113 		mov	r3, #65537
 116 007a C0F81C38 		str	r3, [r0, #2076]
 117              		.loc 1 167 0
 118 007e 019A     		ldr	r2, [sp, #4]
 119 0080 3B68     		ldr	r3, [r7]
 120 0082 9A42     		cmp	r2, r3
 121 0084 02D1     		bne	.L19
 122 0086 02B0     		add	sp, sp, #8
 123              		.cfi_remember_state
 124              		.cfi_def_cfa_offset 24
 125              		@ sp needed
 126 0088 BDE8F081 		pop	{r4, r5, r6, r7, r8, pc}
 127              	.LVL4:
 128              	.L19:
 129              		.cfi_restore_state
 130 008c FFF7FEFF 		bl	__stack_chk_fail
 131              	.LVL5:
 132              	.L21:
 133              		.align	2
 134              	.L20:
 135 0090 00000000 		.word	__stack_chk_guard
 136              		.cfi_endproc
 137              	.LFE293:
 138              		.size	otg_disable_ep.isra.0, .-otg_disable_ep.isra.0
 139              		.section	.text.usb_lld_pump,"ax",%progbits
 140              		.align	1
 141              		.p2align 4,,15
 142              		.global	usb_lld_pump
 143              		.syntax unified
 144              		.thumb
 145              		.thumb_func
 146              		.fpu fpv4-sp-d16
 147              		.type	usb_lld_pump, %function
 148              	usb_lld_pump:
 149              	.LFB292:
 150              		.loc 1 1294 0
 151              		.cfi_startproc
 152              		@ args = 0, pretend = 0, frame = 32
 153              		@ frame_needed = 0, uses_anonymous_args = 0
 154              	.LVL6:
 155 0000 2DE9F04F 		push	{r4, r5, r6, r7, r8, r9, r10, fp, lr}
 156              		.cfi_def_cfa_offset 36
 157              		.cfi_offset 4, -36
 158              		.cfi_offset 5, -32
 159              		.cfi_offset 6, -28
 160              		.cfi_offset 7, -24
 161              		.cfi_offset 8, -20
 162              		.cfi_offset 9, -16
 163              		.cfi_offset 10, -12
 164              		.cfi_offset 11, -8
 165              		.cfi_offset 14, -4
 166              	.LBB421:
 167              	.LBB422:
 168              		.file 2 "..//ChibiOS//os/rt/include/chregistry.h"
 169              		.loc 2 135 0
 170 0004 864E     		ldr	r6, .L141
 171              	.LBE422:
ARM GAS  C:\Users\Moi\AppData\Local\Temp\ccOzHcBd.s 			page 4


 172              	.LBE421:
 173              		.loc 1 1294 0
 174 0006 874B     		ldr	r3, .L141+4
 175              	.LBB426:
 176              	.LBB423:
 177              		.loc 2 135 0
 178 0008 B269     		ldr	r2, [r6, #24]
 179              	.LBE423:
 180              	.LBE426:
 181              		.loc 1 1294 0
 182 000a 1B68     		ldr	r3, [r3]
 183              	.LBB427:
 184              	.LBB424:
 185              		.loc 2 135 0
 186 000c 8649     		ldr	r1, .L141+8
 187              	.LBE424:
 188              	.LBE427:
 189              		.loc 1 1296 0
 190 000e D0F85080 		ldr	r8, [r0, #80]
 191              	.LBB428:
 192              	.LBB425:
 193              		.loc 2 135 0
 194 0012 9161     		str	r1, [r2, #24]
 195              	.LBE425:
 196              	.LBE428:
 197              		.loc 1 1294 0
 198 0014 89B0     		sub	sp, sp, #36
 199              		.cfi_def_cfa_offset 72
 200              		.loc 1 1294 0
 201 0016 8246     		mov	r10, r0
 202              	.LVL7:
 203 0018 0793     		str	r3, [sp, #28]
 204              	.LBB429:
 205              	.LBB430:
 206              	.LBB431:
 207              	.LBB432:
 208              	.LBB433:
 209              	.LBB434:
 210              		.file 3 "..//ChibiOS//os/ext/CMSIS/include/core_cmFunc.h"
 211              		.loc 3 546 0
 212 001a 2023     		movs	r3, #32
 213              		.syntax unified
 214              	@ 546 "..//ChibiOS//os/ext/CMSIS/include/core_cmFunc.h" 1
 215 001c 83F31188 		MSR basepri, r3
 216              	@ 0 "" 2
 217              	.LVL8:
 218              		.thumb
 219              		.syntax unified
 220              	.LBE434:
 221              	.LBE433:
 222              	.LBE432:
 223              		.file 4 "..//ChibiOS//os/rt/include/chsys.h"
 224              		.loc 4 349 0
 225 0020 FFF7FEFF 		bl	_stats_start_measure_crit_thd
 226              	.LVL9:
 227              		.loc 4 350 0
 228 0024 FFF7FEFF 		bl	_dbg_check_lock
ARM GAS  C:\Users\Moi\AppData\Local\Temp\ccOzHcBd.s 			page 5


 229              	.LVL10:
 230 0028 0AF16003 		add	r3, r10, #96
 231              	.LBE431:
 232              	.LBE430:
 233              	.LBE429:
 234              	.LBB435:
 235              	.LBB436:
 236              	.LBB437:
 237              	.LBB438:
 238              	.LBB439:
 239              	.LBB440:
 240              	.LBB441:
 241              		.loc 3 546 0
 242 002c 5746     		mov	r7, r10
 243 002e 0593     		str	r3, [sp, #20]
 244 0030 C246     		mov	r10, r8
 245              	.LVL11:
 246              	.L77:
 247              	.LBE441:
 248              	.LBE440:
 249              	.LBE439:
 250              	.LBE438:
 251              	.LBE437:
 252              	.LBE436:
 253              		.loc 1 1307 0
 254 0032 3B78     		ldrb	r3, [r7]	@ zero_extendqisi2
 255 0034 012B     		cmp	r3, #1
 256 0036 05D0     		beq	.L23
 257              		.loc 1 1307 0 is_stmt 0 discriminator 1
 258 0038 FB6D     		ldr	r3, [r7, #92]
 259 003a 63B9     		cbnz	r3, .L24
 260              		.loc 1 1308 0 is_stmt 1
 261 003c DAF81430 		ldr	r3, [r10, #20]
 262 0040 DA06     		lsls	r2, r3, #27
 263 0042 08D4     		bmi	.L24
 264              	.L23:
 265              		.loc 1 1309 0
 266 0044 DAF81830 		ldr	r3, [r10, #24]
 267              	.LBB447:
 268              	.LBB448:
 269              		.file 5 "..//ChibiOS//os/hal/osal/rt/osal.h"
 270              		.loc 5 642 0
 271 0048 0598     		ldr	r0, [sp, #20]
 272              	.LBE448:
 273              	.LBE447:
 274              		.loc 1 1309 0
 275 004a 43F01003 		orr	r3, r3, #16
 276 004e CAF81830 		str	r3, [r10, #24]
 277              	.LBB450:
 278              	.LBB449:
 279              		.loc 5 642 0
 280 0052 FFF7FEFF 		bl	chThdSuspendS
 281              	.LVL12:
 282              	.L24:
 283              	.LBE449:
 284              	.LBE450:
 285              	.LBB451:
ARM GAS  C:\Users\Moi\AppData\Local\Temp\ccOzHcBd.s 			page 6


 286              	.LBB446:
 287              	.LBB445:
 288              		.loc 4 360 0
 289 0056 FFF7FEFF 		bl	_dbg_check_unlock
 290              	.LVL13:
 291              		.loc 4 361 0
 292 005a FFF7FEFF 		bl	_stats_stop_measure_crit_thd
 293              	.LVL14:
 294              		.loc 4 367 0
 295 005e 3368     		ldr	r3, [r6]
 296 0060 B342     		cmp	r3, r6
 297 0062 07D0     		beq	.L25
 298 0064 B269     		ldr	r2, [r6, #24]
 299 0066 9B68     		ldr	r3, [r3, #8]
 300 0068 9268     		ldr	r2, [r2, #8]
 301 006a 9A42     		cmp	r2, r3
 302 006c 02D2     		bcs	.L25
 303 006e 6F48     		ldr	r0, .L141+12
 304 0070 FFF7FEFF 		bl	chSysHalt
 305              	.LVL15:
 306              	.L25:
 307              	.LBB444:
 308              	.LBB443:
 309              	.LBB442:
 310              		.loc 3 546 0
 311 0074 0023     		movs	r3, #0
 312              		.syntax unified
 313              	@ 546 "..//ChibiOS//os/ext/CMSIS/include/core_cmFunc.h" 1
 314 0076 83F31188 		MSR basepri, r3
 315              	@ 0 "" 2
 316              	.LVL16:
 317              		.thumb
 318              		.syntax unified
 319              	.LBE442:
 320              	.LBE443:
 321              	.LBE444:
 322              	.LBE445:
 323              	.LBE446:
 324              	.LBE451:
 325              		.loc 1 1315 0
 326 007a 9B46     		mov	fp, r3
 327              	.LVL17:
 328              	.L27:
 329              		.loc 1 1318 0
 330 007c DAF81430 		ldr	r3, [r10, #20]
 331 0080 DB06     		lsls	r3, r3, #27
 332 0082 5AD5     		bpl	.L134
 333              	.L48:
 334              	.LVL18:
 335              	.LBB452:
 336              	.LBB453:
 337              		.loc 1 437 0
 338 0084 396D     		ldr	r1, [r7, #80]
 339 0086 0B6A     		ldr	r3, [r1, #32]
 340              	.LVL19:
 341              		.loc 1 438 0
 342 0088 03F4F012 		and	r2, r3, #1966080
ARM GAS  C:\Users\Moi\AppData\Local\Temp\ccOzHcBd.s 			page 7


 343 008c B2F5802F 		cmp	r2, #262144
 344 0090 24D0     		beq	.L28
 345 0092 B2F5402F 		cmp	r2, #786432
 346 0096 F1D1     		bne	.L27
 347              	.LVL20:
 348              		.loc 1 443 0
 349 0098 03F00F02 		and	r2, r3, #15
 350              	.LVL21:
 351              		.loc 1 444 0
 352 009c 07EB8202 		add	r2, r7, r2, lsl #2
 353              	.LVL22:
 354              		.loc 1 442 0
 355 00a0 C3F30A13 		ubfx	r3, r3, #4, #11
 356              	.LVL23:
 357              		.loc 1 444 0
 358 00a4 D268     		ldr	r2, [r2, #12]
 359              	.LBB454:
 360              	.LBB455:
 361              		.loc 1 356 0
 362 00a6 0333     		adds	r3, r3, #3
 363              		.loc 1 358 0
 364 00a8 9B08     		lsrs	r3, r3, #2
 365              	.LBE455:
 366              	.LBE454:
 367              		.loc 1 444 0
 368 00aa 146A     		ldr	r4, [r2, #32]
 369              	.LVL24:
 370              	.LBB460:
 371              	.LBB459:
 372              		.loc 1 358 0
 373 00ac E6D0     		beq	.L27
 374 00ae 01F58051 		add	r1, r1, #4096
 375              	.LVL25:
 376              		.loc 1 357 0
 377 00b2 0222     		movs	r2, #2
 378              	.LVL26:
 379              	.LBB456:
 380              		.loc 1 359 0
 381 00b4 0D68     		ldr	r5, [r1]
 382              	.LVL27:
 383 00b6 581E     		subs	r0, r3, #1
 384              		.loc 1 360 0
 385 00b8 4AB1     		cbz	r2, .L135
 386              	.L32:
 387              		.loc 1 365 0
 388 00ba 0346     		mov	r3, r0
 389              		.loc 1 363 0
 390 00bc 44F8045B 		str	r5, [r4], #4
 391              	.LVL28:
 392              		.loc 1 365 0
 393 00c0 013A     		subs	r2, r2, #1
 394              	.LVL29:
 395              	.LBE456:
 396              		.loc 1 358 0
 397 00c2 002B     		cmp	r3, #0
 398 00c4 DAD0     		beq	.L27
 399              	.LVL30:
ARM GAS  C:\Users\Moi\AppData\Local\Temp\ccOzHcBd.s 			page 8


 400              	.L133:
 401              	.LBB457:
 402              		.loc 1 359 0
 403 00c6 0D68     		ldr	r5, [r1]
 404              	.LVL31:
 405 00c8 581E     		subs	r0, r3, #1
 406              		.loc 1 360 0
 407 00ca 002A     		cmp	r2, #0
 408 00cc F5D1     		bne	.L32
 409              	.L135:
 410              	.LVL32:
 411              	.LBE457:
 412              		.loc 1 358 0
 413 00ce 0028     		cmp	r0, #0
 414 00d0 D4D0     		beq	.L27
 415 00d2 023B     		subs	r3, r3, #2
 416              	.LBB458:
 417              		.loc 1 359 0
 418 00d4 0868     		ldr	r0, [r1]
 419              	.LVL33:
 420              	.LBE458:
 421              		.loc 1 358 0
 422 00d6 002B     		cmp	r3, #0
 423 00d8 F5D1     		bne	.L133
 424 00da CFE7     		b	.L27
 425              	.LVL34:
 426              	.L28:
 427              	.LBE459:
 428              	.LBE460:
 429              		.loc 1 449 0
 430 00dc 03F00F08 		and	r8, r3, #15
 431 00e0 07EB8808 		add	r8, r7, r8, lsl #2
 432              		.loc 1 448 0
 433 00e4 C3F30A14 		ubfx	r4, r3, #4, #11
 434              	.LVL35:
 435              		.loc 1 450 0
 436 00e8 D8F80C30 		ldr	r3, [r8, #12]
 437              	.LVL36:
 438 00ec 9B69     		ldr	r3, [r3, #24]
 439 00ee 1A78     		ldrb	r2, [r3]	@ zero_extendqisi2
 440 00f0 DD68     		ldr	r5, [r3, #12]
 441 00f2 002A     		cmp	r2, #0
 442 00f4 42D1     		bne	.L136
 443              		.loc 1 461 0
 444 00f6 D3E9012C 		ldrd	r2, ip, [r3, #4]
 445              	.LVL37:
 446              	.LBB461:
 447              	.LBB462:
 448              		.loc 1 357 0
 449 00fa D01C     		adds	r0, r2, #3
 450              		.loc 1 356 0
 451 00fc E21C     		adds	r2, r4, #3
 452              	.LVL38:
 453              		.loc 1 357 0
 454 00fe A0EB0C00 		sub	r0, r0, ip
 455              		.loc 1 358 0
 456 0102 9208     		lsrs	r2, r2, #2
ARM GAS  C:\Users\Moi\AppData\Local\Temp\ccOzHcBd.s 			page 9


 457              		.loc 1 357 0
 458 0104 4FEA9000 		lsr	r0, r0, #2
 459              	.LVL39:
 460              		.loc 1 358 0
 461 0108 0FD0     		beq	.L44
 462 010a 01F58051 		add	r1, r1, #4096
 463              	.LVL40:
 464 010e A846     		mov	r8, r5
 465 0110 9946     		mov	r9, r3
 466 0112 8E46     		mov	lr, r1
 467              	.LVL41:
 468              	.L47:
 469              	.LBB463:
 470              		.loc 1 359 0
 471 0114 DEF80030 		ldr	r3, [lr]
 472              	.LVL42:
 473 0118 511E     		subs	r1, r2, #1
 474              		.loc 1 360 0
 475 011a 38B3     		cbz	r0, .L137
 476              		.loc 1 365 0
 477 011c 0A46     		mov	r2, r1
 478              	.LVL43:
 479              		.loc 1 363 0
 480 011e 48F8043B 		str	r3, [r8], #4
 481              	.LVL44:
 482              		.loc 1 365 0
 483 0122 0138     		subs	r0, r0, #1
 484              	.LVL45:
 485              	.LBE463:
 486              		.loc 1 358 0
 487 0124 002A     		cmp	r2, #0
 488 0126 F5D1     		bne	.L47
 489              	.LVL46:
 490              	.L130:
 491 0128 4B46     		mov	r3, r9
 492              	.LVL47:
 493              	.L44:
 494              	.LBE462:
 495              	.LBE461:
 496              		.loc 1 462 0
 497 012a 2544     		add	r5, r5, r4
 498 012c DD60     		str	r5, [r3, #12]
 499              	.L43:
 500              		.loc 1 464 0
 501 012e 6444     		add	r4, r4, ip
 502              	.LVL48:
 503 0130 9C60     		str	r4, [r3, #8]
 504              	.LBE453:
 505              	.LBE452:
 506              		.loc 1 1318 0
 507 0132 DAF81430 		ldr	r3, [r10, #20]
 508 0136 DB06     		lsls	r3, r3, #27
 509 0138 A4D4     		bmi	.L48
 510              	.LVL49:
 511              	.L134:
 512              		.loc 1 1322 0
 513 013a 4FF00108 		mov	r8, #1
ARM GAS  C:\Users\Moi\AppData\Local\Temp\ccOzHcBd.s 			page 10


 514              		.loc 1 1323 0
 515 013e FB6D     		ldr	r3, [r7, #92]
 516              		.loc 1 1322 0
 517 0140 08FA0BF8 		lsl	r8, r8, fp
 518              	.LVL50:
 519              		.loc 1 1323 0
 520 0144 18EA030F 		tst	r8, r3
 521 0148 72D1     		bne	.L127
 522 014a 0BF10103 		add	r3, fp, #1
 523 014e 0193     		str	r3, [sp, #4]
 524              	.LVL51:
 525              	.L49:
 526              		.loc 1 1315 0 discriminator 2
 527 0150 7B6D     		ldr	r3, [r7, #84]
 528 0152 9DF804B0 		ldrb	fp, [sp, #4]	@ zero_extendqisi2
 529              	.LVL52:
 530 0156 9B68     		ldr	r3, [r3, #8]
 531 0158 9B45     		cmp	fp, r3
 532 015a 8FD9     		bls	.L27
 533              	.LVL53:
 534              	.LBB488:
 535              	.LBB489:
 536              	.LBB490:
 537              	.LBB491:
 538              	.LBB492:
 539              	.LBB493:
 540              		.loc 3 546 0
 541 015c 2023     		movs	r3, #32
 542              		.syntax unified
 543              	@ 546 "..//ChibiOS//os/ext/CMSIS/include/core_cmFunc.h" 1
 544 015e 83F31188 		MSR basepri, r3
 545              	@ 0 "" 2
 546              	.LVL54:
 547              		.thumb
 548              		.syntax unified
 549              	.LBE493:
 550              	.LBE492:
 551              	.LBE491:
 552              		.loc 4 349 0
 553 0162 FFF7FEFF 		bl	_stats_start_measure_crit_thd
 554              	.LVL55:
 555              		.loc 4 350 0
 556 0166 FFF7FEFF 		bl	_dbg_check_lock
 557              	.LVL56:
 558 016a 62E7     		b	.L77
 559              	.LVL57:
 560              	.L137:
 561              	.LBE490:
 562              	.LBE489:
 563              	.LBE488:
 564              	.LBB494:
 565              	.LBB487:
 566              	.LBB466:
 567              	.LBB465:
 568              		.loc 1 358 0
 569 016c 0029     		cmp	r1, #0
 570 016e DBD0     		beq	.L130
ARM GAS  C:\Users\Moi\AppData\Local\Temp\ccOzHcBd.s 			page 11


 571 0170 023A     		subs	r2, r2, #2
 572              	.LVL58:
 573              	.LBB464:
 574              		.loc 1 359 0
 575 0172 DEF80030 		ldr	r3, [lr]
 576              	.LVL59:
 577              	.LBE464:
 578              		.loc 1 358 0
 579 0176 002A     		cmp	r2, #0
 580 0178 CCD1     		bne	.L47
 581 017a D5E7     		b	.L130
 582              	.LVL60:
 583              	.L136:
 584              	.LBE465:
 585              	.LBE466:
 586              	.LBB467:
 587              	.LBB468:
 588              		.loc 1 386 0
 589 017c 3CB3     		cbz	r4, .L36
 590 017e 6A69     		ldr	r2, [r5, #20]
 591 0180 01F58051 		add	r1, r1, #4096
 592              	.LVL61:
 593 0184 A446     		mov	ip, r4
 594              	.LVL62:
 595              	.L37:
 596              	.LBB469:
 597              		.loc 1 390 0
 598 0186 BCF1030F 		cmp	ip, #3
 599 018a 07D9     		bls	.L38
 600              	.LVL63:
 601              	.L138:
 602              	.LBB470:
 603              		.loc 1 396 0
 604 018c 2B69     		ldr	r3, [r5, #16]
 605 018e 9342     		cmp	r3, r2
 606 0190 04D8     		bhi	.L38
 607              		.loc 1 397 0
 608 0192 EA68     		ldr	r2, [r5, #12]
 609 0194 6A61     		str	r2, [r5, #20]
 610              	.LVL64:
 611              	.LBE470:
 612              		.loc 1 390 0
 613 0196 BCF1030F 		cmp	ip, #3
 614 019a F7D8     		bhi	.L138
 615              	.LVL65:
 616              	.L38:
 617              		.loc 1 408 0
 618 019c D1F800E0 		ldr	lr, [r1]
 619              	.LVL66:
 620 01a0 0023     		movs	r3, #0
 621              	.LVL67:
 622              	.L41:
 623              		.loc 1 411 0
 624 01a2 2EFA03F0 		lsr	r0, lr, r3
 625 01a6 02F10109 		add	r9, r2, #1
 626 01aa C5F81490 		str	r9, [r5, #20]
 627 01ae 1070     		strb	r0, [r2]
ARM GAS  C:\Users\Moi\AppData\Local\Temp\ccOzHcBd.s 			page 12


 628              		.loc 1 412 0
 629 01b0 D5E90420 		ldrd	r2, r0, [r5, #16]
 630 01b4 9042     		cmp	r0, r2
 631              		.loc 1 413 0
 632 01b6 24BF     		itt	cs
 633 01b8 EA68     		ldrcs	r2, [r5, #12]
 634 01ba 6A61     		strcs	r2, [r5, #20]
 635              		.loc 1 410 0
 636 01bc BCF1010C 		subs	ip, ip, #1
 637              	.LVL68:
 638 01c0 03F10803 		add	r3, r3, #8
 639 01c4 03D0     		beq	.L36
 640 01c6 202B     		cmp	r3, #32
 641 01c8 6A69     		ldr	r2, [r5, #20]
 642 01ca EAD1     		bne	.L41
 643 01cc DBE7     		b	.L37
 644              	.LVL69:
 645              	.L36:
 646              	.LBE469:
 647              	.LBB471:
 648              	.LBB472:
 649              	.LBB473:
 650              	.LBB474:
 651              	.LBB475:
 652              	.LBB476:
 653              		.loc 3 546 0
 654 01ce 2023     		movs	r3, #32
 655              		.syntax unified
 656              	@ 546 "..//ChibiOS//os/ext/CMSIS/include/core_cmFunc.h" 1
 657 01d0 83F31188 		MSR basepri, r3
 658              	@ 0 "" 2
 659              	.LVL70:
 660              		.thumb
 661              		.syntax unified
 662              	.LBE476:
 663              	.LBE475:
 664              	.LBE474:
 665              		.loc 4 349 0
 666 01d4 FFF7FEFF 		bl	_stats_start_measure_crit_thd
 667              	.LVL71:
 668              		.loc 4 350 0
 669 01d8 FFF7FEFF 		bl	_dbg_check_lock
 670              	.LVL72:
 671              	.LBE473:
 672              	.LBE472:
 673              	.LBE471:
 674              		.loc 1 421 0
 675 01dc AB68     		ldr	r3, [r5, #8]
 676 01de 2344     		add	r3, r3, r4
 677 01e0 AB60     		str	r3, [r5, #8]
 678              	.LVL73:
 679              	.LBB477:
 680              	.LBB478:
 681              		.loc 5 764 0
 682 01e2 2846     		mov	r0, r5
 683 01e4 0021     		movs	r1, #0
 684 01e6 FFF7FEFF 		bl	chThdDequeueAllI
ARM GAS  C:\Users\Moi\AppData\Local\Temp\ccOzHcBd.s 			page 13


 685              	.LVL74:
 686              	.LBE478:
 687              	.LBE477:
 688              	.LBB479:
 689              	.LBB480:
 690              		.loc 5 554 0
 691 01ea FFF7FEFF 		bl	chSchRescheduleS
 692              	.LVL75:
 693              	.LBE480:
 694              	.LBE479:
 695              	.LBB481:
 696              	.LBB482:
 697              	.LBB483:
 698              		.loc 4 360 0
 699 01ee FFF7FEFF 		bl	_dbg_check_unlock
 700              	.LVL76:
 701              		.loc 4 361 0
 702 01f2 FFF7FEFF 		bl	_stats_stop_measure_crit_thd
 703              	.LVL77:
 704              		.loc 4 367 0
 705 01f6 3368     		ldr	r3, [r6]
 706 01f8 B342     		cmp	r3, r6
 707 01fa 07D0     		beq	.L42
 708 01fc B269     		ldr	r2, [r6, #24]
 709 01fe 9B68     		ldr	r3, [r3, #8]
 710 0200 9268     		ldr	r2, [r2, #8]
 711 0202 9A42     		cmp	r2, r3
 712 0204 02D2     		bcs	.L42
 713 0206 0948     		ldr	r0, .L141+12
 714 0208 FFF7FEFF 		bl	chSysHalt
 715              	.LVL78:
 716              	.L42:
 717              	.LBB484:
 718              	.LBB485:
 719              	.LBB486:
 720              		.loc 3 546 0
 721 020c 0023     		movs	r3, #0
 722              		.syntax unified
 723              	@ 546 "..//ChibiOS//os/ext/CMSIS/include/core_cmFunc.h" 1
 724 020e 83F31188 		MSR basepri, r3
 725              	@ 0 "" 2
 726              	.LVL79:
 727              		.thumb
 728              		.syntax unified
 729 0212 D8F80C30 		ldr	r3, [r8, #12]
 730 0216 9B69     		ldr	r3, [r3, #24]
 731 0218 D3F808C0 		ldr	ip, [r3, #8]
 732 021c 87E7     		b	.L43
 733              	.L142:
 734 021e 00BF     		.align	2
 735              	.L141:
 736 0220 00000000 		.word	ch
 737 0224 00000000 		.word	__stack_chk_guard
 738 0228 00000000 		.word	.LC0
 739 022c 00000000 		.word	.LANCHOR0
 740              	.LVL80:
 741              	.L127:
ARM GAS  C:\Users\Moi\AppData\Local\Temp\ccOzHcBd.s 			page 14


 742              	.LBE486:
 743              	.LBE485:
 744              	.LBE484:
 745              	.LBE483:
 746              	.LBE482:
 747              	.LBE481:
 748              	.LBE468:
 749              	.LBE467:
 750              	.LBE487:
 751              	.LBE494:
 752              	.LBB495:
 753              	.LBB496:
 754              	.LBB497:
 755              	.LBB498:
 756              	.LBB499:
 757              	.LBB500:
 758              	.LBB501:
 759 0230 2023     		movs	r3, #32
 760              		.syntax unified
 761              	@ 546 "..//ChibiOS//os/ext/CMSIS/include/core_cmFunc.h" 1
 762 0232 83F31188 		MSR basepri, r3
 763              	@ 0 "" 2
 764              	.LVL81:
 765              		.thumb
 766              		.syntax unified
 767              	.LBE501:
 768              	.LBE500:
 769              	.LBE499:
 770              		.loc 4 349 0
 771 0236 FFF7FEFF 		bl	_stats_start_measure_crit_thd
 772              	.LVL82:
 773              		.loc 4 350 0
 774 023a FFF7FEFF 		bl	_dbg_check_lock
 775              	.LVL83:
 776              	.LBE498:
 777              	.LBE497:
 778              	.LBE496:
 779              		.loc 1 1334 0
 780 023e DAF80820 		ldr	r2, [r10, #8]
 781              		.loc 1 1335 0
 782 0242 FB6D     		ldr	r3, [r7, #92]
 783              		.loc 1 1334 0
 784 0244 22F00102 		bic	r2, r2, #1
 785              		.loc 1 1335 0
 786 0248 23EA0803 		bic	r3, r3, r8
 787              		.loc 1 1334 0
 788 024c CAF80820 		str	r2, [r10, #8]
 789              		.loc 1 1335 0
 790 0250 FB65     		str	r3, [r7, #92]
 791              	.LBB502:
 792              	.LBB503:
 793              	.LBB504:
 794              		.loc 4 360 0
 795 0252 FFF7FEFF 		bl	_dbg_check_unlock
 796              	.LVL84:
 797              		.loc 4 361 0
 798 0256 FFF7FEFF 		bl	_stats_stop_measure_crit_thd
ARM GAS  C:\Users\Moi\AppData\Local\Temp\ccOzHcBd.s 			page 15


 799              	.LVL85:
 800              		.loc 4 367 0
 801 025a 3368     		ldr	r3, [r6]
 802 025c B342     		cmp	r3, r6
 803 025e 07D0     		beq	.L50
 804 0260 B269     		ldr	r2, [r6, #24]
 805 0262 9B68     		ldr	r3, [r3, #8]
 806 0264 9268     		ldr	r2, [r2, #8]
 807 0266 9A42     		cmp	r2, r3
 808 0268 02D2     		bcs	.L50
 809 026a 8848     		ldr	r0, .L143
 810 026c FFF7FEFF 		bl	chSysHalt
 811              	.LVL86:
 812              	.L50:
 813              	.LBB505:
 814              	.LBB506:
 815              	.LBB507:
 816              		.loc 3 546 0
 817 0270 0023     		movs	r3, #0
 818              		.syntax unified
 819              	@ 546 "..//ChibiOS//os/ext/CMSIS/include/core_cmFunc.h" 1
 820 0272 83F31188 		MSR basepri, r3
 821              	@ 0 "" 2
 822              	.LVL87:
 823              		.thumb
 824              		.syntax unified
 825 0276 07EB8B09 		add	r9, r7, fp, lsl #2
 826              	.LBE507:
 827              	.LBE506:
 828              	.LBE505:
 829              	.LBE504:
 830              	.LBE503:
 831              	.LBE502:
 832              	.LBB508:
 833              	.LBB509:
 834              		.loc 1 488 0
 835 027a D9F80C10 		ldr	r1, [r9, #12]
 836 027e 4A69     		ldr	r2, [r1, #20]
 837 0280 D2E9013C 		ldrd	r3, ip, [r2, #4]
 838 0284 9C45     		cmp	ip, r3
 839 0286 80F0DF80 		bcs	.L139
 840              		.loc 1 498 0
 841 028a 386D     		ldr	r0, [r7, #80]
 842              		.loc 1 493 0
 843 028c 0D8A     		ldrh	r5, [r1, #16]
 844              		.loc 1 498 0
 845 028e 4FEA4B14 		lsl	r4, fp, #5
 846 0292 0294     		str	r4, [sp, #8]
 847 0294 0419     		adds	r4, r0, r4
 848              		.loc 1 492 0
 849 0296 A3EB0C03 		sub	r3, r3, ip
 850              	.LVL88:
 851              		.loc 1 498 0
 852 029a D4F81849 		ldr	r4, [r4, #2328]
 853 029e 9D42     		cmp	r5, r3
 854 02a0 28BF     		it	cs
 855 02a2 1D46     		movcs	r5, r3
ARM GAS  C:\Users\Moi\AppData\Local\Temp\ccOzHcBd.s 			page 16


 856              	.LVL89:
 857 02a4 A3B2     		uxth	r3, r4
 858 02a6 B5EB830F 		cmp	r5, r3, lsl #2
 859 02aa 00F2DE80 		bhi	.L53
 860 02ae 0BF10103 		add	r3, fp, #1
 861 02b2 CDE903A8 		strd	r10, r8, [sp, #12]
 862 02b6 0193     		str	r3, [sp, #4]
 863 02b8 DDF808A0 		ldr	r10, [sp, #8]
 864 02bc 1B03     		lsls	r3, r3, #12
 865 02be 9846     		mov	r8, r3
 866              	.LVL90:
 867              	.L54:
 868              		.loc 1 505 0
 869 02c0 1378     		ldrb	r3, [r2]	@ zero_extendqisi2
 870 02c2 D468     		ldr	r4, [r2, #12]
 871 02c4 00EB080C 		add	ip, r0, r8
 872 02c8 002B     		cmp	r3, #0
 873 02ca 00F0A680 		beq	.L57
 874              	.LVL91:
 875              	.LBB510:
 876              	.LBB511:
 877              		.loc 1 274 0
 878 02ce 25B3     		cbz	r5, .L58
 879 02d0 D4F810B0 		ldr	fp, [r4, #16]
 880              	.LBB512:
 881              	.LBB513:
 882              		.loc 1 280 0
 883 02d4 0295     		str	r5, [sp, #8]
 884 02d6 2A46     		mov	r2, r5
 885              	.LVL92:
 886              	.L68:
 887              	.LBE513:
 888              		.loc 1 278 0
 889 02d8 5FEA920E 		lsrs	lr, r2, #2
 890              	.LVL93:
 891 02dc A369     		ldr	r3, [r4, #24]
 892 02de 00F08280 		beq	.L59
 893              	.LVL94:
 894              	.LBB518:
 895              		.loc 1 280 0
 896 02e2 BBEB0301 		subs	r1, fp, r3
 897 02e6 48BF     		it	mi
 898 02e8 0331     		addmi	r1, r1, #3
 899 02ea 8810     		asrs	r0, r1, #2
 900              		.loc 1 282 0
 901 02ec 7045     		cmp	r0, lr
 902 02ee 28BF     		it	cs
 903 02f0 7046     		movcs	r0, lr
 904              	.LVL95:
 905 02f2 8100     		lsls	r1, r0, #2
 906 02f4 521A     		subs	r2, r2, r1
 907              	.LVL96:
 908              	.LBB514:
 909              	.LBB515:
 910              		.loc 1 233 0
 911 02f6 0028     		cmp	r0, #0
 912 02f8 00F0A080 		beq	.L81
ARM GAS  C:\Users\Moi\AppData\Local\Temp\ccOzHcBd.s 			page 17


 913 02fc 1944     		add	r1, r1, r3
 914              	.LVL97:
 915              	.L62:
 916              		.loc 1 236 0
 917 02fe 53F8040B 		ldr	r0, [r3], #4
 918              	.LVL98:
 919 0302 CCF80000 		str	r0, [ip]
 920              	.LVL99:
 921              		.loc 1 233 0
 922 0306 8B42     		cmp	r3, r1
 923 0308 F9D1     		bne	.L62
 924              	.LVL100:
 925              	.L61:
 926              	.LBE515:
 927              	.LBE514:
 928              		.loc 1 284 0
 929 030a 5945     		cmp	r1, fp
 930              		.loc 1 283 0
 931 030c A161     		str	r1, [r4, #24]
 932              	.LVL101:
 933              		.loc 1 284 0
 934 030e 67D3     		bcc	.L63
 935              		.loc 1 285 0
 936 0310 E368     		ldr	r3, [r4, #12]
 937 0312 A361     		str	r3, [r4, #24]
 938              	.LBE518:
 939              	.LBE512:
 940              		.loc 1 274 0
 941 0314 002A     		cmp	r2, #0
 942 0316 DFD1     		bne	.L68
 943              	.L131:
 944 0318 029D     		ldr	r5, [sp, #8]
 945              	.LVL102:
 946              	.L58:
 947              	.LBB520:
 948              	.LBB521:
 949              	.LBB522:
 950              	.LBB523:
 951              	.LBB524:
 952              	.LBB525:
 953              		.loc 3 546 0
 954 031a 2023     		movs	r3, #32
 955              		.syntax unified
 956              	@ 546 "..//ChibiOS//os/ext/CMSIS/include/core_cmFunc.h" 1
 957 031c 83F31188 		MSR basepri, r3
 958              	@ 0 "" 2
 959              	.LVL103:
 960              		.thumb
 961              		.syntax unified
 962              	.LBE525:
 963              	.LBE524:
 964              	.LBE523:
 965              		.loc 4 349 0
 966 0320 FFF7FEFF 		bl	_stats_start_measure_crit_thd
 967              	.LVL104:
 968              		.loc 4 350 0
 969 0324 FFF7FEFF 		bl	_dbg_check_lock
ARM GAS  C:\Users\Moi\AppData\Local\Temp\ccOzHcBd.s 			page 18


 970              	.LVL105:
 971              	.LBE522:
 972              	.LBE521:
 973              	.LBE520:
 974              		.loc 1 310 0
 975 0328 A368     		ldr	r3, [r4, #8]
 976 032a 2B44     		add	r3, r3, r5
 977 032c A360     		str	r3, [r4, #8]
 978              	.LVL106:
 979              	.LBB526:
 980              	.LBB527:
 981              		.loc 5 764 0
 982 032e 2046     		mov	r0, r4
 983 0330 0021     		movs	r1, #0
 984 0332 FFF7FEFF 		bl	chThdDequeueAllI
 985              	.LVL107:
 986              	.LBE527:
 987              	.LBE526:
 988              	.LBB528:
 989              	.LBB529:
 990              		.loc 5 554 0
 991 0336 FFF7FEFF 		bl	chSchRescheduleS
 992              	.LVL108:
 993              	.LBE529:
 994              	.LBE528:
 995              	.LBB530:
 996              	.LBB531:
 997              	.LBB532:
 998              		.loc 4 360 0
 999 033a FFF7FEFF 		bl	_dbg_check_unlock
 1000              	.LVL109:
 1001              		.loc 4 361 0
 1002 033e FFF7FEFF 		bl	_stats_stop_measure_crit_thd
 1003              	.LVL110:
 1004              		.loc 4 367 0
 1005 0342 3368     		ldr	r3, [r6]
 1006 0344 B342     		cmp	r3, r6
 1007 0346 07D0     		beq	.L69
 1008 0348 B269     		ldr	r2, [r6, #24]
 1009 034a 9B68     		ldr	r3, [r3, #8]
 1010 034c 9268     		ldr	r2, [r2, #8]
 1011 034e 9A42     		cmp	r2, r3
 1012 0350 02D2     		bcs	.L69
 1013 0352 4E48     		ldr	r0, .L143
 1014 0354 FFF7FEFF 		bl	chSysHalt
 1015              	.LVL111:
 1016              	.L69:
 1017              	.LBB533:
 1018              	.LBB534:
 1019              	.LBB535:
 1020              		.loc 3 546 0
 1021 0358 0023     		movs	r3, #0
 1022              		.syntax unified
 1023              	@ 546 "..//ChibiOS//os/ext/CMSIS/include/core_cmFunc.h" 1
 1024 035a 83F31188 		MSR basepri, r3
 1025              	@ 0 "" 2
 1026              	.LVL112:
ARM GAS  C:\Users\Moi\AppData\Local\Temp\ccOzHcBd.s 			page 19


 1027              		.thumb
 1028              		.syntax unified
 1029 035e D9F80C10 		ldr	r1, [r9, #12]
 1030              	.L70:
 1031              	.LBE535:
 1032              	.LBE534:
 1033              	.LBE533:
 1034              	.LBE532:
 1035              	.LBE531:
 1036              	.LBE530:
 1037              	.LBE511:
 1038              	.LBE510:
 1039              		.loc 1 521 0
 1040 0362 4A69     		ldr	r2, [r1, #20]
 1041              		.loc 1 488 0
 1042 0364 D2E90143 		ldrd	r4, r3, [r2, #4]
 1043              		.loc 1 521 0
 1044 0368 2B44     		add	r3, r3, r5
 1045              		.loc 1 488 0
 1046 036a 9C42     		cmp	r4, r3
 1047              		.loc 1 521 0
 1048 036c 9360     		str	r3, [r2, #8]
 1049              		.loc 1 488 0
 1050 036e 67D9     		bls	.L140
 1051              		.loc 1 498 0
 1052 0370 386D     		ldr	r0, [r7, #80]
 1053              		.loc 1 493 0
 1054 0372 0D8A     		ldrh	r5, [r1, #16]
 1055              		.loc 1 498 0
 1056 0374 00EB0A0C 		add	ip, r0, r10
 1057              		.loc 1 492 0
 1058 0378 E31A     		subs	r3, r4, r3
 1059              	.LVL113:
 1060              		.loc 1 498 0
 1061 037a DCF81849 		ldr	r4, [ip, #2328]
 1062 037e 9D42     		cmp	r5, r3
 1063 0380 28BF     		it	cs
 1064 0382 1D46     		movcs	r5, r3
 1065              	.LVL114:
 1066 0384 A3B2     		uxth	r3, r4
 1067 0386 B5EB830F 		cmp	r5, r3, lsl #2
 1068 038a 99D9     		bls	.L54
 1069 038c DDE903A8 		ldrd	r10, r8, [sp, #12]
 1070              		.loc 1 499 0
 1071 0390 0024     		movs	r4, #0
 1072              	.LVL115:
 1073              	.L56:
 1074              	.LBE509:
 1075              	.LBE508:
 1076              	.LBB547:
 1077              	.LBB548:
 1078              	.LBB549:
 1079              	.LBB550:
 1080              	.LBB551:
 1081              	.LBB552:
 1082              		.loc 3 546 0
 1083 0392 2023     		movs	r3, #32
ARM GAS  C:\Users\Moi\AppData\Local\Temp\ccOzHcBd.s 			page 20


 1084              		.syntax unified
 1085              	@ 546 "..//ChibiOS//os/ext/CMSIS/include/core_cmFunc.h" 1
 1086 0394 83F31188 		MSR basepri, r3
 1087              	@ 0 "" 2
 1088              	.LVL116:
 1089              		.thumb
 1090              		.syntax unified
 1091              	.LBE552:
 1092              	.LBE551:
 1093              	.LBE550:
 1094              		.loc 4 349 0
 1095 0398 FFF7FEFF 		bl	_stats_start_measure_crit_thd
 1096              	.LVL117:
 1097              		.loc 4 350 0
 1098 039c FFF7FEFF 		bl	_dbg_check_lock
 1099              	.LVL118:
 1100              	.LBE549:
 1101              	.LBE548:
 1102              	.LBE547:
 1103              		.loc 1 1341 0
 1104 03a0 DAF80830 		ldr	r3, [r10, #8]
 1105 03a4 43F00103 		orr	r3, r3, #1
 1106 03a8 CAF80830 		str	r3, [r10, #8]
 1107              		.loc 1 1342 0
 1108 03ac 2CB9     		cbnz	r4, .L52
 1109              	.LVL119:
 1110              	.L55:
 1111              		.loc 1 1343 0
 1112 03ae DAF83438 		ldr	r3, [r10, #2100]
 1113 03b2 43EA0803 		orr	r3, r3, r8
 1114 03b6 CAF83438 		str	r3, [r10, #2100]
 1115              	.L52:
 1116              	.LBB563:
 1117              	.LBB564:
 1118              	.LBB565:
 1119              		.loc 4 360 0
 1120 03ba FFF7FEFF 		bl	_dbg_check_unlock
 1121              	.LVL120:
 1122              		.loc 4 361 0
 1123 03be FFF7FEFF 		bl	_stats_stop_measure_crit_thd
 1124              	.LVL121:
 1125              		.loc 4 367 0
 1126 03c2 3368     		ldr	r3, [r6]
 1127 03c4 B342     		cmp	r3, r6
 1128 03c6 07D0     		beq	.L74
 1129 03c8 B269     		ldr	r2, [r6, #24]
 1130 03ca 9B68     		ldr	r3, [r3, #8]
 1131 03cc 9268     		ldr	r2, [r2, #8]
 1132 03ce 9A42     		cmp	r2, r3
 1133 03d0 02D2     		bcs	.L74
 1134 03d2 2E48     		ldr	r0, .L143
 1135 03d4 FFF7FEFF 		bl	chSysHalt
 1136              	.LVL122:
 1137              	.L74:
 1138              	.LBB566:
 1139              	.LBB567:
 1140              	.LBB568:
ARM GAS  C:\Users\Moi\AppData\Local\Temp\ccOzHcBd.s 			page 21


 1141              		.loc 3 546 0
 1142 03d8 0023     		movs	r3, #0
 1143              		.syntax unified
 1144              	@ 546 "..//ChibiOS//os/ext/CMSIS/include/core_cmFunc.h" 1
 1145 03da 83F31188 		MSR basepri, r3
 1146              	@ 0 "" 2
 1147              	.LVL123:
 1148              		.thumb
 1149              		.syntax unified
 1150 03de B7E6     		b	.L49
 1151              	.LVL124:
 1152              	.L63:
 1153              	.LBE568:
 1154              	.LBE567:
 1155              	.LBE566:
 1156              	.LBE565:
 1157              	.LBE564:
 1158              	.LBE563:
 1159              	.LBB569:
 1160              	.LBB546:
 1161              	.LBB540:
 1162              	.LBB538:
 1163              	.LBB536:
 1164              		.loc 1 292 0
 1165 03e0 002A     		cmp	r2, #0
 1166 03e2 99D0     		beq	.L131
 1167 03e4 0B46     		mov	r3, r1
 1168              	.L59:
 1169 03e6 0021     		movs	r1, #0
 1170 03e8 0846     		mov	r0, r1
 1171              	.L67:
 1172              	.LVL125:
 1173              		.loc 1 299 0
 1174 03ea 5D1C     		adds	r5, r3, #1
 1175 03ec A561     		str	r5, [r4, #24]
 1176 03ee 1B78     		ldrb	r3, [r3]	@ zero_extendqisi2
 1177              		.loc 1 300 0
 1178 03f0 5D45     		cmp	r5, fp
 1179              		.loc 1 299 0
 1180 03f2 03FA01F3 		lsl	r3, r3, r1
 1181 03f6 40EA0300 		orr	r0, r0, r3
 1182              	.LVL126:
 1183              		.loc 1 301 0
 1184 03fa 24BF     		itt	cs
 1185 03fc E368     		ldrcs	r3, [r4, #12]
 1186 03fe A361     		strcs	r3, [r4, #24]
 1187              		.loc 1 298 0
 1188 0400 013A     		subs	r2, r2, #1
 1189              	.LVL127:
 1190 0402 04D0     		beq	.L66
 1191 0404 1829     		cmp	r1, #24
 1192 0406 02D0     		beq	.L66
 1193 0408 0831     		adds	r1, r1, #8
 1194 040a A369     		ldr	r3, [r4, #24]
 1195 040c EDE7     		b	.L67
 1196              	.L66:
 1197              		.loc 1 305 0
ARM GAS  C:\Users\Moi\AppData\Local\Temp\ccOzHcBd.s 			page 22


 1198 040e CCF80000 		str	r0, [ip]
 1199              	.LBE536:
 1200              		.loc 1 274 0
 1201 0412 002A     		cmp	r2, #0
 1202 0414 7FF460AF 		bne	.L68
 1203 0418 7EE7     		b	.L131
 1204              	.LVL128:
 1205              	.L57:
 1206              	.LBE538:
 1207              	.LBE540:
 1208              	.LBB541:
 1209              	.LBB542:
 1210              		.loc 1 256 0
 1211 041a EB1C     		adds	r3, r5, #3
 1212              	.LVL129:
 1213              	.LBB543:
 1214              	.LBB544:
 1215              		.loc 1 233 0
 1216 041c 9B08     		lsrs	r3, r3, #2
 1217              	.LVL130:
 1218 041e 0AD0     		beq	.L71
 1219 0420 04EB8301 		add	r1, r4, r3, lsl #2
 1220 0424 2346     		mov	r3, r4
 1221              	.LVL131:
 1222              	.L72:
 1223              		.loc 1 236 0
 1224 0426 53F8040B 		ldr	r0, [r3], #4
 1225              	.LVL132:
 1226 042a CCF80000 		str	r0, [ip]
 1227              	.LVL133:
 1228              		.loc 1 233 0
 1229 042e 8B42     		cmp	r3, r1
 1230 0430 F9D1     		bne	.L72
 1231 0432 D9F80C10 		ldr	r1, [r9, #12]
 1232              	.LVL134:
 1233              	.L71:
 1234              	.LBE544:
 1235              	.LBE543:
 1236              	.LBE542:
 1237              	.LBE541:
 1238              		.loc 1 516 0
 1239 0436 2C44     		add	r4, r4, r5
 1240 0438 D460     		str	r4, [r2, #12]
 1241 043a 92E7     		b	.L70
 1242              	.LVL135:
 1243              	.L81:
 1244              	.LBB545:
 1245              	.LBB539:
 1246              	.LBB537:
 1247              	.LBB519:
 1248              	.LBB517:
 1249              	.LBB516:
 1250              		.loc 1 233 0
 1251 043c 1946     		mov	r1, r3
 1252 043e 64E7     		b	.L61
 1253              	.LVL136:
 1254              	.L140:
ARM GAS  C:\Users\Moi\AppData\Local\Temp\ccOzHcBd.s 			page 23


 1255 0440 DDE903A8 		ldrd	r10, r8, [sp, #12]
 1256              	.LBE516:
 1257              	.LBE517:
 1258              	.LBE519:
 1259              	.LBE537:
 1260              	.LBE539:
 1261              	.LBE545:
 1262              		.loc 1 489 0
 1263 0444 0124     		movs	r4, #1
 1264 0446 A4E7     		b	.L56
 1265              	.LVL137:
 1266              	.L139:
 1267              	.LBE546:
 1268              	.LBE569:
 1269              	.LBB570:
 1270              	.LBB561:
 1271              	.LBB559:
 1272              	.LBB557:
 1273              	.LBB555:
 1274              	.LBB553:
 1275              		.loc 3 546 0
 1276 0448 2023     		movs	r3, #32
 1277              		.syntax unified
 1278              	@ 546 "..//ChibiOS//os/ext/CMSIS/include/core_cmFunc.h" 1
 1279 044a 83F31188 		MSR basepri, r3
 1280              	@ 0 "" 2
 1281              	.LVL138:
 1282              		.thumb
 1283              		.syntax unified
 1284              	.LBE553:
 1285              	.LBE555:
 1286              	.LBE557:
 1287              		.loc 4 349 0
 1288 044e FFF7FEFF 		bl	_stats_start_measure_crit_thd
 1289              	.LVL139:
 1290              		.loc 4 350 0
 1291 0452 FFF7FEFF 		bl	_dbg_check_lock
 1292              	.LVL140:
 1293              	.LBE559:
 1294              	.LBE561:
 1295              	.LBE570:
 1296              		.loc 1 1341 0
 1297 0456 DAF80830 		ldr	r3, [r10, #8]
 1298 045a 0BF10102 		add	r2, fp, #1
 1299 045e 43F00103 		orr	r3, r3, #1
 1300 0462 0192     		str	r2, [sp, #4]
 1301 0464 CAF80830 		str	r3, [r10, #8]
 1302 0468 A7E7     		b	.L52
 1303              	.LVL141:
 1304              	.L53:
 1305              	.LBB571:
 1306              	.LBB562:
 1307              	.LBB560:
 1308              	.LBB558:
 1309              	.LBB556:
 1310              	.LBB554:
 1311              		.loc 3 546 0
ARM GAS  C:\Users\Moi\AppData\Local\Temp\ccOzHcBd.s 			page 24


 1312 046a 2023     		movs	r3, #32
 1313              		.syntax unified
 1314              	@ 546 "..//ChibiOS//os/ext/CMSIS/include/core_cmFunc.h" 1
 1315 046c 83F31188 		MSR basepri, r3
 1316              	@ 0 "" 2
 1317              	.LVL142:
 1318              		.thumb
 1319              		.syntax unified
 1320              	.LBE554:
 1321              	.LBE556:
 1322              	.LBE558:
 1323              		.loc 4 349 0
 1324 0470 FFF7FEFF 		bl	_stats_start_measure_crit_thd
 1325              	.LVL143:
 1326              		.loc 4 350 0
 1327 0474 FFF7FEFF 		bl	_dbg_check_lock
 1328              	.LVL144:
 1329              	.LBE560:
 1330              	.LBE562:
 1331              	.LBE571:
 1332              		.loc 1 1341 0
 1333 0478 DAF80830 		ldr	r3, [r10, #8]
 1334 047c 0BF10102 		add	r2, fp, #1
 1335 0480 43F00103 		orr	r3, r3, #1
 1336 0484 0192     		str	r2, [sp, #4]
 1337 0486 CAF80830 		str	r3, [r10, #8]
 1338 048a 90E7     		b	.L55
 1339              	.L144:
 1340              		.align	2
 1341              	.L143:
 1342 048c 00000000 		.word	.LANCHOR0
 1343              	.LBE495:
 1344              	.LBE435:
 1345              		.cfi_endproc
 1346              	.LFE292:
 1347              		.size	usb_lld_pump, .-usb_lld_pump
 1348              		.section	.text.usb_lld_init,"ax",%progbits
 1349              		.align	1
 1350              		.p2align 4,,15
 1351              		.global	usb_lld_init
 1352              		.syntax unified
 1353              		.thumb
 1354              		.thumb_func
 1355              		.fpu fpv4-sp-d16
 1356              		.type	usb_lld_init, %function
 1357              	usb_lld_init:
 1358              	.LFB274:
 1359              		.loc 1 744 0
 1360              		.cfi_startproc
 1361              		@ args = 0, pretend = 0, frame = 8
 1362              		@ frame_needed = 0, uses_anonymous_args = 0
 1363 0000 30B5     		push	{r4, r5, lr}
 1364              		.cfi_def_cfa_offset 12
 1365              		.cfi_offset 4, -12
 1366              		.cfi_offset 5, -8
 1367              		.cfi_offset 14, -4
 1368              		.loc 1 748 0
ARM GAS  C:\Users\Moi\AppData\Local\Temp\ccOzHcBd.s 			page 25


 1369 0002 134C     		ldr	r4, .L150
 1370              		.loc 1 744 0
 1371 0004 134D     		ldr	r5, .L150+4
 1372 0006 83B0     		sub	sp, sp, #12
 1373              		.cfi_def_cfa_offset 24
 1374              		.loc 1 744 0
 1375 0008 2B68     		ldr	r3, [r5]
 1376 000a 0193     		str	r3, [sp, #4]
 1377              		.loc 1 748 0
 1378 000c 2046     		mov	r0, r4
 1379 000e FFF7FEFF 		bl	usbObjectInit
 1380              	.LVL145:
 1381              		.loc 1 750 0
 1382 0012 4FF0A043 		mov	r3, #1342177280
 1383              		.loc 1 751 0
 1384 0016 104A     		ldr	r2, .L150+8
 1385              		.loc 1 750 0
 1386 0018 2365     		str	r3, [r4, #80]
 1387              		.loc 1 751 0
 1388 001a 6265     		str	r2, [r4, #84]
 1389              		.loc 1 749 0
 1390 001c 0023     		movs	r3, #0
 1391              	.LBB572:
 1392              		.loc 1 760 0
 1393 001e FF22     		movs	r2, #255
 1394 0020 04F1D001 		add	r1, r4, #208
 1395 0024 04F16800 		add	r0, r4, #104
 1396              	.LBE572:
 1397              		.loc 1 754 0
 1398 0028 C4E91833 		strd	r3, r3, [r4, #96]
 1399              	.LVL146:
 1400              	.LBB573:
 1401              		.loc 1 760 0
 1402 002c FFF7FEFF 		bl	_thread_memfill
 1403              	.LVL147:
 1404              		.loc 1 763 0
 1405 0030 019A     		ldr	r2, [sp, #4]
 1406 0032 2B68     		ldr	r3, [r5]
 1407 0034 9A42     		cmp	r2, r3
 1408 0036 09D1     		bne	.L149
 1409 0038 5522     		movs	r2, #85
 1410 003a 04F51871 		add	r1, r4, #608
 1411 003e 04F1D000 		add	r0, r4, #208
 1412              	.LBE573:
 1413              		.loc 1 794 0
 1414 0042 03B0     		add	sp, sp, #12
 1415              		.cfi_remember_state
 1416              		.cfi_def_cfa_offset 12
 1417              		@ sp needed
 1418 0044 BDE83040 		pop	{r4, r5, lr}
 1419              		.cfi_restore 14
 1420              		.cfi_restore 5
 1421              		.cfi_restore 4
 1422              		.cfi_def_cfa_offset 0
 1423              	.LBB574:
 1424              		.loc 1 763 0
 1425 0048 FFF7FEBF 		b	_thread_memfill
ARM GAS  C:\Users\Moi\AppData\Local\Temp\ccOzHcBd.s 			page 26


 1426              	.LVL148:
 1427              	.L149:
 1428              		.cfi_restore_state
 1429 004c FFF7FEFF 		bl	__stack_chk_fail
 1430              	.LVL149:
 1431              	.L151:
 1432              		.align	2
 1433              	.L150:
 1434 0050 00000000 		.word	.LANCHOR1
 1435 0054 00000000 		.word	__stack_chk_guard
 1436 0058 00000000 		.word	.LANCHOR2
 1437              	.LBE574:
 1438              		.cfi_endproc
 1439              	.LFE274:
 1440              		.size	usb_lld_init, .-usb_lld_init
 1441              		.section	.text.usb_lld_start,"ax",%progbits
 1442              		.align	1
 1443              		.p2align 4,,15
 1444              		.global	usb_lld_start
 1445              		.syntax unified
 1446              		.thumb
 1447              		.thumb_func
 1448              		.fpu fpv4-sp-d16
 1449              		.type	usb_lld_start, %function
 1450              	usb_lld_start:
 1451              	.LFB275:
 1452              		.loc 1 806 0
 1453              		.cfi_startproc
 1454              		@ args = 0, pretend = 0, frame = 8
 1455              		@ frame_needed = 0, uses_anonymous_args = 0
 1456              	.LVL150:
 1457 0000 F0B5     		push	{r4, r5, r6, r7, lr}
 1458              		.cfi_def_cfa_offset 20
 1459              		.cfi_offset 4, -20
 1460              		.cfi_offset 5, -16
 1461              		.cfi_offset 6, -12
 1462              		.cfi_offset 7, -8
 1463              		.cfi_offset 14, -4
 1464              		.loc 1 809 0
 1465 0002 0378     		ldrb	r3, [r0]	@ zero_extendqisi2
 1466              		.loc 1 806 0
 1467 0004 3B4F     		ldr	r7, .L174
 1468 0006 85B0     		sub	sp, sp, #20
 1469              		.cfi_def_cfa_offset 40
 1470              		.loc 1 806 0
 1471 0008 3A68     		ldr	r2, [r7]
 1472 000a 0392     		str	r2, [sp, #12]
 1473              	.LVL151:
 1474              		.loc 1 809 0
 1475 000c 012B     		cmp	r3, #1
 1476 000e 05D0     		beq	.L169
 1477              	.LVL152:
 1478              	.L152:
 1479              		.loc 1 893 0
 1480 0010 039A     		ldr	r2, [sp, #12]
 1481 0012 3B68     		ldr	r3, [r7]
 1482 0014 9A42     		cmp	r2, r3
ARM GAS  C:\Users\Moi\AppData\Local\Temp\ccOzHcBd.s 			page 27


 1483 0016 6AD1     		bne	.L170
 1484 0018 05B0     		add	sp, sp, #20
 1485              		.cfi_remember_state
 1486              		.cfi_def_cfa_offset 20
 1487              		@ sp needed
 1488 001a F0BD     		pop	{r4, r5, r6, r7, pc}
 1489              	.LVL153:
 1490              	.L169:
 1491              		.cfi_restore_state
 1492              		.loc 1 812 0
 1493 001c 364B     		ldr	r3, .L174+4
 1494              		.loc 1 807 0
 1495 001e 056D     		ldr	r5, [r0, #80]
 1496              		.loc 1 812 0
 1497 0020 9842     		cmp	r0, r3
 1498 0022 0646     		mov	r6, r0
 1499 0024 3AD0     		beq	.L171
 1500              		.loc 1 807 0
 1501 0026 2C46     		mov	r4, r5
 1502              	.LVL154:
 1503              	.L154:
 1504              		.loc 1 836 0
 1505 0028 0023     		movs	r3, #0
 1506              		.loc 1 841 0
 1507 002a 344A     		ldr	r2, .L174+8
 1508              		.loc 1 836 0
 1509 002c F365     		str	r3, [r6, #92]
 1510              		.loc 1 844 0
 1511 002e 3449     		ldr	r1, .L174+12
 1512              		.loc 1 841 0
 1513 0030 EA60     		str	r2, [r5, #12]
 1514              		.loc 1 854 0
 1515 0032 4FF45022 		mov	r2, #851968
 1516              		.loc 1 844 0
 1517 0036 C5F80018 		str	r1, [r5, #2048]
 1518              	.LBB583:
 1519              	.LBB584:
 1520              	.LBB585:
 1521              	.LBB586:
 1522              		.loc 5 527 0
 1523 003a 2020     		movs	r0, #32
 1524              	.LBE586:
 1525              	.LBE585:
 1526              	.LBE584:
 1527              	.LBE583:
 1528              		.loc 1 847 0
 1529 003c C5F8003E 		str	r3, [r5, #3584]
 1530              		.loc 1 854 0
 1531 0040 AA63     		str	r2, [r5, #56]
 1532              	.LVL155:
 1533              	.LBB592:
 1534              	.LBB591:
 1535              	.LBB588:
 1536              	.LBB587:
 1537              		.loc 5 527 0
 1538 0042 FFF7FEFF 		bl	chSysPolledDelayX
 1539              	.LVL156:
ARM GAS  C:\Users\Moi\AppData\Local\Temp\ccOzHcBd.s 			page 28


 1540              	.LBE587:
 1541              	.LBE588:
 1542              		.loc 1 121 0
 1543 0046 0123     		movs	r3, #1
 1544 0048 2361     		str	r3, [r4, #16]
 1545              	.L155:
 1546              		.loc 1 122 0
 1547 004a 2369     		ldr	r3, [r4, #16]
 1548 004c DB07     		lsls	r3, r3, #31
 1549 004e FCD4     		bmi	.L155
 1550              	.LVL157:
 1551              	.LBB589:
 1552              	.LBB590:
 1553              		.loc 5 527 0
 1554 0050 0C20     		movs	r0, #12
 1555 0052 FFF7FEFF 		bl	chSysPolledDelayX
 1556              	.LVL158:
 1557              	.L156:
 1558              	.LBE590:
 1559              	.LBE589:
 1560              		.loc 1 128 0
 1561 0056 2369     		ldr	r3, [r4, #16]
 1562 0058 002B     		cmp	r3, #0
 1563 005a FCDA     		bge	.L156
 1564              	.LBE591:
 1565              	.LBE592:
 1566              		.loc 1 861 0
 1567 005c 0024     		movs	r4, #0
 1568 005e AC60     		str	r4, [r5, #8]
 1569              		.loc 1 864 0
 1570 0060 D6E91401 		ldrd	r0, r1, [r6, #80]
 1571 0064 FFF7FEFF 		bl	otg_disable_ep.isra.0
 1572              	.LVL159:
 1573              		.loc 1 871 0
 1574 0068 7368     		ldr	r3, [r6, #4]
 1575              		.loc 1 868 0
 1576 006a C5F81048 		str	r4, [r5, #2064]
 1577              		.loc 1 871 0
 1578 006e DB68     		ldr	r3, [r3, #12]
 1579              		.loc 1 869 0
 1580 0070 C5F81448 		str	r4, [r5, #2068]
 1581              		.loc 1 870 0
 1582 0074 C5F81C48 		str	r4, [r5, #2076]
 1583              		.loc 1 871 0
 1584 0078 63B1     		cbz	r3, .L172
 1585              		.loc 1 875 0
 1586 007a 43F20803 		movw	r3, #12296
 1587 007e AB61     		str	r3, [r5, #24]
 1588              	.L158:
 1589              		.loc 1 881 0
 1590 0080 736E     		ldr	r3, [r6, #100]
 1591              		.loc 1 877 0
 1592 0082 4FF0FF32 		mov	r2, #-1
 1593 0086 6A61     		str	r2, [r5, #20]
 1594              		.loc 1 881 0
 1595 0088 CBB1     		cbz	r3, .L173
 1596              	.L159:
ARM GAS  C:\Users\Moi\AppData\Local\Temp\ccOzHcBd.s 			page 29


 1597              		.loc 1 891 0
 1598 008a AB68     		ldr	r3, [r5, #8]
 1599 008c 43F00103 		orr	r3, r3, #1
 1600 0090 AB60     		str	r3, [r5, #8]
 1601              		.loc 1 893 0
 1602 0092 BDE7     		b	.L152
 1603              	.L172:
 1604              		.loc 1 872 0
 1605 0094 4FF44053 		mov	r3, #12288
 1606 0098 AB61     		str	r3, [r5, #24]
 1607 009a F1E7     		b	.L158
 1608              	.LVL160:
 1609              	.L171:
 1610              		.loc 1 814 0
 1611 009c 194B     		ldr	r3, .L174+16
 1612 009e 5A6B     		ldr	r2, [r3, #52]
 1613 00a0 42F08002 		orr	r2, r2, #128
 1614 00a4 5A63     		str	r2, [r3, #52]
 1615              		.loc 1 815 0
 1616 00a6 5A69     		ldr	r2, [r3, #20]
 1617 00a8 0021     		movs	r1, #0
 1618 00aa 42F08002 		orr	r2, r2, #128
 1619 00ae 5A61     		str	r2, [r3, #20]
 1620              		.loc 1 818 0
 1621 00b0 4320     		movs	r0, #67
 1622              	.LVL161:
 1623              		.loc 1 815 0
 1624 00b2 5961     		str	r1, [r3, #20]
 1625              		.loc 1 818 0
 1626 00b4 0E21     		movs	r1, #14
 1627 00b6 FFF7FEFF 		bl	nvicEnableVector
 1628              	.LVL162:
 1629 00ba 346D     		ldr	r4, [r6, #80]
 1630 00bc B4E7     		b	.L154
 1631              	.LVL163:
 1632              	.L173:
 1633              		.loc 1 882 0
 1634 00be 124B     		ldr	r3, .L174+20
 1635 00c0 0096     		str	r6, [sp]
 1636 00c2 4A22     		movs	r2, #74
 1637 00c4 4FF4FC71 		mov	r1, #504
 1638 00c8 06F16800 		add	r0, r6, #104
 1639 00cc FFF7FEFF 		bl	chThdCreateI
 1640              	.LVL164:
 1641 00d0 7066     		str	r0, [r6, #100]
 1642              	.LVL165:
 1643              	.LBB593:
 1644              	.LBB594:
 1645              		.file 6 "..//ChibiOS//os/rt/include/chthreads.h"
 1646              		.loc 6 247 0
 1647 00d2 90F82030 		ldrb	r3, [r0, #32]	@ zero_extendqisi2
 1648 00d6 022B     		cmp	r3, #2
 1649              	.LBE594:
 1650              	.LBE593:
 1651              		.loc 1 882 0
 1652 00d8 0446     		mov	r4, r0
 1653              	.LBB596:
ARM GAS  C:\Users\Moi\AppData\Local\Temp\ccOzHcBd.s 			page 30


 1654              	.LBB595:
 1655              		.loc 6 247 0
 1656 00da 02D0     		beq	.L160
 1657 00dc 0B48     		ldr	r0, .L174+24
 1658              	.LVL166:
 1659 00de FFF7FEFF 		bl	chSysHalt
 1660              	.LVL167:
 1661              	.L160:
 1662              		.loc 6 249 0
 1663 00e2 2046     		mov	r0, r4
 1664 00e4 FFF7FEFF 		bl	chSchReadyI
 1665              	.LVL168:
 1666              	.LBE595:
 1667              	.LBE596:
 1668              		.loc 1 886 0
 1669 00e8 FFF7FEFF 		bl	chSchRescheduleS
 1670              	.LVL169:
 1671 00ec CDE7     		b	.L159
 1672              	.LVL170:
 1673              	.L170:
 1674              		.loc 1 893 0
 1675 00ee FFF7FEFF 		bl	__stack_chk_fail
 1676              	.LVL171:
 1677              	.L175:
 1678 00f2 00BF     		.align	2
 1679              	.L174:
 1680 00f4 00000000 		.word	__stack_chk_guard
 1681 00f8 00000000 		.word	.LANCHOR1
 1682 00fc 40140040 		.word	1073747008
 1683 0100 03002002 		.word	35651587
 1684 0104 00380240 		.word	1073887232
 1685 0108 00000000 		.word	usb_lld_pump
 1686 010c 00000000 		.word	.LANCHOR3
 1687              		.cfi_endproc
 1688              	.LFE275:
 1689              		.size	usb_lld_start, .-usb_lld_start
 1690              		.section	.text.usb_lld_stop,"ax",%progbits
 1691              		.align	1
 1692              		.p2align 4,,15
 1693              		.global	usb_lld_stop
 1694              		.syntax unified
 1695              		.thumb
 1696              		.thumb_func
 1697              		.fpu fpv4-sp-d16
 1698              		.type	usb_lld_stop, %function
 1699              	usb_lld_stop:
 1700              	.LFB276:
 1701              		.loc 1 902 0
 1702              		.cfi_startproc
 1703              		@ args = 0, pretend = 0, frame = 8
 1704              		@ frame_needed = 0, uses_anonymous_args = 0
 1705              	.LVL172:
 1706 0000 70B5     		push	{r4, r5, r6, lr}
 1707              		.cfi_def_cfa_offset 16
 1708              		.cfi_offset 4, -16
 1709              		.cfi_offset 5, -12
 1710              		.cfi_offset 6, -8
ARM GAS  C:\Users\Moi\AppData\Local\Temp\ccOzHcBd.s 			page 31


 1711              		.cfi_offset 14, -4
 1712              		.loc 1 906 0
 1713 0002 0378     		ldrb	r3, [r0]	@ zero_extendqisi2
 1714              		.loc 1 902 0
 1715 0004 124D     		ldr	r5, .L184
 1716 0006 82B0     		sub	sp, sp, #8
 1717              		.cfi_def_cfa_offset 24
 1718              		.loc 1 902 0
 1719 0008 2A68     		ldr	r2, [r5]
 1720 000a 0192     		str	r2, [sp, #4]
 1721              	.LVL173:
 1722              		.loc 1 906 0
 1723 000c 012B     		cmp	r3, #1
 1724 000e 0ED0     		beq	.L176
 1725              		.loc 1 910 0
 1726 0010 D0E91461 		ldrd	r6, r1, [r0, #80]
 1727 0014 0446     		mov	r4, r0
 1728 0016 3046     		mov	r0, r6
 1729              	.LVL174:
 1730 0018 FFF7FEFF 		bl	otg_disable_ep.isra.0
 1731              	.LVL175:
 1732              		.loc 1 919 0
 1733 001c 0D4A     		ldr	r2, .L184+4
 1734              		.loc 1 912 0
 1735 001e 0023     		movs	r3, #0
 1736              		.loc 1 919 0
 1737 0020 9442     		cmp	r4, r2
 1738              		.loc 1 912 0
 1739 0022 E365     		str	r3, [r4, #92]
 1740              		.loc 1 914 0
 1741 0024 C6F81C38 		str	r3, [r6, #2076]
 1742              		.loc 1 915 0
 1743 0028 B360     		str	r3, [r6, #8]
 1744              		.loc 1 916 0
 1745 002a B363     		str	r3, [r6, #56]
 1746              		.loc 1 919 0
 1747 002c 05D0     		beq	.L182
 1748              	.LVL176:
 1749              	.L176:
 1750              		.loc 1 932 0
 1751 002e 019A     		ldr	r2, [sp, #4]
 1752 0030 2B68     		ldr	r3, [r5]
 1753 0032 9A42     		cmp	r2, r3
 1754 0034 0AD1     		bne	.L183
 1755 0036 02B0     		add	sp, sp, #8
 1756              		.cfi_remember_state
 1757              		.cfi_def_cfa_offset 16
 1758              		@ sp needed
 1759 0038 70BD     		pop	{r4, r5, r6, pc}
 1760              	.LVL177:
 1761              	.L182:
 1762              		.cfi_restore_state
 1763              		.loc 1 920 0
 1764 003a 4320     		movs	r0, #67
 1765 003c FFF7FEFF 		bl	nvicDisableVector
 1766              	.LVL178:
 1767              		.loc 1 921 0
ARM GAS  C:\Users\Moi\AppData\Local\Temp\ccOzHcBd.s 			page 32


 1768 0040 054A     		ldr	r2, .L184+8
 1769 0042 536B     		ldr	r3, [r2, #52]
 1770 0044 23F08003 		bic	r3, r3, #128
 1771 0048 5363     		str	r3, [r2, #52]
 1772              		.loc 1 932 0
 1773 004a F0E7     		b	.L176
 1774              	.LVL179:
 1775              	.L183:
 1776 004c FFF7FEFF 		bl	__stack_chk_fail
 1777              	.LVL180:
 1778              	.L185:
 1779              		.align	2
 1780              	.L184:
 1781 0050 00000000 		.word	__stack_chk_guard
 1782 0054 00000000 		.word	.LANCHOR1
 1783 0058 00380240 		.word	1073887232
 1784              		.cfi_endproc
 1785              	.LFE276:
 1786              		.size	usb_lld_stop, .-usb_lld_stop
 1787              		.section	.text.usb_lld_reset,"ax",%progbits
 1788              		.align	1
 1789              		.p2align 4,,15
 1790              		.global	usb_lld_reset
 1791              		.syntax unified
 1792              		.thumb
 1793              		.thumb_func
 1794              		.fpu fpv4-sp-d16
 1795              		.type	usb_lld_reset, %function
 1796              	usb_lld_reset:
 1797              	.LFB277:
 1798              		.loc 1 941 0
 1799              		.cfi_startproc
 1800              		@ args = 0, pretend = 0, frame = 8
 1801              		@ frame_needed = 0, uses_anonymous_args = 0
 1802              	.LVL181:
 1803 0000 F0B5     		push	{r4, r5, r6, r7, lr}
 1804              		.cfi_def_cfa_offset 20
 1805              		.cfi_offset 4, -20
 1806              		.cfi_offset 5, -16
 1807              		.cfi_offset 6, -12
 1808              		.cfi_offset 7, -8
 1809              		.cfi_offset 14, -4
 1810 0002 374E     		ldr	r6, .L197
 1811              		.loc 1 943 0
 1812 0004 056D     		ldr	r5, [r0, #80]
 1813              	.LVL182:
 1814              		.loc 1 941 0
 1815 0006 3368     		ldr	r3, [r6]
 1816 0008 83B0     		sub	sp, sp, #12
 1817              		.cfi_def_cfa_offset 32
 1818              		.loc 1 941 0
 1819 000a 0746     		mov	r7, r0
 1820              	.LVL183:
 1821 000c 0193     		str	r3, [sp, #4]
 1822              	.LBB597:
 1823              	.LBB598:
 1824              		.loc 1 182 0
ARM GAS  C:\Users\Moi\AppData\Local\Temp\ccOzHcBd.s 			page 33


 1825 000e 2023     		movs	r3, #32
 1826 0010 2B61     		str	r3, [r5, #16]
 1827              	.L187:
 1828              		.loc 1 183 0
 1829 0012 2C69     		ldr	r4, [r5, #16]
 1830 0014 14F02004 		ands	r4, r4, #32
 1831 0018 FBD1     		bne	.L187
 1832              	.LVL184:
 1833              	.LBB599:
 1834              	.LBB600:
 1835              		.loc 5 527 0
 1836 001a 0C20     		movs	r0, #12
 1837              	.LVL185:
 1838 001c FFF7FEFF 		bl	chSysPolledDelayX
 1839              	.LVL186:
 1840              	.LBE600:
 1841              	.LBE599:
 1842              	.LBE598:
 1843              	.LBE597:
 1844              		.loc 1 949 0
 1845 0020 D7F854C0 		ldr	ip, [r7, #84]
 1846 0024 DCF80820 		ldr	r2, [ip, #8]
 1847 0028 2346     		mov	r3, r4
 1848              		.loc 1 950 0
 1849 002a 4FF00060 		mov	r0, #134217728
 1850 002e 541C     		adds	r4, r2, #1
 1851              		.loc 1 952 0
 1852 0030 FF21     		movs	r1, #255
 1853              	.LVL187:
 1854              	.L188:
 1855 0032 05EB4312 		add	r2, r5, r3, lsl #5
 1856              		.loc 1 949 0 discriminator 3
 1857 0036 0133     		adds	r3, r3, #1
 1858              	.LVL188:
 1859 0038 9C42     		cmp	r4, r3
 1860              		.loc 1 950 0 discriminator 3
 1861 003a C2F80009 		str	r0, [r2, #2304]
 1862              		.loc 1 951 0 discriminator 3
 1863 003e C2F8000B 		str	r0, [r2, #2816]
 1864              		.loc 1 952 0 discriminator 3
 1865 0042 C2F80819 		str	r1, [r2, #2312]
 1866              		.loc 1 953 0 discriminator 3
 1867 0046 C2F8081B 		str	r1, [r2, #2824]
 1868              		.loc 1 949 0 discriminator 3
 1869 004a F2D1     		bne	.L188
 1870              		.loc 1 957 0
 1871 004c 4FF0FF33 		mov	r3, #-1
 1872              	.LVL189:
 1873 0050 C5F81838 		str	r3, [r5, #2072]
 1874              		.loc 1 958 0
 1875 0054 4FF00112 		mov	r2, #65537
 1876              	.LBB601:
 1877              	.LBB602:
 1878              		.loc 1 198 0
 1879 0058 DCF80030 		ldr	r3, [ip]
 1880              	.LBE602:
 1881              	.LBE601:
ARM GAS  C:\Users\Moi\AppData\Local\Temp\ccOzHcBd.s 			page 34


 1882              		.loc 1 958 0
 1883 005c C5F81C28 		str	r2, [r5, #2076]
 1884              	.LVL190:
 1885              	.LBB604:
 1886              	.LBB603:
 1887              		.loc 1 198 0
 1888 0060 BB65     		str	r3, [r7, #88]
 1889              	.LBE603:
 1890              	.LBE604:
 1891              		.loc 1 964 0
 1892 0062 DCF80030 		ldr	r3, [ip]
 1893 0066 3A6D     		ldr	r2, [r7, #80]
 1894              	.LVL191:
 1895 0068 6B62     		str	r3, [r5, #36]
 1896              	.LBB605:
 1897              	.LBB606:
 1898              		.loc 1 172 0
 1899 006a 1023     		movs	r3, #16
 1900 006c 1361     		str	r3, [r2, #16]
 1901              	.L189:
 1902              		.loc 1 173 0
 1903 006e 1469     		ldr	r4, [r2, #16]
 1904 0070 14F01004 		ands	r4, r4, #16
 1905 0074 FBD1     		bne	.L189
 1906              	.LVL192:
 1907              	.LBB607:
 1908              	.LBB608:
 1909              		.loc 5 527 0
 1910 0076 0C20     		movs	r0, #12
 1911 0078 FFF7FEFF 		bl	chSysPolledDelayX
 1912              	.LVL193:
 1913              	.LBE608:
 1914              	.LBE607:
 1915              	.LBE606:
 1916              	.LBE605:
 1917              		.loc 1 968 0
 1918 007c D5F80038 		ldr	r3, [r5, #2048]
 1919              		.loc 1 976 0
 1920 0080 184A     		ldr	r2, .L197+4
 1921              		.loc 1 968 0
 1922 0082 23F4FE63 		bic	r3, r3, #2032
 1923 0086 C5F80038 		str	r3, [r5, #2048]
 1924              		.loc 1 971 0
 1925 008a AB69     		ldr	r3, [r5, #24]
 1926 008c 43F44023 		orr	r3, r3, #786432
 1927 0090 43F01003 		orr	r3, r3, #16
 1928 0094 AB61     		str	r3, [r5, #24]
 1929              		.loc 1 972 0
 1930 0096 0923     		movs	r3, #9
 1931 0098 C5F81038 		str	r3, [r5, #2064]
 1932              		.loc 1 973 0
 1933 009c C5F81438 		str	r3, [r5, #2068]
 1934              		.loc 1 978 0
 1935 00a0 114B     		ldr	r3, .L197+8
 1936              		.loc 1 976 0
 1937 00a2 FA60     		str	r2, [r7, #12]
 1938              		.loc 1 977 0
ARM GAS  C:\Users\Moi\AppData\Local\Temp\ccOzHcBd.s 			page 35


 1939 00a4 C5F8104B 		str	r4, [r5, #2832]
 1940              		.loc 1 978 0
 1941 00a8 C5F8003B 		str	r3, [r5, #2816]
 1942              		.loc 1 980 0
 1943 00ac C5F81049 		str	r4, [r5, #2320]
 1944              		.loc 1 981 0
 1945 00b0 C5F80039 		str	r3, [r5, #2304]
 1946 00b4 D7E91524 		ldrd	r2, r4, [r7, #84]
 1947              	.LVL194:
 1948              	.LBB609:
 1949              	.LBB610:
 1950              		.loc 1 213 0
 1951 00b8 04F11003 		add	r3, r4, #16
 1952 00bc BB65     		str	r3, [r7, #88]
 1953              		.loc 1 214 0
 1954 00be 5268     		ldr	r2, [r2, #4]
 1955 00c0 9342     		cmp	r3, r2
 1956 00c2 02D9     		bls	.L190
 1957 00c4 0948     		ldr	r0, .L197+12
 1958 00c6 FFF7FEFF 		bl	chSysHalt
 1959              	.LVL195:
 1960              	.L190:
 1961              	.LBE610:
 1962              	.LBE609:
 1963              		.loc 1 983 0
 1964 00ca 44F48014 		orr	r4, r4, #1048576
 1965 00ce AC62     		str	r4, [r5, #40]
 1966              		.loc 1 986 0
 1967 00d0 019A     		ldr	r2, [sp, #4]
 1968 00d2 3368     		ldr	r3, [r6]
 1969 00d4 9A42     		cmp	r2, r3
 1970 00d6 01D1     		bne	.L196
 1971 00d8 03B0     		add	sp, sp, #12
 1972              		.cfi_remember_state
 1973              		.cfi_def_cfa_offset 20
 1974              		@ sp needed
 1975 00da F0BD     		pop	{r4, r5, r6, r7, pc}
 1976              	.LVL196:
 1977              	.L196:
 1978              		.cfi_restore_state
 1979 00dc FFF7FEFF 		bl	__stack_chk_fail
 1980              	.LVL197:
 1981              	.L198:
 1982              		.align	2
 1983              	.L197:
 1984 00e0 00000000 		.word	__stack_chk_guard
 1985 00e4 00000000 		.word	.LANCHOR4
 1986 00e8 40800010 		.word	268468288
 1987 00ec 00000000 		.word	.LANCHOR5
 1988              		.cfi_endproc
 1989              	.LFE277:
 1990              		.size	usb_lld_reset, .-usb_lld_reset
 1991              		.section	.text.usb_lld_set_address,"ax",%progbits
 1992              		.align	1
 1993              		.p2align 4,,15
 1994              		.global	usb_lld_set_address
 1995              		.syntax unified
ARM GAS  C:\Users\Moi\AppData\Local\Temp\ccOzHcBd.s 			page 36


 1996              		.thumb
 1997              		.thumb_func
 1998              		.fpu fpv4-sp-d16
 1999              		.type	usb_lld_set_address, %function
 2000              	usb_lld_set_address:
 2001              	.LFB278:
 2002              		.loc 1 995 0
 2003              		.cfi_startproc
 2004              		@ args = 0, pretend = 0, frame = 8
 2005              		@ frame_needed = 0, uses_anonymous_args = 0
 2006              	.LVL198:
 2007 0000 00B5     		push	{lr}
 2008              		.cfi_def_cfa_offset 4
 2009              		.cfi_offset 14, -4
 2010 0002 0C4A     		ldr	r2, .L203
 2011              		.loc 1 996 0
 2012 0004 016D     		ldr	r1, [r0, #80]
 2013              	.LVL199:
 2014              		.loc 1 995 0
 2015 0006 1368     		ldr	r3, [r2]
 2016              		.loc 1 998 0
 2017 0008 90F84E00 		ldrb	r0, [r0, #78]	@ zero_extendqisi2
 2018              	.LVL200:
 2019              		.loc 1 995 0
 2020 000c 83B0     		sub	sp, sp, #12
 2021              		.cfi_def_cfa_offset 16
 2022              		.loc 1 995 0
 2023 000e 0193     		str	r3, [sp, #4]
 2024              		.loc 1 998 0
 2025 0010 D1F80038 		ldr	r3, [r1, #2048]
 2026 0014 23F4FE63 		bic	r3, r3, #2032
 2027 0018 43EA0013 		orr	r3, r3, r0, lsl #4
 2028 001c C1F80038 		str	r3, [r1, #2048]
 2029              		.loc 1 999 0
 2030 0020 0199     		ldr	r1, [sp, #4]
 2031              	.LVL201:
 2032 0022 1368     		ldr	r3, [r2]
 2033 0024 9942     		cmp	r1, r3
 2034 0026 02D1     		bne	.L202
 2035 0028 03B0     		add	sp, sp, #12
 2036              		.cfi_remember_state
 2037              		.cfi_def_cfa_offset 4
 2038              		@ sp needed
 2039 002a 5DF804FB 		ldr	pc, [sp], #4
 2040              	.L202:
 2041              		.cfi_restore_state
 2042 002e FFF7FEFF 		bl	__stack_chk_fail
 2043              	.LVL202:
 2044              	.L204:
 2045 0032 00BF     		.align	2
 2046              	.L203:
 2047 0034 00000000 		.word	__stack_chk_guard
 2048              		.cfi_endproc
 2049              	.LFE278:
 2050              		.size	usb_lld_set_address, .-usb_lld_set_address
 2051              		.section	.text.usb_lld_init_endpoint,"ax",%progbits
 2052              		.align	1
ARM GAS  C:\Users\Moi\AppData\Local\Temp\ccOzHcBd.s 			page 37


 2053              		.p2align 4,,15
 2054              		.global	usb_lld_init_endpoint
 2055              		.syntax unified
 2056              		.thumb
 2057              		.thumb_func
 2058              		.fpu fpv4-sp-d16
 2059              		.type	usb_lld_init_endpoint, %function
 2060              	usb_lld_init_endpoint:
 2061              	.LFB279:
 2062              		.loc 1 1009 0
 2063              		.cfi_startproc
 2064              		@ args = 0, pretend = 0, frame = 16
 2065              		@ frame_needed = 0, uses_anonymous_args = 0
 2066              	.LVL203:
 2067 0000 2DE9F04F 		push	{r4, r5, r6, r7, r8, r9, r10, fp, lr}
 2068              		.cfi_def_cfa_offset 36
 2069              		.cfi_offset 4, -36
 2070              		.cfi_offset 5, -32
 2071              		.cfi_offset 6, -28
 2072              		.cfi_offset 7, -24
 2073              		.cfi_offset 8, -20
 2074              		.cfi_offset 9, -16
 2075              		.cfi_offset 10, -12
 2076              		.cfi_offset 11, -8
 2077              		.cfi_offset 14, -4
 2078 0004 0EB2     		sxth	r6, r1
 2079 0006 00EB8609 		add	r9, r0, r6, lsl #2
 2080 000a DFF88481 		ldr	r8, .L225+16
 2081              		.loc 1 1014 0
 2082 000e D9F80C30 		ldr	r3, [r9, #12]
 2083 0012 1A68     		ldr	r2, [r3]
 2084              		.loc 1 1009 0
 2085 0014 85B0     		sub	sp, sp, #20
 2086              		.cfi_def_cfa_offset 56
 2087              		.loc 1 1014 0
 2088 0016 02F00302 		and	r2, r2, #3
 2089              		.loc 1 1009 0
 2090 001a 0D46     		mov	r5, r1
 2091              		.loc 1 1014 0
 2092 001c 022A     		cmp	r2, #2
 2093              		.loc 1 1009 0
 2094 001e D8F80010 		ldr	r1, [r8]
 2095              	.LVL204:
 2096 0022 0391     		str	r1, [sp, #12]
 2097 0024 0746     		mov	r7, r0
 2098              	.LVL205:
 2099              		.loc 1 1014 0
 2100 0026 00F09E80 		beq	.L207
 2101 002a 032A     		cmp	r2, #3
 2102 002c 00F09880 		beq	.L208
 2103              		.loc 1 1016 0
 2104 0030 5348     		ldr	r0, .L225
 2105              	.LVL206:
 2106 0032 5449     		ldr	r1, .L225+4
 2107 0034 012A     		cmp	r2, #1
 2108 0036 0CBF     		ite	eq
 2109 0038 8346     		moveq	fp, r0
ARM GAS  C:\Users\Moi\AppData\Local\Temp\ccOzHcBd.s 			page 38


 2110 003a 8B46     		movne	fp, r1
 2111              	.L209:
 2112              		.loc 1 1011 0
 2113 003c 3C6D     		ldr	r4, [r7, #80]
 2114              	.LVL207:
 2115              		.loc 1 1033 0
 2116 003e D868     		ldr	r0, [r3, #12]
 2117              		.loc 1 1032 0
 2118 0040 6A01     		lsls	r2, r5, #5
 2119 0042 A118     		adds	r1, r4, r2
 2120 0044 4FF0000C 		mov	ip, #0
 2121 0048 C1F810CB 		str	ip, [r1, #2832]
 2122 004c 05F11001 		add	r1, r5, #16
 2123 0050 4FF0010C 		mov	ip, #1
 2124 0054 0CFA01F1 		lsl	r1, ip, r1
 2125              		.loc 1 1033 0
 2126 0058 0028     		cmp	r0, #0
 2127 005a 72D0     		beq	.L210
 2128              		.loc 1 1034 0
 2129 005c B3F812C0 		ldrh	ip, [r3, #18]
 2130 0060 05F15800 		add	r0, r5, #88
 2131 0064 4001     		lsls	r0, r0, #5
 2132 0066 4CEA0B0C 		orr	ip, ip, fp
 2133 006a 44F800C0 		str	ip, [r4, r0]
 2134              		.loc 1 1035 0
 2135 006e D4F81C08 		ldr	r0, [r4, #2076]
 2136 0072 0143     		orrs	r1, r1, r0
 2137 0074 C4F81C18 		str	r1, [r4, #2076]
 2138              	.L211:
 2139              		.loc 1 1043 0
 2140 0078 2244     		add	r2, r2, r4
 2141              		.loc 1 1044 0
 2142 007a 9968     		ldr	r1, [r3, #8]
 2143              		.loc 1 1043 0
 2144 007c 0020     		movs	r0, #0
 2145 007e 4FEA851A 		lsl	r10, r5, #6
 2146 0082 C2F81009 		str	r0, [r2, #2320]
 2147 0086 4AF0200A 		orr	r10, r10, #32
 2148 008a 6A1E     		subs	r2, r5, #1
 2149              		.loc 1 1044 0
 2150 008c 0029     		cmp	r1, #0
 2151 008e 37D0     		beq	.L212
 2152              		.loc 1 1046 0
 2153 0090 1E8A     		ldrh	r6, [r3, #16]
 2154              		.loc 1 1047 0
 2155 0092 9B8B     		ldrh	r3, [r3, #28]
 2156              		.loc 1 1046 0
 2157 0094 B608     		lsrs	r6, r6, #2
 2158              	.LVL208:
 2159              		.loc 1 1047 0
 2160 0096 012B     		cmp	r3, #1
 2161              		.loc 1 1048 0
 2162 0098 88BF     		it	hi
 2163 009a 5E43     		mulhi	r6, r3, r6
 2164              	.LVL209:
 2165 009c D7E91513 		ldrd	r1, r3, [r7, #84]
 2166              	.LVL210:
ARM GAS  C:\Users\Moi\AppData\Local\Temp\ccOzHcBd.s 			page 39


 2167              	.LBB611:
 2168              	.LBB612:
 2169              		.loc 1 213 0
 2170 00a0 F018     		adds	r0, r6, r3
 2171 00a2 B865     		str	r0, [r7, #88]
 2172              		.loc 1 214 0
 2173 00a4 4968     		ldr	r1, [r1, #4]
 2174 00a6 8842     		cmp	r0, r1
 2175              	.LBE612:
 2176              	.LBE611:
 2177              		.loc 1 1049 0
 2178 00a8 4FEA0646 		lsl	r6, r6, #16
 2179              	.LVL211:
 2180              	.LBB615:
 2181              	.LBB613:
 2182              		.loc 1 214 0
 2183 00ac 5ED8     		bhi	.L223
 2184              	.LVL212:
 2185              	.L214:
 2186              	.LBE613:
 2187              	.LBE615:
 2188              		.loc 1 1049 0
 2189 00ae 4032     		adds	r2, r2, #64
 2190 00b0 396D     		ldr	r1, [r7, #80]
 2191              	.LVL213:
 2192 00b2 04EB8202 		add	r2, r4, r2, lsl #2
 2193 00b6 1E43     		orrs	r6, r6, r3
 2194 00b8 5660     		str	r6, [r2, #4]
 2195              	.LBB616:
 2196              	.LBB617:
 2197              		.loc 1 182 0
 2198 00ba C1F810A0 		str	r10, [r1, #16]
 2199              	.L215:
 2200              		.loc 1 183 0
 2201 00be 0B69     		ldr	r3, [r1, #16]
 2202 00c0 9A06     		lsls	r2, r3, #26
 2203 00c2 FCD4     		bmi	.L215
 2204              	.LVL214:
 2205              	.LBB618:
 2206              	.LBB619:
 2207              		.loc 5 527 0
 2208 00c4 0C20     		movs	r0, #12
 2209 00c6 FFF7FEFF 		bl	chSysPolledDelayX
 2210              	.LVL215:
 2211              	.LBE619:
 2212              	.LBE618:
 2213              	.LBE617:
 2214              	.LBE616:
 2215              		.loc 1 1055 0
 2216 00ca D9F80C30 		ldr	r3, [r9, #12]
 2217 00ce 1A8A     		ldrh	r2, [r3, #16]
 2218              		.loc 1 1053 0
 2219 00d0 05F14803 		add	r3, r5, #72
 2220              		.loc 1 1054 0
 2221 00d4 42EA8552 		orr	r2, r2, r5, lsl #22
 2222              		.loc 1 1053 0
 2223 00d8 5B01     		lsls	r3, r3, #5
ARM GAS  C:\Users\Moi\AppData\Local\Temp\ccOzHcBd.s 			page 40


 2224              		.loc 1 1054 0
 2225 00da 42EA0B02 		orr	r2, r2, fp
 2226              		.loc 1 1053 0
 2227 00de E250     		str	r2, [r4, r3]
 2228              		.loc 1 1056 0
 2229 00e0 0121     		movs	r1, #1
 2230 00e2 D4F81C38 		ldr	r3, [r4, #2076]
 2231 00e6 01FA05F5 		lsl	r5, r1, r5
 2232 00ea 1D43     		orrs	r5, r5, r3
 2233 00ec C4F81C58 		str	r5, [r4, #2076]
 2234              	.LVL216:
 2235              	.L205:
 2236              		.loc 1 1064 0
 2237 00f0 039A     		ldr	r2, [sp, #12]
 2238 00f2 D8F80030 		ldr	r3, [r8]
 2239 00f6 9A42     		cmp	r2, r3
 2240 00f8 40D1     		bne	.L224
 2241 00fa 05B0     		add	sp, sp, #20
 2242              		.cfi_remember_state
 2243              		.cfi_def_cfa_offset 36
 2244              		@ sp needed
 2245 00fc BDE8F08F 		pop	{r4, r5, r6, r7, r8, r9, r10, fp, pc}
 2246              	.LVL217:
 2247              	.L212:
 2248              		.cfi_restore_state
 2249              		.loc 1 1059 0
 2250 0100 05F13F03 		add	r3, r5, #63
 2251 0104 3A6D     		ldr	r2, [r7, #80]
 2252              	.LVL218:
 2253 0106 2049     		ldr	r1, .L225+8
 2254 0108 04EB8303 		add	r3, r4, r3, lsl #2
 2255 010c 5960     		str	r1, [r3, #4]
 2256              	.LBB620:
 2257              	.LBB621:
 2258              		.loc 1 182 0
 2259 010e C2F810A0 		str	r10, [r2, #16]
 2260              	.L217:
 2261              		.loc 1 183 0
 2262 0112 1369     		ldr	r3, [r2, #16]
 2263 0114 9B06     		lsls	r3, r3, #26
 2264 0116 FCD4     		bmi	.L217
 2265              	.LVL219:
 2266 0118 04EB4616 		add	r6, r4, r6, lsl #5
 2267              	.LBB622:
 2268              	.LBB623:
 2269              		.loc 5 527 0
 2270 011c 0C20     		movs	r0, #12
 2271 011e FFF7FEFF 		bl	chSysPolledDelayX
 2272              	.LVL220:
 2273              	.LBE623:
 2274              	.LBE622:
 2275              	.LBE621:
 2276              	.LBE620:
 2277              		.loc 1 1061 0
 2278 0122 D6F80039 		ldr	r3, [r6, #2304]
 2279 0126 23F40043 		bic	r3, r3, #32768
 2280 012a C6F80039 		str	r3, [r6, #2304]
ARM GAS  C:\Users\Moi\AppData\Local\Temp\ccOzHcBd.s 			page 41


 2281              		.loc 1 1062 0
 2282 012e D4F81C38 		ldr	r3, [r4, #2076]
 2283 0132 0121     		movs	r1, #1
 2284 0134 01FA05F5 		lsl	r5, r1, r5
 2285 0138 23EA0505 		bic	r5, r3, r5
 2286 013c C4F81C58 		str	r5, [r4, #2076]
 2287 0140 D6E7     		b	.L205
 2288              	.LVL221:
 2289              	.L210:
 2290 0142 04EB461C 		add	ip, r4, r6, lsl #5
 2291              		.loc 1 1038 0
 2292 0146 DCF8000B 		ldr	r0, [ip, #2816]
 2293 014a 20F40040 		bic	r0, r0, #32768
 2294 014e CCF8000B 		str	r0, [ip, #2816]
 2295              		.loc 1 1039 0
 2296 0152 D4F81C08 		ldr	r0, [r4, #2076]
 2297 0156 20EA0101 		bic	r1, r0, r1
 2298 015a C4F81C18 		str	r1, [r4, #2076]
 2299 015e 8BE7     		b	.L211
 2300              	.LVL222:
 2301              	.L208:
 2302              		.loc 1 1025 0
 2303 0160 DFF830B0 		ldr	fp, .L225+20
 2304              		.loc 1 1026 0
 2305 0164 6AE7     		b	.L209
 2306              	.LVL223:
 2307              	.L207:
 2308              		.loc 1 1022 0
 2309 0166 DFF830B0 		ldr	fp, .L225+24
 2310              		.loc 1 1023 0
 2311 016a 67E7     		b	.L209
 2312              	.LVL224:
 2313              	.L223:
 2314              	.LBB624:
 2315              	.LBB614:
 2316              		.loc 1 214 0
 2317 016c 0748     		ldr	r0, .L225+12
 2318 016e CDE90032 		strd	r3, r2, [sp]
 2319 0172 FFF7FEFF 		bl	chSysHalt
 2320              	.LVL225:
 2321 0176 DDE90032 		ldrd	r3, r2, [sp]
 2322 017a 98E7     		b	.L214
 2323              	.LVL226:
 2324              	.L224:
 2325              	.LBE614:
 2326              	.LBE624:
 2327              		.loc 1 1064 0
 2328 017c FFF7FEFF 		bl	__stack_chk_fail
 2329              	.LVL227:
 2330              	.L226:
 2331              		.align	2
 2332              	.L225:
 2333 0180 00800410 		.word	268730368
 2334 0184 00800010 		.word	268468224
 2335 0188 00040002 		.word	33555456
 2336 018c 00000000 		.word	.LANCHOR5
 2337 0190 00000000 		.word	__stack_chk_guard
ARM GAS  C:\Users\Moi\AppData\Local\Temp\ccOzHcBd.s 			page 42


 2338 0194 00800C10 		.word	269254656
 2339 0198 00800810 		.word	268992512
 2340              		.cfi_endproc
 2341              	.LFE279:
 2342              		.size	usb_lld_init_endpoint, .-usb_lld_init_endpoint
 2343              		.section	.text.usb_lld_disable_endpoints,"ax",%progbits
 2344              		.align	1
 2345              		.p2align 4,,15
 2346              		.global	usb_lld_disable_endpoints
 2347              		.syntax unified
 2348              		.thumb
 2349              		.thumb_func
 2350              		.fpu fpv4-sp-d16
 2351              		.type	usb_lld_disable_endpoints, %function
 2352              	usb_lld_disable_endpoints:
 2353              	.LFB280:
 2354              		.loc 1 1073 0
 2355              		.cfi_startproc
 2356              		@ args = 0, pretend = 0, frame = 8
 2357              		@ frame_needed = 0, uses_anonymous_args = 0
 2358              	.LVL228:
 2359 0000 10B5     		push	{r4, lr}
 2360              		.cfi_def_cfa_offset 8
 2361              		.cfi_offset 4, -8
 2362              		.cfi_offset 14, -4
 2363 0002 094B     		ldr	r3, .L232
 2364 0004 416D     		ldr	r1, [r0, #84]
 2365              	.LVL229:
 2366 0006 1A68     		ldr	r2, [r3]
 2367              	.LBB625:
 2368              	.LBB626:
 2369              		.loc 1 198 0
 2370 0008 0C68     		ldr	r4, [r1]
 2371 000a 8465     		str	r4, [r0, #88]
 2372              	.LBE626:
 2373              	.LBE625:
 2374              		.loc 1 1073 0
 2375 000c 82B0     		sub	sp, sp, #8
 2376              		.cfi_def_cfa_offset 16
 2377              		.loc 1 1073 0
 2378 000e 0192     		str	r2, [sp, #4]
 2379              		.loc 1 1079 0
 2380 0010 019A     		ldr	r2, [sp, #4]
 2381 0012 1B68     		ldr	r3, [r3]
 2382 0014 9A42     		cmp	r2, r3
 2383 0016 05D1     		bne	.L231
 2384 0018 006D     		ldr	r0, [r0, #80]
 2385              	.LVL230:
 2386              		.loc 1 1080 0
 2387 001a 02B0     		add	sp, sp, #8
 2388              		.cfi_remember_state
 2389              		.cfi_def_cfa_offset 8
 2390              		@ sp needed
 2391 001c BDE81040 		pop	{r4, lr}
 2392              		.cfi_restore 14
 2393              		.cfi_restore 4
 2394              		.cfi_def_cfa_offset 0
ARM GAS  C:\Users\Moi\AppData\Local\Temp\ccOzHcBd.s 			page 43


 2395              		.loc 1 1079 0
 2396 0020 FFF7FEBF 		b	otg_disable_ep.isra.0
 2397              	.LVL231:
 2398              	.L231:
 2399              		.cfi_restore_state
 2400 0024 FFF7FEFF 		bl	__stack_chk_fail
 2401              	.LVL232:
 2402              	.L233:
 2403              		.align	2
 2404              	.L232:
 2405 0028 00000000 		.word	__stack_chk_guard
 2406              		.cfi_endproc
 2407              	.LFE280:
 2408              		.size	usb_lld_disable_endpoints, .-usb_lld_disable_endpoints
 2409              		.section	.text.usb_lld_get_status_out,"ax",%progbits
 2410              		.align	1
 2411              		.p2align 4,,15
 2412              		.global	usb_lld_get_status_out
 2413              		.syntax unified
 2414              		.thumb
 2415              		.thumb_func
 2416              		.fpu fpv4-sp-d16
 2417              		.type	usb_lld_get_status_out, %function
 2418              	usb_lld_get_status_out:
 2419              	.LFB281:
 2420              		.loc 1 1094 0
 2421              		.cfi_startproc
 2422              		@ args = 0, pretend = 0, frame = 8
 2423              		@ frame_needed = 0, uses_anonymous_args = 0
 2424              	.LVL233:
 2425 0000 00B5     		push	{lr}
 2426              		.cfi_def_cfa_offset 4
 2427              		.cfi_offset 14, -4
 2428 0002 0C4A     		ldr	r2, .L241
 2429              		.loc 1 1099 0
 2430 0004 036D     		ldr	r3, [r0, #80]
 2431              		.loc 1 1094 0
 2432 0006 1068     		ldr	r0, [r2]
 2433              	.LVL234:
 2434 0008 83B0     		sub	sp, sp, #12
 2435              		.cfi_def_cfa_offset 16
 2436              		.loc 1 1099 0
 2437 000a 5831     		adds	r1, r1, #88
 2438              	.LVL235:
 2439 000c 4901     		lsls	r1, r1, #5
 2440              		.loc 1 1094 0
 2441 000e 0190     		str	r0, [sp, #4]
 2442              		.loc 1 1099 0
 2443 0010 5B58     		ldr	r3, [r3, r1]
 2444              	.LVL236:
 2445              		.loc 1 1100 0
 2446 0012 13F40040 		ands	r0, r3, #32768
 2447 0016 04D0     		beq	.L235
 2448              		.loc 1 1102 0
 2449 0018 13F4001F 		tst	r3, #2097152
 2450              		.loc 1 1104 0
 2451 001c 14BF     		ite	ne
ARM GAS  C:\Users\Moi\AppData\Local\Temp\ccOzHcBd.s 			page 44


 2452 001e 0120     		movne	r0, #1
 2453 0020 0220     		moveq	r0, #2
 2454              	.L235:
 2455              		.loc 1 1105 0
 2456 0022 0199     		ldr	r1, [sp, #4]
 2457 0024 1368     		ldr	r3, [r2]
 2458              	.LVL237:
 2459 0026 9942     		cmp	r1, r3
 2460 0028 02D1     		bne	.L240
 2461 002a 03B0     		add	sp, sp, #12
 2462              		.cfi_remember_state
 2463              		.cfi_def_cfa_offset 4
 2464              		@ sp needed
 2465 002c 5DF804FB 		ldr	pc, [sp], #4
 2466              	.L240:
 2467              		.cfi_restore_state
 2468 0030 FFF7FEFF 		bl	__stack_chk_fail
 2469              	.LVL238:
 2470              	.L242:
 2471              		.align	2
 2472              	.L241:
 2473 0034 00000000 		.word	__stack_chk_guard
 2474              		.cfi_endproc
 2475              	.LFE281:
 2476              		.size	usb_lld_get_status_out, .-usb_lld_get_status_out
 2477              		.section	.text.usb_lld_get_status_in,"ax",%progbits
 2478              		.align	1
 2479              		.p2align 4,,15
 2480              		.global	usb_lld_get_status_in
 2481              		.syntax unified
 2482              		.thumb
 2483              		.thumb_func
 2484              		.fpu fpv4-sp-d16
 2485              		.type	usb_lld_get_status_in, %function
 2486              	usb_lld_get_status_in:
 2487              	.LFB282:
 2488              		.loc 1 1119 0
 2489              		.cfi_startproc
 2490              		@ args = 0, pretend = 0, frame = 8
 2491              		@ frame_needed = 0, uses_anonymous_args = 0
 2492              	.LVL239:
 2493 0000 00B5     		push	{lr}
 2494              		.cfi_def_cfa_offset 4
 2495              		.cfi_offset 14, -4
 2496 0002 0C4A     		ldr	r2, .L250
 2497              		.loc 1 1124 0
 2498 0004 036D     		ldr	r3, [r0, #80]
 2499              		.loc 1 1119 0
 2500 0006 1068     		ldr	r0, [r2]
 2501              	.LVL240:
 2502 0008 83B0     		sub	sp, sp, #12
 2503              		.cfi_def_cfa_offset 16
 2504              		.loc 1 1124 0
 2505 000a 4831     		adds	r1, r1, #72
 2506              	.LVL241:
 2507 000c 4901     		lsls	r1, r1, #5
 2508              		.loc 1 1119 0
ARM GAS  C:\Users\Moi\AppData\Local\Temp\ccOzHcBd.s 			page 45


 2509 000e 0190     		str	r0, [sp, #4]
 2510              		.loc 1 1124 0
 2511 0010 5B58     		ldr	r3, [r3, r1]
 2512              	.LVL242:
 2513              		.loc 1 1125 0
 2514 0012 13F40040 		ands	r0, r3, #32768
 2515 0016 04D0     		beq	.L244
 2516              		.loc 1 1127 0
 2517 0018 13F4001F 		tst	r3, #2097152
 2518              		.loc 1 1129 0
 2519 001c 14BF     		ite	ne
 2520 001e 0120     		movne	r0, #1
 2521 0020 0220     		moveq	r0, #2
 2522              	.L244:
 2523              		.loc 1 1130 0
 2524 0022 0199     		ldr	r1, [sp, #4]
 2525 0024 1368     		ldr	r3, [r2]
 2526              	.LVL243:
 2527 0026 9942     		cmp	r1, r3
 2528 0028 02D1     		bne	.L249
 2529 002a 03B0     		add	sp, sp, #12
 2530              		.cfi_remember_state
 2531              		.cfi_def_cfa_offset 4
 2532              		@ sp needed
 2533 002c 5DF804FB 		ldr	pc, [sp], #4
 2534              	.L249:
 2535              		.cfi_restore_state
 2536 0030 FFF7FEFF 		bl	__stack_chk_fail
 2537              	.LVL244:
 2538              	.L251:
 2539              		.align	2
 2540              	.L250:
 2541 0034 00000000 		.word	__stack_chk_guard
 2542              		.cfi_endproc
 2543              	.LFE282:
 2544              		.size	usb_lld_get_status_in, .-usb_lld_get_status_in
 2545              		.section	.text.usb_lld_read_setup,"ax",%progbits
 2546              		.align	1
 2547              		.p2align 4,,15
 2548              		.global	usb_lld_read_setup
 2549              		.syntax unified
 2550              		.thumb
 2551              		.thumb_func
 2552              		.fpu fpv4-sp-d16
 2553              		.type	usb_lld_read_setup, %function
 2554              	usb_lld_read_setup:
 2555              	.LFB283:
 2556              		.loc 1 1146 0
 2557              		.cfi_startproc
 2558              		@ args = 0, pretend = 0, frame = 8
 2559              		@ frame_needed = 0, uses_anonymous_args = 0
 2560              	.LVL245:
 2561 0000 10B5     		push	{r4, lr}
 2562              		.cfi_def_cfa_offset 8
 2563              		.cfi_offset 4, -8
 2564              		.cfi_offset 14, -4
 2565              		.loc 1 1148 0
ARM GAS  C:\Users\Moi\AppData\Local\Temp\ccOzHcBd.s 			page 46


 2566 0002 00EB8101 		add	r1, r0, r1, lsl #2
 2567              	.LVL246:
 2568              		.loc 1 1146 0
 2569 0006 094B     		ldr	r3, .L256
 2570              		.loc 1 1148 0
 2571 0008 C968     		ldr	r1, [r1, #12]
 2572              		.loc 1 1146 0
 2573 000a 1868     		ldr	r0, [r3]
 2574              	.LVL247:
 2575              		.loc 1 1148 0
 2576 000c 096A     		ldr	r1, [r1, #32]
 2577              		.loc 1 1146 0
 2578 000e 82B0     		sub	sp, sp, #8
 2579              		.cfi_def_cfa_offset 16
 2580              		.loc 1 1148 0
 2581 0010 0C68     		ldr	r4, [r1]	@ unaligned
 2582              		.loc 1 1146 0
 2583 0012 0190     		str	r0, [sp, #4]
 2584              		.loc 1 1148 0
 2585 0014 4868     		ldr	r0, [r1, #4]	@ unaligned
 2586 0016 1460     		str	r4, [r2]	@ unaligned
 2587              		.loc 1 1149 0
 2588 0018 0199     		ldr	r1, [sp, #4]
 2589 001a 1B68     		ldr	r3, [r3]
 2590              		.loc 1 1148 0
 2591 001c 5060     		str	r0, [r2, #4]	@ unaligned
 2592              		.loc 1 1149 0
 2593 001e 9942     		cmp	r1, r3
 2594 0020 01D1     		bne	.L255
 2595 0022 02B0     		add	sp, sp, #8
 2596              		.cfi_remember_state
 2597              		.cfi_def_cfa_offset 8
 2598              		@ sp needed
 2599 0024 10BD     		pop	{r4, pc}
 2600              	.L255:
 2601              		.cfi_restore_state
 2602 0026 FFF7FEFF 		bl	__stack_chk_fail
 2603              	.LVL248:
 2604              	.L257:
 2605 002a 00BF     		.align	2
 2606              	.L256:
 2607 002c 00000000 		.word	__stack_chk_guard
 2608              		.cfi_endproc
 2609              	.LFE283:
 2610              		.size	usb_lld_read_setup, .-usb_lld_read_setup
 2611              		.section	.text.usb_lld_prepare_receive,"ax",%progbits
 2612              		.align	1
 2613              		.p2align 4,,15
 2614              		.global	usb_lld_prepare_receive
 2615              		.syntax unified
 2616              		.thumb
 2617              		.thumb_func
 2618              		.fpu fpv4-sp-d16
 2619              		.type	usb_lld_prepare_receive, %function
 2620              	usb_lld_prepare_receive:
 2621              	.LFB284:
 2622              		.loc 1 1159 0
ARM GAS  C:\Users\Moi\AppData\Local\Temp\ccOzHcBd.s 			page 47


 2623              		.cfi_startproc
 2624              		@ args = 0, pretend = 0, frame = 8
 2625              		@ frame_needed = 0, uses_anonymous_args = 0
 2626              	.LVL249:
 2627 0000 F0B5     		push	{r4, r5, r6, r7, lr}
 2628              		.cfi_def_cfa_offset 20
 2629              		.cfi_offset 4, -20
 2630              		.cfi_offset 5, -16
 2631              		.cfi_offset 6, -12
 2632              		.cfi_offset 7, -8
 2633              		.cfi_offset 14, -4
 2634              		.loc 1 1161 0
 2635 0002 00EB8103 		add	r3, r0, r1, lsl #2
 2636              		.loc 1 1159 0
 2637 0006 124E     		ldr	r6, .L266
 2638              		.loc 1 1161 0
 2639 0008 DF68     		ldr	r7, [r3, #12]
 2640              		.loc 1 1159 0
 2641 000a 3368     		ldr	r3, [r6]
 2642              		.loc 1 1161 0
 2643 000c BD69     		ldr	r5, [r7, #24]
 2644              	.LVL250:
 2645              		.loc 1 1159 0
 2646 000e 83B0     		sub	sp, sp, #12
 2647              		.cfi_def_cfa_offset 32
 2648              		.loc 1 1164 0
 2649 0010 6A68     		ldr	r2, [r5, #4]
 2650              		.loc 1 1159 0
 2651 0012 0193     		str	r3, [sp, #4]
 2652              		.loc 1 1164 0
 2653 0014 2A61     		str	r2, [r5, #16]
 2654              		.loc 1 1165 0
 2655 0016 29B9     		cbnz	r1, .L264
 2656              		.loc 1 1165 0 is_stmt 0 discriminator 1
 2657 0018 402A     		cmp	r2, #64
 2658 001a 03D9     		bls	.L264
 2659              		.loc 1 1166 0 is_stmt 1
 2660 001c 4022     		movs	r2, #64
 2661 001e 0D4C     		ldr	r4, .L266+4
 2662 0020 6A60     		str	r2, [r5, #4]
 2663 0022 01E0     		b	.L260
 2664              	.L264:
 2665 0024 42F0C044 		orr	r4, r2, #1610612736
 2666              	.L260:
 2667              		.loc 1 1168 0
 2668 0028 7D8A     		ldrh	r5, [r7, #18]
 2669              	.LVL251:
 2670              		.loc 1 1170 0
 2671 002a 006D     		ldr	r0, [r0, #80]
 2672              	.LVL252:
 2673              		.loc 1 1168 0
 2674 002c 6B1E     		subs	r3, r5, #1
 2675              		.loc 1 1170 0
 2676 002e 00EB4111 		add	r1, r0, r1, lsl #5
 2677              	.LVL253:
 2678              		.loc 1 1168 0
 2679 0032 1344     		add	r3, r3, r2
ARM GAS  C:\Users\Moi\AppData\Local\Temp\ccOzHcBd.s 			page 48


 2680 0034 B3FBF5F3 		udiv	r3, r3, r5
 2681              		.loc 1 1170 0
 2682 0038 44EAC343 		orr	r3, r4, r3, lsl #19
 2683 003c C1F8103B 		str	r3, [r1, #2832]
 2684              		.loc 1 1173 0
 2685 0040 019A     		ldr	r2, [sp, #4]
 2686              	.LVL254:
 2687 0042 3368     		ldr	r3, [r6]
 2688 0044 9A42     		cmp	r2, r3
 2689 0046 01D1     		bne	.L265
 2690 0048 03B0     		add	sp, sp, #12
 2691              		.cfi_remember_state
 2692              		.cfi_def_cfa_offset 20
 2693              		@ sp needed
 2694 004a F0BD     		pop	{r4, r5, r6, r7, pc}
 2695              	.LVL255:
 2696              	.L265:
 2697              		.cfi_restore_state
 2698 004c FFF7FEFF 		bl	__stack_chk_fail
 2699              	.LVL256:
 2700              	.L267:
 2701              		.align	2
 2702              	.L266:
 2703 0050 00000000 		.word	__stack_chk_guard
 2704 0054 40000060 		.word	1610612800
 2705              		.cfi_endproc
 2706              	.LFE284:
 2707              		.size	usb_lld_prepare_receive, .-usb_lld_prepare_receive
 2708              		.section	.text.otg_epout_handler.constprop.7,"ax",%progbits
 2709              		.align	1
 2710              		.p2align 4,,15
 2711              		.syntax unified
 2712              		.thumb
 2713              		.thumb_func
 2714              		.fpu fpv4-sp-d16
 2715              		.type	otg_epout_handler.constprop.7, %function
 2716              	otg_epout_handler.constprop.7:
 2717              	.LFB300:
 2718              		.loc 1 581 0
 2719              		.cfi_startproc
 2720              		@ args = 0, pretend = 0, frame = 8
 2721              		@ frame_needed = 0, uses_anonymous_args = 0
 2722              	.LVL257:
 2723 0000 2DE9F041 		push	{r4, r5, r6, r7, r8, lr}
 2724              		.cfi_def_cfa_offset 24
 2725              		.cfi_offset 4, -24
 2726              		.cfi_offset 5, -20
 2727              		.cfi_offset 6, -16
 2728              		.cfi_offset 7, -12
 2729              		.cfi_offset 8, -8
 2730              		.cfi_offset 14, -4
 2731              		.loc 1 582 0
 2732 0004 314E     		ldr	r6, .L289
 2733              		.loc 1 581 0
 2734 0006 DFF8C880 		ldr	r8, .L289+4
 2735              		.loc 1 582 0
 2736 000a 376D     		ldr	r7, [r6, #80]
ARM GAS  C:\Users\Moi\AppData\Local\Temp\ccOzHcBd.s 			page 49


 2737              		.loc 1 581 0
 2738 000c D8F80030 		ldr	r3, [r8]
 2739 0010 82B0     		sub	sp, sp, #8
 2740              		.cfi_def_cfa_offset 32
 2741              		.loc 1 581 0
 2742 0012 0546     		mov	r5, r0
 2743 0014 0193     		str	r3, [sp, #4]
 2744              	.LVL258:
 2745              		.loc 1 583 0
 2746 0016 07EB4013 		add	r3, r7, r0, lsl #5
 2747 001a D3F8084B 		ldr	r4, [r3, #2824]
 2748              	.LVL259:
 2749              		.loc 1 586 0
 2750 001e C3F8084B 		str	r4, [r3, #2824]
 2751              		.loc 1 588 0
 2752 0022 2007     		lsls	r0, r4, #28
 2753              	.LVL260:
 2754 0024 0AD5     		bpl	.L269
 2755 0026 D7F81438 		ldr	r3, [r7, #2068]
 2756 002a 1907     		lsls	r1, r3, #28
 2757 002c 06D5     		bpl	.L269
 2758              		.loc 1 591 0
 2759 002e 06EB8503 		add	r3, r6, r5, lsl #2
 2760 0032 2946     		mov	r1, r5
 2761 0034 DB68     		ldr	r3, [r3, #12]
 2762 0036 3046     		mov	r0, r6
 2763 0038 5B68     		ldr	r3, [r3, #4]
 2764 003a 9847     		blx	r3
 2765              	.LVL261:
 2766              	.L269:
 2767              		.loc 1 594 0
 2768 003c E207     		lsls	r2, r4, #31
 2769 003e 3BD5     		bpl	.L268
 2770 0040 D7F81438 		ldr	r3, [r7, #2068]
 2771 0044 DB07     		lsls	r3, r3, #31
 2772 0046 37D5     		bpl	.L268
 2773              	.LBB627:
 2774              		.loc 1 596 0
 2775 0048 06EB8503 		add	r3, r6, r5, lsl #2
 2776 004c D968     		ldr	r1, [r3, #12]
 2777 004e 8B69     		ldr	r3, [r1, #24]
 2778              	.LVL262:
 2779              		.loc 1 598 0
 2780 0050 5868     		ldr	r0, [r3, #4]
 2781 0052 1A69     		ldr	r2, [r3, #16]
 2782 0054 9042     		cmp	r0, r2
 2783 0056 11D3     		bcc	.L288
 2784              		.loc 1 611 0
 2785 0058 7389     		ldrh	r3, [r6, #10]
 2786              	.LVL263:
 2787 005a 019C     		ldr	r4, [sp, #4]
 2788              	.LVL264:
 2789 005c D8F80000 		ldr	r0, [r8]
 2790 0060 0122     		movs	r2, #1
 2791 0062 AA40     		lsls	r2, r2, r5
 2792 0064 23EA0203 		bic	r3, r3, r2
 2793 0068 8442     		cmp	r4, r0
ARM GAS  C:\Users\Moi\AppData\Local\Temp\ccOzHcBd.s 			page 50


 2794 006a 7381     		strh	r3, [r6, #10]	@ movhi
 2795 006c 2CD1     		bne	.L287
 2796 006e CB68     		ldr	r3, [r1, #12]
 2797 0070 1648     		ldr	r0, .L289
 2798 0072 2946     		mov	r1, r5
 2799              	.LVL265:
 2800              	.LBE627:
 2801              		.loc 1 614 0
 2802 0074 02B0     		add	sp, sp, #8
 2803              		.cfi_remember_state
 2804              		.cfi_def_cfa_offset 24
 2805              		@ sp needed
 2806 0076 BDE8F041 		pop	{r4, r5, r6, r7, r8, lr}
 2807              		.cfi_restore 14
 2808              		.cfi_restore 8
 2809              		.cfi_restore 7
 2810              		.cfi_restore 6
 2811              		.cfi_restore 5
 2812              		.cfi_restore 4
 2813              		.cfi_def_cfa_offset 0
 2814              	.LVL266:
 2815              	.LBB642:
 2816              		.loc 1 611 0
 2817 007a 1847     		bx	r3	@ indirect register sibling call
 2818              	.LVL267:
 2819              	.L288:
 2820              		.cfi_restore_state
 2821              		.loc 1 602 0
 2822 007c 121A     		subs	r2, r2, r0
 2823              		.loc 1 603 0
 2824 007e 0024     		movs	r4, #0
 2825              	.LVL268:
 2826 0080 C3E90124 		strd	r2, r4, [r3, #4]
 2827              		.loc 1 604 0
 2828 0084 2946     		mov	r1, r5
 2829 0086 1148     		ldr	r0, .L289
 2830 0088 FFF7FEFF 		bl	usb_lld_prepare_receive
 2831              	.LVL269:
 2832              	.LBB628:
 2833              	.LBB629:
 2834              	.LBB630:
 2835              	.LBB631:
 2836              	.LBB632:
 2837              	.LBB633:
 2838              		.loc 3 546 0
 2839 008c 2023     		movs	r3, #32
 2840              		.syntax unified
 2841              	@ 546 "..//ChibiOS//os/ext/CMSIS/include/core_cmFunc.h" 1
 2842 008e 83F31188 		MSR basepri, r3
 2843              	@ 0 "" 2
 2844              	.LVL270:
 2845              		.thumb
 2846              		.syntax unified
 2847              	.LBE633:
 2848              	.LBE632:
 2849              	.LBE631:
 2850              	.LBE630:
ARM GAS  C:\Users\Moi\AppData\Local\Temp\ccOzHcBd.s 			page 51


 2851              		.loc 4 389 0
 2852 0092 FFF7FEFF 		bl	_stats_start_measure_crit_isr
 2853              	.LVL271:
 2854              		.loc 4 390 0
 2855 0096 FFF7FEFF 		bl	_dbg_check_lock_from_isr
 2856              	.LVL272:
 2857 009a 336D     		ldr	r3, [r6, #80]
 2858 009c 03EB4515 		add	r5, r3, r5, lsl #5
 2859              	.LVL273:
 2860              	.LBE629:
 2861              	.LBE628:
 2862              	.LBB634:
 2863              	.LBB635:
 2864              		.loc 1 1214 0
 2865 00a0 D5F8003B 		ldr	r3, [r5, #2816]
 2866 00a4 43F08063 		orr	r3, r3, #67108864
 2867 00a8 C5F8003B 		str	r3, [r5, #2816]
 2868              	.LVL274:
 2869              	.LBE635:
 2870              	.LBE634:
 2871              	.LBB636:
 2872              	.LBB637:
 2873              		.loc 4 408 0
 2874 00ac FFF7FEFF 		bl	_dbg_check_unlock_from_isr
 2875              	.LVL275:
 2876              		.loc 4 409 0
 2877 00b0 FFF7FEFF 		bl	_stats_stop_measure_crit_isr
 2878              	.LVL276:
 2879              	.LBB638:
 2880              	.LBB639:
 2881              	.LBB640:
 2882              	.LBB641:
 2883              		.loc 3 546 0
 2884              		.syntax unified
 2885              	@ 546 "..//ChibiOS//os/ext/CMSIS/include/core_cmFunc.h" 1
 2886 00b4 84F31188 		MSR basepri, r4
 2887              	@ 0 "" 2
 2888              	.LVL277:
 2889              		.thumb
 2890              		.syntax unified
 2891              	.L268:
 2892              	.LBE641:
 2893              	.LBE640:
 2894              	.LBE639:
 2895              	.LBE638:
 2896              	.LBE637:
 2897              	.LBE636:
 2898              	.LBE642:
 2899              		.loc 1 614 0
 2900 00b8 019A     		ldr	r2, [sp, #4]
 2901 00ba D8F80030 		ldr	r3, [r8]
 2902 00be 9A42     		cmp	r2, r3
 2903 00c0 02D1     		bne	.L287
 2904 00c2 02B0     		add	sp, sp, #8
 2905              		.cfi_remember_state
 2906              		.cfi_def_cfa_offset 24
 2907              		@ sp needed
ARM GAS  C:\Users\Moi\AppData\Local\Temp\ccOzHcBd.s 			page 52


 2908 00c4 BDE8F081 		pop	{r4, r5, r6, r7, r8, pc}
 2909              	.LVL278:
 2910              	.L287:
 2911              		.cfi_restore_state
 2912 00c8 FFF7FEFF 		bl	__stack_chk_fail
 2913              	.LVL279:
 2914              	.L290:
 2915              		.align	2
 2916              	.L289:
 2917 00cc 00000000 		.word	.LANCHOR1
 2918 00d0 00000000 		.word	__stack_chk_guard
 2919              		.cfi_endproc
 2920              	.LFE300:
 2921              		.size	otg_epout_handler.constprop.7, .-otg_epout_handler.constprop.7
 2922              		.section	.text.usb_lld_prepare_transmit,"ax",%progbits
 2923              		.align	1
 2924              		.p2align 4,,15
 2925              		.global	usb_lld_prepare_transmit
 2926              		.syntax unified
 2927              		.thumb
 2928              		.thumb_func
 2929              		.fpu fpv4-sp-d16
 2930              		.type	usb_lld_prepare_transmit, %function
 2931              	usb_lld_prepare_transmit:
 2932              	.LFB285:
 2933              		.loc 1 1183 0
 2934              		.cfi_startproc
 2935              		@ args = 0, pretend = 0, frame = 8
 2936              		@ frame_needed = 0, uses_anonymous_args = 0
 2937              	.LVL280:
 2938              		.loc 1 1184 0
 2939 0000 00EB8103 		add	r3, r0, r1, lsl #2
 2940              		.loc 1 1183 0
 2941 0004 F0B5     		push	{r4, r5, r6, r7, lr}
 2942              		.cfi_def_cfa_offset 20
 2943              		.cfi_offset 4, -20
 2944              		.cfi_offset 5, -16
 2945              		.cfi_offset 6, -12
 2946              		.cfi_offset 7, -8
 2947              		.cfi_offset 14, -4
 2948              		.loc 1 1184 0
 2949 0006 DE68     		ldr	r6, [r3, #12]
 2950              		.loc 1 1183 0
 2951 0008 144D     		ldr	r5, .L300
 2952              		.loc 1 1184 0
 2953 000a 7469     		ldr	r4, [r6, #20]
 2954              	.LVL281:
 2955              		.loc 1 1183 0
 2956 000c 2F68     		ldr	r7, [r5]
 2957              		.loc 1 1187 0
 2958 000e 6368     		ldr	r3, [r4, #4]
 2959 0010 026D     		ldr	r2, [r0, #80]
 2960 0012 2361     		str	r3, [r4, #16]
 2961              		.loc 1 1183 0
 2962 0014 83B0     		sub	sp, sp, #12
 2963              		.cfi_def_cfa_offset 32
 2964              		.loc 1 1183 0
ARM GAS  C:\Users\Moi\AppData\Local\Temp\ccOzHcBd.s 			page 53


 2965 0016 0197     		str	r7, [sp, #4]
 2966              		.loc 1 1188 0
 2967 0018 B3B1     		cbz	r3, .L297
 2968              	.LBB643:
 2969              		.loc 1 1193 0
 2970 001a 81B1     		cbz	r1, .L298
 2971              	.L294:
 2972              		.loc 1 1197 0
 2973 001c 308A     		ldrh	r0, [r6, #16]
 2974              	.LVL282:
 2975              		.loc 1 1199 0
 2976 001e 02EB4112 		add	r2, r2, r1, lsl #5
 2977              		.loc 1 1197 0
 2978 0022 411E     		subs	r1, r0, #1
 2979              	.LVL283:
 2980 0024 1944     		add	r1, r1, r3
 2981 0026 B1FBF0F1 		udiv	r1, r1, r0
 2982              		.loc 1 1199 0
 2983 002a 43EAC143 		orr	r3, r3, r1, lsl #19
 2984              	.LVL284:
 2985 002e C2F81039 		str	r3, [r2, #2320]
 2986              	.L291:
 2987              	.LBE643:
 2988              		.loc 1 1202 0
 2989 0032 019A     		ldr	r2, [sp, #4]
 2990 0034 2B68     		ldr	r3, [r5]
 2991 0036 9A42     		cmp	r2, r3
 2992 0038 0DD1     		bne	.L299
 2993 003a 03B0     		add	sp, sp, #12
 2994              		.cfi_remember_state
 2995              		.cfi_def_cfa_offset 20
 2996              		@ sp needed
 2997 003c F0BD     		pop	{r4, r5, r6, r7, pc}
 2998              	.LVL285:
 2999              	.L298:
 3000              		.cfi_restore_state
 3001              	.LBB644:
 3002              		.loc 1 1193 0 discriminator 1
 3003 003e 402B     		cmp	r3, #64
 3004              		.loc 1 1194 0 discriminator 1
 3005 0040 84BF     		itt	hi
 3006 0042 4023     		movhi	r3, #64
 3007 0044 6360     		strhi	r3, [r4, #4]
 3008 0046 E9E7     		b	.L294
 3009              	.L297:
 3010              	.LBE644:
 3011              		.loc 1 1190 0
 3012 0048 02EB4112 		add	r2, r2, r1, lsl #5
 3013 004c 4FF40023 		mov	r3, #524288
 3014 0050 C2F81039 		str	r3, [r2, #2320]
 3015 0054 EDE7     		b	.L291
 3016              	.LVL286:
 3017              	.L299:
 3018              		.loc 1 1202 0
 3019 0056 FFF7FEFF 		bl	__stack_chk_fail
 3020              	.LVL287:
 3021              	.L301:
ARM GAS  C:\Users\Moi\AppData\Local\Temp\ccOzHcBd.s 			page 54


 3022 005a 00BF     		.align	2
 3023              	.L300:
 3024 005c 00000000 		.word	__stack_chk_guard
 3025              		.cfi_endproc
 3026              	.LFE285:
 3027              		.size	usb_lld_prepare_transmit, .-usb_lld_prepare_transmit
 3028              		.section	.text.otg_epin_handler.constprop.8,"ax",%progbits
 3029              		.align	1
 3030              		.p2align 4,,15
 3031              		.syntax unified
 3032              		.thumb
 3033              		.thumb_func
 3034              		.fpu fpv4-sp-d16
 3035              		.type	otg_epin_handler.constprop.8, %function
 3036              	otg_epin_handler.constprop.8:
 3037              	.LFB299:
 3038              		.loc 1 533 0
 3039              		.cfi_startproc
 3040              		@ args = 0, pretend = 0, frame = 8
 3041              		@ frame_needed = 0, uses_anonymous_args = 0
 3042              	.LVL288:
 3043 0000 2DE9F043 		push	{r4, r5, r6, r7, r8, r9, lr}
 3044              		.cfi_def_cfa_offset 28
 3045              		.cfi_offset 4, -28
 3046              		.cfi_offset 5, -24
 3047              		.cfi_offset 6, -20
 3048              		.cfi_offset 7, -16
 3049              		.cfi_offset 8, -12
 3050              		.cfi_offset 9, -8
 3051              		.cfi_offset 14, -4
 3052              		.loc 1 534 0
 3053 0004 3E4E     		ldr	r6, .L323
 3054              		.loc 1 533 0
 3055 0006 DFF80081 		ldr	r8, .L323+8
 3056              		.loc 1 534 0
 3057 000a 356D     		ldr	r5, [r6, #80]
 3058              		.loc 1 533 0
 3059 000c D8F80030 		ldr	r3, [r8]
 3060 0010 83B0     		sub	sp, sp, #12
 3061              		.cfi_def_cfa_offset 40
 3062              		.loc 1 533 0
 3063 0012 0746     		mov	r7, r0
 3064 0014 0193     		str	r3, [sp, #4]
 3065              	.LVL289:
 3066              		.loc 1 535 0
 3067 0016 05EB4013 		add	r3, r5, r0, lsl #5
 3068 001a D3F80849 		ldr	r4, [r3, #2312]
 3069              	.LVL290:
 3070              		.loc 1 537 0
 3071 001e C3F80849 		str	r4, [r3, #2312]
 3072              		.loc 1 542 0
 3073 0022 E107     		lsls	r1, r4, #31
 3074 0024 16D5     		bpl	.L303
 3075 0026 D5F81038 		ldr	r3, [r5, #2064]
 3076 002a DA07     		lsls	r2, r3, #31
 3077 002c 12D5     		bpl	.L303
 3078              	.LBB645:
ARM GAS  C:\Users\Moi\AppData\Local\Temp\ccOzHcBd.s 			page 55


 3079              		.loc 1 544 0
 3080 002e 06EB8003 		add	r3, r6, r0, lsl #2
 3081 0032 D968     		ldr	r1, [r3, #12]
 3082 0034 4B69     		ldr	r3, [r1, #20]
 3083              	.LVL291:
 3084              		.loc 1 546 0
 3085 0036 5868     		ldr	r0, [r3, #4]
 3086              	.LVL292:
 3087 0038 1A69     		ldr	r2, [r3, #16]
 3088 003a 9042     		cmp	r0, r2
 3089 003c 37D3     		bcc	.L320
 3090              		.loc 1 559 0
 3091 003e 3389     		ldrh	r3, [r6, #8]
 3092              	.LVL293:
 3093 0040 D1F80890 		ldr	r9, [r1, #8]
 3094 0044 0122     		movs	r2, #1
 3095 0046 BA40     		lsls	r2, r2, r7
 3096 0048 23EA0203 		bic	r3, r3, r2
 3097 004c 3381     		strh	r3, [r6, #8]	@ movhi
 3098 004e 3946     		mov	r1, r7
 3099              	.LVL294:
 3100 0050 3046     		mov	r0, r6
 3101 0052 C847     		blx	r9
 3102              	.LVL295:
 3103              	.L303:
 3104              	.LBE645:
 3105              		.loc 1 562 0
 3106 0054 2306     		lsls	r3, r4, #24
 3107 0056 06D5     		bpl	.L302
 3108              		.loc 1 563 0
 3109 0058 0123     		movs	r3, #1
 3110 005a D5F83428 		ldr	r2, [r5, #2100]
 3111 005e 03FA07F7 		lsl	r7, r3, r7
 3112              		.loc 1 562 0
 3113 0062 1742     		tst	r7, r2
 3114 0064 07D1     		bne	.L321
 3115              	.L302:
 3116              		.loc 1 571 0
 3117 0066 019A     		ldr	r2, [sp, #4]
 3118 0068 D8F80030 		ldr	r3, [r8]
 3119 006c 9A42     		cmp	r2, r3
 3120 006e 45D1     		bne	.L322
 3121 0070 03B0     		add	sp, sp, #12
 3122              		.cfi_remember_state
 3123              		.cfi_def_cfa_offset 28
 3124              		@ sp needed
 3125 0072 BDE8F083 		pop	{r4, r5, r6, r7, r8, r9, pc}
 3126              	.LVL296:
 3127              	.L321:
 3128              		.cfi_restore_state
 3129              	.LBB662:
 3130              	.LBB663:
 3131              	.LBB664:
 3132              	.LBB665:
 3133              	.LBB666:
 3134              	.LBB667:
 3135              	.LBB668:
ARM GAS  C:\Users\Moi\AppData\Local\Temp\ccOzHcBd.s 			page 56


 3136              		.loc 3 546 0
 3137 0076 2023     		movs	r3, #32
 3138              		.syntax unified
 3139              	@ 546 "..//ChibiOS//os/ext/CMSIS/include/core_cmFunc.h" 1
 3140 0078 83F31188 		MSR basepri, r3
 3141              	@ 0 "" 2
 3142              	.LVL297:
 3143              		.thumb
 3144              		.syntax unified
 3145              	.LBE668:
 3146              	.LBE667:
 3147              	.LBE666:
 3148              	.LBE665:
 3149              		.loc 4 389 0
 3150 007c FFF7FEFF 		bl	_stats_start_measure_crit_isr
 3151              	.LVL298:
 3152              		.loc 4 390 0
 3153 0080 FFF7FEFF 		bl	_dbg_check_lock_from_isr
 3154              	.LVL299:
 3155              	.LBE664:
 3156              	.LBE663:
 3157              	.LBE662:
 3158              		.loc 1 567 0
 3159 0084 D5F83428 		ldr	r2, [r5, #2100]
 3160              		.loc 1 566 0
 3161 0088 F36D     		ldr	r3, [r6, #92]
 3162              	.LBB669:
 3163              	.LBB670:
 3164              		.loc 5 682 0
 3165 008a 1E48     		ldr	r0, .L323+4
 3166              	.LBE670:
 3167              	.LBE669:
 3168              		.loc 1 567 0
 3169 008c 22EA0702 		bic	r2, r2, r7
 3170 0090 C5F83428 		str	r2, [r5, #2100]
 3171              	.LVL300:
 3172              		.loc 1 566 0
 3173 0094 1F43     		orrs	r7, r7, r3
 3174              	.LBB673:
 3175              	.LBB671:
 3176              		.loc 5 682 0
 3177 0096 0021     		movs	r1, #0
 3178              	.LBE671:
 3179              	.LBE673:
 3180              		.loc 1 566 0
 3181 0098 F765     		str	r7, [r6, #92]
 3182              	.LBB674:
 3183              	.LBB672:
 3184              		.loc 5 682 0
 3185 009a FFF7FEFF 		bl	chThdResumeI
 3186              	.LVL301:
 3187              	.LBE672:
 3188              	.LBE674:
 3189              	.LBB675:
 3190              	.LBB676:
 3191              	.LBB677:
 3192              		.loc 4 408 0
ARM GAS  C:\Users\Moi\AppData\Local\Temp\ccOzHcBd.s 			page 57


 3193 009e FFF7FEFF 		bl	_dbg_check_unlock_from_isr
 3194              	.LVL302:
 3195              		.loc 4 409 0
 3196 00a2 FFF7FEFF 		bl	_stats_stop_measure_crit_isr
 3197              	.LVL303:
 3198              	.LBB678:
 3199              	.LBB679:
 3200              	.LBB680:
 3201              	.LBB681:
 3202              		.loc 3 546 0
 3203 00a6 0023     		movs	r3, #0
 3204              		.syntax unified
 3205              	@ 546 "..//ChibiOS//os/ext/CMSIS/include/core_cmFunc.h" 1
 3206 00a8 83F31188 		MSR basepri, r3
 3207              	@ 0 "" 2
 3208              	.LVL304:
 3209              		.thumb
 3210              		.syntax unified
 3211 00ac DBE7     		b	.L302
 3212              	.LVL305:
 3213              	.L320:
 3214              	.LBE681:
 3215              	.LBE680:
 3216              	.LBE679:
 3217              	.LBE678:
 3218              	.LBE677:
 3219              	.LBE676:
 3220              	.LBE675:
 3221              	.LBB682:
 3222              		.loc 1 550 0
 3223 00ae 121A     		subs	r2, r2, r0
 3224              		.loc 1 551 0
 3225 00b0 4FF00009 		mov	r9, #0
 3226 00b4 C3E90129 		strd	r2, r9, [r3, #4]
 3227              		.loc 1 552 0
 3228 00b8 3946     		mov	r1, r7
 3229 00ba 3046     		mov	r0, r6
 3230 00bc FFF7FEFF 		bl	usb_lld_prepare_transmit
 3231              	.LVL306:
 3232              	.LBB646:
 3233              	.LBB647:
 3234              	.LBB648:
 3235              	.LBB649:
 3236              	.LBB650:
 3237              	.LBB651:
 3238              	.LBB652:
 3239              		.loc 3 546 0
 3240 00c0 2023     		movs	r3, #32
 3241              		.syntax unified
 3242              	@ 546 "..//ChibiOS//os/ext/CMSIS/include/core_cmFunc.h" 1
 3243 00c2 83F31188 		MSR basepri, r3
 3244              	@ 0 "" 2
 3245              	.LVL307:
 3246              		.thumb
 3247              		.syntax unified
 3248              	.LBE652:
 3249              	.LBE651:
ARM GAS  C:\Users\Moi\AppData\Local\Temp\ccOzHcBd.s 			page 58


 3250              	.LBE650:
 3251              	.LBE649:
 3252              		.loc 4 389 0
 3253 00c6 FFF7FEFF 		bl	_stats_start_measure_crit_isr
 3254              	.LVL308:
 3255              		.loc 4 390 0
 3256 00ca FFF7FEFF 		bl	_dbg_check_lock_from_isr
 3257              	.LVL309:
 3258              	.LBE648:
 3259              	.LBE647:
 3260              	.LBE646:
 3261              	.LBB653:
 3262              	.LBB654:
 3263              		.loc 1 1227 0
 3264 00ce 326D     		ldr	r2, [r6, #80]
 3265 00d0 02EB4710 		add	r0, r2, r7, lsl #5
 3266              		.loc 1 1228 0
 3267 00d4 0123     		movs	r3, #1
 3268              		.loc 1 1227 0
 3269 00d6 D0F80019 		ldr	r1, [r0, #2304]
 3270 00da 41F00441 		orr	r1, r1, #-2080374784
 3271 00de C0F80019 		str	r1, [r0, #2304]
 3272              		.loc 1 1228 0
 3273 00e2 D2F83418 		ldr	r1, [r2, #2100]
 3274 00e6 BB40     		lsls	r3, r3, r7
 3275 00e8 0B43     		orrs	r3, r3, r1
 3276 00ea C2F83438 		str	r3, [r2, #2100]
 3277              	.LVL310:
 3278              	.LBE654:
 3279              	.LBE653:
 3280              	.LBB655:
 3281              	.LBB656:
 3282              	.LBB657:
 3283              		.loc 4 408 0
 3284 00ee FFF7FEFF 		bl	_dbg_check_unlock_from_isr
 3285              	.LVL311:
 3286              		.loc 4 409 0
 3287 00f2 FFF7FEFF 		bl	_stats_stop_measure_crit_isr
 3288              	.LVL312:
 3289              	.LBB658:
 3290              	.LBB659:
 3291              	.LBB660:
 3292              	.LBB661:
 3293              		.loc 3 546 0
 3294              		.syntax unified
 3295              	@ 546 "..//ChibiOS//os/ext/CMSIS/include/core_cmFunc.h" 1
 3296 00f6 89F31188 		MSR basepri, r9
 3297              	@ 0 "" 2
 3298              	.LVL313:
 3299              		.thumb
 3300              		.syntax unified
 3301 00fa ABE7     		b	.L303
 3302              	.L322:
 3303              	.LBE661:
 3304              	.LBE660:
 3305              	.LBE659:
 3306              	.LBE658:
ARM GAS  C:\Users\Moi\AppData\Local\Temp\ccOzHcBd.s 			page 59


 3307              	.LBE657:
 3308              	.LBE656:
 3309              	.LBE655:
 3310              	.LBE682:
 3311              		.loc 1 571 0
 3312 00fc FFF7FEFF 		bl	__stack_chk_fail
 3313              	.LVL314:
 3314              	.L324:
 3315              		.align	2
 3316              	.L323:
 3317 0100 00000000 		.word	.LANCHOR1
 3318 0104 60000000 		.word	.LANCHOR1+96
 3319 0108 00000000 		.word	__stack_chk_guard
 3320              		.cfi_endproc
 3321              	.LFE299:
 3322              		.size	otg_epin_handler.constprop.8, .-otg_epin_handler.constprop.8
 3323              		.section	.text.Vector14C,"ax",%progbits
 3324              		.align	1
 3325              		.p2align 4,,15
 3326              		.global	Vector14C
 3327              		.syntax unified
 3328              		.thumb
 3329              		.thumb_func
 3330              		.fpu fpv4-sp-d16
 3331              		.type	Vector14C, %function
 3332              	Vector14C:
 3333              	.LFB273:
 3334              		.loc 1 706 0
 3335              		.cfi_startproc
 3336              		@ args = 0, pretend = 0, frame = 8
 3337              		@ frame_needed = 0, uses_anonymous_args = 0
 3338 0000 F0B5     		push	{r4, r5, r6, r7, lr}
 3339              		.cfi_def_cfa_offset 20
 3340              		.cfi_offset 4, -20
 3341              		.cfi_offset 5, -16
 3342              		.cfi_offset 6, -12
 3343              		.cfi_offset 7, -8
 3344              		.cfi_offset 14, -4
 3345 0002 454F     		ldr	r7, .L397
 3346              	.LBB701:
 3347              	.LBB702:
 3348              		.loc 1 624 0
 3349 0004 454D     		ldr	r5, .L397+4
 3350              	.LBE702:
 3351              	.LBE701:
 3352              		.loc 1 706 0
 3353 0006 3B68     		ldr	r3, [r7]
 3354 0008 83B0     		sub	sp, sp, #12
 3355              		.cfi_def_cfa_offset 32
 3356              		.loc 1 706 0
 3357 000a 0193     		str	r3, [sp, #4]
 3358              		.loc 1 708 0
 3359 000c FFF7FEFF 		bl	_stats_increase_irq
 3360              	.LVL315:
 3361 0010 FFF7FEFF 		bl	_dbg_check_enter_isr
 3362              	.LVL316:
 3363              	.LBB723:
ARM GAS  C:\Users\Moi\AppData\Local\Temp\ccOzHcBd.s 			page 60


 3364              	.LBB721:
 3365              		.loc 1 624 0
 3366 0014 2E6D     		ldr	r6, [r5, #80]
 3367              	.LVL317:
 3368              		.loc 1 627 0
 3369 0016 7469     		ldr	r4, [r6, #20]
 3370              	.LVL318:
 3371              		.loc 1 628 0
 3372 0018 B369     		ldr	r3, [r6, #24]
 3373 001a 1C40     		ands	r4, r4, r3
 3374              	.LVL319:
 3375              		.loc 1 632 0
 3376 001c E104     		lsls	r1, r4, #19
 3377              		.loc 1 629 0
 3378 001e 7461     		str	r4, [r6, #20]
 3379              		.loc 1 632 0
 3380 0020 44D4     		bmi	.L386
 3381              	.L327:
 3382              		.loc 1 638 0
 3383 0022 A204     		lsls	r2, r4, #18
 3384              		.loc 1 639 0
 3385 0024 48BF     		it	mi
 3386 0026 D6F80838 		ldrmi	r3, [r6, #2056]
 3387              		.loc 1 643 0
 3388 002a 2307     		lsls	r3, r4, #28
 3389 002c 04D5     		bpl	.L330
 3390              		.loc 1 644 0
 3391 002e 6B68     		ldr	r3, [r5, #4]
 3392 0030 DB68     		ldr	r3, [r3, #12]
 3393 0032 0BB1     		cbz	r3, .L330
 3394 0034 3948     		ldr	r0, .L397+4
 3395 0036 9847     		blx	r3
 3396              	.LVL320:
 3397              	.L330:
 3398              		.loc 1 648 0
 3399 0038 E506     		lsls	r5, r4, #27
 3400 003a 20D4     		bmi	.L387
 3401              	.L331:
 3402              		.loc 1 659 0
 3403 003c 6003     		lsls	r0, r4, #13
 3404              		.loc 1 658 0
 3405 003e D6F81858 		ldr	r5, [r6, #2072]
 3406              	.LVL321:
 3407              		.loc 1 659 0
 3408 0042 07D5     		bpl	.L333
 3409              		.loc 1 660 0
 3410 0044 E907     		lsls	r1, r5, #31
 3411 0046 54D4     		bmi	.L388
 3412              		.loc 1 662 0
 3413 0048 AA07     		lsls	r2, r5, #30
 3414 004a 57D4     		bmi	.L389
 3415              	.L335:
 3416              		.loc 1 664 0
 3417 004c 6B07     		lsls	r3, r5, #29
 3418 004e 5AD4     		bmi	.L390
 3419              	.L336:
 3420              		.loc 1 666 0
ARM GAS  C:\Users\Moi\AppData\Local\Temp\ccOzHcBd.s 			page 61


 3421 0050 2E07     		lsls	r6, r5, #28
 3422              	.LVL322:
 3423 0052 4AD4     		bmi	.L391
 3424              	.L333:
 3425              		.loc 1 675 0
 3426 0054 2403     		lsls	r4, r4, #12
 3427              	.LVL323:
 3428 0056 07D5     		bpl	.L339
 3429              		.loc 1 676 0
 3430 0058 E803     		lsls	r0, r5, #15
 3431 005a 36D4     		bmi	.L392
 3432              		.loc 1 678 0
 3433 005c A903     		lsls	r1, r5, #14
 3434 005e 39D4     		bmi	.L393
 3435              	.L341:
 3436              		.loc 1 680 0
 3437 0060 6A03     		lsls	r2, r5, #13
 3438 0062 3CD4     		bmi	.L394
 3439              	.L342:
 3440              		.loc 1 682 0
 3441 0064 2B03     		lsls	r3, r5, #12
 3442 0066 2CD4     		bmi	.L395
 3443              	.L339:
 3444              	.LVL324:
 3445              	.LBE721:
 3446              	.LBE723:
 3447              		.loc 1 712 0
 3448 0068 FFF7FEFF 		bl	_dbg_check_leave_isr
 3449              	.LVL325:
 3450 006c 019A     		ldr	r2, [sp, #4]
 3451 006e 3B68     		ldr	r3, [r7]
 3452 0070 9A42     		cmp	r2, r3
 3453 0072 4ED1     		bne	.L396
 3454              		.loc 1 713 0
 3455 0074 03B0     		add	sp, sp, #12
 3456              		.cfi_remember_state
 3457              		.cfi_def_cfa_offset 20
 3458              		@ sp needed
 3459 0076 BDE8F040 		pop	{r4, r5, r6, r7, lr}
 3460              		.cfi_restore 14
 3461              		.cfi_restore 7
 3462              		.cfi_restore 6
 3463              		.cfi_restore 5
 3464              		.cfi_restore 4
 3465              		.cfi_def_cfa_offset 0
 3466              		.loc 1 712 0
 3467 007a FFF7FEBF 		b	_port_irq_epilogue
 3468              	.LVL326:
 3469              	.L387:
 3470              		.cfi_restore_state
 3471              	.LBB724:
 3472              	.LBB722:
 3473              	.LBB703:
 3474              	.LBB704:
 3475              	.LBB705:
 3476              	.LBB706:
 3477              	.LBB707:
ARM GAS  C:\Users\Moi\AppData\Local\Temp\ccOzHcBd.s 			page 62


 3478              	.LBB708:
 3479              	.LBB709:
 3480              		.loc 3 546 0
 3481 007e 2023     		movs	r3, #32
 3482              		.syntax unified
 3483              	@ 546 "..//ChibiOS//os/ext/CMSIS/include/core_cmFunc.h" 1
 3484 0080 83F31188 		MSR basepri, r3
 3485              	@ 0 "" 2
 3486              	.LVL327:
 3487              		.thumb
 3488              		.syntax unified
 3489              	.LBE709:
 3490              	.LBE708:
 3491              	.LBE707:
 3492              	.LBE706:
 3493              		.loc 4 389 0
 3494 0084 FFF7FEFF 		bl	_stats_start_measure_crit_isr
 3495              	.LVL328:
 3496              		.loc 4 390 0
 3497 0088 FFF7FEFF 		bl	_dbg_check_lock_from_isr
 3498              	.LVL329:
 3499              	.LBE705:
 3500              	.LBE704:
 3501              	.LBE703:
 3502              		.loc 1 652 0
 3503 008c B369     		ldr	r3, [r6, #24]
 3504              	.LBB710:
 3505              	.LBB711:
 3506              		.loc 5 682 0
 3507 008e 2448     		ldr	r0, .L397+8
 3508              	.LBE711:
 3509              	.LBE710:
 3510              		.loc 1 652 0
 3511 0090 23F01003 		bic	r3, r3, #16
 3512 0094 B361     		str	r3, [r6, #24]
 3513              	.LVL330:
 3514              	.LBB713:
 3515              	.LBB712:
 3516              		.loc 5 682 0
 3517 0096 0021     		movs	r1, #0
 3518 0098 FFF7FEFF 		bl	chThdResumeI
 3519              	.LVL331:
 3520              	.LBE712:
 3521              	.LBE713:
 3522              	.LBB714:
 3523              	.LBB715:
 3524              	.LBB716:
 3525              		.loc 4 408 0
 3526 009c FFF7FEFF 		bl	_dbg_check_unlock_from_isr
 3527              	.LVL332:
 3528              		.loc 4 409 0
 3529 00a0 FFF7FEFF 		bl	_stats_stop_measure_crit_isr
 3530              	.LVL333:
 3531              	.LBB717:
 3532              	.LBB718:
 3533              	.LBB719:
 3534              	.LBB720:
ARM GAS  C:\Users\Moi\AppData\Local\Temp\ccOzHcBd.s 			page 63


 3535              		.loc 3 546 0
 3536 00a4 0023     		movs	r3, #0
 3537              		.syntax unified
 3538              	@ 546 "..//ChibiOS//os/ext/CMSIS/include/core_cmFunc.h" 1
 3539 00a6 83F31188 		MSR basepri, r3
 3540              	@ 0 "" 2
 3541              	.LVL334:
 3542              		.thumb
 3543              		.syntax unified
 3544 00aa C7E7     		b	.L331
 3545              	.L386:
 3546              	.LBE720:
 3547              	.LBE719:
 3548              	.LBE718:
 3549              	.LBE717:
 3550              	.LBE716:
 3551              	.LBE715:
 3552              	.LBE714:
 3553              		.loc 1 633 0
 3554 00ac 2846     		mov	r0, r5
 3555 00ae FFF7FEFF 		bl	_usb_reset
 3556              	.LVL335:
 3557              		.loc 1 634 0
 3558 00b2 6B68     		ldr	r3, [r5, #4]
 3559 00b4 1B68     		ldr	r3, [r3]
 3560 00b6 002B     		cmp	r3, #0
 3561 00b8 B3D0     		beq	.L327
 3562 00ba 0021     		movs	r1, #0
 3563 00bc 2846     		mov	r0, r5
 3564 00be 9847     		blx	r3
 3565              	.LVL336:
 3566 00c0 AFE7     		b	.L327
 3567              	.LVL337:
 3568              	.L395:
 3569              		.loc 1 683 0
 3570 00c2 0320     		movs	r0, #3
 3571 00c4 FFF7FEFF 		bl	otg_epout_handler.constprop.7
 3572              	.LVL338:
 3573 00c8 CEE7     		b	.L339
 3574              	.L392:
 3575              		.loc 1 677 0
 3576 00ca 0020     		movs	r0, #0
 3577 00cc FFF7FEFF 		bl	otg_epout_handler.constprop.7
 3578              	.LVL339:
 3579              		.loc 1 678 0
 3580 00d0 A903     		lsls	r1, r5, #14
 3581 00d2 C5D5     		bpl	.L341
 3582              	.L393:
 3583              		.loc 1 679 0
 3584 00d4 0120     		movs	r0, #1
 3585 00d6 FFF7FEFF 		bl	otg_epout_handler.constprop.7
 3586              	.LVL340:
 3587              		.loc 1 680 0
 3588 00da 6A03     		lsls	r2, r5, #13
 3589 00dc C2D5     		bpl	.L342
 3590              	.L394:
 3591              		.loc 1 681 0
ARM GAS  C:\Users\Moi\AppData\Local\Temp\ccOzHcBd.s 			page 64


 3592 00de 0220     		movs	r0, #2
 3593 00e0 FFF7FEFF 		bl	otg_epout_handler.constprop.7
 3594              	.LVL341:
 3595              		.loc 1 682 0
 3596 00e4 2B03     		lsls	r3, r5, #12
 3597 00e6 BFD5     		bpl	.L339
 3598 00e8 EBE7     		b	.L395
 3599              	.LVL342:
 3600              	.L391:
 3601              		.loc 1 667 0
 3602 00ea 0320     		movs	r0, #3
 3603 00ec FFF7FEFF 		bl	otg_epin_handler.constprop.8
 3604              	.LVL343:
 3605 00f0 B0E7     		b	.L333
 3606              	.LVL344:
 3607              	.L388:
 3608              		.loc 1 661 0
 3609 00f2 0020     		movs	r0, #0
 3610 00f4 FFF7FEFF 		bl	otg_epin_handler.constprop.8
 3611              	.LVL345:
 3612              		.loc 1 662 0
 3613 00f8 AA07     		lsls	r2, r5, #30
 3614 00fa A7D5     		bpl	.L335
 3615              	.L389:
 3616              		.loc 1 663 0
 3617 00fc 0120     		movs	r0, #1
 3618 00fe FFF7FEFF 		bl	otg_epin_handler.constprop.8
 3619              	.LVL346:
 3620              		.loc 1 664 0
 3621 0102 6B07     		lsls	r3, r5, #29
 3622 0104 A4D5     		bpl	.L336
 3623              	.L390:
 3624              		.loc 1 665 0
 3625 0106 0220     		movs	r0, #2
 3626 0108 FFF7FEFF 		bl	otg_epin_handler.constprop.8
 3627              	.LVL347:
 3628              		.loc 1 666 0
 3629 010c 2E07     		lsls	r6, r5, #28
 3630              	.LVL348:
 3631 010e A1D5     		bpl	.L333
 3632 0110 EBE7     		b	.L391
 3633              	.LVL349:
 3634              	.L396:
 3635              	.LBE722:
 3636              	.LBE724:
 3637              		.loc 1 712 0
 3638 0112 FFF7FEFF 		bl	__stack_chk_fail
 3639              	.LVL350:
 3640              	.L398:
 3641 0116 00BF     		.align	2
 3642              	.L397:
 3643 0118 00000000 		.word	__stack_chk_guard
 3644 011c 00000000 		.word	.LANCHOR1
 3645 0120 60000000 		.word	.LANCHOR1+96
 3646              		.cfi_endproc
 3647              	.LFE273:
 3648              		.size	Vector14C, .-Vector14C
ARM GAS  C:\Users\Moi\AppData\Local\Temp\ccOzHcBd.s 			page 65


 3649              		.section	.text.usb_lld_start_out,"ax",%progbits
 3650              		.align	1
 3651              		.p2align 4,,15
 3652              		.global	usb_lld_start_out
 3653              		.syntax unified
 3654              		.thumb
 3655              		.thumb_func
 3656              		.fpu fpv4-sp-d16
 3657              		.type	usb_lld_start_out, %function
 3658              	usb_lld_start_out:
 3659              	.LFB286:
 3660              		.loc 1 1212 0
 3661              		.cfi_startproc
 3662              		@ args = 0, pretend = 0, frame = 8
 3663              		@ frame_needed = 0, uses_anonymous_args = 0
 3664              	.LVL351:
 3665 0000 00B5     		push	{lr}
 3666              		.cfi_def_cfa_offset 4
 3667              		.cfi_offset 14, -4
 3668 0002 036D     		ldr	r3, [r0, #80]
 3669 0004 0A4A     		ldr	r2, .L403
 3670 0006 83B0     		sub	sp, sp, #12
 3671              		.cfi_def_cfa_offset 16
 3672 0008 03EB4111 		add	r1, r3, r1, lsl #5
 3673              	.LVL352:
 3674              		.loc 1 1212 0
 3675 000c 1368     		ldr	r3, [r2]
 3676 000e 0193     		str	r3, [sp, #4]
 3677              		.loc 1 1214 0
 3678 0010 D1F8003B 		ldr	r3, [r1, #2816]
 3679 0014 43F08063 		orr	r3, r3, #67108864
 3680 0018 C1F8003B 		str	r3, [r1, #2816]
 3681              		.loc 1 1215 0
 3682 001c 0199     		ldr	r1, [sp, #4]
 3683 001e 1368     		ldr	r3, [r2]
 3684 0020 9942     		cmp	r1, r3
 3685 0022 02D1     		bne	.L402
 3686 0024 03B0     		add	sp, sp, #12
 3687              		.cfi_remember_state
 3688              		.cfi_def_cfa_offset 4
 3689              		@ sp needed
 3690 0026 5DF804FB 		ldr	pc, [sp], #4
 3691              	.L402:
 3692              		.cfi_restore_state
 3693 002a FFF7FEFF 		bl	__stack_chk_fail
 3694              	.LVL353:
 3695              	.L404:
 3696 002e 00BF     		.align	2
 3697              	.L403:
 3698 0030 00000000 		.word	__stack_chk_guard
 3699              		.cfi_endproc
 3700              	.LFE286:
 3701              		.size	usb_lld_start_out, .-usb_lld_start_out
 3702              		.section	.text.usb_lld_start_in,"ax",%progbits
 3703              		.align	1
 3704              		.p2align 4,,15
 3705              		.global	usb_lld_start_in
ARM GAS  C:\Users\Moi\AppData\Local\Temp\ccOzHcBd.s 			page 66


 3706              		.syntax unified
 3707              		.thumb
 3708              		.thumb_func
 3709              		.fpu fpv4-sp-d16
 3710              		.type	usb_lld_start_in, %function
 3711              	usb_lld_start_in:
 3712              	.LFB287:
 3713              		.loc 1 1225 0
 3714              		.cfi_startproc
 3715              		@ args = 0, pretend = 0, frame = 8
 3716              		@ frame_needed = 0, uses_anonymous_args = 0
 3717              	.LVL354:
 3718 0000 30B5     		push	{r4, r5, lr}
 3719              		.cfi_def_cfa_offset 12
 3720              		.cfi_offset 4, -12
 3721              		.cfi_offset 5, -8
 3722              		.cfi_offset 14, -4
 3723              		.loc 1 1227 0
 3724 0002 026D     		ldr	r2, [r0, #80]
 3725              		.loc 1 1225 0
 3726 0004 0D4C     		ldr	r4, .L409
 3727 0006 83B0     		sub	sp, sp, #12
 3728              		.cfi_def_cfa_offset 24
 3729              		.loc 1 1225 0
 3730 0008 2368     		ldr	r3, [r4]
 3731 000a 0193     		str	r3, [sp, #4]
 3732 000c 02EB4115 		add	r5, r2, r1, lsl #5
 3733              		.loc 1 1228 0
 3734 0010 0123     		movs	r3, #1
 3735              		.loc 1 1227 0
 3736 0012 D5F80009 		ldr	r0, [r5, #2304]
 3737              	.LVL355:
 3738 0016 40F00440 		orr	r0, r0, #-2080374784
 3739 001a C5F80009 		str	r0, [r5, #2304]
 3740              		.loc 1 1228 0
 3741 001e D2F83408 		ldr	r0, [r2, #2100]
 3742 0022 03FA01F1 		lsl	r1, r3, r1
 3743              	.LVL356:
 3744 0026 0143     		orrs	r1, r1, r0
 3745 0028 C2F83418 		str	r1, [r2, #2100]
 3746              		.loc 1 1229 0
 3747 002c 019A     		ldr	r2, [sp, #4]
 3748 002e 2368     		ldr	r3, [r4]
 3749 0030 9A42     		cmp	r2, r3
 3750 0032 01D1     		bne	.L408
 3751 0034 03B0     		add	sp, sp, #12
 3752              		.cfi_remember_state
 3753              		.cfi_def_cfa_offset 12
 3754              		@ sp needed
 3755 0036 30BD     		pop	{r4, r5, pc}
 3756              	.L408:
 3757              		.cfi_restore_state
 3758 0038 FFF7FEFF 		bl	__stack_chk_fail
 3759              	.LVL357:
 3760              	.L410:
 3761              		.align	2
 3762              	.L409:
ARM GAS  C:\Users\Moi\AppData\Local\Temp\ccOzHcBd.s 			page 67


 3763 003c 00000000 		.word	__stack_chk_guard
 3764              		.cfi_endproc
 3765              	.LFE287:
 3766              		.size	usb_lld_start_in, .-usb_lld_start_in
 3767              		.section	.text.usb_lld_stall_out,"ax",%progbits
 3768              		.align	1
 3769              		.p2align 4,,15
 3770              		.global	usb_lld_stall_out
 3771              		.syntax unified
 3772              		.thumb
 3773              		.thumb_func
 3774              		.fpu fpv4-sp-d16
 3775              		.type	usb_lld_stall_out, %function
 3776              	usb_lld_stall_out:
 3777              	.LFB288:
 3778              		.loc 1 1239 0
 3779              		.cfi_startproc
 3780              		@ args = 0, pretend = 0, frame = 8
 3781              		@ frame_needed = 0, uses_anonymous_args = 0
 3782              	.LVL358:
 3783 0000 00B5     		push	{lr}
 3784              		.cfi_def_cfa_offset 4
 3785              		.cfi_offset 14, -4
 3786 0002 036D     		ldr	r3, [r0, #80]
 3787 0004 0A4A     		ldr	r2, .L415
 3788 0006 83B0     		sub	sp, sp, #12
 3789              		.cfi_def_cfa_offset 16
 3790 0008 03EB4111 		add	r1, r3, r1, lsl #5
 3791              	.LVL359:
 3792              		.loc 1 1239 0
 3793 000c 1368     		ldr	r3, [r2]
 3794 000e 0193     		str	r3, [sp, #4]
 3795              		.loc 1 1241 0
 3796 0010 D1F8003B 		ldr	r3, [r1, #2816]
 3797 0014 43F40013 		orr	r3, r3, #2097152
 3798 0018 C1F8003B 		str	r3, [r1, #2816]
 3799              		.loc 1 1242 0
 3800 001c 0199     		ldr	r1, [sp, #4]
 3801 001e 1368     		ldr	r3, [r2]
 3802 0020 9942     		cmp	r1, r3
 3803 0022 02D1     		bne	.L414
 3804 0024 03B0     		add	sp, sp, #12
 3805              		.cfi_remember_state
 3806              		.cfi_def_cfa_offset 4
 3807              		@ sp needed
 3808 0026 5DF804FB 		ldr	pc, [sp], #4
 3809              	.L414:
 3810              		.cfi_restore_state
 3811 002a FFF7FEFF 		bl	__stack_chk_fail
 3812              	.LVL360:
 3813              	.L416:
 3814 002e 00BF     		.align	2
 3815              	.L415:
 3816 0030 00000000 		.word	__stack_chk_guard
 3817              		.cfi_endproc
 3818              	.LFE288:
 3819              		.size	usb_lld_stall_out, .-usb_lld_stall_out
ARM GAS  C:\Users\Moi\AppData\Local\Temp\ccOzHcBd.s 			page 68


 3820              		.section	.text.usb_lld_stall_in,"ax",%progbits
 3821              		.align	1
 3822              		.p2align 4,,15
 3823              		.global	usb_lld_stall_in
 3824              		.syntax unified
 3825              		.thumb
 3826              		.thumb_func
 3827              		.fpu fpv4-sp-d16
 3828              		.type	usb_lld_stall_in, %function
 3829              	usb_lld_stall_in:
 3830              	.LFB289:
 3831              		.loc 1 1252 0
 3832              		.cfi_startproc
 3833              		@ args = 0, pretend = 0, frame = 8
 3834              		@ frame_needed = 0, uses_anonymous_args = 0
 3835              	.LVL361:
 3836 0000 00B5     		push	{lr}
 3837              		.cfi_def_cfa_offset 4
 3838              		.cfi_offset 14, -4
 3839 0002 036D     		ldr	r3, [r0, #80]
 3840 0004 0A4A     		ldr	r2, .L421
 3841 0006 83B0     		sub	sp, sp, #12
 3842              		.cfi_def_cfa_offset 16
 3843 0008 03EB4111 		add	r1, r3, r1, lsl #5
 3844              	.LVL362:
 3845              		.loc 1 1252 0
 3846 000c 1368     		ldr	r3, [r2]
 3847 000e 0193     		str	r3, [sp, #4]
 3848              		.loc 1 1254 0
 3849 0010 D1F80039 		ldr	r3, [r1, #2304]
 3850 0014 43F40013 		orr	r3, r3, #2097152
 3851 0018 C1F80039 		str	r3, [r1, #2304]
 3852              		.loc 1 1255 0
 3853 001c 0199     		ldr	r1, [sp, #4]
 3854 001e 1368     		ldr	r3, [r2]
 3855 0020 9942     		cmp	r1, r3
 3856 0022 02D1     		bne	.L420
 3857 0024 03B0     		add	sp, sp, #12
 3858              		.cfi_remember_state
 3859              		.cfi_def_cfa_offset 4
 3860              		@ sp needed
 3861 0026 5DF804FB 		ldr	pc, [sp], #4
 3862              	.L420:
 3863              		.cfi_restore_state
 3864 002a FFF7FEFF 		bl	__stack_chk_fail
 3865              	.LVL363:
 3866              	.L422:
 3867 002e 00BF     		.align	2
 3868              	.L421:
 3869 0030 00000000 		.word	__stack_chk_guard
 3870              		.cfi_endproc
 3871              	.LFE289:
 3872              		.size	usb_lld_stall_in, .-usb_lld_stall_in
 3873              		.section	.text.usb_lld_clear_out,"ax",%progbits
 3874              		.align	1
 3875              		.p2align 4,,15
 3876              		.global	usb_lld_clear_out
ARM GAS  C:\Users\Moi\AppData\Local\Temp\ccOzHcBd.s 			page 69


 3877              		.syntax unified
 3878              		.thumb
 3879              		.thumb_func
 3880              		.fpu fpv4-sp-d16
 3881              		.type	usb_lld_clear_out, %function
 3882              	usb_lld_clear_out:
 3883              	.LFB290:
 3884              		.loc 1 1265 0
 3885              		.cfi_startproc
 3886              		@ args = 0, pretend = 0, frame = 8
 3887              		@ frame_needed = 0, uses_anonymous_args = 0
 3888              	.LVL364:
 3889 0000 00B5     		push	{lr}
 3890              		.cfi_def_cfa_offset 4
 3891              		.cfi_offset 14, -4
 3892 0002 036D     		ldr	r3, [r0, #80]
 3893 0004 0A4A     		ldr	r2, .L427
 3894 0006 83B0     		sub	sp, sp, #12
 3895              		.cfi_def_cfa_offset 16
 3896 0008 03EB4111 		add	r1, r3, r1, lsl #5
 3897              	.LVL365:
 3898              		.loc 1 1265 0
 3899 000c 1368     		ldr	r3, [r2]
 3900 000e 0193     		str	r3, [sp, #4]
 3901              		.loc 1 1267 0
 3902 0010 D1F8003B 		ldr	r3, [r1, #2816]
 3903 0014 23F40013 		bic	r3, r3, #2097152
 3904 0018 C1F8003B 		str	r3, [r1, #2816]
 3905              		.loc 1 1268 0
 3906 001c 0199     		ldr	r1, [sp, #4]
 3907 001e 1368     		ldr	r3, [r2]
 3908 0020 9942     		cmp	r1, r3
 3909 0022 02D1     		bne	.L426
 3910 0024 03B0     		add	sp, sp, #12
 3911              		.cfi_remember_state
 3912              		.cfi_def_cfa_offset 4
 3913              		@ sp needed
 3914 0026 5DF804FB 		ldr	pc, [sp], #4
 3915              	.L426:
 3916              		.cfi_restore_state
 3917 002a FFF7FEFF 		bl	__stack_chk_fail
 3918              	.LVL366:
 3919              	.L428:
 3920 002e 00BF     		.align	2
 3921              	.L427:
 3922 0030 00000000 		.word	__stack_chk_guard
 3923              		.cfi_endproc
 3924              	.LFE290:
 3925              		.size	usb_lld_clear_out, .-usb_lld_clear_out
 3926              		.section	.text.usb_lld_clear_in,"ax",%progbits
 3927              		.align	1
 3928              		.p2align 4,,15
 3929              		.global	usb_lld_clear_in
 3930              		.syntax unified
 3931              		.thumb
 3932              		.thumb_func
 3933              		.fpu fpv4-sp-d16
ARM GAS  C:\Users\Moi\AppData\Local\Temp\ccOzHcBd.s 			page 70


 3934              		.type	usb_lld_clear_in, %function
 3935              	usb_lld_clear_in:
 3936              	.LFB291:
 3937              		.loc 1 1278 0
 3938              		.cfi_startproc
 3939              		@ args = 0, pretend = 0, frame = 8
 3940              		@ frame_needed = 0, uses_anonymous_args = 0
 3941              	.LVL367:
 3942 0000 00B5     		push	{lr}
 3943              		.cfi_def_cfa_offset 4
 3944              		.cfi_offset 14, -4
 3945 0002 036D     		ldr	r3, [r0, #80]
 3946 0004 0A4A     		ldr	r2, .L433
 3947 0006 83B0     		sub	sp, sp, #12
 3948              		.cfi_def_cfa_offset 16
 3949 0008 03EB4111 		add	r1, r3, r1, lsl #5
 3950              	.LVL368:
 3951              		.loc 1 1278 0
 3952 000c 1368     		ldr	r3, [r2]
 3953 000e 0193     		str	r3, [sp, #4]
 3954              		.loc 1 1280 0
 3955 0010 D1F80039 		ldr	r3, [r1, #2304]
 3956 0014 23F40013 		bic	r3, r3, #2097152
 3957 0018 C1F80039 		str	r3, [r1, #2304]
 3958              		.loc 1 1281 0
 3959 001c 0199     		ldr	r1, [sp, #4]
 3960 001e 1368     		ldr	r3, [r2]
 3961 0020 9942     		cmp	r1, r3
 3962 0022 02D1     		bne	.L432
 3963 0024 03B0     		add	sp, sp, #12
 3964              		.cfi_remember_state
 3965              		.cfi_def_cfa_offset 4
 3966              		@ sp needed
 3967 0026 5DF804FB 		ldr	pc, [sp], #4
 3968              	.L432:
 3969              		.cfi_restore_state
 3970 002a FFF7FEFF 		bl	__stack_chk_fail
 3971              	.LVL369:
 3972              	.L434:
 3973 002e 00BF     		.align	2
 3974              	.L433:
 3975 0030 00000000 		.word	__stack_chk_guard
 3976              		.cfi_endproc
 3977              	.LFE291:
 3978              		.size	usb_lld_clear_in, .-usb_lld_clear_in
 3979              		.global	USBD1
 3980              		.section	.bss.USBD1,"aw",%nobits
 3981              		.align	3
 3982              		.set	.LANCHOR1,. + 0
 3983              		.type	USBD1, %object
 3984              		.size	USBD1, 608
 3985              	USBD1:
 3986 0000 00000000 		.space	608
 3986      00000000 
 3986      00000000 
 3986      00000000 
 3986      00000000 
ARM GAS  C:\Users\Moi\AppData\Local\Temp\ccOzHcBd.s 			page 71


 3987              		.section	.bss.ep0_state,"aw",%nobits
 3988              		.align	2
 3989              		.type	ep0_state, %object
 3990              		.size	ep0_state, 20
 3991              	ep0_state:
 3992 0000 00000000 		.space	20
 3992      00000000 
 3992      00000000 
 3992      00000000 
 3992      00000000 
 3993              		.section	.bss.ep0setup_buffer,"aw",%nobits
 3994              		.align	2
 3995              		.type	ep0setup_buffer, %object
 3996              		.size	ep0setup_buffer, 8
 3997              	ep0setup_buffer:
 3998 0000 00000000 		.space	8
 3998      00000000 
 3999              		.section	.rodata.__func__.10294,"a",%progbits
 4000              		.align	2
 4001              		.set	.LANCHOR5,. + 0
 4002              		.type	__func__.10294, %object
 4003              		.size	__func__.10294, 14
 4004              	__func__.10294:
 4005 0000 6F74675F 		.ascii	"otg_ram_alloc\000"
 4005      72616D5F 
 4005      616C6C6F 
 4005      6300
 4006              		.section	.rodata.__func__.7554,"a",%progbits
 4007              		.align	2
 4008              		.set	.LANCHOR0,. + 0
 4009              		.type	__func__.7554, %object
 4010              		.size	__func__.7554, 12
 4011              	__func__.7554:
 4012 0000 63685379 		.ascii	"chSysUnlock\000"
 4012      73556E6C 
 4012      6F636B00 
 4013              		.section	.rodata.__func__.7721,"a",%progbits
 4014              		.align	2
 4015              		.set	.LANCHOR3,. + 0
 4016              		.type	__func__.7721, %object
 4017              		.size	__func__.7721, 12
 4018              	__func__.7721:
 4019 0000 63685468 		.ascii	"chThdStartI\000"
 4019      64537461 
 4019      72744900 
 4020              		.section	.rodata.ep0config,"a",%progbits
 4021              		.align	2
 4022              		.set	.LANCHOR4,. + 0
 4023              		.type	ep0config, %object
 4024              		.size	ep0config, 36
 4025              	ep0config:
 4026 0000 00000000 		.word	0
 4027 0004 00000000 		.word	_usb_ep0setup
 4028 0008 00000000 		.word	_usb_ep0in
 4029 000c 00000000 		.word	_usb_ep0out
 4030 0010 4000     		.short	64
 4031 0012 4000     		.short	64
ARM GAS  C:\Users\Moi\AppData\Local\Temp\ccOzHcBd.s 			page 72


 4032 0014 00000000 		.word	ep0_state
 4033 0018 00000000 		.word	ep0_state
 4034 001c 0100     		.short	1
 4035 001e 0000     		.space	2
 4036 0020 00000000 		.word	ep0setup_buffer
 4037              		.section	.rodata.fsparams,"a",%progbits
 4038              		.align	2
 4039              		.set	.LANCHOR2,. + 0
 4040              		.type	fsparams, %object
 4041              		.size	fsparams, 12
 4042              	fsparams:
 4043 0000 80000000 		.word	128
 4044 0004 40010000 		.word	320
 4045 0008 03000000 		.word	3
 4046              		.section	.rodata.usb_lld_pump.str1.4,"aMS",%progbits,1
 4047              		.align	2
 4048              	.LC0:
 4049 0000 7573625F 		.ascii	"usb_lld_pump\000"
 4049      6C6C645F 
 4049      70756D70 
 4049      00
 4050              		.text
 4051              	.Letext0:
 4052              		.file 7 "c:\\users\\moi\\documents\\_microinfo\\epuck-eclipse\\tools\\gcc-arm-none-eabi-7-2017-q4-
 4053              		.file 8 "c:\\users\\moi\\documents\\_microinfo\\epuck-eclipse\\tools\\gcc-arm-none-eabi-7-2017-q4-
 4054              		.file 9 "c:\\users\\moi\\documents\\_microinfo\\epuck-eclipse\\tools\\gcc-arm-none-eabi-7-2017-q4-
 4055              		.file 10 "c:\\users\\moi\\documents\\_microinfo\\epuck-eclipse\\tools\\gcc-arm-none-eabi-7-2017-q4
 4056              		.file 11 "c:\\users\\moi\\documents\\_microinfo\\epuck-eclipse\\tools\\gcc-arm-none-eabi-7-2017-q4
 4057              		.file 12 "c:\\users\\moi\\documents\\_microinfo\\epuck-eclipse\\tools\\gcc-arm-none-eabi-7-2017-q4
 4058              		.file 13 "..//ChibiOS//os/rt/ports/ARMCMx/compilers/GCC/chtypes.h"
 4059              		.file 14 "..//ChibiOS//os/rt/include/chsystypes.h"
 4060              		.file 15 "..//ChibiOS//os/rt/include/chschd.h"
 4061              		.file 16 "..//ChibiOS//os/ext/CMSIS/include/core_cm4.h"
 4062              		.file 17 "..//ChibiOS//os/ext/CMSIS/ST/system_stm32f4xx.h"
 4063              		.file 18 "..//ChibiOS//os/ext/CMSIS/ST/stm32f407xx.h"
 4064              		.file 19 "..//ChibiOS//os/rt/ports/ARMCMx/chcore.h"
 4065              		.file 20 "..//ChibiOS//os/rt/ports/ARMCMx/chcore_v7m.h"
 4066              		.file 21 "..//ChibiOS//os/rt/include/chdebug.h"
 4067              		.file 22 "..//ChibiOS//os/rt/include/chtm.h"
 4068              		.file 23 "..//ChibiOS//os/rt/include/chstats.h"
 4069              		.file 24 "..//ChibiOS//os/rt/include/chsem.h"
 4070              		.file 25 "..//ChibiOS//os/rt/include/chmtx.h"
 4071              		.file 26 "..//ChibiOS//os/rt/include/chevents.h"
 4072              		.file 27 "..//ChibiOS//os/rt/include/chqueues.h"
 4073              		.file 28 "..//ChibiOS//os/hal/ports/STM32/STM32F4xx/stm32_dma.h"
 4074              		.file 29 "..//ChibiOS//os/hal/include/hal_ioblock.h"
 4075              		.file 30 "..//ChibiOS//os/hal/ports/STM32/LLD/GPIOv2/pal_lld.h"
 4076              		.file 31 "..//ChibiOS//os/hal/include/adc.h"
 4077              		.file 32 "..//ChibiOS//os/hal/ports/STM32/STM32F4xx/adc_lld.h"
 4078              		.file 33 "..//ChibiOS//os/hal/include/can.h"
 4079              		.file 34 "..//ChibiOS//os/hal/ports/STM32/LLD/can_lld.h"
 4080              		.file 35 "..//ChibiOS//os/hal/include/dac.h"
 4081              		.file 36 "..//ChibiOS//os/hal/ports/STM32/LLD/DACv1/dac_lld.h"
 4082              		.file 37 "..//ChibiOS//os/hal/include/ext.h"
 4083              		.file 38 "..//ChibiOS//os/hal/ports/STM32/LLD/ext_lld.h"
 4084              		.file 39 "..//ChibiOS//os/hal/include/gpt.h"
 4085              		.file 40 "..//ChibiOS//os/hal/ports/STM32/LLD/TIMv1/gpt_lld.h"
ARM GAS  C:\Users\Moi\AppData\Local\Temp\ccOzHcBd.s 			page 73


 4086              		.file 41 "..//ChibiOS//os/hal/ports/STM32/LLD/TIMv1/stm32_tim.h"
 4087              		.file 42 "..//ChibiOS//os/hal/include/i2c.h"
 4088              		.file 43 "..//ChibiOS//os/hal/ports/STM32/LLD/I2Cv1/i2c_lld.h"
 4089              		.file 44 "..//ChibiOS//os/hal/include/i2s.h"
 4090              		.file 45 "..//ChibiOS//os/hal/ports/STM32/LLD/SPIv1/i2s_lld.h"
 4091              		.file 46 "..//ChibiOS//os/hal/include/pwm.h"
 4092              		.file 47 "..//ChibiOS//os/hal/ports/STM32/LLD/TIMv1/pwm_lld.h"
 4093              		.file 48 "..//ChibiOS//os/hal/include/serial.h"
 4094              		.file 49 "..//ChibiOS//os/hal/ports/STM32/LLD/USARTv1/serial_lld.h"
 4095              		.file 50 "..//ChibiOS//os/hal/include/sdc.h"
 4096              		.file 51 "..//ChibiOS//os/hal/ports/STM32/LLD/sdc_lld.h"
 4097              		.file 52 "..//ChibiOS//os/hal/include/spi.h"
 4098              		.file 53 "..//ChibiOS//os/hal/ports/STM32/LLD/SPIv1/spi_lld.h"
 4099              		.file 54 "..//ChibiOS//os/hal/include/usb.h"
 4100              		.file 55 "..//ChibiOS//os/hal/ports/STM32/LLD/OTGv1/usb_lld.h"
 4101              		.file 56 "..//ChibiOS//os/hal/ports/STM32/LLD/OTGv1/stm32_otg.h"
 4102              		.file 57 "..//ChibiOS//os/hal/ports/common/ARMCMx/nvic.h"
 4103              		.section	.debug_info,"",%progbits
 4104              	.Ldebug_info0:
 4105 0000 AF5F0000 		.4byte	0x5faf
 4106 0004 0400     		.2byte	0x4
 4107 0006 00000000 		.4byte	.Ldebug_abbrev0
 4108 000a 04       		.byte	0x4
 4109 000b 01       		.uleb128 0x1
 4110 000c 4A060000 		.4byte	.LASF947
 4111 0010 0C       		.byte	0xc
 4112 0011 031F0000 		.4byte	.LASF948
 4113 0015 51160000 		.4byte	.LASF949
 4114 0019 00030000 		.4byte	.Ldebug_ranges0+0x300
 4115 001d 00000000 		.4byte	0
 4116 0021 00000000 		.4byte	.Ldebug_line0
 4117 0025 02       		.uleb128 0x2
 4118 0026 04       		.byte	0x4
 4119 0027 07       		.byte	0x7
 4120 0028 9C260000 		.4byte	.LASF0
 4121 002c 03       		.uleb128 0x3
 4122 002d 04       		.byte	0x4
 4123 002e 05       		.byte	0x5
 4124 002f 696E7400 		.ascii	"int\000"
 4125 0033 04       		.uleb128 0x4
 4126 0034 460E0000 		.4byte	.LASF4
 4127 0038 07       		.byte	0x7
 4128 0039 D8       		.byte	0xd8
 4129 003a 25000000 		.4byte	0x25
 4130 003e 02       		.uleb128 0x2
 4131 003f 08       		.byte	0x8
 4132 0040 05       		.byte	0x5
 4133 0041 3A240000 		.4byte	.LASF1
 4134 0045 02       		.uleb128 0x2
 4135 0046 08       		.byte	0x8
 4136 0047 04       		.byte	0x4
 4137 0048 4C1A0000 		.4byte	.LASF2
 4138 004c 02       		.uleb128 0x2
 4139 004d 01       		.byte	0x1
 4140 004e 06       		.byte	0x6
 4141 004f 07160000 		.4byte	.LASF3
 4142 0053 04       		.uleb128 0x4
ARM GAS  C:\Users\Moi\AppData\Local\Temp\ccOzHcBd.s 			page 74


 4143 0054 C8000000 		.4byte	.LASF5
 4144 0058 08       		.byte	0x8
 4145 0059 2B       		.byte	0x2b
 4146 005a 5E000000 		.4byte	0x5e
 4147 005e 02       		.uleb128 0x2
 4148 005f 01       		.byte	0x1
 4149 0060 08       		.byte	0x8
 4150 0061 9F0A0000 		.4byte	.LASF6
 4151 0065 04       		.uleb128 0x4
 4152 0066 CA080000 		.4byte	.LASF7
 4153 006a 08       		.byte	0x8
 4154 006b 37       		.byte	0x37
 4155 006c 70000000 		.4byte	0x70
 4156 0070 02       		.uleb128 0x2
 4157 0071 02       		.byte	0x2
 4158 0072 05       		.byte	0x5
 4159 0073 0F270000 		.4byte	.LASF8
 4160 0077 04       		.uleb128 0x4
 4161 0078 EC080000 		.4byte	.LASF9
 4162 007c 08       		.byte	0x8
 4163 007d 39       		.byte	0x39
 4164 007e 82000000 		.4byte	0x82
 4165 0082 02       		.uleb128 0x2
 4166 0083 02       		.byte	0x2
 4167 0084 07       		.byte	0x7
 4168 0085 EC150000 		.4byte	.LASF10
 4169 0089 04       		.uleb128 0x4
 4170 008a 601F0000 		.4byte	.LASF11
 4171 008e 08       		.byte	0x8
 4172 008f 4D       		.byte	0x4d
 4173 0090 94000000 		.4byte	0x94
 4174 0094 02       		.uleb128 0x2
 4175 0095 04       		.byte	0x4
 4176 0096 05       		.byte	0x5
 4177 0097 12190000 		.4byte	.LASF12
 4178 009b 04       		.uleb128 0x4
 4179 009c 6A1F0000 		.4byte	.LASF13
 4180 00a0 08       		.byte	0x8
 4181 00a1 4F       		.byte	0x4f
 4182 00a2 A6000000 		.4byte	0xa6
 4183 00a6 02       		.uleb128 0x2
 4184 00a7 04       		.byte	0x4
 4185 00a8 07       		.byte	0x7
 4186 00a9 A61A0000 		.4byte	.LASF14
 4187 00ad 04       		.uleb128 0x4
 4188 00ae AF110000 		.4byte	.LASF15
 4189 00b2 08       		.byte	0x8
 4190 00b3 69       		.byte	0x69
 4191 00b4 B8000000 		.4byte	0xb8
 4192 00b8 02       		.uleb128 0x2
 4193 00b9 08       		.byte	0x8
 4194 00ba 07       		.byte	0x7
 4195 00bb 6D210000 		.4byte	.LASF16
 4196 00bf 04       		.uleb128 0x4
 4197 00c0 A9080000 		.4byte	.LASF17
 4198 00c4 09       		.byte	0x9
 4199 00c5 22       		.byte	0x22
ARM GAS  C:\Users\Moi\AppData\Local\Temp\ccOzHcBd.s 			page 75


 4200 00c6 CA000000 		.4byte	0xca
 4201 00ca 05       		.uleb128 0x5
 4202 00cb 04       		.byte	0x4
 4203 00cc D0000000 		.4byte	0xd0
 4204 00d0 06       		.uleb128 0x6
 4205 00d1 7D050000 		.4byte	.LASF124
 4206 00d5 04       		.uleb128 0x4
 4207 00d6 210E0000 		.4byte	.LASF18
 4208 00da 0A       		.byte	0xa
 4209 00db 2C       		.byte	0x2c
 4210 00dc 94000000 		.4byte	0x94
 4211 00e0 04       		.uleb128 0x4
 4212 00e1 3F1E0000 		.4byte	.LASF19
 4213 00e5 0A       		.byte	0xa
 4214 00e6 72       		.byte	0x72
 4215 00e7 94000000 		.4byte	0x94
 4216 00eb 07       		.uleb128 0x7
 4217 00ec 41100000 		.4byte	.LASF20
 4218 00f0 07       		.byte	0x7
 4219 00f1 6501     		.2byte	0x165
 4220 00f3 25000000 		.4byte	0x25
 4221 00f7 08       		.uleb128 0x8
 4222 00f8 04       		.byte	0x4
 4223 00f9 0A       		.byte	0xa
 4224 00fa A6       		.byte	0xa6
 4225 00fb 16010000 		.4byte	0x116
 4226 00ff 09       		.uleb128 0x9
 4227 0100 74180000 		.4byte	.LASF21
 4228 0104 0A       		.byte	0xa
 4229 0105 A8       		.byte	0xa8
 4230 0106 EB000000 		.4byte	0xeb
 4231 010a 09       		.uleb128 0x9
 4232 010b E10F0000 		.4byte	.LASF22
 4233 010f 0A       		.byte	0xa
 4234 0110 A9       		.byte	0xa9
 4235 0111 16010000 		.4byte	0x116
 4236 0115 00       		.byte	0
 4237 0116 0A       		.uleb128 0xa
 4238 0117 5E000000 		.4byte	0x5e
 4239 011b 26010000 		.4byte	0x126
 4240 011f 0B       		.uleb128 0xb
 4241 0120 25000000 		.4byte	0x25
 4242 0124 03       		.byte	0x3
 4243 0125 00       		.byte	0
 4244 0126 0C       		.uleb128 0xc
 4245 0127 08       		.byte	0x8
 4246 0128 0A       		.byte	0xa
 4247 0129 A3       		.byte	0xa3
 4248 012a 47010000 		.4byte	0x147
 4249 012e 0D       		.uleb128 0xd
 4250 012f 650E0000 		.4byte	.LASF23
 4251 0133 0A       		.byte	0xa
 4252 0134 A5       		.byte	0xa5
 4253 0135 2C000000 		.4byte	0x2c
 4254 0139 00       		.byte	0
 4255 013a 0D       		.uleb128 0xd
 4256 013b 981F0000 		.4byte	.LASF24
ARM GAS  C:\Users\Moi\AppData\Local\Temp\ccOzHcBd.s 			page 76


 4257 013f 0A       		.byte	0xa
 4258 0140 AA       		.byte	0xaa
 4259 0141 F7000000 		.4byte	0xf7
 4260 0145 04       		.byte	0x4
 4261 0146 00       		.byte	0
 4262 0147 04       		.uleb128 0x4
 4263 0148 CB1E0000 		.4byte	.LASF25
 4264 014c 0A       		.byte	0xa
 4265 014d AB       		.byte	0xab
 4266 014e 26010000 		.4byte	0x126
 4267 0152 04       		.uleb128 0x4
 4268 0153 8F230000 		.4byte	.LASF26
 4269 0157 0A       		.byte	0xa
 4270 0158 AF       		.byte	0xaf
 4271 0159 BF000000 		.4byte	0xbf
 4272 015d 0E       		.uleb128 0xe
 4273 015e 04       		.byte	0x4
 4274 015f 05       		.uleb128 0x5
 4275 0160 04       		.byte	0x4
 4276 0161 65010000 		.4byte	0x165
 4277 0165 02       		.uleb128 0x2
 4278 0166 01       		.byte	0x1
 4279 0167 08       		.byte	0x8
 4280 0168 571B0000 		.4byte	.LASF27
 4281 016c 0F       		.uleb128 0xf
 4282 016d 65010000 		.4byte	0x165
 4283 0171 04       		.uleb128 0x4
 4284 0172 4B140000 		.4byte	.LASF28
 4285 0176 0B       		.byte	0xb
 4286 0177 16       		.byte	0x16
 4287 0178 A6000000 		.4byte	0xa6
 4288 017c 10       		.uleb128 0x10
 4289 017d 151C0000 		.4byte	.LASF33
 4290 0181 18       		.byte	0x18
 4291 0182 0B       		.byte	0xb
 4292 0183 2F       		.byte	0x2f
 4293 0184 CF010000 		.4byte	0x1cf
 4294 0188 0D       		.uleb128 0xd
 4295 0189 CB110000 		.4byte	.LASF29
 4296 018d 0B       		.byte	0xb
 4297 018e 31       		.byte	0x31
 4298 018f CF010000 		.4byte	0x1cf
 4299 0193 00       		.byte	0
 4300 0194 11       		.uleb128 0x11
 4301 0195 5F6B00   		.ascii	"_k\000"
 4302 0198 0B       		.byte	0xb
 4303 0199 32       		.byte	0x32
 4304 019a 2C000000 		.4byte	0x2c
 4305 019e 04       		.byte	0x4
 4306 019f 0D       		.uleb128 0xd
 4307 01a0 291A0000 		.4byte	.LASF30
 4308 01a4 0B       		.byte	0xb
 4309 01a5 32       		.byte	0x32
 4310 01a6 2C000000 		.4byte	0x2c
 4311 01aa 08       		.byte	0x8
 4312 01ab 0D       		.uleb128 0xd
 4313 01ac 3F260000 		.4byte	.LASF31
ARM GAS  C:\Users\Moi\AppData\Local\Temp\ccOzHcBd.s 			page 77


 4314 01b0 0B       		.byte	0xb
 4315 01b1 32       		.byte	0x32
 4316 01b2 2C000000 		.4byte	0x2c
 4317 01b6 0C       		.byte	0xc
 4318 01b7 0D       		.uleb128 0xd
 4319 01b8 2E0B0000 		.4byte	.LASF32
 4320 01bc 0B       		.byte	0xb
 4321 01bd 32       		.byte	0x32
 4322 01be 2C000000 		.4byte	0x2c
 4323 01c2 10       		.byte	0x10
 4324 01c3 11       		.uleb128 0x11
 4325 01c4 5F7800   		.ascii	"_x\000"
 4326 01c7 0B       		.byte	0xb
 4327 01c8 33       		.byte	0x33
 4328 01c9 D5010000 		.4byte	0x1d5
 4329 01cd 14       		.byte	0x14
 4330 01ce 00       		.byte	0
 4331 01cf 05       		.uleb128 0x5
 4332 01d0 04       		.byte	0x4
 4333 01d1 7C010000 		.4byte	0x17c
 4334 01d5 0A       		.uleb128 0xa
 4335 01d6 71010000 		.4byte	0x171
 4336 01da E5010000 		.4byte	0x1e5
 4337 01de 0B       		.uleb128 0xb
 4338 01df 25000000 		.4byte	0x25
 4339 01e3 00       		.byte	0
 4340 01e4 00       		.byte	0
 4341 01e5 10       		.uleb128 0x10
 4342 01e6 02080000 		.4byte	.LASF34
 4343 01ea 24       		.byte	0x24
 4344 01eb 0B       		.byte	0xb
 4345 01ec 37       		.byte	0x37
 4346 01ed 5E020000 		.4byte	0x25e
 4347 01f1 0D       		.uleb128 0xd
 4348 01f2 20130000 		.4byte	.LASF35
 4349 01f6 0B       		.byte	0xb
 4350 01f7 39       		.byte	0x39
 4351 01f8 2C000000 		.4byte	0x2c
 4352 01fc 00       		.byte	0
 4353 01fd 0D       		.uleb128 0xd
 4354 01fe 4E260000 		.4byte	.LASF36
 4355 0202 0B       		.byte	0xb
 4356 0203 3A       		.byte	0x3a
 4357 0204 2C000000 		.4byte	0x2c
 4358 0208 04       		.byte	0x4
 4359 0209 0D       		.uleb128 0xd
 4360 020a 10100000 		.4byte	.LASF37
 4361 020e 0B       		.byte	0xb
 4362 020f 3B       		.byte	0x3b
 4363 0210 2C000000 		.4byte	0x2c
 4364 0214 08       		.byte	0x8
 4365 0215 0D       		.uleb128 0xd
 4366 0216 E1100000 		.4byte	.LASF38
 4367 021a 0B       		.byte	0xb
 4368 021b 3C       		.byte	0x3c
 4369 021c 2C000000 		.4byte	0x2c
 4370 0220 0C       		.byte	0xc
ARM GAS  C:\Users\Moi\AppData\Local\Temp\ccOzHcBd.s 			page 78


 4371 0221 0D       		.uleb128 0xd
 4372 0222 5F010000 		.4byte	.LASF39
 4373 0226 0B       		.byte	0xb
 4374 0227 3D       		.byte	0x3d
 4375 0228 2C000000 		.4byte	0x2c
 4376 022c 10       		.byte	0x10
 4377 022d 0D       		.uleb128 0xd
 4378 022e 5C0C0000 		.4byte	.LASF40
 4379 0232 0B       		.byte	0xb
 4380 0233 3E       		.byte	0x3e
 4381 0234 2C000000 		.4byte	0x2c
 4382 0238 14       		.byte	0x14
 4383 0239 0D       		.uleb128 0xd
 4384 023a 220A0000 		.4byte	.LASF41
 4385 023e 0B       		.byte	0xb
 4386 023f 3F       		.byte	0x3f
 4387 0240 2C000000 		.4byte	0x2c
 4388 0244 18       		.byte	0x18
 4389 0245 0D       		.uleb128 0xd
 4390 0246 64080000 		.4byte	.LASF42
 4391 024a 0B       		.byte	0xb
 4392 024b 40       		.byte	0x40
 4393 024c 2C000000 		.4byte	0x2c
 4394 0250 1C       		.byte	0x1c
 4395 0251 0D       		.uleb128 0xd
 4396 0252 2C0A0000 		.4byte	.LASF43
 4397 0256 0B       		.byte	0xb
 4398 0257 41       		.byte	0x41
 4399 0258 2C000000 		.4byte	0x2c
 4400 025c 20       		.byte	0x20
 4401 025d 00       		.byte	0
 4402 025e 12       		.uleb128 0x12
 4403 025f 41130000 		.4byte	.LASF44
 4404 0263 0801     		.2byte	0x108
 4405 0265 0B       		.byte	0xb
 4406 0266 4A       		.byte	0x4a
 4407 0267 9E020000 		.4byte	0x29e
 4408 026b 0D       		.uleb128 0xd
 4409 026c 19110000 		.4byte	.LASF45
 4410 0270 0B       		.byte	0xb
 4411 0271 4B       		.byte	0x4b
 4412 0272 9E020000 		.4byte	0x29e
 4413 0276 00       		.byte	0
 4414 0277 0D       		.uleb128 0xd
 4415 0278 EE090000 		.4byte	.LASF46
 4416 027c 0B       		.byte	0xb
 4417 027d 4C       		.byte	0x4c
 4418 027e 9E020000 		.4byte	0x29e
 4419 0282 80       		.byte	0x80
 4420 0283 13       		.uleb128 0x13
 4421 0284 68010000 		.4byte	.LASF47
 4422 0288 0B       		.byte	0xb
 4423 0289 4E       		.byte	0x4e
 4424 028a 71010000 		.4byte	0x171
 4425 028e 0001     		.2byte	0x100
 4426 0290 13       		.uleb128 0x13
 4427 0291 B61F0000 		.4byte	.LASF48
ARM GAS  C:\Users\Moi\AppData\Local\Temp\ccOzHcBd.s 			page 79


 4428 0295 0B       		.byte	0xb
 4429 0296 51       		.byte	0x51
 4430 0297 71010000 		.4byte	0x171
 4431 029b 0401     		.2byte	0x104
 4432 029d 00       		.byte	0
 4433 029e 0A       		.uleb128 0xa
 4434 029f 5D010000 		.4byte	0x15d
 4435 02a3 AE020000 		.4byte	0x2ae
 4436 02a7 0B       		.uleb128 0xb
 4437 02a8 25000000 		.4byte	0x25
 4438 02ac 1F       		.byte	0x1f
 4439 02ad 00       		.byte	0
 4440 02ae 12       		.uleb128 0x12
 4441 02af F7000000 		.4byte	.LASF49
 4442 02b3 9001     		.2byte	0x190
 4443 02b5 0B       		.byte	0xb
 4444 02b6 5D       		.byte	0x5d
 4445 02b7 EC020000 		.4byte	0x2ec
 4446 02bb 0D       		.uleb128 0xd
 4447 02bc CB110000 		.4byte	.LASF29
 4448 02c0 0B       		.byte	0xb
 4449 02c1 5E       		.byte	0x5e
 4450 02c2 EC020000 		.4byte	0x2ec
 4451 02c6 00       		.byte	0
 4452 02c7 0D       		.uleb128 0xd
 4453 02c8 84010000 		.4byte	.LASF50
 4454 02cc 0B       		.byte	0xb
 4455 02cd 5F       		.byte	0x5f
 4456 02ce 2C000000 		.4byte	0x2c
 4457 02d2 04       		.byte	0x4
 4458 02d3 0D       		.uleb128 0xd
 4459 02d4 8E1E0000 		.4byte	.LASF51
 4460 02d8 0B       		.byte	0xb
 4461 02d9 61       		.byte	0x61
 4462 02da F2020000 		.4byte	0x2f2
 4463 02de 08       		.byte	0x8
 4464 02df 0D       		.uleb128 0xd
 4465 02e0 41130000 		.4byte	.LASF44
 4466 02e4 0B       		.byte	0xb
 4467 02e5 62       		.byte	0x62
 4468 02e6 5E020000 		.4byte	0x25e
 4469 02ea 88       		.byte	0x88
 4470 02eb 00       		.byte	0
 4471 02ec 05       		.uleb128 0x5
 4472 02ed 04       		.byte	0x4
 4473 02ee AE020000 		.4byte	0x2ae
 4474 02f2 0A       		.uleb128 0xa
 4475 02f3 02030000 		.4byte	0x302
 4476 02f7 02030000 		.4byte	0x302
 4477 02fb 0B       		.uleb128 0xb
 4478 02fc 25000000 		.4byte	0x25
 4479 0300 1F       		.byte	0x1f
 4480 0301 00       		.byte	0
 4481 0302 05       		.uleb128 0x5
 4482 0303 04       		.byte	0x4
 4483 0304 08030000 		.4byte	0x308
 4484 0308 14       		.uleb128 0x14
ARM GAS  C:\Users\Moi\AppData\Local\Temp\ccOzHcBd.s 			page 80


 4485 0309 10       		.uleb128 0x10
 4486 030a B6170000 		.4byte	.LASF52
 4487 030e 08       		.byte	0x8
 4488 030f 0B       		.byte	0xb
 4489 0310 75       		.byte	0x75
 4490 0311 2E030000 		.4byte	0x32e
 4491 0315 0D       		.uleb128 0xd
 4492 0316 0D060000 		.4byte	.LASF53
 4493 031a 0B       		.byte	0xb
 4494 031b 76       		.byte	0x76
 4495 031c 2E030000 		.4byte	0x32e
 4496 0320 00       		.byte	0
 4497 0321 0D       		.uleb128 0xd
 4498 0322 510B0000 		.4byte	.LASF54
 4499 0326 0B       		.byte	0xb
 4500 0327 77       		.byte	0x77
 4501 0328 2C000000 		.4byte	0x2c
 4502 032c 04       		.byte	0x4
 4503 032d 00       		.byte	0
 4504 032e 05       		.uleb128 0x5
 4505 032f 04       		.byte	0x4
 4506 0330 5E000000 		.4byte	0x5e
 4507 0334 10       		.uleb128 0x10
 4508 0335 861E0000 		.4byte	.LASF55
 4509 0339 68       		.byte	0x68
 4510 033a 0B       		.byte	0xb
 4511 033b B5       		.byte	0xb5
 4512 033c 5E040000 		.4byte	0x45e
 4513 0340 11       		.uleb128 0x11
 4514 0341 5F7000   		.ascii	"_p\000"
 4515 0344 0B       		.byte	0xb
 4516 0345 B6       		.byte	0xb6
 4517 0346 2E030000 		.4byte	0x32e
 4518 034a 00       		.byte	0
 4519 034b 11       		.uleb128 0x11
 4520 034c 5F7200   		.ascii	"_r\000"
 4521 034f 0B       		.byte	0xb
 4522 0350 B7       		.byte	0xb7
 4523 0351 2C000000 		.4byte	0x2c
 4524 0355 04       		.byte	0x4
 4525 0356 11       		.uleb128 0x11
 4526 0357 5F7700   		.ascii	"_w\000"
 4527 035a 0B       		.byte	0xb
 4528 035b B8       		.byte	0xb8
 4529 035c 2C000000 		.4byte	0x2c
 4530 0360 08       		.byte	0x8
 4531 0361 0D       		.uleb128 0xd
 4532 0362 E6010000 		.4byte	.LASF56
 4533 0366 0B       		.byte	0xb
 4534 0367 B9       		.byte	0xb9
 4535 0368 70000000 		.4byte	0x70
 4536 036c 0C       		.byte	0xc
 4537 036d 0D       		.uleb128 0xd
 4538 036e 5C1E0000 		.4byte	.LASF57
 4539 0372 0B       		.byte	0xb
 4540 0373 BA       		.byte	0xba
 4541 0374 70000000 		.4byte	0x70
ARM GAS  C:\Users\Moi\AppData\Local\Temp\ccOzHcBd.s 			page 81


 4542 0378 0E       		.byte	0xe
 4543 0379 11       		.uleb128 0x11
 4544 037a 5F626600 		.ascii	"_bf\000"
 4545 037e 0B       		.byte	0xb
 4546 037f BB       		.byte	0xbb
 4547 0380 09030000 		.4byte	0x309
 4548 0384 10       		.byte	0x10
 4549 0385 0D       		.uleb128 0xd
 4550 0386 77040000 		.4byte	.LASF58
 4551 038a 0B       		.byte	0xb
 4552 038b BC       		.byte	0xbc
 4553 038c 2C000000 		.4byte	0x2c
 4554 0390 18       		.byte	0x18
 4555 0391 0D       		.uleb128 0xd
 4556 0392 11120000 		.4byte	.LASF59
 4557 0396 0B       		.byte	0xb
 4558 0397 C3       		.byte	0xc3
 4559 0398 5D010000 		.4byte	0x15d
 4560 039c 1C       		.byte	0x1c
 4561 039d 0D       		.uleb128 0xd
 4562 039e 27270000 		.4byte	.LASF60
 4563 03a2 0B       		.byte	0xb
 4564 03a3 C5       		.byte	0xc5
 4565 03a4 B9050000 		.4byte	0x5b9
 4566 03a8 20       		.byte	0x20
 4567 03a9 0D       		.uleb128 0xd
 4568 03aa A80B0000 		.4byte	.LASF61
 4569 03ae 0B       		.byte	0xb
 4570 03af C7       		.byte	0xc7
 4571 03b0 E8050000 		.4byte	0x5e8
 4572 03b4 24       		.byte	0x24
 4573 03b5 0D       		.uleb128 0xd
 4574 03b6 AF150000 		.4byte	.LASF62
 4575 03ba 0B       		.byte	0xb
 4576 03bb CA       		.byte	0xca
 4577 03bc 0C060000 		.4byte	0x60c
 4578 03c0 28       		.byte	0x28
 4579 03c1 0D       		.uleb128 0xd
 4580 03c2 4B1B0000 		.4byte	.LASF63
 4581 03c6 0B       		.byte	0xb
 4582 03c7 CB       		.byte	0xcb
 4583 03c8 26060000 		.4byte	0x626
 4584 03cc 2C       		.byte	0x2c
 4585 03cd 11       		.uleb128 0x11
 4586 03ce 5F756200 		.ascii	"_ub\000"
 4587 03d2 0B       		.byte	0xb
 4588 03d3 CE       		.byte	0xce
 4589 03d4 09030000 		.4byte	0x309
 4590 03d8 30       		.byte	0x30
 4591 03d9 11       		.uleb128 0x11
 4592 03da 5F757000 		.ascii	"_up\000"
 4593 03de 0B       		.byte	0xb
 4594 03df CF       		.byte	0xcf
 4595 03e0 2E030000 		.4byte	0x32e
 4596 03e4 38       		.byte	0x38
 4597 03e5 11       		.uleb128 0x11
 4598 03e6 5F757200 		.ascii	"_ur\000"
ARM GAS  C:\Users\Moi\AppData\Local\Temp\ccOzHcBd.s 			page 82


 4599 03ea 0B       		.byte	0xb
 4600 03eb D0       		.byte	0xd0
 4601 03ec 2C000000 		.4byte	0x2c
 4602 03f0 3C       		.byte	0x3c
 4603 03f1 0D       		.uleb128 0xd
 4604 03f2 981D0000 		.4byte	.LASF64
 4605 03f6 0B       		.byte	0xb
 4606 03f7 D3       		.byte	0xd3
 4607 03f8 2C060000 		.4byte	0x62c
 4608 03fc 40       		.byte	0x40
 4609 03fd 0D       		.uleb128 0xd
 4610 03fe 8C020000 		.4byte	.LASF65
 4611 0402 0B       		.byte	0xb
 4612 0403 D4       		.byte	0xd4
 4613 0404 3C060000 		.4byte	0x63c
 4614 0408 43       		.byte	0x43
 4615 0409 11       		.uleb128 0x11
 4616 040a 5F6C6200 		.ascii	"_lb\000"
 4617 040e 0B       		.byte	0xb
 4618 040f D7       		.byte	0xd7
 4619 0410 09030000 		.4byte	0x309
 4620 0414 44       		.byte	0x44
 4621 0415 0D       		.uleb128 0xd
 4622 0416 861D0000 		.4byte	.LASF66
 4623 041a 0B       		.byte	0xb
 4624 041b DA       		.byte	0xda
 4625 041c 2C000000 		.4byte	0x2c
 4626 0420 4C       		.byte	0x4c
 4627 0421 0D       		.uleb128 0xd
 4628 0422 4E170000 		.4byte	.LASF67
 4629 0426 0B       		.byte	0xb
 4630 0427 DB       		.byte	0xdb
 4631 0428 D5000000 		.4byte	0xd5
 4632 042c 50       		.byte	0x50
 4633 042d 0D       		.uleb128 0xd
 4634 042e DC040000 		.4byte	.LASF68
 4635 0432 0B       		.byte	0xb
 4636 0433 DE       		.byte	0xde
 4637 0434 7C040000 		.4byte	0x47c
 4638 0438 54       		.byte	0x54
 4639 0439 0D       		.uleb128 0xd
 4640 043a 86020000 		.4byte	.LASF69
 4641 043e 0B       		.byte	0xb
 4642 043f E2       		.byte	0xe2
 4643 0440 52010000 		.4byte	0x152
 4644 0444 58       		.byte	0x58
 4645 0445 0D       		.uleb128 0xd
 4646 0446 EE000000 		.4byte	.LASF70
 4647 044a 0B       		.byte	0xb
 4648 044b E4       		.byte	0xe4
 4649 044c 47010000 		.4byte	0x147
 4650 0450 5C       		.byte	0x5c
 4651 0451 0D       		.uleb128 0xd
 4652 0452 6F240000 		.4byte	.LASF71
 4653 0456 0B       		.byte	0xb
 4654 0457 E5       		.byte	0xe5
 4655 0458 2C000000 		.4byte	0x2c
ARM GAS  C:\Users\Moi\AppData\Local\Temp\ccOzHcBd.s 			page 83


 4656 045c 64       		.byte	0x64
 4657 045d 00       		.byte	0
 4658 045e 15       		.uleb128 0x15
 4659 045f 2C000000 		.4byte	0x2c
 4660 0463 7C040000 		.4byte	0x47c
 4661 0467 16       		.uleb128 0x16
 4662 0468 7C040000 		.4byte	0x47c
 4663 046c 16       		.uleb128 0x16
 4664 046d 5D010000 		.4byte	0x15d
 4665 0471 16       		.uleb128 0x16
 4666 0472 5F010000 		.4byte	0x15f
 4667 0476 16       		.uleb128 0x16
 4668 0477 2C000000 		.4byte	0x2c
 4669 047b 00       		.byte	0
 4670 047c 05       		.uleb128 0x5
 4671 047d 04       		.byte	0x4
 4672 047e 87040000 		.4byte	0x487
 4673 0482 0F       		.uleb128 0xf
 4674 0483 7C040000 		.4byte	0x47c
 4675 0487 17       		.uleb128 0x17
 4676 0488 93050000 		.4byte	.LASF72
 4677 048c 2804     		.2byte	0x428
 4678 048e 0B       		.byte	0xb
 4679 048f 3902     		.2byte	0x239
 4680 0491 B9050000 		.4byte	0x5b9
 4681 0495 18       		.uleb128 0x18
 4682 0496 C6100000 		.4byte	.LASF73
 4683 049a 0B       		.byte	0xb
 4684 049b 3B02     		.2byte	0x23b
 4685 049d 2C000000 		.4byte	0x2c
 4686 04a1 00       		.byte	0
 4687 04a2 18       		.uleb128 0x18
 4688 04a3 6E0D0000 		.4byte	.LASF74
 4689 04a7 0B       		.byte	0xb
 4690 04a8 4002     		.2byte	0x240
 4691 04aa 93060000 		.4byte	0x693
 4692 04ae 04       		.byte	0x4
 4693 04af 18       		.uleb128 0x18
 4694 04b0 AD0A0000 		.4byte	.LASF75
 4695 04b4 0B       		.byte	0xb
 4696 04b5 4002     		.2byte	0x240
 4697 04b7 93060000 		.4byte	0x693
 4698 04bb 08       		.byte	0x8
 4699 04bc 18       		.uleb128 0x18
 4700 04bd CE090000 		.4byte	.LASF76
 4701 04c1 0B       		.byte	0xb
 4702 04c2 4002     		.2byte	0x240
 4703 04c4 93060000 		.4byte	0x693
 4704 04c8 0C       		.byte	0xc
 4705 04c9 18       		.uleb128 0x18
 4706 04ca 7F010000 		.4byte	.LASF77
 4707 04ce 0B       		.byte	0xb
 4708 04cf 4202     		.2byte	0x242
 4709 04d1 2C000000 		.4byte	0x2c
 4710 04d5 10       		.byte	0x10
 4711 04d6 18       		.uleb128 0x18
 4712 04d7 B6190000 		.4byte	.LASF78
ARM GAS  C:\Users\Moi\AppData\Local\Temp\ccOzHcBd.s 			page 84


 4713 04db 0B       		.byte	0xb
 4714 04dc 4302     		.2byte	0x243
 4715 04de 75080000 		.4byte	0x875
 4716 04e2 14       		.byte	0x14
 4717 04e3 18       		.uleb128 0x18
 4718 04e4 A8220000 		.4byte	.LASF79
 4719 04e8 0B       		.byte	0xb
 4720 04e9 4602     		.2byte	0x246
 4721 04eb 2C000000 		.4byte	0x2c
 4722 04ef 30       		.byte	0x30
 4723 04f0 18       		.uleb128 0x18
 4724 04f1 EB240000 		.4byte	.LASF80
 4725 04f5 0B       		.byte	0xb
 4726 04f6 4702     		.2byte	0x247
 4727 04f8 8A080000 		.4byte	0x88a
 4728 04fc 34       		.byte	0x34
 4729 04fd 18       		.uleb128 0x18
 4730 04fe 07230000 		.4byte	.LASF81
 4731 0502 0B       		.byte	0xb
 4732 0503 4902     		.2byte	0x249
 4733 0505 2C000000 		.4byte	0x2c
 4734 0509 38       		.byte	0x38
 4735 050a 18       		.uleb128 0x18
 4736 050b DB1D0000 		.4byte	.LASF82
 4737 050f 0B       		.byte	0xb
 4738 0510 4B02     		.2byte	0x24b
 4739 0512 9B080000 		.4byte	0x89b
 4740 0516 3C       		.byte	0x3c
 4741 0517 18       		.uleb128 0x18
 4742 0518 D6090000 		.4byte	.LASF83
 4743 051c 0B       		.byte	0xb
 4744 051d 4E02     		.2byte	0x24e
 4745 051f CF010000 		.4byte	0x1cf
 4746 0523 40       		.byte	0x40
 4747 0524 18       		.uleb128 0x18
 4748 0525 BF090000 		.4byte	.LASF84
 4749 0529 0B       		.byte	0xb
 4750 052a 4F02     		.2byte	0x24f
 4751 052c 2C000000 		.4byte	0x2c
 4752 0530 44       		.byte	0x44
 4753 0531 18       		.uleb128 0x18
 4754 0532 F01F0000 		.4byte	.LASF85
 4755 0536 0B       		.byte	0xb
 4756 0537 5002     		.2byte	0x250
 4757 0539 CF010000 		.4byte	0x1cf
 4758 053d 48       		.byte	0x48
 4759 053e 18       		.uleb128 0x18
 4760 053f EC160000 		.4byte	.LASF86
 4761 0543 0B       		.byte	0xb
 4762 0544 5102     		.2byte	0x251
 4763 0546 A1080000 		.4byte	0x8a1
 4764 054a 4C       		.byte	0x4c
 4765 054b 18       		.uleb128 0x18
 4766 054c 1B020000 		.4byte	.LASF87
 4767 0550 0B       		.byte	0xb
 4768 0551 5402     		.2byte	0x254
 4769 0553 2C000000 		.4byte	0x2c
ARM GAS  C:\Users\Moi\AppData\Local\Temp\ccOzHcBd.s 			page 85


 4770 0557 50       		.byte	0x50
 4771 0558 18       		.uleb128 0x18
 4772 0559 2B0F0000 		.4byte	.LASF88
 4773 055d 0B       		.byte	0xb
 4774 055e 5502     		.2byte	0x255
 4775 0560 5F010000 		.4byte	0x15f
 4776 0564 54       		.byte	0x54
 4777 0565 18       		.uleb128 0x18
 4778 0566 50100000 		.4byte	.LASF89
 4779 056a 0B       		.byte	0xb
 4780 056b 7802     		.2byte	0x278
 4781 056d 53080000 		.4byte	0x853
 4782 0571 58       		.byte	0x58
 4783 0572 19       		.uleb128 0x19
 4784 0573 F7000000 		.4byte	.LASF49
 4785 0577 0B       		.byte	0xb
 4786 0578 7C02     		.2byte	0x27c
 4787 057a EC020000 		.4byte	0x2ec
 4788 057e 4801     		.2byte	0x148
 4789 0580 19       		.uleb128 0x19
 4790 0581 4D1C0000 		.4byte	.LASF90
 4791 0585 0B       		.byte	0xb
 4792 0586 7D02     		.2byte	0x27d
 4793 0588 AE020000 		.4byte	0x2ae
 4794 058c 4C01     		.2byte	0x14c
 4795 058e 19       		.uleb128 0x19
 4796 058f 50020000 		.4byte	.LASF91
 4797 0593 0B       		.byte	0xb
 4798 0594 8102     		.2byte	0x281
 4799 0596 B2080000 		.4byte	0x8b2
 4800 059a DC02     		.2byte	0x2dc
 4801 059c 19       		.uleb128 0x19
 4802 059d B91D0000 		.4byte	.LASF92
 4803 05a1 0B       		.byte	0xb
 4804 05a2 8602     		.2byte	0x286
 4805 05a4 58060000 		.4byte	0x658
 4806 05a8 E002     		.2byte	0x2e0
 4807 05aa 19       		.uleb128 0x19
 4808 05ab FF050000 		.4byte	.LASF93
 4809 05af 0B       		.byte	0xb
 4810 05b0 8802     		.2byte	0x288
 4811 05b2 BE080000 		.4byte	0x8be
 4812 05b6 EC02     		.2byte	0x2ec
 4813 05b8 00       		.byte	0
 4814 05b9 05       		.uleb128 0x5
 4815 05ba 04       		.byte	0x4
 4816 05bb 5E040000 		.4byte	0x45e
 4817 05bf 15       		.uleb128 0x15
 4818 05c0 2C000000 		.4byte	0x2c
 4819 05c4 DD050000 		.4byte	0x5dd
 4820 05c8 16       		.uleb128 0x16
 4821 05c9 7C040000 		.4byte	0x47c
 4822 05cd 16       		.uleb128 0x16
 4823 05ce 5D010000 		.4byte	0x15d
 4824 05d2 16       		.uleb128 0x16
 4825 05d3 DD050000 		.4byte	0x5dd
 4826 05d7 16       		.uleb128 0x16
ARM GAS  C:\Users\Moi\AppData\Local\Temp\ccOzHcBd.s 			page 86


 4827 05d8 2C000000 		.4byte	0x2c
 4828 05dc 00       		.byte	0
 4829 05dd 05       		.uleb128 0x5
 4830 05de 04       		.byte	0x4
 4831 05df 6C010000 		.4byte	0x16c
 4832 05e3 1A       		.uleb128 0x1a
 4833 05e4 DD050000 		.4byte	0x5dd
 4834 05e8 05       		.uleb128 0x5
 4835 05e9 04       		.byte	0x4
 4836 05ea BF050000 		.4byte	0x5bf
 4837 05ee 15       		.uleb128 0x15
 4838 05ef E0000000 		.4byte	0xe0
 4839 05f3 0C060000 		.4byte	0x60c
 4840 05f7 16       		.uleb128 0x16
 4841 05f8 7C040000 		.4byte	0x47c
 4842 05fc 16       		.uleb128 0x16
 4843 05fd 5D010000 		.4byte	0x15d
 4844 0601 16       		.uleb128 0x16
 4845 0602 E0000000 		.4byte	0xe0
 4846 0606 16       		.uleb128 0x16
 4847 0607 2C000000 		.4byte	0x2c
 4848 060b 00       		.byte	0
 4849 060c 05       		.uleb128 0x5
 4850 060d 04       		.byte	0x4
 4851 060e EE050000 		.4byte	0x5ee
 4852 0612 15       		.uleb128 0x15
 4853 0613 2C000000 		.4byte	0x2c
 4854 0617 26060000 		.4byte	0x626
 4855 061b 16       		.uleb128 0x16
 4856 061c 7C040000 		.4byte	0x47c
 4857 0620 16       		.uleb128 0x16
 4858 0621 5D010000 		.4byte	0x15d
 4859 0625 00       		.byte	0
 4860 0626 05       		.uleb128 0x5
 4861 0627 04       		.byte	0x4
 4862 0628 12060000 		.4byte	0x612
 4863 062c 0A       		.uleb128 0xa
 4864 062d 5E000000 		.4byte	0x5e
 4865 0631 3C060000 		.4byte	0x63c
 4866 0635 0B       		.uleb128 0xb
 4867 0636 25000000 		.4byte	0x25
 4868 063a 02       		.byte	0x2
 4869 063b 00       		.byte	0
 4870 063c 0A       		.uleb128 0xa
 4871 063d 5E000000 		.4byte	0x5e
 4872 0641 4C060000 		.4byte	0x64c
 4873 0645 0B       		.uleb128 0xb
 4874 0646 25000000 		.4byte	0x25
 4875 064a 00       		.byte	0
 4876 064b 00       		.byte	0
 4877 064c 07       		.uleb128 0x7
 4878 064d FC250000 		.4byte	.LASF94
 4879 0651 0B       		.byte	0xb
 4880 0652 1F01     		.2byte	0x11f
 4881 0654 34030000 		.4byte	0x334
 4882 0658 1B       		.uleb128 0x1b
 4883 0659 751B0000 		.4byte	.LASF95
ARM GAS  C:\Users\Moi\AppData\Local\Temp\ccOzHcBd.s 			page 87


 4884 065d 0C       		.byte	0xc
 4885 065e 0B       		.byte	0xb
 4886 065f 2301     		.2byte	0x123
 4887 0661 8D060000 		.4byte	0x68d
 4888 0665 18       		.uleb128 0x18
 4889 0666 CB110000 		.4byte	.LASF29
 4890 066a 0B       		.byte	0xb
 4891 066b 2501     		.2byte	0x125
 4892 066d 8D060000 		.4byte	0x68d
 4893 0671 00       		.byte	0
 4894 0672 18       		.uleb128 0x18
 4895 0673 7F100000 		.4byte	.LASF96
 4896 0677 0B       		.byte	0xb
 4897 0678 2601     		.2byte	0x126
 4898 067a 2C000000 		.4byte	0x2c
 4899 067e 04       		.byte	0x4
 4900 067f 18       		.uleb128 0x18
 4901 0680 B0190000 		.4byte	.LASF97
 4902 0684 0B       		.byte	0xb
 4903 0685 2701     		.2byte	0x127
 4904 0687 93060000 		.4byte	0x693
 4905 068b 08       		.byte	0x8
 4906 068c 00       		.byte	0
 4907 068d 05       		.uleb128 0x5
 4908 068e 04       		.byte	0x4
 4909 068f 58060000 		.4byte	0x658
 4910 0693 05       		.uleb128 0x5
 4911 0694 04       		.byte	0x4
 4912 0695 4C060000 		.4byte	0x64c
 4913 0699 1B       		.uleb128 0x1b
 4914 069a 52270000 		.4byte	.LASF98
 4915 069e 0E       		.byte	0xe
 4916 069f 0B       		.byte	0xb
 4917 06a0 3F01     		.2byte	0x13f
 4918 06a2 CE060000 		.4byte	0x6ce
 4919 06a6 18       		.uleb128 0x18
 4920 06a7 9A150000 		.4byte	.LASF99
 4921 06ab 0B       		.byte	0xb
 4922 06ac 4001     		.2byte	0x140
 4923 06ae CE060000 		.4byte	0x6ce
 4924 06b2 00       		.byte	0
 4925 06b3 18       		.uleb128 0x18
 4926 06b4 BC0C0000 		.4byte	.LASF100
 4927 06b8 0B       		.byte	0xb
 4928 06b9 4101     		.2byte	0x141
 4929 06bb CE060000 		.4byte	0x6ce
 4930 06bf 06       		.byte	0x6
 4931 06c0 18       		.uleb128 0x18
 4932 06c1 94030000 		.4byte	.LASF101
 4933 06c5 0B       		.byte	0xb
 4934 06c6 4201     		.2byte	0x142
 4935 06c8 82000000 		.4byte	0x82
 4936 06cc 0C       		.byte	0xc
 4937 06cd 00       		.byte	0
 4938 06ce 0A       		.uleb128 0xa
 4939 06cf 82000000 		.4byte	0x82
 4940 06d3 DE060000 		.4byte	0x6de
ARM GAS  C:\Users\Moi\AppData\Local\Temp\ccOzHcBd.s 			page 88


 4941 06d7 0B       		.uleb128 0xb
 4942 06d8 25000000 		.4byte	0x25
 4943 06dc 02       		.byte	0x2
 4944 06dd 00       		.byte	0
 4945 06de 1C       		.uleb128 0x1c
 4946 06df D0       		.byte	0xd0
 4947 06e0 0B       		.byte	0xb
 4948 06e1 5902     		.2byte	0x259
 4949 06e3 DF070000 		.4byte	0x7df
 4950 06e7 18       		.uleb128 0x18
 4951 06e8 15090000 		.4byte	.LASF102
 4952 06ec 0B       		.byte	0xb
 4953 06ed 5B02     		.2byte	0x25b
 4954 06ef 25000000 		.4byte	0x25
 4955 06f3 00       		.byte	0
 4956 06f4 18       		.uleb128 0x18
 4957 06f5 27150000 		.4byte	.LASF103
 4958 06f9 0B       		.byte	0xb
 4959 06fa 5C02     		.2byte	0x25c
 4960 06fc 5F010000 		.4byte	0x15f
 4961 0700 04       		.byte	0x4
 4962 0701 18       		.uleb128 0x18
 4963 0702 30180000 		.4byte	.LASF104
 4964 0706 0B       		.byte	0xb
 4965 0707 5D02     		.2byte	0x25d
 4966 0709 DF070000 		.4byte	0x7df
 4967 070d 08       		.byte	0x8
 4968 070e 18       		.uleb128 0x18
 4969 070f 4D0E0000 		.4byte	.LASF105
 4970 0713 0B       		.byte	0xb
 4971 0714 5E02     		.2byte	0x25e
 4972 0716 E5010000 		.4byte	0x1e5
 4973 071a 24       		.byte	0x24
 4974 071b 18       		.uleb128 0x18
 4975 071c D4210000 		.4byte	.LASF106
 4976 0720 0B       		.byte	0xb
 4977 0721 5F02     		.2byte	0x25f
 4978 0723 2C000000 		.4byte	0x2c
 4979 0727 48       		.byte	0x48
 4980 0728 18       		.uleb128 0x18
 4981 0729 E1190000 		.4byte	.LASF107
 4982 072d 0B       		.byte	0xb
 4983 072e 6002     		.2byte	0x260
 4984 0730 B8000000 		.4byte	0xb8
 4985 0734 50       		.byte	0x50
 4986 0735 18       		.uleb128 0x18
 4987 0736 B3260000 		.4byte	.LASF108
 4988 073a 0B       		.byte	0xb
 4989 073b 6102     		.2byte	0x261
 4990 073d 99060000 		.4byte	0x699
 4991 0741 58       		.byte	0x58
 4992 0742 18       		.uleb128 0x18
 4993 0743 AC1D0000 		.4byte	.LASF109
 4994 0747 0B       		.byte	0xb
 4995 0748 6202     		.2byte	0x262
 4996 074a 47010000 		.4byte	0x147
 4997 074e 68       		.byte	0x68
ARM GAS  C:\Users\Moi\AppData\Local\Temp\ccOzHcBd.s 			page 89


 4998 074f 18       		.uleb128 0x18
 4999 0750 3C060000 		.4byte	.LASF110
 5000 0754 0B       		.byte	0xb
 5001 0755 6302     		.2byte	0x263
 5002 0757 47010000 		.4byte	0x147
 5003 075b 70       		.byte	0x70
 5004 075c 18       		.uleb128 0x18
 5005 075d 3E190000 		.4byte	.LASF111
 5006 0761 0B       		.byte	0xb
 5007 0762 6402     		.2byte	0x264
 5008 0764 47010000 		.4byte	0x147
 5009 0768 78       		.byte	0x78
 5010 0769 18       		.uleb128 0x18
 5011 076a DE170000 		.4byte	.LASF112
 5012 076e 0B       		.byte	0xb
 5013 076f 6502     		.2byte	0x265
 5014 0771 EF070000 		.4byte	0x7ef
 5015 0775 80       		.byte	0x80
 5016 0776 18       		.uleb128 0x18
 5017 0777 FA110000 		.4byte	.LASF113
 5018 077b 0B       		.byte	0xb
 5019 077c 6602     		.2byte	0x266
 5020 077e FF070000 		.4byte	0x7ff
 5021 0782 88       		.byte	0x88
 5022 0783 18       		.uleb128 0x18
 5023 0784 9C1C0000 		.4byte	.LASF114
 5024 0788 0B       		.byte	0xb
 5025 0789 6702     		.2byte	0x267
 5026 078b 2C000000 		.4byte	0x2c
 5027 078f A0       		.byte	0xa0
 5028 0790 18       		.uleb128 0x18
 5029 0791 020D0000 		.4byte	.LASF115
 5030 0795 0B       		.byte	0xb
 5031 0796 6802     		.2byte	0x268
 5032 0798 47010000 		.4byte	0x147
 5033 079c A4       		.byte	0xa4
 5034 079d 18       		.uleb128 0x18
 5035 079e E80F0000 		.4byte	.LASF116
 5036 07a2 0B       		.byte	0xb
 5037 07a3 6902     		.2byte	0x269
 5038 07a5 47010000 		.4byte	0x147
 5039 07a9 AC       		.byte	0xac
 5040 07aa 18       		.uleb128 0x18
 5041 07ab FB0A0000 		.4byte	.LASF117
 5042 07af 0B       		.byte	0xb
 5043 07b0 6A02     		.2byte	0x26a
 5044 07b2 47010000 		.4byte	0x147
 5045 07b6 B4       		.byte	0xb4
 5046 07b7 18       		.uleb128 0x18
 5047 07b8 BA130000 		.4byte	.LASF118
 5048 07bc 0B       		.byte	0xb
 5049 07bd 6B02     		.2byte	0x26b
 5050 07bf 47010000 		.4byte	0x147
 5051 07c3 BC       		.byte	0xbc
 5052 07c4 18       		.uleb128 0x18
 5053 07c5 87180000 		.4byte	.LASF119
 5054 07c9 0B       		.byte	0xb
ARM GAS  C:\Users\Moi\AppData\Local\Temp\ccOzHcBd.s 			page 90


 5055 07ca 6C02     		.2byte	0x26c
 5056 07cc 47010000 		.4byte	0x147
 5057 07d0 C4       		.byte	0xc4
 5058 07d1 18       		.uleb128 0x18
 5059 07d2 D61E0000 		.4byte	.LASF120
 5060 07d6 0B       		.byte	0xb
 5061 07d7 6D02     		.2byte	0x26d
 5062 07d9 2C000000 		.4byte	0x2c
 5063 07dd CC       		.byte	0xcc
 5064 07de 00       		.byte	0
 5065 07df 0A       		.uleb128 0xa
 5066 07e0 65010000 		.4byte	0x165
 5067 07e4 EF070000 		.4byte	0x7ef
 5068 07e8 0B       		.uleb128 0xb
 5069 07e9 25000000 		.4byte	0x25
 5070 07ed 19       		.byte	0x19
 5071 07ee 00       		.byte	0
 5072 07ef 0A       		.uleb128 0xa
 5073 07f0 65010000 		.4byte	0x165
 5074 07f4 FF070000 		.4byte	0x7ff
 5075 07f8 0B       		.uleb128 0xb
 5076 07f9 25000000 		.4byte	0x25
 5077 07fd 07       		.byte	0x7
 5078 07fe 00       		.byte	0
 5079 07ff 0A       		.uleb128 0xa
 5080 0800 65010000 		.4byte	0x165
 5081 0804 0F080000 		.4byte	0x80f
 5082 0808 0B       		.uleb128 0xb
 5083 0809 25000000 		.4byte	0x25
 5084 080d 17       		.byte	0x17
 5085 080e 00       		.byte	0
 5086 080f 1C       		.uleb128 0x1c
 5087 0810 F0       		.byte	0xf0
 5088 0811 0B       		.byte	0xb
 5089 0812 7202     		.2byte	0x272
 5090 0814 33080000 		.4byte	0x833
 5091 0818 18       		.uleb128 0x18
 5092 0819 D4190000 		.4byte	.LASF121
 5093 081d 0B       		.byte	0xb
 5094 081e 7502     		.2byte	0x275
 5095 0820 33080000 		.4byte	0x833
 5096 0824 00       		.byte	0
 5097 0825 18       		.uleb128 0x18
 5098 0826 750D0000 		.4byte	.LASF122
 5099 082a 0B       		.byte	0xb
 5100 082b 7602     		.2byte	0x276
 5101 082d 43080000 		.4byte	0x843
 5102 0831 78       		.byte	0x78
 5103 0832 00       		.byte	0
 5104 0833 0A       		.uleb128 0xa
 5105 0834 2E030000 		.4byte	0x32e
 5106 0838 43080000 		.4byte	0x843
 5107 083c 0B       		.uleb128 0xb
 5108 083d 25000000 		.4byte	0x25
 5109 0841 1D       		.byte	0x1d
 5110 0842 00       		.byte	0
 5111 0843 0A       		.uleb128 0xa
ARM GAS  C:\Users\Moi\AppData\Local\Temp\ccOzHcBd.s 			page 91


 5112 0844 25000000 		.4byte	0x25
 5113 0848 53080000 		.4byte	0x853
 5114 084c 0B       		.uleb128 0xb
 5115 084d 25000000 		.4byte	0x25
 5116 0851 1D       		.byte	0x1d
 5117 0852 00       		.byte	0
 5118 0853 1D       		.uleb128 0x1d
 5119 0854 F0       		.byte	0xf0
 5120 0855 0B       		.byte	0xb
 5121 0856 5702     		.2byte	0x257
 5122 0858 75080000 		.4byte	0x875
 5123 085c 1E       		.uleb128 0x1e
 5124 085d 93050000 		.4byte	.LASF72
 5125 0861 0B       		.byte	0xb
 5126 0862 6E02     		.2byte	0x26e
 5127 0864 DE060000 		.4byte	0x6de
 5128 0868 1E       		.uleb128 0x1e
 5129 0869 A2020000 		.4byte	.LASF123
 5130 086d 0B       		.byte	0xb
 5131 086e 7702     		.2byte	0x277
 5132 0870 0F080000 		.4byte	0x80f
 5133 0874 00       		.byte	0
 5134 0875 0A       		.uleb128 0xa
 5135 0876 65010000 		.4byte	0x165
 5136 087a 85080000 		.4byte	0x885
 5137 087e 0B       		.uleb128 0xb
 5138 087f 25000000 		.4byte	0x25
 5139 0883 18       		.byte	0x18
 5140 0884 00       		.byte	0
 5141 0885 06       		.uleb128 0x6
 5142 0886 C11D0000 		.4byte	.LASF125
 5143 088a 05       		.uleb128 0x5
 5144 088b 04       		.byte	0x4
 5145 088c 85080000 		.4byte	0x885
 5146 0890 1F       		.uleb128 0x1f
 5147 0891 9B080000 		.4byte	0x89b
 5148 0895 16       		.uleb128 0x16
 5149 0896 7C040000 		.4byte	0x47c
 5150 089a 00       		.byte	0
 5151 089b 05       		.uleb128 0x5
 5152 089c 04       		.byte	0x4
 5153 089d 90080000 		.4byte	0x890
 5154 08a1 05       		.uleb128 0x5
 5155 08a2 04       		.byte	0x4
 5156 08a3 CF010000 		.4byte	0x1cf
 5157 08a7 1F       		.uleb128 0x1f
 5158 08a8 B2080000 		.4byte	0x8b2
 5159 08ac 16       		.uleb128 0x16
 5160 08ad 2C000000 		.4byte	0x2c
 5161 08b1 00       		.byte	0
 5162 08b2 05       		.uleb128 0x5
 5163 08b3 04       		.byte	0x4
 5164 08b4 B8080000 		.4byte	0x8b8
 5165 08b8 05       		.uleb128 0x5
 5166 08b9 04       		.byte	0x4
 5167 08ba A7080000 		.4byte	0x8a7
 5168 08be 0A       		.uleb128 0xa
ARM GAS  C:\Users\Moi\AppData\Local\Temp\ccOzHcBd.s 			page 92


 5169 08bf 4C060000 		.4byte	0x64c
 5170 08c3 CE080000 		.4byte	0x8ce
 5171 08c7 0B       		.uleb128 0xb
 5172 08c8 25000000 		.4byte	0x25
 5173 08cc 02       		.byte	0x2
 5174 08cd 00       		.byte	0
 5175 08ce 20       		.uleb128 0x20
 5176 08cf 5E1D0000 		.4byte	.LASF126
 5177 08d3 0B       		.byte	0xb
 5178 08d4 0703     		.2byte	0x307
 5179 08d6 7C040000 		.4byte	0x47c
 5180 08da 20       		.uleb128 0x20
 5181 08db 85220000 		.4byte	.LASF127
 5182 08df 0B       		.byte	0xb
 5183 08e0 0803     		.2byte	0x308
 5184 08e2 82040000 		.4byte	0x482
 5185 08e6 04       		.uleb128 0x4
 5186 08e7 6D0E0000 		.4byte	.LASF128
 5187 08eb 0C       		.byte	0xc
 5188 08ec 18       		.byte	0x18
 5189 08ed 53000000 		.4byte	0x53
 5190 08f1 0F       		.uleb128 0xf
 5191 08f2 E6080000 		.4byte	0x8e6
 5192 08f6 04       		.uleb128 0x4
 5193 08f7 C7150000 		.4byte	.LASF129
 5194 08fb 0C       		.byte	0xc
 5195 08fc 20       		.byte	0x20
 5196 08fd 65000000 		.4byte	0x65
 5197 0901 04       		.uleb128 0x4
 5198 0902 C5010000 		.4byte	.LASF130
 5199 0906 0C       		.byte	0xc
 5200 0907 24       		.byte	0x24
 5201 0908 77000000 		.4byte	0x77
 5202 090c 04       		.uleb128 0x4
 5203 090d 66030000 		.4byte	.LASF131
 5204 0911 0C       		.byte	0xc
 5205 0912 2C       		.byte	0x2c
 5206 0913 89000000 		.4byte	0x89
 5207 0917 1A       		.uleb128 0x1a
 5208 0918 0C090000 		.4byte	0x90c
 5209 091c 04       		.uleb128 0x4
 5210 091d 151A0000 		.4byte	.LASF132
 5211 0921 0C       		.byte	0xc
 5212 0922 30       		.byte	0x30
 5213 0923 9B000000 		.4byte	0x9b
 5214 0927 1A       		.uleb128 0x1a
 5215 0928 1C090000 		.4byte	0x91c
 5216 092c 0F       		.uleb128 0xf
 5217 092d 27090000 		.4byte	0x927
 5218 0931 04       		.uleb128 0x4
 5219 0932 0F0C0000 		.4byte	.LASF133
 5220 0936 0C       		.byte	0xc
 5221 0937 3C       		.byte	0x3c
 5222 0938 AD000000 		.4byte	0xad
 5223 093c 04       		.uleb128 0x4
 5224 093d D30D0000 		.4byte	.LASF134
 5225 0941 0D       		.byte	0xd
ARM GAS  C:\Users\Moi\AppData\Local\Temp\ccOzHcBd.s 			page 93


 5226 0942 45       		.byte	0x45
 5227 0943 1C090000 		.4byte	0x91c
 5228 0947 04       		.uleb128 0x4
 5229 0948 A7050000 		.4byte	.LASF135
 5230 094c 0D       		.byte	0xd
 5231 094d 46       		.byte	0x46
 5232 094e 31090000 		.4byte	0x931
 5233 0952 04       		.uleb128 0x4
 5234 0953 57130000 		.4byte	.LASF136
 5235 0957 0D       		.byte	0xd
 5236 0958 48       		.byte	0x48
 5237 0959 E6080000 		.4byte	0x8e6
 5238 095d 04       		.uleb128 0x4
 5239 095e 7C220000 		.4byte	.LASF137
 5240 0962 0D       		.byte	0xd
 5241 0963 49       		.byte	0x49
 5242 0964 E6080000 		.4byte	0x8e6
 5243 0968 04       		.uleb128 0x4
 5244 0969 E0120000 		.4byte	.LASF138
 5245 096d 0D       		.byte	0xd
 5246 096e 4A       		.byte	0x4a
 5247 096f E6080000 		.4byte	0x8e6
 5248 0973 04       		.uleb128 0x4
 5249 0974 1D150000 		.4byte	.LASF139
 5250 0978 0D       		.byte	0xd
 5251 0979 4B       		.byte	0x4b
 5252 097a E6080000 		.4byte	0x8e6
 5253 097e 04       		.uleb128 0x4
 5254 097f D3070000 		.4byte	.LASF140
 5255 0983 0D       		.byte	0xd
 5256 0984 4C       		.byte	0x4c
 5257 0985 1C090000 		.4byte	0x91c
 5258 0989 04       		.uleb128 0x4
 5259 098a 4E000000 		.4byte	.LASF141
 5260 098e 0D       		.byte	0xd
 5261 098f 4D       		.byte	0x4d
 5262 0990 0C090000 		.4byte	0x90c
 5263 0994 04       		.uleb128 0x4
 5264 0995 611A0000 		.4byte	.LASF142
 5265 0999 0D       		.byte	0xd
 5266 099a 4F       		.byte	0x4f
 5267 099b 1C090000 		.4byte	0x91c
 5268 099f 04       		.uleb128 0x4
 5269 09a0 F3240000 		.4byte	.LASF143
 5270 09a4 0D       		.byte	0xd
 5271 09a5 50       		.byte	0x50
 5272 09a6 1C090000 		.4byte	0x91c
 5273 09aa 04       		.uleb128 0x4
 5274 09ab F51C0000 		.4byte	.LASF144
 5275 09af 0D       		.byte	0xd
 5276 09b0 51       		.byte	0x51
 5277 09b1 0C090000 		.4byte	0x90c
 5278 09b5 04       		.uleb128 0x4
 5279 09b6 CC0D0000 		.4byte	.LASF145
 5280 09ba 0D       		.byte	0xd
 5281 09bb 52       		.byte	0x52
 5282 09bc 1C090000 		.4byte	0x91c
ARM GAS  C:\Users\Moi\AppData\Local\Temp\ccOzHcBd.s 			page 94


 5283 09c0 04       		.uleb128 0x4
 5284 09c1 7A030000 		.4byte	.LASF146
 5285 09c5 0E       		.byte	0xe
 5286 09c6 33       		.byte	0x33
 5287 09c7 1C090000 		.4byte	0x91c
 5288 09cb 1A       		.uleb128 0x1a
 5289 09cc C0090000 		.4byte	0x9c0
 5290 09d0 04       		.uleb128 0x4
 5291 09d1 16030000 		.4byte	.LASF147
 5292 09d5 0E       		.byte	0xe
 5293 09d6 3F       		.byte	0x3f
 5294 09d7 DB090000 		.4byte	0x9db
 5295 09db 10       		.uleb128 0x10
 5296 09dc DF0A0000 		.4byte	.LASF148
 5297 09e0 68       		.byte	0x68
 5298 09e1 0F       		.byte	0xf
 5299 09e2 C2       		.byte	0xc2
 5300 09e3 F90A0000 		.4byte	0xaf9
 5301 09e7 0D       		.uleb128 0xd
 5302 09e8 7F120000 		.4byte	.LASF149
 5303 09ec 0F       		.byte	0xf
 5304 09ed C3       		.byte	0xc3
 5305 09ee 040B0000 		.4byte	0xb04
 5306 09f2 00       		.byte	0
 5307 09f3 0D       		.uleb128 0xd
 5308 09f4 980E0000 		.4byte	.LASF150
 5309 09f8 0F       		.byte	0xf
 5310 09f9 C5       		.byte	0xc5
 5311 09fa 040B0000 		.4byte	0xb04
 5312 09fe 04       		.byte	0x4
 5313 09ff 0D       		.uleb128 0xd
 5314 0a00 98110000 		.4byte	.LASF151
 5315 0a04 0F       		.byte	0xf
 5316 0a05 C7       		.byte	0xc7
 5317 0a06 7E090000 		.4byte	0x97e
 5318 0a0a 08       		.byte	0x8
 5319 0a0b 0D       		.uleb128 0xd
 5320 0a0c 890B0000 		.4byte	.LASF152
 5321 0a10 0F       		.byte	0xf
 5322 0a11 C8       		.byte	0xc8
 5323 0a12 A7160000 		.4byte	0x16a7
 5324 0a16 0C       		.byte	0xc
 5325 0a17 0D       		.uleb128 0xd
 5326 0a18 5A020000 		.4byte	.LASF153
 5327 0a1c 0F       		.byte	0xf
 5328 0a1d CA       		.byte	0xca
 5329 0a1e 040B0000 		.4byte	0xb04
 5330 0a22 10       		.byte	0x10
 5331 0a23 0D       		.uleb128 0xd
 5332 0a24 7D250000 		.4byte	.LASF154
 5333 0a28 0F       		.byte	0xf
 5334 0a29 CB       		.byte	0xcb
 5335 0a2a 040B0000 		.4byte	0xb04
 5336 0a2e 14       		.byte	0x14
 5337 0a2f 0D       		.uleb128 0xd
 5338 0a30 00230000 		.4byte	.LASF155
 5339 0a34 0F       		.byte	0xf
ARM GAS  C:\Users\Moi\AppData\Local\Temp\ccOzHcBd.s 			page 95


 5340 0a35 D2       		.byte	0xd2
 5341 0a36 DD050000 		.4byte	0x5dd
 5342 0a3a 18       		.byte	0x18
 5343 0a3b 0D       		.uleb128 0xd
 5344 0a3c EA1C0000 		.4byte	.LASF156
 5345 0a40 0F       		.byte	0xf
 5346 0a41 D8       		.byte	0xd8
 5347 0a42 1D1A0000 		.4byte	0x1a1d
 5348 0a46 1C       		.byte	0x1c
 5349 0a47 0D       		.uleb128 0xd
 5350 0a48 CB270000 		.4byte	.LASF157
 5351 0a4c 0F       		.byte	0xf
 5352 0a4d DD       		.byte	0xdd
 5353 0a4e 5D090000 		.4byte	0x95d
 5354 0a52 20       		.byte	0x20
 5355 0a53 0D       		.uleb128 0xd
 5356 0a54 42220000 		.4byte	.LASF158
 5357 0a58 0F       		.byte	0xf
 5358 0a59 E1       		.byte	0xe1
 5359 0a5a 52090000 		.4byte	0x952
 5360 0a5e 21       		.byte	0x21
 5361 0a5f 0D       		.uleb128 0xd
 5362 0a60 F1180000 		.4byte	.LASF159
 5363 0a64 0F       		.byte	0xf
 5364 0a65 E6       		.byte	0xe6
 5365 0a66 68090000 		.4byte	0x968
 5366 0a6a 22       		.byte	0x22
 5367 0a6b 0D       		.uleb128 0xd
 5368 0a6c 3D160000 		.4byte	.LASF160
 5369 0a70 0F       		.byte	0xf
 5370 0a71 EC       		.byte	0xec
 5371 0a72 73090000 		.4byte	0x973
 5372 0a76 23       		.byte	0x23
 5373 0a77 0D       		.uleb128 0xd
 5374 0a78 EA180000 		.4byte	.LASF161
 5375 0a7c 0F       		.byte	0xf
 5376 0a7d F3       		.byte	0xf3
 5377 0a7e CB090000 		.4byte	0x9cb
 5378 0a82 24       		.byte	0x24
 5379 0a83 21       		.uleb128 0x21
 5380 0a84 705F7500 		.ascii	"p_u\000"
 5381 0a88 0F       		.byte	0xf
 5382 0a89 3101     		.2byte	0x131
 5383 0a8b 4C190000 		.4byte	0x194c
 5384 0a8f 28       		.byte	0x28
 5385 0a90 18       		.uleb128 0x18
 5386 0a91 F8040000 		.4byte	.LASF162
 5387 0a95 0F       		.byte	0xf
 5388 0a96 3601     		.2byte	0x136
 5389 0a98 0A0B0000 		.4byte	0xb0a
 5390 0a9c 2C       		.byte	0x2c
 5391 0a9d 18       		.uleb128 0x18
 5392 0a9e 22170000 		.4byte	.LASF163
 5393 0aa2 0F       		.byte	0xf
 5394 0aa3 3C01     		.2byte	0x13c
 5395 0aa5 2E0B0000 		.4byte	0xb2e
 5396 0aa9 30       		.byte	0x30
ARM GAS  C:\Users\Moi\AppData\Local\Temp\ccOzHcBd.s 			page 96


 5397 0aaa 18       		.uleb128 0x18
 5398 0aab 0F090000 		.4byte	.LASF164
 5399 0aaf 0F       		.byte	0xf
 5400 0ab0 4001     		.2byte	0x140
 5401 0ab2 89090000 		.4byte	0x989
 5402 0ab6 38       		.byte	0x38
 5403 0ab7 18       		.uleb128 0x18
 5404 0ab8 F51F0000 		.4byte	.LASF165
 5405 0abc 0F       		.byte	0xf
 5406 0abd 4601     		.2byte	0x146
 5407 0abf 94090000 		.4byte	0x994
 5408 0ac3 3C       		.byte	0x3c
 5409 0ac4 18       		.uleb128 0x18
 5410 0ac5 67220000 		.4byte	.LASF166
 5411 0ac9 0F       		.byte	0xf
 5412 0aca 4D01     		.2byte	0x14d
 5413 0acc 171A0000 		.4byte	0x1a17
 5414 0ad0 40       		.byte	0x40
 5415 0ad1 18       		.uleb128 0x18
 5416 0ad2 621E0000 		.4byte	.LASF167
 5417 0ad6 0F       		.byte	0xf
 5418 0ad7 5101     		.2byte	0x151
 5419 0ad9 7E090000 		.4byte	0x97e
 5420 0add 44       		.byte	0x44
 5421 0ade 18       		.uleb128 0x18
 5422 0adf E8120000 		.4byte	.LASF168
 5423 0ae3 0F       		.byte	0xf
 5424 0ae4 5801     		.2byte	0x158
 5425 0ae6 5D010000 		.4byte	0x15d
 5426 0aea 48       		.byte	0x48
 5427 0aeb 18       		.uleb128 0x18
 5428 0aec 06280000 		.4byte	.LASF169
 5429 0af0 0F       		.byte	0xf
 5430 0af1 5E01     		.2byte	0x15e
 5431 0af3 FD180000 		.4byte	0x18fd
 5432 0af7 50       		.byte	0x50
 5433 0af8 00       		.byte	0
 5434 0af9 04       		.uleb128 0x4
 5435 0afa D2250000 		.4byte	.LASF170
 5436 0afe 0E       		.byte	0xe
 5437 0aff 44       		.byte	0x44
 5438 0b00 040B0000 		.4byte	0xb04
 5439 0b04 05       		.uleb128 0x5
 5440 0b05 04       		.byte	0x4
 5441 0b06 D0090000 		.4byte	0x9d0
 5442 0b0a 04       		.uleb128 0x4
 5443 0b0b 37050000 		.4byte	.LASF171
 5444 0b0f 0E       		.byte	0xe
 5445 0b10 49       		.byte	0x49
 5446 0b11 150B0000 		.4byte	0xb15
 5447 0b15 10       		.uleb128 0x10
 5448 0b16 E5270000 		.4byte	.LASF172
 5449 0b1a 04       		.byte	0x4
 5450 0b1b 0F       		.byte	0xf
 5451 0b1c B0       		.byte	0xb0
 5452 0b1d 2E0B0000 		.4byte	0xb2e
 5453 0b21 0D       		.uleb128 0xd
ARM GAS  C:\Users\Moi\AppData\Local\Temp\ccOzHcBd.s 			page 97


 5454 0b22 7F120000 		.4byte	.LASF149
 5455 0b26 0F       		.byte	0xf
 5456 0b27 B1       		.byte	0xb1
 5457 0b28 040B0000 		.4byte	0xb04
 5458 0b2c 00       		.byte	0
 5459 0b2d 00       		.byte	0
 5460 0b2e 04       		.uleb128 0x4
 5461 0b2f C5180000 		.4byte	.LASF173
 5462 0b33 0E       		.byte	0xe
 5463 0b34 50       		.byte	0x50
 5464 0b35 390B0000 		.4byte	0xb39
 5465 0b39 10       		.uleb128 0x10
 5466 0b3a 32020000 		.4byte	.LASF174
 5467 0b3e 08       		.byte	0x8
 5468 0b3f 0F       		.byte	0xf
 5469 0b40 B7       		.byte	0xb7
 5470 0b41 5E0B0000 		.4byte	0xb5e
 5471 0b45 0D       		.uleb128 0xd
 5472 0b46 7F120000 		.4byte	.LASF149
 5473 0b4a 0F       		.byte	0xf
 5474 0b4b B8       		.byte	0xb8
 5475 0b4c 040B0000 		.4byte	0xb04
 5476 0b50 00       		.byte	0
 5477 0b51 0D       		.uleb128 0xd
 5478 0b52 980E0000 		.4byte	.LASF150
 5479 0b56 0F       		.byte	0xf
 5480 0b57 B9       		.byte	0xb9
 5481 0b58 040B0000 		.4byte	0xb04
 5482 0b5c 04       		.byte	0x4
 5483 0b5d 00       		.byte	0
 5484 0b5e 04       		.uleb128 0x4
 5485 0b5f D20A0000 		.4byte	.LASF175
 5486 0b63 0E       		.byte	0xe
 5487 0b64 57       		.byte	0x57
 5488 0b65 690B0000 		.4byte	0xb69
 5489 0b69 1B       		.uleb128 0x1b
 5490 0b6a 4C1F0000 		.4byte	.LASF176
 5491 0b6e 1C       		.byte	0x1c
 5492 0b6f 0F       		.byte	0xf
 5493 0b70 9001     		.2byte	0x190
 5494 0b72 C50B0000 		.4byte	0xbc5
 5495 0b76 18       		.uleb128 0x18
 5496 0b77 6D1B0000 		.4byte	.LASF177
 5497 0b7b 0F       		.byte	0xf
 5498 0b7c 9101     		.2byte	0x191
 5499 0b7e 2E0B0000 		.4byte	0xb2e
 5500 0b82 00       		.byte	0
 5501 0b83 18       		.uleb128 0x18
 5502 0b84 42210000 		.4byte	.LASF178
 5503 0b88 0F       		.byte	0xf
 5504 0b89 9201     		.2byte	0x192
 5505 0b8b 7E090000 		.4byte	0x97e
 5506 0b8f 08       		.byte	0x8
 5507 0b90 18       		.uleb128 0x18
 5508 0b91 AC0D0000 		.4byte	.LASF179
 5509 0b95 0F       		.byte	0xf
 5510 0b96 9401     		.2byte	0x194
ARM GAS  C:\Users\Moi\AppData\Local\Temp\ccOzHcBd.s 			page 98


 5511 0b98 A7160000 		.4byte	0x16a7
 5512 0b9c 0C       		.byte	0xc
 5513 0b9d 18       		.uleb128 0x18
 5514 0b9e 71140000 		.4byte	.LASF180
 5515 0ba2 0F       		.byte	0xf
 5516 0ba3 9701     		.2byte	0x197
 5517 0ba5 040B0000 		.4byte	0xb04
 5518 0ba9 10       		.byte	0x10
 5519 0baa 18       		.uleb128 0x18
 5520 0bab 900E0000 		.4byte	.LASF181
 5521 0baf 0F       		.byte	0xf
 5522 0bb0 9801     		.2byte	0x198
 5523 0bb2 040B0000 		.4byte	0xb04
 5524 0bb6 14       		.byte	0x14
 5525 0bb7 18       		.uleb128 0x18
 5526 0bb8 BC100000 		.4byte	.LASF182
 5527 0bbc 0F       		.byte	0xf
 5528 0bbd 9B01     		.2byte	0x19b
 5529 0bbf 040B0000 		.4byte	0xb04
 5530 0bc3 18       		.byte	0x18
 5531 0bc4 00       		.byte	0
 5532 0bc5 04       		.uleb128 0x4
 5533 0bc6 0B1E0000 		.4byte	.LASF183
 5534 0bca 0E       		.byte	0xe
 5535 0bcb 5C       		.byte	0x5c
 5536 0bcc D00B0000 		.4byte	0xbd0
 5537 0bd0 05       		.uleb128 0x5
 5538 0bd1 04       		.byte	0x4
 5539 0bd2 D60B0000 		.4byte	0xbd6
 5540 0bd6 1F       		.uleb128 0x1f
 5541 0bd7 E10B0000 		.4byte	0xbe1
 5542 0bdb 16       		.uleb128 0x16
 5543 0bdc 5D010000 		.4byte	0x15d
 5544 0be0 00       		.byte	0
 5545 0be1 04       		.uleb128 0x4
 5546 0be2 900D0000 		.4byte	.LASF184
 5547 0be6 0E       		.byte	0xe
 5548 0be7 61       		.byte	0x61
 5549 0be8 EC0B0000 		.4byte	0xbec
 5550 0bec 1B       		.uleb128 0x1b
 5551 0bed 31220000 		.4byte	.LASF185
 5552 0bf1 14       		.byte	0x14
 5553 0bf2 0F       		.byte	0xf
 5554 0bf3 6B01     		.2byte	0x16b
 5555 0bf5 3B0C0000 		.4byte	0xc3b
 5556 0bf9 18       		.uleb128 0x18
 5557 0bfa B20D0000 		.4byte	.LASF186
 5558 0bfe 0F       		.byte	0xf
 5559 0bff 6C01     		.2byte	0x16c
 5560 0c01 231A0000 		.4byte	0x1a23
 5561 0c05 00       		.byte	0
 5562 0c06 18       		.uleb128 0x18
 5563 0c07 870A0000 		.4byte	.LASF187
 5564 0c0b 0F       		.byte	0xf
 5565 0c0c 6D01     		.2byte	0x16d
 5566 0c0e 231A0000 		.4byte	0x1a23
 5567 0c12 04       		.byte	0x4
ARM GAS  C:\Users\Moi\AppData\Local\Temp\ccOzHcBd.s 			page 99


 5568 0c13 18       		.uleb128 0x18
 5569 0c14 7B150000 		.4byte	.LASF188
 5570 0c18 0F       		.byte	0xf
 5571 0c19 6E01     		.2byte	0x16e
 5572 0c1b C0090000 		.4byte	0x9c0
 5573 0c1f 08       		.byte	0x8
 5574 0c20 18       		.uleb128 0x18
 5575 0c21 0E220000 		.4byte	.LASF189
 5576 0c25 0F       		.byte	0xf
 5577 0c26 6F01     		.2byte	0x16f
 5578 0c28 C50B0000 		.4byte	0xbc5
 5579 0c2c 0C       		.byte	0xc
 5580 0c2d 18       		.uleb128 0x18
 5581 0c2e 8F0B0000 		.4byte	.LASF190
 5582 0c32 0F       		.byte	0xf
 5583 0c33 7101     		.2byte	0x171
 5584 0c35 5D010000 		.4byte	0x15d
 5585 0c39 10       		.byte	0x10
 5586 0c3a 00       		.byte	0
 5587 0c3b 04       		.uleb128 0x4
 5588 0c3c 98230000 		.4byte	.LASF191
 5589 0c40 0E       		.byte	0xe
 5590 0c41 66       		.byte	0x66
 5591 0c42 460C0000 		.4byte	0xc46
 5592 0c46 1B       		.uleb128 0x1b
 5593 0c47 40030000 		.4byte	.LASF192
 5594 0c4b 10       		.byte	0x10
 5595 0c4c 0F       		.byte	0xf
 5596 0c4d 7B01     		.2byte	0x17b
 5597 0c4f 880C0000 		.4byte	0xc88
 5598 0c53 18       		.uleb128 0x18
 5599 0c54 B20D0000 		.4byte	.LASF186
 5600 0c58 0F       		.byte	0xf
 5601 0c59 7C01     		.2byte	0x17c
 5602 0c5b 231A0000 		.4byte	0x1a23
 5603 0c5f 00       		.byte	0
 5604 0c60 18       		.uleb128 0x18
 5605 0c61 870A0000 		.4byte	.LASF187
 5606 0c65 0F       		.byte	0xf
 5607 0c66 7E01     		.2byte	0x17e
 5608 0c68 231A0000 		.4byte	0x1a23
 5609 0c6c 04       		.byte	0x4
 5610 0c6d 18       		.uleb128 0x18
 5611 0c6e 7B150000 		.4byte	.LASF188
 5612 0c72 0F       		.byte	0xf
 5613 0c73 8001     		.2byte	0x180
 5614 0c75 C0090000 		.4byte	0x9c0
 5615 0c79 08       		.byte	0x8
 5616 0c7a 18       		.uleb128 0x18
 5617 0c7b 34010000 		.4byte	.LASF193
 5618 0c7f 0F       		.byte	0xf
 5619 0c80 8201     		.2byte	0x182
 5620 0c82 CB090000 		.4byte	0x9cb
 5621 0c86 0C       		.byte	0xc
 5622 0c87 00       		.byte	0
 5623 0c88 04       		.uleb128 0x4
 5624 0c89 5D0B0000 		.4byte	.LASF194
ARM GAS  C:\Users\Moi\AppData\Local\Temp\ccOzHcBd.s 			page 100


 5625 0c8d 0E       		.byte	0xe
 5626 0c8e 6B       		.byte	0x6b
 5627 0c8f 930C0000 		.4byte	0xc93
 5628 0c93 17       		.uleb128 0x17
 5629 0c94 751F0000 		.4byte	.LASF195
 5630 0c98 1404     		.2byte	0x414
 5631 0c9a 0F       		.byte	0xf
 5632 0c9b A201     		.2byte	0x1a2
 5633 0c9d D60C0000 		.4byte	0xcd6
 5634 0ca1 18       		.uleb128 0x18
 5635 0ca2 53140000 		.4byte	.LASF196
 5636 0ca6 0F       		.byte	0xf
 5637 0ca7 AA01     		.2byte	0x1aa
 5638 0ca9 E3050000 		.4byte	0x5e3
 5639 0cad 00       		.byte	0
 5640 0cae 18       		.uleb128 0x18
 5641 0caf 20140000 		.4byte	.LASF197
 5642 0cb3 0F       		.byte	0xf
 5643 0cb4 AF01     		.2byte	0x1af
 5644 0cb6 AA090000 		.4byte	0x9aa
 5645 0cba 04       		.byte	0x4
 5646 0cbb 18       		.uleb128 0x18
 5647 0cbc 23020000 		.4byte	.LASF198
 5648 0cc0 0F       		.byte	0xf
 5649 0cc1 B301     		.2byte	0x1b3
 5650 0cc3 AA090000 		.4byte	0x9aa
 5651 0cc7 08       		.byte	0x8
 5652 0cc8 18       		.uleb128 0x18
 5653 0cc9 23180000 		.4byte	.LASF199
 5654 0ccd 0F       		.byte	0xf
 5655 0cce B901     		.2byte	0x1b9
 5656 0cd0 8F180000 		.4byte	0x188f
 5657 0cd4 0C       		.byte	0xc
 5658 0cd5 00       		.byte	0
 5659 0cd6 04       		.uleb128 0x4
 5660 0cd7 BC000000 		.4byte	.LASF200
 5661 0cdb 0E       		.byte	0xe
 5662 0cdc 70       		.byte	0x70
 5663 0cdd E10C0000 		.4byte	0xce1
 5664 0ce1 17       		.uleb128 0x17
 5665 0ce2 08180000 		.4byte	.LASF201
 5666 0ce6 7006     		.2byte	0x670
 5667 0ce8 0F       		.byte	0xf
 5668 0ce9 C201     		.2byte	0x1c2
 5669 0ceb 4E0D0000 		.4byte	0xd4e
 5670 0cef 18       		.uleb128 0x18
 5671 0cf0 31050000 		.4byte	.LASF202
 5672 0cf4 0F       		.byte	0xf
 5673 0cf5 C601     		.2byte	0x1c6
 5674 0cf7 5E0B0000 		.4byte	0xb5e
 5675 0cfb 00       		.byte	0
 5676 0cfc 18       		.uleb128 0x18
 5677 0cfd E2040000 		.4byte	.LASF203
 5678 0d01 0F       		.byte	0xf
 5679 0d02 CA01     		.2byte	0x1ca
 5680 0d04 3B0C0000 		.4byte	0xc3b
 5681 0d08 1C       		.byte	0x1c
ARM GAS  C:\Users\Moi\AppData\Local\Temp\ccOzHcBd.s 			page 101


 5682 0d09 21       		.uleb128 0x21
 5683 0d0a 64626700 		.ascii	"dbg\000"
 5684 0d0e 0F       		.byte	0xf
 5685 0d0f CE01     		.2byte	0x1ce
 5686 0d11 880C0000 		.4byte	0xc88
 5687 0d15 2C       		.byte	0x2c
 5688 0d16 19       		.uleb128 0x19
 5689 0d17 1B190000 		.4byte	.LASF204
 5690 0d1b 0F       		.byte	0xf
 5691 0d1c D201     		.2byte	0x1d2
 5692 0d1e D0090000 		.4byte	0x9d0
 5693 0d22 4004     		.2byte	0x440
 5694 0d24 22       		.uleb128 0x22
 5695 0d25 746D00   		.ascii	"tm\000"
 5696 0d28 0F       		.byte	0xf
 5697 0d29 D701     		.2byte	0x1d7
 5698 0d2b AF180000 		.4byte	0x18af
 5699 0d2f A804     		.2byte	0x4a8
 5700 0d31 19       		.uleb128 0x19
 5701 0d32 BE1C0000 		.4byte	.LASF205
 5702 0d36 0F       		.byte	0xf
 5703 0d37 DD01     		.2byte	0x1dd
 5704 0d39 41190000 		.4byte	0x1941
 5705 0d3d B004     		.2byte	0x4b0
 5706 0d3f 19       		.uleb128 0x19
 5707 0d40 EB210000 		.4byte	.LASF206
 5708 0d44 0F       		.byte	0xf
 5709 0d45 E301     		.2byte	0x1e3
 5710 0d47 291A0000 		.4byte	0x1a29
 5711 0d4b E804     		.2byte	0x4e8
 5712 0d4d 00       		.byte	0
 5713 0d4e 0A       		.uleb128 0xa
 5714 0d4f 1C090000 		.4byte	0x91c
 5715 0d53 5E0D0000 		.4byte	0xd5e
 5716 0d57 0B       		.uleb128 0xb
 5717 0d58 25000000 		.4byte	0x25
 5718 0d5c 01       		.byte	0x1
 5719 0d5d 00       		.byte	0
 5720 0d5e 0A       		.uleb128 0xa
 5721 0d5f 1C090000 		.4byte	0x91c
 5722 0d63 6E0D0000 		.4byte	0xd6e
 5723 0d67 0B       		.uleb128 0xb
 5724 0d68 25000000 		.4byte	0x25
 5725 0d6c 07       		.byte	0x7
 5726 0d6d 00       		.byte	0
 5727 0d6e 20       		.uleb128 0x20
 5728 0d6f 50210000 		.4byte	.LASF207
 5729 0d73 10       		.byte	0x10
 5730 0d74 A706     		.2byte	0x6a7
 5731 0d76 17090000 		.4byte	0x917
 5732 0d7a 23       		.uleb128 0x23
 5733 0d7b 56170000 		.4byte	.LASF208
 5734 0d7f 11       		.byte	0x11
 5735 0d80 4C       		.byte	0x4c
 5736 0d81 1C090000 		.4byte	0x91c
 5737 0d85 0C       		.uleb128 0xc
 5738 0d86 50       		.byte	0x50
ARM GAS  C:\Users\Moi\AppData\Local\Temp\ccOzHcBd.s 			page 102


 5739 0d87 12       		.byte	0x12
 5740 0d88 C4       		.byte	0xc4
 5741 0d89 7C0E0000 		.4byte	0xe7c
 5742 0d8d 11       		.uleb128 0x11
 5743 0d8e 535200   		.ascii	"SR\000"
 5744 0d91 12       		.byte	0x12
 5745 0d92 C6       		.byte	0xc6
 5746 0d93 27090000 		.4byte	0x927
 5747 0d97 00       		.byte	0
 5748 0d98 11       		.uleb128 0x11
 5749 0d99 43523100 		.ascii	"CR1\000"
 5750 0d9d 12       		.byte	0x12
 5751 0d9e C7       		.byte	0xc7
 5752 0d9f 27090000 		.4byte	0x927
 5753 0da3 04       		.byte	0x4
 5754 0da4 11       		.uleb128 0x11
 5755 0da5 43523200 		.ascii	"CR2\000"
 5756 0da9 12       		.byte	0x12
 5757 0daa C8       		.byte	0xc8
 5758 0dab 27090000 		.4byte	0x927
 5759 0daf 08       		.byte	0x8
 5760 0db0 0D       		.uleb128 0xd
 5761 0db1 6D020000 		.4byte	.LASF209
 5762 0db5 12       		.byte	0x12
 5763 0db6 C9       		.byte	0xc9
 5764 0db7 27090000 		.4byte	0x927
 5765 0dbb 0C       		.byte	0xc
 5766 0dbc 0D       		.uleb128 0xd
 5767 0dbd 73020000 		.4byte	.LASF210
 5768 0dc1 12       		.byte	0x12
 5769 0dc2 CA       		.byte	0xca
 5770 0dc3 27090000 		.4byte	0x927
 5771 0dc7 10       		.byte	0x10
 5772 0dc8 0D       		.uleb128 0xd
 5773 0dc9 960B0000 		.4byte	.LASF211
 5774 0dcd 12       		.byte	0x12
 5775 0dce CB       		.byte	0xcb
 5776 0dcf 27090000 		.4byte	0x927
 5777 0dd3 14       		.byte	0x14
 5778 0dd4 0D       		.uleb128 0xd
 5779 0dd5 9C0B0000 		.4byte	.LASF212
 5780 0dd9 12       		.byte	0x12
 5781 0dda CC       		.byte	0xcc
 5782 0ddb 27090000 		.4byte	0x927
 5783 0ddf 18       		.byte	0x18
 5784 0de0 0D       		.uleb128 0xd
 5785 0de1 77110000 		.4byte	.LASF213
 5786 0de5 12       		.byte	0x12
 5787 0de6 CD       		.byte	0xcd
 5788 0de7 27090000 		.4byte	0x927
 5789 0deb 1C       		.byte	0x1c
 5790 0dec 0D       		.uleb128 0xd
 5791 0ded A20B0000 		.4byte	.LASF214
 5792 0df1 12       		.byte	0x12
 5793 0df2 CE       		.byte	0xce
 5794 0df3 27090000 		.4byte	0x927
 5795 0df7 20       		.byte	0x20
ARM GAS  C:\Users\Moi\AppData\Local\Temp\ccOzHcBd.s 			page 103


 5796 0df8 11       		.uleb128 0x11
 5797 0df9 48545200 		.ascii	"HTR\000"
 5798 0dfd 12       		.byte	0x12
 5799 0dfe CF       		.byte	0xcf
 5800 0dff 27090000 		.4byte	0x927
 5801 0e03 24       		.byte	0x24
 5802 0e04 11       		.uleb128 0x11
 5803 0e05 4C545200 		.ascii	"LTR\000"
 5804 0e09 12       		.byte	0x12
 5805 0e0a D0       		.byte	0xd0
 5806 0e0b 27090000 		.4byte	0x927
 5807 0e0f 28       		.byte	0x28
 5808 0e10 0D       		.uleb128 0xd
 5809 0e11 82130000 		.4byte	.LASF215
 5810 0e15 12       		.byte	0x12
 5811 0e16 D1       		.byte	0xd1
 5812 0e17 27090000 		.4byte	0x927
 5813 0e1b 2C       		.byte	0x2c
 5814 0e1c 0D       		.uleb128 0xd
 5815 0e1d 87130000 		.4byte	.LASF216
 5816 0e21 12       		.byte	0x12
 5817 0e22 D2       		.byte	0xd2
 5818 0e23 27090000 		.4byte	0x927
 5819 0e27 30       		.byte	0x30
 5820 0e28 0D       		.uleb128 0xd
 5821 0e29 8C130000 		.4byte	.LASF217
 5822 0e2d 12       		.byte	0x12
 5823 0e2e D3       		.byte	0xd3
 5824 0e2f 27090000 		.4byte	0x927
 5825 0e33 34       		.byte	0x34
 5826 0e34 0D       		.uleb128 0xd
 5827 0e35 580D0000 		.4byte	.LASF218
 5828 0e39 12       		.byte	0x12
 5829 0e3a D4       		.byte	0xd4
 5830 0e3b 27090000 		.4byte	0x927
 5831 0e3f 38       		.byte	0x38
 5832 0e40 0D       		.uleb128 0xd
 5833 0e41 1F230000 		.4byte	.LASF219
 5834 0e45 12       		.byte	0x12
 5835 0e46 D5       		.byte	0xd5
 5836 0e47 27090000 		.4byte	0x927
 5837 0e4b 3C       		.byte	0x3c
 5838 0e4c 0D       		.uleb128 0xd
 5839 0e4d 24230000 		.4byte	.LASF220
 5840 0e51 12       		.byte	0x12
 5841 0e52 D6       		.byte	0xd6
 5842 0e53 27090000 		.4byte	0x927
 5843 0e57 40       		.byte	0x40
 5844 0e58 0D       		.uleb128 0xd
 5845 0e59 29230000 		.4byte	.LASF221
 5846 0e5d 12       		.byte	0x12
 5847 0e5e D7       		.byte	0xd7
 5848 0e5f 27090000 		.4byte	0x927
 5849 0e63 44       		.byte	0x44
 5850 0e64 0D       		.uleb128 0xd
 5851 0e65 2E230000 		.4byte	.LASF222
 5852 0e69 12       		.byte	0x12
ARM GAS  C:\Users\Moi\AppData\Local\Temp\ccOzHcBd.s 			page 104


 5853 0e6a D8       		.byte	0xd8
 5854 0e6b 27090000 		.4byte	0x927
 5855 0e6f 48       		.byte	0x48
 5856 0e70 11       		.uleb128 0x11
 5857 0e71 445200   		.ascii	"DR\000"
 5858 0e74 12       		.byte	0x12
 5859 0e75 D9       		.byte	0xd9
 5860 0e76 27090000 		.4byte	0x927
 5861 0e7a 4C       		.byte	0x4c
 5862 0e7b 00       		.byte	0
 5863 0e7c 04       		.uleb128 0x4
 5864 0e7d D8150000 		.4byte	.LASF223
 5865 0e81 12       		.byte	0x12
 5866 0e82 DA       		.byte	0xda
 5867 0e83 850D0000 		.4byte	0xd85
 5868 0e87 0C       		.uleb128 0xc
 5869 0e88 10       		.byte	0x10
 5870 0e89 12       		.byte	0x12
 5871 0e8a E9       		.byte	0xe9
 5872 0e8b C00E0000 		.4byte	0xec0
 5873 0e8f 11       		.uleb128 0x11
 5874 0e90 54495200 		.ascii	"TIR\000"
 5875 0e94 12       		.byte	0x12
 5876 0e95 EB       		.byte	0xeb
 5877 0e96 27090000 		.4byte	0x927
 5878 0e9a 00       		.byte	0
 5879 0e9b 0D       		.uleb128 0xd
 5880 0e9c 2B110000 		.4byte	.LASF224
 5881 0ea0 12       		.byte	0x12
 5882 0ea1 EC       		.byte	0xec
 5883 0ea2 27090000 		.4byte	0x927
 5884 0ea6 04       		.byte	0x4
 5885 0ea7 0D       		.uleb128 0xd
 5886 0ea8 0D190000 		.4byte	.LASF225
 5887 0eac 12       		.byte	0x12
 5888 0ead ED       		.byte	0xed
 5889 0eae 27090000 		.4byte	0x927
 5890 0eb2 08       		.byte	0x8
 5891 0eb3 0D       		.uleb128 0xd
 5892 0eb4 81160000 		.4byte	.LASF226
 5893 0eb8 12       		.byte	0x12
 5894 0eb9 EE       		.byte	0xee
 5895 0eba 27090000 		.4byte	0x927
 5896 0ebe 0C       		.byte	0xc
 5897 0ebf 00       		.byte	0
 5898 0ec0 04       		.uleb128 0x4
 5899 0ec1 1B050000 		.4byte	.LASF227
 5900 0ec5 12       		.byte	0x12
 5901 0ec6 EF       		.byte	0xef
 5902 0ec7 870E0000 		.4byte	0xe87
 5903 0ecb 0C       		.uleb128 0xc
 5904 0ecc 10       		.byte	0x10
 5905 0ecd 12       		.byte	0x12
 5906 0ece F5       		.byte	0xf5
 5907 0ecf 040F0000 		.4byte	0xf04
 5908 0ed3 11       		.uleb128 0x11
 5909 0ed4 52495200 		.ascii	"RIR\000"
ARM GAS  C:\Users\Moi\AppData\Local\Temp\ccOzHcBd.s 			page 105


 5910 0ed8 12       		.byte	0x12
 5911 0ed9 F7       		.byte	0xf7
 5912 0eda 27090000 		.4byte	0x927
 5913 0ede 00       		.byte	0
 5914 0edf 0D       		.uleb128 0xd
 5915 0ee0 DF1E0000 		.4byte	.LASF228
 5916 0ee4 12       		.byte	0x12
 5917 0ee5 F8       		.byte	0xf8
 5918 0ee6 27090000 		.4byte	0x927
 5919 0eea 04       		.byte	0x4
 5920 0eeb 0D       		.uleb128 0xd
 5921 0eec 3D1A0000 		.4byte	.LASF229
 5922 0ef0 12       		.byte	0x12
 5923 0ef1 F9       		.byte	0xf9
 5924 0ef2 27090000 		.4byte	0x927
 5925 0ef6 08       		.byte	0x8
 5926 0ef7 0D       		.uleb128 0xd
 5927 0ef8 F5170000 		.4byte	.LASF230
 5928 0efc 12       		.byte	0x12
 5929 0efd FA       		.byte	0xfa
 5930 0efe 27090000 		.4byte	0x927
 5931 0f02 0C       		.byte	0xc
 5932 0f03 00       		.byte	0
 5933 0f04 04       		.uleb128 0x4
 5934 0f05 141E0000 		.4byte	.LASF231
 5935 0f09 12       		.byte	0x12
 5936 0f0a FB       		.byte	0xfb
 5937 0f0b CB0E0000 		.4byte	0xecb
 5938 0f0f 1C       		.uleb128 0x1c
 5939 0f10 08       		.byte	0x8
 5940 0f11 12       		.byte	0x12
 5941 0f12 0101     		.2byte	0x101
 5942 0f14 330F0000 		.4byte	0xf33
 5943 0f18 21       		.uleb128 0x21
 5944 0f19 46523100 		.ascii	"FR1\000"
 5945 0f1d 12       		.byte	0x12
 5946 0f1e 0301     		.2byte	0x103
 5947 0f20 27090000 		.4byte	0x927
 5948 0f24 00       		.byte	0
 5949 0f25 21       		.uleb128 0x21
 5950 0f26 46523200 		.ascii	"FR2\000"
 5951 0f2a 12       		.byte	0x12
 5952 0f2b 0401     		.2byte	0x104
 5953 0f2d 27090000 		.4byte	0x927
 5954 0f31 04       		.byte	0x4
 5955 0f32 00       		.byte	0
 5956 0f33 07       		.uleb128 0x7
 5957 0f34 43110000 		.4byte	.LASF232
 5958 0f38 12       		.byte	0x12
 5959 0f39 0501     		.2byte	0x105
 5960 0f3b 0F0F0000 		.4byte	0xf0f
 5961 0f3f 24       		.uleb128 0x24
 5962 0f40 2003     		.2byte	0x320
 5963 0f42 12       		.byte	0x12
 5964 0f43 0B01     		.2byte	0x10b
 5965 0f45 75100000 		.4byte	0x1075
 5966 0f49 21       		.uleb128 0x21
ARM GAS  C:\Users\Moi\AppData\Local\Temp\ccOzHcBd.s 			page 106


 5967 0f4a 4D435200 		.ascii	"MCR\000"
 5968 0f4e 12       		.byte	0x12
 5969 0f4f 0D01     		.2byte	0x10d
 5970 0f51 27090000 		.4byte	0x927
 5971 0f55 00       		.byte	0
 5972 0f56 21       		.uleb128 0x21
 5973 0f57 4D535200 		.ascii	"MSR\000"
 5974 0f5b 12       		.byte	0x12
 5975 0f5c 0E01     		.2byte	0x10e
 5976 0f5e 27090000 		.4byte	0x927
 5977 0f62 04       		.byte	0x4
 5978 0f63 21       		.uleb128 0x21
 5979 0f64 54535200 		.ascii	"TSR\000"
 5980 0f68 12       		.byte	0x12
 5981 0f69 0F01     		.2byte	0x10f
 5982 0f6b 27090000 		.4byte	0x927
 5983 0f6f 08       		.byte	0x8
 5984 0f70 18       		.uleb128 0x18
 5985 0f71 820F0000 		.4byte	.LASF233
 5986 0f75 12       		.byte	0x12
 5987 0f76 1001     		.2byte	0x110
 5988 0f78 27090000 		.4byte	0x927
 5989 0f7c 0C       		.byte	0xc
 5990 0f7d 18       		.uleb128 0x18
 5991 0f7e 791A0000 		.4byte	.LASF234
 5992 0f82 12       		.byte	0x12
 5993 0f83 1101     		.2byte	0x111
 5994 0f85 27090000 		.4byte	0x927
 5995 0f89 10       		.byte	0x10
 5996 0f8a 21       		.uleb128 0x21
 5997 0f8b 49455200 		.ascii	"IER\000"
 5998 0f8f 12       		.byte	0x12
 5999 0f90 1201     		.2byte	0x112
 6000 0f92 27090000 		.4byte	0x927
 6001 0f96 14       		.byte	0x14
 6002 0f97 21       		.uleb128 0x21
 6003 0f98 45535200 		.ascii	"ESR\000"
 6004 0f9c 12       		.byte	0x12
 6005 0f9d 1301     		.2byte	0x113
 6006 0f9f 27090000 		.4byte	0x927
 6007 0fa3 18       		.byte	0x18
 6008 0fa4 21       		.uleb128 0x21
 6009 0fa5 42545200 		.ascii	"BTR\000"
 6010 0fa9 12       		.byte	0x12
 6011 0faa 1401     		.2byte	0x114
 6012 0fac 27090000 		.4byte	0x927
 6013 0fb0 1C       		.byte	0x1c
 6014 0fb1 18       		.uleb128 0x18
 6015 0fb2 55200000 		.4byte	.LASF235
 6016 0fb6 12       		.byte	0x12
 6017 0fb7 1501     		.2byte	0x115
 6018 0fb9 75100000 		.4byte	0x1075
 6019 0fbd 20       		.byte	0x20
 6020 0fbe 19       		.uleb128 0x19
 6021 0fbf 48120000 		.4byte	.LASF236
 6022 0fc3 12       		.byte	0x12
 6023 0fc4 1601     		.2byte	0x116
ARM GAS  C:\Users\Moi\AppData\Local\Temp\ccOzHcBd.s 			page 107


 6024 0fc6 85100000 		.4byte	0x1085
 6025 0fca 8001     		.2byte	0x180
 6026 0fcc 19       		.uleb128 0x19
 6027 0fcd 20250000 		.4byte	.LASF237
 6028 0fd1 12       		.byte	0x12
 6029 0fd2 1701     		.2byte	0x117
 6030 0fd4 95100000 		.4byte	0x1095
 6031 0fd8 B001     		.2byte	0x1b0
 6032 0fda 19       		.uleb128 0x19
 6033 0fdb 5F200000 		.4byte	.LASF238
 6034 0fdf 12       		.byte	0x12
 6035 0fe0 1801     		.2byte	0x118
 6036 0fe2 A5100000 		.4byte	0x10a5
 6037 0fe6 D001     		.2byte	0x1d0
 6038 0fe8 22       		.uleb128 0x22
 6039 0fe9 464D5200 		.ascii	"FMR\000"
 6040 0fed 12       		.byte	0x12
 6041 0fee 1901     		.2byte	0x119
 6042 0ff0 27090000 		.4byte	0x927
 6043 0ff4 0002     		.2byte	0x200
 6044 0ff6 19       		.uleb128 0x19
 6045 0ff7 2F0C0000 		.4byte	.LASF239
 6046 0ffb 12       		.byte	0x12
 6047 0ffc 1A01     		.2byte	0x11a
 6048 0ffe 27090000 		.4byte	0x927
 6049 1002 0402     		.2byte	0x204
 6050 1004 19       		.uleb128 0x19
 6051 1005 69200000 		.4byte	.LASF240
 6052 1009 12       		.byte	0x12
 6053 100a 1B01     		.2byte	0x11b
 6054 100c 1C090000 		.4byte	0x91c
 6055 1010 0802     		.2byte	0x208
 6056 1012 19       		.uleb128 0x19
 6057 1013 77220000 		.4byte	.LASF241
 6058 1017 12       		.byte	0x12
 6059 1018 1C01     		.2byte	0x11c
 6060 101a 27090000 		.4byte	0x927
 6061 101e 0C02     		.2byte	0x20c
 6062 1020 19       		.uleb128 0x19
 6063 1021 73200000 		.4byte	.LASF242
 6064 1025 12       		.byte	0x12
 6065 1026 1D01     		.2byte	0x11d
 6066 1028 1C090000 		.4byte	0x91c
 6067 102c 1002     		.2byte	0x210
 6068 102e 19       		.uleb128 0x19
 6069 102f 731A0000 		.4byte	.LASF243
 6070 1033 12       		.byte	0x12
 6071 1034 1E01     		.2byte	0x11e
 6072 1036 27090000 		.4byte	0x927
 6073 103a 1402     		.2byte	0x214
 6074 103c 19       		.uleb128 0x19
 6075 103d 7D200000 		.4byte	.LASF244
 6076 1041 12       		.byte	0x12
 6077 1042 1F01     		.2byte	0x11f
 6078 1044 1C090000 		.4byte	0x91c
 6079 1048 1802     		.2byte	0x218
 6080 104a 19       		.uleb128 0x19
ARM GAS  C:\Users\Moi\AppData\Local\Temp\ccOzHcBd.s 			page 108


 6081 104b ED030000 		.4byte	.LASF245
 6082 104f 12       		.byte	0x12
 6083 1050 2001     		.2byte	0x120
 6084 1052 27090000 		.4byte	0x927
 6085 1056 1C02     		.2byte	0x21c
 6086 1058 19       		.uleb128 0x19
 6087 1059 87200000 		.4byte	.LASF246
 6088 105d 12       		.byte	0x12
 6089 105e 2101     		.2byte	0x121
 6090 1060 5E0D0000 		.4byte	0xd5e
 6091 1064 2002     		.2byte	0x220
 6092 1066 19       		.uleb128 0x19
 6093 1067 DB050000 		.4byte	.LASF247
 6094 106b 12       		.byte	0x12
 6095 106c 2201     		.2byte	0x122
 6096 106e B5100000 		.4byte	0x10b5
 6097 1072 4002     		.2byte	0x240
 6098 1074 00       		.byte	0
 6099 1075 0A       		.uleb128 0xa
 6100 1076 1C090000 		.4byte	0x91c
 6101 107a 85100000 		.4byte	0x1085
 6102 107e 0B       		.uleb128 0xb
 6103 107f 25000000 		.4byte	0x25
 6104 1083 57       		.byte	0x57
 6105 1084 00       		.byte	0
 6106 1085 0A       		.uleb128 0xa
 6107 1086 C00E0000 		.4byte	0xec0
 6108 108a 95100000 		.4byte	0x1095
 6109 108e 0B       		.uleb128 0xb
 6110 108f 25000000 		.4byte	0x25
 6111 1093 02       		.byte	0x2
 6112 1094 00       		.byte	0
 6113 1095 0A       		.uleb128 0xa
 6114 1096 040F0000 		.4byte	0xf04
 6115 109a A5100000 		.4byte	0x10a5
 6116 109e 0B       		.uleb128 0xb
 6117 109f 25000000 		.4byte	0x25
 6118 10a3 01       		.byte	0x1
 6119 10a4 00       		.byte	0
 6120 10a5 0A       		.uleb128 0xa
 6121 10a6 1C090000 		.4byte	0x91c
 6122 10aa B5100000 		.4byte	0x10b5
 6123 10ae 0B       		.uleb128 0xb
 6124 10af 25000000 		.4byte	0x25
 6125 10b3 0B       		.byte	0xb
 6126 10b4 00       		.byte	0
 6127 10b5 0A       		.uleb128 0xa
 6128 10b6 330F0000 		.4byte	0xf33
 6129 10ba C5100000 		.4byte	0x10c5
 6130 10be 0B       		.uleb128 0xb
 6131 10bf 25000000 		.4byte	0x25
 6132 10c3 1B       		.byte	0x1b
 6133 10c4 00       		.byte	0
 6134 10c5 07       		.uleb128 0x7
 6135 10c6 150E0000 		.4byte	.LASF248
 6136 10ca 12       		.byte	0x12
 6137 10cb 2301     		.2byte	0x123
ARM GAS  C:\Users\Moi\AppData\Local\Temp\ccOzHcBd.s 			page 109


 6138 10cd 3F0F0000 		.4byte	0xf3f
 6139 10d1 1C       		.uleb128 0x1c
 6140 10d2 38       		.byte	0x38
 6141 10d3 12       		.byte	0x12
 6142 10d4 3601     		.2byte	0x136
 6143 10d6 8F110000 		.4byte	0x118f
 6144 10da 21       		.uleb128 0x21
 6145 10db 435200   		.ascii	"CR\000"
 6146 10de 12       		.byte	0x12
 6147 10df 3801     		.2byte	0x138
 6148 10e1 27090000 		.4byte	0x927
 6149 10e5 00       		.byte	0
 6150 10e6 18       		.uleb128 0x18
 6151 10e7 C2170000 		.4byte	.LASF249
 6152 10eb 12       		.byte	0x12
 6153 10ec 3901     		.2byte	0x139
 6154 10ee 27090000 		.4byte	0x927
 6155 10f2 04       		.byte	0x4
 6156 10f3 18       		.uleb128 0x18
 6157 10f4 AD200000 		.4byte	.LASF250
 6158 10f8 12       		.byte	0x12
 6159 10f9 3A01     		.2byte	0x13a
 6160 10fb 27090000 		.4byte	0x927
 6161 10ff 08       		.byte	0x8
 6162 1100 18       		.uleb128 0x18
 6163 1101 8C1C0000 		.4byte	.LASF251
 6164 1105 12       		.byte	0x12
 6165 1106 3B01     		.2byte	0x13b
 6166 1108 27090000 		.4byte	0x927
 6167 110c 0C       		.byte	0xc
 6168 110d 18       		.uleb128 0x18
 6169 110e 6C0B0000 		.4byte	.LASF252
 6170 1112 12       		.byte	0x12
 6171 1113 3C01     		.2byte	0x13c
 6172 1115 27090000 		.4byte	0x927
 6173 1119 10       		.byte	0x10
 6174 111a 18       		.uleb128 0x18
 6175 111b B5200000 		.4byte	.LASF253
 6176 111f 12       		.byte	0x12
 6177 1120 3D01     		.2byte	0x13d
 6178 1122 27090000 		.4byte	0x927
 6179 1126 14       		.byte	0x14
 6180 1127 18       		.uleb128 0x18
 6181 1128 941C0000 		.4byte	.LASF254
 6182 112c 12       		.byte	0x12
 6183 112d 3E01     		.2byte	0x13e
 6184 112f 27090000 		.4byte	0x927
 6185 1133 18       		.byte	0x18
 6186 1134 18       		.uleb128 0x18
 6187 1135 730B0000 		.4byte	.LASF255
 6188 1139 12       		.byte	0x12
 6189 113a 3F01     		.2byte	0x13f
 6190 113c 27090000 		.4byte	0x927
 6191 1140 1C       		.byte	0x1c
 6192 1141 18       		.uleb128 0x18
 6193 1142 FC200000 		.4byte	.LASF256
 6194 1146 12       		.byte	0x12
ARM GAS  C:\Users\Moi\AppData\Local\Temp\ccOzHcBd.s 			page 110


 6195 1147 4001     		.2byte	0x140
 6196 1149 27090000 		.4byte	0x927
 6197 114d 20       		.byte	0x20
 6198 114e 18       		.uleb128 0x18
 6199 114f B61C0000 		.4byte	.LASF257
 6200 1153 12       		.byte	0x12
 6201 1154 4101     		.2byte	0x141
 6202 1156 27090000 		.4byte	0x927
 6203 115a 24       		.byte	0x24
 6204 115b 18       		.uleb128 0x18
 6205 115c 37250000 		.4byte	.LASF258
 6206 1160 12       		.byte	0x12
 6207 1161 4201     		.2byte	0x142
 6208 1163 27090000 		.4byte	0x927
 6209 1167 28       		.byte	0x28
 6210 1168 18       		.uleb128 0x18
 6211 1169 3F010000 		.4byte	.LASF259
 6212 116d 12       		.byte	0x12
 6213 116e 4301     		.2byte	0x143
 6214 1170 27090000 		.4byte	0x927
 6215 1174 2C       		.byte	0x2c
 6216 1175 18       		.uleb128 0x18
 6217 1176 44010000 		.4byte	.LASF260
 6218 117a 12       		.byte	0x12
 6219 117b 4401     		.2byte	0x144
 6220 117d 27090000 		.4byte	0x927
 6221 1181 30       		.byte	0x30
 6222 1182 21       		.uleb128 0x21
 6223 1183 535200   		.ascii	"SR\000"
 6224 1186 12       		.byte	0x12
 6225 1187 4501     		.2byte	0x145
 6226 1189 27090000 		.4byte	0x927
 6227 118d 34       		.byte	0x34
 6228 118e 00       		.byte	0
 6229 118f 07       		.uleb128 0x7
 6230 1190 2C1E0000 		.4byte	.LASF261
 6231 1194 12       		.byte	0x12
 6232 1195 4601     		.2byte	0x146
 6233 1197 D1100000 		.4byte	0x10d1
 6234 119b 1C       		.uleb128 0x1c
 6235 119c 18       		.byte	0x18
 6236 119d 12       		.byte	0x12
 6237 119e 6B01     		.2byte	0x16b
 6238 11a0 F2110000 		.4byte	0x11f2
 6239 11a4 21       		.uleb128 0x21
 6240 11a5 435200   		.ascii	"CR\000"
 6241 11a8 12       		.byte	0x12
 6242 11a9 6D01     		.2byte	0x16d
 6243 11ab 27090000 		.4byte	0x927
 6244 11af 00       		.byte	0
 6245 11b0 18       		.uleb128 0x18
 6246 11b1 C7210000 		.4byte	.LASF262
 6247 11b5 12       		.byte	0x12
 6248 11b6 6E01     		.2byte	0x16e
 6249 11b8 27090000 		.4byte	0x927
 6250 11bc 04       		.byte	0x4
 6251 11bd 21       		.uleb128 0x21
ARM GAS  C:\Users\Moi\AppData\Local\Temp\ccOzHcBd.s 			page 111


 6252 11be 50415200 		.ascii	"PAR\000"
 6253 11c2 12       		.byte	0x12
 6254 11c3 6F01     		.2byte	0x16f
 6255 11c5 27090000 		.4byte	0x927
 6256 11c9 08       		.byte	0x8
 6257 11ca 18       		.uleb128 0x18
 6258 11cb 99030000 		.4byte	.LASF263
 6259 11cf 12       		.byte	0x12
 6260 11d0 7001     		.2byte	0x170
 6261 11d2 27090000 		.4byte	0x927
 6262 11d6 0C       		.byte	0xc
 6263 11d7 18       		.uleb128 0x18
 6264 11d8 5F090000 		.4byte	.LASF264
 6265 11dc 12       		.byte	0x12
 6266 11dd 7101     		.2byte	0x171
 6267 11df 27090000 		.4byte	0x927
 6268 11e3 10       		.byte	0x10
 6269 11e4 21       		.uleb128 0x21
 6270 11e5 46435200 		.ascii	"FCR\000"
 6271 11e9 12       		.byte	0x12
 6272 11ea 7201     		.2byte	0x172
 6273 11ec 27090000 		.4byte	0x927
 6274 11f0 14       		.byte	0x14
 6275 11f1 00       		.byte	0
 6276 11f2 07       		.uleb128 0x7
 6277 11f3 69090000 		.4byte	.LASF265
 6278 11f7 12       		.byte	0x12
 6279 11f8 7301     		.2byte	0x173
 6280 11fa 9B110000 		.4byte	0x119b
 6281 11fe 0A       		.uleb128 0xa
 6282 11ff 27090000 		.4byte	0x927
 6283 1203 0E120000 		.4byte	0x120e
 6284 1207 0B       		.uleb128 0xb
 6285 1208 25000000 		.4byte	0x25
 6286 120c 01       		.byte	0x1
 6287 120d 00       		.byte	0
 6288 120e 1A       		.uleb128 0x1a
 6289 120f FE110000 		.4byte	0x11fe
 6290 1213 0A       		.uleb128 0xa
 6291 1214 27090000 		.4byte	0x927
 6292 1218 23120000 		.4byte	0x1223
 6293 121c 0B       		.uleb128 0xb
 6294 121d 25000000 		.4byte	0x25
 6295 1221 03       		.byte	0x3
 6296 1222 00       		.byte	0
 6297 1223 1A       		.uleb128 0x1a
 6298 1224 13120000 		.4byte	0x1213
 6299 1228 1C       		.uleb128 0x1c
 6300 1229 28       		.byte	0x28
 6301 122a 12       		.byte	0x12
 6302 122b 3F02     		.2byte	0x23f
 6303 122d B3120000 		.4byte	0x12b3
 6304 1231 21       		.uleb128 0x21
 6305 1232 43523100 		.ascii	"CR1\000"
 6306 1236 12       		.byte	0x12
 6307 1237 4102     		.2byte	0x241
 6308 1239 27090000 		.4byte	0x927
ARM GAS  C:\Users\Moi\AppData\Local\Temp\ccOzHcBd.s 			page 112


 6309 123d 00       		.byte	0
 6310 123e 21       		.uleb128 0x21
 6311 123f 43523200 		.ascii	"CR2\000"
 6312 1243 12       		.byte	0x12
 6313 1244 4202     		.2byte	0x242
 6314 1246 27090000 		.4byte	0x927
 6315 124a 04       		.byte	0x4
 6316 124b 18       		.uleb128 0x18
 6317 124c FC270000 		.4byte	.LASF266
 6318 1250 12       		.byte	0x12
 6319 1251 4302     		.2byte	0x243
 6320 1253 27090000 		.4byte	0x927
 6321 1257 08       		.byte	0x8
 6322 1258 18       		.uleb128 0x18
 6323 1259 01280000 		.4byte	.LASF267
 6324 125d 12       		.byte	0x12
 6325 125e 4402     		.2byte	0x244
 6326 1260 27090000 		.4byte	0x927
 6327 1264 0C       		.byte	0xc
 6328 1265 21       		.uleb128 0x21
 6329 1266 445200   		.ascii	"DR\000"
 6330 1269 12       		.byte	0x12
 6331 126a 4502     		.2byte	0x245
 6332 126c 27090000 		.4byte	0x927
 6333 1270 10       		.byte	0x10
 6334 1271 21       		.uleb128 0x21
 6335 1272 53523100 		.ascii	"SR1\000"
 6336 1276 12       		.byte	0x12
 6337 1277 4602     		.2byte	0x246
 6338 1279 27090000 		.4byte	0x927
 6339 127d 14       		.byte	0x14
 6340 127e 21       		.uleb128 0x21
 6341 127f 53523200 		.ascii	"SR2\000"
 6342 1283 12       		.byte	0x12
 6343 1284 4702     		.2byte	0x247
 6344 1286 27090000 		.4byte	0x927
 6345 128a 18       		.byte	0x18
 6346 128b 21       		.uleb128 0x21
 6347 128c 43435200 		.ascii	"CCR\000"
 6348 1290 12       		.byte	0x12
 6349 1291 4802     		.2byte	0x248
 6350 1293 27090000 		.4byte	0x927
 6351 1297 1C       		.byte	0x1c
 6352 1298 18       		.uleb128 0x18
 6353 1299 E9040000 		.4byte	.LASF268
 6354 129d 12       		.byte	0x12
 6355 129e 4902     		.2byte	0x249
 6356 12a0 27090000 		.4byte	0x927
 6357 12a4 20       		.byte	0x20
 6358 12a5 18       		.uleb128 0x18
 6359 12a6 85260000 		.4byte	.LASF269
 6360 12aa 12       		.byte	0x12
 6361 12ab 4A02     		.2byte	0x24a
 6362 12ad 27090000 		.4byte	0x927
 6363 12b1 24       		.byte	0x24
 6364 12b2 00       		.byte	0
 6365 12b3 07       		.uleb128 0x7
ARM GAS  C:\Users\Moi\AppData\Local\Temp\ccOzHcBd.s 			page 113


 6366 12b4 F0120000 		.4byte	.LASF270
 6367 12b8 12       		.byte	0x12
 6368 12b9 4B02     		.2byte	0x24b
 6369 12bb 28120000 		.4byte	0x1228
 6370 12bf 1C       		.uleb128 0x1c
 6371 12c0 88       		.byte	0x88
 6372 12c1 12       		.byte	0x12
 6373 12c2 6702     		.2byte	0x267
 6374 12c4 4E140000 		.4byte	0x144e
 6375 12c8 21       		.uleb128 0x21
 6376 12c9 435200   		.ascii	"CR\000"
 6377 12cc 12       		.byte	0x12
 6378 12cd 6902     		.2byte	0x269
 6379 12cf 27090000 		.4byte	0x927
 6380 12d3 00       		.byte	0
 6381 12d4 18       		.uleb128 0x18
 6382 12d5 E51D0000 		.4byte	.LASF271
 6383 12d9 12       		.byte	0x12
 6384 12da 6A02     		.2byte	0x26a
 6385 12dc 27090000 		.4byte	0x927
 6386 12e0 04       		.byte	0x4
 6387 12e1 18       		.uleb128 0x18
 6388 12e2 4E150000 		.4byte	.LASF272
 6389 12e6 12       		.byte	0x12
 6390 12e7 6B02     		.2byte	0x26b
 6391 12e9 27090000 		.4byte	0x927
 6392 12ed 08       		.byte	0x8
 6393 12ee 21       		.uleb128 0x21
 6394 12ef 43495200 		.ascii	"CIR\000"
 6395 12f3 12       		.byte	0x12
 6396 12f4 6C02     		.2byte	0x26c
 6397 12f6 27090000 		.4byte	0x927
 6398 12fa 0C       		.byte	0xc
 6399 12fb 18       		.uleb128 0x18
 6400 12fc A7270000 		.4byte	.LASF273
 6401 1300 12       		.byte	0x12
 6402 1301 6D02     		.2byte	0x26d
 6403 1303 27090000 		.4byte	0x927
 6404 1307 10       		.byte	0x10
 6405 1308 18       		.uleb128 0x18
 6406 1309 DE0C0000 		.4byte	.LASF274
 6407 130d 12       		.byte	0x12
 6408 130e 6E02     		.2byte	0x26e
 6409 1310 27090000 		.4byte	0x927
 6410 1314 14       		.byte	0x14
 6411 1315 18       		.uleb128 0x18
 6412 1316 61190000 		.4byte	.LASF275
 6413 131a 12       		.byte	0x12
 6414 131b 6F02     		.2byte	0x26f
 6415 131d 27090000 		.4byte	0x927
 6416 1321 18       		.byte	0x18
 6417 1322 18       		.uleb128 0x18
 6418 1323 55200000 		.4byte	.LASF235
 6419 1327 12       		.byte	0x12
 6420 1328 7002     		.2byte	0x270
 6421 132a 1C090000 		.4byte	0x91c
 6422 132e 1C       		.byte	0x1c
ARM GAS  C:\Users\Moi\AppData\Local\Temp\ccOzHcBd.s 			page 114


 6423 132f 18       		.uleb128 0x18
 6424 1330 31040000 		.4byte	.LASF276
 6425 1334 12       		.byte	0x12
 6426 1335 7102     		.2byte	0x271
 6427 1337 27090000 		.4byte	0x927
 6428 133b 20       		.byte	0x20
 6429 133c 18       		.uleb128 0x18
 6430 133d 76120000 		.4byte	.LASF277
 6431 1341 12       		.byte	0x12
 6432 1342 7202     		.2byte	0x272
 6433 1344 27090000 		.4byte	0x927
 6434 1348 24       		.byte	0x24
 6435 1349 18       		.uleb128 0x18
 6436 134a 5F200000 		.4byte	.LASF238
 6437 134e 12       		.byte	0x12
 6438 134f 7302     		.2byte	0x273
 6439 1351 4E0D0000 		.4byte	0xd4e
 6440 1355 28       		.byte	0x28
 6441 1356 18       		.uleb128 0x18
 6442 1357 99140000 		.4byte	.LASF278
 6443 135b 12       		.byte	0x12
 6444 135c 7402     		.2byte	0x274
 6445 135e 27090000 		.4byte	0x927
 6446 1362 30       		.byte	0x30
 6447 1363 18       		.uleb128 0x18
 6448 1364 9F270000 		.4byte	.LASF279
 6449 1368 12       		.byte	0x12
 6450 1369 7502     		.2byte	0x275
 6451 136b 27090000 		.4byte	0x927
 6452 136f 34       		.byte	0x34
 6453 1370 18       		.uleb128 0x18
 6454 1371 6F130000 		.4byte	.LASF280
 6455 1375 12       		.byte	0x12
 6456 1376 7602     		.2byte	0x276
 6457 1378 27090000 		.4byte	0x927
 6458 137c 38       		.byte	0x38
 6459 137d 18       		.uleb128 0x18
 6460 137e 69200000 		.4byte	.LASF240
 6461 1382 12       		.byte	0x12
 6462 1383 7702     		.2byte	0x277
 6463 1385 1C090000 		.4byte	0x91c
 6464 1389 3C       		.byte	0x3c
 6465 138a 18       		.uleb128 0x18
 6466 138b 371C0000 		.4byte	.LASF281
 6467 138f 12       		.byte	0x12
 6468 1390 7802     		.2byte	0x278
 6469 1392 27090000 		.4byte	0x927
 6470 1396 40       		.byte	0x40
 6471 1397 18       		.uleb128 0x18
 6472 1398 F1070000 		.4byte	.LASF282
 6473 139c 12       		.byte	0x12
 6474 139d 7902     		.2byte	0x279
 6475 139f 27090000 		.4byte	0x927
 6476 13a3 44       		.byte	0x44
 6477 13a4 18       		.uleb128 0x18
 6478 13a5 73200000 		.4byte	.LASF242
 6479 13a9 12       		.byte	0x12
ARM GAS  C:\Users\Moi\AppData\Local\Temp\ccOzHcBd.s 			page 115


 6480 13aa 7A02     		.2byte	0x27a
 6481 13ac 4E0D0000 		.4byte	0xd4e
 6482 13b0 48       		.byte	0x48
 6483 13b1 18       		.uleb128 0x18
 6484 13b2 98210000 		.4byte	.LASF283
 6485 13b6 12       		.byte	0x12
 6486 13b7 7B02     		.2byte	0x27b
 6487 13b9 27090000 		.4byte	0x927
 6488 13bd 50       		.byte	0x50
 6489 13be 18       		.uleb128 0x18
 6490 13bf 7F0B0000 		.4byte	.LASF284
 6491 13c3 12       		.byte	0x12
 6492 13c4 7C02     		.2byte	0x27c
 6493 13c6 27090000 		.4byte	0x927
 6494 13ca 54       		.byte	0x54
 6495 13cb 18       		.uleb128 0x18
 6496 13cc 240B0000 		.4byte	.LASF285
 6497 13d0 12       		.byte	0x12
 6498 13d1 7D02     		.2byte	0x27d
 6499 13d3 27090000 		.4byte	0x927
 6500 13d7 58       		.byte	0x58
 6501 13d8 18       		.uleb128 0x18
 6502 13d9 7D200000 		.4byte	.LASF244
 6503 13dd 12       		.byte	0x12
 6504 13de 7E02     		.2byte	0x27e
 6505 13e0 1C090000 		.4byte	0x91c
 6506 13e4 5C       		.byte	0x5c
 6507 13e5 18       		.uleb128 0x18
 6508 13e6 CF120000 		.4byte	.LASF286
 6509 13ea 12       		.byte	0x12
 6510 13eb 7F02     		.2byte	0x27f
 6511 13ed 27090000 		.4byte	0x927
 6512 13f1 60       		.byte	0x60
 6513 13f2 18       		.uleb128 0x18
 6514 13f3 3C230000 		.4byte	.LASF287
 6515 13f7 12       		.byte	0x12
 6516 13f8 8002     		.2byte	0x280
 6517 13fa 27090000 		.4byte	0x927
 6518 13fe 64       		.byte	0x64
 6519 13ff 18       		.uleb128 0x18
 6520 1400 87200000 		.4byte	.LASF246
 6521 1404 12       		.byte	0x12
 6522 1405 8102     		.2byte	0x281
 6523 1407 4E0D0000 		.4byte	0xd4e
 6524 140b 68       		.byte	0x68
 6525 140c 18       		.uleb128 0x18
 6526 140d 371F0000 		.4byte	.LASF288
 6527 1411 12       		.byte	0x12
 6528 1412 8202     		.2byte	0x282
 6529 1414 27090000 		.4byte	0x927
 6530 1418 70       		.byte	0x70
 6531 1419 21       		.uleb128 0x21
 6532 141a 43535200 		.ascii	"CSR\000"
 6533 141e 12       		.byte	0x12
 6534 141f 8302     		.2byte	0x283
 6535 1421 27090000 		.4byte	0x927
 6536 1425 74       		.byte	0x74
ARM GAS  C:\Users\Moi\AppData\Local\Temp\ccOzHcBd.s 			page 116


 6537 1426 18       		.uleb128 0x18
 6538 1427 91200000 		.4byte	.LASF289
 6539 142b 12       		.byte	0x12
 6540 142c 8402     		.2byte	0x284
 6541 142e 4E0D0000 		.4byte	0xd4e
 6542 1432 78       		.byte	0x78
 6543 1433 18       		.uleb128 0x18
 6544 1434 B6160000 		.4byte	.LASF290
 6545 1438 12       		.byte	0x12
 6546 1439 8502     		.2byte	0x285
 6547 143b 27090000 		.4byte	0x927
 6548 143f 80       		.byte	0x80
 6549 1440 18       		.uleb128 0x18
 6550 1441 18180000 		.4byte	.LASF291
 6551 1445 12       		.byte	0x12
 6552 1446 8602     		.2byte	0x286
 6553 1448 27090000 		.4byte	0x927
 6554 144c 84       		.byte	0x84
 6555 144d 00       		.byte	0
 6556 144e 07       		.uleb128 0x7
 6557 144f 53010000 		.4byte	.LASF292
 6558 1453 12       		.byte	0x12
 6559 1454 8802     		.2byte	0x288
 6560 1456 BF120000 		.4byte	0x12bf
 6561 145a 1C       		.uleb128 0x1c
 6562 145b 84       		.byte	0x84
 6563 145c 12       		.byte	0x12
 6564 145d BF02     		.2byte	0x2bf
 6565 145f 68150000 		.4byte	0x1568
 6566 1463 18       		.uleb128 0x18
 6567 1464 12180000 		.4byte	.LASF293
 6568 1468 12       		.byte	0x12
 6569 1469 C102     		.2byte	0x2c1
 6570 146b 27090000 		.4byte	0x927
 6571 146f 00       		.byte	0
 6572 1470 18       		.uleb128 0x18
 6573 1471 F0220000 		.4byte	.LASF294
 6574 1475 12       		.byte	0x12
 6575 1476 C202     		.2byte	0x2c2
 6576 1478 27090000 		.4byte	0x927
 6577 147c 04       		.byte	0x4
 6578 147d 21       		.uleb128 0x21
 6579 147e 41524700 		.ascii	"ARG\000"
 6580 1482 12       		.byte	0x12
 6581 1483 C302     		.2byte	0x2c3
 6582 1485 27090000 		.4byte	0x927
 6583 1489 08       		.byte	0x8
 6584 148a 21       		.uleb128 0x21
 6585 148b 434D4400 		.ascii	"CMD\000"
 6586 148f 12       		.byte	0x12
 6587 1490 C402     		.2byte	0x2c4
 6588 1492 27090000 		.4byte	0x927
 6589 1496 0C       		.byte	0xc
 6590 1497 18       		.uleb128 0x18
 6591 1498 2B1B0000 		.4byte	.LASF295
 6592 149c 12       		.byte	0x12
 6593 149d C502     		.2byte	0x2c5
ARM GAS  C:\Users\Moi\AppData\Local\Temp\ccOzHcBd.s 			page 117


 6594 149f 2C090000 		.4byte	0x92c
 6595 14a3 10       		.byte	0x10
 6596 14a4 18       		.uleb128 0x18
 6597 14a5 24060000 		.4byte	.LASF296
 6598 14a9 12       		.byte	0x12
 6599 14aa C602     		.2byte	0x2c6
 6600 14ac 2C090000 		.4byte	0x92c
 6601 14b0 14       		.byte	0x14
 6602 14b1 18       		.uleb128 0x18
 6603 14b2 2A060000 		.4byte	.LASF297
 6604 14b6 12       		.byte	0x12
 6605 14b7 C702     		.2byte	0x2c7
 6606 14b9 2C090000 		.4byte	0x92c
 6607 14bd 18       		.byte	0x18
 6608 14be 18       		.uleb128 0x18
 6609 14bf 30060000 		.4byte	.LASF298
 6610 14c3 12       		.byte	0x12
 6611 14c4 C802     		.2byte	0x2c8
 6612 14c6 2C090000 		.4byte	0x92c
 6613 14ca 1C       		.byte	0x1c
 6614 14cb 18       		.uleb128 0x18
 6615 14cc 36060000 		.4byte	.LASF299
 6616 14d0 12       		.byte	0x12
 6617 14d1 C902     		.2byte	0x2c9
 6618 14d3 2C090000 		.4byte	0x92c
 6619 14d7 20       		.byte	0x20
 6620 14d8 18       		.uleb128 0x18
 6621 14d9 6A140000 		.4byte	.LASF300
 6622 14dd 12       		.byte	0x12
 6623 14de CA02     		.2byte	0x2ca
 6624 14e0 27090000 		.4byte	0x927
 6625 14e4 24       		.byte	0x24
 6626 14e5 18       		.uleb128 0x18
 6627 14e6 B1160000 		.4byte	.LASF301
 6628 14ea 12       		.byte	0x12
 6629 14eb CB02     		.2byte	0x2cb
 6630 14ed 27090000 		.4byte	0x927
 6631 14f1 28       		.byte	0x28
 6632 14f2 18       		.uleb128 0x18
 6633 14f3 71260000 		.4byte	.LASF302
 6634 14f7 12       		.byte	0x12
 6635 14f8 CC02     		.2byte	0x2cc
 6636 14fa 27090000 		.4byte	0x927
 6637 14fe 2C       		.byte	0x2c
 6638 14ff 18       		.uleb128 0x18
 6639 1500 F5270000 		.4byte	.LASF303
 6640 1504 12       		.byte	0x12
 6641 1505 CD02     		.2byte	0x2cd
 6642 1507 2C090000 		.4byte	0x92c
 6643 150b 30       		.byte	0x30
 6644 150c 21       		.uleb128 0x21
 6645 150d 53544100 		.ascii	"STA\000"
 6646 1511 12       		.byte	0x12
 6647 1512 CE02     		.2byte	0x2ce
 6648 1514 2C090000 		.4byte	0x92c
 6649 1518 34       		.byte	0x34
 6650 1519 21       		.uleb128 0x21
ARM GAS  C:\Users\Moi\AppData\Local\Temp\ccOzHcBd.s 			page 118


 6651 151a 49435200 		.ascii	"ICR\000"
 6652 151e 12       		.byte	0x12
 6653 151f CF02     		.2byte	0x2cf
 6654 1521 27090000 		.4byte	0x927
 6655 1525 38       		.byte	0x38
 6656 1526 18       		.uleb128 0x18
 6657 1527 89010000 		.4byte	.LASF304
 6658 152b 12       		.byte	0x12
 6659 152c D002     		.2byte	0x2d0
 6660 152e 27090000 		.4byte	0x927
 6661 1532 3C       		.byte	0x3c
 6662 1533 18       		.uleb128 0x18
 6663 1534 55200000 		.4byte	.LASF235
 6664 1538 12       		.byte	0x12
 6665 1539 D102     		.2byte	0x2d1
 6666 153b 4E0D0000 		.4byte	0xd4e
 6667 153f 40       		.byte	0x40
 6668 1540 18       		.uleb128 0x18
 6669 1541 5B150000 		.4byte	.LASF305
 6670 1545 12       		.byte	0x12
 6671 1546 D202     		.2byte	0x2d2
 6672 1548 2C090000 		.4byte	0x92c
 6673 154c 48       		.byte	0x48
 6674 154d 18       		.uleb128 0x18
 6675 154e 5F200000 		.4byte	.LASF238
 6676 1552 12       		.byte	0x12
 6677 1553 D302     		.2byte	0x2d3
 6678 1555 68150000 		.4byte	0x1568
 6679 1559 4C       		.byte	0x4c
 6680 155a 18       		.uleb128 0x18
 6681 155b B50A0000 		.4byte	.LASF306
 6682 155f 12       		.byte	0x12
 6683 1560 D402     		.2byte	0x2d4
 6684 1562 27090000 		.4byte	0x927
 6685 1566 80       		.byte	0x80
 6686 1567 00       		.byte	0
 6687 1568 0A       		.uleb128 0xa
 6688 1569 1C090000 		.4byte	0x91c
 6689 156d 78150000 		.4byte	0x1578
 6690 1571 0B       		.uleb128 0xb
 6691 1572 25000000 		.4byte	0x25
 6692 1576 0C       		.byte	0xc
 6693 1577 00       		.byte	0
 6694 1578 07       		.uleb128 0x7
 6695 1579 84210000 		.4byte	.LASF307
 6696 157d 12       		.byte	0x12
 6697 157e D502     		.2byte	0x2d5
 6698 1580 5A140000 		.4byte	0x145a
 6699 1584 1C       		.uleb128 0x1c
 6700 1585 24       		.byte	0x24
 6701 1586 12       		.byte	0x12
 6702 1587 DB02     		.2byte	0x2db
 6703 1589 01160000 		.4byte	0x1601
 6704 158d 21       		.uleb128 0x21
 6705 158e 43523100 		.ascii	"CR1\000"
 6706 1592 12       		.byte	0x12
 6707 1593 DD02     		.2byte	0x2dd
ARM GAS  C:\Users\Moi\AppData\Local\Temp\ccOzHcBd.s 			page 119


 6708 1595 27090000 		.4byte	0x927
 6709 1599 00       		.byte	0
 6710 159a 21       		.uleb128 0x21
 6711 159b 43523200 		.ascii	"CR2\000"
 6712 159f 12       		.byte	0x12
 6713 15a0 DE02     		.2byte	0x2de
 6714 15a2 27090000 		.4byte	0x927
 6715 15a6 04       		.byte	0x4
 6716 15a7 21       		.uleb128 0x21
 6717 15a8 535200   		.ascii	"SR\000"
 6718 15ab 12       		.byte	0x12
 6719 15ac DF02     		.2byte	0x2df
 6720 15ae 27090000 		.4byte	0x927
 6721 15b2 08       		.byte	0x8
 6722 15b3 21       		.uleb128 0x21
 6723 15b4 445200   		.ascii	"DR\000"
 6724 15b7 12       		.byte	0x12
 6725 15b8 E002     		.2byte	0x2e0
 6726 15ba 27090000 		.4byte	0x927
 6727 15be 0C       		.byte	0xc
 6728 15bf 18       		.uleb128 0x18
 6729 15c0 BA080000 		.4byte	.LASF308
 6730 15c4 12       		.byte	0x12
 6731 15c5 E102     		.2byte	0x2e1
 6732 15c7 27090000 		.4byte	0x927
 6733 15cb 10       		.byte	0x10
 6734 15cc 18       		.uleb128 0x18
 6735 15cd AF0C0000 		.4byte	.LASF309
 6736 15d1 12       		.byte	0x12
 6737 15d2 E202     		.2byte	0x2e2
 6738 15d4 27090000 		.4byte	0x927
 6739 15d8 14       		.byte	0x14
 6740 15d9 18       		.uleb128 0x18
 6741 15da AF0B0000 		.4byte	.LASF310
 6742 15de 12       		.byte	0x12
 6743 15df E302     		.2byte	0x2e3
 6744 15e1 27090000 		.4byte	0x927
 6745 15e5 18       		.byte	0x18
 6746 15e6 18       		.uleb128 0x18
 6747 15e7 18240000 		.4byte	.LASF311
 6748 15eb 12       		.byte	0x12
 6749 15ec E402     		.2byte	0x2e4
 6750 15ee 27090000 		.4byte	0x927
 6751 15f2 1C       		.byte	0x1c
 6752 15f3 18       		.uleb128 0x18
 6753 15f4 7D080000 		.4byte	.LASF312
 6754 15f8 12       		.byte	0x12
 6755 15f9 E502     		.2byte	0x2e5
 6756 15fb 27090000 		.4byte	0x927
 6757 15ff 20       		.byte	0x20
 6758 1600 00       		.byte	0
 6759 1601 07       		.uleb128 0x7
 6760 1602 02220000 		.4byte	.LASF313
 6761 1606 12       		.byte	0x12
 6762 1607 E602     		.2byte	0x2e6
 6763 1609 84150000 		.4byte	0x1584
 6764 160d 1C       		.uleb128 0x1c
ARM GAS  C:\Users\Moi\AppData\Local\Temp\ccOzHcBd.s 			page 120


 6765 160e 1C       		.byte	0x1c
 6766 160f 12       		.byte	0x12
 6767 1610 0903     		.2byte	0x309
 6768 1612 70160000 		.4byte	0x1670
 6769 1616 21       		.uleb128 0x21
 6770 1617 535200   		.ascii	"SR\000"
 6771 161a 12       		.byte	0x12
 6772 161b 0B03     		.2byte	0x30b
 6773 161d 27090000 		.4byte	0x927
 6774 1621 00       		.byte	0
 6775 1622 21       		.uleb128 0x21
 6776 1623 445200   		.ascii	"DR\000"
 6777 1626 12       		.byte	0x12
 6778 1627 0C03     		.2byte	0x30c
 6779 1629 27090000 		.4byte	0x927
 6780 162d 04       		.byte	0x4
 6781 162e 21       		.uleb128 0x21
 6782 162f 42525200 		.ascii	"BRR\000"
 6783 1633 12       		.byte	0x12
 6784 1634 0D03     		.2byte	0x30d
 6785 1636 27090000 		.4byte	0x927
 6786 163a 08       		.byte	0x8
 6787 163b 21       		.uleb128 0x21
 6788 163c 43523100 		.ascii	"CR1\000"
 6789 1640 12       		.byte	0x12
 6790 1641 0E03     		.2byte	0x30e
 6791 1643 27090000 		.4byte	0x927
 6792 1647 0C       		.byte	0xc
 6793 1648 21       		.uleb128 0x21
 6794 1649 43523200 		.ascii	"CR2\000"
 6795 164d 12       		.byte	0x12
 6796 164e 0F03     		.2byte	0x30f
 6797 1650 27090000 		.4byte	0x927
 6798 1654 10       		.byte	0x10
 6799 1655 21       		.uleb128 0x21
 6800 1656 43523300 		.ascii	"CR3\000"
 6801 165a 12       		.byte	0x12
 6802 165b 1003     		.2byte	0x310
 6803 165d 27090000 		.4byte	0x927
 6804 1661 14       		.byte	0x14
 6805 1662 18       		.uleb128 0x18
 6806 1663 B10F0000 		.4byte	.LASF314
 6807 1667 12       		.byte	0x12
 6808 1668 1103     		.2byte	0x311
 6809 166a 27090000 		.4byte	0x927
 6810 166e 18       		.byte	0x18
 6811 166f 00       		.byte	0
 6812 1670 07       		.uleb128 0x7
 6813 1671 35270000 		.4byte	.LASF315
 6814 1675 12       		.byte	0x12
 6815 1676 1203     		.2byte	0x312
 6816 1678 0D160000 		.4byte	0x160d
 6817 167c 0A       		.uleb128 0xa
 6818 167d 27090000 		.4byte	0x927
 6819 1681 8C160000 		.4byte	0x168c
 6820 1685 0B       		.uleb128 0xb
 6821 1686 25000000 		.4byte	0x25
ARM GAS  C:\Users\Moi\AppData\Local\Temp\ccOzHcBd.s 			page 121


 6822 168a 0E       		.byte	0xe
 6823 168b 00       		.byte	0
 6824 168c 1A       		.uleb128 0x1a
 6825 168d 7C160000 		.4byte	0x167c
 6826 1691 04       		.uleb128 0x4
 6827 1692 581A0000 		.4byte	.LASF316
 6828 1696 13       		.byte	0x13
 6829 1697 65       		.byte	0x65
 6830 1698 5D010000 		.4byte	0x15d
 6831 169c 04       		.uleb128 0x4
 6832 169d 5D0A0000 		.4byte	.LASF317
 6833 16a1 13       		.byte	0x13
 6834 16a2 6D       		.byte	0x6d
 6835 16a3 31090000 		.4byte	0x931
 6836 16a7 10       		.uleb128 0x10
 6837 16a8 4F130000 		.4byte	.LASF318
 6838 16ac 04       		.byte	0x4
 6839 16ad 13       		.byte	0x13
 6840 16ae 89       		.byte	0x89
 6841 16af C0160000 		.4byte	0x16c0
 6842 16b3 11       		.uleb128 0x11
 6843 16b4 72313300 		.ascii	"r13\000"
 6844 16b8 13       		.byte	0x13
 6845 16b9 8A       		.byte	0x8a
 6846 16ba 01180000 		.4byte	0x1801
 6847 16be 00       		.byte	0
 6848 16bf 00       		.byte	0
 6849 16c0 10       		.uleb128 0x10
 6850 16c1 09000000 		.4byte	.LASF319
 6851 16c5 64       		.byte	0x64
 6852 16c6 14       		.byte	0x14
 6853 16c7 F4       		.byte	0xf4
 6854 16c8 01180000 		.4byte	0x1801
 6855 16cc 11       		.uleb128 0x11
 6856 16cd 73313600 		.ascii	"s16\000"
 6857 16d1 14       		.byte	0x14
 6858 16d2 F6       		.byte	0xf6
 6859 16d3 91160000 		.4byte	0x1691
 6860 16d7 00       		.byte	0
 6861 16d8 11       		.uleb128 0x11
 6862 16d9 73313700 		.ascii	"s17\000"
 6863 16dd 14       		.byte	0x14
 6864 16de F7       		.byte	0xf7
 6865 16df 91160000 		.4byte	0x1691
 6866 16e3 04       		.byte	0x4
 6867 16e4 11       		.uleb128 0x11
 6868 16e5 73313800 		.ascii	"s18\000"
 6869 16e9 14       		.byte	0x14
 6870 16ea F8       		.byte	0xf8
 6871 16eb 91160000 		.4byte	0x1691
 6872 16ef 08       		.byte	0x8
 6873 16f0 11       		.uleb128 0x11
 6874 16f1 73313900 		.ascii	"s19\000"
 6875 16f5 14       		.byte	0x14
 6876 16f6 F9       		.byte	0xf9
 6877 16f7 91160000 		.4byte	0x1691
 6878 16fb 0C       		.byte	0xc
ARM GAS  C:\Users\Moi\AppData\Local\Temp\ccOzHcBd.s 			page 122


 6879 16fc 11       		.uleb128 0x11
 6880 16fd 73323000 		.ascii	"s20\000"
 6881 1701 14       		.byte	0x14
 6882 1702 FA       		.byte	0xfa
 6883 1703 91160000 		.4byte	0x1691
 6884 1707 10       		.byte	0x10
 6885 1708 11       		.uleb128 0x11
 6886 1709 73323100 		.ascii	"s21\000"
 6887 170d 14       		.byte	0x14
 6888 170e FB       		.byte	0xfb
 6889 170f 91160000 		.4byte	0x1691
 6890 1713 14       		.byte	0x14
 6891 1714 11       		.uleb128 0x11
 6892 1715 73323200 		.ascii	"s22\000"
 6893 1719 14       		.byte	0x14
 6894 171a FC       		.byte	0xfc
 6895 171b 91160000 		.4byte	0x1691
 6896 171f 18       		.byte	0x18
 6897 1720 11       		.uleb128 0x11
 6898 1721 73323300 		.ascii	"s23\000"
 6899 1725 14       		.byte	0x14
 6900 1726 FD       		.byte	0xfd
 6901 1727 91160000 		.4byte	0x1691
 6902 172b 1C       		.byte	0x1c
 6903 172c 11       		.uleb128 0x11
 6904 172d 73323400 		.ascii	"s24\000"
 6905 1731 14       		.byte	0x14
 6906 1732 FE       		.byte	0xfe
 6907 1733 91160000 		.4byte	0x1691
 6908 1737 20       		.byte	0x20
 6909 1738 11       		.uleb128 0x11
 6910 1739 73323500 		.ascii	"s25\000"
 6911 173d 14       		.byte	0x14
 6912 173e FF       		.byte	0xff
 6913 173f 91160000 		.4byte	0x1691
 6914 1743 24       		.byte	0x24
 6915 1744 21       		.uleb128 0x21
 6916 1745 73323600 		.ascii	"s26\000"
 6917 1749 14       		.byte	0x14
 6918 174a 0001     		.2byte	0x100
 6919 174c 91160000 		.4byte	0x1691
 6920 1750 28       		.byte	0x28
 6921 1751 21       		.uleb128 0x21
 6922 1752 73323700 		.ascii	"s27\000"
 6923 1756 14       		.byte	0x14
 6924 1757 0101     		.2byte	0x101
 6925 1759 91160000 		.4byte	0x1691
 6926 175d 2C       		.byte	0x2c
 6927 175e 21       		.uleb128 0x21
 6928 175f 73323800 		.ascii	"s28\000"
 6929 1763 14       		.byte	0x14
 6930 1764 0201     		.2byte	0x102
 6931 1766 91160000 		.4byte	0x1691
 6932 176a 30       		.byte	0x30
 6933 176b 21       		.uleb128 0x21
 6934 176c 73323900 		.ascii	"s29\000"
 6935 1770 14       		.byte	0x14
ARM GAS  C:\Users\Moi\AppData\Local\Temp\ccOzHcBd.s 			page 123


 6936 1771 0301     		.2byte	0x103
 6937 1773 91160000 		.4byte	0x1691
 6938 1777 34       		.byte	0x34
 6939 1778 21       		.uleb128 0x21
 6940 1779 73333000 		.ascii	"s30\000"
 6941 177d 14       		.byte	0x14
 6942 177e 0401     		.2byte	0x104
 6943 1780 91160000 		.4byte	0x1691
 6944 1784 38       		.byte	0x38
 6945 1785 21       		.uleb128 0x21
 6946 1786 73333100 		.ascii	"s31\000"
 6947 178a 14       		.byte	0x14
 6948 178b 0501     		.2byte	0x105
 6949 178d 91160000 		.4byte	0x1691
 6950 1791 3C       		.byte	0x3c
 6951 1792 21       		.uleb128 0x21
 6952 1793 723400   		.ascii	"r4\000"
 6953 1796 14       		.byte	0x14
 6954 1797 0701     		.2byte	0x107
 6955 1799 91160000 		.4byte	0x1691
 6956 179d 40       		.byte	0x40
 6957 179e 21       		.uleb128 0x21
 6958 179f 723500   		.ascii	"r5\000"
 6959 17a2 14       		.byte	0x14
 6960 17a3 0801     		.2byte	0x108
 6961 17a5 91160000 		.4byte	0x1691
 6962 17a9 44       		.byte	0x44
 6963 17aa 21       		.uleb128 0x21
 6964 17ab 723600   		.ascii	"r6\000"
 6965 17ae 14       		.byte	0x14
 6966 17af 0901     		.2byte	0x109
 6967 17b1 91160000 		.4byte	0x1691
 6968 17b5 48       		.byte	0x48
 6969 17b6 21       		.uleb128 0x21
 6970 17b7 723700   		.ascii	"r7\000"
 6971 17ba 14       		.byte	0x14
 6972 17bb 0A01     		.2byte	0x10a
 6973 17bd 91160000 		.4byte	0x1691
 6974 17c1 4C       		.byte	0x4c
 6975 17c2 21       		.uleb128 0x21
 6976 17c3 723800   		.ascii	"r8\000"
 6977 17c6 14       		.byte	0x14
 6978 17c7 0B01     		.2byte	0x10b
 6979 17c9 91160000 		.4byte	0x1691
 6980 17cd 50       		.byte	0x50
 6981 17ce 21       		.uleb128 0x21
 6982 17cf 723900   		.ascii	"r9\000"
 6983 17d2 14       		.byte	0x14
 6984 17d3 0C01     		.2byte	0x10c
 6985 17d5 91160000 		.4byte	0x1691
 6986 17d9 54       		.byte	0x54
 6987 17da 21       		.uleb128 0x21
 6988 17db 72313000 		.ascii	"r10\000"
 6989 17df 14       		.byte	0x14
 6990 17e0 0D01     		.2byte	0x10d
 6991 17e2 91160000 		.4byte	0x1691
 6992 17e6 58       		.byte	0x58
ARM GAS  C:\Users\Moi\AppData\Local\Temp\ccOzHcBd.s 			page 124


 6993 17e7 21       		.uleb128 0x21
 6994 17e8 72313100 		.ascii	"r11\000"
 6995 17ec 14       		.byte	0x14
 6996 17ed 0E01     		.2byte	0x10e
 6997 17ef 91160000 		.4byte	0x1691
 6998 17f3 5C       		.byte	0x5c
 6999 17f4 21       		.uleb128 0x21
 7000 17f5 6C7200   		.ascii	"lr\000"
 7001 17f8 14       		.byte	0x14
 7002 17f9 0F01     		.2byte	0x10f
 7003 17fb 91160000 		.4byte	0x1691
 7004 17ff 60       		.byte	0x60
 7005 1800 00       		.byte	0
 7006 1801 05       		.uleb128 0x5
 7007 1802 04       		.byte	0x4
 7008 1803 C0160000 		.4byte	0x16c0
 7009 1807 0C       		.uleb128 0xc
 7010 1808 10       		.byte	0x10
 7011 1809 15       		.byte	0x15
 7012 180a 51       		.byte	0x51
 7013 180b 40180000 		.4byte	0x1840
 7014 180f 0D       		.uleb128 0xd
 7015 1810 D3200000 		.4byte	.LASF320
 7016 1814 15       		.byte	0x15
 7017 1815 55       		.byte	0x55
 7018 1816 C0090000 		.4byte	0x9c0
 7019 181a 00       		.byte	0
 7020 181b 0D       		.uleb128 0xd
 7021 181c F71A0000 		.4byte	.LASF321
 7022 1820 15       		.byte	0x15
 7023 1821 59       		.byte	0x59
 7024 1822 040B0000 		.4byte	0xb04
 7025 1826 04       		.byte	0x4
 7026 1827 0D       		.uleb128 0xd
 7027 1828 4E0D0000 		.4byte	.LASF322
 7028 182c 15       		.byte	0x15
 7029 182d 5D       		.byte	0x5d
 7030 182e 5D010000 		.4byte	0x15d
 7031 1832 08       		.byte	0x8
 7032 1833 0D       		.uleb128 0xd
 7033 1834 480B0000 		.4byte	.LASF323
 7034 1838 15       		.byte	0x15
 7035 1839 61       		.byte	0x61
 7036 183a E6080000 		.4byte	0x8e6
 7037 183e 0C       		.byte	0xc
 7038 183f 00       		.byte	0
 7039 1840 04       		.uleb128 0x4
 7040 1841 280E0000 		.4byte	.LASF324
 7041 1845 15       		.byte	0x15
 7042 1846 62       		.byte	0x62
 7043 1847 07180000 		.4byte	0x1807
 7044 184b 25       		.uleb128 0x25
 7045 184c 0804     		.2byte	0x408
 7046 184e 15       		.byte	0x15
 7047 184f 67       		.byte	0x67
 7048 1850 79180000 		.4byte	0x1879
 7049 1854 0D       		.uleb128 0xd
ARM GAS  C:\Users\Moi\AppData\Local\Temp\ccOzHcBd.s 			page 125


 7050 1855 FE0E0000 		.4byte	.LASF325
 7051 1859 15       		.byte	0x15
 7052 185a 6B       		.byte	0x6b
 7053 185b 25000000 		.4byte	0x25
 7054 185f 00       		.byte	0
 7055 1860 0D       		.uleb128 0xd
 7056 1861 A0150000 		.4byte	.LASF326
 7057 1865 15       		.byte	0x15
 7058 1866 6F       		.byte	0x6f
 7059 1867 79180000 		.4byte	0x1879
 7060 186b 04       		.byte	0x4
 7061 186c 0D       		.uleb128 0xd
 7062 186d BA0A0000 		.4byte	.LASF327
 7063 1871 15       		.byte	0x15
 7064 1872 73       		.byte	0x73
 7065 1873 7F180000 		.4byte	0x187f
 7066 1877 08       		.byte	0x8
 7067 1878 00       		.byte	0
 7068 1879 05       		.uleb128 0x5
 7069 187a 04       		.byte	0x4
 7070 187b 40180000 		.4byte	0x1840
 7071 187f 0A       		.uleb128 0xa
 7072 1880 40180000 		.4byte	0x1840
 7073 1884 8F180000 		.4byte	0x188f
 7074 1888 0B       		.uleb128 0xb
 7075 1889 25000000 		.4byte	0x25
 7076 188d 3F       		.byte	0x3f
 7077 188e 00       		.byte	0
 7078 188f 04       		.uleb128 0x4
 7079 1890 15000000 		.4byte	.LASF328
 7080 1894 15       		.byte	0x15
 7081 1895 74       		.byte	0x74
 7082 1896 4B180000 		.4byte	0x184b
 7083 189a 0C       		.uleb128 0xc
 7084 189b 04       		.byte	0x4
 7085 189c 16       		.byte	0x16
 7086 189d 38       		.byte	0x38
 7087 189e AF180000 		.4byte	0x18af
 7088 18a2 0D       		.uleb128 0xd
 7089 18a3 91210000 		.4byte	.LASF329
 7090 18a7 16       		.byte	0x16
 7091 18a8 3C       		.byte	0x3c
 7092 18a9 3C090000 		.4byte	0x93c
 7093 18ad 00       		.byte	0
 7094 18ae 00       		.byte	0
 7095 18af 04       		.uleb128 0x4
 7096 18b0 46050000 		.4byte	.LASF330
 7097 18b4 16       		.byte	0x16
 7098 18b5 3D       		.byte	0x3d
 7099 18b6 9A180000 		.4byte	0x189a
 7100 18ba 0C       		.uleb128 0xc
 7101 18bb 18       		.byte	0x18
 7102 18bc 16       		.byte	0x16
 7103 18bd 48       		.byte	0x48
 7104 18be FD180000 		.4byte	0x18fd
 7105 18c2 0D       		.uleb128 0xd
 7106 18c3 8E080000 		.4byte	.LASF331
ARM GAS  C:\Users\Moi\AppData\Local\Temp\ccOzHcBd.s 			page 126


 7107 18c7 16       		.byte	0x16
 7108 18c8 49       		.byte	0x49
 7109 18c9 3C090000 		.4byte	0x93c
 7110 18cd 00       		.byte	0
 7111 18ce 0D       		.uleb128 0xd
 7112 18cf 2E010000 		.4byte	.LASF332
 7113 18d3 16       		.byte	0x16
 7114 18d4 4A       		.byte	0x4a
 7115 18d5 3C090000 		.4byte	0x93c
 7116 18d9 04       		.byte	0x4
 7117 18da 0D       		.uleb128 0xd
 7118 18db 011A0000 		.4byte	.LASF333
 7119 18df 16       		.byte	0x16
 7120 18e0 4B       		.byte	0x4b
 7121 18e1 3C090000 		.4byte	0x93c
 7122 18e5 08       		.byte	0x8
 7123 18e6 11       		.uleb128 0x11
 7124 18e7 6E00     		.ascii	"n\000"
 7125 18e9 16       		.byte	0x16
 7126 18ea 4C       		.byte	0x4c
 7127 18eb B5090000 		.4byte	0x9b5
 7128 18ef 0C       		.byte	0xc
 7129 18f0 0D       		.uleb128 0xd
 7130 18f1 A5190000 		.4byte	.LASF334
 7131 18f5 16       		.byte	0x16
 7132 18f6 4D       		.byte	0x4d
 7133 18f7 47090000 		.4byte	0x947
 7134 18fb 10       		.byte	0x10
 7135 18fc 00       		.byte	0
 7136 18fd 04       		.uleb128 0x4
 7137 18fe 88240000 		.4byte	.LASF335
 7138 1902 16       		.byte	0x16
 7139 1903 4E       		.byte	0x4e
 7140 1904 BA180000 		.4byte	0x18ba
 7141 1908 0C       		.uleb128 0xc
 7142 1909 38       		.byte	0x38
 7143 190a 17       		.byte	0x17
 7144 190b 38       		.byte	0x38
 7145 190c 41190000 		.4byte	0x1941
 7146 1910 0D       		.uleb128 0xd
 7147 1911 DB070000 		.4byte	.LASF336
 7148 1915 17       		.byte	0x17
 7149 1916 39       		.byte	0x39
 7150 1917 B5090000 		.4byte	0x9b5
 7151 191b 00       		.byte	0
 7152 191c 0D       		.uleb128 0xd
 7153 191d 180C0000 		.4byte	.LASF337
 7154 1921 17       		.byte	0x17
 7155 1922 3A       		.byte	0x3a
 7156 1923 B5090000 		.4byte	0x9b5
 7157 1927 04       		.byte	0x4
 7158 1928 0D       		.uleb128 0xd
 7159 1929 FB230000 		.4byte	.LASF338
 7160 192d 17       		.byte	0x17
 7161 192e 3B       		.byte	0x3b
 7162 192f FD180000 		.4byte	0x18fd
 7163 1933 08       		.byte	0x8
ARM GAS  C:\Users\Moi\AppData\Local\Temp\ccOzHcBd.s 			page 127


 7164 1934 0D       		.uleb128 0xd
 7165 1935 6D000000 		.4byte	.LASF339
 7166 1939 17       		.byte	0x17
 7167 193a 3D       		.byte	0x3d
 7168 193b FD180000 		.4byte	0x18fd
 7169 193f 20       		.byte	0x20
 7170 1940 00       		.byte	0
 7171 1941 04       		.uleb128 0x4
 7172 1942 02050000 		.4byte	.LASF340
 7173 1946 17       		.byte	0x17
 7174 1947 3F       		.byte	0x3f
 7175 1948 08190000 		.4byte	0x1908
 7176 194c 08       		.uleb128 0x8
 7177 194d 04       		.byte	0x4
 7178 194e 0F       		.byte	0xf
 7179 194f FA       		.byte	0xfa
 7180 1950 A9190000 		.4byte	0x19a9
 7181 1954 1E       		.uleb128 0x1e
 7182 1955 12110000 		.4byte	.LASF341
 7183 1959 0F       		.byte	0xf
 7184 195a 0101     		.2byte	0x101
 7185 195c 89090000 		.4byte	0x989
 7186 1960 1E       		.uleb128 0x1e
 7187 1961 56090000 		.4byte	.LASF342
 7188 1965 0F       		.byte	0xf
 7189 1966 0801     		.2byte	0x108
 7190 1968 89090000 		.4byte	0x989
 7191 196c 1E       		.uleb128 0x1e
 7192 196d 381E0000 		.4byte	.LASF343
 7193 1971 0F       		.byte	0xf
 7194 1972 0F01     		.2byte	0x10f
 7195 1974 5D010000 		.4byte	0x15d
 7196 1978 1E       		.uleb128 0x1e
 7197 1979 C6190000 		.4byte	.LASF344
 7198 197d 0F       		.byte	0xf
 7199 197e 1601     		.2byte	0x116
 7200 1980 A9190000 		.4byte	0x19a9
 7201 1984 1E       		.uleb128 0x1e
 7202 1985 D2000000 		.4byte	.LASF345
 7203 1989 0F       		.byte	0xf
 7204 198a 1E01     		.2byte	0x11e
 7205 198c D4190000 		.4byte	0x19d4
 7206 1990 1E       		.uleb128 0x1e
 7207 1991 7F1E0000 		.4byte	.LASF346
 7208 1995 0F       		.byte	0xf
 7209 1996 2701     		.2byte	0x127
 7210 1998 171A0000 		.4byte	0x1a17
 7211 199c 1E       		.uleb128 0x1e
 7212 199d 4A220000 		.4byte	.LASF347
 7213 19a1 0F       		.byte	0xf
 7214 19a2 2F01     		.2byte	0x12f
 7215 19a4 94090000 		.4byte	0x994
 7216 19a8 00       		.byte	0
 7217 19a9 05       		.uleb128 0x5
 7218 19aa 04       		.byte	0x4
 7219 19ab F90A0000 		.4byte	0xaf9
 7220 19af 10       		.uleb128 0x10
ARM GAS  C:\Users\Moi\AppData\Local\Temp\ccOzHcBd.s 			page 128


 7221 19b0 7A180000 		.4byte	.LASF348
 7222 19b4 0C       		.byte	0xc
 7223 19b5 18       		.byte	0x18
 7224 19b6 34       		.byte	0x34
 7225 19b7 D4190000 		.4byte	0x19d4
 7226 19bb 0D       		.uleb128 0xd
 7227 19bc F3230000 		.4byte	.LASF349
 7228 19c0 18       		.byte	0x18
 7229 19c1 35       		.byte	0x35
 7230 19c2 2E0B0000 		.4byte	0xb2e
 7231 19c6 00       		.byte	0
 7232 19c7 0D       		.uleb128 0xd
 7233 19c8 CC0A0000 		.4byte	.LASF350
 7234 19cc 18       		.byte	0x18
 7235 19cd 37       		.byte	0x37
 7236 19ce AA090000 		.4byte	0x9aa
 7237 19d2 08       		.byte	0x8
 7238 19d3 00       		.byte	0
 7239 19d4 05       		.uleb128 0x5
 7240 19d5 04       		.byte	0x4
 7241 19d6 AF190000 		.4byte	0x19af
 7242 19da 10       		.uleb128 0x10
 7243 19db C20C0000 		.4byte	.LASF351
 7244 19df 14       		.byte	0x14
 7245 19e0 19       		.byte	0x19
 7246 19e1 39       		.byte	0x39
 7247 19e2 171A0000 		.4byte	0x1a17
 7248 19e6 0D       		.uleb128 0xd
 7249 19e7 F9130000 		.4byte	.LASF352
 7250 19eb 19       		.byte	0x19
 7251 19ec 3A       		.byte	0x3a
 7252 19ed 2E0B0000 		.4byte	0xb2e
 7253 19f1 00       		.byte	0
 7254 19f2 0D       		.uleb128 0xd
 7255 19f3 46170000 		.4byte	.LASF353
 7256 19f7 19       		.byte	0x19
 7257 19f8 3C       		.byte	0x3c
 7258 19f9 040B0000 		.4byte	0xb04
 7259 19fd 08       		.byte	0x8
 7260 19fe 0D       		.uleb128 0xd
 7261 19ff 71010000 		.4byte	.LASF354
 7262 1a03 19       		.byte	0x19
 7263 1a04 3E       		.byte	0x3e
 7264 1a05 5B1B0000 		.4byte	0x1b5b
 7265 1a09 0C       		.byte	0xc
 7266 1a0a 0D       		.uleb128 0xd
 7267 1a0b DE090000 		.4byte	.LASF355
 7268 1a0f 19       		.byte	0x19
 7269 1a10 41       		.byte	0x41
 7270 1a11 AA090000 		.4byte	0x9aa
 7271 1a15 10       		.byte	0x10
 7272 1a16 00       		.byte	0
 7273 1a17 05       		.uleb128 0x5
 7274 1a18 04       		.byte	0x4
 7275 1a19 DA190000 		.4byte	0x19da
 7276 1a1d 05       		.uleb128 0x5
 7277 1a1e 04       		.byte	0x4
ARM GAS  C:\Users\Moi\AppData\Local\Temp\ccOzHcBd.s 			page 129


 7278 1a1f 9C160000 		.4byte	0x169c
 7279 1a23 05       		.uleb128 0x5
 7280 1a24 04       		.byte	0x4
 7281 1a25 E10B0000 		.4byte	0xbe1
 7282 1a29 0A       		.uleb128 0xa
 7283 1a2a 9C160000 		.4byte	0x169c
 7284 1a2e 391A0000 		.4byte	0x1a39
 7285 1a32 0B       		.uleb128 0xb
 7286 1a33 25000000 		.4byte	0x25
 7287 1a37 30       		.byte	0x30
 7288 1a38 00       		.byte	0
 7289 1a39 26       		.uleb128 0x26
 7290 1a3a 636800   		.ascii	"ch\000"
 7291 1a3d 0F       		.byte	0xf
 7292 1a3e 0902     		.2byte	0x209
 7293 1a40 D60C0000 		.4byte	0xcd6
 7294 1a44 0C       		.uleb128 0xc
 7295 1a45 16       		.byte	0x16
 7296 1a46 02       		.byte	0x2
 7297 1a47 34       		.byte	0x34
 7298 1a48 251B0000 		.4byte	0x1b25
 7299 1a4c 0D       		.uleb128 0xd
 7300 1a4d 25240000 		.4byte	.LASF356
 7301 1a51 02       		.byte	0x2
 7302 1a52 35       		.byte	0x35
 7303 1a53 251B0000 		.4byte	0x1b25
 7304 1a57 00       		.byte	0
 7305 1a58 0D       		.uleb128 0xd
 7306 1a59 57260000 		.4byte	.LASF357
 7307 1a5d 02       		.byte	0x2
 7308 1a5e 36       		.byte	0x36
 7309 1a5f E6080000 		.4byte	0x8e6
 7310 1a63 04       		.byte	0x4
 7311 1a64 0D       		.uleb128 0xd
 7312 1a65 BB020000 		.4byte	.LASF358
 7313 1a69 02       		.byte	0x2
 7314 1a6a 37       		.byte	0x37
 7315 1a6b E6080000 		.4byte	0x8e6
 7316 1a6f 05       		.byte	0x5
 7317 1a70 0D       		.uleb128 0xd
 7318 1a71 AB170000 		.4byte	.LASF359
 7319 1a75 02       		.byte	0x2
 7320 1a76 38       		.byte	0x38
 7321 1a77 01090000 		.4byte	0x901
 7322 1a7b 06       		.byte	0x6
 7323 1a7c 0D       		.uleb128 0xd
 7324 1a7d 27000000 		.4byte	.LASF360
 7325 1a81 02       		.byte	0x2
 7326 1a82 39       		.byte	0x39
 7327 1a83 E6080000 		.4byte	0x8e6
 7328 1a87 08       		.byte	0x8
 7329 1a88 0D       		.uleb128 0xd
 7330 1a89 34150000 		.4byte	.LASF361
 7331 1a8d 02       		.byte	0x2
 7332 1a8e 3A       		.byte	0x3a
 7333 1a8f E6080000 		.4byte	0x8e6
 7334 1a93 09       		.byte	0x9
ARM GAS  C:\Users\Moi\AppData\Local\Temp\ccOzHcBd.s 			page 130


 7335 1a94 0D       		.uleb128 0xd
 7336 1a95 77260000 		.4byte	.LASF362
 7337 1a99 02       		.byte	0x2
 7338 1a9a 3B       		.byte	0x3b
 7339 1a9b E6080000 		.4byte	0x8e6
 7340 1a9f 0A       		.byte	0xa
 7341 1aa0 0D       		.uleb128 0xd
 7342 1aa1 63240000 		.4byte	.LASF363
 7343 1aa5 02       		.byte	0x2
 7344 1aa6 3C       		.byte	0x3c
 7345 1aa7 E6080000 		.4byte	0x8e6
 7346 1aab 0B       		.byte	0xb
 7347 1aac 0D       		.uleb128 0xd
 7348 1aad 6A230000 		.4byte	.LASF364
 7349 1ab1 02       		.byte	0x2
 7350 1ab2 3D       		.byte	0x3d
 7351 1ab3 E6080000 		.4byte	0x8e6
 7352 1ab7 0C       		.byte	0xc
 7353 1ab8 0D       		.uleb128 0xd
 7354 1ab9 160D0000 		.4byte	.LASF365
 7355 1abd 02       		.byte	0x2
 7356 1abe 3E       		.byte	0x3e
 7357 1abf E6080000 		.4byte	0x8e6
 7358 1ac3 0D       		.byte	0xd
 7359 1ac4 0D       		.uleb128 0xd
 7360 1ac5 9A050000 		.4byte	.LASF366
 7361 1ac9 02       		.byte	0x2
 7362 1aca 3F       		.byte	0x3f
 7363 1acb E6080000 		.4byte	0x8e6
 7364 1acf 0E       		.byte	0xe
 7365 1ad0 0D       		.uleb128 0xd
 7366 1ad1 9F0E0000 		.4byte	.LASF367
 7367 1ad5 02       		.byte	0x2
 7368 1ad6 40       		.byte	0x40
 7369 1ad7 E6080000 		.4byte	0x8e6
 7370 1adb 0F       		.byte	0xf
 7371 1adc 0D       		.uleb128 0xd
 7372 1add 86100000 		.4byte	.LASF368
 7373 1ae1 02       		.byte	0x2
 7374 1ae2 41       		.byte	0x41
 7375 1ae3 E6080000 		.4byte	0x8e6
 7376 1ae7 10       		.byte	0x10
 7377 1ae8 0D       		.uleb128 0xd
 7378 1ae9 39170000 		.4byte	.LASF369
 7379 1aed 02       		.byte	0x2
 7380 1aee 43       		.byte	0x43
 7381 1aef E6080000 		.4byte	0x8e6
 7382 1af3 11       		.byte	0x11
 7383 1af4 0D       		.uleb128 0xd
 7384 1af5 79020000 		.4byte	.LASF370
 7385 1af9 02       		.byte	0x2
 7386 1afa 44       		.byte	0x44
 7387 1afb E6080000 		.4byte	0x8e6
 7388 1aff 12       		.byte	0x12
 7389 1b00 0D       		.uleb128 0xd
 7390 1b01 2D170000 		.4byte	.LASF371
 7391 1b05 02       		.byte	0x2
ARM GAS  C:\Users\Moi\AppData\Local\Temp\ccOzHcBd.s 			page 131


 7392 1b06 45       		.byte	0x45
 7393 1b07 E6080000 		.4byte	0x8e6
 7394 1b0b 13       		.byte	0x13
 7395 1b0c 0D       		.uleb128 0xd
 7396 1b0d 6A1D0000 		.4byte	.LASF372
 7397 1b11 02       		.byte	0x2
 7398 1b12 46       		.byte	0x46
 7399 1b13 E6080000 		.4byte	0x8e6
 7400 1b17 14       		.byte	0x14
 7401 1b18 0D       		.uleb128 0xd
 7402 1b19 B0000000 		.4byte	.LASF373
 7403 1b1d 02       		.byte	0x2
 7404 1b1e 48       		.byte	0x48
 7405 1b1f E6080000 		.4byte	0x8e6
 7406 1b23 15       		.byte	0x15
 7407 1b24 00       		.byte	0
 7408 1b25 0A       		.uleb128 0xa
 7409 1b26 65010000 		.4byte	0x165
 7410 1b2a 351B0000 		.4byte	0x1b35
 7411 1b2e 0B       		.uleb128 0xb
 7412 1b2f 25000000 		.4byte	0x25
 7413 1b33 03       		.byte	0x3
 7414 1b34 00       		.byte	0
 7415 1b35 04       		.uleb128 0x4
 7416 1b36 A1140000 		.4byte	.LASF374
 7417 1b3a 02       		.byte	0x2
 7418 1b3b 49       		.byte	0x49
 7419 1b3c 441A0000 		.4byte	0x1a44
 7420 1b40 0F       		.uleb128 0xf
 7421 1b41 351B0000 		.4byte	0x1b35
 7422 1b45 23       		.uleb128 0x23
 7423 1b46 210C0000 		.4byte	.LASF375
 7424 1b4a 02       		.byte	0x2
 7425 1b4b 6E       		.byte	0x6e
 7426 1b4c 401B0000 		.4byte	0x1b40
 7427 1b50 04       		.uleb128 0x4
 7428 1b51 E81F0000 		.4byte	.LASF376
 7429 1b55 19       		.byte	0x19
 7430 1b56 34       		.byte	0x34
 7431 1b57 DA190000 		.4byte	0x19da
 7432 1b5b 05       		.uleb128 0x5
 7433 1b5c 04       		.byte	0x4
 7434 1b5d 501B0000 		.4byte	0x1b50
 7435 1b61 04       		.uleb128 0x4
 7436 1b62 660C0000 		.4byte	.LASF377
 7437 1b66 1A       		.byte	0x1a
 7438 1b67 34       		.byte	0x34
 7439 1b68 6C1B0000 		.4byte	0x1b6c
 7440 1b6c 10       		.uleb128 0x10
 7441 1b6d 00270000 		.4byte	.LASF378
 7442 1b71 14       		.byte	0x14
 7443 1b72 1A       		.byte	0x1a
 7444 1b73 39       		.byte	0x39
 7445 1b74 B51B0000 		.4byte	0x1bb5
 7446 1b78 0D       		.uleb128 0xd
 7447 1b79 02020000 		.4byte	.LASF379
 7448 1b7d 1A       		.byte	0x1a
ARM GAS  C:\Users\Moi\AppData\Local\Temp\ccOzHcBd.s 			page 132


 7449 1b7e 3A       		.byte	0x3a
 7450 1b7f B51B0000 		.4byte	0x1bb5
 7451 1b83 00       		.byte	0
 7452 1b84 0D       		.uleb128 0xd
 7453 1b85 04210000 		.4byte	.LASF380
 7454 1b89 1A       		.byte	0x1a
 7455 1b8a 3D       		.byte	0x3d
 7456 1b8b 040B0000 		.4byte	0xb04
 7457 1b8f 04       		.byte	0x4
 7458 1b90 0D       		.uleb128 0xd
 7459 1b91 1F030000 		.4byte	.LASF381
 7460 1b95 1A       		.byte	0x1a
 7461 1b96 3F       		.byte	0x3f
 7462 1b97 94090000 		.4byte	0x994
 7463 1b9b 08       		.byte	0x8
 7464 1b9c 0D       		.uleb128 0xd
 7465 1b9d 51220000 		.4byte	.LASF382
 7466 1ba1 1A       		.byte	0x1a
 7467 1ba2 41       		.byte	0x41
 7468 1ba3 9F090000 		.4byte	0x99f
 7469 1ba7 0C       		.byte	0xc
 7470 1ba8 0D       		.uleb128 0xd
 7471 1ba9 EA0E0000 		.4byte	.LASF383
 7472 1bad 1A       		.byte	0x1a
 7473 1bae 43       		.byte	0x43
 7474 1baf 9F090000 		.4byte	0x99f
 7475 1bb3 10       		.byte	0x10
 7476 1bb4 00       		.byte	0
 7477 1bb5 05       		.uleb128 0x5
 7478 1bb6 04       		.byte	0x4
 7479 1bb7 611B0000 		.4byte	0x1b61
 7480 1bbb 10       		.uleb128 0x10
 7481 1bbc 5A220000 		.4byte	.LASF384
 7482 1bc0 04       		.byte	0x4
 7483 1bc1 1A       		.byte	0x1a
 7484 1bc2 4A       		.byte	0x4a
 7485 1bc3 D41B0000 		.4byte	0x1bd4
 7486 1bc7 0D       		.uleb128 0xd
 7487 1bc8 CC210000 		.4byte	.LASF385
 7488 1bcc 1A       		.byte	0x1a
 7489 1bcd 4B       		.byte	0x4b
 7490 1bce B51B0000 		.4byte	0x1bb5
 7491 1bd2 00       		.byte	0
 7492 1bd3 00       		.byte	0
 7493 1bd4 04       		.uleb128 0x4
 7494 1bd5 63150000 		.4byte	.LASF386
 7495 1bd9 1A       		.byte	0x1a
 7496 1bda 4E       		.byte	0x4e
 7497 1bdb BB1B0000 		.4byte	0x1bbb
 7498 1bdf 04       		.uleb128 0x4
 7499 1be0 3D0F0000 		.4byte	.LASF387
 7500 1be4 1B       		.byte	0x1b
 7501 1be5 3F       		.byte	0x3f
 7502 1be6 EA1B0000 		.4byte	0x1bea
 7503 1bea 10       		.uleb128 0x10
 7504 1beb 9F110000 		.4byte	.LASF388
 7505 1bef 24       		.byte	0x24
ARM GAS  C:\Users\Moi\AppData\Local\Temp\ccOzHcBd.s 			page 133


 7506 1bf0 1B       		.byte	0x1b
 7507 1bf1 4D       		.byte	0x4d
 7508 1bf2 571C0000 		.4byte	0x1c57
 7509 1bf6 0D       		.uleb128 0xd
 7510 1bf7 11050000 		.4byte	.LASF389
 7511 1bfb 1B       		.byte	0x1b
 7512 1bfc 4E       		.byte	0x4e
 7513 1bfd 2E0B0000 		.4byte	0xb2e
 7514 1c01 00       		.byte	0
 7515 1c02 0D       		.uleb128 0xd
 7516 1c03 6A190000 		.4byte	.LASF390
 7517 1c07 1B       		.byte	0x1b
 7518 1c08 4F       		.byte	0x4f
 7519 1c09 33000000 		.4byte	0x33
 7520 1c0d 08       		.byte	0x8
 7521 1c0e 0D       		.uleb128 0xd
 7522 1c0f 6D120000 		.4byte	.LASF391
 7523 1c13 1B       		.byte	0x1b
 7524 1c14 50       		.byte	0x50
 7525 1c15 791C0000 		.4byte	0x1c79
 7526 1c19 0C       		.byte	0xc
 7527 1c1a 0D       		.uleb128 0xd
 7528 1c1b 71040000 		.4byte	.LASF392
 7529 1c1f 1B       		.byte	0x1b
 7530 1c20 51       		.byte	0x51
 7531 1c21 791C0000 		.4byte	0x1c79
 7532 1c25 10       		.byte	0x10
 7533 1c26 0D       		.uleb128 0xd
 7534 1c27 FD1A0000 		.4byte	.LASF393
 7535 1c2b 1B       		.byte	0x1b
 7536 1c2c 53       		.byte	0x53
 7537 1c2d 791C0000 		.4byte	0x1c79
 7538 1c31 14       		.byte	0x14
 7539 1c32 0D       		.uleb128 0xd
 7540 1c33 CC190000 		.4byte	.LASF394
 7541 1c37 1B       		.byte	0x1b
 7542 1c38 54       		.byte	0x54
 7543 1c39 791C0000 		.4byte	0x1c79
 7544 1c3d 18       		.byte	0x18
 7545 1c3e 0D       		.uleb128 0xd
 7546 1c3f 761E0000 		.4byte	.LASF395
 7547 1c43 1B       		.byte	0x1b
 7548 1c44 55       		.byte	0x55
 7549 1c45 571C0000 		.4byte	0x1c57
 7550 1c49 1C       		.byte	0x1c
 7551 1c4a 0D       		.uleb128 0xd
 7552 1c4b ED1B0000 		.4byte	.LASF396
 7553 1c4f 1B       		.byte	0x1b
 7554 1c50 56       		.byte	0x56
 7555 1c51 5D010000 		.4byte	0x15d
 7556 1c55 20       		.byte	0x20
 7557 1c56 00       		.byte	0
 7558 1c57 04       		.uleb128 0x4
 7559 1c58 1C040000 		.4byte	.LASF397
 7560 1c5c 1B       		.byte	0x1b
 7561 1c5d 42       		.byte	0x42
 7562 1c5e 621C0000 		.4byte	0x1c62
ARM GAS  C:\Users\Moi\AppData\Local\Temp\ccOzHcBd.s 			page 134


 7563 1c62 05       		.uleb128 0x5
 7564 1c63 04       		.byte	0x4
 7565 1c64 681C0000 		.4byte	0x1c68
 7566 1c68 1F       		.uleb128 0x1f
 7567 1c69 731C0000 		.4byte	0x1c73
 7568 1c6d 16       		.uleb128 0x16
 7569 1c6e 731C0000 		.4byte	0x1c73
 7570 1c72 00       		.byte	0
 7571 1c73 05       		.uleb128 0x5
 7572 1c74 04       		.byte	0x4
 7573 1c75 DF1B0000 		.4byte	0x1bdf
 7574 1c79 05       		.uleb128 0x5
 7575 1c7a 04       		.byte	0x4
 7576 1c7b E6080000 		.4byte	0x8e6
 7577 1c7f 04       		.uleb128 0x4
 7578 1c80 57050000 		.4byte	.LASF398
 7579 1c84 1B       		.byte	0x1b
 7580 1c85 64       		.byte	0x64
 7581 1c86 DF1B0000 		.4byte	0x1bdf
 7582 1c8a 04       		.uleb128 0x4
 7583 1c8b 43270000 		.4byte	.LASF399
 7584 1c8f 1B       		.byte	0x1b
 7585 1c90 71       		.byte	0x71
 7586 1c91 DF1B0000 		.4byte	0x1bdf
 7587 1c95 15       		.uleb128 0x15
 7588 1c96 33000000 		.4byte	0x33
 7589 1c9a AE1C0000 		.4byte	0x1cae
 7590 1c9e 16       		.uleb128 0x16
 7591 1c9f 5D010000 		.4byte	0x15d
 7592 1ca3 16       		.uleb128 0x16
 7593 1ca4 AE1C0000 		.4byte	0x1cae
 7594 1ca8 16       		.uleb128 0x16
 7595 1ca9 33000000 		.4byte	0x33
 7596 1cad 00       		.byte	0
 7597 1cae 05       		.uleb128 0x5
 7598 1caf 04       		.byte	0x4
 7599 1cb0 F1080000 		.4byte	0x8f1
 7600 1cb4 05       		.uleb128 0x5
 7601 1cb5 04       		.byte	0x4
 7602 1cb6 951C0000 		.4byte	0x1c95
 7603 1cba 15       		.uleb128 0x15
 7604 1cbb 33000000 		.4byte	0x33
 7605 1cbf D31C0000 		.4byte	0x1cd3
 7606 1cc3 16       		.uleb128 0x16
 7607 1cc4 5D010000 		.4byte	0x15d
 7608 1cc8 16       		.uleb128 0x16
 7609 1cc9 791C0000 		.4byte	0x1c79
 7610 1ccd 16       		.uleb128 0x16
 7611 1cce 33000000 		.4byte	0x33
 7612 1cd2 00       		.byte	0
 7613 1cd3 05       		.uleb128 0x5
 7614 1cd4 04       		.byte	0x4
 7615 1cd5 BA1C0000 		.4byte	0x1cba
 7616 1cd9 15       		.uleb128 0x15
 7617 1cda 89090000 		.4byte	0x989
 7618 1cde ED1C0000 		.4byte	0x1ced
 7619 1ce2 16       		.uleb128 0x16
ARM GAS  C:\Users\Moi\AppData\Local\Temp\ccOzHcBd.s 			page 135


 7620 1ce3 5D010000 		.4byte	0x15d
 7621 1ce7 16       		.uleb128 0x16
 7622 1ce8 E6080000 		.4byte	0x8e6
 7623 1cec 00       		.byte	0
 7624 1ced 05       		.uleb128 0x5
 7625 1cee 04       		.byte	0x4
 7626 1cef D91C0000 		.4byte	0x1cd9
 7627 1cf3 15       		.uleb128 0x15
 7628 1cf4 89090000 		.4byte	0x989
 7629 1cf8 021D0000 		.4byte	0x1d02
 7630 1cfc 16       		.uleb128 0x16
 7631 1cfd 5D010000 		.4byte	0x15d
 7632 1d01 00       		.byte	0
 7633 1d02 05       		.uleb128 0x5
 7634 1d03 04       		.byte	0x4
 7635 1d04 F31C0000 		.4byte	0x1cf3
 7636 1d08 0C       		.uleb128 0xc
 7637 1d09 0C       		.byte	0xc
 7638 1d0a 1C       		.byte	0x1c
 7639 1d0b DA       		.byte	0xda
 7640 1d0c 4D1D0000 		.4byte	0x1d4d
 7641 1d10 0D       		.uleb128 0xd
 7642 1d11 CF260000 		.4byte	.LASF400
 7643 1d15 1C       		.byte	0x1c
 7644 1d16 DB       		.byte	0xdb
 7645 1d17 4D1D0000 		.4byte	0x1d4d
 7646 1d1b 00       		.byte	0
 7647 1d1c 0D       		.uleb128 0xd
 7648 1d1d EB100000 		.4byte	.LASF401
 7649 1d21 1C       		.byte	0x1c
 7650 1d22 DC       		.byte	0xdc
 7651 1d23 531D0000 		.4byte	0x1d53
 7652 1d27 04       		.byte	0x4
 7653 1d28 0D       		.uleb128 0xd
 7654 1d29 43040000 		.4byte	.LASF402
 7655 1d2d 1C       		.byte	0x1c
 7656 1d2e DD       		.byte	0xdd
 7657 1d2f E6080000 		.4byte	0x8e6
 7658 1d33 08       		.byte	0x8
 7659 1d34 0D       		.uleb128 0xd
 7660 1d35 DE1F0000 		.4byte	.LASF403
 7661 1d39 1C       		.byte	0x1c
 7662 1d3a DF       		.byte	0xdf
 7663 1d3b E6080000 		.4byte	0x8e6
 7664 1d3f 09       		.byte	0x9
 7665 1d40 0D       		.uleb128 0xd
 7666 1d41 57030000 		.4byte	.LASF404
 7667 1d45 1C       		.byte	0x1c
 7668 1d46 E0       		.byte	0xe0
 7669 1d47 E6080000 		.4byte	0x8e6
 7670 1d4b 0A       		.byte	0xa
 7671 1d4c 00       		.byte	0
 7672 1d4d 05       		.uleb128 0x5
 7673 1d4e 04       		.byte	0x4
 7674 1d4f F2110000 		.4byte	0x11f2
 7675 1d53 05       		.uleb128 0x5
 7676 1d54 04       		.byte	0x4
ARM GAS  C:\Users\Moi\AppData\Local\Temp\ccOzHcBd.s 			page 136


 7677 1d55 27090000 		.4byte	0x927
 7678 1d59 04       		.uleb128 0x4
 7679 1d5a 96130000 		.4byte	.LASF405
 7680 1d5e 1C       		.byte	0x1c
 7681 1d5f E1       		.byte	0xe1
 7682 1d60 081D0000 		.4byte	0x1d08
 7683 1d64 0F       		.uleb128 0xf
 7684 1d65 591D0000 		.4byte	0x1d59
 7685 1d69 0A       		.uleb128 0xa
 7686 1d6a 641D0000 		.4byte	0x1d64
 7687 1d6e 791D0000 		.4byte	0x1d79
 7688 1d72 0B       		.uleb128 0xb
 7689 1d73 25000000 		.4byte	0x25
 7690 1d77 0F       		.byte	0xf
 7691 1d78 00       		.byte	0
 7692 1d79 0F       		.uleb128 0xf
 7693 1d7a 691D0000 		.4byte	0x1d69
 7694 1d7e 20       		.uleb128 0x20
 7695 1d7f 791C0000 		.4byte	.LASF406
 7696 1d83 1C       		.byte	0x1c
 7697 1d84 BB01     		.2byte	0x1bb
 7698 1d86 791D0000 		.4byte	0x1d79
 7699 1d8a 15       		.uleb128 0x15
 7700 1d8b 89090000 		.4byte	0x989
 7701 1d8f A31D0000 		.4byte	0x1da3
 7702 1d93 16       		.uleb128 0x16
 7703 1d94 5D010000 		.4byte	0x15d
 7704 1d98 16       		.uleb128 0x16
 7705 1d99 E6080000 		.4byte	0x8e6
 7706 1d9d 16       		.uleb128 0x16
 7707 1d9e C0090000 		.4byte	0x9c0
 7708 1da2 00       		.byte	0
 7709 1da3 05       		.uleb128 0x5
 7710 1da4 04       		.byte	0x4
 7711 1da5 8A1D0000 		.4byte	0x1d8a
 7712 1da9 15       		.uleb128 0x15
 7713 1daa 89090000 		.4byte	0x989
 7714 1dae BD1D0000 		.4byte	0x1dbd
 7715 1db2 16       		.uleb128 0x16
 7716 1db3 5D010000 		.4byte	0x15d
 7717 1db7 16       		.uleb128 0x16
 7718 1db8 C0090000 		.4byte	0x9c0
 7719 1dbc 00       		.byte	0
 7720 1dbd 05       		.uleb128 0x5
 7721 1dbe 04       		.byte	0x4
 7722 1dbf A91D0000 		.4byte	0x1da9
 7723 1dc3 15       		.uleb128 0x15
 7724 1dc4 33000000 		.4byte	0x33
 7725 1dc8 E11D0000 		.4byte	0x1de1
 7726 1dcc 16       		.uleb128 0x16
 7727 1dcd 5D010000 		.4byte	0x15d
 7728 1dd1 16       		.uleb128 0x16
 7729 1dd2 AE1C0000 		.4byte	0x1cae
 7730 1dd6 16       		.uleb128 0x16
 7731 1dd7 33000000 		.4byte	0x33
 7732 1ddb 16       		.uleb128 0x16
 7733 1ddc C0090000 		.4byte	0x9c0
ARM GAS  C:\Users\Moi\AppData\Local\Temp\ccOzHcBd.s 			page 137


 7734 1de0 00       		.byte	0
 7735 1de1 05       		.uleb128 0x5
 7736 1de2 04       		.byte	0x4
 7737 1de3 C31D0000 		.4byte	0x1dc3
 7738 1de7 15       		.uleb128 0x15
 7739 1de8 33000000 		.4byte	0x33
 7740 1dec 051E0000 		.4byte	0x1e05
 7741 1df0 16       		.uleb128 0x16
 7742 1df1 5D010000 		.4byte	0x15d
 7743 1df5 16       		.uleb128 0x16
 7744 1df6 791C0000 		.4byte	0x1c79
 7745 1dfa 16       		.uleb128 0x16
 7746 1dfb 33000000 		.4byte	0x33
 7747 1dff 16       		.uleb128 0x16
 7748 1e00 C0090000 		.4byte	0x9c0
 7749 1e04 00       		.byte	0
 7750 1e05 05       		.uleb128 0x5
 7751 1e06 04       		.byte	0x4
 7752 1e07 E71D0000 		.4byte	0x1de7
 7753 1e0b 27       		.uleb128 0x27
 7754 1e0c 07       		.byte	0x7
 7755 1e0d 01       		.byte	0x1
 7756 1e0e 5E000000 		.4byte	0x5e
 7757 1e12 1D       		.byte	0x1d
 7758 1e13 28       		.byte	0x28
 7759 1e14 4F1E0000 		.4byte	0x1e4f
 7760 1e18 28       		.uleb128 0x28
 7761 1e19 12010000 		.4byte	.LASF407
 7762 1e1d 00       		.byte	0
 7763 1e1e 28       		.uleb128 0x28
 7764 1e1f 1A100000 		.4byte	.LASF408
 7765 1e23 01       		.byte	0x1
 7766 1e24 28       		.uleb128 0x28
 7767 1e25 510C0000 		.4byte	.LASF409
 7768 1e29 02       		.byte	0x2
 7769 1e2a 28       		.uleb128 0x28
 7770 1e2b CC1D0000 		.4byte	.LASF410
 7771 1e2f 03       		.byte	0x3
 7772 1e30 28       		.uleb128 0x28
 7773 1e31 B9250000 		.4byte	.LASF411
 7774 1e35 04       		.byte	0x4
 7775 1e36 28       		.uleb128 0x28
 7776 1e37 C0080000 		.4byte	.LASF412
 7777 1e3b 05       		.byte	0x5
 7778 1e3c 28       		.uleb128 0x28
 7779 1e3d BE1F0000 		.4byte	.LASF413
 7780 1e41 06       		.byte	0x6
 7781 1e42 28       		.uleb128 0x28
 7782 1e43 311A0000 		.4byte	.LASF414
 7783 1e47 07       		.byte	0x7
 7784 1e48 28       		.uleb128 0x28
 7785 1e49 85250000 		.4byte	.LASF415
 7786 1e4d 08       		.byte	0x8
 7787 1e4e 00       		.byte	0
 7788 1e4f 04       		.uleb128 0x4
 7789 1e50 D5180000 		.4byte	.LASF416
 7790 1e54 1D       		.byte	0x1d
ARM GAS  C:\Users\Moi\AppData\Local\Temp\ccOzHcBd.s 			page 138


 7791 1e55 32       		.byte	0x32
 7792 1e56 0B1E0000 		.4byte	0x1e0b
 7793 1e5a 0C       		.uleb128 0xc
 7794 1e5b 08       		.byte	0x8
 7795 1e5c 1D       		.byte	0x1d
 7796 1e5d 37       		.byte	0x37
 7797 1e5e 7B1E0000 		.4byte	0x1e7b
 7798 1e62 0D       		.uleb128 0xd
 7799 1e63 51080000 		.4byte	.LASF417
 7800 1e67 1D       		.byte	0x1d
 7801 1e68 38       		.byte	0x38
 7802 1e69 1C090000 		.4byte	0x91c
 7803 1e6d 00       		.byte	0
 7804 1e6e 0D       		.uleb128 0xd
 7805 1e6f E41E0000 		.4byte	.LASF418
 7806 1e73 1D       		.byte	0x1d
 7807 1e74 39       		.byte	0x39
 7808 1e75 1C090000 		.4byte	0x91c
 7809 1e79 04       		.byte	0x4
 7810 1e7a 00       		.byte	0
 7811 1e7b 04       		.uleb128 0x4
 7812 1e7c 5D210000 		.4byte	.LASF419
 7813 1e80 1D       		.byte	0x1d
 7814 1e81 3A       		.byte	0x3a
 7815 1e82 5A1E0000 		.4byte	0x1e5a
 7816 1e86 15       		.uleb128 0x15
 7817 1e87 951E0000 		.4byte	0x1e95
 7818 1e8b 951E0000 		.4byte	0x1e95
 7819 1e8f 16       		.uleb128 0x16
 7820 1e90 5D010000 		.4byte	0x15d
 7821 1e94 00       		.byte	0
 7822 1e95 02       		.uleb128 0x2
 7823 1e96 01       		.byte	0x1
 7824 1e97 02       		.byte	0x2
 7825 1e98 D9000000 		.4byte	.LASF420
 7826 1e9c 05       		.uleb128 0x5
 7827 1e9d 04       		.byte	0x4
 7828 1e9e 861E0000 		.4byte	0x1e86
 7829 1ea2 15       		.uleb128 0x15
 7830 1ea3 951E0000 		.4byte	0x1e95
 7831 1ea7 C01E0000 		.4byte	0x1ec0
 7832 1eab 16       		.uleb128 0x16
 7833 1eac 5D010000 		.4byte	0x15d
 7834 1eb0 16       		.uleb128 0x16
 7835 1eb1 1C090000 		.4byte	0x91c
 7836 1eb5 16       		.uleb128 0x16
 7837 1eb6 791C0000 		.4byte	0x1c79
 7838 1eba 16       		.uleb128 0x16
 7839 1ebb 1C090000 		.4byte	0x91c
 7840 1ebf 00       		.byte	0
 7841 1ec0 05       		.uleb128 0x5
 7842 1ec1 04       		.byte	0x4
 7843 1ec2 A21E0000 		.4byte	0x1ea2
 7844 1ec6 15       		.uleb128 0x15
 7845 1ec7 951E0000 		.4byte	0x1e95
 7846 1ecb E41E0000 		.4byte	0x1ee4
 7847 1ecf 16       		.uleb128 0x16
ARM GAS  C:\Users\Moi\AppData\Local\Temp\ccOzHcBd.s 			page 139


 7848 1ed0 5D010000 		.4byte	0x15d
 7849 1ed4 16       		.uleb128 0x16
 7850 1ed5 1C090000 		.4byte	0x91c
 7851 1ed9 16       		.uleb128 0x16
 7852 1eda AE1C0000 		.4byte	0x1cae
 7853 1ede 16       		.uleb128 0x16
 7854 1edf 1C090000 		.4byte	0x91c
 7855 1ee3 00       		.byte	0
 7856 1ee4 05       		.uleb128 0x5
 7857 1ee5 04       		.byte	0x4
 7858 1ee6 C61E0000 		.4byte	0x1ec6
 7859 1eea 15       		.uleb128 0x15
 7860 1eeb 951E0000 		.4byte	0x1e95
 7861 1eef FE1E0000 		.4byte	0x1efe
 7862 1ef3 16       		.uleb128 0x16
 7863 1ef4 5D010000 		.4byte	0x15d
 7864 1ef8 16       		.uleb128 0x16
 7865 1ef9 FE1E0000 		.4byte	0x1efe
 7866 1efd 00       		.byte	0
 7867 1efe 05       		.uleb128 0x5
 7868 1eff 04       		.byte	0x4
 7869 1f00 7B1E0000 		.4byte	0x1e7b
 7870 1f04 05       		.uleb128 0x5
 7871 1f05 04       		.byte	0x4
 7872 1f06 EA1E0000 		.4byte	0x1eea
 7873 1f0a 0A       		.uleb128 0xa
 7874 1f0b 1C090000 		.4byte	0x91c
 7875 1f0f 1A1F0000 		.4byte	0x1f1a
 7876 1f13 0B       		.uleb128 0xb
 7877 1f14 25000000 		.4byte	0x25
 7878 1f18 03       		.byte	0x3
 7879 1f19 00       		.byte	0
 7880 1f1a 0C       		.uleb128 0xc
 7881 1f1b 04       		.byte	0x4
 7882 1f1c 1E       		.byte	0x1e
 7883 1f1d B3       		.byte	0xb3
 7884 1f1e 3B1F0000 		.4byte	0x1f3b
 7885 1f22 11       		.uleb128 0x11
 7886 1f23 73657400 		.ascii	"set\000"
 7887 1f27 1E       		.byte	0x1e
 7888 1f28 B4       		.byte	0xb4
 7889 1f29 01090000 		.4byte	0x901
 7890 1f2d 00       		.byte	0
 7891 1f2e 0D       		.uleb128 0xd
 7892 1f2f 0A0E0000 		.4byte	.LASF421
 7893 1f33 1E       		.byte	0x1e
 7894 1f34 B5       		.byte	0xb5
 7895 1f35 01090000 		.4byte	0x901
 7896 1f39 02       		.byte	0x2
 7897 1f3a 00       		.byte	0
 7898 1f3b 08       		.uleb128 0x8
 7899 1f3c 04       		.byte	0x4
 7900 1f3d 1E       		.byte	0x1e
 7901 1f3e B1       		.byte	0xb1
 7902 1f3f 561F0000 		.4byte	0x1f56
 7903 1f43 29       		.uleb128 0x29
 7904 1f44 5700     		.ascii	"W\000"
ARM GAS  C:\Users\Moi\AppData\Local\Temp\ccOzHcBd.s 			page 140


 7905 1f46 1E       		.byte	0x1e
 7906 1f47 B2       		.byte	0xb2
 7907 1f48 1C090000 		.4byte	0x91c
 7908 1f4c 29       		.uleb128 0x29
 7909 1f4d 4800     		.ascii	"H\000"
 7910 1f4f 1E       		.byte	0x1e
 7911 1f50 B6       		.byte	0xb6
 7912 1f51 1A1F0000 		.4byte	0x1f1a
 7913 1f55 00       		.byte	0
 7914 1f56 1A       		.uleb128 0x1a
 7915 1f57 3B1F0000 		.4byte	0x1f3b
 7916 1f5b 0C       		.uleb128 0xc
 7917 1f5c 2C       		.byte	0x2c
 7918 1f5d 1E       		.byte	0x1e
 7919 1f5e A9       		.byte	0xa9
 7920 1f5f E81F0000 		.4byte	0x1fe8
 7921 1f63 0D       		.uleb128 0xd
 7922 1f64 30200000 		.4byte	.LASF422
 7923 1f68 1E       		.byte	0x1e
 7924 1f69 AB       		.byte	0xab
 7925 1f6a 27090000 		.4byte	0x927
 7926 1f6e 00       		.byte	0
 7927 1f6f 0D       		.uleb128 0xd
 7928 1f70 E0020000 		.4byte	.LASF423
 7929 1f74 1E       		.byte	0x1e
 7930 1f75 AC       		.byte	0xac
 7931 1f76 27090000 		.4byte	0x927
 7932 1f7a 04       		.byte	0x4
 7933 1f7b 0D       		.uleb128 0xd
 7934 1f7c C70F0000 		.4byte	.LASF424
 7935 1f80 1E       		.byte	0x1e
 7936 1f81 AD       		.byte	0xad
 7937 1f82 27090000 		.4byte	0x927
 7938 1f86 08       		.byte	0x8
 7939 1f87 0D       		.uleb128 0xd
 7940 1f88 5A1F0000 		.4byte	.LASF425
 7941 1f8c 1E       		.byte	0x1e
 7942 1f8d AE       		.byte	0xae
 7943 1f8e 27090000 		.4byte	0x927
 7944 1f92 0C       		.byte	0xc
 7945 1f93 11       		.uleb128 0x11
 7946 1f94 49445200 		.ascii	"IDR\000"
 7947 1f98 1E       		.byte	0x1e
 7948 1f99 AF       		.byte	0xaf
 7949 1f9a 27090000 		.4byte	0x927
 7950 1f9e 10       		.byte	0x10
 7951 1f9f 11       		.uleb128 0x11
 7952 1fa0 4F445200 		.ascii	"ODR\000"
 7953 1fa4 1E       		.byte	0x1e
 7954 1fa5 B0       		.byte	0xb0
 7955 1fa6 27090000 		.4byte	0x927
 7956 1faa 14       		.byte	0x14
 7957 1fab 0D       		.uleb128 0xd
 7958 1fac 91130000 		.4byte	.LASF426
 7959 1fb0 1E       		.byte	0x1e
 7960 1fb1 B7       		.byte	0xb7
 7961 1fb2 561F0000 		.4byte	0x1f56
ARM GAS  C:\Users\Moi\AppData\Local\Temp\ccOzHcBd.s 			page 141


 7962 1fb6 18       		.byte	0x18
 7963 1fb7 0D       		.uleb128 0xd
 7964 1fb8 061A0000 		.4byte	.LASF427
 7965 1fbc 1E       		.byte	0x1e
 7966 1fbd B8       		.byte	0xb8
 7967 1fbe 27090000 		.4byte	0x927
 7968 1fc2 1C       		.byte	0x1c
 7969 1fc3 0D       		.uleb128 0xd
 7970 1fc4 591D0000 		.4byte	.LASF428
 7971 1fc8 1E       		.byte	0x1e
 7972 1fc9 B9       		.byte	0xb9
 7973 1fca 27090000 		.4byte	0x927
 7974 1fce 20       		.byte	0x20
 7975 1fcf 0D       		.uleb128 0xd
 7976 1fd0 541D0000 		.4byte	.LASF429
 7977 1fd4 1E       		.byte	0x1e
 7978 1fd5 BA       		.byte	0xba
 7979 1fd6 27090000 		.4byte	0x927
 7980 1fda 24       		.byte	0x24
 7981 1fdb 11       		.uleb128 0x11
 7982 1fdc 42525200 		.ascii	"BRR\000"
 7983 1fe0 1E       		.byte	0x1e
 7984 1fe1 BB       		.byte	0xbb
 7985 1fe2 27090000 		.4byte	0x927
 7986 1fe6 28       		.byte	0x28
 7987 1fe7 00       		.byte	0
 7988 1fe8 04       		.uleb128 0x4
 7989 1fe9 05110000 		.4byte	.LASF430
 7990 1fed 1E       		.byte	0x1e
 7991 1fee BC       		.byte	0xbc
 7992 1fef 5B1F0000 		.4byte	0x1f5b
 7993 1ff3 0C       		.uleb128 0xc
 7994 1ff4 1C       		.byte	0x1c
 7995 1ff5 1E       		.byte	0x1e
 7996 1ff6 C1       		.byte	0xc1
 7997 1ff7 50200000 		.4byte	0x2050
 7998 1ffb 0D       		.uleb128 0xd
 7999 1ffc E3230000 		.4byte	.LASF431
 8000 2000 1E       		.byte	0x1e
 8001 2001 C3       		.byte	0xc3
 8002 2002 1C090000 		.4byte	0x91c
 8003 2006 00       		.byte	0
 8004 2007 0D       		.uleb128 0xd
 8005 2008 CB020000 		.4byte	.LASF432
 8006 200c 1E       		.byte	0x1e
 8007 200d C5       		.byte	0xc5
 8008 200e 1C090000 		.4byte	0x91c
 8009 2012 04       		.byte	0x4
 8010 2013 0D       		.uleb128 0xd
 8011 2014 F2010000 		.4byte	.LASF433
 8012 2018 1E       		.byte	0x1e
 8013 2019 C7       		.byte	0xc7
 8014 201a 1C090000 		.4byte	0x91c
 8015 201e 08       		.byte	0x8
 8016 201f 0D       		.uleb128 0xd
 8017 2020 C1220000 		.4byte	.LASF434
 8018 2024 1E       		.byte	0x1e
ARM GAS  C:\Users\Moi\AppData\Local\Temp\ccOzHcBd.s 			page 142


 8019 2025 C9       		.byte	0xc9
 8020 2026 1C090000 		.4byte	0x91c
 8021 202a 0C       		.byte	0xc
 8022 202b 11       		.uleb128 0x11
 8023 202c 6F647200 		.ascii	"odr\000"
 8024 2030 1E       		.byte	0x1e
 8025 2031 CB       		.byte	0xcb
 8026 2032 1C090000 		.4byte	0x91c
 8027 2036 10       		.byte	0x10
 8028 2037 0D       		.uleb128 0xd
 8029 2038 CA1F0000 		.4byte	.LASF435
 8030 203c 1E       		.byte	0x1e
 8031 203d CD       		.byte	0xcd
 8032 203e 1C090000 		.4byte	0x91c
 8033 2042 14       		.byte	0x14
 8034 2043 0D       		.uleb128 0xd
 8035 2044 54000000 		.4byte	.LASF436
 8036 2048 1E       		.byte	0x1e
 8037 2049 CF       		.byte	0xcf
 8038 204a 1C090000 		.4byte	0x91c
 8039 204e 18       		.byte	0x18
 8040 204f 00       		.byte	0
 8041 2050 04       		.uleb128 0x4
 8042 2051 561C0000 		.4byte	.LASF437
 8043 2055 1E       		.byte	0x1e
 8044 2056 D0       		.byte	0xd0
 8045 2057 F31F0000 		.4byte	0x1ff3
 8046 205b 0C       		.uleb128 0xc
 8047 205c FC       		.byte	0xfc
 8048 205d 1E       		.byte	0x1e
 8049 205e D9       		.byte	0xd9
 8050 205f D0200000 		.4byte	0x20d0
 8051 2063 0D       		.uleb128 0xd
 8052 2064 A8110000 		.4byte	.LASF438
 8053 2068 1E       		.byte	0x1e
 8054 2069 DC       		.byte	0xdc
 8055 206a 50200000 		.4byte	0x2050
 8056 206e 00       		.byte	0
 8057 206f 0D       		.uleb128 0xd
 8058 2070 AA020000 		.4byte	.LASF439
 8059 2074 1E       		.byte	0x1e
 8060 2075 E0       		.byte	0xe0
 8061 2076 50200000 		.4byte	0x2050
 8062 207a 1C       		.byte	0x1c
 8063 207b 0D       		.uleb128 0xd
 8064 207c 78010000 		.4byte	.LASF440
 8065 2080 1E       		.byte	0x1e
 8066 2081 E4       		.byte	0xe4
 8067 2082 50200000 		.4byte	0x2050
 8068 2086 38       		.byte	0x38
 8069 2087 0D       		.uleb128 0xd
 8070 2088 060F0000 		.4byte	.LASF441
 8071 208c 1E       		.byte	0x1e
 8072 208d E8       		.byte	0xe8
 8073 208e 50200000 		.4byte	0x2050
 8074 2092 54       		.byte	0x54
 8075 2093 0D       		.uleb128 0xd
ARM GAS  C:\Users\Moi\AppData\Local\Temp\ccOzHcBd.s 			page 143


 8076 2094 661B0000 		.4byte	.LASF442
 8077 2098 1E       		.byte	0x1e
 8078 2099 EC       		.byte	0xec
 8079 209a 50200000 		.4byte	0x2050
 8080 209e 70       		.byte	0x70
 8081 209f 0D       		.uleb128 0xd
 8082 20a0 BB270000 		.4byte	.LASF443
 8083 20a4 1E       		.byte	0x1e
 8084 20a5 F0       		.byte	0xf0
 8085 20a6 50200000 		.4byte	0x2050
 8086 20aa 8C       		.byte	0x8c
 8087 20ab 0D       		.uleb128 0xd
 8088 20ac F10C0000 		.4byte	.LASF444
 8089 20b0 1E       		.byte	0x1e
 8090 20b1 F4       		.byte	0xf4
 8091 20b2 50200000 		.4byte	0x2050
 8092 20b6 A8       		.byte	0xa8
 8093 20b7 0D       		.uleb128 0xd
 8094 20b8 74190000 		.4byte	.LASF445
 8095 20bc 1E       		.byte	0x1e
 8096 20bd F8       		.byte	0xf8
 8097 20be 50200000 		.4byte	0x2050
 8098 20c2 C4       		.byte	0xc4
 8099 20c3 0D       		.uleb128 0xd
 8100 20c4 91250000 		.4byte	.LASF446
 8101 20c8 1E       		.byte	0x1e
 8102 20c9 FC       		.byte	0xfc
 8103 20ca 50200000 		.4byte	0x2050
 8104 20ce E0       		.byte	0xe0
 8105 20cf 00       		.byte	0
 8106 20d0 04       		.uleb128 0x4
 8107 20d1 340C0000 		.4byte	.LASF447
 8108 20d5 1E       		.byte	0x1e
 8109 20d6 FE       		.byte	0xfe
 8110 20d7 5B200000 		.4byte	0x205b
 8111 20db 0F       		.uleb128 0xf
 8112 20dc D0200000 		.4byte	0x20d0
 8113 20e0 07       		.uleb128 0x7
 8114 20e1 7B190000 		.4byte	.LASF448
 8115 20e5 1E       		.byte	0x1e
 8116 20e6 1B01     		.2byte	0x11b
 8117 20e8 EC200000 		.4byte	0x20ec
 8118 20ec 05       		.uleb128 0x5
 8119 20ed 04       		.byte	0x4
 8120 20ee E81F0000 		.4byte	0x1fe8
 8121 20f2 20       		.uleb128 0x20
 8122 20f3 E4200000 		.4byte	.LASF449
 8123 20f7 1E       		.byte	0x1e
 8124 20f8 DA01     		.2byte	0x1da
 8125 20fa DB200000 		.4byte	0x20db
 8126 20fe 27       		.uleb128 0x27
 8127 20ff 07       		.byte	0x7
 8128 2100 01       		.byte	0x1
 8129 2101 5E000000 		.4byte	0x5e
 8130 2105 1F       		.byte	0x1f
 8131 2106 46       		.byte	0x46
 8132 2107 30210000 		.4byte	0x2130
ARM GAS  C:\Users\Moi\AppData\Local\Temp\ccOzHcBd.s 			page 144


 8133 210b 28       		.uleb128 0x28
 8134 210c AA090000 		.4byte	.LASF450
 8135 2110 00       		.byte	0
 8136 2111 28       		.uleb128 0x28
 8137 2112 8C160000 		.4byte	.LASF451
 8138 2116 01       		.byte	0x1
 8139 2117 28       		.uleb128 0x28
 8140 2118 46230000 		.4byte	.LASF452
 8141 211c 02       		.byte	0x2
 8142 211d 28       		.uleb128 0x28
 8143 211e 77130000 		.4byte	.LASF453
 8144 2122 03       		.byte	0x3
 8145 2123 28       		.uleb128 0x28
 8146 2124 B2070000 		.4byte	.LASF454
 8147 2128 04       		.byte	0x4
 8148 2129 28       		.uleb128 0x28
 8149 212a 37130000 		.4byte	.LASF455
 8150 212e 05       		.byte	0x5
 8151 212f 00       		.byte	0
 8152 2130 04       		.uleb128 0x4
 8153 2131 26040000 		.4byte	.LASF456
 8154 2135 1F       		.byte	0x1f
 8155 2136 4D       		.byte	0x4d
 8156 2137 FE200000 		.4byte	0x20fe
 8157 213b 07       		.uleb128 0x7
 8158 213c 53120000 		.4byte	.LASF457
 8159 2140 20       		.byte	0x20
 8160 2141 2701     		.2byte	0x127
 8161 2143 01090000 		.4byte	0x901
 8162 2147 07       		.uleb128 0x7
 8163 2148 F81D0000 		.4byte	.LASF458
 8164 214c 20       		.byte	0x20
 8165 214d 2C01     		.2byte	0x12c
 8166 214f 01090000 		.4byte	0x901
 8167 2153 2A       		.uleb128 0x2a
 8168 2154 07       		.byte	0x7
 8169 2155 01       		.byte	0x1
 8170 2156 5E000000 		.4byte	0x5e
 8171 215a 20       		.byte	0x20
 8172 215b 3301     		.2byte	0x133
 8173 215d 6E210000 		.4byte	0x216e
 8174 2161 28       		.uleb128 0x28
 8175 2162 930F0000 		.4byte	.LASF459
 8176 2166 00       		.byte	0
 8177 2167 28       		.uleb128 0x28
 8178 2168 0A020000 		.4byte	.LASF460
 8179 216c 01       		.byte	0x1
 8180 216d 00       		.byte	0
 8181 216e 07       		.uleb128 0x7
 8182 216f BD240000 		.4byte	.LASF461
 8183 2173 20       		.byte	0x20
 8184 2174 3601     		.2byte	0x136
 8185 2176 53210000 		.4byte	0x2153
 8186 217a 07       		.uleb128 0x7
 8187 217b 55100000 		.4byte	.LASF462
 8188 217f 20       		.byte	0x20
 8189 2180 3B01     		.2byte	0x13b
ARM GAS  C:\Users\Moi\AppData\Local\Temp\ccOzHcBd.s 			page 145


 8190 2182 86210000 		.4byte	0x2186
 8191 2186 1B       		.uleb128 0x1b
 8192 2187 55100000 		.4byte	.LASF462
 8193 218b 38       		.byte	0x38
 8194 218c 20       		.byte	0x20
 8195 218d 9F01     		.2byte	0x19f
 8196 218f 16220000 		.4byte	0x2216
 8197 2193 18       		.uleb128 0x18
 8198 2194 A5170000 		.4byte	.LASF463
 8199 2198 20       		.byte	0x20
 8200 2199 A301     		.2byte	0x1a3
 8201 219b 30210000 		.4byte	0x2130
 8202 219f 00       		.byte	0
 8203 21a0 18       		.uleb128 0x18
 8204 21a1 9E1D0000 		.4byte	.LASF464
 8205 21a5 20       		.byte	0x20
 8206 21a6 A701     		.2byte	0x1a7
 8207 21a8 3D230000 		.4byte	0x233d
 8208 21ac 04       		.byte	0x4
 8209 21ad 18       		.uleb128 0x18
 8210 21ae 8E010000 		.4byte	.LASF465
 8211 21b2 20       		.byte	0x20
 8212 21b3 AB01     		.2byte	0x1ab
 8213 21b5 43220000 		.4byte	0x2243
 8214 21b9 08       		.byte	0x8
 8215 21ba 18       		.uleb128 0x18
 8216 21bb 6D1A0000 		.4byte	.LASF466
 8217 21bf 20       		.byte	0x20
 8218 21c0 AF01     		.2byte	0x1af
 8219 21c2 33000000 		.4byte	0x33
 8220 21c6 0C       		.byte	0xc
 8221 21c7 18       		.uleb128 0x18
 8222 21c8 F7200000 		.4byte	.LASF467
 8223 21cc 20       		.byte	0x20
 8224 21cd B301     		.2byte	0x1b3
 8225 21cf 43230000 		.4byte	0x2343
 8226 21d3 10       		.byte	0x10
 8227 21d4 18       		.uleb128 0x18
 8228 21d5 28080000 		.4byte	.LASF468
 8229 21d9 20       		.byte	0x20
 8230 21da B801     		.2byte	0x1b8
 8231 21dc F90A0000 		.4byte	0xaf9
 8232 21e0 14       		.byte	0x14
 8233 21e1 18       		.uleb128 0x18
 8234 21e2 DB0D0000 		.4byte	.LASF469
 8235 21e6 20       		.byte	0x20
 8236 21e7 BE01     		.2byte	0x1be
 8237 21e9 501B0000 		.4byte	0x1b50
 8238 21ed 18       		.byte	0x18
 8239 21ee 21       		.uleb128 0x21
 8240 21ef 61646300 		.ascii	"adc\000"
 8241 21f3 20       		.byte	0x20
 8242 21f4 C701     		.2byte	0x1c7
 8243 21f6 49230000 		.4byte	0x2349
 8244 21fa 2C       		.byte	0x2c
 8245 21fb 18       		.uleb128 0x18
 8246 21fc D60B0000 		.4byte	.LASF470
ARM GAS  C:\Users\Moi\AppData\Local\Temp\ccOzHcBd.s 			page 146


 8247 2200 20       		.byte	0x20
 8248 2201 CB01     		.2byte	0x1cb
 8249 2203 4F230000 		.4byte	0x234f
 8250 2207 30       		.byte	0x30
 8251 2208 18       		.uleb128 0x18
 8252 2209 9D190000 		.4byte	.LASF471
 8253 220d 20       		.byte	0x20
 8254 220e CF01     		.2byte	0x1cf
 8255 2210 1C090000 		.4byte	0x91c
 8256 2214 34       		.byte	0x34
 8257 2215 00       		.byte	0
 8258 2216 07       		.uleb128 0x7
 8259 2217 DC1C0000 		.4byte	.LASF472
 8260 221b 20       		.byte	0x20
 8261 221c 4501     		.2byte	0x145
 8262 221e 22220000 		.4byte	0x2222
 8263 2222 05       		.uleb128 0x5
 8264 2223 04       		.byte	0x4
 8265 2224 28220000 		.4byte	0x2228
 8266 2228 1F       		.uleb128 0x1f
 8267 2229 3D220000 		.4byte	0x223d
 8268 222d 16       		.uleb128 0x16
 8269 222e 3D220000 		.4byte	0x223d
 8270 2232 16       		.uleb128 0x16
 8271 2233 43220000 		.4byte	0x2243
 8272 2237 16       		.uleb128 0x16
 8273 2238 33000000 		.4byte	0x33
 8274 223c 00       		.byte	0
 8275 223d 05       		.uleb128 0x5
 8276 223e 04       		.byte	0x4
 8277 223f 7A210000 		.4byte	0x217a
 8278 2243 05       		.uleb128 0x5
 8279 2244 04       		.byte	0x4
 8280 2245 3B210000 		.4byte	0x213b
 8281 2249 07       		.uleb128 0x7
 8282 224a 66170000 		.4byte	.LASF473
 8283 224e 20       		.byte	0x20
 8284 224f 4E01     		.2byte	0x14e
 8285 2251 55220000 		.4byte	0x2255
 8286 2255 05       		.uleb128 0x5
 8287 2256 04       		.byte	0x4
 8288 2257 5B220000 		.4byte	0x225b
 8289 225b 1F       		.uleb128 0x1f
 8290 225c 6B220000 		.4byte	0x226b
 8291 2260 16       		.uleb128 0x16
 8292 2261 3D220000 		.4byte	0x223d
 8293 2265 16       		.uleb128 0x16
 8294 2266 6E210000 		.4byte	0x216e
 8295 226a 00       		.byte	0
 8296 226b 1C       		.uleb128 0x1c
 8297 226c 28       		.byte	0x28
 8298 226d 20       		.byte	0x20
 8299 226e 5801     		.2byte	0x158
 8300 2270 04230000 		.4byte	0x2304
 8301 2274 18       		.uleb128 0x18
 8302 2275 CF230000 		.4byte	.LASF474
 8303 2279 20       		.byte	0x20
ARM GAS  C:\Users\Moi\AppData\Local\Temp\ccOzHcBd.s 			page 147


 8304 227a 5C01     		.2byte	0x15c
 8305 227c 951E0000 		.4byte	0x1e95
 8306 2280 00       		.byte	0
 8307 2281 18       		.uleb128 0x18
 8308 2282 6A110000 		.4byte	.LASF475
 8309 2286 20       		.byte	0x20
 8310 2287 6001     		.2byte	0x160
 8311 2289 47210000 		.4byte	0x2147
 8312 228d 02       		.byte	0x2
 8313 228e 18       		.uleb128 0x18
 8314 228f 8F0A0000 		.4byte	.LASF476
 8315 2293 20       		.byte	0x20
 8316 2294 6401     		.2byte	0x164
 8317 2296 16220000 		.4byte	0x2216
 8318 229a 04       		.byte	0x4
 8319 229b 18       		.uleb128 0x18
 8320 229c B0250000 		.4byte	.LASF477
 8321 22a0 20       		.byte	0x20
 8322 22a1 6801     		.2byte	0x168
 8323 22a3 49220000 		.4byte	0x2249
 8324 22a7 08       		.byte	0x8
 8325 22a8 21       		.uleb128 0x21
 8326 22a9 63723100 		.ascii	"cr1\000"
 8327 22ad 20       		.byte	0x20
 8328 22ae 6F01     		.2byte	0x16f
 8329 22b0 1C090000 		.4byte	0x91c
 8330 22b4 0C       		.byte	0xc
 8331 22b5 21       		.uleb128 0x21
 8332 22b6 63723200 		.ascii	"cr2\000"
 8333 22ba 20       		.byte	0x20
 8334 22bb 7601     		.2byte	0x176
 8335 22bd 1C090000 		.4byte	0x91c
 8336 22c1 10       		.byte	0x10
 8337 22c2 18       		.uleb128 0x18
 8338 22c3 B9180000 		.4byte	.LASF478
 8339 22c7 20       		.byte	0x20
 8340 22c8 7C01     		.2byte	0x17c
 8341 22ca 1C090000 		.4byte	0x91c
 8342 22ce 14       		.byte	0x14
 8343 22cf 18       		.uleb128 0x18
 8344 22d0 BF180000 		.4byte	.LASF479
 8345 22d4 20       		.byte	0x20
 8346 22d5 8201     		.2byte	0x182
 8347 22d7 1C090000 		.4byte	0x91c
 8348 22db 18       		.byte	0x18
 8349 22dc 18       		.uleb128 0x18
 8350 22dd 0D010000 		.4byte	.LASF480
 8351 22e1 20       		.byte	0x20
 8352 22e2 8701     		.2byte	0x187
 8353 22e4 1C090000 		.4byte	0x91c
 8354 22e8 1C       		.byte	0x1c
 8355 22e9 18       		.uleb128 0x18
 8356 22ea A9260000 		.4byte	.LASF481
 8357 22ee 20       		.byte	0x20
 8358 22ef 8C01     		.2byte	0x18c
 8359 22f1 1C090000 		.4byte	0x91c
 8360 22f5 20       		.byte	0x20
ARM GAS  C:\Users\Moi\AppData\Local\Temp\ccOzHcBd.s 			page 148


 8361 22f6 18       		.uleb128 0x18
 8362 22f7 AE260000 		.4byte	.LASF482
 8363 22fb 20       		.byte	0x20
 8364 22fc 9101     		.2byte	0x191
 8365 22fe 1C090000 		.4byte	0x91c
 8366 2302 24       		.byte	0x24
 8367 2303 00       		.byte	0
 8368 2304 07       		.uleb128 0x7
 8369 2305 65050000 		.4byte	.LASF483
 8370 2309 20       		.byte	0x20
 8371 230a 9201     		.2byte	0x192
 8372 230c 6B220000 		.4byte	0x226b
 8373 2310 0F       		.uleb128 0xf
 8374 2311 04230000 		.4byte	0x2304
 8375 2315 1C       		.uleb128 0x1c
 8376 2316 04       		.byte	0x4
 8377 2317 20       		.byte	0x20
 8378 2318 9801     		.2byte	0x198
 8379 231a 2C230000 		.4byte	0x232c
 8380 231e 18       		.uleb128 0x18
 8381 231f D6260000 		.4byte	.LASF484
 8382 2323 20       		.byte	0x20
 8383 2324 9901     		.2byte	0x199
 8384 2326 1C090000 		.4byte	0x91c
 8385 232a 00       		.byte	0
 8386 232b 00       		.byte	0
 8387 232c 07       		.uleb128 0x7
 8388 232d 6D100000 		.4byte	.LASF485
 8389 2331 20       		.byte	0x20
 8390 2332 9A01     		.2byte	0x19a
 8391 2334 15230000 		.4byte	0x2315
 8392 2338 0F       		.uleb128 0xf
 8393 2339 2C230000 		.4byte	0x232c
 8394 233d 05       		.uleb128 0x5
 8395 233e 04       		.byte	0x4
 8396 233f 38230000 		.4byte	0x2338
 8397 2343 05       		.uleb128 0x5
 8398 2344 04       		.byte	0x4
 8399 2345 10230000 		.4byte	0x2310
 8400 2349 05       		.uleb128 0x5
 8401 234a 04       		.byte	0x4
 8402 234b 7C0E0000 		.4byte	0xe7c
 8403 234f 05       		.uleb128 0x5
 8404 2350 04       		.byte	0x4
 8405 2351 641D0000 		.4byte	0x1d64
 8406 2355 20       		.uleb128 0x20
 8407 2356 86190000 		.4byte	.LASF486
 8408 235a 20       		.byte	0x20
 8409 235b 1402     		.2byte	0x214
 8410 235d 7A210000 		.4byte	0x217a
 8411 2361 20       		.uleb128 0x20
 8412 2362 8C190000 		.4byte	.LASF487
 8413 2366 20       		.byte	0x20
 8414 2367 1802     		.2byte	0x218
 8415 2369 7A210000 		.4byte	0x217a
 8416 236d 20       		.uleb128 0x20
 8417 236e 92190000 		.4byte	.LASF488
ARM GAS  C:\Users\Moi\AppData\Local\Temp\ccOzHcBd.s 			page 149


 8418 2372 20       		.byte	0x20
 8419 2373 1C02     		.2byte	0x21c
 8420 2375 7A210000 		.4byte	0x217a
 8421 2379 27       		.uleb128 0x27
 8422 237a 07       		.byte	0x7
 8423 237b 01       		.byte	0x1
 8424 237c 5E000000 		.4byte	0x5e
 8425 2380 21       		.byte	0x21
 8426 2381 5F       		.byte	0x5f
 8427 2382 A5230000 		.4byte	0x23a5
 8428 2386 28       		.uleb128 0x28
 8429 2387 7D0E0000 		.4byte	.LASF489
 8430 238b 00       		.byte	0
 8431 238c 28       		.uleb128 0x28
 8432 238d A7000000 		.4byte	.LASF490
 8433 2391 01       		.byte	0x1
 8434 2392 28       		.uleb128 0x28
 8435 2393 38000000 		.4byte	.LASF491
 8436 2397 02       		.byte	0x2
 8437 2398 28       		.uleb128 0x28
 8438 2399 8B1A0000 		.4byte	.LASF492
 8439 239d 03       		.byte	0x3
 8440 239e 28       		.uleb128 0x28
 8441 239f 3E0B0000 		.4byte	.LASF493
 8442 23a3 04       		.byte	0x4
 8443 23a4 00       		.byte	0
 8444 23a5 04       		.uleb128 0x4
 8445 23a6 D0050000 		.4byte	.LASF494
 8446 23aa 21       		.byte	0x21
 8447 23ab 65       		.byte	0x65
 8448 23ac 79230000 		.4byte	0x2379
 8449 23b0 0A       		.uleb128 0xa
 8450 23b1 E6080000 		.4byte	0x8e6
 8451 23b5 C0230000 		.4byte	0x23c0
 8452 23b9 0B       		.uleb128 0xb
 8453 23ba 25000000 		.4byte	0x25
 8454 23be 07       		.byte	0x7
 8455 23bf 00       		.byte	0
 8456 23c0 0C       		.uleb128 0xc
 8457 23c1 08       		.byte	0x8
 8458 23c2 22       		.byte	0x22
 8459 23c3 F4       		.byte	0xf4
 8460 23c4 E2230000 		.4byte	0x23e2
 8461 23c8 11       		.uleb128 0x11
 8462 23c9 6D637200 		.ascii	"mcr\000"
 8463 23cd 22       		.byte	0x22
 8464 23ce FA       		.byte	0xfa
 8465 23cf 1C090000 		.4byte	0x91c
 8466 23d3 00       		.byte	0
 8467 23d4 21       		.uleb128 0x21
 8468 23d5 62747200 		.ascii	"btr\000"
 8469 23d9 22       		.byte	0x22
 8470 23da 0001     		.2byte	0x100
 8471 23dc 1C090000 		.4byte	0x91c
 8472 23e0 04       		.byte	0x4
 8473 23e1 00       		.byte	0
 8474 23e2 07       		.uleb128 0x7
ARM GAS  C:\Users\Moi\AppData\Local\Temp\ccOzHcBd.s 			page 150


 8475 23e3 5C1B0000 		.4byte	.LASF495
 8476 23e7 22       		.byte	0x22
 8477 23e8 0101     		.2byte	0x101
 8478 23ea C0230000 		.4byte	0x23c0
 8479 23ee 0F       		.uleb128 0xf
 8480 23ef E2230000 		.4byte	0x23e2
 8481 23f3 1C       		.uleb128 0x1c
 8482 23f4 30       		.byte	0x30
 8483 23f5 22       		.byte	0x22
 8484 23f6 0601     		.2byte	0x106
 8485 23f8 7F240000 		.4byte	0x247f
 8486 23fc 18       		.uleb128 0x18
 8487 23fd A5170000 		.4byte	.LASF463
 8488 2401 22       		.byte	0x22
 8489 2402 0A01     		.2byte	0x10a
 8490 2404 A5230000 		.4byte	0x23a5
 8491 2408 00       		.byte	0
 8492 2409 18       		.uleb128 0x18
 8493 240a 9E1D0000 		.4byte	.LASF464
 8494 240e 22       		.byte	0x22
 8495 240f 0E01     		.2byte	0x10e
 8496 2411 7F240000 		.4byte	0x247f
 8497 2415 04       		.byte	0x4
 8498 2416 18       		.uleb128 0x18
 8499 2417 C40A0000 		.4byte	.LASF496
 8500 241b 22       		.byte	0x22
 8501 241c 1201     		.2byte	0x112
 8502 241e 2E0B0000 		.4byte	0xb2e
 8503 2422 08       		.byte	0x8
 8504 2423 18       		.uleb128 0x18
 8505 2424 CB200000 		.4byte	.LASF497
 8506 2428 22       		.byte	0x22
 8507 2429 1601     		.2byte	0x116
 8508 242b 2E0B0000 		.4byte	0xb2e
 8509 242f 10       		.byte	0x10
 8510 2430 18       		.uleb128 0x18
 8511 2431 331B0000 		.4byte	.LASF498
 8512 2435 22       		.byte	0x22
 8513 2436 2301     		.2byte	0x123
 8514 2438 D41B0000 		.4byte	0x1bd4
 8515 243c 18       		.byte	0x18
 8516 243d 18       		.uleb128 0x18
 8517 243e D00C0000 		.4byte	.LASF499
 8518 2442 22       		.byte	0x22
 8519 2443 2A01     		.2byte	0x12a
 8520 2445 D41B0000 		.4byte	0x1bd4
 8521 2449 1C       		.byte	0x1c
 8522 244a 18       		.uleb128 0x18
 8523 244b 5E110000 		.4byte	.LASF500
 8524 244f 22       		.byte	0x22
 8525 2450 3001     		.2byte	0x130
 8526 2452 D41B0000 		.4byte	0x1bd4
 8527 2456 20       		.byte	0x20
 8528 2457 18       		.uleb128 0x18
 8529 2458 34030000 		.4byte	.LASF501
 8530 245c 22       		.byte	0x22
 8531 245d 3501     		.2byte	0x135
ARM GAS  C:\Users\Moi\AppData\Local\Temp\ccOzHcBd.s 			page 151


 8532 245f D41B0000 		.4byte	0x1bd4
 8533 2463 24       		.byte	0x24
 8534 2464 18       		.uleb128 0x18
 8535 2465 7A0A0000 		.4byte	.LASF502
 8536 2469 22       		.byte	0x22
 8537 246a 3901     		.2byte	0x139
 8538 246c D41B0000 		.4byte	0x1bd4
 8539 2470 28       		.byte	0x28
 8540 2471 21       		.uleb128 0x21
 8541 2472 63616E00 		.ascii	"can\000"
 8542 2476 22       		.byte	0x22
 8543 2477 3F01     		.2byte	0x13f
 8544 2479 85240000 		.4byte	0x2485
 8545 247d 2C       		.byte	0x2c
 8546 247e 00       		.byte	0
 8547 247f 05       		.uleb128 0x5
 8548 2480 04       		.byte	0x4
 8549 2481 EE230000 		.4byte	0x23ee
 8550 2485 05       		.uleb128 0x5
 8551 2486 04       		.byte	0x4
 8552 2487 C5100000 		.4byte	0x10c5
 8553 248b 07       		.uleb128 0x7
 8554 248c 8A030000 		.4byte	.LASF503
 8555 2490 22       		.byte	0x22
 8556 2491 4001     		.2byte	0x140
 8557 2493 F3230000 		.4byte	0x23f3
 8558 2497 20       		.uleb128 0x20
 8559 2498 71220000 		.4byte	.LASF504
 8560 249c 22       		.byte	0x22
 8561 249d 4B01     		.2byte	0x14b
 8562 249f 8B240000 		.4byte	0x248b
 8563 24a3 27       		.uleb128 0x27
 8564 24a4 07       		.byte	0x7
 8565 24a5 01       		.byte	0x1
 8566 24a6 5E000000 		.4byte	0x5e
 8567 24aa 23       		.byte	0x23
 8568 24ab 46       		.byte	0x46
 8569 24ac D5240000 		.4byte	0x24d5
 8570 24b0 28       		.uleb128 0x28
 8571 24b1 ED1D0000 		.4byte	.LASF505
 8572 24b5 00       		.byte	0
 8573 24b6 28       		.uleb128 0x28
 8574 24b7 06240000 		.4byte	.LASF506
 8575 24bb 01       		.byte	0x1
 8576 24bc 28       		.uleb128 0x28
 8577 24bd CF0F0000 		.4byte	.LASF507
 8578 24c1 02       		.byte	0x2
 8579 24c2 28       		.uleb128 0x28
 8580 24c3 8C170000 		.4byte	.LASF508
 8581 24c7 03       		.byte	0x3
 8582 24c8 28       		.uleb128 0x28
 8583 24c9 791D0000 		.4byte	.LASF509
 8584 24cd 04       		.byte	0x4
 8585 24ce 28       		.uleb128 0x28
 8586 24cf B2100000 		.4byte	.LASF510
 8587 24d3 05       		.byte	0x5
 8588 24d4 00       		.byte	0
ARM GAS  C:\Users\Moi\AppData\Local\Temp\ccOzHcBd.s 			page 152


 8589 24d5 04       		.uleb128 0x4
 8590 24d6 CD1A0000 		.4byte	.LASF511
 8591 24da 23       		.byte	0x23
 8592 24db 4D       		.byte	0x4d
 8593 24dc A3240000 		.4byte	0x24a3
 8594 24e0 0C       		.uleb128 0xc
 8595 24e1 1C       		.byte	0x1c
 8596 24e2 24       		.byte	0x24
 8597 24e3 F9       		.byte	0xf9
 8598 24e4 43250000 		.4byte	0x2543
 8599 24e8 11       		.uleb128 0x11
 8600 24e9 64616300 		.ascii	"dac\000"
 8601 24ed 24       		.byte	0x24
 8602 24ee FD       		.byte	0xfd
 8603 24ef 43250000 		.4byte	0x2543
 8604 24f3 00       		.byte	0
 8605 24f4 18       		.uleb128 0x18
 8606 24f5 1E1A0000 		.4byte	.LASF512
 8607 24f9 24       		.byte	0x24
 8608 24fa 0101     		.2byte	0x101
 8609 24fc 1C090000 		.4byte	0x91c
 8610 2500 04       		.byte	0x4
 8611 2501 18       		.uleb128 0x18
 8612 2502 2F080000 		.4byte	.LASF513
 8613 2506 24       		.byte	0x24
 8614 2507 0501     		.2byte	0x105
 8615 2509 1C090000 		.4byte	0x91c
 8616 250d 08       		.byte	0x8
 8617 250e 18       		.uleb128 0x18
 8618 250f A1010000 		.4byte	.LASF514
 8619 2513 24       		.byte	0x24
 8620 2514 0901     		.2byte	0x109
 8621 2516 1C090000 		.4byte	0x91c
 8622 251a 0C       		.byte	0xc
 8623 251b 21       		.uleb128 0x21
 8624 251c 646D6100 		.ascii	"dma\000"
 8625 2520 24       		.byte	0x24
 8626 2521 0D01     		.2byte	0x10d
 8627 2523 4F230000 		.4byte	0x234f
 8628 2527 10       		.byte	0x10
 8629 2528 18       		.uleb128 0x18
 8630 2529 9D190000 		.4byte	.LASF471
 8631 252d 24       		.byte	0x24
 8632 252e 1101     		.2byte	0x111
 8633 2530 1C090000 		.4byte	0x91c
 8634 2534 14       		.byte	0x14
 8635 2535 18       		.uleb128 0x18
 8636 2536 4C190000 		.4byte	.LASF515
 8637 253a 24       		.byte	0x24
 8638 253b 1501     		.2byte	0x115
 8639 253d 1C090000 		.4byte	0x91c
 8640 2541 18       		.byte	0x18
 8641 2542 00       		.byte	0
 8642 2543 05       		.uleb128 0x5
 8643 2544 04       		.byte	0x4
 8644 2545 8F110000 		.4byte	0x118f
 8645 2549 07       		.uleb128 0x7
ARM GAS  C:\Users\Moi\AppData\Local\Temp\ccOzHcBd.s 			page 153


 8646 254a E7020000 		.4byte	.LASF516
 8647 254e 24       		.byte	0x24
 8648 254f 1601     		.2byte	0x116
 8649 2551 E0240000 		.4byte	0x24e0
 8650 2555 0F       		.uleb128 0xf
 8651 2556 49250000 		.4byte	0x2549
 8652 255a 07       		.uleb128 0x7
 8653 255b E60D0000 		.4byte	.LASF517
 8654 255f 24       		.byte	0x24
 8655 2560 1B01     		.2byte	0x11b
 8656 2562 66250000 		.4byte	0x2566
 8657 2566 1B       		.uleb128 0x1b
 8658 2567 E60D0000 		.4byte	.LASF517
 8659 256b 30       		.byte	0x30
 8660 256c 24       		.byte	0x24
 8661 256d 7B01     		.2byte	0x17b
 8662 256f DC250000 		.4byte	0x25dc
 8663 2573 18       		.uleb128 0x18
 8664 2574 A5170000 		.4byte	.LASF463
 8665 2578 24       		.byte	0x24
 8666 2579 7F01     		.2byte	0x17f
 8667 257b D5240000 		.4byte	0x24d5
 8668 257f 00       		.byte	0
 8669 2580 18       		.uleb128 0x18
 8670 2581 F7200000 		.4byte	.LASF467
 8671 2585 24       		.byte	0x24
 8672 2586 8301     		.2byte	0x183
 8673 2588 1A270000 		.4byte	0x271a
 8674 258c 04       		.byte	0x4
 8675 258d 18       		.uleb128 0x18
 8676 258e 8E010000 		.4byte	.LASF465
 8677 2592 24       		.byte	0x24
 8678 2593 8701     		.2byte	0x187
 8679 2595 41260000 		.4byte	0x2641
 8680 2599 08       		.byte	0x8
 8681 259a 18       		.uleb128 0x18
 8682 259b 6D1A0000 		.4byte	.LASF466
 8683 259f 24       		.byte	0x24
 8684 25a0 8B01     		.2byte	0x18b
 8685 25a2 01090000 		.4byte	0x901
 8686 25a6 0C       		.byte	0xc
 8687 25a7 18       		.uleb128 0x18
 8688 25a8 9E1D0000 		.4byte	.LASF464
 8689 25ac 24       		.byte	0x24
 8690 25ad 8F01     		.2byte	0x18f
 8691 25af 20270000 		.4byte	0x2720
 8692 25b3 10       		.byte	0x10
 8693 25b4 18       		.uleb128 0x18
 8694 25b5 28080000 		.4byte	.LASF468
 8695 25b9 24       		.byte	0x24
 8696 25ba 9401     		.2byte	0x194
 8697 25bc F90A0000 		.4byte	0xaf9
 8698 25c0 14       		.byte	0x14
 8699 25c1 18       		.uleb128 0x18
 8700 25c2 DB0D0000 		.4byte	.LASF469
 8701 25c6 24       		.byte	0x24
 8702 25c7 9A01     		.2byte	0x19a
ARM GAS  C:\Users\Moi\AppData\Local\Temp\ccOzHcBd.s 			page 154


 8703 25c9 501B0000 		.4byte	0x1b50
 8704 25cd 18       		.byte	0x18
 8705 25ce 18       		.uleb128 0x18
 8706 25cf DF110000 		.4byte	.LASF518
 8707 25d3 24       		.byte	0x24
 8708 25d4 A301     		.2byte	0x1a3
 8709 25d6 26270000 		.4byte	0x2726
 8710 25da 2C       		.byte	0x2c
 8711 25db 00       		.byte	0
 8712 25dc 07       		.uleb128 0x7
 8713 25dd 051B0000 		.4byte	.LASF519
 8714 25e1 24       		.byte	0x24
 8715 25e2 2001     		.2byte	0x120
 8716 25e4 01090000 		.4byte	0x901
 8717 25e8 0F       		.uleb128 0xf
 8718 25e9 DC250000 		.4byte	0x25dc
 8719 25ed 2A       		.uleb128 0x2a
 8720 25ee 07       		.byte	0x7
 8721 25ef 01       		.byte	0x1
 8722 25f0 5E000000 		.4byte	0x5e
 8723 25f4 24       		.byte	0x24
 8724 25f5 2701     		.2byte	0x127
 8725 25f7 08260000 		.4byte	0x2608
 8726 25fb 28       		.uleb128 0x28
 8727 25fc A01B0000 		.4byte	.LASF520
 8728 2600 00       		.byte	0
 8729 2601 28       		.uleb128 0x28
 8730 2602 680A0000 		.4byte	.LASF521
 8731 2606 01       		.byte	0x1
 8732 2607 00       		.byte	0
 8733 2608 07       		.uleb128 0x7
 8734 2609 3D120000 		.4byte	.LASF522
 8735 260d 24       		.byte	0x24
 8736 260e 2A01     		.2byte	0x12a
 8737 2610 ED250000 		.4byte	0x25ed
 8738 2614 07       		.uleb128 0x7
 8739 2615 9B080000 		.4byte	.LASF523
 8740 2619 24       		.byte	0x24
 8741 261a 3401     		.2byte	0x134
 8742 261c 20260000 		.4byte	0x2620
 8743 2620 05       		.uleb128 0x5
 8744 2621 04       		.byte	0x4
 8745 2622 26260000 		.4byte	0x2626
 8746 2626 1F       		.uleb128 0x1f
 8747 2627 3B260000 		.4byte	0x263b
 8748 262b 16       		.uleb128 0x16
 8749 262c 3B260000 		.4byte	0x263b
 8750 2630 16       		.uleb128 0x16
 8751 2631 41260000 		.4byte	0x2641
 8752 2635 16       		.uleb128 0x16
 8753 2636 33000000 		.4byte	0x33
 8754 263a 00       		.byte	0
 8755 263b 05       		.uleb128 0x5
 8756 263c 04       		.byte	0x4
 8757 263d 5A250000 		.4byte	0x255a
 8758 2641 05       		.uleb128 0x5
 8759 2642 04       		.byte	0x4
ARM GAS  C:\Users\Moi\AppData\Local\Temp\ccOzHcBd.s 			page 155


 8760 2643 E8250000 		.4byte	0x25e8
 8761 2647 07       		.uleb128 0x7
 8762 2648 C7220000 		.4byte	.LASF524
 8763 264c 24       		.byte	0x24
 8764 264d 3F01     		.2byte	0x13f
 8765 264f 53260000 		.4byte	0x2653
 8766 2653 05       		.uleb128 0x5
 8767 2654 04       		.byte	0x4
 8768 2655 59260000 		.4byte	0x2659
 8769 2659 1F       		.uleb128 0x1f
 8770 265a 69260000 		.4byte	0x2669
 8771 265e 16       		.uleb128 0x16
 8772 265f 3B260000 		.4byte	0x263b
 8773 2663 16       		.uleb128 0x16
 8774 2664 08260000 		.4byte	0x2608
 8775 2668 00       		.byte	0
 8776 2669 2A       		.uleb128 0x2a
 8777 266a 07       		.byte	0x7
 8778 266b 01       		.byte	0x1
 8779 266c 5E000000 		.4byte	0x5e
 8780 2670 24       		.byte	0x24
 8781 2671 4401     		.2byte	0x144
 8782 2673 8A260000 		.4byte	0x268a
 8783 2677 28       		.uleb128 0x28
 8784 2678 471E0000 		.4byte	.LASF525
 8785 267c 00       		.byte	0
 8786 267d 28       		.uleb128 0x28
 8787 267e DE130000 		.4byte	.LASF526
 8788 2682 01       		.byte	0x1
 8789 2683 28       		.uleb128 0x28
 8790 2684 3D180000 		.4byte	.LASF527
 8791 2688 02       		.byte	0x2
 8792 2689 00       		.byte	0
 8793 268a 07       		.uleb128 0x7
 8794 268b C90B0000 		.4byte	.LASF528
 8795 268f 24       		.byte	0x24
 8796 2690 4D01     		.2byte	0x14d
 8797 2692 69260000 		.4byte	0x2669
 8798 2696 1C       		.uleb128 0x1c
 8799 2697 10       		.byte	0x10
 8800 2698 24       		.byte	0x24
 8801 2699 5201     		.2byte	0x152
 8802 269b D4260000 		.4byte	0x26d4
 8803 269f 18       		.uleb128 0x18
 8804 26a0 6A110000 		.4byte	.LASF475
 8805 26a4 24       		.byte	0x24
 8806 26a5 5601     		.2byte	0x156
 8807 26a7 1C090000 		.4byte	0x91c
 8808 26ab 00       		.byte	0
 8809 26ac 18       		.uleb128 0x18
 8810 26ad 8F0A0000 		.4byte	.LASF476
 8811 26b1 24       		.byte	0x24
 8812 26b2 5A01     		.2byte	0x15a
 8813 26b4 14260000 		.4byte	0x2614
 8814 26b8 04       		.byte	0x4
 8815 26b9 18       		.uleb128 0x18
 8816 26ba B0250000 		.4byte	.LASF477
ARM GAS  C:\Users\Moi\AppData\Local\Temp\ccOzHcBd.s 			page 156


 8817 26be 24       		.byte	0x24
 8818 26bf 5E01     		.2byte	0x15e
 8819 26c1 47260000 		.4byte	0x2647
 8820 26c5 08       		.byte	0x8
 8821 26c6 18       		.uleb128 0x18
 8822 26c7 A7150000 		.4byte	.LASF529
 8823 26cb 24       		.byte	0x24
 8824 26cc 6601     		.2byte	0x166
 8825 26ce 1C090000 		.4byte	0x91c
 8826 26d2 0C       		.byte	0xc
 8827 26d3 00       		.byte	0
 8828 26d4 07       		.uleb128 0x7
 8829 26d5 0D130000 		.4byte	.LASF530
 8830 26d9 24       		.byte	0x24
 8831 26da 6701     		.2byte	0x167
 8832 26dc 96260000 		.4byte	0x2696
 8833 26e0 0F       		.uleb128 0xf
 8834 26e1 D4260000 		.4byte	0x26d4
 8835 26e5 1C       		.uleb128 0x1c
 8836 26e6 04       		.byte	0x4
 8837 26e7 24       		.byte	0x24
 8838 26e8 6C01     		.2byte	0x16c
 8839 26ea 09270000 		.4byte	0x2709
 8840 26ee 18       		.uleb128 0x18
 8841 26ef 2A0C0000 		.4byte	.LASF531
 8842 26f3 24       		.byte	0x24
 8843 26f4 7101     		.2byte	0x171
 8844 26f6 DC250000 		.4byte	0x25dc
 8845 26fa 00       		.byte	0
 8846 26fb 18       		.uleb128 0x18
 8847 26fc DF000000 		.4byte	.LASF532
 8848 2700 24       		.byte	0x24
 8849 2701 7501     		.2byte	0x175
 8850 2703 8A260000 		.4byte	0x268a
 8851 2707 02       		.byte	0x2
 8852 2708 00       		.byte	0
 8853 2709 07       		.uleb128 0x7
 8854 270a F00D0000 		.4byte	.LASF533
 8855 270e 24       		.byte	0x24
 8856 270f 7601     		.2byte	0x176
 8857 2711 E5260000 		.4byte	0x26e5
 8858 2715 0F       		.uleb128 0xf
 8859 2716 09270000 		.4byte	0x2709
 8860 271a 05       		.uleb128 0x5
 8861 271b 04       		.byte	0x4
 8862 271c E0260000 		.4byte	0x26e0
 8863 2720 05       		.uleb128 0x5
 8864 2721 04       		.byte	0x4
 8865 2722 15270000 		.4byte	0x2715
 8866 2726 05       		.uleb128 0x5
 8867 2727 04       		.byte	0x4
 8868 2728 55250000 		.4byte	0x2555
 8869 272c 20       		.uleb128 0x20
 8870 272d 84030000 		.4byte	.LASF534
 8871 2731 24       		.byte	0x24
 8872 2732 B301     		.2byte	0x1b3
 8873 2734 5A250000 		.4byte	0x255a
ARM GAS  C:\Users\Moi\AppData\Local\Temp\ccOzHcBd.s 			page 157


 8874 2738 27       		.uleb128 0x27
 8875 2739 07       		.byte	0x7
 8876 273a 01       		.byte	0x1
 8877 273b 5E000000 		.4byte	0x5e
 8878 273f 25       		.byte	0x25
 8879 2740 3F       		.byte	0x3f
 8880 2741 58270000 		.4byte	0x2758
 8881 2745 28       		.uleb128 0x28
 8882 2746 330B0000 		.4byte	.LASF535
 8883 274a 00       		.byte	0
 8884 274b 28       		.uleb128 0x28
 8885 274c C2270000 		.4byte	.LASF536
 8886 2750 01       		.byte	0x1
 8887 2751 28       		.uleb128 0x28
 8888 2752 DB010000 		.4byte	.LASF537
 8889 2756 02       		.byte	0x2
 8890 2757 00       		.byte	0
 8891 2758 04       		.uleb128 0x4
 8892 2759 FB1C0000 		.4byte	.LASF538
 8893 275d 25       		.byte	0x25
 8894 275e 43       		.byte	0x43
 8895 275f 38270000 		.4byte	0x2738
 8896 2763 04       		.uleb128 0x4
 8897 2764 E4090000 		.4byte	.LASF539
 8898 2768 25       		.byte	0x25
 8899 2769 48       		.byte	0x48
 8900 276a 6E270000 		.4byte	0x276e
 8901 276e 10       		.uleb128 0x10
 8902 276f E4090000 		.4byte	.LASF539
 8903 2773 08       		.byte	0x8
 8904 2774 26       		.byte	0x26
 8905 2775 71       		.byte	0x71
 8906 2776 93270000 		.4byte	0x2793
 8907 277a 0D       		.uleb128 0xd
 8908 277b A5170000 		.4byte	.LASF463
 8909 277f 26       		.byte	0x26
 8910 2780 75       		.byte	0x75
 8911 2781 58270000 		.4byte	0x2758
 8912 2785 00       		.byte	0
 8913 2786 0D       		.uleb128 0xd
 8914 2787 9E1D0000 		.4byte	.LASF464
 8915 278b 26       		.byte	0x26
 8916 278c 79       		.byte	0x79
 8917 278d 25280000 		.4byte	0x2825
 8918 2791 04       		.byte	0x4
 8919 2792 00       		.byte	0
 8920 2793 04       		.uleb128 0x4
 8921 2794 E5250000 		.4byte	.LASF540
 8922 2798 26       		.byte	0x26
 8923 2799 47       		.byte	0x47
 8924 279a 1C090000 		.4byte	0x91c
 8925 279e 04       		.uleb128 0x4
 8926 279f BD200000 		.4byte	.LASF541
 8927 27a3 26       		.byte	0x26
 8928 27a4 4F       		.byte	0x4f
 8929 27a5 A9270000 		.4byte	0x27a9
 8930 27a9 05       		.uleb128 0x5
ARM GAS  C:\Users\Moi\AppData\Local\Temp\ccOzHcBd.s 			page 158


 8931 27aa 04       		.byte	0x4
 8932 27ab AF270000 		.4byte	0x27af
 8933 27af 1F       		.uleb128 0x1f
 8934 27b0 BF270000 		.4byte	0x27bf
 8935 27b4 16       		.uleb128 0x16
 8936 27b5 BF270000 		.4byte	0x27bf
 8937 27b9 16       		.uleb128 0x16
 8938 27ba 93270000 		.4byte	0x2793
 8939 27be 00       		.byte	0
 8940 27bf 05       		.uleb128 0x5
 8941 27c0 04       		.byte	0x4
 8942 27c1 63270000 		.4byte	0x2763
 8943 27c5 0C       		.uleb128 0xc
 8944 27c6 08       		.byte	0x8
 8945 27c7 26       		.byte	0x26
 8946 27c8 54       		.byte	0x54
 8947 27c9 E5270000 		.4byte	0x27e5
 8948 27cd 0D       		.uleb128 0xd
 8949 27ce C9090000 		.4byte	.LASF542
 8950 27d2 26       		.byte	0x26
 8951 27d3 58       		.byte	0x58
 8952 27d4 1C090000 		.4byte	0x91c
 8953 27d8 00       		.byte	0
 8954 27d9 11       		.uleb128 0x11
 8955 27da 636200   		.ascii	"cb\000"
 8956 27dd 26       		.byte	0x26
 8957 27de 5F       		.byte	0x5f
 8958 27df 9E270000 		.4byte	0x279e
 8959 27e3 04       		.byte	0x4
 8960 27e4 00       		.byte	0
 8961 27e5 04       		.uleb128 0x4
 8962 27e6 B60F0000 		.4byte	.LASF543
 8963 27ea 26       		.byte	0x26
 8964 27eb 60       		.byte	0x60
 8965 27ec C5270000 		.4byte	0x27c5
 8966 27f0 0C       		.uleb128 0xc
 8967 27f1 B8       		.byte	0xb8
 8968 27f2 26       		.byte	0x26
 8969 27f3 66       		.byte	0x66
 8970 27f4 05280000 		.4byte	0x2805
 8971 27f8 0D       		.uleb128 0xd
 8972 27f9 E7220000 		.4byte	.LASF544
 8973 27fd 26       		.byte	0x26
 8974 27fe 6A       		.byte	0x6a
 8975 27ff 05280000 		.4byte	0x2805
 8976 2803 00       		.byte	0
 8977 2804 00       		.byte	0
 8978 2805 0A       		.uleb128 0xa
 8979 2806 E5270000 		.4byte	0x27e5
 8980 280a 15280000 		.4byte	0x2815
 8981 280e 0B       		.uleb128 0xb
 8982 280f 25000000 		.4byte	0x25
 8983 2813 16       		.byte	0x16
 8984 2814 00       		.byte	0
 8985 2815 04       		.uleb128 0x4
 8986 2816 8E1F0000 		.4byte	.LASF545
 8987 281a 26       		.byte	0x26
ARM GAS  C:\Users\Moi\AppData\Local\Temp\ccOzHcBd.s 			page 159


 8988 281b 6C       		.byte	0x6c
 8989 281c F0270000 		.4byte	0x27f0
 8990 2820 0F       		.uleb128 0xf
 8991 2821 15280000 		.4byte	0x2815
 8992 2825 05       		.uleb128 0x5
 8993 2826 04       		.byte	0x4
 8994 2827 20280000 		.4byte	0x2820
 8995 282b 23       		.uleb128 0x23
 8996 282c B0050000 		.4byte	.LASF546
 8997 2830 26       		.byte	0x26
 8998 2831 86       		.byte	0x86
 8999 2832 63270000 		.4byte	0x2763
 9000 2836 27       		.uleb128 0x27
 9001 2837 07       		.byte	0x7
 9002 2838 01       		.byte	0x1
 9003 2839 5E000000 		.4byte	0x5e
 9004 283d 27       		.byte	0x27
 9005 283e 31       		.byte	0x31
 9006 283f 62280000 		.4byte	0x2862
 9007 2843 28       		.uleb128 0x28
 9008 2844 51180000 		.4byte	.LASF547
 9009 2848 00       		.byte	0
 9010 2849 28       		.uleb128 0x28
 9011 284a CF150000 		.4byte	.LASF548
 9012 284e 01       		.byte	0x1
 9013 284f 28       		.uleb128 0x28
 9014 2850 C31A0000 		.4byte	.LASF549
 9015 2854 02       		.byte	0x2
 9016 2855 28       		.uleb128 0x28
 9017 2856 F7080000 		.4byte	.LASF550
 9018 285a 03       		.byte	0x3
 9019 285b 28       		.uleb128 0x28
 9020 285c 65040000 		.4byte	.LASF551
 9021 2860 04       		.byte	0x4
 9022 2861 00       		.byte	0
 9023 2862 04       		.uleb128 0x4
 9024 2863 40140000 		.4byte	.LASF552
 9025 2867 27       		.byte	0x27
 9026 2868 37       		.byte	0x37
 9027 2869 36280000 		.4byte	0x2836
 9028 286d 04       		.uleb128 0x4
 9029 286e 57190000 		.4byte	.LASF553
 9030 2872 27       		.byte	0x27
 9031 2873 3C       		.byte	0x3c
 9032 2874 78280000 		.4byte	0x2878
 9033 2878 1B       		.uleb128 0x1b
 9034 2879 57190000 		.4byte	.LASF553
 9035 287d 10       		.byte	0x10
 9036 287e 28       		.byte	0x28
 9037 287f 9701     		.2byte	0x197
 9038 2881 BA280000 		.4byte	0x28ba
 9039 2885 18       		.uleb128 0x18
 9040 2886 A5170000 		.4byte	.LASF463
 9041 288a 28       		.byte	0x28
 9042 288b 9B01     		.2byte	0x19b
 9043 288d 62280000 		.4byte	0x2862
 9044 2891 00       		.byte	0
ARM GAS  C:\Users\Moi\AppData\Local\Temp\ccOzHcBd.s 			page 160


 9045 2892 18       		.uleb128 0x18
 9046 2893 9E1D0000 		.4byte	.LASF464
 9047 2897 28       		.byte	0x28
 9048 2898 9F01     		.2byte	0x19f
 9049 289a 4F2A0000 		.4byte	0x2a4f
 9050 289e 04       		.byte	0x4
 9051 289f 18       		.uleb128 0x18
 9052 28a0 040E0000 		.4byte	.LASF554
 9053 28a4 28       		.byte	0x28
 9054 28a5 A701     		.2byte	0x1a7
 9055 28a7 1C090000 		.4byte	0x91c
 9056 28ab 08       		.byte	0x8
 9057 28ac 21       		.uleb128 0x21
 9058 28ad 74696D00 		.ascii	"tim\000"
 9059 28b1 28       		.byte	0x28
 9060 28b2 AB01     		.2byte	0x1ab
 9061 28b4 552A0000 		.4byte	0x2a55
 9062 28b8 0C       		.byte	0xc
 9063 28b9 00       		.byte	0
 9064 28ba 04       		.uleb128 0x4
 9065 28bb 5F120000 		.4byte	.LASF555
 9066 28bf 27       		.byte	0x27
 9067 28c0 43       		.byte	0x43
 9068 28c1 C5280000 		.4byte	0x28c5
 9069 28c5 05       		.uleb128 0x5
 9070 28c6 04       		.byte	0x4
 9071 28c7 CB280000 		.4byte	0x28cb
 9072 28cb 1F       		.uleb128 0x1f
 9073 28cc D6280000 		.4byte	0x28d6
 9074 28d0 16       		.uleb128 0x16
 9075 28d1 D6280000 		.4byte	0x28d6
 9076 28d5 00       		.byte	0
 9077 28d6 05       		.uleb128 0x5
 9078 28d7 04       		.byte	0x4
 9079 28d8 6D280000 		.4byte	0x286d
 9080 28dc 1C       		.uleb128 0x1c
 9081 28dd 60       		.byte	0x60
 9082 28de 29       		.byte	0x29
 9083 28df 9E01     		.2byte	0x19e
 9084 28e1 E8290000 		.4byte	0x29e8
 9085 28e5 21       		.uleb128 0x21
 9086 28e6 43523100 		.ascii	"CR1\000"
 9087 28ea 29       		.byte	0x29
 9088 28eb 9F01     		.2byte	0x19f
 9089 28ed 27090000 		.4byte	0x927
 9090 28f1 00       		.byte	0
 9091 28f2 21       		.uleb128 0x21
 9092 28f3 43523200 		.ascii	"CR2\000"
 9093 28f7 29       		.byte	0x29
 9094 28f8 A001     		.2byte	0x1a0
 9095 28fa 27090000 		.4byte	0x927
 9096 28fe 04       		.byte	0x4
 9097 28ff 18       		.uleb128 0x18
 9098 2900 16220000 		.4byte	.LASF556
 9099 2904 29       		.byte	0x29
 9100 2905 A101     		.2byte	0x1a1
 9101 2907 27090000 		.4byte	0x927
ARM GAS  C:\Users\Moi\AppData\Local\Temp\ccOzHcBd.s 			page 161


 9102 290b 08       		.byte	0x8
 9103 290c 18       		.uleb128 0x18
 9104 290d 7A0B0000 		.4byte	.LASF557
 9105 2911 29       		.byte	0x29
 9106 2912 A201     		.2byte	0x1a2
 9107 2914 27090000 		.4byte	0x927
 9108 2918 0C       		.byte	0xc
 9109 2919 21       		.uleb128 0x21
 9110 291a 535200   		.ascii	"SR\000"
 9111 291d 29       		.byte	0x29
 9112 291e A301     		.2byte	0x1a3
 9113 2920 27090000 		.4byte	0x927
 9114 2924 10       		.byte	0x10
 9115 2925 21       		.uleb128 0x21
 9116 2926 45475200 		.ascii	"EGR\000"
 9117 292a 29       		.byte	0x29
 9118 292b A401     		.2byte	0x1a4
 9119 292d 27090000 		.4byte	0x927
 9120 2931 14       		.byte	0x14
 9121 2932 18       		.uleb128 0x18
 9122 2933 8A260000 		.4byte	.LASF558
 9123 2937 29       		.byte	0x29
 9124 2938 A501     		.2byte	0x1a5
 9125 293a 27090000 		.4byte	0x927
 9126 293e 18       		.byte	0x18
 9127 293f 18       		.uleb128 0x18
 9128 2940 90260000 		.4byte	.LASF559
 9129 2944 29       		.byte	0x29
 9130 2945 A601     		.2byte	0x1a6
 9131 2947 27090000 		.4byte	0x927
 9132 294b 1C       		.byte	0x1c
 9133 294c 18       		.uleb128 0x18
 9134 294d 78080000 		.4byte	.LASF560
 9135 2951 29       		.byte	0x29
 9136 2952 A701     		.2byte	0x1a7
 9137 2954 27090000 		.4byte	0x927
 9138 2958 20       		.byte	0x20
 9139 2959 21       		.uleb128 0x21
 9140 295a 434E5400 		.ascii	"CNT\000"
 9141 295e 29       		.byte	0x29
 9142 295f A801     		.2byte	0x1a8
 9143 2961 27090000 		.4byte	0x927
 9144 2965 24       		.byte	0x24
 9145 2966 21       		.uleb128 0x21
 9146 2967 50534300 		.ascii	"PSC\000"
 9147 296b 29       		.byte	0x29
 9148 296c A901     		.2byte	0x1a9
 9149 296e 27090000 		.4byte	0x927
 9150 2972 28       		.byte	0x28
 9151 2973 21       		.uleb128 0x21
 9152 2974 41525200 		.ascii	"ARR\000"
 9153 2978 29       		.byte	0x29
 9154 2979 AA01     		.2byte	0x1aa
 9155 297b 27090000 		.4byte	0x927
 9156 297f 2C       		.byte	0x2c
 9157 2980 21       		.uleb128 0x21
 9158 2981 52435200 		.ascii	"RCR\000"
ARM GAS  C:\Users\Moi\AppData\Local\Temp\ccOzHcBd.s 			page 162


 9159 2985 29       		.byte	0x29
 9160 2986 AB01     		.2byte	0x1ab
 9161 2988 27090000 		.4byte	0x927
 9162 298c 30       		.byte	0x30
 9163 298d 21       		.uleb128 0x21
 9164 298e 43435200 		.ascii	"CCR\000"
 9165 2992 29       		.byte	0x29
 9166 2993 AC01     		.2byte	0x1ac
 9167 2995 23120000 		.4byte	0x1223
 9168 2999 34       		.byte	0x34
 9169 299a 18       		.uleb128 0x18
 9170 299b 9C010000 		.4byte	.LASF561
 9171 299f 29       		.byte	0x29
 9172 29a0 AD01     		.2byte	0x1ad
 9173 29a2 27090000 		.4byte	0x927
 9174 29a6 44       		.byte	0x44
 9175 29a7 21       		.uleb128 0x21
 9176 29a8 44435200 		.ascii	"DCR\000"
 9177 29ac 29       		.byte	0x29
 9178 29ad AE01     		.2byte	0x1ae
 9179 29af 27090000 		.4byte	0x927
 9180 29b3 48       		.byte	0x48
 9181 29b4 18       		.uleb128 0x18
 9182 29b5 FA170000 		.4byte	.LASF562
 9183 29b9 29       		.byte	0x29
 9184 29ba AF01     		.2byte	0x1af
 9185 29bc 27090000 		.4byte	0x927
 9186 29c0 4C       		.byte	0x4c
 9187 29c1 21       		.uleb128 0x21
 9188 29c2 4F5200   		.ascii	"OR\000"
 9189 29c5 29       		.byte	0x29
 9190 29c6 B001     		.2byte	0x1b0
 9191 29c8 27090000 		.4byte	0x927
 9192 29cc 50       		.byte	0x50
 9193 29cd 18       		.uleb128 0x18
 9194 29ce 96260000 		.4byte	.LASF563
 9195 29d2 29       		.byte	0x29
 9196 29d3 B101     		.2byte	0x1b1
 9197 29d5 27090000 		.4byte	0x927
 9198 29d9 54       		.byte	0x54
 9199 29da 18       		.uleb128 0x18
 9200 29db 100E0000 		.4byte	.LASF564
 9201 29df 29       		.byte	0x29
 9202 29e0 B201     		.2byte	0x1b2
 9203 29e2 0E120000 		.4byte	0x120e
 9204 29e6 58       		.byte	0x58
 9205 29e7 00       		.byte	0
 9206 29e8 07       		.uleb128 0x7
 9207 29e9 29210000 		.4byte	.LASF565
 9208 29ed 29       		.byte	0x29
 9209 29ee B301     		.2byte	0x1b3
 9210 29f0 DC280000 		.4byte	0x28dc
 9211 29f4 07       		.uleb128 0x7
 9212 29f5 180A0000 		.4byte	.LASF566
 9213 29f9 28       		.byte	0x28
 9214 29fa 6D01     		.2byte	0x16d
 9215 29fc 1C090000 		.4byte	0x91c
ARM GAS  C:\Users\Moi\AppData\Local\Temp\ccOzHcBd.s 			page 163


 9216 2a00 1C       		.uleb128 0x1c
 9217 2a01 10       		.byte	0x10
 9218 2a02 28       		.byte	0x28
 9219 2a03 7801     		.2byte	0x178
 9220 2a05 3E2A0000 		.4byte	0x2a3e
 9221 2a09 18       		.uleb128 0x18
 9222 2a0a 03260000 		.4byte	.LASF567
 9223 2a0e 28       		.byte	0x28
 9224 2a0f 7E01     		.2byte	0x17e
 9225 2a11 F4290000 		.4byte	0x29f4
 9226 2a15 00       		.byte	0
 9227 2a16 18       		.uleb128 0x18
 9228 2a17 FF170000 		.4byte	.LASF568
 9229 2a1b 28       		.byte	0x28
 9230 2a1c 8501     		.2byte	0x185
 9231 2a1e BA280000 		.4byte	0x28ba
 9232 2a22 04       		.byte	0x4
 9233 2a23 21       		.uleb128 0x21
 9234 2a24 63723200 		.ascii	"cr2\000"
 9235 2a28 28       		.byte	0x28
 9236 2a29 8B01     		.2byte	0x18b
 9237 2a2b 1C090000 		.4byte	0x91c
 9238 2a2f 08       		.byte	0x8
 9239 2a30 18       		.uleb128 0x18
 9240 2a31 7E0D0000 		.4byte	.LASF569
 9241 2a35 28       		.byte	0x28
 9242 2a36 9101     		.2byte	0x191
 9243 2a38 1C090000 		.4byte	0x91c
 9244 2a3c 0C       		.byte	0xc
 9245 2a3d 00       		.byte	0
 9246 2a3e 07       		.uleb128 0x7
 9247 2a3f BF070000 		.4byte	.LASF570
 9248 2a43 28       		.byte	0x28
 9249 2a44 9201     		.2byte	0x192
 9250 2a46 002A0000 		.4byte	0x2a00
 9251 2a4a 0F       		.uleb128 0xf
 9252 2a4b 3E2A0000 		.4byte	0x2a3e
 9253 2a4f 05       		.uleb128 0x5
 9254 2a50 04       		.byte	0x4
 9255 2a51 4A2A0000 		.4byte	0x2a4a
 9256 2a55 05       		.uleb128 0x5
 9257 2a56 04       		.byte	0x4
 9258 2a57 E8290000 		.4byte	0x29e8
 9259 2a5b 20       		.uleb128 0x20
 9260 2a5c AA250000 		.4byte	.LASF571
 9261 2a60 28       		.byte	0x28
 9262 2a61 F201     		.2byte	0x1f2
 9263 2a63 6D280000 		.4byte	0x286d
 9264 2a67 20       		.uleb128 0x20
 9265 2a68 A51D0000 		.4byte	.LASF572
 9266 2a6c 28       		.byte	0x28
 9267 2a6d 0202     		.2byte	0x202
 9268 2a6f 6D280000 		.4byte	0x286d
 9269 2a73 27       		.uleb128 0x27
 9270 2a74 07       		.byte	0x7
 9271 2a75 01       		.byte	0x1
 9272 2a76 5E000000 		.4byte	0x5e
ARM GAS  C:\Users\Moi\AppData\Local\Temp\ccOzHcBd.s 			page 164


 9273 2a7a 2A       		.byte	0x2a
 9274 2a7b 4C       		.byte	0x4c
 9275 2a7c A52A0000 		.4byte	0x2aa5
 9276 2a80 28       		.uleb128 0x28
 9277 2a81 97070000 		.4byte	.LASF573
 9278 2a85 00       		.byte	0
 9279 2a86 28       		.uleb128 0x28
 9280 2a87 610F0000 		.4byte	.LASF574
 9281 2a8b 01       		.byte	0x1
 9282 2a8c 28       		.uleb128 0x28
 9283 2a8d 5A080000 		.4byte	.LASF575
 9284 2a91 02       		.byte	0x2
 9285 2a92 28       		.uleb128 0x28
 9286 2a93 94040000 		.4byte	.LASF576
 9287 2a97 03       		.byte	0x3
 9288 2a98 28       		.uleb128 0x28
 9289 2a99 08030000 		.4byte	.LASF577
 9290 2a9d 04       		.byte	0x4
 9291 2a9e 28       		.uleb128 0x28
 9292 2a9f 15140000 		.4byte	.LASF578
 9293 2aa3 05       		.byte	0x5
 9294 2aa4 00       		.byte	0
 9295 2aa5 04       		.uleb128 0x4
 9296 2aa6 06120000 		.4byte	.LASF579
 9297 2aaa 2A       		.byte	0x2a
 9298 2aab 53       		.byte	0x53
 9299 2aac 732A0000 		.4byte	0x2a73
 9300 2ab0 07       		.uleb128 0x7
 9301 2ab1 34190000 		.4byte	.LASF580
 9302 2ab5 2B       		.byte	0x2b
 9303 2ab6 6A01     		.2byte	0x16a
 9304 2ab8 01090000 		.4byte	0x901
 9305 2abc 07       		.uleb128 0x7
 9306 2abd A6030000 		.4byte	.LASF581
 9307 2ac1 2B       		.byte	0x2b
 9308 2ac2 6F01     		.2byte	0x16f
 9309 2ac4 1C090000 		.4byte	0x91c
 9310 2ac8 2A       		.uleb128 0x2a
 9311 2ac9 07       		.byte	0x7
 9312 2aca 01       		.byte	0x1
 9313 2acb 5E000000 		.4byte	0x5e
 9314 2acf 2B       		.byte	0x2b
 9315 2ad0 7401     		.2byte	0x174
 9316 2ad2 E92A0000 		.4byte	0x2ae9
 9317 2ad6 28       		.uleb128 0x28
 9318 2ad7 A7040000 		.4byte	.LASF582
 9319 2adb 01       		.byte	0x1
 9320 2adc 28       		.uleb128 0x28
 9321 2add 59000000 		.4byte	.LASF583
 9322 2ae1 02       		.byte	0x2
 9323 2ae2 28       		.uleb128 0x28
 9324 2ae3 E90A0000 		.4byte	.LASF584
 9325 2ae7 03       		.byte	0x3
 9326 2ae8 00       		.byte	0
 9327 2ae9 07       		.uleb128 0x7
 9328 2aea DC260000 		.4byte	.LASF585
 9329 2aee 2B       		.byte	0x2b
ARM GAS  C:\Users\Moi\AppData\Local\Temp\ccOzHcBd.s 			page 165


 9330 2aef 7801     		.2byte	0x178
 9331 2af1 C82A0000 		.4byte	0x2ac8
 9332 2af5 2A       		.uleb128 0x2a
 9333 2af6 07       		.byte	0x7
 9334 2af7 01       		.byte	0x1
 9335 2af8 5E000000 		.4byte	0x5e
 9336 2afc 2B       		.byte	0x2b
 9337 2afd 7D01     		.2byte	0x17d
 9338 2aff 162B0000 		.4byte	0x2b16
 9339 2b03 28       		.uleb128 0x28
 9340 2b04 84050000 		.4byte	.LASF586
 9341 2b08 01       		.byte	0x1
 9342 2b09 28       		.uleb128 0x28
 9343 2b0a 5F260000 		.4byte	.LASF587
 9344 2b0e 02       		.byte	0x2
 9345 2b0f 28       		.uleb128 0x28
 9346 2b10 DD0B0000 		.4byte	.LASF588
 9347 2b14 03       		.byte	0x3
 9348 2b15 00       		.byte	0
 9349 2b16 07       		.uleb128 0x7
 9350 2b17 10080000 		.4byte	.LASF589
 9351 2b1b 2B       		.byte	0x2b
 9352 2b1c 8101     		.2byte	0x181
 9353 2b1e F52A0000 		.4byte	0x2af5
 9354 2b22 1C       		.uleb128 0x1c
 9355 2b23 0C       		.byte	0xc
 9356 2b24 2B       		.byte	0x2b
 9357 2b25 8601     		.2byte	0x186
 9358 2b27 532B0000 		.4byte	0x2b53
 9359 2b2b 18       		.uleb128 0x18
 9360 2b2c FF150000 		.4byte	.LASF590
 9361 2b30 2B       		.byte	0x2b
 9362 2b31 8801     		.2byte	0x188
 9363 2b33 E92A0000 		.4byte	0x2ae9
 9364 2b37 00       		.byte	0
 9365 2b38 18       		.uleb128 0x18
 9366 2b39 6E030000 		.4byte	.LASF591
 9367 2b3d 2B       		.byte	0x2b
 9368 2b3e 8901     		.2byte	0x189
 9369 2b40 1C090000 		.4byte	0x91c
 9370 2b44 04       		.byte	0x4
 9371 2b45 18       		.uleb128 0x18
 9372 2b46 82270000 		.4byte	.LASF592
 9373 2b4a 2B       		.byte	0x2b
 9374 2b4b 8C01     		.2byte	0x18c
 9375 2b4d 162B0000 		.4byte	0x2b16
 9376 2b51 08       		.byte	0x8
 9377 2b52 00       		.byte	0
 9378 2b53 07       		.uleb128 0x7
 9379 2b54 BB010000 		.4byte	.LASF593
 9380 2b58 2B       		.byte	0x2b
 9381 2b59 8E01     		.2byte	0x18e
 9382 2b5b 222B0000 		.4byte	0x2b22
 9383 2b5f 0F       		.uleb128 0xf
 9384 2b60 532B0000 		.4byte	0x2b53
 9385 2b64 07       		.uleb128 0x7
 9386 2b65 8A040000 		.4byte	.LASF594
ARM GAS  C:\Users\Moi\AppData\Local\Temp\ccOzHcBd.s 			page 166


 9387 2b69 2B       		.byte	0x2b
 9388 2b6a 9301     		.2byte	0x193
 9389 2b6c 702B0000 		.4byte	0x2b70
 9390 2b70 1B       		.uleb128 0x1b
 9391 2b71 8A040000 		.4byte	.LASF594
 9392 2b75 3C       		.byte	0x3c
 9393 2b76 2B       		.byte	0x2b
 9394 2b77 9801     		.2byte	0x198
 9395 2b79 0D2C0000 		.4byte	0x2c0d
 9396 2b7d 18       		.uleb128 0x18
 9397 2b7e A5170000 		.4byte	.LASF463
 9398 2b82 2B       		.byte	0x2b
 9399 2b83 9C01     		.2byte	0x19c
 9400 2b85 A52A0000 		.4byte	0x2aa5
 9401 2b89 00       		.byte	0
 9402 2b8a 18       		.uleb128 0x18
 9403 2b8b 9E1D0000 		.4byte	.LASF464
 9404 2b8f 2B       		.byte	0x2b
 9405 2b90 A001     		.2byte	0x1a0
 9406 2b92 0D2C0000 		.4byte	0x2c0d
 9407 2b96 04       		.byte	0x4
 9408 2b97 18       		.uleb128 0x18
 9409 2b98 27010000 		.4byte	.LASF595
 9410 2b9c 2B       		.byte	0x2b
 9411 2b9d A401     		.2byte	0x1a4
 9412 2b9f BC2A0000 		.4byte	0x2abc
 9413 2ba3 08       		.byte	0x8
 9414 2ba4 18       		.uleb128 0x18
 9415 2ba5 DB0D0000 		.4byte	.LASF469
 9416 2ba9 2B       		.byte	0x2b
 9417 2baa A901     		.2byte	0x1a9
 9418 2bac 501B0000 		.4byte	0x1b50
 9419 2bb0 0C       		.byte	0xc
 9420 2bb1 18       		.uleb128 0x18
 9421 2bb2 28080000 		.4byte	.LASF468
 9422 2bb6 2B       		.byte	0x2b
 9423 2bb7 B201     		.2byte	0x1b2
 9424 2bb9 F90A0000 		.4byte	0xaf9
 9425 2bbd 20       		.byte	0x20
 9426 2bbe 18       		.uleb128 0x18
 9427 2bbf 6A0F0000 		.4byte	.LASF596
 9428 2bc3 2B       		.byte	0x2b
 9429 2bc4 B601     		.2byte	0x1b6
 9430 2bc6 B02A0000 		.4byte	0x2ab0
 9431 2bca 24       		.byte	0x24
 9432 2bcb 18       		.uleb128 0x18
 9433 2bcc B5090000 		.4byte	.LASF597
 9434 2bd0 2B       		.byte	0x2b
 9435 2bd1 BA01     		.2byte	0x1ba
 9436 2bd3 1C090000 		.4byte	0x91c
 9437 2bd7 28       		.byte	0x28
 9438 2bd8 18       		.uleb128 0x18
 9439 2bd9 0E0A0000 		.4byte	.LASF598
 9440 2bdd 2B       		.byte	0x2b
 9441 2bde BE01     		.2byte	0x1be
 9442 2be0 1C090000 		.4byte	0x91c
 9443 2be4 2C       		.byte	0x2c
ARM GAS  C:\Users\Moi\AppData\Local\Temp\ccOzHcBd.s 			page 167


 9444 2be5 18       		.uleb128 0x18
 9445 2be6 E8000000 		.4byte	.LASF599
 9446 2bea 2B       		.byte	0x2b
 9447 2beb C201     		.2byte	0x1c2
 9448 2bed 4F230000 		.4byte	0x234f
 9449 2bf1 30       		.byte	0x30
 9450 2bf2 18       		.uleb128 0x18
 9451 2bf3 CE010000 		.4byte	.LASF600
 9452 2bf7 2B       		.byte	0x2b
 9453 2bf8 C601     		.2byte	0x1c6
 9454 2bfa 4F230000 		.4byte	0x234f
 9455 2bfe 34       		.byte	0x34
 9456 2bff 21       		.uleb128 0x21
 9457 2c00 69326300 		.ascii	"i2c\000"
 9458 2c04 2B       		.byte	0x2b
 9459 2c05 CA01     		.2byte	0x1ca
 9460 2c07 132C0000 		.4byte	0x2c13
 9461 2c0b 38       		.byte	0x38
 9462 2c0c 00       		.byte	0
 9463 2c0d 05       		.uleb128 0x5
 9464 2c0e 04       		.byte	0x4
 9465 2c0f 5F2B0000 		.4byte	0x2b5f
 9466 2c13 05       		.uleb128 0x5
 9467 2c14 04       		.byte	0x4
 9468 2c15 B3120000 		.4byte	0x12b3
 9469 2c19 20       		.uleb128 0x20
 9470 2c1a 86120000 		.4byte	.LASF601
 9471 2c1e 2B       		.byte	0x2b
 9472 2c1f E001     		.2byte	0x1e0
 9473 2c21 642B0000 		.4byte	0x2b64
 9474 2c25 27       		.uleb128 0x27
 9475 2c26 07       		.byte	0x7
 9476 2c27 01       		.byte	0x1
 9477 2c28 5E000000 		.4byte	0x5e
 9478 2c2c 2C       		.byte	0x2c
 9479 2c2d 39       		.byte	0x39
 9480 2c2e 512C0000 		.4byte	0x2c51
 9481 2c32 28       		.uleb128 0x28
 9482 2c33 FA100000 		.4byte	.LASF602
 9483 2c37 00       		.byte	0
 9484 2c38 28       		.uleb128 0x28
 9485 2c39 BA0D0000 		.4byte	.LASF603
 9486 2c3d 01       		.byte	0x1
 9487 2c3e 28       		.uleb128 0x28
 9488 2c3f 47160000 		.4byte	.LASF604
 9489 2c43 02       		.byte	0x2
 9490 2c44 28       		.uleb128 0x28
 9491 2c45 B81A0000 		.4byte	.LASF605
 9492 2c49 03       		.byte	0x3
 9493 2c4a 28       		.uleb128 0x28
 9494 2c4b 48200000 		.4byte	.LASF606
 9495 2c4f 04       		.byte	0x4
 9496 2c50 00       		.byte	0
 9497 2c51 04       		.uleb128 0x4
 9498 2c52 D8230000 		.4byte	.LASF607
 9499 2c56 2C       		.byte	0x2c
 9500 2c57 3F       		.byte	0x3f
ARM GAS  C:\Users\Moi\AppData\Local\Temp\ccOzHcBd.s 			page 168


 9501 2c58 252C0000 		.4byte	0x2c25
 9502 2c5c 04       		.uleb128 0x4
 9503 2c5d 78270000 		.4byte	.LASF608
 9504 2c61 2D       		.byte	0x2d
 9505 2c62 E2       		.byte	0xe2
 9506 2c63 672C0000 		.4byte	0x2c67
 9507 2c67 1B       		.uleb128 0x1b
 9508 2c68 78270000 		.4byte	.LASF608
 9509 2c6c 20       		.byte	0x20
 9510 2c6d 2D       		.byte	0x2d
 9511 2c6e 1B01     		.2byte	0x11b
 9512 2c70 DD2C0000 		.4byte	0x2cdd
 9513 2c74 18       		.uleb128 0x18
 9514 2c75 A5170000 		.4byte	.LASF463
 9515 2c79 2D       		.byte	0x2d
 9516 2c7a 1F01     		.2byte	0x11f
 9517 2c7c 512C0000 		.4byte	0x2c51
 9518 2c80 00       		.byte	0
 9519 2c81 18       		.uleb128 0x18
 9520 2c82 9E1D0000 		.4byte	.LASF464
 9521 2c86 2D       		.byte	0x2d
 9522 2c87 2301     		.2byte	0x123
 9523 2c89 752D0000 		.4byte	0x2d75
 9524 2c8d 04       		.byte	0x4
 9525 2c8e 21       		.uleb128 0x21
 9526 2c8f 73706900 		.ascii	"spi\000"
 9527 2c93 2D       		.byte	0x2d
 9528 2c94 2801     		.2byte	0x128
 9529 2c96 7B2D0000 		.4byte	0x2d7b
 9530 2c9a 08       		.byte	0x8
 9531 2c9b 21       		.uleb128 0x21
 9532 2c9c 63666700 		.ascii	"cfg\000"
 9533 2ca0 2D       		.byte	0x2d
 9534 2ca1 2C01     		.2byte	0x12c
 9535 2ca3 01090000 		.4byte	0x901
 9536 2ca7 0C       		.byte	0xc
 9537 2ca8 18       		.uleb128 0x18
 9538 2ca9 E8000000 		.4byte	.LASF599
 9539 2cad 2D       		.byte	0x2d
 9540 2cae 3001     		.2byte	0x130
 9541 2cb0 4F230000 		.4byte	0x234f
 9542 2cb4 10       		.byte	0x10
 9543 2cb5 18       		.uleb128 0x18
 9544 2cb6 CE010000 		.4byte	.LASF600
 9545 2cba 2D       		.byte	0x2d
 9546 2cbb 3401     		.2byte	0x134
 9547 2cbd 4F230000 		.4byte	0x234f
 9548 2cc1 14       		.byte	0x14
 9549 2cc2 18       		.uleb128 0x18
 9550 2cc3 B5090000 		.4byte	.LASF597
 9551 2cc7 2D       		.byte	0x2d
 9552 2cc8 3801     		.2byte	0x138
 9553 2cca 1C090000 		.4byte	0x91c
 9554 2cce 18       		.byte	0x18
 9555 2ccf 18       		.uleb128 0x18
 9556 2cd0 0E0A0000 		.4byte	.LASF598
 9557 2cd4 2D       		.byte	0x2d
ARM GAS  C:\Users\Moi\AppData\Local\Temp\ccOzHcBd.s 			page 169


 9558 2cd5 3C01     		.2byte	0x13c
 9559 2cd7 1C090000 		.4byte	0x91c
 9560 2cdb 1C       		.byte	0x1c
 9561 2cdc 00       		.byte	0
 9562 2cdd 04       		.uleb128 0x4
 9563 2cde FA090000 		.4byte	.LASF609
 9564 2ce2 2D       		.byte	0x2d
 9565 2ce3 EB       		.byte	0xeb
 9566 2ce4 E82C0000 		.4byte	0x2ce8
 9567 2ce8 05       		.uleb128 0x5
 9568 2ce9 04       		.byte	0x4
 9569 2cea EE2C0000 		.4byte	0x2cee
 9570 2cee 1F       		.uleb128 0x1f
 9571 2cef 032D0000 		.4byte	0x2d03
 9572 2cf3 16       		.uleb128 0x16
 9573 2cf4 032D0000 		.4byte	0x2d03
 9574 2cf8 16       		.uleb128 0x16
 9575 2cf9 33000000 		.4byte	0x33
 9576 2cfd 16       		.uleb128 0x16
 9577 2cfe 33000000 		.4byte	0x33
 9578 2d02 00       		.byte	0
 9579 2d03 05       		.uleb128 0x5
 9580 2d04 04       		.byte	0x4
 9581 2d05 5C2C0000 		.4byte	0x2c5c
 9582 2d09 0C       		.uleb128 0xc
 9583 2d0a 14       		.byte	0x14
 9584 2d0b 2D       		.byte	0x2d
 9585 2d0c F1       		.byte	0xf1
 9586 2d0d 5D2D0000 		.4byte	0x2d5d
 9587 2d11 0D       		.uleb128 0xd
 9588 2d12 49010000 		.4byte	.LASF610
 9589 2d16 2D       		.byte	0x2d
 9590 2d17 F6       		.byte	0xf6
 9591 2d18 5D2D0000 		.4byte	0x2d5d
 9592 2d1c 00       		.byte	0
 9593 2d1d 0D       		.uleb128 0xd
 9594 2d1e 1D010000 		.4byte	.LASF611
 9595 2d22 2D       		.byte	0x2d
 9596 2d23 FB       		.byte	0xfb
 9597 2d24 5D010000 		.4byte	0x15d
 9598 2d28 04       		.byte	0x4
 9599 2d29 0D       		.uleb128 0xd
 9600 2d2a E10D0000 		.4byte	.LASF612
 9601 2d2e 2D       		.byte	0x2d
 9602 2d2f FF       		.byte	0xff
 9603 2d30 33000000 		.4byte	0x33
 9604 2d34 08       		.byte	0x8
 9605 2d35 18       		.uleb128 0x18
 9606 2d36 8F0A0000 		.4byte	.LASF476
 9607 2d3a 2D       		.byte	0x2d
 9608 2d3b 0301     		.2byte	0x103
 9609 2d3d DD2C0000 		.4byte	0x2cdd
 9610 2d41 0C       		.byte	0xc
 9611 2d42 18       		.uleb128 0x18
 9612 2d43 231B0000 		.4byte	.LASF613
 9613 2d47 2D       		.byte	0x2d
 9614 2d48 0F01     		.2byte	0x10f
ARM GAS  C:\Users\Moi\AppData\Local\Temp\ccOzHcBd.s 			page 170


 9615 2d4a F6080000 		.4byte	0x8f6
 9616 2d4e 10       		.byte	0x10
 9617 2d4f 18       		.uleb128 0x18
 9618 2d50 E1070000 		.4byte	.LASF614
 9619 2d54 2D       		.byte	0x2d
 9620 2d55 1501     		.2byte	0x115
 9621 2d57 F6080000 		.4byte	0x8f6
 9622 2d5b 12       		.byte	0x12
 9623 2d5c 00       		.byte	0
 9624 2d5d 05       		.uleb128 0x5
 9625 2d5e 04       		.byte	0x4
 9626 2d5f 632D0000 		.4byte	0x2d63
 9627 2d63 2B       		.uleb128 0x2b
 9628 2d64 07       		.uleb128 0x7
 9629 2d65 8D270000 		.4byte	.LASF615
 9630 2d69 2D       		.byte	0x2d
 9631 2d6a 1601     		.2byte	0x116
 9632 2d6c 092D0000 		.4byte	0x2d09
 9633 2d70 0F       		.uleb128 0xf
 9634 2d71 642D0000 		.4byte	0x2d64
 9635 2d75 05       		.uleb128 0x5
 9636 2d76 04       		.byte	0x4
 9637 2d77 702D0000 		.4byte	0x2d70
 9638 2d7b 05       		.uleb128 0x5
 9639 2d7c 04       		.byte	0x4
 9640 2d7d 01160000 		.4byte	0x1601
 9641 2d81 20       		.uleb128 0x20
 9642 2d82 D3270000 		.4byte	.LASF616
 9643 2d86 2D       		.byte	0x2d
 9644 2d87 4801     		.2byte	0x148
 9645 2d89 5C2C0000 		.4byte	0x2c5c
 9646 2d8d 27       		.uleb128 0x27
 9647 2d8e 07       		.byte	0x7
 9648 2d8f 01       		.byte	0x1
 9649 2d90 5E000000 		.4byte	0x5e
 9650 2d94 2E       		.byte	0x2e
 9651 2d95 4A       		.byte	0x4a
 9652 2d96 AD2D0000 		.4byte	0x2dad
 9653 2d9a 28       		.uleb128 0x28
 9654 2d9b 83080000 		.4byte	.LASF617
 9655 2d9f 00       		.byte	0
 9656 2da0 28       		.uleb128 0x28
 9657 2da1 C30D0000 		.4byte	.LASF618
 9658 2da5 01       		.byte	0x1
 9659 2da6 28       		.uleb128 0x28
 9660 2da7 21110000 		.4byte	.LASF619
 9661 2dab 02       		.byte	0x2
 9662 2dac 00       		.byte	0
 9663 2dad 04       		.uleb128 0x4
 9664 2dae 29030000 		.4byte	.LASF620
 9665 2db2 2E       		.byte	0x2e
 9666 2db3 4E       		.byte	0x4e
 9667 2db4 8D2D0000 		.4byte	0x2d8d
 9668 2db8 04       		.uleb128 0x4
 9669 2db9 E70C0000 		.4byte	.LASF621
 9670 2dbd 2E       		.byte	0x2e
 9671 2dbe 53       		.byte	0x53
ARM GAS  C:\Users\Moi\AppData\Local\Temp\ccOzHcBd.s 			page 171


 9672 2dbf C32D0000 		.4byte	0x2dc3
 9673 2dc3 1B       		.uleb128 0x1b
 9674 2dc4 E70C0000 		.4byte	.LASF621
 9675 2dc8 1C       		.byte	0x1c
 9676 2dc9 2F       		.byte	0x2f
 9677 2dca 7901     		.2byte	0x179
 9678 2dcc 2C2E0000 		.4byte	0x2e2c
 9679 2dd0 18       		.uleb128 0x18
 9680 2dd1 A5170000 		.4byte	.LASF463
 9681 2dd5 2F       		.byte	0x2f
 9682 2dd6 7D01     		.2byte	0x17d
 9683 2dd8 AD2D0000 		.4byte	0x2dad
 9684 2ddc 00       		.byte	0
 9685 2ddd 18       		.uleb128 0x18
 9686 2dde 9E1D0000 		.4byte	.LASF464
 9687 2de2 2F       		.byte	0x2f
 9688 2de3 8101     		.2byte	0x181
 9689 2de5 272F0000 		.4byte	0x2f27
 9690 2de9 04       		.byte	0x4
 9691 2dea 18       		.uleb128 0x18
 9692 2deb F2130000 		.4byte	.LASF622
 9693 2def 2F       		.byte	0x2f
 9694 2df0 8501     		.2byte	0x185
 9695 2df2 722E0000 		.4byte	0x2e72
 9696 2df6 08       		.byte	0x8
 9697 2df7 18       		.uleb128 0x18
 9698 2df8 981B0000 		.4byte	.LASF623
 9699 2dfc 2F       		.byte	0x2f
 9700 2dfd 8901     		.2byte	0x189
 9701 2dff 662E0000 		.4byte	0x2e66
 9702 2e03 0C       		.byte	0xc
 9703 2e04 18       		.uleb128 0x18
 9704 2e05 E7220000 		.4byte	.LASF544
 9705 2e09 2F       		.byte	0x2f
 9706 2e0a 8D01     		.2byte	0x18d
 9707 2e0c 5A2E0000 		.4byte	0x2e5a
 9708 2e10 10       		.byte	0x10
 9709 2e11 18       		.uleb128 0x18
 9710 2e12 040E0000 		.4byte	.LASF554
 9711 2e16 2F       		.byte	0x2f
 9712 2e17 9501     		.2byte	0x195
 9713 2e19 1C090000 		.4byte	0x91c
 9714 2e1d 14       		.byte	0x14
 9715 2e1e 21       		.uleb128 0x21
 9716 2e1f 74696D00 		.ascii	"tim\000"
 9717 2e23 2F       		.byte	0x2f
 9718 2e24 9901     		.2byte	0x199
 9719 2e26 552A0000 		.4byte	0x2a55
 9720 2e2a 18       		.byte	0x18
 9721 2e2b 00       		.byte	0
 9722 2e2c 04       		.uleb128 0x4
 9723 2e2d D1110000 		.4byte	.LASF624
 9724 2e31 2E       		.byte	0x2e
 9725 2e32 5A       		.byte	0x5a
 9726 2e33 372E0000 		.4byte	0x2e37
 9727 2e37 05       		.uleb128 0x5
 9728 2e38 04       		.byte	0x4
ARM GAS  C:\Users\Moi\AppData\Local\Temp\ccOzHcBd.s 			page 172


 9729 2e39 3D2E0000 		.4byte	0x2e3d
 9730 2e3d 1F       		.uleb128 0x1f
 9731 2e3e 482E0000 		.4byte	0x2e48
 9732 2e42 16       		.uleb128 0x16
 9733 2e43 482E0000 		.4byte	0x2e48
 9734 2e47 00       		.byte	0
 9735 2e48 05       		.uleb128 0x5
 9736 2e49 04       		.byte	0x4
 9737 2e4a B82D0000 		.4byte	0x2db8
 9738 2e4e 07       		.uleb128 0x7
 9739 2e4f A0160000 		.4byte	.LASF625
 9740 2e53 2F       		.byte	0x2f
 9741 2e54 2501     		.2byte	0x125
 9742 2e56 1C090000 		.4byte	0x91c
 9743 2e5a 07       		.uleb128 0x7
 9744 2e5b 00190000 		.4byte	.LASF626
 9745 2e5f 2F       		.byte	0x2f
 9746 2e60 2A01     		.2byte	0x12a
 9747 2e62 E6080000 		.4byte	0x8e6
 9748 2e66 07       		.uleb128 0x7
 9749 2e67 13160000 		.4byte	.LASF627
 9750 2e6b 2F       		.byte	0x2f
 9751 2e6c 2F01     		.2byte	0x12f
 9752 2e6e 1C090000 		.4byte	0x91c
 9753 2e72 07       		.uleb128 0x7
 9754 2e73 BC0E0000 		.4byte	.LASF628
 9755 2e77 2F       		.byte	0x2f
 9756 2e78 3401     		.2byte	0x134
 9757 2e7a 1C090000 		.4byte	0x91c
 9758 2e7e 1C       		.uleb128 0x1c
 9759 2e7f 08       		.byte	0x8
 9760 2e80 2F       		.byte	0x2f
 9761 2e81 3901     		.2byte	0x139
 9762 2e83 A22E0000 		.4byte	0x2ea2
 9763 2e87 18       		.uleb128 0x18
 9764 2e88 C9090000 		.4byte	.LASF542
 9765 2e8c 2F       		.byte	0x2f
 9766 2e8d 3D01     		.2byte	0x13d
 9767 2e8f 4E2E0000 		.4byte	0x2e4e
 9768 2e93 00       		.byte	0
 9769 2e94 18       		.uleb128 0x18
 9770 2e95 FF170000 		.4byte	.LASF568
 9771 2e99 2F       		.byte	0x2f
 9772 2e9a 4301     		.2byte	0x143
 9773 2e9c 2C2E0000 		.4byte	0x2e2c
 9774 2ea0 04       		.byte	0x4
 9775 2ea1 00       		.byte	0
 9776 2ea2 07       		.uleb128 0x7
 9777 2ea3 AB0E0000 		.4byte	.LASF629
 9778 2ea7 2F       		.byte	0x2f
 9779 2ea8 4501     		.2byte	0x145
 9780 2eaa 7E2E0000 		.4byte	0x2e7e
 9781 2eae 1C       		.uleb128 0x1c
 9782 2eaf 34       		.byte	0x34
 9783 2eb0 2F       		.byte	0x2f
 9784 2eb1 4A01     		.2byte	0x14a
 9785 2eb3 062F0000 		.4byte	0x2f06
ARM GAS  C:\Users\Moi\AppData\Local\Temp\ccOzHcBd.s 			page 173


 9786 2eb7 18       		.uleb128 0x18
 9787 2eb8 03260000 		.4byte	.LASF567
 9788 2ebc 2F       		.byte	0x2f
 9789 2ebd 5001     		.2byte	0x150
 9790 2ebf 1C090000 		.4byte	0x91c
 9791 2ec3 00       		.byte	0
 9792 2ec4 18       		.uleb128 0x18
 9793 2ec5 F2130000 		.4byte	.LASF622
 9794 2ec9 2F       		.byte	0x2f
 9795 2eca 5601     		.2byte	0x156
 9796 2ecc 722E0000 		.4byte	0x2e72
 9797 2ed0 04       		.byte	0x4
 9798 2ed1 18       		.uleb128 0x18
 9799 2ed2 FF170000 		.4byte	.LASF568
 9800 2ed6 2F       		.byte	0x2f
 9801 2ed7 5C01     		.2byte	0x15c
 9802 2ed9 2C2E0000 		.4byte	0x2e2c
 9803 2edd 08       		.byte	0x8
 9804 2ede 18       		.uleb128 0x18
 9805 2edf E7220000 		.4byte	.LASF544
 9806 2ee3 2F       		.byte	0x2f
 9807 2ee4 6001     		.2byte	0x160
 9808 2ee6 062F0000 		.4byte	0x2f06
 9809 2eea 0C       		.byte	0xc
 9810 2eeb 21       		.uleb128 0x21
 9811 2eec 63723200 		.ascii	"cr2\000"
 9812 2ef0 2F       		.byte	0x2f
 9813 2ef1 6601     		.2byte	0x166
 9814 2ef3 1C090000 		.4byte	0x91c
 9815 2ef7 2C       		.byte	0x2c
 9816 2ef8 18       		.uleb128 0x18
 9817 2ef9 7E0D0000 		.4byte	.LASF569
 9818 2efd 2F       		.byte	0x2f
 9819 2efe 7301     		.2byte	0x173
 9820 2f00 1C090000 		.4byte	0x91c
 9821 2f04 30       		.byte	0x30
 9822 2f05 00       		.byte	0
 9823 2f06 0A       		.uleb128 0xa
 9824 2f07 A22E0000 		.4byte	0x2ea2
 9825 2f0b 162F0000 		.4byte	0x2f16
 9826 2f0f 0B       		.uleb128 0xb
 9827 2f10 25000000 		.4byte	0x25
 9828 2f14 03       		.byte	0x3
 9829 2f15 00       		.byte	0
 9830 2f16 07       		.uleb128 0x7
 9831 2f17 F80C0000 		.4byte	.LASF630
 9832 2f1b 2F       		.byte	0x2f
 9833 2f1c 7401     		.2byte	0x174
 9834 2f1e AE2E0000 		.4byte	0x2eae
 9835 2f22 0F       		.uleb128 0xf
 9836 2f23 162F0000 		.4byte	0x2f16
 9837 2f27 05       		.uleb128 0x5
 9838 2f28 04       		.byte	0x4
 9839 2f29 222F0000 		.4byte	0x2f22
 9840 2f2d 20       		.uleb128 0x20
 9841 2f2e B7120000 		.4byte	.LASF631
 9842 2f32 2F       		.byte	0x2f
ARM GAS  C:\Users\Moi\AppData\Local\Temp\ccOzHcBd.s 			page 174


 9843 2f33 BC01     		.2byte	0x1bc
 9844 2f35 B82D0000 		.4byte	0x2db8
 9845 2f39 20       		.uleb128 0x20
 9846 2f3a BD120000 		.4byte	.LASF632
 9847 2f3e 2F       		.byte	0x2f
 9848 2f3f C001     		.2byte	0x1c0
 9849 2f41 B82D0000 		.4byte	0x2db8
 9850 2f45 20       		.uleb128 0x20
 9851 2f46 C3120000 		.4byte	.LASF633
 9852 2f4a 2F       		.byte	0x2f
 9853 2f4b C401     		.2byte	0x1c4
 9854 2f4d B82D0000 		.4byte	0x2db8
 9855 2f51 20       		.uleb128 0x20
 9856 2f52 C9120000 		.4byte	.LASF634
 9857 2f56 2F       		.byte	0x2f
 9858 2f57 C801     		.2byte	0x1c8
 9859 2f59 B82D0000 		.4byte	0x2db8
 9860 2f5d 27       		.uleb128 0x27
 9861 2f5e 07       		.byte	0x7
 9862 2f5f 01       		.byte	0x1
 9863 2f60 5E000000 		.4byte	0x5e
 9864 2f64 30       		.byte	0x30
 9865 2f65 55       		.byte	0x55
 9866 2f66 7D2F0000 		.4byte	0x2f7d
 9867 2f6a 28       		.uleb128 0x28
 9868 2f6b C9070000 		.4byte	.LASF635
 9869 2f6f 00       		.byte	0
 9870 2f70 28       		.uleb128 0x28
 9871 2f71 370E0000 		.4byte	.LASF636
 9872 2f75 01       		.byte	0x1
 9873 2f76 28       		.uleb128 0x28
 9874 2f77 96100000 		.4byte	.LASF637
 9875 2f7b 02       		.byte	0x2
 9876 2f7c 00       		.byte	0
 9877 2f7d 04       		.uleb128 0x4
 9878 2f7e 0B1A0000 		.4byte	.LASF638
 9879 2f82 30       		.byte	0x30
 9880 2f83 59       		.byte	0x59
 9881 2f84 5D2F0000 		.4byte	0x2f5d
 9882 2f88 04       		.uleb128 0x4
 9883 2f89 12230000 		.4byte	.LASF639
 9884 2f8d 30       		.byte	0x30
 9885 2f8e 5E       		.byte	0x5e
 9886 2f8f 932F0000 		.4byte	0x2f93
 9887 2f93 10       		.uleb128 0x10
 9888 2f94 12230000 		.4byte	.LASF639
 9889 2f98 78       		.byte	0x78
 9890 2f99 30       		.byte	0x30
 9891 2f9a 78       		.byte	0x78
 9892 2f9b FE2F0000 		.4byte	0x2ffe
 9893 2f9f 11       		.uleb128 0x11
 9894 2fa0 766D7400 		.ascii	"vmt\000"
 9895 2fa4 30       		.byte	0x30
 9896 2fa5 7A       		.byte	0x7a
 9897 2fa6 7C300000 		.4byte	0x307c
 9898 2faa 00       		.byte	0
 9899 2fab 0D       		.uleb128 0xd
ARM GAS  C:\Users\Moi\AppData\Local\Temp\ccOzHcBd.s 			page 175


 9900 2fac 32000000 		.4byte	.LASF640
 9901 2fb0 30       		.byte	0x30
 9902 2fb1 7B       		.byte	0x7b
 9903 2fb2 D41B0000 		.4byte	0x1bd4
 9904 2fb6 04       		.byte	0x4
 9905 2fb7 0D       		.uleb128 0xd
 9906 2fb8 A5170000 		.4byte	.LASF463
 9907 2fbc 30       		.byte	0x30
 9908 2fbd 7B       		.byte	0x7b
 9909 2fbe 7D2F0000 		.4byte	0x2f7d
 9910 2fc2 08       		.byte	0x8
 9911 2fc3 0D       		.uleb128 0xd
 9912 2fc4 EC190000 		.4byte	.LASF641
 9913 2fc8 30       		.byte	0x30
 9914 2fc9 7B       		.byte	0x7b
 9915 2fca 7F1C0000 		.4byte	0x1c7f
 9916 2fce 0C       		.byte	0xc
 9917 2fcf 0D       		.uleb128 0xd
 9918 2fd0 D9120000 		.4byte	.LASF642
 9919 2fd4 30       		.byte	0x30
 9920 2fd5 7B       		.byte	0x7b
 9921 2fd6 8A1C0000 		.4byte	0x1c8a
 9922 2fda 30       		.byte	0x30
 9923 2fdb 11       		.uleb128 0x11
 9924 2fdc 696200   		.ascii	"ib\000"
 9925 2fdf 30       		.byte	0x30
 9926 2fe0 7B       		.byte	0x7b
 9927 2fe1 82300000 		.4byte	0x3082
 9928 2fe5 54       		.byte	0x54
 9929 2fe6 11       		.uleb128 0x11
 9930 2fe7 6F6200   		.ascii	"ob\000"
 9931 2fea 30       		.byte	0x30
 9932 2feb 7B       		.byte	0x7b
 9933 2fec 82300000 		.4byte	0x3082
 9934 2ff0 64       		.byte	0x64
 9935 2ff1 0D       		.uleb128 0xd
 9936 2ff2 C01B0000 		.4byte	.LASF643
 9937 2ff6 30       		.byte	0x30
 9938 2ff7 7B       		.byte	0x7b
 9939 2ff8 92300000 		.4byte	0x3092
 9940 2ffc 74       		.byte	0x74
 9941 2ffd 00       		.byte	0
 9942 2ffe 26       		.uleb128 0x26
 9943 2fff 53443300 		.ascii	"SD3\000"
 9944 3003 31       		.byte	0x31
 9945 3004 1501     		.2byte	0x115
 9946 3006 882F0000 		.4byte	0x2f88
 9947 300a 10       		.uleb128 0x10
 9948 300b 23100000 		.4byte	.LASF644
 9949 300f 20       		.byte	0x20
 9950 3010 30       		.byte	0x30
 9951 3011 6D       		.byte	0x6d
 9952 3012 77300000 		.4byte	0x3077
 9953 3016 0D       		.uleb128 0xd
 9954 3017 DB190000 		.4byte	.LASF645
 9955 301b 30       		.byte	0x30
 9956 301c 6E       		.byte	0x6e
ARM GAS  C:\Users\Moi\AppData\Local\Temp\ccOzHcBd.s 			page 176


 9957 301d B41C0000 		.4byte	0x1cb4
 9958 3021 00       		.byte	0
 9959 3022 0D       		.uleb128 0xd
 9960 3023 A2040000 		.4byte	.LASF646
 9961 3027 30       		.byte	0x30
 9962 3028 6E       		.byte	0x6e
 9963 3029 D31C0000 		.4byte	0x1cd3
 9964 302d 04       		.byte	0x4
 9965 302e 11       		.uleb128 0x11
 9966 302f 70757400 		.ascii	"put\000"
 9967 3033 30       		.byte	0x30
 9968 3034 6E       		.byte	0x6e
 9969 3035 ED1C0000 		.4byte	0x1ced
 9970 3039 08       		.byte	0x8
 9971 303a 11       		.uleb128 0x11
 9972 303b 67657400 		.ascii	"get\000"
 9973 303f 30       		.byte	0x30
 9974 3040 6E       		.byte	0x6e
 9975 3041 021D0000 		.4byte	0x1d02
 9976 3045 0C       		.byte	0xc
 9977 3046 0D       		.uleb128 0xd
 9978 3047 18150000 		.4byte	.LASF647
 9979 304b 30       		.byte	0x30
 9980 304c 6E       		.byte	0x6e
 9981 304d A31D0000 		.4byte	0x1da3
 9982 3051 10       		.byte	0x10
 9983 3052 0D       		.uleb128 0xd
 9984 3053 C1190000 		.4byte	.LASF648
 9985 3057 30       		.byte	0x30
 9986 3058 6E       		.byte	0x6e
 9987 3059 BD1D0000 		.4byte	0x1dbd
 9988 305d 14       		.byte	0x14
 9989 305e 0D       		.uleb128 0xd
 9990 305f 33240000 		.4byte	.LASF649
 9991 3063 30       		.byte	0x30
 9992 3064 6E       		.byte	0x6e
 9993 3065 E11D0000 		.4byte	0x1de1
 9994 3069 18       		.byte	0x18
 9995 306a 0D       		.uleb128 0xd
 9996 306b 32140000 		.4byte	.LASF650
 9997 306f 30       		.byte	0x30
 9998 3070 6E       		.byte	0x6e
 9999 3071 051E0000 		.4byte	0x1e05
 10000 3075 1C       		.byte	0x1c
 10001 3076 00       		.byte	0
 10002 3077 0F       		.uleb128 0xf
 10003 3078 0A300000 		.4byte	0x300a
 10004 307c 05       		.uleb128 0x5
 10005 307d 04       		.byte	0x4
 10006 307e 77300000 		.4byte	0x3077
 10007 3082 0A       		.uleb128 0xa
 10008 3083 E6080000 		.4byte	0x8e6
 10009 3087 92300000 		.4byte	0x3092
 10010 308b 0B       		.uleb128 0xb
 10011 308c 25000000 		.4byte	0x25
 10012 3090 0F       		.byte	0xf
 10013 3091 00       		.byte	0
ARM GAS  C:\Users\Moi\AppData\Local\Temp\ccOzHcBd.s 			page 177


 10014 3092 05       		.uleb128 0x5
 10015 3093 04       		.byte	0x4
 10016 3094 70160000 		.4byte	0x1670
 10017 3098 27       		.uleb128 0x27
 10018 3099 07       		.byte	0x7
 10019 309a 01       		.byte	0x1
 10020 309b 5E000000 		.4byte	0x5e
 10021 309f 32       		.byte	0x32
 10022 30a0 6C       		.byte	0x6c
 10023 30a1 B8300000 		.4byte	0x30b8
 10024 30a5 28       		.uleb128 0x28
 10025 30a6 F3020000 		.4byte	.LASF651
 10026 30aa 00       		.byte	0
 10027 30ab 28       		.uleb128 0x28
 10028 30ac BC160000 		.4byte	.LASF652
 10029 30b0 01       		.byte	0x1
 10030 30b1 28       		.uleb128 0x28
 10031 30b2 C9130000 		.4byte	.LASF653
 10032 30b6 02       		.byte	0x2
 10033 30b7 00       		.byte	0
 10034 30b8 04       		.uleb128 0x4
 10035 30b9 A91C0000 		.4byte	.LASF654
 10036 30bd 32       		.byte	0x32
 10037 30be 70       		.byte	0x70
 10038 30bf 98300000 		.4byte	0x3098
 10039 30c3 04       		.uleb128 0x4
 10040 30c4 E31B0000 		.4byte	.LASF655
 10041 30c8 33       		.byte	0x33
 10042 30c9 BF       		.byte	0xbf
 10043 30ca 1C090000 		.4byte	0x91c
 10044 30ce 04       		.uleb128 0x4
 10045 30cf 8D000000 		.4byte	.LASF656
 10046 30d3 33       		.byte	0x33
 10047 30d4 C4       		.byte	0xc4
 10048 30d5 1C090000 		.4byte	0x91c
 10049 30d9 04       		.uleb128 0x4
 10050 30da F6220000 		.4byte	.LASF657
 10051 30de 33       		.byte	0x33
 10052 30df C9       		.byte	0xc9
 10053 30e0 E4300000 		.4byte	0x30e4
 10054 30e4 10       		.uleb128 0x10
 10055 30e5 F6220000 		.4byte	.LASF657
 10056 30e9 4C       		.byte	0x4c
 10057 30ea 33       		.byte	0x33
 10058 30eb F2       		.byte	0xf2
 10059 30ec 93310000 		.4byte	0x3193
 10060 30f0 11       		.uleb128 0x11
 10061 30f1 766D7400 		.ascii	"vmt\000"
 10062 30f5 33       		.byte	0x33
 10063 30f6 F6       		.byte	0xf6
 10064 30f7 36320000 		.4byte	0x3236
 10065 30fb 00       		.byte	0
 10066 30fc 0D       		.uleb128 0xd
 10067 30fd A5170000 		.4byte	.LASF463
 10068 3101 33       		.byte	0x33
 10069 3102 F7       		.byte	0xf7
 10070 3103 4F1E0000 		.4byte	0x1e4f
ARM GAS  C:\Users\Moi\AppData\Local\Temp\ccOzHcBd.s 			page 178


 10071 3107 04       		.byte	0x4
 10072 3108 11       		.uleb128 0x11
 10073 3109 63696400 		.ascii	"cid\000"
 10074 310d 33       		.byte	0x33
 10075 310e F7       		.byte	0xf7
 10076 310f 0A1F0000 		.4byte	0x1f0a
 10077 3113 08       		.byte	0x8
 10078 3114 11       		.uleb128 0x11
 10079 3115 63736400 		.ascii	"csd\000"
 10080 3119 33       		.byte	0x33
 10081 311a F7       		.byte	0xf7
 10082 311b 0A1F0000 		.4byte	0x1f0a
 10083 311f 18       		.byte	0x18
 10084 3120 0D       		.uleb128 0xd
 10085 3121 6D1E0000 		.4byte	.LASF658
 10086 3125 33       		.byte	0x33
 10087 3126 F7       		.byte	0xf7
 10088 3127 1C090000 		.4byte	0x91c
 10089 312b 28       		.byte	0x28
 10090 312c 0D       		.uleb128 0xd
 10091 312d 9E1D0000 		.4byte	.LASF464
 10092 3131 33       		.byte	0x33
 10093 3132 FB       		.byte	0xfb
 10094 3133 3C320000 		.4byte	0x323c
 10095 3137 2C       		.byte	0x2c
 10096 3138 0D       		.uleb128 0xd
 10097 3139 3A040000 		.4byte	.LASF659
 10098 313d 33       		.byte	0x33
 10099 313e FF       		.byte	0xff
 10100 313f C3300000 		.4byte	0x30c3
 10101 3143 30       		.byte	0x30
 10102 3144 18       		.uleb128 0x18
 10103 3145 27010000 		.4byte	.LASF595
 10104 3149 33       		.byte	0x33
 10105 314a 0301     		.2byte	0x103
 10106 314c CE300000 		.4byte	0x30ce
 10107 3150 34       		.byte	0x34
 10108 3151 21       		.uleb128 0x21
 10109 3152 72636100 		.ascii	"rca\000"
 10110 3156 33       		.byte	0x33
 10111 3157 0701     		.2byte	0x107
 10112 3159 1C090000 		.4byte	0x91c
 10113 315d 38       		.byte	0x38
 10114 315e 18       		.uleb128 0x18
 10115 315f 28080000 		.4byte	.LASF468
 10116 3163 33       		.byte	0x33
 10117 3164 0C01     		.2byte	0x10c
 10118 3166 F90A0000 		.4byte	0xaf9
 10119 316a 3C       		.byte	0x3c
 10120 316b 18       		.uleb128 0x18
 10121 316c 9D190000 		.4byte	.LASF471
 10122 3170 33       		.byte	0x33
 10123 3171 1001     		.2byte	0x110
 10124 3173 1C090000 		.4byte	0x91c
 10125 3177 40       		.byte	0x40
 10126 3178 21       		.uleb128 0x21
 10127 3179 646D6100 		.ascii	"dma\000"
ARM GAS  C:\Users\Moi\AppData\Local\Temp\ccOzHcBd.s 			page 179


 10128 317d 33       		.byte	0x33
 10129 317e 1401     		.2byte	0x114
 10130 3180 4F230000 		.4byte	0x234f
 10131 3184 44       		.byte	0x44
 10132 3185 18       		.uleb128 0x18
 10133 3186 BD170000 		.4byte	.LASF660
 10134 318a 33       		.byte	0x33
 10135 318b 1901     		.2byte	0x119
 10136 318d 42320000 		.4byte	0x3242
 10137 3191 48       		.byte	0x48
 10138 3192 00       		.byte	0
 10139 3193 0C       		.uleb128 0xc
 10140 3194 08       		.byte	0x8
 10141 3195 33       		.byte	0x33
 10142 3196 CF       		.byte	0xcf
 10143 3197 B4310000 		.4byte	0x31b4
 10144 319b 0D       		.uleb128 0xd
 10145 319c 0D0F0000 		.4byte	.LASF661
 10146 31a0 33       		.byte	0x33
 10147 31a1 D8       		.byte	0xd8
 10148 31a2 791C0000 		.4byte	0x1c79
 10149 31a6 00       		.byte	0
 10150 31a7 0D       		.uleb128 0xd
 10151 31a8 2D250000 		.4byte	.LASF662
 10152 31ac 33       		.byte	0x33
 10153 31ad DC       		.byte	0xdc
 10154 31ae B8300000 		.4byte	0x30b8
 10155 31b2 04       		.byte	0x4
 10156 31b3 00       		.byte	0
 10157 31b4 04       		.uleb128 0x4
 10158 31b5 8E1B0000 		.4byte	.LASF663
 10159 31b9 33       		.byte	0x33
 10160 31ba DE       		.byte	0xde
 10161 31bb 93310000 		.4byte	0x3193
 10162 31bf 0F       		.uleb128 0xf
 10163 31c0 B4310000 		.4byte	0x31b4
 10164 31c4 10       		.uleb128 0x10
 10165 31c5 43250000 		.4byte	.LASF664
 10166 31c9 20       		.byte	0x20
 10167 31ca 33       		.byte	0x33
 10168 31cb EB       		.byte	0xeb
 10169 31cc 31320000 		.4byte	0x3231
 10170 31d0 0D       		.uleb128 0xd
 10171 31d1 D9270000 		.4byte	.LASF665
 10172 31d5 33       		.byte	0x33
 10173 31d6 EC       		.byte	0xec
 10174 31d7 9C1E0000 		.4byte	0x1e9c
 10175 31db 00       		.byte	0
 10176 31dc 0D       		.uleb128 0xd
 10177 31dd 830D0000 		.4byte	.LASF666
 10178 31e1 33       		.byte	0x33
 10179 31e2 EC       		.byte	0xec
 10180 31e3 9C1E0000 		.4byte	0x1e9c
 10181 31e7 04       		.byte	0x4
 10182 31e8 0D       		.uleb128 0xd
 10183 31e9 48100000 		.4byte	.LASF667
 10184 31ed 33       		.byte	0x33
ARM GAS  C:\Users\Moi\AppData\Local\Temp\ccOzHcBd.s 			page 180


 10185 31ee EC       		.byte	0xec
 10186 31ef 9C1E0000 		.4byte	0x1e9c
 10187 31f3 08       		.byte	0x8
 10188 31f4 0D       		.uleb128 0xd
 10189 31f5 0D150000 		.4byte	.LASF668
 10190 31f9 33       		.byte	0x33
 10191 31fa EC       		.byte	0xec
 10192 31fb 9C1E0000 		.4byte	0x1e9c
 10193 31ff 0C       		.byte	0xc
 10194 3200 0D       		.uleb128 0xd
 10195 3201 A2040000 		.4byte	.LASF646
 10196 3205 33       		.byte	0x33
 10197 3206 EC       		.byte	0xec
 10198 3207 C01E0000 		.4byte	0x1ec0
 10199 320b 10       		.byte	0x10
 10200 320c 0D       		.uleb128 0xd
 10201 320d DB190000 		.4byte	.LASF645
 10202 3211 33       		.byte	0x33
 10203 3212 EC       		.byte	0xec
 10204 3213 E41E0000 		.4byte	0x1ee4
 10205 3217 14       		.byte	0x14
 10206 3218 0D       		.uleb128 0xd
 10207 3219 BB1B0000 		.4byte	.LASF669
 10208 321d 33       		.byte	0x33
 10209 321e EC       		.byte	0xec
 10210 321f 9C1E0000 		.4byte	0x1e9c
 10211 3223 18       		.byte	0x18
 10212 3224 0D       		.uleb128 0xd
 10213 3225 9B240000 		.4byte	.LASF670
 10214 3229 33       		.byte	0x33
 10215 322a EC       		.byte	0xec
 10216 322b 041F0000 		.4byte	0x1f04
 10217 322f 1C       		.byte	0x1c
 10218 3230 00       		.byte	0
 10219 3231 0F       		.uleb128 0xf
 10220 3232 C4310000 		.4byte	0x31c4
 10221 3236 05       		.uleb128 0x5
 10222 3237 04       		.byte	0x4
 10223 3238 31320000 		.4byte	0x3231
 10224 323c 05       		.uleb128 0x5
 10225 323d 04       		.byte	0x4
 10226 323e BF310000 		.4byte	0x31bf
 10227 3242 05       		.uleb128 0x5
 10228 3243 04       		.byte	0x4
 10229 3244 78150000 		.4byte	0x1578
 10230 3248 20       		.uleb128 0x20
 10231 3249 570B0000 		.4byte	.LASF671
 10232 324d 33       		.byte	0x33
 10233 324e 2501     		.2byte	0x125
 10234 3250 D9300000 		.4byte	0x30d9
 10235 3254 27       		.uleb128 0x27
 10236 3255 07       		.byte	0x7
 10237 3256 01       		.byte	0x1
 10238 3257 5E000000 		.4byte	0x5e
 10239 325b 34       		.byte	0x34
 10240 325c 46       		.byte	0x46
 10241 325d 80320000 		.4byte	0x3280
ARM GAS  C:\Users\Moi\AppData\Local\Temp\ccOzHcBd.s 			page 181


 10242 3261 28       		.uleb128 0x28
 10243 3262 3E080000 		.4byte	.LASF672
 10244 3266 00       		.byte	0
 10245 3267 28       		.uleb128 0x28
 10246 3268 92020000 		.4byte	.LASF673
 10247 326c 01       		.byte	0x1
 10248 326d 28       		.uleb128 0x28
 10249 326e 00250000 		.4byte	.LASF674
 10250 3272 02       		.byte	0x2
 10251 3273 28       		.uleb128 0x28
 10252 3274 A60F0000 		.4byte	.LASF675
 10253 3278 03       		.byte	0x3
 10254 3279 28       		.uleb128 0x28
 10255 327a 5D140000 		.4byte	.LASF676
 10256 327e 04       		.byte	0x4
 10257 327f 00       		.byte	0
 10258 3280 04       		.uleb128 0x4
 10259 3281 560F0000 		.4byte	.LASF677
 10260 3285 34       		.byte	0x34
 10261 3286 4C       		.byte	0x4c
 10262 3287 54320000 		.4byte	0x3254
 10263 328b 07       		.uleb128 0x7
 10264 328c E9230000 		.4byte	.LASF678
 10265 3290 35       		.byte	0x35
 10266 3291 9601     		.2byte	0x196
 10267 3293 97320000 		.4byte	0x3297
 10268 3297 1B       		.uleb128 0x1b
 10269 3298 E9230000 		.4byte	.LASF678
 10270 329c 34       		.byte	0x34
 10271 329d 35       		.byte	0x35
 10272 329e BA01     		.2byte	0x1ba
 10273 32a0 1A330000 		.4byte	0x331a
 10274 32a4 18       		.uleb128 0x18
 10275 32a5 A5170000 		.4byte	.LASF463
 10276 32a9 35       		.byte	0x35
 10277 32aa BE01     		.2byte	0x1be
 10278 32ac 80320000 		.4byte	0x3280
 10279 32b0 00       		.byte	0
 10280 32b1 18       		.uleb128 0x18
 10281 32b2 9E1D0000 		.4byte	.LASF464
 10282 32b6 35       		.byte	0x35
 10283 32b7 C201     		.2byte	0x1c2
 10284 32b9 8C330000 		.4byte	0x338c
 10285 32bd 04       		.byte	0x4
 10286 32be 18       		.uleb128 0x18
 10287 32bf 28080000 		.4byte	.LASF468
 10288 32c3 35       		.byte	0x35
 10289 32c4 C701     		.2byte	0x1c7
 10290 32c6 F90A0000 		.4byte	0xaf9
 10291 32ca 08       		.byte	0x8
 10292 32cb 18       		.uleb128 0x18
 10293 32cc DB0D0000 		.4byte	.LASF469
 10294 32d0 35       		.byte	0x35
 10295 32d1 CD01     		.2byte	0x1cd
 10296 32d3 501B0000 		.4byte	0x1b50
 10297 32d7 0C       		.byte	0xc
 10298 32d8 21       		.uleb128 0x21
ARM GAS  C:\Users\Moi\AppData\Local\Temp\ccOzHcBd.s 			page 182


 10299 32d9 73706900 		.ascii	"spi\000"
 10300 32dd 35       		.byte	0x35
 10301 32de D601     		.2byte	0x1d6
 10302 32e0 7B2D0000 		.4byte	0x2d7b
 10303 32e4 20       		.byte	0x20
 10304 32e5 18       		.uleb128 0x18
 10305 32e6 E8000000 		.4byte	.LASF599
 10306 32ea 35       		.byte	0x35
 10307 32eb DA01     		.2byte	0x1da
 10308 32ed 4F230000 		.4byte	0x234f
 10309 32f1 24       		.byte	0x24
 10310 32f2 18       		.uleb128 0x18
 10311 32f3 CE010000 		.4byte	.LASF600
 10312 32f7 35       		.byte	0x35
 10313 32f8 DE01     		.2byte	0x1de
 10314 32fa 4F230000 		.4byte	0x234f
 10315 32fe 28       		.byte	0x28
 10316 32ff 18       		.uleb128 0x18
 10317 3300 B5090000 		.4byte	.LASF597
 10318 3304 35       		.byte	0x35
 10319 3305 E201     		.2byte	0x1e2
 10320 3307 1C090000 		.4byte	0x91c
 10321 330b 2C       		.byte	0x2c
 10322 330c 18       		.uleb128 0x18
 10323 330d 0E0A0000 		.4byte	.LASF598
 10324 3311 35       		.byte	0x35
 10325 3312 E601     		.2byte	0x1e6
 10326 3314 1C090000 		.4byte	0x91c
 10327 3318 30       		.byte	0x30
 10328 3319 00       		.byte	0
 10329 331a 07       		.uleb128 0x7
 10330 331b D8160000 		.4byte	.LASF679
 10331 331f 35       		.byte	0x35
 10332 3320 9E01     		.2byte	0x19e
 10333 3322 26330000 		.4byte	0x3326
 10334 3326 05       		.uleb128 0x5
 10335 3327 04       		.byte	0x4
 10336 3328 2C330000 		.4byte	0x332c
 10337 332c 1F       		.uleb128 0x1f
 10338 332d 37330000 		.4byte	0x3337
 10339 3331 16       		.uleb128 0x16
 10340 3332 37330000 		.4byte	0x3337
 10341 3336 00       		.byte	0
 10342 3337 05       		.uleb128 0x5
 10343 3338 04       		.byte	0x4
 10344 3339 8B320000 		.4byte	0x328b
 10345 333d 1C       		.uleb128 0x1c
 10346 333e 0C       		.byte	0xc
 10347 333f 35       		.byte	0x35
 10348 3340 A301     		.2byte	0x1a3
 10349 3342 7B330000 		.4byte	0x337b
 10350 3346 18       		.uleb128 0x18
 10351 3347 8F0A0000 		.4byte	.LASF476
 10352 334b 35       		.byte	0x35
 10353 334c A701     		.2byte	0x1a7
 10354 334e 1A330000 		.4byte	0x331a
 10355 3352 00       		.byte	0
ARM GAS  C:\Users\Moi\AppData\Local\Temp\ccOzHcBd.s 			page 183


 10356 3353 18       		.uleb128 0x18
 10357 3354 CB250000 		.4byte	.LASF680
 10358 3358 35       		.byte	0x35
 10359 3359 AC01     		.2byte	0x1ac
 10360 335b E0200000 		.4byte	0x20e0
 10361 335f 04       		.byte	0x4
 10362 3360 18       		.uleb128 0x18
 10363 3361 080A0000 		.4byte	.LASF681
 10364 3365 35       		.byte	0x35
 10365 3366 B001     		.2byte	0x1b0
 10366 3368 01090000 		.4byte	0x901
 10367 336c 08       		.byte	0x8
 10368 336d 21       		.uleb128 0x21
 10369 336e 63723100 		.ascii	"cr1\000"
 10370 3372 35       		.byte	0x35
 10371 3373 B401     		.2byte	0x1b4
 10372 3375 01090000 		.4byte	0x901
 10373 3379 0A       		.byte	0xa
 10374 337a 00       		.byte	0
 10375 337b 07       		.uleb128 0x7
 10376 337c 9E220000 		.4byte	.LASF682
 10377 3380 35       		.byte	0x35
 10378 3381 B501     		.2byte	0x1b5
 10379 3383 3D330000 		.4byte	0x333d
 10380 3387 0F       		.uleb128 0xf
 10381 3388 7B330000 		.4byte	0x337b
 10382 338c 05       		.uleb128 0x5
 10383 338d 04       		.byte	0x4
 10384 338e 87330000 		.4byte	0x3387
 10385 3392 20       		.uleb128 0x20
 10386 3393 B5210000 		.4byte	.LASF683
 10387 3397 35       		.byte	0x35
 10388 3398 F201     		.2byte	0x1f2
 10389 339a 8B320000 		.4byte	0x328b
 10390 339e 04       		.uleb128 0x4
 10391 339f 93120000 		.4byte	.LASF684
 10392 33a3 36       		.byte	0x36
 10393 33a4 FA       		.byte	0xfa
 10394 33a5 A9330000 		.4byte	0x33a9
 10395 33a9 17       		.uleb128 0x17
 10396 33aa 93120000 		.4byte	.LASF684
 10397 33ae 6002     		.2byte	0x260
 10398 33b0 37       		.byte	0x37
 10399 33b1 7701     		.2byte	0x177
 10400 33b3 D5340000 		.4byte	0x34d5
 10401 33b7 18       		.uleb128 0x18
 10402 33b8 A5170000 		.4byte	.LASF463
 10403 33bc 37       		.byte	0x37
 10404 33bd 7B01     		.2byte	0x17b
 10405 33bf 0D350000 		.4byte	0x350d
 10406 33c3 00       		.byte	0
 10407 33c4 18       		.uleb128 0x18
 10408 33c5 9E1D0000 		.4byte	.LASF464
 10409 33c9 37       		.byte	0x37
 10410 33ca 7F01     		.2byte	0x17f
 10411 33cc 5D3E0000 		.4byte	0x3e5d
 10412 33d0 04       		.byte	0x4
ARM GAS  C:\Users\Moi\AppData\Local\Temp\ccOzHcBd.s 			page 184


 10413 33d1 18       		.uleb128 0x18
 10414 33d2 DA220000 		.4byte	.LASF685
 10415 33d6 37       		.byte	0x37
 10416 33d7 8301     		.2byte	0x183
 10417 33d9 01090000 		.4byte	0x901
 10418 33dd 08       		.byte	0x8
 10419 33de 18       		.uleb128 0x18
 10420 33df F2250000 		.4byte	.LASF686
 10421 33e3 37       		.byte	0x37
 10422 33e4 8701     		.2byte	0x187
 10423 33e6 01090000 		.4byte	0x901
 10424 33ea 0A       		.byte	0xa
 10425 33eb 21       		.uleb128 0x21
 10426 33ec 65706300 		.ascii	"epc\000"
 10427 33f0 37       		.byte	0x37
 10428 33f1 8B01     		.2byte	0x18b
 10429 33f3 633E0000 		.4byte	0x3e63
 10430 33f7 0C       		.byte	0xc
 10431 33f8 18       		.uleb128 0x18
 10432 33f9 6E080000 		.4byte	.LASF687
 10433 33fd 37       		.byte	0x37
 10434 33fe 9201     		.2byte	0x192
 10435 3400 793E0000 		.4byte	0x3e79
 10436 3404 1C       		.byte	0x1c
 10437 3405 18       		.uleb128 0x18
 10438 3406 430D0000 		.4byte	.LASF688
 10439 340a 37       		.byte	0x37
 10440 340b 9901     		.2byte	0x199
 10441 340d 793E0000 		.4byte	0x3e79
 10442 3411 28       		.byte	0x28
 10443 3412 18       		.uleb128 0x18
 10444 3413 D8100000 		.4byte	.LASF689
 10445 3417 37       		.byte	0x37
 10446 3418 9D01     		.2byte	0x19d
 10447 341a 7F350000 		.4byte	0x357f
 10448 341e 34       		.byte	0x34
 10449 341f 18       		.uleb128 0x18
 10450 3420 1A1D0000 		.4byte	.LASF690
 10451 3424 37       		.byte	0x37
 10452 3425 A101     		.2byte	0x1a1
 10453 3427 791C0000 		.4byte	0x1c79
 10454 342b 38       		.byte	0x38
 10455 342c 18       		.uleb128 0x18
 10456 342d 26190000 		.4byte	.LASF691
 10457 3431 37       		.byte	0x37
 10458 3432 A501     		.2byte	0x1a5
 10459 3434 33000000 		.4byte	0x33
 10460 3438 3C       		.byte	0x3c
 10461 3439 18       		.uleb128 0x18
 10462 343a D51F0000 		.4byte	.LASF692
 10463 343e 37       		.byte	0x37
 10464 343f A901     		.2byte	0x1a9
 10465 3441 FF350000 		.4byte	0x35ff
 10466 3445 40       		.byte	0x40
 10467 3446 18       		.uleb128 0x18
 10468 3447 38080000 		.4byte	.LASF693
 10469 344b 37       		.byte	0x37
ARM GAS  C:\Users\Moi\AppData\Local\Temp\ccOzHcBd.s 			page 185


 10470 344c AD01     		.2byte	0x1ad
 10471 344e B0230000 		.4byte	0x23b0
 10472 3452 44       		.byte	0x44
 10473 3453 18       		.uleb128 0x18
 10474 3454 AA160000 		.4byte	.LASF694
 10475 3458 37       		.byte	0x37
 10476 3459 B101     		.2byte	0x1b1
 10477 345b 01090000 		.4byte	0x901
 10478 345f 4C       		.byte	0x4c
 10479 3460 18       		.uleb128 0x18
 10480 3461 03170000 		.4byte	.LASF695
 10481 3465 37       		.byte	0x37
 10482 3466 B501     		.2byte	0x1b5
 10483 3468 E6080000 		.4byte	0x8e6
 10484 346c 4E       		.byte	0x4e
 10485 346d 18       		.uleb128 0x18
 10486 346e 3F1C0000 		.4byte	.LASF696
 10487 3472 37       		.byte	0x37
 10488 3473 B901     		.2byte	0x1b9
 10489 3475 E6080000 		.4byte	0x8e6
 10490 3479 4F       		.byte	0x4f
 10491 347a 21       		.uleb128 0x21
 10492 347b 6F746700 		.ascii	"otg\000"
 10493 347f 37       		.byte	0x37
 10494 3480 C101     		.2byte	0x1c1
 10495 3482 893E0000 		.4byte	0x3e89
 10496 3486 50       		.byte	0x50
 10497 3487 18       		.uleb128 0x18
 10498 3488 F40E0000 		.4byte	.LASF697
 10499 348c 37       		.byte	0x37
 10500 348d C501     		.2byte	0x1c5
 10501 348f 8F3E0000 		.4byte	0x3e8f
 10502 3493 54       		.byte	0x54
 10503 3494 18       		.uleb128 0x18
 10504 3495 49210000 		.4byte	.LASF698
 10505 3499 37       		.byte	0x37
 10506 349a C901     		.2byte	0x1c9
 10507 349c 1C090000 		.4byte	0x91c
 10508 34a0 58       		.byte	0x58
 10509 34a1 18       		.uleb128 0x18
 10510 34a2 FA0D0000 		.4byte	.LASF699
 10511 34a6 37       		.byte	0x37
 10512 34a7 CD01     		.2byte	0x1cd
 10513 34a9 1C090000 		.4byte	0x91c
 10514 34ad 5C       		.byte	0x5c
 10515 34ae 18       		.uleb128 0x18
 10516 34af 64090000 		.4byte	.LASF700
 10517 34b3 37       		.byte	0x37
 10518 34b4 D101     		.2byte	0x1d1
 10519 34b6 F90A0000 		.4byte	0xaf9
 10520 34ba 60       		.byte	0x60
 10521 34bb 21       		.uleb128 0x21
 10522 34bc 747200   		.ascii	"tr\000"
 10523 34bf 37       		.byte	0x37
 10524 34c0 D601     		.2byte	0x1d6
 10525 34c2 F90A0000 		.4byte	0xaf9
 10526 34c6 64       		.byte	0x64
ARM GAS  C:\Users\Moi\AppData\Local\Temp\ccOzHcBd.s 			page 186


 10527 34c7 18       		.uleb128 0x18
 10528 34c8 53150000 		.4byte	.LASF701
 10529 34cc 37       		.byte	0x37
 10530 34cd DA01     		.2byte	0x1da
 10531 34cf 953E0000 		.4byte	0x3e95
 10532 34d3 68       		.byte	0x68
 10533 34d4 00       		.byte	0
 10534 34d5 04       		.uleb128 0x4
 10535 34d6 0C0B0000 		.4byte	.LASF702
 10536 34da 36       		.byte	0x36
 10537 34db FF       		.byte	0xff
 10538 34dc E6080000 		.4byte	0x8e6
 10539 34e0 2A       		.uleb128 0x2a
 10540 34e1 07       		.byte	0x7
 10541 34e2 01       		.byte	0x1
 10542 34e3 5E000000 		.4byte	0x5e
 10543 34e7 36       		.byte	0x36
 10544 34e8 0401     		.2byte	0x104
 10545 34ea 0D350000 		.4byte	0x350d
 10546 34ee 28       		.uleb128 0x28
 10547 34ef BD260000 		.4byte	.LASF703
 10548 34f3 00       		.byte	0
 10549 34f4 28       		.uleb128 0x28
 10550 34f5 00000000 		.4byte	.LASF704
 10551 34f9 01       		.byte	0x1
 10552 34fa 28       		.uleb128 0x28
 10553 34fb 28140000 		.4byte	.LASF705
 10554 34ff 02       		.byte	0x2
 10555 3500 28       		.uleb128 0x28
 10556 3501 7E1A0000 		.4byte	.LASF706
 10557 3505 03       		.byte	0x3
 10558 3506 28       		.uleb128 0x28
 10559 3507 87090000 		.4byte	.LASF707
 10560 350b 04       		.byte	0x4
 10561 350c 00       		.byte	0
 10562 350d 07       		.uleb128 0x7
 10563 350e 0E280000 		.4byte	.LASF708
 10564 3512 36       		.byte	0x36
 10565 3513 0A01     		.2byte	0x10a
 10566 3515 E0340000 		.4byte	0x34e0
 10567 3519 2A       		.uleb128 0x2a
 10568 351a 07       		.byte	0x7
 10569 351b 01       		.byte	0x1
 10570 351c 5E000000 		.4byte	0x5e
 10571 3520 36       		.byte	0x36
 10572 3521 0F01     		.2byte	0x10f
 10573 3523 3A350000 		.4byte	0x353a
 10574 3527 28       		.uleb128 0x28
 10575 3528 00200000 		.4byte	.LASF709
 10576 352c 00       		.byte	0
 10577 352d 28       		.uleb128 0x28
 10578 352e D00E0000 		.4byte	.LASF710
 10579 3532 01       		.byte	0x1
 10580 3533 28       		.uleb128 0x28
 10581 3534 DC030000 		.4byte	.LASF711
 10582 3538 02       		.byte	0x2
 10583 3539 00       		.byte	0
ARM GAS  C:\Users\Moi\AppData\Local\Temp\ccOzHcBd.s 			page 187


 10584 353a 07       		.uleb128 0x7
 10585 353b D2020000 		.4byte	.LASF712
 10586 353f 36       		.byte	0x36
 10587 3540 1301     		.2byte	0x113
 10588 3542 19350000 		.4byte	0x3519
 10589 3546 2A       		.uleb128 0x2a
 10590 3547 07       		.byte	0x7
 10591 3548 01       		.byte	0x1
 10592 3549 5E000000 		.4byte	0x5e
 10593 354d 36       		.byte	0x36
 10594 354e 1801     		.2byte	0x118
 10595 3550 7F350000 		.4byte	0x357f
 10596 3554 28       		.uleb128 0x28
 10597 3555 A01F0000 		.4byte	.LASF713
 10598 3559 00       		.byte	0
 10599 355a 28       		.uleb128 0x28
 10600 355b CD100000 		.4byte	.LASF714
 10601 355f 01       		.byte	0x1
 10602 3560 28       		.uleb128 0x28
 10603 3561 061D0000 		.4byte	.LASF715
 10604 3565 02       		.byte	0x2
 10605 3566 28       		.uleb128 0x28
 10606 3567 CA170000 		.4byte	.LASF716
 10607 356b 03       		.byte	0x3
 10608 356c 28       		.uleb128 0x28
 10609 356d 95160000 		.4byte	.LASF717
 10610 3571 04       		.byte	0x4
 10611 3572 28       		.uleb128 0x28
 10612 3573 E6110000 		.4byte	.LASF718
 10613 3577 05       		.byte	0x5
 10614 3578 28       		.uleb128 0x28
 10615 3579 33100000 		.4byte	.LASF719
 10616 357d 06       		.byte	0x6
 10617 357e 00       		.byte	0
 10618 357f 07       		.uleb128 0x7
 10619 3580 2F120000 		.4byte	.LASF720
 10620 3584 36       		.byte	0x36
 10621 3585 2001     		.2byte	0x120
 10622 3587 46350000 		.4byte	0x3546
 10623 358b 2A       		.uleb128 0x2a
 10624 358c 07       		.byte	0x7
 10625 358d 01       		.byte	0x1
 10626 358e 5E000000 		.4byte	0x5e
 10627 3592 36       		.byte	0x36
 10628 3593 2501     		.2byte	0x125
 10629 3595 BE350000 		.4byte	0x35be
 10630 3599 28       		.uleb128 0x28
 10631 359a 3C1F0000 		.4byte	.LASF721
 10632 359e 00       		.byte	0
 10633 359f 28       		.uleb128 0x28
 10634 35a0 111B0000 		.4byte	.LASF722
 10635 35a4 01       		.byte	0x1
 10636 35a5 28       		.uleb128 0x28
 10637 35a6 F8140000 		.4byte	.LASF723
 10638 35aa 02       		.byte	0x2
 10639 35ab 28       		.uleb128 0x28
 10640 35ac B5150000 		.4byte	.LASF724
ARM GAS  C:\Users\Moi\AppData\Local\Temp\ccOzHcBd.s 			page 188


 10641 35b0 03       		.byte	0x3
 10642 35b1 28       		.uleb128 0x28
 10643 35b2 5E250000 		.4byte	.LASF725
 10644 35b6 04       		.byte	0x4
 10645 35b7 28       		.uleb128 0x28
 10646 35b8 79140000 		.4byte	.LASF726
 10647 35bc 05       		.byte	0x5
 10648 35bd 00       		.byte	0
 10649 35be 07       		.uleb128 0x7
 10650 35bf 401B0000 		.4byte	.LASF727
 10651 35c3 36       		.byte	0x36
 10652 35c4 2C01     		.2byte	0x12c
 10653 35c6 8B350000 		.4byte	0x358b
 10654 35ca 1C       		.uleb128 0x1c
 10655 35cb 08       		.byte	0x8
 10656 35cc 36       		.byte	0x36
 10657 35cd 3101     		.2byte	0x131
 10658 35cf EE350000 		.4byte	0x35ee
 10659 35d3 18       		.uleb128 0x18
 10660 35d4 97270000 		.4byte	.LASF728
 10661 35d8 36       		.byte	0x36
 10662 35d9 3501     		.2byte	0x135
 10663 35db 33000000 		.4byte	0x33
 10664 35df 00       		.byte	0
 10665 35e0 18       		.uleb128 0x18
 10666 35e1 80040000 		.4byte	.LASF729
 10667 35e5 36       		.byte	0x36
 10668 35e6 3901     		.2byte	0x139
 10669 35e8 AE1C0000 		.4byte	0x1cae
 10670 35ec 04       		.byte	0x4
 10671 35ed 00       		.byte	0
 10672 35ee 07       		.uleb128 0x7
 10673 35ef CA160000 		.4byte	.LASF730
 10674 35f3 36       		.byte	0x36
 10675 35f4 3A01     		.2byte	0x13a
 10676 35f6 CA350000 		.4byte	0x35ca
 10677 35fa 0F       		.uleb128 0xf
 10678 35fb EE350000 		.4byte	0x35ee
 10679 35ff 07       		.uleb128 0x7
 10680 3600 19270000 		.4byte	.LASF731
 10681 3604 36       		.byte	0x36
 10682 3605 4201     		.2byte	0x142
 10683 3607 0B360000 		.4byte	0x360b
 10684 360b 05       		.uleb128 0x5
 10685 360c 04       		.byte	0x4
 10686 360d 11360000 		.4byte	0x3611
 10687 3611 1F       		.uleb128 0x1f
 10688 3612 1C360000 		.4byte	0x361c
 10689 3616 16       		.uleb128 0x16
 10690 3617 1C360000 		.4byte	0x361c
 10691 361b 00       		.byte	0
 10692 361c 05       		.uleb128 0x5
 10693 361d 04       		.byte	0x4
 10694 361e 9E330000 		.4byte	0x339e
 10695 3622 07       		.uleb128 0x7
 10696 3623 CC040000 		.4byte	.LASF732
 10697 3627 36       		.byte	0x36
ARM GAS  C:\Users\Moi\AppData\Local\Temp\ccOzHcBd.s 			page 189


 10698 3628 4B01     		.2byte	0x14b
 10699 362a 2E360000 		.4byte	0x362e
 10700 362e 05       		.uleb128 0x5
 10701 362f 04       		.byte	0x4
 10702 3630 34360000 		.4byte	0x3634
 10703 3634 1F       		.uleb128 0x1f
 10704 3635 44360000 		.4byte	0x3644
 10705 3639 16       		.uleb128 0x16
 10706 363a 1C360000 		.4byte	0x361c
 10707 363e 16       		.uleb128 0x16
 10708 363f D5340000 		.4byte	0x34d5
 10709 3643 00       		.byte	0
 10710 3644 07       		.uleb128 0x7
 10711 3645 440C0000 		.4byte	.LASF733
 10712 3649 36       		.byte	0x36
 10713 364a 5401     		.2byte	0x154
 10714 364c 50360000 		.4byte	0x3650
 10715 3650 05       		.uleb128 0x5
 10716 3651 04       		.byte	0x4
 10717 3652 56360000 		.4byte	0x3656
 10718 3656 1F       		.uleb128 0x1f
 10719 3657 66360000 		.4byte	0x3666
 10720 365b 16       		.uleb128 0x16
 10721 365c 1C360000 		.4byte	0x361c
 10722 3660 16       		.uleb128 0x16
 10723 3661 BE350000 		.4byte	0x35be
 10724 3665 00       		.byte	0
 10725 3666 07       		.uleb128 0x7
 10726 3667 A2070000 		.4byte	.LASF734
 10727 366b 36       		.byte	0x36
 10728 366c 6001     		.2byte	0x160
 10729 366e 72360000 		.4byte	0x3672
 10730 3672 05       		.uleb128 0x5
 10731 3673 04       		.byte	0x4
 10732 3674 78360000 		.4byte	0x3678
 10733 3678 15       		.uleb128 0x15
 10734 3679 951E0000 		.4byte	0x1e95
 10735 367d 87360000 		.4byte	0x3687
 10736 3681 16       		.uleb128 0x16
 10737 3682 1C360000 		.4byte	0x361c
 10738 3686 00       		.byte	0
 10739 3687 07       		.uleb128 0x7
 10740 3688 9F100000 		.4byte	.LASF735
 10741 368c 36       		.byte	0x36
 10742 368d 6501     		.2byte	0x165
 10743 368f 93360000 		.4byte	0x3693
 10744 3693 05       		.uleb128 0x5
 10745 3694 04       		.byte	0x4
 10746 3695 99360000 		.4byte	0x3699
 10747 3699 15       		.uleb128 0x15
 10748 369a B7360000 		.4byte	0x36b7
 10749 369e B7360000 		.4byte	0x36b7
 10750 36a2 16       		.uleb128 0x16
 10751 36a3 1C360000 		.4byte	0x361c
 10752 36a7 16       		.uleb128 0x16
 10753 36a8 E6080000 		.4byte	0x8e6
 10754 36ac 16       		.uleb128 0x16
ARM GAS  C:\Users\Moi\AppData\Local\Temp\ccOzHcBd.s 			page 190


 10755 36ad E6080000 		.4byte	0x8e6
 10756 36b1 16       		.uleb128 0x16
 10757 36b2 01090000 		.4byte	0x901
 10758 36b6 00       		.byte	0
 10759 36b7 05       		.uleb128 0x5
 10760 36b8 04       		.byte	0x4
 10761 36b9 FA350000 		.4byte	0x35fa
 10762 36bd 0C       		.uleb128 0xc
 10763 36be 20       		.byte	0x20
 10764 36bf 38       		.byte	0x38
 10765 36c0 35       		.byte	0x35
 10766 36c1 26370000 		.4byte	0x3726
 10767 36c5 0D       		.uleb128 0xd
 10768 36c6 01030000 		.4byte	.LASF736
 10769 36ca 38       		.byte	0x38
 10770 36cb 36       		.byte	0x36
 10771 36cc 27090000 		.4byte	0x927
 10772 36d0 00       		.byte	0
 10773 36d1 0D       		.uleb128 0xd
 10774 36d2 3F0E0000 		.4byte	.LASF737
 10775 36d6 38       		.byte	0x38
 10776 36d7 38       		.byte	0x38
 10777 36d8 27090000 		.4byte	0x927
 10778 36dc 04       		.byte	0x4
 10779 36dd 0D       		.uleb128 0xd
 10780 36de 67020000 		.4byte	.LASF738
 10781 36e2 38       		.byte	0x38
 10782 36e3 39       		.byte	0x39
 10783 36e4 27090000 		.4byte	0x927
 10784 36e8 08       		.byte	0x8
 10785 36e9 0D       		.uleb128 0xd
 10786 36ea 8F1D0000 		.4byte	.LASF739
 10787 36ee 38       		.byte	0x38
 10788 36ef 3A       		.byte	0x3a
 10789 36f0 27090000 		.4byte	0x927
 10790 36f4 0C       		.byte	0xc
 10791 36f5 0D       		.uleb128 0xd
 10792 36f6 F1140000 		.4byte	.LASF740
 10793 36fa 38       		.byte	0x38
 10794 36fb 3C       		.byte	0x3c
 10795 36fc 27090000 		.4byte	0x927
 10796 3700 10       		.byte	0x10
 10797 3701 0D       		.uleb128 0xd
 10798 3702 750E0000 		.4byte	.LASF741
 10799 3706 38       		.byte	0x38
 10800 3707 3E       		.byte	0x3e
 10801 3708 27090000 		.4byte	0x927
 10802 370c 14       		.byte	0x14
 10803 370d 0D       		.uleb128 0xd
 10804 370e 880E0000 		.4byte	.LASF742
 10805 3712 38       		.byte	0x38
 10806 3713 3F       		.byte	0x3f
 10807 3714 27090000 		.4byte	0x927
 10808 3718 18       		.byte	0x18
 10809 3719 0D       		.uleb128 0xd
 10810 371a 9E030000 		.4byte	.LASF743
 10811 371e 38       		.byte	0x38
ARM GAS  C:\Users\Moi\AppData\Local\Temp\ccOzHcBd.s 			page 191


 10812 371f 40       		.byte	0x40
 10813 3720 27090000 		.4byte	0x927
 10814 3724 1C       		.byte	0x1c
 10815 3725 00       		.byte	0
 10816 3726 04       		.uleb128 0x4
 10817 3727 221D0000 		.4byte	.LASF744
 10818 372b 38       		.byte	0x38
 10819 372c 41       		.byte	0x41
 10820 372d BD360000 		.4byte	0x36bd
 10821 3731 0C       		.uleb128 0xc
 10822 3732 20       		.byte	0x20
 10823 3733 38       		.byte	0x38
 10824 3734 46       		.byte	0x46
 10825 3735 9A370000 		.4byte	0x379a
 10826 3739 0D       		.uleb128 0xd
 10827 373a E20E0000 		.4byte	.LASF745
 10828 373e 38       		.byte	0x38
 10829 373f 47       		.byte	0x47
 10830 3740 27090000 		.4byte	0x927
 10831 3744 00       		.byte	0
 10832 3745 0D       		.uleb128 0xd
 10833 3746 8C120000 		.4byte	.LASF746
 10834 374a 38       		.byte	0x38
 10835 374b 49       		.byte	0x49
 10836 374c 27090000 		.4byte	0x927
 10837 3750 04       		.byte	0x4
 10838 3751 0D       		.uleb128 0xd
 10839 3752 FA210000 		.4byte	.LASF747
 10840 3756 38       		.byte	0x38
 10841 3757 4A       		.byte	0x4a
 10842 3758 27090000 		.4byte	0x927
 10843 375c 08       		.byte	0x8
 10844 375d 0D       		.uleb128 0xd
 10845 375e B0120000 		.4byte	.LASF748
 10846 3762 38       		.byte	0x38
 10847 3763 4C       		.byte	0x4c
 10848 3764 27090000 		.4byte	0x927
 10849 3768 0C       		.byte	0xc
 10850 3769 0D       		.uleb128 0xd
 10851 376a A4180000 		.4byte	.LASF749
 10852 376e 38       		.byte	0x38
 10853 376f 4D       		.byte	0x4d
 10854 3770 27090000 		.4byte	0x927
 10855 3774 10       		.byte	0x10
 10856 3775 0D       		.uleb128 0xd
 10857 3776 750E0000 		.4byte	.LASF741
 10858 377a 38       		.byte	0x38
 10859 377b 4F       		.byte	0x4f
 10860 377c 27090000 		.4byte	0x927
 10861 3780 14       		.byte	0x14
 10862 3781 0D       		.uleb128 0xd
 10863 3782 49080000 		.4byte	.LASF750
 10864 3786 38       		.byte	0x38
 10865 3787 50       		.byte	0x50
 10866 3788 27090000 		.4byte	0x927
 10867 378c 18       		.byte	0x18
 10868 378d 0D       		.uleb128 0xd
ARM GAS  C:\Users\Moi\AppData\Local\Temp\ccOzHcBd.s 			page 192


 10869 378e E3210000 		.4byte	.LASF751
 10870 3792 38       		.byte	0x38
 10871 3793 52       		.byte	0x52
 10872 3794 27090000 		.4byte	0x927
 10873 3798 1C       		.byte	0x1c
 10874 3799 00       		.byte	0
 10875 379a 04       		.uleb128 0x4
 10876 379b 92090000 		.4byte	.LASF752
 10877 379f 38       		.byte	0x38
 10878 37a0 53       		.byte	0x53
 10879 37a1 31370000 		.4byte	0x3731
 10880 37a5 0C       		.uleb128 0xc
 10881 37a6 20       		.byte	0x20
 10882 37a7 38       		.byte	0x38
 10883 37a8 58       		.byte	0x58
 10884 37a9 0E380000 		.4byte	0x380e
 10885 37ad 0D       		.uleb128 0xd
 10886 37ae E4150000 		.4byte	.LASF753
 10887 37b2 38       		.byte	0x38
 10888 37b3 59       		.byte	0x59
 10889 37b4 27090000 		.4byte	0x927
 10890 37b8 00       		.byte	0
 10891 37b9 0D       		.uleb128 0xd
 10892 37ba 8C120000 		.4byte	.LASF746
 10893 37be 38       		.byte	0x38
 10894 37bf 5B       		.byte	0x5b
 10895 37c0 27090000 		.4byte	0x927
 10896 37c4 04       		.byte	0x4
 10897 37c5 0D       		.uleb128 0xd
 10898 37c6 F9190000 		.4byte	.LASF754
 10899 37ca 38       		.byte	0x38
 10900 37cb 5C       		.byte	0x5c
 10901 37cc 27090000 		.4byte	0x927
 10902 37d0 08       		.byte	0x8
 10903 37d1 0D       		.uleb128 0xd
 10904 37d2 B0120000 		.4byte	.LASF748
 10905 37d6 38       		.byte	0x38
 10906 37d7 5E       		.byte	0x5e
 10907 37d8 27090000 		.4byte	0x927
 10908 37dc 0C       		.byte	0xc
 10909 37dd 0D       		.uleb128 0xd
 10910 37de 33230000 		.4byte	.LASF755
 10911 37e2 38       		.byte	0x38
 10912 37e3 5F       		.byte	0x5f
 10913 37e4 27090000 		.4byte	0x927
 10914 37e8 10       		.byte	0x10
 10915 37e9 0D       		.uleb128 0xd
 10916 37ea 750E0000 		.4byte	.LASF741
 10917 37ee 38       		.byte	0x38
 10918 37ef 61       		.byte	0x61
 10919 37f0 27090000 		.4byte	0x927
 10920 37f4 14       		.byte	0x14
 10921 37f5 0D       		.uleb128 0xd
 10922 37f6 880E0000 		.4byte	.LASF742
 10923 37fa 38       		.byte	0x38
 10924 37fb 62       		.byte	0x62
 10925 37fc 27090000 		.4byte	0x927
ARM GAS  C:\Users\Moi\AppData\Local\Temp\ccOzHcBd.s 			page 193


 10926 3800 18       		.byte	0x18
 10927 3801 0D       		.uleb128 0xd
 10928 3802 E3210000 		.4byte	.LASF751
 10929 3806 38       		.byte	0x38
 10930 3807 63       		.byte	0x63
 10931 3808 27090000 		.4byte	0x927
 10932 380c 1C       		.byte	0x1c
 10933 380d 00       		.byte	0
 10934 380e 04       		.uleb128 0x4
 10935 380f 22090000 		.4byte	.LASF756
 10936 3813 38       		.byte	0x38
 10937 3814 64       		.byte	0x64
 10938 3815 A5370000 		.4byte	0x37a5
 10939 3819 2C       		.uleb128 0x2c
 10940 381a 00100100 		.4byte	0x11000
 10941 381e 38       		.byte	0x38
 10942 381f 69       		.byte	0x69
 10943 3820 F63A0000 		.4byte	0x3af6
 10944 3824 0D       		.uleb128 0xd
 10945 3825 C4040000 		.4byte	.LASF757
 10946 3829 38       		.byte	0x38
 10947 382a 6A       		.byte	0x6a
 10948 382b 27090000 		.4byte	0x927
 10949 382f 00       		.byte	0
 10950 3830 0D       		.uleb128 0xd
 10951 3831 2B0D0000 		.4byte	.LASF758
 10952 3835 38       		.byte	0x38
 10953 3836 6B       		.byte	0x6b
 10954 3837 27090000 		.4byte	0x927
 10955 383b 04       		.byte	0x4
 10956 383c 0D       		.uleb128 0xd
 10957 383d 93080000 		.4byte	.LASF759
 10958 3841 38       		.byte	0x38
 10959 3842 6C       		.byte	0x6c
 10960 3843 27090000 		.4byte	0x927
 10961 3847 08       		.byte	0x8
 10962 3848 0D       		.uleb128 0xd
 10963 3849 2D270000 		.4byte	.LASF760
 10964 384d 38       		.byte	0x38
 10965 384e 6D       		.byte	0x6d
 10966 384f 27090000 		.4byte	0x927
 10967 3853 0C       		.byte	0xc
 10968 3854 0D       		.uleb128 0xd
 10969 3855 38140000 		.4byte	.LASF761
 10970 3859 38       		.byte	0x38
 10971 385a 6E       		.byte	0x6e
 10972 385b 27090000 		.4byte	0x927
 10973 385f 10       		.byte	0x10
 10974 3860 0D       		.uleb128 0xd
 10975 3861 5E030000 		.4byte	.LASF762
 10976 3865 38       		.byte	0x38
 10977 3866 6F       		.byte	0x6f
 10978 3867 27090000 		.4byte	0x927
 10979 386b 14       		.byte	0x14
 10980 386c 0D       		.uleb128 0xd
 10981 386d 261C0000 		.4byte	.LASF763
 10982 3871 38       		.byte	0x38
ARM GAS  C:\Users\Moi\AppData\Local\Temp\ccOzHcBd.s 			page 194


 10983 3872 70       		.byte	0x70
 10984 3873 27090000 		.4byte	0x927
 10985 3877 18       		.byte	0x18
 10986 3878 0D       		.uleb128 0xd
 10987 3879 3D090000 		.4byte	.LASF764
 10988 387d 38       		.byte	0x38
 10989 387e 71       		.byte	0x71
 10990 387f 27090000 		.4byte	0x927
 10991 3883 1C       		.byte	0x1c
 10992 3884 0D       		.uleb128 0xd
 10993 3885 35090000 		.4byte	.LASF765
 10994 3889 38       		.byte	0x38
 10995 388a 73       		.byte	0x73
 10996 388b 27090000 		.4byte	0x927
 10997 388f 20       		.byte	0x20
 10998 3890 0D       		.uleb128 0xd
 10999 3891 B31B0000 		.4byte	.LASF766
 11000 3895 38       		.byte	0x38
 11001 3896 75       		.byte	0x75
 11002 3897 27090000 		.4byte	0x927
 11003 389b 24       		.byte	0x24
 11004 389c 0D       		.uleb128 0xd
 11005 389d 98000000 		.4byte	.LASF767
 11006 38a1 38       		.byte	0x38
 11007 38a2 76       		.byte	0x76
 11008 38a3 27090000 		.4byte	0x927
 11009 38a7 28       		.byte	0x28
 11010 38a8 0D       		.uleb128 0xd
 11011 38a9 2E1C0000 		.4byte	.LASF768
 11012 38ad 38       		.byte	0x38
 11013 38ae 78       		.byte	0x78
 11014 38af 27090000 		.4byte	0x927
 11015 38b3 2C       		.byte	0x2c
 11016 38b4 0D       		.uleb128 0xd
 11017 38b5 D90F0000 		.4byte	.LASF769
 11018 38b9 38       		.byte	0x38
 11019 38ba 7A       		.byte	0x7a
 11020 38bb 27090000 		.4byte	0x927
 11021 38bf 30       		.byte	0x30
 11022 38c0 0D       		.uleb128 0xd
 11023 38c1 A2250000 		.4byte	.LASF770
 11024 38c5 38       		.byte	0x38
 11025 38c6 7B       		.byte	0x7b
 11026 38c7 27090000 		.4byte	0x927
 11027 38cb 34       		.byte	0x34
 11028 38cc 0D       		.uleb128 0xd
 11029 38cd 96010000 		.4byte	.LASF771
 11030 38d1 38       		.byte	0x38
 11031 38d2 7C       		.byte	0x7c
 11032 38d3 27090000 		.4byte	0x927
 11033 38d7 38       		.byte	0x38
 11034 38d8 11       		.uleb128 0x11
 11035 38d9 43494400 		.ascii	"CID\000"
 11036 38dd 38       		.byte	0x38
 11037 38de 7D       		.byte	0x7d
 11038 38df 27090000 		.4byte	0x927
 11039 38e3 3C       		.byte	0x3c
ARM GAS  C:\Users\Moi\AppData\Local\Temp\ccOzHcBd.s 			page 195


 11040 38e4 0D       		.uleb128 0xd
 11041 38e5 7D110000 		.4byte	.LASF772
 11042 38e9 38       		.byte	0x38
 11043 38ea 7E       		.byte	0x7e
 11044 38eb 063B0000 		.4byte	0x3b06
 11045 38ef 40       		.byte	0x40
 11046 38f0 13       		.uleb128 0x13
 11047 38f1 48240000 		.4byte	.LASF773
 11048 38f5 38       		.byte	0x38
 11049 38f6 7F       		.byte	0x7f
 11050 38f7 27090000 		.4byte	0x927
 11051 38fb 0001     		.2byte	0x100
 11052 38fd 13       		.uleb128 0x13
 11053 38fe FA010000 		.4byte	.LASF774
 11054 3902 38       		.byte	0x38
 11055 3903 81       		.byte	0x81
 11056 3904 8C160000 		.4byte	0x168c
 11057 3908 0401     		.2byte	0x104
 11058 390a 13       		.uleb128 0x13
 11059 390b 72150000 		.4byte	.LASF775
 11060 390f 38       		.byte	0x38
 11061 3910 83       		.byte	0x83
 11062 3911 1B3B0000 		.4byte	0x3b1b
 11063 3915 4001     		.2byte	0x140
 11064 3917 13       		.uleb128 0x13
 11065 3918 98190000 		.4byte	.LASF776
 11066 391c 38       		.byte	0x38
 11067 391d 84       		.byte	0x84
 11068 391e 27090000 		.4byte	0x927
 11069 3922 0004     		.2byte	0x400
 11070 3924 13       		.uleb128 0x13
 11071 3925 B8260000 		.4byte	.LASF777
 11072 3929 38       		.byte	0x38
 11073 392a 85       		.byte	0x85
 11074 392b 27090000 		.4byte	0x927
 11075 392f 0404     		.2byte	0x404
 11076 3931 13       		.uleb128 0x13
 11077 3932 16040000 		.4byte	.LASF778
 11078 3936 38       		.byte	0x38
 11079 3937 86       		.byte	0x86
 11080 3938 27090000 		.4byte	0x927
 11081 393c 0804     		.2byte	0x408
 11082 393e 13       		.uleb128 0x13
 11083 393f C6230000 		.4byte	.LASF779
 11084 3943 38       		.byte	0x38
 11085 3944 88       		.byte	0x88
 11086 3945 27090000 		.4byte	0x927
 11087 3949 0C04     		.2byte	0x40c
 11088 394b 13       		.uleb128 0x13
 11089 394c C3020000 		.4byte	.LASF780
 11090 3950 38       		.byte	0x38
 11091 3951 89       		.byte	0x89
 11092 3952 27090000 		.4byte	0x927
 11093 3956 1004     		.2byte	0x410
 11094 3958 13       		.uleb128 0x13
 11095 3959 B1030000 		.4byte	.LASF781
 11096 395d 38       		.byte	0x38
ARM GAS  C:\Users\Moi\AppData\Local\Temp\ccOzHcBd.s 			page 196


 11097 395e 8B       		.byte	0x8b
 11098 395f 27090000 		.4byte	0x927
 11099 3963 1404     		.2byte	0x414
 11100 3965 13       		.uleb128 0x13
 11101 3966 3A0D0000 		.4byte	.LASF782
 11102 396a 38       		.byte	0x38
 11103 396b 8D       		.byte	0x8d
 11104 396c 27090000 		.4byte	0x927
 11105 3970 1804     		.2byte	0x418
 11106 3972 13       		.uleb128 0x13
 11107 3973 C21E0000 		.4byte	.LASF783
 11108 3977 38       		.byte	0x38
 11109 3978 8F       		.byte	0x8f
 11110 3979 303B0000 		.4byte	0x3b30
 11111 397d 1C04     		.2byte	0x41c
 11112 397f 13       		.uleb128 0x13
 11113 3980 62020000 		.4byte	.LASF784
 11114 3984 38       		.byte	0x38
 11115 3985 90       		.byte	0x90
 11116 3986 27090000 		.4byte	0x927
 11117 398a 4004     		.2byte	0x440
 11118 398c 13       		.uleb128 0x13
 11119 398d DB200000 		.4byte	.LASF785
 11120 3991 38       		.byte	0x38
 11121 3992 92       		.byte	0x92
 11122 3993 453B0000 		.4byte	0x3b45
 11123 3997 4404     		.2byte	0x444
 11124 3999 2D       		.uleb128 0x2d
 11125 399a 686300   		.ascii	"hc\000"
 11126 399d 38       		.byte	0x38
 11127 399e 93       		.byte	0x93
 11128 399f 4A3B0000 		.4byte	0x3b4a
 11129 39a3 0005     		.2byte	0x500
 11130 39a5 13       		.uleb128 0x13
 11131 39a6 0F240000 		.4byte	.LASF786
 11132 39aa 38       		.byte	0x38
 11133 39ab 94       		.byte	0x94
 11134 39ac 6A3B0000 		.4byte	0x3b6a
 11135 39b0 0007     		.2byte	0x700
 11136 39b2 13       		.uleb128 0x13
 11137 39b3 031C0000 		.4byte	.LASF787
 11138 39b7 38       		.byte	0x38
 11139 39b8 95       		.byte	0x95
 11140 39b9 27090000 		.4byte	0x927
 11141 39bd 0008     		.2byte	0x800
 11142 39bf 13       		.uleb128 0x13
 11143 39c0 3E250000 		.4byte	.LASF788
 11144 39c4 38       		.byte	0x38
 11145 39c5 96       		.byte	0x96
 11146 39c6 27090000 		.4byte	0x927
 11147 39ca 0408     		.2byte	0x804
 11148 39cc 13       		.uleb128 0x13
 11149 39cd 78050000 		.4byte	.LASF789
 11150 39d1 38       		.byte	0x38
 11151 39d2 97       		.byte	0x97
 11152 39d3 27090000 		.4byte	0x927
 11153 39d7 0808     		.2byte	0x808
ARM GAS  C:\Users\Moi\AppData\Local\Temp\ccOzHcBd.s 			page 197


 11154 39d9 13       		.uleb128 0x13
 11155 39da B2040000 		.4byte	.LASF790
 11156 39de 38       		.byte	0x38
 11157 39df 98       		.byte	0x98
 11158 39e0 27090000 		.4byte	0x927
 11159 39e4 0C08     		.2byte	0x80c
 11160 39e6 13       		.uleb128 0x13
 11161 39e7 230D0000 		.4byte	.LASF791
 11162 39eb 38       		.byte	0x38
 11163 39ec 99       		.byte	0x99
 11164 39ed 27090000 		.4byte	0x927
 11165 39f1 1008     		.2byte	0x810
 11166 39f3 13       		.uleb128 0x13
 11167 39f4 1B220000 		.4byte	.LASF792
 11168 39f8 38       		.byte	0x38
 11169 39f9 9B       		.byte	0x9b
 11170 39fa 27090000 		.4byte	0x927
 11171 39fe 1408     		.2byte	0x814
 11172 3a00 13       		.uleb128 0x13
 11173 3a01 98220000 		.4byte	.LASF793
 11174 3a05 38       		.byte	0x38
 11175 3a06 9D       		.byte	0x9d
 11176 3a07 27090000 		.4byte	0x927
 11177 3a0b 1808     		.2byte	0x818
 11178 3a0d 13       		.uleb128 0x13
 11179 3a0e 851F0000 		.4byte	.LASF794
 11180 3a12 38       		.byte	0x38
 11181 3a13 9F       		.byte	0x9f
 11182 3a14 27090000 		.4byte	0x927
 11183 3a18 1C08     		.2byte	0x81c
 11184 3a1a 13       		.uleb128 0x13
 11185 3a1b 04060000 		.4byte	.LASF795
 11186 3a1f 38       		.byte	0x38
 11187 3a20 A1       		.byte	0xa1
 11188 3a21 27090000 		.4byte	0x927
 11189 3a25 2008     		.2byte	0x820
 11190 3a27 13       		.uleb128 0x13
 11191 3a28 EF040000 		.4byte	.LASF796
 11192 3a2c 38       		.byte	0x38
 11193 3a2d A2       		.byte	0xa2
 11194 3a2e 27090000 		.4byte	0x927
 11195 3a32 2408     		.2byte	0x824
 11196 3a34 13       		.uleb128 0x13
 11197 3a35 1D1C0000 		.4byte	.LASF797
 11198 3a39 38       		.byte	0x38
 11199 3a3a A3       		.byte	0xa3
 11200 3a3b 27090000 		.4byte	0x927
 11201 3a3f 2808     		.2byte	0x828
 11202 3a41 13       		.uleb128 0x13
 11203 3a42 F70F0000 		.4byte	.LASF798
 11204 3a46 38       		.byte	0x38
 11205 3a47 A5       		.byte	0xa5
 11206 3a48 27090000 		.4byte	0x927
 11207 3a4c 2C08     		.2byte	0x82c
 11208 3a4e 13       		.uleb128 0x13
 11209 3a4f F9070000 		.4byte	.LASF799
 11210 3a53 38       		.byte	0x38
ARM GAS  C:\Users\Moi\AppData\Local\Temp\ccOzHcBd.s 			page 198


 11211 3a54 A7       		.byte	0xa7
 11212 3a55 27090000 		.4byte	0x927
 11213 3a59 3008     		.2byte	0x830
 11214 3a5b 13       		.uleb128 0x13
 11215 3a5c C50E0000 		.4byte	.LASF800
 11216 3a60 38       		.byte	0x38
 11217 3a61 A8       		.byte	0xa8
 11218 3a62 27090000 		.4byte	0x927
 11219 3a66 3408     		.2byte	0x834
 11220 3a68 13       		.uleb128 0x13
 11221 3a69 07080000 		.4byte	.LASF801
 11222 3a6d 38       		.byte	0x38
 11223 3a6e AA       		.byte	0xaa
 11224 3a6f 27090000 		.4byte	0x927
 11225 3a73 3808     		.2byte	0x838
 11226 3a75 13       		.uleb128 0x13
 11227 3a76 1F080000 		.4byte	.LASF802
 11228 3a7a 38       		.byte	0x38
 11229 3a7b AB       		.byte	0xab
 11230 3a7c 27090000 		.4byte	0x927
 11231 3a80 3C08     		.2byte	0x83c
 11232 3a82 13       		.uleb128 0x13
 11233 3a83 B1080000 		.4byte	.LASF803
 11234 3a87 38       		.byte	0x38
 11235 3a88 AC       		.byte	0xac
 11236 3a89 7F3B0000 		.4byte	0x3b7f
 11237 3a8d 4008     		.2byte	0x840
 11238 3a8f 13       		.uleb128 0x13
 11239 3a90 5C0E0000 		.4byte	.LASF804
 11240 3a94 38       		.byte	0x38
 11241 3a95 AD       		.byte	0xad
 11242 3a96 7F3B0000 		.4byte	0x3b7f
 11243 3a9a 8008     		.2byte	0x880
 11244 3a9c 13       		.uleb128 0x13
 11245 3a9d 9D120000 		.4byte	.LASF805
 11246 3aa1 38       		.byte	0x38
 11247 3aa2 AE       		.byte	0xae
 11248 3aa3 7F3B0000 		.4byte	0x3b7f
 11249 3aa7 C008     		.2byte	0x8c0
 11250 3aa9 2D       		.uleb128 0x2d
 11251 3aaa 696500   		.ascii	"ie\000"
 11252 3aad 38       		.byte	0x38
 11253 3aae AF       		.byte	0xaf
 11254 3aaf 843B0000 		.4byte	0x3b84
 11255 3ab3 0009     		.2byte	0x900
 11256 3ab5 2D       		.uleb128 0x2d
 11257 3ab6 6F6500   		.ascii	"oe\000"
 11258 3ab9 38       		.byte	0x38
 11259 3aba B0       		.byte	0xb0
 11260 3abb 943B0000 		.4byte	0x3b94
 11261 3abf 000B     		.2byte	0xb00
 11262 3ac1 13       		.uleb128 0x13
 11263 3ac2 A60C0000 		.4byte	.LASF806
 11264 3ac6 38       		.byte	0x38
 11265 3ac7 B1       		.byte	0xb1
 11266 3ac8 6A3B0000 		.4byte	0x3b6a
 11267 3acc 000D     		.2byte	0xd00
ARM GAS  C:\Users\Moi\AppData\Local\Temp\ccOzHcBd.s 			page 199


 11268 3ace 13       		.uleb128 0x13
 11269 3acf 56250000 		.4byte	.LASF807
 11270 3ad3 38       		.byte	0x38
 11271 3ad4 B2       		.byte	0xb2
 11272 3ad5 27090000 		.4byte	0x927
 11273 3ad9 000E     		.2byte	0xe00
 11274 3adb 13       		.uleb128 0x13
 11275 3adc 2B190000 		.4byte	.LASF808
 11276 3ae0 38       		.byte	0x38
 11277 3ae1 B4       		.byte	0xb4
 11278 3ae2 B43B0000 		.4byte	0x3bb4
 11279 3ae6 040E     		.2byte	0xe04
 11280 3ae8 13       		.uleb128 0x13
 11281 3ae9 B50A0000 		.4byte	.LASF306
 11282 3aed 38       		.byte	0x38
 11283 3aee B5       		.byte	0xb5
 11284 3aef D03B0000 		.4byte	0x3bd0
 11285 3af3 0010     		.2byte	0x1000
 11286 3af5 00       		.byte	0
 11287 3af6 0A       		.uleb128 0xa
 11288 3af7 27090000 		.4byte	0x927
 11289 3afb 063B0000 		.4byte	0x3b06
 11290 3aff 0B       		.uleb128 0xb
 11291 3b00 25000000 		.4byte	0x25
 11292 3b04 2F       		.byte	0x2f
 11293 3b05 00       		.byte	0
 11294 3b06 1A       		.uleb128 0x1a
 11295 3b07 F63A0000 		.4byte	0x3af6
 11296 3b0b 0A       		.uleb128 0xa
 11297 3b0c 27090000 		.4byte	0x927
 11298 3b10 1B3B0000 		.4byte	0x3b1b
 11299 3b14 0B       		.uleb128 0xb
 11300 3b15 25000000 		.4byte	0x25
 11301 3b19 AF       		.byte	0xaf
 11302 3b1a 00       		.byte	0
 11303 3b1b 1A       		.uleb128 0x1a
 11304 3b1c 0B3B0000 		.4byte	0x3b0b
 11305 3b20 0A       		.uleb128 0xa
 11306 3b21 27090000 		.4byte	0x927
 11307 3b25 303B0000 		.4byte	0x3b30
 11308 3b29 0B       		.uleb128 0xb
 11309 3b2a 25000000 		.4byte	0x25
 11310 3b2e 08       		.byte	0x8
 11311 3b2f 00       		.byte	0
 11312 3b30 1A       		.uleb128 0x1a
 11313 3b31 203B0000 		.4byte	0x3b20
 11314 3b35 0A       		.uleb128 0xa
 11315 3b36 27090000 		.4byte	0x927
 11316 3b3a 453B0000 		.4byte	0x3b45
 11317 3b3e 0B       		.uleb128 0xb
 11318 3b3f 25000000 		.4byte	0x25
 11319 3b43 2E       		.byte	0x2e
 11320 3b44 00       		.byte	0
 11321 3b45 1A       		.uleb128 0x1a
 11322 3b46 353B0000 		.4byte	0x3b35
 11323 3b4a 0A       		.uleb128 0xa
 11324 3b4b 26370000 		.4byte	0x3726
ARM GAS  C:\Users\Moi\AppData\Local\Temp\ccOzHcBd.s 			page 200


 11325 3b4f 5A3B0000 		.4byte	0x3b5a
 11326 3b53 0B       		.uleb128 0xb
 11327 3b54 25000000 		.4byte	0x25
 11328 3b58 0F       		.byte	0xf
 11329 3b59 00       		.byte	0
 11330 3b5a 0A       		.uleb128 0xa
 11331 3b5b 27090000 		.4byte	0x927
 11332 3b5f 6A3B0000 		.4byte	0x3b6a
 11333 3b63 0B       		.uleb128 0xb
 11334 3b64 25000000 		.4byte	0x25
 11335 3b68 3F       		.byte	0x3f
 11336 3b69 00       		.byte	0
 11337 3b6a 1A       		.uleb128 0x1a
 11338 3b6b 5A3B0000 		.4byte	0x3b5a
 11339 3b6f 0A       		.uleb128 0xa
 11340 3b70 27090000 		.4byte	0x927
 11341 3b74 7F3B0000 		.4byte	0x3b7f
 11342 3b78 0B       		.uleb128 0xb
 11343 3b79 25000000 		.4byte	0x25
 11344 3b7d 0F       		.byte	0xf
 11345 3b7e 00       		.byte	0
 11346 3b7f 1A       		.uleb128 0x1a
 11347 3b80 6F3B0000 		.4byte	0x3b6f
 11348 3b84 0A       		.uleb128 0xa
 11349 3b85 9A370000 		.4byte	0x379a
 11350 3b89 943B0000 		.4byte	0x3b94
 11351 3b8d 0B       		.uleb128 0xb
 11352 3b8e 25000000 		.4byte	0x25
 11353 3b92 0F       		.byte	0xf
 11354 3b93 00       		.byte	0
 11355 3b94 0A       		.uleb128 0xa
 11356 3b95 0E380000 		.4byte	0x380e
 11357 3b99 A43B0000 		.4byte	0x3ba4
 11358 3b9d 0B       		.uleb128 0xb
 11359 3b9e 25000000 		.4byte	0x25
 11360 3ba2 0F       		.byte	0xf
 11361 3ba3 00       		.byte	0
 11362 3ba4 0A       		.uleb128 0xa
 11363 3ba5 27090000 		.4byte	0x927
 11364 3ba9 B43B0000 		.4byte	0x3bb4
 11365 3bad 0B       		.uleb128 0xb
 11366 3bae 25000000 		.4byte	0x25
 11367 3bb2 7E       		.byte	0x7e
 11368 3bb3 00       		.byte	0
 11369 3bb4 1A       		.uleb128 0x1a
 11370 3bb5 A43B0000 		.4byte	0x3ba4
 11371 3bb9 0A       		.uleb128 0xa
 11372 3bba 27090000 		.4byte	0x927
 11373 3bbe D03B0000 		.4byte	0x3bd0
 11374 3bc2 0B       		.uleb128 0xb
 11375 3bc3 25000000 		.4byte	0x25
 11376 3bc7 0F       		.byte	0xf
 11377 3bc8 2E       		.uleb128 0x2e
 11378 3bc9 25000000 		.4byte	0x25
 11379 3bcd FF03     		.2byte	0x3ff
 11380 3bcf 00       		.byte	0
 11381 3bd0 1A       		.uleb128 0x1a
ARM GAS  C:\Users\Moi\AppData\Local\Temp\ccOzHcBd.s 			page 201


 11382 3bd1 B93B0000 		.4byte	0x3bb9
 11383 3bd5 04       		.uleb128 0x4
 11384 3bd6 5A270000 		.4byte	.LASF809
 11385 3bda 38       		.byte	0x38
 11386 3bdb B6       		.byte	0xb6
 11387 3bdc 19380000 		.4byte	0x3819
 11388 3be0 0C       		.uleb128 0xc
 11389 3be1 0C       		.byte	0xc
 11390 3be2 37       		.byte	0x37
 11391 3be3 C6       		.byte	0xc6
 11392 3be4 0D3C0000 		.4byte	0x3c0d
 11393 3be8 0D       		.uleb128 0xd
 11394 3be9 500A0000 		.4byte	.LASF810
 11395 3bed 37       		.byte	0x37
 11396 3bee C7       		.byte	0xc7
 11397 3bef 1C090000 		.4byte	0x91c
 11398 3bf3 00       		.byte	0
 11399 3bf4 0D       		.uleb128 0xd
 11400 3bf5 770C0000 		.4byte	.LASF811
 11401 3bf9 37       		.byte	0x37
 11402 3bfa C8       		.byte	0xc8
 11403 3bfb 1C090000 		.4byte	0x91c
 11404 3bff 04       		.byte	0x4
 11405 3c00 0D       		.uleb128 0xd
 11406 3c01 5F100000 		.4byte	.LASF812
 11407 3c05 37       		.byte	0x37
 11408 3c06 C9       		.byte	0xc9
 11409 3c07 1C090000 		.4byte	0x91c
 11410 3c0b 08       		.byte	0x8
 11411 3c0c 00       		.byte	0
 11412 3c0d 04       		.uleb128 0x4
 11413 3c0e 930C0000 		.4byte	.LASF813
 11414 3c12 37       		.byte	0x37
 11415 3c13 CA       		.byte	0xca
 11416 3c14 E03B0000 		.4byte	0x3be0
 11417 3c18 0F       		.uleb128 0xf
 11418 3c19 0D3C0000 		.4byte	0x3c0d
 11419 3c1d 0C       		.uleb128 0xc
 11420 3c1e 04       		.byte	0x4
 11421 3c1f 37       		.byte	0x37
 11422 3c20 DD       		.byte	0xdd
 11423 3c21 323C0000 		.4byte	0x3c32
 11424 3c25 0D       		.uleb128 0xd
 11425 3c26 50250000 		.4byte	.LASF814
 11426 3c2a 37       		.byte	0x37
 11427 3c2b E1       		.byte	0xe1
 11428 3c2c AE1C0000 		.4byte	0x1cae
 11429 3c30 00       		.byte	0
 11430 3c31 00       		.byte	0
 11431 3c32 0C       		.uleb128 0xc
 11432 3c33 04       		.byte	0x4
 11433 3c34 37       		.byte	0x37
 11434 3c35 E3       		.byte	0xe3
 11435 3c36 473C0000 		.4byte	0x3c47
 11436 3c3a 0D       		.uleb128 0xd
 11437 3c3b C40A0000 		.4byte	.LASF496
 11438 3c3f 37       		.byte	0x37
ARM GAS  C:\Users\Moi\AppData\Local\Temp\ccOzHcBd.s 			page 202


 11439 3c40 E7       		.byte	0xe7
 11440 3c41 473C0000 		.4byte	0x3c47
 11441 3c45 00       		.byte	0
 11442 3c46 00       		.byte	0
 11443 3c47 05       		.uleb128 0x5
 11444 3c48 04       		.byte	0x4
 11445 3c49 8A1C0000 		.4byte	0x1c8a
 11446 3c4d 08       		.uleb128 0x8
 11447 3c4e 04       		.byte	0x4
 11448 3c4f 37       		.byte	0x37
 11449 3c50 DC       		.byte	0xdc
 11450 3c51 6C3C0000 		.4byte	0x3c6c
 11451 3c55 09       		.uleb128 0x9
 11452 3c56 10210000 		.4byte	.LASF815
 11453 3c5a 37       		.byte	0x37
 11454 3c5b E2       		.byte	0xe2
 11455 3c5c 1D3C0000 		.4byte	0x3c1d
 11456 3c60 09       		.uleb128 0x9
 11457 3c61 CF1F0000 		.4byte	.LASF816
 11458 3c65 37       		.byte	0x37
 11459 3c66 E8       		.byte	0xe8
 11460 3c67 323C0000 		.4byte	0x3c32
 11461 3c6b 00       		.byte	0
 11462 3c6c 0C       		.uleb128 0xc
 11463 3c6d 14       		.byte	0x14
 11464 3c6e 37       		.byte	0x37
 11465 3c6f CF       		.byte	0xcf
 11466 3c70 B13C0000 		.4byte	0x3cb1
 11467 3c74 0D       		.uleb128 0xd
 11468 3c75 06090000 		.4byte	.LASF817
 11469 3c79 37       		.byte	0x37
 11470 3c7a D3       		.byte	0xd3
 11471 3c7b 951E0000 		.4byte	0x1e95
 11472 3c7f 00       		.byte	0
 11473 3c80 0D       		.uleb128 0xd
 11474 3c81 D7130000 		.4byte	.LASF818
 11475 3c85 37       		.byte	0x37
 11476 3c86 D7       		.byte	0xd7
 11477 3c87 33000000 		.4byte	0x33
 11478 3c8b 04       		.byte	0x4
 11479 3c8c 0D       		.uleb128 0xd
 11480 3c8d 3E0C0000 		.4byte	.LASF819
 11481 3c91 37       		.byte	0x37
 11482 3c92 DB       		.byte	0xdb
 11483 3c93 33000000 		.4byte	0x33
 11484 3c97 08       		.byte	0x8
 11485 3c98 0D       		.uleb128 0xd
 11486 3c99 C9090000 		.4byte	.LASF542
 11487 3c9d 37       		.byte	0x37
 11488 3c9e E9       		.byte	0xe9
 11489 3c9f 4D3C0000 		.4byte	0x3c4d
 11490 3ca3 0C       		.byte	0xc
 11491 3ca4 0D       		.uleb128 0xd
 11492 3ca5 77100000 		.4byte	.LASF820
 11493 3ca9 37       		.byte	0x37
 11494 3caa ED       		.byte	0xed
 11495 3cab 33000000 		.4byte	0x33
ARM GAS  C:\Users\Moi\AppData\Local\Temp\ccOzHcBd.s 			page 203


 11496 3caf 10       		.byte	0x10
 11497 3cb0 00       		.byte	0
 11498 3cb1 04       		.uleb128 0x4
 11499 3cb2 85110000 		.4byte	.LASF821
 11500 3cb6 37       		.byte	0x37
 11501 3cb7 EE       		.byte	0xee
 11502 3cb8 6C3C0000 		.4byte	0x3c6c
 11503 3cbc 1C       		.uleb128 0x1c
 11504 3cbd 04       		.byte	0x4
 11505 3cbe 37       		.byte	0x37
 11506 3cbf 0101     		.2byte	0x101
 11507 3cc1 D33C0000 		.4byte	0x3cd3
 11508 3cc5 18       		.uleb128 0x18
 11509 3cc6 B60C0000 		.4byte	.LASF822
 11510 3cca 37       		.byte	0x37
 11511 3ccb 0501     		.2byte	0x105
 11512 3ccd 791C0000 		.4byte	0x1c79
 11513 3cd1 00       		.byte	0
 11514 3cd2 00       		.byte	0
 11515 3cd3 1C       		.uleb128 0x1c
 11516 3cd4 04       		.byte	0x4
 11517 3cd5 37       		.byte	0x37
 11518 3cd6 0701     		.2byte	0x107
 11519 3cd8 EA3C0000 		.4byte	0x3cea
 11520 3cdc 18       		.uleb128 0x18
 11521 3cdd CB200000 		.4byte	.LASF497
 11522 3ce1 37       		.byte	0x37
 11523 3ce2 0B01     		.2byte	0x10b
 11524 3ce4 EA3C0000 		.4byte	0x3cea
 11525 3ce8 00       		.byte	0
 11526 3ce9 00       		.byte	0
 11527 3cea 05       		.uleb128 0x5
 11528 3ceb 04       		.byte	0x4
 11529 3cec 7F1C0000 		.4byte	0x1c7f
 11530 3cf0 1D       		.uleb128 0x1d
 11531 3cf1 04       		.byte	0x4
 11532 3cf2 37       		.byte	0x37
 11533 3cf3 0001     		.2byte	0x100
 11534 3cf5 123D0000 		.4byte	0x3d12
 11535 3cf9 1E       		.uleb128 0x1e
 11536 3cfa 10210000 		.4byte	.LASF815
 11537 3cfe 37       		.byte	0x37
 11538 3cff 0601     		.2byte	0x106
 11539 3d01 BC3C0000 		.4byte	0x3cbc
 11540 3d05 1E       		.uleb128 0x1e
 11541 3d06 CF1F0000 		.4byte	.LASF816
 11542 3d0a 37       		.byte	0x37
 11543 3d0b 0C01     		.2byte	0x10c
 11544 3d0d D33C0000 		.4byte	0x3cd3
 11545 3d11 00       		.byte	0
 11546 3d12 0C       		.uleb128 0xc
 11547 3d13 14       		.byte	0x14
 11548 3d14 37       		.byte	0x37
 11549 3d15 F3       		.byte	0xf3
 11550 3d16 593D0000 		.4byte	0x3d59
 11551 3d1a 0D       		.uleb128 0xd
 11552 3d1b B6050000 		.4byte	.LASF823
ARM GAS  C:\Users\Moi\AppData\Local\Temp\ccOzHcBd.s 			page 204


 11553 3d1f 37       		.byte	0x37
 11554 3d20 F7       		.byte	0xf7
 11555 3d21 951E0000 		.4byte	0x1e95
 11556 3d25 00       		.byte	0
 11557 3d26 0D       		.uleb128 0xd
 11558 3d27 D0140000 		.4byte	.LASF824
 11559 3d2b 37       		.byte	0x37
 11560 3d2c FB       		.byte	0xfb
 11561 3d2d 33000000 		.4byte	0x33
 11562 3d31 04       		.byte	0x4
 11563 3d32 0D       		.uleb128 0xd
 11564 3d33 A4090000 		.4byte	.LASF825
 11565 3d37 37       		.byte	0x37
 11566 3d38 FF       		.byte	0xff
 11567 3d39 33000000 		.4byte	0x33
 11568 3d3d 08       		.byte	0x8
 11569 3d3e 18       		.uleb128 0x18
 11570 3d3f C9090000 		.4byte	.LASF542
 11571 3d43 37       		.byte	0x37
 11572 3d44 0D01     		.2byte	0x10d
 11573 3d46 F03C0000 		.4byte	0x3cf0
 11574 3d4a 0C       		.byte	0xc
 11575 3d4b 18       		.uleb128 0x18
 11576 3d4c 77100000 		.4byte	.LASF820
 11577 3d50 37       		.byte	0x37
 11578 3d51 1101     		.2byte	0x111
 11579 3d53 33000000 		.4byte	0x33
 11580 3d57 10       		.byte	0x10
 11581 3d58 00       		.byte	0
 11582 3d59 07       		.uleb128 0x7
 11583 3d5a AE1E0000 		.4byte	.LASF826
 11584 3d5e 37       		.byte	0x37
 11585 3d5f 1201     		.2byte	0x112
 11586 3d61 123D0000 		.4byte	0x3d12
 11587 3d65 1C       		.uleb128 0x1c
 11588 3d66 24       		.byte	0x24
 11589 3d67 37       		.byte	0x37
 11590 3d68 1801     		.2byte	0x118
 11591 3d6a F13D0000 		.4byte	0x3df1
 11592 3d6e 18       		.uleb128 0x18
 11593 3d6f F8180000 		.4byte	.LASF827
 11594 3d73 37       		.byte	0x37
 11595 3d74 1C01     		.2byte	0x11c
 11596 3d76 1C090000 		.4byte	0x91c
 11597 3d7a 00       		.byte	0
 11598 3d7b 18       		.uleb128 0x18
 11599 3d7c 960A0000 		.4byte	.LASF828
 11600 3d80 37       		.byte	0x37
 11601 3d81 2701     		.2byte	0x127
 11602 3d83 22360000 		.4byte	0x3622
 11603 3d87 04       		.byte	0x4
 11604 3d88 18       		.uleb128 0x18
 11605 3d89 F3190000 		.4byte	.LASF829
 11606 3d8d 37       		.byte	0x37
 11607 3d8e 2D01     		.2byte	0x12d
 11608 3d90 22360000 		.4byte	0x3622
 11609 3d94 08       		.byte	0x8
ARM GAS  C:\Users\Moi\AppData\Local\Temp\ccOzHcBd.s 			page 205


 11610 3d95 18       		.uleb128 0x18
 11611 3d96 330D0000 		.4byte	.LASF830
 11612 3d9a 37       		.byte	0x37
 11613 3d9b 3301     		.2byte	0x133
 11614 3d9d 22360000 		.4byte	0x3622
 11615 3da1 0C       		.byte	0xc
 11616 3da2 18       		.uleb128 0x18
 11617 3da3 B0270000 		.4byte	.LASF831
 11618 3da7 37       		.byte	0x37
 11619 3da8 3901     		.2byte	0x139
 11620 3daa 01090000 		.4byte	0x901
 11621 3dae 10       		.byte	0x10
 11622 3daf 18       		.uleb128 0x18
 11623 3db0 A00D0000 		.4byte	.LASF832
 11624 3db4 37       		.byte	0x37
 11625 3db5 3F01     		.2byte	0x13f
 11626 3db7 01090000 		.4byte	0x901
 11627 3dbb 12       		.byte	0x12
 11628 3dbc 18       		.uleb128 0x18
 11629 3dbd 45260000 		.4byte	.LASF833
 11630 3dc1 37       		.byte	0x37
 11631 3dc2 4401     		.2byte	0x144
 11632 3dc4 F13D0000 		.4byte	0x3df1
 11633 3dc8 14       		.byte	0x14
 11634 3dc9 18       		.uleb128 0x18
 11635 3dca 330F0000 		.4byte	.LASF834
 11636 3dce 37       		.byte	0x37
 11637 3dcf 4901     		.2byte	0x149
 11638 3dd1 F73D0000 		.4byte	0x3df7
 11639 3dd5 18       		.byte	0x18
 11640 3dd6 18       		.uleb128 0x18
 11641 3dd7 29130000 		.4byte	.LASF835
 11642 3ddb 37       		.byte	0x37
 11643 3ddc 5001     		.2byte	0x150
 11644 3dde 01090000 		.4byte	0x901
 11645 3de2 1C       		.byte	0x1c
 11646 3de3 18       		.uleb128 0x18
 11647 3de4 98250000 		.4byte	.LASF836
 11648 3de8 37       		.byte	0x37
 11649 3de9 5601     		.2byte	0x156
 11650 3deb 791C0000 		.4byte	0x1c79
 11651 3def 20       		.byte	0x20
 11652 3df0 00       		.byte	0
 11653 3df1 05       		.uleb128 0x5
 11654 3df2 04       		.byte	0x4
 11655 3df3 B13C0000 		.4byte	0x3cb1
 11656 3df7 05       		.uleb128 0x5
 11657 3df8 04       		.byte	0x4
 11658 3df9 593D0000 		.4byte	0x3d59
 11659 3dfd 07       		.uleb128 0x7
 11660 3dfe 9B200000 		.4byte	.LASF837
 11661 3e02 37       		.byte	0x37
 11662 3e03 5701     		.2byte	0x157
 11663 3e05 653D0000 		.4byte	0x3d65
 11664 3e09 0F       		.uleb128 0xf
 11665 3e0a FD3D0000 		.4byte	0x3dfd
 11666 3e0e 1C       		.uleb128 0x1c
ARM GAS  C:\Users\Moi\AppData\Local\Temp\ccOzHcBd.s 			page 206


 11667 3e0f 10       		.byte	0x10
 11668 3e10 37       		.byte	0x37
 11669 3e11 5C01     		.2byte	0x15c
 11670 3e13 4C3E0000 		.4byte	0x3e4c
 11671 3e17 18       		.uleb128 0x18
 11672 3e18 BB040000 		.4byte	.LASF838
 11673 3e1c 37       		.byte	0x37
 11674 3e1d 6101     		.2byte	0x161
 11675 3e1f 44360000 		.4byte	0x3644
 11676 3e23 00       		.byte	0
 11677 3e24 18       		.uleb128 0x18
 11678 3e25 D9240000 		.4byte	.LASF839
 11679 3e29 37       		.byte	0x37
 11680 3e2a 6601     		.2byte	0x166
 11681 3e2c 87360000 		.4byte	0x3687
 11682 3e30 04       		.byte	0x4
 11683 3e31 18       		.uleb128 0x18
 11684 3e32 A9130000 		.4byte	.LASF840
 11685 3e36 37       		.byte	0x37
 11686 3e37 6C01     		.2byte	0x16c
 11687 3e39 66360000 		.4byte	0x3666
 11688 3e3d 08       		.byte	0x8
 11689 3e3e 18       		.uleb128 0x18
 11690 3e3f D4010000 		.4byte	.LASF841
 11691 3e43 37       		.byte	0x37
 11692 3e44 7001     		.2byte	0x170
 11693 3e46 FF350000 		.4byte	0x35ff
 11694 3e4a 0C       		.byte	0xc
 11695 3e4b 00       		.byte	0
 11696 3e4c 07       		.uleb128 0x7
 11697 3e4d A6120000 		.4byte	.LASF842
 11698 3e51 37       		.byte	0x37
 11699 3e52 7201     		.2byte	0x172
 11700 3e54 0E3E0000 		.4byte	0x3e0e
 11701 3e58 0F       		.uleb128 0xf
 11702 3e59 4C3E0000 		.4byte	0x3e4c
 11703 3e5d 05       		.uleb128 0x5
 11704 3e5e 04       		.byte	0x4
 11705 3e5f 583E0000 		.4byte	0x3e58
 11706 3e63 0A       		.uleb128 0xa
 11707 3e64 733E0000 		.4byte	0x3e73
 11708 3e68 733E0000 		.4byte	0x3e73
 11709 3e6c 0B       		.uleb128 0xb
 11710 3e6d 25000000 		.4byte	0x25
 11711 3e71 03       		.byte	0x3
 11712 3e72 00       		.byte	0
 11713 3e73 05       		.uleb128 0x5
 11714 3e74 04       		.byte	0x4
 11715 3e75 093E0000 		.4byte	0x3e09
 11716 3e79 0A       		.uleb128 0xa
 11717 3e7a 5D010000 		.4byte	0x15d
 11718 3e7e 893E0000 		.4byte	0x3e89
 11719 3e82 0B       		.uleb128 0xb
 11720 3e83 25000000 		.4byte	0x25
 11721 3e87 02       		.byte	0x2
 11722 3e88 00       		.byte	0
 11723 3e89 05       		.uleb128 0x5
ARM GAS  C:\Users\Moi\AppData\Local\Temp\ccOzHcBd.s 			page 207


 11724 3e8a 04       		.byte	0x4
 11725 3e8b D53B0000 		.4byte	0x3bd5
 11726 3e8f 05       		.uleb128 0x5
 11727 3e90 04       		.byte	0x4
 11728 3e91 183C0000 		.4byte	0x3c18
 11729 3e95 0A       		.uleb128 0xa
 11730 3e96 9C160000 		.4byte	0x169c
 11731 3e9a A53E0000 		.4byte	0x3ea5
 11732 3e9e 0B       		.uleb128 0xb
 11733 3e9f 25000000 		.4byte	0x25
 11734 3ea3 3E       		.byte	0x3e
 11735 3ea4 00       		.byte	0
 11736 3ea5 20       		.uleb128 0x20
 11737 3ea6 A1000000 		.4byte	.LASF843
 11738 3eaa 37       		.byte	0x37
 11739 3eab 0602     		.2byte	0x206
 11740 3ead 9E330000 		.4byte	0x339e
 11741 3eb1 2F       		.uleb128 0x2f
 11742 3eb2 A53E0000 		.4byte	0x3ea5
 11743 3eb6 01       		.byte	0x1
 11744 3eb7 2E       		.byte	0x2e
 11745 3eb8 05       		.uleb128 0x5
 11746 3eb9 03       		.byte	0x3
 11747 3eba 00000000 		.4byte	USBD1
 11748 3ebe 08       		.uleb128 0x8
 11749 3ebf 14       		.byte	0x14
 11750 3ec0 01       		.byte	0x1
 11751 3ec1 3F       		.byte	0x3f
 11752 3ec2 DC3E0000 		.4byte	0x3edc
 11753 3ec6 29       		.uleb128 0x29
 11754 3ec7 696E00   		.ascii	"in\000"
 11755 3eca 01       		.byte	0x1
 11756 3ecb 43       		.byte	0x43
 11757 3ecc B13C0000 		.4byte	0x3cb1
 11758 3ed0 29       		.uleb128 0x29
 11759 3ed1 6F757400 		.ascii	"out\000"
 11760 3ed5 01       		.byte	0x1
 11761 3ed6 47       		.byte	0x47
 11762 3ed7 593D0000 		.4byte	0x3d59
 11763 3edb 00       		.byte	0
 11764 3edc 30       		.uleb128 0x30
 11765 3edd 691C0000 		.4byte	.LASF844
 11766 3ee1 01       		.byte	0x1
 11767 3ee2 48       		.byte	0x48
 11768 3ee3 BE3E0000 		.4byte	0x3ebe
 11769 3ee7 05       		.uleb128 0x5
 11770 3ee8 03       		.byte	0x3
 11771 3ee9 00000000 		.4byte	ep0_state
 11772 3eed 30       		.uleb128 0x30
 11773 3eee 140B0000 		.4byte	.LASF845
 11774 3ef2 01       		.byte	0x1
 11775 3ef3 4D       		.byte	0x4d
 11776 3ef4 B0230000 		.4byte	0x23b0
 11777 3ef8 05       		.uleb128 0x5
 11778 3ef9 03       		.byte	0x3
 11779 3efa 00000000 		.4byte	ep0setup_buffer
 11780 3efe 30       		.uleb128 0x30
ARM GAS  C:\Users\Moi\AppData\Local\Temp\ccOzHcBd.s 			page 208


 11781 3eff B1020000 		.4byte	.LASF846
 11782 3f03 01       		.byte	0x1
 11783 3f04 52       		.byte	0x52
 11784 3f05 093E0000 		.4byte	0x3e09
 11785 3f09 05       		.uleb128 0x5
 11786 3f0a 03       		.byte	0x3
 11787 3f0b 00000000 		.4byte	ep0config
 11788 3f0f 30       		.uleb128 0x30
 11789 3f10 79070000 		.4byte	.LASF847
 11790 3f14 01       		.byte	0x1
 11791 3f15 60       		.byte	0x60
 11792 3f16 183C0000 		.4byte	0x3c18
 11793 3f1a 05       		.uleb128 0x5
 11794 3f1b 03       		.byte	0x3
 11795 3f1c 00000000 		.4byte	fsparams
 11796 3f20 31       		.uleb128 0x31
 11797 3f21 081C0000 		.4byte	.LASF851
 11798 3f25 01       		.byte	0x1
 11799 3f26 0E05     		.2byte	0x50e
 11800 3f28 00000000 		.4byte	.LFB292
 11801 3f2c 90040000 		.4byte	.LFE292-.LFB292
 11802 3f30 01       		.uleb128 0x1
 11803 3f31 9C       		.byte	0x9c
 11804 3f32 4D480000 		.4byte	0x484d
 11805 3f36 32       		.uleb128 0x32
 11806 3f37 7000     		.ascii	"p\000"
 11807 3f39 01       		.byte	0x1
 11808 3f3a 0E05     		.2byte	0x50e
 11809 3f3c 5D010000 		.4byte	0x15d
 11810 3f40 00000000 		.4byte	.LLST1
 11811 3f44 33       		.uleb128 0x33
 11812 3f45 20240000 		.4byte	.LASF848
 11813 3f49 01       		.byte	0x1
 11814 3f4a 0F05     		.2byte	0x50f
 11815 3f4c 1C360000 		.4byte	0x361c
 11816 3f50 29000000 		.4byte	.LLST2
 11817 3f54 33       		.uleb128 0x33
 11818 3f55 D71C0000 		.4byte	.LASF849
 11819 3f59 01       		.byte	0x1
 11820 3f5a 1005     		.2byte	0x510
 11821 3f5c 893E0000 		.4byte	0x3e89
 11822 3f60 52000000 		.4byte	.LLST3
 11823 3f64 34       		.uleb128 0x34
 11824 3f65 2C000000 		.4byte	.LBB435
 11825 3f69 64040000 		.4byte	.LBE435-.LBB435
 11826 3f6d CF470000 		.4byte	0x47cf
 11827 3f71 35       		.uleb128 0x35
 11828 3f72 657000   		.ascii	"ep\000"
 11829 3f75 01       		.byte	0x1
 11830 3f76 1705     		.2byte	0x517
 11831 3f78 D5340000 		.4byte	0x34d5
 11832 3f7c 65000000 		.4byte	.LLST5
 11833 3f80 33       		.uleb128 0x33
 11834 3f81 F01A0000 		.4byte	.LASF850
 11835 3f85 01       		.byte	0x1
 11836 3f86 1805     		.2byte	0x518
 11837 3f88 1C090000 		.4byte	0x91c
ARM GAS  C:\Users\Moi\AppData\Local\Temp\ccOzHcBd.s 			page 209


 11838 3f8c 84000000 		.4byte	.LLST6
 11839 3f90 34       		.uleb128 0x34
 11840 3f91 30020000 		.4byte	.LBB495
 11841 3f95 60020000 		.4byte	.LBE495-.LBB495
 11842 3f99 16440000 		.4byte	0x4416
 11843 3f9d 36       		.uleb128 0x36
 11844 3f9e D4080000 		.4byte	.LASF873
 11845 3fa2 01       		.byte	0x1
 11846 3fa3 2C05     		.2byte	0x52c
 11847 3fa5 951E0000 		.4byte	0x1e95
 11848 3fa9 37       		.uleb128 0x37
 11849 3faa CF580000 		.4byte	0x58cf
 11850 3fae 30020000 		.4byte	.LBB496
 11851 3fb2 0E000000 		.4byte	.LBE496-.LBB496
 11852 3fb6 01       		.byte	0x1
 11853 3fb7 2E05     		.2byte	0x52e
 11854 3fb9 10400000 		.4byte	0x4010
 11855 3fbd 38       		.uleb128 0x38
 11856 3fbe 5A590000 		.4byte	0x595a
 11857 3fc2 30020000 		.4byte	.LBB497
 11858 3fc6 0E000000 		.4byte	.LBE497-.LBB497
 11859 3fca 05       		.byte	0x5
 11860 3fcb BF01     		.2byte	0x1bf
 11861 3fcd 37       		.uleb128 0x37
 11862 3fce 7E590000 		.4byte	0x597e
 11863 3fd2 30020000 		.4byte	.LBB499
 11864 3fd6 06000000 		.4byte	.LBE499-.LBB499
 11865 3fda 04       		.byte	0x4
 11866 3fdb 5C01     		.2byte	0x15c
 11867 3fdd FC3F0000 		.4byte	0x3ffc
 11868 3fe1 38       		.uleb128 0x38
 11869 3fe2 87590000 		.4byte	0x5987
 11870 3fe6 30020000 		.4byte	.LBB500
 11871 3fea 06000000 		.4byte	.LBE500-.LBB500
 11872 3fee 14       		.byte	0x14
 11873 3fef BF01     		.2byte	0x1bf
 11874 3ff1 39       		.uleb128 0x39
 11875 3ff2 94590000 		.4byte	0x5994
 11876 3ff6 C5000000 		.4byte	.LLST35
 11877 3ffa 00       		.byte	0
 11878 3ffb 00       		.byte	0
 11879 3ffc 3A       		.uleb128 0x3a
 11880 3ffd 3A020000 		.4byte	.LVL82
 11881 4001 8F5E0000 		.4byte	0x5e8f
 11882 4005 3A       		.uleb128 0x3a
 11883 4006 3E020000 		.4byte	.LVL83
 11884 400a 9A5E0000 		.4byte	0x5e9a
 11885 400e 00       		.byte	0
 11886 400f 00       		.byte	0
 11887 4010 37       		.uleb128 0x37
 11888 4011 C6580000 		.4byte	0x58c6
 11889 4015 52020000 		.4byte	.LBB502
 11890 4019 28000000 		.4byte	.LBE502-.LBB502
 11891 401d 01       		.byte	0x1
 11892 401e 3805     		.2byte	0x538
 11893 4020 99400000 		.4byte	0x4099
 11894 4024 38       		.uleb128 0x38
ARM GAS  C:\Users\Moi\AppData\Local\Temp\ccOzHcBd.s 			page 210


 11895 4025 3F590000 		.4byte	0x593f
 11896 4029 52020000 		.4byte	.LBB503
 11897 402d 28000000 		.4byte	.LBE503-.LBB503
 11898 4031 05       		.byte	0x5
 11899 4032 CA01     		.2byte	0x1ca
 11900 4034 3B       		.uleb128 0x3b
 11901 4035 52020000 		.4byte	.LBB504
 11902 4039 28000000 		.4byte	.LBE504-.LBB504
 11903 403d 3C       		.uleb128 0x3c
 11904 403e 4C590000 		.4byte	0x594c
 11905 4042 37       		.uleb128 0x37
 11906 4043 75590000 		.4byte	0x5975
 11907 4047 70020000 		.4byte	.LBB505
 11908 404b 0A000000 		.4byte	.LBE505-.LBB505
 11909 404f 04       		.byte	0x4
 11910 4050 7301     		.2byte	0x173
 11911 4052 71400000 		.4byte	0x4071
 11912 4056 38       		.uleb128 0x38
 11913 4057 87590000 		.4byte	0x5987
 11914 405b 70020000 		.4byte	.LBB506
 11915 405f 0A000000 		.4byte	.LBE506-.LBB506
 11916 4063 14       		.byte	0x14
 11917 4064 CD01     		.2byte	0x1cd
 11918 4066 39       		.uleb128 0x39
 11919 4067 94590000 		.4byte	0x5994
 11920 406b DA000000 		.4byte	.LLST36
 11921 406f 00       		.byte	0
 11922 4070 00       		.byte	0
 11923 4071 3A       		.uleb128 0x3a
 11924 4072 56020000 		.4byte	.LVL84
 11925 4076 A55E0000 		.4byte	0x5ea5
 11926 407a 3A       		.uleb128 0x3a
 11927 407b 5A020000 		.4byte	.LVL85
 11928 407f B05E0000 		.4byte	0x5eb0
 11929 4083 3D       		.uleb128 0x3d
 11930 4084 70020000 		.4byte	.LVL86
 11931 4088 BB5E0000 		.4byte	0x5ebb
 11932 408c 3E       		.uleb128 0x3e
 11933 408d 01       		.uleb128 0x1
 11934 408e 50       		.byte	0x50
 11935 408f 05       		.uleb128 0x5
 11936 4090 03       		.byte	0x3
 11937 4091 00000000 		.4byte	.LANCHOR0
 11938 4095 00       		.byte	0
 11939 4096 00       		.byte	0
 11940 4097 00       		.byte	0
 11941 4098 00       		.byte	0
 11942 4099 3F       		.uleb128 0x3f
 11943 409a D1540000 		.4byte	0x54d1
 11944 409e 7A020000 		.4byte	.LBB508
 11945 40a2 F0000000 		.4byte	.Ldebug_ranges0+0xf0
 11946 40a6 01       		.byte	0x1
 11947 40a7 3A05     		.2byte	0x53a
 11948 40a9 05430000 		.4byte	0x4305
 11949 40ad 40       		.uleb128 0x40
 11950 40ae EE540000 		.4byte	0x54ee
 11951 40b2 40       		.uleb128 0x40
ARM GAS  C:\Users\Moi\AppData\Local\Temp\ccOzHcBd.s 			page 211


 11952 40b3 E2540000 		.4byte	0x54e2
 11953 40b7 41       		.uleb128 0x41
 11954 40b8 F9540000 		.4byte	0x54f9
 11955 40bc F0000000 		.4byte	.Ldebug_ranges0+0xf0
 11956 40c0 42       		.uleb128 0x42
 11957 40c1 FA540000 		.4byte	0x54fa
 11958 40c5 EE000000 		.4byte	.LLST37
 11959 40c9 3F       		.uleb128 0x3f
 11960 40ca 42560000 		.4byte	0x5642
 11961 40ce CE020000 		.4byte	.LBB510
 11962 40d2 08010000 		.4byte	.Ldebug_ranges0+0x108
 11963 40d6 01       		.byte	0x1
 11964 40d7 FB01     		.2byte	0x1fb
 11965 40d9 B3420000 		.4byte	0x42b3
 11966 40dd 39       		.uleb128 0x39
 11967 40de 67560000 		.4byte	0x5667
 11968 40e2 51010000 		.4byte	.LLST38
 11969 40e6 39       		.uleb128 0x39
 11970 40e7 5B560000 		.4byte	0x565b
 11971 40eb 88010000 		.4byte	.LLST39
 11972 40ef 40       		.uleb128 0x40
 11973 40f0 4F560000 		.4byte	0x564f
 11974 40f4 43       		.uleb128 0x43
 11975 40f5 08010000 		.4byte	.Ldebug_ranges0+0x108
 11976 40f9 42       		.uleb128 0x42
 11977 40fa 71560000 		.4byte	0x5671
 11978 40fe 9C010000 		.4byte	.LLST40
 11979 4102 44       		.uleb128 0x44
 11980 4103 7D560000 		.4byte	0x567d
 11981 4107 28010000 		.4byte	.Ldebug_ranges0+0x128
 11982 410b 6B410000 		.4byte	0x416b
 11983 410f 42       		.uleb128 0x42
 11984 4110 7E560000 		.4byte	0x567e
 11985 4114 E8010000 		.4byte	.LLST41
 11986 4118 3C       		.uleb128 0x3c
 11987 4119 88560000 		.4byte	0x5688
 11988 411d 42       		.uleb128 0x42
 11989 411e 92560000 		.4byte	0x5692
 11990 4122 FB010000 		.4byte	.LLST42
 11991 4126 41       		.uleb128 0x41
 11992 4127 9D560000 		.4byte	0x569d
 11993 412b 48010000 		.4byte	.Ldebug_ranges0+0x148
 11994 412f 42       		.uleb128 0x42
 11995 4130 9E560000 		.4byte	0x569e
 11996 4134 33020000 		.4byte	.LLST43
 11997 4138 42       		.uleb128 0x42
 11998 4139 AA560000 		.4byte	0x56aa
 11999 413d A8020000 		.4byte	.LLST44
 12000 4141 45       		.uleb128 0x45
 12001 4142 E5560000 		.4byte	0x56e5
 12002 4146 F6020000 		.4byte	.LBB514
 12003 414a 68010000 		.4byte	.Ldebug_ranges0+0x168
 12004 414e 01       		.byte	0x1
 12005 414f 1B01     		.2byte	0x11b
 12006 4151 39       		.uleb128 0x39
 12007 4152 0B570000 		.4byte	0x570b
 12008 4156 E7020000 		.4byte	.LLST45
ARM GAS  C:\Users\Moi\AppData\Local\Temp\ccOzHcBd.s 			page 212


 12009 415a 39       		.uleb128 0x39
 12010 415b 00570000 		.4byte	0x5700
 12011 415f 05030000 		.4byte	.LLST46
 12012 4163 40       		.uleb128 0x40
 12013 4164 F5560000 		.4byte	0x56f5
 12014 4168 00       		.byte	0
 12015 4169 00       		.byte	0
 12016 416a 00       		.byte	0
 12017 416b 37       		.uleb128 0x37
 12018 416c CF580000 		.4byte	0x58cf
 12019 4170 1A030000 		.4byte	.LBB520
 12020 4174 0E000000 		.4byte	.LBE520-.LBB520
 12021 4178 01       		.byte	0x1
 12022 4179 3501     		.2byte	0x135
 12023 417b D2410000 		.4byte	0x41d2
 12024 417f 38       		.uleb128 0x38
 12025 4180 5A590000 		.4byte	0x595a
 12026 4184 1A030000 		.4byte	.LBB521
 12027 4188 0E000000 		.4byte	.LBE521-.LBB521
 12028 418c 05       		.byte	0x5
 12029 418d BF01     		.2byte	0x1bf
 12030 418f 37       		.uleb128 0x37
 12031 4190 7E590000 		.4byte	0x597e
 12032 4194 1A030000 		.4byte	.LBB523
 12033 4198 06000000 		.4byte	.LBE523-.LBB523
 12034 419c 04       		.byte	0x4
 12035 419d 5C01     		.2byte	0x15c
 12036 419f BE410000 		.4byte	0x41be
 12037 41a3 38       		.uleb128 0x38
 12038 41a4 87590000 		.4byte	0x5987
 12039 41a8 1A030000 		.4byte	.LBB524
 12040 41ac 06000000 		.4byte	.LBE524-.LBB524
 12041 41b0 14       		.byte	0x14
 12042 41b1 BF01     		.2byte	0x1bf
 12043 41b3 39       		.uleb128 0x39
 12044 41b4 94590000 		.4byte	0x5994
 12045 41b8 30030000 		.4byte	.LLST47
 12046 41bc 00       		.byte	0
 12047 41bd 00       		.byte	0
 12048 41be 3A       		.uleb128 0x3a
 12049 41bf 24030000 		.4byte	.LVL104
 12050 41c3 8F5E0000 		.4byte	0x5e8f
 12051 41c7 3A       		.uleb128 0x3a
 12052 41c8 28030000 		.4byte	.LVL105
 12053 41cc 9A5E0000 		.4byte	0x5e9a
 12054 41d0 00       		.byte	0
 12055 41d1 00       		.byte	0
 12056 41d2 37       		.uleb128 0x37
 12057 41d3 21580000 		.4byte	0x5821
 12058 41d7 2E030000 		.4byte	.LBB526
 12059 41db 08000000 		.4byte	.LBE526-.LBB526
 12060 41df 01       		.byte	0x1
 12061 41e0 3701     		.2byte	0x137
 12062 41e2 0E420000 		.4byte	0x420e
 12063 41e6 39       		.uleb128 0x39
 12064 41e7 3A580000 		.4byte	0x583a
 12065 41eb 45030000 		.4byte	.LLST48
ARM GAS  C:\Users\Moi\AppData\Local\Temp\ccOzHcBd.s 			page 213


 12066 41ef 39       		.uleb128 0x39
 12067 41f0 2E580000 		.4byte	0x582e
 12068 41f4 59030000 		.4byte	.LLST49
 12069 41f8 3D       		.uleb128 0x3d
 12070 41f9 36030000 		.4byte	.LVL107
 12071 41fd C75E0000 		.4byte	0x5ec7
 12072 4201 3E       		.uleb128 0x3e
 12073 4202 01       		.uleb128 0x1
 12074 4203 50       		.byte	0x50
 12075 4204 02       		.uleb128 0x2
 12076 4205 74       		.byte	0x74
 12077 4206 00       		.sleb128 0
 12078 4207 3E       		.uleb128 0x3e
 12079 4208 01       		.uleb128 0x1
 12080 4209 51       		.byte	0x51
 12081 420a 01       		.uleb128 0x1
 12082 420b 30       		.byte	0x30
 12083 420c 00       		.byte	0
 12084 420d 00       		.byte	0
 12085 420e 37       		.uleb128 0x37
 12086 420f 91580000 		.4byte	0x5891
 12087 4213 36030000 		.4byte	.LBB528
 12088 4217 04000000 		.4byte	.LBE528-.LBB528
 12089 421b 01       		.byte	0x1
 12090 421c 3801     		.2byte	0x138
 12091 421e 2C420000 		.4byte	0x422c
 12092 4222 3A       		.uleb128 0x3a
 12093 4223 3A030000 		.4byte	.LVL108
 12094 4227 D25E0000 		.4byte	0x5ed2
 12095 422b 00       		.byte	0
 12096 422c 38       		.uleb128 0x38
 12097 422d C6580000 		.4byte	0x58c6
 12098 4231 3A030000 		.4byte	.LBB530
 12099 4235 28000000 		.4byte	.LBE530-.LBB530
 12100 4239 01       		.byte	0x1
 12101 423a 3901     		.2byte	0x139
 12102 423c 38       		.uleb128 0x38
 12103 423d 3F590000 		.4byte	0x593f
 12104 4241 3A030000 		.4byte	.LBB531
 12105 4245 28000000 		.4byte	.LBE531-.LBB531
 12106 4249 05       		.byte	0x5
 12107 424a CA01     		.2byte	0x1ca
 12108 424c 3B       		.uleb128 0x3b
 12109 424d 3A030000 		.4byte	.LBB532
 12110 4251 28000000 		.4byte	.LBE532-.LBB532
 12111 4255 3C       		.uleb128 0x3c
 12112 4256 4C590000 		.4byte	0x594c
 12113 425a 37       		.uleb128 0x37
 12114 425b 75590000 		.4byte	0x5975
 12115 425f 58030000 		.4byte	.LBB533
 12116 4263 0A000000 		.4byte	.LBE533-.LBB533
 12117 4267 04       		.byte	0x4
 12118 4268 7301     		.2byte	0x173
 12119 426a 89420000 		.4byte	0x4289
 12120 426e 38       		.uleb128 0x38
 12121 426f 87590000 		.4byte	0x5987
 12122 4273 58030000 		.4byte	.LBB534
ARM GAS  C:\Users\Moi\AppData\Local\Temp\ccOzHcBd.s 			page 214


 12123 4277 0A000000 		.4byte	.LBE534-.LBB534
 12124 427b 14       		.byte	0x14
 12125 427c CD01     		.2byte	0x1cd
 12126 427e 39       		.uleb128 0x39
 12127 427f 94590000 		.4byte	0x5994
 12128 4283 6C030000 		.4byte	.LLST50
 12129 4287 00       		.byte	0
 12130 4288 00       		.byte	0
 12131 4289 3A       		.uleb128 0x3a
 12132 428a 3E030000 		.4byte	.LVL109
 12133 428e A55E0000 		.4byte	0x5ea5
 12134 4292 3A       		.uleb128 0x3a
 12135 4293 42030000 		.4byte	.LVL110
 12136 4297 B05E0000 		.4byte	0x5eb0
 12137 429b 3D       		.uleb128 0x3d
 12138 429c 58030000 		.4byte	.LVL111
 12139 42a0 BB5E0000 		.4byte	0x5ebb
 12140 42a4 3E       		.uleb128 0x3e
 12141 42a5 01       		.uleb128 0x1
 12142 42a6 50       		.byte	0x50
 12143 42a7 05       		.uleb128 0x5
 12144 42a8 03       		.byte	0x3
 12145 42a9 00000000 		.4byte	.LANCHOR0
 12146 42ad 00       		.byte	0
 12147 42ae 00       		.byte	0
 12148 42af 00       		.byte	0
 12149 42b0 00       		.byte	0
 12150 42b1 00       		.byte	0
 12151 42b2 00       		.byte	0
 12152 42b3 38       		.uleb128 0x38
 12153 42b4 B9560000 		.4byte	0x56b9
 12154 42b8 1A040000 		.4byte	.LBB541
 12155 42bc 1C000000 		.4byte	.LBE541-.LBB541
 12156 42c0 01       		.byte	0x1
 12157 42c1 0102     		.2byte	0x201
 12158 42c3 39       		.uleb128 0x39
 12159 42c4 DB560000 		.4byte	0x56db
 12160 42c8 80030000 		.4byte	.LLST51
 12161 42cc 39       		.uleb128 0x39
 12162 42cd D0560000 		.4byte	0x56d0
 12163 42d1 93030000 		.4byte	.LLST52
 12164 42d5 40       		.uleb128 0x40
 12165 42d6 C5560000 		.4byte	0x56c5
 12166 42da 38       		.uleb128 0x38
 12167 42db E5560000 		.4byte	0x56e5
 12168 42df 1C040000 		.4byte	.LBB543
 12169 42e3 1A000000 		.4byte	.LBE543-.LBB543
 12170 42e7 01       		.byte	0x1
 12171 42e8 0001     		.2byte	0x100
 12172 42ea 39       		.uleb128 0x39
 12173 42eb 0B570000 		.4byte	0x570b
 12174 42ef A7030000 		.4byte	.LLST53
 12175 42f3 39       		.uleb128 0x39
 12176 42f4 00570000 		.4byte	0x5700
 12177 42f8 C9030000 		.4byte	.LLST54
 12178 42fc 40       		.uleb128 0x40
 12179 42fd F5560000 		.4byte	0x56f5
ARM GAS  C:\Users\Moi\AppData\Local\Temp\ccOzHcBd.s 			page 215


 12180 4301 00       		.byte	0
 12181 4302 00       		.byte	0
 12182 4303 00       		.byte	0
 12183 4304 00       		.byte	0
 12184 4305 3F       		.uleb128 0x3f
 12185 4306 CF580000 		.4byte	0x58cf
 12186 430a 92030000 		.4byte	.LBB547
 12187 430e 80010000 		.4byte	.Ldebug_ranges0+0x180
 12188 4312 01       		.byte	0x1
 12189 4313 3C05     		.2byte	0x53c
 12190 4315 90430000 		.4byte	0x4390
 12191 4319 45       		.uleb128 0x45
 12192 431a 5A590000 		.4byte	0x595a
 12193 431e 92030000 		.4byte	.LBB548
 12194 4322 80010000 		.4byte	.Ldebug_ranges0+0x180
 12195 4326 05       		.byte	0x5
 12196 4327 BF01     		.2byte	0x1bf
 12197 4329 3F       		.uleb128 0x3f
 12198 432a 7E590000 		.4byte	0x597e
 12199 432e 92030000 		.4byte	.LBB550
 12200 4332 A0010000 		.4byte	.Ldebug_ranges0+0x1a0
 12201 4336 04       		.byte	0x4
 12202 4337 5C01     		.2byte	0x15c
 12203 4339 58430000 		.4byte	0x4358
 12204 433d 45       		.uleb128 0x45
 12205 433e 87590000 		.4byte	0x5987
 12206 4342 92030000 		.4byte	.LBB551
 12207 4346 A0010000 		.4byte	.Ldebug_ranges0+0x1a0
 12208 434a 14       		.byte	0x14
 12209 434b BF01     		.2byte	0x1bf
 12210 434d 39       		.uleb128 0x39
 12211 434e 94590000 		.4byte	0x5994
 12212 4352 00040000 		.4byte	.LLST55
 12213 4356 00       		.byte	0
 12214 4357 00       		.byte	0
 12215 4358 3A       		.uleb128 0x3a
 12216 4359 9C030000 		.4byte	.LVL117
 12217 435d 8F5E0000 		.4byte	0x5e8f
 12218 4361 3A       		.uleb128 0x3a
 12219 4362 A0030000 		.4byte	.LVL118
 12220 4366 9A5E0000 		.4byte	0x5e9a
 12221 436a 3A       		.uleb128 0x3a
 12222 436b 52040000 		.4byte	.LVL139
 12223 436f 8F5E0000 		.4byte	0x5e8f
 12224 4373 3A       		.uleb128 0x3a
 12225 4374 56040000 		.4byte	.LVL140
 12226 4378 9A5E0000 		.4byte	0x5e9a
 12227 437c 3A       		.uleb128 0x3a
 12228 437d 74040000 		.4byte	.LVL143
 12229 4381 8F5E0000 		.4byte	0x5e8f
 12230 4385 3A       		.uleb128 0x3a
 12231 4386 78040000 		.4byte	.LVL144
 12232 438a 9A5E0000 		.4byte	0x5e9a
 12233 438e 00       		.byte	0
 12234 438f 00       		.byte	0
 12235 4390 38       		.uleb128 0x38
 12236 4391 C6580000 		.4byte	0x58c6
ARM GAS  C:\Users\Moi\AppData\Local\Temp\ccOzHcBd.s 			page 216


 12237 4395 BA030000 		.4byte	.LBB563
 12238 4399 26000000 		.4byte	.LBE563-.LBB563
 12239 439d 01       		.byte	0x1
 12240 439e 4005     		.2byte	0x540
 12241 43a0 38       		.uleb128 0x38
 12242 43a1 3F590000 		.4byte	0x593f
 12243 43a5 BA030000 		.4byte	.LBB564
 12244 43a9 26000000 		.4byte	.LBE564-.LBB564
 12245 43ad 05       		.byte	0x5
 12246 43ae CA01     		.2byte	0x1ca
 12247 43b0 3B       		.uleb128 0x3b
 12248 43b1 BA030000 		.4byte	.LBB565
 12249 43b5 26000000 		.4byte	.LBE565-.LBB565
 12250 43b9 3C       		.uleb128 0x3c
 12251 43ba 4C590000 		.4byte	0x594c
 12252 43be 37       		.uleb128 0x37
 12253 43bf 75590000 		.4byte	0x5975
 12254 43c3 D8030000 		.4byte	.LBB566
 12255 43c7 08000000 		.4byte	.LBE566-.LBB566
 12256 43cb 04       		.byte	0x4
 12257 43cc 7301     		.2byte	0x173
 12258 43ce ED430000 		.4byte	0x43ed
 12259 43d2 38       		.uleb128 0x38
 12260 43d3 87590000 		.4byte	0x5987
 12261 43d7 D8030000 		.4byte	.LBB567
 12262 43db 08000000 		.4byte	.LBE567-.LBB567
 12263 43df 14       		.byte	0x14
 12264 43e0 CD01     		.2byte	0x1cd
 12265 43e2 39       		.uleb128 0x39
 12266 43e3 94590000 		.4byte	0x5994
 12267 43e7 2F040000 		.4byte	.LLST56
 12268 43eb 00       		.byte	0
 12269 43ec 00       		.byte	0
 12270 43ed 3A       		.uleb128 0x3a
 12271 43ee BE030000 		.4byte	.LVL120
 12272 43f2 A55E0000 		.4byte	0x5ea5
 12273 43f6 3A       		.uleb128 0x3a
 12274 43f7 C2030000 		.4byte	.LVL121
 12275 43fb B05E0000 		.4byte	0x5eb0
 12276 43ff 3D       		.uleb128 0x3d
 12277 4400 D8030000 		.4byte	.LVL122
 12278 4404 BB5E0000 		.4byte	0x5ebb
 12279 4408 3E       		.uleb128 0x3e
 12280 4409 01       		.uleb128 0x1
 12281 440a 50       		.byte	0x50
 12282 440b 05       		.uleb128 0x5
 12283 440c 03       		.byte	0x3
 12284 440d 00000000 		.4byte	.LANCHOR0
 12285 4411 00       		.byte	0
 12286 4412 00       		.byte	0
 12287 4413 00       		.byte	0
 12288 4414 00       		.byte	0
 12289 4415 00       		.byte	0
 12290 4416 3F       		.uleb128 0x3f
 12291 4417 C6580000 		.4byte	0x58c6
 12292 441b 2C000000 		.4byte	.LBB436
 12293 441f 28000000 		.4byte	.Ldebug_ranges0+0x28
ARM GAS  C:\Users\Moi\AppData\Local\Temp\ccOzHcBd.s 			page 217


 12294 4423 01       		.byte	0x1
 12295 4424 2005     		.2byte	0x520
 12296 4426 9B440000 		.4byte	0x449b
 12297 442a 45       		.uleb128 0x45
 12298 442b 3F590000 		.4byte	0x593f
 12299 442f 2C000000 		.4byte	.LBB437
 12300 4433 28000000 		.4byte	.Ldebug_ranges0+0x28
 12301 4437 05       		.byte	0x5
 12302 4438 CA01     		.2byte	0x1ca
 12303 443a 43       		.uleb128 0x43
 12304 443b 28000000 		.4byte	.Ldebug_ranges0+0x28
 12305 443f 3C       		.uleb128 0x3c
 12306 4440 4C590000 		.4byte	0x594c
 12307 4444 3F       		.uleb128 0x3f
 12308 4445 75590000 		.4byte	0x5975
 12309 4449 2C000000 		.4byte	.LBB439
 12310 444d 40000000 		.4byte	.Ldebug_ranges0+0x40
 12311 4451 04       		.byte	0x4
 12312 4452 7301     		.2byte	0x173
 12313 4454 73440000 		.4byte	0x4473
 12314 4458 45       		.uleb128 0x45
 12315 4459 87590000 		.4byte	0x5987
 12316 445d 2C000000 		.4byte	.LBB440
 12317 4461 40000000 		.4byte	.Ldebug_ranges0+0x40
 12318 4465 14       		.byte	0x14
 12319 4466 CD01     		.2byte	0x1cd
 12320 4468 39       		.uleb128 0x39
 12321 4469 94590000 		.4byte	0x5994
 12322 446d 43040000 		.4byte	.LLST7
 12323 4471 00       		.byte	0
 12324 4472 00       		.byte	0
 12325 4473 3A       		.uleb128 0x3a
 12326 4474 5A000000 		.4byte	.LVL13
 12327 4478 A55E0000 		.4byte	0x5ea5
 12328 447c 3A       		.uleb128 0x3a
 12329 447d 5E000000 		.4byte	.LVL14
 12330 4481 B05E0000 		.4byte	0x5eb0
 12331 4485 3D       		.uleb128 0x3d
 12332 4486 74000000 		.4byte	.LVL15
 12333 448a BB5E0000 		.4byte	0x5ebb
 12334 448e 3E       		.uleb128 0x3e
 12335 448f 01       		.uleb128 0x1
 12336 4490 50       		.byte	0x50
 12337 4491 05       		.uleb128 0x5
 12338 4492 03       		.byte	0x3
 12339 4493 00000000 		.4byte	.LANCHOR0
 12340 4497 00       		.byte	0
 12341 4498 00       		.byte	0
 12342 4499 00       		.byte	0
 12343 449a 00       		.byte	0
 12344 449b 3F       		.uleb128 0x3f
 12345 449c 73580000 		.4byte	0x5873
 12346 44a0 48000000 		.4byte	.LBB447
 12347 44a4 58000000 		.4byte	.Ldebug_ranges0+0x58
 12348 44a8 01       		.byte	0x1
 12349 44a9 1E05     		.2byte	0x51e
 12350 44ab C6440000 		.4byte	0x44c6
ARM GAS  C:\Users\Moi\AppData\Local\Temp\ccOzHcBd.s 			page 218


 12351 44af 40       		.uleb128 0x40
 12352 44b0 84580000 		.4byte	0x5884
 12353 44b4 3D       		.uleb128 0x3d
 12354 44b5 56000000 		.4byte	.LVL12
 12355 44b9 DE5E0000 		.4byte	0x5ede
 12356 44bd 3E       		.uleb128 0x3e
 12357 44be 01       		.uleb128 0x1
 12358 44bf 50       		.byte	0x50
 12359 44c0 03       		.uleb128 0x3
 12360 44c1 91       		.byte	0x91
 12361 44c2 4C       		.sleb128 -52
 12362 44c3 06       		.byte	0x6
 12363 44c4 00       		.byte	0
 12364 44c5 00       		.byte	0
 12365 44c6 3F       		.uleb128 0x3f
 12366 44c7 06550000 		.4byte	0x5506
 12367 44cb 84000000 		.4byte	.LBB452
 12368 44cf 70000000 		.4byte	.Ldebug_ranges0+0x70
 12369 44d3 01       		.byte	0x1
 12370 44d4 2705     		.2byte	0x527
 12371 44d6 6B470000 		.4byte	0x476b
 12372 44da 39       		.uleb128 0x39
 12373 44db 13550000 		.4byte	0x5513
 12374 44df 57040000 		.4byte	.LLST8
 12375 44e3 43       		.uleb128 0x43
 12376 44e4 70000000 		.4byte	.Ldebug_ranges0+0x70
 12377 44e8 42       		.uleb128 0x42
 12378 44e9 1F550000 		.4byte	0x551f
 12379 44ed 75040000 		.4byte	.LLST9
 12380 44f1 42       		.uleb128 0x42
 12381 44f2 2B550000 		.4byte	0x552b
 12382 44f6 93040000 		.4byte	.LLST10
 12383 44fa 42       		.uleb128 0x42
 12384 44fb 37550000 		.4byte	0x5537
 12385 44ff C4040000 		.4byte	.LLST11
 12386 4503 3F       		.uleb128 0x3f
 12387 4504 BA550000 		.4byte	0x55ba
 12388 4508 A6000000 		.4byte	.LBB454
 12389 450c 88000000 		.4byte	.Ldebug_ranges0+0x88
 12390 4510 01       		.byte	0x1
 12391 4511 BC01     		.2byte	0x1bc
 12392 4513 4B450000 		.4byte	0x454b
 12393 4517 39       		.uleb128 0x39
 12394 4518 E9550000 		.4byte	0x55e9
 12395 451c 04050000 		.4byte	.LLST12
 12396 4520 40       		.uleb128 0x40
 12397 4521 DF550000 		.4byte	0x55df
 12398 4525 39       		.uleb128 0x39
 12399 4526 D3550000 		.4byte	0x55d3
 12400 452a 3A050000 		.4byte	.LLST13
 12401 452e 39       		.uleb128 0x39
 12402 452f C7550000 		.4byte	0x55c7
 12403 4533 4D050000 		.4byte	.LLST14
 12404 4537 41       		.uleb128 0x41
 12405 4538 F5550000 		.4byte	0x55f5
 12406 453c A0000000 		.4byte	.Ldebug_ranges0+0xa0
 12407 4540 42       		.uleb128 0x42
ARM GAS  C:\Users\Moi\AppData\Local\Temp\ccOzHcBd.s 			page 219


 12408 4541 F6550000 		.4byte	0x55f6
 12409 4545 6E050000 		.4byte	.LLST15
 12410 4549 00       		.byte	0
 12411 454a 00       		.byte	0
 12412 454b 3F       		.uleb128 0x3f
 12413 454c BA550000 		.4byte	0x55ba
 12414 4550 FA000000 		.4byte	.LBB461
 12415 4554 C0000000 		.4byte	.Ldebug_ranges0+0xc0
 12416 4558 01       		.byte	0x1
 12417 4559 C901     		.2byte	0x1c9
 12418 455b 97450000 		.4byte	0x4597
 12419 455f 39       		.uleb128 0x39
 12420 4560 E9550000 		.4byte	0x55e9
 12421 4564 8C050000 		.4byte	.LLST16
 12422 4568 39       		.uleb128 0x39
 12423 4569 DF550000 		.4byte	0x55df
 12424 456d C7050000 		.4byte	.LLST17
 12425 4571 39       		.uleb128 0x39
 12426 4572 D3550000 		.4byte	0x55d3
 12427 4576 0A060000 		.4byte	.LLST18
 12428 457a 39       		.uleb128 0x39
 12429 457b C7550000 		.4byte	0x55c7
 12430 457f 34060000 		.4byte	.LLST19
 12431 4583 41       		.uleb128 0x41
 12432 4584 F5550000 		.4byte	0x55f5
 12433 4588 D8000000 		.4byte	.Ldebug_ranges0+0xd8
 12434 458c 42       		.uleb128 0x42
 12435 458d F6550000 		.4byte	0x55f6
 12436 4591 6B060000 		.4byte	.LLST20
 12437 4595 00       		.byte	0
 12438 4596 00       		.byte	0
 12439 4597 38       		.uleb128 0x38
 12440 4598 43550000 		.4byte	0x5543
 12441 459c 7C010000 		.4byte	.LBB467
 12442 45a0 B4000000 		.4byte	.LBE467-.LBB467
 12443 45a4 01       		.byte	0x1
 12444 45a5 C401     		.2byte	0x1c4
 12445 45a7 39       		.uleb128 0x39
 12446 45a8 68550000 		.4byte	0x5568
 12447 45ac 89060000 		.4byte	.LLST21
 12448 45b0 39       		.uleb128 0x39
 12449 45b1 5C550000 		.4byte	0x555c
 12450 45b5 9C060000 		.4byte	.LLST22
 12451 45b9 39       		.uleb128 0x39
 12452 45ba 50550000 		.4byte	0x5550
 12453 45be B0060000 		.4byte	.LLST23
 12454 45c2 3B       		.uleb128 0x3b
 12455 45c3 7C010000 		.4byte	.LBB468
 12456 45c7 B4000000 		.4byte	.LBE468-.LBB468
 12457 45cb 42       		.uleb128 0x42
 12458 45cc 72550000 		.4byte	0x5572
 12459 45d0 D1060000 		.4byte	.LLST24
 12460 45d4 46       		.uleb128 0x46
 12461 45d5 7E550000 		.4byte	0x557e
 12462 45d9 86010000 		.4byte	.LBB469
 12463 45dd 48000000 		.4byte	.LBE469-.LBB469
 12464 45e1 21460000 		.4byte	0x4621
ARM GAS  C:\Users\Moi\AppData\Local\Temp\ccOzHcBd.s 			page 220


 12465 45e5 42       		.uleb128 0x42
 12466 45e6 7F550000 		.4byte	0x557f
 12467 45ea 07070000 		.4byte	.LLST25
 12468 45ee 42       		.uleb128 0x42
 12469 45ef 89550000 		.4byte	0x5589
 12470 45f3 1A070000 		.4byte	.LLST26
 12471 45f7 42       		.uleb128 0x42
 12472 45f8 93550000 		.4byte	0x5593
 12473 45fc 2E070000 		.4byte	.LLST27
 12474 4600 47       		.uleb128 0x47
 12475 4601 9E550000 		.4byte	0x559e
 12476 4605 8C010000 		.4byte	.LBB470
 12477 4609 0A000000 		.4byte	.LBE470-.LBB470
 12478 460d 42       		.uleb128 0x42
 12479 460e 9F550000 		.4byte	0x559f
 12480 4612 54070000 		.4byte	.LLST28
 12481 4616 42       		.uleb128 0x42
 12482 4617 AB550000 		.4byte	0x55ab
 12483 461b 54070000 		.4byte	.LLST28
 12484 461f 00       		.byte	0
 12485 4620 00       		.byte	0
 12486 4621 37       		.uleb128 0x37
 12487 4622 CF580000 		.4byte	0x58cf
 12488 4626 CE010000 		.4byte	.LBB471
 12489 462a 0E000000 		.4byte	.LBE471-.LBB471
 12490 462e 01       		.byte	0x1
 12491 462f A401     		.2byte	0x1a4
 12492 4631 88460000 		.4byte	0x4688
 12493 4635 38       		.uleb128 0x38
 12494 4636 5A590000 		.4byte	0x595a
 12495 463a CE010000 		.4byte	.LBB472
 12496 463e 0E000000 		.4byte	.LBE472-.LBB472
 12497 4642 05       		.byte	0x5
 12498 4643 BF01     		.2byte	0x1bf
 12499 4645 37       		.uleb128 0x37
 12500 4646 7E590000 		.4byte	0x597e
 12501 464a CE010000 		.4byte	.LBB474
 12502 464e 06000000 		.4byte	.LBE474-.LBB474
 12503 4652 04       		.byte	0x4
 12504 4653 5C01     		.2byte	0x15c
 12505 4655 74460000 		.4byte	0x4674
 12506 4659 38       		.uleb128 0x38
 12507 465a 87590000 		.4byte	0x5987
 12508 465e CE010000 		.4byte	.LBB475
 12509 4662 06000000 		.4byte	.LBE475-.LBB475
 12510 4666 14       		.byte	0x14
 12511 4667 BF01     		.2byte	0x1bf
 12512 4669 39       		.uleb128 0x39
 12513 466a 94590000 		.4byte	0x5994
 12514 466e 68070000 		.4byte	.LLST30
 12515 4672 00       		.byte	0
 12516 4673 00       		.byte	0
 12517 4674 3A       		.uleb128 0x3a
 12518 4675 D8010000 		.4byte	.LVL71
 12519 4679 8F5E0000 		.4byte	0x5e8f
 12520 467d 3A       		.uleb128 0x3a
 12521 467e DC010000 		.4byte	.LVL72
ARM GAS  C:\Users\Moi\AppData\Local\Temp\ccOzHcBd.s 			page 221


 12522 4682 9A5E0000 		.4byte	0x5e9a
 12523 4686 00       		.byte	0
 12524 4687 00       		.byte	0
 12525 4688 37       		.uleb128 0x37
 12526 4689 21580000 		.4byte	0x5821
 12527 468d E2010000 		.4byte	.LBB477
 12528 4691 08000000 		.4byte	.LBE477-.LBB477
 12529 4695 01       		.byte	0x1
 12530 4696 A601     		.2byte	0x1a6
 12531 4698 C4460000 		.4byte	0x46c4
 12532 469c 39       		.uleb128 0x39
 12533 469d 3A580000 		.4byte	0x583a
 12534 46a1 7D070000 		.4byte	.LLST31
 12535 46a5 39       		.uleb128 0x39
 12536 46a6 2E580000 		.4byte	0x582e
 12537 46aa 91070000 		.4byte	.LLST32
 12538 46ae 3D       		.uleb128 0x3d
 12539 46af EA010000 		.4byte	.LVL74
 12540 46b3 C75E0000 		.4byte	0x5ec7
 12541 46b7 3E       		.uleb128 0x3e
 12542 46b8 01       		.uleb128 0x1
 12543 46b9 50       		.byte	0x50
 12544 46ba 02       		.uleb128 0x2
 12545 46bb 75       		.byte	0x75
 12546 46bc 00       		.sleb128 0
 12547 46bd 3E       		.uleb128 0x3e
 12548 46be 01       		.uleb128 0x1
 12549 46bf 51       		.byte	0x51
 12550 46c0 01       		.uleb128 0x1
 12551 46c1 30       		.byte	0x30
 12552 46c2 00       		.byte	0
 12553 46c3 00       		.byte	0
 12554 46c4 37       		.uleb128 0x37
 12555 46c5 91580000 		.4byte	0x5891
 12556 46c9 EA010000 		.4byte	.LBB479
 12557 46cd 04000000 		.4byte	.LBE479-.LBB479
 12558 46d1 01       		.byte	0x1
 12559 46d2 A701     		.2byte	0x1a7
 12560 46d4 E2460000 		.4byte	0x46e2
 12561 46d8 3A       		.uleb128 0x3a
 12562 46d9 EE010000 		.4byte	.LVL75
 12563 46dd D25E0000 		.4byte	0x5ed2
 12564 46e1 00       		.byte	0
 12565 46e2 38       		.uleb128 0x38
 12566 46e3 C6580000 		.4byte	0x58c6
 12567 46e7 EE010000 		.4byte	.LBB481
 12568 46eb 42000000 		.4byte	.LBE481-.LBB481
 12569 46ef 01       		.byte	0x1
 12570 46f0 A801     		.2byte	0x1a8
 12571 46f2 38       		.uleb128 0x38
 12572 46f3 3F590000 		.4byte	0x593f
 12573 46f7 EE010000 		.4byte	.LBB482
 12574 46fb 42000000 		.4byte	.LBE482-.LBB482
 12575 46ff 05       		.byte	0x5
 12576 4700 CA01     		.2byte	0x1ca
 12577 4702 3B       		.uleb128 0x3b
 12578 4703 EE010000 		.4byte	.LBB483
ARM GAS  C:\Users\Moi\AppData\Local\Temp\ccOzHcBd.s 			page 222


 12579 4707 42000000 		.4byte	.LBE483-.LBB483
 12580 470b 3C       		.uleb128 0x3c
 12581 470c 4C590000 		.4byte	0x594c
 12582 4710 37       		.uleb128 0x37
 12583 4711 75590000 		.4byte	0x5975
 12584 4715 0C020000 		.4byte	.LBB484
 12585 4719 24000000 		.4byte	.LBE484-.LBB484
 12586 471d 04       		.byte	0x4
 12587 471e 7301     		.2byte	0x173
 12588 4720 3F470000 		.4byte	0x473f
 12589 4724 38       		.uleb128 0x38
 12590 4725 87590000 		.4byte	0x5987
 12591 4729 0C020000 		.4byte	.LBB485
 12592 472d 24000000 		.4byte	.LBE485-.LBB485
 12593 4731 14       		.byte	0x14
 12594 4732 CD01     		.2byte	0x1cd
 12595 4734 39       		.uleb128 0x39
 12596 4735 94590000 		.4byte	0x5994
 12597 4739 A4070000 		.4byte	.LLST33
 12598 473d 00       		.byte	0
 12599 473e 00       		.byte	0
 12600 473f 3A       		.uleb128 0x3a
 12601 4740 F2010000 		.4byte	.LVL76
 12602 4744 A55E0000 		.4byte	0x5ea5
 12603 4748 3A       		.uleb128 0x3a
 12604 4749 F6010000 		.4byte	.LVL77
 12605 474d B05E0000 		.4byte	0x5eb0
 12606 4751 3D       		.uleb128 0x3d
 12607 4752 0C020000 		.4byte	.LVL78
 12608 4756 BB5E0000 		.4byte	0x5ebb
 12609 475a 3E       		.uleb128 0x3e
 12610 475b 01       		.uleb128 0x1
 12611 475c 50       		.byte	0x50
 12612 475d 05       		.uleb128 0x5
 12613 475e 03       		.byte	0x3
 12614 475f 00000000 		.4byte	.LANCHOR0
 12615 4763 00       		.byte	0
 12616 4764 00       		.byte	0
 12617 4765 00       		.byte	0
 12618 4766 00       		.byte	0
 12619 4767 00       		.byte	0
 12620 4768 00       		.byte	0
 12621 4769 00       		.byte	0
 12622 476a 00       		.byte	0
 12623 476b 38       		.uleb128 0x38
 12624 476c CF580000 		.4byte	0x58cf
 12625 4770 5C010000 		.4byte	.LBB488
 12626 4774 10000000 		.4byte	.LBE488-.LBB488
 12627 4778 01       		.byte	0x1
 12628 4779 4305     		.2byte	0x543
 12629 477b 38       		.uleb128 0x38
 12630 477c 5A590000 		.4byte	0x595a
 12631 4780 5C010000 		.4byte	.LBB489
 12632 4784 10000000 		.4byte	.LBE489-.LBB489
 12633 4788 05       		.byte	0x5
 12634 4789 BF01     		.2byte	0x1bf
 12635 478b 37       		.uleb128 0x37
ARM GAS  C:\Users\Moi\AppData\Local\Temp\ccOzHcBd.s 			page 223


 12636 478c 7E590000 		.4byte	0x597e
 12637 4790 5C010000 		.4byte	.LBB491
 12638 4794 06000000 		.4byte	.LBE491-.LBB491
 12639 4798 04       		.byte	0x4
 12640 4799 5C01     		.2byte	0x15c
 12641 479b BA470000 		.4byte	0x47ba
 12642 479f 38       		.uleb128 0x38
 12643 47a0 87590000 		.4byte	0x5987
 12644 47a4 5C010000 		.4byte	.LBB492
 12645 47a8 06000000 		.4byte	.LBE492-.LBB492
 12646 47ac 14       		.byte	0x14
 12647 47ad BF01     		.2byte	0x1bf
 12648 47af 39       		.uleb128 0x39
 12649 47b0 94590000 		.4byte	0x5994
 12650 47b4 B8070000 		.4byte	.LLST34
 12651 47b8 00       		.byte	0
 12652 47b9 00       		.byte	0
 12653 47ba 3A       		.uleb128 0x3a
 12654 47bb 66010000 		.4byte	.LVL55
 12655 47bf 8F5E0000 		.4byte	0x5e8f
 12656 47c3 3A       		.uleb128 0x3a
 12657 47c4 6A010000 		.4byte	.LVL56
 12658 47c8 9A5E0000 		.4byte	0x5e9a
 12659 47cc 00       		.byte	0
 12660 47cd 00       		.byte	0
 12661 47ce 00       		.byte	0
 12662 47cf 3F       		.uleb128 0x3f
 12663 47d0 D8580000 		.4byte	0x58d8
 12664 47d4 04000000 		.4byte	.LBB421
 12665 47d8 00000000 		.4byte	.Ldebug_ranges0+0
 12666 47dc 01       		.byte	0x1
 12667 47dd 1305     		.2byte	0x513
 12668 47df E9470000 		.4byte	0x47e9
 12669 47e3 40       		.uleb128 0x40
 12670 47e4 E4580000 		.4byte	0x58e4
 12671 47e8 00       		.byte	0
 12672 47e9 38       		.uleb128 0x38
 12673 47ea CF580000 		.4byte	0x58cf
 12674 47ee 1A000000 		.4byte	.LBB429
 12675 47f2 12000000 		.4byte	.LBE429-.LBB429
 12676 47f6 01       		.byte	0x1
 12677 47f7 1505     		.2byte	0x515
 12678 47f9 38       		.uleb128 0x38
 12679 47fa 5A590000 		.4byte	0x595a
 12680 47fe 1A000000 		.4byte	.LBB430
 12681 4802 12000000 		.4byte	.LBE430-.LBB430
 12682 4806 05       		.byte	0x5
 12683 4807 BF01     		.2byte	0x1bf
 12684 4809 37       		.uleb128 0x37
 12685 480a 7E590000 		.4byte	0x597e
 12686 480e 1A000000 		.4byte	.LBB432
 12687 4812 06000000 		.4byte	.LBE432-.LBB432
 12688 4816 04       		.byte	0x4
 12689 4817 5C01     		.2byte	0x15c
 12690 4819 38480000 		.4byte	0x4838
 12691 481d 38       		.uleb128 0x38
 12692 481e 87590000 		.4byte	0x5987
ARM GAS  C:\Users\Moi\AppData\Local\Temp\ccOzHcBd.s 			page 224


 12693 4822 1A000000 		.4byte	.LBB433
 12694 4826 06000000 		.4byte	.LBE433-.LBB433
 12695 482a 14       		.byte	0x14
 12696 482b BF01     		.2byte	0x1bf
 12697 482d 39       		.uleb128 0x39
 12698 482e 94590000 		.4byte	0x5994
 12699 4832 CD070000 		.4byte	.LLST4
 12700 4836 00       		.byte	0
 12701 4837 00       		.byte	0
 12702 4838 3A       		.uleb128 0x3a
 12703 4839 24000000 		.4byte	.LVL9
 12704 483d 8F5E0000 		.4byte	0x5e8f
 12705 4841 3A       		.uleb128 0x3a
 12706 4842 28000000 		.4byte	.LVL10
 12707 4846 9A5E0000 		.4byte	0x5e9a
 12708 484a 00       		.byte	0
 12709 484b 00       		.byte	0
 12710 484c 00       		.byte	0
 12711 484d 31       		.uleb128 0x31
 12712 484e 5D0D0000 		.4byte	.LASF852
 12713 4852 01       		.byte	0x1
 12714 4853 FE04     		.2byte	0x4fe
 12715 4855 00000000 		.4byte	.LFB291
 12716 4859 34000000 		.4byte	.LFE291-.LFB291
 12717 485d 01       		.uleb128 0x1
 12718 485e 9C       		.byte	0x9c
 12719 485f 8C480000 		.4byte	0x488c
 12720 4863 48       		.uleb128 0x48
 12721 4864 20240000 		.4byte	.LASF848
 12722 4868 01       		.byte	0x1
 12723 4869 FE04     		.2byte	0x4fe
 12724 486b 1C360000 		.4byte	0x361c
 12725 486f E2070000 		.4byte	.LLST150
 12726 4873 32       		.uleb128 0x32
 12727 4874 657000   		.ascii	"ep\000"
 12728 4877 01       		.byte	0x1
 12729 4878 FE04     		.2byte	0x4fe
 12730 487a D5340000 		.4byte	0x34d5
 12731 487e 03080000 		.4byte	.LLST151
 12732 4882 3A       		.uleb128 0x3a
 12733 4883 2E000000 		.4byte	.LVL369
 12734 4887 E95E0000 		.4byte	0x5ee9
 12735 488b 00       		.byte	0
 12736 488c 31       		.uleb128 0x31
 12737 488d 51240000 		.4byte	.LASF853
 12738 4891 01       		.byte	0x1
 12739 4892 F104     		.2byte	0x4f1
 12740 4894 00000000 		.4byte	.LFB290
 12741 4898 34000000 		.4byte	.LFE290-.LFB290
 12742 489c 01       		.uleb128 0x1
 12743 489d 9C       		.byte	0x9c
 12744 489e CB480000 		.4byte	0x48cb
 12745 48a2 48       		.uleb128 0x48
 12746 48a3 20240000 		.4byte	.LASF848
 12747 48a7 01       		.byte	0x1
 12748 48a8 F104     		.2byte	0x4f1
 12749 48aa 1C360000 		.4byte	0x361c
ARM GAS  C:\Users\Moi\AppData\Local\Temp\ccOzHcBd.s 			page 225


 12750 48ae 24080000 		.4byte	.LLST148
 12751 48b2 32       		.uleb128 0x32
 12752 48b3 657000   		.ascii	"ep\000"
 12753 48b6 01       		.byte	0x1
 12754 48b7 F104     		.2byte	0x4f1
 12755 48b9 D5340000 		.4byte	0x34d5
 12756 48bd 45080000 		.4byte	.LLST149
 12757 48c1 3A       		.uleb128 0x3a
 12758 48c2 2E000000 		.4byte	.LVL366
 12759 48c6 E95E0000 		.4byte	0x5ee9
 12760 48ca 00       		.byte	0
 12761 48cb 31       		.uleb128 0x31
 12762 48cc BA110000 		.4byte	.LASF854
 12763 48d0 01       		.byte	0x1
 12764 48d1 E404     		.2byte	0x4e4
 12765 48d3 00000000 		.4byte	.LFB289
 12766 48d7 34000000 		.4byte	.LFE289-.LFB289
 12767 48db 01       		.uleb128 0x1
 12768 48dc 9C       		.byte	0x9c
 12769 48dd 0A490000 		.4byte	0x490a
 12770 48e1 48       		.uleb128 0x48
 12771 48e2 20240000 		.4byte	.LASF848
 12772 48e6 01       		.byte	0x1
 12773 48e7 E404     		.2byte	0x4e4
 12774 48e9 1C360000 		.4byte	0x361c
 12775 48ed 66080000 		.4byte	.LLST146
 12776 48f1 32       		.uleb128 0x32
 12777 48f2 657000   		.ascii	"ep\000"
 12778 48f5 01       		.byte	0x1
 12779 48f6 E404     		.2byte	0x4e4
 12780 48f8 D5340000 		.4byte	0x34d5
 12781 48fc 87080000 		.4byte	.LLST147
 12782 4900 3A       		.uleb128 0x3a
 12783 4901 2E000000 		.4byte	.LVL363
 12784 4905 E95E0000 		.4byte	0x5ee9
 12785 4909 00       		.byte	0
 12786 490a 31       		.uleb128 0x31
 12787 490b 66270000 		.4byte	.LASF855
 12788 490f 01       		.byte	0x1
 12789 4910 D704     		.2byte	0x4d7
 12790 4912 00000000 		.4byte	.LFB288
 12791 4916 34000000 		.4byte	.LFE288-.LFB288
 12792 491a 01       		.uleb128 0x1
 12793 491b 9C       		.byte	0x9c
 12794 491c 49490000 		.4byte	0x4949
 12795 4920 48       		.uleb128 0x48
 12796 4921 20240000 		.4byte	.LASF848
 12797 4925 01       		.byte	0x1
 12798 4926 D704     		.2byte	0x4d7
 12799 4928 1C360000 		.4byte	0x361c
 12800 492c A8080000 		.4byte	.LLST144
 12801 4930 32       		.uleb128 0x32
 12802 4931 657000   		.ascii	"ep\000"
 12803 4934 01       		.byte	0x1
 12804 4935 D704     		.2byte	0x4d7
 12805 4937 D5340000 		.4byte	0x34d5
 12806 493b C9080000 		.4byte	.LLST145
ARM GAS  C:\Users\Moi\AppData\Local\Temp\ccOzHcBd.s 			page 226


 12807 493f 3A       		.uleb128 0x3a
 12808 4940 2E000000 		.4byte	.LVL360
 12809 4944 E95E0000 		.4byte	0x5ee9
 12810 4948 00       		.byte	0
 12811 4949 49       		.uleb128 0x49
 12812 494a BF050000 		.4byte	.LASF856
 12813 494e 01       		.byte	0x1
 12814 494f C904     		.2byte	0x4c9
 12815 4951 01       		.byte	0x1
 12816 4952 6E490000 		.4byte	0x496e
 12817 4956 4A       		.uleb128 0x4a
 12818 4957 20240000 		.4byte	.LASF848
 12819 495b 01       		.byte	0x1
 12820 495c C904     		.2byte	0x4c9
 12821 495e 1C360000 		.4byte	0x361c
 12822 4962 4B       		.uleb128 0x4b
 12823 4963 657000   		.ascii	"ep\000"
 12824 4966 01       		.byte	0x1
 12825 4967 C904     		.2byte	0x4c9
 12826 4969 D5340000 		.4byte	0x34d5
 12827 496d 00       		.byte	0
 12828 496e 49       		.uleb128 0x49
 12829 496f FD0B0000 		.4byte	.LASF857
 12830 4973 01       		.byte	0x1
 12831 4974 BC04     		.2byte	0x4bc
 12832 4976 01       		.byte	0x1
 12833 4977 93490000 		.4byte	0x4993
 12834 497b 4A       		.uleb128 0x4a
 12835 497c 20240000 		.4byte	.LASF848
 12836 4980 01       		.byte	0x1
 12837 4981 BC04     		.2byte	0x4bc
 12838 4983 1C360000 		.4byte	0x361c
 12839 4987 4B       		.uleb128 0x4b
 12840 4988 657000   		.ascii	"ep\000"
 12841 498b 01       		.byte	0x1
 12842 498c BC04     		.2byte	0x4bc
 12843 498e D5340000 		.4byte	0x34d5
 12844 4992 00       		.byte	0
 12845 4993 31       		.uleb128 0x31
 12846 4994 370A0000 		.4byte	.LASF858
 12847 4998 01       		.byte	0x1
 12848 4999 9F04     		.2byte	0x49f
 12849 499b 00000000 		.4byte	.LFB285
 12850 499f 60000000 		.4byte	.LFE285-.LFB285
 12851 49a3 01       		.uleb128 0x1
 12852 49a4 9C       		.byte	0x9c
 12853 49a5 FA490000 		.4byte	0x49fa
 12854 49a9 48       		.uleb128 0x48
 12855 49aa 20240000 		.4byte	.LASF848
 12856 49ae 01       		.byte	0x1
 12857 49af 9F04     		.2byte	0x49f
 12858 49b1 1C360000 		.4byte	0x361c
 12859 49b5 EA080000 		.4byte	.LLST119
 12860 49b9 32       		.uleb128 0x32
 12861 49ba 657000   		.ascii	"ep\000"
 12862 49bd 01       		.byte	0x1
 12863 49be 9F04     		.2byte	0x49f
ARM GAS  C:\Users\Moi\AppData\Local\Temp\ccOzHcBd.s 			page 227


 12864 49c0 D5340000 		.4byte	0x34d5
 12865 49c4 24090000 		.4byte	.LLST120
 12866 49c8 4C       		.uleb128 0x4c
 12867 49c9 69737000 		.ascii	"isp\000"
 12868 49cd 01       		.byte	0x1
 12869 49ce A004     		.2byte	0x4a0
 12870 49d0 F13D0000 		.4byte	0x3df1
 12871 49d4 01       		.uleb128 0x1
 12872 49d5 54       		.byte	0x54
 12873 49d6 4D       		.uleb128 0x4d
 12874 49d7 78020000 		.4byte	.Ldebug_ranges0+0x278
 12875 49db F0490000 		.4byte	0x49f0
 12876 49df 33       		.uleb128 0x33
 12877 49e0 521B0000 		.4byte	.LASF859
 12878 49e4 01       		.byte	0x1
 12879 49e5 AD04     		.2byte	0x4ad
 12880 49e7 1C090000 		.4byte	0x91c
 12881 49eb 5E090000 		.4byte	.LLST121
 12882 49ef 00       		.byte	0
 12883 49f0 3A       		.uleb128 0x3a
 12884 49f1 5A000000 		.4byte	.LVL287
 12885 49f5 E95E0000 		.4byte	0x5ee9
 12886 49f9 00       		.byte	0
 12887 49fa 31       		.uleb128 0x31
 12888 49fb D81A0000 		.4byte	.LASF860
 12889 49ff 01       		.byte	0x1
 12890 4a00 8704     		.2byte	0x487
 12891 4a02 00000000 		.4byte	.LFB284
 12892 4a06 58000000 		.4byte	.LFE284-.LFB284
 12893 4a0a 01       		.uleb128 0x1
 12894 4a0b 9C       		.byte	0x9c
 12895 4a0c 594A0000 		.4byte	0x4a59
 12896 4a10 48       		.uleb128 0x48
 12897 4a11 20240000 		.4byte	.LASF848
 12898 4a15 01       		.byte	0x1
 12899 4a16 8704     		.2byte	0x487
 12900 4a18 1C360000 		.4byte	0x361c
 12901 4a1c 81090000 		.4byte	.LLST107
 12902 4a20 32       		.uleb128 0x32
 12903 4a21 657000   		.ascii	"ep\000"
 12904 4a24 01       		.byte	0x1
 12905 4a25 8704     		.2byte	0x487
 12906 4a27 D5340000 		.4byte	0x34d5
 12907 4a2b A2090000 		.4byte	.LLST108
 12908 4a2f 33       		.uleb128 0x33
 12909 4a30 521B0000 		.4byte	.LASF859
 12910 4a34 01       		.byte	0x1
 12911 4a35 8804     		.2byte	0x488
 12912 4a37 1C090000 		.4byte	0x91c
 12913 4a3b C3090000 		.4byte	.LLST109
 12914 4a3f 35       		.uleb128 0x35
 12915 4a40 6F737000 		.ascii	"osp\000"
 12916 4a44 01       		.byte	0x1
 12917 4a45 8904     		.2byte	0x489
 12918 4a47 F73D0000 		.4byte	0x3df7
 12919 4a4b E6090000 		.4byte	.LLST110
 12920 4a4f 3A       		.uleb128 0x3a
ARM GAS  C:\Users\Moi\AppData\Local\Temp\ccOzHcBd.s 			page 228


 12921 4a50 50000000 		.4byte	.LVL256
 12922 4a54 E95E0000 		.4byte	0x5ee9
 12923 4a58 00       		.byte	0
 12924 4a59 31       		.uleb128 0x31
 12925 4a5a B60B0000 		.4byte	.LASF861
 12926 4a5e 01       		.byte	0x1
 12927 4a5f 7A04     		.2byte	0x47a
 12928 4a61 00000000 		.4byte	.LFB283
 12929 4a65 30000000 		.4byte	.LFE283-.LFB283
 12930 4a69 01       		.uleb128 0x1
 12931 4a6a 9C       		.byte	0x9c
 12932 4a6b A84A0000 		.4byte	0x4aa8
 12933 4a6f 48       		.uleb128 0x48
 12934 4a70 20240000 		.4byte	.LASF848
 12935 4a74 01       		.byte	0x1
 12936 4a75 7A04     		.2byte	0x47a
 12937 4a77 1C360000 		.4byte	0x361c
 12938 4a7b 050A0000 		.4byte	.LLST104
 12939 4a7f 32       		.uleb128 0x32
 12940 4a80 657000   		.ascii	"ep\000"
 12941 4a83 01       		.byte	0x1
 12942 4a84 7A04     		.2byte	0x47a
 12943 4a86 D5340000 		.4byte	0x34d5
 12944 4a8a 260A0000 		.4byte	.LLST105
 12945 4a8e 32       		.uleb128 0x32
 12946 4a8f 62756600 		.ascii	"buf\000"
 12947 4a93 01       		.byte	0x1
 12948 4a94 7A04     		.2byte	0x47a
 12949 4a96 791C0000 		.4byte	0x1c79
 12950 4a9a 470A0000 		.4byte	.LLST106
 12951 4a9e 3A       		.uleb128 0x3a
 12952 4a9f 2A000000 		.4byte	.LVL248
 12953 4aa3 E95E0000 		.4byte	0x5ee9
 12954 4aa7 00       		.byte	0
 12955 4aa8 4E       		.uleb128 0x4e
 12956 4aa9 84150000 		.4byte	.LASF862
 12957 4aad 01       		.byte	0x1
 12958 4aae 5F04     		.2byte	0x45f
 12959 4ab0 3A350000 		.4byte	0x353a
 12960 4ab4 00000000 		.4byte	.LFB282
 12961 4ab8 38000000 		.4byte	.LFE282-.LFB282
 12962 4abc 01       		.uleb128 0x1
 12963 4abd 9C       		.byte	0x9c
 12964 4abe FB4A0000 		.4byte	0x4afb
 12965 4ac2 48       		.uleb128 0x48
 12966 4ac3 20240000 		.4byte	.LASF848
 12967 4ac7 01       		.byte	0x1
 12968 4ac8 5F04     		.2byte	0x45f
 12969 4aca 1C360000 		.4byte	0x361c
 12970 4ace 680A0000 		.4byte	.LLST101
 12971 4ad2 32       		.uleb128 0x32
 12972 4ad3 657000   		.ascii	"ep\000"
 12973 4ad6 01       		.byte	0x1
 12974 4ad7 5F04     		.2byte	0x45f
 12975 4ad9 D5340000 		.4byte	0x34d5
 12976 4add 890A0000 		.4byte	.LLST102
 12977 4ae1 35       		.uleb128 0x35
ARM GAS  C:\Users\Moi\AppData\Local\Temp\ccOzHcBd.s 			page 229


 12978 4ae2 63746C00 		.ascii	"ctl\000"
 12979 4ae6 01       		.byte	0x1
 12980 4ae7 6004     		.2byte	0x460
 12981 4ae9 1C090000 		.4byte	0x91c
 12982 4aed AA0A0000 		.4byte	.LLST103
 12983 4af1 3A       		.uleb128 0x3a
 12984 4af2 34000000 		.4byte	.LVL244
 12985 4af6 E95E0000 		.4byte	0x5ee9
 12986 4afa 00       		.byte	0
 12987 4afb 4E       		.uleb128 0x4e
 12988 4afc 0B170000 		.4byte	.LASF863
 12989 4b00 01       		.byte	0x1
 12990 4b01 4604     		.2byte	0x446
 12991 4b03 3A350000 		.4byte	0x353a
 12992 4b07 00000000 		.4byte	.LFB281
 12993 4b0b 38000000 		.4byte	.LFE281-.LFB281
 12994 4b0f 01       		.uleb128 0x1
 12995 4b10 9C       		.byte	0x9c
 12996 4b11 4E4B0000 		.4byte	0x4b4e
 12997 4b15 48       		.uleb128 0x48
 12998 4b16 20240000 		.4byte	.LASF848
 12999 4b1a 01       		.byte	0x1
 13000 4b1b 4604     		.2byte	0x446
 13001 4b1d 1C360000 		.4byte	0x361c
 13002 4b21 BD0A0000 		.4byte	.LLST98
 13003 4b25 32       		.uleb128 0x32
 13004 4b26 657000   		.ascii	"ep\000"
 13005 4b29 01       		.byte	0x1
 13006 4b2a 4604     		.2byte	0x446
 13007 4b2c D5340000 		.4byte	0x34d5
 13008 4b30 DE0A0000 		.4byte	.LLST99
 13009 4b34 35       		.uleb128 0x35
 13010 4b35 63746C00 		.ascii	"ctl\000"
 13011 4b39 01       		.byte	0x1
 13012 4b3a 4704     		.2byte	0x447
 13013 4b3c 1C090000 		.4byte	0x91c
 13014 4b40 FF0A0000 		.4byte	.LLST100
 13015 4b44 3A       		.uleb128 0x3a
 13016 4b45 34000000 		.4byte	.LVL238
 13017 4b49 E95E0000 		.4byte	0x5ee9
 13018 4b4d 00       		.byte	0
 13019 4b4e 31       		.uleb128 0x31
 13020 4b4f D7140000 		.4byte	.LASF864
 13021 4b53 01       		.byte	0x1
 13022 4b54 3104     		.2byte	0x431
 13023 4b56 00000000 		.4byte	.LFB280
 13024 4b5a 2C000000 		.4byte	.LFE280-.LFB280
 13025 4b5e 01       		.uleb128 0x1
 13026 4b5f 9C       		.byte	0x9c
 13027 4b60 BC4B0000 		.4byte	0x4bbc
 13028 4b64 48       		.uleb128 0x48
 13029 4b65 20240000 		.4byte	.LASF848
 13030 4b69 01       		.byte	0x1
 13031 4b6a 3104     		.2byte	0x431
 13032 4b6c 1C360000 		.4byte	0x361c
 13033 4b70 120B0000 		.4byte	.LLST95
 13034 4b74 37       		.uleb128 0x37
ARM GAS  C:\Users\Moi\AppData\Local\Temp\ccOzHcBd.s 			page 230


 13035 4b75 69570000 		.4byte	0x5769
 13036 4b79 08000000 		.4byte	.LBB625
 13037 4b7d 04000000 		.4byte	.LBE625-.LBB625
 13038 4b81 01       		.byte	0x1
 13039 4b82 3404     		.2byte	0x434
 13040 4b84 9B4B0000 		.4byte	0x4b9b
 13041 4b88 39       		.uleb128 0x39
 13042 4b89 75570000 		.4byte	0x5775
 13043 4b8d 4C0B0000 		.4byte	.LLST96
 13044 4b91 39       		.uleb128 0x39
 13045 4b92 75570000 		.4byte	0x5775
 13046 4b96 860B0000 		.4byte	.LLST97
 13047 4b9a 00       		.byte	0
 13048 4b9b 4F       		.uleb128 0x4f
 13049 4b9c 24000000 		.4byte	.LVL231
 13050 4ba0 A1590000 		.4byte	0x59a1
 13051 4ba4 B24B0000 		.4byte	0x4bb2
 13052 4ba8 50       		.uleb128 0x50
 13053 4ba9 DE570000 		.4byte	0x57de
 13054 4bad 03       		.uleb128 0x3
 13055 4bae F3       		.byte	0xf3
 13056 4baf 01       		.uleb128 0x1
 13057 4bb0 50       		.byte	0x50
 13058 4bb1 00       		.byte	0
 13059 4bb2 3A       		.uleb128 0x3a
 13060 4bb3 28000000 		.4byte	.LVL232
 13061 4bb7 E95E0000 		.4byte	0x5ee9
 13062 4bbb 00       		.byte	0
 13063 4bbc 31       		.uleb128 0x31
 13064 4bbd 0A250000 		.4byte	.LASF865
 13065 4bc1 01       		.byte	0x1
 13066 4bc2 F103     		.2byte	0x3f1
 13067 4bc4 00000000 		.4byte	.LFB279
 13068 4bc8 9C010000 		.4byte	.LFE279-.LFB279
 13069 4bcc 01       		.uleb128 0x1
 13070 4bcd 9C       		.byte	0x9c
 13071 4bce 464D0000 		.4byte	0x4d46
 13072 4bd2 48       		.uleb128 0x48
 13073 4bd3 20240000 		.4byte	.LASF848
 13074 4bd7 01       		.byte	0x1
 13075 4bd8 F103     		.2byte	0x3f1
 13076 4bda 1C360000 		.4byte	0x361c
 13077 4bde C00B0000 		.4byte	.LLST78
 13078 4be2 32       		.uleb128 0x32
 13079 4be3 657000   		.ascii	"ep\000"
 13080 4be6 01       		.byte	0x1
 13081 4be7 F103     		.2byte	0x3f1
 13082 4be9 D5340000 		.4byte	0x34d5
 13083 4bed F40B0000 		.4byte	.LLST79
 13084 4bf1 35       		.uleb128 0x35
 13085 4bf2 63746C00 		.ascii	"ctl\000"
 13086 4bf6 01       		.byte	0x1
 13087 4bf7 F203     		.2byte	0x3f2
 13088 4bf9 1C090000 		.4byte	0x91c
 13089 4bfd 150C0000 		.4byte	.LLST80
 13090 4c01 33       		.uleb128 0x33
 13091 4c02 86160000 		.4byte	.LASF866
ARM GAS  C:\Users\Moi\AppData\Local\Temp\ccOzHcBd.s 			page 231


 13092 4c06 01       		.byte	0x1
 13093 4c07 F203     		.2byte	0x3f2
 13094 4c09 1C090000 		.4byte	0x91c
 13095 4c0d 530C0000 		.4byte	.LLST81
 13096 4c11 33       		.uleb128 0x33
 13097 4c12 D71C0000 		.4byte	.LASF849
 13098 4c16 01       		.byte	0x1
 13099 4c17 F303     		.2byte	0x3f3
 13100 4c19 893E0000 		.4byte	0x3e89
 13101 4c1d 660C0000 		.4byte	.LLST82
 13102 4c21 3F       		.uleb128 0x3f
 13103 4c22 15570000 		.4byte	0x5715
 13104 4c26 A0000000 		.4byte	.LBB611
 13105 4c2a 40020000 		.4byte	.Ldebug_ranges0+0x240
 13106 4c2e 01       		.byte	0x1
 13107 4c2f 1A04     		.2byte	0x41a
 13108 4c31 784C0000 		.4byte	0x4c78
 13109 4c35 39       		.uleb128 0x39
 13110 4c36 25570000 		.4byte	0x5725
 13111 4c3a BC0C0000 		.4byte	.LLST83
 13112 4c3e 39       		.uleb128 0x39
 13113 4c3f 25570000 		.4byte	0x5725
 13114 4c43 BC0C0000 		.4byte	.LLST83
 13115 4c47 39       		.uleb128 0x39
 13116 4c48 30570000 		.4byte	0x5730
 13117 4c4c DA0C0000 		.4byte	.LLST85
 13118 4c50 43       		.uleb128 0x43
 13119 4c51 40020000 		.4byte	.Ldebug_ranges0+0x240
 13120 4c55 42       		.uleb128 0x42
 13121 4c56 3B570000 		.4byte	0x573b
 13122 4c5a ED0C0000 		.4byte	.LLST86
 13123 4c5e 3C       		.uleb128 0x3c
 13124 4c5f 46570000 		.4byte	0x5746
 13125 4c63 3D       		.uleb128 0x3d
 13126 4c64 76010000 		.4byte	.LVL225
 13127 4c68 BB5E0000 		.4byte	0x5ebb
 13128 4c6c 3E       		.uleb128 0x3e
 13129 4c6d 01       		.uleb128 0x1
 13130 4c6e 50       		.byte	0x50
 13131 4c6f 05       		.uleb128 0x5
 13132 4c70 03       		.byte	0x3
 13133 4c71 00000000 		.4byte	.LANCHOR5
 13134 4c75 00       		.byte	0
 13135 4c76 00       		.byte	0
 13136 4c77 00       		.byte	0
 13137 4c78 37       		.uleb128 0x37
 13138 4c79 81570000 		.4byte	0x5781
 13139 4c7d BA000000 		.4byte	.LBB616
 13140 4c81 10000000 		.4byte	.LBE616-.LBB616
 13141 4c85 01       		.byte	0x1
 13142 4c86 1B04     		.2byte	0x41b
 13143 4c88 DA4C0000 		.4byte	0x4cda
 13144 4c8c 39       		.uleb128 0x39
 13145 4c8d 8D570000 		.4byte	0x578d
 13146 4c91 170D0000 		.4byte	.LLST87
 13147 4c95 39       		.uleb128 0x39
 13148 4c96 98570000 		.4byte	0x5798
ARM GAS  C:\Users\Moi\AppData\Local\Temp\ccOzHcBd.s 			page 232


 13149 4c9a 2A0D0000 		.4byte	.LLST88
 13150 4c9e 3B       		.uleb128 0x3b
 13151 4c9f BA000000 		.4byte	.LBB617
 13152 4ca3 10000000 		.4byte	.LBE617-.LBB617
 13153 4ca7 42       		.uleb128 0x42
 13154 4ca8 A3570000 		.4byte	0x57a3
 13155 4cac 420D0000 		.4byte	.LLST89
 13156 4cb0 51       		.uleb128 0x51
 13157 4cb1 9A580000 		.4byte	0x589a
 13158 4cb5 C4000000 		.4byte	.LBB618
 13159 4cb9 06000000 		.4byte	.LBE618-.LBB618
 13160 4cbd 01       		.byte	0x1
 13161 4cbe BA       		.byte	0xba
 13162 4cbf 39       		.uleb128 0x39
 13163 4cc0 A7580000 		.4byte	0x58a7
 13164 4cc4 550D0000 		.4byte	.LLST90
 13165 4cc8 3D       		.uleb128 0x3d
 13166 4cc9 CA000000 		.4byte	.LVL215
 13167 4ccd F25E0000 		.4byte	0x5ef2
 13168 4cd1 3E       		.uleb128 0x3e
 13169 4cd2 01       		.uleb128 0x1
 13170 4cd3 50       		.byte	0x50
 13171 4cd4 01       		.uleb128 0x1
 13172 4cd5 3C       		.byte	0x3c
 13173 4cd6 00       		.byte	0
 13174 4cd7 00       		.byte	0
 13175 4cd8 00       		.byte	0
 13176 4cd9 00       		.byte	0
 13177 4cda 37       		.uleb128 0x37
 13178 4cdb 81570000 		.4byte	0x5781
 13179 4cdf 0E010000 		.4byte	.LBB620
 13180 4ce3 14000000 		.4byte	.LBE620-.LBB620
 13181 4ce7 01       		.byte	0x1
 13182 4ce8 2404     		.2byte	0x424
 13183 4cea 3C4D0000 		.4byte	0x4d3c
 13184 4cee 39       		.uleb128 0x39
 13185 4cef 8D570000 		.4byte	0x578d
 13186 4cf3 690D0000 		.4byte	.LLST91
 13187 4cf7 39       		.uleb128 0x39
 13188 4cf8 98570000 		.4byte	0x5798
 13189 4cfc 7C0D0000 		.4byte	.LLST92
 13190 4d00 3B       		.uleb128 0x3b
 13191 4d01 0E010000 		.4byte	.LBB621
 13192 4d05 14000000 		.4byte	.LBE621-.LBB621
 13193 4d09 42       		.uleb128 0x42
 13194 4d0a A3570000 		.4byte	0x57a3
 13195 4d0e 940D0000 		.4byte	.LLST93
 13196 4d12 51       		.uleb128 0x51
 13197 4d13 9A580000 		.4byte	0x589a
 13198 4d17 1C010000 		.4byte	.LBB622
 13199 4d1b 06000000 		.4byte	.LBE622-.LBB622
 13200 4d1f 01       		.byte	0x1
 13201 4d20 BA       		.byte	0xba
 13202 4d21 39       		.uleb128 0x39
 13203 4d22 A7580000 		.4byte	0x58a7
 13204 4d26 A70D0000 		.4byte	.LLST94
 13205 4d2a 3D       		.uleb128 0x3d
ARM GAS  C:\Users\Moi\AppData\Local\Temp\ccOzHcBd.s 			page 233


 13206 4d2b 22010000 		.4byte	.LVL220
 13207 4d2f F25E0000 		.4byte	0x5ef2
 13208 4d33 3E       		.uleb128 0x3e
 13209 4d34 01       		.uleb128 0x1
 13210 4d35 50       		.byte	0x50
 13211 4d36 01       		.uleb128 0x1
 13212 4d37 3C       		.byte	0x3c
 13213 4d38 00       		.byte	0
 13214 4d39 00       		.byte	0
 13215 4d3a 00       		.byte	0
 13216 4d3b 00       		.byte	0
 13217 4d3c 3A       		.uleb128 0x3a
 13218 4d3d 80010000 		.4byte	.LVL227
 13219 4d41 E95E0000 		.4byte	0x5ee9
 13220 4d45 00       		.byte	0
 13221 4d46 31       		.uleb128 0x31
 13222 4d47 01140000 		.4byte	.LASF867
 13223 4d4b 01       		.byte	0x1
 13224 4d4c E303     		.2byte	0x3e3
 13225 4d4e 00000000 		.4byte	.LFB278
 13226 4d52 38000000 		.4byte	.LFE278-.LFB278
 13227 4d56 01       		.uleb128 0x1
 13228 4d57 9C       		.byte	0x9c
 13229 4d58 864D0000 		.4byte	0x4d86
 13230 4d5c 48       		.uleb128 0x48
 13231 4d5d 20240000 		.4byte	.LASF848
 13232 4d61 01       		.byte	0x1
 13233 4d62 E303     		.2byte	0x3e3
 13234 4d64 1C360000 		.4byte	0x361c
 13235 4d68 BB0D0000 		.4byte	.LLST76
 13236 4d6c 33       		.uleb128 0x33
 13237 4d6d D71C0000 		.4byte	.LASF849
 13238 4d71 01       		.byte	0x1
 13239 4d72 E403     		.2byte	0x3e4
 13240 4d74 893E0000 		.4byte	0x3e89
 13241 4d78 DC0D0000 		.4byte	.LLST77
 13242 4d7c 3A       		.uleb128 0x3a
 13243 4d7d 32000000 		.4byte	.LVL202
 13244 4d81 E95E0000 		.4byte	0x5ee9
 13245 4d85 00       		.byte	0
 13246 4d86 31       		.uleb128 0x31
 13247 4d87 40150000 		.4byte	.LASF868
 13248 4d8b 01       		.byte	0x1
 13249 4d8c AD03     		.2byte	0x3ad
 13250 4d8e 00000000 		.4byte	.LFB277
 13251 4d92 F0000000 		.4byte	.LFE277-.LFB277
 13252 4d96 01       		.uleb128 0x1
 13253 4d97 9C       		.byte	0x9c
 13254 4d98 054F0000 		.4byte	0x4f05
 13255 4d9c 48       		.uleb128 0x48
 13256 4d9d 20240000 		.4byte	.LASF848
 13257 4da1 01       		.byte	0x1
 13258 4da2 AD03     		.2byte	0x3ad
 13259 4da4 1C360000 		.4byte	0x361c
 13260 4da8 FE0D0000 		.4byte	.LLST66
 13261 4dac 35       		.uleb128 0x35
 13262 4dad 6900     		.ascii	"i\000"
ARM GAS  C:\Users\Moi\AppData\Local\Temp\ccOzHcBd.s 			page 234


 13263 4daf 01       		.byte	0x1
 13264 4db0 AE03     		.2byte	0x3ae
 13265 4db2 25000000 		.4byte	0x25
 13266 4db6 1C0E0000 		.4byte	.LLST67
 13267 4dba 52       		.uleb128 0x52
 13268 4dbb D71C0000 		.4byte	.LASF849
 13269 4dbf 01       		.byte	0x1
 13270 4dc0 AF03     		.2byte	0x3af
 13271 4dc2 893E0000 		.4byte	0x3e89
 13272 4dc6 01       		.uleb128 0x1
 13273 4dc7 55       		.byte	0x55
 13274 4dc8 37       		.uleb128 0x37
 13275 4dc9 81570000 		.4byte	0x5781
 13276 4dcd 0E000000 		.4byte	.LBB597
 13277 4dd1 12000000 		.4byte	.LBE597-.LBB597
 13278 4dd5 01       		.byte	0x1
 13279 4dd6 B203     		.2byte	0x3b2
 13280 4dd8 2A4E0000 		.4byte	0x4e2a
 13281 4ddc 39       		.uleb128 0x39
 13282 4ddd 8D570000 		.4byte	0x578d
 13283 4de1 3B0E0000 		.4byte	.LLST68
 13284 4de5 39       		.uleb128 0x39
 13285 4de6 98570000 		.4byte	0x5798
 13286 4dea 590E0000 		.4byte	.LLST69
 13287 4dee 3B       		.uleb128 0x3b
 13288 4def 0E000000 		.4byte	.LBB598
 13289 4df3 12000000 		.4byte	.LBE598-.LBB598
 13290 4df7 42       		.uleb128 0x42
 13291 4df8 A3570000 		.4byte	0x57a3
 13292 4dfc 6D0E0000 		.4byte	.LLST70
 13293 4e00 51       		.uleb128 0x51
 13294 4e01 9A580000 		.4byte	0x589a
 13295 4e05 1A000000 		.4byte	.LBB599
 13296 4e09 06000000 		.4byte	.LBE599-.LBB599
 13297 4e0d 01       		.byte	0x1
 13298 4e0e BA       		.byte	0xba
 13299 4e0f 39       		.uleb128 0x39
 13300 4e10 A7580000 		.4byte	0x58a7
 13301 4e14 800E0000 		.4byte	.LLST71
 13302 4e18 3D       		.uleb128 0x3d
 13303 4e19 20000000 		.4byte	.LVL186
 13304 4e1d F25E0000 		.4byte	0x5ef2
 13305 4e21 3E       		.uleb128 0x3e
 13306 4e22 01       		.uleb128 0x1
 13307 4e23 50       		.byte	0x50
 13308 4e24 01       		.uleb128 0x1
 13309 4e25 3C       		.byte	0x3c
 13310 4e26 00       		.byte	0
 13311 4e27 00       		.byte	0
 13312 4e28 00       		.byte	0
 13313 4e29 00       		.byte	0
 13314 4e2a 3F       		.uleb128 0x3f
 13315 4e2b 69570000 		.4byte	0x5769
 13316 4e2f 58000000 		.4byte	.LBB601
 13317 4e33 28020000 		.4byte	.Ldebug_ranges0+0x228
 13318 4e37 01       		.byte	0x1
 13319 4e38 C103     		.2byte	0x3c1
ARM GAS  C:\Users\Moi\AppData\Local\Temp\ccOzHcBd.s 			page 235


 13320 4e3a 4D4E0000 		.4byte	0x4e4d
 13321 4e3e 53       		.uleb128 0x53
 13322 4e3f 75570000 		.4byte	0x5775
 13323 4e43 01       		.uleb128 0x1
 13324 4e44 57       		.byte	0x57
 13325 4e45 53       		.uleb128 0x53
 13326 4e46 75570000 		.4byte	0x5775
 13327 4e4a 01       		.uleb128 0x1
 13328 4e4b 57       		.byte	0x57
 13329 4e4c 00       		.byte	0
 13330 4e4d 37       		.uleb128 0x37
 13331 4e4e AF570000 		.4byte	0x57af
 13332 4e52 6A000000 		.4byte	.LBB605
 13333 4e56 12000000 		.4byte	.LBE605-.LBB605
 13334 4e5a 01       		.byte	0x1
 13335 4e5b C503     		.2byte	0x3c5
 13336 4e5d A44E0000 		.4byte	0x4ea4
 13337 4e61 53       		.uleb128 0x53
 13338 4e62 BB570000 		.4byte	0x57bb
 13339 4e66 01       		.uleb128 0x1
 13340 4e67 57       		.byte	0x57
 13341 4e68 3B       		.uleb128 0x3b
 13342 4e69 6A000000 		.4byte	.LBB606
 13343 4e6d 12000000 		.4byte	.LBE606-.LBB606
 13344 4e71 42       		.uleb128 0x42
 13345 4e72 C6570000 		.4byte	0x57c6
 13346 4e76 940E0000 		.4byte	.LLST72
 13347 4e7a 51       		.uleb128 0x51
 13348 4e7b 9A580000 		.4byte	0x589a
 13349 4e7f 76000000 		.4byte	.LBB607
 13350 4e83 06000000 		.4byte	.LBE607-.LBB607
 13351 4e87 01       		.byte	0x1
 13352 4e88 B0       		.byte	0xb0
 13353 4e89 39       		.uleb128 0x39
 13354 4e8a A7580000 		.4byte	0x58a7
 13355 4e8e A70E0000 		.4byte	.LLST73
 13356 4e92 3D       		.uleb128 0x3d
 13357 4e93 7C000000 		.4byte	.LVL193
 13358 4e97 F25E0000 		.4byte	0x5ef2
 13359 4e9b 3E       		.uleb128 0x3e
 13360 4e9c 01       		.uleb128 0x1
 13361 4e9d 50       		.byte	0x50
 13362 4e9e 01       		.uleb128 0x1
 13363 4e9f 3C       		.byte	0x3c
 13364 4ea0 00       		.byte	0
 13365 4ea1 00       		.byte	0
 13366 4ea2 00       		.byte	0
 13367 4ea3 00       		.byte	0
 13368 4ea4 37       		.uleb128 0x37
 13369 4ea5 15570000 		.4byte	0x5715
 13370 4ea9 B8000000 		.4byte	.LBB609
 13371 4ead 12000000 		.4byte	.LBE609-.LBB609
 13372 4eb1 01       		.byte	0x1
 13373 4eb2 D803     		.2byte	0x3d8
 13374 4eb4 FB4E0000 		.4byte	0x4efb
 13375 4eb8 53       		.uleb128 0x53
 13376 4eb9 25570000 		.4byte	0x5725
ARM GAS  C:\Users\Moi\AppData\Local\Temp\ccOzHcBd.s 			page 236


 13377 4ebd 01       		.uleb128 0x1
 13378 4ebe 57       		.byte	0x57
 13379 4ebf 53       		.uleb128 0x53
 13380 4ec0 25570000 		.4byte	0x5725
 13381 4ec4 01       		.uleb128 0x1
 13382 4ec5 57       		.byte	0x57
 13383 4ec6 39       		.uleb128 0x39
 13384 4ec7 30570000 		.4byte	0x5730
 13385 4ecb BB0E0000 		.4byte	.LLST74
 13386 4ecf 3B       		.uleb128 0x3b
 13387 4ed0 B8000000 		.4byte	.LBB610
 13388 4ed4 12000000 		.4byte	.LBE610-.LBB610
 13389 4ed8 42       		.uleb128 0x42
 13390 4ed9 3B570000 		.4byte	0x573b
 13391 4edd CF0E0000 		.4byte	.LLST75
 13392 4ee1 3C       		.uleb128 0x3c
 13393 4ee2 46570000 		.4byte	0x5746
 13394 4ee6 3D       		.uleb128 0x3d
 13395 4ee7 CA000000 		.4byte	.LVL195
 13396 4eeb BB5E0000 		.4byte	0x5ebb
 13397 4eef 3E       		.uleb128 0x3e
 13398 4ef0 01       		.uleb128 0x1
 13399 4ef1 50       		.byte	0x50
 13400 4ef2 05       		.uleb128 0x5
 13401 4ef3 03       		.byte	0x3
 13402 4ef4 00000000 		.4byte	.LANCHOR5
 13403 4ef8 00       		.byte	0
 13404 4ef9 00       		.byte	0
 13405 4efa 00       		.byte	0
 13406 4efb 3A       		.uleb128 0x3a
 13407 4efc E0000000 		.4byte	.LVL197
 13408 4f00 E95E0000 		.4byte	0x5ee9
 13409 4f04 00       		.byte	0
 13410 4f05 31       		.uleb128 0x31
 13411 4f06 43020000 		.4byte	.LASF869
 13412 4f0a 01       		.byte	0x1
 13413 4f0b 8603     		.2byte	0x386
 13414 4f0d 00000000 		.4byte	.LFB276
 13415 4f11 5C000000 		.4byte	.LFE276-.LFB276
 13416 4f15 01       		.uleb128 0x1
 13417 4f16 9C       		.byte	0x9c
 13418 4f17 6D4F0000 		.4byte	0x4f6d
 13419 4f1b 48       		.uleb128 0x48
 13420 4f1c 20240000 		.4byte	.LASF848
 13421 4f20 01       		.byte	0x1
 13422 4f21 8603     		.2byte	0x386
 13423 4f23 1C360000 		.4byte	0x361c
 13424 4f27 E20E0000 		.4byte	.LLST64
 13425 4f2b 33       		.uleb128 0x33
 13426 4f2c D71C0000 		.4byte	.LASF849
 13427 4f30 01       		.byte	0x1
 13428 4f31 8703     		.2byte	0x387
 13429 4f33 893E0000 		.4byte	0x3e89
 13430 4f37 270F0000 		.4byte	.LLST65
 13431 4f3b 54       		.uleb128 0x54
 13432 4f3c 1C000000 		.4byte	.LVL175
 13433 4f40 A1590000 		.4byte	0x59a1
ARM GAS  C:\Users\Moi\AppData\Local\Temp\ccOzHcBd.s 			page 237


 13434 4f44 4F4F0000 		.4byte	0x4f4f
 13435 4f48 3E       		.uleb128 0x3e
 13436 4f49 01       		.uleb128 0x1
 13437 4f4a 50       		.byte	0x50
 13438 4f4b 02       		.uleb128 0x2
 13439 4f4c 76       		.byte	0x76
 13440 4f4d 00       		.sleb128 0
 13441 4f4e 00       		.byte	0
 13442 4f4f 54       		.uleb128 0x54
 13443 4f50 40000000 		.4byte	.LVL178
 13444 4f54 FE5E0000 		.4byte	0x5efe
 13445 4f58 634F0000 		.4byte	0x4f63
 13446 4f5c 3E       		.uleb128 0x3e
 13447 4f5d 01       		.uleb128 0x1
 13448 4f5e 50       		.byte	0x50
 13449 4f5f 02       		.uleb128 0x2
 13450 4f60 08       		.byte	0x8
 13451 4f61 43       		.byte	0x43
 13452 4f62 00       		.byte	0
 13453 4f63 3A       		.uleb128 0x3a
 13454 4f64 50000000 		.4byte	.LVL180
 13455 4f68 E95E0000 		.4byte	0x5ee9
 13456 4f6c 00       		.byte	0
 13457 4f6d 31       		.uleb128 0x31
 13458 4f6e 480F0000 		.4byte	.LASF870
 13459 4f72 01       		.byte	0x1
 13460 4f73 2603     		.2byte	0x326
 13461 4f75 00000000 		.4byte	.LFB275
 13462 4f79 10010000 		.4byte	.LFE275-.LFB275
 13463 4f7d 01       		.uleb128 0x1
 13464 4f7e 9C       		.byte	0x9c
 13465 4f7f E9500000 		.4byte	0x50e9
 13466 4f83 48       		.uleb128 0x48
 13467 4f84 20240000 		.4byte	.LASF848
 13468 4f88 01       		.byte	0x1
 13469 4f89 2603     		.2byte	0x326
 13470 4f8b 1C360000 		.4byte	0x361c
 13471 4f8f 490F0000 		.4byte	.LLST57
 13472 4f93 33       		.uleb128 0x33
 13473 4f94 D71C0000 		.4byte	.LASF849
 13474 4f98 01       		.byte	0x1
 13475 4f99 2703     		.2byte	0x327
 13476 4f9b 893E0000 		.4byte	0x3e89
 13477 4f9f A40F0000 		.4byte	.LLST58
 13478 4fa3 3F       		.uleb128 0x3f
 13479 4fa4 FE570000 		.4byte	0x57fe
 13480 4fa8 3A000000 		.4byte	.LBB583
 13481 4fac E0010000 		.4byte	.Ldebug_ranges0+0x1e0
 13482 4fb0 01       		.byte	0x1
 13483 4fb1 5A03     		.2byte	0x35a
 13484 4fb3 25500000 		.4byte	0x5025
 13485 4fb7 39       		.uleb128 0x39
 13486 4fb8 0A580000 		.4byte	0x580a
 13487 4fbc E00F0000 		.4byte	.LLST59
 13488 4fc0 43       		.uleb128 0x43
 13489 4fc1 E0010000 		.4byte	.Ldebug_ranges0+0x1e0
 13490 4fc5 42       		.uleb128 0x42
ARM GAS  C:\Users\Moi\AppData\Local\Temp\ccOzHcBd.s 			page 238


 13491 4fc6 15580000 		.4byte	0x5815
 13492 4fca FE0F0000 		.4byte	.LLST60
 13493 4fce 55       		.uleb128 0x55
 13494 4fcf 9A580000 		.4byte	0x589a
 13495 4fd3 3A000000 		.4byte	.LBB585
 13496 4fd7 F8010000 		.4byte	.Ldebug_ranges0+0x1f8
 13497 4fdb 01       		.byte	0x1
 13498 4fdc 76       		.byte	0x76
 13499 4fdd FB4F0000 		.4byte	0x4ffb
 13500 4fe1 39       		.uleb128 0x39
 13501 4fe2 A7580000 		.4byte	0x58a7
 13502 4fe6 13100000 		.4byte	.LLST61
 13503 4fea 3D       		.uleb128 0x3d
 13504 4feb 46000000 		.4byte	.LVL156
 13505 4fef F25E0000 		.4byte	0x5ef2
 13506 4ff3 3E       		.uleb128 0x3e
 13507 4ff4 01       		.uleb128 0x1
 13508 4ff5 50       		.byte	0x50
 13509 4ff6 02       		.uleb128 0x2
 13510 4ff7 08       		.byte	0x8
 13511 4ff8 20       		.byte	0x20
 13512 4ff9 00       		.byte	0
 13513 4ffa 00       		.byte	0
 13514 4ffb 51       		.uleb128 0x51
 13515 4ffc 9A580000 		.4byte	0x589a
 13516 5000 50000000 		.4byte	.LBB589
 13517 5004 06000000 		.4byte	.LBE589-.LBB589
 13518 5008 01       		.byte	0x1
 13519 5009 7D       		.byte	0x7d
 13520 500a 39       		.uleb128 0x39
 13521 500b A7580000 		.4byte	0x58a7
 13522 500f 28100000 		.4byte	.LLST62
 13523 5013 3D       		.uleb128 0x3d
 13524 5014 56000000 		.4byte	.LVL158
 13525 5018 F25E0000 		.4byte	0x5ef2
 13526 501c 3E       		.uleb128 0x3e
 13527 501d 01       		.uleb128 0x1
 13528 501e 50       		.byte	0x50
 13529 501f 01       		.uleb128 0x1
 13530 5020 3C       		.byte	0x3c
 13531 5021 00       		.byte	0
 13532 5022 00       		.byte	0
 13533 5023 00       		.byte	0
 13534 5024 00       		.byte	0
 13535 5025 3F       		.uleb128 0x3f
 13536 5026 F0580000 		.4byte	0x58f0
 13537 502a D2000000 		.4byte	.LBB593
 13538 502e 10020000 		.4byte	.Ldebug_ranges0+0x210
 13539 5032 01       		.byte	0x1
 13540 5033 7503     		.2byte	0x375
 13541 5035 75500000 		.4byte	0x5075
 13542 5039 39       		.uleb128 0x39
 13543 503a 00590000 		.4byte	0x5900
 13544 503e 48100000 		.4byte	.LLST63
 13545 5042 43       		.uleb128 0x43
 13546 5043 10020000 		.4byte	.Ldebug_ranges0+0x210
 13547 5047 3C       		.uleb128 0x3c
ARM GAS  C:\Users\Moi\AppData\Local\Temp\ccOzHcBd.s 			page 239


 13548 5048 0A590000 		.4byte	0x590a
 13549 504c 54       		.uleb128 0x54
 13550 504d E2000000 		.4byte	.LVL167
 13551 5051 BB5E0000 		.4byte	0x5ebb
 13552 5055 63500000 		.4byte	0x5063
 13553 5059 3E       		.uleb128 0x3e
 13554 505a 01       		.uleb128 0x1
 13555 505b 50       		.byte	0x50
 13556 505c 05       		.uleb128 0x5
 13557 505d 03       		.byte	0x3
 13558 505e 00000000 		.4byte	.LANCHOR3
 13559 5062 00       		.byte	0
 13560 5063 3D       		.uleb128 0x3d
 13561 5064 E8000000 		.4byte	.LVL168
 13562 5068 095F0000 		.4byte	0x5f09
 13563 506c 3E       		.uleb128 0x3e
 13564 506d 01       		.uleb128 0x1
 13565 506e 50       		.byte	0x50
 13566 506f 02       		.uleb128 0x2
 13567 5070 74       		.byte	0x74
 13568 5071 00       		.sleb128 0
 13569 5072 00       		.byte	0
 13570 5073 00       		.byte	0
 13571 5074 00       		.byte	0
 13572 5075 54       		.uleb128 0x54
 13573 5076 68000000 		.4byte	.LVL159
 13574 507a A1590000 		.4byte	0x59a1
 13575 507e 8B500000 		.4byte	0x508b
 13576 5082 50       		.uleb128 0x50
 13577 5083 DE570000 		.4byte	0x57de
 13578 5087 02       		.uleb128 0x2
 13579 5088 76       		.byte	0x76
 13580 5089 00       		.sleb128 0
 13581 508a 00       		.byte	0
 13582 508b 54       		.uleb128 0x54
 13583 508c BA000000 		.4byte	.LVL162
 13584 5090 155F0000 		.4byte	0x5f15
 13585 5094 A4500000 		.4byte	0x50a4
 13586 5098 3E       		.uleb128 0x3e
 13587 5099 01       		.uleb128 0x1
 13588 509a 50       		.byte	0x50
 13589 509b 02       		.uleb128 0x2
 13590 509c 08       		.byte	0x8
 13591 509d 43       		.byte	0x43
 13592 509e 3E       		.uleb128 0x3e
 13593 509f 01       		.uleb128 0x1
 13594 50a0 51       		.byte	0x51
 13595 50a1 01       		.uleb128 0x1
 13596 50a2 3E       		.byte	0x3e
 13597 50a3 00       		.byte	0
 13598 50a4 54       		.uleb128 0x54
 13599 50a5 D0000000 		.4byte	.LVL164
 13600 50a9 205F0000 		.4byte	0x5f20
 13601 50ad D6500000 		.4byte	0x50d6
 13602 50b1 3E       		.uleb128 0x3e
 13603 50b2 01       		.uleb128 0x1
 13604 50b3 50       		.byte	0x50
ARM GAS  C:\Users\Moi\AppData\Local\Temp\ccOzHcBd.s 			page 240


 13605 50b4 03       		.uleb128 0x3
 13606 50b5 76       		.byte	0x76
 13607 50b6 E800     		.sleb128 104
 13608 50b8 3E       		.uleb128 0x3e
 13609 50b9 01       		.uleb128 0x1
 13610 50ba 51       		.byte	0x51
 13611 50bb 03       		.uleb128 0x3
 13612 50bc 0A       		.byte	0xa
 13613 50bd F801     		.2byte	0x1f8
 13614 50bf 3E       		.uleb128 0x3e
 13615 50c0 01       		.uleb128 0x1
 13616 50c1 52       		.byte	0x52
 13617 50c2 02       		.uleb128 0x2
 13618 50c3 08       		.byte	0x8
 13619 50c4 4A       		.byte	0x4a
 13620 50c5 3E       		.uleb128 0x3e
 13621 50c6 01       		.uleb128 0x1
 13622 50c7 53       		.byte	0x53
 13623 50c8 05       		.uleb128 0x5
 13624 50c9 03       		.byte	0x3
 13625 50ca 00000000 		.4byte	usb_lld_pump
 13626 50ce 3E       		.uleb128 0x3e
 13627 50cf 02       		.uleb128 0x2
 13628 50d0 7D       		.byte	0x7d
 13629 50d1 00       		.sleb128 0
 13630 50d2 02       		.uleb128 0x2
 13631 50d3 76       		.byte	0x76
 13632 50d4 00       		.sleb128 0
 13633 50d5 00       		.byte	0
 13634 50d6 3A       		.uleb128 0x3a
 13635 50d7 EC000000 		.4byte	.LVL169
 13636 50db D25E0000 		.4byte	0x5ed2
 13637 50df 3A       		.uleb128 0x3a
 13638 50e0 F2000000 		.4byte	.LVL171
 13639 50e4 E95E0000 		.4byte	0x5ee9
 13640 50e8 00       		.byte	0
 13641 50e9 31       		.uleb128 0x31
 13642 50ea E8170000 		.4byte	.LASF871
 13643 50ee 01       		.byte	0x1
 13644 50ef E802     		.2byte	0x2e8
 13645 50f1 00000000 		.4byte	.LFB274
 13646 50f5 5C000000 		.4byte	.LFE274-.LFB274
 13647 50f9 01       		.uleb128 0x1
 13648 50fa 9C       		.byte	0x9c
 13649 50fb 7E510000 		.4byte	0x517e
 13650 50ff 4D       		.uleb128 0x4d
 13651 5100 C0010000 		.4byte	.Ldebug_ranges0+0x1c0
 13652 5104 6D510000 		.4byte	0x516d
 13653 5108 4C       		.uleb128 0x4c
 13654 5109 77737000 		.ascii	"wsp\000"
 13655 510d 01       		.byte	0x1
 13656 510e F702     		.2byte	0x2f7
 13657 5110 5D010000 		.4byte	0x15d
 13658 5114 06       		.uleb128 0x6
 13659 5115 03       		.byte	0x3
 13660 5116 68000000 		.4byte	USBD1+104
 13661 511a 9F       		.byte	0x9f
ARM GAS  C:\Users\Moi\AppData\Local\Temp\ccOzHcBd.s 			page 241


 13662 511b 54       		.uleb128 0x54
 13663 511c 30000000 		.4byte	.LVL147
 13664 5120 2B5F0000 		.4byte	0x5f2b
 13665 5124 3D510000 		.4byte	0x513d
 13666 5128 3E       		.uleb128 0x3e
 13667 5129 01       		.uleb128 0x1
 13668 512a 50       		.byte	0x50
 13669 512b 03       		.uleb128 0x3
 13670 512c 74       		.byte	0x74
 13671 512d E800     		.sleb128 104
 13672 512f 3E       		.uleb128 0x3e
 13673 5130 01       		.uleb128 0x1
 13674 5131 51       		.byte	0x51
 13675 5132 03       		.uleb128 0x3
 13676 5133 74       		.byte	0x74
 13677 5134 D001     		.sleb128 208
 13678 5136 3E       		.uleb128 0x3e
 13679 5137 01       		.uleb128 0x1
 13680 5138 52       		.byte	0x52
 13681 5139 02       		.uleb128 0x2
 13682 513a 09       		.byte	0x9
 13683 513b FF       		.byte	0xff
 13684 513c 00       		.byte	0
 13685 513d 4F       		.uleb128 0x4f
 13686 513e 4C000000 		.4byte	.LVL148
 13687 5142 2B5F0000 		.4byte	0x5f2b
 13688 5146 63510000 		.4byte	0x5163
 13689 514a 3E       		.uleb128 0x3e
 13690 514b 01       		.uleb128 0x1
 13691 514c 50       		.byte	0x50
 13692 514d 05       		.uleb128 0x5
 13693 514e 03       		.byte	0x3
 13694 514f D0000000 		.4byte	.LANCHOR1+208
 13695 5153 3E       		.uleb128 0x3e
 13696 5154 01       		.uleb128 0x1
 13697 5155 51       		.byte	0x51
 13698 5156 05       		.uleb128 0x5
 13699 5157 03       		.byte	0x3
 13700 5158 60020000 		.4byte	.LANCHOR1+608
 13701 515c 3E       		.uleb128 0x3e
 13702 515d 01       		.uleb128 0x1
 13703 515e 52       		.byte	0x52
 13704 515f 02       		.uleb128 0x2
 13705 5160 08       		.byte	0x8
 13706 5161 55       		.byte	0x55
 13707 5162 00       		.byte	0
 13708 5163 3A       		.uleb128 0x3a
 13709 5164 50000000 		.4byte	.LVL149
 13710 5168 E95E0000 		.4byte	0x5ee9
 13711 516c 00       		.byte	0
 13712 516d 3D       		.uleb128 0x3d
 13713 516e 12000000 		.4byte	.LVL145
 13714 5172 365F0000 		.4byte	0x5f36
 13715 5176 3E       		.uleb128 0x3e
 13716 5177 01       		.uleb128 0x1
 13717 5178 50       		.byte	0x50
 13718 5179 02       		.uleb128 0x2
ARM GAS  C:\Users\Moi\AppData\Local\Temp\ccOzHcBd.s 			page 242


 13719 517a 74       		.byte	0x74
 13720 517b 00       		.sleb128 0
 13721 517c 00       		.byte	0
 13722 517d 00       		.byte	0
 13723 517e 31       		.uleb128 0x31
 13724 517f F0100000 		.4byte	.LASF872
 13725 5183 01       		.byte	0x1
 13726 5184 C202     		.2byte	0x2c2
 13727 5186 00000000 		.4byte	.LFB273
 13728 518a 24010000 		.4byte	.LFE273-.LFB273
 13729 518e 01       		.uleb128 0x1
 13730 518f 9C       		.byte	0x9c
 13731 5190 FD530000 		.4byte	0x53fd
 13732 5194 3F       		.uleb128 0x3f
 13733 5195 FD530000 		.4byte	0x53fd
 13734 5199 04000000 		.4byte	.LBB701
 13735 519d C8020000 		.4byte	.Ldebug_ranges0+0x2c8
 13736 51a1 01       		.byte	0x1
 13737 51a2 C602     		.2byte	0x2c6
 13738 51a4 CF530000 		.4byte	0x53cf
 13739 51a8 39       		.uleb128 0x39
 13740 51a9 0A540000 		.4byte	0x540a
 13741 51ad 66100000 		.4byte	.LLST132
 13742 51b1 43       		.uleb128 0x43
 13743 51b2 C8020000 		.4byte	.Ldebug_ranges0+0x2c8
 13744 51b6 42       		.uleb128 0x42
 13745 51b7 16540000 		.4byte	0x5416
 13746 51bb 8E100000 		.4byte	.LLST133
 13747 51bf 42       		.uleb128 0x42
 13748 51c0 22540000 		.4byte	0x5422
 13749 51c4 B7100000 		.4byte	.LLST134
 13750 51c8 42       		.uleb128 0x42
 13751 51c9 2E540000 		.4byte	0x542e
 13752 51cd E0100000 		.4byte	.LLST135
 13753 51d1 37       		.uleb128 0x37
 13754 51d2 BD580000 		.4byte	0x58bd
 13755 51d6 7E000000 		.4byte	.LBB703
 13756 51da 0E000000 		.4byte	.LBE703-.LBB703
 13757 51de 01       		.byte	0x1
 13758 51df 8B02     		.2byte	0x28b
 13759 51e1 49520000 		.4byte	0x5249
 13760 51e5 38       		.uleb128 0x38
 13761 51e6 36590000 		.4byte	0x5936
 13762 51ea 7E000000 		.4byte	.LBB704
 13763 51ee 0E000000 		.4byte	.LBE704-.LBB704
 13764 51f2 05       		.byte	0x5
 13765 51f3 D501     		.2byte	0x1d5
 13766 51f5 37       		.uleb128 0x37
 13767 51f6 6C590000 		.4byte	0x596c
 13768 51fa 7E000000 		.4byte	.LBB706
 13769 51fe 06000000 		.4byte	.LBE706-.LBB706
 13770 5202 04       		.byte	0x4
 13771 5203 8401     		.2byte	0x184
 13772 5205 35520000 		.4byte	0x5235
 13773 5209 38       		.uleb128 0x38
 13774 520a 7E590000 		.4byte	0x597e
 13775 520e 7E000000 		.4byte	.LBB707
ARM GAS  C:\Users\Moi\AppData\Local\Temp\ccOzHcBd.s 			page 243


 13776 5212 06000000 		.4byte	.LBE707-.LBB707
 13777 5216 14       		.byte	0x14
 13778 5217 DB01     		.2byte	0x1db
 13779 5219 38       		.uleb128 0x38
 13780 521a 87590000 		.4byte	0x5987
 13781 521e 7E000000 		.4byte	.LBB708
 13782 5222 06000000 		.4byte	.LBE708-.LBB708
 13783 5226 14       		.byte	0x14
 13784 5227 BF01     		.2byte	0x1bf
 13785 5229 39       		.uleb128 0x39
 13786 522a 94590000 		.4byte	0x5994
 13787 522e FE100000 		.4byte	.LLST136
 13788 5232 00       		.byte	0
 13789 5233 00       		.byte	0
 13790 5234 00       		.byte	0
 13791 5235 3A       		.uleb128 0x3a
 13792 5236 88000000 		.4byte	.LVL328
 13793 523a 425F0000 		.4byte	0x5f42
 13794 523e 3A       		.uleb128 0x3a
 13795 523f 8C000000 		.4byte	.LVL329
 13796 5243 4D5F0000 		.4byte	0x5f4d
 13797 5247 00       		.byte	0
 13798 5248 00       		.byte	0
 13799 5249 3F       		.uleb128 0x3f
 13800 524a 4D580000 		.4byte	0x584d
 13801 524e 8E000000 		.4byte	.LBB710
 13802 5252 E8020000 		.4byte	.Ldebug_ranges0+0x2e8
 13803 5256 01       		.byte	0x1
 13804 5257 8D02     		.2byte	0x28d
 13805 5259 88520000 		.4byte	0x5288
 13806 525d 39       		.uleb128 0x39
 13807 525e 66580000 		.4byte	0x5866
 13808 5262 13110000 		.4byte	.LLST137
 13809 5266 39       		.uleb128 0x39
 13810 5267 5A580000 		.4byte	0x585a
 13811 526b 27110000 		.4byte	.LLST138
 13812 526f 3D       		.uleb128 0x3d
 13813 5270 9C000000 		.4byte	.LVL331
 13814 5274 585F0000 		.4byte	0x5f58
 13815 5278 3E       		.uleb128 0x3e
 13816 5279 01       		.uleb128 0x1
 13817 527a 50       		.byte	0x50
 13818 527b 05       		.uleb128 0x5
 13819 527c 03       		.byte	0x3
 13820 527d 60000000 		.4byte	.LANCHOR1+96
 13821 5281 3E       		.uleb128 0x3e
 13822 5282 01       		.uleb128 0x1
 13823 5283 51       		.byte	0x51
 13824 5284 01       		.uleb128 0x1
 13825 5285 30       		.byte	0x30
 13826 5286 00       		.byte	0
 13827 5287 00       		.byte	0
 13828 5288 37       		.uleb128 0x37
 13829 5289 B4580000 		.4byte	0x58b4
 13830 528d 9C000000 		.4byte	.LBB714
 13831 5291 10000000 		.4byte	.LBE714-.LBB714
 13832 5295 01       		.byte	0x1
ARM GAS  C:\Users\Moi\AppData\Local\Temp\ccOzHcBd.s 			page 244


 13833 5296 8E02     		.2byte	0x28e
 13834 5298 00530000 		.4byte	0x5300
 13835 529c 38       		.uleb128 0x38
 13836 529d 2D590000 		.4byte	0x592d
 13837 52a1 9C000000 		.4byte	.LBB715
 13838 52a5 10000000 		.4byte	.LBE715-.LBB715
 13839 52a9 05       		.byte	0x5
 13840 52aa E001     		.2byte	0x1e0
 13841 52ac 37       		.uleb128 0x37
 13842 52ad 63590000 		.4byte	0x5963
 13843 52b1 A4000000 		.4byte	.LBB717
 13844 52b5 08000000 		.4byte	.LBE717-.LBB717
 13845 52b9 04       		.byte	0x4
 13846 52ba 9A01     		.2byte	0x19a
 13847 52bc EC520000 		.4byte	0x52ec
 13848 52c0 38       		.uleb128 0x38
 13849 52c1 75590000 		.4byte	0x5975
 13850 52c5 A4000000 		.4byte	.LBB718
 13851 52c9 08000000 		.4byte	.LBE718-.LBB718
 13852 52cd 14       		.byte	0x14
 13853 52ce E601     		.2byte	0x1e6
 13854 52d0 38       		.uleb128 0x38
 13855 52d1 87590000 		.4byte	0x5987
 13856 52d5 A4000000 		.4byte	.LBB719
 13857 52d9 08000000 		.4byte	.LBE719-.LBB719
 13858 52dd 14       		.byte	0x14
 13859 52de CD01     		.2byte	0x1cd
 13860 52e0 39       		.uleb128 0x39
 13861 52e1 94590000 		.4byte	0x5994
 13862 52e5 3F110000 		.4byte	.LLST139
 13863 52e9 00       		.byte	0
 13864 52ea 00       		.byte	0
 13865 52eb 00       		.byte	0
 13866 52ec 3A       		.uleb128 0x3a
 13867 52ed A0000000 		.4byte	.LVL332
 13868 52f1 635F0000 		.4byte	0x5f63
 13869 52f5 3A       		.uleb128 0x3a
 13870 52f6 A4000000 		.4byte	.LVL333
 13871 52fa 6E5F0000 		.4byte	0x5f6e
 13872 52fe 00       		.byte	0
 13873 52ff 00       		.byte	0
 13874 5300 56       		.uleb128 0x56
 13875 5301 38000000 		.4byte	.LVL320
 13876 5305 10530000 		.4byte	0x5310
 13877 5309 3E       		.uleb128 0x3e
 13878 530a 01       		.uleb128 0x1
 13879 530b 50       		.byte	0x50
 13880 530c 02       		.uleb128 0x2
 13881 530d 75       		.byte	0x75
 13882 530e 00       		.sleb128 0
 13883 530f 00       		.byte	0
 13884 5310 54       		.uleb128 0x54
 13885 5311 B2000000 		.4byte	.LVL335
 13886 5315 795F0000 		.4byte	0x5f79
 13887 5319 24530000 		.4byte	0x5324
 13888 531d 3E       		.uleb128 0x3e
 13889 531e 01       		.uleb128 0x1
ARM GAS  C:\Users\Moi\AppData\Local\Temp\ccOzHcBd.s 			page 245


 13890 531f 50       		.byte	0x50
 13891 5320 02       		.uleb128 0x2
 13892 5321 75       		.byte	0x75
 13893 5322 00       		.sleb128 0
 13894 5323 00       		.byte	0
 13895 5324 56       		.uleb128 0x56
 13896 5325 C0000000 		.4byte	.LVL336
 13897 5329 39530000 		.4byte	0x5339
 13898 532d 3E       		.uleb128 0x3e
 13899 532e 01       		.uleb128 0x1
 13900 532f 50       		.byte	0x50
 13901 5330 02       		.uleb128 0x2
 13902 5331 75       		.byte	0x75
 13903 5332 00       		.sleb128 0
 13904 5333 3E       		.uleb128 0x3e
 13905 5334 01       		.uleb128 0x1
 13906 5335 51       		.byte	0x51
 13907 5336 01       		.uleb128 0x1
 13908 5337 30       		.byte	0x30
 13909 5338 00       		.byte	0
 13910 5339 54       		.uleb128 0x54
 13911 533a C8000000 		.4byte	.LVL338
 13912 533e D6590000 		.4byte	0x59d6
 13913 5342 4C530000 		.4byte	0x534c
 13914 5346 3E       		.uleb128 0x3e
 13915 5347 01       		.uleb128 0x1
 13916 5348 50       		.byte	0x50
 13917 5349 01       		.uleb128 0x1
 13918 534a 33       		.byte	0x33
 13919 534b 00       		.byte	0
 13920 534c 54       		.uleb128 0x54
 13921 534d D0000000 		.4byte	.LVL339
 13922 5351 D6590000 		.4byte	0x59d6
 13923 5355 5F530000 		.4byte	0x535f
 13924 5359 3E       		.uleb128 0x3e
 13925 535a 01       		.uleb128 0x1
 13926 535b 50       		.byte	0x50
 13927 535c 01       		.uleb128 0x1
 13928 535d 30       		.byte	0x30
 13929 535e 00       		.byte	0
 13930 535f 54       		.uleb128 0x54
 13931 5360 DA000000 		.4byte	.LVL340
 13932 5364 D6590000 		.4byte	0x59d6
 13933 5368 72530000 		.4byte	0x5372
 13934 536c 3E       		.uleb128 0x3e
 13935 536d 01       		.uleb128 0x1
 13936 536e 50       		.byte	0x50
 13937 536f 01       		.uleb128 0x1
 13938 5370 31       		.byte	0x31
 13939 5371 00       		.byte	0
 13940 5372 54       		.uleb128 0x54
 13941 5373 E4000000 		.4byte	.LVL341
 13942 5377 D6590000 		.4byte	0x59d6
 13943 537b 85530000 		.4byte	0x5385
 13944 537f 3E       		.uleb128 0x3e
 13945 5380 01       		.uleb128 0x1
 13946 5381 50       		.byte	0x50
ARM GAS  C:\Users\Moi\AppData\Local\Temp\ccOzHcBd.s 			page 246


 13947 5382 01       		.uleb128 0x1
 13948 5383 32       		.byte	0x32
 13949 5384 00       		.byte	0
 13950 5385 54       		.uleb128 0x54
 13951 5386 F0000000 		.4byte	.LVL343
 13952 538a 655B0000 		.4byte	0x5b65
 13953 538e 98530000 		.4byte	0x5398
 13954 5392 3E       		.uleb128 0x3e
 13955 5393 01       		.uleb128 0x1
 13956 5394 50       		.byte	0x50
 13957 5395 01       		.uleb128 0x1
 13958 5396 33       		.byte	0x33
 13959 5397 00       		.byte	0
 13960 5398 54       		.uleb128 0x54
 13961 5399 F8000000 		.4byte	.LVL345
 13962 539d 655B0000 		.4byte	0x5b65
 13963 53a1 AB530000 		.4byte	0x53ab
 13964 53a5 3E       		.uleb128 0x3e
 13965 53a6 01       		.uleb128 0x1
 13966 53a7 50       		.byte	0x50
 13967 53a8 01       		.uleb128 0x1
 13968 53a9 30       		.byte	0x30
 13969 53aa 00       		.byte	0
 13970 53ab 54       		.uleb128 0x54
 13971 53ac 02010000 		.4byte	.LVL346
 13972 53b0 655B0000 		.4byte	0x5b65
 13973 53b4 BE530000 		.4byte	0x53be
 13974 53b8 3E       		.uleb128 0x3e
 13975 53b9 01       		.uleb128 0x1
 13976 53ba 50       		.byte	0x50
 13977 53bb 01       		.uleb128 0x1
 13978 53bc 31       		.byte	0x31
 13979 53bd 00       		.byte	0
 13980 53be 3D       		.uleb128 0x3d
 13981 53bf 0C010000 		.4byte	.LVL347
 13982 53c3 655B0000 		.4byte	0x5b65
 13983 53c7 3E       		.uleb128 0x3e
 13984 53c8 01       		.uleb128 0x1
 13985 53c9 50       		.byte	0x50
 13986 53ca 01       		.uleb128 0x1
 13987 53cb 32       		.byte	0x32
 13988 53cc 00       		.byte	0
 13989 53cd 00       		.byte	0
 13990 53ce 00       		.byte	0
 13991 53cf 3A       		.uleb128 0x3a
 13992 53d0 10000000 		.4byte	.LVL315
 13993 53d4 855F0000 		.4byte	0x5f85
 13994 53d8 3A       		.uleb128 0x3a
 13995 53d9 14000000 		.4byte	.LVL316
 13996 53dd 905F0000 		.4byte	0x5f90
 13997 53e1 3A       		.uleb128 0x3a
 13998 53e2 6C000000 		.4byte	.LVL325
 13999 53e6 9B5F0000 		.4byte	0x5f9b
 14000 53ea 57       		.uleb128 0x57
 14001 53eb 7E000000 		.4byte	.LVL326
 14002 53ef A65F0000 		.4byte	0x5fa6
 14003 53f3 3A       		.uleb128 0x3a
ARM GAS  C:\Users\Moi\AppData\Local\Temp\ccOzHcBd.s 			page 247


 14004 53f4 16010000 		.4byte	.LVL350
 14005 53f8 E95E0000 		.4byte	0x5ee9
 14006 53fc 00       		.byte	0
 14007 53fd 58       		.uleb128 0x58
 14008 53fe 5C180000 		.4byte	.LASF874
 14009 5402 01       		.byte	0x1
 14010 5403 6F02     		.2byte	0x26f
 14011 5405 01       		.byte	0x1
 14012 5406 3B540000 		.4byte	0x543b
 14013 540a 4A       		.uleb128 0x4a
 14014 540b 20240000 		.4byte	.LASF848
 14015 540f 01       		.byte	0x1
 14016 5410 6F02     		.2byte	0x26f
 14017 5412 1C360000 		.4byte	0x361c
 14018 5416 36       		.uleb128 0x36
 14019 5417 D71C0000 		.4byte	.LASF849
 14020 541b 01       		.byte	0x1
 14021 541c 7002     		.2byte	0x270
 14022 541e 893E0000 		.4byte	0x3e89
 14023 5422 59       		.uleb128 0x59
 14024 5423 73747300 		.ascii	"sts\000"
 14025 5427 01       		.byte	0x1
 14026 5428 7102     		.2byte	0x271
 14027 542a 1C090000 		.4byte	0x91c
 14028 542e 59       		.uleb128 0x59
 14029 542f 73726300 		.ascii	"src\000"
 14030 5433 01       		.byte	0x1
 14031 5434 7102     		.2byte	0x271
 14032 5436 1C090000 		.4byte	0x91c
 14033 543a 00       		.byte	0
 14034 543b 58       		.uleb128 0x58
 14035 543c A9010000 		.4byte	.LASF875
 14036 5440 01       		.byte	0x1
 14037 5441 4502     		.2byte	0x245
 14038 5443 01       		.byte	0x1
 14039 5444 86540000 		.4byte	0x5486
 14040 5448 4A       		.uleb128 0x4a
 14041 5449 20240000 		.4byte	.LASF848
 14042 544d 01       		.byte	0x1
 14043 544e 4502     		.2byte	0x245
 14044 5450 1C360000 		.4byte	0x361c
 14045 5454 4B       		.uleb128 0x4b
 14046 5455 657000   		.ascii	"ep\000"
 14047 5458 01       		.byte	0x1
 14048 5459 4502     		.2byte	0x245
 14049 545b D5340000 		.4byte	0x34d5
 14050 545f 36       		.uleb128 0x36
 14051 5460 D71C0000 		.4byte	.LASF849
 14052 5464 01       		.byte	0x1
 14053 5465 4602     		.2byte	0x246
 14054 5467 893E0000 		.4byte	0x3e89
 14055 546b 36       		.uleb128 0x36
 14056 546c 2C020000 		.4byte	.LASF876
 14057 5470 01       		.byte	0x1
 14058 5471 4702     		.2byte	0x247
 14059 5473 1C090000 		.4byte	0x91c
 14060 5477 5A       		.uleb128 0x5a
ARM GAS  C:\Users\Moi\AppData\Local\Temp\ccOzHcBd.s 			page 248


 14061 5478 59       		.uleb128 0x59
 14062 5479 6F737000 		.ascii	"osp\000"
 14063 547d 01       		.byte	0x1
 14064 547e 5402     		.2byte	0x254
 14065 5480 F73D0000 		.4byte	0x3df7
 14066 5484 00       		.byte	0
 14067 5485 00       		.byte	0
 14068 5486 58       		.uleb128 0x58
 14069 5487 371D0000 		.4byte	.LASF877
 14070 548b 01       		.byte	0x1
 14071 548c 1502     		.2byte	0x215
 14072 548e 01       		.byte	0x1
 14073 548f D1540000 		.4byte	0x54d1
 14074 5493 4A       		.uleb128 0x4a
 14075 5494 20240000 		.4byte	.LASF848
 14076 5498 01       		.byte	0x1
 14077 5499 1502     		.2byte	0x215
 14078 549b 1C360000 		.4byte	0x361c
 14079 549f 4B       		.uleb128 0x4b
 14080 54a0 657000   		.ascii	"ep\000"
 14081 54a3 01       		.byte	0x1
 14082 54a4 1502     		.2byte	0x215
 14083 54a6 D5340000 		.4byte	0x34d5
 14084 54aa 36       		.uleb128 0x36
 14085 54ab D71C0000 		.4byte	.LASF849
 14086 54af 01       		.byte	0x1
 14087 54b0 1602     		.2byte	0x216
 14088 54b2 893E0000 		.4byte	0x3e89
 14089 54b6 36       		.uleb128 0x36
 14090 54b7 2C020000 		.4byte	.LASF876
 14091 54bb 01       		.byte	0x1
 14092 54bc 1702     		.2byte	0x217
 14093 54be 1C090000 		.4byte	0x91c
 14094 54c2 5A       		.uleb128 0x5a
 14095 54c3 59       		.uleb128 0x59
 14096 54c4 69737000 		.ascii	"isp\000"
 14097 54c8 01       		.byte	0x1
 14098 54c9 2002     		.2byte	0x220
 14099 54cb F13D0000 		.4byte	0x3df1
 14100 54cf 00       		.byte	0
 14101 54d0 00       		.byte	0
 14102 54d1 5B       		.uleb128 0x5b
 14103 54d2 180F0000 		.4byte	.LASF885
 14104 54d6 01       		.byte	0x1
 14105 54d7 E101     		.2byte	0x1e1
 14106 54d9 951E0000 		.4byte	0x1e95
 14107 54dd 01       		.byte	0x1
 14108 54de 06550000 		.4byte	0x5506
 14109 54e2 4A       		.uleb128 0x4a
 14110 54e3 20240000 		.4byte	.LASF848
 14111 54e7 01       		.byte	0x1
 14112 54e8 E101     		.2byte	0x1e1
 14113 54ea 1C360000 		.4byte	0x361c
 14114 54ee 4B       		.uleb128 0x4b
 14115 54ef 657000   		.ascii	"ep\000"
 14116 54f2 01       		.byte	0x1
 14117 54f3 E101     		.2byte	0x1e1
ARM GAS  C:\Users\Moi\AppData\Local\Temp\ccOzHcBd.s 			page 249


 14118 54f5 D5340000 		.4byte	0x34d5
 14119 54f9 5A       		.uleb128 0x5a
 14120 54fa 59       		.uleb128 0x59
 14121 54fb 6E00     		.ascii	"n\000"
 14122 54fd 01       		.byte	0x1
 14123 54fe E501     		.2byte	0x1e5
 14124 5500 1C090000 		.4byte	0x91c
 14125 5504 00       		.byte	0
 14126 5505 00       		.byte	0
 14127 5506 58       		.uleb128 0x58
 14128 5507 D9080000 		.4byte	.LASF878
 14129 550b 01       		.byte	0x1
 14130 550c B201     		.2byte	0x1b2
 14131 550e 01       		.byte	0x1
 14132 550f 43550000 		.4byte	0x5543
 14133 5513 4A       		.uleb128 0x4a
 14134 5514 20240000 		.4byte	.LASF848
 14135 5518 01       		.byte	0x1
 14136 5519 B201     		.2byte	0x1b2
 14137 551b 1C360000 		.4byte	0x361c
 14138 551f 59       		.uleb128 0x59
 14139 5520 73747300 		.ascii	"sts\000"
 14140 5524 01       		.byte	0x1
 14141 5525 B301     		.2byte	0x1b3
 14142 5527 1C090000 		.4byte	0x91c
 14143 552b 59       		.uleb128 0x59
 14144 552c 636E7400 		.ascii	"cnt\000"
 14145 5530 01       		.byte	0x1
 14146 5531 B301     		.2byte	0x1b3
 14147 5533 1C090000 		.4byte	0x91c
 14148 5537 59       		.uleb128 0x59
 14149 5538 657000   		.ascii	"ep\000"
 14150 553b 01       		.byte	0x1
 14151 553c B301     		.2byte	0x1b3
 14152 553e 1C090000 		.4byte	0x91c
 14153 5542 00       		.byte	0
 14154 5543 58       		.uleb128 0x58
 14155 5544 EC1E0000 		.4byte	.LASF879
 14156 5548 01       		.byte	0x1
 14157 5549 7C01     		.2byte	0x17c
 14158 554b 01       		.byte	0x1
 14159 554c BA550000 		.4byte	0x55ba
 14160 5550 4A       		.uleb128 0x4a
 14161 5551 E6160000 		.4byte	.LASF880
 14162 5555 01       		.byte	0x1
 14163 5556 7C01     		.2byte	0x17c
 14164 5558 531D0000 		.4byte	0x1d53
 14165 555c 4B       		.uleb128 0x4b
 14166 555d 69717000 		.ascii	"iqp\000"
 14167 5561 01       		.byte	0x1
 14168 5562 7D01     		.2byte	0x17d
 14169 5564 EA3C0000 		.4byte	0x3cea
 14170 5568 4B       		.uleb128 0x4b
 14171 5569 6E00     		.ascii	"n\000"
 14172 556b 01       		.byte	0x1
 14173 556c 7E01     		.2byte	0x17e
 14174 556e 33000000 		.4byte	0x33
ARM GAS  C:\Users\Moi\AppData\Local\Temp\ccOzHcBd.s 			page 250


 14175 5572 36       		.uleb128 0x36
 14176 5573 731C0000 		.4byte	.LASF881
 14177 5577 01       		.byte	0x1
 14178 5578 7F01     		.2byte	0x17f
 14179 557a 33000000 		.4byte	0x33
 14180 557e 5A       		.uleb128 0x5a
 14181 557f 59       		.uleb128 0x59
 14182 5580 7700     		.ascii	"w\000"
 14183 5582 01       		.byte	0x1
 14184 5583 8301     		.2byte	0x183
 14185 5585 1C090000 		.4byte	0x91c
 14186 5589 59       		.uleb128 0x59
 14187 558a 6900     		.ascii	"i\000"
 14188 558c 01       		.byte	0x1
 14189 558d 8301     		.2byte	0x183
 14190 558f 1C090000 		.4byte	0x91c
 14191 5593 59       		.uleb128 0x59
 14192 5594 6E7700   		.ascii	"nw\000"
 14193 5597 01       		.byte	0x1
 14194 5598 8401     		.2byte	0x184
 14195 559a 33000000 		.4byte	0x33
 14196 559e 5A       		.uleb128 0x5a
 14197 559f 36       		.uleb128 0x36
 14198 55a0 C8260000 		.4byte	.LASF882
 14199 55a4 01       		.byte	0x1
 14200 55a5 8701     		.2byte	0x187
 14201 55a7 33000000 		.4byte	0x33
 14202 55ab 36       		.uleb128 0x36
 14203 55ac BF230000 		.4byte	.LASF883
 14204 55b0 01       		.byte	0x1
 14205 55b1 8801     		.2byte	0x188
 14206 55b3 1C090000 		.4byte	0x91c
 14207 55b7 00       		.byte	0
 14208 55b8 00       		.byte	0
 14209 55b9 00       		.byte	0
 14210 55ba 58       		.uleb128 0x58
 14211 55bb E8260000 		.4byte	.LASF884
 14212 55bf 01       		.byte	0x1
 14213 55c0 5F01     		.2byte	0x15f
 14214 55c2 01       		.byte	0x1
 14215 55c3 02560000 		.4byte	0x5602
 14216 55c7 4A       		.uleb128 0x4a
 14217 55c8 E6160000 		.4byte	.LASF880
 14218 55cc 01       		.byte	0x1
 14219 55cd 5F01     		.2byte	0x15f
 14220 55cf 531D0000 		.4byte	0x1d53
 14221 55d3 4B       		.uleb128 0x4b
 14222 55d4 62756600 		.ascii	"buf\000"
 14223 55d8 01       		.byte	0x1
 14224 55d9 6001     		.2byte	0x160
 14225 55db 791C0000 		.4byte	0x1c79
 14226 55df 4B       		.uleb128 0x4b
 14227 55e0 6E00     		.ascii	"n\000"
 14228 55e2 01       		.byte	0x1
 14229 55e3 6101     		.2byte	0x161
 14230 55e5 33000000 		.4byte	0x33
 14231 55e9 4B       		.uleb128 0x4b
ARM GAS  C:\Users\Moi\AppData\Local\Temp\ccOzHcBd.s 			page 251


 14232 55ea 6D617800 		.ascii	"max\000"
 14233 55ee 01       		.byte	0x1
 14234 55ef 6201     		.2byte	0x162
 14235 55f1 33000000 		.4byte	0x33
 14236 55f5 5A       		.uleb128 0x5a
 14237 55f6 59       		.uleb128 0x59
 14238 55f7 7700     		.ascii	"w\000"
 14239 55f9 01       		.byte	0x1
 14240 55fa 6701     		.2byte	0x167
 14241 55fc 1C090000 		.4byte	0x91c
 14242 5600 00       		.byte	0
 14243 5601 00       		.byte	0
 14244 5602 5B       		.uleb128 0x5b
 14245 5603 F20B0000 		.4byte	.LASF886
 14246 5607 01       		.byte	0x1
 14247 5608 4801     		.2byte	0x148
 14248 560a 791C0000 		.4byte	0x1c79
 14249 560e 01       		.byte	0x1
 14250 560f 42560000 		.4byte	0x5642
 14251 5613 4A       		.uleb128 0x4a
 14252 5614 E6160000 		.4byte	.LASF880
 14253 5618 01       		.byte	0x1
 14254 5619 4801     		.2byte	0x148
 14255 561b 531D0000 		.4byte	0x1d53
 14256 561f 4B       		.uleb128 0x4b
 14257 5620 62756600 		.ascii	"buf\000"
 14258 5624 01       		.byte	0x1
 14259 5625 4801     		.2byte	0x148
 14260 5627 791C0000 		.4byte	0x1c79
 14261 562b 4B       		.uleb128 0x4b
 14262 562c 6E00     		.ascii	"n\000"
 14263 562e 01       		.byte	0x1
 14264 562f 4801     		.2byte	0x148
 14265 5631 33000000 		.4byte	0x33
 14266 5635 5A       		.uleb128 0x5a
 14267 5636 59       		.uleb128 0x59
 14268 5637 7700     		.ascii	"w\000"
 14269 5639 01       		.byte	0x1
 14270 563a 4B01     		.2byte	0x14b
 14271 563c 1C090000 		.4byte	0x91c
 14272 5640 00       		.byte	0
 14273 5641 00       		.byte	0
 14274 5642 58       		.uleb128 0x58
 14275 5643 50230000 		.4byte	.LASF887
 14276 5647 01       		.byte	0x1
 14277 5648 0C01     		.2byte	0x10c
 14278 564a 01       		.byte	0x1
 14279 564b B9560000 		.4byte	0x56b9
 14280 564f 4A       		.uleb128 0x4a
 14281 5650 E6160000 		.4byte	.LASF880
 14282 5654 01       		.byte	0x1
 14283 5655 0C01     		.2byte	0x10c
 14284 5657 531D0000 		.4byte	0x1d53
 14285 565b 4B       		.uleb128 0x4b
 14286 565c 6F717000 		.ascii	"oqp\000"
 14287 5660 01       		.byte	0x1
 14288 5661 0D01     		.2byte	0x10d
ARM GAS  C:\Users\Moi\AppData\Local\Temp\ccOzHcBd.s 			page 252


 14289 5663 473C0000 		.4byte	0x3c47
 14290 5667 4B       		.uleb128 0x4b
 14291 5668 6E00     		.ascii	"n\000"
 14292 566a 01       		.byte	0x1
 14293 566b 0E01     		.2byte	0x10e
 14294 566d 33000000 		.4byte	0x33
 14295 5671 36       		.uleb128 0x36
 14296 5672 731C0000 		.4byte	.LASF881
 14297 5676 01       		.byte	0x1
 14298 5677 0F01     		.2byte	0x10f
 14299 5679 33000000 		.4byte	0x33
 14300 567d 5A       		.uleb128 0x5a
 14301 567e 59       		.uleb128 0x59
 14302 567f 7700     		.ascii	"w\000"
 14303 5681 01       		.byte	0x1
 14304 5682 1301     		.2byte	0x113
 14305 5684 1C090000 		.4byte	0x91c
 14306 5688 59       		.uleb128 0x59
 14307 5689 6900     		.ascii	"i\000"
 14308 568b 01       		.byte	0x1
 14309 568c 1301     		.2byte	0x113
 14310 568e 1C090000 		.4byte	0x91c
 14311 5692 59       		.uleb128 0x59
 14312 5693 6E7700   		.ascii	"nw\000"
 14313 5696 01       		.byte	0x1
 14314 5697 1401     		.2byte	0x114
 14315 5699 33000000 		.4byte	0x33
 14316 569d 5A       		.uleb128 0x5a
 14317 569e 36       		.uleb128 0x36
 14318 569f C8260000 		.4byte	.LASF882
 14319 56a3 01       		.byte	0x1
 14320 56a4 1701     		.2byte	0x117
 14321 56a6 33000000 		.4byte	0x33
 14322 56aa 36       		.uleb128 0x36
 14323 56ab BF230000 		.4byte	.LASF883
 14324 56af 01       		.byte	0x1
 14325 56b0 1801     		.2byte	0x118
 14326 56b2 1C090000 		.4byte	0x91c
 14327 56b6 00       		.byte	0
 14328 56b7 00       		.byte	0
 14329 56b8 00       		.byte	0
 14330 56b9 5C       		.uleb128 0x5c
 14331 56ba 4A040000 		.4byte	.LASF888
 14332 56be 01       		.byte	0x1
 14333 56bf FC       		.byte	0xfc
 14334 56c0 01       		.byte	0x1
 14335 56c1 E5560000 		.4byte	0x56e5
 14336 56c5 5D       		.uleb128 0x5d
 14337 56c6 E6160000 		.4byte	.LASF880
 14338 56ca 01       		.byte	0x1
 14339 56cb FC       		.byte	0xfc
 14340 56cc 531D0000 		.4byte	0x1d53
 14341 56d0 5E       		.uleb128 0x5e
 14342 56d1 62756600 		.ascii	"buf\000"
 14343 56d5 01       		.byte	0x1
 14344 56d6 FD       		.byte	0xfd
 14345 56d7 AE1C0000 		.4byte	0x1cae
ARM GAS  C:\Users\Moi\AppData\Local\Temp\ccOzHcBd.s 			page 253


 14346 56db 5E       		.uleb128 0x5e
 14347 56dc 6E00     		.ascii	"n\000"
 14348 56de 01       		.byte	0x1
 14349 56df FE       		.byte	0xfe
 14350 56e0 33000000 		.4byte	0x33
 14351 56e4 00       		.byte	0
 14352 56e5 5F       		.uleb128 0x5f
 14353 56e6 98180000 		.4byte	.LASF889
 14354 56ea 01       		.byte	0x1
 14355 56eb E7       		.byte	0xe7
 14356 56ec 791C0000 		.4byte	0x1c79
 14357 56f0 01       		.byte	0x1
 14358 56f1 15570000 		.4byte	0x5715
 14359 56f5 5D       		.uleb128 0x5d
 14360 56f6 E6160000 		.4byte	.LASF880
 14361 56fa 01       		.byte	0x1
 14362 56fb E7       		.byte	0xe7
 14363 56fc 531D0000 		.4byte	0x1d53
 14364 5700 5E       		.uleb128 0x5e
 14365 5701 62756600 		.ascii	"buf\000"
 14366 5705 01       		.byte	0x1
 14367 5706 E7       		.byte	0xe7
 14368 5707 791C0000 		.4byte	0x1c79
 14369 570b 5E       		.uleb128 0x5e
 14370 570c 6E00     		.ascii	"n\000"
 14371 570e 01       		.byte	0x1
 14372 570f E7       		.byte	0xe7
 14373 5710 33000000 		.4byte	0x33
 14374 5714 00       		.byte	0
 14375 5715 5F       		.uleb128 0x5f
 14376 5716 02100000 		.4byte	.LASF890
 14377 571a 01       		.byte	0x1
 14378 571b D1       		.byte	0xd1
 14379 571c 1C090000 		.4byte	0x91c
 14380 5720 01       		.byte	0x1
 14381 5721 54570000 		.4byte	0x5754
 14382 5725 5D       		.uleb128 0x5d
 14383 5726 20240000 		.4byte	.LASF848
 14384 572a 01       		.byte	0x1
 14385 572b D1       		.byte	0xd1
 14386 572c 1C360000 		.4byte	0x361c
 14387 5730 5D       		.uleb128 0x5d
 14388 5731 E10D0000 		.4byte	.LASF612
 14389 5735 01       		.byte	0x1
 14390 5736 D1       		.byte	0xd1
 14391 5737 33000000 		.4byte	0x33
 14392 573b 60       		.uleb128 0x60
 14393 573c ED010000 		.4byte	.LASF891
 14394 5740 01       		.byte	0x1
 14395 5741 D2       		.byte	0xd2
 14396 5742 1C090000 		.4byte	0x91c
 14397 5746 61       		.uleb128 0x61
 14398 5747 45000000 		.4byte	.LASF892
 14399 574b 64570000 		.4byte	0x5764
 14400 574f 02100000 		.4byte	.LASF890
 14401 5753 00       		.byte	0
 14402 5754 0A       		.uleb128 0xa
ARM GAS  C:\Users\Moi\AppData\Local\Temp\ccOzHcBd.s 			page 254


 14403 5755 6C010000 		.4byte	0x16c
 14404 5759 64570000 		.4byte	0x5764
 14405 575d 0B       		.uleb128 0xb
 14406 575e 25000000 		.4byte	0x25
 14407 5762 0D       		.byte	0xd
 14408 5763 00       		.byte	0
 14409 5764 0F       		.uleb128 0xf
 14410 5765 54570000 		.4byte	0x5754
 14411 5769 5C       		.uleb128 0x5c
 14412 576a 23220000 		.4byte	.LASF893
 14413 576e 01       		.byte	0x1
 14414 576f C4       		.byte	0xc4
 14415 5770 01       		.byte	0x1
 14416 5771 81570000 		.4byte	0x5781
 14417 5775 5D       		.uleb128 0x5d
 14418 5776 20240000 		.4byte	.LASF848
 14419 577a 01       		.byte	0x1
 14420 577b C4       		.byte	0xc4
 14421 577c 1C360000 		.4byte	0x361c
 14422 5780 00       		.byte	0
 14423 5781 5C       		.uleb128 0x5c
 14424 5782 FC120000 		.4byte	.LASF894
 14425 5786 01       		.byte	0x1
 14426 5787 B3       		.byte	0xb3
 14427 5788 01       		.byte	0x1
 14428 5789 AF570000 		.4byte	0x57af
 14429 578d 5D       		.uleb128 0x5d
 14430 578e 20240000 		.4byte	.LASF848
 14431 5792 01       		.byte	0x1
 14432 5793 B3       		.byte	0xb3
 14433 5794 1C360000 		.4byte	0x361c
 14434 5798 5D       		.uleb128 0x5d
 14435 5799 CB0C0000 		.4byte	.LASF895
 14436 579d 01       		.byte	0x1
 14437 579e B3       		.byte	0xb3
 14438 579f 1C090000 		.4byte	0x91c
 14439 57a3 60       		.uleb128 0x60
 14440 57a4 D71C0000 		.4byte	.LASF849
 14441 57a8 01       		.byte	0x1
 14442 57a9 B4       		.byte	0xb4
 14443 57aa 893E0000 		.4byte	0x3e89
 14444 57ae 00       		.byte	0
 14445 57af 5C       		.uleb128 0x5c
 14446 57b0 C8240000 		.4byte	.LASF896
 14447 57b4 01       		.byte	0x1
 14448 57b5 A9       		.byte	0xa9
 14449 57b6 01       		.byte	0x1
 14450 57b7 D2570000 		.4byte	0x57d2
 14451 57bb 5D       		.uleb128 0x5d
 14452 57bc 20240000 		.4byte	.LASF848
 14453 57c0 01       		.byte	0x1
 14454 57c1 A9       		.byte	0xa9
 14455 57c2 1C360000 		.4byte	0x361c
 14456 57c6 60       		.uleb128 0x60
 14457 57c7 D71C0000 		.4byte	.LASF849
 14458 57cb 01       		.byte	0x1
 14459 57cc AA       		.byte	0xaa
ARM GAS  C:\Users\Moi\AppData\Local\Temp\ccOzHcBd.s 			page 255


 14460 57cd 893E0000 		.4byte	0x3e89
 14461 57d1 00       		.byte	0
 14462 57d2 5C       		.uleb128 0x5c
 14463 57d3 F41B0000 		.4byte	.LASF897
 14464 57d7 01       		.byte	0x1
 14465 57d8 84       		.byte	0x84
 14466 57d9 01       		.byte	0x1
 14467 57da FE570000 		.4byte	0x57fe
 14468 57de 5D       		.uleb128 0x5d
 14469 57df 20240000 		.4byte	.LASF848
 14470 57e3 01       		.byte	0x1
 14471 57e4 84       		.byte	0x84
 14472 57e5 1C360000 		.4byte	0x361c
 14473 57e9 60       		.uleb128 0x60
 14474 57ea D71C0000 		.4byte	.LASF849
 14475 57ee 01       		.byte	0x1
 14476 57ef 85       		.byte	0x85
 14477 57f0 893E0000 		.4byte	0x3e89
 14478 57f4 62       		.uleb128 0x62
 14479 57f5 6900     		.ascii	"i\000"
 14480 57f7 01       		.byte	0x1
 14481 57f8 86       		.byte	0x86
 14482 57f9 25000000 		.4byte	0x25
 14483 57fd 00       		.byte	0
 14484 57fe 5C       		.uleb128 0x5c
 14485 57ff 840C0000 		.4byte	.LASF898
 14486 5803 01       		.byte	0x1
 14487 5804 73       		.byte	0x73
 14488 5805 01       		.byte	0x1
 14489 5806 21580000 		.4byte	0x5821
 14490 580a 5D       		.uleb128 0x5d
 14491 580b 20240000 		.4byte	.LASF848
 14492 580f 01       		.byte	0x1
 14493 5810 73       		.byte	0x73
 14494 5811 1C360000 		.4byte	0x361c
 14495 5815 60       		.uleb128 0x60
 14496 5816 D71C0000 		.4byte	.LASF849
 14497 581a 01       		.byte	0x1
 14498 581b 74       		.byte	0x74
 14499 581c 893E0000 		.4byte	0x3e89
 14500 5820 00       		.byte	0
 14501 5821 58       		.uleb128 0x58
 14502 5822 19120000 		.4byte	.LASF899
 14503 5826 05       		.byte	0x5
 14504 5827 FA02     		.2byte	0x2fa
 14505 5829 03       		.byte	0x3
 14506 582a 47580000 		.4byte	0x5847
 14507 582e 4B       		.uleb128 0x4b
 14508 582f 74717000 		.ascii	"tqp\000"
 14509 5833 05       		.byte	0x5
 14510 5834 FA02     		.2byte	0x2fa
 14511 5836 47580000 		.4byte	0x5847
 14512 583a 4B       		.uleb128 0x4b
 14513 583b 6D736700 		.ascii	"msg\000"
 14514 583f 05       		.byte	0x5
 14515 5840 FA02     		.2byte	0x2fa
 14516 5842 89090000 		.4byte	0x989
ARM GAS  C:\Users\Moi\AppData\Local\Temp\ccOzHcBd.s 			page 256


 14517 5846 00       		.byte	0
 14518 5847 05       		.uleb128 0x5
 14519 5848 04       		.byte	0x4
 14520 5849 2E0B0000 		.4byte	0xb2e
 14521 584d 58       		.uleb128 0x58
 14522 584e F2030000 		.4byte	.LASF900
 14523 5852 05       		.byte	0x5
 14524 5853 A802     		.2byte	0x2a8
 14525 5855 03       		.byte	0x3
 14526 5856 73580000 		.4byte	0x5873
 14527 585a 4B       		.uleb128 0x4b
 14528 585b 74727000 		.ascii	"trp\000"
 14529 585f 05       		.byte	0x5
 14530 5860 A802     		.2byte	0x2a8
 14531 5862 A9190000 		.4byte	0x19a9
 14532 5866 4B       		.uleb128 0x4b
 14533 5867 6D736700 		.ascii	"msg\000"
 14534 586b 05       		.byte	0x5
 14535 586c A802     		.2byte	0x2a8
 14536 586e 89090000 		.4byte	0x989
 14537 5872 00       		.byte	0
 14538 5873 5B       		.uleb128 0x5b
 14539 5874 6F0F0000 		.4byte	.LASF901
 14540 5878 05       		.byte	0x5
 14541 5879 8002     		.2byte	0x280
 14542 587b 89090000 		.4byte	0x989
 14543 587f 03       		.byte	0x3
 14544 5880 91580000 		.4byte	0x5891
 14545 5884 4B       		.uleb128 0x4b
 14546 5885 74727000 		.ascii	"trp\000"
 14547 5889 05       		.byte	0x5
 14548 588a 8002     		.2byte	0x280
 14549 588c A9190000 		.4byte	0x19a9
 14550 5890 00       		.byte	0
 14551 5891 63       		.uleb128 0x63
 14552 5892 36200000 		.4byte	.LASF904
 14553 5896 05       		.byte	0x5
 14554 5897 2802     		.2byte	0x228
 14555 5899 03       		.byte	0x3
 14556 589a 58       		.uleb128 0x58
 14557 589b 2B260000 		.4byte	.LASF902
 14558 589f 05       		.byte	0x5
 14559 58a0 0D02     		.2byte	0x20d
 14560 58a2 03       		.byte	0x3
 14561 58a3 B4580000 		.4byte	0x58b4
 14562 58a7 4A       		.uleb128 0x4a
 14563 58a8 9B020000 		.4byte	.LASF903
 14564 58ac 05       		.byte	0x5
 14565 58ad 0D02     		.2byte	0x20d
 14566 58af 3C090000 		.4byte	0x93c
 14567 58b3 00       		.byte	0
 14568 58b4 63       		.uleb128 0x63
 14569 58b5 82070000 		.4byte	.LASF905
 14570 58b9 05       		.byte	0x5
 14571 58ba DE01     		.2byte	0x1de
 14572 58bc 03       		.byte	0x3
 14573 58bd 63       		.uleb128 0x63
ARM GAS  C:\Users\Moi\AppData\Local\Temp\ccOzHcBd.s 			page 257


 14574 58be 79170000 		.4byte	.LASF906
 14575 58c2 05       		.byte	0x5
 14576 58c3 D301     		.2byte	0x1d3
 14577 58c5 03       		.byte	0x3
 14578 58c6 63       		.uleb128 0x63
 14579 58c7 FF000000 		.4byte	.LASF907
 14580 58cb 05       		.byte	0x5
 14581 58cc C801     		.2byte	0x1c8
 14582 58ce 03       		.byte	0x3
 14583 58cf 63       		.uleb128 0x63
 14584 58d0 481D0000 		.4byte	.LASF908
 14585 58d4 05       		.byte	0x5
 14586 58d5 BD01     		.2byte	0x1bd
 14587 58d7 03       		.byte	0x3
 14588 58d8 5C       		.uleb128 0x5c
 14589 58d9 A2210000 		.4byte	.LASF909
 14590 58dd 02       		.byte	0x2
 14591 58de 84       		.byte	0x84
 14592 58df 03       		.byte	0x3
 14593 58e0 F0580000 		.4byte	0x58f0
 14594 58e4 5D       		.uleb128 0x5d
 14595 58e5 75230000 		.4byte	.LASF910
 14596 58e9 02       		.byte	0x2
 14597 58ea 84       		.byte	0x84
 14598 58eb DD050000 		.4byte	0x5dd
 14599 58ef 00       		.byte	0
 14600 58f0 5F       		.uleb128 0x5f
 14601 58f1 870F0000 		.4byte	.LASF911
 14602 58f5 06       		.byte	0x6
 14603 58f6 F5       		.byte	0xf5
 14604 58f7 040B0000 		.4byte	0xb04
 14605 58fb 03       		.byte	0x3
 14606 58fc 18590000 		.4byte	0x5918
 14607 5900 5E       		.uleb128 0x5e
 14608 5901 747000   		.ascii	"tp\000"
 14609 5904 06       		.byte	0x6
 14610 5905 F5       		.byte	0xf5
 14611 5906 040B0000 		.4byte	0xb04
 14612 590a 61       		.uleb128 0x61
 14613 590b 45000000 		.4byte	.LASF892
 14614 590f 28590000 		.4byte	0x5928
 14615 5913 870F0000 		.4byte	.LASF911
 14616 5917 00       		.byte	0
 14617 5918 0A       		.uleb128 0xa
 14618 5919 6C010000 		.4byte	0x16c
 14619 591d 28590000 		.4byte	0x5928
 14620 5921 0B       		.uleb128 0xb
 14621 5922 25000000 		.4byte	0x25
 14622 5926 0B       		.byte	0xb
 14623 5927 00       		.byte	0
 14624 5928 0F       		.uleb128 0xf
 14625 5929 18590000 		.4byte	0x5918
 14626 592d 63       		.uleb128 0x63
 14627 592e 7B1B0000 		.4byte	.LASF912
 14628 5932 04       		.byte	0x4
 14629 5933 9601     		.2byte	0x196
 14630 5935 03       		.byte	0x3
ARM GAS  C:\Users\Moi\AppData\Local\Temp\ccOzHcBd.s 			page 258


 14631 5936 63       		.uleb128 0x63
 14632 5937 77240000 		.4byte	.LASF913
 14633 593b 04       		.byte	0x4
 14634 593c 8201     		.2byte	0x182
 14635 593e 03       		.byte	0x3
 14636 593f 58       		.uleb128 0x58
 14637 5940 BB210000 		.4byte	.LASF914
 14638 5944 04       		.byte	0x4
 14639 5945 6601     		.2byte	0x166
 14640 5947 03       		.byte	0x3
 14641 5948 5A590000 		.4byte	0x595a
 14642 594c 61       		.uleb128 0x61
 14643 594d 45000000 		.4byte	.LASF892
 14644 5951 28590000 		.4byte	0x5928
 14645 5955 BB210000 		.4byte	.LASF914
 14646 5959 00       		.byte	0
 14647 595a 63       		.uleb128 0x63
 14648 595b E0180000 		.4byte	.LASF915
 14649 595f 04       		.byte	0x4
 14650 5960 5A01     		.2byte	0x15a
 14651 5962 03       		.byte	0x3
 14652 5963 63       		.uleb128 0x63
 14653 5964 78000000 		.4byte	.LASF916
 14654 5968 14       		.byte	0x14
 14655 5969 E401     		.2byte	0x1e4
 14656 596b 03       		.byte	0x3
 14657 596c 63       		.uleb128 0x63
 14658 596d AB140000 		.4byte	.LASF917
 14659 5971 14       		.byte	0x14
 14660 5972 D901     		.2byte	0x1d9
 14661 5974 03       		.byte	0x3
 14662 5975 63       		.uleb128 0x63
 14663 5976 AD180000 		.4byte	.LASF918
 14664 597a 14       		.byte	0x14
 14665 597b CA01     		.2byte	0x1ca
 14666 597d 03       		.byte	0x3
 14667 597e 63       		.uleb128 0x63
 14668 597f 421A0000 		.4byte	.LASF919
 14669 5983 14       		.byte	0x14
 14670 5984 BC01     		.2byte	0x1bc
 14671 5986 03       		.byte	0x3
 14672 5987 58       		.uleb128 0x58
 14673 5988 6F250000 		.4byte	.LASF920
 14674 598c 03       		.byte	0x3
 14675 598d 2002     		.2byte	0x220
 14676 598f 03       		.byte	0x3
 14677 5990 A1590000 		.4byte	0x59a1
 14678 5994 4A       		.uleb128 0x4a
 14679 5995 100D0000 		.4byte	.LASF921
 14680 5999 03       		.byte	0x3
 14681 599a 2002     		.2byte	0x220
 14682 599c 1C090000 		.4byte	0x91c
 14683 59a0 00       		.byte	0
 14684 59a1 64       		.uleb128 0x64
 14685 59a2 D2570000 		.4byte	0x57d2
 14686 59a6 00000000 		.4byte	.LFB293
 14687 59aa 94000000 		.4byte	.LFE293-.LFB293
ARM GAS  C:\Users\Moi\AppData\Local\Temp\ccOzHcBd.s 			page 259


 14688 59ae 01       		.uleb128 0x1
 14689 59af 9C       		.byte	0x9c
 14690 59b0 D6590000 		.4byte	0x59d6
 14691 59b4 40       		.uleb128 0x40
 14692 59b5 DE570000 		.4byte	0x57de
 14693 59b9 40       		.uleb128 0x40
 14694 59ba DE570000 		.4byte	0x57de
 14695 59be 3C       		.uleb128 0x3c
 14696 59bf E9570000 		.4byte	0x57e9
 14697 59c3 42       		.uleb128 0x42
 14698 59c4 F4570000 		.4byte	0x57f4
 14699 59c8 53110000 		.4byte	.LLST0
 14700 59cc 3A       		.uleb128 0x3a
 14701 59cd 90000000 		.4byte	.LVL5
 14702 59d1 E95E0000 		.4byte	0x5ee9
 14703 59d5 00       		.byte	0
 14704 59d6 64       		.uleb128 0x64
 14705 59d7 3B540000 		.4byte	0x543b
 14706 59db 00000000 		.4byte	.LFB300
 14707 59df D4000000 		.4byte	.LFE300-.LFB300
 14708 59e3 01       		.uleb128 0x1
 14709 59e4 9C       		.byte	0x9c
 14710 59e5 655B0000 		.4byte	0x5b65
 14711 59e9 39       		.uleb128 0x39
 14712 59ea 54540000 		.4byte	0x5454
 14713 59ee 72110000 		.4byte	.LLST111
 14714 59f2 42       		.uleb128 0x42
 14715 59f3 5F540000 		.4byte	0x545f
 14716 59f7 93110000 		.4byte	.LLST112
 14717 59fb 42       		.uleb128 0x42
 14718 59fc 6B540000 		.4byte	0x546b
 14719 5a00 B1110000 		.4byte	.LLST113
 14720 5a04 53       		.uleb128 0x53
 14721 5a05 48540000 		.4byte	0x5448
 14722 5a09 06       		.uleb128 0x6
 14723 5a0a 03       		.byte	0x3
 14724 5a0b 00000000 		.4byte	USBD1
 14725 5a0f 9F       		.byte	0x9f
 14726 5a10 44       		.uleb128 0x44
 14727 5a11 77540000 		.4byte	0x5477
 14728 5a15 60020000 		.4byte	.Ldebug_ranges0+0x260
 14729 5a19 455B0000 		.4byte	0x5b45
 14730 5a1d 42       		.uleb128 0x42
 14731 5a1e 78540000 		.4byte	0x5478
 14732 5a22 CF110000 		.4byte	.LLST114
 14733 5a26 37       		.uleb128 0x37
 14734 5a27 36590000 		.4byte	0x5936
 14735 5a2b 8C000000 		.4byte	.LBB628
 14736 5a2f 14000000 		.4byte	.LBE628-.LBB628
 14737 5a33 01       		.byte	0x1
 14738 5a34 5D02     		.2byte	0x25d
 14739 5a36 8D5A0000 		.4byte	0x5a8d
 14740 5a3a 37       		.uleb128 0x37
 14741 5a3b 6C590000 		.4byte	0x596c
 14742 5a3f 8C000000 		.4byte	.LBB630
 14743 5a43 06000000 		.4byte	.LBE630-.LBB630
 14744 5a47 04       		.byte	0x4
ARM GAS  C:\Users\Moi\AppData\Local\Temp\ccOzHcBd.s 			page 260


 14745 5a48 8401     		.2byte	0x184
 14746 5a4a 7A5A0000 		.4byte	0x5a7a
 14747 5a4e 38       		.uleb128 0x38
 14748 5a4f 7E590000 		.4byte	0x597e
 14749 5a53 8C000000 		.4byte	.LBB631
 14750 5a57 06000000 		.4byte	.LBE631-.LBB631
 14751 5a5b 14       		.byte	0x14
 14752 5a5c DB01     		.2byte	0x1db
 14753 5a5e 38       		.uleb128 0x38
 14754 5a5f 87590000 		.4byte	0x5987
 14755 5a63 8C000000 		.4byte	.LBB632
 14756 5a67 06000000 		.4byte	.LBE632-.LBB632
 14757 5a6b 14       		.byte	0x14
 14758 5a6c BF01     		.2byte	0x1bf
 14759 5a6e 39       		.uleb128 0x39
 14760 5a6f 94590000 		.4byte	0x5994
 14761 5a73 25120000 		.4byte	.LLST115
 14762 5a77 00       		.byte	0
 14763 5a78 00       		.byte	0
 14764 5a79 00       		.byte	0
 14765 5a7a 3A       		.uleb128 0x3a
 14766 5a7b 96000000 		.4byte	.LVL271
 14767 5a7f 425F0000 		.4byte	0x5f42
 14768 5a83 3A       		.uleb128 0x3a
 14769 5a84 9A000000 		.4byte	.LVL272
 14770 5a88 4D5F0000 		.4byte	0x5f4d
 14771 5a8c 00       		.byte	0
 14772 5a8d 37       		.uleb128 0x37
 14773 5a8e 6E490000 		.4byte	0x496e
 14774 5a92 A0000000 		.4byte	.LBB634
 14775 5a96 0C000000 		.4byte	.LBE634-.LBB634
 14776 5a9a 01       		.byte	0x1
 14777 5a9b 5E02     		.2byte	0x25e
 14778 5a9d B45A0000 		.4byte	0x5ab4
 14779 5aa1 39       		.uleb128 0x39
 14780 5aa2 87490000 		.4byte	0x4987
 14781 5aa6 3A120000 		.4byte	.LLST116
 14782 5aaa 39       		.uleb128 0x39
 14783 5aab 7B490000 		.4byte	0x497b
 14784 5aaf 4D120000 		.4byte	.LLST117
 14785 5ab3 00       		.byte	0
 14786 5ab4 37       		.uleb128 0x37
 14787 5ab5 2D590000 		.4byte	0x592d
 14788 5ab9 AC000000 		.4byte	.LBB636
 14789 5abd 0C000000 		.4byte	.LBE636-.LBB636
 14790 5ac1 01       		.byte	0x1
 14791 5ac2 5F02     		.2byte	0x25f
 14792 5ac4 1B5B0000 		.4byte	0x5b1b
 14793 5ac8 37       		.uleb128 0x37
 14794 5ac9 63590000 		.4byte	0x5963
 14795 5acd B4000000 		.4byte	.LBB638
 14796 5ad1 04000000 		.4byte	.LBE638-.LBB638
 14797 5ad5 04       		.byte	0x4
 14798 5ad6 9A01     		.2byte	0x19a
 14799 5ad8 085B0000 		.4byte	0x5b08
 14800 5adc 38       		.uleb128 0x38
 14801 5add 75590000 		.4byte	0x5975
ARM GAS  C:\Users\Moi\AppData\Local\Temp\ccOzHcBd.s 			page 261


 14802 5ae1 B4000000 		.4byte	.LBB639
 14803 5ae5 04000000 		.4byte	.LBE639-.LBB639
 14804 5ae9 14       		.byte	0x14
 14805 5aea E601     		.2byte	0x1e6
 14806 5aec 38       		.uleb128 0x38
 14807 5aed 87590000 		.4byte	0x5987
 14808 5af1 B4000000 		.4byte	.LBB640
 14809 5af5 04000000 		.4byte	.LBE640-.LBB640
 14810 5af9 14       		.byte	0x14
 14811 5afa CD01     		.2byte	0x1cd
 14812 5afc 39       		.uleb128 0x39
 14813 5afd 94590000 		.4byte	0x5994
 14814 5b01 65120000 		.4byte	.LLST118
 14815 5b05 00       		.byte	0
 14816 5b06 00       		.byte	0
 14817 5b07 00       		.byte	0
 14818 5b08 3A       		.uleb128 0x3a
 14819 5b09 B0000000 		.4byte	.LVL275
 14820 5b0d 635F0000 		.4byte	0x5f63
 14821 5b11 3A       		.uleb128 0x3a
 14822 5b12 B4000000 		.4byte	.LVL276
 14823 5b16 6E5F0000 		.4byte	0x5f6e
 14824 5b1a 00       		.byte	0
 14825 5b1b 65       		.uleb128 0x65
 14826 5b1c 7C000000 		.4byte	.LVL267
 14827 5b20 2E5B0000 		.4byte	0x5b2e
 14828 5b24 3E       		.uleb128 0x3e
 14829 5b25 01       		.uleb128 0x1
 14830 5b26 50       		.byte	0x50
 14831 5b27 05       		.uleb128 0x5
 14832 5b28 03       		.byte	0x3
 14833 5b29 00000000 		.4byte	.LANCHOR1
 14834 5b2d 00       		.byte	0
 14835 5b2e 3D       		.uleb128 0x3d
 14836 5b2f 8C000000 		.4byte	.LVL269
 14837 5b33 FA490000 		.4byte	0x49fa
 14838 5b37 3E       		.uleb128 0x3e
 14839 5b38 01       		.uleb128 0x1
 14840 5b39 50       		.byte	0x50
 14841 5b3a 02       		.uleb128 0x2
 14842 5b3b 76       		.byte	0x76
 14843 5b3c 00       		.sleb128 0
 14844 5b3d 3E       		.uleb128 0x3e
 14845 5b3e 01       		.uleb128 0x1
 14846 5b3f 51       		.byte	0x51
 14847 5b40 02       		.uleb128 0x2
 14848 5b41 75       		.byte	0x75
 14849 5b42 00       		.sleb128 0
 14850 5b43 00       		.byte	0
 14851 5b44 00       		.byte	0
 14852 5b45 56       		.uleb128 0x56
 14853 5b46 3C000000 		.4byte	.LVL261
 14854 5b4a 5B5B0000 		.4byte	0x5b5b
 14855 5b4e 3E       		.uleb128 0x3e
 14856 5b4f 01       		.uleb128 0x1
 14857 5b50 50       		.byte	0x50
 14858 5b51 02       		.uleb128 0x2
ARM GAS  C:\Users\Moi\AppData\Local\Temp\ccOzHcBd.s 			page 262


 14859 5b52 76       		.byte	0x76
 14860 5b53 00       		.sleb128 0
 14861 5b54 3E       		.uleb128 0x3e
 14862 5b55 01       		.uleb128 0x1
 14863 5b56 51       		.byte	0x51
 14864 5b57 02       		.uleb128 0x2
 14865 5b58 75       		.byte	0x75
 14866 5b59 00       		.sleb128 0
 14867 5b5a 00       		.byte	0
 14868 5b5b 3A       		.uleb128 0x3a
 14869 5b5c CC000000 		.4byte	.LVL279
 14870 5b60 E95E0000 		.4byte	0x5ee9
 14871 5b64 00       		.byte	0
 14872 5b65 64       		.uleb128 0x64
 14873 5b66 86540000 		.4byte	0x5486
 14874 5b6a 00000000 		.4byte	.LFB299
 14875 5b6e 0C010000 		.4byte	.LFE299-.LFB299
 14876 5b72 01       		.uleb128 0x1
 14877 5b73 9C       		.byte	0x9c
 14878 5b74 315E0000 		.4byte	0x5e31
 14879 5b78 39       		.uleb128 0x39
 14880 5b79 9F540000 		.4byte	0x549f
 14881 5b7d 79120000 		.4byte	.LLST122
 14882 5b81 66       		.uleb128 0x66
 14883 5b82 AA540000 		.4byte	0x54aa
 14884 5b86 01       		.uleb128 0x1
 14885 5b87 55       		.byte	0x55
 14886 5b88 66       		.uleb128 0x66
 14887 5b89 B6540000 		.4byte	0x54b6
 14888 5b8d 01       		.uleb128 0x1
 14889 5b8e 54       		.byte	0x54
 14890 5b8f 53       		.uleb128 0x53
 14891 5b90 93540000 		.4byte	0x5493
 14892 5b94 06       		.uleb128 0x6
 14893 5b95 03       		.byte	0x3
 14894 5b96 00000000 		.4byte	USBD1
 14895 5b9a 9F       		.byte	0x9f
 14896 5b9b 44       		.uleb128 0x44
 14897 5b9c C2540000 		.4byte	0x54c2
 14898 5ba0 90020000 		.4byte	.Ldebug_ranges0+0x290
 14899 5ba4 F85C0000 		.4byte	0x5cf8
 14900 5ba8 42       		.uleb128 0x42
 14901 5ba9 C3540000 		.4byte	0x54c3
 14902 5bad 9A120000 		.4byte	.LLST123
 14903 5bb1 37       		.uleb128 0x37
 14904 5bb2 BD580000 		.4byte	0x58bd
 14905 5bb6 C0000000 		.4byte	.LBB646
 14906 5bba 0E000000 		.4byte	.LBE646-.LBB646
 14907 5bbe 01       		.byte	0x1
 14908 5bbf 2902     		.2byte	0x229
 14909 5bc1 295C0000 		.4byte	0x5c29
 14910 5bc5 38       		.uleb128 0x38
 14911 5bc6 36590000 		.4byte	0x5936
 14912 5bca C0000000 		.4byte	.LBB647
 14913 5bce 0E000000 		.4byte	.LBE647-.LBB647
 14914 5bd2 05       		.byte	0x5
 14915 5bd3 D501     		.2byte	0x1d5
ARM GAS  C:\Users\Moi\AppData\Local\Temp\ccOzHcBd.s 			page 263


 14916 5bd5 37       		.uleb128 0x37
 14917 5bd6 6C590000 		.4byte	0x596c
 14918 5bda C0000000 		.4byte	.LBB649
 14919 5bde 06000000 		.4byte	.LBE649-.LBB649
 14920 5be2 04       		.byte	0x4
 14921 5be3 8401     		.2byte	0x184
 14922 5be5 155C0000 		.4byte	0x5c15
 14923 5be9 38       		.uleb128 0x38
 14924 5bea 7E590000 		.4byte	0x597e
 14925 5bee C0000000 		.4byte	.LBB650
 14926 5bf2 06000000 		.4byte	.LBE650-.LBB650
 14927 5bf6 14       		.byte	0x14
 14928 5bf7 DB01     		.2byte	0x1db
 14929 5bf9 38       		.uleb128 0x38
 14930 5bfa 87590000 		.4byte	0x5987
 14931 5bfe C0000000 		.4byte	.LBB651
 14932 5c02 06000000 		.4byte	.LBE651-.LBB651
 14933 5c06 14       		.byte	0x14
 14934 5c07 BF01     		.2byte	0x1bf
 14935 5c09 39       		.uleb128 0x39
 14936 5c0a 94590000 		.4byte	0x5994
 14937 5c0e DA120000 		.4byte	.LLST124
 14938 5c12 00       		.byte	0
 14939 5c13 00       		.byte	0
 14940 5c14 00       		.byte	0
 14941 5c15 3A       		.uleb128 0x3a
 14942 5c16 CA000000 		.4byte	.LVL308
 14943 5c1a 425F0000 		.4byte	0x5f42
 14944 5c1e 3A       		.uleb128 0x3a
 14945 5c1f CE000000 		.4byte	.LVL309
 14946 5c23 4D5F0000 		.4byte	0x5f4d
 14947 5c27 00       		.byte	0
 14948 5c28 00       		.byte	0
 14949 5c29 37       		.uleb128 0x37
 14950 5c2a 49490000 		.4byte	0x4949
 14951 5c2e CE000000 		.4byte	.LBB653
 14952 5c32 20000000 		.4byte	.LBE653-.LBB653
 14953 5c36 01       		.byte	0x1
 14954 5c37 2A02     		.2byte	0x22a
 14955 5c39 505C0000 		.4byte	0x5c50
 14956 5c3d 39       		.uleb128 0x39
 14957 5c3e 62490000 		.4byte	0x4962
 14958 5c42 EF120000 		.4byte	.LLST125
 14959 5c46 39       		.uleb128 0x39
 14960 5c47 56490000 		.4byte	0x4956
 14961 5c4b 02130000 		.4byte	.LLST126
 14962 5c4f 00       		.byte	0
 14963 5c50 37       		.uleb128 0x37
 14964 5c51 B4580000 		.4byte	0x58b4
 14965 5c55 EE000000 		.4byte	.LBB655
 14966 5c59 0E000000 		.4byte	.LBE655-.LBB655
 14967 5c5d 01       		.byte	0x1
 14968 5c5e 2B02     		.2byte	0x22b
 14969 5c60 C85C0000 		.4byte	0x5cc8
 14970 5c64 38       		.uleb128 0x38
 14971 5c65 2D590000 		.4byte	0x592d
 14972 5c69 EE000000 		.4byte	.LBB656
ARM GAS  C:\Users\Moi\AppData\Local\Temp\ccOzHcBd.s 			page 264


 14973 5c6d 0E000000 		.4byte	.LBE656-.LBB656
 14974 5c71 05       		.byte	0x5
 14975 5c72 E001     		.2byte	0x1e0
 14976 5c74 37       		.uleb128 0x37
 14977 5c75 63590000 		.4byte	0x5963
 14978 5c79 F6000000 		.4byte	.LBB658
 14979 5c7d 06000000 		.4byte	.LBE658-.LBB658
 14980 5c81 04       		.byte	0x4
 14981 5c82 9A01     		.2byte	0x19a
 14982 5c84 B45C0000 		.4byte	0x5cb4
 14983 5c88 38       		.uleb128 0x38
 14984 5c89 75590000 		.4byte	0x5975
 14985 5c8d F6000000 		.4byte	.LBB659
 14986 5c91 06000000 		.4byte	.LBE659-.LBB659
 14987 5c95 14       		.byte	0x14
 14988 5c96 E601     		.2byte	0x1e6
 14989 5c98 38       		.uleb128 0x38
 14990 5c99 87590000 		.4byte	0x5987
 14991 5c9d F6000000 		.4byte	.LBB660
 14992 5ca1 06000000 		.4byte	.LBE660-.LBB660
 14993 5ca5 14       		.byte	0x14
 14994 5ca6 CD01     		.2byte	0x1cd
 14995 5ca8 39       		.uleb128 0x39
 14996 5ca9 94590000 		.4byte	0x5994
 14997 5cad 1A130000 		.4byte	.LLST127
 14998 5cb1 00       		.byte	0
 14999 5cb2 00       		.byte	0
 15000 5cb3 00       		.byte	0
 15001 5cb4 3A       		.uleb128 0x3a
 15002 5cb5 F2000000 		.4byte	.LVL311
 15003 5cb9 635F0000 		.4byte	0x5f63
 15004 5cbd 3A       		.uleb128 0x3a
 15005 5cbe F6000000 		.4byte	.LVL312
 15006 5cc2 6E5F0000 		.4byte	0x5f6e
 15007 5cc6 00       		.byte	0
 15008 5cc7 00       		.byte	0
 15009 5cc8 67       		.uleb128 0x67
 15010 5cc9 54000000 		.4byte	.LVL295
 15011 5ccd 02       		.uleb128 0x2
 15012 5cce 79       		.byte	0x79
 15013 5ccf 00       		.sleb128 0
 15014 5cd0 E15C0000 		.4byte	0x5ce1
 15015 5cd4 3E       		.uleb128 0x3e
 15016 5cd5 01       		.uleb128 0x1
 15017 5cd6 50       		.byte	0x50
 15018 5cd7 02       		.uleb128 0x2
 15019 5cd8 76       		.byte	0x76
 15020 5cd9 00       		.sleb128 0
 15021 5cda 3E       		.uleb128 0x3e
 15022 5cdb 01       		.uleb128 0x1
 15023 5cdc 51       		.byte	0x51
 15024 5cdd 02       		.uleb128 0x2
 15025 5cde 77       		.byte	0x77
 15026 5cdf 00       		.sleb128 0
 15027 5ce0 00       		.byte	0
 15028 5ce1 3D       		.uleb128 0x3d
 15029 5ce2 C0000000 		.4byte	.LVL306
ARM GAS  C:\Users\Moi\AppData\Local\Temp\ccOzHcBd.s 			page 265


 15030 5ce6 93490000 		.4byte	0x4993
 15031 5cea 3E       		.uleb128 0x3e
 15032 5ceb 01       		.uleb128 0x1
 15033 5cec 50       		.byte	0x50
 15034 5ced 02       		.uleb128 0x2
 15035 5cee 76       		.byte	0x76
 15036 5cef 00       		.sleb128 0
 15037 5cf0 3E       		.uleb128 0x3e
 15038 5cf1 01       		.uleb128 0x1
 15039 5cf2 51       		.byte	0x51
 15040 5cf3 02       		.uleb128 0x2
 15041 5cf4 77       		.byte	0x77
 15042 5cf5 00       		.sleb128 0
 15043 5cf6 00       		.byte	0
 15044 5cf7 00       		.byte	0
 15045 5cf8 37       		.uleb128 0x37
 15046 5cf9 BD580000 		.4byte	0x58bd
 15047 5cfd 76000000 		.4byte	.LBB662
 15048 5d01 0E000000 		.4byte	.LBE662-.LBB662
 15049 5d05 01       		.byte	0x1
 15050 5d06 3502     		.2byte	0x235
 15051 5d08 705D0000 		.4byte	0x5d70
 15052 5d0c 38       		.uleb128 0x38
 15053 5d0d 36590000 		.4byte	0x5936
 15054 5d11 76000000 		.4byte	.LBB663
 15055 5d15 0E000000 		.4byte	.LBE663-.LBB663
 15056 5d19 05       		.byte	0x5
 15057 5d1a D501     		.2byte	0x1d5
 15058 5d1c 37       		.uleb128 0x37
 15059 5d1d 6C590000 		.4byte	0x596c
 15060 5d21 76000000 		.4byte	.LBB665
 15061 5d25 06000000 		.4byte	.LBE665-.LBB665
 15062 5d29 04       		.byte	0x4
 15063 5d2a 8401     		.2byte	0x184
 15064 5d2c 5C5D0000 		.4byte	0x5d5c
 15065 5d30 38       		.uleb128 0x38
 15066 5d31 7E590000 		.4byte	0x597e
 15067 5d35 76000000 		.4byte	.LBB666
 15068 5d39 06000000 		.4byte	.LBE666-.LBB666
 15069 5d3d 14       		.byte	0x14
 15070 5d3e DB01     		.2byte	0x1db
 15071 5d40 38       		.uleb128 0x38
 15072 5d41 87590000 		.4byte	0x5987
 15073 5d45 76000000 		.4byte	.LBB667
 15074 5d49 06000000 		.4byte	.LBE667-.LBB667
 15075 5d4d 14       		.byte	0x14
 15076 5d4e BF01     		.2byte	0x1bf
 15077 5d50 39       		.uleb128 0x39
 15078 5d51 94590000 		.4byte	0x5994
 15079 5d55 2E130000 		.4byte	.LLST128
 15080 5d59 00       		.byte	0
 15081 5d5a 00       		.byte	0
 15082 5d5b 00       		.byte	0
 15083 5d5c 3A       		.uleb128 0x3a
 15084 5d5d 80000000 		.4byte	.LVL298
 15085 5d61 425F0000 		.4byte	0x5f42
 15086 5d65 3A       		.uleb128 0x3a
ARM GAS  C:\Users\Moi\AppData\Local\Temp\ccOzHcBd.s 			page 266


 15087 5d66 84000000 		.4byte	.LVL299
 15088 5d6a 4D5F0000 		.4byte	0x5f4d
 15089 5d6e 00       		.byte	0
 15090 5d6f 00       		.byte	0
 15091 5d70 3F       		.uleb128 0x3f
 15092 5d71 4D580000 		.4byte	0x584d
 15093 5d75 8A000000 		.4byte	.LBB669
 15094 5d79 A8020000 		.4byte	.Ldebug_ranges0+0x2a8
 15095 5d7d 01       		.byte	0x1
 15096 5d7e 3802     		.2byte	0x238
 15097 5d80 AF5D0000 		.4byte	0x5daf
 15098 5d84 39       		.uleb128 0x39
 15099 5d85 66580000 		.4byte	0x5866
 15100 5d89 43130000 		.4byte	.LLST129
 15101 5d8d 39       		.uleb128 0x39
 15102 5d8e 5A580000 		.4byte	0x585a
 15103 5d92 57130000 		.4byte	.LLST130
 15104 5d96 3D       		.uleb128 0x3d
 15105 5d97 9E000000 		.4byte	.LVL301
 15106 5d9b 585F0000 		.4byte	0x5f58
 15107 5d9f 3E       		.uleb128 0x3e
 15108 5da0 01       		.uleb128 0x1
 15109 5da1 50       		.byte	0x50
 15110 5da2 05       		.uleb128 0x5
 15111 5da3 03       		.byte	0x3
 15112 5da4 60000000 		.4byte	.LANCHOR1+96
 15113 5da8 3E       		.uleb128 0x3e
 15114 5da9 01       		.uleb128 0x1
 15115 5daa 51       		.byte	0x51
 15116 5dab 01       		.uleb128 0x1
 15117 5dac 30       		.byte	0x30
 15118 5dad 00       		.byte	0
 15119 5dae 00       		.byte	0
 15120 5daf 37       		.uleb128 0x37
 15121 5db0 B4580000 		.4byte	0x58b4
 15122 5db4 9E000000 		.4byte	.LBB675
 15123 5db8 10000000 		.4byte	.LBE675-.LBB675
 15124 5dbc 01       		.byte	0x1
 15125 5dbd 3902     		.2byte	0x239
 15126 5dbf 275E0000 		.4byte	0x5e27
 15127 5dc3 38       		.uleb128 0x38
 15128 5dc4 2D590000 		.4byte	0x592d
 15129 5dc8 9E000000 		.4byte	.LBB676
 15130 5dcc 10000000 		.4byte	.LBE676-.LBB676
 15131 5dd0 05       		.byte	0x5
 15132 5dd1 E001     		.2byte	0x1e0
 15133 5dd3 37       		.uleb128 0x37
 15134 5dd4 63590000 		.4byte	0x5963
 15135 5dd8 A6000000 		.4byte	.LBB678
 15136 5ddc 08000000 		.4byte	.LBE678-.LBB678
 15137 5de0 04       		.byte	0x4
 15138 5de1 9A01     		.2byte	0x19a
 15139 5de3 135E0000 		.4byte	0x5e13
 15140 5de7 38       		.uleb128 0x38
 15141 5de8 75590000 		.4byte	0x5975
 15142 5dec A6000000 		.4byte	.LBB679
 15143 5df0 08000000 		.4byte	.LBE679-.LBB679
ARM GAS  C:\Users\Moi\AppData\Local\Temp\ccOzHcBd.s 			page 267


 15144 5df4 14       		.byte	0x14
 15145 5df5 E601     		.2byte	0x1e6
 15146 5df7 38       		.uleb128 0x38
 15147 5df8 87590000 		.4byte	0x5987
 15148 5dfc A6000000 		.4byte	.LBB680
 15149 5e00 08000000 		.4byte	.LBE680-.LBB680
 15150 5e04 14       		.byte	0x14
 15151 5e05 CD01     		.2byte	0x1cd
 15152 5e07 39       		.uleb128 0x39
 15153 5e08 94590000 		.4byte	0x5994
 15154 5e0c 6F130000 		.4byte	.LLST131
 15155 5e10 00       		.byte	0
 15156 5e11 00       		.byte	0
 15157 5e12 00       		.byte	0
 15158 5e13 3A       		.uleb128 0x3a
 15159 5e14 A2000000 		.4byte	.LVL302
 15160 5e18 635F0000 		.4byte	0x5f63
 15161 5e1c 3A       		.uleb128 0x3a
 15162 5e1d A6000000 		.4byte	.LVL303
 15163 5e21 6E5F0000 		.4byte	0x5f6e
 15164 5e25 00       		.byte	0
 15165 5e26 00       		.byte	0
 15166 5e27 3A       		.uleb128 0x3a
 15167 5e28 00010000 		.4byte	.LVL314
 15168 5e2c E95E0000 		.4byte	0x5ee9
 15169 5e30 00       		.byte	0
 15170 5e31 64       		.uleb128 0x64
 15171 5e32 6E490000 		.4byte	0x496e
 15172 5e36 00000000 		.4byte	.LFB286
 15173 5e3a 34000000 		.4byte	.LFE286-.LFB286
 15174 5e3e 01       		.uleb128 0x1
 15175 5e3f 9C       		.byte	0x9c
 15176 5e40 605E0000 		.4byte	0x5e60
 15177 5e44 39       		.uleb128 0x39
 15178 5e45 7B490000 		.4byte	0x497b
 15179 5e49 83130000 		.4byte	.LLST140
 15180 5e4d 39       		.uleb128 0x39
 15181 5e4e 87490000 		.4byte	0x4987
 15182 5e52 A4130000 		.4byte	.LLST141
 15183 5e56 3A       		.uleb128 0x3a
 15184 5e57 2E000000 		.4byte	.LVL353
 15185 5e5b E95E0000 		.4byte	0x5ee9
 15186 5e5f 00       		.byte	0
 15187 5e60 64       		.uleb128 0x64
 15188 5e61 49490000 		.4byte	0x4949
 15189 5e65 00000000 		.4byte	.LFB287
 15190 5e69 40000000 		.4byte	.LFE287-.LFB287
 15191 5e6d 01       		.uleb128 0x1
 15192 5e6e 9C       		.byte	0x9c
 15193 5e6f 8F5E0000 		.4byte	0x5e8f
 15194 5e73 39       		.uleb128 0x39
 15195 5e74 56490000 		.4byte	0x4956
 15196 5e78 C5130000 		.4byte	.LLST142
 15197 5e7c 39       		.uleb128 0x39
 15198 5e7d 62490000 		.4byte	0x4962
 15199 5e81 E6130000 		.4byte	.LLST143
 15200 5e85 3A       		.uleb128 0x3a
ARM GAS  C:\Users\Moi\AppData\Local\Temp\ccOzHcBd.s 			page 268


 15201 5e86 3C000000 		.4byte	.LVL357
 15202 5e8a E95E0000 		.4byte	0x5ee9
 15203 5e8e 00       		.byte	0
 15204 5e8f 68       		.uleb128 0x68
 15205 5e90 0D260000 		.4byte	.LASF922
 15206 5e94 0D260000 		.4byte	.LASF922
 15207 5e98 17       		.byte	0x17
 15208 5e99 4F       		.byte	0x4f
 15209 5e9a 68       		.uleb128 0x68
 15210 5e9b CC030000 		.4byte	.LASF923
 15211 5e9f CC030000 		.4byte	.LASF923
 15212 5ea3 15       		.byte	0x15
 15213 5ea4 D8       		.byte	0xd8
 15214 5ea5 68       		.uleb128 0x68
 15215 5ea6 BE140000 		.4byte	.LASF924
 15216 5eaa BE140000 		.4byte	.LASF924
 15217 5eae 15       		.byte	0x15
 15218 5eaf D9       		.byte	0xd9
 15219 5eb0 68       		.uleb128 0x68
 15220 5eb1 C61B0000 		.4byte	.LASF925
 15221 5eb5 C61B0000 		.4byte	.LASF925
 15222 5eb9 17       		.byte	0x17
 15223 5eba 50       		.byte	0x50
 15224 5ebb 69       		.uleb128 0x69
 15225 5ebc E7070000 		.4byte	.LASF926
 15226 5ec0 E7070000 		.4byte	.LASF926
 15227 5ec4 04       		.byte	0x4
 15228 5ec5 1601     		.2byte	0x116
 15229 5ec7 68       		.uleb128 0x68
 15230 5ec8 45090000 		.4byte	.LASF927
 15231 5ecc 45090000 		.4byte	.LASF927
 15232 5ed0 06       		.byte	0x6
 15233 5ed1 94       		.byte	0x94
 15234 5ed2 69       		.uleb128 0x69
 15235 5ed3 951A0000 		.4byte	.LASF928
 15236 5ed7 951A0000 		.4byte	.LASF928
 15237 5edb 0F       		.byte	0xf
 15238 5edc 1702     		.2byte	0x217
 15239 5ede 68       		.uleb128 0x68
 15240 5edf 8B140000 		.4byte	.LASF929
 15241 5ee3 8B140000 		.4byte	.LASF929
 15242 5ee7 06       		.byte	0x6
 15243 5ee8 8D       		.byte	0x8d
 15244 5ee9 6A       		.uleb128 0x6a
 15245 5eea 13060000 		.4byte	.LASF950
 15246 5eee 13060000 		.4byte	.LASF950
 15247 5ef2 69       		.uleb128 0x69
 15248 5ef3 17210000 		.4byte	.LASF930
 15249 5ef7 17210000 		.4byte	.LASF930
 15250 5efb 04       		.byte	0x4
 15251 5efc 1D01     		.2byte	0x11d
 15252 5efe 68       		.uleb128 0x68
 15253 5eff 04040000 		.4byte	.LASF931
 15254 5f03 04040000 		.4byte	.LASF931
 15255 5f07 39       		.byte	0x39
 15256 5f08 4F       		.byte	0x4f
 15257 5f09 69       		.uleb128 0x69
ARM GAS  C:\Users\Moi\AppData\Local\Temp\ccOzHcBd.s 			page 269


 15258 5f0a CB1C0000 		.4byte	.LASF932
 15259 5f0e CB1C0000 		.4byte	.LASF932
 15260 5f12 0F       		.byte	0xf
 15261 5f13 1302     		.2byte	0x213
 15262 5f15 68       		.uleb128 0x68
 15263 5f16 AE230000 		.4byte	.LASF933
 15264 5f1a AE230000 		.4byte	.LASF933
 15265 5f1e 39       		.byte	0x39
 15266 5f1f 4E       		.byte	0x4e
 15267 5f20 68       		.uleb128 0x68
 15268 5f21 F6160000 		.4byte	.LASF934
 15269 5f25 F6160000 		.4byte	.LASF934
 15270 5f29 06       		.byte	0x6
 15271 5f2a 87       		.byte	0x87
 15272 5f2b 68       		.uleb128 0x68
 15273 5f2c 5F130000 		.4byte	.LASF935
 15274 5f30 5F130000 		.4byte	.LASF935
 15275 5f34 06       		.byte	0x6
 15276 5f35 85       		.byte	0x85
 15277 5f36 69       		.uleb128 0x69
 15278 5f37 97170000 		.4byte	.LASF936
 15279 5f3b 97170000 		.4byte	.LASF936
 15280 5f3f 36       		.byte	0x36
 15281 5f40 3602     		.2byte	0x236
 15282 5f42 68       		.uleb128 0x68
 15283 5f43 1F160000 		.4byte	.LASF937
 15284 5f47 1F160000 		.4byte	.LASF937
 15285 5f4b 17       		.byte	0x17
 15286 5f4c 51       		.byte	0x51
 15287 5f4d 68       		.uleb128 0x68
 15288 5f4e A4240000 		.4byte	.LASF938
 15289 5f52 A4240000 		.4byte	.LASF938
 15290 5f56 15       		.byte	0x15
 15291 5f57 DA       		.byte	0xda
 15292 5f58 68       		.uleb128 0x68
 15293 5f59 35210000 		.4byte	.LASF939
 15294 5f5d 35210000 		.4byte	.LASF939
 15295 5f61 06       		.byte	0x6
 15296 5f62 8F       		.byte	0x8f
 15297 5f63 68       		.uleb128 0x68
 15298 5f64 931E0000 		.4byte	.LASF940
 15299 5f68 931E0000 		.4byte	.LASF940
 15300 5f6c 15       		.byte	0x15
 15301 5f6d DB       		.byte	0xdb
 15302 5f6e 68       		.uleb128 0x68
 15303 5f6f 13200000 		.4byte	.LASF941
 15304 5f73 13200000 		.4byte	.LASF941
 15305 5f77 17       		.byte	0x17
 15306 5f78 52       		.byte	0x52
 15307 5f79 69       		.uleb128 0x69
 15308 5f7a 7C090000 		.4byte	.LASF942
 15309 5f7e 7C090000 		.4byte	.LASF942
 15310 5f82 36       		.byte	0x36
 15311 5f83 4902     		.2byte	0x249
 15312 5f85 68       		.uleb128 0x68
 15313 5f86 EB050000 		.4byte	.LASF943
 15314 5f8a EB050000 		.4byte	.LASF943
ARM GAS  C:\Users\Moi\AppData\Local\Temp\ccOzHcBd.s 			page 270


 15315 5f8e 17       		.byte	0x17
 15316 5f8f 4D       		.byte	0x4d
 15317 5f90 68       		.uleb128 0x68
 15318 5f91 B7030000 		.4byte	.LASF944
 15319 5f95 B7030000 		.4byte	.LASF944
 15320 5f99 15       		.byte	0x15
 15321 5f9a DC       		.byte	0xdc
 15322 5f9b 68       		.uleb128 0x68
 15323 5f9c 7A230000 		.4byte	.LASF945
 15324 5fa0 7A230000 		.4byte	.LASF945
 15325 5fa4 15       		.byte	0x15
 15326 5fa5 DD       		.byte	0xdd
 15327 5fa6 69       		.uleb128 0x69
 15328 5fa7 30110000 		.4byte	.LASF946
 15329 5fab 30110000 		.4byte	.LASF946
 15330 5faf 14       		.byte	0x14
 15331 5fb0 6601     		.2byte	0x166
 15332 5fb2 00       		.byte	0
 15333              		.section	.debug_abbrev,"",%progbits
 15334              	.Ldebug_abbrev0:
 15335 0000 01       		.uleb128 0x1
 15336 0001 11       		.uleb128 0x11
 15337 0002 01       		.byte	0x1
 15338 0003 25       		.uleb128 0x25
 15339 0004 0E       		.uleb128 0xe
 15340 0005 13       		.uleb128 0x13
 15341 0006 0B       		.uleb128 0xb
 15342 0007 03       		.uleb128 0x3
 15343 0008 0E       		.uleb128 0xe
 15344 0009 1B       		.uleb128 0x1b
 15345 000a 0E       		.uleb128 0xe
 15346 000b 55       		.uleb128 0x55
 15347 000c 17       		.uleb128 0x17
 15348 000d 11       		.uleb128 0x11
 15349 000e 01       		.uleb128 0x1
 15350 000f 10       		.uleb128 0x10
 15351 0010 17       		.uleb128 0x17
 15352 0011 00       		.byte	0
 15353 0012 00       		.byte	0
 15354 0013 02       		.uleb128 0x2
 15355 0014 24       		.uleb128 0x24
 15356 0015 00       		.byte	0
 15357 0016 0B       		.uleb128 0xb
 15358 0017 0B       		.uleb128 0xb
 15359 0018 3E       		.uleb128 0x3e
 15360 0019 0B       		.uleb128 0xb
 15361 001a 03       		.uleb128 0x3
 15362 001b 0E       		.uleb128 0xe
 15363 001c 00       		.byte	0
 15364 001d 00       		.byte	0
 15365 001e 03       		.uleb128 0x3
 15366 001f 24       		.uleb128 0x24
 15367 0020 00       		.byte	0
 15368 0021 0B       		.uleb128 0xb
 15369 0022 0B       		.uleb128 0xb
 15370 0023 3E       		.uleb128 0x3e
 15371 0024 0B       		.uleb128 0xb
ARM GAS  C:\Users\Moi\AppData\Local\Temp\ccOzHcBd.s 			page 271


 15372 0025 03       		.uleb128 0x3
 15373 0026 08       		.uleb128 0x8
 15374 0027 00       		.byte	0
 15375 0028 00       		.byte	0
 15376 0029 04       		.uleb128 0x4
 15377 002a 16       		.uleb128 0x16
 15378 002b 00       		.byte	0
 15379 002c 03       		.uleb128 0x3
 15380 002d 0E       		.uleb128 0xe
 15381 002e 3A       		.uleb128 0x3a
 15382 002f 0B       		.uleb128 0xb
 15383 0030 3B       		.uleb128 0x3b
 15384 0031 0B       		.uleb128 0xb
 15385 0032 49       		.uleb128 0x49
 15386 0033 13       		.uleb128 0x13
 15387 0034 00       		.byte	0
 15388 0035 00       		.byte	0
 15389 0036 05       		.uleb128 0x5
 15390 0037 0F       		.uleb128 0xf
 15391 0038 00       		.byte	0
 15392 0039 0B       		.uleb128 0xb
 15393 003a 0B       		.uleb128 0xb
 15394 003b 49       		.uleb128 0x49
 15395 003c 13       		.uleb128 0x13
 15396 003d 00       		.byte	0
 15397 003e 00       		.byte	0
 15398 003f 06       		.uleb128 0x6
 15399 0040 13       		.uleb128 0x13
 15400 0041 00       		.byte	0
 15401 0042 03       		.uleb128 0x3
 15402 0043 0E       		.uleb128 0xe
 15403 0044 3C       		.uleb128 0x3c
 15404 0045 19       		.uleb128 0x19
 15405 0046 00       		.byte	0
 15406 0047 00       		.byte	0
 15407 0048 07       		.uleb128 0x7
 15408 0049 16       		.uleb128 0x16
 15409 004a 00       		.byte	0
 15410 004b 03       		.uleb128 0x3
 15411 004c 0E       		.uleb128 0xe
 15412 004d 3A       		.uleb128 0x3a
 15413 004e 0B       		.uleb128 0xb
 15414 004f 3B       		.uleb128 0x3b
 15415 0050 05       		.uleb128 0x5
 15416 0051 49       		.uleb128 0x49
 15417 0052 13       		.uleb128 0x13
 15418 0053 00       		.byte	0
 15419 0054 00       		.byte	0
 15420 0055 08       		.uleb128 0x8
 15421 0056 17       		.uleb128 0x17
 15422 0057 01       		.byte	0x1
 15423 0058 0B       		.uleb128 0xb
 15424 0059 0B       		.uleb128 0xb
 15425 005a 3A       		.uleb128 0x3a
 15426 005b 0B       		.uleb128 0xb
 15427 005c 3B       		.uleb128 0x3b
 15428 005d 0B       		.uleb128 0xb
ARM GAS  C:\Users\Moi\AppData\Local\Temp\ccOzHcBd.s 			page 272


 15429 005e 01       		.uleb128 0x1
 15430 005f 13       		.uleb128 0x13
 15431 0060 00       		.byte	0
 15432 0061 00       		.byte	0
 15433 0062 09       		.uleb128 0x9
 15434 0063 0D       		.uleb128 0xd
 15435 0064 00       		.byte	0
 15436 0065 03       		.uleb128 0x3
 15437 0066 0E       		.uleb128 0xe
 15438 0067 3A       		.uleb128 0x3a
 15439 0068 0B       		.uleb128 0xb
 15440 0069 3B       		.uleb128 0x3b
 15441 006a 0B       		.uleb128 0xb
 15442 006b 49       		.uleb128 0x49
 15443 006c 13       		.uleb128 0x13
 15444 006d 00       		.byte	0
 15445 006e 00       		.byte	0
 15446 006f 0A       		.uleb128 0xa
 15447 0070 01       		.uleb128 0x1
 15448 0071 01       		.byte	0x1
 15449 0072 49       		.uleb128 0x49
 15450 0073 13       		.uleb128 0x13
 15451 0074 01       		.uleb128 0x1
 15452 0075 13       		.uleb128 0x13
 15453 0076 00       		.byte	0
 15454 0077 00       		.byte	0
 15455 0078 0B       		.uleb128 0xb
 15456 0079 21       		.uleb128 0x21
 15457 007a 00       		.byte	0
 15458 007b 49       		.uleb128 0x49
 15459 007c 13       		.uleb128 0x13
 15460 007d 2F       		.uleb128 0x2f
 15461 007e 0B       		.uleb128 0xb
 15462 007f 00       		.byte	0
 15463 0080 00       		.byte	0
 15464 0081 0C       		.uleb128 0xc
 15465 0082 13       		.uleb128 0x13
 15466 0083 01       		.byte	0x1
 15467 0084 0B       		.uleb128 0xb
 15468 0085 0B       		.uleb128 0xb
 15469 0086 3A       		.uleb128 0x3a
 15470 0087 0B       		.uleb128 0xb
 15471 0088 3B       		.uleb128 0x3b
 15472 0089 0B       		.uleb128 0xb
 15473 008a 01       		.uleb128 0x1
 15474 008b 13       		.uleb128 0x13
 15475 008c 00       		.byte	0
 15476 008d 00       		.byte	0
 15477 008e 0D       		.uleb128 0xd
 15478 008f 0D       		.uleb128 0xd
 15479 0090 00       		.byte	0
 15480 0091 03       		.uleb128 0x3
 15481 0092 0E       		.uleb128 0xe
 15482 0093 3A       		.uleb128 0x3a
 15483 0094 0B       		.uleb128 0xb
 15484 0095 3B       		.uleb128 0x3b
 15485 0096 0B       		.uleb128 0xb
ARM GAS  C:\Users\Moi\AppData\Local\Temp\ccOzHcBd.s 			page 273


 15486 0097 49       		.uleb128 0x49
 15487 0098 13       		.uleb128 0x13
 15488 0099 38       		.uleb128 0x38
 15489 009a 0B       		.uleb128 0xb
 15490 009b 00       		.byte	0
 15491 009c 00       		.byte	0
 15492 009d 0E       		.uleb128 0xe
 15493 009e 0F       		.uleb128 0xf
 15494 009f 00       		.byte	0
 15495 00a0 0B       		.uleb128 0xb
 15496 00a1 0B       		.uleb128 0xb
 15497 00a2 00       		.byte	0
 15498 00a3 00       		.byte	0
 15499 00a4 0F       		.uleb128 0xf
 15500 00a5 26       		.uleb128 0x26
 15501 00a6 00       		.byte	0
 15502 00a7 49       		.uleb128 0x49
 15503 00a8 13       		.uleb128 0x13
 15504 00a9 00       		.byte	0
 15505 00aa 00       		.byte	0
 15506 00ab 10       		.uleb128 0x10
 15507 00ac 13       		.uleb128 0x13
 15508 00ad 01       		.byte	0x1
 15509 00ae 03       		.uleb128 0x3
 15510 00af 0E       		.uleb128 0xe
 15511 00b0 0B       		.uleb128 0xb
 15512 00b1 0B       		.uleb128 0xb
 15513 00b2 3A       		.uleb128 0x3a
 15514 00b3 0B       		.uleb128 0xb
 15515 00b4 3B       		.uleb128 0x3b
 15516 00b5 0B       		.uleb128 0xb
 15517 00b6 01       		.uleb128 0x1
 15518 00b7 13       		.uleb128 0x13
 15519 00b8 00       		.byte	0
 15520 00b9 00       		.byte	0
 15521 00ba 11       		.uleb128 0x11
 15522 00bb 0D       		.uleb128 0xd
 15523 00bc 00       		.byte	0
 15524 00bd 03       		.uleb128 0x3
 15525 00be 08       		.uleb128 0x8
 15526 00bf 3A       		.uleb128 0x3a
 15527 00c0 0B       		.uleb128 0xb
 15528 00c1 3B       		.uleb128 0x3b
 15529 00c2 0B       		.uleb128 0xb
 15530 00c3 49       		.uleb128 0x49
 15531 00c4 13       		.uleb128 0x13
 15532 00c5 38       		.uleb128 0x38
 15533 00c6 0B       		.uleb128 0xb
 15534 00c7 00       		.byte	0
 15535 00c8 00       		.byte	0
 15536 00c9 12       		.uleb128 0x12
 15537 00ca 13       		.uleb128 0x13
 15538 00cb 01       		.byte	0x1
 15539 00cc 03       		.uleb128 0x3
 15540 00cd 0E       		.uleb128 0xe
 15541 00ce 0B       		.uleb128 0xb
 15542 00cf 05       		.uleb128 0x5
ARM GAS  C:\Users\Moi\AppData\Local\Temp\ccOzHcBd.s 			page 274


 15543 00d0 3A       		.uleb128 0x3a
 15544 00d1 0B       		.uleb128 0xb
 15545 00d2 3B       		.uleb128 0x3b
 15546 00d3 0B       		.uleb128 0xb
 15547 00d4 01       		.uleb128 0x1
 15548 00d5 13       		.uleb128 0x13
 15549 00d6 00       		.byte	0
 15550 00d7 00       		.byte	0
 15551 00d8 13       		.uleb128 0x13
 15552 00d9 0D       		.uleb128 0xd
 15553 00da 00       		.byte	0
 15554 00db 03       		.uleb128 0x3
 15555 00dc 0E       		.uleb128 0xe
 15556 00dd 3A       		.uleb128 0x3a
 15557 00de 0B       		.uleb128 0xb
 15558 00df 3B       		.uleb128 0x3b
 15559 00e0 0B       		.uleb128 0xb
 15560 00e1 49       		.uleb128 0x49
 15561 00e2 13       		.uleb128 0x13
 15562 00e3 38       		.uleb128 0x38
 15563 00e4 05       		.uleb128 0x5
 15564 00e5 00       		.byte	0
 15565 00e6 00       		.byte	0
 15566 00e7 14       		.uleb128 0x14
 15567 00e8 15       		.uleb128 0x15
 15568 00e9 00       		.byte	0
 15569 00ea 27       		.uleb128 0x27
 15570 00eb 19       		.uleb128 0x19
 15571 00ec 00       		.byte	0
 15572 00ed 00       		.byte	0
 15573 00ee 15       		.uleb128 0x15
 15574 00ef 15       		.uleb128 0x15
 15575 00f0 01       		.byte	0x1
 15576 00f1 27       		.uleb128 0x27
 15577 00f2 19       		.uleb128 0x19
 15578 00f3 49       		.uleb128 0x49
 15579 00f4 13       		.uleb128 0x13
 15580 00f5 01       		.uleb128 0x1
 15581 00f6 13       		.uleb128 0x13
 15582 00f7 00       		.byte	0
 15583 00f8 00       		.byte	0
 15584 00f9 16       		.uleb128 0x16
 15585 00fa 05       		.uleb128 0x5
 15586 00fb 00       		.byte	0
 15587 00fc 49       		.uleb128 0x49
 15588 00fd 13       		.uleb128 0x13
 15589 00fe 00       		.byte	0
 15590 00ff 00       		.byte	0
 15591 0100 17       		.uleb128 0x17
 15592 0101 13       		.uleb128 0x13
 15593 0102 01       		.byte	0x1
 15594 0103 03       		.uleb128 0x3
 15595 0104 0E       		.uleb128 0xe
 15596 0105 0B       		.uleb128 0xb
 15597 0106 05       		.uleb128 0x5
 15598 0107 3A       		.uleb128 0x3a
 15599 0108 0B       		.uleb128 0xb
ARM GAS  C:\Users\Moi\AppData\Local\Temp\ccOzHcBd.s 			page 275


 15600 0109 3B       		.uleb128 0x3b
 15601 010a 05       		.uleb128 0x5
 15602 010b 01       		.uleb128 0x1
 15603 010c 13       		.uleb128 0x13
 15604 010d 00       		.byte	0
 15605 010e 00       		.byte	0
 15606 010f 18       		.uleb128 0x18
 15607 0110 0D       		.uleb128 0xd
 15608 0111 00       		.byte	0
 15609 0112 03       		.uleb128 0x3
 15610 0113 0E       		.uleb128 0xe
 15611 0114 3A       		.uleb128 0x3a
 15612 0115 0B       		.uleb128 0xb
 15613 0116 3B       		.uleb128 0x3b
 15614 0117 05       		.uleb128 0x5
 15615 0118 49       		.uleb128 0x49
 15616 0119 13       		.uleb128 0x13
 15617 011a 38       		.uleb128 0x38
 15618 011b 0B       		.uleb128 0xb
 15619 011c 00       		.byte	0
 15620 011d 00       		.byte	0
 15621 011e 19       		.uleb128 0x19
 15622 011f 0D       		.uleb128 0xd
 15623 0120 00       		.byte	0
 15624 0121 03       		.uleb128 0x3
 15625 0122 0E       		.uleb128 0xe
 15626 0123 3A       		.uleb128 0x3a
 15627 0124 0B       		.uleb128 0xb
 15628 0125 3B       		.uleb128 0x3b
 15629 0126 05       		.uleb128 0x5
 15630 0127 49       		.uleb128 0x49
 15631 0128 13       		.uleb128 0x13
 15632 0129 38       		.uleb128 0x38
 15633 012a 05       		.uleb128 0x5
 15634 012b 00       		.byte	0
 15635 012c 00       		.byte	0
 15636 012d 1A       		.uleb128 0x1a
 15637 012e 35       		.uleb128 0x35
 15638 012f 00       		.byte	0
 15639 0130 49       		.uleb128 0x49
 15640 0131 13       		.uleb128 0x13
 15641 0132 00       		.byte	0
 15642 0133 00       		.byte	0
 15643 0134 1B       		.uleb128 0x1b
 15644 0135 13       		.uleb128 0x13
 15645 0136 01       		.byte	0x1
 15646 0137 03       		.uleb128 0x3
 15647 0138 0E       		.uleb128 0xe
 15648 0139 0B       		.uleb128 0xb
 15649 013a 0B       		.uleb128 0xb
 15650 013b 3A       		.uleb128 0x3a
 15651 013c 0B       		.uleb128 0xb
 15652 013d 3B       		.uleb128 0x3b
 15653 013e 05       		.uleb128 0x5
 15654 013f 01       		.uleb128 0x1
 15655 0140 13       		.uleb128 0x13
 15656 0141 00       		.byte	0
ARM GAS  C:\Users\Moi\AppData\Local\Temp\ccOzHcBd.s 			page 276


 15657 0142 00       		.byte	0
 15658 0143 1C       		.uleb128 0x1c
 15659 0144 13       		.uleb128 0x13
 15660 0145 01       		.byte	0x1
 15661 0146 0B       		.uleb128 0xb
 15662 0147 0B       		.uleb128 0xb
 15663 0148 3A       		.uleb128 0x3a
 15664 0149 0B       		.uleb128 0xb
 15665 014a 3B       		.uleb128 0x3b
 15666 014b 05       		.uleb128 0x5
 15667 014c 01       		.uleb128 0x1
 15668 014d 13       		.uleb128 0x13
 15669 014e 00       		.byte	0
 15670 014f 00       		.byte	0
 15671 0150 1D       		.uleb128 0x1d
 15672 0151 17       		.uleb128 0x17
 15673 0152 01       		.byte	0x1
 15674 0153 0B       		.uleb128 0xb
 15675 0154 0B       		.uleb128 0xb
 15676 0155 3A       		.uleb128 0x3a
 15677 0156 0B       		.uleb128 0xb
 15678 0157 3B       		.uleb128 0x3b
 15679 0158 05       		.uleb128 0x5
 15680 0159 01       		.uleb128 0x1
 15681 015a 13       		.uleb128 0x13
 15682 015b 00       		.byte	0
 15683 015c 00       		.byte	0
 15684 015d 1E       		.uleb128 0x1e
 15685 015e 0D       		.uleb128 0xd
 15686 015f 00       		.byte	0
 15687 0160 03       		.uleb128 0x3
 15688 0161 0E       		.uleb128 0xe
 15689 0162 3A       		.uleb128 0x3a
 15690 0163 0B       		.uleb128 0xb
 15691 0164 3B       		.uleb128 0x3b
 15692 0165 05       		.uleb128 0x5
 15693 0166 49       		.uleb128 0x49
 15694 0167 13       		.uleb128 0x13
 15695 0168 00       		.byte	0
 15696 0169 00       		.byte	0
 15697 016a 1F       		.uleb128 0x1f
 15698 016b 15       		.uleb128 0x15
 15699 016c 01       		.byte	0x1
 15700 016d 27       		.uleb128 0x27
 15701 016e 19       		.uleb128 0x19
 15702 016f 01       		.uleb128 0x1
 15703 0170 13       		.uleb128 0x13
 15704 0171 00       		.byte	0
 15705 0172 00       		.byte	0
 15706 0173 20       		.uleb128 0x20
 15707 0174 34       		.uleb128 0x34
 15708 0175 00       		.byte	0
 15709 0176 03       		.uleb128 0x3
 15710 0177 0E       		.uleb128 0xe
 15711 0178 3A       		.uleb128 0x3a
 15712 0179 0B       		.uleb128 0xb
 15713 017a 3B       		.uleb128 0x3b
ARM GAS  C:\Users\Moi\AppData\Local\Temp\ccOzHcBd.s 			page 277


 15714 017b 05       		.uleb128 0x5
 15715 017c 49       		.uleb128 0x49
 15716 017d 13       		.uleb128 0x13
 15717 017e 3F       		.uleb128 0x3f
 15718 017f 19       		.uleb128 0x19
 15719 0180 3C       		.uleb128 0x3c
 15720 0181 19       		.uleb128 0x19
 15721 0182 00       		.byte	0
 15722 0183 00       		.byte	0
 15723 0184 21       		.uleb128 0x21
 15724 0185 0D       		.uleb128 0xd
 15725 0186 00       		.byte	0
 15726 0187 03       		.uleb128 0x3
 15727 0188 08       		.uleb128 0x8
 15728 0189 3A       		.uleb128 0x3a
 15729 018a 0B       		.uleb128 0xb
 15730 018b 3B       		.uleb128 0x3b
 15731 018c 05       		.uleb128 0x5
 15732 018d 49       		.uleb128 0x49
 15733 018e 13       		.uleb128 0x13
 15734 018f 38       		.uleb128 0x38
 15735 0190 0B       		.uleb128 0xb
 15736 0191 00       		.byte	0
 15737 0192 00       		.byte	0
 15738 0193 22       		.uleb128 0x22
 15739 0194 0D       		.uleb128 0xd
 15740 0195 00       		.byte	0
 15741 0196 03       		.uleb128 0x3
 15742 0197 08       		.uleb128 0x8
 15743 0198 3A       		.uleb128 0x3a
 15744 0199 0B       		.uleb128 0xb
 15745 019a 3B       		.uleb128 0x3b
 15746 019b 05       		.uleb128 0x5
 15747 019c 49       		.uleb128 0x49
 15748 019d 13       		.uleb128 0x13
 15749 019e 38       		.uleb128 0x38
 15750 019f 05       		.uleb128 0x5
 15751 01a0 00       		.byte	0
 15752 01a1 00       		.byte	0
 15753 01a2 23       		.uleb128 0x23
 15754 01a3 34       		.uleb128 0x34
 15755 01a4 00       		.byte	0
 15756 01a5 03       		.uleb128 0x3
 15757 01a6 0E       		.uleb128 0xe
 15758 01a7 3A       		.uleb128 0x3a
 15759 01a8 0B       		.uleb128 0xb
 15760 01a9 3B       		.uleb128 0x3b
 15761 01aa 0B       		.uleb128 0xb
 15762 01ab 49       		.uleb128 0x49
 15763 01ac 13       		.uleb128 0x13
 15764 01ad 3F       		.uleb128 0x3f
 15765 01ae 19       		.uleb128 0x19
 15766 01af 3C       		.uleb128 0x3c
 15767 01b0 19       		.uleb128 0x19
 15768 01b1 00       		.byte	0
 15769 01b2 00       		.byte	0
 15770 01b3 24       		.uleb128 0x24
ARM GAS  C:\Users\Moi\AppData\Local\Temp\ccOzHcBd.s 			page 278


 15771 01b4 13       		.uleb128 0x13
 15772 01b5 01       		.byte	0x1
 15773 01b6 0B       		.uleb128 0xb
 15774 01b7 05       		.uleb128 0x5
 15775 01b8 3A       		.uleb128 0x3a
 15776 01b9 0B       		.uleb128 0xb
 15777 01ba 3B       		.uleb128 0x3b
 15778 01bb 05       		.uleb128 0x5
 15779 01bc 01       		.uleb128 0x1
 15780 01bd 13       		.uleb128 0x13
 15781 01be 00       		.byte	0
 15782 01bf 00       		.byte	0
 15783 01c0 25       		.uleb128 0x25
 15784 01c1 13       		.uleb128 0x13
 15785 01c2 01       		.byte	0x1
 15786 01c3 0B       		.uleb128 0xb
 15787 01c4 05       		.uleb128 0x5
 15788 01c5 3A       		.uleb128 0x3a
 15789 01c6 0B       		.uleb128 0xb
 15790 01c7 3B       		.uleb128 0x3b
 15791 01c8 0B       		.uleb128 0xb
 15792 01c9 01       		.uleb128 0x1
 15793 01ca 13       		.uleb128 0x13
 15794 01cb 00       		.byte	0
 15795 01cc 00       		.byte	0
 15796 01cd 26       		.uleb128 0x26
 15797 01ce 34       		.uleb128 0x34
 15798 01cf 00       		.byte	0
 15799 01d0 03       		.uleb128 0x3
 15800 01d1 08       		.uleb128 0x8
 15801 01d2 3A       		.uleb128 0x3a
 15802 01d3 0B       		.uleb128 0xb
 15803 01d4 3B       		.uleb128 0x3b
 15804 01d5 05       		.uleb128 0x5
 15805 01d6 49       		.uleb128 0x49
 15806 01d7 13       		.uleb128 0x13
 15807 01d8 3F       		.uleb128 0x3f
 15808 01d9 19       		.uleb128 0x19
 15809 01da 3C       		.uleb128 0x3c
 15810 01db 19       		.uleb128 0x19
 15811 01dc 00       		.byte	0
 15812 01dd 00       		.byte	0
 15813 01de 27       		.uleb128 0x27
 15814 01df 04       		.uleb128 0x4
 15815 01e0 01       		.byte	0x1
 15816 01e1 3E       		.uleb128 0x3e
 15817 01e2 0B       		.uleb128 0xb
 15818 01e3 0B       		.uleb128 0xb
 15819 01e4 0B       		.uleb128 0xb
 15820 01e5 49       		.uleb128 0x49
 15821 01e6 13       		.uleb128 0x13
 15822 01e7 3A       		.uleb128 0x3a
 15823 01e8 0B       		.uleb128 0xb
 15824 01e9 3B       		.uleb128 0x3b
 15825 01ea 0B       		.uleb128 0xb
 15826 01eb 01       		.uleb128 0x1
 15827 01ec 13       		.uleb128 0x13
ARM GAS  C:\Users\Moi\AppData\Local\Temp\ccOzHcBd.s 			page 279


 15828 01ed 00       		.byte	0
 15829 01ee 00       		.byte	0
 15830 01ef 28       		.uleb128 0x28
 15831 01f0 28       		.uleb128 0x28
 15832 01f1 00       		.byte	0
 15833 01f2 03       		.uleb128 0x3
 15834 01f3 0E       		.uleb128 0xe
 15835 01f4 1C       		.uleb128 0x1c
 15836 01f5 0B       		.uleb128 0xb
 15837 01f6 00       		.byte	0
 15838 01f7 00       		.byte	0
 15839 01f8 29       		.uleb128 0x29
 15840 01f9 0D       		.uleb128 0xd
 15841 01fa 00       		.byte	0
 15842 01fb 03       		.uleb128 0x3
 15843 01fc 08       		.uleb128 0x8
 15844 01fd 3A       		.uleb128 0x3a
 15845 01fe 0B       		.uleb128 0xb
 15846 01ff 3B       		.uleb128 0x3b
 15847 0200 0B       		.uleb128 0xb
 15848 0201 49       		.uleb128 0x49
 15849 0202 13       		.uleb128 0x13
 15850 0203 00       		.byte	0
 15851 0204 00       		.byte	0
 15852 0205 2A       		.uleb128 0x2a
 15853 0206 04       		.uleb128 0x4
 15854 0207 01       		.byte	0x1
 15855 0208 3E       		.uleb128 0x3e
 15856 0209 0B       		.uleb128 0xb
 15857 020a 0B       		.uleb128 0xb
 15858 020b 0B       		.uleb128 0xb
 15859 020c 49       		.uleb128 0x49
 15860 020d 13       		.uleb128 0x13
 15861 020e 3A       		.uleb128 0x3a
 15862 020f 0B       		.uleb128 0xb
 15863 0210 3B       		.uleb128 0x3b
 15864 0211 05       		.uleb128 0x5
 15865 0212 01       		.uleb128 0x1
 15866 0213 13       		.uleb128 0x13
 15867 0214 00       		.byte	0
 15868 0215 00       		.byte	0
 15869 0216 2B       		.uleb128 0x2b
 15870 0217 26       		.uleb128 0x26
 15871 0218 00       		.byte	0
 15872 0219 00       		.byte	0
 15873 021a 00       		.byte	0
 15874 021b 2C       		.uleb128 0x2c
 15875 021c 13       		.uleb128 0x13
 15876 021d 01       		.byte	0x1
 15877 021e 0B       		.uleb128 0xb
 15878 021f 06       		.uleb128 0x6
 15879 0220 3A       		.uleb128 0x3a
 15880 0221 0B       		.uleb128 0xb
 15881 0222 3B       		.uleb128 0x3b
 15882 0223 0B       		.uleb128 0xb
 15883 0224 01       		.uleb128 0x1
 15884 0225 13       		.uleb128 0x13
ARM GAS  C:\Users\Moi\AppData\Local\Temp\ccOzHcBd.s 			page 280


 15885 0226 00       		.byte	0
 15886 0227 00       		.byte	0
 15887 0228 2D       		.uleb128 0x2d
 15888 0229 0D       		.uleb128 0xd
 15889 022a 00       		.byte	0
 15890 022b 03       		.uleb128 0x3
 15891 022c 08       		.uleb128 0x8
 15892 022d 3A       		.uleb128 0x3a
 15893 022e 0B       		.uleb128 0xb
 15894 022f 3B       		.uleb128 0x3b
 15895 0230 0B       		.uleb128 0xb
 15896 0231 49       		.uleb128 0x49
 15897 0232 13       		.uleb128 0x13
 15898 0233 38       		.uleb128 0x38
 15899 0234 05       		.uleb128 0x5
 15900 0235 00       		.byte	0
 15901 0236 00       		.byte	0
 15902 0237 2E       		.uleb128 0x2e
 15903 0238 21       		.uleb128 0x21
 15904 0239 00       		.byte	0
 15905 023a 49       		.uleb128 0x49
 15906 023b 13       		.uleb128 0x13
 15907 023c 2F       		.uleb128 0x2f
 15908 023d 05       		.uleb128 0x5
 15909 023e 00       		.byte	0
 15910 023f 00       		.byte	0
 15911 0240 2F       		.uleb128 0x2f
 15912 0241 34       		.uleb128 0x34
 15913 0242 00       		.byte	0
 15914 0243 47       		.uleb128 0x47
 15915 0244 13       		.uleb128 0x13
 15916 0245 3A       		.uleb128 0x3a
 15917 0246 0B       		.uleb128 0xb
 15918 0247 3B       		.uleb128 0x3b
 15919 0248 0B       		.uleb128 0xb
 15920 0249 02       		.uleb128 0x2
 15921 024a 18       		.uleb128 0x18
 15922 024b 00       		.byte	0
 15923 024c 00       		.byte	0
 15924 024d 30       		.uleb128 0x30
 15925 024e 34       		.uleb128 0x34
 15926 024f 00       		.byte	0
 15927 0250 03       		.uleb128 0x3
 15928 0251 0E       		.uleb128 0xe
 15929 0252 3A       		.uleb128 0x3a
 15930 0253 0B       		.uleb128 0xb
 15931 0254 3B       		.uleb128 0x3b
 15932 0255 0B       		.uleb128 0xb
 15933 0256 49       		.uleb128 0x49
 15934 0257 13       		.uleb128 0x13
 15935 0258 02       		.uleb128 0x2
 15936 0259 18       		.uleb128 0x18
 15937 025a 00       		.byte	0
 15938 025b 00       		.byte	0
 15939 025c 31       		.uleb128 0x31
 15940 025d 2E       		.uleb128 0x2e
 15941 025e 01       		.byte	0x1
ARM GAS  C:\Users\Moi\AppData\Local\Temp\ccOzHcBd.s 			page 281


 15942 025f 3F       		.uleb128 0x3f
 15943 0260 19       		.uleb128 0x19
 15944 0261 03       		.uleb128 0x3
 15945 0262 0E       		.uleb128 0xe
 15946 0263 3A       		.uleb128 0x3a
 15947 0264 0B       		.uleb128 0xb
 15948 0265 3B       		.uleb128 0x3b
 15949 0266 05       		.uleb128 0x5
 15950 0267 27       		.uleb128 0x27
 15951 0268 19       		.uleb128 0x19
 15952 0269 11       		.uleb128 0x11
 15953 026a 01       		.uleb128 0x1
 15954 026b 12       		.uleb128 0x12
 15955 026c 06       		.uleb128 0x6
 15956 026d 40       		.uleb128 0x40
 15957 026e 18       		.uleb128 0x18
 15958 026f 9742     		.uleb128 0x2117
 15959 0271 19       		.uleb128 0x19
 15960 0272 01       		.uleb128 0x1
 15961 0273 13       		.uleb128 0x13
 15962 0274 00       		.byte	0
 15963 0275 00       		.byte	0
 15964 0276 32       		.uleb128 0x32
 15965 0277 05       		.uleb128 0x5
 15966 0278 00       		.byte	0
 15967 0279 03       		.uleb128 0x3
 15968 027a 08       		.uleb128 0x8
 15969 027b 3A       		.uleb128 0x3a
 15970 027c 0B       		.uleb128 0xb
 15971 027d 3B       		.uleb128 0x3b
 15972 027e 05       		.uleb128 0x5
 15973 027f 49       		.uleb128 0x49
 15974 0280 13       		.uleb128 0x13
 15975 0281 02       		.uleb128 0x2
 15976 0282 17       		.uleb128 0x17
 15977 0283 00       		.byte	0
 15978 0284 00       		.byte	0
 15979 0285 33       		.uleb128 0x33
 15980 0286 34       		.uleb128 0x34
 15981 0287 00       		.byte	0
 15982 0288 03       		.uleb128 0x3
 15983 0289 0E       		.uleb128 0xe
 15984 028a 3A       		.uleb128 0x3a
 15985 028b 0B       		.uleb128 0xb
 15986 028c 3B       		.uleb128 0x3b
 15987 028d 05       		.uleb128 0x5
 15988 028e 49       		.uleb128 0x49
 15989 028f 13       		.uleb128 0x13
 15990 0290 02       		.uleb128 0x2
 15991 0291 17       		.uleb128 0x17
 15992 0292 00       		.byte	0
 15993 0293 00       		.byte	0
 15994 0294 34       		.uleb128 0x34
 15995 0295 0B       		.uleb128 0xb
 15996 0296 01       		.byte	0x1
 15997 0297 11       		.uleb128 0x11
 15998 0298 01       		.uleb128 0x1
ARM GAS  C:\Users\Moi\AppData\Local\Temp\ccOzHcBd.s 			page 282


 15999 0299 12       		.uleb128 0x12
 16000 029a 06       		.uleb128 0x6
 16001 029b 01       		.uleb128 0x1
 16002 029c 13       		.uleb128 0x13
 16003 029d 00       		.byte	0
 16004 029e 00       		.byte	0
 16005 029f 35       		.uleb128 0x35
 16006 02a0 34       		.uleb128 0x34
 16007 02a1 00       		.byte	0
 16008 02a2 03       		.uleb128 0x3
 16009 02a3 08       		.uleb128 0x8
 16010 02a4 3A       		.uleb128 0x3a
 16011 02a5 0B       		.uleb128 0xb
 16012 02a6 3B       		.uleb128 0x3b
 16013 02a7 05       		.uleb128 0x5
 16014 02a8 49       		.uleb128 0x49
 16015 02a9 13       		.uleb128 0x13
 16016 02aa 02       		.uleb128 0x2
 16017 02ab 17       		.uleb128 0x17
 16018 02ac 00       		.byte	0
 16019 02ad 00       		.byte	0
 16020 02ae 36       		.uleb128 0x36
 16021 02af 34       		.uleb128 0x34
 16022 02b0 00       		.byte	0
 16023 02b1 03       		.uleb128 0x3
 16024 02b2 0E       		.uleb128 0xe
 16025 02b3 3A       		.uleb128 0x3a
 16026 02b4 0B       		.uleb128 0xb
 16027 02b5 3B       		.uleb128 0x3b
 16028 02b6 05       		.uleb128 0x5
 16029 02b7 49       		.uleb128 0x49
 16030 02b8 13       		.uleb128 0x13
 16031 02b9 00       		.byte	0
 16032 02ba 00       		.byte	0
 16033 02bb 37       		.uleb128 0x37
 16034 02bc 1D       		.uleb128 0x1d
 16035 02bd 01       		.byte	0x1
 16036 02be 31       		.uleb128 0x31
 16037 02bf 13       		.uleb128 0x13
 16038 02c0 11       		.uleb128 0x11
 16039 02c1 01       		.uleb128 0x1
 16040 02c2 12       		.uleb128 0x12
 16041 02c3 06       		.uleb128 0x6
 16042 02c4 58       		.uleb128 0x58
 16043 02c5 0B       		.uleb128 0xb
 16044 02c6 59       		.uleb128 0x59
 16045 02c7 05       		.uleb128 0x5
 16046 02c8 01       		.uleb128 0x1
 16047 02c9 13       		.uleb128 0x13
 16048 02ca 00       		.byte	0
 16049 02cb 00       		.byte	0
 16050 02cc 38       		.uleb128 0x38
 16051 02cd 1D       		.uleb128 0x1d
 16052 02ce 01       		.byte	0x1
 16053 02cf 31       		.uleb128 0x31
 16054 02d0 13       		.uleb128 0x13
 16055 02d1 11       		.uleb128 0x11
ARM GAS  C:\Users\Moi\AppData\Local\Temp\ccOzHcBd.s 			page 283


 16056 02d2 01       		.uleb128 0x1
 16057 02d3 12       		.uleb128 0x12
 16058 02d4 06       		.uleb128 0x6
 16059 02d5 58       		.uleb128 0x58
 16060 02d6 0B       		.uleb128 0xb
 16061 02d7 59       		.uleb128 0x59
 16062 02d8 05       		.uleb128 0x5
 16063 02d9 00       		.byte	0
 16064 02da 00       		.byte	0
 16065 02db 39       		.uleb128 0x39
 16066 02dc 05       		.uleb128 0x5
 16067 02dd 00       		.byte	0
 16068 02de 31       		.uleb128 0x31
 16069 02df 13       		.uleb128 0x13
 16070 02e0 02       		.uleb128 0x2
 16071 02e1 17       		.uleb128 0x17
 16072 02e2 00       		.byte	0
 16073 02e3 00       		.byte	0
 16074 02e4 3A       		.uleb128 0x3a
 16075 02e5 898201   		.uleb128 0x4109
 16076 02e8 00       		.byte	0
 16077 02e9 11       		.uleb128 0x11
 16078 02ea 01       		.uleb128 0x1
 16079 02eb 31       		.uleb128 0x31
 16080 02ec 13       		.uleb128 0x13
 16081 02ed 00       		.byte	0
 16082 02ee 00       		.byte	0
 16083 02ef 3B       		.uleb128 0x3b
 16084 02f0 0B       		.uleb128 0xb
 16085 02f1 01       		.byte	0x1
 16086 02f2 11       		.uleb128 0x11
 16087 02f3 01       		.uleb128 0x1
 16088 02f4 12       		.uleb128 0x12
 16089 02f5 06       		.uleb128 0x6
 16090 02f6 00       		.byte	0
 16091 02f7 00       		.byte	0
 16092 02f8 3C       		.uleb128 0x3c
 16093 02f9 34       		.uleb128 0x34
 16094 02fa 00       		.byte	0
 16095 02fb 31       		.uleb128 0x31
 16096 02fc 13       		.uleb128 0x13
 16097 02fd 00       		.byte	0
 16098 02fe 00       		.byte	0
 16099 02ff 3D       		.uleb128 0x3d
 16100 0300 898201   		.uleb128 0x4109
 16101 0303 01       		.byte	0x1
 16102 0304 11       		.uleb128 0x11
 16103 0305 01       		.uleb128 0x1
 16104 0306 31       		.uleb128 0x31
 16105 0307 13       		.uleb128 0x13
 16106 0308 00       		.byte	0
 16107 0309 00       		.byte	0
 16108 030a 3E       		.uleb128 0x3e
 16109 030b 8A8201   		.uleb128 0x410a
 16110 030e 00       		.byte	0
 16111 030f 02       		.uleb128 0x2
 16112 0310 18       		.uleb128 0x18
ARM GAS  C:\Users\Moi\AppData\Local\Temp\ccOzHcBd.s 			page 284


 16113 0311 9142     		.uleb128 0x2111
 16114 0313 18       		.uleb128 0x18
 16115 0314 00       		.byte	0
 16116 0315 00       		.byte	0
 16117 0316 3F       		.uleb128 0x3f
 16118 0317 1D       		.uleb128 0x1d
 16119 0318 01       		.byte	0x1
 16120 0319 31       		.uleb128 0x31
 16121 031a 13       		.uleb128 0x13
 16122 031b 52       		.uleb128 0x52
 16123 031c 01       		.uleb128 0x1
 16124 031d 55       		.uleb128 0x55
 16125 031e 17       		.uleb128 0x17
 16126 031f 58       		.uleb128 0x58
 16127 0320 0B       		.uleb128 0xb
 16128 0321 59       		.uleb128 0x59
 16129 0322 05       		.uleb128 0x5
 16130 0323 01       		.uleb128 0x1
 16131 0324 13       		.uleb128 0x13
 16132 0325 00       		.byte	0
 16133 0326 00       		.byte	0
 16134 0327 40       		.uleb128 0x40
 16135 0328 05       		.uleb128 0x5
 16136 0329 00       		.byte	0
 16137 032a 31       		.uleb128 0x31
 16138 032b 13       		.uleb128 0x13
 16139 032c 00       		.byte	0
 16140 032d 00       		.byte	0
 16141 032e 41       		.uleb128 0x41
 16142 032f 0B       		.uleb128 0xb
 16143 0330 01       		.byte	0x1
 16144 0331 31       		.uleb128 0x31
 16145 0332 13       		.uleb128 0x13
 16146 0333 55       		.uleb128 0x55
 16147 0334 17       		.uleb128 0x17
 16148 0335 00       		.byte	0
 16149 0336 00       		.byte	0
 16150 0337 42       		.uleb128 0x42
 16151 0338 34       		.uleb128 0x34
 16152 0339 00       		.byte	0
 16153 033a 31       		.uleb128 0x31
 16154 033b 13       		.uleb128 0x13
 16155 033c 02       		.uleb128 0x2
 16156 033d 17       		.uleb128 0x17
 16157 033e 00       		.byte	0
 16158 033f 00       		.byte	0
 16159 0340 43       		.uleb128 0x43
 16160 0341 0B       		.uleb128 0xb
 16161 0342 01       		.byte	0x1
 16162 0343 55       		.uleb128 0x55
 16163 0344 17       		.uleb128 0x17
 16164 0345 00       		.byte	0
 16165 0346 00       		.byte	0
 16166 0347 44       		.uleb128 0x44
 16167 0348 0B       		.uleb128 0xb
 16168 0349 01       		.byte	0x1
 16169 034a 31       		.uleb128 0x31
ARM GAS  C:\Users\Moi\AppData\Local\Temp\ccOzHcBd.s 			page 285


 16170 034b 13       		.uleb128 0x13
 16171 034c 55       		.uleb128 0x55
 16172 034d 17       		.uleb128 0x17
 16173 034e 01       		.uleb128 0x1
 16174 034f 13       		.uleb128 0x13
 16175 0350 00       		.byte	0
 16176 0351 00       		.byte	0
 16177 0352 45       		.uleb128 0x45
 16178 0353 1D       		.uleb128 0x1d
 16179 0354 01       		.byte	0x1
 16180 0355 31       		.uleb128 0x31
 16181 0356 13       		.uleb128 0x13
 16182 0357 52       		.uleb128 0x52
 16183 0358 01       		.uleb128 0x1
 16184 0359 55       		.uleb128 0x55
 16185 035a 17       		.uleb128 0x17
 16186 035b 58       		.uleb128 0x58
 16187 035c 0B       		.uleb128 0xb
 16188 035d 59       		.uleb128 0x59
 16189 035e 05       		.uleb128 0x5
 16190 035f 00       		.byte	0
 16191 0360 00       		.byte	0
 16192 0361 46       		.uleb128 0x46
 16193 0362 0B       		.uleb128 0xb
 16194 0363 01       		.byte	0x1
 16195 0364 31       		.uleb128 0x31
 16196 0365 13       		.uleb128 0x13
 16197 0366 11       		.uleb128 0x11
 16198 0367 01       		.uleb128 0x1
 16199 0368 12       		.uleb128 0x12
 16200 0369 06       		.uleb128 0x6
 16201 036a 01       		.uleb128 0x1
 16202 036b 13       		.uleb128 0x13
 16203 036c 00       		.byte	0
 16204 036d 00       		.byte	0
 16205 036e 47       		.uleb128 0x47
 16206 036f 0B       		.uleb128 0xb
 16207 0370 01       		.byte	0x1
 16208 0371 31       		.uleb128 0x31
 16209 0372 13       		.uleb128 0x13
 16210 0373 11       		.uleb128 0x11
 16211 0374 01       		.uleb128 0x1
 16212 0375 12       		.uleb128 0x12
 16213 0376 06       		.uleb128 0x6
 16214 0377 00       		.byte	0
 16215 0378 00       		.byte	0
 16216 0379 48       		.uleb128 0x48
 16217 037a 05       		.uleb128 0x5
 16218 037b 00       		.byte	0
 16219 037c 03       		.uleb128 0x3
 16220 037d 0E       		.uleb128 0xe
 16221 037e 3A       		.uleb128 0x3a
 16222 037f 0B       		.uleb128 0xb
 16223 0380 3B       		.uleb128 0x3b
 16224 0381 05       		.uleb128 0x5
 16225 0382 49       		.uleb128 0x49
 16226 0383 13       		.uleb128 0x13
ARM GAS  C:\Users\Moi\AppData\Local\Temp\ccOzHcBd.s 			page 286


 16227 0384 02       		.uleb128 0x2
 16228 0385 17       		.uleb128 0x17
 16229 0386 00       		.byte	0
 16230 0387 00       		.byte	0
 16231 0388 49       		.uleb128 0x49
 16232 0389 2E       		.uleb128 0x2e
 16233 038a 01       		.byte	0x1
 16234 038b 3F       		.uleb128 0x3f
 16235 038c 19       		.uleb128 0x19
 16236 038d 03       		.uleb128 0x3
 16237 038e 0E       		.uleb128 0xe
 16238 038f 3A       		.uleb128 0x3a
 16239 0390 0B       		.uleb128 0xb
 16240 0391 3B       		.uleb128 0x3b
 16241 0392 05       		.uleb128 0x5
 16242 0393 27       		.uleb128 0x27
 16243 0394 19       		.uleb128 0x19
 16244 0395 20       		.uleb128 0x20
 16245 0396 0B       		.uleb128 0xb
 16246 0397 01       		.uleb128 0x1
 16247 0398 13       		.uleb128 0x13
 16248 0399 00       		.byte	0
 16249 039a 00       		.byte	0
 16250 039b 4A       		.uleb128 0x4a
 16251 039c 05       		.uleb128 0x5
 16252 039d 00       		.byte	0
 16253 039e 03       		.uleb128 0x3
 16254 039f 0E       		.uleb128 0xe
 16255 03a0 3A       		.uleb128 0x3a
 16256 03a1 0B       		.uleb128 0xb
 16257 03a2 3B       		.uleb128 0x3b
 16258 03a3 05       		.uleb128 0x5
 16259 03a4 49       		.uleb128 0x49
 16260 03a5 13       		.uleb128 0x13
 16261 03a6 00       		.byte	0
 16262 03a7 00       		.byte	0
 16263 03a8 4B       		.uleb128 0x4b
 16264 03a9 05       		.uleb128 0x5
 16265 03aa 00       		.byte	0
 16266 03ab 03       		.uleb128 0x3
 16267 03ac 08       		.uleb128 0x8
 16268 03ad 3A       		.uleb128 0x3a
 16269 03ae 0B       		.uleb128 0xb
 16270 03af 3B       		.uleb128 0x3b
 16271 03b0 05       		.uleb128 0x5
 16272 03b1 49       		.uleb128 0x49
 16273 03b2 13       		.uleb128 0x13
 16274 03b3 00       		.byte	0
 16275 03b4 00       		.byte	0
 16276 03b5 4C       		.uleb128 0x4c
 16277 03b6 34       		.uleb128 0x34
 16278 03b7 00       		.byte	0
 16279 03b8 03       		.uleb128 0x3
 16280 03b9 08       		.uleb128 0x8
 16281 03ba 3A       		.uleb128 0x3a
 16282 03bb 0B       		.uleb128 0xb
 16283 03bc 3B       		.uleb128 0x3b
ARM GAS  C:\Users\Moi\AppData\Local\Temp\ccOzHcBd.s 			page 287


 16284 03bd 05       		.uleb128 0x5
 16285 03be 49       		.uleb128 0x49
 16286 03bf 13       		.uleb128 0x13
 16287 03c0 02       		.uleb128 0x2
 16288 03c1 18       		.uleb128 0x18
 16289 03c2 00       		.byte	0
 16290 03c3 00       		.byte	0
 16291 03c4 4D       		.uleb128 0x4d
 16292 03c5 0B       		.uleb128 0xb
 16293 03c6 01       		.byte	0x1
 16294 03c7 55       		.uleb128 0x55
 16295 03c8 17       		.uleb128 0x17
 16296 03c9 01       		.uleb128 0x1
 16297 03ca 13       		.uleb128 0x13
 16298 03cb 00       		.byte	0
 16299 03cc 00       		.byte	0
 16300 03cd 4E       		.uleb128 0x4e
 16301 03ce 2E       		.uleb128 0x2e
 16302 03cf 01       		.byte	0x1
 16303 03d0 3F       		.uleb128 0x3f
 16304 03d1 19       		.uleb128 0x19
 16305 03d2 03       		.uleb128 0x3
 16306 03d3 0E       		.uleb128 0xe
 16307 03d4 3A       		.uleb128 0x3a
 16308 03d5 0B       		.uleb128 0xb
 16309 03d6 3B       		.uleb128 0x3b
 16310 03d7 05       		.uleb128 0x5
 16311 03d8 27       		.uleb128 0x27
 16312 03d9 19       		.uleb128 0x19
 16313 03da 49       		.uleb128 0x49
 16314 03db 13       		.uleb128 0x13
 16315 03dc 11       		.uleb128 0x11
 16316 03dd 01       		.uleb128 0x1
 16317 03de 12       		.uleb128 0x12
 16318 03df 06       		.uleb128 0x6
 16319 03e0 40       		.uleb128 0x40
 16320 03e1 18       		.uleb128 0x18
 16321 03e2 9742     		.uleb128 0x2117
 16322 03e4 19       		.uleb128 0x19
 16323 03e5 01       		.uleb128 0x1
 16324 03e6 13       		.uleb128 0x13
 16325 03e7 00       		.byte	0
 16326 03e8 00       		.byte	0
 16327 03e9 4F       		.uleb128 0x4f
 16328 03ea 898201   		.uleb128 0x4109
 16329 03ed 01       		.byte	0x1
 16330 03ee 11       		.uleb128 0x11
 16331 03ef 01       		.uleb128 0x1
 16332 03f0 9542     		.uleb128 0x2115
 16333 03f2 19       		.uleb128 0x19
 16334 03f3 31       		.uleb128 0x31
 16335 03f4 13       		.uleb128 0x13
 16336 03f5 01       		.uleb128 0x1
 16337 03f6 13       		.uleb128 0x13
 16338 03f7 00       		.byte	0
 16339 03f8 00       		.byte	0
 16340 03f9 50       		.uleb128 0x50
ARM GAS  C:\Users\Moi\AppData\Local\Temp\ccOzHcBd.s 			page 288


 16341 03fa 8A8201   		.uleb128 0x410a
 16342 03fd 00       		.byte	0
 16343 03fe 31       		.uleb128 0x31
 16344 03ff 13       		.uleb128 0x13
 16345 0400 9142     		.uleb128 0x2111
 16346 0402 18       		.uleb128 0x18
 16347 0403 00       		.byte	0
 16348 0404 00       		.byte	0
 16349 0405 51       		.uleb128 0x51
 16350 0406 1D       		.uleb128 0x1d
 16351 0407 01       		.byte	0x1
 16352 0408 31       		.uleb128 0x31
 16353 0409 13       		.uleb128 0x13
 16354 040a 11       		.uleb128 0x11
 16355 040b 01       		.uleb128 0x1
 16356 040c 12       		.uleb128 0x12
 16357 040d 06       		.uleb128 0x6
 16358 040e 58       		.uleb128 0x58
 16359 040f 0B       		.uleb128 0xb
 16360 0410 59       		.uleb128 0x59
 16361 0411 0B       		.uleb128 0xb
 16362 0412 00       		.byte	0
 16363 0413 00       		.byte	0
 16364 0414 52       		.uleb128 0x52
 16365 0415 34       		.uleb128 0x34
 16366 0416 00       		.byte	0
 16367 0417 03       		.uleb128 0x3
 16368 0418 0E       		.uleb128 0xe
 16369 0419 3A       		.uleb128 0x3a
 16370 041a 0B       		.uleb128 0xb
 16371 041b 3B       		.uleb128 0x3b
 16372 041c 05       		.uleb128 0x5
 16373 041d 49       		.uleb128 0x49
 16374 041e 13       		.uleb128 0x13
 16375 041f 02       		.uleb128 0x2
 16376 0420 18       		.uleb128 0x18
 16377 0421 00       		.byte	0
 16378 0422 00       		.byte	0
 16379 0423 53       		.uleb128 0x53
 16380 0424 05       		.uleb128 0x5
 16381 0425 00       		.byte	0
 16382 0426 31       		.uleb128 0x31
 16383 0427 13       		.uleb128 0x13
 16384 0428 02       		.uleb128 0x2
 16385 0429 18       		.uleb128 0x18
 16386 042a 00       		.byte	0
 16387 042b 00       		.byte	0
 16388 042c 54       		.uleb128 0x54
 16389 042d 898201   		.uleb128 0x4109
 16390 0430 01       		.byte	0x1
 16391 0431 11       		.uleb128 0x11
 16392 0432 01       		.uleb128 0x1
 16393 0433 31       		.uleb128 0x31
 16394 0434 13       		.uleb128 0x13
 16395 0435 01       		.uleb128 0x1
 16396 0436 13       		.uleb128 0x13
 16397 0437 00       		.byte	0
ARM GAS  C:\Users\Moi\AppData\Local\Temp\ccOzHcBd.s 			page 289


 16398 0438 00       		.byte	0
 16399 0439 55       		.uleb128 0x55
 16400 043a 1D       		.uleb128 0x1d
 16401 043b 01       		.byte	0x1
 16402 043c 31       		.uleb128 0x31
 16403 043d 13       		.uleb128 0x13
 16404 043e 52       		.uleb128 0x52
 16405 043f 01       		.uleb128 0x1
 16406 0440 55       		.uleb128 0x55
 16407 0441 17       		.uleb128 0x17
 16408 0442 58       		.uleb128 0x58
 16409 0443 0B       		.uleb128 0xb
 16410 0444 59       		.uleb128 0x59
 16411 0445 0B       		.uleb128 0xb
 16412 0446 01       		.uleb128 0x1
 16413 0447 13       		.uleb128 0x13
 16414 0448 00       		.byte	0
 16415 0449 00       		.byte	0
 16416 044a 56       		.uleb128 0x56
 16417 044b 898201   		.uleb128 0x4109
 16418 044e 01       		.byte	0x1
 16419 044f 11       		.uleb128 0x11
 16420 0450 01       		.uleb128 0x1
 16421 0451 01       		.uleb128 0x1
 16422 0452 13       		.uleb128 0x13
 16423 0453 00       		.byte	0
 16424 0454 00       		.byte	0
 16425 0455 57       		.uleb128 0x57
 16426 0456 898201   		.uleb128 0x4109
 16427 0459 00       		.byte	0
 16428 045a 11       		.uleb128 0x11
 16429 045b 01       		.uleb128 0x1
 16430 045c 9542     		.uleb128 0x2115
 16431 045e 19       		.uleb128 0x19
 16432 045f 31       		.uleb128 0x31
 16433 0460 13       		.uleb128 0x13
 16434 0461 00       		.byte	0
 16435 0462 00       		.byte	0
 16436 0463 58       		.uleb128 0x58
 16437 0464 2E       		.uleb128 0x2e
 16438 0465 01       		.byte	0x1
 16439 0466 03       		.uleb128 0x3
 16440 0467 0E       		.uleb128 0xe
 16441 0468 3A       		.uleb128 0x3a
 16442 0469 0B       		.uleb128 0xb
 16443 046a 3B       		.uleb128 0x3b
 16444 046b 05       		.uleb128 0x5
 16445 046c 27       		.uleb128 0x27
 16446 046d 19       		.uleb128 0x19
 16447 046e 20       		.uleb128 0x20
 16448 046f 0B       		.uleb128 0xb
 16449 0470 01       		.uleb128 0x1
 16450 0471 13       		.uleb128 0x13
 16451 0472 00       		.byte	0
 16452 0473 00       		.byte	0
 16453 0474 59       		.uleb128 0x59
 16454 0475 34       		.uleb128 0x34
ARM GAS  C:\Users\Moi\AppData\Local\Temp\ccOzHcBd.s 			page 290


 16455 0476 00       		.byte	0
 16456 0477 03       		.uleb128 0x3
 16457 0478 08       		.uleb128 0x8
 16458 0479 3A       		.uleb128 0x3a
 16459 047a 0B       		.uleb128 0xb
 16460 047b 3B       		.uleb128 0x3b
 16461 047c 05       		.uleb128 0x5
 16462 047d 49       		.uleb128 0x49
 16463 047e 13       		.uleb128 0x13
 16464 047f 00       		.byte	0
 16465 0480 00       		.byte	0
 16466 0481 5A       		.uleb128 0x5a
 16467 0482 0B       		.uleb128 0xb
 16468 0483 01       		.byte	0x1
 16469 0484 00       		.byte	0
 16470 0485 00       		.byte	0
 16471 0486 5B       		.uleb128 0x5b
 16472 0487 2E       		.uleb128 0x2e
 16473 0488 01       		.byte	0x1
 16474 0489 03       		.uleb128 0x3
 16475 048a 0E       		.uleb128 0xe
 16476 048b 3A       		.uleb128 0x3a
 16477 048c 0B       		.uleb128 0xb
 16478 048d 3B       		.uleb128 0x3b
 16479 048e 05       		.uleb128 0x5
 16480 048f 27       		.uleb128 0x27
 16481 0490 19       		.uleb128 0x19
 16482 0491 49       		.uleb128 0x49
 16483 0492 13       		.uleb128 0x13
 16484 0493 20       		.uleb128 0x20
 16485 0494 0B       		.uleb128 0xb
 16486 0495 01       		.uleb128 0x1
 16487 0496 13       		.uleb128 0x13
 16488 0497 00       		.byte	0
 16489 0498 00       		.byte	0
 16490 0499 5C       		.uleb128 0x5c
 16491 049a 2E       		.uleb128 0x2e
 16492 049b 01       		.byte	0x1
 16493 049c 03       		.uleb128 0x3
 16494 049d 0E       		.uleb128 0xe
 16495 049e 3A       		.uleb128 0x3a
 16496 049f 0B       		.uleb128 0xb
 16497 04a0 3B       		.uleb128 0x3b
 16498 04a1 0B       		.uleb128 0xb
 16499 04a2 27       		.uleb128 0x27
 16500 04a3 19       		.uleb128 0x19
 16501 04a4 20       		.uleb128 0x20
 16502 04a5 0B       		.uleb128 0xb
 16503 04a6 01       		.uleb128 0x1
 16504 04a7 13       		.uleb128 0x13
 16505 04a8 00       		.byte	0
 16506 04a9 00       		.byte	0
 16507 04aa 5D       		.uleb128 0x5d
 16508 04ab 05       		.uleb128 0x5
 16509 04ac 00       		.byte	0
 16510 04ad 03       		.uleb128 0x3
 16511 04ae 0E       		.uleb128 0xe
ARM GAS  C:\Users\Moi\AppData\Local\Temp\ccOzHcBd.s 			page 291


 16512 04af 3A       		.uleb128 0x3a
 16513 04b0 0B       		.uleb128 0xb
 16514 04b1 3B       		.uleb128 0x3b
 16515 04b2 0B       		.uleb128 0xb
 16516 04b3 49       		.uleb128 0x49
 16517 04b4 13       		.uleb128 0x13
 16518 04b5 00       		.byte	0
 16519 04b6 00       		.byte	0
 16520 04b7 5E       		.uleb128 0x5e
 16521 04b8 05       		.uleb128 0x5
 16522 04b9 00       		.byte	0
 16523 04ba 03       		.uleb128 0x3
 16524 04bb 08       		.uleb128 0x8
 16525 04bc 3A       		.uleb128 0x3a
 16526 04bd 0B       		.uleb128 0xb
 16527 04be 3B       		.uleb128 0x3b
 16528 04bf 0B       		.uleb128 0xb
 16529 04c0 49       		.uleb128 0x49
 16530 04c1 13       		.uleb128 0x13
 16531 04c2 00       		.byte	0
 16532 04c3 00       		.byte	0
 16533 04c4 5F       		.uleb128 0x5f
 16534 04c5 2E       		.uleb128 0x2e
 16535 04c6 01       		.byte	0x1
 16536 04c7 03       		.uleb128 0x3
 16537 04c8 0E       		.uleb128 0xe
 16538 04c9 3A       		.uleb128 0x3a
 16539 04ca 0B       		.uleb128 0xb
 16540 04cb 3B       		.uleb128 0x3b
 16541 04cc 0B       		.uleb128 0xb
 16542 04cd 27       		.uleb128 0x27
 16543 04ce 19       		.uleb128 0x19
 16544 04cf 49       		.uleb128 0x49
 16545 04d0 13       		.uleb128 0x13
 16546 04d1 20       		.uleb128 0x20
 16547 04d2 0B       		.uleb128 0xb
 16548 04d3 01       		.uleb128 0x1
 16549 04d4 13       		.uleb128 0x13
 16550 04d5 00       		.byte	0
 16551 04d6 00       		.byte	0
 16552 04d7 60       		.uleb128 0x60
 16553 04d8 34       		.uleb128 0x34
 16554 04d9 00       		.byte	0
 16555 04da 03       		.uleb128 0x3
 16556 04db 0E       		.uleb128 0xe
 16557 04dc 3A       		.uleb128 0x3a
 16558 04dd 0B       		.uleb128 0xb
 16559 04de 3B       		.uleb128 0x3b
 16560 04df 0B       		.uleb128 0xb
 16561 04e0 49       		.uleb128 0x49
 16562 04e1 13       		.uleb128 0x13
 16563 04e2 00       		.byte	0
 16564 04e3 00       		.byte	0
 16565 04e4 61       		.uleb128 0x61
 16566 04e5 34       		.uleb128 0x34
 16567 04e6 00       		.byte	0
 16568 04e7 03       		.uleb128 0x3
ARM GAS  C:\Users\Moi\AppData\Local\Temp\ccOzHcBd.s 			page 292


 16569 04e8 0E       		.uleb128 0xe
 16570 04e9 49       		.uleb128 0x49
 16571 04ea 13       		.uleb128 0x13
 16572 04eb 34       		.uleb128 0x34
 16573 04ec 19       		.uleb128 0x19
 16574 04ed 1C       		.uleb128 0x1c
 16575 04ee 0E       		.uleb128 0xe
 16576 04ef 00       		.byte	0
 16577 04f0 00       		.byte	0
 16578 04f1 62       		.uleb128 0x62
 16579 04f2 34       		.uleb128 0x34
 16580 04f3 00       		.byte	0
 16581 04f4 03       		.uleb128 0x3
 16582 04f5 08       		.uleb128 0x8
 16583 04f6 3A       		.uleb128 0x3a
 16584 04f7 0B       		.uleb128 0xb
 16585 04f8 3B       		.uleb128 0x3b
 16586 04f9 0B       		.uleb128 0xb
 16587 04fa 49       		.uleb128 0x49
 16588 04fb 13       		.uleb128 0x13
 16589 04fc 00       		.byte	0
 16590 04fd 00       		.byte	0
 16591 04fe 63       		.uleb128 0x63
 16592 04ff 2E       		.uleb128 0x2e
 16593 0500 00       		.byte	0
 16594 0501 03       		.uleb128 0x3
 16595 0502 0E       		.uleb128 0xe
 16596 0503 3A       		.uleb128 0x3a
 16597 0504 0B       		.uleb128 0xb
 16598 0505 3B       		.uleb128 0x3b
 16599 0506 05       		.uleb128 0x5
 16600 0507 27       		.uleb128 0x27
 16601 0508 19       		.uleb128 0x19
 16602 0509 20       		.uleb128 0x20
 16603 050a 0B       		.uleb128 0xb
 16604 050b 00       		.byte	0
 16605 050c 00       		.byte	0
 16606 050d 64       		.uleb128 0x64
 16607 050e 2E       		.uleb128 0x2e
 16608 050f 01       		.byte	0x1
 16609 0510 31       		.uleb128 0x31
 16610 0511 13       		.uleb128 0x13
 16611 0512 11       		.uleb128 0x11
 16612 0513 01       		.uleb128 0x1
 16613 0514 12       		.uleb128 0x12
 16614 0515 06       		.uleb128 0x6
 16615 0516 40       		.uleb128 0x40
 16616 0517 18       		.uleb128 0x18
 16617 0518 9742     		.uleb128 0x2117
 16618 051a 19       		.uleb128 0x19
 16619 051b 01       		.uleb128 0x1
 16620 051c 13       		.uleb128 0x13
 16621 051d 00       		.byte	0
 16622 051e 00       		.byte	0
 16623 051f 65       		.uleb128 0x65
 16624 0520 898201   		.uleb128 0x4109
 16625 0523 01       		.byte	0x1
ARM GAS  C:\Users\Moi\AppData\Local\Temp\ccOzHcBd.s 			page 293


 16626 0524 11       		.uleb128 0x11
 16627 0525 01       		.uleb128 0x1
 16628 0526 9542     		.uleb128 0x2115
 16629 0528 19       		.uleb128 0x19
 16630 0529 01       		.uleb128 0x1
 16631 052a 13       		.uleb128 0x13
 16632 052b 00       		.byte	0
 16633 052c 00       		.byte	0
 16634 052d 66       		.uleb128 0x66
 16635 052e 34       		.uleb128 0x34
 16636 052f 00       		.byte	0
 16637 0530 31       		.uleb128 0x31
 16638 0531 13       		.uleb128 0x13
 16639 0532 02       		.uleb128 0x2
 16640 0533 18       		.uleb128 0x18
 16641 0534 00       		.byte	0
 16642 0535 00       		.byte	0
 16643 0536 67       		.uleb128 0x67
 16644 0537 898201   		.uleb128 0x4109
 16645 053a 01       		.byte	0x1
 16646 053b 11       		.uleb128 0x11
 16647 053c 01       		.uleb128 0x1
 16648 053d 9342     		.uleb128 0x2113
 16649 053f 18       		.uleb128 0x18
 16650 0540 01       		.uleb128 0x1
 16651 0541 13       		.uleb128 0x13
 16652 0542 00       		.byte	0
 16653 0543 00       		.byte	0
 16654 0544 68       		.uleb128 0x68
 16655 0545 2E       		.uleb128 0x2e
 16656 0546 00       		.byte	0
 16657 0547 3F       		.uleb128 0x3f
 16658 0548 19       		.uleb128 0x19
 16659 0549 3C       		.uleb128 0x3c
 16660 054a 19       		.uleb128 0x19
 16661 054b 6E       		.uleb128 0x6e
 16662 054c 0E       		.uleb128 0xe
 16663 054d 03       		.uleb128 0x3
 16664 054e 0E       		.uleb128 0xe
 16665 054f 3A       		.uleb128 0x3a
 16666 0550 0B       		.uleb128 0xb
 16667 0551 3B       		.uleb128 0x3b
 16668 0552 0B       		.uleb128 0xb
 16669 0553 00       		.byte	0
 16670 0554 00       		.byte	0
 16671 0555 69       		.uleb128 0x69
 16672 0556 2E       		.uleb128 0x2e
 16673 0557 00       		.byte	0
 16674 0558 3F       		.uleb128 0x3f
 16675 0559 19       		.uleb128 0x19
 16676 055a 3C       		.uleb128 0x3c
 16677 055b 19       		.uleb128 0x19
 16678 055c 6E       		.uleb128 0x6e
 16679 055d 0E       		.uleb128 0xe
 16680 055e 03       		.uleb128 0x3
 16681 055f 0E       		.uleb128 0xe
 16682 0560 3A       		.uleb128 0x3a
ARM GAS  C:\Users\Moi\AppData\Local\Temp\ccOzHcBd.s 			page 294


 16683 0561 0B       		.uleb128 0xb
 16684 0562 3B       		.uleb128 0x3b
 16685 0563 05       		.uleb128 0x5
 16686 0564 00       		.byte	0
 16687 0565 00       		.byte	0
 16688 0566 6A       		.uleb128 0x6a
 16689 0567 2E       		.uleb128 0x2e
 16690 0568 00       		.byte	0
 16691 0569 3F       		.uleb128 0x3f
 16692 056a 19       		.uleb128 0x19
 16693 056b 3C       		.uleb128 0x3c
 16694 056c 19       		.uleb128 0x19
 16695 056d 6E       		.uleb128 0x6e
 16696 056e 0E       		.uleb128 0xe
 16697 056f 03       		.uleb128 0x3
 16698 0570 0E       		.uleb128 0xe
 16699 0571 00       		.byte	0
 16700 0572 00       		.byte	0
 16701 0573 00       		.byte	0
 16702              		.section	.debug_loc,"",%progbits
 16703              	.Ldebug_loc0:
 16704              	.LLST1:
 16705 0000 00000000 		.4byte	.LVL6
 16706 0004 23000000 		.4byte	.LVL9-1
 16707 0008 0100     		.2byte	0x1
 16708 000a 50       		.byte	0x50
 16709 000b 23000000 		.4byte	.LVL9-1
 16710 000f 32000000 		.4byte	.LVL11
 16711 0013 0100     		.2byte	0x1
 16712 0015 5A       		.byte	0x5a
 16713 0016 32000000 		.4byte	.LVL11
 16714 001a 90040000 		.4byte	.LFE292
 16715 001e 0100     		.2byte	0x1
 16716 0020 57       		.byte	0x57
 16717 0021 00000000 		.4byte	0
 16718 0025 00000000 		.4byte	0
 16719              	.LLST2:
 16720 0029 18000000 		.4byte	.LVL7
 16721 002d 23000000 		.4byte	.LVL9-1
 16722 0031 0100     		.2byte	0x1
 16723 0033 50       		.byte	0x50
 16724 0034 23000000 		.4byte	.LVL9-1
 16725 0038 32000000 		.4byte	.LVL11
 16726 003c 0100     		.2byte	0x1
 16727 003e 5A       		.byte	0x5a
 16728 003f 32000000 		.4byte	.LVL11
 16729 0043 90040000 		.4byte	.LFE292
 16730 0047 0100     		.2byte	0x1
 16731 0049 57       		.byte	0x57
 16732 004a 00000000 		.4byte	0
 16733 004e 00000000 		.4byte	0
 16734              	.LLST3:
 16735 0052 18000000 		.4byte	.LVL7
 16736 0056 32000000 		.4byte	.LVL11
 16737 005a 0100     		.2byte	0x1
 16738 005c 58       		.byte	0x58
 16739 005d 00000000 		.4byte	0
ARM GAS  C:\Users\Moi\AppData\Local\Temp\ccOzHcBd.s 			page 295


 16740 0061 00000000 		.4byte	0
 16741              	.LLST5:
 16742 0065 7A000000 		.4byte	.LVL16
 16743 0069 7C000000 		.4byte	.LVL17
 16744 006d 0200     		.2byte	0x2
 16745 006f 30       		.byte	0x30
 16746 0070 9F       		.byte	0x9f
 16747 0071 56010000 		.4byte	.LVL52
 16748 0075 6C010000 		.4byte	.LVL57
 16749 0079 0100     		.2byte	0x1
 16750 007b 5B       		.byte	0x5b
 16751 007c 00000000 		.4byte	0
 16752 0080 00000000 		.4byte	0
 16753              	.LLST6:
 16754 0084 44010000 		.4byte	.LVL50
 16755 0088 50010000 		.4byte	.LVL51
 16756 008c 0100     		.2byte	0x1
 16757 008e 58       		.byte	0x58
 16758 008f 30020000 		.4byte	.LVL80
 16759 0093 C0020000 		.4byte	.LVL90
 16760 0097 0100     		.2byte	0x1
 16761 0099 58       		.byte	0x58
 16762 009a C0020000 		.4byte	.LVL90
 16763 009e AE030000 		.4byte	.LVL119
 16764 00a2 0200     		.2byte	0x2
 16765 00a4 91       		.byte	0x91
 16766 00a5 48       		.sleb128 -56
 16767 00a6 E0030000 		.4byte	.LVL124
 16768 00aa 48040000 		.4byte	.LVL137
 16769 00ae 0200     		.2byte	0x2
 16770 00b0 91       		.byte	0x91
 16771 00b1 48       		.sleb128 -56
 16772 00b2 48040000 		.4byte	.LVL137
 16773 00b6 90040000 		.4byte	.LFE292
 16774 00ba 0100     		.2byte	0x1
 16775 00bc 58       		.byte	0x58
 16776 00bd 00000000 		.4byte	0
 16777 00c1 00000000 		.4byte	0
 16778              	.LLST35:
 16779 00c5 30020000 		.4byte	.LVL80
 16780 00c9 36020000 		.4byte	.LVL81
 16781 00cd 0300     		.2byte	0x3
 16782 00cf 08       		.byte	0x8
 16783 00d0 20       		.byte	0x20
 16784 00d1 9F       		.byte	0x9f
 16785 00d2 00000000 		.4byte	0
 16786 00d6 00000000 		.4byte	0
 16787              	.LLST36:
 16788 00da 70020000 		.4byte	.LVL86
 16789 00de 76020000 		.4byte	.LVL87
 16790 00e2 0200     		.2byte	0x2
 16791 00e4 30       		.byte	0x30
 16792 00e5 9F       		.byte	0x9f
 16793 00e6 00000000 		.4byte	0
 16794 00ea 00000000 		.4byte	0
 16795              	.LLST37:
 16796 00ee 9A020000 		.4byte	.LVL88
ARM GAS  C:\Users\Moi\AppData\Local\Temp\ccOzHcBd.s 			page 296


 16797 00f2 A4020000 		.4byte	.LVL89
 16798 00f6 0100     		.2byte	0x1
 16799 00f8 53       		.byte	0x53
 16800 00f9 A4020000 		.4byte	.LVL89
 16801 00fd D8020000 		.4byte	.LVL92
 16802 0101 0100     		.2byte	0x1
 16803 0103 55       		.byte	0x55
 16804 0104 D8020000 		.4byte	.LVL92
 16805 0108 1A030000 		.4byte	.LVL102
 16806 010c 0200     		.2byte	0x2
 16807 010e 91       		.byte	0x91
 16808 010f 40       		.sleb128 -64
 16809 0110 7A030000 		.4byte	.LVL113
 16810 0114 84030000 		.4byte	.LVL114
 16811 0118 0100     		.2byte	0x1
 16812 011a 53       		.byte	0x53
 16813 011b 84030000 		.4byte	.LVL114
 16814 011f 92030000 		.4byte	.LVL115
 16815 0123 0100     		.2byte	0x1
 16816 0125 55       		.byte	0x55
 16817 0126 E0030000 		.4byte	.LVL124
 16818 012a 1A040000 		.4byte	.LVL128
 16819 012e 0200     		.2byte	0x2
 16820 0130 91       		.byte	0x91
 16821 0131 40       		.sleb128 -64
 16822 0132 1A040000 		.4byte	.LVL128
 16823 0136 3C040000 		.4byte	.LVL135
 16824 013a 0100     		.2byte	0x1
 16825 013c 55       		.byte	0x55
 16826 013d 3C040000 		.4byte	.LVL135
 16827 0141 40040000 		.4byte	.LVL136
 16828 0145 0200     		.2byte	0x2
 16829 0147 91       		.byte	0x91
 16830 0148 40       		.sleb128 -64
 16831 0149 00000000 		.4byte	0
 16832 014d 00000000 		.4byte	0
 16833              	.LLST38:
 16834 0151 CE020000 		.4byte	.LVL91
 16835 0155 D8020000 		.4byte	.LVL92
 16836 0159 0100     		.2byte	0x1
 16837 015b 55       		.byte	0x55
 16838 015c D8020000 		.4byte	.LVL92
 16839 0160 1A030000 		.4byte	.LVL102
 16840 0164 0200     		.2byte	0x2
 16841 0166 91       		.byte	0x91
 16842 0167 40       		.sleb128 -64
 16843 0168 E0030000 		.4byte	.LVL124
 16844 016c 1A040000 		.4byte	.LVL128
 16845 0170 0200     		.2byte	0x2
 16846 0172 91       		.byte	0x91
 16847 0173 40       		.sleb128 -64
 16848 0174 3C040000 		.4byte	.LVL135
 16849 0178 40040000 		.4byte	.LVL136
 16850 017c 0200     		.2byte	0x2
 16851 017e 91       		.byte	0x91
 16852 017f 40       		.sleb128 -64
 16853 0180 00000000 		.4byte	0
ARM GAS  C:\Users\Moi\AppData\Local\Temp\ccOzHcBd.s 			page 297


 16854 0184 00000000 		.4byte	0
 16855              	.LLST39:
 16856 0188 CE020000 		.4byte	.LVL91
 16857 018c D8020000 		.4byte	.LVL92
 16858 0190 0200     		.2byte	0x2
 16859 0192 72       		.byte	0x72
 16860 0193 0C       		.sleb128 12
 16861 0194 00000000 		.4byte	0
 16862 0198 00000000 		.4byte	0
 16863              	.LLST40:
 16864 019c CE020000 		.4byte	.LVL91
 16865 01a0 D8020000 		.4byte	.LVL92
 16866 01a4 0100     		.2byte	0x1
 16867 01a6 55       		.byte	0x55
 16868 01a7 D8020000 		.4byte	.LVL92
 16869 01ab 1A030000 		.4byte	.LVL102
 16870 01af 0100     		.2byte	0x1
 16871 01b1 52       		.byte	0x52
 16872 01b2 E0030000 		.4byte	.LVL124
 16873 01b6 FA030000 		.4byte	.LVL126
 16874 01ba 0100     		.2byte	0x1
 16875 01bc 52       		.byte	0x52
 16876 01bd FA030000 		.4byte	.LVL126
 16877 01c1 02040000 		.4byte	.LVL127
 16878 01c5 0300     		.2byte	0x3
 16879 01c7 72       		.byte	0x72
 16880 01c8 7F       		.sleb128 -1
 16881 01c9 9F       		.byte	0x9f
 16882 01ca 02040000 		.4byte	.LVL127
 16883 01ce 1A040000 		.4byte	.LVL128
 16884 01d2 0100     		.2byte	0x1
 16885 01d4 52       		.byte	0x52
 16886 01d5 3C040000 		.4byte	.LVL135
 16887 01d9 40040000 		.4byte	.LVL136
 16888 01dd 0100     		.2byte	0x1
 16889 01df 52       		.byte	0x52
 16890 01e0 00000000 		.4byte	0
 16891 01e4 00000000 		.4byte	0
 16892              	.LLST41:
 16893 01e8 EA030000 		.4byte	.LVL125
 16894 01ec 1A040000 		.4byte	.LVL128
 16895 01f0 0100     		.2byte	0x1
 16896 01f2 50       		.byte	0x50
 16897 01f3 00000000 		.4byte	0
 16898 01f7 00000000 		.4byte	0
 16899              	.LLST42:
 16900 01fb D8020000 		.4byte	.LVL92
 16901 01ff DC020000 		.4byte	.LVL93
 16902 0203 0500     		.2byte	0x5
 16903 0205 72       		.byte	0x72
 16904 0206 00       		.sleb128 0
 16905 0207 32       		.byte	0x32
 16906 0208 25       		.byte	0x25
 16907 0209 9F       		.byte	0x9f
 16908 020a DC020000 		.4byte	.LVL93
 16909 020e 1A030000 		.4byte	.LVL102
 16910 0212 0100     		.2byte	0x1
ARM GAS  C:\Users\Moi\AppData\Local\Temp\ccOzHcBd.s 			page 298


 16911 0214 5E       		.byte	0x5e
 16912 0215 E0030000 		.4byte	.LVL124
 16913 0219 1A040000 		.4byte	.LVL128
 16914 021d 0100     		.2byte	0x1
 16915 021f 5E       		.byte	0x5e
 16916 0220 3C040000 		.4byte	.LVL135
 16917 0224 40040000 		.4byte	.LVL136
 16918 0228 0100     		.2byte	0x1
 16919 022a 5E       		.byte	0x5e
 16920 022b 00000000 		.4byte	0
 16921 022f 00000000 		.4byte	0
 16922              	.LLST43:
 16923 0233 F2020000 		.4byte	.LVL95
 16924 0237 FE020000 		.4byte	.LVL97
 16925 023b 0100     		.2byte	0x1
 16926 023d 50       		.byte	0x50
 16927 023e FE020000 		.4byte	.LVL97
 16928 0242 0E030000 		.4byte	.LVL101
 16929 0246 4D00     		.2byte	0x4d
 16930 0248 7E       		.byte	0x7e
 16931 0249 00       		.sleb128 0
 16932 024a 7B       		.byte	0x7b
 16933 024b 00       		.sleb128 0
 16934 024c 74       		.byte	0x74
 16935 024d 18       		.sleb128 24
 16936 024e 06       		.byte	0x6
 16937 024f 1C       		.byte	0x1c
 16938 0250 23       		.byte	0x23
 16939 0251 03       		.uleb128 0x3
 16940 0252 7B       		.byte	0x7b
 16941 0253 00       		.sleb128 0
 16942 0254 74       		.byte	0x74
 16943 0255 18       		.sleb128 24
 16944 0256 06       		.byte	0x6
 16945 0257 1C       		.byte	0x1c
 16946 0258 7B       		.byte	0x7b
 16947 0259 00       		.sleb128 0
 16948 025a 74       		.byte	0x74
 16949 025b 18       		.sleb128 24
 16950 025c 06       		.byte	0x6
 16951 025d 1C       		.byte	0x1c
 16952 025e 30       		.byte	0x30
 16953 025f 2D       		.byte	0x2d
 16954 0260 28       		.byte	0x28
 16955 0261 0100     		.2byte	0x1
 16956 0263 16       		.byte	0x16
 16957 0264 13       		.byte	0x13
 16958 0265 32       		.byte	0x32
 16959 0266 26       		.byte	0x26
 16960 0267 7B       		.byte	0x7b
 16961 0268 00       		.sleb128 0
 16962 0269 74       		.byte	0x74
 16963 026a 18       		.sleb128 24
 16964 026b 06       		.byte	0x6
 16965 026c 1C       		.byte	0x1c
 16966 026d 23       		.byte	0x23
 16967 026e 03       		.uleb128 0x3
ARM GAS  C:\Users\Moi\AppData\Local\Temp\ccOzHcBd.s 			page 299


 16968 026f 7B       		.byte	0x7b
 16969 0270 00       		.sleb128 0
 16970 0271 74       		.byte	0x74
 16971 0272 18       		.sleb128 24
 16972 0273 06       		.byte	0x6
 16973 0274 1C       		.byte	0x1c
 16974 0275 7B       		.byte	0x7b
 16975 0276 00       		.sleb128 0
 16976 0277 74       		.byte	0x74
 16977 0278 18       		.sleb128 24
 16978 0279 06       		.byte	0x6
 16979 027a 1C       		.byte	0x1c
 16980 027b 30       		.byte	0x30
 16981 027c 2D       		.byte	0x2d
 16982 027d 28       		.byte	0x28
 16983 027e 0100     		.2byte	0x1
 16984 0280 16       		.byte	0x16
 16985 0281 13       		.byte	0x13
 16986 0282 32       		.byte	0x32
 16987 0283 26       		.byte	0x26
 16988 0284 40       		.byte	0x40
 16989 0285 4B       		.byte	0x4b
 16990 0286 24       		.byte	0x24
 16991 0287 22       		.byte	0x22
 16992 0288 7E       		.byte	0x7e
 16993 0289 00       		.sleb128 0
 16994 028a 40       		.byte	0x40
 16995 028b 4B       		.byte	0x4b
 16996 028c 24       		.byte	0x24
 16997 028d 22       		.byte	0x22
 16998 028e 2A       		.byte	0x2a
 16999 028f 28       		.byte	0x28
 17000 0290 0100     		.2byte	0x1
 17001 0292 16       		.byte	0x16
 17002 0293 13       		.byte	0x13
 17003 0294 9F       		.byte	0x9f
 17004 0295 3C040000 		.4byte	.LVL135
 17005 0299 40040000 		.4byte	.LVL136
 17006 029d 0100     		.2byte	0x1
 17007 029f 50       		.byte	0x50
 17008 02a0 00000000 		.4byte	0
 17009 02a4 00000000 		.4byte	0
 17010              	.LLST44:
 17011 02a8 E2020000 		.4byte	.LVL94
 17012 02ac FE020000 		.4byte	.LVL97
 17013 02b0 0800     		.2byte	0x8
 17014 02b2 7B       		.byte	0x7b
 17015 02b3 00       		.sleb128 0
 17016 02b4 73       		.byte	0x73
 17017 02b5 00       		.sleb128 0
 17018 02b6 1C       		.byte	0x1c
 17019 02b7 34       		.byte	0x34
 17020 02b8 1B       		.byte	0x1b
 17021 02b9 9F       		.byte	0x9f
 17022 02ba FE020000 		.4byte	.LVL97
 17023 02be 0E030000 		.4byte	.LVL101
 17024 02c2 0900     		.2byte	0x9
ARM GAS  C:\Users\Moi\AppData\Local\Temp\ccOzHcBd.s 			page 300


 17025 02c4 7B       		.byte	0x7b
 17026 02c5 00       		.sleb128 0
 17027 02c6 74       		.byte	0x74
 17028 02c7 18       		.sleb128 24
 17029 02c8 06       		.byte	0x6
 17030 02c9 1C       		.byte	0x1c
 17031 02ca 34       		.byte	0x34
 17032 02cb 1B       		.byte	0x1b
 17033 02cc 9F       		.byte	0x9f
 17034 02cd 3C040000 		.4byte	.LVL135
 17035 02d1 40040000 		.4byte	.LVL136
 17036 02d5 0800     		.2byte	0x8
 17037 02d7 7B       		.byte	0x7b
 17038 02d8 00       		.sleb128 0
 17039 02d9 73       		.byte	0x73
 17040 02da 00       		.sleb128 0
 17041 02db 1C       		.byte	0x1c
 17042 02dc 34       		.byte	0x34
 17043 02dd 1B       		.byte	0x1b
 17044 02de 9F       		.byte	0x9f
 17045 02df 00000000 		.4byte	0
 17046 02e3 00000000 		.4byte	0
 17047              	.LLST45:
 17048 02e7 F6020000 		.4byte	.LVL96
 17049 02eb FE020000 		.4byte	.LVL97
 17050 02ef 0100     		.2byte	0x1
 17051 02f1 50       		.byte	0x50
 17052 02f2 3C040000 		.4byte	.LVL135
 17053 02f6 40040000 		.4byte	.LVL136
 17054 02fa 0100     		.2byte	0x1
 17055 02fc 50       		.byte	0x50
 17056 02fd 00000000 		.4byte	0
 17057 0301 00000000 		.4byte	0
 17058              	.LLST46:
 17059 0305 FE020000 		.4byte	.LVL97
 17060 0309 02030000 		.4byte	.LVL98
 17061 030d 0100     		.2byte	0x1
 17062 030f 53       		.byte	0x53
 17063 0310 02030000 		.4byte	.LVL98
 17064 0314 06030000 		.4byte	.LVL99
 17065 0318 0300     		.2byte	0x3
 17066 031a 73       		.byte	0x73
 17067 031b 7C       		.sleb128 -4
 17068 031c 9F       		.byte	0x9f
 17069 031d 06030000 		.4byte	.LVL99
 17070 0321 0A030000 		.4byte	.LVL100
 17071 0325 0100     		.2byte	0x1
 17072 0327 53       		.byte	0x53
 17073 0328 00000000 		.4byte	0
 17074 032c 00000000 		.4byte	0
 17075              	.LLST47:
 17076 0330 1A030000 		.4byte	.LVL102
 17077 0334 20030000 		.4byte	.LVL103
 17078 0338 0300     		.2byte	0x3
 17079 033a 08       		.byte	0x8
 17080 033b 20       		.byte	0x20
 17081 033c 9F       		.byte	0x9f
ARM GAS  C:\Users\Moi\AppData\Local\Temp\ccOzHcBd.s 			page 301


 17082 033d 00000000 		.4byte	0
 17083 0341 00000000 		.4byte	0
 17084              	.LLST48:
 17085 0345 2E030000 		.4byte	.LVL106
 17086 0349 36030000 		.4byte	.LVL107
 17087 034d 0200     		.2byte	0x2
 17088 034f 30       		.byte	0x30
 17089 0350 9F       		.byte	0x9f
 17090 0351 00000000 		.4byte	0
 17091 0355 00000000 		.4byte	0
 17092              	.LLST49:
 17093 0359 2E030000 		.4byte	.LVL106
 17094 035d 36030000 		.4byte	.LVL107
 17095 0361 0100     		.2byte	0x1
 17096 0363 54       		.byte	0x54
 17097 0364 00000000 		.4byte	0
 17098 0368 00000000 		.4byte	0
 17099              	.LLST50:
 17100 036c 58030000 		.4byte	.LVL111
 17101 0370 5E030000 		.4byte	.LVL112
 17102 0374 0200     		.2byte	0x2
 17103 0376 30       		.byte	0x30
 17104 0377 9F       		.byte	0x9f
 17105 0378 00000000 		.4byte	0
 17106 037c 00000000 		.4byte	0
 17107              	.LLST51:
 17108 0380 1A040000 		.4byte	.LVL128
 17109 0384 36040000 		.4byte	.LVL134
 17110 0388 0100     		.2byte	0x1
 17111 038a 55       		.byte	0x55
 17112 038b 00000000 		.4byte	0
 17113 038f 00000000 		.4byte	0
 17114              	.LLST52:
 17115 0393 1A040000 		.4byte	.LVL128
 17116 0397 36040000 		.4byte	.LVL134
 17117 039b 0200     		.2byte	0x2
 17118 039d 72       		.byte	0x72
 17119 039e 0C       		.sleb128 12
 17120 039f 00000000 		.4byte	0
 17121 03a3 00000000 		.4byte	0
 17122              	.LLST53:
 17123 03a7 1C040000 		.4byte	.LVL129
 17124 03ab 1E040000 		.4byte	.LVL130
 17125 03af 0500     		.2byte	0x5
 17126 03b1 73       		.byte	0x73
 17127 03b2 00       		.sleb128 0
 17128 03b3 32       		.byte	0x32
 17129 03b4 25       		.byte	0x25
 17130 03b5 9F       		.byte	0x9f
 17131 03b6 1E040000 		.4byte	.LVL130
 17132 03ba 26040000 		.4byte	.LVL131
 17133 03be 0100     		.2byte	0x1
 17134 03c0 53       		.byte	0x53
 17135 03c1 00000000 		.4byte	0
 17136 03c5 00000000 		.4byte	0
 17137              	.LLST54:
 17138 03c9 1C040000 		.4byte	.LVL129
ARM GAS  C:\Users\Moi\AppData\Local\Temp\ccOzHcBd.s 			page 302


 17139 03cd 26040000 		.4byte	.LVL131
 17140 03d1 0200     		.2byte	0x2
 17141 03d3 72       		.byte	0x72
 17142 03d4 0C       		.sleb128 12
 17143 03d5 26040000 		.4byte	.LVL131
 17144 03d9 2A040000 		.4byte	.LVL132
 17145 03dd 0100     		.2byte	0x1
 17146 03df 53       		.byte	0x53
 17147 03e0 2A040000 		.4byte	.LVL132
 17148 03e4 2E040000 		.4byte	.LVL133
 17149 03e8 0300     		.2byte	0x3
 17150 03ea 73       		.byte	0x73
 17151 03eb 7C       		.sleb128 -4
 17152 03ec 9F       		.byte	0x9f
 17153 03ed 2E040000 		.4byte	.LVL133
 17154 03f1 36040000 		.4byte	.LVL134
 17155 03f5 0100     		.2byte	0x1
 17156 03f7 53       		.byte	0x53
 17157 03f8 00000000 		.4byte	0
 17158 03fc 00000000 		.4byte	0
 17159              	.LLST55:
 17160 0400 92030000 		.4byte	.LVL115
 17161 0404 98030000 		.4byte	.LVL116
 17162 0408 0300     		.2byte	0x3
 17163 040a 08       		.byte	0x8
 17164 040b 20       		.byte	0x20
 17165 040c 9F       		.byte	0x9f
 17166 040d 48040000 		.4byte	.LVL137
 17167 0411 4E040000 		.4byte	.LVL138
 17168 0415 0300     		.2byte	0x3
 17169 0417 08       		.byte	0x8
 17170 0418 20       		.byte	0x20
 17171 0419 9F       		.byte	0x9f
 17172 041a 6A040000 		.4byte	.LVL141
 17173 041e 70040000 		.4byte	.LVL142
 17174 0422 0300     		.2byte	0x3
 17175 0424 08       		.byte	0x8
 17176 0425 20       		.byte	0x20
 17177 0426 9F       		.byte	0x9f
 17178 0427 00000000 		.4byte	0
 17179 042b 00000000 		.4byte	0
 17180              	.LLST56:
 17181 042f D8030000 		.4byte	.LVL122
 17182 0433 DE030000 		.4byte	.LVL123
 17183 0437 0200     		.2byte	0x2
 17184 0439 30       		.byte	0x30
 17185 043a 9F       		.byte	0x9f
 17186 043b 00000000 		.4byte	0
 17187 043f 00000000 		.4byte	0
 17188              	.LLST7:
 17189 0443 74000000 		.4byte	.LVL15
 17190 0447 7A000000 		.4byte	.LVL16
 17191 044b 0200     		.2byte	0x2
 17192 044d 30       		.byte	0x30
 17193 044e 9F       		.byte	0x9f
 17194 044f 00000000 		.4byte	0
 17195 0453 00000000 		.4byte	0
ARM GAS  C:\Users\Moi\AppData\Local\Temp\ccOzHcBd.s 			page 303


 17196              	.LLST8:
 17197 0457 84000000 		.4byte	.LVL18
 17198 045b 3A010000 		.4byte	.LVL49
 17199 045f 0100     		.2byte	0x1
 17200 0461 57       		.byte	0x57
 17201 0462 6C010000 		.4byte	.LVL57
 17202 0466 30020000 		.4byte	.LVL80
 17203 046a 0100     		.2byte	0x1
 17204 046c 57       		.byte	0x57
 17205 046d 00000000 		.4byte	0
 17206 0471 00000000 		.4byte	0
 17207              	.LLST9:
 17208 0475 88000000 		.4byte	.LVL19
 17209 0479 A4000000 		.4byte	.LVL23
 17210 047d 0100     		.2byte	0x1
 17211 047f 53       		.byte	0x53
 17212 0480 DC000000 		.4byte	.LVL34
 17213 0484 EC000000 		.4byte	.LVL36
 17214 0488 0100     		.2byte	0x1
 17215 048a 53       		.byte	0x53
 17216 048b 00000000 		.4byte	0
 17217 048f 00000000 		.4byte	0
 17218              	.LLST10:
 17219 0493 98000000 		.4byte	.LVL20
 17220 0497 A4000000 		.4byte	.LVL23
 17221 049b 0900     		.2byte	0x9
 17222 049d 73       		.byte	0x73
 17223 049e 00       		.sleb128 0
 17224 049f 34       		.byte	0x34
 17225 04a0 25       		.byte	0x25
 17226 04a1 0A       		.byte	0xa
 17227 04a2 FF07     		.2byte	0x7ff
 17228 04a4 1A       		.byte	0x1a
 17229 04a5 9F       		.byte	0x9f
 17230 04a6 E8000000 		.4byte	.LVL35
 17231 04aa 30010000 		.4byte	.LVL48
 17232 04ae 0100     		.2byte	0x1
 17233 04b0 54       		.byte	0x54
 17234 04b1 6C010000 		.4byte	.LVL57
 17235 04b5 30020000 		.4byte	.LVL80
 17236 04b9 0100     		.2byte	0x1
 17237 04bb 54       		.byte	0x54
 17238 04bc 00000000 		.4byte	0
 17239 04c0 00000000 		.4byte	0
 17240              	.LLST11:
 17241 04c4 98000000 		.4byte	.LVL20
 17242 04c8 9C000000 		.4byte	.LVL21
 17243 04cc 0500     		.2byte	0x5
 17244 04ce 73       		.byte	0x73
 17245 04cf 00       		.sleb128 0
 17246 04d0 3F       		.byte	0x3f
 17247 04d1 1A       		.byte	0x1a
 17248 04d2 9F       		.byte	0x9f
 17249 04d3 9C000000 		.4byte	.LVL21
 17250 04d7 A0000000 		.4byte	.LVL22
 17251 04db 0100     		.2byte	0x1
 17252 04dd 52       		.byte	0x52
ARM GAS  C:\Users\Moi\AppData\Local\Temp\ccOzHcBd.s 			page 304


 17253 04de A0000000 		.4byte	.LVL22
 17254 04e2 A4000000 		.4byte	.LVL23
 17255 04e6 0500     		.2byte	0x5
 17256 04e8 73       		.byte	0x73
 17257 04e9 00       		.sleb128 0
 17258 04ea 3F       		.byte	0x3f
 17259 04eb 1A       		.byte	0x1a
 17260 04ec 9F       		.byte	0x9f
 17261 04ed E8000000 		.4byte	.LVL35
 17262 04f1 EC000000 		.4byte	.LVL36
 17263 04f5 0500     		.2byte	0x5
 17264 04f7 73       		.byte	0x73
 17265 04f8 00       		.sleb128 0
 17266 04f9 3F       		.byte	0x3f
 17267 04fa 1A       		.byte	0x1a
 17268 04fb 9F       		.byte	0x9f
 17269 04fc 00000000 		.4byte	0
 17270 0500 00000000 		.4byte	0
 17271              	.LLST12:
 17272 0504 AC000000 		.4byte	.LVL24
 17273 0508 B4000000 		.4byte	.LVL26
 17274 050c 0200     		.2byte	0x2
 17275 050e 32       		.byte	0x32
 17276 050f 9F       		.byte	0x9f
 17277 0510 B4000000 		.4byte	.LVL26
 17278 0514 CE000000 		.4byte	.LVL32
 17279 0518 0100     		.2byte	0x1
 17280 051a 52       		.byte	0x52
 17281 051b CE000000 		.4byte	.LVL32
 17282 051f D6000000 		.4byte	.LVL33
 17283 0523 0200     		.2byte	0x2
 17284 0525 30       		.byte	0x30
 17285 0526 9F       		.byte	0x9f
 17286 0527 D6000000 		.4byte	.LVL33
 17287 052b DC000000 		.4byte	.LVL34
 17288 052f 0100     		.2byte	0x1
 17289 0531 52       		.byte	0x52
 17290 0532 00000000 		.4byte	0
 17291 0536 00000000 		.4byte	0
 17292              	.LLST13:
 17293 053a AC000000 		.4byte	.LVL24
 17294 053e DC000000 		.4byte	.LVL34
 17295 0542 0100     		.2byte	0x1
 17296 0544 54       		.byte	0x54
 17297 0545 00000000 		.4byte	0
 17298 0549 00000000 		.4byte	0
 17299              	.LLST14:
 17300 054d AC000000 		.4byte	.LVL24
 17301 0551 B2000000 		.4byte	.LVL25
 17302 0555 0400     		.2byte	0x4
 17303 0557 71       		.byte	0x71
 17304 0558 8020     		.sleb128 4096
 17305 055a 9F       		.byte	0x9f
 17306 055b B2000000 		.4byte	.LVL25
 17307 055f DC000000 		.4byte	.LVL34
 17308 0563 0100     		.2byte	0x1
 17309 0565 51       		.byte	0x51
ARM GAS  C:\Users\Moi\AppData\Local\Temp\ccOzHcBd.s 			page 305


 17310 0566 00000000 		.4byte	0
 17311 056a 00000000 		.4byte	0
 17312              	.LLST15:
 17313 056e B6000000 		.4byte	.LVL27
 17314 0572 C6000000 		.4byte	.LVL30
 17315 0576 0100     		.2byte	0x1
 17316 0578 55       		.byte	0x55
 17317 0579 C8000000 		.4byte	.LVL31
 17318 057d D6000000 		.4byte	.LVL33
 17319 0581 0100     		.2byte	0x1
 17320 0583 55       		.byte	0x55
 17321 0584 00000000 		.4byte	0
 17322 0588 00000000 		.4byte	0
 17323              	.LLST16:
 17324 058c FA000000 		.4byte	.LVL37
 17325 0590 08010000 		.4byte	.LVL39
 17326 0594 0700     		.2byte	0x7
 17327 0596 73       		.byte	0x73
 17328 0597 04       		.sleb128 4
 17329 0598 06       		.byte	0x6
 17330 0599 7C       		.byte	0x7c
 17331 059a 00       		.sleb128 0
 17332 059b 1C       		.byte	0x1c
 17333 059c 9F       		.byte	0x9f
 17334 059d 08010000 		.4byte	.LVL39
 17335 05a1 28010000 		.4byte	.LVL46
 17336 05a5 0100     		.2byte	0x1
 17337 05a7 50       		.byte	0x50
 17338 05a8 6C010000 		.4byte	.LVL57
 17339 05ac 76010000 		.4byte	.LVL59
 17340 05b0 0200     		.2byte	0x2
 17341 05b2 30       		.byte	0x30
 17342 05b3 9F       		.byte	0x9f
 17343 05b4 76010000 		.4byte	.LVL59
 17344 05b8 7C010000 		.4byte	.LVL60
 17345 05bc 0100     		.2byte	0x1
 17346 05be 50       		.byte	0x50
 17347 05bf 00000000 		.4byte	0
 17348 05c3 00000000 		.4byte	0
 17349              	.LLST17:
 17350 05c7 FA000000 		.4byte	.LVL37
 17351 05cb FE000000 		.4byte	.LVL38
 17352 05cf 0100     		.2byte	0x1
 17353 05d1 54       		.byte	0x54
 17354 05d2 14010000 		.4byte	.LVL41
 17355 05d6 1E010000 		.4byte	.LVL43
 17356 05da 0100     		.2byte	0x1
 17357 05dc 52       		.byte	0x52
 17358 05dd 1E010000 		.4byte	.LVL43
 17359 05e1 24010000 		.4byte	.LVL45
 17360 05e5 0300     		.2byte	0x3
 17361 05e7 71       		.byte	0x71
 17362 05e8 01       		.sleb128 1
 17363 05e9 9F       		.byte	0x9f
 17364 05ea 6C010000 		.4byte	.LVL57
 17365 05ee 72010000 		.4byte	.LVL58
 17366 05f2 0300     		.2byte	0x3
ARM GAS  C:\Users\Moi\AppData\Local\Temp\ccOzHcBd.s 			page 306


 17367 05f4 72       		.byte	0x72
 17368 05f5 7F       		.sleb128 -1
 17369 05f6 9F       		.byte	0x9f
 17370 05f7 72010000 		.4byte	.LVL58
 17371 05fb 76010000 		.4byte	.LVL59
 17372 05ff 0100     		.2byte	0x1
 17373 0601 51       		.byte	0x51
 17374 0602 00000000 		.4byte	0
 17375 0606 00000000 		.4byte	0
 17376              	.LLST18:
 17377 060a FA000000 		.4byte	.LVL37
 17378 060e 14010000 		.4byte	.LVL41
 17379 0612 0200     		.2byte	0x2
 17380 0614 73       		.byte	0x73
 17381 0615 0C       		.sleb128 12
 17382 0616 14010000 		.4byte	.LVL41
 17383 061a 2A010000 		.4byte	.LVL47
 17384 061e 0100     		.2byte	0x1
 17385 0620 58       		.byte	0x58
 17386 0621 6C010000 		.4byte	.LVL57
 17387 0625 7C010000 		.4byte	.LVL60
 17388 0629 0100     		.2byte	0x1
 17389 062b 58       		.byte	0x58
 17390 062c 00000000 		.4byte	0
 17391 0630 00000000 		.4byte	0
 17392              	.LLST19:
 17393 0634 FA000000 		.4byte	.LVL37
 17394 0638 0E010000 		.4byte	.LVL40
 17395 063c 0400     		.2byte	0x4
 17396 063e 71       		.byte	0x71
 17397 063f 8020     		.sleb128 4096
 17398 0641 9F       		.byte	0x9f
 17399 0642 0E010000 		.4byte	.LVL40
 17400 0646 14010000 		.4byte	.LVL41
 17401 064a 0100     		.2byte	0x1
 17402 064c 51       		.byte	0x51
 17403 064d 14010000 		.4byte	.LVL41
 17404 0651 2A010000 		.4byte	.LVL47
 17405 0655 0100     		.2byte	0x1
 17406 0657 5E       		.byte	0x5e
 17407 0658 6C010000 		.4byte	.LVL57
 17408 065c 7C010000 		.4byte	.LVL60
 17409 0660 0100     		.2byte	0x1
 17410 0662 5E       		.byte	0x5e
 17411 0663 00000000 		.4byte	0
 17412 0667 00000000 		.4byte	0
 17413              	.LLST20:
 17414 066b 18010000 		.4byte	.LVL42
 17415 066f 28010000 		.4byte	.LVL46
 17416 0673 0100     		.2byte	0x1
 17417 0675 53       		.byte	0x53
 17418 0676 6C010000 		.4byte	.LVL57
 17419 067a 76010000 		.4byte	.LVL59
 17420 067e 0100     		.2byte	0x1
 17421 0680 53       		.byte	0x53
 17422 0681 00000000 		.4byte	0
 17423 0685 00000000 		.4byte	0
ARM GAS  C:\Users\Moi\AppData\Local\Temp\ccOzHcBd.s 			page 307


 17424              	.LLST21:
 17425 0689 7C010000 		.4byte	.LVL60
 17426 068d 30020000 		.4byte	.LVL80
 17427 0691 0100     		.2byte	0x1
 17428 0693 54       		.byte	0x54
 17429 0694 00000000 		.4byte	0
 17430 0698 00000000 		.4byte	0
 17431              	.LLST22:
 17432 069c 7C010000 		.4byte	.LVL60
 17433 06a0 86010000 		.4byte	.LVL62
 17434 06a4 0200     		.2byte	0x2
 17435 06a6 73       		.byte	0x73
 17436 06a7 0C       		.sleb128 12
 17437 06a8 00000000 		.4byte	0
 17438 06ac 00000000 		.4byte	0
 17439              	.LLST23:
 17440 06b0 7C010000 		.4byte	.LVL60
 17441 06b4 84010000 		.4byte	.LVL61
 17442 06b8 0400     		.2byte	0x4
 17443 06ba 71       		.byte	0x71
 17444 06bb 8020     		.sleb128 4096
 17445 06bd 9F       		.byte	0x9f
 17446 06be 84010000 		.4byte	.LVL61
 17447 06c2 CE010000 		.4byte	.LVL69
 17448 06c6 0100     		.2byte	0x1
 17449 06c8 51       		.byte	0x51
 17450 06c9 00000000 		.4byte	0
 17451 06cd 00000000 		.4byte	0
 17452              	.LLST24:
 17453 06d1 7C010000 		.4byte	.LVL60
 17454 06d5 86010000 		.4byte	.LVL62
 17455 06d9 0100     		.2byte	0x1
 17456 06db 54       		.byte	0x54
 17457 06dc 86010000 		.4byte	.LVL62
 17458 06e0 A2010000 		.4byte	.LVL67
 17459 06e4 0100     		.2byte	0x1
 17460 06e6 5C       		.byte	0x5c
 17461 06e7 A2010000 		.4byte	.LVL67
 17462 06eb C0010000 		.4byte	.LVL68
 17463 06ef 0300     		.2byte	0x3
 17464 06f1 7C       		.byte	0x7c
 17465 06f2 7F       		.sleb128 -1
 17466 06f3 9F       		.byte	0x9f
 17467 06f4 C0010000 		.4byte	.LVL68
 17468 06f8 CE010000 		.4byte	.LVL69
 17469 06fc 0100     		.2byte	0x1
 17470 06fe 5C       		.byte	0x5c
 17471 06ff 00000000 		.4byte	0
 17472 0703 00000000 		.4byte	0
 17473              	.LLST25:
 17474 0707 A0010000 		.4byte	.LVL66
 17475 070b CE010000 		.4byte	.LVL69
 17476 070f 0100     		.2byte	0x1
 17477 0711 5E       		.byte	0x5e
 17478 0712 00000000 		.4byte	0
 17479 0716 00000000 		.4byte	0
 17480              	.LLST26:
ARM GAS  C:\Users\Moi\AppData\Local\Temp\ccOzHcBd.s 			page 308


 17481 071a A0010000 		.4byte	.LVL66
 17482 071e A2010000 		.4byte	.LVL67
 17483 0722 0200     		.2byte	0x2
 17484 0724 30       		.byte	0x30
 17485 0725 9F       		.byte	0x9f
 17486 0726 00000000 		.4byte	0
 17487 072a 00000000 		.4byte	0
 17488              	.LLST27:
 17489 072e 86010000 		.4byte	.LVL62
 17490 0732 8C010000 		.4byte	.LVL63
 17491 0736 0500     		.2byte	0x5
 17492 0738 7C       		.byte	0x7c
 17493 0739 00       		.sleb128 0
 17494 073a 32       		.byte	0x32
 17495 073b 25       		.byte	0x25
 17496 073c 9F       		.byte	0x9f
 17497 073d 96010000 		.4byte	.LVL64
 17498 0741 9C010000 		.4byte	.LVL65
 17499 0745 0500     		.2byte	0x5
 17500 0747 7C       		.byte	0x7c
 17501 0748 00       		.sleb128 0
 17502 0749 32       		.byte	0x32
 17503 074a 25       		.byte	0x25
 17504 074b 9F       		.byte	0x9f
 17505 074c 00000000 		.4byte	0
 17506 0750 00000000 		.4byte	0
 17507              	.LLST28:
 17508 0754 8C010000 		.4byte	.LVL63
 17509 0758 9C010000 		.4byte	.LVL65
 17510 075c 0200     		.2byte	0x2
 17511 075e 30       		.byte	0x30
 17512 075f 9F       		.byte	0x9f
 17513 0760 00000000 		.4byte	0
 17514 0764 00000000 		.4byte	0
 17515              	.LLST30:
 17516 0768 CE010000 		.4byte	.LVL69
 17517 076c D4010000 		.4byte	.LVL70
 17518 0770 0300     		.2byte	0x3
 17519 0772 08       		.byte	0x8
 17520 0773 20       		.byte	0x20
 17521 0774 9F       		.byte	0x9f
 17522 0775 00000000 		.4byte	0
 17523 0779 00000000 		.4byte	0
 17524              	.LLST31:
 17525 077d E2010000 		.4byte	.LVL73
 17526 0781 EA010000 		.4byte	.LVL74
 17527 0785 0200     		.2byte	0x2
 17528 0787 30       		.byte	0x30
 17529 0788 9F       		.byte	0x9f
 17530 0789 00000000 		.4byte	0
 17531 078d 00000000 		.4byte	0
 17532              	.LLST32:
 17533 0791 E2010000 		.4byte	.LVL73
 17534 0795 EA010000 		.4byte	.LVL74
 17535 0799 0100     		.2byte	0x1
 17536 079b 55       		.byte	0x55
 17537 079c 00000000 		.4byte	0
ARM GAS  C:\Users\Moi\AppData\Local\Temp\ccOzHcBd.s 			page 309


 17538 07a0 00000000 		.4byte	0
 17539              	.LLST33:
 17540 07a4 0C020000 		.4byte	.LVL78
 17541 07a8 12020000 		.4byte	.LVL79
 17542 07ac 0200     		.2byte	0x2
 17543 07ae 30       		.byte	0x30
 17544 07af 9F       		.byte	0x9f
 17545 07b0 00000000 		.4byte	0
 17546 07b4 00000000 		.4byte	0
 17547              	.LLST34:
 17548 07b8 5C010000 		.4byte	.LVL53
 17549 07bc 62010000 		.4byte	.LVL54
 17550 07c0 0300     		.2byte	0x3
 17551 07c2 08       		.byte	0x8
 17552 07c3 20       		.byte	0x20
 17553 07c4 9F       		.byte	0x9f
 17554 07c5 00000000 		.4byte	0
 17555 07c9 00000000 		.4byte	0
 17556              	.LLST4:
 17557 07cd 18000000 		.4byte	.LVL7
 17558 07d1 20000000 		.4byte	.LVL8
 17559 07d5 0300     		.2byte	0x3
 17560 07d7 08       		.byte	0x8
 17561 07d8 20       		.byte	0x20
 17562 07d9 9F       		.byte	0x9f
 17563 07da 00000000 		.4byte	0
 17564 07de 00000000 		.4byte	0
 17565              	.LLST150:
 17566 07e2 00000000 		.4byte	.LVL367
 17567 07e6 2D000000 		.4byte	.LVL369-1
 17568 07ea 0100     		.2byte	0x1
 17569 07ec 50       		.byte	0x50
 17570 07ed 2D000000 		.4byte	.LVL369-1
 17571 07f1 34000000 		.4byte	.LFE291
 17572 07f5 0400     		.2byte	0x4
 17573 07f7 F3       		.byte	0xf3
 17574 07f8 01       		.uleb128 0x1
 17575 07f9 50       		.byte	0x50
 17576 07fa 9F       		.byte	0x9f
 17577 07fb 00000000 		.4byte	0
 17578 07ff 00000000 		.4byte	0
 17579              	.LLST151:
 17580 0803 00000000 		.4byte	.LVL367
 17581 0807 0C000000 		.4byte	.LVL368
 17582 080b 0100     		.2byte	0x1
 17583 080d 51       		.byte	0x51
 17584 080e 0C000000 		.4byte	.LVL368
 17585 0812 34000000 		.4byte	.LFE291
 17586 0816 0400     		.2byte	0x4
 17587 0818 F3       		.byte	0xf3
 17588 0819 01       		.uleb128 0x1
 17589 081a 51       		.byte	0x51
 17590 081b 9F       		.byte	0x9f
 17591 081c 00000000 		.4byte	0
 17592 0820 00000000 		.4byte	0
 17593              	.LLST148:
 17594 0824 00000000 		.4byte	.LVL364
ARM GAS  C:\Users\Moi\AppData\Local\Temp\ccOzHcBd.s 			page 310


 17595 0828 2D000000 		.4byte	.LVL366-1
 17596 082c 0100     		.2byte	0x1
 17597 082e 50       		.byte	0x50
 17598 082f 2D000000 		.4byte	.LVL366-1
 17599 0833 34000000 		.4byte	.LFE290
 17600 0837 0400     		.2byte	0x4
 17601 0839 F3       		.byte	0xf3
 17602 083a 01       		.uleb128 0x1
 17603 083b 50       		.byte	0x50
 17604 083c 9F       		.byte	0x9f
 17605 083d 00000000 		.4byte	0
 17606 0841 00000000 		.4byte	0
 17607              	.LLST149:
 17608 0845 00000000 		.4byte	.LVL364
 17609 0849 0C000000 		.4byte	.LVL365
 17610 084d 0100     		.2byte	0x1
 17611 084f 51       		.byte	0x51
 17612 0850 0C000000 		.4byte	.LVL365
 17613 0854 34000000 		.4byte	.LFE290
 17614 0858 0400     		.2byte	0x4
 17615 085a F3       		.byte	0xf3
 17616 085b 01       		.uleb128 0x1
 17617 085c 51       		.byte	0x51
 17618 085d 9F       		.byte	0x9f
 17619 085e 00000000 		.4byte	0
 17620 0862 00000000 		.4byte	0
 17621              	.LLST146:
 17622 0866 00000000 		.4byte	.LVL361
 17623 086a 2D000000 		.4byte	.LVL363-1
 17624 086e 0100     		.2byte	0x1
 17625 0870 50       		.byte	0x50
 17626 0871 2D000000 		.4byte	.LVL363-1
 17627 0875 34000000 		.4byte	.LFE289
 17628 0879 0400     		.2byte	0x4
 17629 087b F3       		.byte	0xf3
 17630 087c 01       		.uleb128 0x1
 17631 087d 50       		.byte	0x50
 17632 087e 9F       		.byte	0x9f
 17633 087f 00000000 		.4byte	0
 17634 0883 00000000 		.4byte	0
 17635              	.LLST147:
 17636 0887 00000000 		.4byte	.LVL361
 17637 088b 0C000000 		.4byte	.LVL362
 17638 088f 0100     		.2byte	0x1
 17639 0891 51       		.byte	0x51
 17640 0892 0C000000 		.4byte	.LVL362
 17641 0896 34000000 		.4byte	.LFE289
 17642 089a 0400     		.2byte	0x4
 17643 089c F3       		.byte	0xf3
 17644 089d 01       		.uleb128 0x1
 17645 089e 51       		.byte	0x51
 17646 089f 9F       		.byte	0x9f
 17647 08a0 00000000 		.4byte	0
 17648 08a4 00000000 		.4byte	0
 17649              	.LLST144:
 17650 08a8 00000000 		.4byte	.LVL358
 17651 08ac 2D000000 		.4byte	.LVL360-1
ARM GAS  C:\Users\Moi\AppData\Local\Temp\ccOzHcBd.s 			page 311


 17652 08b0 0100     		.2byte	0x1
 17653 08b2 50       		.byte	0x50
 17654 08b3 2D000000 		.4byte	.LVL360-1
 17655 08b7 34000000 		.4byte	.LFE288
 17656 08bb 0400     		.2byte	0x4
 17657 08bd F3       		.byte	0xf3
 17658 08be 01       		.uleb128 0x1
 17659 08bf 50       		.byte	0x50
 17660 08c0 9F       		.byte	0x9f
 17661 08c1 00000000 		.4byte	0
 17662 08c5 00000000 		.4byte	0
 17663              	.LLST145:
 17664 08c9 00000000 		.4byte	.LVL358
 17665 08cd 0C000000 		.4byte	.LVL359
 17666 08d1 0100     		.2byte	0x1
 17667 08d3 51       		.byte	0x51
 17668 08d4 0C000000 		.4byte	.LVL359
 17669 08d8 34000000 		.4byte	.LFE288
 17670 08dc 0400     		.2byte	0x4
 17671 08de F3       		.byte	0xf3
 17672 08df 01       		.uleb128 0x1
 17673 08e0 51       		.byte	0x51
 17674 08e1 9F       		.byte	0x9f
 17675 08e2 00000000 		.4byte	0
 17676 08e6 00000000 		.4byte	0
 17677              	.LLST119:
 17678 08ea 00000000 		.4byte	.LVL280
 17679 08ee 1E000000 		.4byte	.LVL282
 17680 08f2 0100     		.2byte	0x1
 17681 08f4 50       		.byte	0x50
 17682 08f5 1E000000 		.4byte	.LVL282
 17683 08f9 3E000000 		.4byte	.LVL285
 17684 08fd 0400     		.2byte	0x4
 17685 08ff F3       		.byte	0xf3
 17686 0900 01       		.uleb128 0x1
 17687 0901 50       		.byte	0x50
 17688 0902 9F       		.byte	0x9f
 17689 0903 3E000000 		.4byte	.LVL285
 17690 0907 56000000 		.4byte	.LVL286
 17691 090b 0100     		.2byte	0x1
 17692 090d 50       		.byte	0x50
 17693 090e 56000000 		.4byte	.LVL286
 17694 0912 60000000 		.4byte	.LFE285
 17695 0916 0400     		.2byte	0x4
 17696 0918 F3       		.byte	0xf3
 17697 0919 01       		.uleb128 0x1
 17698 091a 50       		.byte	0x50
 17699 091b 9F       		.byte	0x9f
 17700 091c 00000000 		.4byte	0
 17701 0920 00000000 		.4byte	0
 17702              	.LLST120:
 17703 0924 00000000 		.4byte	.LVL280
 17704 0928 24000000 		.4byte	.LVL283
 17705 092c 0100     		.2byte	0x1
 17706 092e 51       		.byte	0x51
 17707 092f 24000000 		.4byte	.LVL283
 17708 0933 3E000000 		.4byte	.LVL285
ARM GAS  C:\Users\Moi\AppData\Local\Temp\ccOzHcBd.s 			page 312


 17709 0937 0400     		.2byte	0x4
 17710 0939 F3       		.byte	0xf3
 17711 093a 01       		.uleb128 0x1
 17712 093b 51       		.byte	0x51
 17713 093c 9F       		.byte	0x9f
 17714 093d 3E000000 		.4byte	.LVL285
 17715 0941 56000000 		.4byte	.LVL286
 17716 0945 0100     		.2byte	0x1
 17717 0947 51       		.byte	0x51
 17718 0948 56000000 		.4byte	.LVL286
 17719 094c 60000000 		.4byte	.LFE285
 17720 0950 0400     		.2byte	0x4
 17721 0952 F3       		.byte	0xf3
 17722 0953 01       		.uleb128 0x1
 17723 0954 51       		.byte	0x51
 17724 0955 9F       		.byte	0x9f
 17725 0956 00000000 		.4byte	0
 17726 095a 00000000 		.4byte	0
 17727              	.LLST121:
 17728 095e 1E000000 		.4byte	.LVL282
 17729 0962 2E000000 		.4byte	.LVL284
 17730 0966 1100     		.2byte	0x11
 17731 0968 70       		.byte	0x70
 17732 0969 00       		.sleb128 0
 17733 096a 73       		.byte	0x73
 17734 096b 00       		.sleb128 0
 17735 096c 22       		.byte	0x22
 17736 096d 31       		.byte	0x31
 17737 096e 1C       		.byte	0x1c
 17738 096f F7       		.byte	0xf7
 17739 0970 25       		.uleb128 0x25
 17740 0971 70       		.byte	0x70
 17741 0972 00       		.sleb128 0
 17742 0973 F7       		.byte	0xf7
 17743 0974 25       		.uleb128 0x25
 17744 0975 1B       		.byte	0x1b
 17745 0976 F7       		.byte	0xf7
 17746 0977 00       		.uleb128 0
 17747 0978 9F       		.byte	0x9f
 17748 0979 00000000 		.4byte	0
 17749 097d 00000000 		.4byte	0
 17750              	.LLST107:
 17751 0981 00000000 		.4byte	.LVL249
 17752 0985 2C000000 		.4byte	.LVL252
 17753 0989 0100     		.2byte	0x1
 17754 098b 50       		.byte	0x50
 17755 098c 2C000000 		.4byte	.LVL252
 17756 0990 58000000 		.4byte	.LFE284
 17757 0994 0400     		.2byte	0x4
 17758 0996 F3       		.byte	0xf3
 17759 0997 01       		.uleb128 0x1
 17760 0998 50       		.byte	0x50
 17761 0999 9F       		.byte	0x9f
 17762 099a 00000000 		.4byte	0
 17763 099e 00000000 		.4byte	0
 17764              	.LLST108:
 17765 09a2 00000000 		.4byte	.LVL249
ARM GAS  C:\Users\Moi\AppData\Local\Temp\ccOzHcBd.s 			page 313


 17766 09a6 32000000 		.4byte	.LVL253
 17767 09aa 0100     		.2byte	0x1
 17768 09ac 51       		.byte	0x51
 17769 09ad 32000000 		.4byte	.LVL253
 17770 09b1 58000000 		.4byte	.LFE284
 17771 09b5 0400     		.2byte	0x4
 17772 09b7 F3       		.byte	0xf3
 17773 09b8 01       		.uleb128 0x1
 17774 09b9 51       		.byte	0x51
 17775 09ba 9F       		.byte	0x9f
 17776 09bb 00000000 		.4byte	0
 17777 09bf 00000000 		.4byte	0
 17778              	.LLST109:
 17779 09c3 2A000000 		.4byte	.LVL251
 17780 09c7 42000000 		.4byte	.LVL254
 17781 09cb 1100     		.2byte	0x11
 17782 09cd 72       		.byte	0x72
 17783 09ce 00       		.sleb128 0
 17784 09cf 75       		.byte	0x75
 17785 09d0 00       		.sleb128 0
 17786 09d1 22       		.byte	0x22
 17787 09d2 31       		.byte	0x31
 17788 09d3 1C       		.byte	0x1c
 17789 09d4 F7       		.byte	0xf7
 17790 09d5 25       		.uleb128 0x25
 17791 09d6 75       		.byte	0x75
 17792 09d7 00       		.sleb128 0
 17793 09d8 F7       		.byte	0xf7
 17794 09d9 25       		.uleb128 0x25
 17795 09da 1B       		.byte	0x1b
 17796 09db F7       		.byte	0xf7
 17797 09dc 00       		.uleb128 0
 17798 09dd 9F       		.byte	0x9f
 17799 09de 00000000 		.4byte	0
 17800 09e2 00000000 		.4byte	0
 17801              	.LLST110:
 17802 09e6 0E000000 		.4byte	.LVL250
 17803 09ea 2A000000 		.4byte	.LVL251
 17804 09ee 0100     		.2byte	0x1
 17805 09f0 55       		.byte	0x55
 17806 09f1 2A000000 		.4byte	.LVL251
 17807 09f5 4F000000 		.4byte	.LVL256-1
 17808 09f9 0200     		.2byte	0x2
 17809 09fb 77       		.byte	0x77
 17810 09fc 18       		.sleb128 24
 17811 09fd 00000000 		.4byte	0
 17812 0a01 00000000 		.4byte	0
 17813              	.LLST104:
 17814 0a05 00000000 		.4byte	.LVL245
 17815 0a09 0C000000 		.4byte	.LVL247
 17816 0a0d 0100     		.2byte	0x1
 17817 0a0f 50       		.byte	0x50
 17818 0a10 0C000000 		.4byte	.LVL247
 17819 0a14 30000000 		.4byte	.LFE283
 17820 0a18 0400     		.2byte	0x4
 17821 0a1a F3       		.byte	0xf3
 17822 0a1b 01       		.uleb128 0x1
ARM GAS  C:\Users\Moi\AppData\Local\Temp\ccOzHcBd.s 			page 314


 17823 0a1c 50       		.byte	0x50
 17824 0a1d 9F       		.byte	0x9f
 17825 0a1e 00000000 		.4byte	0
 17826 0a22 00000000 		.4byte	0
 17827              	.LLST105:
 17828 0a26 00000000 		.4byte	.LVL245
 17829 0a2a 06000000 		.4byte	.LVL246
 17830 0a2e 0100     		.2byte	0x1
 17831 0a30 51       		.byte	0x51
 17832 0a31 06000000 		.4byte	.LVL246
 17833 0a35 30000000 		.4byte	.LFE283
 17834 0a39 0400     		.2byte	0x4
 17835 0a3b F3       		.byte	0xf3
 17836 0a3c 01       		.uleb128 0x1
 17837 0a3d 51       		.byte	0x51
 17838 0a3e 9F       		.byte	0x9f
 17839 0a3f 00000000 		.4byte	0
 17840 0a43 00000000 		.4byte	0
 17841              	.LLST106:
 17842 0a47 00000000 		.4byte	.LVL245
 17843 0a4b 29000000 		.4byte	.LVL248-1
 17844 0a4f 0100     		.2byte	0x1
 17845 0a51 52       		.byte	0x52
 17846 0a52 29000000 		.4byte	.LVL248-1
 17847 0a56 30000000 		.4byte	.LFE283
 17848 0a5a 0400     		.2byte	0x4
 17849 0a5c F3       		.byte	0xf3
 17850 0a5d 01       		.uleb128 0x1
 17851 0a5e 52       		.byte	0x52
 17852 0a5f 9F       		.byte	0x9f
 17853 0a60 00000000 		.4byte	0
 17854 0a64 00000000 		.4byte	0
 17855              	.LLST101:
 17856 0a68 00000000 		.4byte	.LVL239
 17857 0a6c 08000000 		.4byte	.LVL240
 17858 0a70 0100     		.2byte	0x1
 17859 0a72 50       		.byte	0x50
 17860 0a73 08000000 		.4byte	.LVL240
 17861 0a77 38000000 		.4byte	.LFE282
 17862 0a7b 0400     		.2byte	0x4
 17863 0a7d F3       		.byte	0xf3
 17864 0a7e 01       		.uleb128 0x1
 17865 0a7f 50       		.byte	0x50
 17866 0a80 9F       		.byte	0x9f
 17867 0a81 00000000 		.4byte	0
 17868 0a85 00000000 		.4byte	0
 17869              	.LLST102:
 17870 0a89 00000000 		.4byte	.LVL239
 17871 0a8d 0C000000 		.4byte	.LVL241
 17872 0a91 0100     		.2byte	0x1
 17873 0a93 51       		.byte	0x51
 17874 0a94 0C000000 		.4byte	.LVL241
 17875 0a98 38000000 		.4byte	.LFE282
 17876 0a9c 0400     		.2byte	0x4
 17877 0a9e F3       		.byte	0xf3
 17878 0a9f 01       		.uleb128 0x1
 17879 0aa0 51       		.byte	0x51
ARM GAS  C:\Users\Moi\AppData\Local\Temp\ccOzHcBd.s 			page 315


 17880 0aa1 9F       		.byte	0x9f
 17881 0aa2 00000000 		.4byte	0
 17882 0aa6 00000000 		.4byte	0
 17883              	.LLST103:
 17884 0aaa 12000000 		.4byte	.LVL242
 17885 0aae 26000000 		.4byte	.LVL243
 17886 0ab2 0100     		.2byte	0x1
 17887 0ab4 53       		.byte	0x53
 17888 0ab5 00000000 		.4byte	0
 17889 0ab9 00000000 		.4byte	0
 17890              	.LLST98:
 17891 0abd 00000000 		.4byte	.LVL233
 17892 0ac1 08000000 		.4byte	.LVL234
 17893 0ac5 0100     		.2byte	0x1
 17894 0ac7 50       		.byte	0x50
 17895 0ac8 08000000 		.4byte	.LVL234
 17896 0acc 38000000 		.4byte	.LFE281
 17897 0ad0 0400     		.2byte	0x4
 17898 0ad2 F3       		.byte	0xf3
 17899 0ad3 01       		.uleb128 0x1
 17900 0ad4 50       		.byte	0x50
 17901 0ad5 9F       		.byte	0x9f
 17902 0ad6 00000000 		.4byte	0
 17903 0ada 00000000 		.4byte	0
 17904              	.LLST99:
 17905 0ade 00000000 		.4byte	.LVL233
 17906 0ae2 0C000000 		.4byte	.LVL235
 17907 0ae6 0100     		.2byte	0x1
 17908 0ae8 51       		.byte	0x51
 17909 0ae9 0C000000 		.4byte	.LVL235
 17910 0aed 38000000 		.4byte	.LFE281
 17911 0af1 0400     		.2byte	0x4
 17912 0af3 F3       		.byte	0xf3
 17913 0af4 01       		.uleb128 0x1
 17914 0af5 51       		.byte	0x51
 17915 0af6 9F       		.byte	0x9f
 17916 0af7 00000000 		.4byte	0
 17917 0afb 00000000 		.4byte	0
 17918              	.LLST100:
 17919 0aff 12000000 		.4byte	.LVL236
 17920 0b03 26000000 		.4byte	.LVL237
 17921 0b07 0100     		.2byte	0x1
 17922 0b09 53       		.byte	0x53
 17923 0b0a 00000000 		.4byte	0
 17924 0b0e 00000000 		.4byte	0
 17925              	.LLST95:
 17926 0b12 00000000 		.4byte	.LVL228
 17927 0b16 1A000000 		.4byte	.LVL230
 17928 0b1a 0100     		.2byte	0x1
 17929 0b1c 50       		.byte	0x50
 17930 0b1d 1A000000 		.4byte	.LVL230
 17931 0b21 24000000 		.4byte	.LVL231
 17932 0b25 0400     		.2byte	0x4
 17933 0b27 F3       		.byte	0xf3
 17934 0b28 01       		.uleb128 0x1
 17935 0b29 50       		.byte	0x50
 17936 0b2a 9F       		.byte	0x9f
ARM GAS  C:\Users\Moi\AppData\Local\Temp\ccOzHcBd.s 			page 316


 17937 0b2b 24000000 		.4byte	.LVL231
 17938 0b2f 27000000 		.4byte	.LVL232-1
 17939 0b33 0100     		.2byte	0x1
 17940 0b35 50       		.byte	0x50
 17941 0b36 27000000 		.4byte	.LVL232-1
 17942 0b3a 2C000000 		.4byte	.LFE280
 17943 0b3e 0400     		.2byte	0x4
 17944 0b40 F3       		.byte	0xf3
 17945 0b41 01       		.uleb128 0x1
 17946 0b42 50       		.byte	0x50
 17947 0b43 9F       		.byte	0x9f
 17948 0b44 00000000 		.4byte	0
 17949 0b48 00000000 		.4byte	0
 17950              	.LLST96:
 17951 0b4c 06000000 		.4byte	.LVL229
 17952 0b50 1A000000 		.4byte	.LVL230
 17953 0b54 0100     		.2byte	0x1
 17954 0b56 50       		.byte	0x50
 17955 0b57 1A000000 		.4byte	.LVL230
 17956 0b5b 24000000 		.4byte	.LVL231
 17957 0b5f 0400     		.2byte	0x4
 17958 0b61 F3       		.byte	0xf3
 17959 0b62 01       		.uleb128 0x1
 17960 0b63 50       		.byte	0x50
 17961 0b64 9F       		.byte	0x9f
 17962 0b65 24000000 		.4byte	.LVL231
 17963 0b69 27000000 		.4byte	.LVL232-1
 17964 0b6d 0100     		.2byte	0x1
 17965 0b6f 50       		.byte	0x50
 17966 0b70 27000000 		.4byte	.LVL232-1
 17967 0b74 2C000000 		.4byte	.LFE280
 17968 0b78 0400     		.2byte	0x4
 17969 0b7a F3       		.byte	0xf3
 17970 0b7b 01       		.uleb128 0x1
 17971 0b7c 50       		.byte	0x50
 17972 0b7d 9F       		.byte	0x9f
 17973 0b7e 00000000 		.4byte	0
 17974 0b82 00000000 		.4byte	0
 17975              	.LLST97:
 17976 0b86 06000000 		.4byte	.LVL229
 17977 0b8a 1A000000 		.4byte	.LVL230
 17978 0b8e 0100     		.2byte	0x1
 17979 0b90 50       		.byte	0x50
 17980 0b91 1A000000 		.4byte	.LVL230
 17981 0b95 24000000 		.4byte	.LVL231
 17982 0b99 0400     		.2byte	0x4
 17983 0b9b F3       		.byte	0xf3
 17984 0b9c 01       		.uleb128 0x1
 17985 0b9d 50       		.byte	0x50
 17986 0b9e 9F       		.byte	0x9f
 17987 0b9f 24000000 		.4byte	.LVL231
 17988 0ba3 27000000 		.4byte	.LVL232-1
 17989 0ba7 0100     		.2byte	0x1
 17990 0ba9 50       		.byte	0x50
 17991 0baa 27000000 		.4byte	.LVL232-1
 17992 0bae 2C000000 		.4byte	.LFE280
 17993 0bb2 0400     		.2byte	0x4
ARM GAS  C:\Users\Moi\AppData\Local\Temp\ccOzHcBd.s 			page 317


 17994 0bb4 F3       		.byte	0xf3
 17995 0bb5 01       		.uleb128 0x1
 17996 0bb6 50       		.byte	0x50
 17997 0bb7 9F       		.byte	0x9f
 17998 0bb8 00000000 		.4byte	0
 17999 0bbc 00000000 		.4byte	0
 18000              	.LLST78:
 18001 0bc0 00000000 		.4byte	.LVL203
 18002 0bc4 32000000 		.4byte	.LVL206
 18003 0bc8 0100     		.2byte	0x1
 18004 0bca 50       		.byte	0x50
 18005 0bcb 32000000 		.4byte	.LVL206
 18006 0bcf 60010000 		.4byte	.LVL222
 18007 0bd3 0100     		.2byte	0x1
 18008 0bd5 57       		.byte	0x57
 18009 0bd6 60010000 		.4byte	.LVL222
 18010 0bda 6C010000 		.4byte	.LVL224
 18011 0bde 0100     		.2byte	0x1
 18012 0be0 50       		.byte	0x50
 18013 0be1 6C010000 		.4byte	.LVL224
 18014 0be5 9C010000 		.4byte	.LFE279
 18015 0be9 0100     		.2byte	0x1
 18016 0beb 57       		.byte	0x57
 18017 0bec 00000000 		.4byte	0
 18018 0bf0 00000000 		.4byte	0
 18019              	.LLST79:
 18020 0bf4 00000000 		.4byte	.LVL203
 18021 0bf8 22000000 		.4byte	.LVL204
 18022 0bfc 0100     		.2byte	0x1
 18023 0bfe 51       		.byte	0x51
 18024 0bff 22000000 		.4byte	.LVL204
 18025 0c03 9C010000 		.4byte	.LFE279
 18026 0c07 0400     		.2byte	0x4
 18027 0c09 F3       		.byte	0xf3
 18028 0c0a 01       		.uleb128 0x1
 18029 0c0b 51       		.byte	0x51
 18030 0c0c 9F       		.byte	0x9f
 18031 0c0d 00000000 		.4byte	0
 18032 0c11 00000000 		.4byte	0
 18033              	.LLST80:
 18034 0c15 3E000000 		.4byte	.LVL207
 18035 0c19 60010000 		.4byte	.LVL222
 18036 0c1d 0100     		.2byte	0x1
 18037 0c1f 5B       		.byte	0x5b
 18038 0c20 60010000 		.4byte	.LVL222
 18039 0c24 66010000 		.4byte	.LVL223
 18040 0c28 0600     		.2byte	0x6
 18041 0c2a 0C       		.byte	0xc
 18042 0c2b 00800C10 		.4byte	0x100c8000
 18043 0c2f 9F       		.byte	0x9f
 18044 0c30 66010000 		.4byte	.LVL223
 18045 0c34 6C010000 		.4byte	.LVL224
 18046 0c38 0600     		.2byte	0x6
 18047 0c3a 0C       		.byte	0xc
 18048 0c3b 00800810 		.4byte	0x10088000
 18049 0c3f 9F       		.byte	0x9f
 18050 0c40 6C010000 		.4byte	.LVL224
ARM GAS  C:\Users\Moi\AppData\Local\Temp\ccOzHcBd.s 			page 318


 18051 0c44 9C010000 		.4byte	.LFE279
 18052 0c48 0100     		.2byte	0x1
 18053 0c4a 5B       		.byte	0x5b
 18054 0c4b 00000000 		.4byte	0
 18055 0c4f 00000000 		.4byte	0
 18056              	.LLST81:
 18057 0c53 96000000 		.4byte	.LVL208
 18058 0c57 AC000000 		.4byte	.LVL211
 18059 0c5b 0100     		.2byte	0x1
 18060 0c5d 56       		.byte	0x56
 18061 0c5e 00000000 		.4byte	0
 18062 0c62 00000000 		.4byte	0
 18063              	.LLST82:
 18064 0c66 26000000 		.4byte	.LVL205
 18065 0c6a 32000000 		.4byte	.LVL206
 18066 0c6e 0300     		.2byte	0x3
 18067 0c70 70       		.byte	0x70
 18068 0c71 D000     		.sleb128 80
 18069 0c73 32000000 		.4byte	.LVL206
 18070 0c77 AE000000 		.4byte	.LVL212
 18071 0c7b 0300     		.2byte	0x3
 18072 0c7d 77       		.byte	0x77
 18073 0c7e D000     		.sleb128 80
 18074 0c80 00010000 		.4byte	.LVL217
 18075 0c84 21010000 		.4byte	.LVL220-1
 18076 0c88 0300     		.2byte	0x3
 18077 0c8a 77       		.byte	0x77
 18078 0c8b D000     		.sleb128 80
 18079 0c8d 42010000 		.4byte	.LVL221
 18080 0c91 60010000 		.4byte	.LVL222
 18081 0c95 0300     		.2byte	0x3
 18082 0c97 77       		.byte	0x77
 18083 0c98 D000     		.sleb128 80
 18084 0c9a 60010000 		.4byte	.LVL222
 18085 0c9e 6C010000 		.4byte	.LVL224
 18086 0ca2 0300     		.2byte	0x3
 18087 0ca4 70       		.byte	0x70
 18088 0ca5 D000     		.sleb128 80
 18089 0ca7 6C010000 		.4byte	.LVL224
 18090 0cab 75010000 		.4byte	.LVL225-1
 18091 0caf 0300     		.2byte	0x3
 18092 0cb1 77       		.byte	0x77
 18093 0cb2 D000     		.sleb128 80
 18094 0cb4 00000000 		.4byte	0
 18095 0cb8 00000000 		.4byte	0
 18096              	.LLST83:
 18097 0cbc A0000000 		.4byte	.LVL210
 18098 0cc0 F0000000 		.4byte	.LVL216
 18099 0cc4 0100     		.2byte	0x1
 18100 0cc6 57       		.byte	0x57
 18101 0cc7 6C010000 		.4byte	.LVL224
 18102 0ccb 7C010000 		.4byte	.LVL226
 18103 0ccf 0100     		.2byte	0x1
 18104 0cd1 57       		.byte	0x57
 18105 0cd2 00000000 		.4byte	0
 18106 0cd6 00000000 		.4byte	0
 18107              	.LLST85:
ARM GAS  C:\Users\Moi\AppData\Local\Temp\ccOzHcBd.s 			page 319


 18108 0cda A0000000 		.4byte	.LVL210
 18109 0cde AC000000 		.4byte	.LVL211
 18110 0ce2 0100     		.2byte	0x1
 18111 0ce4 56       		.byte	0x56
 18112 0ce5 00000000 		.4byte	0
 18113 0ce9 00000000 		.4byte	0
 18114              	.LLST86:
 18115 0ced A0000000 		.4byte	.LVL210
 18116 0cf1 AE000000 		.4byte	.LVL212
 18117 0cf5 0100     		.2byte	0x1
 18118 0cf7 53       		.byte	0x53
 18119 0cf8 6C010000 		.4byte	.LVL224
 18120 0cfc 75010000 		.4byte	.LVL225-1
 18121 0d00 0100     		.2byte	0x1
 18122 0d02 53       		.byte	0x53
 18123 0d03 75010000 		.4byte	.LVL225-1
 18124 0d07 7C010000 		.4byte	.LVL226
 18125 0d0b 0200     		.2byte	0x2
 18126 0d0d 7D       		.byte	0x7d
 18127 0d0e 00       		.sleb128 0
 18128 0d0f 00000000 		.4byte	0
 18129 0d13 00000000 		.4byte	0
 18130              	.LLST87:
 18131 0d17 B2000000 		.4byte	.LVL213
 18132 0d1b F0000000 		.4byte	.LVL216
 18133 0d1f 0100     		.2byte	0x1
 18134 0d21 57       		.byte	0x57
 18135 0d22 00000000 		.4byte	0
 18136 0d26 00000000 		.4byte	0
 18137              	.LLST88:
 18138 0d2a B2000000 		.4byte	.LVL213
 18139 0d2e CA000000 		.4byte	.LVL215
 18140 0d32 0600     		.2byte	0x6
 18141 0d34 75       		.byte	0x75
 18142 0d35 00       		.sleb128 0
 18143 0d36 08       		.byte	0x8
 18144 0d37 FF       		.byte	0xff
 18145 0d38 1A       		.byte	0x1a
 18146 0d39 9F       		.byte	0x9f
 18147 0d3a 00000000 		.4byte	0
 18148 0d3e 00000000 		.4byte	0
 18149              	.LLST89:
 18150 0d42 B2000000 		.4byte	.LVL213
 18151 0d46 C9000000 		.4byte	.LVL215-1
 18152 0d4a 0100     		.2byte	0x1
 18153 0d4c 51       		.byte	0x51
 18154 0d4d 00000000 		.4byte	0
 18155 0d51 00000000 		.4byte	0
 18156              	.LLST90:
 18157 0d55 C4000000 		.4byte	.LVL214
 18158 0d59 CA000000 		.4byte	.LVL215
 18159 0d5d 0200     		.2byte	0x2
 18160 0d5f 3C       		.byte	0x3c
 18161 0d60 9F       		.byte	0x9f
 18162 0d61 00000000 		.4byte	0
 18163 0d65 00000000 		.4byte	0
 18164              	.LLST91:
ARM GAS  C:\Users\Moi\AppData\Local\Temp\ccOzHcBd.s 			page 320


 18165 0d69 06010000 		.4byte	.LVL218
 18166 0d6d 42010000 		.4byte	.LVL221
 18167 0d71 0100     		.2byte	0x1
 18168 0d73 57       		.byte	0x57
 18169 0d74 00000000 		.4byte	0
 18170 0d78 00000000 		.4byte	0
 18171              	.LLST92:
 18172 0d7c 06010000 		.4byte	.LVL218
 18173 0d80 22010000 		.4byte	.LVL220
 18174 0d84 0600     		.2byte	0x6
 18175 0d86 75       		.byte	0x75
 18176 0d87 00       		.sleb128 0
 18177 0d88 08       		.byte	0x8
 18178 0d89 FF       		.byte	0xff
 18179 0d8a 1A       		.byte	0x1a
 18180 0d8b 9F       		.byte	0x9f
 18181 0d8c 00000000 		.4byte	0
 18182 0d90 00000000 		.4byte	0
 18183              	.LLST93:
 18184 0d94 06010000 		.4byte	.LVL218
 18185 0d98 21010000 		.4byte	.LVL220-1
 18186 0d9c 0100     		.2byte	0x1
 18187 0d9e 52       		.byte	0x52
 18188 0d9f 00000000 		.4byte	0
 18189 0da3 00000000 		.4byte	0
 18190              	.LLST94:
 18191 0da7 18010000 		.4byte	.LVL219
 18192 0dab 22010000 		.4byte	.LVL220
 18193 0daf 0200     		.2byte	0x2
 18194 0db1 3C       		.byte	0x3c
 18195 0db2 9F       		.byte	0x9f
 18196 0db3 00000000 		.4byte	0
 18197 0db7 00000000 		.4byte	0
 18198              	.LLST76:
 18199 0dbb 00000000 		.4byte	.LVL198
 18200 0dbf 0C000000 		.4byte	.LVL200
 18201 0dc3 0100     		.2byte	0x1
 18202 0dc5 50       		.byte	0x50
 18203 0dc6 0C000000 		.4byte	.LVL200
 18204 0dca 38000000 		.4byte	.LFE278
 18205 0dce 0400     		.2byte	0x4
 18206 0dd0 F3       		.byte	0xf3
 18207 0dd1 01       		.uleb128 0x1
 18208 0dd2 50       		.byte	0x50
 18209 0dd3 9F       		.byte	0x9f
 18210 0dd4 00000000 		.4byte	0
 18211 0dd8 00000000 		.4byte	0
 18212              	.LLST77:
 18213 0ddc 06000000 		.4byte	.LVL199
 18214 0de0 22000000 		.4byte	.LVL201
 18215 0de4 0100     		.2byte	0x1
 18216 0de6 51       		.byte	0x51
 18217 0de7 22000000 		.4byte	.LVL201
 18218 0deb 31000000 		.4byte	.LVL202-1
 18219 0def 0500     		.2byte	0x5
 18220 0df1 F3       		.byte	0xf3
 18221 0df2 01       		.uleb128 0x1
ARM GAS  C:\Users\Moi\AppData\Local\Temp\ccOzHcBd.s 			page 321


 18222 0df3 50       		.byte	0x50
 18223 0df4 23       		.byte	0x23
 18224 0df5 50       		.uleb128 0x50
 18225 0df6 00000000 		.4byte	0
 18226 0dfa 00000000 		.4byte	0
 18227              	.LLST66:
 18228 0dfe 00000000 		.4byte	.LVL181
 18229 0e02 1C000000 		.4byte	.LVL185
 18230 0e06 0100     		.2byte	0x1
 18231 0e08 50       		.byte	0x50
 18232 0e09 1C000000 		.4byte	.LVL185
 18233 0e0d F0000000 		.4byte	.LFE277
 18234 0e11 0100     		.2byte	0x1
 18235 0e13 57       		.byte	0x57
 18236 0e14 00000000 		.4byte	0
 18237 0e18 00000000 		.4byte	0
 18238              	.LLST67:
 18239 0e1c 20000000 		.4byte	.LVL186
 18240 0e20 32000000 		.4byte	.LVL187
 18241 0e24 0200     		.2byte	0x2
 18242 0e26 30       		.byte	0x30
 18243 0e27 9F       		.byte	0x9f
 18244 0e28 32000000 		.4byte	.LVL187
 18245 0e2c 50000000 		.4byte	.LVL189
 18246 0e30 0100     		.2byte	0x1
 18247 0e32 53       		.byte	0x53
 18248 0e33 00000000 		.4byte	0
 18249 0e37 00000000 		.4byte	0
 18250              	.LLST68:
 18251 0e3b 0C000000 		.4byte	.LVL183
 18252 0e3f 1C000000 		.4byte	.LVL185
 18253 0e43 0100     		.2byte	0x1
 18254 0e45 50       		.byte	0x50
 18255 0e46 1C000000 		.4byte	.LVL185
 18256 0e4a F0000000 		.4byte	.LFE277
 18257 0e4e 0100     		.2byte	0x1
 18258 0e50 57       		.byte	0x57
 18259 0e51 00000000 		.4byte	0
 18260 0e55 00000000 		.4byte	0
 18261              	.LLST69:
 18262 0e59 0C000000 		.4byte	.LVL183
 18263 0e5d 20000000 		.4byte	.LVL186
 18264 0e61 0200     		.2byte	0x2
 18265 0e63 30       		.byte	0x30
 18266 0e64 9F       		.byte	0x9f
 18267 0e65 00000000 		.4byte	0
 18268 0e69 00000000 		.4byte	0
 18269              	.LLST70:
 18270 0e6d 0C000000 		.4byte	.LVL183
 18271 0e71 20000000 		.4byte	.LVL186
 18272 0e75 0100     		.2byte	0x1
 18273 0e77 55       		.byte	0x55
 18274 0e78 00000000 		.4byte	0
 18275 0e7c 00000000 		.4byte	0
 18276              	.LLST71:
 18277 0e80 1A000000 		.4byte	.LVL184
 18278 0e84 20000000 		.4byte	.LVL186
ARM GAS  C:\Users\Moi\AppData\Local\Temp\ccOzHcBd.s 			page 322


 18279 0e88 0200     		.2byte	0x2
 18280 0e8a 3C       		.byte	0x3c
 18281 0e8b 9F       		.byte	0x9f
 18282 0e8c 00000000 		.4byte	0
 18283 0e90 00000000 		.4byte	0
 18284              	.LLST72:
 18285 0e94 68000000 		.4byte	.LVL191
 18286 0e98 7B000000 		.4byte	.LVL193-1
 18287 0e9c 0100     		.2byte	0x1
 18288 0e9e 52       		.byte	0x52
 18289 0e9f 00000000 		.4byte	0
 18290 0ea3 00000000 		.4byte	0
 18291              	.LLST73:
 18292 0ea7 76000000 		.4byte	.LVL192
 18293 0eab 7C000000 		.4byte	.LVL193
 18294 0eaf 0200     		.2byte	0x2
 18295 0eb1 3C       		.byte	0x3c
 18296 0eb2 9F       		.byte	0x9f
 18297 0eb3 00000000 		.4byte	0
 18298 0eb7 00000000 		.4byte	0
 18299              	.LLST74:
 18300 0ebb B8000000 		.4byte	.LVL194
 18301 0ebf CA000000 		.4byte	.LVL195
 18302 0ec3 0200     		.2byte	0x2
 18303 0ec5 40       		.byte	0x40
 18304 0ec6 9F       		.byte	0x9f
 18305 0ec7 00000000 		.4byte	0
 18306 0ecb 00000000 		.4byte	0
 18307              	.LLST75:
 18308 0ecf B8000000 		.4byte	.LVL194
 18309 0ed3 CA000000 		.4byte	.LVL195
 18310 0ed7 0100     		.2byte	0x1
 18311 0ed9 54       		.byte	0x54
 18312 0eda 00000000 		.4byte	0
 18313 0ede 00000000 		.4byte	0
 18314              	.LLST64:
 18315 0ee2 00000000 		.4byte	.LVL172
 18316 0ee6 18000000 		.4byte	.LVL174
 18317 0eea 0100     		.2byte	0x1
 18318 0eec 50       		.byte	0x50
 18319 0eed 18000000 		.4byte	.LVL174
 18320 0ef1 2E000000 		.4byte	.LVL176
 18321 0ef5 0100     		.2byte	0x1
 18322 0ef7 54       		.byte	0x54
 18323 0ef8 2E000000 		.4byte	.LVL176
 18324 0efc 3A000000 		.4byte	.LVL177
 18325 0f00 0400     		.2byte	0x4
 18326 0f02 F3       		.byte	0xf3
 18327 0f03 01       		.uleb128 0x1
 18328 0f04 50       		.byte	0x50
 18329 0f05 9F       		.byte	0x9f
 18330 0f06 3A000000 		.4byte	.LVL177
 18331 0f0a 4C000000 		.4byte	.LVL179
 18332 0f0e 0100     		.2byte	0x1
 18333 0f10 54       		.byte	0x54
 18334 0f11 4C000000 		.4byte	.LVL179
 18335 0f15 5C000000 		.4byte	.LFE276
ARM GAS  C:\Users\Moi\AppData\Local\Temp\ccOzHcBd.s 			page 323


 18336 0f19 0400     		.2byte	0x4
 18337 0f1b F3       		.byte	0xf3
 18338 0f1c 01       		.uleb128 0x1
 18339 0f1d 50       		.byte	0x50
 18340 0f1e 9F       		.byte	0x9f
 18341 0f1f 00000000 		.4byte	0
 18342 0f23 00000000 		.4byte	0
 18343              	.LLST65:
 18344 0f27 0C000000 		.4byte	.LVL173
 18345 0f2b 18000000 		.4byte	.LVL174
 18346 0f2f 0300     		.2byte	0x3
 18347 0f31 70       		.byte	0x70
 18348 0f32 D000     		.sleb128 80
 18349 0f34 18000000 		.4byte	.LVL174
 18350 0f38 1B000000 		.4byte	.LVL175-1
 18351 0f3c 0300     		.2byte	0x3
 18352 0f3e 74       		.byte	0x74
 18353 0f3f D000     		.sleb128 80
 18354 0f41 00000000 		.4byte	0
 18355 0f45 00000000 		.4byte	0
 18356              	.LLST57:
 18357 0f49 00000000 		.4byte	.LVL150
 18358 0f4d 10000000 		.4byte	.LVL152
 18359 0f51 0100     		.2byte	0x1
 18360 0f53 50       		.byte	0x50
 18361 0f54 10000000 		.4byte	.LVL152
 18362 0f58 1C000000 		.4byte	.LVL153
 18363 0f5c 0400     		.2byte	0x4
 18364 0f5e F3       		.byte	0xf3
 18365 0f5f 01       		.uleb128 0x1
 18366 0f60 50       		.byte	0x50
 18367 0f61 9F       		.byte	0x9f
 18368 0f62 1C000000 		.4byte	.LVL153
 18369 0f66 28000000 		.4byte	.LVL154
 18370 0f6a 0100     		.2byte	0x1
 18371 0f6c 50       		.byte	0x50
 18372 0f6d 28000000 		.4byte	.LVL154
 18373 0f71 9C000000 		.4byte	.LVL160
 18374 0f75 0100     		.2byte	0x1
 18375 0f77 56       		.byte	0x56
 18376 0f78 9C000000 		.4byte	.LVL160
 18377 0f7c B2000000 		.4byte	.LVL161
 18378 0f80 0100     		.2byte	0x1
 18379 0f82 50       		.byte	0x50
 18380 0f83 B2000000 		.4byte	.LVL161
 18381 0f87 EE000000 		.4byte	.LVL170
 18382 0f8b 0100     		.2byte	0x1
 18383 0f8d 56       		.byte	0x56
 18384 0f8e EE000000 		.4byte	.LVL170
 18385 0f92 10010000 		.4byte	.LFE275
 18386 0f96 0400     		.2byte	0x4
 18387 0f98 F3       		.byte	0xf3
 18388 0f99 01       		.uleb128 0x1
 18389 0f9a 50       		.byte	0x50
 18390 0f9b 9F       		.byte	0x9f
 18391 0f9c 00000000 		.4byte	0
 18392 0fa0 00000000 		.4byte	0
ARM GAS  C:\Users\Moi\AppData\Local\Temp\ccOzHcBd.s 			page 324


 18393              	.LLST58:
 18394 0fa4 0C000000 		.4byte	.LVL151
 18395 0fa8 10000000 		.4byte	.LVL152
 18396 0fac 0300     		.2byte	0x3
 18397 0fae 70       		.byte	0x70
 18398 0faf D000     		.sleb128 80
 18399 0fb1 1C000000 		.4byte	.LVL153
 18400 0fb5 28000000 		.4byte	.LVL154
 18401 0fb9 0300     		.2byte	0x3
 18402 0fbb 70       		.byte	0x70
 18403 0fbc D000     		.sleb128 80
 18404 0fbe 9C000000 		.4byte	.LVL160
 18405 0fc2 B2000000 		.4byte	.LVL161
 18406 0fc6 0300     		.2byte	0x3
 18407 0fc8 70       		.byte	0x70
 18408 0fc9 D000     		.sleb128 80
 18409 0fcb B2000000 		.4byte	.LVL161
 18410 0fcf B9000000 		.4byte	.LVL162-1
 18411 0fd3 0300     		.2byte	0x3
 18412 0fd5 76       		.byte	0x76
 18413 0fd6 D000     		.sleb128 80
 18414 0fd8 00000000 		.4byte	0
 18415 0fdc 00000000 		.4byte	0
 18416              	.LLST59:
 18417 0fe0 42000000 		.4byte	.LVL155
 18418 0fe4 9C000000 		.4byte	.LVL160
 18419 0fe8 0100     		.2byte	0x1
 18420 0fea 56       		.byte	0x56
 18421 0feb BE000000 		.4byte	.LVL163
 18422 0fef EE000000 		.4byte	.LVL170
 18423 0ff3 0100     		.2byte	0x1
 18424 0ff5 56       		.byte	0x56
 18425 0ff6 00000000 		.4byte	0
 18426 0ffa 00000000 		.4byte	0
 18427              	.LLST60:
 18428 0ffe 42000000 		.4byte	.LVL155
 18429 1002 45000000 		.4byte	.LVL156-1
 18430 1006 0300     		.2byte	0x3
 18431 1008 76       		.byte	0x76
 18432 1009 D000     		.sleb128 80
 18433 100b 00000000 		.4byte	0
 18434 100f 00000000 		.4byte	0
 18435              	.LLST61:
 18436 1013 42000000 		.4byte	.LVL155
 18437 1017 46000000 		.4byte	.LVL156
 18438 101b 0300     		.2byte	0x3
 18439 101d 08       		.byte	0x8
 18440 101e 20       		.byte	0x20
 18441 101f 9F       		.byte	0x9f
 18442 1020 00000000 		.4byte	0
 18443 1024 00000000 		.4byte	0
 18444              	.LLST62:
 18445 1028 50000000 		.4byte	.LVL157
 18446 102c 9C000000 		.4byte	.LVL160
 18447 1030 0200     		.2byte	0x2
 18448 1032 3C       		.byte	0x3c
 18449 1033 9F       		.byte	0x9f
ARM GAS  C:\Users\Moi\AppData\Local\Temp\ccOzHcBd.s 			page 325


 18450 1034 BE000000 		.4byte	.LVL163
 18451 1038 EE000000 		.4byte	.LVL170
 18452 103c 0200     		.2byte	0x2
 18453 103e 3C       		.byte	0x3c
 18454 103f 9F       		.byte	0x9f
 18455 1040 00000000 		.4byte	0
 18456 1044 00000000 		.4byte	0
 18457              	.LLST63:
 18458 1048 D2000000 		.4byte	.LVL165
 18459 104c DE000000 		.4byte	.LVL166
 18460 1050 0100     		.2byte	0x1
 18461 1052 50       		.byte	0x50
 18462 1053 DE000000 		.4byte	.LVL166
 18463 1057 E8000000 		.4byte	.LVL168
 18464 105b 0100     		.2byte	0x1
 18465 105d 54       		.byte	0x54
 18466 105e 00000000 		.4byte	0
 18467 1062 00000000 		.4byte	0
 18468              	.LLST132:
 18469 1066 14000000 		.4byte	.LVL316
 18470 106a 68000000 		.4byte	.LVL324
 18471 106e 0600     		.2byte	0x6
 18472 1070 03       		.byte	0x3
 18473 1071 00000000 		.4byte	USBD1
 18474 1075 9F       		.byte	0x9f
 18475 1076 7E000000 		.4byte	.LVL326
 18476 107a 12010000 		.4byte	.LVL349
 18477 107e 0600     		.2byte	0x6
 18478 1080 03       		.byte	0x3
 18479 1081 00000000 		.4byte	USBD1
 18480 1085 9F       		.byte	0x9f
 18481 1086 00000000 		.4byte	0
 18482 108a 00000000 		.4byte	0
 18483              	.LLST133:
 18484 108e 16000000 		.4byte	.LVL317
 18485 1092 52000000 		.4byte	.LVL322
 18486 1096 0100     		.2byte	0x1
 18487 1098 56       		.byte	0x56
 18488 1099 7E000000 		.4byte	.LVL326
 18489 109d C2000000 		.4byte	.LVL337
 18490 10a1 0100     		.2byte	0x1
 18491 10a3 56       		.byte	0x56
 18492 10a4 F2000000 		.4byte	.LVL344
 18493 10a8 0E010000 		.4byte	.LVL348
 18494 10ac 0100     		.2byte	0x1
 18495 10ae 56       		.byte	0x56
 18496 10af 00000000 		.4byte	0
 18497 10b3 00000000 		.4byte	0
 18498              	.LLST134:
 18499 10b7 18000000 		.4byte	.LVL318
 18500 10bb 56000000 		.4byte	.LVL323
 18501 10bf 0100     		.2byte	0x1
 18502 10c1 54       		.byte	0x54
 18503 10c2 7E000000 		.4byte	.LVL326
 18504 10c6 C2000000 		.4byte	.LVL337
 18505 10ca 0100     		.2byte	0x1
 18506 10cc 54       		.byte	0x54
ARM GAS  C:\Users\Moi\AppData\Local\Temp\ccOzHcBd.s 			page 326


 18507 10cd EA000000 		.4byte	.LVL342
 18508 10d1 12010000 		.4byte	.LVL349
 18509 10d5 0100     		.2byte	0x1
 18510 10d7 54       		.byte	0x54
 18511 10d8 00000000 		.4byte	0
 18512 10dc 00000000 		.4byte	0
 18513              	.LLST135:
 18514 10e0 42000000 		.4byte	.LVL321
 18515 10e4 68000000 		.4byte	.LVL324
 18516 10e8 0100     		.2byte	0x1
 18517 10ea 55       		.byte	0x55
 18518 10eb C2000000 		.4byte	.LVL337
 18519 10ef 12010000 		.4byte	.LVL349
 18520 10f3 0100     		.2byte	0x1
 18521 10f5 55       		.byte	0x55
 18522 10f6 00000000 		.4byte	0
 18523 10fa 00000000 		.4byte	0
 18524              	.LLST136:
 18525 10fe 7E000000 		.4byte	.LVL326
 18526 1102 84000000 		.4byte	.LVL327
 18527 1106 0300     		.2byte	0x3
 18528 1108 08       		.byte	0x8
 18529 1109 20       		.byte	0x20
 18530 110a 9F       		.byte	0x9f
 18531 110b 00000000 		.4byte	0
 18532 110f 00000000 		.4byte	0
 18533              	.LLST137:
 18534 1113 96000000 		.4byte	.LVL330
 18535 1117 9C000000 		.4byte	.LVL331
 18536 111b 0200     		.2byte	0x2
 18537 111d 30       		.byte	0x30
 18538 111e 9F       		.byte	0x9f
 18539 111f 00000000 		.4byte	0
 18540 1123 00000000 		.4byte	0
 18541              	.LLST138:
 18542 1127 96000000 		.4byte	.LVL330
 18543 112b 9C000000 		.4byte	.LVL331
 18544 112f 0600     		.2byte	0x6
 18545 1131 03       		.byte	0x3
 18546 1132 60000000 		.4byte	USBD1+96
 18547 1136 9F       		.byte	0x9f
 18548 1137 00000000 		.4byte	0
 18549 113b 00000000 		.4byte	0
 18550              	.LLST139:
 18551 113f A4000000 		.4byte	.LVL333
 18552 1143 AA000000 		.4byte	.LVL334
 18553 1147 0200     		.2byte	0x2
 18554 1149 30       		.byte	0x30
 18555 114a 9F       		.byte	0x9f
 18556 114b 00000000 		.4byte	0
 18557 114f 00000000 		.4byte	0
 18558              	.LLST0:
 18559 1153 10000000 		.4byte	.LVL0
 18560 1157 20000000 		.4byte	.LVL1
 18561 115b 0200     		.2byte	0x2
 18562 115d 30       		.byte	0x30
 18563 115e 9F       		.byte	0x9f
ARM GAS  C:\Users\Moi\AppData\Local\Temp\ccOzHcBd.s 			page 327


 18564 115f 20000000 		.4byte	.LVL1
 18565 1163 94000000 		.4byte	.LFE293
 18566 1167 0100     		.2byte	0x1
 18567 1169 54       		.byte	0x54
 18568 116a 00000000 		.4byte	0
 18569 116e 00000000 		.4byte	0
 18570              	.LLST111:
 18571 1172 00000000 		.4byte	.LVL257
 18572 1176 24000000 		.4byte	.LVL260
 18573 117a 0100     		.2byte	0x1
 18574 117c 50       		.byte	0x50
 18575 117d 24000000 		.4byte	.LVL260
 18576 1181 D4000000 		.4byte	.LFE300
 18577 1185 0400     		.2byte	0x4
 18578 1187 F3       		.byte	0xf3
 18579 1188 01       		.uleb128 0x1
 18580 1189 50       		.byte	0x50
 18581 118a 9F       		.byte	0x9f
 18582 118b 00000000 		.4byte	0
 18583 118f 00000000 		.4byte	0
 18584              	.LLST112:
 18585 1193 16000000 		.4byte	.LVL258
 18586 1197 7A000000 		.4byte	.LVL266
 18587 119b 0100     		.2byte	0x1
 18588 119d 57       		.byte	0x57
 18589 119e 7C000000 		.4byte	.LVL267
 18590 11a2 D4000000 		.4byte	.LFE300
 18591 11a6 0100     		.2byte	0x1
 18592 11a8 57       		.byte	0x57
 18593 11a9 00000000 		.4byte	0
 18594 11ad 00000000 		.4byte	0
 18595              	.LLST113:
 18596 11b1 1E000000 		.4byte	.LVL259
 18597 11b5 5C000000 		.4byte	.LVL264
 18598 11b9 0100     		.2byte	0x1
 18599 11bb 54       		.byte	0x54
 18600 11bc 7C000000 		.4byte	.LVL267
 18601 11c0 80000000 		.4byte	.LVL268
 18602 11c4 0100     		.2byte	0x1
 18603 11c6 54       		.byte	0x54
 18604 11c7 00000000 		.4byte	0
 18605 11cb 00000000 		.4byte	0
 18606              	.LLST114:
 18607 11cf 50000000 		.4byte	.LVL262
 18608 11d3 5A000000 		.4byte	.LVL263
 18609 11d7 0100     		.2byte	0x1
 18610 11d9 53       		.byte	0x53
 18611 11da 5A000000 		.4byte	.LVL263
 18612 11de 74000000 		.4byte	.LVL265
 18613 11e2 0200     		.2byte	0x2
 18614 11e4 71       		.byte	0x71
 18615 11e5 18       		.sleb128 24
 18616 11e6 74000000 		.4byte	.LVL265
 18617 11ea 7A000000 		.4byte	.LVL266
 18618 11ee 0C00     		.2byte	0xc
 18619 11f0 71       		.byte	0x71
 18620 11f1 00       		.sleb128 0
ARM GAS  C:\Users\Moi\AppData\Local\Temp\ccOzHcBd.s 			page 328


 18621 11f2 32       		.byte	0x32
 18622 11f3 24       		.byte	0x24
 18623 11f4 76       		.byte	0x76
 18624 11f5 00       		.sleb128 0
 18625 11f6 22       		.byte	0x22
 18626 11f7 23       		.byte	0x23
 18627 11f8 0C       		.uleb128 0xc
 18628 11f9 06       		.byte	0x6
 18629 11fa 23       		.byte	0x23
 18630 11fb 18       		.uleb128 0x18
 18631 11fc 7A000000 		.4byte	.LVL266
 18632 1200 7B000000 		.4byte	.LVL267-1
 18633 1204 0C00     		.2byte	0xc
 18634 1206 71       		.byte	0x71
 18635 1207 00       		.sleb128 0
 18636 1208 32       		.byte	0x32
 18637 1209 24       		.byte	0x24
 18638 120a 70       		.byte	0x70
 18639 120b 00       		.sleb128 0
 18640 120c 22       		.byte	0x22
 18641 120d 23       		.byte	0x23
 18642 120e 0C       		.uleb128 0xc
 18643 120f 06       		.byte	0x6
 18644 1210 23       		.byte	0x23
 18645 1211 18       		.uleb128 0x18
 18646 1212 7C000000 		.4byte	.LVL267
 18647 1216 8B000000 		.4byte	.LVL269-1
 18648 121a 0100     		.2byte	0x1
 18649 121c 53       		.byte	0x53
 18650 121d 00000000 		.4byte	0
 18651 1221 00000000 		.4byte	0
 18652              	.LLST115:
 18653 1225 8C000000 		.4byte	.LVL269
 18654 1229 92000000 		.4byte	.LVL270
 18655 122d 0300     		.2byte	0x3
 18656 122f 08       		.byte	0x8
 18657 1230 20       		.byte	0x20
 18658 1231 9F       		.byte	0x9f
 18659 1232 00000000 		.4byte	0
 18660 1236 00000000 		.4byte	0
 18661              	.LLST116:
 18662 123a 9A000000 		.4byte	.LVL272
 18663 123e A0000000 		.4byte	.LVL273
 18664 1242 0100     		.2byte	0x1
 18665 1244 55       		.byte	0x55
 18666 1245 00000000 		.4byte	0
 18667 1249 00000000 		.4byte	0
 18668              	.LLST117:
 18669 124d 9A000000 		.4byte	.LVL272
 18670 1251 AC000000 		.4byte	.LVL274
 18671 1255 0600     		.2byte	0x6
 18672 1257 03       		.byte	0x3
 18673 1258 00000000 		.4byte	USBD1
 18674 125c 9F       		.byte	0x9f
 18675 125d 00000000 		.4byte	0
 18676 1261 00000000 		.4byte	0
 18677              	.LLST118:
ARM GAS  C:\Users\Moi\AppData\Local\Temp\ccOzHcBd.s 			page 329


 18678 1265 B4000000 		.4byte	.LVL276
 18679 1269 B8000000 		.4byte	.LVL277
 18680 126d 0200     		.2byte	0x2
 18681 126f 30       		.byte	0x30
 18682 1270 9F       		.byte	0x9f
 18683 1271 00000000 		.4byte	0
 18684 1275 00000000 		.4byte	0
 18685              	.LLST122:
 18686 1279 00000000 		.4byte	.LVL288
 18687 127d 38000000 		.4byte	.LVL292
 18688 1281 0100     		.2byte	0x1
 18689 1283 50       		.byte	0x50
 18690 1284 38000000 		.4byte	.LVL292
 18691 1288 0C010000 		.4byte	.LFE299
 18692 128c 0400     		.2byte	0x4
 18693 128e F3       		.byte	0xf3
 18694 128f 01       		.uleb128 0x1
 18695 1290 50       		.byte	0x50
 18696 1291 9F       		.byte	0x9f
 18697 1292 00000000 		.4byte	0
 18698 1296 00000000 		.4byte	0
 18699              	.LLST123:
 18700 129a 36000000 		.4byte	.LVL291
 18701 129e 40000000 		.4byte	.LVL293
 18702 12a2 0100     		.2byte	0x1
 18703 12a4 53       		.byte	0x53
 18704 12a5 40000000 		.4byte	.LVL293
 18705 12a9 50000000 		.4byte	.LVL294
 18706 12ad 0200     		.2byte	0x2
 18707 12af 71       		.byte	0x71
 18708 12b0 14       		.sleb128 20
 18709 12b1 50000000 		.4byte	.LVL294
 18710 12b5 53000000 		.4byte	.LVL295-1
 18711 12b9 0C00     		.2byte	0xc
 18712 12bb 71       		.byte	0x71
 18713 12bc 00       		.sleb128 0
 18714 12bd 32       		.byte	0x32
 18715 12be 24       		.byte	0x24
 18716 12bf 76       		.byte	0x76
 18717 12c0 00       		.sleb128 0
 18718 12c1 22       		.byte	0x22
 18719 12c2 23       		.byte	0x23
 18720 12c3 0C       		.uleb128 0xc
 18721 12c4 06       		.byte	0x6
 18722 12c5 23       		.byte	0x23
 18723 12c6 14       		.uleb128 0x14
 18724 12c7 AE000000 		.4byte	.LVL305
 18725 12cb BF000000 		.4byte	.LVL306-1
 18726 12cf 0100     		.2byte	0x1
 18727 12d1 53       		.byte	0x53
 18728 12d2 00000000 		.4byte	0
 18729 12d6 00000000 		.4byte	0
 18730              	.LLST124:
 18731 12da C0000000 		.4byte	.LVL306
 18732 12de C6000000 		.4byte	.LVL307
 18733 12e2 0300     		.2byte	0x3
 18734 12e4 08       		.byte	0x8
ARM GAS  C:\Users\Moi\AppData\Local\Temp\ccOzHcBd.s 			page 330


 18735 12e5 20       		.byte	0x20
 18736 12e6 9F       		.byte	0x9f
 18737 12e7 00000000 		.4byte	0
 18738 12eb 00000000 		.4byte	0
 18739              	.LLST125:
 18740 12ef CE000000 		.4byte	.LVL309
 18741 12f3 EE000000 		.4byte	.LVL310
 18742 12f7 0100     		.2byte	0x1
 18743 12f9 57       		.byte	0x57
 18744 12fa 00000000 		.4byte	0
 18745 12fe 00000000 		.4byte	0
 18746              	.LLST126:
 18747 1302 CE000000 		.4byte	.LVL309
 18748 1306 EE000000 		.4byte	.LVL310
 18749 130a 0600     		.2byte	0x6
 18750 130c 03       		.byte	0x3
 18751 130d 00000000 		.4byte	USBD1
 18752 1311 9F       		.byte	0x9f
 18753 1312 00000000 		.4byte	0
 18754 1316 00000000 		.4byte	0
 18755              	.LLST127:
 18756 131a F6000000 		.4byte	.LVL312
 18757 131e FA000000 		.4byte	.LVL313
 18758 1322 0200     		.2byte	0x2
 18759 1324 30       		.byte	0x30
 18760 1325 9F       		.byte	0x9f
 18761 1326 00000000 		.4byte	0
 18762 132a 00000000 		.4byte	0
 18763              	.LLST128:
 18764 132e 76000000 		.4byte	.LVL296
 18765 1332 7C000000 		.4byte	.LVL297
 18766 1336 0300     		.2byte	0x3
 18767 1338 08       		.byte	0x8
 18768 1339 20       		.byte	0x20
 18769 133a 9F       		.byte	0x9f
 18770 133b 00000000 		.4byte	0
 18771 133f 00000000 		.4byte	0
 18772              	.LLST129:
 18773 1343 94000000 		.4byte	.LVL300
 18774 1347 9E000000 		.4byte	.LVL301
 18775 134b 0200     		.2byte	0x2
 18776 134d 30       		.byte	0x30
 18777 134e 9F       		.byte	0x9f
 18778 134f 00000000 		.4byte	0
 18779 1353 00000000 		.4byte	0
 18780              	.LLST130:
 18781 1357 94000000 		.4byte	.LVL300
 18782 135b 9E000000 		.4byte	.LVL301
 18783 135f 0600     		.2byte	0x6
 18784 1361 03       		.byte	0x3
 18785 1362 60000000 		.4byte	USBD1+96
 18786 1366 9F       		.byte	0x9f
 18787 1367 00000000 		.4byte	0
 18788 136b 00000000 		.4byte	0
 18789              	.LLST131:
 18790 136f A6000000 		.4byte	.LVL303
 18791 1373 AC000000 		.4byte	.LVL304
ARM GAS  C:\Users\Moi\AppData\Local\Temp\ccOzHcBd.s 			page 331


 18792 1377 0200     		.2byte	0x2
 18793 1379 30       		.byte	0x30
 18794 137a 9F       		.byte	0x9f
 18795 137b 00000000 		.4byte	0
 18796 137f 00000000 		.4byte	0
 18797              	.LLST140:
 18798 1383 00000000 		.4byte	.LVL351
 18799 1387 2D000000 		.4byte	.LVL353-1
 18800 138b 0100     		.2byte	0x1
 18801 138d 50       		.byte	0x50
 18802 138e 2D000000 		.4byte	.LVL353-1
 18803 1392 34000000 		.4byte	.LFE286
 18804 1396 0400     		.2byte	0x4
 18805 1398 F3       		.byte	0xf3
 18806 1399 01       		.uleb128 0x1
 18807 139a 50       		.byte	0x50
 18808 139b 9F       		.byte	0x9f
 18809 139c 00000000 		.4byte	0
 18810 13a0 00000000 		.4byte	0
 18811              	.LLST141:
 18812 13a4 00000000 		.4byte	.LVL351
 18813 13a8 0C000000 		.4byte	.LVL352
 18814 13ac 0100     		.2byte	0x1
 18815 13ae 51       		.byte	0x51
 18816 13af 0C000000 		.4byte	.LVL352
 18817 13b3 34000000 		.4byte	.LFE286
 18818 13b7 0400     		.2byte	0x4
 18819 13b9 F3       		.byte	0xf3
 18820 13ba 01       		.uleb128 0x1
 18821 13bb 51       		.byte	0x51
 18822 13bc 9F       		.byte	0x9f
 18823 13bd 00000000 		.4byte	0
 18824 13c1 00000000 		.4byte	0
 18825              	.LLST142:
 18826 13c5 00000000 		.4byte	.LVL354
 18827 13c9 16000000 		.4byte	.LVL355
 18828 13cd 0100     		.2byte	0x1
 18829 13cf 50       		.byte	0x50
 18830 13d0 16000000 		.4byte	.LVL355
 18831 13d4 40000000 		.4byte	.LFE287
 18832 13d8 0400     		.2byte	0x4
 18833 13da F3       		.byte	0xf3
 18834 13db 01       		.uleb128 0x1
 18835 13dc 50       		.byte	0x50
 18836 13dd 9F       		.byte	0x9f
 18837 13de 00000000 		.4byte	0
 18838 13e2 00000000 		.4byte	0
 18839              	.LLST143:
 18840 13e6 00000000 		.4byte	.LVL354
 18841 13ea 26000000 		.4byte	.LVL356
 18842 13ee 0100     		.2byte	0x1
 18843 13f0 51       		.byte	0x51
 18844 13f1 26000000 		.4byte	.LVL356
 18845 13f5 40000000 		.4byte	.LFE287
 18846 13f9 0400     		.2byte	0x4
 18847 13fb F3       		.byte	0xf3
 18848 13fc 01       		.uleb128 0x1
ARM GAS  C:\Users\Moi\AppData\Local\Temp\ccOzHcBd.s 			page 332


 18849 13fd 51       		.byte	0x51
 18850 13fe 9F       		.byte	0x9f
 18851 13ff 00000000 		.4byte	0
 18852 1403 00000000 		.4byte	0
 18853              		.section	.debug_aranges,"",%progbits
 18854 0000 CC000000 		.4byte	0xcc
 18855 0004 0200     		.2byte	0x2
 18856 0006 00000000 		.4byte	.Ldebug_info0
 18857 000a 04       		.byte	0x4
 18858 000b 00       		.byte	0
 18859 000c 0000     		.2byte	0
 18860 000e 0000     		.2byte	0
 18861 0010 00000000 		.4byte	.LFB293
 18862 0014 94000000 		.4byte	.LFE293-.LFB293
 18863 0018 00000000 		.4byte	.LFB292
 18864 001c 90040000 		.4byte	.LFE292-.LFB292
 18865 0020 00000000 		.4byte	.LFB274
 18866 0024 5C000000 		.4byte	.LFE274-.LFB274
 18867 0028 00000000 		.4byte	.LFB275
 18868 002c 10010000 		.4byte	.LFE275-.LFB275
 18869 0030 00000000 		.4byte	.LFB276
 18870 0034 5C000000 		.4byte	.LFE276-.LFB276
 18871 0038 00000000 		.4byte	.LFB277
 18872 003c F0000000 		.4byte	.LFE277-.LFB277
 18873 0040 00000000 		.4byte	.LFB278
 18874 0044 38000000 		.4byte	.LFE278-.LFB278
 18875 0048 00000000 		.4byte	.LFB279
 18876 004c 9C010000 		.4byte	.LFE279-.LFB279
 18877 0050 00000000 		.4byte	.LFB280
 18878 0054 2C000000 		.4byte	.LFE280-.LFB280
 18879 0058 00000000 		.4byte	.LFB281
 18880 005c 38000000 		.4byte	.LFE281-.LFB281
 18881 0060 00000000 		.4byte	.LFB282
 18882 0064 38000000 		.4byte	.LFE282-.LFB282
 18883 0068 00000000 		.4byte	.LFB283
 18884 006c 30000000 		.4byte	.LFE283-.LFB283
 18885 0070 00000000 		.4byte	.LFB284
 18886 0074 58000000 		.4byte	.LFE284-.LFB284
 18887 0078 00000000 		.4byte	.LFB300
 18888 007c D4000000 		.4byte	.LFE300-.LFB300
 18889 0080 00000000 		.4byte	.LFB285
 18890 0084 60000000 		.4byte	.LFE285-.LFB285
 18891 0088 00000000 		.4byte	.LFB299
 18892 008c 0C010000 		.4byte	.LFE299-.LFB299
 18893 0090 00000000 		.4byte	.LFB273
 18894 0094 24010000 		.4byte	.LFE273-.LFB273
 18895 0098 00000000 		.4byte	.LFB286
 18896 009c 34000000 		.4byte	.LFE286-.LFB286
 18897 00a0 00000000 		.4byte	.LFB287
 18898 00a4 40000000 		.4byte	.LFE287-.LFB287
 18899 00a8 00000000 		.4byte	.LFB288
 18900 00ac 34000000 		.4byte	.LFE288-.LFB288
 18901 00b0 00000000 		.4byte	.LFB289
 18902 00b4 34000000 		.4byte	.LFE289-.LFB289
 18903 00b8 00000000 		.4byte	.LFB290
 18904 00bc 34000000 		.4byte	.LFE290-.LFB290
 18905 00c0 00000000 		.4byte	.LFB291
ARM GAS  C:\Users\Moi\AppData\Local\Temp\ccOzHcBd.s 			page 333


 18906 00c4 34000000 		.4byte	.LFE291-.LFB291
 18907 00c8 00000000 		.4byte	0
 18908 00cc 00000000 		.4byte	0
 18909              		.section	.debug_ranges,"",%progbits
 18910              	.Ldebug_ranges0:
 18911 0000 04000000 		.4byte	.LBB421
 18912 0004 06000000 		.4byte	.LBE421
 18913 0008 08000000 		.4byte	.LBB426
 18914 000c 0A000000 		.4byte	.LBE426
 18915 0010 0C000000 		.4byte	.LBB427
 18916 0014 0E000000 		.4byte	.LBE427
 18917 0018 12000000 		.4byte	.LBB428
 18918 001c 14000000 		.4byte	.LBE428
 18919 0020 00000000 		.4byte	0
 18920 0024 00000000 		.4byte	0
 18921 0028 2C000000 		.4byte	.LBB436
 18922 002c 32000000 		.4byte	.LBE436
 18923 0030 56000000 		.4byte	.LBB451
 18924 0034 7A000000 		.4byte	.LBE451
 18925 0038 00000000 		.4byte	0
 18926 003c 00000000 		.4byte	0
 18927 0040 2C000000 		.4byte	.LBB439
 18928 0044 32000000 		.4byte	.LBE439
 18929 0048 74000000 		.4byte	.LBB444
 18930 004c 7A000000 		.4byte	.LBE444
 18931 0050 00000000 		.4byte	0
 18932 0054 00000000 		.4byte	0
 18933 0058 48000000 		.4byte	.LBB447
 18934 005c 4A000000 		.4byte	.LBE447
 18935 0060 52000000 		.4byte	.LBB450
 18936 0064 56000000 		.4byte	.LBE450
 18937 0068 00000000 		.4byte	0
 18938 006c 00000000 		.4byte	0
 18939 0070 84000000 		.4byte	.LBB452
 18940 0074 32010000 		.4byte	.LBE452
 18941 0078 6C010000 		.4byte	.LBB494
 18942 007c 30020000 		.4byte	.LBE494
 18943 0080 00000000 		.4byte	0
 18944 0084 00000000 		.4byte	0
 18945 0088 A6000000 		.4byte	.LBB454
 18946 008c AA000000 		.4byte	.LBE454
 18947 0090 AC000000 		.4byte	.LBB460
 18948 0094 DC000000 		.4byte	.LBE460
 18949 0098 00000000 		.4byte	0
 18950 009c 00000000 		.4byte	0
 18951 00a0 B4000000 		.4byte	.LBB456
 18952 00a4 C2000000 		.4byte	.LBE456
 18953 00a8 C6000000 		.4byte	.LBB457
 18954 00ac CE000000 		.4byte	.LBE457
 18955 00b0 D4000000 		.4byte	.LBB458
 18956 00b4 D6000000 		.4byte	.LBE458
 18957 00b8 00000000 		.4byte	0
 18958 00bc 00000000 		.4byte	0
 18959 00c0 FA000000 		.4byte	.LBB461
 18960 00c4 2A010000 		.4byte	.LBE461
 18961 00c8 6C010000 		.4byte	.LBB466
 18962 00cc 7C010000 		.4byte	.LBE466
ARM GAS  C:\Users\Moi\AppData\Local\Temp\ccOzHcBd.s 			page 334


 18963 00d0 00000000 		.4byte	0
 18964 00d4 00000000 		.4byte	0
 18965 00d8 14010000 		.4byte	.LBB463
 18966 00dc 24010000 		.4byte	.LBE463
 18967 00e0 72010000 		.4byte	.LBB464
 18968 00e4 76010000 		.4byte	.LBE464
 18969 00e8 00000000 		.4byte	0
 18970 00ec 00000000 		.4byte	0
 18971 00f0 7A020000 		.4byte	.LBB508
 18972 00f4 92030000 		.4byte	.LBE508
 18973 00f8 E0030000 		.4byte	.LBB569
 18974 00fc 48040000 		.4byte	.LBE569
 18975 0100 00000000 		.4byte	0
 18976 0104 00000000 		.4byte	0
 18977 0108 CE020000 		.4byte	.LBB510
 18978 010c 62030000 		.4byte	.LBE510
 18979 0110 E0030000 		.4byte	.LBB540
 18980 0114 1A040000 		.4byte	.LBE540
 18981 0118 3C040000 		.4byte	.LBB545
 18982 011c 44040000 		.4byte	.LBE545
 18983 0120 00000000 		.4byte	0
 18984 0124 00000000 		.4byte	0
 18985 0128 D4020000 		.4byte	.LBB512
 18986 012c 14030000 		.4byte	.LBE512
 18987 0130 E0030000 		.4byte	.LBB536
 18988 0134 12040000 		.4byte	.LBE536
 18989 0138 3C040000 		.4byte	.LBB537
 18990 013c 44040000 		.4byte	.LBE537
 18991 0140 00000000 		.4byte	0
 18992 0144 00000000 		.4byte	0
 18993 0148 D4020000 		.4byte	.LBB513
 18994 014c D8020000 		.4byte	.LBE513
 18995 0150 E2020000 		.4byte	.LBB518
 18996 0154 14030000 		.4byte	.LBE518
 18997 0158 3C040000 		.4byte	.LBB519
 18998 015c 44040000 		.4byte	.LBE519
 18999 0160 00000000 		.4byte	0
 19000 0164 00000000 		.4byte	0
 19001 0168 F6020000 		.4byte	.LBB514
 19002 016c 0A030000 		.4byte	.LBE514
 19003 0170 3C040000 		.4byte	.LBB517
 19004 0174 44040000 		.4byte	.LBE517
 19005 0178 00000000 		.4byte	0
 19006 017c 00000000 		.4byte	0
 19007 0180 92030000 		.4byte	.LBB547
 19008 0184 A0030000 		.4byte	.LBE547
 19009 0188 48040000 		.4byte	.LBB570
 19010 018c 56040000 		.4byte	.LBE570
 19011 0190 6A040000 		.4byte	.LBB571
 19012 0194 78040000 		.4byte	.LBE571
 19013 0198 00000000 		.4byte	0
 19014 019c 00000000 		.4byte	0
 19015 01a0 92030000 		.4byte	.LBB550
 19016 01a4 98030000 		.4byte	.LBE550
 19017 01a8 48040000 		.4byte	.LBB557
 19018 01ac 4E040000 		.4byte	.LBE557
 19019 01b0 6A040000 		.4byte	.LBB558
ARM GAS  C:\Users\Moi\AppData\Local\Temp\ccOzHcBd.s 			page 335


 19020 01b4 70040000 		.4byte	.LBE558
 19021 01b8 00000000 		.4byte	0
 19022 01bc 00000000 		.4byte	0
 19023 01c0 1E000000 		.4byte	.LBB572
 19024 01c4 28000000 		.4byte	.LBE572
 19025 01c8 2C000000 		.4byte	.LBB573
 19026 01cc 42000000 		.4byte	.LBE573
 19027 01d0 48000000 		.4byte	.LBB574
 19028 01d4 5C000000 		.4byte	.LBE574
 19029 01d8 00000000 		.4byte	0
 19030 01dc 00000000 		.4byte	0
 19031 01e0 3A000000 		.4byte	.LBB583
 19032 01e4 3C000000 		.4byte	.LBE583
 19033 01e8 42000000 		.4byte	.LBB592
 19034 01ec 5C000000 		.4byte	.LBE592
 19035 01f0 00000000 		.4byte	0
 19036 01f4 00000000 		.4byte	0
 19037 01f8 3A000000 		.4byte	.LBB585
 19038 01fc 3C000000 		.4byte	.LBE585
 19039 0200 42000000 		.4byte	.LBB588
 19040 0204 46000000 		.4byte	.LBE588
 19041 0208 00000000 		.4byte	0
 19042 020c 00000000 		.4byte	0
 19043 0210 D2000000 		.4byte	.LBB593
 19044 0214 D8000000 		.4byte	.LBE593
 19045 0218 DA000000 		.4byte	.LBB596
 19046 021c E8000000 		.4byte	.LBE596
 19047 0220 00000000 		.4byte	0
 19048 0224 00000000 		.4byte	0
 19049 0228 58000000 		.4byte	.LBB601
 19050 022c 5C000000 		.4byte	.LBE601
 19051 0230 60000000 		.4byte	.LBB604
 19052 0234 62000000 		.4byte	.LBE604
 19053 0238 00000000 		.4byte	0
 19054 023c 00000000 		.4byte	0
 19055 0240 A0000000 		.4byte	.LBB611
 19056 0244 A8000000 		.4byte	.LBE611
 19057 0248 AC000000 		.4byte	.LBB615
 19058 024c AE000000 		.4byte	.LBE615
 19059 0250 6C010000 		.4byte	.LBB624
 19060 0254 7C010000 		.4byte	.LBE624
 19061 0258 00000000 		.4byte	0
 19062 025c 00000000 		.4byte	0
 19063 0260 48000000 		.4byte	.LBB627
 19064 0264 74000000 		.4byte	.LBE627
 19065 0268 7A000000 		.4byte	.LBB642
 19066 026c B8000000 		.4byte	.LBE642
 19067 0270 00000000 		.4byte	0
 19068 0274 00000000 		.4byte	0
 19069 0278 1A000000 		.4byte	.LBB643
 19070 027c 32000000 		.4byte	.LBE643
 19071 0280 3E000000 		.4byte	.LBB644
 19072 0284 48000000 		.4byte	.LBE644
 19073 0288 00000000 		.4byte	0
 19074 028c 00000000 		.4byte	0
 19075 0290 2E000000 		.4byte	.LBB645
 19076 0294 54000000 		.4byte	.LBE645
ARM GAS  C:\Users\Moi\AppData\Local\Temp\ccOzHcBd.s 			page 336


 19077 0298 AE000000 		.4byte	.LBB682
 19078 029c FC000000 		.4byte	.LBE682
 19079 02a0 00000000 		.4byte	0
 19080 02a4 00000000 		.4byte	0
 19081 02a8 8A000000 		.4byte	.LBB669
 19082 02ac 8C000000 		.4byte	.LBE669
 19083 02b0 96000000 		.4byte	.LBB673
 19084 02b4 98000000 		.4byte	.LBE673
 19085 02b8 9A000000 		.4byte	.LBB674
 19086 02bc 9E000000 		.4byte	.LBE674
 19087 02c0 00000000 		.4byte	0
 19088 02c4 00000000 		.4byte	0
 19089 02c8 04000000 		.4byte	.LBB701
 19090 02cc 06000000 		.4byte	.LBE701
 19091 02d0 14000000 		.4byte	.LBB723
 19092 02d4 68000000 		.4byte	.LBE723
 19093 02d8 7E000000 		.4byte	.LBB724
 19094 02dc 12010000 		.4byte	.LBE724
 19095 02e0 00000000 		.4byte	0
 19096 02e4 00000000 		.4byte	0
 19097 02e8 8E000000 		.4byte	.LBB710
 19098 02ec 90000000 		.4byte	.LBE710
 19099 02f0 96000000 		.4byte	.LBB713
 19100 02f4 9C000000 		.4byte	.LBE713
 19101 02f8 00000000 		.4byte	0
 19102 02fc 00000000 		.4byte	0
 19103 0300 00000000 		.4byte	.LFB293
 19104 0304 94000000 		.4byte	.LFE293
 19105 0308 00000000 		.4byte	.LFB292
 19106 030c 90040000 		.4byte	.LFE292
 19107 0310 00000000 		.4byte	.LFB274
 19108 0314 5C000000 		.4byte	.LFE274
 19109 0318 00000000 		.4byte	.LFB275
 19110 031c 10010000 		.4byte	.LFE275
 19111 0320 00000000 		.4byte	.LFB276
 19112 0324 5C000000 		.4byte	.LFE276
 19113 0328 00000000 		.4byte	.LFB277
 19114 032c F0000000 		.4byte	.LFE277
 19115 0330 00000000 		.4byte	.LFB278
 19116 0334 38000000 		.4byte	.LFE278
 19117 0338 00000000 		.4byte	.LFB279
 19118 033c 9C010000 		.4byte	.LFE279
 19119 0340 00000000 		.4byte	.LFB280
 19120 0344 2C000000 		.4byte	.LFE280
 19121 0348 00000000 		.4byte	.LFB281
 19122 034c 38000000 		.4byte	.LFE281
 19123 0350 00000000 		.4byte	.LFB282
 19124 0354 38000000 		.4byte	.LFE282
 19125 0358 00000000 		.4byte	.LFB283
 19126 035c 30000000 		.4byte	.LFE283
 19127 0360 00000000 		.4byte	.LFB284
 19128 0364 58000000 		.4byte	.LFE284
 19129 0368 00000000 		.4byte	.LFB300
 19130 036c D4000000 		.4byte	.LFE300
 19131 0370 00000000 		.4byte	.LFB285
 19132 0374 60000000 		.4byte	.LFE285
 19133 0378 00000000 		.4byte	.LFB299
ARM GAS  C:\Users\Moi\AppData\Local\Temp\ccOzHcBd.s 			page 337


 19134 037c 0C010000 		.4byte	.LFE299
 19135 0380 00000000 		.4byte	.LFB273
 19136 0384 24010000 		.4byte	.LFE273
 19137 0388 00000000 		.4byte	.LFB286
 19138 038c 34000000 		.4byte	.LFE286
 19139 0390 00000000 		.4byte	.LFB287
 19140 0394 40000000 		.4byte	.LFE287
 19141 0398 00000000 		.4byte	.LFB288
 19142 039c 34000000 		.4byte	.LFE288
 19143 03a0 00000000 		.4byte	.LFB289
 19144 03a4 34000000 		.4byte	.LFE289
 19145 03a8 00000000 		.4byte	.LFB290
 19146 03ac 34000000 		.4byte	.LFE290
 19147 03b0 00000000 		.4byte	.LFB291
 19148 03b4 34000000 		.4byte	.LFE291
 19149 03b8 00000000 		.4byte	0
 19150 03bc 00000000 		.4byte	0
 19151              		.section	.debug_line,"",%progbits
 19152              	.Ldebug_line0:
 19153 0000 BF0D0000 		.section	.debug_str,"MS",%progbits,1
 19153      0200DB06 
 19153      00000201 
 19153      FB0E0D00 
 19153      01010101 
 19154              	.LASF704:
 19155 0000 5553425F 		.ascii	"USB_STOP\000"
 19155      53544F50 
 19155      00
 19156              	.LASF319:
 19157 0009 706F7274 		.ascii	"port_intctx\000"
 19157      5F696E74 
 19157      63747800 
 19158              	.LASF328:
 19159 0015 63685F74 		.ascii	"ch_trace_buffer_t\000"
 19159      72616365 
 19159      5F627566 
 19159      6665725F 
 19159      7400
 19160              	.LASF360:
 19161 0027 63685F70 		.ascii	"ch_ptrsize\000"
 19161      74727369 
 19161      7A6500
 19162              	.LASF640:
 19163 0032 6576656E 		.ascii	"event\000"
 19163      7400
 19164              	.LASF491:
 19165 0038 43414E5F 		.ascii	"CAN_STARTING\000"
 19165      53544152 
 19165      54494E47 
 19165      00
 19166              	.LASF892:
 19167 0045 5F5F6675 		.ascii	"__func__\000"
 19167      6E635F5F 
 19167      00
 19168              	.LASF141:
 19169 004e 6D73675F 		.ascii	"msg_t\000"
 19169      7400
ARM GAS  C:\Users\Moi\AppData\Local\Temp\ccOzHcBd.s 			page 338


 19170              	.LASF436:
 19171 0054 61667268 		.ascii	"afrh\000"
 19171      00
 19172              	.LASF583:
 19173 0059 4F504D4F 		.ascii	"OPMODE_SMBUS_DEVICE\000"
 19173      44455F53 
 19173      4D425553 
 19173      5F444556 
 19173      49434500 
 19174              	.LASF339:
 19175 006d 6D5F6372 		.ascii	"m_crit_isr\000"
 19175      69745F69 
 19175      737200
 19176              	.LASF916:
 19177 0078 706F7274 		.ascii	"port_unlock_from_isr\000"
 19177      5F756E6C 
 19177      6F636B5F 
 19177      66726F6D 
 19177      5F697372 
 19178              	.LASF656:
 19179 008d 73646366 		.ascii	"sdcflags_t\000"
 19179      6C616773 
 19179      5F7400
 19180              	.LASF767:
 19181 0098 44494550 		.ascii	"DIEPTXF0\000"
 19181      54584630 
 19181      00
 19182              	.LASF843:
 19183 00a1 55534244 		.ascii	"USBD1\000"
 19183      3100
 19184              	.LASF490:
 19185 00a7 43414E5F 		.ascii	"CAN_STOP\000"
 19185      53544F50 
 19185      00
 19186              	.LASF373:
 19187 00b0 63665F6F 		.ascii	"cf_off_time\000"
 19187      66665F74 
 19187      696D6500 
 19188              	.LASF200:
 19189 00bc 63685F73 		.ascii	"ch_system_t\000"
 19189      79737465 
 19189      6D5F7400 
 19190              	.LASF5:
 19191 00c8 5F5F7569 		.ascii	"__uint8_t\000"
 19191      6E74385F 
 19191      7400
 19192              	.LASF345:
 19193 00d2 77747365 		.ascii	"wtsemp\000"
 19193      6D7000
 19194              	.LASF420:
 19195 00d9 5F426F6F 		.ascii	"_Bool\000"
 19195      6C00
 19196              	.LASF532:
 19197 00df 64617461 		.ascii	"datamode\000"
 19197      6D6F6465 
 19197      00
 19198              	.LASF599:
ARM GAS  C:\Users\Moi\AppData\Local\Temp\ccOzHcBd.s 			page 339


 19199 00e8 646D6172 		.ascii	"dmarx\000"
 19199      7800
 19200              	.LASF70:
 19201 00ee 5F6D6273 		.ascii	"_mbstate\000"
 19201      74617465 
 19201      00
 19202              	.LASF49:
 19203 00f7 5F617465 		.ascii	"_atexit\000"
 19203      78697400 
 19204              	.LASF907:
 19205 00ff 6F73616C 		.ascii	"osalSysUnlock\000"
 19205      53797355 
 19205      6E6C6F63 
 19205      6B00
 19206              	.LASF480:
 19207 010d 73717231 		.ascii	"sqr1\000"
 19207      00
 19208              	.LASF407:
 19209 0112 424C4B5F 		.ascii	"BLK_UNINIT\000"
 19209      554E494E 
 19209      495400
 19210              	.LASF611:
 19211 011d 72785F62 		.ascii	"rx_buffer\000"
 19211      75666665 
 19211      7200
 19212              	.LASF595:
 19213 0127 6572726F 		.ascii	"errors\000"
 19213      727300
 19214              	.LASF332:
 19215 012e 776F7273 		.ascii	"worst\000"
 19215      7400
 19216              	.LASF193:
 19217 0134 76745F73 		.ascii	"vt_systime\000"
 19217      79737469 
 19217      6D6500
 19218              	.LASF259:
 19219 013f 444F5231 		.ascii	"DOR1\000"
 19219      00
 19220              	.LASF260:
 19221 0144 444F5232 		.ascii	"DOR2\000"
 19221      00
 19222              	.LASF610:
 19223 0149 74785F62 		.ascii	"tx_buffer\000"
 19223      75666665 
 19223      7200
 19224              	.LASF292:
 19225 0153 5243435F 		.ascii	"RCC_TypeDef\000"
 19225      54797065 
 19225      44656600 
 19226              	.LASF39:
 19227 015f 5F5F746D 		.ascii	"__tm_mon\000"
 19227      5F6D6F6E 
 19227      00
 19228              	.LASF47:
 19229 0168 5F666E74 		.ascii	"_fntypes\000"
 19229      79706573 
 19229      00
ARM GAS  C:\Users\Moi\AppData\Local\Temp\ccOzHcBd.s 			page 340


 19230              	.LASF354:
 19231 0171 6D5F6E65 		.ascii	"m_next\000"
 19231      787400
 19232              	.LASF440:
 19233 0178 50434461 		.ascii	"PCData\000"
 19233      746100
 19234              	.LASF77:
 19235 017f 5F696E63 		.ascii	"_inc\000"
 19235      00
 19236              	.LASF50:
 19237 0184 5F696E64 		.ascii	"_ind\000"
 19237      00
 19238              	.LASF304:
 19239 0189 4D41534B 		.ascii	"MASK\000"
 19239      00
 19240              	.LASF465:
 19241 018e 73616D70 		.ascii	"samples\000"
 19241      6C657300 
 19242              	.LASF771:
 19243 0196 47434346 		.ascii	"GCCFG\000"
 19243      4700
 19244              	.LASF561:
 19245 019c 42445452 		.ascii	"BDTR\000"
 19245      00
 19246              	.LASF514:
 19247 01a1 7265676D 		.ascii	"regmask\000"
 19247      61736B00 
 19248              	.LASF875:
 19249 01a9 6F74675F 		.ascii	"otg_epout_handler\000"
 19249      65706F75 
 19249      745F6861 
 19249      6E646C65 
 19249      7200
 19250              	.LASF593:
 19251 01bb 49324343 		.ascii	"I2CConfig\000"
 19251      6F6E6669 
 19251      6700
 19252              	.LASF130:
 19253 01c5 75696E74 		.ascii	"uint16_t\000"
 19253      31365F74 
 19253      00
 19254              	.LASF600:
 19255 01ce 646D6174 		.ascii	"dmatx\000"
 19255      7800
 19256              	.LASF841:
 19257 01d4 736F665F 		.ascii	"sof_cb\000"
 19257      636200
 19258              	.LASF537:
 19259 01db 4558545F 		.ascii	"EXT_ACTIVE\000"
 19259      41435449 
 19259      564500
 19260              	.LASF56:
 19261 01e6 5F666C61 		.ascii	"_flags\000"
 19261      677300
 19262              	.LASF891:
 19263 01ed 6E657874 		.ascii	"next\000"
 19263      00
ARM GAS  C:\Users\Moi\AppData\Local\Temp\ccOzHcBd.s 			page 341


 19264              	.LASF433:
 19265 01f2 6F737065 		.ascii	"ospeedr\000"
 19265      65647200 
 19266              	.LASF774:
 19267 01fa 44494550 		.ascii	"DIEPTXF\000"
 19267      54584600 
 19268              	.LASF379:
 19269 0202 656C5F6E 		.ascii	"el_next\000"
 19269      65787400 
 19270              	.LASF460:
 19271 020a 4144435F 		.ascii	"ADC_ERR_OVERFLOW\000"
 19271      4552525F 
 19271      4F564552 
 19271      464C4F57 
 19271      00
 19272              	.LASF87:
 19273 021b 5F637674 		.ascii	"_cvtlen\000"
 19273      6C656E00 
 19274              	.LASF198:
 19275 0223 6C6F636B 		.ascii	"lock_cnt\000"
 19275      5F636E74 
 19275      00
 19276              	.LASF876:
 19277 022c 6570696E 		.ascii	"epint\000"
 19277      7400
 19278              	.LASF174:
 19279 0232 63685F74 		.ascii	"ch_threads_queue\000"
 19279      68726561 
 19279      64735F71 
 19279      75657565 
 19279      00
 19280              	.LASF869:
 19281 0243 7573625F 		.ascii	"usb_lld_stop\000"
 19281      6C6C645F 
 19281      73746F70 
 19281      00
 19282              	.LASF91:
 19283 0250 5F736967 		.ascii	"_sig_func\000"
 19283      5F66756E 
 19283      6300
 19284              	.LASF153:
 19285 025a 705F6E65 		.ascii	"p_newer\000"
 19285      77657200 
 19286              	.LASF784:
 19287 0262 48505254 		.ascii	"HPRT\000"
 19287      00
 19288              	.LASF738:
 19289 0267 4843494E 		.ascii	"HCINT\000"
 19289      5400
 19290              	.LASF209:
 19291 026d 534D5052 		.ascii	"SMPR1\000"
 19291      3100
 19292              	.LASF210:
 19293 0273 534D5052 		.ascii	"SMPR2\000"
 19293      3200
 19294              	.LASF370:
 19295 0279 63665F6F 		.ascii	"cf_off_flags\000"
ARM GAS  C:\Users\Moi\AppData\Local\Temp\ccOzHcBd.s 			page 342


 19295      66665F66 
 19295      6C616773 
 19295      00
 19296              	.LASF69:
 19297 0286 5F6C6F63 		.ascii	"_lock\000"
 19297      6B00
 19298              	.LASF65:
 19299 028c 5F6E6275 		.ascii	"_nbuf\000"
 19299      6600
 19300              	.LASF673:
 19301 0292 5350495F 		.ascii	"SPI_STOP\000"
 19301      53544F50 
 19301      00
 19302              	.LASF903:
 19303 029b 6379636C 		.ascii	"cycles\000"
 19303      657300
 19304              	.LASF123:
 19305 02a2 5F756E75 		.ascii	"_unused\000"
 19305      73656400 
 19306              	.LASF439:
 19307 02aa 50424461 		.ascii	"PBData\000"
 19307      746100
 19308              	.LASF846:
 19309 02b1 65703063 		.ascii	"ep0config\000"
 19309      6F6E6669 
 19309      6700
 19310              	.LASF358:
 19311 02bb 63685F73 		.ascii	"ch_size\000"
 19311      697A6500 
 19312              	.LASF780:
 19313 02c3 48505458 		.ascii	"HPTXSTS\000"
 19313      53545300 
 19314              	.LASF432:
 19315 02cb 6F747970 		.ascii	"otyper\000"
 19315      657200
 19316              	.LASF712:
 19317 02d2 75736265 		.ascii	"usbepstatus_t\000"
 19317      70737461 
 19317      7475735F 
 19317      7400
 19318              	.LASF423:
 19319 02e0 4F545950 		.ascii	"OTYPER\000"
 19319      455200
 19320              	.LASF516:
 19321 02e7 64616370 		.ascii	"dacparams_t\000"
 19321      6172616D 
 19321      735F7400 
 19322              	.LASF651:
 19323 02f3 5344435F 		.ascii	"SDC_MODE_1BIT\000"
 19323      4D4F4445 
 19323      5F314249 
 19323      5400
 19324              	.LASF736:
 19325 0301 48434348 		.ascii	"HCCHAR\000"
 19325      415200
 19326              	.LASF577:
 19327 0308 4932435F 		.ascii	"I2C_ACTIVE_RX\000"
ARM GAS  C:\Users\Moi\AppData\Local\Temp\ccOzHcBd.s 			page 343


 19327      41435449 
 19327      56455F52 
 19327      5800
 19328              	.LASF147:
 19329 0316 74687265 		.ascii	"thread_t\000"
 19329      61645F74 
 19329      00
 19330              	.LASF381:
 19331 031f 656C5F65 		.ascii	"el_events\000"
 19331      76656E74 
 19331      7300
 19332              	.LASF620:
 19333 0329 70776D73 		.ascii	"pwmstate_t\000"
 19333      74617465 
 19333      5F7400
 19334              	.LASF501:
 19335 0334 736C6565 		.ascii	"sleep_event\000"
 19335      705F6576 
 19335      656E7400 
 19336              	.LASF192:
 19337 0340 63685F76 		.ascii	"ch_virtual_timers_list\000"
 19337      69727475 
 19337      616C5F74 
 19337      696D6572 
 19337      735F6C69 
 19338              	.LASF404:
 19339 0357 76656374 		.ascii	"vector\000"
 19339      6F7200
 19340              	.LASF762:
 19341 035e 47494E54 		.ascii	"GINTSTS\000"
 19341      53545300 
 19342              	.LASF131:
 19343 0366 696E7433 		.ascii	"int32_t\000"
 19343      325F7400 
 19344              	.LASF591:
 19345 036e 636C6F63 		.ascii	"clock_speed\000"
 19345      6B5F7370 
 19345      65656400 
 19346              	.LASF146:
 19347 037a 73797374 		.ascii	"systime_t\000"
 19347      696D655F 
 19347      7400
 19348              	.LASF534:
 19349 0384 44414344 		.ascii	"DACD2\000"
 19349      3200
 19350              	.LASF503:
 19351 038a 43414E44 		.ascii	"CANDriver\000"
 19351      72697665 
 19351      7200
 19352              	.LASF101:
 19353 0394 5F616464 		.ascii	"_add\000"
 19353      00
 19354              	.LASF263:
 19355 0399 4D304152 		.ascii	"M0AR\000"
 19355      00
 19356              	.LASF743:
 19357 039e 72657376 		.ascii	"resvd1c\000"
ARM GAS  C:\Users\Moi\AppData\Local\Temp\ccOzHcBd.s 			page 344


 19357      64316300 
 19358              	.LASF581:
 19359 03a6 69326366 		.ascii	"i2cflags_t\000"
 19359      6C616773 
 19359      5F7400
 19360              	.LASF781:
 19361 03b1 4841494E 		.ascii	"HAINT\000"
 19361      5400
 19362              	.LASF944:
 19363 03b7 5F646267 		.ascii	"_dbg_check_enter_isr\000"
 19363      5F636865 
 19363      636B5F65 
 19363      6E746572 
 19363      5F697372 
 19364              	.LASF923:
 19365 03cc 5F646267 		.ascii	"_dbg_check_lock\000"
 19365      5F636865 
 19365      636B5F6C 
 19365      6F636B00 
 19366              	.LASF711:
 19367 03dc 45505F53 		.ascii	"EP_STATUS_ACTIVE\000"
 19367      54415455 
 19367      535F4143 
 19367      54495645 
 19367      00
 19368              	.LASF245:
 19369 03ed 46413152 		.ascii	"FA1R\000"
 19369      00
 19370              	.LASF900:
 19371 03f2 6F73616C 		.ascii	"osalThreadResumeI\000"
 19371      54687265 
 19371      61645265 
 19371      73756D65 
 19371      4900
 19372              	.LASF931:
 19373 0404 6E766963 		.ascii	"nvicDisableVector\000"
 19373      44697361 
 19373      626C6556 
 19373      6563746F 
 19373      7200
 19374              	.LASF778:
 19375 0416 48464E55 		.ascii	"HFNUM\000"
 19375      4D00
 19376              	.LASF397:
 19377 041c 716E6F74 		.ascii	"qnotify_t\000"
 19377      6966795F 
 19377      7400
 19378              	.LASF456:
 19379 0426 61646373 		.ascii	"adcstate_t\000"
 19379      74617465 
 19379      5F7400
 19380              	.LASF276:
 19381 0431 41504231 		.ascii	"APB1RSTR\000"
 19381      52535452 
 19381      00
 19382              	.LASF659:
 19383 043a 63617264 		.ascii	"cardmode\000"
ARM GAS  C:\Users\Moi\AppData\Local\Temp\ccOzHcBd.s 			page 345


 19383      6D6F6465 
 19383      00
 19384              	.LASF402:
 19385 0443 69736869 		.ascii	"ishift\000"
 19385      667400
 19386              	.LASF888:
 19387 044a 6F74675F 		.ascii	"otg_fifo_write_from_buffer\000"
 19387      6669666F 
 19387      5F777269 
 19387      74655F66 
 19387      726F6D5F 
 19388              	.LASF551:
 19389 0465 4750545F 		.ascii	"GPT_ONESHOT\000"
 19389      4F4E4553 
 19389      484F5400 
 19390              	.LASF392:
 19391 0471 715F746F 		.ascii	"q_top\000"
 19391      7000
 19392              	.LASF58:
 19393 0477 5F6C6266 		.ascii	"_lbfsize\000"
 19393      73697A65 
 19393      00
 19394              	.LASF729:
 19395 0480 75645F73 		.ascii	"ud_string\000"
 19395      7472696E 
 19395      6700
 19396              	.LASF594:
 19397 048a 49324344 		.ascii	"I2CDriver\000"
 19397      72697665 
 19397      7200
 19398              	.LASF576:
 19399 0494 4932435F 		.ascii	"I2C_ACTIVE_TX\000"
 19399      41435449 
 19399      56455F54 
 19399      5800
 19400              	.LASF646:
 19401 04a2 72656164 		.ascii	"read\000"
 19401      00
 19402              	.LASF582:
 19403 04a7 4F504D4F 		.ascii	"OPMODE_I2C\000"
 19403      44455F49 
 19403      324300
 19404              	.LASF790:
 19405 04b2 72657376 		.ascii	"resvd80C\000"
 19405      64383043 
 19405      00
 19406              	.LASF838:
 19407 04bb 6576656E 		.ascii	"event_cb\000"
 19407      745F6362 
 19407      00
 19408              	.LASF757:
 19409 04c4 474F5447 		.ascii	"GOTGCTL\000"
 19409      43544C00 
 19410              	.LASF732:
 19411 04cc 75736265 		.ascii	"usbepcallback_t\000"
 19411      7063616C 
 19411      6C626163 
ARM GAS  C:\Users\Moi\AppData\Local\Temp\ccOzHcBd.s 			page 346


 19411      6B5F7400 
 19412              	.LASF68:
 19413 04dc 5F646174 		.ascii	"_data\000"
 19413      6100
 19414              	.LASF203:
 19415 04e2 76746C69 		.ascii	"vtlist\000"
 19415      737400
 19416              	.LASF268:
 19417 04e9 54524953 		.ascii	"TRISE\000"
 19417      4500
 19418              	.LASF796:
 19419 04ef 72657376 		.ascii	"resvd824\000"
 19419      64383234 
 19419      00
 19420              	.LASF162:
 19421 04f8 705F7761 		.ascii	"p_waiting\000"
 19421      6974696E 
 19421      6700
 19422              	.LASF340:
 19423 0502 6B65726E 		.ascii	"kernel_stats_t\000"
 19423      656C5F73 
 19423      74617473 
 19423      5F7400
 19424              	.LASF389:
 19425 0511 715F7761 		.ascii	"q_waiting\000"
 19425      6974696E 
 19425      6700
 19426              	.LASF227:
 19427 051b 43414E5F 		.ascii	"CAN_TxMailBox_TypeDef\000"
 19427      54784D61 
 19427      696C426F 
 19427      785F5479 
 19427      70654465 
 19428              	.LASF202:
 19429 0531 726C6973 		.ascii	"rlist\000"
 19429      7400
 19430              	.LASF171:
 19431 0537 74687265 		.ascii	"threads_list_t\000"
 19431      6164735F 
 19431      6C697374 
 19431      5F7400
 19432              	.LASF330:
 19433 0546 746D5F63 		.ascii	"tm_calibration_t\000"
 19433      616C6962 
 19433      72617469 
 19433      6F6E5F74 
 19433      00
 19434              	.LASF398:
 19435 0557 696E7075 		.ascii	"input_queue_t\000"
 19435      745F7175 
 19435      6575655F 
 19435      7400
 19436              	.LASF483:
 19437 0565 41444343 		.ascii	"ADCConversionGroup\000"
 19437      6F6E7665 
 19437      7273696F 
 19437      6E47726F 
ARM GAS  C:\Users\Moi\AppData\Local\Temp\ccOzHcBd.s 			page 347


 19437      757000
 19438              	.LASF789:
 19439 0578 44535453 		.ascii	"DSTS\000"
 19439      00
 19440              	.LASF124:
 19441 057d 5F5F6C6F 		.ascii	"__lock\000"
 19441      636B00
 19442              	.LASF586:
 19443 0584 5354445F 		.ascii	"STD_DUTY_CYCLE\000"
 19443      44555459 
 19443      5F435943 
 19443      4C4500
 19444              	.LASF72:
 19445 0593 5F726565 		.ascii	"_reent\000"
 19445      6E7400
 19446              	.LASF366:
 19447 059a 63665F6F 		.ascii	"cf_off_older\000"
 19447      66665F6F 
 19447      6C646572 
 19447      00
 19448              	.LASF135:
 19449 05a7 72747469 		.ascii	"rttime_t\000"
 19449      6D655F74 
 19449      00
 19450              	.LASF546:
 19451 05b0 45585444 		.ascii	"EXTD1\000"
 19451      3100
 19452              	.LASF823:
 19453 05b6 72787175 		.ascii	"rxqueued\000"
 19453      65756564 
 19453      00
 19454              	.LASF856:
 19455 05bf 7573625F 		.ascii	"usb_lld_start_in\000"
 19455      6C6C645F 
 19455      73746172 
 19455      745F696E 
 19455      00
 19456              	.LASF494:
 19457 05d0 63616E73 		.ascii	"canstate_t\000"
 19457      74617465 
 19457      5F7400
 19458              	.LASF247:
 19459 05db 7346696C 		.ascii	"sFilterRegister\000"
 19459      74657252 
 19459      65676973 
 19459      74657200 
 19460              	.LASF943:
 19461 05eb 5F737461 		.ascii	"_stats_increase_irq\000"
 19461      74735F69 
 19461      6E637265 
 19461      6173655F 
 19461      69727100 
 19462              	.LASF93:
 19463 05ff 5F5F7366 		.ascii	"__sf\000"
 19463      00
 19464              	.LASF795:
 19465 0604 72657376 		.ascii	"resvd820\000"
ARM GAS  C:\Users\Moi\AppData\Local\Temp\ccOzHcBd.s 			page 348


 19465      64383230 
 19465      00
 19466              	.LASF53:
 19467 060d 5F626173 		.ascii	"_base\000"
 19467      6500
 19468              	.LASF950:
 19469 0613 5F5F7374 		.ascii	"__stack_chk_fail\000"
 19469      61636B5F 
 19469      63686B5F 
 19469      6661696C 
 19469      00
 19470              	.LASF296:
 19471 0624 52455350 		.ascii	"RESP1\000"
 19471      3100
 19472              	.LASF297:
 19473 062a 52455350 		.ascii	"RESP2\000"
 19473      3200
 19474              	.LASF298:
 19475 0630 52455350 		.ascii	"RESP3\000"
 19475      3300
 19476              	.LASF299:
 19477 0636 52455350 		.ascii	"RESP4\000"
 19477      3400
 19478              	.LASF110:
 19479 063c 5F6D6274 		.ascii	"_mbtowc_state\000"
 19479      6F77635F 
 19479      73746174 
 19479      6500
 19480              	.LASF947:
 19481 064a 474E5520 		.ascii	"GNU C11 7.2.1 20170904 (release) [ARM/embedded-7-br"
 19481      43313120 
 19481      372E322E 
 19481      31203230 
 19481      31373039 
 19482 067d 616E6368 		.ascii	"anch revision 255204] -mcpu=cortex-m4 -mfloat-abi=h"
 19482      20726576 
 19482      6973696F 
 19482      6E203235 
 19482      35323034 
 19483 06b0 61726420 		.ascii	"ard -mfpu=fpv4-sp-d16 -mno-thumb-interwork -mthumb "
 19483      2D6D6670 
 19483      753D6670 
 19483      76342D73 
 19483      702D6431 
 19484 06e3 2D676764 		.ascii	"-ggdb -O2 -fomit-frame-pointer -falign-functions=16"
 19484      62202D4F 
 19484      32202D66 
 19484      6F6D6974 
 19484      2D667261 
 19485 0716 202D6673 		.ascii	" -fstack-protector-all -ffunction-sections -fdata-s"
 19485      7461636B 
 19485      2D70726F 
 19485      74656374 
 19485      6F722D61 
 19486 0749 65637469 		.ascii	"ections -fno-common -fsingle-precision-constant\000"
 19486      6F6E7320 
 19486      2D666E6F 
ARM GAS  C:\Users\Moi\AppData\Local\Temp\ccOzHcBd.s 			page 349


 19486      2D636F6D 
 19486      6D6F6E20 
 19487              	.LASF847:
 19488 0779 66737061 		.ascii	"fsparams\000"
 19488      72616D73 
 19488      00
 19489              	.LASF905:
 19490 0782 6F73616C 		.ascii	"osalSysUnlockFromISR\000"
 19490      53797355 
 19490      6E6C6F63 
 19490      6B46726F 
 19490      6D495352 
 19491              	.LASF573:
 19492 0797 4932435F 		.ascii	"I2C_UNINIT\000"
 19492      554E494E 
 19492      495400
 19493              	.LASF734:
 19494 07a2 75736272 		.ascii	"usbreqhandler_t\000"
 19494      65716861 
 19494      6E646C65 
 19494      725F7400 
 19495              	.LASF454:
 19496 07b2 4144435F 		.ascii	"ADC_COMPLETE\000"
 19496      434F4D50 
 19496      4C455445 
 19496      00
 19497              	.LASF570:
 19498 07bf 47505443 		.ascii	"GPTConfig\000"
 19498      6F6E6669 
 19498      6700
 19499              	.LASF635:
 19500 07c9 53445F55 		.ascii	"SD_UNINIT\000"
 19500      4E494E49 
 19500      5400
 19501              	.LASF140:
 19502 07d3 74707269 		.ascii	"tprio_t\000"
 19502      6F5F7400 
 19503              	.LASF336:
 19504 07db 6E5F6972 		.ascii	"n_irq\000"
 19504      7100
 19505              	.LASF614:
 19506 07e1 69327370 		.ascii	"i2spr\000"
 19506      7200
 19507              	.LASF926:
 19508 07e7 63685379 		.ascii	"chSysHalt\000"
 19508      7348616C 
 19508      7400
 19509              	.LASF282:
 19510 07f1 41504232 		.ascii	"APB2ENR\000"
 19510      454E5200 
 19511              	.LASF799:
 19512 07f9 72657376 		.ascii	"resvd830\000"
 19512      64383330 
 19512      00
 19513              	.LASF34:
 19514 0802 5F5F746D 		.ascii	"__tm\000"
 19514      00
ARM GAS  C:\Users\Moi\AppData\Local\Temp\ccOzHcBd.s 			page 350


 19515              	.LASF801:
 19516 0807 72657376 		.ascii	"resvd838\000"
 19516      64383338 
 19516      00
 19517              	.LASF589:
 19518 0810 69326364 		.ascii	"i2cdutycycle_t\000"
 19518      75747963 
 19518      79636C65 
 19518      5F7400
 19519              	.LASF802:
 19520 081f 72657376 		.ascii	"resvd83C\000"
 19520      64383343 
 19520      00
 19521              	.LASF468:
 19522 0828 74687265 		.ascii	"thread\000"
 19522      616400
 19523              	.LASF513:
 19524 082f 72656773 		.ascii	"regshift\000"
 19524      68696674 
 19524      00
 19525              	.LASF693:
 19526 0838 73657475 		.ascii	"setup\000"
 19526      7000
 19527              	.LASF672:
 19528 083e 5350495F 		.ascii	"SPI_UNINIT\000"
 19528      554E494E 
 19528      495400
 19529              	.LASF750:
 19530 0849 44545846 		.ascii	"DTXFSTS\000"
 19530      53545300 
 19531              	.LASF417:
 19532 0851 626C6B5F 		.ascii	"blk_size\000"
 19532      73697A65 
 19532      00
 19533              	.LASF575:
 19534 085a 4932435F 		.ascii	"I2C_READY\000"
 19534      52454144 
 19534      5900
 19535              	.LASF42:
 19536 0864 5F5F746D 		.ascii	"__tm_yday\000"
 19536      5F796461 
 19536      7900
 19537              	.LASF687:
 19538 086e 696E5F70 		.ascii	"in_params\000"
 19538      6172616D 
 19538      7300
 19539              	.LASF560:
 19540 0878 43434552 		.ascii	"CCER\000"
 19540      00
 19541              	.LASF312:
 19542 087d 49325350 		.ascii	"I2SPR\000"
 19542      5200
 19543              	.LASF617:
 19544 0883 50574D5F 		.ascii	"PWM_UNINIT\000"
 19544      554E494E 
 19544      495400
 19545              	.LASF331:
ARM GAS  C:\Users\Moi\AppData\Local\Temp\ccOzHcBd.s 			page 351


 19546 088e 62657374 		.ascii	"best\000"
 19546      00
 19547              	.LASF759:
 19548 0893 47414842 		.ascii	"GAHBCFG\000"
 19548      43464700 
 19549              	.LASF523:
 19550 089b 64616363 		.ascii	"daccallback_t\000"
 19550      616C6C62 
 19550      61636B5F 
 19550      7400
 19551              	.LASF17:
 19552 08a9 5F4C4F43 		.ascii	"_LOCK_T\000"
 19552      4B5F5400 
 19553              	.LASF803:
 19554 08b1 72657376 		.ascii	"resvd840\000"
 19554      64383430 
 19554      00
 19555              	.LASF308:
 19556 08ba 43524350 		.ascii	"CRCPR\000"
 19556      5200
 19557              	.LASF412:
 19558 08c0 424C4B5F 		.ascii	"BLK_READY\000"
 19558      52454144 
 19558      5900
 19559              	.LASF7:
 19560 08ca 5F5F696E 		.ascii	"__int16_t\000"
 19560      7431365F 
 19560      7400
 19561              	.LASF873:
 19562 08d4 646F6E65 		.ascii	"done\000"
 19562      00
 19563              	.LASF878:
 19564 08d9 6F74675F 		.ascii	"otg_rxfifo_handler\000"
 19564      72786669 
 19564      666F5F68 
 19564      616E646C 
 19564      657200
 19565              	.LASF9:
 19566 08ec 5F5F7569 		.ascii	"__uint16_t\000"
 19566      6E743136 
 19566      5F7400
 19567              	.LASF550:
 19568 08f7 4750545F 		.ascii	"GPT_CONTINUOUS\000"
 19568      434F4E54 
 19568      494E554F 
 19568      555300
 19569              	.LASF817:
 19570 0906 74787175 		.ascii	"txqueued\000"
 19570      65756564 
 19570      00
 19571              	.LASF164:
 19572 090f 705F6D73 		.ascii	"p_msg\000"
 19572      6700
 19573              	.LASF102:
 19574 0915 5F756E75 		.ascii	"_unused_rand\000"
 19574      7365645F 
 19574      72616E64 
ARM GAS  C:\Users\Moi\AppData\Local\Temp\ccOzHcBd.s 			page 352


 19574      00
 19575              	.LASF756:
 19576 0922 73746D33 		.ascii	"stm32_otg_out_ep_t\000"
 19576      325F6F74 
 19576      675F6F75 
 19576      745F6570 
 19576      5F7400
 19577              	.LASF765:
 19578 0935 47525853 		.ascii	"GRXSTSP\000"
 19578      54535000 
 19579              	.LASF764:
 19580 093d 47525853 		.ascii	"GRXSTSR\000"
 19580      54535200 
 19581              	.LASF927:
 19582 0945 63685468 		.ascii	"chThdDequeueAllI\000"
 19582      64446571 
 19582      75657565 
 19582      416C6C49 
 19582      00
 19583              	.LASF342:
 19584 0956 65786974 		.ascii	"exitcode\000"
 19584      636F6465 
 19584      00
 19585              	.LASF264:
 19586 095f 4D314152 		.ascii	"M1AR\000"
 19586      00
 19587              	.LASF700:
 19588 0964 77616974 		.ascii	"wait\000"
 19588      00
 19589              	.LASF265:
 19590 0969 444D415F 		.ascii	"DMA_Stream_TypeDef\000"
 19590      53747265 
 19590      616D5F54 
 19590      79706544 
 19590      656600
 19591              	.LASF942:
 19592 097c 5F757362 		.ascii	"_usb_reset\000"
 19592      5F726573 
 19592      657400
 19593              	.LASF707:
 19594 0987 5553425F 		.ascii	"USB_ACTIVE\000"
 19594      41435449 
 19594      564500
 19595              	.LASF752:
 19596 0992 73746D33 		.ascii	"stm32_otg_in_ep_t\000"
 19596      325F6F74 
 19596      675F696E 
 19596      5F65705F 
 19596      7400
 19597              	.LASF825:
 19598 09a4 7278636E 		.ascii	"rxcnt\000"
 19598      7400
 19599              	.LASF450:
 19600 09aa 4144435F 		.ascii	"ADC_UNINIT\000"
 19600      554E494E 
 19600      495400
 19601              	.LASF597:
ARM GAS  C:\Users\Moi\AppData\Local\Temp\ccOzHcBd.s 			page 353


 19602 09b5 7278646D 		.ascii	"rxdmamode\000"
 19602      616D6F64 
 19602      6500
 19603              	.LASF84:
 19604 09bf 5F726573 		.ascii	"_result_k\000"
 19604      756C745F 
 19604      6B00
 19605              	.LASF542:
 19606 09c9 6D6F6465 		.ascii	"mode\000"
 19606      00
 19607              	.LASF76:
 19608 09ce 5F737464 		.ascii	"_stderr\000"
 19608      65727200 
 19609              	.LASF83:
 19610 09d6 5F726573 		.ascii	"_result\000"
 19610      756C7400 
 19611              	.LASF355:
 19612 09de 6D5F636E 		.ascii	"m_cnt\000"
 19612      7400
 19613              	.LASF539:
 19614 09e4 45585444 		.ascii	"EXTDriver\000"
 19614      72697665 
 19614      7200
 19615              	.LASF46:
 19616 09ee 5F64736F 		.ascii	"_dso_handle\000"
 19616      5F68616E 
 19616      646C6500 
 19617              	.LASF609:
 19618 09fa 69327363 		.ascii	"i2scallback_t\000"
 19618      616C6C62 
 19618      61636B5F 
 19618      7400
 19619              	.LASF681:
 19620 0a08 73737061 		.ascii	"sspad\000"
 19620      6400
 19621              	.LASF598:
 19622 0a0e 7478646D 		.ascii	"txdmamode\000"
 19622      616D6F64 
 19622      6500
 19623              	.LASF566:
 19624 0a18 67707466 		.ascii	"gptfreq_t\000"
 19624      7265715F 
 19624      7400
 19625              	.LASF41:
 19626 0a22 5F5F746D 		.ascii	"__tm_wday\000"
 19626      5F776461 
 19626      7900
 19627              	.LASF43:
 19628 0a2c 5F5F746D 		.ascii	"__tm_isdst\000"
 19628      5F697364 
 19628      737400
 19629              	.LASF858:
 19630 0a37 7573625F 		.ascii	"usb_lld_prepare_transmit\000"
 19630      6C6C645F 
 19630      70726570 
 19630      6172655F 
 19630      7472616E 
ARM GAS  C:\Users\Moi\AppData\Local\Temp\ccOzHcBd.s 			page 354


 19631              	.LASF810:
 19632 0a50 72785F66 		.ascii	"rx_fifo_size\000"
 19632      69666F5F 
 19632      73697A65 
 19632      00
 19633              	.LASF317:
 19634 0a5d 73746B61 		.ascii	"stkalign_t\000"
 19634      6C69676E 
 19634      5F7400
 19635              	.LASF521:
 19636 0a68 4441435F 		.ascii	"DAC_ERR_UNDERFLOW\000"
 19636      4552525F 
 19636      554E4445 
 19636      52464C4F 
 19636      5700
 19637              	.LASF502:
 19638 0a7a 77616B65 		.ascii	"wakeup_event\000"
 19638      75705F65 
 19638      76656E74 
 19638      00
 19639              	.LASF187:
 19640 0a87 76745F70 		.ascii	"vt_prev\000"
 19640      72657600 
 19641              	.LASF476:
 19642 0a8f 656E645F 		.ascii	"end_cb\000"
 19642      636200
 19643              	.LASF828:
 19644 0a96 73657475 		.ascii	"setup_cb\000"
 19644      705F6362 
 19644      00
 19645              	.LASF6:
 19646 0a9f 756E7369 		.ascii	"unsigned char\000"
 19646      676E6564 
 19646      20636861 
 19646      7200
 19647              	.LASF75:
 19648 0aad 5F737464 		.ascii	"_stdout\000"
 19648      6F757400 
 19649              	.LASF306:
 19650 0ab5 4649464F 		.ascii	"FIFO\000"
 19650      00
 19651              	.LASF327:
 19652 0aba 74625F62 		.ascii	"tb_buffer\000"
 19652      75666665 
 19652      7200
 19653              	.LASF496:
 19654 0ac4 74787175 		.ascii	"txqueue\000"
 19654      65756500 
 19655              	.LASF350:
 19656 0acc 735F636E 		.ascii	"s_cnt\000"
 19656      7400
 19657              	.LASF175:
 19658 0ad2 72656164 		.ascii	"ready_list_t\000"
 19658      795F6C69 
 19658      73745F74 
 19658      00
 19659              	.LASF148:
ARM GAS  C:\Users\Moi\AppData\Local\Temp\ccOzHcBd.s 			page 355


 19660 0adf 63685F74 		.ascii	"ch_thread\000"
 19660      68726561 
 19660      6400
 19661              	.LASF584:
 19662 0ae9 4F504D4F 		.ascii	"OPMODE_SMBUS_HOST\000"
 19662      44455F53 
 19662      4D425553 
 19662      5F484F53 
 19662      5400
 19663              	.LASF117:
 19664 0afb 5F6D6273 		.ascii	"_mbsrtowcs_state\000"
 19664      72746F77 
 19664      63735F73 
 19664      74617465 
 19664      00
 19665              	.LASF702:
 19666 0b0c 75736265 		.ascii	"usbep_t\000"
 19666      705F7400 
 19667              	.LASF845:
 19668 0b14 65703073 		.ascii	"ep0setup_buffer\000"
 19668      65747570 
 19668      5F627566 
 19668      66657200 
 19669              	.LASF285:
 19670 0b24 41484233 		.ascii	"AHB3LPENR\000"
 19670      4C50454E 
 19670      5200
 19671              	.LASF32:
 19672 0b2e 5F776473 		.ascii	"_wds\000"
 19672      00
 19673              	.LASF535:
 19674 0b33 4558545F 		.ascii	"EXT_UNINIT\000"
 19674      554E494E 
 19674      495400
 19675              	.LASF493:
 19676 0b3e 43414E5F 		.ascii	"CAN_SLEEP\000"
 19676      534C4545 
 19676      5000
 19677              	.LASF323:
 19678 0b48 73655F73 		.ascii	"se_state\000"
 19678      74617465 
 19678      00
 19679              	.LASF54:
 19680 0b51 5F73697A 		.ascii	"_size\000"
 19680      6500
 19681              	.LASF671:
 19682 0b57 53444344 		.ascii	"SDCD1\000"
 19682      3100
 19683              	.LASF194:
 19684 0b5d 73797374 		.ascii	"system_debug_t\000"
 19684      656D5F64 
 19684      65627567 
 19684      5F7400
 19685              	.LASF252:
 19686 0b6c 44485238 		.ascii	"DHR8R1\000"
 19686      523100
 19687              	.LASF255:
ARM GAS  C:\Users\Moi\AppData\Local\Temp\ccOzHcBd.s 			page 356


 19688 0b73 44485238 		.ascii	"DHR8R2\000"
 19688      523200
 19689              	.LASF557:
 19690 0b7a 44494552 		.ascii	"DIER\000"
 19690      00
 19691              	.LASF284:
 19692 0b7f 41484232 		.ascii	"AHB2LPENR\000"
 19692      4C50454E 
 19692      5200
 19693              	.LASF152:
 19694 0b89 705F6374 		.ascii	"p_ctx\000"
 19694      7800
 19695              	.LASF190:
 19696 0b8f 76745F70 		.ascii	"vt_par\000"
 19696      617200
 19697              	.LASF211:
 19698 0b96 4A4F4652 		.ascii	"JOFR1\000"
 19698      3100
 19699              	.LASF212:
 19700 0b9c 4A4F4652 		.ascii	"JOFR2\000"
 19700      3200
 19701              	.LASF214:
 19702 0ba2 4A4F4652 		.ascii	"JOFR4\000"
 19702      3400
 19703              	.LASF61:
 19704 0ba8 5F777269 		.ascii	"_write\000"
 19704      746500
 19705              	.LASF310:
 19706 0baf 54584352 		.ascii	"TXCRCR\000"
 19706      435200
 19707              	.LASF861:
 19708 0bb6 7573625F 		.ascii	"usb_lld_read_setup\000"
 19708      6C6C645F 
 19708      72656164 
 19708      5F736574 
 19708      757000
 19709              	.LASF528:
 19710 0bc9 64616364 		.ascii	"dacdhrmode_t\000"
 19710      68726D6F 
 19710      64655F74 
 19710      00
 19711              	.LASF470:
 19712 0bd6 646D6173 		.ascii	"dmastp\000"
 19712      747000
 19713              	.LASF588:
 19714 0bdd 46415354 		.ascii	"FAST_DUTY_CYCLE_16_9\000"
 19714      5F445554 
 19714      595F4359 
 19714      434C455F 
 19714      31365F39 
 19715              	.LASF886:
 19716 0bf2 6F74675F 		.ascii	"otg_do_pop\000"
 19716      646F5F70 
 19716      6F7000
 19717              	.LASF857:
 19718 0bfd 7573625F 		.ascii	"usb_lld_start_out\000"
 19718      6C6C645F 
ARM GAS  C:\Users\Moi\AppData\Local\Temp\ccOzHcBd.s 			page 357


 19718      73746172 
 19718      745F6F75 
 19718      7400
 19719              	.LASF133:
 19720 0c0f 75696E74 		.ascii	"uint64_t\000"
 19720      36345F74 
 19720      00
 19721              	.LASF337:
 19722 0c18 6E5F6374 		.ascii	"n_ctxswc\000"
 19722      78737763 
 19722      00
 19723              	.LASF375:
 19724 0c21 63685F64 		.ascii	"ch_debug\000"
 19724      65627567 
 19724      00
 19725              	.LASF531:
 19726 0c2a 696E6974 		.ascii	"init\000"
 19726      00
 19727              	.LASF239:
 19728 0c2f 464D3152 		.ascii	"FM1R\000"
 19728      00
 19729              	.LASF447:
 19730 0c34 50414C43 		.ascii	"PALConfig\000"
 19730      6F6E6669 
 19730      6700
 19731              	.LASF819:
 19732 0c3e 7478636E 		.ascii	"txcnt\000"
 19732      7400
 19733              	.LASF733:
 19734 0c44 75736265 		.ascii	"usbeventcb_t\000"
 19734      76656E74 
 19734      63625F74 
 19734      00
 19735              	.LASF409:
 19736 0c51 424C4B5F 		.ascii	"BLK_ACTIVE\000"
 19736      41435449 
 19736      564500
 19737              	.LASF40:
 19738 0c5c 5F5F746D 		.ascii	"__tm_year\000"
 19738      5F796561 
 19738      7200
 19739              	.LASF377:
 19740 0c66 6576656E 		.ascii	"event_listener_t\000"
 19740      745F6C69 
 19740      7374656E 
 19740      65725F74 
 19740      00
 19741              	.LASF811:
 19742 0c77 6F74675F 		.ascii	"otg_ram_size\000"
 19742      72616D5F 
 19742      73697A65 
 19742      00
 19743              	.LASF898:
 19744 0c84 6F74675F 		.ascii	"otg_core_reset\000"
 19744      636F7265 
 19744      5F726573 
 19744      657400
ARM GAS  C:\Users\Moi\AppData\Local\Temp\ccOzHcBd.s 			page 358


 19745              	.LASF813:
 19746 0c93 73746D33 		.ascii	"stm32_otg_params_t\000"
 19746      325F6F74 
 19746      675F7061 
 19746      72616D73 
 19746      5F7400
 19747              	.LASF806:
 19748 0ca6 72657376 		.ascii	"resvdD00\000"
 19748      64443030 
 19748      00
 19749              	.LASF309:
 19750 0caf 52584352 		.ascii	"RXCRCR\000"
 19750      435200
 19751              	.LASF822:
 19752 0cb6 72786275 		.ascii	"rxbuf\000"
 19752      6600
 19753              	.LASF100:
 19754 0cbc 5F6D756C 		.ascii	"_mult\000"
 19754      7400
 19755              	.LASF351:
 19756 0cc2 63685F6D 		.ascii	"ch_mutex\000"
 19756      75746578 
 19756      00
 19757              	.LASF895:
 19758 0ccb 6669666F 		.ascii	"fifo\000"
 19758      00
 19759              	.LASF499:
 19760 0cd0 7478656D 		.ascii	"txempty_event\000"
 19760      7074795F 
 19760      6576656E 
 19760      7400
 19761              	.LASF274:
 19762 0cde 41484232 		.ascii	"AHB2RSTR\000"
 19762      52535452 
 19762      00
 19763              	.LASF621:
 19764 0ce7 50574D44 		.ascii	"PWMDriver\000"
 19764      72697665 
 19764      7200
 19765              	.LASF444:
 19766 0cf1 50474461 		.ascii	"PGData\000"
 19766      746100
 19767              	.LASF630:
 19768 0cf8 50574D43 		.ascii	"PWMConfig\000"
 19768      6F6E6669 
 19768      6700
 19769              	.LASF115:
 19770 0d02 5F6D6272 		.ascii	"_mbrlen_state\000"
 19770      6C656E5F 
 19770      73746174 
 19770      6500
 19771              	.LASF921:
 19772 0d10 76616C75 		.ascii	"value\000"
 19772      6500
 19773              	.LASF365:
 19774 0d16 63665F6F 		.ascii	"cf_off_newer\000"
 19774      66665F6E 
ARM GAS  C:\Users\Moi\AppData\Local\Temp\ccOzHcBd.s 			page 359


 19774      65776572 
 19774      00
 19775              	.LASF791:
 19776 0d23 44494550 		.ascii	"DIEPMSK\000"
 19776      4D534B00 
 19777              	.LASF758:
 19778 0d2b 474F5447 		.ascii	"GOTGINT\000"
 19778      494E5400 
 19779              	.LASF830:
 19780 0d33 6F75745F 		.ascii	"out_cb\000"
 19780      636200
 19781              	.LASF782:
 19782 0d3a 4841494E 		.ascii	"HAINTMSK\000"
 19782      544D534B 
 19782      00
 19783              	.LASF688:
 19784 0d43 6F75745F 		.ascii	"out_params\000"
 19784      70617261 
 19784      6D7300
 19785              	.LASF322:
 19786 0d4e 73655F77 		.ascii	"se_wtobjp\000"
 19786      746F626A 
 19786      7000
 19787              	.LASF218:
 19788 0d58 4A535152 		.ascii	"JSQR\000"
 19788      00
 19789              	.LASF852:
 19790 0d5d 7573625F 		.ascii	"usb_lld_clear_in\000"
 19790      6C6C645F 
 19790      636C6561 
 19790      725F696E 
 19790      00
 19791              	.LASF74:
 19792 0d6e 5F737464 		.ascii	"_stdin\000"
 19792      696E00
 19793              	.LASF122:
 19794 0d75 5F6E6D61 		.ascii	"_nmalloc\000"
 19794      6C6C6F63 
 19794      00
 19795              	.LASF569:
 19796 0d7e 64696572 		.ascii	"dier\000"
 19796      00
 19797              	.LASF666:
 19798 0d83 69735F70 		.ascii	"is_protected\000"
 19798      726F7465 
 19798      63746564 
 19798      00
 19799              	.LASF184:
 19800 0d90 76697274 		.ascii	"virtual_timer_t\000"
 19800      75616C5F 
 19800      74696D65 
 19800      725F7400 
 19801              	.LASF832:
 19802 0da0 6F75745F 		.ascii	"out_maxsize\000"
 19802      6D617873 
 19802      697A6500 
 19803              	.LASF179:
ARM GAS  C:\Users\Moi\AppData\Local\Temp\ccOzHcBd.s 			page 360


 19804 0dac 725F6374 		.ascii	"r_ctx\000"
 19804      7800
 19805              	.LASF186:
 19806 0db2 76745F6E 		.ascii	"vt_next\000"
 19806      65787400 
 19807              	.LASF603:
 19808 0dba 4932535F 		.ascii	"I2S_STOP\000"
 19808      53544F50 
 19808      00
 19809              	.LASF618:
 19810 0dc3 50574D5F 		.ascii	"PWM_STOP\000"
 19810      53544F50 
 19810      00
 19811              	.LASF145:
 19812 0dcc 75636E74 		.ascii	"ucnt_t\000"
 19812      5F7400
 19813              	.LASF134:
 19814 0dd3 7274636E 		.ascii	"rtcnt_t\000"
 19814      745F7400 
 19815              	.LASF469:
 19816 0ddb 6D757465 		.ascii	"mutex\000"
 19816      7800
 19817              	.LASF612:
 19818 0de1 73697A65 		.ascii	"size\000"
 19818      00
 19819              	.LASF517:
 19820 0de6 44414344 		.ascii	"DACDriver\000"
 19820      72697665 
 19820      7200
 19821              	.LASF533:
 19822 0df0 44414343 		.ascii	"DACConfig\000"
 19822      6F6E6669 
 19822      6700
 19823              	.LASF699:
 19824 0dfa 74787065 		.ascii	"txpending\000"
 19824      6E64696E 
 19824      6700
 19825              	.LASF554:
 19826 0e04 636C6F63 		.ascii	"clock\000"
 19826      6B00
 19827              	.LASF421:
 19828 0e0a 636C6561 		.ascii	"clear\000"
 19828      7200
 19829              	.LASF564:
 19830 0e10 43435852 		.ascii	"CCXR\000"
 19830      00
 19831              	.LASF248:
 19832 0e15 43414E5F 		.ascii	"CAN_TypeDef\000"
 19832      54797065 
 19832      44656600 
 19833              	.LASF18:
 19834 0e21 5F6F6666 		.ascii	"_off_t\000"
 19834      5F7400
 19835              	.LASF324:
 19836 0e28 63685F73 		.ascii	"ch_swc_event_t\000"
 19836      77635F65 
 19836      76656E74 
ARM GAS  C:\Users\Moi\AppData\Local\Temp\ccOzHcBd.s 			page 361


 19836      5F7400
 19837              	.LASF636:
 19838 0e37 53445F53 		.ascii	"SD_STOP\000"
 19838      544F5000 
 19839              	.LASF737:
 19840 0e3f 72657376 		.ascii	"resvd8\000"
 19840      643800
 19841              	.LASF4:
 19842 0e46 73697A65 		.ascii	"size_t\000"
 19842      5F7400
 19843              	.LASF105:
 19844 0e4d 5F6C6F63 		.ascii	"_localtime_buf\000"
 19844      616C7469 
 19844      6D655F62 
 19844      756600
 19845              	.LASF804:
 19846 0e5c 72657376 		.ascii	"resvd880\000"
 19846      64383830 
 19846      00
 19847              	.LASF23:
 19848 0e65 5F5F636F 		.ascii	"__count\000"
 19848      756E7400 
 19849              	.LASF128:
 19850 0e6d 75696E74 		.ascii	"uint8_t\000"
 19850      385F7400 
 19851              	.LASF741:
 19852 0e75 72657376 		.ascii	"resvd14\000"
 19852      64313400 
 19853              	.LASF489:
 19854 0e7d 43414E5F 		.ascii	"CAN_UNINIT\000"
 19854      554E494E 
 19854      495400
 19855              	.LASF742:
 19856 0e88 72657376 		.ascii	"resvd18\000"
 19856      64313800 
 19857              	.LASF181:
 19858 0e90 725F6F6C 		.ascii	"r_older\000"
 19858      64657200 
 19859              	.LASF150:
 19860 0e98 705F7072 		.ascii	"p_prev\000"
 19860      657600
 19861              	.LASF367:
 19862 0e9f 63665F6F 		.ascii	"cf_off_name\000"
 19862      66665F6E 
 19862      616D6500 
 19863              	.LASF629:
 19864 0eab 50574D43 		.ascii	"PWMChannelConfig\000"
 19864      68616E6E 
 19864      656C436F 
 19864      6E666967 
 19864      00
 19865              	.LASF628:
 19866 0ebc 70776D63 		.ascii	"pwmcnt_t\000"
 19866      6E745F74 
 19866      00
 19867              	.LASF800:
 19868 0ec5 44494550 		.ascii	"DIEPEMPMSK\000"
ARM GAS  C:\Users\Moi\AppData\Local\Temp\ccOzHcBd.s 			page 362


 19868      454D504D 
 19868      534B00
 19869              	.LASF710:
 19870 0ed0 45505F53 		.ascii	"EP_STATUS_STALLED\000"
 19870      54415455 
 19870      535F5354 
 19870      414C4C45 
 19870      4400
 19871              	.LASF745:
 19872 0ee2 44494550 		.ascii	"DIEPCTL\000"
 19872      43544C00 
 19873              	.LASF383:
 19874 0eea 656C5F77 		.ascii	"el_wflags\000"
 19874      666C6167 
 19874      7300
 19875              	.LASF697:
 19876 0ef4 6F746770 		.ascii	"otgparams\000"
 19876      6172616D 
 19876      7300
 19877              	.LASF325:
 19878 0efe 74625F73 		.ascii	"tb_size\000"
 19878      697A6500 
 19879              	.LASF441:
 19880 0f06 50444461 		.ascii	"PDData\000"
 19880      746100
 19881              	.LASF661:
 19882 0f0d 73637261 		.ascii	"scratchpad\000"
 19882      74636870 
 19882      616400
 19883              	.LASF885:
 19884 0f18 6F74675F 		.ascii	"otg_txfifo_handler\000"
 19884      74786669 
 19884      666F5F68 
 19884      616E646C 
 19884      657200
 19885              	.LASF88:
 19886 0f2b 5F637674 		.ascii	"_cvtbuf\000"
 19886      62756600 
 19887              	.LASF834:
 19888 0f33 6F75745F 		.ascii	"out_state\000"
 19888      73746174 
 19888      6500
 19889              	.LASF387:
 19890 0f3d 696F5F71 		.ascii	"io_queue_t\000"
 19890      75657565 
 19890      5F7400
 19891              	.LASF870:
 19892 0f48 7573625F 		.ascii	"usb_lld_start\000"
 19892      6C6C645F 
 19892      73746172 
 19892      7400
 19893              	.LASF677:
 19894 0f56 73706973 		.ascii	"spistate_t\000"
 19894      74617465 
 19894      5F7400
 19895              	.LASF574:
 19896 0f61 4932435F 		.ascii	"I2C_STOP\000"
ARM GAS  C:\Users\Moi\AppData\Local\Temp\ccOzHcBd.s 			page 363


 19896      53544F50 
 19896      00
 19897              	.LASF596:
 19898 0f6a 61646472 		.ascii	"addr\000"
 19898      00
 19899              	.LASF901:
 19900 0f6f 6F73616C 		.ascii	"osalThreadSuspendS\000"
 19900      54687265 
 19900      61645375 
 19900      7370656E 
 19900      645300
 19901              	.LASF233:
 19902 0f82 52463052 		.ascii	"RF0R\000"
 19902      00
 19903              	.LASF911:
 19904 0f87 63685468 		.ascii	"chThdStartI\000"
 19904      64537461 
 19904      72744900 
 19905              	.LASF459:
 19906 0f93 4144435F 		.ascii	"ADC_ERR_DMAFAILURE\000"
 19906      4552525F 
 19906      444D4146 
 19906      41494C55 
 19906      524500
 19907              	.LASF675:
 19908 0fa6 5350495F 		.ascii	"SPI_ACTIVE\000"
 19908      41435449 
 19908      564500
 19909              	.LASF314:
 19910 0fb1 47545052 		.ascii	"GTPR\000"
 19910      00
 19911              	.LASF543:
 19912 0fb6 45585443 		.ascii	"EXTChannelConfig\000"
 19912      68616E6E 
 19912      656C436F 
 19912      6E666967 
 19912      00
 19913              	.LASF424:
 19914 0fc7 4F535045 		.ascii	"OSPEEDR\000"
 19914      45445200 
 19915              	.LASF507:
 19916 0fcf 4441435F 		.ascii	"DAC_READY\000"
 19916      52454144 
 19916      5900
 19917              	.LASF769:
 19918 0fd9 72657376 		.ascii	"resvd30\000"
 19918      64333000 
 19919              	.LASF22:
 19920 0fe1 5F5F7763 		.ascii	"__wchb\000"
 19920      686200
 19921              	.LASF116:
 19922 0fe8 5F6D6272 		.ascii	"_mbrtowc_state\000"
 19922      746F7763 
 19922      5F737461 
 19922      746500
 19923              	.LASF798:
 19924 0ff7 44564255 		.ascii	"DVBUSPULSE\000"
ARM GAS  C:\Users\Moi\AppData\Local\Temp\ccOzHcBd.s 			page 364


 19924      5350554C 
 19924      534500
 19925              	.LASF890:
 19926 1002 6F74675F 		.ascii	"otg_ram_alloc\000"
 19926      72616D5F 
 19926      616C6C6F 
 19926      6300
 19927              	.LASF37:
 19928 1010 5F5F746D 		.ascii	"__tm_hour\000"
 19928      5F686F75 
 19928      7200
 19929              	.LASF408:
 19930 101a 424C4B5F 		.ascii	"BLK_STOP\000"
 19930      53544F50 
 19930      00
 19931              	.LASF644:
 19932 1023 53657269 		.ascii	"SerialDriverVMT\000"
 19932      616C4472 
 19932      69766572 
 19932      564D5400 
 19933              	.LASF719:
 19934 1033 5553425F 		.ascii	"USB_EP0_ERROR\000"
 19934      4550305F 
 19934      4552524F 
 19934      5200
 19935              	.LASF20:
 19936 1041 77696E74 		.ascii	"wint_t\000"
 19936      5F7400
 19937              	.LASF667:
 19938 1048 636F6E6E 		.ascii	"connect\000"
 19938      65637400 
 19939              	.LASF89:
 19940 1050 5F6E6577 		.ascii	"_new\000"
 19940      00
 19941              	.LASF462:
 19942 1055 41444344 		.ascii	"ADCDriver\000"
 19942      72697665 
 19942      7200
 19943              	.LASF812:
 19944 105f 6E756D5F 		.ascii	"num_endpoints\000"
 19944      656E6470 
 19944      6F696E74 
 19944      7300
 19945              	.LASF485:
 19946 106d 41444343 		.ascii	"ADCConfig\000"
 19946      6F6E6669 
 19946      6700
 19947              	.LASF820:
 19948 1077 746F7473 		.ascii	"totsize\000"
 19948      697A6500 
 19949              	.LASF96:
 19950 107f 5F6E696F 		.ascii	"_niobs\000"
 19950      627300
 19951              	.LASF368:
 19952 1086 63665F6F 		.ascii	"cf_off_stklimit\000"
 19952      66665F73 
 19952      746B6C69 
ARM GAS  C:\Users\Moi\AppData\Local\Temp\ccOzHcBd.s 			page 365


 19952      6D697400 
 19953              	.LASF637:
 19954 1096 53445F52 		.ascii	"SD_READY\000"
 19954      45414459 
 19954      00
 19955              	.LASF735:
 19956 109f 75736267 		.ascii	"usbgetdescriptor_t\000"
 19956      65746465 
 19956      73637269 
 19956      70746F72 
 19956      5F7400
 19957              	.LASF510:
 19958 10b2 4441435F 		.ascii	"DAC_ERROR\000"
 19958      4552524F 
 19958      5200
 19959              	.LASF182:
 19960 10bc 725F6375 		.ascii	"r_current\000"
 19960      7272656E 
 19960      7400
 19961              	.LASF73:
 19962 10c6 5F657272 		.ascii	"_errno\000"
 19962      6E6F00
 19963              	.LASF714:
 19964 10cd 5553425F 		.ascii	"USB_EP0_TX\000"
 19964      4550305F 
 19964      545800
 19965              	.LASF689:
 19966 10d8 65703073 		.ascii	"ep0state\000"
 19966      74617465 
 19966      00
 19967              	.LASF38:
 19968 10e1 5F5F746D 		.ascii	"__tm_mday\000"
 19968      5F6D6461 
 19968      7900
 19969              	.LASF401:
 19970 10eb 69666372 		.ascii	"ifcr\000"
 19970      00
 19971              	.LASF872:
 19972 10f0 56656374 		.ascii	"Vector14C\000"
 19972      6F723134 
 19972      4300
 19973              	.LASF602:
 19974 10fa 4932535F 		.ascii	"I2S_UNINIT\000"
 19974      554E494E 
 19974      495400
 19975              	.LASF430:
 19976 1105 73746D33 		.ascii	"stm32_gpio_t\000"
 19976      325F6770 
 19976      696F5F74 
 19976      00
 19977              	.LASF341:
 19978 1112 7264796D 		.ascii	"rdymsg\000"
 19978      736700
 19979              	.LASF45:
 19980 1119 5F666E61 		.ascii	"_fnargs\000"
 19980      72677300 
 19981              	.LASF619:
ARM GAS  C:\Users\Moi\AppData\Local\Temp\ccOzHcBd.s 			page 366


 19982 1121 50574D5F 		.ascii	"PWM_READY\000"
 19982      52454144 
 19982      5900
 19983              	.LASF224:
 19984 112b 54445452 		.ascii	"TDTR\000"
 19984      00
 19985              	.LASF946:
 19986 1130 5F706F72 		.ascii	"_port_irq_epilogue\000"
 19986      745F6972 
 19986      715F6570 
 19986      696C6F67 
 19986      756500
 19987              	.LASF232:
 19988 1143 43414E5F 		.ascii	"CAN_FilterRegister_TypeDef\000"
 19988      46696C74 
 19988      65725265 
 19988      67697374 
 19988      65725F54 
 19989              	.LASF500:
 19990 115e 6572726F 		.ascii	"error_event\000"
 19990      725F6576 
 19990      656E7400 
 19991              	.LASF475:
 19992 116a 6E756D5F 		.ascii	"num_channels\000"
 19992      6368616E 
 19992      6E656C73 
 19992      00
 19993              	.LASF213:
 19994 1177 4A4F4652 		.ascii	"JOFR3\000"
 19994      3300
 19995              	.LASF772:
 19996 117d 72657376 		.ascii	"resvd58\000"
 19996      64353800 
 19997              	.LASF821:
 19998 1185 55534249 		.ascii	"USBInEndpointState\000"
 19998      6E456E64 
 19998      706F696E 
 19998      74537461 
 19998      746500
 19999              	.LASF151:
 20000 1198 705F7072 		.ascii	"p_prio\000"
 20000      696F00
 20001              	.LASF388:
 20002 119f 696F5F71 		.ascii	"io_queue\000"
 20002      75657565 
 20002      00
 20003              	.LASF438:
 20004 11a8 50414461 		.ascii	"PAData\000"
 20004      746100
 20005              	.LASF15:
 20006 11af 5F5F7569 		.ascii	"__uint64_t\000"
 20006      6E743634 
 20006      5F7400
 20007              	.LASF854:
 20008 11ba 7573625F 		.ascii	"usb_lld_stall_in\000"
 20008      6C6C645F 
 20008      7374616C 
ARM GAS  C:\Users\Moi\AppData\Local\Temp\ccOzHcBd.s 			page 367


 20008      6C5F696E 
 20008      00
 20009              	.LASF29:
 20010 11cb 5F6E6578 		.ascii	"_next\000"
 20010      7400
 20011              	.LASF624:
 20012 11d1 70776D63 		.ascii	"pwmcallback_t\000"
 20012      616C6C62 
 20012      61636B5F 
 20012      7400
 20013              	.LASF518:
 20014 11df 70617261 		.ascii	"params\000"
 20014      6D7300
 20015              	.LASF718:
 20016 11e6 5553425F 		.ascii	"USB_EP0_SENDING_STS\000"
 20016      4550305F 
 20016      53454E44 
 20016      494E475F 
 20016      53545300 
 20017              	.LASF113:
 20018 11fa 5F736967 		.ascii	"_signal_buf\000"
 20018      6E616C5F 
 20018      62756600 
 20019              	.LASF579:
 20020 1206 69326373 		.ascii	"i2cstate_t\000"
 20020      74617465 
 20020      5F7400
 20021              	.LASF59:
 20022 1211 5F636F6F 		.ascii	"_cookie\000"
 20022      6B696500 
 20023              	.LASF899:
 20024 1219 6F73616C 		.ascii	"osalThreadDequeueAllI\000"
 20024      54687265 
 20024      61644465 
 20024      71756575 
 20024      65416C6C 
 20025              	.LASF720:
 20026 122f 75736265 		.ascii	"usbep0state_t\000"
 20026      70307374 
 20026      6174655F 
 20026      7400
 20027              	.LASF522:
 20028 123d 64616365 		.ascii	"dacerror_t\000"
 20028      72726F72 
 20028      5F7400
 20029              	.LASF236:
 20030 1248 7354784D 		.ascii	"sTxMailBox\000"
 20030      61696C42 
 20030      6F7800
 20031              	.LASF457:
 20032 1253 61646373 		.ascii	"adcsample_t\000"
 20032      616D706C 
 20032      655F7400 
 20033              	.LASF555:
 20034 125f 67707463 		.ascii	"gptcallback_t\000"
 20034      616C6C62 
 20034      61636B5F 
ARM GAS  C:\Users\Moi\AppData\Local\Temp\ccOzHcBd.s 			page 368


 20034      7400
 20035              	.LASF391:
 20036 126d 715F6275 		.ascii	"q_buffer\000"
 20036      66666572 
 20036      00
 20037              	.LASF277:
 20038 1276 41504232 		.ascii	"APB2RSTR\000"
 20038      52535452 
 20038      00
 20039              	.LASF149:
 20040 127f 705F6E65 		.ascii	"p_next\000"
 20040      787400
 20041              	.LASF601:
 20042 1286 49324344 		.ascii	"I2CD1\000"
 20042      3100
 20043              	.LASF746:
 20044 128c 72657376 		.ascii	"resvd4\000"
 20044      643400
 20045              	.LASF684:
 20046 1293 55534244 		.ascii	"USBDriver\000"
 20046      72697665 
 20046      7200
 20047              	.LASF805:
 20048 129d 72657376 		.ascii	"resvd8C0\000"
 20048      64384330 
 20048      00
 20049              	.LASF842:
 20050 12a6 55534243 		.ascii	"USBConfig\000"
 20050      6F6E6669 
 20050      6700
 20051              	.LASF748:
 20052 12b0 72657376 		.ascii	"resvdC\000"
 20052      644300
 20053              	.LASF631:
 20054 12b7 50574D44 		.ascii	"PWMD2\000"
 20054      3200
 20055              	.LASF632:
 20056 12bd 50574D44 		.ascii	"PWMD3\000"
 20056      3300
 20057              	.LASF633:
 20058 12c3 50574D44 		.ascii	"PWMD4\000"
 20058      3400
 20059              	.LASF634:
 20060 12c9 50574D44 		.ascii	"PWMD5\000"
 20060      3500
 20061              	.LASF286:
 20062 12cf 41504231 		.ascii	"APB1LPENR\000"
 20062      4C50454E 
 20062      5200
 20063              	.LASF642:
 20064 12d9 6F717565 		.ascii	"oqueue\000"
 20064      756500
 20065              	.LASF138:
 20066 12e0 74726566 		.ascii	"trefs_t\000"
 20066      735F7400 
 20067              	.LASF168:
 20068 12e8 705F6D70 		.ascii	"p_mpool\000"
ARM GAS  C:\Users\Moi\AppData\Local\Temp\ccOzHcBd.s 			page 369


 20068      6F6F6C00 
 20069              	.LASF270:
 20070 12f0 4932435F 		.ascii	"I2C_TypeDef\000"
 20070      54797065 
 20070      44656600 
 20071              	.LASF894:
 20072 12fc 6F74675F 		.ascii	"otg_txfifo_flush\000"
 20072      74786669 
 20072      666F5F66 
 20072      6C757368 
 20072      00
 20073              	.LASF530:
 20074 130d 44414343 		.ascii	"DACConversionGroup\000"
 20074      6F6E7665 
 20074      7273696F 
 20074      6E47726F 
 20074      757000
 20075              	.LASF35:
 20076 1320 5F5F746D 		.ascii	"__tm_sec\000"
 20076      5F736563 
 20076      00
 20077              	.LASF835:
 20078 1329 696E5F6D 		.ascii	"in_multiplier\000"
 20078      756C7469 
 20078      706C6965 
 20078      7200
 20079              	.LASF455:
 20080 1337 4144435F 		.ascii	"ADC_ERROR\000"
 20080      4552524F 
 20080      5200
 20081              	.LASF44:
 20082 1341 5F6F6E5F 		.ascii	"_on_exit_args\000"
 20082      65786974 
 20082      5F617267 
 20082      7300
 20083              	.LASF318:
 20084 134f 636F6E74 		.ascii	"context\000"
 20084      65787400 
 20085              	.LASF136:
 20086 1357 746D6F64 		.ascii	"tmode_t\000"
 20086      655F7400 
 20087              	.LASF935:
 20088 135f 5F746872 		.ascii	"_thread_memfill\000"
 20088      6561645F 
 20088      6D656D66 
 20088      696C6C00 
 20089              	.LASF280:
 20090 136f 41484233 		.ascii	"AHB3ENR\000"
 20090      454E5200 
 20091              	.LASF453:
 20092 1377 4144435F 		.ascii	"ADC_ACTIVE\000"
 20092      41435449 
 20092      564500
 20093              	.LASF215:
 20094 1382 53515231 		.ascii	"SQR1\000"
 20094      00
 20095              	.LASF216:
ARM GAS  C:\Users\Moi\AppData\Local\Temp\ccOzHcBd.s 			page 370


 20096 1387 53515232 		.ascii	"SQR2\000"
 20096      00
 20097              	.LASF217:
 20098 138c 53515233 		.ascii	"SQR3\000"
 20098      00
 20099              	.LASF426:
 20100 1391 42535252 		.ascii	"BSRR\000"
 20100      00
 20101              	.LASF405:
 20102 1396 73746D33 		.ascii	"stm32_dma_stream_t\000"
 20102      325F646D 
 20102      615F7374 
 20102      7265616D 
 20102      5F7400
 20103              	.LASF840:
 20104 13a9 72657175 		.ascii	"requests_hook_cb\000"
 20104      65737473 
 20104      5F686F6F 
 20104      6B5F6362 
 20104      00
 20105              	.LASF118:
 20106 13ba 5F776372 		.ascii	"_wcrtomb_state\000"
 20106      746F6D62 
 20106      5F737461 
 20106      746500
 20107              	.LASF653:
 20108 13c9 5344435F 		.ascii	"SDC_MODE_8BIT\000"
 20108      4D4F4445 
 20108      5F384249 
 20108      5400
 20109              	.LASF818:
 20110 13d7 74787369 		.ascii	"txsize\000"
 20110      7A6500
 20111              	.LASF526:
 20112 13de 4441435F 		.ascii	"DAC_DHRM_12BIT_LEFT\000"
 20112      4448524D 
 20112      5F313242 
 20112      49545F4C 
 20112      45465400 
 20113              	.LASF622:
 20114 13f2 70657269 		.ascii	"period\000"
 20114      6F6400
 20115              	.LASF352:
 20116 13f9 6D5F7175 		.ascii	"m_queue\000"
 20116      65756500 
 20117              	.LASF867:
 20118 1401 7573625F 		.ascii	"usb_lld_set_address\000"
 20118      6C6C645F 
 20118      7365745F 
 20118      61646472 
 20118      65737300 
 20119              	.LASF578:
 20120 1415 4932435F 		.ascii	"I2C_LOCKED\000"
 20120      4C4F434B 
 20120      454400
 20121              	.LASF197:
 20122 1420 6973725F 		.ascii	"isr_cnt\000"
ARM GAS  C:\Users\Moi\AppData\Local\Temp\ccOzHcBd.s 			page 371


 20122      636E7400 
 20123              	.LASF705:
 20124 1428 5553425F 		.ascii	"USB_READY\000"
 20124      52454144 
 20124      5900
 20125              	.LASF650:
 20126 1432 72656164 		.ascii	"readt\000"
 20126      7400
 20127              	.LASF761:
 20128 1438 47525354 		.ascii	"GRSTCTL\000"
 20128      43544C00 
 20129              	.LASF552:
 20130 1440 67707473 		.ascii	"gptstate_t\000"
 20130      74617465 
 20130      5F7400
 20131              	.LASF28:
 20132 144b 5F5F554C 		.ascii	"__ULong\000"
 20132      6F6E6700 
 20133              	.LASF196:
 20134 1453 70616E69 		.ascii	"panic_msg\000"
 20134      635F6D73 
 20134      6700
 20135              	.LASF676:
 20136 145d 5350495F 		.ascii	"SPI_COMPLETE\000"
 20136      434F4D50 
 20136      4C455445 
 20136      00
 20137              	.LASF300:
 20138 146a 4454494D 		.ascii	"DTIMER\000"
 20138      455200
 20139              	.LASF180:
 20140 1471 725F6E65 		.ascii	"r_newer\000"
 20140      77657200 
 20141              	.LASF726:
 20142 1479 5553425F 		.ascii	"USB_EVENT_STALLED\000"
 20142      4556454E 
 20142      545F5354 
 20142      414C4C45 
 20142      4400
 20143              	.LASF929:
 20144 148b 63685468 		.ascii	"chThdSuspendS\000"
 20144      64537573 
 20144      70656E64 
 20144      5300
 20145              	.LASF278:
 20146 1499 41484231 		.ascii	"AHB1ENR\000"
 20146      454E5200 
 20147              	.LASF374:
 20148 14a1 63686465 		.ascii	"chdebug_t\000"
 20148      6275675F 
 20148      7400
 20149              	.LASF917:
 20150 14ab 706F7274 		.ascii	"port_lock_from_isr\000"
 20150      5F6C6F63 
 20150      6B5F6672 
 20150      6F6D5F69 
 20150      737200
ARM GAS  C:\Users\Moi\AppData\Local\Temp\ccOzHcBd.s 			page 372


 20151              	.LASF924:
 20152 14be 5F646267 		.ascii	"_dbg_check_unlock\000"
 20152      5F636865 
 20152      636B5F75 
 20152      6E6C6F63 
 20152      6B00
 20153              	.LASF824:
 20154 14d0 72787369 		.ascii	"rxsize\000"
 20154      7A6500
 20155              	.LASF864:
 20156 14d7 7573625F 		.ascii	"usb_lld_disable_endpoints\000"
 20156      6C6C645F 
 20156      64697361 
 20156      626C655F 
 20156      656E6470 
 20157              	.LASF740:
 20158 14f1 48435453 		.ascii	"HCTSIZ\000"
 20158      495A00
 20159              	.LASF723:
 20160 14f8 5553425F 		.ascii	"USB_EVENT_CONFIGURED\000"
 20160      4556454E 
 20160      545F434F 
 20160      4E464947 
 20160      55524544 
 20161              	.LASF668:
 20162 150d 64697363 		.ascii	"disconnect\000"
 20162      6F6E6E65 
 20162      637400
 20163              	.LASF647:
 20164 1518 70757474 		.ascii	"putt\000"
 20164      00
 20165              	.LASF139:
 20166 151d 74736C69 		.ascii	"tslices_t\000"
 20166      6365735F 
 20166      7400
 20167              	.LASF103:
 20168 1527 5F737472 		.ascii	"_strtok_last\000"
 20168      746F6B5F 
 20168      6C617374 
 20168      00
 20169              	.LASF361:
 20170 1534 63685F74 		.ascii	"ch_timesize\000"
 20170      696D6573 
 20170      697A6500 
 20171              	.LASF868:
 20172 1540 7573625F 		.ascii	"usb_lld_reset\000"
 20172      6C6C645F 
 20172      72657365 
 20172      7400
 20173              	.LASF272:
 20174 154e 43464752 		.ascii	"CFGR\000"
 20174      00
 20175              	.LASF701:
 20176 1553 77615F70 		.ascii	"wa_pump\000"
 20176      756D7000 
 20177              	.LASF305:
 20178 155b 4649464F 		.ascii	"FIFOCNT\000"
ARM GAS  C:\Users\Moi\AppData\Local\Temp\ccOzHcBd.s 			page 373


 20178      434E5400 
 20179              	.LASF386:
 20180 1563 6576656E 		.ascii	"event_source_t\000"
 20180      745F736F 
 20180      75726365 
 20180      5F7400
 20181              	.LASF775:
 20182 1572 72657376 		.ascii	"resvd140\000"
 20182      64313430 
 20182      00
 20183              	.LASF188:
 20184 157b 76745F64 		.ascii	"vt_delta\000"
 20184      656C7461 
 20184      00
 20185              	.LASF862:
 20186 1584 7573625F 		.ascii	"usb_lld_get_status_in\000"
 20186      6C6C645F 
 20186      6765745F 
 20186      73746174 
 20186      75735F69 
 20187              	.LASF99:
 20188 159a 5F736565 		.ascii	"_seed\000"
 20188      6400
 20189              	.LASF326:
 20190 15a0 74625F70 		.ascii	"tb_ptr\000"
 20190      747200
 20191              	.LASF529:
 20192 15a7 74726967 		.ascii	"trigger\000"
 20192      67657200 
 20193              	.LASF62:
 20194 15af 5F736565 		.ascii	"_seek\000"
 20194      6B00
 20195              	.LASF724:
 20196 15b5 5553425F 		.ascii	"USB_EVENT_SUSPEND\000"
 20196      4556454E 
 20196      545F5355 
 20196      5350454E 
 20196      4400
 20197              	.LASF129:
 20198 15c7 696E7431 		.ascii	"int16_t\000"
 20198      365F7400 
 20199              	.LASF548:
 20200 15cf 4750545F 		.ascii	"GPT_STOP\000"
 20200      53544F50 
 20200      00
 20201              	.LASF223:
 20202 15d8 4144435F 		.ascii	"ADC_TypeDef\000"
 20202      54797065 
 20202      44656600 
 20203              	.LASF753:
 20204 15e4 444F4550 		.ascii	"DOEPCTL\000"
 20204      43544C00 
 20205              	.LASF10:
 20206 15ec 73686F72 		.ascii	"short unsigned int\000"
 20206      7420756E 
 20206      7369676E 
 20206      65642069 
ARM GAS  C:\Users\Moi\AppData\Local\Temp\ccOzHcBd.s 			page 374


 20206      6E7400
 20207              	.LASF590:
 20208 15ff 6F705F6D 		.ascii	"op_mode\000"
 20208      6F646500 
 20209              	.LASF3:
 20210 1607 7369676E 		.ascii	"signed char\000"
 20210      65642063 
 20210      68617200 
 20211              	.LASF627:
 20212 1613 70776D63 		.ascii	"pwmchnmsk_t\000"
 20212      686E6D73 
 20212      6B5F7400 
 20213              	.LASF937:
 20214 161f 5F737461 		.ascii	"_stats_start_measure_crit_isr\000"
 20214      74735F73 
 20214      74617274 
 20214      5F6D6561 
 20214      73757265 
 20215              	.LASF160:
 20216 163d 705F7072 		.ascii	"p_preempt\000"
 20216      65656D70 
 20216      7400
 20217              	.LASF604:
 20218 1647 4932535F 		.ascii	"I2S_READY\000"
 20218      52454144 
 20218      5900
 20219              	.LASF949:
 20220 1651 433A5C55 		.ascii	"C:\\Users\\Moi\\Documents\\_microinfo\\_projet\\hug"
 20220      73657273 
 20220      5C4D6F69 
 20220      5C446F63 
 20220      756D656E 
 20221 167e 756900   		.ascii	"ui\000"
 20222              	.LASF226:
 20223 1681 54444852 		.ascii	"TDHR\000"
 20223      00
 20224              	.LASF866:
 20225 1686 6673697A 		.ascii	"fsize\000"
 20225      6500
 20226              	.LASF451:
 20227 168c 4144435F 		.ascii	"ADC_STOP\000"
 20227      53544F50 
 20227      00
 20228              	.LASF717:
 20229 1695 5553425F 		.ascii	"USB_EP0_RX\000"
 20229      4550305F 
 20229      525800
 20230              	.LASF625:
 20231 16a0 70776D6D 		.ascii	"pwmmode_t\000"
 20231      6F64655F 
 20231      7400
 20232              	.LASF694:
 20233 16aa 73746174 		.ascii	"status\000"
 20233      757300
 20234              	.LASF301:
 20235 16b1 444C454E 		.ascii	"DLEN\000"
 20235      00
ARM GAS  C:\Users\Moi\AppData\Local\Temp\ccOzHcBd.s 			page 375


 20236              	.LASF290:
 20237 16b6 53534347 		.ascii	"SSCGR\000"
 20237      5200
 20238              	.LASF652:
 20239 16bc 5344435F 		.ascii	"SDC_MODE_4BIT\000"
 20239      4D4F4445 
 20239      5F344249 
 20239      5400
 20240              	.LASF730:
 20241 16ca 55534244 		.ascii	"USBDescriptor\000"
 20241      65736372 
 20241      6970746F 
 20241      7200
 20242              	.LASF679:
 20243 16d8 73706963 		.ascii	"spicallback_t\000"
 20243      616C6C62 
 20243      61636B5F 
 20243      7400
 20244              	.LASF880:
 20245 16e6 6669666F 		.ascii	"fifop\000"
 20245      7000
 20246              	.LASF86:
 20247 16ec 5F667265 		.ascii	"_freelist\000"
 20247      656C6973 
 20247      7400
 20248              	.LASF934:
 20249 16f6 63685468 		.ascii	"chThdCreateI\000"
 20249      64437265 
 20249      61746549 
 20249      00
 20250              	.LASF695:
 20251 1703 61646472 		.ascii	"address\000"
 20251      65737300 
 20252              	.LASF863:
 20253 170b 7573625F 		.ascii	"usb_lld_get_status_out\000"
 20253      6C6C645F 
 20253      6765745F 
 20253      73746174 
 20253      75735F6F 
 20254              	.LASF163:
 20255 1722 705F6D73 		.ascii	"p_msgqueue\000"
 20255      67717565 
 20255      756500
 20256              	.LASF371:
 20257 172d 63665F6F 		.ascii	"cf_off_refs\000"
 20257      66665F72 
 20257      65667300 
 20258              	.LASF369:
 20259 1739 63665F6F 		.ascii	"cf_off_state\000"
 20259      66665F73 
 20259      74617465 
 20259      00
 20260              	.LASF353:
 20261 1746 6D5F6F77 		.ascii	"m_owner\000"
 20261      6E657200 
 20262              	.LASF67:
 20263 174e 5F6F6666 		.ascii	"_offset\000"
ARM GAS  C:\Users\Moi\AppData\Local\Temp\ccOzHcBd.s 			page 376


 20263      73657400 
 20264              	.LASF208:
 20265 1756 53797374 		.ascii	"SystemCoreClock\000"
 20265      656D436F 
 20265      7265436C 
 20265      6F636B00 
 20266              	.LASF473:
 20267 1766 61646365 		.ascii	"adcerrorcallback_t\000"
 20267      72726F72 
 20267      63616C6C 
 20267      6261636B 
 20267      5F7400
 20268              	.LASF906:
 20269 1779 6F73616C 		.ascii	"osalSysLockFromISR\000"
 20269      5379734C 
 20269      6F636B46 
 20269      726F6D49 
 20269      535200
 20270              	.LASF508:
 20271 178c 4441435F 		.ascii	"DAC_ACTIVE\000"
 20271      41435449 
 20271      564500
 20272              	.LASF936:
 20273 1797 7573624F 		.ascii	"usbObjectInit\000"
 20273      626A6563 
 20273      74496E69 
 20273      7400
 20274              	.LASF463:
 20275 17a5 73746174 		.ascii	"state\000"
 20275      6500
 20276              	.LASF359:
 20277 17ab 63685F76 		.ascii	"ch_version\000"
 20277      65727369 
 20277      6F6E00
 20278              	.LASF52:
 20279 17b6 5F5F7362 		.ascii	"__sbuf\000"
 20279      756600
 20280              	.LASF660:
 20281 17bd 7364696F 		.ascii	"sdio\000"
 20281      00
 20282              	.LASF249:
 20283 17c2 53575452 		.ascii	"SWTRIGR\000"
 20283      49475200 
 20284              	.LASF716:
 20285 17ca 5553425F 		.ascii	"USB_EP0_WAITING_STS\000"
 20285      4550305F 
 20285      57414954 
 20285      494E475F 
 20285      53545300 
 20286              	.LASF112:
 20287 17de 5F6C3634 		.ascii	"_l64a_buf\000"
 20287      615F6275 
 20287      6600
 20288              	.LASF871:
 20289 17e8 7573625F 		.ascii	"usb_lld_init\000"
 20289      6C6C645F 
 20289      696E6974 
ARM GAS  C:\Users\Moi\AppData\Local\Temp\ccOzHcBd.s 			page 377


 20289      00
 20290              	.LASF230:
 20291 17f5 52444852 		.ascii	"RDHR\000"
 20291      00
 20292              	.LASF562:
 20293 17fa 444D4152 		.ascii	"DMAR\000"
 20293      00
 20294              	.LASF568:
 20295 17ff 63616C6C 		.ascii	"callback\000"
 20295      6261636B 
 20295      00
 20296              	.LASF201:
 20297 1808 63685F73 		.ascii	"ch_system\000"
 20297      79737465 
 20297      6D00
 20298              	.LASF293:
 20299 1812 504F5745 		.ascii	"POWER\000"
 20299      5200
 20300              	.LASF291:
 20301 1818 504C4C49 		.ascii	"PLLI2SCFGR\000"
 20301      32534346 
 20301      475200
 20302              	.LASF199:
 20303 1823 74726163 		.ascii	"trace_buffer\000"
 20303      655F6275 
 20303      66666572 
 20303      00
 20304              	.LASF104:
 20305 1830 5F617363 		.ascii	"_asctime_buf\000"
 20305      74696D65 
 20305      5F627566 
 20305      00
 20306              	.LASF527:
 20307 183d 4441435F 		.ascii	"DAC_DHRM_8BIT_RIGHT\000"
 20307      4448524D 
 20307      5F384249 
 20307      545F5249 
 20307      47485400 
 20308              	.LASF547:
 20309 1851 4750545F 		.ascii	"GPT_UNINIT\000"
 20309      554E494E 
 20309      495400
 20310              	.LASF874:
 20311 185c 7573625F 		.ascii	"usb_lld_serve_interrupt\000"
 20311      6C6C645F 
 20311      73657276 
 20311      655F696E 
 20311      74657272 
 20312              	.LASF21:
 20313 1874 5F5F7763 		.ascii	"__wch\000"
 20313      6800
 20314              	.LASF348:
 20315 187a 63685F73 		.ascii	"ch_semaphore\000"
 20315      656D6170 
 20315      686F7265 
 20315      00
 20316              	.LASF119:
ARM GAS  C:\Users\Moi\AppData\Local\Temp\ccOzHcBd.s 			page 378


 20317 1887 5F776373 		.ascii	"_wcsrtombs_state\000"
 20317      72746F6D 
 20317      62735F73 
 20317      74617465 
 20317      00
 20318              	.LASF889:
 20319 1898 6F74675F 		.ascii	"otg_do_push\000"
 20319      646F5F70 
 20319      75736800 
 20320              	.LASF749:
 20321 18a4 44494550 		.ascii	"DIEPTSIZ\000"
 20321      5453495A 
 20321      00
 20322              	.LASF918:
 20323 18ad 706F7274 		.ascii	"port_unlock\000"
 20323      5F756E6C 
 20323      6F636B00 
 20324              	.LASF478:
 20325 18b9 736D7072 		.ascii	"smpr1\000"
 20325      3100
 20326              	.LASF479:
 20327 18bf 736D7072 		.ascii	"smpr2\000"
 20327      3200
 20328              	.LASF173:
 20329 18c5 74687265 		.ascii	"threads_queue_t\000"
 20329      6164735F 
 20329      71756575 
 20329      655F7400 
 20330              	.LASF416:
 20331 18d5 626C6B73 		.ascii	"blkstate_t\000"
 20331      74617465 
 20331      5F7400
 20332              	.LASF915:
 20333 18e0 63685379 		.ascii	"chSysLock\000"
 20333      734C6F63 
 20333      6B00
 20334              	.LASF161:
 20335 18ea 705F7469 		.ascii	"p_time\000"
 20335      6D6500
 20336              	.LASF159:
 20337 18f1 705F7265 		.ascii	"p_refs\000"
 20337      667300
 20338              	.LASF827:
 20339 18f8 65705F6D 		.ascii	"ep_mode\000"
 20339      6F646500 
 20340              	.LASF626:
 20341 1900 70776D63 		.ascii	"pwmchannel_t\000"
 20341      68616E6E 
 20341      656C5F74 
 20341      00
 20342              	.LASF225:
 20343 190d 54444C52 		.ascii	"TDLR\000"
 20343      00
 20344              	.LASF12:
 20345 1912 6C6F6E67 		.ascii	"long int\000"
 20345      20696E74 
 20345      00
ARM GAS  C:\Users\Moi\AppData\Local\Temp\ccOzHcBd.s 			page 379


 20346              	.LASF204:
 20347 191b 6D61696E 		.ascii	"mainthread\000"
 20347      74687265 
 20347      616400
 20348              	.LASF691:
 20349 1926 6570306E 		.ascii	"ep0n\000"
 20349      00
 20350              	.LASF808:
 20351 192b 72657376 		.ascii	"resvdE04\000"
 20351      64453034 
 20351      00
 20352              	.LASF580:
 20353 1934 69326361 		.ascii	"i2caddr_t\000"
 20353      6464725F 
 20353      7400
 20354              	.LASF111:
 20355 193e 5F776374 		.ascii	"_wctomb_state\000"
 20355      6F6D625F 
 20355      73746174 
 20355      6500
 20356              	.LASF515:
 20357 194c 646D6169 		.ascii	"dmairqprio\000"
 20357      72717072 
 20357      696F00
 20358              	.LASF553:
 20359 1957 47505444 		.ascii	"GPTDriver\000"
 20359      72697665 
 20359      7200
 20360              	.LASF275:
 20361 1961 41484233 		.ascii	"AHB3RSTR\000"
 20361      52535452 
 20361      00
 20362              	.LASF390:
 20363 196a 715F636F 		.ascii	"q_counter\000"
 20363      756E7465 
 20363      7200
 20364              	.LASF445:
 20365 1974 50484461 		.ascii	"PHData\000"
 20365      746100
 20366              	.LASF448:
 20367 197b 696F706F 		.ascii	"ioportid_t\000"
 20367      72746964 
 20367      5F7400
 20368              	.LASF486:
 20369 1986 41444344 		.ascii	"ADCD1\000"
 20369      3100
 20370              	.LASF487:
 20371 198c 41444344 		.ascii	"ADCD2\000"
 20371      3200
 20372              	.LASF488:
 20373 1992 41444344 		.ascii	"ADCD3\000"
 20373      3300
 20374              	.LASF776:
 20375 1998 48434647 		.ascii	"HCFG\000"
 20375      00
 20376              	.LASF471:
 20377 199d 646D616D 		.ascii	"dmamode\000"
ARM GAS  C:\Users\Moi\AppData\Local\Temp\ccOzHcBd.s 			page 380


 20377      6F646500 
 20378              	.LASF334:
 20379 19a5 63756D75 		.ascii	"cumulative\000"
 20379      6C617469 
 20379      766500
 20380              	.LASF97:
 20381 19b0 5F696F62 		.ascii	"_iobs\000"
 20381      7300
 20382              	.LASF78:
 20383 19b6 5F656D65 		.ascii	"_emergency\000"
 20383      7267656E 
 20383      637900
 20384              	.LASF648:
 20385 19c1 67657474 		.ascii	"gett\000"
 20385      00
 20386              	.LASF344:
 20387 19c6 77747472 		.ascii	"wttrp\000"
 20387      7000
 20388              	.LASF394:
 20389 19cc 715F7264 		.ascii	"q_rdptr\000"
 20389      70747200 
 20390              	.LASF121:
 20391 19d4 5F6E6578 		.ascii	"_nextf\000"
 20391      746600
 20392              	.LASF645:
 20393 19db 77726974 		.ascii	"write\000"
 20393      6500
 20394              	.LASF107:
 20395 19e1 5F72616E 		.ascii	"_rand_next\000"
 20395      645F6E65 
 20395      787400
 20396              	.LASF641:
 20397 19ec 69717565 		.ascii	"iqueue\000"
 20397      756500
 20398              	.LASF829:
 20399 19f3 696E5F63 		.ascii	"in_cb\000"
 20399      6200
 20400              	.LASF754:
 20401 19f9 444F4550 		.ascii	"DOEPINT\000"
 20401      494E5400 
 20402              	.LASF333:
 20403 1a01 6C617374 		.ascii	"last\000"
 20403      00
 20404              	.LASF427:
 20405 1a06 4C434B52 		.ascii	"LCKR\000"
 20405      00
 20406              	.LASF638:
 20407 1a0b 73647374 		.ascii	"sdstate_t\000"
 20407      6174655F 
 20407      7400
 20408              	.LASF132:
 20409 1a15 75696E74 		.ascii	"uint32_t\000"
 20409      33325F74 
 20409      00
 20410              	.LASF512:
 20411 1a1e 64617461 		.ascii	"dataoffset\000"
 20411      6F666673 
ARM GAS  C:\Users\Moi\AppData\Local\Temp\ccOzHcBd.s 			page 381


 20411      657400
 20412              	.LASF30:
 20413 1a29 5F6D6178 		.ascii	"_maxwds\000"
 20413      77647300 
 20414              	.LASF414:
 20415 1a31 424C4B5F 		.ascii	"BLK_WRITING\000"
 20415      57524954 
 20415      494E4700 
 20416              	.LASF229:
 20417 1a3d 52444C52 		.ascii	"RDLR\000"
 20417      00
 20418              	.LASF919:
 20419 1a42 706F7274 		.ascii	"port_lock\000"
 20419      5F6C6F63 
 20419      6B00
 20420              	.LASF2:
 20421 1a4c 6C6F6E67 		.ascii	"long double\000"
 20421      20646F75 
 20421      626C6500 
 20422              	.LASF316:
 20423 1a58 72656761 		.ascii	"regarm_t\000"
 20423      726D5F74 
 20423      00
 20424              	.LASF142:
 20425 1a61 6576656E 		.ascii	"eventmask_t\000"
 20425      746D6173 
 20425      6B5F7400 
 20426              	.LASF466:
 20427 1a6d 64657074 		.ascii	"depth\000"
 20427      6800
 20428              	.LASF243:
 20429 1a73 46464131 		.ascii	"FFA1R\000"
 20429      5200
 20430              	.LASF234:
 20431 1a79 52463152 		.ascii	"RF1R\000"
 20431      00
 20432              	.LASF706:
 20433 1a7e 5553425F 		.ascii	"USB_SELECTED\000"
 20433      53454C45 
 20433      43544544 
 20433      00
 20434              	.LASF492:
 20435 1a8b 43414E5F 		.ascii	"CAN_READY\000"
 20435      52454144 
 20435      5900
 20436              	.LASF928:
 20437 1a95 63685363 		.ascii	"chSchRescheduleS\000"
 20437      68526573 
 20437      63686564 
 20437      756C6553 
 20437      00
 20438              	.LASF14:
 20439 1aa6 6C6F6E67 		.ascii	"long unsigned int\000"
 20439      20756E73 
 20439      69676E65 
 20439      6420696E 
 20439      7400
ARM GAS  C:\Users\Moi\AppData\Local\Temp\ccOzHcBd.s 			page 382


 20440              	.LASF605:
 20441 1ab8 4932535F 		.ascii	"I2S_ACTIVE\000"
 20441      41435449 
 20441      564500
 20442              	.LASF549:
 20443 1ac3 4750545F 		.ascii	"GPT_READY\000"
 20443      52454144 
 20443      5900
 20444              	.LASF511:
 20445 1acd 64616373 		.ascii	"dacstate_t\000"
 20445      74617465 
 20445      5F7400
 20446              	.LASF860:
 20447 1ad8 7573625F 		.ascii	"usb_lld_prepare_receive\000"
 20447      6C6C645F 
 20447      70726570 
 20447      6172655F 
 20447      72656365 
 20448              	.LASF850:
 20449 1af0 65706D61 		.ascii	"epmask\000"
 20449      736B00
 20450              	.LASF321:
 20451 1af7 73655F74 		.ascii	"se_tp\000"
 20451      7000
 20452              	.LASF393:
 20453 1afd 715F7772 		.ascii	"q_wrptr\000"
 20453      70747200 
 20454              	.LASF519:
 20455 1b05 64616373 		.ascii	"dacsample_t\000"
 20455      616D706C 
 20455      655F7400 
 20456              	.LASF722:
 20457 1b11 5553425F 		.ascii	"USB_EVENT_ADDRESS\000"
 20457      4556454E 
 20457      545F4144 
 20457      44524553 
 20457      5300
 20458              	.LASF613:
 20459 1b23 69327363 		.ascii	"i2scfgr\000"
 20459      66677200 
 20460              	.LASF295:
 20461 1b2b 52455350 		.ascii	"RESPCMD\000"
 20461      434D4400 
 20462              	.LASF498:
 20463 1b33 72786675 		.ascii	"rxfull_event\000"
 20463      6C6C5F65 
 20463      76656E74 
 20463      00
 20464              	.LASF727:
 20465 1b40 75736265 		.ascii	"usbevent_t\000"
 20465      76656E74 
 20465      5F7400
 20466              	.LASF63:
 20467 1b4b 5F636C6F 		.ascii	"_close\000"
 20467      736500
 20468              	.LASF859:
 20469 1b52 70636E74 		.ascii	"pcnt\000"
ARM GAS  C:\Users\Moi\AppData\Local\Temp\ccOzHcBd.s 			page 383


 20469      00
 20470              	.LASF27:
 20471 1b57 63686172 		.ascii	"char\000"
 20471      00
 20472              	.LASF495:
 20473 1b5c 43414E43 		.ascii	"CANConfig\000"
 20473      6F6E6669 
 20473      6700
 20474              	.LASF442:
 20475 1b66 50454461 		.ascii	"PEData\000"
 20475      746100
 20476              	.LASF177:
 20477 1b6d 725F7175 		.ascii	"r_queue\000"
 20477      65756500 
 20478              	.LASF95:
 20479 1b75 5F676C75 		.ascii	"_glue\000"
 20479      6500
 20480              	.LASF912:
 20481 1b7b 63685379 		.ascii	"chSysUnlockFromISR\000"
 20481      73556E6C 
 20481      6F636B46 
 20481      726F6D49 
 20481      535200
 20482              	.LASF663:
 20483 1b8e 53444343 		.ascii	"SDCConfig\000"
 20483      6F6E6669 
 20483      6700
 20484              	.LASF623:
 20485 1b98 656E6162 		.ascii	"enabled\000"
 20485      6C656400 
 20486              	.LASF520:
 20487 1ba0 4441435F 		.ascii	"DAC_ERR_DMAFAILURE\000"
 20487      4552525F 
 20487      444D4146 
 20487      41494C55 
 20487      524500
 20488              	.LASF766:
 20489 1bb3 47525846 		.ascii	"GRXFSIZ\000"
 20489      53495A00 
 20490              	.LASF669:
 20491 1bbb 73796E63 		.ascii	"sync\000"
 20491      00
 20492              	.LASF643:
 20493 1bc0 75736172 		.ascii	"usart\000"
 20493      7400
 20494              	.LASF925:
 20495 1bc6 5F737461 		.ascii	"_stats_stop_measure_crit_thd\000"
 20495      74735F73 
 20495      746F705F 
 20495      6D656173 
 20495      7572655F 
 20496              	.LASF655:
 20497 1be3 7364636D 		.ascii	"sdcmode_t\000"
 20497      6F64655F 
 20497      7400
 20498              	.LASF396:
 20499 1bed 715F6C69 		.ascii	"q_link\000"
ARM GAS  C:\Users\Moi\AppData\Local\Temp\ccOzHcBd.s 			page 384


 20499      6E6B00
 20500              	.LASF897:
 20501 1bf4 6F74675F 		.ascii	"otg_disable_ep\000"
 20501      64697361 
 20501      626C655F 
 20501      657000
 20502              	.LASF787:
 20503 1c03 44434647 		.ascii	"DCFG\000"
 20503      00
 20504              	.LASF851:
 20505 1c08 7573625F 		.ascii	"usb_lld_pump\000"
 20505      6C6C645F 
 20505      70756D70 
 20505      00
 20506              	.LASF33:
 20507 1c15 5F426967 		.ascii	"_Bigint\000"
 20507      696E7400 
 20508              	.LASF797:
 20509 1c1d 44564255 		.ascii	"DVBUSDIS\000"
 20509      53444953 
 20509      00
 20510              	.LASF763:
 20511 1c26 47494E54 		.ascii	"GINTMSK\000"
 20511      4D534B00 
 20512              	.LASF768:
 20513 1c2e 484E5054 		.ascii	"HNPTXSTS\000"
 20513      58535453 
 20513      00
 20514              	.LASF281:
 20515 1c37 41504231 		.ascii	"APB1ENR\000"
 20515      454E5200 
 20516              	.LASF696:
 20517 1c3f 636F6E66 		.ascii	"configuration\000"
 20517      69677572 
 20517      6174696F 
 20517      6E00
 20518              	.LASF90:
 20519 1c4d 5F617465 		.ascii	"_atexit0\000"
 20519      78697430 
 20519      00
 20520              	.LASF437:
 20521 1c56 73746D33 		.ascii	"stm32_gpio_setup_t\000"
 20521      325F6770 
 20521      696F5F73 
 20521      65747570 
 20521      5F7400
 20522              	.LASF844:
 20523 1c69 6570305F 		.ascii	"ep0_state\000"
 20523      73746174 
 20523      6500
 20524              	.LASF881:
 20525 1c73 6E746F67 		.ascii	"ntogo\000"
 20525      6F00
 20526              	.LASF406:
 20527 1c79 5F73746D 		.ascii	"_stm32_dma_streams\000"
 20527      33325F64 
 20527      6D615F73 
ARM GAS  C:\Users\Moi\AppData\Local\Temp\ccOzHcBd.s 			page 385


 20527      74726561 
 20527      6D7300
 20528              	.LASF251:
 20529 1c8c 44485231 		.ascii	"DHR12L1\000"
 20529      324C3100 
 20530              	.LASF254:
 20531 1c94 44485231 		.ascii	"DHR12L2\000"
 20531      324C3200 
 20532              	.LASF114:
 20533 1c9c 5F676574 		.ascii	"_getdate_err\000"
 20533      64617465 
 20533      5F657272 
 20533      00
 20534              	.LASF654:
 20535 1ca9 73646362 		.ascii	"sdcbusmode_t\000"
 20535      75736D6F 
 20535      64655F74 
 20535      00
 20536              	.LASF257:
 20537 1cb6 44485231 		.ascii	"DHR12LD\000"
 20537      324C4400 
 20538              	.LASF205:
 20539 1cbe 6B65726E 		.ascii	"kernel_stats\000"
 20539      656C5F73 
 20539      74617473 
 20539      00
 20540              	.LASF932:
 20541 1ccb 63685363 		.ascii	"chSchReadyI\000"
 20541      68526561 
 20541      64794900 
 20542              	.LASF849:
 20543 1cd7 6F746770 		.ascii	"otgp\000"
 20543      00
 20544              	.LASF472:
 20545 1cdc 61646363 		.ascii	"adccallback_t\000"
 20545      616C6C62 
 20545      61636B5F 
 20545      7400
 20546              	.LASF156:
 20547 1cea 705F7374 		.ascii	"p_stklimit\000"
 20547      6B6C696D 
 20547      697400
 20548              	.LASF144:
 20549 1cf5 636E745F 		.ascii	"cnt_t\000"
 20549      7400
 20550              	.LASF538:
 20551 1cfb 65787473 		.ascii	"extstate_t\000"
 20551      74617465 
 20551      5F7400
 20552              	.LASF715:
 20553 1d06 5553425F 		.ascii	"USB_EP0_WAITING_TX0\000"
 20553      4550305F 
 20553      57414954 
 20553      494E475F 
 20553      54583000 
 20554              	.LASF690:
 20555 1d1a 6570306E 		.ascii	"ep0next\000"
ARM GAS  C:\Users\Moi\AppData\Local\Temp\ccOzHcBd.s 			page 386


 20555      65787400 
 20556              	.LASF744:
 20557 1d22 73746D33 		.ascii	"stm32_otg_host_chn_t\000"
 20557      325F6F74 
 20557      675F686F 
 20557      73745F63 
 20557      686E5F74 
 20558              	.LASF877:
 20559 1d37 6F74675F 		.ascii	"otg_epin_handler\000"
 20559      6570696E 
 20559      5F68616E 
 20559      646C6572 
 20559      00
 20560              	.LASF908:
 20561 1d48 6F73616C 		.ascii	"osalSysLock\000"
 20561      5379734C 
 20561      6F636B00 
 20562              	.LASF429:
 20563 1d54 41465248 		.ascii	"AFRH\000"
 20563      00
 20564              	.LASF428:
 20565 1d59 4146524C 		.ascii	"AFRL\000"
 20565      00
 20566              	.LASF126:
 20567 1d5e 5F696D70 		.ascii	"_impure_ptr\000"
 20567      7572655F 
 20567      70747200 
 20568              	.LASF372:
 20569 1d6a 63665F6F 		.ascii	"cf_off_preempt\000"
 20569      66665F70 
 20569      7265656D 
 20569      707400
 20570              	.LASF509:
 20571 1d79 4441435F 		.ascii	"DAC_COMPLETE\000"
 20571      434F4D50 
 20571      4C455445 
 20571      00
 20572              	.LASF66:
 20573 1d86 5F626C6B 		.ascii	"_blksize\000"
 20573      73697A65 
 20573      00
 20574              	.LASF739:
 20575 1d8f 4843494E 		.ascii	"HCINTMSK\000"
 20575      544D534B 
 20575      00
 20576              	.LASF64:
 20577 1d98 5F756275 		.ascii	"_ubuf\000"
 20577      6600
 20578              	.LASF464:
 20579 1d9e 636F6E66 		.ascii	"config\000"
 20579      696700
 20580              	.LASF572:
 20581 1da5 47505444 		.ascii	"GPTD11\000"
 20581      313100
 20582              	.LASF109:
 20583 1dac 5F6D626C 		.ascii	"_mblen_state\000"
 20583      656E5F73 
ARM GAS  C:\Users\Moi\AppData\Local\Temp\ccOzHcBd.s 			page 387


 20583      74617465 
 20583      00
 20584              	.LASF92:
 20585 1db9 5F5F7367 		.ascii	"__sglue\000"
 20585      6C756500 
 20586              	.LASF125:
 20587 1dc1 5F5F6C6F 		.ascii	"__locale_t\000"
 20587      63616C65 
 20587      5F7400
 20588              	.LASF410:
 20589 1dcc 424C4B5F 		.ascii	"BLK_CONNECTING\000"
 20589      434F4E4E 
 20589      45435449 
 20589      4E4700
 20590              	.LASF82:
 20591 1ddb 5F5F636C 		.ascii	"__cleanup\000"
 20591      65616E75 
 20591      7000
 20592              	.LASF271:
 20593 1de5 504C4C43 		.ascii	"PLLCFGR\000"
 20593      46475200 
 20594              	.LASF505:
 20595 1ded 4441435F 		.ascii	"DAC_UNINIT\000"
 20595      554E494E 
 20595      495400
 20596              	.LASF458:
 20597 1df8 6164635F 		.ascii	"adc_channels_num_t\000"
 20597      6368616E 
 20597      6E656C73 
 20597      5F6E756D 
 20597      5F7400
 20598              	.LASF183:
 20599 1e0b 76746675 		.ascii	"vtfunc_t\000"
 20599      6E635F74 
 20599      00
 20600              	.LASF231:
 20601 1e14 43414E5F 		.ascii	"CAN_FIFOMailBox_TypeDef\000"
 20601      4649464F 
 20601      4D61696C 
 20601      426F785F 
 20601      54797065 
 20602              	.LASF261:
 20603 1e2c 4441435F 		.ascii	"DAC_TypeDef\000"
 20603      54797065 
 20603      44656600 
 20604              	.LASF343:
 20605 1e38 77746F62 		.ascii	"wtobjp\000"
 20605      6A7000
 20606              	.LASF19:
 20607 1e3f 5F66706F 		.ascii	"_fpos_t\000"
 20607      735F7400 
 20608              	.LASF525:
 20609 1e47 4441435F 		.ascii	"DAC_DHRM_12BIT_RIGHT\000"
 20609      4448524D 
 20609      5F313242 
 20609      49545F52 
 20609      49474854 
ARM GAS  C:\Users\Moi\AppData\Local\Temp\ccOzHcBd.s 			page 388


 20610              	.LASF57:
 20611 1e5c 5F66696C 		.ascii	"_file\000"
 20611      6500
 20612              	.LASF167:
 20613 1e62 705F7265 		.ascii	"p_realprio\000"
 20613      616C7072 
 20613      696F00
 20614              	.LASF658:
 20615 1e6d 63617061 		.ascii	"capacity\000"
 20615      63697479 
 20615      00
 20616              	.LASF395:
 20617 1e76 715F6E6F 		.ascii	"q_notify\000"
 20617      74696679 
 20617      00
 20618              	.LASF346:
 20619 1e7f 77746D74 		.ascii	"wtmtxp\000"
 20619      787000
 20620              	.LASF55:
 20621 1e86 5F5F7346 		.ascii	"__sFILE\000"
 20621      494C4500 
 20622              	.LASF51:
 20623 1e8e 5F666E73 		.ascii	"_fns\000"
 20623      00
 20624              	.LASF940:
 20625 1e93 5F646267 		.ascii	"_dbg_check_unlock_from_isr\000"
 20625      5F636865 
 20625      636B5F75 
 20625      6E6C6F63 
 20625      6B5F6672 
 20626              	.LASF826:
 20627 1eae 5553424F 		.ascii	"USBOutEndpointState\000"
 20627      7574456E 
 20627      64706F69 
 20627      6E745374 
 20627      61746500 
 20628              	.LASF783:
 20629 1ec2 72657376 		.ascii	"resvd41C\000"
 20629      64343143 
 20629      00
 20630              	.LASF25:
 20631 1ecb 5F6D6273 		.ascii	"_mbstate_t\000"
 20631      74617465 
 20631      5F7400
 20632              	.LASF120:
 20633 1ed6 5F685F65 		.ascii	"_h_errno\000"
 20633      72726E6F 
 20633      00
 20634              	.LASF228:
 20635 1edf 52445452 		.ascii	"RDTR\000"
 20635      00
 20636              	.LASF418:
 20637 1ee4 626C6B5F 		.ascii	"blk_num\000"
 20637      6E756D00 
 20638              	.LASF879:
 20639 1eec 6F74675F 		.ascii	"otg_fifo_read_to_queue\000"
 20639      6669666F 
ARM GAS  C:\Users\Moi\AppData\Local\Temp\ccOzHcBd.s 			page 389


 20639      5F726561 
 20639      645F746F 
 20639      5F717565 
 20640              	.LASF948:
 20641 1f03 2E2E2F2F 		.ascii	"..//ChibiOS//os/hal/ports/STM32/LLD/OTGv1/usb_lld.c"
 20641      43686962 
 20641      694F532F 
 20641      2F6F732F 
 20641      68616C2F 
 20642 1f36 00       		.ascii	"\000"
 20643              	.LASF288:
 20644 1f37 42444352 		.ascii	"BDCR\000"
 20644      00
 20645              	.LASF721:
 20646 1f3c 5553425F 		.ascii	"USB_EVENT_RESET\000"
 20646      4556454E 
 20646      545F5245 
 20646      53455400 
 20647              	.LASF176:
 20648 1f4c 63685F72 		.ascii	"ch_ready_list\000"
 20648      65616479 
 20648      5F6C6973 
 20648      7400
 20649              	.LASF425:
 20650 1f5a 50555044 		.ascii	"PUPDR\000"
 20650      5200
 20651              	.LASF11:
 20652 1f60 5F5F696E 		.ascii	"__int32_t\000"
 20652      7433325F 
 20652      7400
 20653              	.LASF13:
 20654 1f6a 5F5F7569 		.ascii	"__uint32_t\000"
 20654      6E743332 
 20654      5F7400
 20655              	.LASF195:
 20656 1f75 63685F73 		.ascii	"ch_system_debug\000"
 20656      79737465 
 20656      6D5F6465 
 20656      62756700 
 20657              	.LASF794:
 20658 1f85 4441494E 		.ascii	"DAINTMSK\000"
 20658      544D534B 
 20658      00
 20659              	.LASF545:
 20660 1f8e 45585443 		.ascii	"EXTConfig\000"
 20660      6F6E6669 
 20660      6700
 20661              	.LASF24:
 20662 1f98 5F5F7661 		.ascii	"__value\000"
 20662      6C756500 
 20663              	.LASF713:
 20664 1fa0 5553425F 		.ascii	"USB_EP0_WAITING_SETUP\000"
 20664      4550305F 
 20664      57414954 
 20664      494E475F 
 20664      53455455 
 20665              	.LASF48:
ARM GAS  C:\Users\Moi\AppData\Local\Temp\ccOzHcBd.s 			page 390


 20666 1fb6 5F69735F 		.ascii	"_is_cxa\000"
 20666      63786100 
 20667              	.LASF413:
 20668 1fbe 424C4B5F 		.ascii	"BLK_READING\000"
 20668      52454144 
 20668      494E4700 
 20669              	.LASF435:
 20670 1fca 6166726C 		.ascii	"afrl\000"
 20670      00
 20671              	.LASF816:
 20672 1fcf 71756575 		.ascii	"queue\000"
 20672      6500
 20673              	.LASF692:
 20674 1fd5 65703065 		.ascii	"ep0endcb\000"
 20674      6E646362 
 20674      00
 20675              	.LASF403:
 20676 1fde 73656C66 		.ascii	"selfindex\000"
 20676      696E6465 
 20676      7800
 20677              	.LASF376:
 20678 1fe8 6D757465 		.ascii	"mutex_t\000"
 20678      785F7400 
 20679              	.LASF85:
 20680 1ff0 5F703573 		.ascii	"_p5s\000"
 20680      00
 20681              	.LASF165:
 20682 1ff5 705F6570 		.ascii	"p_epending\000"
 20682      656E6469 
 20682      6E6700
 20683              	.LASF709:
 20684 2000 45505F53 		.ascii	"EP_STATUS_DISABLED\000"
 20684      54415455 
 20684      535F4449 
 20684      5341424C 
 20684      454400
 20685              	.LASF941:
 20686 2013 5F737461 		.ascii	"_stats_stop_measure_crit_isr\000"
 20686      74735F73 
 20686      746F705F 
 20686      6D656173 
 20686      7572655F 
 20687              	.LASF422:
 20688 2030 4D4F4445 		.ascii	"MODER\000"
 20688      5200
 20689              	.LASF904:
 20690 2036 6F73616C 		.ascii	"osalOsRescheduleS\000"
 20690      4F735265 
 20690      73636865 
 20690      64756C65 
 20690      5300
 20691              	.LASF606:
 20692 2048 4932535F 		.ascii	"I2S_COMPLETE\000"
 20692      434F4D50 
 20692      4C455445 
 20692      00
 20693              	.LASF235:
ARM GAS  C:\Users\Moi\AppData\Local\Temp\ccOzHcBd.s 			page 391


 20694 2055 52455345 		.ascii	"RESERVED0\000"
 20694      52564544 
 20694      3000
 20695              	.LASF238:
 20696 205f 52455345 		.ascii	"RESERVED1\000"
 20696      52564544 
 20696      3100
 20697              	.LASF240:
 20698 2069 52455345 		.ascii	"RESERVED2\000"
 20698      52564544 
 20698      3200
 20699              	.LASF242:
 20700 2073 52455345 		.ascii	"RESERVED3\000"
 20700      52564544 
 20700      3300
 20701              	.LASF244:
 20702 207d 52455345 		.ascii	"RESERVED4\000"
 20702      52564544 
 20702      3400
 20703              	.LASF246:
 20704 2087 52455345 		.ascii	"RESERVED5\000"
 20704      52564544 
 20704      3500
 20705              	.LASF289:
 20706 2091 52455345 		.ascii	"RESERVED6\000"
 20706      52564544 
 20706      3600
 20707              	.LASF837:
 20708 209b 55534245 		.ascii	"USBEndpointConfig\000"
 20708      6E64706F 
 20708      696E7443 
 20708      6F6E6669 
 20708      6700
 20709              	.LASF250:
 20710 20ad 44485231 		.ascii	"DHR12R1\000"
 20710      32523100 
 20711              	.LASF253:
 20712 20b5 44485231 		.ascii	"DHR12R2\000"
 20712      32523200 
 20713              	.LASF541:
 20714 20bd 65787463 		.ascii	"extcallback_t\000"
 20714      616C6C62 
 20714      61636B5F 
 20714      7400
 20715              	.LASF497:
 20716 20cb 72787175 		.ascii	"rxqueue\000"
 20716      65756500 
 20717              	.LASF320:
 20718 20d3 73655F74 		.ascii	"se_time\000"
 20718      696D6500 
 20719              	.LASF785:
 20720 20db 72657376 		.ascii	"resvd444\000"
 20720      64343434 
 20720      00
 20721              	.LASF449:
 20722 20e4 70616C5F 		.ascii	"pal_default_config\000"
 20722      64656661 
ARM GAS  C:\Users\Moi\AppData\Local\Temp\ccOzHcBd.s 			page 392


 20722      756C745F 
 20722      636F6E66 
 20722      696700
 20723              	.LASF467:
 20724 20f7 67727070 		.ascii	"grpp\000"
 20724      00
 20725              	.LASF256:
 20726 20fc 44485231 		.ascii	"DHR12RD\000"
 20726      32524400 
 20727              	.LASF380:
 20728 2104 656C5F6C 		.ascii	"el_listener\000"
 20728      69737465 
 20728      6E657200 
 20729              	.LASF815:
 20730 2110 6C696E65 		.ascii	"linear\000"
 20730      617200
 20731              	.LASF930:
 20732 2117 63685379 		.ascii	"chSysPolledDelayX\000"
 20732      73506F6C 
 20732      6C656444 
 20732      656C6179 
 20732      5800
 20733              	.LASF565:
 20734 2129 73746D33 		.ascii	"stm32_tim_t\000"
 20734      325F7469 
 20734      6D5F7400 
 20735              	.LASF939:
 20736 2135 63685468 		.ascii	"chThdResumeI\000"
 20736      64526573 
 20736      756D6549 
 20736      00
 20737              	.LASF178:
 20738 2142 725F7072 		.ascii	"r_prio\000"
 20738      696F00
 20739              	.LASF698:
 20740 2149 706D6E65 		.ascii	"pmnext\000"
 20740      787400
 20741              	.LASF207:
 20742 2150 49544D5F 		.ascii	"ITM_RxBuffer\000"
 20742      52784275 
 20742      66666572 
 20742      00
 20743              	.LASF419:
 20744 215d 426C6F63 		.ascii	"BlockDeviceInfo\000"
 20744      6B446576 
 20744      69636549 
 20744      6E666F00 
 20745              	.LASF16:
 20746 216d 6C6F6E67 		.ascii	"long long unsigned int\000"
 20746      206C6F6E 
 20746      6720756E 
 20746      7369676E 
 20746      65642069 
 20747              	.LASF307:
 20748 2184 5344494F 		.ascii	"SDIO_TypeDef\000"
 20748      5F547970 
 20748      65446566 
ARM GAS  C:\Users\Moi\AppData\Local\Temp\ccOzHcBd.s 			page 393


 20748      00
 20749              	.LASF329:
 20750 2191 6F666673 		.ascii	"offset\000"
 20750      657400
 20751              	.LASF283:
 20752 2198 41484231 		.ascii	"AHB1LPENR\000"
 20752      4C50454E 
 20752      5200
 20753              	.LASF909:
 20754 21a2 63685265 		.ascii	"chRegSetThreadName\000"
 20754      67536574 
 20754      54687265 
 20754      61644E61 
 20754      6D6500
 20755              	.LASF683:
 20756 21b5 53504944 		.ascii	"SPID1\000"
 20756      3100
 20757              	.LASF914:
 20758 21bb 63685379 		.ascii	"chSysUnlock\000"
 20758      73556E6C 
 20758      6F636B00 
 20759              	.LASF262:
 20760 21c7 4E445452 		.ascii	"NDTR\000"
 20760      00
 20761              	.LASF385:
 20762 21cc 65735F6E 		.ascii	"es_next\000"
 20762      65787400 
 20763              	.LASF106:
 20764 21d4 5F67616D 		.ascii	"_gamma_signgam\000"
 20764      6D615F73 
 20764      69676E67 
 20764      616D00
 20765              	.LASF751:
 20766 21e3 72657376 		.ascii	"resvd1C\000"
 20766      64314300 
 20767              	.LASF206:
 20768 21eb 69646C65 		.ascii	"idle_thread_wa\000"
 20768      5F746872 
 20768      6561645F 
 20768      776100
 20769              	.LASF747:
 20770 21fa 44494550 		.ascii	"DIEPINT\000"
 20770      494E5400 
 20771              	.LASF313:
 20772 2202 5350495F 		.ascii	"SPI_TypeDef\000"
 20772      54797065 
 20772      44656600 
 20773              	.LASF189:
 20774 220e 76745F66 		.ascii	"vt_func\000"
 20774      756E6300 
 20775              	.LASF556:
 20776 2216 534D4352 		.ascii	"SMCR\000"
 20776      00
 20777              	.LASF792:
 20778 221b 444F4550 		.ascii	"DOEPMSK\000"
 20778      4D534B00 
 20779              	.LASF893:
ARM GAS  C:\Users\Moi\AppData\Local\Temp\ccOzHcBd.s 			page 394


 20780 2223 6F74675F 		.ascii	"otg_ram_reset\000"
 20780      72616D5F 
 20780      72657365 
 20780      7400
 20781              	.LASF185:
 20782 2231 63685F76 		.ascii	"ch_virtual_timer\000"
 20782      69727475 
 20782      616C5F74 
 20782      696D6572 
 20782      00
 20783              	.LASF158:
 20784 2242 705F666C 		.ascii	"p_flags\000"
 20784      61677300 
 20785              	.LASF347:
 20786 224a 65776D61 		.ascii	"ewmask\000"
 20786      736B00
 20787              	.LASF382:
 20788 2251 656C5F66 		.ascii	"el_flags\000"
 20788      6C616773 
 20788      00
 20789              	.LASF384:
 20790 225a 6576656E 		.ascii	"event_source\000"
 20790      745F736F 
 20790      75726365 
 20790      00
 20791              	.LASF166:
 20792 2267 705F6D74 		.ascii	"p_mtxlist\000"
 20792      786C6973 
 20792      7400
 20793              	.LASF504:
 20794 2271 43414E44 		.ascii	"CAND1\000"
 20794      3100
 20795              	.LASF241:
 20796 2277 46533152 		.ascii	"FS1R\000"
 20796      00
 20797              	.LASF137:
 20798 227c 74737461 		.ascii	"tstate_t\000"
 20798      74655F74 
 20798      00
 20799              	.LASF127:
 20800 2285 5F676C6F 		.ascii	"_global_impure_ptr\000"
 20800      62616C5F 
 20800      696D7075 
 20800      72655F70 
 20800      747200
 20801              	.LASF793:
 20802 2298 4441494E 		.ascii	"DAINT\000"
 20802      5400
 20803              	.LASF682:
 20804 229e 53504943 		.ascii	"SPIConfig\000"
 20804      6F6E6669 
 20804      6700
 20805              	.LASF79:
 20806 22a8 5F756E73 		.ascii	"_unspecified_locale_info\000"
 20806      70656369 
 20806      66696564 
 20806      5F6C6F63 
ARM GAS  C:\Users\Moi\AppData\Local\Temp\ccOzHcBd.s 			page 395


 20806      616C655F 
 20807              	.LASF434:
 20808 22c1 70757064 		.ascii	"pupdr\000"
 20808      7200
 20809              	.LASF524:
 20810 22c7 64616365 		.ascii	"dacerrorcallback_t\000"
 20810      72726F72 
 20810      63616C6C 
 20810      6261636B 
 20810      5F7400
 20811              	.LASF685:
 20812 22da 7472616E 		.ascii	"transmitting\000"
 20812      736D6974 
 20812      74696E67 
 20812      00
 20813              	.LASF544:
 20814 22e7 6368616E 		.ascii	"channels\000"
 20814      6E656C73 
 20814      00
 20815              	.LASF294:
 20816 22f0 434C4B43 		.ascii	"CLKCR\000"
 20816      5200
 20817              	.LASF657:
 20818 22f6 53444344 		.ascii	"SDCDriver\000"
 20818      72697665 
 20818      7200
 20819              	.LASF155:
 20820 2300 705F6E61 		.ascii	"p_name\000"
 20820      6D6500
 20821              	.LASF81:
 20822 2307 5F5F7364 		.ascii	"__sdidinit\000"
 20822      6964696E 
 20822      697400
 20823              	.LASF639:
 20824 2312 53657269 		.ascii	"SerialDriver\000"
 20824      616C4472 
 20824      69766572 
 20824      00
 20825              	.LASF219:
 20826 231f 4A445231 		.ascii	"JDR1\000"
 20826      00
 20827              	.LASF220:
 20828 2324 4A445232 		.ascii	"JDR2\000"
 20828      00
 20829              	.LASF221:
 20830 2329 4A445233 		.ascii	"JDR3\000"
 20830      00
 20831              	.LASF222:
 20832 232e 4A445234 		.ascii	"JDR4\000"
 20832      00
 20833              	.LASF755:
 20834 2333 444F4550 		.ascii	"DOEPTSIZ\000"
 20834      5453495A 
 20834      00
 20835              	.LASF287:
 20836 233c 41504232 		.ascii	"APB2LPENR\000"
 20836      4C50454E 
ARM GAS  C:\Users\Moi\AppData\Local\Temp\ccOzHcBd.s 			page 396


 20836      5200
 20837              	.LASF452:
 20838 2346 4144435F 		.ascii	"ADC_READY\000"
 20838      52454144 
 20838      5900
 20839              	.LASF887:
 20840 2350 6F74675F 		.ascii	"otg_fifo_write_from_queue\000"
 20840      6669666F 
 20840      5F777269 
 20840      74655F66 
 20840      726F6D5F 
 20841              	.LASF364:
 20842 236a 63665F6F 		.ascii	"cf_off_ctx\000"
 20842      66665F63 
 20842      747800
 20843              	.LASF910:
 20844 2375 6E616D65 		.ascii	"name\000"
 20844      00
 20845              	.LASF945:
 20846 237a 5F646267 		.ascii	"_dbg_check_leave_isr\000"
 20846      5F636865 
 20846      636B5F6C 
 20846      65617665 
 20846      5F697372 
 20847              	.LASF26:
 20848 238f 5F666C6F 		.ascii	"_flock_t\000"
 20848      636B5F74 
 20848      00
 20849              	.LASF191:
 20850 2398 76697274 		.ascii	"virtual_timers_list_t\000"
 20850      75616C5F 
 20850      74696D65 
 20850      72735F6C 
 20850      6973745F 
 20851              	.LASF933:
 20852 23ae 6E766963 		.ascii	"nvicEnableVector\000"
 20852      456E6162 
 20852      6C655665 
 20852      63746F72 
 20852      00
 20853              	.LASF883:
 20854 23bf 6E773265 		.ascii	"nw2end\000"
 20854      6E6400
 20855              	.LASF779:
 20856 23c6 72657376 		.ascii	"resvd40C\000"
 20856      64343043 
 20856      00
 20857              	.LASF474:
 20858 23cf 63697263 		.ascii	"circular\000"
 20858      756C6172 
 20858      00
 20859              	.LASF607:
 20860 23d8 69327373 		.ascii	"i2sstate_t\000"
 20860      74617465 
 20860      5F7400
 20861              	.LASF431:
 20862 23e3 6D6F6465 		.ascii	"moder\000"
ARM GAS  C:\Users\Moi\AppData\Local\Temp\ccOzHcBd.s 			page 397


 20862      7200
 20863              	.LASF678:
 20864 23e9 53504944 		.ascii	"SPIDriver\000"
 20864      72697665 
 20864      7200
 20865              	.LASF349:
 20866 23f3 735F7175 		.ascii	"s_queue\000"
 20866      65756500 
 20867              	.LASF338:
 20868 23fb 6D5F6372 		.ascii	"m_crit_thd\000"
 20868      69745F74 
 20868      686400
 20869              	.LASF506:
 20870 2406 4441435F 		.ascii	"DAC_STOP\000"
 20870      53544F50 
 20870      00
 20871              	.LASF786:
 20872 240f 72657376 		.ascii	"resvd700\000"
 20872      64373030 
 20872      00
 20873              	.LASF311:
 20874 2418 49325343 		.ascii	"I2SCFGR\000"
 20874      46475200 
 20875              	.LASF848:
 20876 2420 75736270 		.ascii	"usbp\000"
 20876      00
 20877              	.LASF356:
 20878 2425 63685F69 		.ascii	"ch_identifier\000"
 20878      64656E74 
 20878      69666965 
 20878      7200
 20879              	.LASF649:
 20880 2433 77726974 		.ascii	"writet\000"
 20880      657400
 20881              	.LASF1:
 20882 243a 6C6F6E67 		.ascii	"long long int\000"
 20882      206C6F6E 
 20882      6720696E 
 20882      7400
 20883              	.LASF773:
 20884 2448 48505458 		.ascii	"HPTXFSIZ\000"
 20884      4653495A 
 20884      00
 20885              	.LASF853:
 20886 2451 7573625F 		.ascii	"usb_lld_clear_out\000"
 20886      6C6C645F 
 20886      636C6561 
 20886      725F6F75 
 20886      7400
 20887              	.LASF363:
 20888 2463 63665F6F 		.ascii	"cf_off_prio\000"
 20888      66665F70 
 20888      72696F00 
 20889              	.LASF71:
 20890 246f 5F666C61 		.ascii	"_flags2\000"
 20890      67733200 
 20891              	.LASF913:
ARM GAS  C:\Users\Moi\AppData\Local\Temp\ccOzHcBd.s 			page 398


 20892 2477 63685379 		.ascii	"chSysLockFromISR\000"
 20892      734C6F63 
 20892      6B46726F 
 20892      6D495352 
 20892      00
 20893              	.LASF335:
 20894 2488 74696D65 		.ascii	"time_measurement_t\000"
 20894      5F6D6561 
 20894      73757265 
 20894      6D656E74 
 20894      5F7400
 20895              	.LASF670:
 20896 249b 6765745F 		.ascii	"get_info\000"
 20896      696E666F 
 20896      00
 20897              	.LASF938:
 20898 24a4 5F646267 		.ascii	"_dbg_check_lock_from_isr\000"
 20898      5F636865 
 20898      636B5F6C 
 20898      6F636B5F 
 20898      66726F6D 
 20899              	.LASF461:
 20900 24bd 61646365 		.ascii	"adcerror_t\000"
 20900      72726F72 
 20900      5F7400
 20901              	.LASF896:
 20902 24c8 6F74675F 		.ascii	"otg_rxfifo_flush\000"
 20902      72786669 
 20902      666F5F66 
 20902      6C757368 
 20902      00
 20903              	.LASF839:
 20904 24d9 6765745F 		.ascii	"get_descriptor_cb\000"
 20904      64657363 
 20904      72697074 
 20904      6F725F63 
 20904      6200
 20905              	.LASF80:
 20906 24eb 5F6C6F63 		.ascii	"_locale\000"
 20906      616C6500 
 20907              	.LASF143:
 20908 24f3 6576656E 		.ascii	"eventflags_t\000"
 20908      74666C61 
 20908      67735F74 
 20908      00
 20909              	.LASF674:
 20910 2500 5350495F 		.ascii	"SPI_READY\000"
 20910      52454144 
 20910      5900
 20911              	.LASF865:
 20912 250a 7573625F 		.ascii	"usb_lld_init_endpoint\000"
 20912      6C6C645F 
 20912      696E6974 
 20912      5F656E64 
 20912      706F696E 
 20913              	.LASF237:
 20914 2520 73464946 		.ascii	"sFIFOMailBox\000"
ARM GAS  C:\Users\Moi\AppData\Local\Temp\ccOzHcBd.s 			page 399


 20914      4F4D6169 
 20914      6C426F78 
 20914      00
 20915              	.LASF662:
 20916 252d 6275735F 		.ascii	"bus_width\000"
 20916      77696474 
 20916      6800
 20917              	.LASF258:
 20918 2537 44485238 		.ascii	"DHR8RD\000"
 20918      524400
 20919              	.LASF788:
 20920 253e 4443544C 		.ascii	"DCTL\000"
 20920      00
 20921              	.LASF664:
 20922 2543 53444344 		.ascii	"SDCDriverVMT\000"
 20922      72697665 
 20922      72564D54 
 20922      00
 20923              	.LASF814:
 20924 2550 74786275 		.ascii	"txbuf\000"
 20924      6600
 20925              	.LASF807:
 20926 2556 50434743 		.ascii	"PCGCCTL\000"
 20926      43544C00 
 20927              	.LASF725:
 20928 255e 5553425F 		.ascii	"USB_EVENT_WAKEUP\000"
 20928      4556454E 
 20928      545F5741 
 20928      4B455550 
 20928      00
 20929              	.LASF920:
 20930 256f 5F5F7365 		.ascii	"__set_BASEPRI\000"
 20930      745F4241 
 20930      53455052 
 20930      4900
 20931              	.LASF154:
 20932 257d 705F6F6C 		.ascii	"p_older\000"
 20932      64657200 
 20933              	.LASF415:
 20934 2585 424C4B5F 		.ascii	"BLK_SYNCING\000"
 20934      53594E43 
 20934      494E4700 
 20935              	.LASF446:
 20936 2591 50494461 		.ascii	"PIData\000"
 20936      746100
 20937              	.LASF836:
 20938 2598 73657475 		.ascii	"setup_buf\000"
 20938      705F6275 
 20938      6600
 20939              	.LASF770:
 20940 25a2 72657376 		.ascii	"resvd34\000"
 20940      64333400 
 20941              	.LASF571:
 20942 25aa 47505444 		.ascii	"GPTD6\000"
 20942      3600
 20943              	.LASF477:
 20944 25b0 6572726F 		.ascii	"error_cb\000"
ARM GAS  C:\Users\Moi\AppData\Local\Temp\ccOzHcBd.s 			page 400


 20944      725F6362 
 20944      00
 20945              	.LASF411:
 20946 25b9 424C4B5F 		.ascii	"BLK_DISCONNECTING\000"
 20946      44495343 
 20946      4F4E4E45 
 20946      4354494E 
 20946      4700
 20947              	.LASF680:
 20948 25cb 7373706F 		.ascii	"ssport\000"
 20948      727400
 20949              	.LASF170:
 20950 25d2 74687265 		.ascii	"thread_reference_t\000"
 20950      61645F72 
 20950      65666572 
 20950      656E6365 
 20950      5F7400
 20951              	.LASF540:
 20952 25e5 65787063 		.ascii	"expchannel_t\000"
 20952      68616E6E 
 20952      656C5F74 
 20952      00
 20953              	.LASF686:
 20954 25f2 72656365 		.ascii	"receiving\000"
 20954      6976696E 
 20954      6700
 20955              	.LASF94:
 20956 25fc 5F5F4649 		.ascii	"__FILE\000"
 20956      4C4500
 20957              	.LASF567:
 20958 2603 66726571 		.ascii	"frequency\000"
 20958      75656E63 
 20958      7900
 20959              	.LASF922:
 20960 260d 5F737461 		.ascii	"_stats_start_measure_crit_thd\000"
 20960      74735F73 
 20960      74617274 
 20960      5F6D6561 
 20960      73757265 
 20961              	.LASF902:
 20962 262b 6F73616C 		.ascii	"osalSysPolledDelayX\000"
 20962      53797350 
 20962      6F6C6C65 
 20962      6444656C 
 20962      61795800 
 20963              	.LASF31:
 20964 263f 5F736967 		.ascii	"_sign\000"
 20964      6E00
 20965              	.LASF833:
 20966 2645 696E5F73 		.ascii	"in_state\000"
 20966      74617465 
 20966      00
 20967              	.LASF36:
 20968 264e 5F5F746D 		.ascii	"__tm_min\000"
 20968      5F6D696E 
 20968      00
 20969              	.LASF357:
ARM GAS  C:\Users\Moi\AppData\Local\Temp\ccOzHcBd.s 			page 401


 20970 2657 63685F7A 		.ascii	"ch_zero\000"
 20970      65726F00 
 20971              	.LASF587:
 20972 265f 46415354 		.ascii	"FAST_DUTY_CYCLE_2\000"
 20972      5F445554 
 20972      595F4359 
 20972      434C455F 
 20972      3200
 20973              	.LASF302:
 20974 2671 44435452 		.ascii	"DCTRL\000"
 20974      4C00
 20975              	.LASF362:
 20976 2677 63685F74 		.ascii	"ch_threadsize\000"
 20976      68726561 
 20976      6473697A 
 20976      6500
 20977              	.LASF269:
 20978 2685 464C5452 		.ascii	"FLTR\000"
 20978      00
 20979              	.LASF558:
 20980 268a 43434D52 		.ascii	"CCMR1\000"
 20980      3100
 20981              	.LASF559:
 20982 2690 43434D52 		.ascii	"CCMR2\000"
 20982      3200
 20983              	.LASF563:
 20984 2696 43434D52 		.ascii	"CCMR3\000"
 20984      3300
 20985              	.LASF0:
 20986 269c 756E7369 		.ascii	"unsigned int\000"
 20986      676E6564 
 20986      20696E74 
 20986      00
 20987              	.LASF481:
 20988 26a9 73717232 		.ascii	"sqr2\000"
 20988      00
 20989              	.LASF482:
 20990 26ae 73717233 		.ascii	"sqr3\000"
 20990      00
 20991              	.LASF108:
 20992 26b3 5F723438 		.ascii	"_r48\000"
 20992      00
 20993              	.LASF777:
 20994 26b8 48464952 		.ascii	"HFIR\000"
 20994      00
 20995              	.LASF703:
 20996 26bd 5553425F 		.ascii	"USB_UNINIT\000"
 20996      554E494E 
 20996      495400
 20997              	.LASF882:
 20998 26c8 73747265 		.ascii	"streak\000"
 20998      616B00
 20999              	.LASF400:
 21000 26cf 73747265 		.ascii	"stream\000"
 21000      616D00
 21001              	.LASF484:
 21002 26d6 64756D6D 		.ascii	"dummy\000"
ARM GAS  C:\Users\Moi\AppData\Local\Temp\ccOzHcBd.s 			page 402


 21002      7900
 21003              	.LASF585:
 21004 26dc 6932636F 		.ascii	"i2copmode_t\000"
 21004      706D6F64 
 21004      655F7400 
 21005              	.LASF884:
 21006 26e8 6F74675F 		.ascii	"otg_fifo_read_to_buffer\000"
 21006      6669666F 
 21006      5F726561 
 21006      645F746F 
 21006      5F627566 
 21007              	.LASF378:
 21008 2700 6576656E 		.ascii	"event_listener\000"
 21008      745F6C69 
 21008      7374656E 
 21008      657200
 21009              	.LASF8:
 21010 270f 73686F72 		.ascii	"short int\000"
 21010      7420696E 
 21010      7400
 21011              	.LASF731:
 21012 2719 75736263 		.ascii	"usbcallback_t\000"
 21012      616C6C62 
 21012      61636B5F 
 21012      7400
 21013              	.LASF60:
 21014 2727 5F726561 		.ascii	"_read\000"
 21014      6400
 21015              	.LASF760:
 21016 272d 47555342 		.ascii	"GUSBCFG\000"
 21016      43464700 
 21017              	.LASF315:
 21018 2735 55534152 		.ascii	"USART_TypeDef\000"
 21018      545F5479 
 21018      70654465 
 21018      6600
 21019              	.LASF399:
 21020 2743 6F757470 		.ascii	"output_queue_t\000"
 21020      75745F71 
 21020      75657565 
 21020      5F7400
 21021              	.LASF98:
 21022 2752 5F72616E 		.ascii	"_rand48\000"
 21022      64343800 
 21023              	.LASF809:
 21024 275a 73746D33 		.ascii	"stm32_otg_t\000"
 21024      325F6F74 
 21024      675F7400 
 21025              	.LASF855:
 21026 2766 7573625F 		.ascii	"usb_lld_stall_out\000"
 21026      6C6C645F 
 21026      7374616C 
 21026      6C5F6F75 
 21026      7400
 21027              	.LASF608:
 21028 2778 49325344 		.ascii	"I2SDriver\000"
 21028      72697665 
ARM GAS  C:\Users\Moi\AppData\Local\Temp\ccOzHcBd.s 			page 403


 21028      7200
 21029              	.LASF592:
 21030 2782 64757479 		.ascii	"duty_cycle\000"
 21030      5F637963 
 21030      6C6500
 21031              	.LASF615:
 21032 278d 49325343 		.ascii	"I2SConfig\000"
 21032      6F6E6669 
 21032      6700
 21033              	.LASF728:
 21034 2797 75645F73 		.ascii	"ud_size\000"
 21034      697A6500 
 21035              	.LASF279:
 21036 279f 41484232 		.ascii	"AHB2ENR\000"
 21036      454E5200 
 21037              	.LASF273:
 21038 27a7 41484231 		.ascii	"AHB1RSTR\000"
 21038      52535452 
 21038      00
 21039              	.LASF831:
 21040 27b0 696E5F6D 		.ascii	"in_maxsize\000"
 21040      61787369 
 21040      7A6500
 21041              	.LASF443:
 21042 27bb 50464461 		.ascii	"PFData\000"
 21042      746100
 21043              	.LASF536:
 21044 27c2 4558545F 		.ascii	"EXT_STOP\000"
 21044      53544F50 
 21044      00
 21045              	.LASF157:
 21046 27cb 705F7374 		.ascii	"p_state\000"
 21046      61746500 
 21047              	.LASF616:
 21048 27d3 49325344 		.ascii	"I2SD2\000"
 21048      3200
 21049              	.LASF665:
 21050 27d9 69735F69 		.ascii	"is_inserted\000"
 21050      6E736572 
 21050      74656400 
 21051              	.LASF172:
 21052 27e5 63685F74 		.ascii	"ch_threads_list\000"
 21052      68726561 
 21052      64735F6C 
 21052      69737400 
 21053              	.LASF303:
 21054 27f5 44434F55 		.ascii	"DCOUNT\000"
 21054      4E5400
 21055              	.LASF266:
 21056 27fc 4F415231 		.ascii	"OAR1\000"
 21056      00
 21057              	.LASF267:
 21058 2801 4F415232 		.ascii	"OAR2\000"
 21058      00
 21059              	.LASF169:
 21060 2806 705F7374 		.ascii	"p_stats\000"
 21060      61747300 
ARM GAS  C:\Users\Moi\AppData\Local\Temp\ccOzHcBd.s 			page 404


 21061              	.LASF708:
 21062 280e 75736273 		.ascii	"usbstate_t\000"
 21062      74617465 
 21062      5F7400
 21063              		.ident	"GCC: (GNU Tools for Arm Embedded Processors 7-2017-q4-major) 7.2.1 20170904 (release) [ARM
ARM GAS  C:\Users\Moi\AppData\Local\Temp\ccOzHcBd.s 			page 405


DEFINED SYMBOLS
                            *ABS*:00000000 usb_lld.c
C:\Users\Moi\AppData\Local\Temp\ccOzHcBd.s:18     .text.otg_disable_ep.isra.0:00000000 $t
C:\Users\Moi\AppData\Local\Temp\ccOzHcBd.s:25     .text.otg_disable_ep.isra.0:00000000 otg_disable_ep.isra.0
C:\Users\Moi\AppData\Local\Temp\ccOzHcBd.s:135    .text.otg_disable_ep.isra.0:00000090 $d
C:\Users\Moi\AppData\Local\Temp\ccOzHcBd.s:140    .text.usb_lld_pump:00000000 $t
C:\Users\Moi\AppData\Local\Temp\ccOzHcBd.s:148    .text.usb_lld_pump:00000000 usb_lld_pump
C:\Users\Moi\AppData\Local\Temp\ccOzHcBd.s:736    .text.usb_lld_pump:00000220 $d
C:\Users\Moi\AppData\Local\Temp\ccOzHcBd.s:759    .text.usb_lld_pump:00000230 $t
C:\Users\Moi\AppData\Local\Temp\ccOzHcBd.s:1342   .text.usb_lld_pump:0000048c $d
C:\Users\Moi\AppData\Local\Temp\ccOzHcBd.s:1349   .text.usb_lld_init:00000000 $t
C:\Users\Moi\AppData\Local\Temp\ccOzHcBd.s:1357   .text.usb_lld_init:00000000 usb_lld_init
C:\Users\Moi\AppData\Local\Temp\ccOzHcBd.s:1434   .text.usb_lld_init:00000050 $d
C:\Users\Moi\AppData\Local\Temp\ccOzHcBd.s:1442   .text.usb_lld_start:00000000 $t
C:\Users\Moi\AppData\Local\Temp\ccOzHcBd.s:1450   .text.usb_lld_start:00000000 usb_lld_start
C:\Users\Moi\AppData\Local\Temp\ccOzHcBd.s:1680   .text.usb_lld_start:000000f4 $d
C:\Users\Moi\AppData\Local\Temp\ccOzHcBd.s:1691   .text.usb_lld_stop:00000000 $t
C:\Users\Moi\AppData\Local\Temp\ccOzHcBd.s:1699   .text.usb_lld_stop:00000000 usb_lld_stop
C:\Users\Moi\AppData\Local\Temp\ccOzHcBd.s:1781   .text.usb_lld_stop:00000050 $d
C:\Users\Moi\AppData\Local\Temp\ccOzHcBd.s:1788   .text.usb_lld_reset:00000000 $t
C:\Users\Moi\AppData\Local\Temp\ccOzHcBd.s:1796   .text.usb_lld_reset:00000000 usb_lld_reset
C:\Users\Moi\AppData\Local\Temp\ccOzHcBd.s:1984   .text.usb_lld_reset:000000e0 $d
C:\Users\Moi\AppData\Local\Temp\ccOzHcBd.s:1992   .text.usb_lld_set_address:00000000 $t
C:\Users\Moi\AppData\Local\Temp\ccOzHcBd.s:2000   .text.usb_lld_set_address:00000000 usb_lld_set_address
C:\Users\Moi\AppData\Local\Temp\ccOzHcBd.s:2047   .text.usb_lld_set_address:00000034 $d
C:\Users\Moi\AppData\Local\Temp\ccOzHcBd.s:2052   .text.usb_lld_init_endpoint:00000000 $t
C:\Users\Moi\AppData\Local\Temp\ccOzHcBd.s:2060   .text.usb_lld_init_endpoint:00000000 usb_lld_init_endpoint
C:\Users\Moi\AppData\Local\Temp\ccOzHcBd.s:2333   .text.usb_lld_init_endpoint:00000180 $d
C:\Users\Moi\AppData\Local\Temp\ccOzHcBd.s:2344   .text.usb_lld_disable_endpoints:00000000 $t
C:\Users\Moi\AppData\Local\Temp\ccOzHcBd.s:2352   .text.usb_lld_disable_endpoints:00000000 usb_lld_disable_endpoints
C:\Users\Moi\AppData\Local\Temp\ccOzHcBd.s:2405   .text.usb_lld_disable_endpoints:00000028 $d
C:\Users\Moi\AppData\Local\Temp\ccOzHcBd.s:2410   .text.usb_lld_get_status_out:00000000 $t
C:\Users\Moi\AppData\Local\Temp\ccOzHcBd.s:2418   .text.usb_lld_get_status_out:00000000 usb_lld_get_status_out
C:\Users\Moi\AppData\Local\Temp\ccOzHcBd.s:2473   .text.usb_lld_get_status_out:00000034 $d
C:\Users\Moi\AppData\Local\Temp\ccOzHcBd.s:2478   .text.usb_lld_get_status_in:00000000 $t
C:\Users\Moi\AppData\Local\Temp\ccOzHcBd.s:2486   .text.usb_lld_get_status_in:00000000 usb_lld_get_status_in
C:\Users\Moi\AppData\Local\Temp\ccOzHcBd.s:2541   .text.usb_lld_get_status_in:00000034 $d
C:\Users\Moi\AppData\Local\Temp\ccOzHcBd.s:2546   .text.usb_lld_read_setup:00000000 $t
C:\Users\Moi\AppData\Local\Temp\ccOzHcBd.s:2554   .text.usb_lld_read_setup:00000000 usb_lld_read_setup
C:\Users\Moi\AppData\Local\Temp\ccOzHcBd.s:2607   .text.usb_lld_read_setup:0000002c $d
C:\Users\Moi\AppData\Local\Temp\ccOzHcBd.s:2612   .text.usb_lld_prepare_receive:00000000 $t
C:\Users\Moi\AppData\Local\Temp\ccOzHcBd.s:2620   .text.usb_lld_prepare_receive:00000000 usb_lld_prepare_receive
C:\Users\Moi\AppData\Local\Temp\ccOzHcBd.s:2703   .text.usb_lld_prepare_receive:00000050 $d
C:\Users\Moi\AppData\Local\Temp\ccOzHcBd.s:2709   .text.otg_epout_handler.constprop.7:00000000 $t
C:\Users\Moi\AppData\Local\Temp\ccOzHcBd.s:2716   .text.otg_epout_handler.constprop.7:00000000 otg_epout_handler.constprop.7
C:\Users\Moi\AppData\Local\Temp\ccOzHcBd.s:2917   .text.otg_epout_handler.constprop.7:000000cc $d
C:\Users\Moi\AppData\Local\Temp\ccOzHcBd.s:2923   .text.usb_lld_prepare_transmit:00000000 $t
C:\Users\Moi\AppData\Local\Temp\ccOzHcBd.s:2931   .text.usb_lld_prepare_transmit:00000000 usb_lld_prepare_transmit
C:\Users\Moi\AppData\Local\Temp\ccOzHcBd.s:3024   .text.usb_lld_prepare_transmit:0000005c $d
C:\Users\Moi\AppData\Local\Temp\ccOzHcBd.s:3029   .text.otg_epin_handler.constprop.8:00000000 $t
C:\Users\Moi\AppData\Local\Temp\ccOzHcBd.s:3036   .text.otg_epin_handler.constprop.8:00000000 otg_epin_handler.constprop.8
C:\Users\Moi\AppData\Local\Temp\ccOzHcBd.s:3317   .text.otg_epin_handler.constprop.8:00000100 $d
C:\Users\Moi\AppData\Local\Temp\ccOzHcBd.s:3324   .text.Vector14C:00000000 $t
C:\Users\Moi\AppData\Local\Temp\ccOzHcBd.s:3332   .text.Vector14C:00000000 Vector14C
C:\Users\Moi\AppData\Local\Temp\ccOzHcBd.s:3643   .text.Vector14C:00000118 $d
C:\Users\Moi\AppData\Local\Temp\ccOzHcBd.s:3650   .text.usb_lld_start_out:00000000 $t
C:\Users\Moi\AppData\Local\Temp\ccOzHcBd.s:3658   .text.usb_lld_start_out:00000000 usb_lld_start_out
ARM GAS  C:\Users\Moi\AppData\Local\Temp\ccOzHcBd.s 			page 406


C:\Users\Moi\AppData\Local\Temp\ccOzHcBd.s:3698   .text.usb_lld_start_out:00000030 $d
C:\Users\Moi\AppData\Local\Temp\ccOzHcBd.s:3703   .text.usb_lld_start_in:00000000 $t
C:\Users\Moi\AppData\Local\Temp\ccOzHcBd.s:3711   .text.usb_lld_start_in:00000000 usb_lld_start_in
C:\Users\Moi\AppData\Local\Temp\ccOzHcBd.s:3763   .text.usb_lld_start_in:0000003c $d
C:\Users\Moi\AppData\Local\Temp\ccOzHcBd.s:3768   .text.usb_lld_stall_out:00000000 $t
C:\Users\Moi\AppData\Local\Temp\ccOzHcBd.s:3776   .text.usb_lld_stall_out:00000000 usb_lld_stall_out
C:\Users\Moi\AppData\Local\Temp\ccOzHcBd.s:3816   .text.usb_lld_stall_out:00000030 $d
C:\Users\Moi\AppData\Local\Temp\ccOzHcBd.s:3821   .text.usb_lld_stall_in:00000000 $t
C:\Users\Moi\AppData\Local\Temp\ccOzHcBd.s:3829   .text.usb_lld_stall_in:00000000 usb_lld_stall_in
C:\Users\Moi\AppData\Local\Temp\ccOzHcBd.s:3869   .text.usb_lld_stall_in:00000030 $d
C:\Users\Moi\AppData\Local\Temp\ccOzHcBd.s:3874   .text.usb_lld_clear_out:00000000 $t
C:\Users\Moi\AppData\Local\Temp\ccOzHcBd.s:3882   .text.usb_lld_clear_out:00000000 usb_lld_clear_out
C:\Users\Moi\AppData\Local\Temp\ccOzHcBd.s:3922   .text.usb_lld_clear_out:00000030 $d
C:\Users\Moi\AppData\Local\Temp\ccOzHcBd.s:3927   .text.usb_lld_clear_in:00000000 $t
C:\Users\Moi\AppData\Local\Temp\ccOzHcBd.s:3935   .text.usb_lld_clear_in:00000000 usb_lld_clear_in
C:\Users\Moi\AppData\Local\Temp\ccOzHcBd.s:3975   .text.usb_lld_clear_in:00000030 $d
C:\Users\Moi\AppData\Local\Temp\ccOzHcBd.s:3985   .bss.USBD1:00000000 USBD1
C:\Users\Moi\AppData\Local\Temp\ccOzHcBd.s:3981   .bss.USBD1:00000000 $d
C:\Users\Moi\AppData\Local\Temp\ccOzHcBd.s:3988   .bss.ep0_state:00000000 $d
C:\Users\Moi\AppData\Local\Temp\ccOzHcBd.s:3991   .bss.ep0_state:00000000 ep0_state
C:\Users\Moi\AppData\Local\Temp\ccOzHcBd.s:3994   .bss.ep0setup_buffer:00000000 $d
C:\Users\Moi\AppData\Local\Temp\ccOzHcBd.s:3997   .bss.ep0setup_buffer:00000000 ep0setup_buffer
C:\Users\Moi\AppData\Local\Temp\ccOzHcBd.s:4000   .rodata.__func__.10294:00000000 $d
C:\Users\Moi\AppData\Local\Temp\ccOzHcBd.s:4004   .rodata.__func__.10294:00000000 __func__.10294
C:\Users\Moi\AppData\Local\Temp\ccOzHcBd.s:4007   .rodata.__func__.7554:00000000 $d
C:\Users\Moi\AppData\Local\Temp\ccOzHcBd.s:4011   .rodata.__func__.7554:00000000 __func__.7554
C:\Users\Moi\AppData\Local\Temp\ccOzHcBd.s:4014   .rodata.__func__.7721:00000000 $d
C:\Users\Moi\AppData\Local\Temp\ccOzHcBd.s:4018   .rodata.__func__.7721:00000000 __func__.7721
C:\Users\Moi\AppData\Local\Temp\ccOzHcBd.s:4021   .rodata.ep0config:00000000 $d
C:\Users\Moi\AppData\Local\Temp\ccOzHcBd.s:4025   .rodata.ep0config:00000000 ep0config
C:\Users\Moi\AppData\Local\Temp\ccOzHcBd.s:4038   .rodata.fsparams:00000000 $d
C:\Users\Moi\AppData\Local\Temp\ccOzHcBd.s:4042   .rodata.fsparams:00000000 fsparams
C:\Users\Moi\AppData\Local\Temp\ccOzHcBd.s:4047   .rodata.usb_lld_pump.str1.4:00000000 $d

UNDEFINED SYMBOLS
__stack_chk_fail
__stack_chk_guard
_stats_start_measure_crit_thd
_dbg_check_lock
chThdSuspendS
_dbg_check_unlock
_stats_stop_measure_crit_thd
chSysHalt
chThdDequeueAllI
chSchRescheduleS
ch
usbObjectInit
_thread_memfill
chSysPolledDelayX
nvicEnableVector
chThdCreateI
chSchReadyI
nvicDisableVector
_stats_start_measure_crit_isr
_dbg_check_lock_from_isr
_dbg_check_unlock_from_isr
_stats_stop_measure_crit_isr
ARM GAS  C:\Users\Moi\AppData\Local\Temp\ccOzHcBd.s 			page 407


chThdResumeI
_stats_increase_irq
_dbg_check_enter_isr
_dbg_check_leave_isr
_port_irq_epilogue
_usb_reset
_usb_ep0setup
_usb_ep0in
_usb_ep0out
