ARM GAS  C:\Users\Moi\AppData\Local\Temp\ccOzHcBd.s 			page 1


   1              		.cpu cortex-m4
   2              		.eabi_attribute 27, 1
   3              		.eabi_attribute 28, 1
   4              		.eabi_attribute 20, 1
   5              		.eabi_attribute 21, 1
   6              		.eabi_attribute 23, 3
   7              		.eabi_attribute 24, 1
   8              		.eabi_attribute 25, 1
   9              		.eabi_attribute 26, 1
  10              		.eabi_attribute 30, 2
  11              		.eabi_attribute 34, 1
  12              		.eabi_attribute 18, 4
  13              		.file	"usb_lld.c"
  14              		.text
  15              	.Ltext0:
  16              		.cfi_sections	.debug_frame
  17              		.section	.text.otg_disable_ep.isra.0,"ax",%progbits
  18              		.align	1
  19              		.p2align 4,,15
  20              		.syntax unified
  21              		.thumb
  22              		.thumb_func
  23              		.fpu fpv4-sp-d16
  24              		.type	otg_disable_ep.isra.0, %function
  25              	otg_disable_ep.isra.0:
  26              	.LFB293:
  27              		.file 1 "..//ChibiOS//os/hal/ports/STM32/LLD/OTGv1/usb_lld.c"
  28              		.loc 1 132 0
  29              		.cfi_startproc
  30              		@ args = 0, pretend = 0, frame = 8
  31              		@ frame_needed = 0, uses_anonymous_args = 0
  32 0000 2DE9F041 		push	{r4, r5, r6, r7, r8, lr}
  33              		.cfi_def_cfa_offset 24
  34              		.cfi_offset 4, -24
  35              		.cfi_offset 5, -20
  36              		.cfi_offset 6, -16
  37              		.cfi_offset 7, -12
  38              		.cfi_offset 8, -8
  39              		.cfi_offset 14, -4
  40 0004 224F     		ldr	r7, .L20
  41 0006 8B68     		ldr	r3, [r1, #8]
  42 0008 3A68     		ldr	r2, [r7]
  43 000a 82B0     		sub	sp, sp, #8
  44              		.cfi_def_cfa_offset 32
  45              		.loc 1 136 0
  46 000c 0024     		movs	r4, #0
  47              		.loc 1 132 0
  48 000e 0192     		str	r2, [sp, #4]
  49              	.LVL0:
  50 0010 03F1010C 		add	ip, r3, #1
  51              		.loc 1 147 0
  52 0014 2546     		mov	r5, r4
  53              		.loc 1 141 0
  54 0016 4FF0804E 		mov	lr, #1073741824
  55              		.loc 1 149 0
  56 001a 4FF0FF36 		mov	r6, #-1
  57 001e 15E0     		b	.L8
ARM GAS  C:\Users\Moi\AppData\Local\Temp\ccOzHcBd.s 			page 2


  58              	.LVL1:
  59              	.L2:
  60              		.loc 1 147 0
  61 0020 C2F80059 		str	r5, [r2, #2304]
  62              	.L4:
  63              		.loc 1 148 0
  64 0024 C118     		adds	r1, r0, r3
  65 0026 C1F81059 		str	r5, [r1, #2320]
  66              		.loc 1 149 0
  67 002a C1F80869 		str	r6, [r1, #2312]
  68              		.loc 1 155 0
  69 002e D2F8008B 		ldr	r8, [r2, #2816]
  70 0032 B8F1000F 		cmp	r8, #0
  71 0036 17DB     		blt	.L17
  72              		.loc 1 162 0
  73 0038 C2F8005B 		str	r5, [r2, #2816]
  74              	.L7:
  75              		.loc 1 163 0
  76 003c 0344     		add	r3, r3, r0
  77              		.loc 1 136 0
  78 003e 0134     		adds	r4, r4, #1
  79              	.LVL2:
  80 0040 6445     		cmp	r4, ip
  81              		.loc 1 163 0
  82 0042 C3F8105B 		str	r5, [r3, #2832]
  83              		.loc 1 164 0
  84 0046 C3F8086B 		str	r6, [r3, #2824]
  85              		.loc 1 136 0
  86 004a 14D0     		beq	.L18
  87              	.LVL3:
  88              	.L8:
  89 004c 6301     		lsls	r3, r4, #5
  90 004e C218     		adds	r2, r0, r3
  91              		.loc 1 140 0
  92 0050 D2F80019 		ldr	r1, [r2, #2304]
  93 0054 0029     		cmp	r1, #0
  94 0056 E3DA     		bge	.L2
  95              		.loc 1 141 0
  96 0058 C2F800E9 		str	lr, [r2, #2304]
  97              		.loc 1 143 0
  98 005c 9046     		mov	r8, r2
  99              	.L3:
 100 005e D8F80819 		ldr	r1, [r8, #2312]
 101 0062 8907     		lsls	r1, r1, #30
 102 0064 FBD5     		bpl	.L3
 103 0066 DDE7     		b	.L4
 104              	.L17:
 105              		.loc 1 156 0
 106 0068 C2F800EB 		str	lr, [r2, #2816]
 107              	.L6:
 108              		.loc 1 158 0
 109 006c D1F8082B 		ldr	r2, [r1, #2824]
 110 0070 D206     		lsls	r2, r2, #27
 111 0072 FBD5     		bpl	.L6
 112 0074 E2E7     		b	.L7
 113              	.L18:
 114              		.loc 1 166 0
ARM GAS  C:\Users\Moi\AppData\Local\Temp\ccOzHcBd.s 			page 3


 115 0076 4FF00113 		mov	r3, #65537
 116 007a C0F81C38 		str	r3, [r0, #2076]
 117              		.loc 1 167 0
 118 007e 019A     		ldr	r2, [sp, #4]
 119 0080 3B68     		ldr	r3, [r7]
 120 0082 9A42     		cmp	r2, r3
 121 0084 02D1     		bne	.L19
 122 0086 02B0     		add	sp, sp, #8
 123              		.cfi_remember_state
 124              		.cfi_def_cfa_offset 24
 125              		@ sp needed
 126 0088 BDE8F081 		pop	{r4, r5, r6, r7, r8, pc}
 127              	.LVL4:
 128              	.L19:
 129              		.cfi_restore_state
 130 008c FFF7FEFF 		bl	__stack_chk_fail
 131              	.LVL5:
 132              	.L21:
 133              		.align	2
 134              	.L20:
 135 0090 00000000 		.word	__stack_chk_guard
 136              		.cfi_endproc
 137              	.LFE293:
 138              		.size	otg_disable_ep.isra.0, .-otg_disable_ep.isra.0
 139              		.section	.text.usb_lld_pump,"ax",%progbits
 140              		.align	1
 141              		.p2align 4,,15
 142              		.global	usb_lld_pump
 143              		.syntax unified
 144              		.thumb
 145              		.thumb_func
 146              		.fpu fpv4-sp-d16
 147              		.type	usb_lld_pump, %function
 148              	usb_lld_pump:
 149              	.LFB292:
 150              		.loc 1 1294 0
 151              		.cfi_startproc
 152              		@ args = 0, pretend = 0, frame = 32
 153              		@ frame_needed = 0, uses_anonymous_args = 0
 154              	.LVL6:
 155 0000 2DE9F04F 		push	{r4, r5, r6, r7, r8, r9, r10, fp, lr}
 156              		.cfi_def_cfa_offset 36
 157              		.cfi_offset 4, -36
 158              		.cfi_offset 5, -32
 159              		.cfi_offset 6, -28
 160              		.cfi_offset 7, -24
 161              		.cfi_offset 8, -20
 162              		.cfi_offset 9, -16
 163              		.cfi_offset 10, -12
 164              		.cfi_offset 11, -8
 165              		.cfi_offset 14, -4
 166              	.LBB421:
 167              	.LBB422:
 168              		.file 2 "..//ChibiOS//os/rt/include/chregistry.h"
 169              		.loc 2 135 0
 170 0004 864E     		ldr	r6, .L141
 171              	.LBE422:
ARM GAS  C:\Users\Moi\AppData\Local\Temp\ccOzHcBd.s 			page 4


 172              	.LBE421:
 173              		.loc 1 1294 0
 174 0006 874B     		ldr	r3, .L141+4
 175              	.LBB426:
 176              	.LBB423:
 177              		.loc 2 135 0
 178 0008 B269     		ldr	r2, [r6, #24]
 179              	.LBE423:
 180              	.LBE426:
 181              		.loc 1 1294 0
 182 000a 1B68     		ldr	r3, [r3]
 183              	.LBB427:
 184              	.LBB424:
 185              		.loc 2 135 0
 186 000c 8649     		ldr	r1, .L141+8
 187              	.LBE424:
 188              	.LBE427:
 189              		.loc 1 1296 0
 190 000e D0F85080 		ldr	r8, [r0, #80]
 191              	.LBB428:
 192              	.LBB425:
 193              		.loc 2 135 0
 194 0012 9161     		str	r1, [r2, #24]
 195              	.LBE425:
 196              	.LBE428:
 197              		.loc 1 1294 0
 198 0014 89B0     		sub	sp, sp, #36
 199              		.cfi_def_cfa_offset 72
 200              		.loc 1 1294 0
 201 0016 8246     		mov	r10, r0
 202              	.LVL7:
 203 0018 0793     		str	r3, [sp, #28]
 204              	.LBB429:
 205              	.LBB430:
 206              	.LBB431:
 207              	.LBB432:
 208              	.LBB433:
 209              	.LBB434:
 210              		.file 3 "..//ChibiOS//os/ext/CMSIS/include/core_cmFunc.h"
 211              		.loc 3 546 0
 212 001a 2023     		movs	r3, #32
 213              		.syntax unified
 214              	@ 546 "..//ChibiOS//os/ext/CMSIS/include/core_cmFunc.h" 1
 215 001c 83F31188 		MSR basepri, r3
 216              	@ 0 "" 2
 217              	.LVL8:
 218              		.thumb
 219              		.syntax unified
 220              	.LBE434:
 221              	.LBE433:
 222              	.LBE432:
 223              		.file 4 "..//ChibiOS//os/rt/include/chsys.h"
 224              		.loc 4 349 0
 225 0020 FFF7FEFF 		bl	_stats_start_measure_crit_thd
 226              	.LVL9:
 227              		.loc 4 350 0
 228 0024 FFF7FEFF 		bl	_dbg_check_lock
ARM GAS  C:\Users\Moi\AppData\Local\Temp\ccOzHcBd.s 			page 5


 229              	.LVL10:
 230 0028 0AF16003 		add	r3, r10, #96
 231              	.LBE431:
 232              	.LBE430:
 233              	.LBE429:
 234              	.LBB435:
 235              	.LBB436:
 236              	.LBB437:
 237              	.LBB438:
 238              	.LBB439:
 239              	.LBB440:
 240              	.LBB441:
 241              		.loc 3 546 0
 242 002c 5746     		mov	r7, r10
 243 002e 0593     		str	r3, [sp, #20]
 244 0030 C246     		mov	r10, r8
 245              	.LVL11:
 246              	.L77:
 247              	.LBE441:
 248              	.LBE440:
 249              	.LBE439:
 250              	.LBE438:
 251              	.LBE437:
 252              	.LBE436:
 253              		.loc 1 1307 0
 254 0032 3B78     		ldrb	r3, [r7]	@ zero_extendqisi2
 255 0034 012B     		cmp	r3, #1
 256 0036 05D0     		beq	.L23
 257              		.loc 1 1307 0 is_stmt 0 discriminator 1
 258 0038 FB6D     		ldr	r3, [r7, #92]
 259 003a 63B9     		cbnz	r3, .L24
 260              		.loc 1 1308 0 is_stmt 1
 261 003c DAF81430 		ldr	r3, [r10, #20]
 262 0040 DA06     		lsls	r2, r3, #27
 263 0042 08D4     		bmi	.L24
 264              	.L23:
 265              		.loc 1 1309 0
 266 0044 DAF81830 		ldr	r3, [r10, #24]
 267              	.LBB447:
 268              	.LBB448:
 269              		.file 5 "..//ChibiOS//os/hal/osal/rt/osal.h"
 270              		.loc 5 642 0
 271 0048 0598     		ldr	r0, [sp, #20]
 272              	.LBE448:
 273              	.LBE447:
 274              		.loc 1 1309 0
 275 004a 43F01003 		orr	r3, r3, #16
 276 004e CAF81830 		str	r3, [r10, #24]
 277              	.LBB450:
 278              	.LBB449:
 279              		.loc 5 642 0
 280 0052 FFF7FEFF 		bl	chThdSuspendS
 281              	.LVL12:
 282              	.L24:
 283              	.LBE449:
 284              	.LBE450:
 285              	.LBB451:
ARM GAS  C:\Users\Moi\AppData\Local\Temp\ccOzHcBd.s 			page 6


 286              	.LBB446:
 287              	.LBB445:
 288              		.loc 4 360 0
 289 0056 FFF7FEFF 		bl	_dbg_check_unlock
 290              	.LVL13:
 291              		.loc 4 361 0
 292 005a FFF7FEFF 		bl	_stats_stop_measure_crit_thd
 293              	.LVL14:
 294              		.loc 4 367 0
 295 005e 3368     		ldr	r3, [r6]
 296 0060 B342     		cmp	r3, r6
 297 0062 07D0     		beq	.L25
 298 0064 B269     		ldr	r2, [r6, #24]
 299 0066 9B68     		ldr	r3, [r3, #8]
 300 0068 9268     		ldr	r2, [r2, #8]
 301 006a 9A42     		cmp	r2, r3
 302 006c 02D2     		bcs	.L25
 303 006e 6F48     		ldr	r0, .L141+12
 304 0070 FFF7FEFF 		bl	chSysHalt
 305              	.LVL15:
 306              	.L25:
 307              	.LBB444:
 308              	.LBB443:
 309              	.LBB442:
 310              		.loc 3 546 0
 311 0074 0023     		movs	r3, #0
 312              		.syntax unified
 313              	@ 546 "..//ChibiOS//os/ext/CMSIS/include/core_cmFunc.h" 1
 314 0076 83F31188 		MSR basepri, r3
 315              	@ 0 "" 2
 316              	.LVL16:
 317              		.thumb
 318              		.syntax unified
 319              	.LBE442:
 320              	.LBE443:
 321              	.LBE444:
 322              	.LBE445:
 323              	.LBE446:
 324              	.LBE451:
 325              		.loc 1 1315 0
 326 007a 9B46     		mov	fp, r3
 327              	.LVL17:
 328              	.L27:
 329              		.loc 1 1318 0
 330 007c DAF81430 		ldr	r3, [r10, #20]
 331 0080 DB06     		lsls	r3, r3, #27
 332 0082 5AD5     		bpl	.L134
 333              	.L48:
 334              	.LVL18:
 335              	.LBB452:
 336              	.LBB453:
 337              		.loc 1 437 0
 338 0084 396D     		ldr	r1, [r7, #80]
 339 0086 0B6A     		ldr	r3, [r1, #32]
 340              	.LVL19:
 341              		.loc 1 438 0
 342 0088 03F4F012 		and	r2, r3, #1966080
ARM GAS  C:\Users\Moi\AppData\Local\Temp\ccOzHcBd.s 			page 7


 343 008c B2F5802F 		cmp	r2, #262144
 344 0090 24D0     		beq	.L28
 345 0092 B2F5402F 		cmp	r2, #786432
 346 0096 F1D1     		bne	.L27
 347              	.LVL20:
 348              		.loc 1 443 0
 349 0098 03F00F02 		and	r2, r3, #15
 350              	.LVL21:
 351              		.loc 1 444 0
 352 009c 07EB8202 		add	r2, r7, r2, lsl #2
 353              	.LVL22:
 354              		.loc 1 442 0
 355 00a0 C3F30A13 		ubfx	r3, r3, #4, #11
 356              	.LVL23:
 357              		.loc 1 444 0
 358 00a4 D268     		ldr	r2, [r2, #12]
 359              	.LBB454:
 360              	.LBB455:
 361              		.loc 1 356 0
 362 00a6 0333     		adds	r3, r3, #3
 363              		.loc 1 358 0
 364 00a8 9B08     		lsrs	r3, r3, #2
 365              	.LBE455:
 366              	.LBE454:
 367              		.loc 1 444 0
 368 00aa 146A     		ldr	r4, [r2, #32]
 369              	.LVL24:
 370              	.LBB460:
 371              	.LBB459:
 372              		.loc 1 358 0
 373 00ac E6D0     		beq	.L27
 374 00ae 01F58051 		add	r1, r1, #4096
 375              	.LVL25:
 376              		.loc 1 357 0
 377 00b2 0222     		movs	r2, #2
 378              	.LVL26:
 379              	.LBB456:
 380              		.loc 1 359 0
 381 00b4 0D68     		ldr	r5, [r1]
 382              	.LVL27:
 383 00b6 581E     		subs	r0, r3, #1
 384              		.loc 1 360 0
 385 00b8 4AB1     		cbz	r2, .L135
 386              	.L32:
 387              		.loc 1 365 0
 388 00ba 0346     		mov	r3, r0
 389              		.loc 1 363 0
 390 00bc 44F8045B 		str	r5, [r4], #4
 391              	.LVL28:
 392              		.loc 1 365 0
 393 00c0 013A     		subs	r2, r2, #1
 394              	.LVL29:
 395              	.LBE456:
 396              		.loc 1 358 0
 397 00c2 002B     		cmp	r3, #0
 398 00c4 DAD0     		beq	.L27
 399              	.LVL30:
ARM GAS  C:\Users\Moi\AppData\Local\Temp\ccOzHcBd.s 			page 8


 400              	.L133:
 401              	.LBB457:
 402              		.loc 1 359 0
 403 00c6 0D68     		ldr	r5, [r1]
 404              	.LVL31:
 405 00c8 581E     		subs	r0, r3, #1
 406              		.loc 1 360 0
 407 00ca 002A     		cmp	r2, #0
 408 00cc F5D1     		bne	.L32
 409              	.L135:
 410              	.LVL32:
 411              	.LBE457:
 412              		.loc 1 358 0
 413 00ce 0028     		cmp	r0, #0
 414 00d0 D4D0     		beq	.L27
 415 00d2 023B     		subs	r3, r3, #2
 416              	.LBB458:
 417              		.loc 1 359 0
 418 00d4 0868     		ldr	r0, [r1]
 419              	.LVL33:
 420              	.LBE458:
 421              		.loc 1 358 0
 422 00d6 002B     		cmp	r3, #0
 423 00d8 F5D1     		bne	.L133
 424 00da CFE7     		b	.L27
 425              	.LVL34:
 426              	.L28:
 427              	.LBE459:
 428              	.LBE460:
 429              		.loc 1 449 0
 430 00dc 03F00F08 		and	r8, r3, #15
 431 00e0 07EB8808 		add	r8, r7, r8, lsl #2
 432              		.loc 1 448 0
 433 00e4 C3F30A14 		ubfx	r4, r3, #4, #11
 434              	.LVL35:
 435              		.loc 1 450 0
 436 00e8 D8F80C30 		ldr	r3, [r8, #12]
 437              	.LVL36:
 438 00ec 9B69     		ldr	r3, [r3, #24]
 439 00ee 1A78     		ldrb	r2, [r3]	@ zero_extendqisi2
 440 00f0 DD68     		ldr	r5, [r3, #12]
 441 00f2 002A     		cmp	r2, #0
 442 00f4 42D1     		bne	.L136
 443              		.loc 1 461 0
 444 00f6 D3E9012C 		ldrd	r2, ip, [r3, #4]
 445              	.LVL37:
 446              	.LBB461:
 447              	.LBB462:
 448              		.loc 1 357 0
 449 00fa D01C     		adds	r0, r2, #3
 450              		.loc 1 356 0
 451 00fc E21C     		adds	r2, r4, #3
 452              	.LVL38:
 453              		.loc 1 357 0
 454 00fe A0EB0C00 		sub	r0, r0, ip
 455              		.loc 1 358 0
 456 0102 9208     		lsrs	r2, r2, #2
ARM GAS  C:\Users\Moi\AppData\Local\Temp\ccOzHcBd.s 			page 9


 457              		.loc 1 357 0
 458 0104 4FEA9000 		lsr	r0, r0, #2
 459              	.LVL39:
 460              		.loc 1 358 0
 461 0108 0FD0     		beq	.L44
 462 010a 01F58051 		add	r1, r1, #4096
 463              	.LVL40:
 464 010e A846     		mov	r8, r5
 465 0110 9946     		mov	r9, r3
 466 0112 8E46     		mov	lr, r1
 467              	.LVL41:
 468              	.L47:
 469              	.LBB463:
 470              		.loc 1 359 0
 471 0114 DEF80030 		ldr	r3, [lr]
 472              	.LVL42:
 473 0118 511E     		subs	r1, r2, #1
 474              		.loc 1 360 0
 475 011a 38B3     		cbz	r0, .L137
 476              		.loc 1 365 0
 477 011c 0A46     		mov	r2, r1
 478              	.LVL43:
 479              		.loc 1 363 0
 480 011e 48F8043B 		str	r3, [r8], #4
 481              	.LVL44:
 482              		.loc 1 365 0
 483 0122 0138     		subs	r0, r0, #1
 484              	.LVL45:
 485              	.LBE463:
 486              		.loc 1 358 0
 487 0124 002A     		cmp	r2, #0
 488 0126 F5D1     		bne	.L47
 489              	.LVL46:
 490              	.L130:
 491 0128 4B46     		mov	r3, r9
 492              	.LVL47:
 493              	.L44:
 494              	.LBE462:
 495              	.LBE461:
 496              		.loc 1 462 0
 497 012a 2544     		add	r5, r5, r4
 498 012c DD60     		str	r5, [r3, #12]
 499              	.L43:
 500              		.loc 1 464 0
 501 012e 6444     		add	r4, r4, ip
 502              	.LVL48:
 503 0130 9C60     		str	r4, [r3, #8]
 504              	.LBE453:
 505              	.LBE452:
 506              		.loc 1 1318 0
 507 0132 DAF81430 		ldr	r3, [r10, #20]
 508 0136 DB06     		lsls	r3, r3, #27
 509 0138 A4D4     		bmi	.L48
 510              	.LVL49:
 511              	.L134:
 512              		.loc 1 1322 0
 513 013a 4FF00108 		mov	r8, #1
ARM GAS  C:\Users\Moi\AppData\Local\Temp\ccOzHcBd.s 			page 10


 514              		.loc 1 1323 0
 515 013e FB6D     		ldr	r3, [r7, #92]
 516              		.loc 1 1322 0
 517 0140 08FA0BF8 		lsl	r8, r8, fp
 518              	.LVL50:
 519              		.loc 1 1323 0
 520 0144 18EA030F 		tst	r8, r3
 521 0148 72D1     		bne	.L127
 522 014a 0BF10103 		add	r3, fp, #1
 523 014e 0193     		str	r3, [sp, #4]
 524              	.LVL51:
 525              	.L49:
 526              		.loc 1 1315 0 discriminator 2
 527 0150 7B6D     		ldr	r3, [r7, #84]
 528 0152 9DF804B0 		ldrb	fp, [sp, #4]	@ zero_extendqisi2
 529              	.LVL52:
 530 0156 9B68     		ldr	r3, [r3, #8]
 531 0158 9B45     		cmp	fp, r3
 532 015a 8FD9     		bls	.L27
 533              	.LVL53:
 534              	.LBB488:
 535              	.LBB489:
 536              	.LBB490:
 537              	.LBB491:
 538              	.LBB492:
 539              	.LBB493:
 540              		.loc 3 546 0
 541 015c 2023     		movs	r3, #32
 542              		.syntax unified
 543              	@ 546 "..//ChibiOS//os/ext/CMSIS/include/core_cmFunc.h" 1
 544 015e 83F31188 		MSR basepri, r3
 545              	@ 0 "" 2
 546              	.LVL54:
 547              		.thumb
 548              		.syntax unified
 549              	.LBE493:
 550              	.LBE492:
 551              	.LBE491:
 552              		.loc 4 349 0
 553 0162 FFF7FEFF 		bl	_stats_start_measure_crit_thd
 554              	.LVL55:
 555              		.loc 4 350 0
 556 0166 FFF7FEFF 		bl	_dbg_check_lock
 557              	.LVL56:
 558 016a 62E7     		b	.L77
 559              	.LVL57:
 560              	.L137:
 561              	.LBE490:
 562              	.LBE489:
 563              	.LBE488:
 564              	.LBB494:
 565              	.LBB487:
 566              	.LBB466:
 567              	.LBB465:
 568              		.loc 1 358 0
 569 016c 0029     		cmp	r1, #0
 570 016e DBD0     		beq	.L130
ARM GAS  C:\Users\Moi\AppData\Local\Temp\ccOzHcBd.s 			page 11


 571 0170 023A     		subs	r2, r2, #2
 572              	.LVL58:
 573              	.LBB464:
 574              		.loc 1 359 0
 575 0172 DEF80030 		ldr	r3, [lr]
 576              	.LVL59:
 577              	.LBE464:
 578              		.loc 1 358 0
 579 0176 002A     		cmp	r2, #0
 580 0178 CCD1     		bne	.L47
 581 017a D5E7     		b	.L130
 582              	.LVL60:
 583              	.L136:
 584              	.LBE465:
 585              	.LBE466:
 586              	.LBB467:
 587              	.LBB468:
 588              		.loc 1 386 0
 589 017c 3CB3     		cbz	r4, .L36
 590 017e 6A69     		ldr	r2, [r5, #20]
 591 0180 01F58051 		add	r1, r1, #4096
 592              	.LVL61:
 593 0184 A446     		mov	ip, r4
 594              	.LVL62:
 595              	.L37:
 596              	.LBB469:
 597              		.loc 1 390 0
 598 0186 BCF1030F 		cmp	ip, #3
 599 018a 07D9     		bls	.L38
 600              	.LVL63:
 601              	.L138:
 602              	.LBB470:
 603              		.loc 1 396 0
 604 018c 2B69     		ldr	r3, [r5, #16]
 605 018e 9342     		cmp	r3, r2
 606 0190 04D8     		bhi	.L38
 607              		.loc 1 397 0
 608 0192 EA68     		ldr	r2, [r5, #12]
 609 0194 6A61     		str	r2, [r5, #20]
 610              	.LVL64:
 611              	.LBE470:
 612              		.loc 1 390 0
 613 0196 BCF1030F 		cmp	ip, #3
 614 019a F7D8     		bhi	.L138
 615              	.LVL65:
 616              	.L38:
 617              		.loc 1 408 0
 618 019c D1F800E0 		ldr	lr, [r1]
 619              	.LVL66:
 620 01a0 0023     		movs	r3, #0
 621              	.LVL67:
 622              	.L41:
 623              		.loc 1 411 0
 624 01a2 2EFA03F0 		lsr	r0, lr, r3
 625 01a6 02F10109 		add	r9, r2, #1
 626 01aa C5F81490 		str	r9, [r5, #20]
 627 01ae 1070     		strb	r0, [r2]
ARM GAS  C:\Users\Moi\AppData\Local\Temp\ccOzHcBd.s 			page 12


 628              		.loc 1 412 0
 629 01b0 D5E90420 		ldrd	r2, r0, [r5, #16]
 630 01b4 9042     		cmp	r0, r2
 631              		.loc 1 413 0
 632 01b6 24BF     		itt	cs
 633 01b8 EA68     		ldrcs	r2, [r5, #12]
 634 01ba 6A61     		strcs	r2, [r5, #20]
 635              		.loc 1 410 0
 636 01bc BCF1010C 		subs	ip, ip, #1
 637              	.LVL68:
 638 01c0 03F10803 		add	r3, r3, #8
 639 01c4 03D0     		beq	.L36
 640 01c6 202B     		cmp	r3, #32
 641 01c8 6A69     		ldr	r2, [r5, #20]
 642 01ca EAD1     		bne	.L41
 643 01cc DBE7     		b	.L37
 644              	.LVL69:
 645              	.L36:
 646              	.LBE469:
 647              	.LBB471:
 648              	.LBB472:
 649              	.LBB473:
 650              	.LBB474:
 651              	.LBB475:
 652              	.LBB476:
 653              		.loc 3 546 0
 654 01ce 2023     		movs	r3, #32
 655              		.syntax unified
 656              	@ 546 "..//ChibiOS//os/ext/CMSIS/include/core_cmFunc.h" 1
 657 01d0 83F31188 		MSR basepri, r3
 658              	@ 0 "" 2
 659              	.LVL70:
 660              		.thumb
 661              		.syntax unified
 662              	.LBE476:
 663              	.LBE475:
 664              	.LBE474:
 665              		.loc 4 349 0
 666 01d4 FFF7FEFF 		bl	_stats_start_measure_crit_thd
 667              	.LVL71:
 668              		.loc 4 350 0
 669 01d8 FFF7FEFF 		bl	_dbg_check_lock
 670              	.LVL72:
 671              	.LBE473:
 672              	.LBE472:
 673              	.LBE471:
 674              		.loc 1 421 0
 675 01dc AB68     		ldr	r3, [r5, #8]
 676 01de 2344     		add	r3, r3, r4
 677 01e0 AB60     		str	r3, [r5, #8]
 678              	.LVL73:
 679              	.LBB477:
 680              	.LBB478:
 681              		.loc 5 764 0
 682 01e2 2846     		mov	r0, r5
 683 01e4 0021     		movs	r1, #0
 684 01e6 FFF7FEFF 		bl	chThdDequeueAllI
ARM GAS  C:\Users\Moi\AppData\Local\Temp\ccOzHcBd.s 			page 13


 685              	.LVL74:
 686              	.LBE478:
 687              	.LBE477:
 688              	.LBB479:
 689              	.LBB480:
 690              		.loc 5 554 0
 691 01ea FFF7FEFF 		bl	chSchRescheduleS
 692              	.LVL75:
 693              	.LBE480:
 694              	.LBE479:
 695              	.LBB481:
 696              	.LBB482:
 697              	.LBB483:
 698              		.loc 4 360 0
 699 01ee FFF7FEFF 		bl	_dbg_check_unlock
 700              	.LVL76:
 701              		.loc 4 361 0
 702 01f2 FFF7FEFF 		bl	_stats_stop_measure_crit_thd
 703              	.LVL77:
 704              		.loc 4 367 0
 705 01f6 3368     		ldr	r3, [r6]
 706 01f8 B342     		cmp	r3, r6
 707 01fa 07D0     		beq	.L42
 708 01fc B269     		ldr	r2, [r6, #24]
 709 01fe 9B68     		ldr	r3, [r3, #8]
 710 0200 9268     		ldr	r2, [r2, #8]
 711 0202 9A42     		cmp	r2, r3
 712 0204 02D2     		bcs	.L42
 713 0206 0948     		ldr	r0, .L141+12
 714 0208 FFF7FEFF 		bl	chSysHalt
 715              	.LVL78:
 716              	.L42:
 717              	.LBB484:
 718              	.LBB485:
 719              	.LBB486:
 720              		.loc 3 546 0
 721 020c 0023     		movs	r3, #0
 722              		.syntax unified
 723              	@ 546 "..//ChibiOS//os/ext/CMSIS/include/core_cmFunc.h" 1
 724 020e 83F31188 		MSR basepri, r3
 725              	@ 0 "" 2
 726              	.LVL79:
 727              		.thumb
 728              		.syntax unified
 729 0212 D8F80C30 		ldr	r3, [r8, #12]
 730 0216 9B69     		ldr	r3, [r3, #24]
 731 0218 D3F808C0 		ldr	ip, [r3, #8]
 732 021c 87E7     		b	.L43
 733              	.L142:
 734 021e 00BF     		.align	2
 735              	.L141:
 736 0220 00000000 		.word	ch
 737 0224 00000000 		.word	__stack_chk_guard
 738 0228 00000000 		.word	.LC0
 739 022c 00000000 		.word	.LANCHOR0
 740              	.LVL80:
 741              	.L127:
ARM GAS  C:\Users\Moi\AppData\Local\Temp\ccOzHcBd.s 			page 14


 742              	.LBE486:
 743              	.LBE485:
 744              	.LBE484:
 745              	.LBE483:
 746              	.LBE482:
 747              	.LBE481:
 748              	.LBE468:
 749              	.LBE467:
 750              	.LBE487:
 751              	.LBE494:
 752              	.LBB495:
 753              	.LBB496:
 754              	.LBB497:
 755              	.LBB498:
 756              	.LBB499:
 757              	.LBB500:
 758              	.LBB501:
 759 0230 2023     		movs	r3, #32
 760              		.syntax unified
 761              	@ 546 "..//ChibiOS//os/ext/CMSIS/include/core_cmFunc.h" 1
 762 0232 83F31188 		MSR basepri, r3
 763              	@ 0 "" 2
 764              	.LVL81:
 765              		.thumb
 766              		.syntax unified
 767              	.LBE501:
 768              	.LBE500:
 769              	.LBE499:
 770              		.loc 4 349 0
 771 0236 FFF7FEFF 		bl	_stats_start_measure_crit_thd
 772              	.LVL82:
 773              		.loc 4 350 0
 774 023a FFF7FEFF 		bl	_dbg_check_lock
 775              	.LVL83:
 776              	.LBE498:
 777              	.LBE497:
 778              	.LBE496:
 779              		.loc 1 1334 0
 780 023e DAF80820 		ldr	r2, [r10, #8]
 781              		.loc 1 1335 0
 782 0242 FB6D     		ldr	r3, [r7, #92]
 783              		.loc 1 1334 0
 784 0244 22F00102 		bic	r2, r2, #1
 785              		.loc 1 1335 0
 786 0248 23EA0803 		bic	r3, r3, r8
 787              		.loc 1 1334 0
 788 024c CAF80820 		str	r2, [r10, #8]
 789              		.loc 1 1335 0
 790 0250 FB65     		str	r3, [r7, #92]
 791              	.LBB502:
 792              	.LBB503:
 793              	.LBB504:
 794              		.loc 4 360 0
 795 0252 FFF7FEFF 		bl	_dbg_check_unlock
 796              	.LVL84:
 797              		.loc 4 361 0
 798 0256 FFF7FEFF 		bl	_stats_stop_measure_crit_thd
ARM GAS  C:\Users\Moi\AppData\Local\Temp\ccOzHcBd.s 			page 15


 799              	.LVL85:
 800              		.loc 4 367 0
 801 025a 3368     		ldr	r3, [r6]
 802 025c B342     		cmp	r3, r6
 803 025e 07D0     		beq	.L50
 804 0260 B269     		ldr	r2, [r6, #24]
 805 0262 9B68     		ldr	r3, [r3, #8]
 806 0264 9268     		ldr	r2, [r2, #8]
 807 0266 9A42     		cmp	r2, r3
 808 0268 02D2     		bcs	.L50
 809 026a 8848     		ldr	r0, .L143
 810 026c FFF7FEFF 		bl	chSysHalt
 811              	.LVL86:
 812              	.L50:
 813              	.LBB505:
 814              	.LBB506:
 815              	.LBB507:
 816              		.loc 3 546 0
 817 0270 0023     		movs	r3, #0
 818              		.syntax unified
 819              	@ 546 "..//ChibiOS//os/ext/CMSIS/include/core_cmFunc.h" 1
 820 0272 83F31188 		MSR basepri, r3
 821              	@ 0 "" 2
 822              	.LVL87:
 823              		.thumb
 824              		.syntax unified
 825 0276 07EB8B09 		add	r9, r7, fp, lsl #2
 826              	.LBE507:
 827              	.LBE506:
 828              	.LBE505:
 829              	.LBE504:
 830              	.LBE503:
 831              	.LBE502:
 832              	.LBB508:
 833              	.LBB509:
 834              		.loc 1 488 0
 835 027a D9F80C10 		ldr	r1, [r9, #12]
 836 027e 4A69     		ldr	r2, [r1, #20]
 837 0280 D2E9013C 		ldrd	r3, ip, [r2, #4]
 838 0284 9C45     		cmp	ip, r3
 839 0286 80F0DF80 		bcs	.L139
 840              		.loc 1 498 0
 841 028a 386D     		ldr	r0, [r7, #80]
 842              		.loc 1 493 0
 843 028c 0D8A     		ldrh	r5, [r1, #16]
 844              		.loc 1 498 0
 845 028e 4FEA4B14 		lsl	r4, fp, #5
 846 0292 0294     		str	r4, [sp, #8]
 847 0294 0419     		adds	r4, r0, r4
 848              		.loc 1 492 0
 849 0296 A3EB0C03 		sub	r3, r3, ip
 850              	.LVL88:
 851              		.loc 1 498 0
 852 029a D4F81849 		ldr	r4, [r4, #2328]
 853 029e 9D42     		cmp	r5, r3
 854 02a0 28BF     		it	cs
 855 02a2 1D46     		movcs	r5, r3
ARM GAS  C:\Users\Moi\AppData\Local\Temp\ccOzHcBd.s 			page 16


 856              	.LVL89:
 857 02a4 A3B2     		uxth	r3, r4
 858 02a6 B5EB830F 		cmp	r5, r3, lsl #2
 859 02aa 00F2DE80 		bhi	.L53
 860 02ae 0BF10103 		add	r3, fp, #1
 861 02b2 CDE903A8 		strd	r10, r8, [sp, #12]
 862 02b6 0193     		str	r3, [sp, #4]
 863 02b8 DDF808A0 		ldr	r10, [sp, #8]
 864 02bc 1B03     		lsls	r3, r3, #12
 865 02be 9846     		mov	r8, r3
 866              	.LVL90:
 867              	.L54:
 868              		.loc 1 505 0
 869 02c0 1378     		ldrb	r3, [r2]	@ zero_extendqisi2
 870 02c2 D468     		ldr	r4, [r2, #12]
 871 02c4 00EB080C 		add	ip, r0, r8
 872 02c8 002B     		cmp	r3, #0
 873 02ca 00F0A680 		beq	.L57
 874              	.LVL91:
 875              	.LBB510:
 876              	.LBB511:
 877              		.loc 1 274 0
 878 02ce 25B3     		cbz	r5, .L58
 879 02d0 D4F810B0 		ldr	fp, [r4, #16]
 880              	.LBB512:
 881              	.LBB513:
 882              		.loc 1 280 0
 883 02d4 0295     		str	r5, [sp, #8]
 884 02d6 2A46     		mov	r2, r5
 885              	.LVL92:
 886              	.L68:
 887              	.LBE513:
 888              		.loc 1 278 0
 889 02d8 5FEA920E 		lsrs	lr, r2, #2
 890              	.LVL93:
 891 02dc A369     		ldr	r3, [r4, #24]
 892 02de 00F08280 		beq	.L59
 893              	.LVL94:
 894              	.LBB518:
 895              		.loc 1 280 0
 896 02e2 BBEB0301 		subs	r1, fp, r3
 897 02e6 48BF     		it	mi
 898 02e8 0331     		addmi	r1, r1, #3
 899 02ea 8810     		asrs	r0, r1, #2
 900              		.loc 1 282 0
 901 02ec 7045     		cmp	r0, lr
 902 02ee 28BF     		it	cs
 903 02f0 7046     		movcs	r0, lr
 904              	.LVL95:
 905 02f2 8100     		lsls	r1, r0, #2
 906 02f4 521A     		subs	r2, r2, r1
 907              	.LVL96:
 908              	.LBB514:
 909              	.LBB515:
 910              		.loc 1 233 0
 911 02f6 0028     		cmp	r0, #0
 912 02f8 00F0A080 		beq	.L81
ARM GAS  C:\Users\Moi\AppData\Local\Temp\ccOzHcBd.s 			page 17


 913 02fc 1944     		add	r1, r1, r3
 914              	.LVL97:
 915              	.L62:
 916              		.loc 1 236 0
 917 02fe 53F8040B 		ldr	r0, [r3], #4
 918              	.LVL98:
 919 0302 CCF80000 		str	r0, [ip]
 920              	.LVL99:
 921              		.loc 1 233 0
 922 0306 8B42     		cmp	r3, r1
 923 0308 F9D1     		bne	.L62
 924              	.LVL100:
 925              	.L61:
 926              	.LBE515:
 927              	.LBE514:
 928              		.loc 1 284 0
 929 030a 5945     		cmp	r1, fp
 930              		.loc 1 283 0
 931 030c A161     		str	r1, [r4, #24]
 932              	.LVL101:
 933              		.loc 1 284 0
 934 030e 67D3     		bcc	.L63
 935              		.loc 1 285 0
 936 0310 E368     		ldr	r3, [r4, #12]
 937 0312 A361     		str	r3, [r4, #24]
 938              	.LBE518:
 939              	.LBE512:
 940              		.loc 1 274 0
 941 0314 002A     		cmp	r2, #0
 942 0316 DFD1     		bne	.L68
 943              	.L131:
 944 0318 029D     		ldr	r5, [sp, #8]
 945              	.LVL102:
 946              	.L58:
 947              	.LBB520:
 948              	.LBB521:
 949              	.LBB522:
 950              	.LBB523:
 951              	.LBB524:
 952              	.LBB525:
 953              		.loc 3 546 0
 954 031a 2023     		movs	r3, #32
 955              		.syntax unified
 956              	@ 546 "..//ChibiOS//os/ext/CMSIS/include/core_cmFunc.h" 1
 957 031c 83F31188 		MSR basepri, r3
 958              	@ 0 "" 2
 959              	.LVL103:
 960              		.thumb
 961              		.syntax unified
 962              	.LBE525:
 963              	.LBE524:
 964              	.LBE523:
 965              		.loc 4 349 0
 966 0320 FFF7FEFF 		bl	_stats_start_measure_crit_thd
 967              	.LVL104:
 968              		.loc 4 350 0
 969 0324 FFF7FEFF 		bl	_dbg_check_lock
ARM GAS  C:\Users\Moi\AppData\Local\Temp\ccOzHcBd.s 			page 18


 970              	.LVL105:
 971              	.LBE522:
 972              	.LBE521:
 973              	.LBE520:
 974              		.loc 1 310 0
 975 0328 A368     		ldr	r3, [r4, #8]
 976 032a 2B44     		add	r3, r3, r5
 977 032c A360     		str	r3, [r4, #8]
 978              	.LVL106:
 979              	.LBB526:
 980              	.LBB527:
 981              		.loc 5 764 0
 982 032e 2046     		mov	r0, r4
 983 0330 0021     		movs	r1, #0
 984 0332 FFF7FEFF 		bl	chThdDequeueAllI
 985              	.LVL107:
 986              	.LBE527:
 987              	.LBE526:
 988              	.LBB528:
 989              	.LBB529:
 990              		.loc 5 554 0
 991 0336 FFF7FEFF 		bl	chSchRescheduleS
 992              	.LVL108:
 993              	.LBE529:
 994              	.LBE528:
 995              	.LBB530:
 996              	.LBB531:
 997              	.LBB532:
 998              		.loc 4 360 0
 999 033a FFF7FEFF 		bl	_dbg_check_unlock
 1000              	.LVL109:
 1001              		.loc 4 361 0
 1002 033e FFF7FEFF 		bl	_stats_stop_measure_crit_thd
 1003              	.LVL110:
 1004              		.loc 4 367 0
 1005 0342 3368     		ldr	r3, [r6]
 1006 0344 B342     		cmp	r3, r6
 1007 0346 07D0     		beq	.L69
 1008 0348 B269     		ldr	r2, [r6, #24]
 1009 034a 9B68     		ldr	r3, [r3, #8]
 1010 034c 9268     		ldr	r2, [r2, #8]
 1011 034e 9A42     		cmp	r2, r3
 1012 0350 02D2     		bcs	.L69
 1013 0352 4E48     		ldr	r0, .L143
 1014 0354 FFF7FEFF 		bl	chSysHalt
 1015              	.LVL111:
 1016              	.L69:
 1017              	.LBB533:
 1018              	.LBB534:
 1019              	.LBB535:
 1020              		.loc 3 546 0
 1021 0358 0023     		movs	r3, #0
 1022              		.syntax unified
 1023              	@ 546 "..//ChibiOS//os/ext/CMSIS/include/core_cmFunc.h" 1
 1024 035a 83F31188 		MSR basepri, r3
 1025              	@ 0 "" 2
 1026              	.LVL112:
ARM GAS  C:\Users\Moi\AppData\Local\Temp\ccOzHcBd.s 			page 19


 1027              		.thumb
 1028              		.syntax unified
 1029 035e D9F80C10 		ldr	r1, [r9, #12]
 1030              	.L70:
 1031              	.LBE535:
 1032              	.LBE534:
 1033              	.LBE533:
 1034              	.LBE532:
 1035              	.LBE531:
 1036              	.LBE530:
 1037              	.LBE511:
 1038              	.LBE510:
 1039              		.loc 1 521 0
 1040 0362 4A69     		ldr	r2, [r1, #20]
 1041              		.loc 1 488 0
 1042 0364 D2E90143 		ldrd	r4, r3, [r2, #4]
 1043              		.loc 1 521 0
 1044 0368 2B44     		add	r3, r3, r5
 1045              		.loc 1 488 0
 1046 036a 9C42     		cmp	r4, r3
 1047              		.loc 1 521 0
 1048 036c 9360     		str	r3, [r2, #8]
 1049              		.loc 1 488 0
 1050 036e 67D9     		bls	.L140
 1051              		.loc 1 498 0
 1052 0370 386D     		ldr	r0, [r7, #80]
 1053              		.loc 1 493 0
 1054 0372 0D8A     		ldrh	r5, [r1, #16]
 1055              		.loc 1 498 0
 1056 0374 00EB0A0C 		add	ip, r0, r10
 1057              		.loc 1 492 0
 1058 0378 E31A     		subs	r3, r4, r3
 1059              	.LVL113:
 1060              		.loc 1 498 0
 1061 037a DCF81849 		ldr	r4, [ip, #2328]
 1062 037e 9D42     		cmp	r5, r3
 1063 0380 28BF     		it	cs
 1064 0382 1D46     		movcs	r5, r3
 1065              	.LVL114:
 1066 0384 A3B2     		uxth	r3, r4
 1067 0386 B5EB830F 		cmp	r5, r3, lsl #2
 1068 038a 99D9     		bls	.L54
 1069 038c DDE903A8 		ldrd	r10, r8, [sp, #12]
 1070              		.loc 1 499 0
 1071 0390 0024     		movs	r4, #0
 1072              	.LVL115:
 1073              	.L56:
 1074              	.LBE509:
 1075              	.LBE508:
 1076              	.LBB547:
 1077              	.LBB548:
 1078              	.LBB549:
 1079              	.LBB550:
 1080              	.LBB551:
 1081              	.LBB552:
 1082              		.loc 3 546 0
 1083 0392 2023     		movs	r3, #32
ARM GAS  C:\Users\Moi\AppData\Local\Temp\ccOzHcBd.s 			page 20


 1084              		.syntax unified
 1085              	@ 546 "..//ChibiOS//os/ext/CMSIS/include/core_cmFunc.h" 1
 1086 0394 83F31188 		MSR basepri, r3
 1087              	@ 0 "" 2
 1088              	.LVL116:
 1089              		.thumb
 1090              		.syntax unified
 1091              	.LBE552:
 1092              	.LBE551:
 1093              	.LBE550:
 1094              		.loc 4 349 0
 1095 0398 FFF7FEFF 		bl	_stats_start_measure_crit_thd
 1096              	.LVL117:
 1097              		.loc 4 350 0
 1098 039c FFF7FEFF 		bl	_dbg_check_lock
 1099              	.LVL118:
 1100              	.LBE549:
 1101              	.LBE548:
 1102              	.LBE547:
 1103              		.loc 1 1341 0
 1104 03a0 DAF80830 		ldr	r3, [r10, #8]
 1105 03a4 43F00103 		orr	r3, r3, #1
 1106 03a8 CAF80830 		str	r3, [r10, #8]
 1107              		.loc 1 1342 0
 1108 03ac 2CB9     		cbnz	r4, .L52
 1109              	.LVL119:
 1110              	.L55:
 1111              		.loc 1 1343 0
 1112 03ae DAF83438 		ldr	r3, [r10, #2100]
 1113 03b2 43EA0803 		orr	r3, r3, r8
 1114 03b6 CAF83438 		str	r3, [r10, #2100]
 1115              	.L52:
 1116              	.LBB563:
 1117              	.LBB564:
 1118              	.LBB565:
 1119              		.loc 4 360 0
 1120 03ba FFF7FEFF 		bl	_dbg_check_unlock
 1121              	.LVL120:
 1122              		.loc 4 361 0
 1123 03be FFF7FEFF 		bl	_stats_stop_measure_crit_thd
 1124              	.LVL121:
 1125              		.loc 4 367 0
 1126 03c2 3368     		ldr	r3, [r6]
 1127 03c4 B342     		cmp	r3, r6
 1128 03c6 07D0     		beq	.L74
 1129 03c8 B269     		ldr	r2, [r6, #24]
 1130 03ca 9B68     		ldr	r3, [r3, #8]
 1131 03cc 9268     		ldr	r2, [r2, #8]
 1132 03ce 9A42     		cmp	r2, r3
 1133 03d0 02D2     		bcs	.L74
 1134 03d2 2E48     		ldr	r0, .L143
 1135 03d4 FFF7FEFF 		bl	chSysHalt
 1136              	.LVL122:
 1137              	.L74:
 1138              	.LBB566:
 1139              	.LBB567:
 1140              	.LBB568:
ARM GAS  C:\Users\Moi\AppData\Local\Temp\ccOzHcBd.s 			page 21


 1141              		.loc 3 546 0
 1142 03d8 0023     		movs	r3, #0
 1143              		.syntax unified
 1144              	@ 546 "..//ChibiOS//os/ext/CMSIS/include/core_cmFunc.h" 1
 1145 03da 83F31188 		MSR basepri, r3
 1146              	@ 0 "" 2
 1147              	.LVL123:
 1148              		.thumb
 1149              		.syntax unified
 1150 03de B7E6     		b	.L49
 1151              	.LVL124:
 1152              	.L63:
 1153              	.LBE568:
 1154              	.LBE567:
 1155              	.LBE566:
 1156              	.LBE565:
 1157              	.LBE564:
 1158              	.LBE563:
 1159              	.LBB569:
 1160              	.LBB546:
 1161              	.LBB540:
 1162              	.LBB538:
 1163              	.LBB536:
 1164              		.loc 1 292 0
 1165 03e0 002A     		cmp	r2, #0
 1166 03e2 99D0     		beq	.L131
 1167 03e4 0B46     		mov	r3, r1
 1168              	.L59:
 1169 03e6 0021     		movs	r1, #0
 1170 03e8 0846     		mov	r0, r1
 1171              	.L67:
 1172              	.LVL125:
 1173              		.loc 1 299 0
 1174 03ea 5D1C     		adds	r5, r3, #1
 1175 03ec A561     		str	r5, [r4, #24]
 1176 03ee 1B78     		ldrb	r3, [r3]	@ zero_extendqisi2
 1177              		.loc 1 300 0
 1178 03f0 5D45     		cmp	r5, fp
 1179              		.loc 1 299 0
 1180 03f2 03FA01F3 		lsl	r3, r3, r1
 1181 03f6 40EA0300 		orr	r0, r0, r3
 1182              	.LVL126:
 1183              		.loc 1 301 0
 1184 03fa 24BF     		itt	cs
 1185 03fc E368     		ldrcs	r3, [r4, #12]
 1186 03fe A361     		strcs	r3, [r4, #24]
 1187              		.loc 1 298 0
 1188 0400 013A     		subs	r2, r2, #1
 1189              	.LVL127:
 1190 0402 04D0     		beq	.L66
 1191 0404 1829     		cmp	r1, #24
 1192 0406 02D0     		beq	.L66
 1193 0408 0831     		adds	r1, r1, #8
 1194 040a A369     		ldr	r3, [r4, #24]
 1195 040c EDE7     		b	.L67
 1196              	.L66:
 1197              		.loc 1 305 0
ARM GAS  C:\Users\Moi\AppData\Local\Temp\ccOzHcBd.s 			page 22


 1198 040e CCF80000 		str	r0, [ip]
 1199              	.LBE536:
 1200              		.loc 1 274 0
 1201 0412 002A     		cmp	r2, #0
 1202 0414 7FF460AF 		bne	.L68
 1203 0418 7EE7     		b	.L131
 1204              	.LVL128:
 1205              	.L57:
 1206              	.LBE538:
 1207              	.LBE540:
 1208              	.LBB541:
 1209              	.LBB542:
 1210              		.loc 1 256 0
 1211 041a EB1C     		adds	r3, r5, #3
 1212              	.LVL129:
 1213              	.LBB543:
 1214              	.LBB544:
 1215              		.loc 1 233 0
 1216 041c 9B08     		lsrs	r3, r3, #2
 1217              	.LVL130:
 1218 041e 0AD0     		beq	.L71
 1219 0420 04EB8301 		add	r1, r4, r3, lsl #2
 1220 0424 2346     		mov	r3, r4
 1221              	.LVL131:
 1222              	.L72:
 1223              		.loc 1 236 0
 1224 0426 53F8040B 		ldr	r0, [r3], #4
 1225              	.LVL132:
 1226 042a CCF80000 		str	r0, [ip]
 1227              	.LVL133:
 1228              		.loc 1 233 0
 1229 042e 8B42     		cmp	r3, r1
 1230 0430 F9D1     		bne	.L72
 1231 0432 D9F80C10 		ldr	r1, [r9, #12]
 1232              	.LVL134:
 1233              	.L71:
 1234              	.LBE544:
 1235              	.LBE543:
 1236              	.LBE542:
 1237              	.LBE541:
 1238              		.loc 1 516 0
 1239 0436 2C44     		add	r4, r4, r5
 1240 0438 D460     		str	r4, [r2, #12]
 1241 043a 92E7     		b	.L70
 1242              	.LVL135:
 1243              	.L81:
 1244              	.LBB545:
 1245              	.LBB539:
 1246              	.LBB537:
 1247              	.LBB519:
 1248              	.LBB517:
 1249              	.LBB516:
 1250              		.loc 1 233 0
 1251 043c 1946     		mov	r1, r3
 1252 043e 64E7     		b	.L61
 1253              	.LVL136:
 1254              	.L140:
ARM GAS  C:\Users\Moi\AppData\Local\Temp\ccOzHcBd.s 			page 23


 1255 0440 DDE903A8 		ldrd	r10, r8, [sp, #12]
 1256              	.LBE516:
 1257              	.LBE517:
 1258              	.LBE519:
 1259              	.LBE537:
 1260              	.LBE539:
 1261              	.LBE545:
 1262              		.loc 1 489 0
 1263 0444 0124     		movs	r4, #1
 1264 0446 A4E7     		b	.L56
 1265              	.LVL137:
 1266              	.L139:
 1267              	.LBE546:
 1268              	.LBE569:
 1269              	.LBB570:
 1270              	.LBB561:
 1271              	.LBB559:
 1272              	.LBB557:
 1273              	.LBB555:
 1274              	.LBB553:
 1275              		.loc 3 546 0
 1276 0448 2023     		movs	r3, #32
 1277              		.syntax unified
 1278              	@ 546 "..//ChibiOS//os/ext/CMSIS/include/core_cmFunc.h" 1
 1279 044a 83F31188 		MSR basepri, r3
 1280              	@ 0 "" 2
 1281              	.LVL138:
 1282              		.thumb
 1283              		.syntax unified
 1284              	.LBE553:
 1285              	.LBE555:
 1286              	.LBE557:
 1287              		.loc 4 349 0
 1288 044e FFF7FEFF 		bl	_stats_start_measure_crit_thd
 1289              	.LVL139:
 1290              		.loc 4 350 0
 1291 0452 FFF7FEFF 		bl	_dbg_check_lock
 1292              	.LVL140:
 1293              	.LBE559:
 1294              	.LBE561:
 1295              	.LBE570:
 1296              		.loc 1 1341 0
 1297 0456 DAF80830 		ldr	r3, [r10, #8]
 1298 045a 0BF10102 		add	r2, fp, #1
 1299 045e 43F00103 		orr	r3, r3, #1
 1300 0462 0192     		str	r2, [sp, #4]
 1301 0464 CAF80830 		str	r3, [r10, #8]
 1302 0468 A7E7     		b	.L52
 1303              	.LVL141:
 1304              	.L53:
 1305              	.LBB571:
 1306              	.LBB562:
 1307              	.LBB560:
 1308              	.LBB558:
 1309              	.LBB556:
 1310              	.LBB554:
 1311              		.loc 3 546 0
ARM GAS  C:\Users\Moi\AppData\Local\Temp\ccOzHcBd.s 			page 24


 1312 046a 2023     		movs	r3, #32
 1313              		.syntax unified
 1314              	@ 546 "..//ChibiOS//os/ext/CMSIS/include/core_cmFunc.h" 1
 1315 046c 83F31188 		MSR basepri, r3
 1316              	@ 0 "" 2
 1317              	.LVL142:
 1318              		.thumb
 1319              		.syntax unified
 1320              	.LBE554:
 1321              	.LBE556:
 1322              	.LBE558:
 1323              		.loc 4 349 0
 1324 0470 FFF7FEFF 		bl	_stats_start_measure_crit_thd
 1325              	.LVL143:
 1326              		.loc 4 350 0
 1327 0474 FFF7FEFF 		bl	_dbg_check_lock
 1328              	.LVL144:
 1329              	.LBE560:
 1330              	.LBE562:
 1331              	.LBE571:
 1332              		.loc 1 1341 0
 1333 0478 DAF80830 		ldr	r3, [r10, #8]
 1334 047c 0BF10102 		add	r2, fp, #1
 1335 0480 43F00103 		orr	r3, r3, #1
 1336 0484 0192     		str	r2, [sp, #4]
 1337 0486 CAF80830 		str	r3, [r10, #8]
 1338 048a 90E7     		b	.L55
 1339              	.L144:
 1340              		.align	2
 1341              	.L143:
 1342 048c 00000000 		.word	.LANCHOR0
 1343              	.LBE495:
 1344              	.LBE435:
 1345              		.cfi_endproc
 1346              	.LFE292:
 1347              		.size	usb_lld_pump, .-usb_lld_pump
 1348              		.section	.text.usb_lld_init,"ax",%progbits
 1349              		.align	1
 1350              		.p2align 4,,15
 1351              		.global	usb_lld_init
 1352              		.syntax unified
 1353              		.thumb
 1354              		.thumb_func
 1355              		.fpu fpv4-sp-d16
 1356              		.type	usb_lld_init, %function
 1357              	usb_lld_init:
 1358              	.LFB274:
 1359              		.loc 1 744 0
 1360              		.cfi_startproc
 1361              		@ args = 0, pretend = 0, frame = 8
 1362              		@ frame_needed = 0, uses_anonymous_args = 0
 1363 0000 30B5     		push	{r4, r5, lr}
 1364              		.cfi_def_cfa_offset 12
 1365              		.cfi_offset 4, -12
 1366              		.cfi_offset 5, -8
 1367              		.cfi_offset 14, -4
 1368              		.loc 1 748 0
ARM GAS  C:\Users\Moi\AppData\Local\Temp\ccOzHcBd.s 			page 25


 1369 0002 134C     		ldr	r4, .L150
 1370              		.loc 1 744 0
 1371 0004 134D     		ldr	r5, .L150+4
 1372 0006 83B0     		sub	sp, sp, #12
 1373              		.cfi_def_cfa_offset 24
 1374              		.loc 1 744 0
 1375 0008 2B68     		ldr	r3, [r5]
 1376 000a 0193     		str	r3, [sp, #4]
 1377              		.loc 1 748 0
 1378 000c 2046     		mov	r0, r4
 1379 000e FFF7FEFF 		bl	usbObjectInit
 1380              	.LVL145:
 1381              		.loc 1 750 0
 1382 0012 4FF0A043 		mov	r3, #1342177280
 1383              		.loc 1 751 0
 1384 0016 104A     		ldr	r2, .L150+8
 1385              		.loc 1 750 0
 1386 0018 2365     		str	r3, [r4, #80]
 1387              		.loc 1 751 0
 1388 001a 6265     		str	r2, [r4, #84]
 1389              		.loc 1 749 0
 1390 001c 0023     		movs	r3, #0
 1391              	.LBB572:
 1392              		.loc 1 760 0
 1393 001e FF22     		movs	r2, #255
 1394 0020 04F1D001 		add	r1, r4, #208
 1395 0024 04F16800 		add	r0, r4, #104
 1396              	.LBE572:
 1397              		.loc 1 754 0
 1398 0028 C4E91833 		strd	r3, r3, [r4, #96]
 1399              	.LVL146:
 1400              	.LBB573:
 1401              		.loc 1 760 0
 1402 002c FFF7FEFF 		bl	_thread_memfill
 1403              	.LVL147:
 1404              		.loc 1 763 0
 1405 0030 019A     		ldr	r2, [sp, #4]
 1406 0032 2B68     		ldr	r3, [r5]
 1407 0034 9A42     		cmp	r2, r3
 1408 0036 09D1     		bne	.L149
 1409 0038 5522     		movs	r2, #85
 1410 003a 04F51871 		add	r1, r4, #608
 1411 003e 04F1D000 		add	r0, r4, #208
 1412              	.LBE573:
 1413              		.loc 1 794 0
 1414 0042 03B0     		add	sp, sp, #12
 1415              		.cfi_remember_state
 1416              		.cfi_def_cfa_offset 12
 1417              		@ sp needed
 1418 0044 BDE83040 		pop	{r4, r5, lr}
 1419              		.cfi_restore 14
 1420              		.cfi_restore 5
 1421              		.cfi_restore 4
 1422              		.cfi_def_cfa_offset 0
 1423              	.LBB574:
 1424              		.loc 1 763 0
 1425 0048 FFF7FEBF 		b	_thread_memfill
ARM GAS  C:\Users\Moi\AppData\Local\Temp\ccOzHcBd.s 			page 26


 1426              	.LVL148:
 1427              	.L149:
 1428              		.cfi_restore_state
 1429 004c FFF7FEFF 		bl	__stack_chk_fail
 1430              	.LVL149:
 1431              	.L151:
 1432              		.align	2
 1433              	.L150:
 1434 0050 00000000 		.word	.LANCHOR1
 1435 0054 00000000 		.word	__stack_chk_guard
 1436 0058 00000000 		.word	.LANCHOR2
 1437              	.LBE574:
 1438              		.cfi_endproc
 1439              	.LFE274:
 1440              		.size	usb_lld_init, .-usb_lld_init
 1441              		.section	.text.usb_lld_start,"ax",%progbits
 1442              		.align	1
 1443              		.p2align 4,,15
 1444              		.global	usb_lld_start
 1445              		.syntax unified
 1446              		.thumb
 1447              		.thumb_func
 1448              		.fpu fpv4-sp-d16
 1449              		.type	usb_lld_start, %function
 1450              	usb_lld_start:
 1451              	.LFB275:
 1452              		.loc 1 806 0
 1453              		.cfi_startproc
 1454              		@ args = 0, pretend = 0, frame = 8
 1455              		@ frame_needed = 0, uses_anonymous_args = 0
 1456              	.LVL150:
 1457 0000 F0B5     		push	{r4, r5, r6, r7, lr}
 1458              		.cfi_def_cfa_offset 20
 1459              		.cfi_offset 4, -20
 1460              		.cfi_offset 5, -16
 1461              		.cfi_offset 6, -12
 1462              		.cfi_offset 7, -8
 1463              		.cfi_offset 14, -4
 1464              		.loc 1 809 0
 1465 0002 0378     		ldrb	r3, [r0]	@ zero_extendqisi2
 1466              		.loc 1 806 0
 1467 0004 3B4F     		ldr	r7, .L174
 1468 0006 85B0     		sub	sp, sp, #20
 1469              		.cfi_def_cfa_offset 40
 1470              		.loc 1 806 0
 1471 0008 3A68     		ldr	r2, [r7]
 1472 000a 0392     		str	r2, [sp, #12]
 1473              	.LVL151:
 1474              		.loc 1 809 0
 1475 000c 012B     		cmp	r3, #1
 1476 000e 05D0     		beq	.L169
 1477              	.LVL152:
 1478              	.L152:
 1479              		.loc 1 893 0
 1480 0010 039A     		ldr	r2, [sp, #12]
 1481 0012 3B68     		ldr	r3, [r7]
 1482 0014 9A42     		cmp	r2, r3
ARM GAS  C:\Users\Moi\AppData\Local\Temp\ccOzHcBd.s 			page 27


 1483 0016 6AD1     		bne	.L170
 1484 0018 05B0     		add	sp, sp, #20
 1485              		.cfi_remember_state
 1486              		.cfi_def_cfa_offset 20
 1487              		@ sp needed
 1488 001a F0BD     		pop	{r4, r5, r6, r7, pc}
 1489              	.LVL153:
 1490              	.L169:
 1491              		.cfi_restore_state
 1492              		.loc 1 812 0
 1493 001c 364B     		ldr	r3, .L174+4
 1494              		.loc 1 807 0
 1495 001e 056D     		ldr	r5, [r0, #80]
 1496              		.loc 1 812 0
 1497 0020 9842     		cmp	r0, r3
 1498 0022 0646     		mov	r6, r0
 1499 0024 3AD0     		beq	.L171
 1500              		.loc 1 807 0
 1501 0026 2C46     		mov	r4, r5
 1502              	.LVL154:
 1503              	.L154:
 1504              		.loc 1 836 0
 1505 0028 0023     		movs	r3, #0
 1506              		.loc 1 841 0
 1507 002a 344A     		ldr	r2, .L174+8
 1508              		.loc 1 836 0
 1509 002c F365     		str	r3, [r6, #92]
 1510              		.loc 1 844 0
 1511 002e 3449     		ldr	r1, .L174+12
 1512              		.loc 1 841 0
 1513 0030 EA60     		str	r2, [r5, #12]
 1514              		.loc 1 854 0
 1515 0032 4FF45022 		mov	r2, #851968
 1516              		.loc 1 844 0
 1517 0036 C5F80018 		str	r1, [r5, #2048]
 1518              	.LBB583:
 1519              	.LBB584:
 1520              	.LBB585:
 1521              	.LBB586:
 1522              		.loc 5 527 0
 1523 003a 2020     		movs	r0, #32
 1524              	.LBE586:
 1525              	.LBE585:
 1526              	.LBE584:
 1527              	.LBE583:
 1528              		.loc 1 847 0
 1529 003c C5F8003E 		str	r3, [r5, #3584]
 1530              		.loc 1 854 0
 1531 0040 AA63     		str	r2, [r5, #56]
 1532              	.LVL155:
 1533              	.LBB592:
 1534              	.LBB591:
 1535              	.LBB588:
 1536              	.LBB587:
 1537              		.loc 5 527 0
 1538 0042 FFF7FEFF 		bl	chSysPolledDelayX
 1539              	.LVL156:
ARM GAS  C:\Users\Moi\AppData\Local\Temp\ccOzHcBd.s 			page 28


 1540              	.LBE587:
 1541              	.LBE588:
 1542              		.loc 1 121 0
 1543 0046 0123     		movs	r3, #1
 1544 0048 2361     		str	r3, [r4, #16]
 1545              	.L155:
 1546              		.loc 1 122 0
 1547 004a 2369     		ldr	r3, [r4, #16]
 1548 004c DB07     		lsls	r3, r3, #31
 1549 004e FCD4     		bmi	.L155
 1550              	.LVL157:
 1551              	.LBB589:
 1552              	.LBB590:
 1553              		.loc 5 527 0
 1554 0050 0C20     		movs	r0, #12
 1555 0052 FFF7FEFF 		bl	chSysPolledDelayX
 1556              	.LVL158:
 1557              	.L156:
 1558              	.LBE590:
 1559              	.LBE589:
 1560              		.loc 1 128 0
 1561 0056 2369     		ldr	r3, [r4, #16]
 1562 0058 002B     		cmp	r3, #0
 1563 005a FCDA     		bge	.L156
 1564              	.LBE591:
 1565              	.LBE592:
 1566              		.loc 1 861 0
 1567 005c 0024     		movs	r4, #0
 1568 005e AC60     		str	r4, [r5, #8]
 1569              		.loc 1 864 0
 1570 0060 D6E91401 		ldrd	r0, r1, [r6, #80]
 1571 0064 FFF7FEFF 		bl	otg_disable_ep.isra.0
 1572              	.LVL159:
 1573              		.loc 1 871 0
 1574 0068 7368     		ldr	r3, [r6, #4]
 1575              		.loc 1 868 0
 1576 006a C5F81048 		str	r4, [r5, #2064]
 1577              		.loc 1 871 0
 1578 006e DB68     		ldr	r3, [r3, #12]
 1579              		.loc 1 869 0
 1580 0070 C5F81448 		str	r4, [r5, #2068]
 1581              		.loc 1 870 0
 1582 0074 C5F81C48 		str	r4, [r5, #2076]
 1583              		.loc 1 871 0
 1584 0078 63B1     		cbz	r3, .L172
 1585              		.loc 1 875 0
 1586 007a 43F20803 		movw	r3, #12296
 1587 007e AB61     		str	r3, [r5, #24]
 1588              	.L158:
 1589              		.loc 1 881 0
 1590 0080 736E     		ldr	r3, [r6, #100]
 1591              		.loc 1 877 0
 1592 0082 4FF0FF32 		mov	r2, #-1
 1593 0086 6A61     		str	r2, [r5, #20]
 1594              		.loc 1 881 0
 1595 0088 CBB1     		cbz	r3, .L173
 1596              	.L159:
ARM GAS  C:\Users\Moi\AppData\Local\Temp\ccOzHcBd.s 			page 29


 1597              		.loc 1 891 0
 1598 008a AB68     		ldr	r3, [r5, #8]
 1599 008c 43F00103 		orr	r3, r3, #1
 1600 0090 AB60     		str	r3, [r5, #8]
 1601              		.loc 1 893 0
 1602 0092 BDE7     		b	.L152
 1603              	.L172:
 1604              		.loc 1 872 0
 1605 0094 4FF44053 		mov	r3, #12288
 1606 0098 AB61     		str	r3, [r5, #24]
 1607 009a F1E7     		b	.L158
 1608              	.LVL160:
 1609              	.L171:
 1610              		.loc 1 814 0
 1611 009c 194B     		ldr	r3, .L174+16
 1612 009e 5A6B     		ldr	r2, [r3, #52]
 1613 00a0 42F08002 		orr	r2, r2, #128
 1614 00a4 5A63     		str	r2, [r3, #52]
 1615              		.loc 1 815 0
 1616 00a6 5A69     		ldr	r2, [r3, #20]
 1617 00a8 0021     		movs	r1, #0
 1618 00aa 42F08002 		orr	r2, r2, #128
 1619 00ae 5A61     		str	r2, [r3, #20]
 1620              		.loc 1 818 0
 1621 00b0 4320     		movs	r0, #67
 1622              	.LVL161:
 1623              		.loc 1 815 0
 1624 00b2 5961     		str	r1, [r3, #20]
 1625              		.loc 1 818 0
 1626 00b4 0E21     		movs	r1, #14
 1627 00b6 FFF7FEFF 		bl	nvicEnableVector
 1628              	.LVL162:
 1629 00ba 346D     		ldr	r4, [r6, #80]
 1630 00bc B4E7     		b	.L154
 1631              	.LVL163:
 1632              	.L173:
 1633              		.loc 1 882 0
 1634 00be 124B     		ldr	r3, .L174+20
 1635 00c0 0096     		str	r6, [sp]
 1636 00c2 4A22     		movs	r2, #74
 1637 00c4 4FF4FC71 		mov	r1, #504
 1638 00c8 06F16800 		add	r0, r6, #104
 1639 00cc FFF7FEFF 		bl	chThdCreateI
 1640              	.LVL164:
 1641 00d0 7066     		str	r0, [r6, #100]
 1642              	.LVL165:
 1643              	.LBB593:
 1644              	.LBB594:
 1645              		.file 6 "..//ChibiOS//os/rt/include/chthreads.h"
 1646              		.loc 6 247 0
 1647 00d2 90F82030 		ldrb	r3, [r0, #32]	@ zero_extendqisi2
 1648 00d6 022B     		cmp	r3, #2
 1649              	.LBE594:
 1650              	.LBE593:
 1651              		.loc 1 882 0
 1652 00d8 0446     		mov	r4, r0
 1653              	.LBB596:
ARM GAS  C:\Users\Moi\AppData\Local\Temp\ccOzHcBd.s 			page 30


 1654              	.LBB595:
 1655              		.loc 6 247 0
 1656 00da 02D0     		beq	.L160
 1657 00dc 0B48     		ldr	r0, .L174+24
 1658              	.LVL166:
 1659 00de FFF7FEFF 		bl	chSysHalt
 1660              	.LVL167:
 1661              	.L160:
 1662              		.loc 6 249 0
 1663 00e2 2046     		mov	r0, r4
 1664 00e4 FFF7FEFF 		bl	chSchReadyI
 1665              	.LVL168:
 1666              	.LBE595:
 1667              	.LBE596:
 1668              		.loc 1 886 0
 1669 00e8 FFF7FEFF 		bl	chSchRescheduleS
 1670              	.LVL169:
 1671 00ec CDE7     		b	.L159
 1672              	.LVL170:
 1673              	.L170:
 1674              		.loc 1 893 0
 1675 00ee FFF7FEFF 		bl	__stack_chk_fail
 1676              	.LVL171:
 1677              	.L175:
 1678 00f2 00BF     		.align	2
 1679              	.L174:
 1680 00f4 00000000 		.word	__stack_chk_guard
 1681 00f8 00000000 		.word	.LANCHOR1
 1682 00fc 40140040 		.word	1073747008
 1683 0100 03002002 		.word	35651587
 1684 0104 00380240 		.word	1073887232
 1685 0108 00000000 		.word	usb_lld_pump
 1686 010c 00000000 		.word	.LANCHOR3
 1687              		.cfi_endproc
 1688              	.LFE275:
 1689              		.size	usb_lld_start, .-usb_lld_start
 1690              		.section	.text.usb_lld_stop,"ax",%progbits
 1691              		.align	1
 1692              		.p2align 4,,15
 1693              		.global	usb_lld_stop
 1694              		.syntax unified
 1695              		.thumb
 1696              		.thumb_func
 1697              		.fpu fpv4-sp-d16
 1698              		.type	usb_lld_stop, %function
 1699              	usb_lld_stop:
 1700              	.LFB276:
 1701              		.loc 1 902 0
 1702              		.cfi_startproc
 1703              		@ args = 0, pretend = 0, frame = 8
 1704              		@ frame_needed = 0, uses_anonymous_args = 0
 1705              	.LVL172:
 1706 0000 70B5     		push	{r4, r5, r6, lr}
 1707              		.cfi_def_cfa_offset 16
 1708              		.cfi_offset 4, -16
 1709              		.cfi_offset 5, -12
 1710              		.cfi_offset 6, -8
ARM GAS  C:\Users\Moi\AppData\Local\Temp\ccOzHcBd.s 			page 31


 1711              		.cfi_offset 14, -4
 1712              		.loc 1 906 0
 1713 0002 0378     		ldrb	r3, [r0]	@ zero_extendqisi2
 1714              		.loc 1 902 0
 1715 0004 124D     		ldr	r5, .L184
 1716 0006 82B0     		sub	sp, sp, #8
 1717              		.cfi_def_cfa_offset 24
 1718              		.loc 1 902 0
 1719 0008 2A68     		ldr	r2, [r5]
 1720 000a 0192     		str	r2, [sp, #4]
 1721              	.LVL173:
 1722              		.loc 1 906 0
 1723 000c 012B     		cmp	r3, #1
 1724 000e 0ED0     		beq	.L176
 1725              		.loc 1 910 0
 1726 0010 D0E91461 		ldrd	r6, r1, [r0, #80]
 1727 0014 0446     		mov	r4, r0
 1728 0016 3046     		mov	r0, r6
 1729              	.LVL174:
 1730 0018 FFF7FEFF 		bl	otg_disable_ep.isra.0
 1731              	.LVL175:
 1732              		.loc 1 919 0
 1733 001c 0D4A     		ldr	r2, .L184+4
 1734              		.loc 1 912 0
 1735 001e 0023     		movs	r3, #0
 1736              		.loc 1 919 0
 1737 0020 9442     		cmp	r4, r2
 1738              		.loc 1 912 0
 1739 0022 E365     		str	r3, [r4, #92]
 1740              		.loc 1 914 0
 1741 0024 C6F81C38 		str	r3, [r6, #2076]
 1742              		.loc 1 915 0
 1743 0028 B360     		str	r3, [r6, #8]
 1744              		.loc 1 916 0
 1745 002a B363     		str	r3, [r6, #56]
 1746              		.loc 1 919 0
 1747 002c 05D0     		beq	.L182
 1748              	.LVL176:
 1749              	.L176:
 1750              		.loc 1 932 0
 1751 002e 019A     		ldr	r2, [sp, #4]
 1752 0030 2B68     		ldr	r3, [r5]
 1753 0032 9A42     		cmp	r2, r3
 1754 0034 0AD1     		bne	.L183
 1755 0036 02B0     		add	sp, sp, #8
 1756              		.cfi_remember_state
 1757              		.cfi_def_cfa_offset 16
 1758              		@ sp needed
 1759 0038 70BD     		pop	{r4, r5, r6, pc}
 1760              	.LVL177:
 1761              	.L182:
 1762              		.cfi_restore_state
 1763              		.loc 1 920 0
 1764 003a 4320     		movs	r0, #67
 1765 003c FFF7FEFF 		bl	nvicDisableVector
 1766              	.LVL178:
 1767              		.loc 1 921 0
ARM GAS  C:\Users\Moi\AppData\Local\Temp\ccOzHcBd.s 			page 32


 1768 0040 054A     		ldr	r2, .L184+8
 1769 0042 536B     		ldr	r3, [r2, #52]
 1770 0044 23F08003 		bic	r3, r3, #128
 1771 0048 5363     		str	r3, [r2, #52]
 1772              		.loc 1 932 0
 1773 004a F0E7     		b	.L176
 1774              	.LVL179:
 1775              	.L183:
 1776 004c FFF7FEFF 		bl	__stack_chk_fail
 1777              	.LVL180:
 1778              	.L185:
 1779              		.align	2
 1780              	.L184:
 1781 0050 00000000 		.word	__stack_chk_guard
 1782 0054 00000000 		.word	.LANCHOR1
 1783 0058 00380240 		.word	1073887232
 1784              		.cfi_endproc
 1785              	.LFE276:
 1786              		.size	usb_lld_stop, .-usb_lld_stop
 1787              		.section	.text.usb_lld_reset,"ax",%progbits
 1788              		.align	1
 1789              		.p2align 4,,15
 1790              		.global	usb_lld_reset
 1791              		.syntax unified
 1792              		.thumb
 1793              		.thumb_func
 1794              		.fpu fpv4-sp-d16
 1795              		.type	usb_lld_reset, %function
 1796              	usb_lld_reset:
 1797              	.LFB277:
 1798              		.loc 1 941 0
 1799              		.cfi_startproc
 1800              		@ args = 0, pretend = 0, frame = 8
 1801              		@ frame_needed = 0, uses_anonymous_args = 0
 1802              	.LVL181:
 1803 0000 F0B5     		push	{r4, r5, r6, r7, lr}
 1804              		.cfi_def_cfa_offset 20
 1805              		.cfi_offset 4, -20
 1806              		.cfi_offset 5, -16
 1807              		.cfi_offset 6, -12
 1808              		.cfi_offset 7, -8
 1809              		.cfi_offset 14, -4
 1810 0002 374E     		ldr	r6, .L197
 1811              		.loc 1 943 0
 1812 0004 056D     		ldr	r5, [r0, #80]
 1813              	.LVL182:
 1814              		.loc 1 941 0
 1815 0006 3368     		ldr	r3, [r6]
 1816 0008 83B0     		sub	sp, sp, #12
 1817              		.cfi_def_cfa_offset 32
 1818              		.loc 1 941 0
 1819 000a 0746     		mov	r7, r0
 1820              	.LVL183:
 1821 000c 0193     		str	r3, [sp, #4]
 1822              	.LBB597:
 1823              	.LBB598:
 1824              		.loc 1 182 0
ARM GAS  C:\Users\Moi\AppData\Local\Temp\ccOzHcBd.s 			page 33


 1825 000e 2023     		movs	r3, #32
 1826 0010 2B61     		str	r3, [r5, #16]
 1827              	.L187:
 1828              		.loc 1 183 0
 1829 0012 2C69     		ldr	r4, [r5, #16]
 1830 0014 14F02004 		ands	r4, r4, #32
 1831 0018 FBD1     		bne	.L187
 1832              	.LVL184:
 1833              	.LBB599:
 1834              	.LBB600:
 1835              		.loc 5 527 0
 1836 001a 0C20     		movs	r0, #12
 1837              	.LVL185:
 1838 001c FFF7FEFF 		bl	chSysPolledDelayX
 1839              	.LVL186:
 1840              	.LBE600:
 1841              	.LBE599:
 1842              	.LBE598:
 1843              	.LBE597:
 1844              		.loc 1 949 0
 1845 0020 D7F854C0 		ldr	ip, [r7, #84]
 1846 0024 DCF80820 		ldr	r2, [ip, #8]
 1847 0028 2346     		mov	r3, r4
 1848              		.loc 1 950 0
 1849 002a 4FF00060 		mov	r0, #134217728
 1850 002e 541C     		adds	r4, r2, #1
 1851              		.loc 1 952 0
 1852 0030 FF21     		movs	r1, #255
 1853              	.LVL187:
 1854              	.L188:
 1855 0032 05EB4312 		add	r2, r5, r3, lsl #5
 1856              		.loc 1 949 0 discriminator 3
 1857 0036 0133     		adds	r3, r3, #1
 1858              	.LVL188:
 1859 0038 9C42     		cmp	r4, r3
 1860              		.loc 1 950 0 discriminator 3
 1861 003a C2F80009 		str	r0, [r2, #2304]
 1862              		.loc 1 951 0 discriminator 3
 1863 003e C2F8000B 		str	r0, [r2, #2816]
 1864              		.loc 1 952 0 discriminator 3
 1865 0042 C2F80819 		str	r1, [r2, #2312]
 1866              		.loc 1 953 0 discriminator 3
 1867 0046 C2F8081B 		str	r1, [r2, #2824]
 1868              		.loc 1 949 0 discriminator 3
 1869 004a F2D1     		bne	.L188
 1870              		.loc 1 957 0
 1871 004c 4FF0FF33 		mov	r3, #-1
 1872              	.LVL189:
 1873 0050 C5F81838 		str	r3, [r5, #2072]
 1874              		.loc 1 958 0
 1875 0054 4FF00112 		mov	r2, #65537
 1876              	.LBB601:
 1877              	.LBB602:
 1878              		.loc 1 198 0
 1879 0058 DCF80030 		ldr	r3, [ip]
 1880              	.LBE602:
 1881              	.LBE601:
ARM GAS  C:\Users\Moi\AppData\Local\Temp\ccOzHcBd.s 			page 34


 1882              		.loc 1 958 0
 1883 005c C5F81C28 		str	r2, [r5, #2076]
 1884              	.LVL190:
 1885              	.LBB604:
 1886              	.LBB603:
 1887              		.loc 1 198 0
 1888 0060 BB65     		str	r3, [r7, #88]
 1889              	.LBE603:
 1890              	.LBE604:
 1891              		.loc 1 964 0
 1892 0062 DCF80030 		ldr	r3, [ip]
 1893 0066 3A6D     		ldr	r2, [r7, #80]
 1894              	.LVL191:
 1895 0068 6B62     		str	r3, [r5, #36]
 1896              	.LBB605:
 1897              	.LBB606:
 1898              		.loc 1 172 0
 1899 006a 1023     		movs	r3, #16
 1900 006c 1361     		str	r3, [r2, #16]
 1901              	.L189:
 1902              		.loc 1 173 0
 1903 006e 1469     		ldr	r4, [r2, #16]
 1904 0070 14F01004 		ands	r4, r4, #16
 1905 0074 FBD1     		bne	.L189
 1906              	.LVL192:
 1907              	.LBB607:
 1908              	.LBB608:
 1909              		.loc 5 527 0
 1910 0076 0C20     		movs	r0, #12
 1911 0078 FFF7FEFF 		bl	chSysPolledDelayX
 1912              	.LVL193:
 1913              	.LBE608:
 1914              	.LBE607:
 1915              	.LBE606:
 1916              	.LBE605:
 1917              		.loc 1 968 0
 1918 007c D5F80038 		ldr	r3, [r5, #2048]
 1919              		.loc 1 976 0
 1920 0080 184A     		ldr	r2, .L197+4
 1921              		.loc 1 968 0
 1922 0082 23F4FE63 		bic	r3, r3, #2032
 1923 0086 C5F80038 		str	r3, [r5, #2048]
 1924              		.loc 1 971 0
 1925 008a AB69     		ldr	r3, [r5, #24]
 1926 008c 43F44023 		orr	r3, r3, #786432
 1927 0090 43F01003 		orr	r3, r3, #16
 1928 0094 AB61     		str	r3, [r5, #24]
 1929              		.loc 1 972 0
 1930 0096 0923     		movs	r3, #9
 1931 0098 C5F81038 		str	r3, [r5, #2064]
 1932              		.loc 1 973 0
 1933 009c C5F81438 		str	r3, [r5, #2068]
 1934              		.loc 1 978 0
 1935 00a0 114B     		ldr	r3, .L197+8
 1936              		.loc 1 976 0
 1937 00a2 FA60     		str	r2, [r7, #12]
 1938              		.loc 1 977 0
ARM GAS  C:\Users\Moi\AppData\Local\Temp\ccOzHcBd.s 			page 35


 1939 00a4 C5F8104B 		str	r4, [r5, #2832]
 1940              		.loc 1 978 0
 1941 00a8 C5F8003B 		str	r3, [r5, #2816]
 1942              		.loc 1 980 0
 1943 00ac C5F81049 		str	r4, [r5, #2320]
 1944              		.loc 1 981 0
 1945 00b0 C5F80039 		str	r3, [r5, #2304]
 1946 00b4 D7E91524 		ldrd	r2, r4, [r7, #84]
 1947              	.LVL194:
 1948              	.LBB609:
 1949              	.LBB610:
 1950              		.loc 1 213 0
 1951 00b8 04F11003 		add	r3, r4, #16
 1952 00bc BB65     		str	r3, [r7, #88]
 1953              		.loc 1 214 0
 1954 00be 5268     		ldr	r2, [r2, #4]
 1955 00c0 9342     		cmp	r3, r2
 1956 00c2 02D9     		bls	.L190
 1957 00c4 0948     		ldr	r0, .L197+12
 1958 00c6 FFF7FEFF 		bl	chSysHalt
 1959              	.LVL195:
 1960              	.L190:
 1961              	.LBE610:
 1962              	.LBE609:
 1963              		.loc 1 983 0
 1964 00ca 44F48014 		orr	r4, r4, #1048576
 1965 00ce AC62     		str	r4, [r5, #40]
 1966              		.loc 1 986 0
 1967 00d0 019A     		ldr	r2, [sp, #4]
 1968 00d2 3368     		ldr	r3, [r6]
 1969 00d4 9A42     		cmp	r2, r3
 1970 00d6 01D1     		bne	.L196
 1971 00d8 03B0     		add	sp, sp, #12
 1972              		.cfi_remember_state
 1973              		.cfi_def_cfa_offset 20
 1974              		@ sp needed
 1975 00da F0BD     		pop	{r4, r5, r6, r7, pc}
 1976              	.LVL196:
 1977              	.L196:
 1978              		.cfi_restore_state
 1979 00dc FFF7FEFF 		bl	__stack_chk_fail
 1980              	.LVL197:
 1981              	.L198:
 1982              		.align	2
 1983              	.L197:
 1984 00e0 00000000 		.word	__stack_chk_guard
 1985 00e4 00000000 		.word	.LANCHOR4
 1986 00e8 40800010 		.word	268468288
 1987 00ec 00000000 		.word	.LANCHOR5
 1988              		.cfi_endproc
 1989              	.LFE277:
 1990              		.size	usb_lld_reset, .-usb_lld_reset
 1991              		.section	.text.usb_lld_set_address,"ax",%progbits
 1992              		.align	1
 1993              		.p2align 4,,15
 1994              		.global	usb_lld_set_address
 1995              		.syntax unified
ARM GAS  C:\Users\Moi\AppData\Local\Temp\ccOzHcBd.s 			page 36


 1996              		.thumb
 1997              		.thumb_func
 1998              		.fpu fpv4-sp-d16
 1999              		.type	usb_lld_set_address, %function
 2000              	usb_lld_set_address:
 2001              	.LFB278:
 2002              		.loc 1 995 0
 2003              		.cfi_startproc
 2004              		@ args = 0, pretend = 0, frame = 8
 2005              		@ frame_needed = 0, uses_anonymous_args = 0
 2006              	.LVL198:
 2007 0000 00B5     		push	{lr}
 2008              		.cfi_def_cfa_offset 4
 2009              		.cfi_offset 14, -4
 2010 0002 0C4A     		ldr	r2, .L203
 2011              		.loc 1 996 0
 2012 0004 016D     		ldr	r1, [r0, #80]
 2013              	.LVL199:
 2014              		.loc 1 995 0
 2015 0006 1368     		ldr	r3, [r2]
 2016              		.loc 1 998 0
 2017 0008 90F84E00 		ldrb	r0, [r0, #78]	@ zero_extendqisi2
 2018              	.LVL200:
 2019              		.loc 1 995 0
 2020 000c 83B0     		sub	sp, sp, #12
 2021              		.cfi_def_cfa_offset 16
 2022              		.loc 1 995 0
 2023 000e 0193     		str	r3, [sp, #4]
 2024              		.loc 1 998 0
 2025 0010 D1F80038 		ldr	r3, [r1, #2048]
 2026 0014 23F4FE63 		bic	r3, r3, #2032
 2027 0018 43EA0013 		orr	r3, r3, r0, lsl #4
 2028 001c C1F80038 		str	r3, [r1, #2048]
 2029              		.loc 1 999 0
 2030 0020 0199     		ldr	r1, [sp, #4]
 2031              	.LVL201:
 2032 0022 1368     		ldr	r3, [r2]
 2033 0024 9942     		cmp	r1, r3
 2034 0026 02D1     		bne	.L202
 2035 0028 03B0     		add	sp, sp, #12
 2036              		.cfi_remember_state
 2037              		.cfi_def_cfa_offset 4
 2038              		@ sp needed
 2039 002a 5DF804FB 		ldr	pc, [sp], #4
 2040              	.L202:
 2041              		.cfi_restore_state
 2042 002e FFF7FEFF 		bl	__stack_chk_fail
 2043              	.LVL202:
 2044              	.L204:
 2045 0032 00BF     		.align	2
 2046              	.L203:
 2047 0034 00000000 		.word	__stack_chk_guard
 2048              		.cfi_endproc
 2049              	.LFE278:
 2050              		.size	usb_lld_set_address, .-usb_lld_set_address
 2051              		.section	.text.usb_lld_init_endpoint,"ax",%progbits
 2052              		.align	1
ARM GAS  C:\Users\Moi\AppData\Local\Temp\ccOzHcBd.s 			page 37


 2053              		.p2align 4,,15
 2054              		.global	usb_lld_init_endpoint
 2055              		.syntax unified
 2056              		.thumb
 2057              		.thumb_func
 2058              		.fpu fpv4-sp-d16
 2059              		.type	usb_lld_init_endpoint, %function
 2060              	usb_lld_init_endpoint:
 2061              	.LFB279:
 2062              		.loc 1 1009 0
 2063              		.cfi_startproc
 2064              		@ args = 0, pretend = 0, frame = 16
 2065              		@ frame_needed = 0, uses_anonymous_args = 0
 2066              	.LVL203:
 2067 0000 2DE9F04F 		push	{r4, r5, r6, r7, r8, r9, r10, fp, lr}
 2068              		.cfi_def_cfa_offset 36
 2069              		.cfi_offset 4, -36
 2070              		.cfi_offset 5, -32
 2071              		.cfi_offset 6, -28
 2072              		.cfi_offset 7, -24
 2073              		.cfi_offset 8, -20
 2074              		.cfi_offset 9, -16
 2075              		.cfi_offset 10, -12
 2076              		.cfi_offset 11, -8
 2077              		.cfi_offset 14, -4
 2078 0004 0EB2     		sxth	r6, r1
 2079 0006 00EB8609 		add	r9, r0, r6, lsl #2
 2080 000a DFF88481 		ldr	r8, .L225+16
 2081              		.loc 1 1014 0
 2082 000e D9F80C30 		ldr	r3, [r9, #12]
 2083 0012 1A68     		ldr	r2, [r3]
 2084              		.loc 1 1009 0
 2085 0014 85B0     		sub	sp, sp, #20
 2086              		.cfi_def_cfa_offset 56
 2087              		.loc 1 1014 0
 2088 0016 02F00302 		and	r2, r2, #3
 2089              		.loc 1 1009 0
 2090 001a 0D46     		mov	r5, r1
 2091              		.loc 1 1014 0
 2092 001c 022A     		cmp	r2, #2
 2093              		.loc 1 1009 0
 2094 001e D8F80010 		ldr	r1, [r8]
 2095              	.LVL204:
 2096 0022 0391     		str	r1, [sp, #12]
 2097 0024 0746     		mov	r7, r0
 2098              	.LVL205:
 2099              		.loc 1 1014 0
 2100 0026 00F09E80 		beq	.L207
 2101 002a 032A     		cmp	r2, #3
 2102 002c 00F09880 		beq	.L208
 2103              		.loc 1 1016 0
 2104 0030 5348     		ldr	r0, .L225
 2105              	.LVL206:
 2106 0032 5449     		ldr	r1, .L225+4
 2107 0034 012A     		cmp	r2, #1
 2108 0036 0CBF     		ite	eq
 2109 0038 8346     		moveq	fp, r0
ARM GAS  C:\Users\Moi\AppData\Local\Temp\ccOzHcBd.s 			page 38


 2110 003a 8B46     		movne	fp, r1
 2111              	.L209:
 2112              		.loc 1 1011 0
 2113 003c 3C6D     		ldr	r4, [r7, #80]
 2114              	.LVL207:
 2115              		.loc 1 1033 0
 2116 003e D868     		ldr	r0, [r3, #12]
 2117              		.loc 1 1032 0
 2118 0040 6A01     		lsls	r2, r5, #5
 2119 0042 A118     		adds	r1, r4, r2
 2120 0044 4FF0000C 		mov	ip, #0
 2121 0048 C1F810CB 		str	ip, [r1, #2832]
 2122 004c 05F11001 		add	r1, r5, #16
 2123 0050 4FF0010C 		mov	ip, #1
 2124 0054 0CFA01F1 		lsl	r1, ip, r1
 2125              		.loc 1 1033 0
 2126 0058 0028     		cmp	r0, #0
 2127 005a 72D0     		beq	.L210
 2128              		.loc 1 1034 0
 2129 005c B3F812C0 		ldrh	ip, [r3, #18]
 2130 0060 05F15800 		add	r0, r5, #88
 2131 0064 4001     		lsls	r0, r0, #5
 2132 0066 4CEA0B0C 		orr	ip, ip, fp
 2133 006a 44F800C0 		str	ip, [r4, r0]
 2134              		.loc 1 1035 0
 2135 006e D4F81C08 		ldr	r0, [r4, #2076]
 2136 0072 0143     		orrs	r1, r1, r0
 2137 0074 C4F81C18 		str	r1, [r4, #2076]
 2138              	.L211:
 2139              		.loc 1 1043 0
 2140 0078 2244     		add	r2, r2, r4
 2141              		.loc 1 1044 0
 2142 007a 9968     		ldr	r1, [r3, #8]
 2143              		.loc 1 1043 0
 2144 007c 0020     		movs	r0, #0
 2145 007e 4FEA851A 		lsl	r10, r5, #6
 2146 0082 C2F81009 		str	r0, [r2, #2320]
 2147 0086 4AF0200A 		orr	r10, r10, #32
 2148 008a 6A1E     		subs	r2, r5, #1
 2149              		.loc 1 1044 0
 2150 008c 0029     		cmp	r1, #0
 2151 008e 37D0     		beq	.L212
 2152              		.loc 1 1046 0
 2153 0090 1E8A     		ldrh	r6, [r3, #16]
 2154              		.loc 1 1047 0
 2155 0092 9B8B     		ldrh	r3, [r3, #28]
 2156              		.loc 1 1046 0
 2157 0094 B608     		lsrs	r6, r6, #2
 2158              	.LVL208:
 2159              		.loc 1 1047 0
 2160 0096 012B     		cmp	r3, #1
 2161              		.loc 1 1048 0
 2162 0098 88BF     		it	hi
 2163 009a 5E43     		mulhi	r6, r3, r6
 2164              	.LVL209:
 2165 009c D7E91513 		ldrd	r1, r3, [r7, #84]
 2166              	.LVL210:
ARM GAS  C:\Users\Moi\AppData\Local\Temp\ccOzHcBd.s 			page 39


 2167              	.LBB611:
 2168              	.LBB612:
 2169              		.loc 1 213 0
 2170 00a0 F018     		adds	r0, r6, r3
 2171 00a2 B865     		str	r0, [r7, #88]
 2172              		.loc 1 214 0
 2173 00a4 4968     		ldr	r1, [r1, #4]
 2174 00a6 8842     		cmp	r0, r1
 2175              	.LBE612:
 2176              	.LBE611:
 2177              		.loc 1 1049 0
 2178 00a8 4FEA0646 		lsl	r6, r6, #16
 2179              	.LVL211:
 2180              	.LBB615:
 2181              	.LBB613:
 2182              		.loc 1 214 0
 2183 00ac 5ED8     		bhi	.L223
 2184              	.LVL212:
 2185              	.L214:
 2186              	.LBE613:
 2187              	.LBE615:
 2188              		.loc 1 1049 0
 2189 00ae 4032     		adds	r2, r2, #64
 2190 00b0 396D     		ldr	r1, [r7, #80]
 2191              	.LVL213:
 2192 00b2 04EB8202 		add	r2, r4, r2, lsl #2
 2193 00b6 1E43     		orrs	r6, r6, r3
 2194 00b8 5660     		str	r6, [r2, #4]
 2195              	.LBB616:
 2196              	.LBB617:
 2197              		.loc 1 182 0
 2198 00ba C1F810A0 		str	r10, [r1, #16]
 2199              	.L215:
 2200              		.loc 1 183 0
 2201 00be 0B69     		ldr	r3, [r1, #16]
 2202 00c0 9A06     		lsls	r2, r3, #26
 2203 00c2 FCD4     		bmi	.L215
 2204              	.LVL214:
 2205              	.LBB618:
 2206              	.LBB619:
 2207              		.loc 5 527 0
 2208 00c4 0C20     		movs	r0, #12
 2209 00c6 FFF7FEFF 		bl	chSysPolledDelayX
 2210              	.LVL215:
 2211              	.LBE619:
 2212              	.LBE618:
 2213              	.LBE617:
 2214              	.LBE616:
 2215              		.loc 1 1055 0
 2216 00ca D9F80C30 		ldr	r3, [r9, #12]
 2217 00ce 1A8A     		ldrh	r2, [r3, #16]
 2218              		.loc 1 1053 0
 2219 00d0 05F14803 		add	r3, r5, #72
 2220              		.loc 1 1054 0
 2221 00d4 42EA8552 		orr	r2, r2, r5, lsl #22
 2222              		.loc 1 1053 0
 2223 00d8 5B01     		lsls	r3, r3, #5
ARM GAS  C:\Users\Moi\AppData\Local\Temp\ccOzHcBd.s 			page 40


 2224              		.loc 1 1054 0
 2225 00da 42EA0B02 		orr	r2, r2, fp
 2226              		.loc 1 1053 0
 2227 00de E250     		str	r2, [r4, r3]
 2228              		.loc 1 1056 0
 2229 00e0 0121     		movs	r1, #1
 2230 00e2 D4F81C38 		ldr	r3, [r4, #2076]
 2231 00e6 01FA05F5 		lsl	r5, r1, r5
 2232 00ea 1D43     		orrs	r5, r5, r3
 2233 00ec C4F81C58 		str	r5, [r4, #2076]
 2234              	.LVL216:
 2235              	.L205:
 2236              		.loc 1 1064 0
 2237 00f0 039A     		ldr	r2, [sp, #12]
 2238 00f2 D8F80030 		ldr	r3, [r8]
 2239 00f6 9A42     		cmp	r2, r3
 2240 00f8 40D1     		bne	.L224
 2241 00fa 05B0     		add	sp, sp, #20
 2242              		.cfi_remember_state
 2243              		.cfi_def_cfa_offset 36
 2244              		@ sp needed
 2245 00fc BDE8F08F 		pop	{r4, r5, r6, r7, r8, r9, r10, fp, pc}
 2246              	.LVL217:
 2247              	.L212:
 2248              		.cfi_restore_state
 2249              		.loc 1 1059 0
 2250 0100 05F13F03 		add	r3, r5, #63
 2251 0104 3A6D     		ldr	r2, [r7, #80]
 2252              	.LVL218:
 2253 0106 2049     		ldr	r1, .L225+8
 2254 0108 04EB8303 		add	r3, r4, r3, lsl #2
 2255 010c 5960     		str	r1, [r3, #4]
 2256              	.LBB620:
 2257              	.LBB621:
 2258              		.loc 1 182 0
 2259 010e C2F810A0 		str	r10, [r2, #16]
 2260              	.L217:
 2261              		.loc 1 183 0
 2262 0112 1369     		ldr	r3, [r2, #16]
 2263 0114 9B06     		lsls	r3, r3, #26
 2264 0116 FCD4     		bmi	.L217
 2265              	.LVL219:
 2266 0118 04EB4616 		add	r6, r4, r6, lsl #5
 2267              	.LBB622:
 2268              	.LBB623:
 2269              		.loc 5 527 0
 2270 011c 0C20     		movs	r0, #12
 2271 011e FFF7FEFF 		bl	chSysPolledDelayX
 2272              	.LVL220:
 2273              	.LBE623:
 2274              	.LBE622:
 2275              	.LBE621:
 2276              	.LBE620:
 2277              		.loc 1 1061 0
 2278 0122 D6F80039 		ldr	r3, [r6, #2304]
 2279 0126 23F40043 		bic	r3, r3, #32768
 2280 012a C6F80039 		str	r3, [r6, #2304]
ARM GAS  C:\Users\Moi\AppData\Local\Temp\ccOzHcBd.s 			page 41


 2281              		.loc 1 1062 0
 2282 012e D4F81C38 		ldr	r3, [r4, #2076]
 2283 0132 0121     		movs	r1, #1
 2284 0134 01FA05F5 		lsl	r5, r1, r5
 2285 0138 23EA0505 		bic	r5, r3, r5
 2286 013c C4F81C58 		str	r5, [r4, #2076]
 2287 0140 D6E7     		b	.L205
 2288              	.LVL221:
 2289              	.L210:
 2290 0142 04EB461C 		add	ip, r4, r6, lsl #5
 2291              		.loc 1 1038 0
 2292 0146 DCF8000B 		ldr	r0, [ip, #2816]
 2293 014a 20F40040 		bic	r0, r0, #32768
 2294 014e CCF8000B 		str	r0, [ip, #2816]
 2295              		.loc 1 1039 0
 2296 0152 D4F81C08 		ldr	r0, [r4, #2076]
 2297 0156 20EA0101 		bic	r1, r0, r1
 2298 015a C4F81C18 		str	r1, [r4, #2076]
 2299 015e 8BE7     		b	.L211
 2300              	.LVL222:
 2301              	.L208:
 2302              		.loc 1 1025 0
 2303 0160 DFF830B0 		ldr	fp, .L225+20
 2304              		.loc 1 1026 0
 2305 0164 6AE7     		b	.L209
 2306              	.LVL223:
 2307              	.L207:
 2308              		.loc 1 1022 0
 2309 0166 DFF830B0 		ldr	fp, .L225+24
 2310              		.loc 1 1023 0
 2311 016a 67E7     		b	.L209
 2312              	.LVL224:
 2313              	.L223:
 2314              	.LBB624:
 2315              	.LBB614:
 2316              		.loc 1 214 0
 2317 016c 0748     		ldr	r0, .L225+12
 2318 016e CDE90032 		strd	r3, r2, [sp]
 2319 0172 FFF7FEFF 		bl	chSysHalt
 2320              	.LVL225:
 2321 0176 DDE90032 		ldrd	r3, r2, [sp]
 2322 017a 98E7     		b	.L214
 2323              	.LVL226:
 2324              	.L224:
 2325              	.LBE614:
 2326              	.LBE624:
 2327              		.loc 1 1064 0
 2328 017c FFF7FEFF 		bl	__stack_chk_fail
 2329              	.LVL227:
 2330              	.L226:
 2331              		.align	2
 2332              	.L225:
 2333 0180 00800410 		.word	268730368
 2334 0184 00800010 		.word	268468224
 2335 0188 00040002 		.word	33555456
 2336 018c 00000000 		.word	.LANCHOR5
 2337 0190 00000000 		.word	__stack_chk_guard
ARM GAS  C:\Users\Moi\AppData\Local\Temp\ccOzHcBd.s 			page 42


 2338 0194 00800C10 		.word	269254656
 2339 0198 00800810 		.word	268992512
 2340              		.cfi_endproc
 2341              	.LFE279:
 2342              		.size	usb_lld_init_endpoint, .-usb_lld_init_endpoint
 2343              		.section	.text.usb_lld_disable_endpoints,"ax",%progbits
 2344              		.align	1
 2345              		.p2align 4,,15
 2346              		.global	usb_lld_disable_endpoints
 2347              		.syntax unified
 2348              		.thumb
 2349              		.thumb_func
 2350              		.fpu fpv4-sp-d16
 2351              		.type	usb_lld_disable_endpoints, %function
 2352              	usb_lld_disable_endpoints:
 2353              	.LFB280:
 2354              		.loc 1 1073 0
 2355              		.cfi_startproc
 2356              		@ args = 0, pretend = 0, frame = 8
 2357              		@ frame_needed = 0, uses_anonymous_args = 0
 2358              	.LVL228:
 2359 0000 10B5     		push	{r4, lr}
 2360              		.cfi_def_cfa_offset 8
 2361              		.cfi_offset 4, -8
 2362              		.cfi_offset 14, -4
 2363 0002 094B     		ldr	r3, .L232
 2364 0004 416D     		ldr	r1, [r0, #84]
 2365              	.LVL229:
 2366 0006 1A68     		ldr	r2, [r3]
 2367              	.LBB625:
 2368              	.LBB626:
 2369              		.loc 1 198 0
 2370 0008 0C68     		ldr	r4, [r1]
 2371 000a 8465     		str	r4, [r0, #88]
 2372              	.LBE626:
 2373              	.LBE625:
 2374              		.loc 1 1073 0
 2375 000c 82B0     		sub	sp, sp, #8
 2376              		.cfi_def_cfa_offset 16
 2377              		.loc 1 1073 0
 2378 000e 0192     		str	r2, [sp, #4]
 2379              		.loc 1 1079 0
 2380 0010 019A     		ldr	r2, [sp, #4]
 2381 0012 1B68     		ldr	r3, [r3]
 2382 0014 9A42     		cmp	r2, r3
 2383 0016 05D1     		bne	.L231
 2384 0018 006D     		ldr	r0, [r0, #80]
 2385              	.LVL230:
 2386              		.loc 1 1080 0
 2387 001a 02B0     		add	sp, sp, #8
 2388              		.cfi_remember_state
 2389              		.cfi_def_cfa_offset 8
 2390              		@ sp needed
 2391 001c BDE81040 		pop	{r4, lr}
 2392              		.cfi_restore 14
 2393              		.cfi_restore 4
 2394              		.cfi_def_cfa_offset 0
ARM GAS  C:\Users\Moi\AppData\Local\Temp\ccOzHcBd.s 			page 43


 2395              		.loc 1 1079 0
 2396 0020 FFF7FEBF 		b	otg_disable_ep.isra.0
 2397              	.LVL231:
 2398              	.L231:
 2399              		.cfi_restore_state
 2400 0024 FFF7FEFF 		bl	__stack_chk_fail
 2401              	.LVL232:
 2402              	.L233:
 2403              		.align	2
 2404              	.L232:
 2405 0028 00000000 		.word	__stack_chk_guard
 2406              		.cfi_endproc
 2407              	.LFE280:
 2408              		.size	usb_lld_disable_endpoints, .-usb_lld_disable_endpoints
 2409              		.section	.text.usb_lld_get_status_out,"ax",%progbits
 2410              		.align	1
 2411              		.p2align 4,,15
 2412              		.global	usb_lld_get_status_out
 2413              		.syntax unified
 2414              		.thumb
 2415              		.thumb_func
 2416              		.fpu fpv4-sp-d16
 2417              		.type	usb_lld_get_status_out, %function
 2418              	usb_lld_get_status_out:
 2419              	.LFB281:
 2420              		.loc 1 1094 0
 2421              		.cfi_startproc
 2422              		@ args = 0, pretend = 0, frame = 8
 2423              		@ frame_needed = 0, uses_anonymous_args = 0
 2424              	.LVL233:
 2425 0000 00B5     		push	{lr}
 2426              		.cfi_def_cfa_offset 4
 2427              		.cfi_offset 14, -4
 2428 0002 0C4A     		ldr	r2, .L241
 2429              		.loc 1 1099 0
 2430 0004 036D     		ldr	r3, [r0, #80]
 2431              		.loc 1 1094 0
 2432 0006 1068     		ldr	r0, [r2]
 2433              	.LVL234:
 2434 0008 83B0     		sub	sp, sp, #12
 2435              		.cfi_def_cfa_offset 16
 2436              		.loc 1 1099 0
 2437 000a 5831     		adds	r1, r1, #88
 2438              	.LVL235:
 2439 000c 4901     		lsls	r1, r1, #5
 2440              		.loc 1 1094 0
 2441 000e 0190     		str	r0, [sp, #4]
 2442              		.loc 1 1099 0
 2443 0010 5B58     		ldr	r3, [r3, r1]
 2444              	.LVL236:
 2445              		.loc 1 1100 0
 2446 0012 13F40040 		ands	r0, r3, #32768
 2447 0016 04D0     		beq	.L235
 2448              		.loc 1 1102 0
 2449 0018 13F4001F 		tst	r3, #2097152
 2450              		.loc 1 1104 0
 2451 001c 14BF     		ite	ne
ARM GAS  C:\Users\Moi\AppData\Local\Temp\ccOzHcBd.s 			page 44


 2452 001e 0120     		movne	r0, #1
 2453 0020 0220     		moveq	r0, #2
 2454              	.L235:
 2455              		.loc 1 1105 0
 2456 0022 0199     		ldr	r1, [sp, #4]
 2457 0024 1368     		ldr	r3, [r2]
 2458              	.LVL237:
 2459 0026 9942     		cmp	r1, r3
 2460 0028 02D1     		bne	.L240
 2461 002a 03B0     		add	sp, sp, #12
 2462              		.cfi_remember_state
 2463              		.cfi_def_cfa_offset 4
 2464              		@ sp needed
 2465 002c 5DF804FB 		ldr	pc, [sp], #4
 2466              	.L240:
 2467              		.cfi_restore_state
 2468 0030 FFF7FEFF 		bl	__stack_chk_fail
 2469              	.LVL238:
 2470              	.L242:
 2471              		.align	2
 2472              	.L241:
 2473 0034 00000000 		.word	__stack_chk_guard
 2474              		.cfi_endproc
 2475              	.LFE281:
 2476              		.size	usb_lld_get_status_out, .-usb_lld_get_status_out
 2477              		.section	.text.usb_lld_get_status_in,"ax",%progbits
 2478              		.align	1
 2479              		.p2align 4,,15
 2480              		.global	usb_lld_get_status_in
 2481              		.syntax unified
 2482              		.thumb
 2483              		.thumb_func
 2484              		.fpu fpv4-sp-d16
 2485              		.type	usb_lld_get_status_in, %function
 2486              	usb_lld_get_status_in:
 2487              	.LFB282:
 2488              		.loc 1 1119 0
 2489              		.cfi_startproc
 2490              		@ args = 0, pretend = 0, frame = 8
 2491              		@ frame_needed = 0, uses_anonymous_args = 0
 2492              	.LVL239:
 2493 0000 00B5     		push	{lr}
 2494              		.cfi_def_cfa_offset 4
 2495              		.cfi_offset 14, -4
 2496 0002 0C4A     		ldr	r2, .L250
 2497              		.loc 1 1124 0
 2498 0004 036D     		ldr	r3, [r0, #80]
 2499              		.loc 1 1119 0
 2500 0006 1068     		ldr	r0, [r2]
 2501              	.LVL240:
 2502 0008 83B0     		sub	sp, sp, #12
 2503              		.cfi_def_cfa_offset 16
 2504              		.loc 1 1124 0
 2505 000a 4831     		adds	r1, r1, #72
 2506              	.LVL241:
 2507 000c 4901     		lsls	r1, r1, #5
 2508              		.loc 1 1119 0
ARM GAS  C:\Users\Moi\AppData\Local\Temp\ccOzHcBd.s 			page 45


 2509 000e 0190     		str	r0, [sp, #4]
 2510              		.loc 1 1124 0
 2511 0010 5B58     		ldr	r3, [r3, r1]
 2512              	.LVL242:
 2513              		.loc 1 1125 0
 2514 0012 13F40040 		ands	r0, r3, #32768
 2515 0016 04D0     		beq	.L244
 2516              		.loc 1 1127 0
 2517 0018 13F4001F 		tst	r3, #2097152
 2518              		.loc 1 1129 0
 2519 001c 14BF     		ite	ne
 2520 001e 0120     		movne	r0, #1
 2521 0020 0220     		moveq	r0, #2
 2522              	.L244:
 2523              		.loc 1 1130 0
 2524 0022 0199     		ldr	r1, [sp, #4]
 2525 0024 1368     		ldr	r3, [r2]
 2526              	.LVL243:
 2527 0026 9942     		cmp	r1, r3
 2528 0028 02D1     		bne	.L249
 2529 002a 03B0     		add	sp, sp, #12
 2530              		.cfi_remember_state
 2531              		.cfi_def_cfa_offset 4
 2532              		@ sp needed
 2533 002c 5DF804FB 		ldr	pc, [sp], #4
 2534              	.L249:
 2535              		.cfi_restore_state
 2536 0030 FFF7FEFF 		bl	__stack_chk_fail
 2537              	.LVL244:
 2538              	.L251:
 2539              		.align	2
 2540              	.L250:
 2541 0034 00000000 		.word	__stack_chk_guard
 2542              		.cfi_endproc
 2543              	.LFE282:
 2544              		.size	usb_lld_get_status_in, .-usb_lld_get_status_in
 2545              		.section	.text.usb_lld_read_setup,"ax",%progbits
 2546              		.align	1
 2547              		.p2align 4,,15
 2548              		.global	usb_lld_read_setup
 2549              		.syntax unified
 2550              		.thumb
 2551              		.thumb_func
 2552              		.fpu fpv4-sp-d16
 2553              		.type	usb_lld_read_setup, %function
 2554              	usb_lld_read_setup:
 2555              	.LFB283:
 2556              		.loc 1 1146 0
 2557              		.cfi_startproc
 2558              		@ args = 0, pretend = 0, frame = 8
 2559              		@ frame_needed = 0, uses_anonymous_args = 0
 2560              	.LVL245:
 2561 0000 10B5     		push	{r4, lr}
 2562              		.cfi_def_cfa_offset 8
 2563              		.cfi_offset 4, -8
 2564              		.cfi_offset 14, -4
 2565              		.loc 1 1148 0
ARM GAS  C:\Users\Moi\AppData\Local\Temp\ccOzHcBd.s 			page 46


 2566 0002 00EB8101 		add	r1, r0, r1, lsl #2
 2567              	.LVL246:
 2568              		.loc 1 1146 0
 2569 0006 094B     		ldr	r3, .L256
 2570              		.loc 1 1148 0
 2571 0008 C968     		ldr	r1, [r1, #12]
 2572              		.loc 1 1146 0
 2573 000a 1868     		ldr	r0, [r3]
 2574              	.LVL247:
 2575              		.loc 1 1148 0
 2576 000c 096A     		ldr	r1, [r1, #32]
 2577              		.loc 1 1146 0
 2578 000e 82B0     		sub	sp, sp, #8
 2579              		.cfi_def_cfa_offset 16
 2580              		.loc 1 1148 0
 2581 0010 0C68     		ldr	r4, [r1]	@ unaligned
 2582              		.loc 1 1146 0
 2583 0012 0190     		str	r0, [sp, #4]
 2584              		.loc 1 1148 0
 2585 0014 4868     		ldr	r0, [r1, #4]	@ unaligned
 2586 0016 1460     		str	r4, [r2]	@ unaligned
 2587              		.loc 1 1149 0
 2588 0018 0199     		ldr	r1, [sp, #4]
 2589 001a 1B68     		ldr	r3, [r3]
 2590              		.loc 1 1148 0
 2591 001c 5060     		str	r0, [r2, #4]	@ unaligned
 2592              		.loc 1 1149 0
 2593 001e 9942     		cmp	r1, r3
 2594 0020 01D1     		bne	.L255
 2595 0022 02B0     		add	sp, sp, #8
 2596              		.cfi_remember_state
 2597              		.cfi_def_cfa_offset 8
 2598              		@ sp needed
 2599 0024 10BD     		pop	{r4, pc}
 2600              	.L255:
 2601              		.cfi_restore_state
 2602 0026 FFF7FEFF 		bl	__stack_chk_fail
 2603              	.LVL248:
 2604              	.L257:
 2605 002a 00BF     		.align	2
 2606              	.L256:
 2607 002c 00000000 		.word	__stack_chk_guard
 2608              		.cfi_endproc
 2609              	.LFE283:
 2610              		.size	usb_lld_read_setup, .-usb_lld_read_setup
 2611              		.section	.text.usb_lld_prepare_receive,"ax",%progbits
 2612              		.align	1
 2613              		.p2align 4,,15
 2614              		.global	usb_lld_prepare_receive
 2615              		.syntax unified
 2616              		.thumb
 2617              		.thumb_func
 2618              		.fpu fpv4-sp-d16
 2619              		.type	usb_lld_prepare_receive, %function
 2620              	usb_lld_prepare_receive:
 2621              	.LFB284:
 2622              		.loc 1 1159 0
ARM GAS  C:\Users\Moi\AppData\Local\Temp\ccOzHcBd.s 			page 47


 2623              		.cfi_startproc
 2624              		@ args = 0, pretend = 0, frame = 8
 2625              		@ frame_needed = 0, uses_anonymous_args = 0
 2626              	.LVL249:
 2627 0000 F0B5     		push	{r4, r5, r6, r7, lr}
 2628              		.cfi_def_cfa_offset 20
 2629              		.cfi_offset 4, -20
 2630              		.cfi_offset 5, -16
 2631              		.cfi_offset 6, -12
 2632              		.cfi_offset 7, -8
 2633              		.cfi_offset 14, -4
 2634              		.loc 1 1161 0
 2635 0002 00EB8103 		add	r3, r0, r1, lsl #2
 2636              		.loc 1 1159 0
 2637 0006 124E     		ldr	r6, .L266
 2638              		.loc 1 1161 0
 2639 0008 DF68     		ldr	r7, [r3, #12]
 2640              		.loc 1 1159 0
 2641 000a 3368     		ldr	r3, [r6]
 2642              		.loc 1 1161 0
 2643 000c BD69     		ldr	r5, [r7, #24]
 2644              	.LVL250:
 2645              		.loc 1 1159 0
 2646 000e 83B0     		sub	sp, sp, #12
 2647              		.cfi_def_cfa_offset 32
 2648              		.loc 1 1164 0
 2649 0010 6A68     		ldr	r2, [r5, #4]
 2650              		.loc 1 1159 0
 2651 0012 0193     		str	r3, [sp, #4]
 2652              		.loc 1 1164 0
 2653 0014 2A61     		str	r2, [r5, #16]
 2654              		.loc 1 1165 0
 2655 0016 29B9     		cbnz	r1, .L264
 2656              		.loc 1 1165 0 is_stmt 0 discriminator 1
 2657 0018 402A     		cmp	r2, #64
 2658 001a 03D9     		bls	.L264
 2659              		.loc 1 1166 0 is_stmt 1
 2660 001c 4022     		movs	r2, #64
 2661 001e 0D4C     		ldr	r4, .L266+4
 2662 0020 6A60     		str	r2, [r5, #4]
 2663 0022 01E0     		b	.L260
 2664              	.L264:
 2665 0024 42F0C044 		orr	r4, r2, #1610612736
 2666              	.L260:
 2667              		.loc 1 1168 0
 2668 0028 7D8A     		ldrh	r5, [r7, #18]
 2669              	.LVL251:
 2670              		.loc 1 1170 0
 2671 002a 006D     		ldr	r0, [r0, #80]
 2672              	.LVL252:
 2673              		.loc 1 1168 0
 2674 002c 6B1E     		subs	r3, r5, #1
 2675              		.loc 1 1170 0
 2676 002e 00EB4111 		add	r1, r0, r1, lsl #5
 2677              	.LVL253:
 2678              		.loc 1 1168 0
 2679 0032 1344     		add	r3, r3, r2
ARM GAS  C:\Users\Moi\AppData\Local\Temp\ccOzHcBd.s 			page 48


 2680 0034 B3FBF5F3 		udiv	r3, r3, r5
 2681              		.loc 1 1170 0
 2682 0038 44EAC343 		orr	r3, r4, r3, lsl #19
 2683 003c C1F8103B 		str	r3, [r1, #2832]
 2684              		.loc 1 1173 0
 2685 0040 019A     		ldr	r2, [sp, #4]
 2686              	.LVL254:
 2687 0042 3368     		ldr	r3, [r6]
 2688 0044 9A42     		cmp	r2, r3
 2689 0046 01D1     		bne	.L265
 2690 0048 03B0     		add	sp, sp, #12
 2691              		.cfi_remember_state
 2692              		.cfi_def_cfa_offset 20
 2693              		@ sp needed
 2694 004a F0BD     		pop	{r4, r5, r6, r7, pc}
 2695              	.LVL255:
 2696              	.L265:
 2697              		.cfi_restore_state
 2698 004c FFF7FEFF 		bl	__stack_chk_fail
 2699              	.LVL256:
 2700              	.L267:
 2701              		.align	2
 2702              	.L266:
 2703 0050 00000000 		.word	__stack_chk_guard
 2704 0054 40000060 		.word	1610612800
 2705              		.cfi_endproc
 2706              	.LFE284:
 2707              		.size	usb_lld_prepare_receive, .-usb_lld_prepare_receive
 2708              		.section	.text.otg_epout_handler.constprop.7,"ax",%progbits
 2709              		.align	1
 2710              		.p2align 4,,15
 2711              		.syntax unified
 2712              		.thumb
 2713              		.thumb_func
 2714              		.fpu fpv4-sp-d16
 2715              		.type	otg_epout_handler.constprop.7, %function
 2716              	otg_epout_handler.constprop.7:
 2717              	.LFB300:
 2718              		.loc 1 581 0
 2719              		.cfi_startproc
 2720              		@ args = 0, pretend = 0, frame = 8
 2721              		@ frame_needed = 0, uses_anonymous_args = 0
 2722              	.LVL257:
 2723 0000 2DE9F041 		push	{r4, r5, r6, r7, r8, lr}
 2724              		.cfi_def_cfa_offset 24
 2725              		.cfi_offset 4, -24
 2726              		.cfi_offset 5, -20
 2727              		.cfi_offset 6, -16
 2728              		.cfi_offset 7, -12
 2729              		.cfi_offset 8, -8
 2730              		.cfi_offset 14, -4
 2731              		.loc 1 582 0
 2732 0004 314E     		ldr	r6, .L289
 2733              		.loc 1 581 0
 2734 0006 DFF8C880 		ldr	r8, .L289+4
 2735              		.loc 1 582 0
 2736 000a 376D     		ldr	r7, [r6, #80]
ARM GAS  C:\Users\Moi\AppData\Local\Temp\ccOzHcBd.s 			page 49


 2737              		.loc 1 581 0
 2738 000c D8F80030 		ldr	r3, [r8]
 2739 0010 82B0     		sub	sp, sp, #8
 2740              		.cfi_def_cfa_offset 32
 2741              		.loc 1 581 0
 2742 0012 0546     		mov	r5, r0
 2743 0014 0193     		str	r3, [sp, #4]
 2744              	.LVL258:
 2745              		.loc 1 583 0
 2746 0016 07EB4013 		add	r3, r7, r0, lsl #5
 2747 001a D3F8084B 		ldr	r4, [r3, #2824]
 2748              	.LVL259:
 2749              		.loc 1 586 0
 2750 001e C3F8084B 		str	r4, [r3, #2824]
 2751              		.loc 1 588 0
 2752 0022 2007     		lsls	r0, r4, #28
 2753              	.LVL260:
 2754 0024 0AD5     		bpl	.L269
 2755 0026 D7F81438 		ldr	r3, [r7, #2068]
 2756 002a 1907     		lsls	r1, r3, #28
 2757 002c 06D5     		bpl	.L269
 2758              		.loc 1 591 0
 2759 002e 06EB8503 		add	r3, r6, r5, lsl #2
 2760 0032 2946     		mov	r1, r5
 2761 0034 DB68     		ldr	r3, [r3, #12]
 2762 0036 3046     		mov	r0, r6
 2763 0038 5B68     		ldr	r3, [r3, #4]
 2764 003a 9847     		blx	r3
 2765              	.LVL261:
 2766              	.L269:
 2767              		.loc 1 594 0
 2768 003c E207     		lsls	r2, r4, #31
 2769 003e 3BD5     		bpl	.L268
 2770 0040 D7F81438 		ldr	r3, [r7, #2068]
 2771 0044 DB07     		lsls	r3, r3, #31
 2772 0046 37D5     		bpl	.L268
 2773              	.LBB627:
 2774              		.loc 1 596 0
 2775 0048 06EB8503 		add	r3, r6, r5, lsl #2
 2776 004c D968     		ldr	r1, [r3, #12]
 2777 004e 8B69     		ldr	r3, [r1, #24]
 2778              	.LVL262:
 2779              		.loc 1 598 0
 2780 0050 5868     		ldr	r0, [r3, #4]
 2781 0052 1A69     		ldr	r2, [r3, #16]
 2782 0054 9042     		cmp	r0, r2
 2783 0056 11D3     		bcc	.L288
 2784              		.loc 1 611 0
 2785 0058 7389     		ldrh	r3, [r6, #10]
 2786              	.LVL263:
 2787 005a 019C     		ldr	r4, [sp, #4]
 2788              	.LVL264:
 2789 005c D8F80000 		ldr	r0, [r8]
 2790 0060 0122     		movs	r2, #1
 2791 0062 AA40     		lsls	r2, r2, r5
 2792 0064 23EA0203 		bic	r3, r3, r2
 2793 0068 8442     		cmp	r4, r0
ARM GAS  C:\Users\Moi\AppData\Local\Temp\ccOzHcBd.s 			page 50


 2794 006a 7381     		strh	r3, [r6, #10]	@ movhi
 2795 006c 2CD1     		bne	.L287
 2796 006e CB68     		ldr	r3, [r1, #12]
 2797 0070 1648     		ldr	r0, .L289
 2798 0072 2946     		mov	r1, r5
 2799              	.LVL265:
 2800              	.LBE627:
 2801              		.loc 1 614 0
 2802 0074 02B0     		add	sp, sp, #8
 2803              		.cfi_remember_state
 2804              		.cfi_def_cfa_offset 24
 2805              		@ sp needed
 2806 0076 BDE8F041 		pop	{r4, r5, r6, r7, r8, lr}
 2807              		.cfi_restore 14
 2808              		.cfi_restore 8
 2809              		.cfi_restore 7
 2810              		.cfi_restore 6
 2811              		.cfi_restore 5
 2812              		.cfi_restore 4
 2813              		.cfi_def_cfa_offset 0
 2814              	.LVL266:
 2815              	.LBB642:
 2816              		.loc 1 611 0
 2817 007a 1847     		bx	r3	@ indirect register sibling call
 2818              	.LVL267:
 2819              	.L288:
 2820              		.cfi_restore_state
 2821              		.loc 1 602 0
 2822 007c 121A     		subs	r2, r2, r0
 2823              		.loc 1 603 0
 2824 007e 0024     		movs	r4, #0
 2825              	.LVL268:
 2826 0080 C3E90124 		strd	r2, r4, [r3, #4]
 2827              		.loc 1 604 0
 2828 0084 2946     		mov	r1, r5
 2829 0086 1148     		ldr	r0, .L289
 2830 0088 FFF7FEFF 		bl	usb_lld_prepare_receive
 2831              	.LVL269:
 2832              	.LBB628:
 2833              	.LBB629:
 2834              	.LBB630:
 2835              	.LBB631:
 2836              	.LBB632:
 2837              	.LBB633:
 2838              		.loc 3 546 0
 2839 008c 2023     		movs	r3, #32
 2840              		.syntax unified
 2841              	@ 546 "..//ChibiOS//os/ext/CMSIS/include/core_cmFunc.h" 1
 2842 008e 83F31188 		MSR basepri, r3
 2843              	@ 0 "" 2
 2844              	.LVL270:
 2845              		.thumb
 2846              		.syntax unified
 2847              	.LBE633:
 2848              	.LBE632:
 2849              	.LBE631:
 2850              	.LBE630:
ARM GAS  C:\Users\Moi\AppData\Local\Temp\ccOzHcBd.s 			page 51


 2851              		.loc 4 389 0
 2852 0092 FFF7FEFF 		bl	_stats_start_measure_crit_isr
 2853              	.LVL271:
 2854              		.loc 4 390 0
 2855 0096 FFF7FEFF 		bl	_dbg_check_lock_from_isr
 2856              	.LVL272:
 2857 009a 336D     		ldr	r3, [r6, #80]
 2858 009c 03EB4515 		add	r5, r3, r5, lsl #5
 2859              	.LVL273:
 2860              	.LBE629:
 2861              	.LBE628:
 2862              	.LBB634:
 2863              	.LBB635:
 2864              		.loc 1 1214 0
 2865 00a0 D5F8003B 		ldr	r3, [r5, #2816]
 2866 00a4 43F08063 		orr	r3, r3, #67108864
 2867 00a8 C5F8003B 		str	r3, [r5, #2816]
 2868              	.LVL274:
 2869              	.LBE635:
 2870              	.LBE634:
 2871              	.LBB636:
 2872              	.LBB637:
 2873              		.loc 4 408 0
 2874 00ac FFF7FEFF 		bl	_dbg_check_unlock_from_isr
 2875              	.LVL275:
 2876              		.loc 4 409 0
 2877 00b0 FFF7FEFF 		bl	_stats_stop_measure_crit_isr
 2878              	.LVL276:
 2879              	.LBB638:
 2880              	.LBB639:
 2881              	.LBB640:
 2882              	.LBB641:
 2883              		.loc 3 546 0
 2884              		.syntax unified
 2885              	@ 546 "..//ChibiOS//os/ext/CMSIS/include/core_cmFunc.h" 1
 2886 00b4 84F31188 		MSR basepri, r4
 2887              	@ 0 "" 2
 2888              	.LVL277:
 2889              		.thumb
 2890              		.syntax unified
 2891              	.L268:
 2892              	.LBE641:
 2893              	.LBE640:
 2894              	.LBE639:
 2895              	.LBE638:
 2896              	.LBE637:
 2897              	.LBE636:
 2898              	.LBE642:
 2899              		.loc 1 614 0
 2900 00b8 019A     		ldr	r2, [sp, #4]
 2901 00ba D8F80030 		ldr	r3, [r8]
 2902 00be 9A42     		cmp	r2, r3
 2903 00c0 02D1     		bne	.L287
 2904 00c2 02B0     		add	sp, sp, #8
 2905              		.cfi_remember_state
 2906              		.cfi_def_cfa_offset 24
 2907              		@ sp needed
ARM GAS  C:\Users\Moi\AppData\Local\Temp\ccOzHcBd.s 			page 52


 2908 00c4 BDE8F081 		pop	{r4, r5, r6, r7, r8, pc}
 2909              	.LVL278:
 2910              	.L287:
 2911              		.cfi_restore_state
 2912 00c8 FFF7FEFF 		bl	__stack_chk_fail
 2913              	.LVL279:
 2914              	.L290:
 2915              		.align	2
 2916              	.L289:
 2917 00cc 00000000 		.word	.LANCHOR1
 2918 00d0 00000000 		.word	__stack_chk_guard
 2919              		.cfi_endproc
 2920              	.LFE300:
 2921              		.size	otg_epout_handler.constprop.7, .-otg_epout_handler.constprop.7
 2922              		.section	.text.usb_lld_prepare_transmit,"ax",%progbits
 2923              		.align	1
 2924              		.p2align 4,,15
 2925              		.global	usb_lld_prepare_transmit
 2926              		.syntax unified
 2927              		.thumb
 2928              		.thumb_func
 2929              		.fpu fpv4-sp-d16
 2930              		.type	usb_lld_prepare_transmit, %function
 2931              	usb_lld_prepare_transmit:
 2932              	.LFB285:
 2933              		.loc 1 1183 0
 2934              		.cfi_startproc
 2935              		@ args = 0, pretend = 0, frame = 8
 2936              		@ frame_needed = 0, uses_anonymous_args = 0
 2937              	.LVL280:
 2938              		.loc 1 1184 0
 2939 0000 00EB8103 		add	r3, r0, r1, lsl #2
 2940              		.loc 1 1183 0
 2941 0004 F0B5     		push	{r4, r5, r6, r7, lr}
 2942              		.cfi_def_cfa_offset 20
 2943              		.cfi_offset 4, -20
 2944              		.cfi_offset 5, -16
 2945              		.cfi_offset 6, -12
 2946              		.cfi_offset 7, -8
 2947              		.cfi_offset 14, -4
 2948              		.loc 1 1184 0
 2949 0006 DE68     		ldr	r6, [r3, #12]
 2950              		.loc 1 1183 0
 2951 0008 144D     		ldr	r5, .L300
 2952              		.loc 1 1184 0
 2953 000a 7469     		ldr	r4, [r6, #20]
 2954              	.LVL281:
 2955              		.loc 1 1183 0
 2956 000c 2F68     		ldr	r7, [r5]
 2957              		.loc 1 1187 0
 2958 000e 6368     		ldr	r3, [r4, #4]
 2959 0010 026D     		ldr	r2, [r0, #80]
 2960 0012 2361     		str	r3, [r4, #16]
 2961              		.loc 1 1183 0
 2962 0014 83B0     		sub	sp, sp, #12
 2963              		.cfi_def_cfa_offset 32
 2964              		.loc 1 1183 0
ARM GAS  C:\Users\Moi\AppData\Local\Temp\ccOzHcBd.s 			page 53


 2965 0016 0197     		str	r7, [sp, #4]
 2966              		.loc 1 1188 0
 2967 0018 B3B1     		cbz	r3, .L297
 2968              	.LBB643:
 2969              		.loc 1 1193 0
 2970 001a 81B1     		cbz	r1, .L298
 2971              	.L294:
 2972              		.loc 1 1197 0
 2973 001c 308A     		ldrh	r0, [r6, #16]
 2974              	.LVL282:
 2975              		.loc 1 1199 0
 2976 001e 02EB4112 		add	r2, r2, r1, lsl #5
 2977              		.loc 1 1197 0
 2978 0022 411E     		subs	r1, r0, #1
 2979              	.LVL283:
 2980 0024 1944     		add	r1, r1, r3
 2981 0026 B1FBF0F1 		udiv	r1, r1, r0
 2982              		.loc 1 1199 0
 2983 002a 43EAC143 		orr	r3, r3, r1, lsl #19
 2984              	.LVL284:
 2985 002e C2F81039 		str	r3, [r2, #2320]
 2986              	.L291:
 2987              	.LBE643:
 2988              		.loc 1 1202 0
 2989 0032 019A     		ldr	r2, [sp, #4]
 2990 0034 2B68     		ldr	r3, [r5]
 2991 0036 9A42     		cmp	r2, r3
 2992 0038 0DD1     		bne	.L299
 2993 003a 03B0     		add	sp, sp, #12
 2994              		.cfi_remember_state
 2995              		.cfi_def_cfa_offset 20
 2996              		@ sp needed
 2997 003c F0BD     		pop	{r4, r5, r6, r7, pc}
 2998              	.LVL285:
 2999              	.L298:
 3000              		.cfi_restore_state
 3001              	.LBB644:
 3002              		.loc 1 1193 0 discriminator 1
 3003 003e 402B     		cmp	r3, #64
 3004              		.loc 1 1194 0 discriminator 1
 3005 0040 84BF     		itt	hi
 3006 0042 4023     		movhi	r3, #64
 3007 0044 6360     		strhi	r3, [r4, #4]
 3008 0046 E9E7     		b	.L294
 3009              	.L297:
 3010              	.LBE644:
 3011              		.loc 1 1190 0
 3012 0048 02EB4112 		add	r2, r2, r1, lsl #5
 3013 004c 4FF40023 		mov	r3, #524288
 3014 0050 C2F81039 		str	r3, [r2, #2320]
 3015 0054 EDE7     		b	.L291
 3016              	.LVL286:
 3017              	.L299:
 3018              		.loc 1 1202 0
 3019 0056 FFF7FEFF 		bl	__stack_chk_fail
 3020              	.LVL287:
 3021              	.L301:
ARM GAS  C:\Users\Moi\AppData\Local\Temp\ccOzHcBd.s 			page 54


 3022 005a 00BF     		.align	2
 3023              	.L300:
 3024 005c 00000000 		.word	__stack_chk_guard
 3025              		.cfi_endproc
 3026              	.LFE285:
 3027              		.size	usb_lld_prepare_transmit, .-usb_lld_prepare_transmit
 3028              		.section	.text.otg_epin_handler.constprop.8,"ax",%progbits
 3029              		.align	1
 3030              		.p2align 4,,15
 3031              		.syntax unified
 3032              		.thumb
 3033              		.thumb_func
 3034              		.fpu fpv4-sp-d16
 3035              		.type	otg_epin_handler.constprop.8, %function
 3036              	otg_epin_handler.constprop.8:
 3037              	.LFB299:
 3038              		.loc 1 533 0
 3039              		.cfi_startproc
 3040              		@ args = 0, pretend = 0, frame = 8
 3041              		@ frame_needed = 0, uses_anonymous_args = 0
 3042              	.LVL288:
 3043 0000 2DE9F043 		push	{r4, r5, r6, r7, r8, r9, lr}
 3044              		.cfi_def_cfa_offset 28
 3045              		.cfi_offset 4, -28
 3046              		.cfi_offset 5, -24
 3047              		.cfi_offset 6, -20
 3048              		.cfi_offset 7, -16
 3049              		.cfi_offset 8, -12
 3050              		.cfi_offset 9, -8
 3051              		.cfi_offset 14, -4
 3052              		.loc 1 534 0
 3053 0004 3E4E     		ldr	r6, .L323
 3054              		.loc 1 533 0
 3055 0006 DFF80081 		ldr	r8, .L323+8
 3056              		.loc 1 534 0
 3057 000a 356D     		ldr	r5, [r6, #80]
 3058              		.loc 1 533 0
 3059 000c D8F80030 		ldr	r3, [r8]
 3060 0010 83B0     		sub	sp, sp, #12
 3061              		.cfi_def_cfa_offset 40
 3062              		.loc 1 533 0
 3063 0012 0746     		mov	r7, r0
 3064 0014 0193     		str	r3, [sp, #4]
 3065              	.LVL289:
 3066              		.loc 1 535 0
 3067 0016 05EB4013 		add	r3, r5, r0, lsl #5
 3068 001a D3F80849 		ldr	r4, [r3, #2312]
 3069              	.LVL290:
 3070              		.loc 1 537 0
 3071 001e C3F80849 		str	r4, [r3, #2312]
 3072              		.loc 1 542 0
 3073 0022 E107     		lsls	r1, r4, #31
 3074 0024 16D5     		bpl	.L303
 3075 0026 D5F81038 		ldr	r3, [r5, #2064]
 3076 002a DA07     		lsls	r2, r3, #31
 3077 002c 12D5     		bpl	.L303
 3078              	.LBB645:
ARM GAS  C:\Users\Moi\AppData\Local\Temp\ccOzHcBd.s 			page 55


 3079              		.loc 1 544 0
 3080 002e 06EB8003 		add	r3, r6, r0, lsl #2
 3081 0032 D968     		ldr	r1, [r3, #12]
 3082 0034 4B69     		ldr	r3, [r1, #20]
 3083              	.LVL291:
 3084              		.loc 1 546 0
 3085 0036 5868     		ldr	r0, [r3, #4]
 3086              	.LVL292:
 3087 0038 1A69     		ldr	r2, [r3, #16]
 3088 003a 9042     		cmp	r0, r2
 3089 003c 37D3     		bcc	.L320
 3090              		.loc 1 559 0
 3091 003e 3389     		ldrh	r3, [r6, #8]
 3092              	.LVL293:
 3093 0040 D1F80890 		ldr	r9, [r1, #8]
 3094 0044 0122     		movs	r2, #1
 3095 0046 BA40     		lsls	r2, r2, r7
 3096 0048 23EA0203 		bic	r3, r3, r2
 3097 004c 3381     		strh	r3, [r6, #8]	@ movhi
 3098 004e 3946     		mov	r1, r7
 3099              	.LVL294:
 3100 0050 3046     		mov	r0, r6
 3101 0052 C847     		blx	r9
 3102              	.LVL295:
 3103              	.L303:
 3104              	.LBE645:
 3105              		.loc 1 562 0
 3106 0054 2306     		lsls	r3, r4, #24
 3107 0056 06D5     		bpl	.L302
 3108              		.loc 1 563 0
 3109 0058 0123     		movs	r3, #1
 3110 005a D5F83428 		ldr	r2, [r5, #2100]
 3111 005e 03FA07F7 		lsl	r7, r3, r7
 3112              		.loc 1 562 0
 3113 0062 1742     		tst	r7, r2
 3114 0064 07D1     		bne	.L321
 3115              	.L302:
 3116              		.loc 1 571 0
 3117 0066 019A     		ldr	r2, [sp, #4]
 3118 0068 D8F80030 		ldr	r3, [r8]
 3119 006c 9A42     		cmp	r2, r3
 3120 006e 45D1     		bne	.L322
 3121 0070 03B0     		add	sp, sp, #12
 3122              		.cfi_remember_state
 3123              		.cfi_def_cfa_offset 28
 3124              		@ sp needed
 3125 0072 BDE8F083 		pop	{r4, r5, r6, r7, r8, r9, pc}
 3126              	.LVL296:
 3127              	.L321:
 3128              		.cfi_restore_state
 3129              	.LBB662:
 3130              	.LBB663:
 3131              	.LBB664:
 3132              	.LBB665:
 3133              	.LBB666:
 3134              	.LBB667:
 3135              	.LBB668:
ARM GAS  C:\Users\Moi\AppData\Local\Temp\ccOzHcBd.s 			page 56


 3136              		.loc 3 546 0
 3137 0076 2023     		movs	r3, #32
 3138              		.syntax unified
 3139              	@ 546 "..//ChibiOS//os/ext/CMSIS/include/core_cmFunc.h" 1
 3140 0078 83F31188 		MSR basepri, r3
 3141              	@ 0 "" 2
 3142              	.LVL297:
 3143              		.thumb
 3144              		.syntax unified
 3145              	.LBE668:
 3146              	.LBE667:
 3147              	.LBE666:
 3148              	.LBE665:
 3149              		.loc 4 389 0
 3150 007c FFF7FEFF 		bl	_stats_start_measure_crit_isr
 3151              	.LVL298:
 3152              		.loc 4 390 0
 3153 0080 FFF7FEFF 		bl	_dbg_check_lock_from_isr
 3154              	.LVL299:
 3155              	.LBE664:
 3156              	.LBE663:
 3157              	.LBE662:
 3158              		.loc 1 567 0
 3159 0084 D5F83428 		ldr	r2, [r5, #2100]
 3160              		.loc 1 566 0
 3161 0088 F36D     		ldr	r3, [r6, #92]
 3162              	.LBB669:
 3163              	.LBB670:
 3164              		.loc 5 682 0
 3165 008a 1E48     		ldr	r0, .L323+4
 3166              	.LBE670:
 3167              	.LBE669:
 3168              		.loc 1 567 0
 3169 008c 22EA0702 		bic	r2, r2, r7
 3170 0090 C5F83428 		str	r2, [r5, #2100]
 3171              	.LVL300:
 3172              		.loc 1 566 0
 3173 0094 1F43     		orrs	r7, r7, r3
 3174              	.LBB673:
 3175              	.LBB671:
 3176              		.loc 5 682 0
 3177 0096 0021     		movs	r1, #0
 3178              	.LBE671:
 3179              	.LBE673:
 3180              		.loc 1 566 0
 3181 0098 F765     		str	r7, [r6, #92]
 3182              	.LBB674:
 3183              	.LBB672:
 3184              		.loc 5 682 0
 3185 009a FFF7FEFF 		bl	chThdResumeI
 3186              	.LVL301:
 3187              	.LBE672:
 3188              	.LBE674:
 3189              	.LBB675:
 3190              	.LBB676:
 3191              	.LBB677:
 3192              		.loc 4 408 0
ARM GAS  C:\Users\Moi\AppData\Local\Temp\ccOzHcBd.s 			page 57


 3193 009e FFF7FEFF 		bl	_dbg_check_unlock_from_isr
 3194              	.LVL302:
 3195              		.loc 4 409 0
 3196 00a2 FFF7FEFF 		bl	_stats_stop_measure_crit_isr
 3197              	.LVL303:
 3198              	.LBB678:
 3199              	.LBB679:
 3200              	.LBB680:
 3201              	.LBB681:
 3202              		.loc 3 546 0
 3203 00a6 0023     		movs	r3, #0
 3204              		.syntax unified
 3205              	@ 546 "..//ChibiOS//os/ext/CMSIS/include/core_cmFunc.h" 1
 3206 00a8 83F31188 		MSR basepri, r3
 3207              	@ 0 "" 2
 3208              	.LVL304:
 3209              		.thumb
 3210              		.syntax unified
 3211 00ac DBE7     		b	.L302
 3212              	.LVL305:
 3213              	.L320:
 3214              	.LBE681:
 3215              	.LBE680:
 3216              	.LBE679:
 3217              	.LBE678:
 3218              	.LBE677:
 3219              	.LBE676:
 3220              	.LBE675:
 3221              	.LBB682:
 3222              		.loc 1 550 0
 3223 00ae 121A     		subs	r2, r2, r0
 3224              		.loc 1 551 0
 3225 00b0 4FF00009 		mov	r9, #0
 3226 00b4 C3E90129 		strd	r2, r9, [r3, #4]
 3227              		.loc 1 552 0
 3228 00b8 3946     		mov	r1, r7
 3229 00ba 3046     		mov	r0, r6
 3230 00bc FFF7FEFF 		bl	usb_lld_prepare_transmit
 3231              	.LVL306:
 3232              	.LBB646:
 3233              	.LBB647:
 3234              	.LBB648:
 3235              	.LBB649:
 3236              	.LBB650:
 3237              	.LBB651:
 3238              	.LBB652:
 3239              		.loc 3 546 0
 3240 00c0 2023     		movs	r3, #32
 3241              		.syntax unified
 3242              	@ 546 "..//ChibiOS//os/ext/CMSIS/include/core_cmFunc.h" 1
 3243 00c2 83F31188 		MSR basepri, r3
 3244              	@ 0 "" 2
 3245              	.LVL307:
 3246              		.thumb
 3247              		.syntax unified
 3248              	.LBE652:
 3249              	.LBE651:
ARM GAS  C:\Users\Moi\AppData\Local\Temp\ccOzHcBd.s 			page 58


 3250              	.LBE650:
 3251              	.LBE649:
 3252              		.loc 4 389 0
 3253 00c6 FFF7FEFF 		bl	_stats_start_measure_crit_isr
 3254              	.LVL308:
 3255              		.loc 4 390 0
 3256 00ca FFF7FEFF 		bl	_dbg_check_lock_from_isr
 3257              	.LVL309:
 3258              	.LBE648:
 3259              	.LBE647:
 3260              	.LBE646:
 3261              	.LBB653:
 3262              	.LBB654:
 3263              		.loc 1 1227 0
 3264 00ce 326D     		ldr	r2, [r6, #80]
 3265 00d0 02EB4710 		add	r0, r2, r7, lsl #5
 3266              		.loc 1 1228 0
 3267 00d4 0123     		movs	r3, #1
 3268              		.loc 1 1227 0
 3269 00d6 D0F80019 		ldr	r1, [r0, #2304]
 3270 00da 41F00441 		orr	r1, r1, #-2080374784
 3271 00de C0F80019 		str	r1, [r0, #2304]
 3272              		.loc 1 1228 0
 3273 00e2 D2F83418 		ldr	r1, [r2, #2100]
 3274 00e6 BB40     		lsls	r3, r3, r7
 3275 00e8 0B43     		orrs	r3, r3, r1
 3276 00ea C2F83438 		str	r3, [r2, #2100]
 3277              	.LVL310:
 3278              	.LBE654:
 3279              	.LBE653:
 3280              	.LBB655:
 3281              	.LBB656:
 3282              	.LBB657:
 3283              		.loc 4 408 0
 3284 00ee FFF7FEFF 		bl	_dbg_check_unlock_from_isr
 3285              	.LVL311:
 3286              		.loc 4 409 0
 3287 00f2 FFF7FEFF 		bl	_stats_stop_measure_crit_isr
 3288              	.LVL312:
 3289              	.LBB658:
 3290              	.LBB659:
 3291              	.LBB660:
 3292              	.LBB661:
 3293              		.loc 3 546 0
 3294              		.syntax unified
 3295              	@ 546 "..//ChibiOS//os/ext/CMSIS/include/core_cmFunc.h" 1
 3296 00f6 89F31188 		MSR basepri, r9
 3297              	@ 0 "" 2
 3298              	.LVL313:
 3299              		.thumb
 3300              		.syntax unified
 3301 00fa ABE7     		b	.L303
 3302              	.L322:
 3303              	.LBE661:
 3304              	.LBE660:
 3305              	.LBE659:
 3306              	.LBE658:
ARM GAS  C:\Users\Moi\AppData\Local\Temp\ccOzHcBd.s 			page 59


 3307              	.LBE657:
 3308              	.LBE656:
 3309              	.LBE655:
 3310              	.LBE682:
 3311              		.loc 1 571 0
 3312 00fc FFF7FEFF 		bl	__stack_chk_fail
 3313              	.LVL314:
 3314              	.L324:
 3315              		.align	2
 3316              	.L323:
 3317 0100 00000000 		.word	.LANCHOR1
 3318 0104 60000000 		.word	.LANCHOR1+96
 3319 0108 00000000 		.word	__stack_chk_guard
 3320              		.cfi_endproc
 3321              	.LFE299:
 3322              		.size	otg_epin_handler.constprop.8, .-otg_epin_handler.constprop.8
 3323              		.section	.text.Vector14C,"ax",%progbits
 3324              		.align	1
 3325              		.p2align 4,,15
 3326              		.global	Vector14C
 3327              		.syntax unified
 3328              		.thumb
 3329              		.thumb_func
 3330              		.fpu fpv4-sp-d16
 3331              		.type	Vector14C, %function
 3332              	Vector14C:
 3333              	.LFB273:
 3334              		.loc 1 706 0
 3335              		.cfi_startproc
 3336              		@ args = 0, pretend = 0, frame = 8
 3337              		@ frame_needed = 0, uses_anonymous_args = 0
 3338 0000 F0B5     		push	{r4, r5, r6, r7, lr}
 3339              		.cfi_def_cfa_offset 20
 3340              		.cfi_offset 4, -20
 3341              		.cfi_offset 5, -16
 3342              		.cfi_offset 6, -12
 3343              		.cfi_offset 7, -8
 3344              		.cfi_offset 14, -4
 3345 0002 454F     		ldr	r7, .L397
 3346              	.LBB701:
 3347              	.LBB702:
 3348              		.loc 1 624 0
 3349 0004 454D     		ldr	r5, .L397+4
 3350              	.LBE702:
 3351              	.LBE701:
 3352              		.loc 1 706 0
 3353 0006 3B68     		ldr	r3, [r7]
 3354 0008 83B0     		sub	sp, sp, #12
 3355              		.cfi_def_cfa_offset 32
 3356              		.loc 1 706 0
 3357 000a 0193     		str	r3, [sp, #4]
 3358              		.loc 1 708 0
 3359 000c FFF7FEFF 		bl	_stats_increase_irq
 3360              	.LVL315:
 3361 0010 FFF7FEFF 		bl	_dbg_check_enter_isr
 3362              	.LVL316:
 3363              	.LBB723:
ARM GAS  C:\Users\Moi\AppData\Local\Temp\ccOzHcBd.s 			page 60


 3364              	.LBB721:
 3365              		.loc 1 624 0
 3366 0014 2E6D     		ldr	r6, [r5, #80]
 3367              	.LVL317:
 3368              		.loc 1 627 0
 3369 0016 7469     		ldr	r4, [r6, #20]
 3370              	.LVL318:
 3371              		.loc 1 628 0
 3372 0018 B369     		ldr	r3, [r6, #24]
 3373 001a 1C40     		ands	r4, r4, r3
 3374              	.LVL319:
 3375              		.loc 1 632 0
 3376 001c E104     		lsls	r1, r4, #19
 3377              		.loc 1 629 0
 3378 001e 7461     		str	r4, [r6, #20]
 3379              		.loc 1 632 0
 3380 0020 44D4     		bmi	.L386
 3381              	.L327:
 3382              		.loc 1 638 0
 3383 0022 A204     		lsls	r2, r4, #18
 3384              		.loc 1 639 0
 3385 0024 48BF     		it	mi
 3386 0026 D6F80838 		ldrmi	r3, [r6, #2056]
 3387              		.loc 1 643 0
 3388 002a 2307     		lsls	r3, r4, #28
 3389 002c 04D5     		bpl	.L330
 3390              		.loc 1 644 0
 3391 002e 6B68     		ldr	r3, [r5, #4]
 3392 0030 DB68     		ldr	r3, [r3, #12]
 3393 0032 0BB1     		cbz	r3, .L330
 3394 0034 3948     		ldr	r0, .L397+4
 3395 0036 9847     		blx	r3
 3396              	.LVL320:
 3397              	.L330:
 3398              		.loc 1 648 0
 3399 0038 E506     		lsls	r5, r4, #27
 3400 003a 20D4     		bmi	.L387
 3401              	.L331:
 3402              		.loc 1 659 0
 3403 003c 6003     		lsls	r0, r4, #13
 3404              		.loc 1 658 0
 3405 003e D6F81858 		ldr	r5, [r6, #2072]
 3406              	.LVL321:
 3407              		.loc 1 659 0
 3408 0042 07D5     		bpl	.L333
 3409              		.loc 1 660 0
 3410 0044 E907     		lsls	r1, r5, #31
 3411 0046 54D4     		bmi	.L388
 3412              		.loc 1 662 0
 3413 0048 AA07     		lsls	r2, r5, #30
 3414 004a 57D4     		bmi	.L389
 3415              	.L335:
 3416              		.loc 1 664 0
 3417 004c 6B07     		lsls	r3, r5, #29
 3418 004e 5AD4     		bmi	.L390
 3419              	.L336:
 3420              		.loc 1 666 0
ARM GAS  C:\Users\Moi\AppData\Local\Temp\ccOzHcBd.s 			page 61


 3421 0050 2E07     		lsls	r6, r5, #28
 3422              	.LVL322:
 3423 0052 4AD4     		bmi	.L391
 3424              	.L333:
 3425              		.loc 1 675 0
 3426 0054 2403     		lsls	r4, r4, #12
 3427              	.LVL323:
 3428 0056 07D5     		bpl	.L339
 3429              		.loc 1 676 0
 3430 0058 E803     		lsls	r0, r5, #15
 3431 005a 36D4     		bmi	.L392
 3432              		.loc 1 678 0
 3433 005c A903     		lsls	r1, r5, #14
 3434 005e 39D4     		bmi	.L393
 3435              	.L341:
 3436              		.loc 1 680 0
 3437 0060 6A03     		lsls	r2, r5, #13
 3438 0062 3CD4     		bmi	.L394
 3439              	.L342:
 3440              		.loc 1 682 0
 3441 0064 2B03     		lsls	r3, r5, #12
 3442 0066 2CD4     		bmi	.L395
 3443              	.L339:
 3444              	.LVL324:
 3445              	.LBE721:
 3446              	.LBE723:
 3447              		.loc 1 712 0
 3448 0068 FFF7FEFF 		bl	_dbg_check_leave_isr
 3449              	.LVL325:
 3450 006c 019A     		ldr	r2, [sp, #4]
 3451 006e 3B68     		ldr	r3, [r7]
 3452 0070 9A42     		cmp	r2, r3
 3453 0072 4ED1     		bne	.L396
 3454              		.loc 1 713 0
 3455 0074 03B0     		add	sp, sp, #12
 3456              		.cfi_remember_state
 3457              		.cfi_def_cfa_offset 20
 3458              		@ sp needed
 3459 0076 BDE8F040 		pop	{r4, r5, r6, r7, lr}
 3460              		.cfi_restore 14
 3461              		.cfi_restore 7
 3462              		.cfi_restore 6
 3463              		.cfi_restore 5
 3464              		.cfi_restore 4
 3465              		.cfi_def_cfa_offset 0
 3466              		.loc 1 712 0
 3467 007a FFF7FEBF 		b	_port_irq_epilogue
 3468              	.LVL326:
 3469              	.L387:
 3470              		.cfi_restore_state
 3471              	.LBB724:
 3472              	.LBB722:
 3473              	.LBB703:
 3474              	.LBB704:
 3475              	.LBB705:
 3476              	.LBB706:
 3477              	.LBB707:
ARM GAS  C:\Users\Moi\AppData\Local\Temp\ccOzHcBd.s 			page 62


 3478              	.LBB708:
 3479              	.LBB709:
 3480              		.loc 3 546 0
 3481 007e 2023     		movs	r3, #32
 3482              		.syntax unified
 3483              	@ 546 "..//ChibiOS//os/ext/CMSIS/include/core_cmFunc.h" 1
 3484 0080 83F31188 		MSR basepri, r3
 3485              	@ 0 "" 2
 3486              	.LVL327:
 3487              		.thumb
 3488              		.syntax unified
 3489              	.LBE709:
 3490              	.LBE708:
 3491              	.LBE707:
 3492              	.LBE706:
 3493              		.loc 4 389 0
 3494 0084 FFF7FEFF 		bl	_stats_start_measure_crit_isr
 3495              	.LVL328:
 3496              		.loc 4 390 0
 3497 0088 FFF7FEFF 		bl	_dbg_check_lock_from_isr
 3498              	.LVL329:
 3499              	.LBE705:
 3500              	.LBE704:
 3501              	.LBE703:
 3502              		.loc 1 652 0
 3503 008c B369     		ldr	r3, [r6, #24]
 3504              	.LBB710:
 3505              	.LBB711:
 3506              		.loc 5 682 0
 3507 008e 2448     		ldr	r0, .L397+8
 3508              	.LBE711:
 3509              	.LBE710:
 3510              		.loc 1 652 0
 3511 0090 23F01003 		bic	r3, r3, #16
 3512 0094 B361     		str	r3, [r6, #24]
 3513              	.LVL330:
 3514              	.LBB713:
 3515              	.LBB712:
 3516              		.loc 5 682 0
 3517 0096 0021     		movs	r1, #0
 3518 0098 FFF7FEFF 		bl	chThdResumeI
 3519              	.LVL331:
 3520              	.LBE712:
 3521              	.LBE713:
 3522              	.LBB714:
 3523              	.LBB715:
 3524              	.LBB716:
 3525              		.loc 4 408 0
 3526 009c FFF7FEFF 		bl	_dbg_check_unlock_from_isr
 3527              	.LVL332:
 3528              		.loc 4 409 0
 3529 00a0 FFF7FEFF 		bl	_stats_stop_measure_crit_isr
 3530              	.LVL333:
 3531              	.LBB717:
 3532              	.LBB718:
 3533              	.LBB719:
 3534              	.LBB720:
ARM GAS  C:\Users\Moi\AppData\Local\Temp\ccOzHcBd.s 			page 63


 3535              		.loc 3 546 0
 3536 00a4 0023     		movs	r3, #0
 3537              		.syntax unified
 3538              	@ 546 "..//ChibiOS//os/ext/CMSIS/include/core_cmFunc.h" 1
 3539 00a6 83F31188 		MSR basepri, r3
 3540              	@ 0 "" 2
 3541              	.LVL334:
 3542              		.thumb
 3543              		.syntax unified
 3544 00aa C7E7     		b	.L331
 3545              	.L386:
 3546              	.LBE720:
 3547              	.LBE719:
 3548              	.LBE718:
 3549              	.LBE717:
 3550              	.LBE716:
 3551              	.LBE715:
 3552              	.LBE714:
 3553              		.loc 1 633 0
 3554 00ac 2846     		mov	r0, r5
 3555 00ae FFF7FEFF 		bl	_usb_reset
 3556              	.LVL335:
 3557              		.loc 1 634 0
 3558 00b2 6B68     		ldr	r3, [r5, #4]
 3559 00b4 1B68     		ldr	r3, [r3]
 3560 00b6 002B     		cmp	r3, #0
 3561 00b8 B3D0     		beq	.L327
 3562 00ba 0021     		movs	r1, #0
 3563 00bc 2846     		mov	r0, r5
 3564 00be 9847     		blx	r3
 3565              	.LVL336:
 3566 00c0 AFE7     		b	.L327
 3567              	.LVL337:
 3568              	.L395:
 3569              		.loc 1 683 0
 3570 00c2 0320     		movs	r0, #3
 3571 00c4 FFF7FEFF 		bl	otg_epout_handler.constprop.7
 3572              	.LVL338:
 3573 00c8 CEE7     		b	.L339
 3574              	.L392:
 3575              		.loc 1 677 0
 3576 00ca 0020     		movs	r0, #0
 3577 00cc FFF7FEFF 		bl	otg_epout_handler.constprop.7
 3578              	.LVL339:
 3579              		.loc 1 678 0
 3580 00d0 A903     		lsls	r1, r5, #14
 3581 00d2 C5D5     		bpl	.L341
 3582              	.L393:
 3583              		.loc 1 679 0
 3584 00d4 0120     		movs	r0, #1
 3585 00d6 FFF7FEFF 		bl	otg_epout_handler.constprop.7
 3586              	.LVL340:
 3587              		.loc 1 680 0
 3588 00da 6A03     		lsls	r2, r5, #13
 3589 00dc C2D5     		bpl	.L342
 3590              	.L394:
 3591              		.loc 1 681 0
ARM GAS  C:\Users\Moi\AppData\Local\Temp\ccOzHcBd.s 			page 64


 3592 00de 0220     		movs	r0, #2
 3593 00e0 FFF7FEFF 		bl	otg_epout_handler.constprop.7
 3594              	.LVL341:
 3595              		.loc 1 682 0
 3596 00e4 2B03     		lsls	r3, r5, #12
 3597 00e6 BFD5     		bpl	.L339
 3598 00e8 EBE7     		b	.L395
 3599              	.LVL342:
 3600              	.L391:
 3601              		.loc 1 667 0
 3602 00ea 0320     		movs	r0, #3
 3603 00ec FFF7FEFF 		bl	otg_epin_handler.constprop.8
 3604              	.LVL343:
 3605 00f0 B0E7     		b	.L333
 3606              	.LVL344:
 3607              	.L388:
 3608              		.loc 1 661 0
 3609 00f2 0020     		movs	r0, #0
 3610 00f4 FFF7FEFF 		bl	otg_epin_handler.constprop.8
 3611              	.LVL345:
 3612              		.loc 1 662 0
 3613 00f8 AA07     		lsls	r2, r5, #30
 3614 00fa A7D5     		bpl	.L335
 3615              	.L389:
 3616              		.loc 1 663 0
 3617 00fc 0120     		movs	r0, #1
 3618 00fe FFF7FEFF 		bl	otg_epin_handler.constprop.8
 3619              	.LVL346:
 3620              		.loc 1 664 0
 3621 0102 6B07     		lsls	r3, r5, #29
 3622 0104 A4D5     		bpl	.L336
 3623              	.L390:
 3624              		.loc 1 665 0
 3625 0106 0220     		movs	r0, #2
 3626 0108 FFF7FEFF 		bl	otg_epin_handler.constprop.8
 3627              	.LVL347:
 3628              		.loc 1 666 0
 3629 010c 2E07     		lsls	r6, r5, #28
 3630              	.LVL348:
 3631 010e A1D5     		bpl	.L333
 3632 0110 EBE7     		b	.L391
 3633              	.LVL349:
 3634              	.L396:
 3635              	.LBE722:
 3636              	.LBE724:
 3637              		.loc 1 712 0
 3638 0112 FFF7FEFF 		bl	__stack_chk_fail
 3639              	.LVL350:
 3640              	.L398:
 3641 0116 00BF     		.align	2
 3642              	.L397:
 3643 0118 00000000 		.word	__stack_chk_guard
 3644 011c 00000000 		.word	.LANCHOR1
 3645 0120 60000000 		.word	.LANCHOR1+96
 3646              		.cfi_endproc
 3647              	.LFE273:
 3648              		.size	Vector14C, .-Vector14C
ARM GAS  C:\Users\Moi\AppData\Local\Temp\ccOzHcBd.s 			page 65


 3649              		.section	.text.usb_lld_start_out,"ax",%progbits
 3650              		.align	1
 3651              		.p2align 4,,15
 3652              		.global	usb_lld_start_out
 3653              		.syntax unified
 3654              		.thumb
 3655              		.thumb_func
 3656              		.fpu fpv4-sp-d16
 3657              		.type	usb_lld_start_out, %function
 3658              	usb_lld_start_out:
 3659              	.LFB286:
 3660              		.loc 1 1212 0
 3661              		.cfi_startproc
 3662              		@ args = 0, pretend = 0, frame = 8
 3663              		@ frame_needed = 0, uses_anonymous_args = 0
 3664              	.LVL351:
 3665 0000 00B5     		push	{lr}
 3666              		.cfi_def_cfa_offset 4
 3667              		.cfi_offset 14, -4
 3668 0002 036D     		ldr	r3, [r0, #80]
 3669 0004 0A4A     		ldr	r2, .L403
 3670 0006 83B0     		sub	sp, sp, #12
 3671              		.cfi_def_cfa_offset 16
 3672 0008 03EB4111 		add	r1, r3, r1, lsl #5
 3673              	.LVL352:
 3674              		.loc 1 1212 0
 3675 000c 1368     		ldr	r3, [r2]
 3676 000e 0193     		str	r3, [sp, #4]
 3677              		.loc 1 1214 0
 3678 0010 D1F8003B 		ldr	r3, [r1, #2816]
 3679 0014 43F08063 		orr	r3, r3, #67108864
 3680 0018 C1F8003B 		str	r3, [r1, #2816]
 3681              		.loc 1 1215 0
 3682 001c 0199     		ldr	r1, [sp, #4]
 3683 001e 1368     		ldr	r3, [r2]
 3684 0020 9942     		cmp	r1, r3
 3685 0022 02D1     		bne	.L402
 3686 0024 03B0     		add	sp, sp, #12
 3687              		.cfi_remember_state
 3688              		.cfi_def_cfa_offset 4
 3689              		@ sp needed
 3690 0026 5DF804FB 		ldr	pc, [sp], #4
 3691              	.L402:
 3692              		.cfi_restore_state
 3693 002a FFF7FEFF 		bl	__stack_chk_fail
 3694              	.LVL353:
 3695              	.L404:
 3696 002e 00BF     		.align	2
 3697              	.L403:
 3698 0030 00000000 		.word	__stack_chk_guard
 3699              		.cfi_endproc
 3700              	.LFE286:
 3701              		.size	usb_lld_start_out, .-usb_lld_start_out
 3702              		.section	.text.usb_lld_start_in,"ax",%progbits
 3703              		.align	1
 3704              		.p2align 4,,15
 3705              		.global	usb_lld_start_in
ARM GAS  C:\Users\Moi\AppData\Local\Temp\ccOzHcBd.s 			page 66


 3706              		.syntax unified
 3707              		.thumb
 3708              		.thumb_func
 3709              		.fpu fpv4-sp-d16
 3710              		.type	usb_lld_start_in, %function
 3711              	usb_lld_start_in:
 3712              	.LFB287:
 3713              		.loc 1 1225 0
 3714              		.cfi_startproc
 3715              		@ args = 0, pretend = 0, frame = 8
 3716              		@ frame_needed = 0, uses_anonymous_args = 0
 3717              	.LVL354:
 3718 0000 30B5     		push	{r4, r5, lr}
 3719              		.cfi_def_cfa_offset 12
 3720              		.cfi_offset 4, -12
 3721              		.cfi_offset 5, -8
 3722              		.cfi_offset 14, -4
 3723              		.loc 1 1227 0
 3724 0002 026D     		ldr	r2, [r0, #80]
 3725              		.loc 1 1225 0
 3726 0004 0D4C     		ldr	r4, .L409
 3727 0006 83B0     		sub	sp, sp, #12
 3728              		.cfi_def_cfa_offset 24
 3729              		.loc 1 1225 0
 3730 0008 2368     		ldr	r3, [r4]
 3731 000a 0193     		str	r3, [sp, #4]
 3732 000c 02EB4115 		add	r5, r2, r1, lsl #5
 3733              		.loc 1 1228 0
 3734 0010 0123     		movs	r3, #1
 3735              		.loc 1 1227 0
 3736 0012 D5F80009 		ldr	r0, [r5, #2304]
 3737              	.LVL355:
 3738 0016 40F00440 		orr	r0, r0, #-2080374784
 3739 001a C5F80009 		str	r0, [r5, #2304]
 3740              		.loc 1 1228 0
 3741 001e D2F83408 		ldr	r0, [r2, #2100]
 3742 0022 03FA01F1 		lsl	r1, r3, r1
 3743              	.LVL356:
 3744 0026 0143     		orrs	r1, r1, r0
 3745 0028 C2F83418 		str	r1, [r2, #2100]
 3746              		.loc 1 1229 0
 3747 002c 019A     		ldr	r2, [sp, #4]
 3748 002e 2368     		ldr	r3, [r4]
 3749 0030 9A42     		cmp	r2, r3
 3750 0032 01D1     		bne	.L408
 3751 0034 03B0     		add	sp, sp, #12
 3752              		.cfi_remember_state
 3753              		.cfi_def_cfa_offset 12
 3754              		@ sp needed
 3755 0036 30BD     		pop	{r4, r5, pc}
 3756              	.L408:
 3757              		.cfi_restore_state
 3758 0038 FFF7FEFF 		bl	__stack_chk_fail
 3759              	.LVL357:
 3760              	.L410:
 3761              		.align	2
 3762              	.L409:
ARM GAS  C:\Users\Moi\AppData\Local\Temp\ccOzHcBd.s 			page 67


 3763 003c 00000000 		.word	__stack_chk_guard
 3764              		.cfi_endproc
 3765              	.LFE287:
 3766              		.size	usb_lld_start_in, .-usb_lld_start_in
 3767              		.section	.text.usb_lld_stall_out,"ax",%progbits
 3768              		.align	1
 3769              		.p2align 4,,15
 3770              		.global	usb_lld_stall_out
 3771              		.syntax unified
 3772              		.thumb
 3773              		.thumb_func
 3774              		.fpu fpv4-sp-d16
 3775              		.type	usb_lld_stall_out, %function
 3776              	usb_lld_stall_out:
 3777              	.LFB288:
 3778              		.loc 1 1239 0
 3779              		.cfi_startproc
 3780              		@ args = 0, pretend = 0, frame = 8
 3781              		@ frame_needed = 0, uses_anonymous_args = 0
 3782              	.LVL358:
 3783 0000 00B5     		push	{lr}
 3784              		.cfi_def_cfa_offset 4
 3785              		.cfi_offset 14, -4
 3786 0002 036D     		ldr	r3, [r0, #80]
 3787 0004 0A4A     		ldr	r2, .L415
 3788 0006 83B0     		sub	sp, sp, #12
 3789              		.cfi_def_cfa_offset 16
 3790 0008 03EB4111 		add	r1, r3, r1, lsl #5
 3791              	.LVL359:
 3792              		.loc 1 1239 0
 3793 000c 1368     		ldr	r3, [r2]
 3794 000e 0193     		str	r3, [sp, #4]
 3795              		.loc 1 1241 0
 3796 0010 D1F8003B 		ldr	r3, [r1, #2816]
 3797 0014 43F40013 		orr	r3, r3, #2097152
 3798 0018 C1F8003B 		str	r3, [r1, #2816]
 3799              		.loc 1 1242 0
 3800 001c 0199     		ldr	r1, [sp, #4]
 3801 001e 1368     		ldr	r3, [r2]
 3802 0020 9942     		cmp	r1, r3
 3803 0022 02D1     		bne	.L414
 3804 0024 03B0     		add	sp, sp, #12
 3805              		.cfi_remember_state
 3806              		.cfi_def_cfa_offset 4
 3807              		@ sp needed
 3808 0026 5DF804FB 		ldr	pc, [sp], #4
 3809              	.L414:
 3810              		.cfi_restore_state
 3811 002a FFF7FEFF 		bl	__stack_chk_fail
 3812              	.LVL360:
 3813              	.L416:
 3814 002e 00BF     		.align	2
 3815              	.L415:
 3816 0030 00000000 		.word	__stack_chk_guard
 3817              		.cfi_endproc
 3818              	.LFE288:
 3819              		.size	usb_lld_stall_out, .-usb_lld_stall_out
ARM GAS  C:\Users\Moi\AppData\Local\Temp\ccOzHcBd.s 			page 68


 3820              		.section	.text.usb_lld_stall_in,"ax",%progbits
 3821              		.align	1
 3822              		.p2align 4,,15
 3823              		.global	usb_lld_stall_in
 3824              		.syntax unified
 3825              		.thumb
 3826              		.thumb_func
 3827              		.fpu fpv4-sp-d16
 3828              		.type	usb_lld_stall_in, %function
 3829              	usb_lld_stall_in:
 3830              	.LFB289:
 3831              		.loc 1 1252 0
 3832              		.cfi_startproc
 3833              		@ args = 0, pretend = 0, frame = 8
 3834              		@ frame_needed = 0, uses_anonymous_args = 0
 3835              	.LVL361:
 3836 0000 00B5     		push	{lr}
 3837              		.cfi_def_cfa_offset 4
 3838              		.cfi_offset 14, -4
 3839 0002 036D     		ldr	r3, [r0, #80]
 3840 0004 0A4A     		ldr	r2, .L421
 3841 0006 83B0     		sub	sp, sp, #12
 3842              		.cfi_def_cfa_offset 16
 3843 0008 03EB4111 		add	r1, r3, r1, lsl #5
 3844              	.LVL362:
 3845              		.loc 1 1252 0
 3846 000c 1368     		ldr	r3, [r2]
 3847 000e 0193     		str	r3, [sp, #4]
 3848              		.loc 1 1254 0
 3849 0010 D1F80039 		ldr	r3, [r1, #2304]
 3850 0014 43F40013 		orr	r3, r3, #2097152
 3851 0018 C1F80039 		str	r3, [r1, #2304]
 3852              		.loc 1 1255 0
 3853 001c 0199     		ldr	r1, [sp, #4]
 3854 001e 1368     		ldr	r3, [r2]
 3855 0020 9942     		cmp	r1, r3
 3856 0022 02D1     		bne	.L420
 3857 0024 03B0     		add	sp, sp, #12
 3858              		.cfi_remember_state
 3859              		.cfi_def_cfa_offset 4
 3860              		@ sp needed
 3861 0026 5DF804FB 		ldr	pc, [sp], #4
 3862              	.L420:
 3863              		.cfi_restore_state
 3864 002a FFF7FEFF 		bl	__stack_chk_fail
 3865              	.LVL363:
 3866              	.L422:
 3867 002e 00BF     		.align	2
 3868              	.L421:
 3869 0030 00000000 		.word	__stack_chk_guard
 3870              		.cfi_endproc
 3871              	.LFE289:
 3872              		.size	usb_lld_stall_in, .-usb_lld_stall_in
 3873              		.section	.text.usb_lld_clear_out,"ax",%progbits
 3874              		.align	1
 3875              		.p2align 4,,15
 3876              		.global	usb_lld_clear_out
ARM GAS  C:\Users\Moi\AppData\Local\Temp\ccOzHcBd.s 			page 69


 3877              		.syntax unified
 3878              		.thumb
 3879              		.thumb_func
 3880              		.fpu fpv4-sp-d16
 3881              		.type	usb_lld_clear_out, %function
 3882              	usb_lld_clear_out:
 3883              	.LFB290:
 3884              		.loc 1 1265 0
 3885              		.cfi_startproc
 3886              		@ args = 0, pretend = 0, frame = 8
 3887              		@ frame_needed = 0, uses_anonymous_args = 0
 3888              	.LVL364:
 3889 0000 00B5     		push	{lr}
 3890              		.cfi_def_cfa_offset 4
 3891              		.cfi_offset 14, -4
 3892 0002 036D     		ldr	r3, [r0, #80]
 3893 0004 0A4A     		ldr	r2, .L427
 3894 0006 83B0     		sub	sp, sp, #12
 3895              		.cfi_def_cfa_offset 16
 3896 0008 03EB4111 		add	r1, r3, r1, lsl #5
 3897              	.LVL365:
 3898              		.loc 1 1265 0
 3899 000c 1368     		ldr	r3, [r2]
 3900 000e 0193     		str	r3, [sp, #4]
 3901              		.loc 1 1267 0
 3902 0010 D1F8003B 		ldr	r3, [r1, #2816]
 3903 0014 23F40013 		bic	r3, r3, #2097152
 3904 0018 C1F8003B 		str	r3, [r1, #2816]
 3905              		.loc 1 1268 0
 3906 001c 0199     		ldr	r1, [sp, #4]
 3907 001e 1368     		ldr	r3, [r2]
 3908 0020 9942     		cmp	r1, r3
 3909 0022 02D1     		bne	.L426
 3910 0024 03B0     		add	sp, sp, #12
 3911              		.cfi_remember_state
 3912              		.cfi_def_cfa_offset 4
 3913              		@ sp needed
 3914 0026 5DF804FB 		ldr	pc, [sp], #4
 3915              	.L426:
 3916              		.cfi_restore_state
 3917 002a FFF7FEFF 		bl	__stack_chk_fail
 3918              	.LVL366:
 3919              	.L428:
 3920 002e 00BF     		.align	2
 3921              	.L427:
 3922 0030 00000000 		.word	__stack_chk_guard
 3923              		.cfi_endproc
 3924              	.LFE290:
 3925              		.size	usb_lld_clear_out, .-usb_lld_clear_out
 3926              		.section	.text.usb_lld_clear_in,"ax",%progbits
 3927              		.align	1
 3928              		.p2align 4,,15
 3929              		.global	usb_lld_clear_in
 3930              		.syntax unified
 3931              		.thumb
 3932              		.thumb_func
 3933              		.fpu fpv4-sp-d16
ARM GAS  C:\Users\Moi\AppData\Local\Temp\ccOzHcBd.s 			page 70


 3934              		.type	usb_lld_clear_in, %function
 3935              	usb_lld_clear_in:
 3936              	.LFB291:
 3937              		.loc 1 1278 0
 3938              		.cfi_startproc
 3939              		@ args = 0, pretend = 0, frame = 8
 3940              		@ frame_needed = 0, uses_anonymous_args = 0
 3941              	.LVL367:
 3942 0000 00B5     		push	{lr}
 3943              		.cfi_def_cfa_offset 4
 3944              		.cfi_offset 14, -4
 3945 0002 036D     		ldr	r3, [r0, #80]
 3946 0004 0A4A     		ldr	r2, .L433
 3947 0006 83B0     		sub	sp, sp, #12
 3948              		.cfi_def_cfa_offset 16
 3949 0008 03EB4111 		add	r1, r3, r1, lsl #5
 3950              	.LVL368:
 3951              		.loc 1 1278 0
 3952 000c 1368     		ldr	r3, [r2]
 3953 000e 0193     		str	r3, [sp, #4]
 3954              		.loc 1 1280 0
 3955 0010 D1F80039 		ldr	r3, [r1, #2304]
 3956 0014 23F40013 		bic	r3, r3, #2097152
 3957 0018 C1F80039 		str	r3, [r1, #2304]
 3958              		.loc 1 1281 0
 3959 001c 0199     		ldr	r1, [sp, #4]
 3960 001e 1368     		ldr	r3, [r2]
 3961 0020 9942     		cmp	r1, r3
 3962 0022 02D1     		bne	.L432
 3963 0024 03B0     		add	sp, sp, #12
 3964              		.cfi_remember_state
 3965              		.cfi_def_cfa_offset 4
 3966              		@ sp needed
 3967 0026 5DF804FB 		ldr	pc, [sp], #4
 3968              	.L432:
 3969              		.cfi_restore_state
 3970 002a FFF7FEFF 		bl	__stack_chk_fail
 3971              	.LVL369:
 3972              	.L434:
 3973 002e 00BF     		.align	2
 3974              	.L433:
 3975 0030 00000000 		.word	__stack_chk_guard
 3976              		.cfi_endproc
 3977              	.LFE291:
 3978              		.size	usb_lld_clear_in, .-usb_lld_clear_in
 3979              		.global	USBD1
 3980              		.section	.bss.USBD1,"aw",%nobits
 3981              		.align	3
 3982              		.set	.LANCHOR1,. + 0
 3983              		.type	USBD1, %object
 3984              		.size	USBD1, 608
 3985              	USBD1:
 3986 0000 00000000 		.space	608
 3986      00000000 
 3986      00000000 
 3986      00000000 
 3986      00000000 
ARM GAS  C:\Users\Moi\AppData\Local\Temp\ccOzHcBd.s 			page 71


 3987              		.section	.bss.ep0_state,"aw",%nobits
 3988              		.align	2
 3989              		.type	ep0_state, %object
 3990              		.size	ep0_state, 20
 3991              	ep0_state:
 3992 0000 00000000 		.space	20
 3992      00000000 
 3992      00000000 
 3992      00000000 
 3992      00000000 
 3993              		.section	.bss.ep0setup_buffer,"aw",%nobits
 3994              		.align	2
 3995              		.type	ep0setup_buffer, %object
 3996              		.size	ep0setup_buffer, 8
 3997              	ep0setup_buffer:
 3998 0000 00000000 		.space	8
 3998      00000000 
 3999              		.section	.rodata.__func__.10294,"a",%progbits
 4000              		.align	2
 4001              		.set	.LANCHOR5,. + 0
 4002              		.type	__func__.10294, %object
 4003              		.size	__func__.10294, 14
 4004              	__func__.10294:
 4005 0000 6F74675F 		.ascii	"otg_ram_alloc\000"
 4005      72616D5F 
 4005      616C6C6F 
 4005      6300
 4006              		.section	.rodata.__func__.7554,"a",%progbits
 4007              		.align	2
 4008              		.set	.LANCHOR0,. + 0
 4009              		.type	__func__.7554, %object
 4010              		.size	__func__.7554, 12
 4011              	__func__.7554:
 4012 0000 63685379 		.ascii	"chSysUnlock\000"
 4012      73556E6C 
 4012      6F636B00 
 4013              		.section	.rodata.__func__.7721,"a",%progbits
 4014              		.align	2
 4015              		.set	.LANCHOR3,. + 0
 4016              		.type	__func__.7721, %object
 4017              		.size	__func__.7721, 12
 4018              	__func__.7721:
 4019 0000 63685468 		.ascii	"chThdStartI\000"
 4019      64537461 
 4019      72744900 
 4020              		.section	.rodata.ep0config,"a",%progbits
 4021              		.align	2
 4022              		.set	.LANCHOR4,. + 0
 4023              		.type	ep0config, %object
 4024              		.size	ep0config, 36
 4025              	ep0config:
 4026 0000 00000000 		.word	0
 4027 0004 00000000 		.word	_usb_ep0setup
 4028 0008 00000000 		.word	_usb_ep0in
 4029 000c 00000000 		.word	_usb_ep0out
 4030 0010 4000     		.short	64
 4031 0012 4000     		.short	64
ARM GAS  C:\Users\Moi\AppData\Local\Temp\ccOzHcBd.s 			page 72


 4032 0014 00000000 		.word	ep0_state
 4033 0018 00000000 		.word	ep0_state
 4034 001c 0100     		.short	1
 4035 001e 0000     		.space	2
 4036 0020 00000000 		.word	ep0setup_buffer
 4037              		.section	.rodata.fsparams,"a",%progbits
 4038              		.align	2
 4039              		.set	.LANCHOR2,. + 0
 4040              		.type	fsparams, %object
 4041              		.size	fsparams, 12
 4042              	fsparams:
 4043 0000 80000000 		.word	128
 4044 0004 40010000 		.word	320
 4045 0008 03000000 		.word	3
 4046              		.section	.rodata.usb_lld_pump.str1.4,"aMS",%progbits,1
 4047              		.align	2
 4048              	.LC0:
 4049 0000 7573625F 		.ascii	"usb_lld_pump\000"
 4049      6C6C645F 
 4049      70756D70 
 4049      00
 4050              		.text
 4051              	.Letext0:
 4052              		.file 7 "c:\\users\\moi\\documents\\_microinfo\\epuck-eclipse\\tools\\gcc-arm-none-eabi-7-2017-q4-
 4053              		.file 8 "c:\\users\\moi\\documents\\_microinfo\\epuck-eclipse\\tools\\gcc-arm-none-eabi-7-2017-q4-
 4054              		.file 9 "c:\\users\\moi\\documents\\_microinfo\\epuck-eclipse\\tools\\gcc-arm-none-eabi-7-2017-q4-
 4055              		.file 10 "c:\\users\\moi\\documents\\_microinfo\\epuck-eclipse\\tools\\gcc-arm-none-eabi-7-2017-q4
 4056              		.file 11 "c:\\users\\moi\\documents\\_microinfo\\epuck-eclipse\\tools\\gcc-arm-none-eabi-7-2017-q4
 4057              		.file 12 "c:\\users\\moi\\documents\\_microinfo\\epuck-eclipse\\tools\\gcc-arm-none-eabi-7-2017-q4
 4058              		.file 13 "..//ChibiOS//os/rt/ports/ARMCMx/compilers/GCC/chtypes.h"
 4059              		.file 14 "..//ChibiOS//os/rt/include/chsystypes.h"
 4060              		.file 15 "..//ChibiOS//os/rt/include/chschd.h"
 4061              		.file 16 "..//ChibiOS//os/ext/CMSIS/include/core_cm4.h"
 4062              		.file 17 "..//ChibiOS//os/ext/CMSIS/ST/system_stm32f4xx.h"
 4063              		.file 18 "..//ChibiOS//os/ext/CMSIS/ST/stm32f407xx.h"
 4064              		.file 19 "..//ChibiOS//os/rt/ports/ARMCMx/chcore.h"
 4065              		.file 20 "..//ChibiOS//os/rt/ports/ARMCMx/chcore_v7m.h"
 4066              		.file 21 "..//ChibiOS//os/rt/include/chdebug.h"
 4067              		.file 22 "..//ChibiOS//os/rt/include/chtm.h"
 4068              		.file 23 "..//ChibiOS//os/rt/include/chstats.h"
 4069              		.file 24 "..//ChibiOS//os/rt/include/chsem.h"
 4070              		.file 25 "..//ChibiOS//os/rt/include/chmtx.h"
 4071              		.file 26 "..//ChibiOS//os/rt/include/chevents.h"
 4072              		.file 27 "..//ChibiOS//os/rt/include/chqueues.h"
 4073              		.file 28 "..//ChibiOS//os/hal/ports/STM32/STM32F4xx/stm32_dma.h"
 4074              		.file 29 "..//ChibiOS//os/hal/include/hal_ioblock.h"
 4075              		.file 30 "..//ChibiOS//os/hal/ports/STM32/LLD/GPIOv2/pal_lld.h"
 4076              		.file 31 "..//ChibiOS//os/hal/include/adc.h"
 4077              		.file 32 "..//ChibiOS//os/hal/ports/STM32/STM32F4xx/adc_lld.h"
 4078              		.file 33 "..//ChibiOS//os/hal/include/can.h"
 4079              		.file 34 "..//ChibiOS//os/hal/ports/STM32/LLD/can_lld.h"
 4080              		.file 35 "..//ChibiOS//os/hal/include/dac.h"
 4081              		.file 36 "..//ChibiOS//os/hal/ports/STM32/LLD/DACv1/dac_lld.h"
 4082              		.file 37 "..//ChibiOS//os/hal/include/ext.h"
 4083              		.file 38 "..//ChibiOS//os/hal/ports/STM32/LLD/ext_lld.h"
 4084              		.file 39 "..//ChibiOS//os/hal/include/gpt.h"
 4085              		.file 40 "..//ChibiOS//os/hal/ports/STM32/LLD/TIMv1/gpt_lld.h"
ARM GAS  C:\Users\Moi\AppData\Local\Temp\ccOzHcBd.s 			page 73


 4086              		.file 41 "..//ChibiOS//os/hal/ports/STM32/LLD/TIMv1/stm32_tim.h"
 4087              		.file 42 "..//ChibiOS//os/hal/include/i2c.h"
 4088              		.file 43 "..//ChibiOS//os/hal/ports/STM32/LLD/I2Cv1/i2c_lld.h"
 4089              		.file 44 "..//ChibiOS//os/hal/include/i2s.h"
 4090              		.file 45 "..//ChibiOS//os/hal/ports/STM32/LLD/SPIv1/i2s_lld.h"
 4091              		.file 46 "..//ChibiOS//os/hal/include/pwm.h"
 4092              		.file 47 "..//ChibiOS//os/hal/ports/STM32/LLD/TIMv1/pwm_lld.h"
 4093              		.file 48 "..//ChibiOS//os/hal/include/serial.h"
 4094              		.file 49 "..//ChibiOS//os/hal/ports/STM32/LLD/USARTv1/serial_lld.h"
 4095              		.file 50 "..//ChibiOS//os/hal/include/sdc.h"
 4096              		.file 51 "..//ChibiOS//os/hal/ports/STM32/LLD/sdc_lld.h"
 4097              		.file 52 "..//ChibiOS//os/hal/include/spi.h"
 4098              		.file 53 "..//ChibiOS//os/hal/ports/STM32/LLD/SPIv1/spi_lld.h"
 4099              		.file 54 "..//ChibiOS//os/hal/include/usb.h"
 4100              		.file 55 "..//ChibiOS//os/hal/ports/STM32/LLD/OTGv1/usb_lld.h"
 4101              		.file 56 "..//ChibiOS//os/hal/ports/STM32/LLD/OTGv1/stm32_otg.h"
 4102              		.file 57 "..//ChibiOS//os/hal/ports/common/ARMCMx/nvic.h"