ARM GAS  C:\Users\Moi\AppData\Local\Temp\ccWeMAis.s 			page 1


   1              		.cpu cortex-m4
   2              		.eabi_attribute 27, 1
   3              		.eabi_attribute 28, 1
   4              		.eabi_attribute 20, 1
   5              		.eabi_attribute 21, 1
   6              		.eabi_attribute 23, 3
   7              		.eabi_attribute 24, 1
   8              		.eabi_attribute 25, 1
   9              		.eabi_attribute 26, 1
  10              		.eabi_attribute 30, 2
  11              		.eabi_attribute 34, 1
  12              		.eabi_attribute 18, 4
  13              		.file	"vl53l0x_api_calibration.c"
  14              		.text
  15              	.Ltext0:
  16              		.cfi_sections	.debug_frame
  17              		.section	.text.VL53L0X_perform_xtalk_calibration,"ax",%progbits
  18              		.align	1
  19              		.p2align 4,,15
  20              		.global	VL53L0X_perform_xtalk_calibration
  21              		.syntax unified
  22              		.thumb
  23              		.thumb_func
  24              		.fpu fpv4-sp-d16
  25              		.type	VL53L0X_perform_xtalk_calibration, %function
  26              	VL53L0X_perform_xtalk_calibration:
  27              	.LFB3:
  28              		.file 1 "..//src/sensors/VL53L0X/Api/core/src/vl53l0x_api_calibration.c"
  29              		.loc 1 54 0
  30              		.cfi_startproc
  31              		@ args = 0, pretend = 0, frame = 40
  32              		@ frame_needed = 0, uses_anonymous_args = 0
  33              	.LVL0:
  34 0000 2DE9F04F 		push	{r4, r5, r6, r7, r8, r9, r10, fp, lr}
  35              		.cfi_def_cfa_offset 36
  36              		.cfi_offset 4, -36
  37              		.cfi_offset 5, -32
  38              		.cfi_offset 6, -28
  39              		.cfi_offset 7, -24
  40              		.cfi_offset 8, -20
  41              		.cfi_offset 9, -16
  42              		.cfi_offset 10, -12
  43              		.cfi_offset 11, -8
  44              		.cfi_offset 14, -4
  45 0004 DFF8EC90 		ldr	r9, .L27
  46 0008 8BB0     		sub	sp, sp, #44
  47              		.cfi_def_cfa_offset 80
  48              		.loc 1 54 0
  49 000a D9F80030 		ldr	r3, [r9]
  50 000e 0993     		str	r3, [sp, #36]
  51              	.LVL1:
  52 0010 0192     		str	r2, [sp, #4]
  53              		.loc 1 70 0
  54 0012 49B9     		cbnz	r1, .L22
  55              		.loc 1 71 0
  56 0014 6FF00300 		mvn	r0, #3
  57              	.LVL2:
ARM GAS  C:\Users\Moi\AppData\Local\Temp\ccWeMAis.s 			page 2


  58              	.L2:
  59              		.loc 1 188 0
  60 0018 099A     		ldr	r2, [sp, #36]
  61 001a D9F80030 		ldr	r3, [r9]
  62 001e 9A42     		cmp	r2, r3
  63 0020 66D1     		bne	.L23
  64 0022 0BB0     		add	sp, sp, #44
  65              		.cfi_remember_state
  66              		.cfi_def_cfa_offset 36
  67              		@ sp needed
  68 0024 BDE8F08F 		pop	{r4, r5, r6, r7, r8, r9, r10, fp, pc}
  69              	.LVL3:
  70              	.L22:
  71              		.cfi_restore_state
  72 0028 8A46     		mov	r10, r1
  73              		.loc 1 75 0
  74 002a 0021     		movs	r1, #0
  75              	.LVL4:
  76 002c 0646     		mov	r6, r0
  77 002e FFF7FEFF 		bl	VL53L0X_SetXTalkCompensationEnable
  78              	.LVL5:
  79              		.loc 1 78 0
  80 0032 0028     		cmp	r0, #0
  81 0034 F0D1     		bne	.L2
  82              		.loc 1 79 0
  83 0036 0246     		mov	r2, r0
  84 0038 0321     		movs	r1, #3
  85 003a 3046     		mov	r0, r6
  86              	.LVL6:
  87 003c FFF7FEFF 		bl	VL53L0X_SetLimitCheckEnable
  88              	.LVL7:
  89              		.loc 1 84 0
  90 0040 0028     		cmp	r0, #0
  91 0042 E9D1     		bne	.L2
  92              		.loc 1 88 0
  93 0044 0546     		mov	r5, r0
  94              		.loc 1 87 0
  95 0046 8046     		mov	r8, r0
  96              		.loc 1 86 0
  97 0048 0446     		mov	r4, r0
  98              		.loc 1 85 0
  99 004a 0746     		mov	r7, r0
 100 004c 4FF0320B 		mov	fp, #50
 101 0050 13E0     		b	.L5
 102              	.LVL8:
 103              	.L25:
 104              		.loc 1 97 0
 105 0052 9DF82020 		ldrb	r2, [sp, #32]	@ zero_extendqisi2
 106 0056 5AB9     		cbnz	r2, .L4
 107              		.loc 1 98 0
 108 0058 BDF81000 		ldrh	r0, [sp, #16]
 109              	.LVL9:
 110              		.loc 1 102 0
 111 005c BDF81C20 		ldrh	r2, [sp, #28]
 112              		.loc 1 100 0
 113 0060 0599     		ldr	r1, [sp, #20]
 114              		.loc 1 98 0
ARM GAS  C:\Users\Moi\AppData\Local\Temp\ccWeMAis.s 			page 3


 115 0062 0744     		add	r7, r7, r0
 116              	.LVL10:
 117              		.loc 1 102 0
 118 0064 04EB1224 		add	r4, r4, r2, lsr #8
 119              	.LVL11:
 120              		.loc 1 105 0
 121 0068 0135     		adds	r5, r5, #1
 122              	.LVL12:
 123              		.loc 1 98 0
 124 006a BFB2     		uxth	r7, r7
 125              	.LVL13:
 126              		.loc 1 102 0
 127 006c A4B2     		uxth	r4, r4
 128              		.loc 1 100 0
 129 006e 8844     		add	r8, r8, r1
 130              	.LVL14:
 131              	.L4:
 132 0070 0BF1FF31 		add	r1, fp, #-1
 133              		.loc 1 89 0 discriminator 2
 134 0074 11F0FF0B 		ands	fp, r1, #255
 135              	.LVL15:
 136 0078 0AD0     		beq	.L24
 137              	.LVL16:
 138              	.L5:
 139              		.loc 1 90 0
 140 007a 02A9     		add	r1, sp, #8
 141 007c 3046     		mov	r0, r6
 142 007e FFF7FEFF 		bl	VL53L0X_PerformSingleRangingMeasurement
 143              	.LVL17:
 144              		.loc 1 93 0
 145 0082 0028     		cmp	r0, #0
 146 0084 E5D0     		beq	.L25
 147              		.loc 1 111 0
 148 0086 002D     		cmp	r5, #0
 149 0088 08BF     		it	eq
 150 008a 6FF00500 		mvneq	r0, #5
 151              	.LVL18:
 152 008e C3E7     		b	.L2
 153              	.LVL19:
 154              	.L24:
 155              		.loc 1 110 0
 156 0090 15B9     		cbnz	r5, .L26
 157              		.loc 1 111 0
 158 0092 6FF00500 		mvn	r0, #5
 159 0096 BFE7     		b	.L2
 160              	.L26:
 161              	.LVL20:
 162              		.loc 1 122 0
 163 0098 2404     		lsls	r4, r4, #16
 164              	.LVL21:
 165              		.loc 1 121 0
 166 009a B4FBF5F4 		udiv	r4, r4, r5
 167              		.loc 1 135 0
 168 009e 04F50044 		add	r4, r4, #32768
 169              	.LVL22:
 170              		.loc 1 143 0
 171 00a2 240C     		lsrs	r4, r4, #16
ARM GAS  C:\Users\Moi\AppData\Local\Temp\ccWeMAis.s 			page 4


 172              	.LVL23:
 173 00a4 22D0     		beq	.L14
 174              		.loc 1 141 0 discriminator 1
 175 00a6 0AF50042 		add	r2, r10, #32768
 176              	.LVL24:
 177              		.loc 1 143 0 discriminator 1
 178 00aa 120C     		lsrs	r2, r2, #16
 179              	.LVL25:
 180 00ac 1ED0     		beq	.L14
 181              		.loc 1 120 0
 182 00ae 3F04     		lsls	r7, r7, #16
 183              	.LVL26:
 184              		.loc 1 119 0
 185 00b0 B7FBF5F7 		udiv	r7, r7, r5
 186              		.loc 1 144 0
 187 00b4 BA45     		cmp	r10, r7
 188 00b6 19D9     		bls	.L14
 189              		.loc 1 167 0
 190 00b8 B7FBF2F2 		udiv	r2, r7, r2
 191              		.loc 1 118 0
 192 00bc B8FBF5F3 		udiv	r3, r8, r5
 193              	.LVL27:
 194              		.loc 1 166 0
 195 00c0 C2F58032 		rsb	r2, r2, #65536
 196              		.loc 1 158 0
 197 00c4 B3FBF4F3 		udiv	r3, r3, r4
 198              	.LVL28:
 199              		.loc 1 166 0
 200 00c8 03FB02F3 		mul	r3, r3, r2
 201              	.LVL29:
 202              		.loc 1 171 0
 203 00cc 03F50043 		add	r3, r3, #32768
 204              		.loc 1 170 0
 205 00d0 1C0C     		lsrs	r4, r3, #16
 206              	.LVL30:
 207              	.L7:
 208              		.loc 1 174 0
 209 00d2 019B     		ldr	r3, [sp, #4]
 210              		.loc 1 178 0
 211 00d4 0121     		movs	r1, #1
 212              		.loc 1 174 0
 213 00d6 1C60     		str	r4, [r3]
 214              		.loc 1 178 0
 215 00d8 3046     		mov	r0, r6
 216 00da FFF7FEFF 		bl	VL53L0X_SetXTalkCompensationEnable
 217              	.LVL31:
 218              		.loc 1 181 0
 219 00de 0028     		cmp	r0, #0
 220 00e0 9AD1     		bne	.L2
 221              		.loc 1 182 0
 222 00e2 2146     		mov	r1, r4
 223 00e4 3046     		mov	r0, r6
 224              	.LVL32:
 225 00e6 FFF7FEFF 		bl	VL53L0X_SetXTalkCompensationRateMegaCps
 226              	.LVL33:
 227 00ea 95E7     		b	.L2
 228              	.LVL34:
ARM GAS  C:\Users\Moi\AppData\Local\Temp\ccWeMAis.s 			page 5


 229              	.L14:
 230              		.loc 1 146 0
 231 00ec 5C46     		mov	r4, fp
 232              	.LVL35:
 233 00ee F0E7     		b	.L7
 234              	.LVL36:
 235              	.L23:
 236              		.loc 1 188 0
 237 00f0 FFF7FEFF 		bl	__stack_chk_fail
 238              	.LVL37:
 239              	.L28:
 240              		.align	2
 241              	.L27:
 242 00f4 00000000 		.word	__stack_chk_guard
 243              		.cfi_endproc
 244              	.LFE3:
 245              		.size	VL53L0X_perform_xtalk_calibration, .-VL53L0X_perform_xtalk_calibration
 246              		.section	.text.VL53L0X_perform_offset_calibration,"ax",%progbits
 247              		.align	1
 248              		.p2align 4,,15
 249              		.global	VL53L0X_perform_offset_calibration
 250              		.syntax unified
 251              		.thumb
 252              		.thumb_func
 253              		.fpu fpv4-sp-d16
 254              		.type	VL53L0X_perform_offset_calibration, %function
 255              	VL53L0X_perform_offset_calibration:
 256              	.LFB4:
 257              		.loc 1 193 0
 258              		.cfi_startproc
 259              		@ args = 0, pretend = 0, frame = 40
 260              		@ frame_needed = 0, uses_anonymous_args = 0
 261              	.LVL38:
 262 0000 2DE9F047 		push	{r4, r5, r6, r7, r8, r9, r10, lr}
 263              		.cfi_def_cfa_offset 32
 264              		.cfi_offset 4, -32
 265              		.cfi_offset 5, -28
 266              		.cfi_offset 6, -24
 267              		.cfi_offset 7, -20
 268              		.cfi_offset 8, -16
 269              		.cfi_offset 9, -12
 270              		.cfi_offset 10, -8
 271              		.cfi_offset 14, -4
 272 0004 374F     		ldr	r7, .L52
 273 0006 8AB0     		sub	sp, sp, #40
 274              		.cfi_def_cfa_offset 72
 275              		.loc 1 193 0
 276 0008 3B68     		ldr	r3, [r7]
 277 000a 0993     		str	r3, [sp, #36]
 278              	.LVL39:
 279              		.loc 1 204 0
 280 000c 41B9     		cbnz	r1, .L47
 281              		.loc 1 205 0
 282 000e 6FF00300 		mvn	r0, #3
 283              	.LVL40:
 284              	.L30:
 285              		.loc 1 286 0
ARM GAS  C:\Users\Moi\AppData\Local\Temp\ccWeMAis.s 			page 6


 286 0012 099A     		ldr	r2, [sp, #36]
 287 0014 3B68     		ldr	r3, [r7]
 288 0016 9A42     		cmp	r2, r3
 289 0018 61D1     		bne	.L48
 290 001a 0AB0     		add	sp, sp, #40
 291              		.cfi_remember_state
 292              		.cfi_def_cfa_offset 32
 293              		@ sp needed
 294 001c BDE8F087 		pop	{r4, r5, r6, r7, r8, r9, r10, pc}
 295              	.LVL41:
 296              	.L47:
 297              		.cfi_restore_state
 298 0020 8846     		mov	r8, r1
 299              		.loc 1 208 0
 300 0022 0021     		movs	r1, #0
 301              	.LVL42:
 302 0024 9146     		mov	r9, r2
 303 0026 0546     		mov	r5, r0
 304 0028 FFF7FEFF 		bl	VL53L0X_SetOffsetCalibrationDataMicroMeter
 305              	.LVL43:
 306              		.loc 1 212 0
 307 002c 0028     		cmp	r0, #0
 308 002e F0D1     		bne	.L30
 309              		.loc 1 213 0
 310 0030 0146     		mov	r1, r0
 311 0032 0DF10702 		add	r2, sp, #7
 312 0036 2846     		mov	r0, r5
 313              	.LVL44:
 314 0038 FFF7FEFF 		bl	VL53L0X_GetSequenceStepEnable
 315              	.LVL45:
 316              		.loc 1 218 0
 317 003c 0028     		cmp	r0, #0
 318 003e E8D1     		bne	.L30
 319              		.loc 1 219 0
 320 0040 0246     		mov	r2, r0
 321 0042 0146     		mov	r1, r0
 322 0044 2846     		mov	r0, r5
 323              	.LVL46:
 324 0046 FFF7FEFF 		bl	VL53L0X_SetSequenceStepEnable
 325              	.LVL47:
 326              		.loc 1 224 0
 327 004a 0028     		cmp	r0, #0
 328 004c E1D1     		bne	.L30
 329              		.loc 1 225 0
 330 004e 0246     		mov	r2, r0
 331 0050 0321     		movs	r1, #3
 332 0052 2846     		mov	r0, r5
 333              	.LVL48:
 334 0054 FFF7FEFF 		bl	VL53L0X_SetLimitCheckEnable
 335              	.LVL49:
 336              		.loc 1 229 0
 337 0058 0028     		cmp	r0, #0
 338 005a DAD1     		bne	.L30
 339              		.loc 1 231 0
 340 005c 0646     		mov	r6, r0
 341              		.loc 1 230 0
 342 005e 8246     		mov	r10, r0
ARM GAS  C:\Users\Moi\AppData\Local\Temp\ccWeMAis.s 			page 7


 343 0060 3224     		movs	r4, #50
 344 0062 0AE0     		b	.L33
 345              	.LVL50:
 346              	.L50:
 347              		.loc 1 240 0
 348 0064 9DF82030 		ldrb	r3, [sp, #32]	@ zero_extendqisi2
 349 0068 2BB9     		cbnz	r3, .L32
 350              		.loc 1 241 0
 351 006a BDF81030 		ldrh	r3, [sp, #16]
 352 006e 5344     		add	r3, r3, r10
 353              		.loc 1 243 0
 354 0070 0136     		adds	r6, r6, #1
 355              	.LVL51:
 356              		.loc 1 241 0
 357 0072 1FFA83FA 		uxth	r10, r3
 358              	.LVL52:
 359              	.L32:
 360              		.loc 1 232 0 discriminator 2
 361 0076 013C     		subs	r4, r4, #1
 362              	.LVL53:
 363 0078 0AD0     		beq	.L49
 364              	.LVL54:
 365              	.L33:
 366              		.loc 1 233 0
 367 007a 02A9     		add	r1, sp, #8
 368 007c 2846     		mov	r0, r5
 369 007e FFF7FEFF 		bl	VL53L0X_PerformSingleRangingMeasurement
 370              	.LVL55:
 371              		.loc 1 236 0
 372 0082 0028     		cmp	r0, #0
 373 0084 EED0     		beq	.L50
 374              		.loc 1 249 0
 375 0086 002E     		cmp	r6, #0
 376 0088 08BF     		it	eq
 377 008a 6FF00500 		mvneq	r0, #5
 378              	.LVL56:
 379 008e C0E7     		b	.L30
 380              	.LVL57:
 381              	.L49:
 382              		.loc 1 248 0
 383 0090 16B3     		cbz	r6, .L51
 384              	.LVL58:
 385              		.loc 1 255 0
 386 0092 4FEA0A43 		lsl	r3, r10, #16
 387 0096 B3FBF6F3 		udiv	r3, r3, r6
 388              		.loc 1 258 0
 389 009a 03F50043 		add	r3, r3, #32768
 390 009e 1B0C     		lsrs	r3, r3, #16
 391              		.loc 1 263 0
 392 00a0 08F50048 		add	r8, r8, #32768
 393              	.LVL59:
 394              		.loc 1 265 0
 395 00a4 C3EB1848 		rsb	r8, r3, r8, lsr #16
 396              	.LVL60:
 397              		.loc 1 266 0
 398 00a8 4FF47A73 		mov	r3, #1000
 399 00ac 03FB08F3 		mul	r3, r3, r8
ARM GAS  C:\Users\Moi\AppData\Local\Temp\ccWeMAis.s 			page 8


 400              		.loc 1 265 0
 401 00b0 C9F80030 		str	r3, [r9]
 402              		.loc 1 270 0
 403 00b4 6B62     		str	r3, [r5, #36]
 404              		.loc 1 272 0
 405 00b6 D9F80010 		ldr	r1, [r9]
 406 00ba 2846     		mov	r0, r5
 407 00bc FFF7FEFF 		bl	VL53L0X_SetOffsetCalibrationDataMicroMeter
 408              	.LVL61:
 409              		.loc 1 279 0
 410 00c0 0028     		cmp	r0, #0
 411 00c2 A6D1     		bne	.L30
 412              		.loc 1 280 0
 413 00c4 9DF80730 		ldrb	r3, [sp, #7]	@ zero_extendqisi2
 414 00c8 002B     		cmp	r3, #0
 415 00ca A2D0     		beq	.L30
 416              		.loc 1 281 0
 417 00cc 2146     		mov	r1, r4
 418 00ce 2846     		mov	r0, r5
 419              	.LVL62:
 420 00d0 0122     		movs	r2, #1
 421 00d2 FFF7FEFF 		bl	VL53L0X_SetSequenceStepEnable
 422              	.LVL63:
 423 00d6 9CE7     		b	.L30
 424              	.LVL64:
 425              	.L51:
 426              		.loc 1 249 0
 427 00d8 6FF00500 		mvn	r0, #5
 428 00dc 99E7     		b	.L30
 429              	.LVL65:
 430              	.L48:
 431              		.loc 1 286 0
 432 00de FFF7FEFF 		bl	__stack_chk_fail
 433              	.LVL66:
 434              	.L53:
 435 00e2 00BF     		.align	2
 436              	.L52:
 437 00e4 00000000 		.word	__stack_chk_guard
 438              		.cfi_endproc
 439              	.LFE4:
 440              		.size	VL53L0X_perform_offset_calibration, .-VL53L0X_perform_offset_calibration
 441              		.section	.text.VL53L0X_set_offset_calibration_data_micro_meter,"ax",%progbits
 442              		.align	1
 443              		.p2align 4,,15
 444              		.global	VL53L0X_set_offset_calibration_data_micro_meter
 445              		.syntax unified
 446              		.thumb
 447              		.thumb_func
 448              		.fpu fpv4-sp-d16
 449              		.type	VL53L0X_set_offset_calibration_data_micro_meter, %function
 450              	VL53L0X_set_offset_calibration_data_micro_meter:
 451              	.LFB5:
 452              		.loc 1 291 0
 453              		.cfi_startproc
 454              		@ args = 0, pretend = 0, frame = 8
 455              		@ frame_needed = 0, uses_anonymous_args = 0
 456              	.LVL67:
ARM GAS  C:\Users\Moi\AppData\Local\Temp\ccWeMAis.s 			page 9


 457 0000 10B5     		push	{r4, lr}
 458              		.cfi_def_cfa_offset 8
 459              		.cfi_offset 4, -8
 460              		.cfi_offset 14, -4
 461 0002 134B     		ldr	r3, .L65
 462              		.loc 1 300 0
 463 0004 134A     		ldr	r2, .L65+4
 464              		.loc 1 291 0
 465 0006 1C68     		ldr	r4, [r3]
 466 0008 82B0     		sub	sp, sp, #8
 467              		.cfi_def_cfa_offset 16
 468              		.loc 1 300 0
 469 000a 9142     		cmp	r1, r2
 470              		.loc 1 291 0
 471 000c 0194     		str	r4, [sp, #4]
 472              	.LVL68:
 473              		.loc 1 300 0
 474 000e 1ADC     		bgt	.L61
 475              		.loc 1 302 0
 476 0010 11F5FA2F 		cmn	r1, #512000
 477 0014 14DB     		blt	.L62
 478 0016 104C     		ldr	r4, .L65+8
 479 0018 CA17     		asrs	r2, r1, #31
 480 001a 84FB01C4 		smull	ip, r4, r4, r1
 481 001e C2EB2412 		rsb	r2, r2, r4, asr #4
 482              		.loc 1 309 0
 483 0022 0029     		cmp	r1, #0
 484 0024 B8BF     		it	lt
 485 0026 02F58052 		addlt	r2, r2, #4096
 486 002a 92B2     		uxth	r2, r2
 487              	.L58:
 488              		.loc 1 318 0
 489 002c 0199     		ldr	r1, [sp, #4]
 490              	.LVL69:
 491 002e 1B68     		ldr	r3, [r3]
 492 0030 9942     		cmp	r1, r3
 493 0032 0BD1     		bne	.L64
 494 0034 2821     		movs	r1, #40
 495              		.loc 1 324 0
 496 0036 02B0     		add	sp, sp, #8
 497              		.cfi_remember_state
 498              		.cfi_def_cfa_offset 8
 499              		@ sp needed
 500 0038 BDE81040 		pop	{r4, lr}
 501              		.cfi_restore 14
 502              		.cfi_restore 4
 503              		.cfi_def_cfa_offset 0
 504              		.loc 1 318 0
 505 003c FFF7FEBF 		b	VL53L0X_WrWord
 506              	.LVL70:
 507              	.L62:
 508              		.cfi_restore_state
 509 0040 4FF40062 		mov	r2, #2048
 510              	.LVL71:
 511 0044 F2E7     		b	.L58
 512              	.L61:
 513 0046 40F2FC72 		movw	r2, #2044
ARM GAS  C:\Users\Moi\AppData\Local\Temp\ccWeMAis.s 			page 10


 514 004a EFE7     		b	.L58
 515              	.LVL72:
 516              	.L64:
 517 004c FFF7FEFF 		bl	__stack_chk_fail
 518              	.LVL73:
 519              	.L66:
 520              		.align	2
 521              	.L65:
 522 0050 00000000 		.word	__stack_chk_guard
 523 0054 18CC0700 		.word	511000
 524 0058 D34D6210 		.word	274877907
 525              		.cfi_endproc
 526              	.LFE5:
 527              		.size	VL53L0X_set_offset_calibration_data_micro_meter, .-VL53L0X_set_offset_calibration_data_micro
 528              		.section	.text.VL53L0X_get_offset_calibration_data_micro_meter,"ax",%progbits
 529              		.align	1
 530              		.p2align 4,,15
 531              		.global	VL53L0X_get_offset_calibration_data_micro_meter
 532              		.syntax unified
 533              		.thumb
 534              		.thumb_func
 535              		.fpu fpv4-sp-d16
 536              		.type	VL53L0X_get_offset_calibration_data_micro_meter, %function
 537              	VL53L0X_get_offset_calibration_data_micro_meter:
 538              	.LFB6:
 539              		.loc 1 328 0
 540              		.cfi_startproc
 541              		@ args = 0, pretend = 0, frame = 8
 542              		@ frame_needed = 0, uses_anonymous_args = 0
 543              	.LVL74:
 544 0000 30B5     		push	{r4, r5, lr}
 545              		.cfi_def_cfa_offset 12
 546              		.cfi_offset 4, -12
 547              		.cfi_offset 5, -8
 548              		.cfi_offset 14, -4
 549 0002 134C     		ldr	r4, .L74
 550 0004 83B0     		sub	sp, sp, #12
 551              		.cfi_def_cfa_offset 24
 552              		.loc 1 328 0
 553 0006 0D46     		mov	r5, r1
 554 0008 2368     		ldr	r3, [r4]
 555 000a 0193     		str	r3, [sp, #4]
 556              	.LVL75:
 557              		.loc 1 336 0
 558 000c 0DF10202 		add	r2, sp, #2
 559 0010 2821     		movs	r1, #40
 560              	.LVL76:
 561 0012 FFF7FEFF 		bl	VL53L0X_RdWord
 562              	.LVL77:
 563              		.loc 1 340 0
 564 0016 50B9     		cbnz	r0, .L68
 565              		.loc 1 341 0
 566 0018 BDF80230 		ldrh	r3, [sp, #2]
 567 001c C3F30B03 		ubfx	r3, r3, #0, #12
 568              	.LVL78:
 569              		.loc 1 344 0
 570 0020 B3F5006F 		cmp	r3, #2048
ARM GAS  C:\Users\Moi\AppData\Local\Temp\ccWeMAis.s 			page 11


 571 0024 09D2     		bcs	.L72
 572              		.loc 1 350 0
 573 0026 FA22     		movs	r2, #250
 574 0028 02FB03F3 		mul	r3, r2, r3
 575              	.LVL79:
 576              		.loc 1 349 0
 577 002c 2B60     		str	r3, [r5]
 578              	.LVL80:
 579              	.L68:
 580              		.loc 1 355 0
 581 002e 019A     		ldr	r2, [sp, #4]
 582 0030 2368     		ldr	r3, [r4]
 583 0032 9A42     		cmp	r2, r3
 584 0034 0AD1     		bne	.L73
 585 0036 03B0     		add	sp, sp, #12
 586              		.cfi_remember_state
 587              		.cfi_def_cfa_offset 12
 588              		@ sp needed
 589 0038 30BD     		pop	{r4, r5, pc}
 590              	.LVL81:
 591              	.L72:
 592              		.cfi_restore_state
 593              		.loc 1 346 0
 594 003a A3F58053 		sub	r3, r3, #4096
 595              	.LVL82:
 596              		.loc 1 347 0
 597 003e C3EB4312 		rsb	r2, r3, r3, lsl #5
 598 0042 03EB8203 		add	r3, r3, r2, lsl #2
 599              	.LVL83:
 600 0046 5B00     		lsls	r3, r3, #1
 601              		.loc 1 345 0
 602 0048 2B60     		str	r3, [r5]
 603 004a F0E7     		b	.L68
 604              	.LVL84:
 605              	.L73:
 606              		.loc 1 355 0
 607 004c FFF7FEFF 		bl	__stack_chk_fail
 608              	.LVL85:
 609              	.L75:
 610              		.align	2
 611              	.L74:
 612 0050 00000000 		.word	__stack_chk_guard
 613              		.cfi_endproc
 614              	.LFE6:
 615              		.size	VL53L0X_get_offset_calibration_data_micro_meter, .-VL53L0X_get_offset_calibration_data_micro
 616              		.section	.text.VL53L0X_apply_offset_adjustment,"ax",%progbits
 617              		.align	1
 618              		.p2align 4,,15
 619              		.global	VL53L0X_apply_offset_adjustment
 620              		.syntax unified
 621              		.thumb
 622              		.thumb_func
 623              		.fpu fpv4-sp-d16
 624              		.type	VL53L0X_apply_offset_adjustment, %function
 625              	VL53L0X_apply_offset_adjustment:
 626              	.LFB7:
 627              		.loc 1 359 0
ARM GAS  C:\Users\Moi\AppData\Local\Temp\ccWeMAis.s 			page 12


 628              		.cfi_startproc
 629              		@ args = 0, pretend = 0, frame = 8
 630              		@ frame_needed = 0, uses_anonymous_args = 0
 631              	.LVL86:
 632 0000 70B5     		push	{r4, r5, r6, lr}
 633              		.cfi_def_cfa_offset 16
 634              		.cfi_offset 4, -16
 635              		.cfi_offset 5, -12
 636              		.cfi_offset 6, -8
 637              		.cfi_offset 14, -4
 638 0002 114C     		ldr	r4, .L82
 639 0004 82B0     		sub	sp, sp, #8
 640              		.cfi_def_cfa_offset 24
 641              		.loc 1 359 0
 642 0006 2368     		ldr	r3, [r4]
 643 0008 0193     		str	r3, [sp, #4]
 644              	.LVL87:
 645              		.loc 1 366 0
 646 000a 0721     		movs	r1, #7
 647              		.loc 1 359 0
 648 000c 0546     		mov	r5, r0
 649              		.loc 1 366 0
 650 000e FFF7FEFF 		bl	VL53L0X_get_info_from_device
 651              	.LVL88:
 652              		.loc 1 369 0
 653 0012 28B1     		cbz	r0, .L80
 654              	.L77:
 655              		.loc 1 396 0
 656 0014 019A     		ldr	r2, [sp, #4]
 657 0016 2368     		ldr	r3, [r4]
 658 0018 9A42     		cmp	r2, r3
 659 001a 13D1     		bne	.L81
 660 001c 02B0     		add	sp, sp, #8
 661              		.cfi_remember_state
 662              		.cfi_def_cfa_offset 16
 663              		@ sp needed
 664 001e 70BD     		pop	{r4, r5, r6, pc}
 665              	.LVL89:
 666              	.L80:
 667              		.cfi_restore_state
 668              		.loc 1 370 0
 669 0020 6946     		mov	r1, sp
 670 0022 2846     		mov	r0, r5
 671              	.LVL90:
 672 0024 FFF7FEFF 		bl	VL53L0X_GetOffsetCalibrationDataMicroMeter
 673              	.LVL91:
 674              		.loc 1 375 0
 675 0028 0028     		cmp	r0, #0
 676 002a F3D1     		bne	.L77
 677              		.loc 1 378 0
 678 002c 009B     		ldr	r3, [sp]
 679              		.loc 1 381 0
 680 002e EE68     		ldr	r6, [r5, #12]
 681              		.loc 1 378 0
 682 0030 AB60     		str	r3, [r5, #8]
 683              		.loc 1 381 0
 684 0032 1E44     		add	r6, r6, r3
ARM GAS  C:\Users\Moi\AppData\Local\Temp\ccWeMAis.s 			page 13


 685              	.LVL92:
 686              		.loc 1 385 0
 687 0034 3146     		mov	r1, r6
 688 0036 2846     		mov	r0, r5
 689              	.LVL93:
 690 0038 FFF7FEFF 		bl	VL53L0X_SetOffsetCalibrationDataMicroMeter
 691              	.LVL94:
 692              		.loc 1 389 0
 693 003c 0028     		cmp	r0, #0
 694 003e E9D1     		bne	.L77
 695              		.loc 1 390 0
 696 0040 6E62     		str	r6, [r5, #36]
 697 0042 E7E7     		b	.L77
 698              	.LVL95:
 699              	.L81:
 700              		.loc 1 396 0
 701 0044 FFF7FEFF 		bl	__stack_chk_fail
 702              	.LVL96:
 703              	.L83:
 704              		.align	2
 705              	.L82:
 706 0048 00000000 		.word	__stack_chk_guard
 707              		.cfi_endproc
 708              	.LFE7:
 709              		.size	VL53L0X_apply_offset_adjustment, .-VL53L0X_apply_offset_adjustment
 710              		.section	.text.get_next_good_spad,"ax",%progbits
 711              		.align	1
 712              		.p2align 4,,15
 713              		.global	get_next_good_spad
 714              		.syntax unified
 715              		.thumb
 716              		.thumb_func
 717              		.fpu fpv4-sp-d16
 718              		.type	get_next_good_spad, %function
 719              	get_next_good_spad:
 720              	.LFB8:
 721              		.loc 1 400 0
 722              		.cfi_startproc
 723              		@ args = 0, pretend = 0, frame = 8
 724              		@ frame_needed = 0, uses_anonymous_args = 0
 725              	.LVL97:
 726 0000 F0B5     		push	{r4, r5, r6, r7, lr}
 727              		.cfi_def_cfa_offset 20
 728              		.cfi_offset 4, -20
 729              		.cfi_offset 5, -16
 730              		.cfi_offset 6, -12
 731              		.cfi_offset 7, -8
 732              		.cfi_offset 14, -4
 733 0002 DFF860C0 		ldr	ip, .L97
 734 0006 83B0     		sub	sp, sp, #12
 735              		.cfi_def_cfa_offset 32
 736              		.loc 1 400 0
 737 0008 DCF80040 		ldr	r4, [ip]
 738 000c 0194     		str	r4, [sp, #4]
 739              	.LVL98:
 740              		.loc 1 419 0
 741 000e D708     		lsrs	r7, r2, #3
ARM GAS  C:\Users\Moi\AppData\Local\Temp\ccWeMAis.s 			page 14


 742              	.LVL99:
 743              		.loc 1 417 0
 744 0010 4FF0FF34 		mov	r4, #-1
 745              		.loc 1 422 0
 746 0014 8F42     		cmp	r7, r1
 747              		.loc 1 417 0
 748 0016 1C60     		str	r4, [r3]
 749              	.LVL100:
 750              		.loc 1 422 0
 751 0018 17D2     		bcs	.L84
 752 001a 3C19     		adds	r4, r7, r4
 753 001c 02F00702 		and	r2, r2, #7
 754              	.LVL101:
 755 0020 2044     		add	r0, r0, r4
 756              	.LVL102:
 757 0022 3E46     		mov	r6, r7
 758              	.LVL103:
 759              	.L89:
 760              		.loc 1 425 0
 761 0024 10F8015F 		ldrb	r5, [r0, #1]!	@ zero_extendqisi2
 762              	.LVL104:
 763              		.loc 1 427 0
 764 0028 BE42     		cmp	r6, r7
 765              		.loc 1 430 0
 766 002a 03BF     		ittte	eq
 767 002c 1541     		asreq	r5, r5, r2
 768              	.LVL105:
 769 002e EDB2     		uxtbeq	r5, r5
 770              	.LVL106:
 771              		.loc 1 431 0
 772 0030 1446     		moveq	r4, r2
 773              		.loc 1 424 0
 774 0032 0024     		movne	r4, #0
 775              	.LVL107:
 776              	.L88:
 777              		.loc 1 435 0
 778 0034 15F0010F 		tst	r5, #1
 779 0038 0ED1     		bne	.L95
 780              		.loc 1 441 0
 781 003a 0134     		adds	r4, r4, #1
 782              	.LVL108:
 783              		.loc 1 434 0
 784 003c 082C     		cmp	r4, #8
 785              		.loc 1 440 0
 786 003e 4FEA5505 		lsr	r5, r5, #1
 787              	.LVL109:
 788              		.loc 1 434 0
 789 0042 F7D1     		bne	.L88
 790              	.LVL110:
 791              		.loc 1 423 0
 792 0044 0136     		adds	r6, r6, #1
 793              	.LVL111:
 794              		.loc 1 422 0
 795 0046 B142     		cmp	r1, r6
 796 0048 ECD1     		bne	.L89
 797              	.LVL112:
 798              	.L84:
ARM GAS  C:\Users\Moi\AppData\Local\Temp\ccWeMAis.s 			page 15


 799              		.loc 1 444 0
 800 004a 019A     		ldr	r2, [sp, #4]
 801 004c DCF80030 		ldr	r3, [ip]
 802              	.LVL113:
 803 0050 9A42     		cmp	r2, r3
 804 0052 05D1     		bne	.L96
 805 0054 03B0     		add	sp, sp, #12
 806              		.cfi_remember_state
 807              		.cfi_def_cfa_offset 20
 808              		@ sp needed
 809 0056 F0BD     		pop	{r4, r5, r6, r7, pc}
 810              	.LVL114:
 811              	.L95:
 812              		.cfi_restore_state
 813              		.loc 1 437 0
 814 0058 04EBC604 		add	r4, r4, r6, lsl #3
 815              	.LVL115:
 816 005c 1C60     		str	r4, [r3]
 817              	.LVL116:
 818 005e F4E7     		b	.L84
 819              	.LVL117:
 820              	.L96:
 821              		.loc 1 444 0
 822 0060 FFF7FEFF 		bl	__stack_chk_fail
 823              	.LVL118:
 824              	.L98:
 825              		.align	2
 826              	.L97:
 827 0064 00000000 		.word	__stack_chk_guard
 828              		.cfi_endproc
 829              	.LFE8:
 830              		.size	get_next_good_spad, .-get_next_good_spad
 831              		.section	.text.is_aperture,"ax",%progbits
 832              		.align	1
 833              		.p2align 4,,15
 834              		.global	is_aperture
 835              		.syntax unified
 836              		.thumb
 837              		.thumb_func
 838              		.fpu fpv4-sp-d16
 839              		.type	is_aperture, %function
 840              	is_aperture:
 841              	.LFB9:
 842              		.loc 1 448 0
 843              		.cfi_startproc
 844              		@ args = 0, pretend = 0, frame = 8
 845              		@ frame_needed = 0, uses_anonymous_args = 0
 846              	.LVL119:
 847 0000 00B5     		push	{lr}
 848              		.cfi_def_cfa_offset 4
 849              		.cfi_offset 14, -4
 850 0002 0A4B     		ldr	r3, .L103
 851              		.loc 1 456 0
 852 0004 0A49     		ldr	r1, .L103+4
 853              		.loc 1 448 0
 854 0006 1A68     		ldr	r2, [r3]
 855 0008 83B0     		sub	sp, sp, #12
ARM GAS  C:\Users\Moi\AppData\Local\Temp\ccWeMAis.s 			page 16


 856              		.cfi_def_cfa_offset 16
 857              		.loc 1 455 0
 858 000a 8009     		lsrs	r0, r0, #6
 859              	.LVL120:
 860              		.loc 1 448 0
 861 000c 0192     		str	r2, [sp, #4]
 862              	.LVL121:
 863              		.loc 1 456 0
 864 000e 51F82000 		ldr	r0, [r1, r0, lsl #2]
 865              		.loc 1 460 0
 866 0012 019A     		ldr	r2, [sp, #4]
 867 0014 1B68     		ldr	r3, [r3]
 868 0016 0030     		adds	r0, r0, #0
 869 0018 18BF     		it	ne
 870 001a 0120     		movne	r0, #1
 871 001c 9A42     		cmp	r2, r3
 872 001e 02D1     		bne	.L102
 873 0020 03B0     		add	sp, sp, #12
 874              		.cfi_remember_state
 875              		.cfi_def_cfa_offset 4
 876              		@ sp needed
 877 0022 5DF804FB 		ldr	pc, [sp], #4
 878              	.L102:
 879              		.cfi_restore_state
 880 0026 FFF7FEFF 		bl	__stack_chk_fail
 881              	.LVL122:
 882              	.L104:
 883 002a 00BF     		.align	2
 884              	.L103:
 885 002c 00000000 		.word	__stack_chk_guard
 886 0030 00000000 		.word	.LANCHOR0
 887              		.cfi_endproc
 888              	.LFE9:
 889              		.size	is_aperture, .-is_aperture
 890              		.section	.text.enable_spad_bit,"ax",%progbits
 891              		.align	1
 892              		.p2align 4,,15
 893              		.global	enable_spad_bit
 894              		.syntax unified
 895              		.thumb
 896              		.thumb_func
 897              		.fpu fpv4-sp-d16
 898              		.type	enable_spad_bit, %function
 899              	enable_spad_bit:
 900              	.LFB10:
 901              		.loc 1 465 0
 902              		.cfi_startproc
 903              		@ args = 0, pretend = 0, frame = 8
 904              		@ frame_needed = 0, uses_anonymous_args = 0
 905              	.LVL123:
 906 0000 30B5     		push	{r4, r5, lr}
 907              		.cfi_def_cfa_offset 12
 908              		.cfi_offset 4, -12
 909              		.cfi_offset 5, -8
 910              		.cfi_offset 14, -4
 911 0002 0D4D     		ldr	r5, .L111
 912 0004 83B0     		sub	sp, sp, #12
ARM GAS  C:\Users\Moi\AppData\Local\Temp\ccWeMAis.s 			page 17


 913              		.cfi_def_cfa_offset 24
 914              		.loc 1 465 0
 915 0006 2B68     		ldr	r3, [r5]
 916 0008 0193     		str	r3, [sp, #4]
 917              	.LVL124:
 918              		.loc 1 471 0
 919 000a D308     		lsrs	r3, r2, #3
 920              	.LVL125:
 921              		.loc 1 473 0
 922 000c 8B42     		cmp	r3, r1
 923 000e 0ED2     		bcs	.L108
 924              		.loc 1 476 0
 925 0010 C15C     		ldrb	r1, [r0, r3]	@ zero_extendqisi2
 926              	.LVL126:
 927 0012 02F00702 		and	r2, r2, #7
 928              	.LVL127:
 929 0016 0124     		movs	r4, #1
 930 0018 04FA02F2 		lsl	r2, r4, r2
 931              	.LVL128:
 932 001c 0A43     		orrs	r2, r2, r1
 933 001e C254     		strb	r2, [r0, r3]
 934              		.loc 1 466 0
 935 0020 0020     		movs	r0, #0
 936              	.LVL129:
 937              	.L106:
 938              		.loc 1 479 0
 939 0022 019A     		ldr	r2, [sp, #4]
 940 0024 2B68     		ldr	r3, [r5]
 941              	.LVL130:
 942 0026 9A42     		cmp	r2, r3
 943 0028 04D1     		bne	.L110
 944 002a 03B0     		add	sp, sp, #12
 945              		.cfi_remember_state
 946              		.cfi_def_cfa_offset 12
 947              		@ sp needed
 948 002c 30BD     		pop	{r4, r5, pc}
 949              	.LVL131:
 950              	.L108:
 951              		.cfi_restore_state
 952              		.loc 1 474 0
 953 002e 6FF03100 		mvn	r0, #49
 954              	.LVL132:
 955 0032 F6E7     		b	.L106
 956              	.LVL133:
 957              	.L110:
 958              		.loc 1 479 0
 959 0034 FFF7FEFF 		bl	__stack_chk_fail
 960              	.LVL134:
 961              	.L112:
 962              		.align	2
 963              	.L111:
 964 0038 00000000 		.word	__stack_chk_guard
 965              		.cfi_endproc
 966              	.LFE10:
 967              		.size	enable_spad_bit, .-enable_spad_bit
 968              		.section	.text.count_enabled_spads,"ax",%progbits
 969              		.align	1
ARM GAS  C:\Users\Moi\AppData\Local\Temp\ccWeMAis.s 			page 18


 970              		.p2align 4,,15
 971              		.global	count_enabled_spads
 972              		.syntax unified
 973              		.thumb
 974              		.thumb_func
 975              		.fpu fpv4-sp-d16
 976              		.type	count_enabled_spads, %function
 977              	count_enabled_spads:
 978              	.LFB11:
 979              		.loc 1 484 0
 980              		.cfi_startproc
 981              		@ args = 4, pretend = 0, frame = 16
 982              		@ frame_needed = 0, uses_anonymous_args = 0
 983              	.LVL135:
 984 0000 2DE9F04F 		push	{r4, r5, r6, r7, r8, r9, r10, fp, lr}
 985              		.cfi_def_cfa_offset 36
 986              		.cfi_offset 4, -36
 987              		.cfi_offset 5, -32
 988              		.cfi_offset 6, -28
 989              		.cfi_offset 7, -24
 990              		.cfi_offset 8, -20
 991              		.cfi_offset 9, -16
 992              		.cfi_offset 10, -12
 993              		.cfi_offset 11, -8
 994              		.cfi_offset 14, -4
 995 0004 DFF89490 		ldr	r9, .L136
 996 0008 85B0     		sub	sp, sp, #20
 997              		.cfi_def_cfa_offset 56
 998              		.loc 1 498 0
 999 000a 4FEAD20A 		lsr	r10, r2, #3
 1000              		.loc 1 484 0
 1001 000e D9F80040 		ldr	r4, [r9]
 1002 0012 0394     		str	r4, [sp, #12]
 1003              	.LVL136:
 1004              		.loc 1 485 0
 1005 0014 8A45     		cmp	r10, r1
 1006              		.loc 1 505 0
 1007 0016 4FF00004 		mov	r4, #0
 1008              		.loc 1 499 0
 1009 001a 02F00708 		and	r8, r2, #7
 1010              	.LVL137:
 1011              		.loc 1 484 0
 1012 001e 0E9F     		ldr	r7, [sp, #56]
 1013              		.loc 1 505 0
 1014 0020 1C60     		str	r4, [r3]
 1015              		.loc 1 485 0
 1016 0022 2CBF     		ite	cs
 1017 0024 6FF03102 		mvncs	r2, #49
 1018              	.LVL138:
 1019 0028 2246     		movcc	r2, r4
 1020              		.loc 1 492 0
 1021 002a 2546     		mov	r5, r4
 1022              		.loc 1 485 0
 1023 002c 0192     		str	r2, [sp, #4]
 1024              	.LVL139:
 1025              		.loc 1 508 0
 1026 002e 0AF1FF3B 		add	fp, r10, #-1
ARM GAS  C:\Users\Moi\AppData\Local\Temp\ccWeMAis.s 			page 19


 1027 0032 2646     		mov	r6, r4
 1028 0034 00F1FF3E 		add	lr, r0, #-1
 1029              		.loc 1 516 0
 1030 0038 4FF0010C 		mov	ip, #1
 1031              	.LVL140:
 1032              	.L119:
 1033              		.loc 1 509 0
 1034 003c 1EF8011F 		ldrb	r1, [lr, #1]!	@ zero_extendqisi2
 1035              	.LVL141:
 1036              		.loc 1 511 0
 1037 0040 0022     		movs	r2, #0
 1038              	.LVL142:
 1039              	.L118:
 1040              		.loc 1 512 0
 1041 0042 CC07     		lsls	r4, r1, #31
 1042 0044 0BD5     		bpl	.L115
 1043              		.loc 1 513 0
 1044 0046 1C68     		ldr	r4, [r3]
 1045 0048 0134     		adds	r4, r4, #1
 1046 004a 1C60     		str	r4, [r3]
 1047              		.loc 1 515 0
 1048 004c 35B9     		cbnz	r5, .L134
 1049              		.loc 1 517 0
 1050 004e 012E     		cmp	r6, #1
 1051              		.loc 1 516 0
 1052 0050 87F800C0 		strb	ip, [r7]
 1053              		.loc 1 517 0
 1054 0054 02D8     		bhi	.L134
 1055              		.loc 1 517 0 is_stmt 0 discriminator 1
 1056 0056 032A     		cmp	r2, #3
 1057              		.loc 1 518 0 is_stmt 1 discriminator 1
 1058 0058 98BF     		it	ls
 1059 005a 3D70     		strbls	r5, [r7]
 1060              	.L134:
 1061              		.loc 1 519 0
 1062 005c 0125     		movs	r5, #1
 1063              	.LVL143:
 1064              	.L115:
 1065              		.loc 1 511 0 discriminator 2
 1066 005e 0132     		adds	r2, r2, #1
 1067              	.LVL144:
 1068 0060 092A     		cmp	r2, #9
 1069              		.loc 1 522 0 discriminator 2
 1070 0062 4FEA5101 		lsr	r1, r1, #1
 1071              	.LVL145:
 1072              		.loc 1 511 0 discriminator 2
 1073 0066 ECD1     		bne	.L118
 1074              		.loc 1 508 0 discriminator 2
 1075 0068 0136     		adds	r6, r6, #1
 1076              	.LVL146:
 1077 006a B345     		cmp	fp, r6
 1078 006c E6D2     		bcs	.L119
 1079              	.LVL147:
 1080 006e 10F80A00 		ldrb	r0, [r0, r10]	@ zero_extendqisi2
 1081              	.LVL148:
 1082              		.loc 1 531 0
 1083 0072 0022     		movs	r2, #0
ARM GAS  C:\Users\Moi\AppData\Local\Temp\ccWeMAis.s 			page 20


 1084 0074 00F00100 		and	r0, r0, #1
 1085              	.LVL149:
 1086              	.L121:
 1087              		.loc 1 532 0
 1088 0078 10B1     		cbz	r0, .L120
 1089              		.loc 1 533 0
 1090 007a 1968     		ldr	r1, [r3]
 1091 007c 0131     		adds	r1, r1, #1
 1092 007e 1960     		str	r1, [r3]
 1093              	.L120:
 1094              		.loc 1 531 0 discriminator 2
 1095 0080 0132     		adds	r2, r2, #1
 1096              	.LVL150:
 1097 0082 9045     		cmp	r8, r2
 1098 0084 F8D2     		bcs	.L121
 1099              		.loc 1 537 0
 1100 0086 039A     		ldr	r2, [sp, #12]
 1101              	.LVL151:
 1102 0088 D9F80030 		ldr	r3, [r9]
 1103              	.LVL152:
 1104 008c 0198     		ldr	r0, [sp, #4]
 1105 008e 9A42     		cmp	r2, r3
 1106 0090 02D1     		bne	.L135
 1107 0092 05B0     		add	sp, sp, #20
 1108              		.cfi_remember_state
 1109              		.cfi_def_cfa_offset 36
 1110              		@ sp needed
 1111 0094 BDE8F08F 		pop	{r4, r5, r6, r7, r8, r9, r10, fp, pc}
 1112              	.LVL153:
 1113              	.L135:
 1114              		.cfi_restore_state
 1115 0098 FFF7FEFF 		bl	__stack_chk_fail
 1116              	.LVL154:
 1117              	.L137:
 1118              		.align	2
 1119              	.L136:
 1120 009c 00000000 		.word	__stack_chk_guard
 1121              		.cfi_endproc
 1122              	.LFE11:
 1123              		.size	count_enabled_spads, .-count_enabled_spads
 1124              		.section	.text.set_ref_spad_map,"ax",%progbits
 1125              		.align	1
 1126              		.p2align 4,,15
 1127              		.global	set_ref_spad_map
 1128              		.syntax unified
 1129              		.thumb
 1130              		.thumb_func
 1131              		.fpu fpv4-sp-d16
 1132              		.type	set_ref_spad_map, %function
 1133              	set_ref_spad_map:
 1134              	.LFB12:
 1135              		.loc 1 540 0
 1136              		.cfi_startproc
 1137              		@ args = 0, pretend = 0, frame = 8
 1138              		@ frame_needed = 0, uses_anonymous_args = 0
 1139              	.LVL155:
 1140 0000 10B5     		push	{r4, lr}
ARM GAS  C:\Users\Moi\AppData\Local\Temp\ccWeMAis.s 			page 21


 1141              		.cfi_def_cfa_offset 8
 1142              		.cfi_offset 4, -8
 1143              		.cfi_offset 14, -4
 1144 0002 094B     		ldr	r3, .L143
 1145 0004 82B0     		sub	sp, sp, #8
 1146              		.cfi_def_cfa_offset 16
 1147              		.loc 1 540 0
 1148 0006 1A68     		ldr	r2, [r3]
 1149 0008 0192     		str	r2, [sp, #4]
 1150              		.loc 1 541 0
 1151 000a 019C     		ldr	r4, [sp, #4]
 1152 000c 1B68     		ldr	r3, [r3]
 1153 000e 9C42     		cmp	r4, r3
 1154 0010 07D1     		bne	.L142
 1155 0012 0A46     		mov	r2, r1
 1156 0014 0623     		movs	r3, #6
 1157 0016 B021     		movs	r1, #176
 1158              	.LVL156:
 1159              		.loc 1 545 0
 1160 0018 02B0     		add	sp, sp, #8
 1161              		.cfi_remember_state
 1162              		.cfi_def_cfa_offset 8
 1163              		@ sp needed
 1164 001a BDE81040 		pop	{r4, lr}
 1165              		.cfi_restore 14
 1166              		.cfi_restore 4
 1167              		.cfi_def_cfa_offset 0
 1168              		.loc 1 541 0
 1169 001e FFF7FEBF 		b	VL53L0X_WriteMulti
 1170              	.LVL157:
 1171              	.L142:
 1172              		.cfi_restore_state
 1173 0022 FFF7FEFF 		bl	__stack_chk_fail
 1174              	.LVL158:
 1175              	.L144:
 1176 0026 00BF     		.align	2
 1177              	.L143:
 1178 0028 00000000 		.word	__stack_chk_guard
 1179              		.cfi_endproc
 1180              	.LFE12:
 1181              		.size	set_ref_spad_map, .-set_ref_spad_map
 1182              		.section	.text.get_ref_spad_map,"ax",%progbits
 1183              		.align	1
 1184              		.p2align 4,,15
 1185              		.global	get_ref_spad_map
 1186              		.syntax unified
 1187              		.thumb
 1188              		.thumb_func
 1189              		.fpu fpv4-sp-d16
 1190              		.type	get_ref_spad_map, %function
 1191              	get_ref_spad_map:
 1192              	.LFB13:
 1193              		.loc 1 548 0
 1194              		.cfi_startproc
 1195              		@ args = 0, pretend = 0, frame = 8
 1196              		@ frame_needed = 0, uses_anonymous_args = 0
 1197              	.LVL159:
ARM GAS  C:\Users\Moi\AppData\Local\Temp\ccWeMAis.s 			page 22


 1198 0000 10B5     		push	{r4, lr}
 1199              		.cfi_def_cfa_offset 8
 1200              		.cfi_offset 4, -8
 1201              		.cfi_offset 14, -4
 1202 0002 094B     		ldr	r3, .L150
 1203 0004 82B0     		sub	sp, sp, #8
 1204              		.cfi_def_cfa_offset 16
 1205              		.loc 1 548 0
 1206 0006 1A68     		ldr	r2, [r3]
 1207 0008 0192     		str	r2, [sp, #4]
 1208              		.loc 1 549 0
 1209 000a 019C     		ldr	r4, [sp, #4]
 1210 000c 1B68     		ldr	r3, [r3]
 1211 000e 9C42     		cmp	r4, r3
 1212 0010 07D1     		bne	.L149
 1213 0012 0A46     		mov	r2, r1
 1214 0014 0623     		movs	r3, #6
 1215 0016 B021     		movs	r1, #176
 1216              	.LVL160:
 1217              		.loc 1 554 0
 1218 0018 02B0     		add	sp, sp, #8
 1219              		.cfi_remember_state
 1220              		.cfi_def_cfa_offset 8
 1221              		@ sp needed
 1222 001a BDE81040 		pop	{r4, lr}
 1223              		.cfi_restore 14
 1224              		.cfi_restore 4
 1225              		.cfi_def_cfa_offset 0
 1226              		.loc 1 549 0
 1227 001e FFF7FEBF 		b	VL53L0X_ReadMulti
 1228              	.LVL161:
 1229              	.L149:
 1230              		.cfi_restore_state
 1231 0022 FFF7FEFF 		bl	__stack_chk_fail
 1232              	.LVL162:
 1233              	.L151:
 1234 0026 00BF     		.align	2
 1235              	.L150:
 1236 0028 00000000 		.word	__stack_chk_guard
 1237              		.cfi_endproc
 1238              	.LFE13:
 1239              		.size	get_ref_spad_map, .-get_ref_spad_map
 1240              		.section	.text.enable_ref_spads,"ax",%progbits
 1241              		.align	1
 1242              		.p2align 4,,15
 1243              		.global	enable_ref_spads
 1244              		.syntax unified
 1245              		.thumb
 1246              		.thumb_func
 1247              		.fpu fpv4-sp-d16
 1248              		.type	enable_ref_spads, %function
 1249              	enable_ref_spads:
 1250              	.LFB14:
 1251              		.loc 1 565 0
 1252              		.cfi_startproc
 1253              		@ args = 20, pretend = 0, frame = 24
 1254              		@ frame_needed = 0, uses_anonymous_args = 0
ARM GAS  C:\Users\Moi\AppData\Local\Temp\ccWeMAis.s 			page 23


 1255              	.LVL163:
 1256 0000 2DE9F04F 		push	{r4, r5, r6, r7, r8, r9, r10, fp, lr}
 1257              		.cfi_def_cfa_offset 36
 1258              		.cfi_offset 4, -36
 1259              		.cfi_offset 5, -32
 1260              		.cfi_offset 6, -28
 1261              		.cfi_offset 7, -24
 1262              		.cfi_offset 8, -20
 1263              		.cfi_offset 9, -16
 1264              		.cfi_offset 10, -12
 1265              		.cfi_offset 11, -8
 1266              		.cfi_offset 14, -4
 1267 0004 87B0     		sub	sp, sp, #28
 1268              		.cfi_def_cfa_offset 64
 1269              		.loc 1 565 0
 1270 0006 354C     		ldr	r4, .L178
 1271 0008 DDF84C80 		ldr	r8, [sp, #76]
 1272 000c 2468     		ldr	r4, [r4]
 1273 000e 129E     		ldr	r6, [sp, #72]
 1274 0010 0594     		str	r4, [sp, #20]
 1275 0012 1F46     		mov	r7, r3
 1276 0014 149B     		ldr	r3, [sp, #80]
 1277              	.LVL164:
 1278 0016 0190     		str	r0, [sp, #4]
 1279              	.LVL165:
 1280              		.loc 1 569 0
 1281 0018 0296     		str	r6, [sp, #8]
 1282              	.LVL166:
 1283              		.loc 1 565 0
 1284 001a DDE9105B 		ldrd	r5, fp, [sp, #64]
 1285 001e 0093     		str	r3, [sp]
 1286              		.loc 1 584 0
 1287 0020 B8F1000F 		cmp	r8, #0
 1288 0024 33D0     		beq	.L153
 1289 0026 8A46     		mov	r10, r1
 1290 0028 9146     		mov	r9, r2
 1291 002a 0024     		movs	r4, #0
 1292 002c 1AE0     		b	.L156
 1293              	.LVL167:
 1294              	.L176:
 1295              		.loc 1 594 0
 1296 002e 03EB0B02 		add	r2, r3, fp
 1297              	.LBB24:
 1298              	.LBB25:
 1299              		.loc 1 455 0
 1300 0032 9209     		lsrs	r2, r2, #6
 1301              		.loc 1 456 0
 1302 0034 2A49     		ldr	r1, .L178+4
 1303 0036 51F82220 		ldr	r2, [r1, r2, lsl #2]
 1304              	.LBE25:
 1305              	.LBE24:
 1306              		.loc 1 594 0
 1307 003a 0032     		adds	r2, r2, #0
 1308 003c 18BF     		it	ne
 1309 003e 0122     		movne	r2, #1
 1310 0040 5245     		cmp	r2, r10
 1311 0042 18D1     		bne	.L154
ARM GAS  C:\Users\Moi\AppData\Local\Temp\ccWeMAis.s 			page 24


 1312              	.LVL168:
 1313              	.LBB26:
 1314              	.LBB27:
 1315              		.loc 1 471 0 discriminator 2
 1316 0044 DA08     		lsrs	r2, r3, #3
 1317              	.LVL169:
 1318              		.loc 1 473 0 discriminator 2
 1319 0046 9542     		cmp	r5, r2
 1320 0048 07D9     		bls	.L155
 1321              		.loc 1 476 0
 1322 004a B85C     		ldrb	r0, [r7, r2]	@ zero_extendqisi2
 1323              		.loc 1 472 0
 1324 004c 03F00701 		and	r1, r3, #7
 1325              	.LVL170:
 1326              		.loc 1 476 0
 1327 0050 0126     		movs	r6, #1
 1328 0052 06FA01F1 		lsl	r1, r6, r1
 1329              	.LVL171:
 1330 0056 0143     		orrs	r1, r1, r0
 1331 0058 B954     		strb	r1, [r7, r2]
 1332              	.L155:
 1333              	.LVL172:
 1334              	.LBE27:
 1335              	.LBE26:
 1336              		.loc 1 584 0
 1337 005a 0134     		adds	r4, r4, #1
 1338              	.LVL173:
 1339 005c A045     		cmp	r8, r4
 1340              		.loc 1 603 0
 1341 005e 03F10106 		add	r6, r3, #1
 1342              	.LVL174:
 1343              		.loc 1 584 0
 1344 0062 14D0     		beq	.L153
 1345              	.LVL175:
 1346              	.L156:
 1347              		.loc 1 585 0
 1348 0064 02AB     		add	r3, sp, #8
 1349 0066 3246     		mov	r2, r6
 1350 0068 2946     		mov	r1, r5
 1351 006a 4846     		mov	r0, r9
 1352 006c FFF7FEFF 		bl	get_next_good_spad
 1353              	.LVL176:
 1354              		.loc 1 588 0
 1355 0070 029B     		ldr	r3, [sp, #8]
 1356 0072 5A1C     		adds	r2, r3, #1
 1357 0074 DBD1     		bne	.L176
 1358              	.L154:
 1359              	.LVL177:
 1360              		.loc 1 605 0
 1361 0076 009B     		ldr	r3, [sp]
 1362 0078 6FF03100 		mvn	r0, #49
 1363 007c 1E60     		str	r6, [r3]
 1364              	.LVL178:
 1365              	.L157:
 1366              		.loc 1 626 0
 1367 007e 174B     		ldr	r3, .L178
 1368 0080 059A     		ldr	r2, [sp, #20]
ARM GAS  C:\Users\Moi\AppData\Local\Temp\ccWeMAis.s 			page 25


 1369 0082 1B68     		ldr	r3, [r3]
 1370 0084 9A42     		cmp	r2, r3
 1371 0086 27D1     		bne	.L177
 1372 0088 07B0     		add	sp, sp, #28
 1373              		.cfi_remember_state
 1374              		.cfi_def_cfa_offset 36
 1375              		@ sp needed
 1376 008a BDE8F08F 		pop	{r4, r5, r6, r7, r8, r9, r10, fp, pc}
 1377              	.LVL179:
 1378              	.L153:
 1379              		.cfi_restore_state
 1380              		.loc 1 605 0
 1381 008e 009B     		ldr	r3, [sp]
 1382              	.LBB28:
 1383              	.LBB29:
 1384              		.loc 1 541 0
 1385 0090 0198     		ldr	r0, [sp, #4]
 1386              	.LBE29:
 1387              	.LBE28:
 1388              		.loc 1 605 0
 1389 0092 1E60     		str	r6, [r3]
 1390              	.LVL180:
 1391              	.LBB31:
 1392              	.LBB30:
 1393              		.loc 1 541 0
 1394 0094 3A46     		mov	r2, r7
 1395 0096 0623     		movs	r3, #6
 1396 0098 B021     		movs	r1, #176
 1397 009a FFF7FEFF 		bl	VL53L0X_WriteMulti
 1398              	.LVL181:
 1399              	.LBE30:
 1400              	.LBE31:
 1401              		.loc 1 611 0
 1402 009e 0028     		cmp	r0, #0
 1403 00a0 EDD1     		bne	.L157
 1404              	.LVL182:
 1405              	.LBB32:
 1406              	.LBB33:
 1407              		.loc 1 549 0
 1408 00a2 0198     		ldr	r0, [sp, #4]
 1409              	.LVL183:
 1410 00a4 03AA     		add	r2, sp, #12
 1411              	.LVL184:
 1412 00a6 0623     		movs	r3, #6
 1413 00a8 B021     		movs	r1, #176
 1414 00aa FFF7FEFF 		bl	VL53L0X_ReadMulti
 1415              	.LVL185:
 1416              	.LBE33:
 1417              	.LBE32:
 1418              		.loc 1 617 0
 1419 00ae 002D     		cmp	r5, #0
 1420 00b0 E5D0     		beq	.L157
 1421              		.loc 1 618 0
 1422 00b2 9DF80C20 		ldrb	r2, [sp, #12]	@ zero_extendqisi2
 1423 00b6 3B78     		ldrb	r3, [r7]	@ zero_extendqisi2
 1424 00b8 9A42     		cmp	r2, r3
 1425 00ba 0AD1     		bne	.L163
ARM GAS  C:\Users\Moi\AppData\Local\Temp\ccWeMAis.s 			page 26


 1426 00bc 3D44     		add	r5, r5, r7
 1427 00be 03AB     		add	r3, sp, #12
 1428 00c0 0137     		adds	r7, r7, #1
 1429              	.LVL186:
 1430              	.L158:
 1431              		.loc 1 617 0
 1432 00c2 AF42     		cmp	r7, r5
 1433 00c4 DBD0     		beq	.L157
 1434              		.loc 1 618 0
 1435 00c6 17F8012B 		ldrb	r2, [r7], #1	@ zero_extendqisi2
 1436 00ca 13F8011F 		ldrb	r1, [r3, #1]!	@ zero_extendqisi2
 1437 00ce 9142     		cmp	r1, r2
 1438 00d0 F7D0     		beq	.L158
 1439              	.L163:
 1440              		.loc 1 619 0
 1441 00d2 6FF03100 		mvn	r0, #49
 1442 00d6 D2E7     		b	.L157
 1443              	.LVL187:
 1444              	.L177:
 1445              		.loc 1 626 0
 1446 00d8 FFF7FEFF 		bl	__stack_chk_fail
 1447              	.LVL188:
 1448              	.L179:
 1449              		.align	2
 1450              	.L178:
 1451 00dc 00000000 		.word	__stack_chk_guard
 1452 00e0 00000000 		.word	.LANCHOR0
 1453              		.cfi_endproc
 1454              	.LFE14:
 1455              		.size	enable_ref_spads, .-enable_ref_spads
 1456              		.section	.text.perform_ref_signal_measurement,"ax",%progbits
 1457              		.align	1
 1458              		.p2align 4,,15
 1459              		.global	perform_ref_signal_measurement
 1460              		.syntax unified
 1461              		.thumb
 1462              		.thumb_func
 1463              		.fpu fpv4-sp-d16
 1464              		.type	perform_ref_signal_measurement, %function
 1465              	perform_ref_signal_measurement:
 1466              	.LFB15:
 1467              		.loc 1 631 0
 1468              		.cfi_startproc
 1469              		@ args = 0, pretend = 0, frame = 32
 1470              		@ frame_needed = 0, uses_anonymous_args = 0
 1471              	.LVL189:
 1472 0000 F0B5     		push	{r4, r5, r6, r7, lr}
 1473              		.cfi_def_cfa_offset 20
 1474              		.cfi_offset 4, -20
 1475              		.cfi_offset 5, -16
 1476              		.cfi_offset 6, -12
 1477              		.cfi_offset 7, -8
 1478              		.cfi_offset 14, -4
 1479 0002 1D4D     		ldr	r5, .L186
 1480              		.loc 1 641 0
 1481 0004 90F83061 		ldrb	r6, [r0, #304]	@ zero_extendqisi2
 1482              		.loc 1 631 0
ARM GAS  C:\Users\Moi\AppData\Local\Temp\ccWeMAis.s 			page 27


 1483 0008 2B68     		ldr	r3, [r5]
 1484 000a 89B0     		sub	sp, sp, #36
 1485              		.cfi_def_cfa_offset 56
 1486              		.loc 1 631 0
 1487 000c 0F46     		mov	r7, r1
 1488              		.loc 1 647 0
 1489 000e C022     		movs	r2, #192
 1490 0010 0121     		movs	r1, #1
 1491              	.LVL190:
 1492              		.loc 1 631 0
 1493 0012 0446     		mov	r4, r0
 1494 0014 0793     		str	r3, [sp, #28]
 1495              	.LVL191:
 1496              		.loc 1 647 0
 1497 0016 FFF7FEFF 		bl	VL53L0X_WrByte
 1498              	.LVL192:
 1499              		.loc 1 650 0
 1500 001a 28B1     		cbz	r0, .L184
 1501              	.L181:
 1502              		.loc 1 674 0
 1503 001c 079A     		ldr	r2, [sp, #28]
 1504 001e 2B68     		ldr	r3, [r5]
 1505 0020 9A42     		cmp	r2, r3
 1506 0022 26D1     		bne	.L185
 1507 0024 09B0     		add	sp, sp, #36
 1508              		.cfi_remember_state
 1509              		.cfi_def_cfa_offset 20
 1510              		@ sp needed
 1511 0026 F0BD     		pop	{r4, r5, r6, r7, pc}
 1512              	.LVL193:
 1513              	.L184:
 1514              		.cfi_restore_state
 1515              		.loc 1 651 0
 1516 0028 6946     		mov	r1, sp
 1517 002a 2046     		mov	r0, r4
 1518              	.LVL194:
 1519 002c FFF7FEFF 		bl	VL53L0X_PerformSingleRangingMeasurement
 1520              	.LVL195:
 1521              		.loc 1 654 0
 1522 0030 0028     		cmp	r0, #0
 1523 0032 F3D1     		bne	.L181
 1524              		.loc 1 655 0
 1525 0034 0122     		movs	r2, #1
 1526 0036 FF21     		movs	r1, #255
 1527 0038 2046     		mov	r0, r4
 1528              	.LVL196:
 1529 003a FFF7FEFF 		bl	VL53L0X_WrByte
 1530              	.LVL197:
 1531              		.loc 1 657 0
 1532 003e 0028     		cmp	r0, #0
 1533 0040 ECD1     		bne	.L181
 1534              		.loc 1 658 0
 1535 0042 3A46     		mov	r2, r7
 1536 0044 B621     		movs	r1, #182
 1537 0046 2046     		mov	r0, r4
 1538              	.LVL198:
 1539 0048 FFF7FEFF 		bl	VL53L0X_RdWord
ARM GAS  C:\Users\Moi\AppData\Local\Temp\ccWeMAis.s 			page 28


 1540              	.LVL199:
 1541              		.loc 1 662 0
 1542 004c 0028     		cmp	r0, #0
 1543 004e E5D1     		bne	.L181
 1544              		.loc 1 663 0
 1545 0050 0246     		mov	r2, r0
 1546 0052 FF21     		movs	r1, #255
 1547 0054 2046     		mov	r0, r4
 1548              	.LVL200:
 1549 0056 FFF7FEFF 		bl	VL53L0X_WrByte
 1550              	.LVL201:
 1551              		.loc 1 665 0
 1552 005a 0028     		cmp	r0, #0
 1553 005c DED1     		bne	.L181
 1554              		.loc 1 667 0
 1555 005e 3246     		mov	r2, r6
 1556 0060 0121     		movs	r1, #1
 1557 0062 2046     		mov	r0, r4
 1558              	.LVL202:
 1559 0064 FFF7FEFF 		bl	VL53L0X_WrByte
 1560              	.LVL203:
 1561              		.loc 1 669 0
 1562 0068 0028     		cmp	r0, #0
 1563 006a D7D1     		bne	.L181
 1564              		.loc 1 670 0
 1565 006c 84F83061 		strb	r6, [r4, #304]
 1566 0070 D4E7     		b	.L181
 1567              	.L185:
 1568              		.loc 1 674 0
 1569 0072 FFF7FEFF 		bl	__stack_chk_fail
 1570              	.LVL204:
 1571              	.L187:
 1572 0076 00BF     		.align	2
 1573              	.L186:
 1574 0078 00000000 		.word	__stack_chk_guard
 1575              		.cfi_endproc
 1576              	.LFE15:
 1577              		.size	perform_ref_signal_measurement, .-perform_ref_signal_measurement
 1578              		.section	.text.VL53L0X_set_reference_spads,"ax",%progbits
 1579              		.align	1
 1580              		.p2align 4,,15
 1581              		.global	VL53L0X_set_reference_spads
 1582              		.syntax unified
 1583              		.thumb
 1584              		.thumb_func
 1585              		.fpu fpv4-sp-d16
 1586              		.type	VL53L0X_set_reference_spads, %function
 1587              	VL53L0X_set_reference_spads:
 1588              	.LFB17:
 1589              		.loc 1 945 0
 1590              		.cfi_startproc
 1591              		@ args = 0, pretend = 0, frame = 8
 1592              		@ frame_needed = 0, uses_anonymous_args = 0
 1593              	.LVL205:
 1594 0000 F0B5     		push	{r4, r5, r6, r7, lr}
 1595              		.cfi_def_cfa_offset 20
 1596              		.cfi_offset 4, -20
ARM GAS  C:\Users\Moi\AppData\Local\Temp\ccWeMAis.s 			page 29


 1597              		.cfi_offset 5, -16
 1598              		.cfi_offset 6, -12
 1599              		.cfi_offset 7, -8
 1600              		.cfi_offset 14, -4
 1601 0002 2F4E     		ldr	r6, .L206
 1602 0004 89B0     		sub	sp, sp, #36
 1603              		.cfi_def_cfa_offset 56
 1604              		.loc 1 945 0
 1605 0006 0F46     		mov	r7, r1
 1606 0008 1546     		mov	r5, r2
 1607 000a 3368     		ldr	r3, [r6]
 1608 000c 0793     		str	r3, [sp, #28]
 1609              	.LVL206:
 1610              		.loc 1 961 0
 1611 000e 0122     		movs	r2, #1
 1612              	.LVL207:
 1613 0010 FF21     		movs	r1, #255
 1614              	.LVL208:
 1615              		.loc 1 945 0
 1616 0012 0446     		mov	r4, r0
 1617              		.loc 1 961 0
 1618 0014 FFF7FEFF 		bl	VL53L0X_WrByte
 1619              	.LVL209:
 1620              		.loc 1 963 0
 1621 0018 A0B3     		cbz	r0, .L204
 1622              	.LVL210:
 1623              	.L190:
 1624              		.loc 1 980 0 discriminator 1
 1625 001a 0022     		movs	r2, #0
 1626 001c C4F82421 		str	r2, [r4, #292]
 1627 0020 A4F82821 		strh	r2, [r4, #296]	@ movhi
 1628              	.LVL211:
 1629              		.loc 1 982 0 discriminator 1
 1630 0024 65B3     		cbz	r5, .L197
 1631              	.LVL212:
 1632              	.LBB34:
 1633              	.LBB35:
 1634              		.loc 1 456 0
 1635 0026 2748     		ldr	r0, .L206+4
 1636 0028 8168     		ldr	r1, [r0, #8]
 1637              	.LBE35:
 1638              	.LBE34:
 1639              		.loc 1 986 0
 1640 002a 0123     		movs	r3, #1
 1641              	.LBB38:
 1642              	.LBB36:
 1643              		.loc 1 456 0
 1644 002c 21B3     		cbz	r1, .L193
 1645              	.LVL213:
 1646              	.L192:
 1647              	.LBE36:
 1648              	.LBE38:
 1649              		.loc 1 989 0
 1650 002e 06A8     		add	r0, sp, #24
 1651 0030 B421     		movs	r1, #180
 1652 0032 0623     		movs	r3, #6
 1653 0034 CDE90031 		strd	r3, r1, [sp]
ARM GAS  C:\Users\Moi\AppData\Local\Temp\ccWeMAis.s 			page 30


 1654 0038 CDE90227 		strd	r2, r7, [sp, #8]
 1655 003c 0490     		str	r0, [sp, #16]
 1656 003e 04F59273 		add	r3, r4, #292
 1657 0042 04F59572 		add	r2, r4, #298
 1658              	.LVL214:
 1659 0046 2946     		mov	r1, r5
 1660 0048 2046     		mov	r0, r4
 1661 004a FFF7FEFF 		bl	enable_ref_spads
 1662              	.LVL215:
 1663              		.loc 1 999 0
 1664 004e 30B9     		cbnz	r0, .L195
 1665              		.loc 1 1000 0
 1666 0050 0123     		movs	r3, #1
 1667              		.loc 1 1001 0
 1668 0052 84F81371 		strb	r7, [r4, #275]
 1669              		.loc 1 1003 0
 1670 0056 84F81451 		strb	r5, [r4, #276]
 1671              		.loc 1 1000 0
 1672 005a 84F81531 		strb	r3, [r4, #277]
 1673              	.L195:
 1674              		.loc 1 1008 0
 1675 005e 079A     		ldr	r2, [sp, #28]
 1676 0060 3368     		ldr	r3, [r6]
 1677 0062 9A42     		cmp	r2, r3
 1678 0064 29D1     		bne	.L205
 1679 0066 09B0     		add	sp, sp, #36
 1680              		.cfi_remember_state
 1681              		.cfi_def_cfa_offset 20
 1682              		@ sp needed
 1683 0068 F0BD     		pop	{r4, r5, r6, r7, pc}
 1684              	.LVL216:
 1685              	.L194:
 1686              		.cfi_restore_state
 1687              		.loc 1 984 0
 1688 006a 2C2A     		cmp	r2, #44
 1689 006c DFD0     		beq	.L192
 1690 006e B633     		adds	r3, r3, #182
 1691 0070 9909     		lsrs	r1, r3, #6
 1692 0072 1346     		mov	r3, r2
 1693 0074 50F82110 		ldr	r1, [r0, r1, lsl #2]
 1694              	.LVL217:
 1695              	.L193:
 1696              		.loc 1 986 0
 1697 0078 5A1C     		adds	r2, r3, #1
 1698              	.LVL218:
 1699              	.LBB39:
 1700              	.LBB37:
 1701              		.loc 1 456 0
 1702 007a 0029     		cmp	r1, #0
 1703 007c F5D0     		beq	.L194
 1704 007e D6E7     		b	.L192
 1705              	.LVL219:
 1706              	.L197:
 1707              	.LBE37:
 1708              	.LBE39:
 1709              		.loc 1 947 0
 1710 0080 2A46     		mov	r2, r5
ARM GAS  C:\Users\Moi\AppData\Local\Temp\ccWeMAis.s 			page 31


 1711 0082 D4E7     		b	.L192
 1712              	.LVL220:
 1713              	.L204:
 1714              		.loc 1 964 0
 1715 0084 0246     		mov	r2, r0
 1716 0086 4F21     		movs	r1, #79
 1717 0088 2046     		mov	r0, r4
 1718              	.LVL221:
 1719 008a FFF7FEFF 		bl	VL53L0X_WrByte
 1720              	.LVL222:
 1721              		.loc 1 967 0
 1722 008e 0028     		cmp	r0, #0
 1723 0090 C3D1     		bne	.L190
 1724              		.loc 1 968 0
 1725 0092 2C22     		movs	r2, #44
 1726 0094 4E21     		movs	r1, #78
 1727 0096 2046     		mov	r0, r4
 1728              	.LVL223:
 1729 0098 FFF7FEFF 		bl	VL53L0X_WrByte
 1730              	.LVL224:
 1731              		.loc 1 971 0
 1732 009c 0246     		mov	r2, r0
 1733 009e 0028     		cmp	r0, #0
 1734 00a0 BBD1     		bne	.L190
 1735              		.loc 1 972 0
 1736 00a2 FF21     		movs	r1, #255
 1737 00a4 2046     		mov	r0, r4
 1738              	.LVL225:
 1739 00a6 FFF7FEFF 		bl	VL53L0X_WrByte
 1740              	.LVL226:
 1741              		.loc 1 974 0
 1742 00aa 0028     		cmp	r0, #0
 1743 00ac B5D1     		bne	.L190
 1744              		.loc 1 975 0
 1745 00ae B422     		movs	r2, #180
 1746 00b0 B621     		movs	r1, #182
 1747 00b2 2046     		mov	r0, r4
 1748              	.LVL227:
 1749 00b4 FFF7FEFF 		bl	VL53L0X_WrByte
 1750              	.LVL228:
 1751 00b8 AFE7     		b	.L190
 1752              	.LVL229:
 1753              	.L205:
 1754              		.loc 1 1008 0
 1755 00ba FFF7FEFF 		bl	__stack_chk_fail
 1756              	.LVL230:
 1757              	.L207:
 1758 00be 00BF     		.align	2
 1759              	.L206:
 1760 00c0 00000000 		.word	__stack_chk_guard
 1761 00c4 00000000 		.word	.LANCHOR0
 1762              		.cfi_endproc
 1763              	.LFE17:
 1764              		.size	VL53L0X_set_reference_spads, .-VL53L0X_set_reference_spads
 1765              		.section	.text.VL53L0X_get_reference_spads,"ax",%progbits
 1766              		.align	1
 1767              		.p2align 4,,15
ARM GAS  C:\Users\Moi\AppData\Local\Temp\ccWeMAis.s 			page 32


 1768              		.global	VL53L0X_get_reference_spads
 1769              		.syntax unified
 1770              		.thumb
 1771              		.thumb_func
 1772              		.fpu fpv4-sp-d16
 1773              		.type	VL53L0X_get_reference_spads, %function
 1774              	VL53L0X_get_reference_spads:
 1775              	.LFB18:
 1776              		.loc 1 1012 0
 1777              		.cfi_startproc
 1778              		@ args = 0, pretend = 0, frame = 24
 1779              		@ frame_needed = 0, uses_anonymous_args = 0
 1780              	.LVL231:
 1781 0000 2DE9F041 		push	{r4, r5, r6, r7, r8, lr}
 1782              		.cfi_def_cfa_offset 24
 1783              		.cfi_offset 4, -24
 1784              		.cfi_offset 5, -20
 1785              		.cfi_offset 6, -16
 1786              		.cfi_offset 7, -12
 1787              		.cfi_offset 8, -8
 1788              		.cfi_offset 14, -4
 1789 0004 1F4D     		ldr	r5, .L216
 1790              		.loc 1 1024 0
 1791 0006 90F81561 		ldrb	r6, [r0, #277]	@ zero_extendqisi2
 1792              		.loc 1 1012 0
 1793 000a 2B68     		ldr	r3, [r5]
 1794 000c 88B0     		sub	sp, sp, #32
 1795              		.cfi_def_cfa_offset 56
 1796              		.loc 1 1024 0
 1797 000e 012E     		cmp	r6, #1
 1798              		.loc 1 1012 0
 1799 0010 0793     		str	r3, [sp, #28]
 1800              	.LVL232:
 1801              		.loc 1 1019 0
 1802 0012 4FF00003 		mov	r3, #0
 1803              		.loc 1 1012 0
 1804 0016 0446     		mov	r4, r0
 1805 0018 8846     		mov	r8, r1
 1806 001a 1746     		mov	r7, r2
 1807              		.loc 1 1019 0
 1808 001c 8DF80F30 		strb	r3, [sp, #15]
 1809              	.LVL233:
 1810              		.loc 1 1024 0
 1811 0020 0CD0     		beq	.L213
 1812              	.LVL234:
 1813              	.LBB40:
 1814              	.LBB41:
 1815              		.loc 1 549 0
 1816 0022 05AA     		add	r2, sp, #20
 1817              	.LVL235:
 1818 0024 0623     		movs	r3, #6
 1819 0026 B021     		movs	r1, #176
 1820              	.LVL236:
 1821 0028 FFF7FEFF 		bl	VL53L0X_ReadMulti
 1822              	.LVL237:
 1823              	.LBE41:
 1824              	.LBE40:
ARM GAS  C:\Users\Moi\AppData\Local\Temp\ccWeMAis.s 			page 33


 1825              		.loc 1 1035 0
 1826 002c 70B1     		cbz	r0, .L214
 1827              	.L210:
 1828              	.LVL238:
 1829              		.loc 1 1062 0
 1830 002e 079A     		ldr	r2, [sp, #28]
 1831 0030 2B68     		ldr	r3, [r5]
 1832 0032 9A42     		cmp	r2, r3
 1833 0034 23D1     		bne	.L215
 1834 0036 08B0     		add	sp, sp, #32
 1835              		.cfi_remember_state
 1836              		.cfi_def_cfa_offset 24
 1837              		@ sp needed
 1838 0038 BDE8F081 		pop	{r4, r5, r6, r7, r8, pc}
 1839              	.LVL239:
 1840              	.L213:
 1841              		.cfi_restore_state
 1842              		.loc 1 1026 0
 1843 003c 90F81321 		ldrb	r2, [r0, #275]	@ zero_extendqisi2
 1844              	.LVL240:
 1845 0040 0A60     		str	r2, [r1]
 1846              	.LVL241:
 1847              		.loc 1 1028 0
 1848 0042 90F81421 		ldrb	r2, [r0, #276]	@ zero_extendqisi2
 1849 0046 3A70     		strb	r2, [r7]
 1850              		.loc 1 1013 0
 1851 0048 1846     		mov	r0, r3
 1852              	.LVL242:
 1853 004a F0E7     		b	.L210
 1854              	.LVL243:
 1855              	.L214:
 1856              		.loc 1 1039 0
 1857 004c 0DF10F03 		add	r3, sp, #15
 1858 0050 0093     		str	r3, [sp]
 1859 0052 05A8     		add	r0, sp, #20
 1860 0054 04AB     		add	r3, sp, #16
 1861 0056 2C22     		movs	r2, #44
 1862 0058 0621     		movs	r1, #6
 1863 005a FFF7FEFF 		bl	count_enabled_spads
 1864              	.LVL244:
 1865              		.loc 1 1045 0
 1866 005e 0028     		cmp	r0, #0
 1867 0060 E5D1     		bne	.L210
 1868              		.loc 1 1047 0
 1869 0062 049A     		ldr	r2, [sp, #16]
 1870              		.loc 1 1048 0
 1871 0064 9DF80F30 		ldrb	r3, [sp, #15]	@ zero_extendqisi2
 1872              		.loc 1 1047 0
 1873 0068 C8F80020 		str	r2, [r8]
 1874              		.loc 1 1050 0
 1875 006c 0121     		movs	r1, #1
 1876              		.loc 1 1048 0
 1877 006e 3B70     		strb	r3, [r7]
 1878              		.loc 1 1052 0
 1879 0070 84F81321 		strb	r2, [r4, #275]
 1880              		.loc 1 1055 0
 1881 0074 84F81431 		strb	r3, [r4, #276]
ARM GAS  C:\Users\Moi\AppData\Local\Temp\ccWeMAis.s 			page 34


 1882              		.loc 1 1050 0
 1883 0078 84F81511 		strb	r1, [r4, #277]
 1884 007c D7E7     		b	.L210
 1885              	.L215:
 1886              		.loc 1 1062 0
 1887 007e FFF7FEFF 		bl	__stack_chk_fail
 1888              	.LVL245:
 1889              	.L217:
 1890 0082 00BF     		.align	2
 1891              	.L216:
 1892 0084 00000000 		.word	__stack_chk_guard
 1893              		.cfi_endproc
 1894              	.LFE18:
 1895              		.size	VL53L0X_get_reference_spads, .-VL53L0X_get_reference_spads
 1896              		.section	.text.VL53L0X_perform_single_ref_calibration,"ax",%progbits
 1897              		.align	1
 1898              		.p2align 4,,15
 1899              		.global	VL53L0X_perform_single_ref_calibration
 1900              		.syntax unified
 1901              		.thumb
 1902              		.thumb_func
 1903              		.fpu fpv4-sp-d16
 1904              		.type	VL53L0X_perform_single_ref_calibration, %function
 1905              	VL53L0X_perform_single_ref_calibration:
 1906              	.LFB19:
 1907              		.loc 1 1067 0
 1908              		.cfi_startproc
 1909              		@ args = 0, pretend = 0, frame = 8
 1910              		@ frame_needed = 0, uses_anonymous_args = 0
 1911              	.LVL246:
 1912 0000 30B5     		push	{r4, r5, lr}
 1913              		.cfi_def_cfa_offset 12
 1914              		.cfi_offset 4, -12
 1915              		.cfi_offset 5, -8
 1916              		.cfi_offset 14, -4
 1917 0002 164C     		ldr	r4, .L225
 1918 0004 83B0     		sub	sp, sp, #12
 1919              		.cfi_def_cfa_offset 24
 1920              		.loc 1 1071 0
 1921 0006 41F00102 		orr	r2, r1, #1
 1922              		.loc 1 1067 0
 1923 000a 2368     		ldr	r3, [r4]
 1924 000c 0193     		str	r3, [sp, #4]
 1925              		.loc 1 1071 0
 1926 000e 0021     		movs	r1, #0
 1927              	.LVL247:
 1928              		.loc 1 1067 0
 1929 0010 0546     		mov	r5, r0
 1930              	.LVL248:
 1931              		.loc 1 1071 0
 1932 0012 FFF7FEFF 		bl	VL53L0X_WrByte
 1933              	.LVL249:
 1934              		.loc 1 1075 0
 1935 0016 0246     		mov	r2, r0
 1936 0018 30B1     		cbz	r0, .L224
 1937              	.L219:
 1938              	.LVL250:
ARM GAS  C:\Users\Moi\AppData\Local\Temp\ccWeMAis.s 			page 35


 1939              		.loc 1 1085 0
 1940 001a 0199     		ldr	r1, [sp, #4]
 1941 001c 2368     		ldr	r3, [r4]
 1942 001e 9942     		cmp	r1, r3
 1943 0020 1046     		mov	r0, r2
 1944 0022 19D1     		bne	.L223
 1945 0024 03B0     		add	sp, sp, #12
 1946              		.cfi_remember_state
 1947              		.cfi_def_cfa_offset 12
 1948              		@ sp needed
 1949 0026 30BD     		pop	{r4, r5, pc}
 1950              	.LVL251:
 1951              	.L224:
 1952              		.cfi_restore_state
 1953              		.loc 1 1076 0
 1954 0028 2846     		mov	r0, r5
 1955              	.LVL252:
 1956 002a FFF7FEFF 		bl	VL53L0X_measurement_poll_for_completion
 1957              	.LVL253:
 1958              		.loc 1 1078 0
 1959 002e 0246     		mov	r2, r0
 1960 0030 0028     		cmp	r0, #0
 1961 0032 F2D1     		bne	.L219
 1962              		.loc 1 1079 0
 1963 0034 0146     		mov	r1, r0
 1964 0036 2846     		mov	r0, r5
 1965              	.LVL254:
 1966 0038 FFF7FEFF 		bl	VL53L0X_ClearInterruptMask
 1967              	.LVL255:
 1968              		.loc 1 1081 0
 1969 003c 0246     		mov	r2, r0
 1970 003e 0028     		cmp	r0, #0
 1971 0040 EBD1     		bne	.L219
 1972              	.LVL256:
 1973              	.LBB44:
 1974              	.LBB45:
 1975              		.loc 1 1082 0
 1976 0042 0199     		ldr	r1, [sp, #4]
 1977 0044 2368     		ldr	r3, [r4]
 1978 0046 9942     		cmp	r1, r3
 1979 0048 06D1     		bne	.L223
 1980 004a 2846     		mov	r0, r5
 1981              	.LVL257:
 1982 004c 1146     		mov	r1, r2
 1983              	.LBE45:
 1984              	.LBE44:
 1985              		.loc 1 1085 0
 1986 004e 03B0     		add	sp, sp, #12
 1987              		.cfi_remember_state
 1988              		.cfi_def_cfa_offset 12
 1989              		@ sp needed
 1990 0050 BDE83040 		pop	{r4, r5, lr}
 1991              		.cfi_restore 14
 1992              		.cfi_restore 5
 1993              		.cfi_restore 4
 1994              		.cfi_def_cfa_offset 0
 1995              	.LVL258:
ARM GAS  C:\Users\Moi\AppData\Local\Temp\ccWeMAis.s 			page 36


 1996              	.LBB47:
 1997              	.LBB46:
 1998              		.loc 1 1082 0
 1999 0054 FFF7FEBF 		b	VL53L0X_WrByte
 2000              	.LVL259:
 2001              	.L223:
 2002              		.cfi_restore_state
 2003              	.LBE46:
 2004              	.LBE47:
 2005              		.loc 1 1085 0
 2006 0058 FFF7FEFF 		bl	__stack_chk_fail
 2007              	.LVL260:
 2008              	.L226:
 2009              		.align	2
 2010              	.L225:
 2011 005c 00000000 		.word	__stack_chk_guard
 2012              		.cfi_endproc
 2013              	.LFE19:
 2014              		.size	VL53L0X_perform_single_ref_calibration, .-VL53L0X_perform_single_ref_calibration
 2015              		.section	.text.VL53L0X_ref_calibration_io,"ax",%progbits
 2016              		.align	1
 2017              		.p2align 4,,15
 2018              		.global	VL53L0X_ref_calibration_io
 2019              		.syntax unified
 2020              		.thumb
 2021              		.thumb_func
 2022              		.fpu fpv4-sp-d16
 2023              		.type	VL53L0X_ref_calibration_io, %function
 2024              	VL53L0X_ref_calibration_io:
 2025              	.LFB20:
 2026              		.loc 1 1092 0
 2027              		.cfi_startproc
 2028              		@ args = 16, pretend = 0, frame = 24
 2029              		@ frame_needed = 0, uses_anonymous_args = 0
 2030              	.LVL261:
 2031 0000 2DE9F04F 		push	{r4, r5, r6, r7, r8, r9, r10, fp, lr}
 2032              		.cfi_def_cfa_offset 36
 2033              		.cfi_offset 4, -36
 2034              		.cfi_offset 5, -32
 2035              		.cfi_offset 6, -28
 2036              		.cfi_offset 7, -24
 2037              		.cfi_offset 8, -20
 2038              		.cfi_offset 9, -16
 2039              		.cfi_offset 10, -12
 2040              		.cfi_offset 11, -8
 2041              		.cfi_offset 14, -4
 2042 0004 87B0     		sub	sp, sp, #28
 2043              		.cfi_def_cfa_offset 64
 2044              		.loc 1 1092 0
 2045 0006 3F4F     		ldr	r7, .L251
 2046 0008 109C     		ldr	r4, [sp, #64]
 2047 000a 0394     		str	r4, [sp, #12]
 2048              		.loc 1 1094 0
 2049 000c 0026     		movs	r6, #0
 2050              		.loc 1 1092 0
 2051 000e 3C68     		ldr	r4, [r7]
 2052 0010 0292     		str	r2, [sp, #8]
ARM GAS  C:\Users\Moi\AppData\Local\Temp\ccWeMAis.s 			page 37


 2053 0012 8A46     		mov	r10, r1
 2054              		.loc 1 1097 0
 2055 0014 0122     		movs	r2, #1
 2056              	.LVL262:
 2057 0016 FF21     		movs	r1, #255
 2058              	.LVL263:
 2059              		.loc 1 1092 0
 2060 0018 0546     		mov	r5, r0
 2061 001a 0193     		str	r3, [sp, #4]
 2062 001c 0594     		str	r4, [sp, #20]
 2063              	.LVL264:
 2064              		.loc 1 1094 0
 2065 001e 8DF81360 		strb	r6, [sp, #19]
 2066              		.loc 1 1092 0
 2067 0022 DDF84480 		ldr	r8, [sp, #68]
 2068 0026 9DF848B0 		ldrb	fp, [sp, #72]	@ zero_extendqisi2
 2069 002a 9DF84C90 		ldrb	r9, [sp, #76]	@ zero_extendqisi2
 2070              		.loc 1 1097 0
 2071 002e FFF7FEFF 		bl	VL53L0X_WrByte
 2072              	.LVL265:
 2073              		.loc 1 1098 0
 2074 0032 3246     		mov	r2, r6
 2075              		.loc 1 1097 0
 2076 0034 0446     		mov	r4, r0
 2077              	.LVL266:
 2078              		.loc 1 1098 0
 2079 0036 3146     		mov	r1, r6
 2080 0038 2846     		mov	r0, r5
 2081 003a FFF7FEFF 		bl	VL53L0X_WrByte
 2082              	.LVL267:
 2083              		.loc 1 1099 0
 2084 003e 3246     		mov	r2, r6
 2085              		.loc 1 1098 0
 2086 0040 0443     		orrs	r4, r4, r0
 2087              	.LVL268:
 2088              		.loc 1 1099 0
 2089 0042 FF21     		movs	r1, #255
 2090 0044 2846     		mov	r0, r5
 2091 0046 FFF7FEFF 		bl	VL53L0X_WrByte
 2092              	.LVL269:
 2093              		.loc 1 1098 0
 2094 004a 64B2     		sxtb	r4, r4
 2095              	.LVL270:
 2096              		.loc 1 1099 0
 2097 004c 0443     		orrs	r4, r4, r0
 2098              	.LVL271:
 2099 004e 64B2     		sxtb	r4, r4
 2100              	.LVL272:
 2101              		.loc 1 1101 0
 2102 0050 BAF1000F 		cmp	r10, #0
 2103 0054 27D0     		beq	.L228
 2104              		.loc 1 1102 0
 2105 0056 BBF1000F 		cmp	fp, #0
 2106 005a 33D1     		bne	.L246
 2107              		.loc 1 1104 0
 2108 005c B9F1000F 		cmp	r9, #0
 2109 0060 3AD1     		bne	.L247
ARM GAS  C:\Users\Moi\AppData\Local\Temp\ccWeMAis.s 			page 38


 2110              	.L230:
 2111              		.loc 1 1113 0
 2112 0062 0122     		movs	r2, #1
 2113 0064 FF21     		movs	r1, #255
 2114 0066 2846     		mov	r0, r5
 2115 0068 FFF7FEFF 		bl	VL53L0X_WrByte
 2116              	.LVL273:
 2117              		.loc 1 1114 0
 2118 006c 0122     		movs	r2, #1
 2119              		.loc 1 1113 0
 2120 006e 0443     		orrs	r4, r4, r0
 2121              	.LVL274:
 2122              		.loc 1 1114 0
 2123 0070 0021     		movs	r1, #0
 2124 0072 2846     		mov	r0, r5
 2125 0074 FFF7FEFF 		bl	VL53L0X_WrByte
 2126              	.LVL275:
 2127              		.loc 1 1113 0
 2128 0078 64B2     		sxtb	r4, r4
 2129              	.LVL276:
 2130              		.loc 1 1115 0
 2131 007a 0022     		movs	r2, #0
 2132              		.loc 1 1114 0
 2133 007c 0443     		orrs	r4, r4, r0
 2134              	.LVL277:
 2135              		.loc 1 1115 0
 2136 007e FF21     		movs	r1, #255
 2137 0080 2846     		mov	r0, r5
 2138 0082 FFF7FEFF 		bl	VL53L0X_WrByte
 2139              	.LVL278:
 2140              		.loc 1 1117 0
 2141 0086 9DF81330 		ldrb	r3, [sp, #19]	@ zero_extendqisi2
 2142              		.loc 1 1120 0
 2143 008a 059A     		ldr	r2, [sp, #20]
 2144              		.loc 1 1117 0
 2145 008c 23F01003 		bic	r3, r3, #16
 2146 0090 88F80030 		strb	r3, [r8]
 2147              		.loc 1 1120 0
 2148 0094 3B68     		ldr	r3, [r7]
 2149              		.loc 1 1114 0
 2150 0096 64B2     		sxtb	r4, r4
 2151              	.LVL279:
 2152              		.loc 1 1115 0
 2153 0098 2043     		orrs	r0, r0, r4
 2154              	.LVL280:
 2155              		.loc 1 1120 0
 2156 009a 9A42     		cmp	r2, r3
 2157 009c 40B2     		sxtb	r0, r0
 2158 009e 2FD1     		bne	.L248
 2159 00a0 07B0     		add	sp, sp, #28
 2160              		.cfi_remember_state
 2161              		.cfi_def_cfa_offset 36
 2162              		@ sp needed
 2163 00a2 BDE8F08F 		pop	{r4, r5, r6, r7, r8, r9, r10, fp, pc}
 2164              	.LVL281:
 2165              	.L228:
 2166              		.cfi_restore_state
ARM GAS  C:\Users\Moi\AppData\Local\Temp\ccWeMAis.s 			page 39


 2167              		.loc 1 1107 0
 2168 00a6 BBF1000F 		cmp	fp, #0
 2169 00aa 1ED1     		bne	.L249
 2170              		.loc 1 1109 0
 2171 00ac B9F1000F 		cmp	r9, #0
 2172 00b0 D7D0     		beq	.L230
 2173              	.L250:
 2174              		.loc 1 1110 0
 2175 00b2 019B     		ldr	r3, [sp, #4]
 2176 00b4 8022     		movs	r2, #128
 2177 00b6 EE21     		movs	r1, #238
 2178 00b8 2846     		mov	r0, r5
 2179 00ba FFF7FEFF 		bl	VL53L0X_UpdateByte
 2180              	.LVL282:
 2181 00be 0443     		orrs	r4, r4, r0
 2182              	.LVL283:
 2183 00c0 64B2     		sxtb	r4, r4
 2184              	.LVL284:
 2185 00c2 CEE7     		b	.L230
 2186              	.L246:
 2187              		.loc 1 1103 0
 2188 00c4 039A     		ldr	r2, [sp, #12]
 2189 00c6 CB21     		movs	r1, #203
 2190 00c8 2846     		mov	r0, r5
 2191 00ca FFF7FEFF 		bl	VL53L0X_RdByte
 2192              	.LVL285:
 2193 00ce 0443     		orrs	r4, r4, r0
 2194              	.LVL286:
 2195 00d0 64B2     		sxtb	r4, r4
 2196              	.LVL287:
 2197              		.loc 1 1104 0
 2198 00d2 B9F1000F 		cmp	r9, #0
 2199 00d6 C4D0     		beq	.L230
 2200              	.L247:
 2201              		.loc 1 1105 0
 2202 00d8 0DF11302 		add	r2, sp, #19
 2203 00dc EE21     		movs	r1, #238
 2204 00de 2846     		mov	r0, r5
 2205 00e0 FFF7FEFF 		bl	VL53L0X_RdByte
 2206              	.LVL288:
 2207 00e4 0443     		orrs	r4, r4, r0
 2208              	.LVL289:
 2209 00e6 64B2     		sxtb	r4, r4
 2210              	.LVL290:
 2211 00e8 BBE7     		b	.L230
 2212              	.L249:
 2213              		.loc 1 1108 0
 2214 00ea 029A     		ldr	r2, [sp, #8]
 2215 00ec CB21     		movs	r1, #203
 2216 00ee 2846     		mov	r0, r5
 2217 00f0 FFF7FEFF 		bl	VL53L0X_WrByte
 2218              	.LVL291:
 2219 00f4 0443     		orrs	r4, r4, r0
 2220              	.LVL292:
 2221 00f6 64B2     		sxtb	r4, r4
 2222              	.LVL293:
 2223              		.loc 1 1109 0
ARM GAS  C:\Users\Moi\AppData\Local\Temp\ccWeMAis.s 			page 40


 2224 00f8 B9F1000F 		cmp	r9, #0
 2225 00fc B1D0     		beq	.L230
 2226 00fe D8E7     		b	.L250
 2227              	.LVL294:
 2228              	.L248:
 2229              		.loc 1 1120 0
 2230 0100 FFF7FEFF 		bl	__stack_chk_fail
 2231              	.LVL295:
 2232              	.L252:
 2233              		.align	2
 2234              	.L251:
 2235 0104 00000000 		.word	__stack_chk_guard
 2236              		.cfi_endproc
 2237              	.LFE20:
 2238              		.size	VL53L0X_ref_calibration_io, .-VL53L0X_ref_calibration_io
 2239              		.section	.text.VL53L0X_perform_vhv_calibration,"ax",%progbits
 2240              		.align	1
 2241              		.p2align 4,,15
 2242              		.global	VL53L0X_perform_vhv_calibration
 2243              		.syntax unified
 2244              		.thumb
 2245              		.thumb_func
 2246              		.fpu fpv4-sp-d16
 2247              		.type	VL53L0X_perform_vhv_calibration, %function
 2248              	VL53L0X_perform_vhv_calibration:
 2249              	.LFB21:
 2250              		.loc 1 1126 0
 2251              		.cfi_startproc
 2252              		@ args = 0, pretend = 0, frame = 8
 2253              		@ frame_needed = 0, uses_anonymous_args = 0
 2254              	.LVL296:
 2255 0000 2DE9F047 		push	{r4, r5, r6, r7, r8, r9, r10, lr}
 2256              		.cfi_def_cfa_offset 32
 2257              		.cfi_offset 4, -32
 2258              		.cfi_offset 5, -28
 2259              		.cfi_offset 6, -24
 2260              		.cfi_offset 7, -20
 2261              		.cfi_offset 8, -16
 2262              		.cfi_offset 9, -12
 2263              		.cfi_offset 10, -8
 2264              		.cfi_offset 14, -4
 2265 0004 2A4F     		ldr	r7, .L271
 2266 0006 86B0     		sub	sp, sp, #24
 2267              		.cfi_def_cfa_offset 56
 2268              		.loc 1 1126 0
 2269 0008 3C68     		ldr	r4, [r7]
 2270 000a 0594     		str	r4, [sp, #20]
 2271              	.LVL297:
 2272              		.loc 1 1131 0
 2273 000c 0024     		movs	r4, #0
 2274              		.loc 1 1126 0
 2275 000e 0546     		mov	r5, r0
 2276 0010 8846     		mov	r8, r1
 2277 0012 9146     		mov	r9, r2
 2278              		.loc 1 1131 0
 2279 0014 8DF81340 		strb	r4, [sp, #19]
 2280              		.loc 1 1137 0
ARM GAS  C:\Users\Moi\AppData\Local\Temp\ccWeMAis.s 			page 41


 2281 0018 1E46     		mov	r6, r3
 2282 001a 9BB1     		cbz	r3, .L260
 2283              		.loc 1 1141 0
 2284 001c 0122     		movs	r2, #1
 2285              	.LVL298:
 2286              		.loc 1 1138 0
 2287 001e 90F830A1 		ldrb	r10, [r0, #304]	@ zero_extendqisi2
 2288              	.LVL299:
 2289              		.loc 1 1141 0
 2290 0022 1146     		mov	r1, r2
 2291              	.LVL300:
 2292 0024 2846     		mov	r0, r5
 2293 0026 FFF7FEFF 		bl	VL53L0X_WrByte
 2294              	.LVL301:
 2295              		.loc 1 1143 0
 2296 002a 0446     		mov	r4, r0
 2297 002c 98B1     		cbz	r0, .L268
 2298              	.L255:
 2299              		.loc 1 1153 0
 2300 002e 0023     		movs	r3, #0
 2301 0030 88F80030 		strb	r3, [r8]
 2302              	.LVL302:
 2303              	.L258:
 2304              		.loc 1 1166 0
 2305 0034 059A     		ldr	r2, [sp, #20]
 2306 0036 3B68     		ldr	r3, [r7]
 2307 0038 9A42     		cmp	r2, r3
 2308 003a 2046     		mov	r0, r4
 2309 003c 35D1     		bne	.L269
 2310 003e 06B0     		add	sp, sp, #24
 2311              		.cfi_remember_state
 2312              		.cfi_def_cfa_offset 32
 2313              		@ sp needed
 2314 0040 BDE8F087 		pop	{r4, r5, r6, r7, r8, r9, r10, pc}
 2315              	.LVL303:
 2316              	.L260:
 2317              		.cfi_restore_state
 2318              		.loc 1 1141 0
 2319 0044 0122     		movs	r2, #1
 2320              	.LVL304:
 2321 0046 1146     		mov	r1, r2
 2322              	.LVL305:
 2323 0048 2846     		mov	r0, r5
 2324              	.LVL306:
 2325              		.loc 1 1128 0
 2326 004a 9A46     		mov	r10, r3
 2327              	.LVL307:
 2328              		.loc 1 1141 0
 2329 004c FFF7FEFF 		bl	VL53L0X_WrByte
 2330              	.LVL308:
 2331              		.loc 1 1143 0
 2332 0050 0446     		mov	r4, r0
 2333 0052 0028     		cmp	r0, #0
 2334 0054 EBD1     		bne	.L255
 2335              	.L268:
 2336              		.loc 1 1144 0
 2337 0056 4021     		movs	r1, #64
ARM GAS  C:\Users\Moi\AppData\Local\Temp\ccWeMAis.s 			page 42


 2338 0058 2846     		mov	r0, r5
 2339              	.LVL309:
 2340 005a FFF7FEFF 		bl	VL53L0X_perform_single_ref_calibration
 2341              	.LVL310:
 2342              		.loc 1 1147 0
 2343 005e 0446     		mov	r4, r0
 2344 0060 0028     		cmp	r0, #0
 2345 0062 E4D1     		bne	.L255
 2346              		.loc 1 1147 0 is_stmt 0 discriminator 1
 2347 0064 B9F1010F 		cmp	r9, #1
 2348 0068 0ED0     		beq	.L270
 2349              		.loc 1 1153 0 is_stmt 1
 2350 006a 88F80000 		strb	r0, [r8]
 2351              	.LVL311:
 2352              	.L257:
 2353              		.loc 1 1156 0 discriminator 1
 2354 006e 002E     		cmp	r6, #0
 2355 0070 E0D0     		beq	.L258
 2356              		.loc 1 1158 0
 2357 0072 5246     		mov	r2, r10
 2358 0074 0121     		movs	r1, #1
 2359 0076 2846     		mov	r0, r5
 2360 0078 FFF7FEFF 		bl	VL53L0X_WrByte
 2361              	.LVL312:
 2362              		.loc 1 1160 0
 2363 007c 0446     		mov	r4, r0
 2364 007e 0028     		cmp	r0, #0
 2365 0080 D8D1     		bne	.L258
 2366              		.loc 1 1161 0
 2367 0082 85F830A1 		strb	r10, [r5, #304]
 2368 0086 D5E7     		b	.L258
 2369              	.L270:
 2370              		.loc 1 1148 0
 2371 0088 0DF11303 		add	r3, sp, #19
 2372 008c CDE90290 		strd	r9, r0, [sp, #8]
 2373 0090 0193     		str	r3, [sp, #4]
 2374 0092 0246     		mov	r2, r0
 2375 0094 0346     		mov	r3, r0
 2376 0096 CDF80080 		str	r8, [sp]
 2377 009a 4946     		mov	r1, r9
 2378 009c 2846     		mov	r0, r5
 2379              	.LVL313:
 2380 009e FFF7FEFF 		bl	VL53L0X_ref_calibration_io
 2381              	.LVL314:
 2382              		.loc 1 1156 0
 2383 00a2 0028     		cmp	r0, #0
 2384 00a4 E3D0     		beq	.L257
 2385              		.loc 1 1148 0
 2386 00a6 0446     		mov	r4, r0
 2387 00a8 C4E7     		b	.L258
 2388              	.LVL315:
 2389              	.L269:
 2390              		.loc 1 1166 0
 2391 00aa FFF7FEFF 		bl	__stack_chk_fail
 2392              	.LVL316:
 2393              	.L272:
 2394 00ae 00BF     		.align	2
ARM GAS  C:\Users\Moi\AppData\Local\Temp\ccWeMAis.s 			page 43


 2395              	.L271:
 2396 00b0 00000000 		.word	__stack_chk_guard
 2397              		.cfi_endproc
 2398              	.LFE21:
 2399              		.size	VL53L0X_perform_vhv_calibration, .-VL53L0X_perform_vhv_calibration
 2400              		.section	.text.VL53L0X_perform_phase_calibration,"ax",%progbits
 2401              		.align	1
 2402              		.p2align 4,,15
 2403              		.global	VL53L0X_perform_phase_calibration
 2404              		.syntax unified
 2405              		.thumb
 2406              		.thumb_func
 2407              		.fpu fpv4-sp-d16
 2408              		.type	VL53L0X_perform_phase_calibration, %function
 2409              	VL53L0X_perform_phase_calibration:
 2410              	.LFB22:
 2411              		.loc 1 1171 0
 2412              		.cfi_startproc
 2413              		@ args = 0, pretend = 0, frame = 8
 2414              		@ frame_needed = 0, uses_anonymous_args = 0
 2415              	.LVL317:
 2416 0000 2DE9F047 		push	{r4, r5, r6, r7, r8, r9, r10, lr}
 2417              		.cfi_def_cfa_offset 32
 2418              		.cfi_offset 4, -32
 2419              		.cfi_offset 5, -28
 2420              		.cfi_offset 6, -24
 2421              		.cfi_offset 7, -20
 2422              		.cfi_offset 8, -16
 2423              		.cfi_offset 9, -12
 2424              		.cfi_offset 10, -8
 2425              		.cfi_offset 14, -4
 2426 0004 254F     		ldr	r7, .L291
 2427 0006 86B0     		sub	sp, sp, #24
 2428              		.cfi_def_cfa_offset 56
 2429              		.loc 1 1171 0
 2430 0008 3C68     		ldr	r4, [r7]
 2431 000a 0594     		str	r4, [sp, #20]
 2432              	.LVL318:
 2433 000c 0546     		mov	r5, r0
 2434 000e 8846     		mov	r8, r1
 2435 0010 9146     		mov	r9, r2
 2436              		.loc 1 1182 0
 2437 0012 1E46     		mov	r6, r3
 2438 0014 9BB1     		cbz	r3, .L280
 2439              		.loc 1 1183 0
 2440 0016 90F830A1 		ldrb	r10, [r0, #304]	@ zero_extendqisi2
 2441              	.LVL319:
 2442              	.L274:
 2443              		.loc 1 1186 0
 2444 001a 0222     		movs	r2, #2
 2445              	.LVL320:
 2446 001c 0121     		movs	r1, #1
 2447              	.LVL321:
 2448 001e 2846     		mov	r0, r5
 2449              	.LVL322:
 2450 0020 FFF7FEFF 		bl	VL53L0X_WrByte
 2451              	.LVL323:
ARM GAS  C:\Users\Moi\AppData\Local\Temp\ccWeMAis.s 			page 44


 2452              		.loc 1 1188 0
 2453 0024 0446     		mov	r4, r0
 2454 0026 60B1     		cbz	r0, .L288
 2455              	.L275:
 2456              		.loc 1 1198 0
 2457 0028 0023     		movs	r3, #0
 2458 002a 88F80030 		strb	r3, [r8]
 2459              	.LVL324:
 2460              	.L278:
 2461              		.loc 1 1211 0
 2462 002e 059A     		ldr	r2, [sp, #20]
 2463 0030 3B68     		ldr	r3, [r7]
 2464 0032 9A42     		cmp	r2, r3
 2465 0034 2046     		mov	r0, r4
 2466 0036 2ED1     		bne	.L289
 2467 0038 06B0     		add	sp, sp, #24
 2468              		.cfi_remember_state
 2469              		.cfi_def_cfa_offset 32
 2470              		@ sp needed
 2471 003a BDE8F087 		pop	{r4, r5, r6, r7, r8, r9, r10, pc}
 2472              	.LVL325:
 2473              	.L280:
 2474              		.cfi_restore_state
 2475              		.loc 1 1173 0
 2476 003e 9A46     		mov	r10, r3
 2477 0040 EBE7     		b	.L274
 2478              	.LVL326:
 2479              	.L288:
 2480              		.loc 1 1189 0
 2481 0042 0146     		mov	r1, r0
 2482 0044 2846     		mov	r0, r5
 2483              	.LVL327:
 2484 0046 FFF7FEFF 		bl	VL53L0X_perform_single_ref_calibration
 2485              	.LVL328:
 2486              		.loc 1 1192 0
 2487 004a 0446     		mov	r4, r0
 2488 004c 0028     		cmp	r0, #0
 2489 004e EBD1     		bne	.L275
 2490              		.loc 1 1192 0 is_stmt 0 discriminator 1
 2491 0050 B9F1010F 		cmp	r9, #1
 2492 0054 0ED0     		beq	.L290
 2493              		.loc 1 1198 0 is_stmt 1
 2494 0056 88F80000 		strb	r0, [r8]
 2495              	.LVL329:
 2496              	.L277:
 2497              		.loc 1 1201 0 discriminator 1
 2498 005a 002E     		cmp	r6, #0
 2499 005c E7D0     		beq	.L278
 2500              		.loc 1 1203 0
 2501 005e 5246     		mov	r2, r10
 2502 0060 0121     		movs	r1, #1
 2503 0062 2846     		mov	r0, r5
 2504 0064 FFF7FEFF 		bl	VL53L0X_WrByte
 2505              	.LVL330:
 2506              		.loc 1 1205 0
 2507 0068 0446     		mov	r4, r0
 2508 006a 0028     		cmp	r0, #0
ARM GAS  C:\Users\Moi\AppData\Local\Temp\ccWeMAis.s 			page 45


 2509 006c DFD1     		bne	.L278
 2510              		.loc 1 1206 0
 2511 006e 85F830A1 		strb	r10, [r5, #304]
 2512 0072 DCE7     		b	.L278
 2513              	.L290:
 2514              		.loc 1 1193 0
 2515 0074 0DF11303 		add	r3, sp, #19
 2516 0078 CDE90209 		strd	r0, r9, [sp, #8]
 2517 007c 0093     		str	r3, [sp]
 2518 007e 0246     		mov	r2, r0
 2519 0080 0346     		mov	r3, r0
 2520 0082 CDF80480 		str	r8, [sp, #4]
 2521 0086 4946     		mov	r1, r9
 2522 0088 2846     		mov	r0, r5
 2523              	.LVL331:
 2524 008a FFF7FEFF 		bl	VL53L0X_ref_calibration_io
 2525              	.LVL332:
 2526              		.loc 1 1201 0
 2527 008e 0028     		cmp	r0, #0
 2528 0090 E3D0     		beq	.L277
 2529              		.loc 1 1193 0
 2530 0092 0446     		mov	r4, r0
 2531 0094 CBE7     		b	.L278
 2532              	.LVL333:
 2533              	.L289:
 2534              		.loc 1 1211 0
 2535 0096 FFF7FEFF 		bl	__stack_chk_fail
 2536              	.LVL334:
 2537              	.L292:
 2538 009a 00BF     		.align	2
 2539              	.L291:
 2540 009c 00000000 		.word	__stack_chk_guard
 2541              		.cfi_endproc
 2542              	.LFE22:
 2543              		.size	VL53L0X_perform_phase_calibration, .-VL53L0X_perform_phase_calibration
 2544              		.section	.text.VL53L0X_perform_ref_calibration,"ax",%progbits
 2545              		.align	1
 2546              		.p2align 4,,15
 2547              		.global	VL53L0X_perform_ref_calibration
 2548              		.syntax unified
 2549              		.thumb
 2550              		.thumb_func
 2551              		.fpu fpv4-sp-d16
 2552              		.type	VL53L0X_perform_ref_calibration, %function
 2553              	VL53L0X_perform_ref_calibration:
 2554              	.LFB23:
 2555              		.loc 1 1215 0
 2556              		.cfi_startproc
 2557              		@ args = 0, pretend = 0, frame = 8
 2558              		@ frame_needed = 0, uses_anonymous_args = 0
 2559              	.LVL335:
 2560 0000 2DE9F041 		push	{r4, r5, r6, r7, r8, lr}
 2561              		.cfi_def_cfa_offset 24
 2562              		.cfi_offset 4, -24
 2563              		.cfi_offset 5, -20
 2564              		.cfi_offset 6, -16
 2565              		.cfi_offset 7, -12
ARM GAS  C:\Users\Moi\AppData\Local\Temp\ccWeMAis.s 			page 46


 2566              		.cfi_offset 8, -8
 2567              		.cfi_offset 14, -4
 2568 0004 144C     		ldr	r4, .L299
 2569              		.loc 1 1223 0
 2570 0006 90F83071 		ldrb	r7, [r0, #304]	@ zero_extendqisi2
 2571              		.loc 1 1215 0
 2572 000a 82B0     		sub	sp, sp, #8
 2573              		.cfi_def_cfa_offset 32
 2574              		.loc 1 1215 0
 2575 000c 1E46     		mov	r6, r3
 2576 000e 2368     		ldr	r3, [r4]
 2577              	.LVL336:
 2578 0010 0193     		str	r3, [sp, #4]
 2579              	.LVL337:
 2580 0012 9046     		mov	r8, r2
 2581              		.loc 1 1227 0
 2582 0014 0023     		movs	r3, #0
 2583 0016 3246     		mov	r2, r6
 2584              	.LVL338:
 2585              		.loc 1 1215 0
 2586 0018 0546     		mov	r5, r0
 2587              		.loc 1 1227 0
 2588 001a FFF7FEFF 		bl	VL53L0X_perform_vhv_calibration
 2589              	.LVL339:
 2590              		.loc 1 1231 0
 2591 001e 30B1     		cbz	r0, .L297
 2592              	.L294:
 2593              		.loc 1 1246 0
 2594 0020 019A     		ldr	r2, [sp, #4]
 2595 0022 2368     		ldr	r3, [r4]
 2596 0024 9A42     		cmp	r2, r3
 2597 0026 14D1     		bne	.L298
 2598 0028 02B0     		add	sp, sp, #8
 2599              		.cfi_remember_state
 2600              		.cfi_def_cfa_offset 24
 2601              		@ sp needed
 2602 002a BDE8F081 		pop	{r4, r5, r6, r7, r8, pc}
 2603              	.LVL340:
 2604              	.L297:
 2605              		.cfi_restore_state
 2606              		.loc 1 1232 0
 2607 002e 0346     		mov	r3, r0
 2608 0030 3246     		mov	r2, r6
 2609 0032 4146     		mov	r1, r8
 2610 0034 2846     		mov	r0, r5
 2611              	.LVL341:
 2612 0036 FFF7FEFF 		bl	VL53L0X_perform_phase_calibration
 2613              	.LVL342:
 2614              		.loc 1 1236 0
 2615 003a 0028     		cmp	r0, #0
 2616 003c F0D1     		bne	.L294
 2617              		.loc 1 1238 0
 2618 003e 3A46     		mov	r2, r7
 2619 0040 0121     		movs	r1, #1
 2620 0042 2846     		mov	r0, r5
 2621              	.LVL343:
 2622 0044 FFF7FEFF 		bl	VL53L0X_WrByte
ARM GAS  C:\Users\Moi\AppData\Local\Temp\ccWeMAis.s 			page 47


 2623              	.LVL344:
 2624              		.loc 1 1240 0
 2625 0048 0028     		cmp	r0, #0
 2626 004a E9D1     		bne	.L294
 2627              		.loc 1 1241 0
 2628 004c 85F83071 		strb	r7, [r5, #304]
 2629 0050 E6E7     		b	.L294
 2630              	.L298:
 2631              		.loc 1 1246 0
 2632 0052 FFF7FEFF 		bl	__stack_chk_fail
 2633              	.LVL345:
 2634              	.L300:
 2635 0056 00BF     		.align	2
 2636              	.L299:
 2637 0058 00000000 		.word	__stack_chk_guard
 2638              		.cfi_endproc
 2639              	.LFE23:
 2640              		.size	VL53L0X_perform_ref_calibration, .-VL53L0X_perform_ref_calibration
 2641              		.section	.text.VL53L0X_perform_ref_spad_management,"ax",%progbits
 2642              		.align	1
 2643              		.p2align 4,,15
 2644              		.global	VL53L0X_perform_ref_spad_management
 2645              		.syntax unified
 2646              		.thumb
 2647              		.thumb_func
 2648              		.fpu fpv4-sp-d16
 2649              		.type	VL53L0X_perform_ref_spad_management, %function
 2650              	VL53L0X_perform_ref_spad_management:
 2651              	.LFB16:
 2652              		.loc 1 679 0
 2653              		.cfi_startproc
 2654              		@ args = 0, pretend = 0, frame = 56
 2655              		@ frame_needed = 0, uses_anonymous_args = 0
 2656              	.LVL346:
 2657 0000 2DE9F04F 		push	{r4, r5, r6, r7, r8, r9, r10, fp, lr}
 2658              		.cfi_def_cfa_offset 36
 2659              		.cfi_offset 4, -36
 2660              		.cfi_offset 5, -32
 2661              		.cfi_offset 6, -28
 2662              		.cfi_offset 7, -24
 2663              		.cfi_offset 8, -20
 2664              		.cfi_offset 9, -16
 2665              		.cfi_offset 10, -12
 2666              		.cfi_offset 11, -8
 2667              		.cfi_offset 14, -4
 2668 0004 DFF8B0A2 		ldr	r10, .L331+4
 2669              		.loc 1 724 0
 2670 0008 B0F83C71 		ldrh	r7, [r0, #316]
 2671              		.loc 1 679 0
 2672 000c DAF80040 		ldr	r4, [r10]
 2673 0010 95B0     		sub	sp, sp, #84
 2674              		.cfi_def_cfa_offset 120
 2675              		.loc 1 686 0
 2676 0012 0023     		movs	r3, #0
 2677              		.loc 1 679 0
 2678 0014 CDE90912 		strd	r1, r2, [sp, #36]
 2679              		.loc 1 735 0
ARM GAS  C:\Users\Moi\AppData\Local\Temp\ccWeMAis.s 			page 48


 2680 0018 C0F82431 		str	r3, [r0, #292]
 2681 001c A0F82831 		strh	r3, [r0, #296]	@ movhi
 2682              		.loc 1 738 0
 2683 0020 0122     		movs	r2, #1
 2684              	.LVL347:
 2685 0022 FF21     		movs	r1, #255
 2686              	.LVL348:
 2687              		.loc 1 679 0
 2688 0024 0646     		mov	r6, r0
 2689 0026 1394     		str	r4, [sp, #76]
 2690              	.LVL349:
 2691              		.loc 1 687 0
 2692 0028 CDE90F33 		strd	r3, r3, [sp, #60]
 2693              	.LVL350:
 2694              		.loc 1 696 0
 2695 002c 8DF83830 		strb	r3, [sp, #56]
 2696              		.loc 1 697 0
 2697 0030 8DF83930 		strb	r3, [sp, #57]
 2698              	.LVL351:
 2699              		.loc 1 738 0
 2700 0034 FFF7FEFF 		bl	VL53L0X_WrByte
 2701              	.LVL352:
 2702              		.loc 1 740 0
 2703 0038 0546     		mov	r5, r0
 2704 003a 48B1     		cbz	r0, .L325
 2705              	.LVL353:
 2706              	.L302:
 2707              		.loc 1 941 0
 2708 003c 139A     		ldr	r2, [sp, #76]
 2709 003e DAF80030 		ldr	r3, [r10]
 2710 0042 9A42     		cmp	r2, r3
 2711 0044 2846     		mov	r0, r5
 2712 0046 40F03181 		bne	.L326
 2713 004a 15B0     		add	sp, sp, #84
 2714              		.cfi_remember_state
 2715              		.cfi_def_cfa_offset 36
 2716              		@ sp needed
 2717 004c BDE8F08F 		pop	{r4, r5, r6, r7, r8, r9, r10, fp, pc}
 2718              	.LVL354:
 2719              	.L325:
 2720              		.cfi_restore_state
 2721              		.loc 1 741 0
 2722 0050 0246     		mov	r2, r0
 2723 0052 4F21     		movs	r1, #79
 2724 0054 3046     		mov	r0, r6
 2725              	.LVL355:
 2726 0056 FFF7FEFF 		bl	VL53L0X_WrByte
 2727              	.LVL356:
 2728              		.loc 1 744 0
 2729 005a 0546     		mov	r5, r0
 2730 005c 0028     		cmp	r0, #0
 2731 005e EDD1     		bne	.L302
 2732              		.loc 1 745 0
 2733 0060 2C22     		movs	r2, #44
 2734 0062 4E21     		movs	r1, #78
 2735 0064 3046     		mov	r0, r6
 2736              	.LVL357:
ARM GAS  C:\Users\Moi\AppData\Local\Temp\ccWeMAis.s 			page 49


 2737 0066 FFF7FEFF 		bl	VL53L0X_WrByte
 2738              	.LVL358:
 2739              		.loc 1 748 0
 2740 006a 0546     		mov	r5, r0
 2741 006c 0028     		cmp	r0, #0
 2742 006e E5D1     		bne	.L302
 2743              		.loc 1 749 0
 2744 0070 0246     		mov	r2, r0
 2745 0072 FF21     		movs	r1, #255
 2746 0074 3046     		mov	r0, r6
 2747              	.LVL359:
 2748 0076 FFF7FEFF 		bl	VL53L0X_WrByte
 2749              	.LVL360:
 2750              		.loc 1 751 0
 2751 007a 0546     		mov	r5, r0
 2752 007c 0028     		cmp	r0, #0
 2753 007e DDD1     		bne	.L302
 2754              		.loc 1 752 0
 2755 0080 B422     		movs	r2, #180
 2756 0082 B621     		movs	r1, #182
 2757 0084 3046     		mov	r0, r6
 2758              	.LVL361:
 2759 0086 FFF7FEFF 		bl	VL53L0X_WrByte
 2760              	.LVL362:
 2761              		.loc 1 757 0
 2762 008a 0546     		mov	r5, r0
 2763 008c 0028     		cmp	r0, #0
 2764 008e D5D1     		bne	.L302
 2765              		.loc 1 758 0
 2766 0090 0246     		mov	r2, r0
 2767 0092 8021     		movs	r1, #128
 2768 0094 3046     		mov	r0, r6
 2769              	.LVL363:
 2770 0096 FFF7FEFF 		bl	VL53L0X_WrByte
 2771              	.LVL364:
 2772              		.loc 1 762 0
 2773 009a 0546     		mov	r5, r0
 2774 009c 0028     		cmp	r0, #0
 2775 009e CDD1     		bne	.L302
 2776              		.loc 1 763 0
 2777 00a0 0346     		mov	r3, r0
 2778 00a2 0DF13902 		add	r2, sp, #57
 2779 00a6 0EA9     		add	r1, sp, #56
 2780 00a8 3046     		mov	r0, r6
 2781              	.LVL365:
 2782 00aa FFF7FEFF 		bl	VL53L0X_perform_ref_calibration
 2783              	.LVL366:
 2784              		.loc 1 766 0
 2785 00ae 0546     		mov	r5, r0
 2786 00b0 0028     		cmp	r0, #0
 2787 00b2 C3D1     		bne	.L302
 2788              		.loc 1 769 0
 2789 00b4 0DF1500B 		add	fp, sp, #80
 2790              		.loc 1 773 0
 2791 00b8 06F59573 		add	r3, r6, #298
 2792              		.loc 1 769 0
 2793 00bc 4BF8140D 		str	r0, [fp, #-20]!
ARM GAS  C:\Users\Moi\AppData\Local\Temp\ccWeMAis.s 			page 50


 2794              		.loc 1 771 0
 2795 00c0 0320     		movs	r0, #3
 2796              	.LVL367:
 2797 00c2 0390     		str	r0, [sp, #12]
 2798              		.loc 1 774 0
 2799 00c4 06F59278 		add	r8, r6, #292
 2800              		.loc 1 771 0
 2801 00c8 0620     		movs	r0, #6
 2802 00ca B424     		movs	r4, #180
 2803              		.loc 1 773 0
 2804 00cc 0D93     		str	r3, [sp, #52]
 2805              		.loc 1 771 0
 2806 00ce 0295     		str	r5, [sp, #8]
 2807 00d0 2946     		mov	r1, r5
 2808 00d2 1A46     		mov	r2, r3
 2809 00d4 CDE90004 		strd	r0, r4, [sp]
 2810 00d8 CDF810B0 		str	fp, [sp, #16]
 2811 00dc 4346     		mov	r3, r8
 2812 00de 3046     		mov	r0, r6
 2813 00e0 FFF7FEFF 		bl	enable_ref_spads
 2814              	.LVL368:
 2815              		.loc 1 782 0
 2816 00e4 0546     		mov	r5, r0
 2817 00e6 0028     		cmp	r0, #0
 2818 00e8 A8D1     		bne	.L302
 2819              		.loc 1 785 0
 2820 00ea 0DF13A01 		add	r1, sp, #58
 2821 00ee 3046     		mov	r0, r6
 2822              	.LVL369:
 2823              		.loc 1 783 0
 2824 00f0 0F9C     		ldr	r4, [sp, #60]
 2825              	.LVL370:
 2826              		.loc 1 785 0
 2827 00f2 FFF7FEFF 		bl	perform_ref_signal_measurement
 2828              	.LVL371:
 2829              		.loc 1 787 0
 2830 00f6 0546     		mov	r5, r0
 2831 00f8 0028     		cmp	r0, #0
 2832 00fa 9FD1     		bne	.L302
 2833              		.loc 1 788 0 discriminator 1
 2834 00fc BDF83A30 		ldrh	r3, [sp, #58]
 2835              		.loc 1 787 0 discriminator 1
 2836 0100 BB42     		cmp	r3, r7
 2837 0102 30D9     		bls	.L310
 2838              	.LVL372:
 2839              		.loc 1 797 0
 2840 0104 04F1B403 		add	r3, r4, #180
 2841              	.LBB48:
 2842              	.LBB49:
 2843              		.loc 1 455 0
 2844 0108 9B09     		lsrs	r3, r3, #6
 2845              		.loc 1 456 0
 2846 010a 6A49     		ldr	r1, .L331
 2847 010c 51F82320 		ldr	r2, [r1, r3, lsl #2]
 2848              	.LBE49:
 2849              	.LBE48:
 2850              		.loc 1 793 0
ARM GAS  C:\Users\Moi\AppData\Local\Temp\ccWeMAis.s 			page 51


 2851 0110 0023     		movs	r3, #0
 2852 0112 C6F82431 		str	r3, [r6, #292]
 2853 0116 A6F82831 		strh	r3, [r6, #296]	@ movhi
 2854              	.LVL373:
 2855              	.LBB53:
 2856              	.LBB50:
 2857              		.loc 1 456 0
 2858 011a 002A     		cmp	r2, #0
 2859 011c 40F0BF80 		bne	.L312
 2860              	.LVL374:
 2861              	.LBE50:
 2862              	.LBE53:
 2863              		.loc 1 798 0
 2864 0120 2B2C     		cmp	r4, #43
 2865 0122 03D9     		bls	.L305
 2866 0124 BBE0     		b	.L312
 2867              	.LVL375:
 2868              	.L327:
 2869 0126 2C2A     		cmp	r2, #44
 2870 0128 1446     		mov	r4, r2
 2871 012a 07D0     		beq	.L304
 2872              	.LVL376:
 2873              	.L305:
 2874              	.LBB54:
 2875              	.LBB51:
 2876              		.loc 1 455 0
 2877 012c 04F1B503 		add	r3, r4, #181
 2878 0130 9B09     		lsrs	r3, r3, #6
 2879              	.LBE51:
 2880              	.LBE54:
 2881              		.loc 1 799 0
 2882 0132 621C     		adds	r2, r4, #1
 2883              	.LVL377:
 2884              	.LBB55:
 2885              	.LBB52:
 2886              		.loc 1 456 0
 2887 0134 51F82330 		ldr	r3, [r1, r3, lsl #2]
 2888 0138 002B     		cmp	r3, #0
 2889 013a F4D0     		beq	.L327
 2890              	.LVL378:
 2891              	.L304:
 2892              	.LBE52:
 2893              	.LBE55:
 2894              		.loc 1 804 0
 2895 013c B421     		movs	r1, #180
 2896 013e 0623     		movs	r3, #6
 2897 0140 4FF00309 		mov	r9, #3
 2898 0144 CDE90031 		strd	r3, r1, [sp]
 2899 0148 CDE90229 		strd	r2, r9, [sp, #8]
 2900 014c CDF810B0 		str	fp, [sp, #16]
 2901 0150 4346     		mov	r3, r8
 2902 0152 0D9A     		ldr	r2, [sp, #52]
 2903 0154 0121     		movs	r1, #1
 2904 0156 3046     		mov	r0, r6
 2905              	.LVL379:
 2906 0158 FFF7FEFF 		bl	enable_ref_spads
 2907              	.LVL380:
ARM GAS  C:\Users\Moi\AppData\Local\Temp\ccWeMAis.s 			page 52


 2908              		.loc 1 814 0
 2909 015c 0028     		cmp	r0, #0
 2910 015e 00F08D80 		beq	.L328
 2911              	.LVL381:
 2912              	.L320:
 2913 0162 0546     		mov	r5, r0
 2914 0164 6AE7     		b	.L302
 2915              	.LVL382:
 2916              	.L310:
 2917              		.loc 1 699 0
 2918 0166 0022     		movs	r2, #0
 2919 0168 0C92     		str	r2, [sp, #48]
 2920              		.loc 1 698 0
 2921 016a 9146     		mov	r9, r2
 2922              		.loc 1 832 0
 2923 016c 0792     		str	r2, [sp, #28]
 2924              	.LVL383:
 2925              	.L303:
 2926              		.loc 1 836 0 discriminator 1
 2927 016e 9F42     		cmp	r7, r3
 2928 0170 66D9     		bls	.L306
 2929              		.loc 1 848 0
 2930 0172 DB1B     		subs	r3, r3, r7
 2931 0174 002B     		cmp	r3, #0
 2932 0176 B8BF     		it	lt
 2933 0178 5B42     		rsblt	r3, r3, #0
 2934              		.loc 1 846 0
 2935 017a B8F80420 		ldrh	r2, [r8, #4]	@ unaligned
 2936 017e D8F80000 		ldr	r0, [r8]	@ unaligned
 2937              	.LVL384:
 2938              		.loc 1 848 0
 2939 0182 0893     		str	r3, [sp, #32]
 2940              	.LBB56:
 2941              	.LBB57:
 2942              		.loc 1 476 0
 2943 0184 0B95     		str	r5, [sp, #44]
 2944              	.LBE57:
 2945              	.LBE56:
 2946              		.loc 1 843 0
 2947 0186 9DF81C30 		ldrb	r3, [sp, #28]	@ zero_extendqisi2
 2948              	.LBB62:
 2949              	.LBB58:
 2950              		.loc 1 476 0
 2951 018a 0D9D     		ldr	r5, [sp, #52]
 2952              	.LBE58:
 2953              	.LBE62:
 2954              		.loc 1 846 0
 2955 018c ADF84820 		strh	r2, [sp, #72]	@ unaligned
 2956 0190 1190     		str	r0, [sp, #68]
 2957              		.loc 1 843 0
 2958 0192 0C93     		str	r3, [sp, #48]
 2959              	.LVL385:
 2960              		.loc 1 844 0
 2961 0194 4FF0030B 		mov	fp, #3
 2962              	.LVL386:
 2963              	.L308:
 2964              		.loc 1 853 0
ARM GAS  C:\Users\Moi\AppData\Local\Temp\ccWeMAis.s 			page 53


 2965 0198 2246     		mov	r2, r4
 2966 019a 10AB     		add	r3, sp, #64
 2967 019c 0621     		movs	r1, #6
 2968 019e 2846     		mov	r0, r5
 2969 01a0 FFF7FEFF 		bl	get_next_good_spad
 2970              	.LVL387:
 2971              		.loc 1 858 0
 2972 01a4 109C     		ldr	r4, [sp, #64]
 2973              	.LVL388:
 2974 01a6 631C     		adds	r3, r4, #1
 2975 01a8 10D0     		beq	.L318
 2976              		.loc 1 866 0
 2977 01aa 04F1B403 		add	r3, r4, #180
 2978              	.LBB63:
 2979              	.LBB64:
 2980              		.loc 1 456 0
 2981 01ae 414A     		ldr	r2, .L331
 2982              		.loc 1 455 0
 2983 01b0 9B09     		lsrs	r3, r3, #6
 2984              		.loc 1 456 0
 2985 01b2 52F82330 		ldr	r3, [r2, r3, lsl #2]
 2986              	.LBE64:
 2987              	.LBE63:
 2988              		.loc 1 866 0
 2989 01b6 079A     		ldr	r2, [sp, #28]
 2990              	.LBB66:
 2991              	.LBB65:
 2992              		.loc 1 456 0
 2993 01b8 0033     		adds	r3, r3, #0
 2994 01ba 18BF     		it	ne
 2995 01bc 0123     		movne	r3, #1
 2996              	.LBE65:
 2997              	.LBE66:
 2998              		.loc 1 866 0
 2999 01be 9342     		cmp	r3, r2
 3000 01c0 59D1     		bne	.L317
 3001              	.LBB67:
 3002              	.LBB59:
 3003              		.loc 1 471 0
 3004 01c2 E308     		lsrs	r3, r4, #3
 3005              		.loc 1 473 0
 3006 01c4 052B     		cmp	r3, #5
 3007              	.LBE59:
 3008              	.LBE67:
 3009              		.loc 1 875 0
 3010 01c6 0BF10109 		add	r9, fp, #1
 3011              	.LVL389:
 3012              	.LBB68:
 3013              	.LBB60:
 3014              		.loc 1 473 0
 3015 01ca 02D9     		bls	.L329
 3016              	.LVL390:
 3017              	.L318:
 3018              	.LBE60:
 3019              	.LBE68:
 3020              		.loc 1 859 0
 3021 01cc 6FF03105 		mvn	r5, #49
ARM GAS  C:\Users\Moi\AppData\Local\Temp\ccWeMAis.s 			page 54


 3022 01d0 34E7     		b	.L302
 3023              	.LVL391:
 3024              	.L329:
 3025              	.LBB69:
 3026              	.LBB61:
 3027              		.loc 1 476 0
 3028 01d2 18F80310 		ldrb	r1, [r8, r3]	@ zero_extendqisi2
 3029              		.loc 1 472 0
 3030 01d6 04F00702 		and	r2, r4, #7
 3031              		.loc 1 476 0
 3032 01da 0120     		movs	r0, #1
 3033 01dc 00FA02F2 		lsl	r2, r0, r2
 3034 01e0 0A43     		orrs	r2, r2, r1
 3035 01e2 08F80320 		strb	r2, [r8, r3]
 3036              	.LVL392:
 3037              	.LBE61:
 3038              	.LBE69:
 3039              	.LBB70:
 3040              	.LBB71:
 3041              		.loc 1 541 0
 3042 01e6 B021     		movs	r1, #176
 3043 01e8 0623     		movs	r3, #6
 3044 01ea 4246     		mov	r2, r8
 3045 01ec 3046     		mov	r0, r6
 3046              	.LBE71:
 3047              	.LBE70:
 3048              		.loc 1 883 0
 3049 01ee 0134     		adds	r4, r4, #1
 3050              	.LVL393:
 3051              	.LBB73:
 3052              	.LBB72:
 3053              		.loc 1 541 0
 3054 01f0 FFF7FEFF 		bl	VL53L0X_WriteMulti
 3055              	.LVL394:
 3056              	.LBE72:
 3057              	.LBE73:
 3058              		.loc 1 890 0
 3059 01f4 0028     		cmp	r0, #0
 3060 01f6 B4D1     		bne	.L320
 3061              		.loc 1 893 0
 3062 01f8 0DF13A01 		add	r1, sp, #58
 3063 01fc 3046     		mov	r0, r6
 3064              	.LVL395:
 3065 01fe FFF7FEFF 		bl	perform_ref_signal_measurement
 3066              	.LVL396:
 3067              		.loc 1 896 0
 3068 0202 0028     		cmp	r0, #0
 3069 0204 ADD1     		bne	.L320
 3070              		.loc 1 899 0
 3071 0206 BDF83A20 		ldrh	r2, [sp, #58]
 3072 020a D31B     		subs	r3, r2, r7
 3073 020c 002B     		cmp	r3, #0
 3074 020e B8BF     		it	lt
 3075 0210 5B42     		rsblt	r3, r3, #0
 3076              	.LVL397:
 3077              		.loc 1 901 0
 3078 0212 BA42     		cmp	r2, r7
ARM GAS  C:\Users\Moi\AppData\Local\Temp\ccWeMAis.s 			page 55


 3079 0214 25D9     		bls	.L307
 3080              		.loc 1 906 0
 3081 0216 089A     		ldr	r2, [sp, #32]
 3082 0218 0B9D     		ldr	r5, [sp, #44]
 3083 021a 9342     		cmp	r3, r2
 3084 021c 10D9     		bls	.L306
 3085              	.LVL398:
 3086              	.LBB74:
 3087              	.LBB75:
 3088              		.loc 1 541 0
 3089 021e 0623     		movs	r3, #6
 3090              	.LVL399:
 3091 0220 11AA     		add	r2, sp, #68
 3092              	.LVL400:
 3093 0222 B021     		movs	r1, #176
 3094 0224 3046     		mov	r0, r6
 3095              	.LVL401:
 3096 0226 FFF7FEFF 		bl	VL53L0X_WriteMulti
 3097              	.LVL402:
 3098              	.LBE75:
 3099              	.LBE74:
 3100              		.loc 1 911 0
 3101 022a BDF84820 		ldrh	r2, [sp, #72]	@ unaligned
 3102              	.LBB77:
 3103              	.LBB76:
 3104              		.loc 1 541 0
 3105 022e 0346     		mov	r3, r0
 3106              	.LVL403:
 3107              	.LBE76:
 3108              	.LBE77:
 3109              		.loc 1 911 0
 3110 0230 1198     		ldr	r0, [sp, #68]
 3111 0232 C6F82401 		str	r0, [r6, #292]	@ unaligned
 3112 0236 D946     		mov	r9, fp
 3113              	.LVL404:
 3114 0238 A8F80420 		strh	r2, [r8, #4]	@ unaligned
 3115              	.LVL405:
 3116              		.loc 1 929 0
 3117 023c 002B     		cmp	r3, #0
 3118 023e 37D1     		bne	.L330
 3119              	.LVL406:
 3120              	.L306:
 3121              		.loc 1 930 0
 3122 0240 099A     		ldr	r2, [sp, #36]
 3123              		.loc 1 931 0
 3124 0242 0A99     		ldr	r1, [sp, #40]
 3125 0244 9DF83040 		ldrb	r4, [sp, #48]	@ zero_extendqisi2
 3126              		.loc 1 930 0
 3127 0248 C2F80090 		str	r9, [r2]
 3128              		.loc 1 933 0
 3129 024c 0123     		movs	r3, #1
 3130              		.loc 1 931 0
 3131 024e 0C70     		strb	r4, [r1]
 3132              		.loc 1 933 0
 3133 0250 86F81531 		strb	r3, [r6, #277]
 3134              		.loc 1 934 0
 3135 0254 1368     		ldr	r3, [r2]
ARM GAS  C:\Users\Moi\AppData\Local\Temp\ccWeMAis.s 			page 56


 3136 0256 86F81331 		strb	r3, [r6, #275]
 3137              		.loc 1 936 0
 3138 025a 0B78     		ldrb	r3, [r1]	@ zero_extendqisi2
 3139 025c 86F81431 		strb	r3, [r6, #276]
 3140 0260 ECE6     		b	.L302
 3141              	.LVL407:
 3142              	.L307:
 3143              		.loc 1 921 0
 3144 0262 D8F80000 		ldr	r0, [r8]	@ unaligned
 3145              	.LVL408:
 3146 0266 B8F80420 		ldrh	r2, [r8, #4]	@ unaligned
 3147 026a 1190     		str	r0, [sp, #68]
 3148              		.loc 1 899 0
 3149 026c 0893     		str	r3, [sp, #32]
 3150              		.loc 1 875 0
 3151 026e CB46     		mov	fp, r9
 3152              		.loc 1 921 0
 3153 0270 ADF84820 		strh	r2, [sp, #72]	@ unaligned
 3154              	.LVL409:
 3155 0274 90E7     		b	.L308
 3156              	.LVL410:
 3157              	.L317:
 3158 0276 0B9D     		ldr	r5, [sp, #44]
 3159 0278 D946     		mov	r9, fp
 3160 027a E1E7     		b	.L306
 3161              	.LVL411:
 3162              	.L328:
 3163              		.loc 1 816 0
 3164 027c 0DF13A01 		add	r1, sp, #58
 3165 0280 3046     		mov	r0, r6
 3166              	.LVL412:
 3167              		.loc 1 815 0
 3168 0282 0F9C     		ldr	r4, [sp, #60]
 3169              	.LVL413:
 3170              		.loc 1 816 0
 3171 0284 FFF7FEFF 		bl	perform_ref_signal_measurement
 3172              	.LVL414:
 3173              		.loc 1 819 0
 3174 0288 0028     		cmp	r0, #0
 3175 028a 7FF46AAF 		bne	.L320
 3176              		.loc 1 820 0 discriminator 1
 3177 028e BDF83A30 		ldrh	r3, [sp, #58]
 3178              		.loc 1 819 0 discriminator 1
 3179 0292 BB42     		cmp	r3, r7
 3180 0294 05D9     		bls	.L315
 3181              		.loc 1 827 0
 3182 0296 0122     		movs	r2, #1
 3183 0298 0C92     		str	r2, [sp, #48]
 3184              		.loc 1 802 0
 3185 029a 0792     		str	r2, [sp, #28]
 3186 029c 67E7     		b	.L303
 3187              	.LVL415:
 3188              	.L312:
 3189              		.loc 1 798 0
 3190 029e 2246     		mov	r2, r4
 3191 02a0 4CE7     		b	.L304
 3192              	.LVL416:
ARM GAS  C:\Users\Moi\AppData\Local\Temp\ccWeMAis.s 			page 57


 3193              	.L315:
 3194              		.loc 1 802 0
 3195 02a2 0122     		movs	r2, #1
 3196              		.loc 1 699 0
 3197 02a4 0C90     		str	r0, [sp, #48]
 3198              		.loc 1 698 0
 3199 02a6 8146     		mov	r9, r0
 3200              		.loc 1 802 0
 3201 02a8 0792     		str	r2, [sp, #28]
 3202 02aa 60E7     		b	.L303
 3203              	.LVL417:
 3204              	.L326:
 3205              		.loc 1 941 0
 3206 02ac FFF7FEFF 		bl	__stack_chk_fail
 3207              	.LVL418:
 3208              	.L330:
 3209 02b0 1D46     		mov	r5, r3
 3210 02b2 C3E6     		b	.L302
 3211              	.L332:
 3212              		.align	2
 3213              	.L331:
 3214 02b4 00000000 		.word	.LANCHOR0
 3215 02b8 00000000 		.word	__stack_chk_guard
 3216              		.cfi_endproc
 3217              	.LFE16:
 3218              		.size	VL53L0X_perform_ref_spad_management, .-VL53L0X_perform_ref_spad_management
 3219              		.section	.text.VL53L0X_set_ref_calibration,"ax",%progbits
 3220              		.align	1
 3221              		.p2align 4,,15
 3222              		.global	VL53L0X_set_ref_calibration
 3223              		.syntax unified
 3224              		.thumb
 3225              		.thumb_func
 3226              		.fpu fpv4-sp-d16
 3227              		.type	VL53L0X_set_ref_calibration, %function
 3228              	VL53L0X_set_ref_calibration:
 3229              	.LFB24:
 3230              		.loc 1 1250 0
 3231              		.cfi_startproc
 3232              		@ args = 0, pretend = 0, frame = 8
 3233              		@ frame_needed = 0, uses_anonymous_args = 0
 3234              	.LVL419:
 3235 0000 70B5     		push	{r4, r5, r6, lr}
 3236              		.cfi_def_cfa_offset 16
 3237              		.cfi_offset 4, -16
 3238              		.cfi_offset 5, -12
 3239              		.cfi_offset 6, -8
 3240              		.cfi_offset 14, -4
 3241 0002 86B0     		sub	sp, sp, #24
 3242              		.cfi_def_cfa_offset 40
 3243              		.loc 1 1255 0
 3244 0004 1346     		mov	r3, r2
 3245              		.loc 1 1250 0
 3246 0006 0C4C     		ldr	r4, .L337
 3247              		.loc 1 1255 0
 3248 0008 0A46     		mov	r2, r1
 3249              	.LVL420:
ARM GAS  C:\Users\Moi\AppData\Local\Temp\ccWeMAis.s 			page 58


 3250 000a 0DF11301 		add	r1, sp, #19
 3251              	.LVL421:
 3252 000e 0125     		movs	r5, #1
 3253 0010 0191     		str	r1, [sp, #4]
 3254 0012 0DF11201 		add	r1, sp, #18
 3255              		.loc 1 1250 0
 3256 0016 2668     		ldr	r6, [r4]
 3257              		.loc 1 1255 0
 3258 0018 0091     		str	r1, [sp]
 3259 001a 0395     		str	r5, [sp, #12]
 3260 001c 0295     		str	r5, [sp, #8]
 3261 001e 0021     		movs	r1, #0
 3262              		.loc 1 1250 0
 3263 0020 0596     		str	r6, [sp, #20]
 3264              	.LVL422:
 3265              		.loc 1 1255 0
 3266 0022 FFF7FEFF 		bl	VL53L0X_ref_calibration_io
 3267              	.LVL423:
 3268              		.loc 1 1261 0
 3269 0026 059A     		ldr	r2, [sp, #20]
 3270 0028 2368     		ldr	r3, [r4]
 3271 002a 9A42     		cmp	r2, r3
 3272 002c 01D1     		bne	.L336
 3273 002e 06B0     		add	sp, sp, #24
 3274              		.cfi_remember_state
 3275              		.cfi_def_cfa_offset 16
 3276              		@ sp needed
 3277 0030 70BD     		pop	{r4, r5, r6, pc}
 3278              	.L336:
 3279              		.cfi_restore_state
 3280 0032 FFF7FEFF 		bl	__stack_chk_fail
 3281              	.LVL424:
 3282              	.L338:
 3283 0036 00BF     		.align	2
 3284              	.L337:
 3285 0038 00000000 		.word	__stack_chk_guard
 3286              		.cfi_endproc
 3287              	.LFE24:
 3288              		.size	VL53L0X_set_ref_calibration, .-VL53L0X_set_ref_calibration
 3289              		.section	.text.VL53L0X_get_ref_calibration,"ax",%progbits
 3290              		.align	1
 3291              		.p2align 4,,15
 3292              		.global	VL53L0X_get_ref_calibration
 3293              		.syntax unified
 3294              		.thumb
 3295              		.thumb_func
 3296              		.fpu fpv4-sp-d16
 3297              		.type	VL53L0X_get_ref_calibration, %function
 3298              	VL53L0X_get_ref_calibration:
 3299              	.LFB25:
 3300              		.loc 1 1265 0
 3301              		.cfi_startproc
 3302              		@ args = 0, pretend = 0, frame = 8
 3303              		@ frame_needed = 0, uses_anonymous_args = 0
 3304              	.LVL425:
 3305 0000 30B5     		push	{r4, r5, lr}
 3306              		.cfi_def_cfa_offset 12
ARM GAS  C:\Users\Moi\AppData\Local\Temp\ccWeMAis.s 			page 59


 3307              		.cfi_offset 4, -12
 3308              		.cfi_offset 5, -8
 3309              		.cfi_offset 14, -4
 3310 0002 87B0     		sub	sp, sp, #28
 3311              		.cfi_def_cfa_offset 40
 3312              		.loc 1 1265 0
 3313 0004 0A4C     		ldr	r4, .L343
 3314              		.loc 1 1270 0
 3315 0006 0192     		str	r2, [sp, #4]
 3316 0008 0023     		movs	r3, #0
 3317 000a 0122     		movs	r2, #1
 3318              	.LVL426:
 3319 000c 0091     		str	r1, [sp]
 3320              		.loc 1 1265 0
 3321 000e 2568     		ldr	r5, [r4]
 3322 0010 0595     		str	r5, [sp, #20]
 3323              	.LVL427:
 3324              		.loc 1 1270 0
 3325 0012 CDE90222 		strd	r2, r2, [sp, #8]
 3326 0016 1146     		mov	r1, r2
 3327              	.LVL428:
 3328 0018 1A46     		mov	r2, r3
 3329 001a FFF7FEFF 		bl	VL53L0X_ref_calibration_io
 3330              	.LVL429:
 3331              		.loc 1 1276 0
 3332 001e 059A     		ldr	r2, [sp, #20]
 3333 0020 2368     		ldr	r3, [r4]
 3334 0022 9A42     		cmp	r2, r3
 3335 0024 01D1     		bne	.L342
 3336 0026 07B0     		add	sp, sp, #28
 3337              		.cfi_remember_state
 3338              		.cfi_def_cfa_offset 12
 3339              		@ sp needed
 3340 0028 30BD     		pop	{r4, r5, pc}
 3341              	.L342:
 3342              		.cfi_restore_state
 3343 002a FFF7FEFF 		bl	__stack_chk_fail
 3344              	.LVL430:
 3345              	.L344:
 3346 002e 00BF     		.align	2
 3347              	.L343:
 3348 0030 00000000 		.word	__stack_chk_guard
 3349              		.cfi_endproc
 3350              	.LFE25:
 3351              		.size	VL53L0X_get_ref_calibration, .-VL53L0X_get_ref_calibration
 3352              		.global	refArrayQuadrants
 3353              		.section	.data.refArrayQuadrants,"aw",%progbits
 3354              		.align	2
 3355              		.set	.LANCHOR0,. + 0
 3356              		.type	refArrayQuadrants, %object
 3357              		.size	refArrayQuadrants, 16
 3358              	refArrayQuadrants:
 3359 0000 0A000000 		.word	10
 3360 0004 05000000 		.word	5
 3361 0008 00000000 		.word	0
 3362 000c 05000000 		.word	5
 3363              		.text
ARM GAS  C:\Users\Moi\AppData\Local\Temp\ccWeMAis.s 			page 60


 3364              	.Letext0:
 3365              		.file 2 "c:\\users\\moi\\documents\\_microinfo\\epuck-eclipse\\tools\\gcc-arm-none-eabi-7-2017-q4-
 3366              		.file 3 "c:\\users\\moi\\documents\\_microinfo\\epuck-eclipse\\tools\\gcc-arm-none-eabi-7-2017-q4-
 3367              		.file 4 "..//src/sensors/VL53L0X/Api/core/src/../inc/vl53l0x_types.h"
 3368              		.file 5 "..//src/sensors/VL53L0X/Api/core/src/../inc/vl53l0x_device.h"
 3369              		.file 6 "..//src/sensors/VL53L0X/Api/core/src/../inc/vl53l0x_def.h"
 3370              		.file 7 "c:\\users\\moi\\documents\\_microinfo\\epuck-eclipse\\tools\\gcc-arm-none-eabi-7-2017-q4-
 3371              		.file 8 "c:\\users\\moi\\documents\\_microinfo\\epuck-eclipse\\tools\\gcc-arm-none-eabi-7-2017-q4-
 3372              		.file 9 "c:\\users\\moi\\documents\\_microinfo\\epuck-eclipse\\tools\\gcc-arm-none-eabi-7-2017-q4-
 3373              		.file 10 "c:\\users\\moi\\documents\\_microinfo\\epuck-eclipse\\tools\\gcc-arm-none-eabi-7-2017-q4
 3374              		.file 11 "..//src/sensors/VL53L0X/Api/core/src/../inc/../../platform/inc/vl53l0x_platform.h"
 3375              		.file 12 "c:\\users\\moi\\documents\\_microinfo\\epuck-eclipse\\tools\\gcc-arm-none-eabi-7-2017-q4
 3376              		.file 13 "..//src/sensors/VL53L0X/Api/core/src/../inc/vl53l0x_api.h"
 3377              		.file 14 "..//src/sensors/VL53L0X/Api/core/src/../inc/vl53l0x_api_core.h"