ARM GAS  C:\Users\Moi\AppData\Local\Temp\ccWeMAis.s 			page 1


   1              		.cpu cortex-m4
   2              		.eabi_attribute 27, 1
   3              		.eabi_attribute 28, 1
   4              		.eabi_attribute 20, 1
   5              		.eabi_attribute 21, 1
   6              		.eabi_attribute 23, 3
   7              		.eabi_attribute 24, 1
   8              		.eabi_attribute 25, 1
   9              		.eabi_attribute 26, 1
  10              		.eabi_attribute 30, 2
  11              		.eabi_attribute 34, 1
  12              		.eabi_attribute 18, 4
  13              		.file	"vl53l0x_api_calibration.c"
  14              		.text
  15              	.Ltext0:
  16              		.cfi_sections	.debug_frame
  17              		.section	.text.VL53L0X_perform_xtalk_calibration,"ax",%progbits
  18              		.align	1
  19              		.p2align 4,,15
  20              		.global	VL53L0X_perform_xtalk_calibration
  21              		.syntax unified
  22              		.thumb
  23              		.thumb_func
  24              		.fpu fpv4-sp-d16
  25              		.type	VL53L0X_perform_xtalk_calibration, %function
  26              	VL53L0X_perform_xtalk_calibration:
  27              	.LFB3:
  28              		.file 1 "..//src/sensors/VL53L0X/Api/core/src/vl53l0x_api_calibration.c"
  29              		.loc 1 54 0
  30              		.cfi_startproc
  31              		@ args = 0, pretend = 0, frame = 40
  32              		@ frame_needed = 0, uses_anonymous_args = 0
  33              	.LVL0:
  34 0000 2DE9F04F 		push	{r4, r5, r6, r7, r8, r9, r10, fp, lr}
  35              		.cfi_def_cfa_offset 36
  36              		.cfi_offset 4, -36
  37              		.cfi_offset 5, -32
  38              		.cfi_offset 6, -28
  39              		.cfi_offset 7, -24
  40              		.cfi_offset 8, -20
  41              		.cfi_offset 9, -16
  42              		.cfi_offset 10, -12
  43              		.cfi_offset 11, -8
  44              		.cfi_offset 14, -4
  45 0004 DFF8EC90 		ldr	r9, .L27
  46 0008 8BB0     		sub	sp, sp, #44
  47              		.cfi_def_cfa_offset 80
  48              		.loc 1 54 0
  49 000a D9F80030 		ldr	r3, [r9]
  50 000e 0993     		str	r3, [sp, #36]
  51              	.LVL1:
  52 0010 0192     		str	r2, [sp, #4]
  53              		.loc 1 70 0
  54 0012 49B9     		cbnz	r1, .L22
  55              		.loc 1 71 0
  56 0014 6FF00300 		mvn	r0, #3
  57              	.LVL2:
ARM GAS  C:\Users\Moi\AppData\Local\Temp\ccWeMAis.s 			page 2


  58              	.L2:
  59              		.loc 1 188 0
  60 0018 099A     		ldr	r2, [sp, #36]
  61 001a D9F80030 		ldr	r3, [r9]
  62 001e 9A42     		cmp	r2, r3
  63 0020 66D1     		bne	.L23
  64 0022 0BB0     		add	sp, sp, #44
  65              		.cfi_remember_state
  66              		.cfi_def_cfa_offset 36
  67              		@ sp needed
  68 0024 BDE8F08F 		pop	{r4, r5, r6, r7, r8, r9, r10, fp, pc}
  69              	.LVL3:
  70              	.L22:
  71              		.cfi_restore_state
  72 0028 8A46     		mov	r10, r1
  73              		.loc 1 75 0
  74 002a 0021     		movs	r1, #0
  75              	.LVL4:
  76 002c 0646     		mov	r6, r0
  77 002e FFF7FEFF 		bl	VL53L0X_SetXTalkCompensationEnable
  78              	.LVL5:
  79              		.loc 1 78 0
  80 0032 0028     		cmp	r0, #0
  81 0034 F0D1     		bne	.L2
  82              		.loc 1 79 0
  83 0036 0246     		mov	r2, r0
  84 0038 0321     		movs	r1, #3
  85 003a 3046     		mov	r0, r6
  86              	.LVL6:
  87 003c FFF7FEFF 		bl	VL53L0X_SetLimitCheckEnable
  88              	.LVL7:
  89              		.loc 1 84 0
  90 0040 0028     		cmp	r0, #0
  91 0042 E9D1     		bne	.L2
  92              		.loc 1 88 0
  93 0044 0546     		mov	r5, r0
  94              		.loc 1 87 0
  95 0046 8046     		mov	r8, r0
  96              		.loc 1 86 0
  97 0048 0446     		mov	r4, r0
  98              		.loc 1 85 0
  99 004a 0746     		mov	r7, r0
 100 004c 4FF0320B 		mov	fp, #50
 101 0050 13E0     		b	.L5
 102              	.LVL8:
 103              	.L25:
 104              		.loc 1 97 0
 105 0052 9DF82020 		ldrb	r2, [sp, #32]	@ zero_extendqisi2
 106 0056 5AB9     		cbnz	r2, .L4
 107              		.loc 1 98 0
 108 0058 BDF81000 		ldrh	r0, [sp, #16]
 109              	.LVL9:
 110              		.loc 1 102 0
 111 005c BDF81C20 		ldrh	r2, [sp, #28]
 112              		.loc 1 100 0
 113 0060 0599     		ldr	r1, [sp, #20]
 114              		.loc 1 98 0
ARM GAS  C:\Users\Moi\AppData\Local\Temp\ccWeMAis.s 			page 3


 115 0062 0744     		add	r7, r7, r0
 116              	.LVL10:
 117              		.loc 1 102 0
 118 0064 04EB1224 		add	r4, r4, r2, lsr #8
 119              	.LVL11:
 120              		.loc 1 105 0
 121 0068 0135     		adds	r5, r5, #1
 122              	.LVL12:
 123              		.loc 1 98 0
 124 006a BFB2     		uxth	r7, r7
 125              	.LVL13:
 126              		.loc 1 102 0
 127 006c A4B2     		uxth	r4, r4
 128              		.loc 1 100 0
 129 006e 8844     		add	r8, r8, r1
 130              	.LVL14:
 131              	.L4:
 132 0070 0BF1FF31 		add	r1, fp, #-1
 133              		.loc 1 89 0 discriminator 2
 134 0074 11F0FF0B 		ands	fp, r1, #255
 135              	.LVL15:
 136 0078 0AD0     		beq	.L24
 137              	.LVL16:
 138              	.L5:
 139              		.loc 1 90 0
 140 007a 02A9     		add	r1, sp, #8
 141 007c 3046     		mov	r0, r6
 142 007e FFF7FEFF 		bl	VL53L0X_PerformSingleRangingMeasurement
 143              	.LVL17:
 144              		.loc 1 93 0
 145 0082 0028     		cmp	r0, #0
 146 0084 E5D0     		beq	.L25
 147              		.loc 1 111 0
 148 0086 002D     		cmp	r5, #0
 149 0088 08BF     		it	eq
 150 008a 6FF00500 		mvneq	r0, #5
 151              	.LVL18:
 152 008e C3E7     		b	.L2
 153              	.LVL19:
 154              	.L24:
 155              		.loc 1 110 0
 156 0090 15B9     		cbnz	r5, .L26
 157              		.loc 1 111 0
 158 0092 6FF00500 		mvn	r0, #5
 159 0096 BFE7     		b	.L2
 160              	.L26:
 161              	.LVL20:
 162              		.loc 1 122 0
 163 0098 2404     		lsls	r4, r4, #16
 164              	.LVL21:
 165              		.loc 1 121 0
 166 009a B4FBF5F4 		udiv	r4, r4, r5
 167              		.loc 1 135 0
 168 009e 04F50044 		add	r4, r4, #32768
 169              	.LVL22:
 170              		.loc 1 143 0
 171 00a2 240C     		lsrs	r4, r4, #16
ARM GAS  C:\Users\Moi\AppData\Local\Temp\ccWeMAis.s 			page 4


 172              	.LVL23:
 173 00a4 22D0     		beq	.L14
 174              		.loc 1 141 0 discriminator 1
 175 00a6 0AF50042 		add	r2, r10, #32768
 176              	.LVL24:
 177              		.loc 1 143 0 discriminator 1
 178 00aa 120C     		lsrs	r2, r2, #16
 179              	.LVL25:
 180 00ac 1ED0     		beq	.L14
 181              		.loc 1 120 0
 182 00ae 3F04     		lsls	r7, r7, #16
 183              	.LVL26:
 184              		.loc 1 119 0
 185 00b0 B7FBF5F7 		udiv	r7, r7, r5
 186              		.loc 1 144 0
 187 00b4 BA45     		cmp	r10, r7
 188 00b6 19D9     		bls	.L14
 189              		.loc 1 167 0
 190 00b8 B7FBF2F2 		udiv	r2, r7, r2
 191              		.loc 1 118 0
 192 00bc B8FBF5F3 		udiv	r3, r8, r5
 193              	.LVL27:
 194              		.loc 1 166 0
 195 00c0 C2F58032 		rsb	r2, r2, #65536
 196              		.loc 1 158 0
 197 00c4 B3FBF4F3 		udiv	r3, r3, r4
 198              	.LVL28:
 199              		.loc 1 166 0
 200 00c8 03FB02F3 		mul	r3, r3, r2
 201              	.LVL29:
 202              		.loc 1 171 0
 203 00cc 03F50043 		add	r3, r3, #32768
 204              		.loc 1 170 0
 205 00d0 1C0C     		lsrs	r4, r3, #16
 206              	.LVL30:
 207              	.L7:
 208              		.loc 1 174 0
 209 00d2 019B     		ldr	r3, [sp, #4]
 210              		.loc 1 178 0
 211 00d4 0121     		movs	r1, #1
 212              		.loc 1 174 0
 213 00d6 1C60     		str	r4, [r3]
 214              		.loc 1 178 0
 215 00d8 3046     		mov	r0, r6
 216 00da FFF7FEFF 		bl	VL53L0X_SetXTalkCompensationEnable
 217              	.LVL31:
 218              		.loc 1 181 0
 219 00de 0028     		cmp	r0, #0
 220 00e0 9AD1     		bne	.L2
 221              		.loc 1 182 0
 222 00e2 2146     		mov	r1, r4
 223 00e4 3046     		mov	r0, r6
 224              	.LVL32:
 225 00e6 FFF7FEFF 		bl	VL53L0X_SetXTalkCompensationRateMegaCps
 226              	.LVL33:
 227 00ea 95E7     		b	.L2
 228              	.LVL34:
ARM GAS  C:\Users\Moi\AppData\Local\Temp\ccWeMAis.s 			page 5


 229              	.L14:
 230              		.loc 1 146 0
 231 00ec 5C46     		mov	r4, fp
 232              	.LVL35:
 233 00ee F0E7     		b	.L7
 234              	.LVL36:
 235              	.L23:
 236              		.loc 1 188 0
 237 00f0 FFF7FEFF 		bl	__stack_chk_fail
 238              	.LVL37:
 239              	.L28:
 240              		.align	2
 241              	.L27:
 242 00f4 00000000 		.word	__stack_chk_guard
 243              		.cfi_endproc
 244              	.LFE3:
 245              		.size	VL53L0X_perform_xtalk_calibration, .-VL53L0X_perform_xtalk_calibration
 246              		.section	.text.VL53L0X_perform_offset_calibration,"ax",%progbits
 247              		.align	1
 248              		.p2align 4,,15
 249              		.global	VL53L0X_perform_offset_calibration
 250              		.syntax unified
 251              		.thumb
 252              		.thumb_func
 253              		.fpu fpv4-sp-d16
 254              		.type	VL53L0X_perform_offset_calibration, %function
 255              	VL53L0X_perform_offset_calibration:
 256              	.LFB4:
 257              		.loc 1 193 0
 258              		.cfi_startproc
 259              		@ args = 0, pretend = 0, frame = 40
 260              		@ frame_needed = 0, uses_anonymous_args = 0
 261              	.LVL38:
 262 0000 2DE9F047 		push	{r4, r5, r6, r7, r8, r9, r10, lr}
 263              		.cfi_def_cfa_offset 32
 264              		.cfi_offset 4, -32
 265              		.cfi_offset 5, -28
 266              		.cfi_offset 6, -24
 267              		.cfi_offset 7, -20
 268              		.cfi_offset 8, -16
 269              		.cfi_offset 9, -12
 270              		.cfi_offset 10, -8
 271              		.cfi_offset 14, -4
 272 0004 374F     		ldr	r7, .L52
 273 0006 8AB0     		sub	sp, sp, #40
 274              		.cfi_def_cfa_offset 72
 275              		.loc 1 193 0
 276 0008 3B68     		ldr	r3, [r7]
 277 000a 0993     		str	r3, [sp, #36]
 278              	.LVL39:
 279              		.loc 1 204 0
 280 000c 41B9     		cbnz	r1, .L47
 281              		.loc 1 205 0
 282 000e 6FF00300 		mvn	r0, #3
 283              	.LVL40:
 284              	.L30:
 285              		.loc 1 286 0
ARM GAS  C:\Users\Moi\AppData\Local\Temp\ccWeMAis.s 			page 6


 286 0012 099A     		ldr	r2, [sp, #36]
 287 0014 3B68     		ldr	r3, [r7]
 288 0016 9A42     		cmp	r2, r3
 289 0018 61D1     		bne	.L48
 290 001a 0AB0     		add	sp, sp, #40
 291              		.cfi_remember_state
 292              		.cfi_def_cfa_offset 32
 293              		@ sp needed
 294 001c BDE8F087 		pop	{r4, r5, r6, r7, r8, r9, r10, pc}
 295              	.LVL41:
 296              	.L47:
 297              		.cfi_restore_state
 298 0020 8846     		mov	r8, r1
 299              		.loc 1 208 0
 300 0022 0021     		movs	r1, #0
 301              	.LVL42:
 302 0024 9146     		mov	r9, r2
 303 0026 0546     		mov	r5, r0
 304 0028 FFF7FEFF 		bl	VL53L0X_SetOffsetCalibrationDataMicroMeter
 305              	.LVL43:
 306              		.loc 1 212 0
 307 002c 0028     		cmp	r0, #0
 308 002e F0D1     		bne	.L30
 309              		.loc 1 213 0
 310 0030 0146     		mov	r1, r0
 311 0032 0DF10702 		add	r2, sp, #7
 312 0036 2846     		mov	r0, r5
 313              	.LVL44:
 314 0038 FFF7FEFF 		bl	VL53L0X_GetSequenceStepEnable
 315              	.LVL45:
 316              		.loc 1 218 0
 317 003c 0028     		cmp	r0, #0
 318 003e E8D1     		bne	.L30
 319              		.loc 1 219 0
 320 0040 0246     		mov	r2, r0
 321 0042 0146     		mov	r1, r0
 322 0044 2846     		mov	r0, r5
 323              	.LVL46:
 324 0046 FFF7FEFF 		bl	VL53L0X_SetSequenceStepEnable
 325              	.LVL47:
 326              		.loc 1 224 0
 327 004a 0028     		cmp	r0, #0
 328 004c E1D1     		bne	.L30
 329              		.loc 1 225 0
 330 004e 0246     		mov	r2, r0
 331 0050 0321     		movs	r1, #3
 332 0052 2846     		mov	r0, r5
 333              	.LVL48:
 334 0054 FFF7FEFF 		bl	VL53L0X_SetLimitCheckEnable
 335              	.LVL49:
 336              		.loc 1 229 0
 337 0058 0028     		cmp	r0, #0
 338 005a DAD1     		bne	.L30
 339              		.loc 1 231 0
 340 005c 0646     		mov	r6, r0
 341              		.loc 1 230 0
 342 005e 8246     		mov	r10, r0
ARM GAS  C:\Users\Moi\AppData\Local\Temp\ccWeMAis.s 			page 7


 343 0060 3224     		movs	r4, #50
 344 0062 0AE0     		b	.L33
 345              	.LVL50:
 346              	.L50:
 347              		.loc 1 240 0
 348 0064 9DF82030 		ldrb	r3, [sp, #32]	@ zero_extendqisi2
 349 0068 2BB9     		cbnz	r3, .L32
 350              		.loc 1 241 0
 351 006a BDF81030 		ldrh	r3, [sp, #16]
 352 006e 5344     		add	r3, r3, r10
 353              		.loc 1 243 0
 354 0070 0136     		adds	r6, r6, #1
 355              	.LVL51:
 356              		.loc 1 241 0
 357 0072 1FFA83FA 		uxth	r10, r3
 358              	.LVL52:
 359              	.L32:
 360              		.loc 1 232 0 discriminator 2
 361 0076 013C     		subs	r4, r4, #1
 362              	.LVL53:
 363 0078 0AD0     		beq	.L49
 364              	.LVL54:
 365              	.L33:
 366              		.loc 1 233 0
 367 007a 02A9     		add	r1, sp, #8
 368 007c 2846     		mov	r0, r5
 369 007e FFF7FEFF 		bl	VL53L0X_PerformSingleRangingMeasurement
 370              	.LVL55:
 371              		.loc 1 236 0
 372 0082 0028     		cmp	r0, #0
 373 0084 EED0     		beq	.L50
 374              		.loc 1 249 0
 375 0086 002E     		cmp	r6, #0
 376 0088 08BF     		it	eq
 377 008a 6FF00500 		mvneq	r0, #5
 378              	.LVL56:
 379 008e C0E7     		b	.L30
 380              	.LVL57:
 381              	.L49:
 382              		.loc 1 248 0
 383 0090 16B3     		cbz	r6, .L51
 384              	.LVL58:
 385              		.loc 1 255 0
 386 0092 4FEA0A43 		lsl	r3, r10, #16
 387 0096 B3FBF6F3 		udiv	r3, r3, r6
 388              		.loc 1 258 0
 389 009a 03F50043 		add	r3, r3, #32768
 390 009e 1B0C     		lsrs	r3, r3, #16
 391              		.loc 1 263 0
 392 00a0 08F50048 		add	r8, r8, #32768
 393              	.LVL59:
 394              		.loc 1 265 0
 395 00a4 C3EB1848 		rsb	r8, r3, r8, lsr #16
 396              	.LVL60:
 397              		.loc 1 266 0
 398 00a8 4FF47A73 		mov	r3, #1000
 399 00ac 03FB08F3 		mul	r3, r3, r8
ARM GAS  C:\Users\Moi\AppData\Local\Temp\ccWeMAis.s 			page 8


 400              		.loc 1 265 0
 401 00b0 C9F80030 		str	r3, [r9]
 402              		.loc 1 270 0
 403 00b4 6B62     		str	r3, [r5, #36]
 404              		.loc 1 272 0
 405 00b6 D9F80010 		ldr	r1, [r9]
 406 00ba 2846     		mov	r0, r5
 407 00bc FFF7FEFF 		bl	VL53L0X_SetOffsetCalibrationDataMicroMeter
 408              	.LVL61:
 409              		.loc 1 279 0
 410 00c0 0028     		cmp	r0, #0
 411 00c2 A6D1     		bne	.L30
 412              		.loc 1 280 0
 413 00c4 9DF80730 		ldrb	r3, [sp, #7]	@ zero_extendqisi2
 414 00c8 002B     		cmp	r3, #0
 415 00ca A2D0     		beq	.L30
 416              		.loc 1 281 0
 417 00cc 2146     		mov	r1, r4
 418 00ce 2846     		mov	r0, r5
 419              	.LVL62:
 420 00d0 0122     		movs	r2, #1
 421 00d2 FFF7FEFF 		bl	VL53L0X_SetSequenceStepEnable
 422              	.LVL63:
 423 00d6 9CE7     		b	.L30
 424              	.LVL64:
 425              	.L51:
 426              		.loc 1 249 0
 427 00d8 6FF00500 		mvn	r0, #5
 428 00dc 99E7     		b	.L30
 429              	.LVL65:
 430              	.L48:
 431              		.loc 1 286 0
 432 00de FFF7FEFF 		bl	__stack_chk_fail
 433              	.LVL66:
 434              	.L53:
 435 00e2 00BF     		.align	2
 436              	.L52:
 437 00e4 00000000 		.word	__stack_chk_guard
 438              		.cfi_endproc
 439              	.LFE4:
 440              		.size	VL53L0X_perform_offset_calibration, .-VL53L0X_perform_offset_calibration
 441              		.section	.text.VL53L0X_set_offset_calibration_data_micro_meter,"ax",%progbits
 442              		.align	1
 443              		.p2align 4,,15
 444              		.global	VL53L0X_set_offset_calibration_data_micro_meter
 445              		.syntax unified
 446              		.thumb
 447              		.thumb_func
 448              		.fpu fpv4-sp-d16
 449              		.type	VL53L0X_set_offset_calibration_data_micro_meter, %function
 450              	VL53L0X_set_offset_calibration_data_micro_meter:
 451              	.LFB5:
 452              		.loc 1 291 0
 453              		.cfi_startproc
 454              		@ args = 0, pretend = 0, frame = 8
 455              		@ frame_needed = 0, uses_anonymous_args = 0
 456              	.LVL67:
ARM GAS  C:\Users\Moi\AppData\Local\Temp\ccWeMAis.s 			page 9


 457 0000 10B5     		push	{r4, lr}
 458              		.cfi_def_cfa_offset 8
 459              		.cfi_offset 4, -8
 460              		.cfi_offset 14, -4
 461 0002 134B     		ldr	r3, .L65
 462              		.loc 1 300 0
 463 0004 134A     		ldr	r2, .L65+4
 464              		.loc 1 291 0
 465 0006 1C68     		ldr	r4, [r3]
 466 0008 82B0     		sub	sp, sp, #8
 467              		.cfi_def_cfa_offset 16
 468              		.loc 1 300 0
 469 000a 9142     		cmp	r1, r2
 470              		.loc 1 291 0
 471 000c 0194     		str	r4, [sp, #4]
 472              	.LVL68:
 473              		.loc 1 300 0
 474 000e 1ADC     		bgt	.L61
 475              		.loc 1 302 0
 476 0010 11F5FA2F 		cmn	r1, #512000
 477 0014 14DB     		blt	.L62
 478 0016 104C     		ldr	r4, .L65+8
 479 0018 CA17     		asrs	r2, r1, #31
 480 001a 84FB01C4 		smull	ip, r4, r4, r1
 481 001e C2EB2412 		rsb	r2, r2, r4, asr #4
 482              		.loc 1 309 0
 483 0022 0029     		cmp	r1, #0
 484 0024 B8BF     		it	lt
 485 0026 02F58052 		addlt	r2, r2, #4096
 486 002a 92B2     		uxth	r2, r2
 487              	.L58:
 488              		.loc 1 318 0
 489 002c 0199     		ldr	r1, [sp, #4]
 490              	.LVL69:
 491 002e 1B68     		ldr	r3, [r3]
 492 0030 9942     		cmp	r1, r3
 493 0032 0BD1     		bne	.L64
 494 0034 2821     		movs	r1, #40
 495              		.loc 1 324 0
 496 0036 02B0     		add	sp, sp, #8
 497              		.cfi_remember_state
 498              		.cfi_def_cfa_offset 8
 499              		@ sp needed
 500 0038 BDE81040 		pop	{r4, lr}
 501              		.cfi_restore 14
 502              		.cfi_restore 4
 503              		.cfi_def_cfa_offset 0
 504              		.loc 1 318 0
 505 003c FFF7FEBF 		b	VL53L0X_WrWord
 506              	.LVL70:
 507              	.L62:
 508              		.cfi_restore_state
 509 0040 4FF40062 		mov	r2, #2048
 510              	.LVL71:
 511 0044 F2E7     		b	.L58
 512              	.L61:
 513 0046 40F2FC72 		movw	r2, #2044
ARM GAS  C:\Users\Moi\AppData\Local\Temp\ccWeMAis.s 			page 10


 514 004a EFE7     		b	.L58
 515              	.LVL72:
 516              	.L64:
 517 004c FFF7FEFF 		bl	__stack_chk_fail
 518              	.LVL73:
 519              	.L66:
 520              		.align	2
 521              	.L65:
 522 0050 00000000 		.word	__stack_chk_guard
 523 0054 18CC0700 		.word	511000
 524 0058 D34D6210 		.word	274877907
 525              		.cfi_endproc
 526              	.LFE5:
 527              		.size	VL53L0X_set_offset_calibration_data_micro_meter, .-VL53L0X_set_offset_calibration_data_micro
 528              		.section	.text.VL53L0X_get_offset_calibration_data_micro_meter,"ax",%progbits
 529              		.align	1
 530              		.p2align 4,,15
 531              		.global	VL53L0X_get_offset_calibration_data_micro_meter
 532              		.syntax unified
 533              		.thumb
 534              		.thumb_func
 535              		.fpu fpv4-sp-d16
 536              		.type	VL53L0X_get_offset_calibration_data_micro_meter, %function
 537              	VL53L0X_get_offset_calibration_data_micro_meter:
 538              	.LFB6:
 539              		.loc 1 328 0
 540              		.cfi_startproc
 541              		@ args = 0, pretend = 0, frame = 8
 542              		@ frame_needed = 0, uses_anonymous_args = 0
 543              	.LVL74:
 544 0000 30B5     		push	{r4, r5, lr}
 545              		.cfi_def_cfa_offset 12
 546              		.cfi_offset 4, -12
 547              		.cfi_offset 5, -8
 548              		.cfi_offset 14, -4
 549 0002 134C     		ldr	r4, .L74
 550 0004 83B0     		sub	sp, sp, #12
 551              		.cfi_def_cfa_offset 24
 552              		.loc 1 328 0
 553 0006 0D46     		mov	r5, r1
 554 0008 2368     		ldr	r3, [r4]
 555 000a 0193     		str	r3, [sp, #4]
 556              	.LVL75:
 557              		.loc 1 336 0
 558 000c 0DF10202 		add	r2, sp, #2
 559 0010 2821     		movs	r1, #40
 560              	.LVL76:
 561 0012 FFF7FEFF 		bl	VL53L0X_RdWord
 562              	.LVL77:
 563              		.loc 1 340 0
 564 0016 50B9     		cbnz	r0, .L68
 565              		.loc 1 341 0
 566 0018 BDF80230 		ldrh	r3, [sp, #2]
 567 001c C3F30B03 		ubfx	r3, r3, #0, #12
 568              	.LVL78:
 569              		.loc 1 344 0
 570 0020 B3F5006F 		cmp	r3, #2048
ARM GAS  C:\Users\Moi\AppData\Local\Temp\ccWeMAis.s 			page 11


 571 0024 09D2     		bcs	.L72
 572              		.loc 1 350 0
 573 0026 FA22     		movs	r2, #250
 574 0028 02FB03F3 		mul	r3, r2, r3
 575              	.LVL79:
 576              		.loc 1 349 0
 577 002c 2B60     		str	r3, [r5]
 578              	.LVL80:
 579              	.L68:
 580              		.loc 1 355 0
 581 002e 019A     		ldr	r2, [sp, #4]
 582 0030 2368     		ldr	r3, [r4]
 583 0032 9A42     		cmp	r2, r3
 584 0034 0AD1     		bne	.L73
 585 0036 03B0     		add	sp, sp, #12
 586              		.cfi_remember_state
 587              		.cfi_def_cfa_offset 12
 588              		@ sp needed
 589 0038 30BD     		pop	{r4, r5, pc}
 590              	.LVL81:
 591              	.L72:
 592              		.cfi_restore_state
 593              		.loc 1 346 0
 594 003a A3F58053 		sub	r3, r3, #4096
 595              	.LVL82:
 596              		.loc 1 347 0
 597 003e C3EB4312 		rsb	r2, r3, r3, lsl #5
 598 0042 03EB8203 		add	r3, r3, r2, lsl #2
 599              	.LVL83:
 600 0046 5B00     		lsls	r3, r3, #1
 601              		.loc 1 345 0
 602 0048 2B60     		str	r3, [r5]
 603 004a F0E7     		b	.L68
 604              	.LVL84:
 605              	.L73:
 606              		.loc 1 355 0
 607 004c FFF7FEFF 		bl	__stack_chk_fail
 608              	.LVL85:
 609              	.L75:
 610              		.align	2
 611              	.L74:
 612 0050 00000000 		.word	__stack_chk_guard
 613              		.cfi_endproc
 614              	.LFE6:
 615              		.size	VL53L0X_get_offset_calibration_data_micro_meter, .-VL53L0X_get_offset_calibration_data_micro
 616              		.section	.text.VL53L0X_apply_offset_adjustment,"ax",%progbits
 617              		.align	1
 618              		.p2align 4,,15
 619              		.global	VL53L0X_apply_offset_adjustment
 620              		.syntax unified
 621              		.thumb
 622              		.thumb_func
 623              		.fpu fpv4-sp-d16
 624              		.type	VL53L0X_apply_offset_adjustment, %function
 625              	VL53L0X_apply_offset_adjustment:
 626              	.LFB7:
 627              		.loc 1 359 0
ARM GAS  C:\Users\Moi\AppData\Local\Temp\ccWeMAis.s 			page 12


 628              		.cfi_startproc
 629              		@ args = 0, pretend = 0, frame = 8
 630              		@ frame_needed = 0, uses_anonymous_args = 0
 631              	.LVL86:
 632 0000 70B5     		push	{r4, r5, r6, lr}
 633              		.cfi_def_cfa_offset 16
 634              		.cfi_offset 4, -16
 635              		.cfi_offset 5, -12
 636              		.cfi_offset 6, -8
 637              		.cfi_offset 14, -4
 638 0002 114C     		ldr	r4, .L82
 639 0004 82B0     		sub	sp, sp, #8
 640              		.cfi_def_cfa_offset 24
 641              		.loc 1 359 0
 642 0006 2368     		ldr	r3, [r4]
 643 0008 0193     		str	r3, [sp, #4]
 644              	.LVL87:
 645              		.loc 1 366 0
 646 000a 0721     		movs	r1, #7
 647              		.loc 1 359 0
 648 000c 0546     		mov	r5, r0
 649              		.loc 1 366 0
 650 000e FFF7FEFF 		bl	VL53L0X_get_info_from_device
 651              	.LVL88:
 652              		.loc 1 369 0
 653 0012 28B1     		cbz	r0, .L80
 654              	.L77:
 655              		.loc 1 396 0
 656 0014 019A     		ldr	r2, [sp, #4]
 657 0016 2368     		ldr	r3, [r4]
 658 0018 9A42     		cmp	r2, r3
 659 001a 13D1     		bne	.L81
 660 001c 02B0     		add	sp, sp, #8
 661              		.cfi_remember_state
 662              		.cfi_def_cfa_offset 16
 663              		@ sp needed
 664 001e 70BD     		pop	{r4, r5, r6, pc}
 665              	.LVL89:
 666              	.L80:
 667              		.cfi_restore_state
 668              		.loc 1 370 0
 669 0020 6946     		mov	r1, sp
 670 0022 2846     		mov	r0, r5
 671              	.LVL90:
 672 0024 FFF7FEFF 		bl	VL53L0X_GetOffsetCalibrationDataMicroMeter
 673              	.LVL91:
 674              		.loc 1 375 0
 675 0028 0028     		cmp	r0, #0
 676 002a F3D1     		bne	.L77
 677              		.loc 1 378 0
 678 002c 009B     		ldr	r3, [sp]
 679              		.loc 1 381 0
 680 002e EE68     		ldr	r6, [r5, #12]
 681              		.loc 1 378 0
 682 0030 AB60     		str	r3, [r5, #8]
 683              		.loc 1 381 0
 684 0032 1E44     		add	r6, r6, r3
ARM GAS  C:\Users\Moi\AppData\Local\Temp\ccWeMAis.s 			page 13


 685              	.LVL92:
 686              		.loc 1 385 0
 687 0034 3146     		mov	r1, r6
 688 0036 2846     		mov	r0, r5
 689              	.LVL93:
 690 0038 FFF7FEFF 		bl	VL53L0X_SetOffsetCalibrationDataMicroMeter
 691              	.LVL94:
 692              		.loc 1 389 0
 693 003c 0028     		cmp	r0, #0
 694 003e E9D1     		bne	.L77
 695              		.loc 1 390 0
 696 0040 6E62     		str	r6, [r5, #36]
 697 0042 E7E7     		b	.L77
 698              	.LVL95:
 699              	.L81:
 700              		.loc 1 396 0
 701 0044 FFF7FEFF 		bl	__stack_chk_fail
 702              	.LVL96:
 703              	.L83:
 704              		.align	2
 705              	.L82:
 706 0048 00000000 		.word	__stack_chk_guard
 707              		.cfi_endproc
 708              	.LFE7:
 709              		.size	VL53L0X_apply_offset_adjustment, .-VL53L0X_apply_offset_adjustment
 710              		.section	.text.get_next_good_spad,"ax",%progbits
 711              		.align	1
 712              		.p2align 4,,15
 713              		.global	get_next_good_spad
 714              		.syntax unified
 715              		.thumb
 716              		.thumb_func
 717              		.fpu fpv4-sp-d16
 718              		.type	get_next_good_spad, %function
 719              	get_next_good_spad:
 720              	.LFB8:
 721              		.loc 1 400 0
 722              		.cfi_startproc
 723              		@ args = 0, pretend = 0, frame = 8
 724              		@ frame_needed = 0, uses_anonymous_args = 0
 725              	.LVL97:
 726 0000 F0B5     		push	{r4, r5, r6, r7, lr}
 727              		.cfi_def_cfa_offset 20
 728              		.cfi_offset 4, -20
 729              		.cfi_offset 5, -16
 730              		.cfi_offset 6, -12
 731              		.cfi_offset 7, -8
 732              		.cfi_offset 14, -4
 733 0002 DFF860C0 		ldr	ip, .L97
 734 0006 83B0     		sub	sp, sp, #12
 735              		.cfi_def_cfa_offset 32
 736              		.loc 1 400 0
 737 0008 DCF80040 		ldr	r4, [ip]
 738 000c 0194     		str	r4, [sp, #4]
 739              	.LVL98:
 740              		.loc 1 419 0
 741 000e D708     		lsrs	r7, r2, #3
ARM GAS  C:\Users\Moi\AppData\Local\Temp\ccWeMAis.s 			page 14


 742              	.LVL99:
 743              		.loc 1 417 0
 744 0010 4FF0FF34 		mov	r4, #-1
 745              		.loc 1 422 0
 746 0014 8F42     		cmp	r7, r1
 747              		.loc 1 417 0
 748 0016 1C60     		str	r4, [r3]
 749              	.LVL100:
 750              		.loc 1 422 0
 751 0018 17D2     		bcs	.L84
 752 001a 3C19     		adds	r4, r7, r4
 753 001c 02F00702 		and	r2, r2, #7
 754              	.LVL101:
 755 0020 2044     		add	r0, r0, r4
 756              	.LVL102:
 757 0022 3E46     		mov	r6, r7
 758              	.LVL103:
 759              	.L89:
 760              		.loc 1 425 0
 761 0024 10F8015F 		ldrb	r5, [r0, #1]!	@ zero_extendqisi2
 762              	.LVL104:
 763              		.loc 1 427 0
 764 0028 BE42     		cmp	r6, r7
 765              		.loc 1 430 0
 766 002a 03BF     		ittte	eq
 767 002c 1541     		asreq	r5, r5, r2
 768              	.LVL105:
 769 002e EDB2     		uxtbeq	r5, r5
 770              	.LVL106:
 771              		.loc 1 431 0
 772 0030 1446     		moveq	r4, r2
 773              		.loc 1 424 0
 774 0032 0024     		movne	r4, #0
 775              	.LVL107:
 776              	.L88:
 777              		.loc 1 435 0
 778 0034 15F0010F 		tst	r5, #1
 779 0038 0ED1     		bne	.L95
 780              		.loc 1 441 0
 781 003a 0134     		adds	r4, r4, #1
 782              	.LVL108:
 783              		.loc 1 434 0
 784 003c 082C     		cmp	r4, #8
 785              		.loc 1 440 0
 786 003e 4FEA5505 		lsr	r5, r5, #1
 787              	.LVL109:
 788              		.loc 1 434 0
 789 0042 F7D1     		bne	.L88
 790              	.LVL110:
 791              		.loc 1 423 0
 792 0044 0136     		adds	r6, r6, #1
 793              	.LVL111:
 794              		.loc 1 422 0
 795 0046 B142     		cmp	r1, r6
 796 0048 ECD1     		bne	.L89
 797              	.LVL112:
 798              	.L84:
ARM GAS  C:\Users\Moi\AppData\Local\Temp\ccWeMAis.s 			page 15


 799              		.loc 1 444 0
 800 004a 019A     		ldr	r2, [sp, #4]
 801 004c DCF80030 		ldr	r3, [ip]
 802              	.LVL113:
 803 0050 9A42     		cmp	r2, r3
 804 0052 05D1     		bne	.L96
 805 0054 03B0     		add	sp, sp, #12
 806              		.cfi_remember_state
 807              		.cfi_def_cfa_offset 20
 808              		@ sp needed
 809 0056 F0BD     		pop	{r4, r5, r6, r7, pc}
 810              	.LVL114:
 811              	.L95:
 812              		.cfi_restore_state
 813              		.loc 1 437 0
 814 0058 04EBC604 		add	r4, r4, r6, lsl #3
 815              	.LVL115:
 816 005c 1C60     		str	r4, [r3]
 817              	.LVL116:
 818 005e F4E7     		b	.L84
 819              	.LVL117:
 820              	.L96:
 821              		.loc 1 444 0
 822 0060 FFF7FEFF 		bl	__stack_chk_fail
 823              	.LVL118:
 824              	.L98:
 825              		.align	2
 826              	.L97:
 827 0064 00000000 		.word	__stack_chk_guard
 828              		.cfi_endproc
 829              	.LFE8:
 830              		.size	get_next_good_spad, .-get_next_good_spad
 831              		.section	.text.is_aperture,"ax",%progbits
 832              		.align	1
 833              		.p2align 4,,15
 834              		.global	is_aperture
 835              		.syntax unified
 836              		.thumb
 837              		.thumb_func
 838              		.fpu fpv4-sp-d16
 839              		.type	is_aperture, %function
 840              	is_aperture:
 841              	.LFB9:
 842              		.loc 1 448 0
 843              		.cfi_startproc
 844              		@ args = 0, pretend = 0, frame = 8
 845              		@ frame_needed = 0, uses_anonymous_args = 0
 846              	.LVL119:
 847 0000 00B5     		push	{lr}
 848              		.cfi_def_cfa_offset 4
 849              		.cfi_offset 14, -4
 850 0002 0A4B     		ldr	r3, .L103
 851              		.loc 1 456 0
 852 0004 0A49     		ldr	r1, .L103+4
 853              		.loc 1 448 0
 854 0006 1A68     		ldr	r2, [r3]
 855 0008 83B0     		sub	sp, sp, #12
ARM GAS  C:\Users\Moi\AppData\Local\Temp\ccWeMAis.s 			page 16


 856              		.cfi_def_cfa_offset 16
 857              		.loc 1 455 0
 858 000a 8009     		lsrs	r0, r0, #6
 859              	.LVL120:
 860              		.loc 1 448 0
 861 000c 0192     		str	r2, [sp, #4]
 862              	.LVL121:
 863              		.loc 1 456 0
 864 000e 51F82000 		ldr	r0, [r1, r0, lsl #2]
 865              		.loc 1 460 0
 866 0012 019A     		ldr	r2, [sp, #4]
 867 0014 1B68     		ldr	r3, [r3]
 868 0016 0030     		adds	r0, r0, #0
 869 0018 18BF     		it	ne
 870 001a 0120     		movne	r0, #1
 871 001c 9A42     		cmp	r2, r3
 872 001e 02D1     		bne	.L102
 873 0020 03B0     		add	sp, sp, #12
 874              		.cfi_remember_state
 875              		.cfi_def_cfa_offset 4
 876              		@ sp needed
 877 0022 5DF804FB 		ldr	pc, [sp], #4
 878              	.L102:
 879              		.cfi_restore_state
 880 0026 FFF7FEFF 		bl	__stack_chk_fail
 881              	.LVL122:
 882              	.L104:
 883 002a 00BF     		.align	2
 884              	.L103:
 885 002c 00000000 		.word	__stack_chk_guard
 886 0030 00000000 		.word	.LANCHOR0
 887              		.cfi_endproc
 888              	.LFE9:
 889              		.size	is_aperture, .-is_aperture
 890              		.section	.text.enable_spad_bit,"ax",%progbits
 891              		.align	1
 892              		.p2align 4,,15
 893              		.global	enable_spad_bit
 894              		.syntax unified
 895              		.thumb
 896              		.thumb_func
 897              		.fpu fpv4-sp-d16
 898              		.type	enable_spad_bit, %function
 899              	enable_spad_bit:
 900              	.LFB10:
 901              		.loc 1 465 0
 902              		.cfi_startproc
 903              		@ args = 0, pretend = 0, frame = 8
 904              		@ frame_needed = 0, uses_anonymous_args = 0
 905              	.LVL123:
 906 0000 30B5     		push	{r4, r5, lr}
 907              		.cfi_def_cfa_offset 12
 908              		.cfi_offset 4, -12
 909              		.cfi_offset 5, -8
 910              		.cfi_offset 14, -4
 911 0002 0D4D     		ldr	r5, .L111
 912 0004 83B0     		sub	sp, sp, #12
ARM GAS  C:\Users\Moi\AppData\Local\Temp\ccWeMAis.s 			page 17


 913              		.cfi_def_cfa_offset 24
 914              		.loc 1 465 0
 915 0006 2B68     		ldr	r3, [r5]
 916 0008 0193     		str	r3, [sp, #4]
 917              	.LVL124:
 918              		.loc 1 471 0
 919 000a D308     		lsrs	r3, r2, #3
 920              	.LVL125:
 921              		.loc 1 473 0
 922 000c 8B42     		cmp	r3, r1
 923 000e 0ED2     		bcs	.L108
 924              		.loc 1 476 0
 925 0010 C15C     		ldrb	r1, [r0, r3]	@ zero_extendqisi2
 926              	.LVL126:
 927 0012 02F00702 		and	r2, r2, #7
 928              	.LVL127:
 929 0016 0124     		movs	r4, #1
 930 0018 04FA02F2 		lsl	r2, r4, r2
 931              	.LVL128:
 932 001c 0A43     		orrs	r2, r2, r1
 933 001e C254     		strb	r2, [r0, r3]
 934              		.loc 1 466 0
 935 0020 0020     		movs	r0, #0
 936              	.LVL129:
 937              	.L106:
 938              		.loc 1 479 0
 939 0022 019A     		ldr	r2, [sp, #4]
 940 0024 2B68     		ldr	r3, [r5]
 941              	.LVL130:
 942 0026 9A42     		cmp	r2, r3
 943 0028 04D1     		bne	.L110
 944 002a 03B0     		add	sp, sp, #12
 945              		.cfi_remember_state
 946              		.cfi_def_cfa_offset 12
 947              		@ sp needed
 948 002c 30BD     		pop	{r4, r5, pc}
 949              	.LVL131:
 950              	.L108:
 951              		.cfi_restore_state
 952              		.loc 1 474 0
 953 002e 6FF03100 		mvn	r0, #49
 954              	.LVL132:
 955 0032 F6E7     		b	.L106
 956              	.LVL133:
 957              	.L110:
 958              		.loc 1 479 0
 959 0034 FFF7FEFF 		bl	__stack_chk_fail
 960              	.LVL134:
 961              	.L112:
 962              		.align	2
 963              	.L111:
 964 0038 00000000 		.word	__stack_chk_guard
 965              		.cfi_endproc
 966              	.LFE10:
 967              		.size	enable_spad_bit, .-enable_spad_bit
 968              		.section	.text.count_enabled_spads,"ax",%progbits
 969              		.align	1
ARM GAS  C:\Users\Moi\AppData\Local\Temp\ccWeMAis.s 			page 18


 970              		.p2align 4,,15
 971              		.global	count_enabled_spads
 972              		.syntax unified
 973              		.thumb
 974              		.thumb_func
 975              		.fpu fpv4-sp-d16
 976              		.type	count_enabled_spads, %function
 977              	count_enabled_spads:
 978              	.LFB11:
 979              		.loc 1 484 0
 980              		.cfi_startproc
 981              		@ args = 4, pretend = 0, frame = 16
 982              		@ frame_needed = 0, uses_anonymous_args = 0
 983              	.LVL135:
 984 0000 2DE9F04F 		push	{r4, r5, r6, r7, r8, r9, r10, fp, lr}
 985              		.cfi_def_cfa_offset 36
 986              		.cfi_offset 4, -36
 987              		.cfi_offset 5, -32
 988              		.cfi_offset 6, -28
 989              		.cfi_offset 7, -24
 990              		.cfi_offset 8, -20
 991              		.cfi_offset 9, -16
 992              		.cfi_offset 10, -12
 993              		.cfi_offset 11, -8
 994              		.cfi_offset 14, -4
 995 0004 DFF89490 		ldr	r9, .L136
 996 0008 85B0     		sub	sp, sp, #20
 997              		.cfi_def_cfa_offset 56
 998              		.loc 1 498 0
 999 000a 4FEAD20A 		lsr	r10, r2, #3
 1000              		.loc 1 484 0
 1001 000e D9F80040 		ldr	r4, [r9]
 1002 0012 0394     		str	r4, [sp, #12]
 1003              	.LVL136:
 1004              		.loc 1 485 0
 1005 0014 8A45     		cmp	r10, r1
 1006              		.loc 1 505 0
 1007 0016 4FF00004 		mov	r4, #0
 1008              		.loc 1 499 0
 1009 001a 02F00708 		and	r8, r2, #7
 1010              	.LVL137:
 1011              		.loc 1 484 0
 1012 001e 0E9F     		ldr	r7, [sp, #56]
 1013              		.loc 1 505 0
 1014 0020 1C60     		str	r4, [r3]
 1015              		.loc 1 485 0
 1016 0022 2CBF     		ite	cs
 1017 0024 6FF03102 		mvncs	r2, #49
 1018              	.LVL138:
 1019 0028 2246     		movcc	r2, r4
 1020              		.loc 1 492 0
 1021 002a 2546     		mov	r5, r4
 1022              		.loc 1 485 0
 1023 002c 0192     		str	r2, [sp, #4]
 1024              	.LVL139:
 1025              		.loc 1 508 0
 1026 002e 0AF1FF3B 		add	fp, r10, #-1
ARM GAS  C:\Users\Moi\AppData\Local\Temp\ccWeMAis.s 			page 19


 1027 0032 2646     		mov	r6, r4
 1028 0034 00F1FF3E 		add	lr, r0, #-1
 1029              		.loc 1 516 0
 1030 0038 4FF0010C 		mov	ip, #1
 1031              	.LVL140:
 1032              	.L119:
 1033              		.loc 1 509 0
 1034 003c 1EF8011F 		ldrb	r1, [lr, #1]!	@ zero_extendqisi2
 1035              	.LVL141:
 1036              		.loc 1 511 0
 1037 0040 0022     		movs	r2, #0
 1038              	.LVL142:
 1039              	.L118:
 1040              		.loc 1 512 0
 1041 0042 CC07     		lsls	r4, r1, #31
 1042 0044 0BD5     		bpl	.L115
 1043              		.loc 1 513 0
 1044 0046 1C68     		ldr	r4, [r3]
 1045 0048 0134     		adds	r4, r4, #1
 1046 004a 1C60     		str	r4, [r3]
 1047              		.loc 1 515 0
 1048 004c 35B9     		cbnz	r5, .L134
 1049              		.loc 1 517 0
 1050 004e 012E     		cmp	r6, #1
 1051              		.loc 1 516 0
 1052 0050 87F800C0 		strb	ip, [r7]
 1053              		.loc 1 517 0
 1054 0054 02D8     		bhi	.L134
 1055              		.loc 1 517 0 is_stmt 0 discriminator 1
 1056 0056 032A     		cmp	r2, #3
 1057              		.loc 1 518 0 is_stmt 1 discriminator 1
 1058 0058 98BF     		it	ls
 1059 005a 3D70     		strbls	r5, [r7]
 1060              	.L134:
 1061              		.loc 1 519 0
 1062 005c 0125     		movs	r5, #1
 1063              	.LVL143:
 1064              	.L115:
 1065              		.loc 1 511 0 discriminator 2
 1066 005e 0132     		adds	r2, r2, #1
 1067              	.LVL144:
 1068 0060 092A     		cmp	r2, #9
 1069              		.loc 1 522 0 discriminator 2
 1070 0062 4FEA5101 		lsr	r1, r1, #1
 1071              	.LVL145:
 1072              		.loc 1 511 0 discriminator 2
 1073 0066 ECD1     		bne	.L118
 1074              		.loc 1 508 0 discriminator 2
 1075 0068 0136     		adds	r6, r6, #1
 1076              	.LVL146:
 1077 006a B345     		cmp	fp, r6
 1078 006c E6D2     		bcs	.L119
 1079              	.LVL147:
 1080 006e 10F80A00 		ldrb	r0, [r0, r10]	@ zero_extendqisi2
 1081              	.LVL148:
 1082              		.loc 1 531 0
 1083 0072 0022     		movs	r2, #0
ARM GAS  C:\Users\Moi\AppData\Local\Temp\ccWeMAis.s 			page 20


 1084 0074 00F00100 		and	r0, r0, #1
 1085              	.LVL149:
 1086              	.L121:
 1087              		.loc 1 532 0
 1088 0078 10B1     		cbz	r0, .L120
 1089              		.loc 1 533 0
 1090 007a 1968     		ldr	r1, [r3]
 1091 007c 0131     		adds	r1, r1, #1
 1092 007e 1960     		str	r1, [r3]
 1093              	.L120:
 1094              		.loc 1 531 0 discriminator 2
 1095 0080 0132     		adds	r2, r2, #1
 1096              	.LVL150:
 1097 0082 9045     		cmp	r8, r2
 1098 0084 F8D2     		bcs	.L121
 1099              		.loc 1 537 0
 1100 0086 039A     		ldr	r2, [sp, #12]
 1101              	.LVL151:
 1102 0088 D9F80030 		ldr	r3, [r9]
 1103              	.LVL152:
 1104 008c 0198     		ldr	r0, [sp, #4]
 1105 008e 9A42     		cmp	r2, r3
 1106 0090 02D1     		bne	.L135
 1107 0092 05B0     		add	sp, sp, #20
 1108              		.cfi_remember_state
 1109              		.cfi_def_cfa_offset 36
 1110              		@ sp needed
 1111 0094 BDE8F08F 		pop	{r4, r5, r6, r7, r8, r9, r10, fp, pc}
 1112              	.LVL153:
 1113              	.L135:
 1114              		.cfi_restore_state
 1115 0098 FFF7FEFF 		bl	__stack_chk_fail
 1116              	.LVL154:
 1117              	.L137:
 1118              		.align	2
 1119              	.L136:
 1120 009c 00000000 		.word	__stack_chk_guard
 1121              		.cfi_endproc
 1122              	.LFE11:
 1123              		.size	count_enabled_spads, .-count_enabled_spads
 1124              		.section	.text.set_ref_spad_map,"ax",%progbits
 1125              		.align	1
 1126              		.p2align 4,,15
 1127              		.global	set_ref_spad_map
 1128              		.syntax unified
 1129              		.thumb
 1130              		.thumb_func
 1131              		.fpu fpv4-sp-d16
 1132              		.type	set_ref_spad_map, %function
 1133              	set_ref_spad_map:
 1134              	.LFB12:
 1135              		.loc 1 540 0
 1136              		.cfi_startproc
 1137              		@ args = 0, pretend = 0, frame = 8
 1138              		@ frame_needed = 0, uses_anonymous_args = 0
 1139              	.LVL155:
 1140 0000 10B5     		push	{r4, lr}
ARM GAS  C:\Users\Moi\AppData\Local\Temp\ccWeMAis.s 			page 21


 1141              		.cfi_def_cfa_offset 8
 1142              		.cfi_offset 4, -8
 1143              		.cfi_offset 14, -4
 1144 0002 094B     		ldr	r3, .L143
 1145 0004 82B0     		sub	sp, sp, #8
 1146              		.cfi_def_cfa_offset 16
 1147              		.loc 1 540 0
 1148 0006 1A68     		ldr	r2, [r3]
 1149 0008 0192     		str	r2, [sp, #4]
 1150              		.loc 1 541 0
 1151 000a 019C     		ldr	r4, [sp, #4]
 1152 000c 1B68     		ldr	r3, [r3]
 1153 000e 9C42     		cmp	r4, r3
 1154 0010 07D1     		bne	.L142
 1155 0012 0A46     		mov	r2, r1
 1156 0014 0623     		movs	r3, #6
 1157 0016 B021     		movs	r1, #176
 1158              	.LVL156:
 1159              		.loc 1 545 0
 1160 0018 02B0     		add	sp, sp, #8
 1161              		.cfi_remember_state
 1162              		.cfi_def_cfa_offset 8
 1163              		@ sp needed
 1164 001a BDE81040 		pop	{r4, lr}
 1165              		.cfi_restore 14
 1166              		.cfi_restore 4
 1167              		.cfi_def_cfa_offset 0
 1168              		.loc 1 541 0
 1169 001e FFF7FEBF 		b	VL53L0X_WriteMulti
 1170              	.LVL157:
 1171              	.L142:
 1172              		.cfi_restore_state
 1173 0022 FFF7FEFF 		bl	__stack_chk_fail
 1174              	.LVL158:
 1175              	.L144:
 1176 0026 00BF     		.align	2
 1177              	.L143:
 1178 0028 00000000 		.word	__stack_chk_guard
 1179              		.cfi_endproc
 1180              	.LFE12:
 1181              		.size	set_ref_spad_map, .-set_ref_spad_map
 1182              		.section	.text.get_ref_spad_map,"ax",%progbits
 1183              		.align	1
 1184              		.p2align 4,,15
 1185              		.global	get_ref_spad_map
 1186              		.syntax unified
 1187              		.thumb
 1188              		.thumb_func
 1189              		.fpu fpv4-sp-d16
 1190              		.type	get_ref_spad_map, %function
 1191              	get_ref_spad_map:
 1192              	.LFB13:
 1193              		.loc 1 548 0
 1194              		.cfi_startproc
 1195              		@ args = 0, pretend = 0, frame = 8
 1196              		@ frame_needed = 0, uses_anonymous_args = 0
 1197              	.LVL159:
ARM GAS  C:\Users\Moi\AppData\Local\Temp\ccWeMAis.s 			page 22


 1198 0000 10B5     		push	{r4, lr}
 1199              		.cfi_def_cfa_offset 8
 1200              		.cfi_offset 4, -8
 1201              		.cfi_offset 14, -4
 1202 0002 094B     		ldr	r3, .L150
 1203 0004 82B0     		sub	sp, sp, #8
 1204              		.cfi_def_cfa_offset 16
 1205              		.loc 1 548 0
 1206 0006 1A68     		ldr	r2, [r3]
 1207 0008 0192     		str	r2, [sp, #4]
 1208              		.loc 1 549 0
 1209 000a 019C     		ldr	r4, [sp, #4]
 1210 000c 1B68     		ldr	r3, [r3]
 1211 000e 9C42     		cmp	r4, r3
 1212 0010 07D1     		bne	.L149
 1213 0012 0A46     		mov	r2, r1
 1214 0014 0623     		movs	r3, #6
 1215 0016 B021     		movs	r1, #176
 1216              	.LVL160:
 1217              		.loc 1 554 0
 1218 0018 02B0     		add	sp, sp, #8
 1219              		.cfi_remember_state
 1220              		.cfi_def_cfa_offset 8
 1221              		@ sp needed
 1222 001a BDE81040 		pop	{r4, lr}
 1223              		.cfi_restore 14
 1224              		.cfi_restore 4
 1225              		.cfi_def_cfa_offset 0
 1226              		.loc 1 549 0
 1227 001e FFF7FEBF 		b	VL53L0X_ReadMulti
 1228              	.LVL161:
 1229              	.L149:
 1230              		.cfi_restore_state
 1231 0022 FFF7FEFF 		bl	__stack_chk_fail
 1232              	.LVL162:
 1233              	.L151:
 1234 0026 00BF     		.align	2
 1235              	.L150:
 1236 0028 00000000 		.word	__stack_chk_guard
 1237              		.cfi_endproc
 1238              	.LFE13:
 1239              		.size	get_ref_spad_map, .-get_ref_spad_map
 1240              		.section	.text.enable_ref_spads,"ax",%progbits
 1241              		.align	1
 1242              		.p2align 4,,15
 1243              		.global	enable_ref_spads
 1244              		.syntax unified
 1245              		.thumb
 1246              		.thumb_func
 1247              		.fpu fpv4-sp-d16
 1248              		.type	enable_ref_spads, %function
 1249              	enable_ref_spads:
 1250              	.LFB14:
 1251              		.loc 1 565 0
 1252              		.cfi_startproc
 1253              		@ args = 20, pretend = 0, frame = 24
 1254              		@ frame_needed = 0, uses_anonymous_args = 0
ARM GAS  C:\Users\Moi\AppData\Local\Temp\ccWeMAis.s 			page 23


 1255              	.LVL163:
 1256 0000 2DE9F04F 		push	{r4, r5, r6, r7, r8, r9, r10, fp, lr}
 1257              		.cfi_def_cfa_offset 36
 1258              		.cfi_offset 4, -36
 1259              		.cfi_offset 5, -32
 1260              		.cfi_offset 6, -28
 1261              		.cfi_offset 7, -24
 1262              		.cfi_offset 8, -20
 1263              		.cfi_offset 9, -16
 1264              		.cfi_offset 10, -12
 1265              		.cfi_offset 11, -8
 1266              		.cfi_offset 14, -4
 1267 0004 87B0     		sub	sp, sp, #28
 1268              		.cfi_def_cfa_offset 64
 1269              		.loc 1 565 0
 1270 0006 354C     		ldr	r4, .L178
 1271 0008 DDF84C80 		ldr	r8, [sp, #76]
 1272 000c 2468     		ldr	r4, [r4]
 1273 000e 129E     		ldr	r6, [sp, #72]
 1274 0010 0594     		str	r4, [sp, #20]
 1275 0012 1F46     		mov	r7, r3
 1276 0014 149B     		ldr	r3, [sp, #80]
 1277              	.LVL164:
 1278 0016 0190     		str	r0, [sp, #4]
 1279              	.LVL165:
 1280              		.loc 1 569 0
 1281 0018 0296     		str	r6, [sp, #8]
 1282              	.LVL166:
 1283              		.loc 1 565 0
 1284 001a DDE9105B 		ldrd	r5, fp, [sp, #64]
 1285 001e 0093     		str	r3, [sp]
 1286              		.loc 1 584 0
 1287 0020 B8F1000F 		cmp	r8, #0
 1288 0024 33D0     		beq	.L153
 1289 0026 8A46     		mov	r10, r1
 1290 0028 9146     		mov	r9, r2
 1291 002a 0024     		movs	r4, #0
 1292 002c 1AE0     		b	.L156
 1293              	.LVL167:
 1294              	.L176:
 1295              		.loc 1 594 0
 1296 002e 03EB0B02 		add	r2, r3, fp
 1297              	.LBB24:
 1298              	.LBB25:
 1299              		.loc 1 455 0
 1300 0032 9209     		lsrs	r2, r2, #6
 1301              		.loc 1 456 0
 1302 0034 2A49     		ldr	r1, .L178+4
 1303 0036 51F82220 		ldr	r2, [r1, r2, lsl #2]
 1304              	.LBE25:
 1305              	.LBE24:
 1306              		.loc 1 594 0
 1307 003a 0032     		adds	r2, r2, #0
 1308 003c 18BF     		it	ne
 1309 003e 0122     		movne	r2, #1
 1310 0040 5245     		cmp	r2, r10
 1311 0042 18D1     		bne	.L154
ARM GAS  C:\Users\Moi\AppData\Local\Temp\ccWeMAis.s 			page 24


 1312              	.LVL168:
 1313              	.LBB26:
 1314              	.LBB27:
 1315              		.loc 1 471 0 discriminator 2
 1316 0044 DA08     		lsrs	r2, r3, #3
 1317              	.LVL169:
 1318              		.loc 1 473 0 discriminator 2
 1319 0046 9542     		cmp	r5, r2
 1320 0048 07D9     		bls	.L155
 1321              		.loc 1 476 0
 1322 004a B85C     		ldrb	r0, [r7, r2]	@ zero_extendqisi2
 1323              		.loc 1 472 0
 1324 004c 03F00701 		and	r1, r3, #7
 1325              	.LVL170:
 1326              		.loc 1 476 0
 1327 0050 0126     		movs	r6, #1
 1328 0052 06FA01F1 		lsl	r1, r6, r1
 1329              	.LVL171:
 1330 0056 0143     		orrs	r1, r1, r0
 1331 0058 B954     		strb	r1, [r7, r2]
 1332              	.L155:
 1333              	.LVL172:
 1334              	.LBE27:
 1335              	.LBE26:
 1336              		.loc 1 584 0
 1337 005a 0134     		adds	r4, r4, #1
 1338              	.LVL173:
 1339 005c A045     		cmp	r8, r4
 1340              		.loc 1 603 0
 1341 005e 03F10106 		add	r6, r3, #1
 1342              	.LVL174:
 1343              		.loc 1 584 0
 1344 0062 14D0     		beq	.L153
 1345              	.LVL175:
 1346              	.L156:
 1347              		.loc 1 585 0
 1348 0064 02AB     		add	r3, sp, #8
 1349 0066 3246     		mov	r2, r6
 1350 0068 2946     		mov	r1, r5
 1351 006a 4846     		mov	r0, r9
 1352 006c FFF7FEFF 		bl	get_next_good_spad
 1353              	.LVL176:
 1354              		.loc 1 588 0
 1355 0070 029B     		ldr	r3, [sp, #8]
 1356 0072 5A1C     		adds	r2, r3, #1
 1357 0074 DBD1     		bne	.L176
 1358              	.L154:
 1359              	.LVL177:
 1360              		.loc 1 605 0
 1361 0076 009B     		ldr	r3, [sp]
 1362 0078 6FF03100 		mvn	r0, #49
 1363 007c 1E60     		str	r6, [r3]
 1364              	.LVL178:
 1365              	.L157:
 1366              		.loc 1 626 0
 1367 007e 174B     		ldr	r3, .L178
 1368 0080 059A     		ldr	r2, [sp, #20]
ARM GAS  C:\Users\Moi\AppData\Local\Temp\ccWeMAis.s 			page 25


 1369 0082 1B68     		ldr	r3, [r3]
 1370 0084 9A42     		cmp	r2, r3
 1371 0086 27D1     		bne	.L177
 1372 0088 07B0     		add	sp, sp, #28
 1373              		.cfi_remember_state
 1374              		.cfi_def_cfa_offset 36
 1375              		@ sp needed
 1376 008a BDE8F08F 		pop	{r4, r5, r6, r7, r8, r9, r10, fp, pc}
 1377              	.LVL179:
 1378              	.L153:
 1379              		.cfi_restore_state
 1380              		.loc 1 605 0
 1381 008e 009B     		ldr	r3, [sp]
 1382              	.LBB28:
 1383              	.LBB29:
 1384              		.loc 1 541 0
 1385 0090 0198     		ldr	r0, [sp, #4]
 1386              	.LBE29:
 1387              	.LBE28:
 1388              		.loc 1 605 0
 1389 0092 1E60     		str	r6, [r3]
 1390              	.LVL180:
 1391              	.LBB31:
 1392              	.LBB30:
 1393              		.loc 1 541 0
 1394 0094 3A46     		mov	r2, r7
 1395 0096 0623     		movs	r3, #6
 1396 0098 B021     		movs	r1, #176
 1397 009a FFF7FEFF 		bl	VL53L0X_WriteMulti
 1398              	.LVL181:
 1399              	.LBE30:
 1400              	.LBE31:
 1401              		.loc 1 611 0
 1402 009e 0028     		cmp	r0, #0
 1403 00a0 EDD1     		bne	.L157
 1404              	.LVL182:
 1405              	.LBB32:
 1406              	.LBB33:
 1407              		.loc 1 549 0
 1408 00a2 0198     		ldr	r0, [sp, #4]
 1409              	.LVL183:
 1410 00a4 03AA     		add	r2, sp, #12
 1411              	.LVL184:
 1412 00a6 0623     		movs	r3, #6
 1413 00a8 B021     		movs	r1, #176
 1414 00aa FFF7FEFF 		bl	VL53L0X_ReadMulti
 1415              	.LVL185:
 1416              	.LBE33:
 1417              	.LBE32:
 1418              		.loc 1 617 0
 1419 00ae 002D     		cmp	r5, #0
 1420 00b0 E5D0     		beq	.L157
 1421              		.loc 1 618 0
 1422 00b2 9DF80C20 		ldrb	r2, [sp, #12]	@ zero_extendqisi2
 1423 00b6 3B78     		ldrb	r3, [r7]	@ zero_extendqisi2
 1424 00b8 9A42     		cmp	r2, r3
 1425 00ba 0AD1     		bne	.L163
ARM GAS  C:\Users\Moi\AppData\Local\Temp\ccWeMAis.s 			page 26


 1426 00bc 3D44     		add	r5, r5, r7
 1427 00be 03AB     		add	r3, sp, #12
 1428 00c0 0137     		adds	r7, r7, #1
 1429              	.LVL186:
 1430              	.L158:
 1431              		.loc 1 617 0
 1432 00c2 AF42     		cmp	r7, r5
 1433 00c4 DBD0     		beq	.L157
 1434              		.loc 1 618 0
 1435 00c6 17F8012B 		ldrb	r2, [r7], #1	@ zero_extendqisi2
 1436 00ca 13F8011F 		ldrb	r1, [r3, #1]!	@ zero_extendqisi2
 1437 00ce 9142     		cmp	r1, r2
 1438 00d0 F7D0     		beq	.L158
 1439              	.L163:
 1440              		.loc 1 619 0
 1441 00d2 6FF03100 		mvn	r0, #49
 1442 00d6 D2E7     		b	.L157
 1443              	.LVL187:
 1444              	.L177:
 1445              		.loc 1 626 0
 1446 00d8 FFF7FEFF 		bl	__stack_chk_fail
 1447              	.LVL188:
 1448              	.L179:
 1449              		.align	2
 1450              	.L178:
 1451 00dc 00000000 		.word	__stack_chk_guard
 1452 00e0 00000000 		.word	.LANCHOR0
 1453              		.cfi_endproc
 1454              	.LFE14:
 1455              		.size	enable_ref_spads, .-enable_ref_spads
 1456              		.section	.text.perform_ref_signal_measurement,"ax",%progbits
 1457              		.align	1
 1458              		.p2align 4,,15
 1459              		.global	perform_ref_signal_measurement
 1460              		.syntax unified
 1461              		.thumb
 1462              		.thumb_func
 1463              		.fpu fpv4-sp-d16
 1464              		.type	perform_ref_signal_measurement, %function
 1465              	perform_ref_signal_measurement:
 1466              	.LFB15:
 1467              		.loc 1 631 0
 1468              		.cfi_startproc
 1469              		@ args = 0, pretend = 0, frame = 32
 1470              		@ frame_needed = 0, uses_anonymous_args = 0
 1471              	.LVL189:
 1472 0000 F0B5     		push	{r4, r5, r6, r7, lr}
 1473              		.cfi_def_cfa_offset 20
 1474              		.cfi_offset 4, -20
 1475              		.cfi_offset 5, -16
 1476              		.cfi_offset 6, -12
 1477              		.cfi_offset 7, -8
 1478              		.cfi_offset 14, -4
 1479 0002 1D4D     		ldr	r5, .L186
 1480              		.loc 1 641 0
 1481 0004 90F83061 		ldrb	r6, [r0, #304]	@ zero_extendqisi2
 1482              		.loc 1 631 0
ARM GAS  C:\Users\Moi\AppData\Local\Temp\ccWeMAis.s 			page 27


 1483 0008 2B68     		ldr	r3, [r5]
 1484 000a 89B0     		sub	sp, sp, #36
 1485              		.cfi_def_cfa_offset 56
 1486              		.loc 1 631 0
 1487 000c 0F46     		mov	r7, r1
 1488              		.loc 1 647 0
 1489 000e C022     		movs	r2, #192
 1490 0010 0121     		movs	r1, #1
 1491              	.LVL190:
 1492              		.loc 1 631 0
 1493 0012 0446     		mov	r4, r0
 1494 0014 0793     		str	r3, [sp, #28]
 1495              	.LVL191:
 1496              		.loc 1 647 0
 1497 0016 FFF7FEFF 		bl	VL53L0X_WrByte
 1498              	.LVL192:
 1499              		.loc 1 650 0
 1500 001a 28B1     		cbz	r0, .L184
 1501              	.L181:
 1502              		.loc 1 674 0
 1503 001c 079A     		ldr	r2, [sp, #28]
 1504 001e 2B68     		ldr	r3, [r5]
 1505 0020 9A42     		cmp	r2, r3
 1506 0022 26D1     		bne	.L185
 1507 0024 09B0     		add	sp, sp, #36
 1508              		.cfi_remember_state
 1509              		.cfi_def_cfa_offset 20
 1510              		@ sp needed
 1511 0026 F0BD     		pop	{r4, r5, r6, r7, pc}
 1512              	.LVL193:
 1513              	.L184:
 1514              		.cfi_restore_state
 1515              		.loc 1 651 0
 1516 0028 6946     		mov	r1, sp
 1517 002a 2046     		mov	r0, r4
 1518              	.LVL194:
 1519 002c FFF7FEFF 		bl	VL53L0X_PerformSingleRangingMeasurement
 1520              	.LVL195:
 1521              		.loc 1 654 0
 1522 0030 0028     		cmp	r0, #0
 1523 0032 F3D1     		bne	.L181
 1524              		.loc 1 655 0
 1525 0034 0122     		movs	r2, #1
 1526 0036 FF21     		movs	r1, #255
 1527 0038 2046     		mov	r0, r4
 1528              	.LVL196:
 1529 003a FFF7FEFF 		bl	VL53L0X_WrByte
 1530              	.LVL197:
 1531              		.loc 1 657 0
 1532 003e 0028     		cmp	r0, #0
 1533 0040 ECD1     		bne	.L181
 1534              		.loc 1 658 0
 1535 0042 3A46     		mov	r2, r7
 1536 0044 B621     		movs	r1, #182
 1537 0046 2046     		mov	r0, r4
 1538              	.LVL198:
 1539 0048 FFF7FEFF 		bl	VL53L0X_RdWord
ARM GAS  C:\Users\Moi\AppData\Local\Temp\ccWeMAis.s 			page 28


 1540              	.LVL199:
 1541              		.loc 1 662 0
 1542 004c 0028     		cmp	r0, #0
 1543 004e E5D1     		bne	.L181
 1544              		.loc 1 663 0
 1545 0050 0246     		mov	r2, r0
 1546 0052 FF21     		movs	r1, #255
 1547 0054 2046     		mov	r0, r4
 1548              	.LVL200:
 1549 0056 FFF7FEFF 		bl	VL53L0X_WrByte
 1550              	.LVL201:
 1551              		.loc 1 665 0
 1552 005a 0028     		cmp	r0, #0
 1553 005c DED1     		bne	.L181
 1554              		.loc 1 667 0
 1555 005e 3246     		mov	r2, r6
 1556 0060 0121     		movs	r1, #1
 1557 0062 2046     		mov	r0, r4
 1558              	.LVL202:
 1559 0064 FFF7FEFF 		bl	VL53L0X_WrByte
 1560              	.LVL203:
 1561              		.loc 1 669 0
 1562 0068 0028     		cmp	r0, #0
 1563 006a D7D1     		bne	.L181
 1564              		.loc 1 670 0
 1565 006c 84F83061 		strb	r6, [r4, #304]
 1566 0070 D4E7     		b	.L181
 1567              	.L185:
 1568              		.loc 1 674 0
 1569 0072 FFF7FEFF 		bl	__stack_chk_fail
 1570              	.LVL204:
 1571              	.L187:
 1572 0076 00BF     		.align	2
 1573              	.L186:
 1574 0078 00000000 		.word	__stack_chk_guard
 1575              		.cfi_endproc
 1576              	.LFE15:
 1577              		.size	perform_ref_signal_measurement, .-perform_ref_signal_measurement
 1578              		.section	.text.VL53L0X_set_reference_spads,"ax",%progbits
 1579              		.align	1
 1580              		.p2align 4,,15
 1581              		.global	VL53L0X_set_reference_spads
 1582              		.syntax unified
 1583              		.thumb
 1584              		.thumb_func
 1585              		.fpu fpv4-sp-d16
 1586              		.type	VL53L0X_set_reference_spads, %function
 1587              	VL53L0X_set_reference_spads:
 1588              	.LFB17:
 1589              		.loc 1 945 0
 1590              		.cfi_startproc
 1591              		@ args = 0, pretend = 0, frame = 8
 1592              		@ frame_needed = 0, uses_anonymous_args = 0
 1593              	.LVL205:
 1594 0000 F0B5     		push	{r4, r5, r6, r7, lr}
 1595              		.cfi_def_cfa_offset 20
 1596              		.cfi_offset 4, -20
ARM GAS  C:\Users\Moi\AppData\Local\Temp\ccWeMAis.s 			page 29


 1597              		.cfi_offset 5, -16
 1598              		.cfi_offset 6, -12
 1599              		.cfi_offset 7, -8
 1600              		.cfi_offset 14, -4
 1601 0002 2F4E     		ldr	r6, .L206
 1602 0004 89B0     		sub	sp, sp, #36
 1603              		.cfi_def_cfa_offset 56
 1604              		.loc 1 945 0
 1605 0006 0F46     		mov	r7, r1
 1606 0008 1546     		mov	r5, r2
 1607 000a 3368     		ldr	r3, [r6]
 1608 000c 0793     		str	r3, [sp, #28]
 1609              	.LVL206:
 1610              		.loc 1 961 0
 1611 000e 0122     		movs	r2, #1
 1612              	.LVL207:
 1613 0010 FF21     		movs	r1, #255
 1614              	.LVL208:
 1615              		.loc 1 945 0
 1616 0012 0446     		mov	r4, r0
 1617              		.loc 1 961 0
 1618 0014 FFF7FEFF 		bl	VL53L0X_WrByte
 1619              	.LVL209:
 1620              		.loc 1 963 0
 1621 0018 A0B3     		cbz	r0, .L204
 1622              	.LVL210:
 1623              	.L190:
 1624              		.loc 1 980 0 discriminator 1
 1625 001a 0022     		movs	r2, #0
 1626 001c C4F82421 		str	r2, [r4, #292]
 1627 0020 A4F82821 		strh	r2, [r4, #296]	@ movhi
 1628              	.LVL211:
 1629              		.loc 1 982 0 discriminator 1
 1630 0024 65B3     		cbz	r5, .L197
 1631              	.LVL212:
 1632              	.LBB34:
 1633              	.LBB35:
 1634              		.loc 1 456 0
 1635 0026 2748     		ldr	r0, .L206+4
 1636 0028 8168     		ldr	r1, [r0, #8]
 1637              	.LBE35:
 1638              	.LBE34:
 1639              		.loc 1 986 0
 1640 002a 0123     		movs	r3, #1
 1641              	.LBB38:
 1642              	.LBB36:
 1643              		.loc 1 456 0
 1644 002c 21B3     		cbz	r1, .L193
 1645              	.LVL213:
 1646              	.L192:
 1647              	.LBE36:
 1648              	.LBE38:
 1649              		.loc 1 989 0
 1650 002e 06A8     		add	r0, sp, #24
 1651 0030 B421     		movs	r1, #180
 1652 0032 0623     		movs	r3, #6
 1653 0034 CDE90031 		strd	r3, r1, [sp]
ARM GAS  C:\Users\Moi\AppData\Local\Temp\ccWeMAis.s 			page 30


 1654 0038 CDE90227 		strd	r2, r7, [sp, #8]
 1655 003c 0490     		str	r0, [sp, #16]
 1656 003e 04F59273 		add	r3, r4, #292
 1657 0042 04F59572 		add	r2, r4, #298
 1658              	.LVL214:
 1659 0046 2946     		mov	r1, r5
 1660 0048 2046     		mov	r0, r4
 1661 004a FFF7FEFF 		bl	enable_ref_spads
 1662              	.LVL215:
 1663              		.loc 1 999 0
 1664 004e 30B9     		cbnz	r0, .L195
 1665              		.loc 1 1000 0
 1666 0050 0123     		movs	r3, #1
 1667              		.loc 1 1001 0
 1668 0052 84F81371 		strb	r7, [r4, #275]
 1669              		.loc 1 1003 0
 1670 0056 84F81451 		strb	r5, [r4, #276]
 1671              		.loc 1 1000 0
 1672 005a 84F81531 		strb	r3, [r4, #277]
 1673              	.L195:
 1674              		.loc 1 1008 0
 1675 005e 079A     		ldr	r2, [sp, #28]
 1676 0060 3368     		ldr	r3, [r6]
 1677 0062 9A42     		cmp	r2, r3
 1678 0064 29D1     		bne	.L205
 1679 0066 09B0     		add	sp, sp, #36
 1680              		.cfi_remember_state
 1681              		.cfi_def_cfa_offset 20
 1682              		@ sp needed
 1683 0068 F0BD     		pop	{r4, r5, r6, r7, pc}
 1684              	.LVL216:
 1685              	.L194:
 1686              		.cfi_restore_state
 1687              		.loc 1 984 0
 1688 006a 2C2A     		cmp	r2, #44
 1689 006c DFD0     		beq	.L192
 1690 006e B633     		adds	r3, r3, #182
 1691 0070 9909     		lsrs	r1, r3, #6
 1692 0072 1346     		mov	r3, r2
 1693 0074 50F82110 		ldr	r1, [r0, r1, lsl #2]
 1694              	.LVL217:
 1695              	.L193:
 1696              		.loc 1 986 0
 1697 0078 5A1C     		adds	r2, r3, #1
 1698              	.LVL218:
 1699              	.LBB39:
 1700              	.LBB37:
 1701              		.loc 1 456 0
 1702 007a 0029     		cmp	r1, #0
 1703 007c F5D0     		beq	.L194
 1704 007e D6E7     		b	.L192
 1705              	.LVL219:
 1706              	.L197:
 1707              	.LBE37:
 1708              	.LBE39:
 1709              		.loc 1 947 0
 1710 0080 2A46     		mov	r2, r5
ARM GAS  C:\Users\Moi\AppData\Local\Temp\ccWeMAis.s 			page 31


 1711 0082 D4E7     		b	.L192
 1712              	.LVL220:
 1713              	.L204:
 1714              		.loc 1 964 0
 1715 0084 0246     		mov	r2, r0
 1716 0086 4F21     		movs	r1, #79
 1717 0088 2046     		mov	r0, r4
 1718              	.LVL221:
 1719 008a FFF7FEFF 		bl	VL53L0X_WrByte
 1720              	.LVL222:
 1721              		.loc 1 967 0
 1722 008e 0028     		cmp	r0, #0
 1723 0090 C3D1     		bne	.L190
 1724              		.loc 1 968 0
 1725 0092 2C22     		movs	r2, #44
 1726 0094 4E21     		movs	r1, #78
 1727 0096 2046     		mov	r0, r4
 1728              	.LVL223:
 1729 0098 FFF7FEFF 		bl	VL53L0X_WrByte
 1730              	.LVL224:
 1731              		.loc 1 971 0
 1732 009c 0246     		mov	r2, r0
 1733 009e 0028     		cmp	r0, #0
 1734 00a0 BBD1     		bne	.L190
 1735              		.loc 1 972 0
 1736 00a2 FF21     		movs	r1, #255
 1737 00a4 2046     		mov	r0, r4
 1738              	.LVL225:
 1739 00a6 FFF7FEFF 		bl	VL53L0X_WrByte
 1740              	.LVL226:
 1741              		.loc 1 974 0
 1742 00aa 0028     		cmp	r0, #0
 1743 00ac B5D1     		bne	.L190
 1744              		.loc 1 975 0
 1745 00ae B422     		movs	r2, #180
 1746 00b0 B621     		movs	r1, #182
 1747 00b2 2046     		mov	r0, r4
 1748              	.LVL227:
 1749 00b4 FFF7FEFF 		bl	VL53L0X_WrByte
 1750              	.LVL228:
 1751 00b8 AFE7     		b	.L190
 1752              	.LVL229:
 1753              	.L205:
 1754              		.loc 1 1008 0
 1755 00ba FFF7FEFF 		bl	__stack_chk_fail
 1756              	.LVL230:
 1757              	.L207:
 1758 00be 00BF     		.align	2
 1759              	.L206:
 1760 00c0 00000000 		.word	__stack_chk_guard
 1761 00c4 00000000 		.word	.LANCHOR0
 1762              		.cfi_endproc
 1763              	.LFE17:
 1764              		.size	VL53L0X_set_reference_spads, .-VL53L0X_set_reference_spads
 1765              		.section	.text.VL53L0X_get_reference_spads,"ax",%progbits
 1766              		.align	1
 1767              		.p2align 4,,15
ARM GAS  C:\Users\Moi\AppData\Local\Temp\ccWeMAis.s 			page 32


 1768              		.global	VL53L0X_get_reference_spads
 1769              		.syntax unified
 1770              		.thumb
 1771              		.thumb_func
 1772              		.fpu fpv4-sp-d16
 1773              		.type	VL53L0X_get_reference_spads, %function
 1774              	VL53L0X_get_reference_spads:
 1775              	.LFB18:
 1776              		.loc 1 1012 0
 1777              		.cfi_startproc
 1778              		@ args = 0, pretend = 0, frame = 24
 1779              		@ frame_needed = 0, uses_anonymous_args = 0
 1780              	.LVL231:
 1781 0000 2DE9F041 		push	{r4, r5, r6, r7, r8, lr}
 1782              		.cfi_def_cfa_offset 24
 1783              		.cfi_offset 4, -24
 1784              		.cfi_offset 5, -20
 1785              		.cfi_offset 6, -16
 1786              		.cfi_offset 7, -12
 1787              		.cfi_offset 8, -8
 1788              		.cfi_offset 14, -4
 1789 0004 1F4D     		ldr	r5, .L216
 1790              		.loc 1 1024 0
 1791 0006 90F81561 		ldrb	r6, [r0, #277]	@ zero_extendqisi2
 1792              		.loc 1 1012 0
 1793 000a 2B68     		ldr	r3, [r5]
 1794 000c 88B0     		sub	sp, sp, #32
 1795              		.cfi_def_cfa_offset 56
 1796              		.loc 1 1024 0
 1797 000e 012E     		cmp	r6, #1
 1798              		.loc 1 1012 0
 1799 0010 0793     		str	r3, [sp, #28]
 1800              	.LVL232:
 1801              		.loc 1 1019 0
 1802 0012 4FF00003 		mov	r3, #0
 1803              		.loc 1 1012 0
 1804 0016 0446     		mov	r4, r0
 1805 0018 8846     		mov	r8, r1
 1806 001a 1746     		mov	r7, r2
 1807              		.loc 1 1019 0
 1808 001c 8DF80F30 		strb	r3, [sp, #15]
 1809              	.LVL233:
 1810              		.loc 1 1024 0
 1811 0020 0CD0     		beq	.L213
 1812              	.LVL234:
 1813              	.LBB40:
 1814              	.LBB41:
 1815              		.loc 1 549 0
 1816 0022 05AA     		add	r2, sp, #20
 1817              	.LVL235:
 1818 0024 0623     		movs	r3, #6
 1819 0026 B021     		movs	r1, #176
 1820              	.LVL236:
 1821 0028 FFF7FEFF 		bl	VL53L0X_ReadMulti
 1822              	.LVL237:
 1823              	.LBE41:
 1824              	.LBE40:
ARM GAS  C:\Users\Moi\AppData\Local\Temp\ccWeMAis.s 			page 33


 1825              		.loc 1 1035 0
 1826 002c 70B1     		cbz	r0, .L214
 1827              	.L210:
 1828              	.LVL238:
 1829              		.loc 1 1062 0
 1830 002e 079A     		ldr	r2, [sp, #28]
 1831 0030 2B68     		ldr	r3, [r5]
 1832 0032 9A42     		cmp	r2, r3
 1833 0034 23D1     		bne	.L215
 1834 0036 08B0     		add	sp, sp, #32
 1835              		.cfi_remember_state
 1836              		.cfi_def_cfa_offset 24
 1837              		@ sp needed
 1838 0038 BDE8F081 		pop	{r4, r5, r6, r7, r8, pc}
 1839              	.LVL239:
 1840              	.L213:
 1841              		.cfi_restore_state
 1842              		.loc 1 1026 0
 1843 003c 90F81321 		ldrb	r2, [r0, #275]	@ zero_extendqisi2
 1844              	.LVL240:
 1845 0040 0A60     		str	r2, [r1]
 1846              	.LVL241:
 1847              		.loc 1 1028 0
 1848 0042 90F81421 		ldrb	r2, [r0, #276]	@ zero_extendqisi2
 1849 0046 3A70     		strb	r2, [r7]
 1850              		.loc 1 1013 0
 1851 0048 1846     		mov	r0, r3
 1852              	.LVL242:
 1853 004a F0E7     		b	.L210
 1854              	.LVL243:
 1855              	.L214:
 1856              		.loc 1 1039 0
 1857 004c 0DF10F03 		add	r3, sp, #15
 1858 0050 0093     		str	r3, [sp]
 1859 0052 05A8     		add	r0, sp, #20
 1860 0054 04AB     		add	r3, sp, #16
 1861 0056 2C22     		movs	r2, #44
 1862 0058 0621     		movs	r1, #6
 1863 005a FFF7FEFF 		bl	count_enabled_spads
 1864              	.LVL244:
 1865              		.loc 1 1045 0
 1866 005e 0028     		cmp	r0, #0
 1867 0060 E5D1     		bne	.L210
 1868              		.loc 1 1047 0
 1869 0062 049A     		ldr	r2, [sp, #16]
 1870              		.loc 1 1048 0
 1871 0064 9DF80F30 		ldrb	r3, [sp, #15]	@ zero_extendqisi2
 1872              		.loc 1 1047 0
 1873 0068 C8F80020 		str	r2, [r8]
 1874              		.loc 1 1050 0
 1875 006c 0121     		movs	r1, #1
 1876              		.loc 1 1048 0
 1877 006e 3B70     		strb	r3, [r7]
 1878              		.loc 1 1052 0
 1879 0070 84F81321 		strb	r2, [r4, #275]
 1880              		.loc 1 1055 0
 1881 0074 84F81431 		strb	r3, [r4, #276]
ARM GAS  C:\Users\Moi\AppData\Local\Temp\ccWeMAis.s 			page 34


 1882              		.loc 1 1050 0
 1883 0078 84F81511 		strb	r1, [r4, #277]
 1884 007c D7E7     		b	.L210
 1885              	.L215:
 1886              		.loc 1 1062 0
 1887 007e FFF7FEFF 		bl	__stack_chk_fail
 1888              	.LVL245:
 1889              	.L217:
 1890 0082 00BF     		.align	2
 1891              	.L216:
 1892 0084 00000000 		.word	__stack_chk_guard
 1893              		.cfi_endproc
 1894              	.LFE18:
 1895              		.size	VL53L0X_get_reference_spads, .-VL53L0X_get_reference_spads
 1896              		.section	.text.VL53L0X_perform_single_ref_calibration,"ax",%progbits
 1897              		.align	1
 1898              		.p2align 4,,15
 1899              		.global	VL53L0X_perform_single_ref_calibration
 1900              		.syntax unified
 1901              		.thumb
 1902              		.thumb_func
 1903              		.fpu fpv4-sp-d16
 1904              		.type	VL53L0X_perform_single_ref_calibration, %function
 1905              	VL53L0X_perform_single_ref_calibration:
 1906              	.LFB19:
 1907              		.loc 1 1067 0
 1908              		.cfi_startproc
 1909              		@ args = 0, pretend = 0, frame = 8
 1910              		@ frame_needed = 0, uses_anonymous_args = 0
 1911              	.LVL246:
 1912 0000 30B5     		push	{r4, r5, lr}
 1913              		.cfi_def_cfa_offset 12
 1914              		.cfi_offset 4, -12
 1915              		.cfi_offset 5, -8
 1916              		.cfi_offset 14, -4
 1917 0002 164C     		ldr	r4, .L225
 1918 0004 83B0     		sub	sp, sp, #12
 1919              		.cfi_def_cfa_offset 24
 1920              		.loc 1 1071 0
 1921 0006 41F00102 		orr	r2, r1, #1
 1922              		.loc 1 1067 0
 1923 000a 2368     		ldr	r3, [r4]
 1924 000c 0193     		str	r3, [sp, #4]
 1925              		.loc 1 1071 0
 1926 000e 0021     		movs	r1, #0
 1927              	.LVL247:
 1928              		.loc 1 1067 0
 1929 0010 0546     		mov	r5, r0
 1930              	.LVL248:
 1931              		.loc 1 1071 0
 1932 0012 FFF7FEFF 		bl	VL53L0X_WrByte
 1933              	.LVL249:
 1934              		.loc 1 1075 0
 1935 0016 0246     		mov	r2, r0
 1936 0018 30B1     		cbz	r0, .L224
 1937              	.L219:
 1938              	.LVL250:
ARM GAS  C:\Users\Moi\AppData\Local\Temp\ccWeMAis.s 			page 35


 1939              		.loc 1 1085 0
 1940 001a 0199     		ldr	r1, [sp, #4]
 1941 001c 2368     		ldr	r3, [r4]
 1942 001e 9942     		cmp	r1, r3
 1943 0020 1046     		mov	r0, r2
 1944 0022 19D1     		bne	.L223
 1945 0024 03B0     		add	sp, sp, #12
 1946              		.cfi_remember_state
 1947              		.cfi_def_cfa_offset 12
 1948              		@ sp needed
 1949 0026 30BD     		pop	{r4, r5, pc}
 1950              	.LVL251:
 1951              	.L224:
 1952              		.cfi_restore_state
 1953              		.loc 1 1076 0
 1954 0028 2846     		mov	r0, r5
 1955              	.LVL252:
 1956 002a FFF7FEFF 		bl	VL53L0X_measurement_poll_for_completion
 1957              	.LVL253:
 1958              		.loc 1 1078 0
 1959 002e 0246     		mov	r2, r0
 1960 0030 0028     		cmp	r0, #0
 1961 0032 F2D1     		bne	.L219
 1962              		.loc 1 1079 0
 1963 0034 0146     		mov	r1, r0
 1964 0036 2846     		mov	r0, r5
 1965              	.LVL254:
 1966 0038 FFF7FEFF 		bl	VL53L0X_ClearInterruptMask
 1967              	.LVL255:
 1968              		.loc 1 1081 0
 1969 003c 0246     		mov	r2, r0
 1970 003e 0028     		cmp	r0, #0
 1971 0040 EBD1     		bne	.L219
 1972              	.LVL256:
 1973              	.LBB44:
 1974              	.LBB45:
 1975              		.loc 1 1082 0
 1976 0042 0199     		ldr	r1, [sp, #4]
 1977 0044 2368     		ldr	r3, [r4]
 1978 0046 9942     		cmp	r1, r3
 1979 0048 06D1     		bne	.L223
 1980 004a 2846     		mov	r0, r5
 1981              	.LVL257:
 1982 004c 1146     		mov	r1, r2
 1983              	.LBE45:
 1984              	.LBE44:
 1985              		.loc 1 1085 0
 1986 004e 03B0     		add	sp, sp, #12
 1987              		.cfi_remember_state
 1988              		.cfi_def_cfa_offset 12
 1989              		@ sp needed
 1990 0050 BDE83040 		pop	{r4, r5, lr}
 1991              		.cfi_restore 14
 1992              		.cfi_restore 5
 1993              		.cfi_restore 4
 1994              		.cfi_def_cfa_offset 0
 1995              	.LVL258:
ARM GAS  C:\Users\Moi\AppData\Local\Temp\ccWeMAis.s 			page 36


 1996              	.LBB47:
 1997              	.LBB46:
 1998              		.loc 1 1082 0
 1999 0054 FFF7FEBF 		b	VL53L0X_WrByte
 2000              	.LVL259:
 2001              	.L223:
 2002              		.cfi_restore_state
 2003              	.LBE46:
 2004              	.LBE47:
 2005              		.loc 1 1085 0
 2006 0058 FFF7FEFF 		bl	__stack_chk_fail
 2007              	.LVL260:
 2008              	.L226:
 2009              		.align	2
 2010              	.L225:
 2011 005c 00000000 		.word	__stack_chk_guard
 2012              		.cfi_endproc
 2013              	.LFE19:
 2014              		.size	VL53L0X_perform_single_ref_calibration, .-VL53L0X_perform_single_ref_calibration
 2015              		.section	.text.VL53L0X_ref_calibration_io,"ax",%progbits
 2016              		.align	1
 2017              		.p2align 4,,15
 2018              		.global	VL53L0X_ref_calibration_io
 2019              		.syntax unified
 2020              		.thumb
 2021              		.thumb_func
 2022              		.fpu fpv4-sp-d16
 2023              		.type	VL53L0X_ref_calibration_io, %function
 2024              	VL53L0X_ref_calibration_io:
 2025              	.LFB20:
 2026              		.loc 1 1092 0
 2027              		.cfi_startproc
 2028              		@ args = 16, pretend = 0, frame = 24
 2029              		@ frame_needed = 0, uses_anonymous_args = 0
 2030              	.LVL261:
 2031 0000 2DE9F04F 		push	{r4, r5, r6, r7, r8, r9, r10, fp, lr}
 2032              		.cfi_def_cfa_offset 36
 2033              		.cfi_offset 4, -36
 2034              		.cfi_offset 5, -32
 2035              		.cfi_offset 6, -28
 2036              		.cfi_offset 7, -24
 2037              		.cfi_offset 8, -20
 2038              		.cfi_offset 9, -16
 2039              		.cfi_offset 10, -12
 2040              		.cfi_offset 11, -8
 2041              		.cfi_offset 14, -4
 2042 0004 87B0     		sub	sp, sp, #28
 2043              		.cfi_def_cfa_offset 64
 2044              		.loc 1 1092 0
 2045 0006 3F4F     		ldr	r7, .L251
 2046 0008 109C     		ldr	r4, [sp, #64]
 2047 000a 0394     		str	r4, [sp, #12]
 2048              		.loc 1 1094 0
 2049 000c 0026     		movs	r6, #0
 2050              		.loc 1 1092 0
 2051 000e 3C68     		ldr	r4, [r7]
 2052 0010 0292     		str	r2, [sp, #8]
ARM GAS  C:\Users\Moi\AppData\Local\Temp\ccWeMAis.s 			page 37


 2053 0012 8A46     		mov	r10, r1
 2054              		.loc 1 1097 0
 2055 0014 0122     		movs	r2, #1
 2056              	.LVL262:
 2057 0016 FF21     		movs	r1, #255
 2058              	.LVL263:
 2059              		.loc 1 1092 0
 2060 0018 0546     		mov	r5, r0
 2061 001a 0193     		str	r3, [sp, #4]
 2062 001c 0594     		str	r4, [sp, #20]
 2063              	.LVL264:
 2064              		.loc 1 1094 0
 2065 001e 8DF81360 		strb	r6, [sp, #19]
 2066              		.loc 1 1092 0
 2067 0022 DDF84480 		ldr	r8, [sp, #68]
 2068 0026 9DF848B0 		ldrb	fp, [sp, #72]	@ zero_extendqisi2
 2069 002a 9DF84C90 		ldrb	r9, [sp, #76]	@ zero_extendqisi2
 2070              		.loc 1 1097 0
 2071 002e FFF7FEFF 		bl	VL53L0X_WrByte
 2072              	.LVL265:
 2073              		.loc 1 1098 0
 2074 0032 3246     		mov	r2, r6
 2075              		.loc 1 1097 0
 2076 0034 0446     		mov	r4, r0
 2077              	.LVL266:
 2078              		.loc 1 1098 0
 2079 0036 3146     		mov	r1, r6
 2080 0038 2846     		mov	r0, r5
 2081 003a FFF7FEFF 		bl	VL53L0X_WrByte
 2082              	.LVL267:
 2083              		.loc 1 1099 0
 2084 003e 3246     		mov	r2, r6
 2085              		.loc 1 1098 0
 2086 0040 0443     		orrs	r4, r4, r0
 2087              	.LVL268:
 2088              		.loc 1 1099 0
 2089 0042 FF21     		movs	r1, #255
 2090 0044 2846     		mov	r0, r5
 2091 0046 FFF7FEFF 		bl	VL53L0X_WrByte
 2092              	.LVL269:
 2093              		.loc 1 1098 0
 2094 004a 64B2     		sxtb	r4, r4
 2095              	.LVL270:
 2096              		.loc 1 1099 0
 2097 004c 0443     		orrs	r4, r4, r0
 2098              	.LVL271:
 2099 004e 64B2     		sxtb	r4, r4
 2100              	.LVL272:
 2101              		.loc 1 1101 0
 2102 0050 BAF1000F 		cmp	r10, #0
 2103 0054 27D0     		beq	.L228
 2104              		.loc 1 1102 0
 2105 0056 BBF1000F 		cmp	fp, #0
 2106 005a 33D1     		bne	.L246
 2107              		.loc 1 1104 0
 2108 005c B9F1000F 		cmp	r9, #0
 2109 0060 3AD1     		bne	.L247
ARM GAS  C:\Users\Moi\AppData\Local\Temp\ccWeMAis.s 			page 38


 2110              	.L230:
 2111              		.loc 1 1113 0
 2112 0062 0122     		movs	r2, #1
 2113 0064 FF21     		movs	r1, #255
 2114 0066 2846     		mov	r0, r5
 2115 0068 FFF7FEFF 		bl	VL53L0X_WrByte
 2116              	.LVL273:
 2117              		.loc 1 1114 0
 2118 006c 0122     		movs	r2, #1
 2119              		.loc 1 1113 0
 2120 006e 0443     		orrs	r4, r4, r0
 2121              	.LVL274:
 2122              		.loc 1 1114 0
 2123 0070 0021     		movs	r1, #0
 2124 0072 2846     		mov	r0, r5
 2125 0074 FFF7FEFF 		bl	VL53L0X_WrByte
 2126              	.LVL275:
 2127              		.loc 1 1113 0
 2128 0078 64B2     		sxtb	r4, r4
 2129              	.LVL276:
 2130              		.loc 1 1115 0
 2131 007a 0022     		movs	r2, #0
 2132              		.loc 1 1114 0
 2133 007c 0443     		orrs	r4, r4, r0
 2134              	.LVL277:
 2135              		.loc 1 1115 0
 2136 007e FF21     		movs	r1, #255
 2137 0080 2846     		mov	r0, r5
 2138 0082 FFF7FEFF 		bl	VL53L0X_WrByte
 2139              	.LVL278:
 2140              		.loc 1 1117 0
 2141 0086 9DF81330 		ldrb	r3, [sp, #19]	@ zero_extendqisi2
 2142              		.loc 1 1120 0
 2143 008a 059A     		ldr	r2, [sp, #20]
 2144              		.loc 1 1117 0
 2145 008c 23F01003 		bic	r3, r3, #16
 2146 0090 88F80030 		strb	r3, [r8]
 2147              		.loc 1 1120 0
 2148 0094 3B68     		ldr	r3, [r7]
 2149              		.loc 1 1114 0
 2150 0096 64B2     		sxtb	r4, r4
 2151              	.LVL279:
 2152              		.loc 1 1115 0
 2153 0098 2043     		orrs	r0, r0, r4
 2154              	.LVL280:
 2155              		.loc 1 1120 0
 2156 009a 9A42     		cmp	r2, r3
 2157 009c 40B2     		sxtb	r0, r0
 2158 009e 2FD1     		bne	.L248
 2159 00a0 07B0     		add	sp, sp, #28
 2160              		.cfi_remember_state
 2161              		.cfi_def_cfa_offset 36
 2162              		@ sp needed
 2163 00a2 BDE8F08F 		pop	{r4, r5, r6, r7, r8, r9, r10, fp, pc}
 2164              	.LVL281:
 2165              	.L228:
 2166              		.cfi_restore_state
ARM GAS  C:\Users\Moi\AppData\Local\Temp\ccWeMAis.s 			page 39


 2167              		.loc 1 1107 0
 2168 00a6 BBF1000F 		cmp	fp, #0
 2169 00aa 1ED1     		bne	.L249
 2170              		.loc 1 1109 0
 2171 00ac B9F1000F 		cmp	r9, #0
 2172 00b0 D7D0     		beq	.L230
 2173              	.L250:
 2174              		.loc 1 1110 0
 2175 00b2 019B     		ldr	r3, [sp, #4]
 2176 00b4 8022     		movs	r2, #128
 2177 00b6 EE21     		movs	r1, #238
 2178 00b8 2846     		mov	r0, r5
 2179 00ba FFF7FEFF 		bl	VL53L0X_UpdateByte
 2180              	.LVL282:
 2181 00be 0443     		orrs	r4, r4, r0
 2182              	.LVL283:
 2183 00c0 64B2     		sxtb	r4, r4
 2184              	.LVL284:
 2185 00c2 CEE7     		b	.L230
 2186              	.L246:
 2187              		.loc 1 1103 0
 2188 00c4 039A     		ldr	r2, [sp, #12]
 2189 00c6 CB21     		movs	r1, #203
 2190 00c8 2846     		mov	r0, r5
 2191 00ca FFF7FEFF 		bl	VL53L0X_RdByte
 2192              	.LVL285:
 2193 00ce 0443     		orrs	r4, r4, r0
 2194              	.LVL286:
 2195 00d0 64B2     		sxtb	r4, r4
 2196              	.LVL287:
 2197              		.loc 1 1104 0
 2198 00d2 B9F1000F 		cmp	r9, #0
 2199 00d6 C4D0     		beq	.L230
 2200              	.L247:
 2201              		.loc 1 1105 0
 2202 00d8 0DF11302 		add	r2, sp, #19
 2203 00dc EE21     		movs	r1, #238
 2204 00de 2846     		mov	r0, r5
 2205 00e0 FFF7FEFF 		bl	VL53L0X_RdByte
 2206              	.LVL288:
 2207 00e4 0443     		orrs	r4, r4, r0
 2208              	.LVL289:
 2209 00e6 64B2     		sxtb	r4, r4
 2210              	.LVL290:
 2211 00e8 BBE7     		b	.L230
 2212              	.L249:
 2213              		.loc 1 1108 0
 2214 00ea 029A     		ldr	r2, [sp, #8]
 2215 00ec CB21     		movs	r1, #203
 2216 00ee 2846     		mov	r0, r5
 2217 00f0 FFF7FEFF 		bl	VL53L0X_WrByte
 2218              	.LVL291:
 2219 00f4 0443     		orrs	r4, r4, r0
 2220              	.LVL292:
 2221 00f6 64B2     		sxtb	r4, r4
 2222              	.LVL293:
 2223              		.loc 1 1109 0
ARM GAS  C:\Users\Moi\AppData\Local\Temp\ccWeMAis.s 			page 40


 2224 00f8 B9F1000F 		cmp	r9, #0
 2225 00fc B1D0     		beq	.L230
 2226 00fe D8E7     		b	.L250
 2227              	.LVL294:
 2228              	.L248:
 2229              		.loc 1 1120 0
 2230 0100 FFF7FEFF 		bl	__stack_chk_fail
 2231              	.LVL295:
 2232              	.L252:
 2233              		.align	2
 2234              	.L251:
 2235 0104 00000000 		.word	__stack_chk_guard
 2236              		.cfi_endproc
 2237              	.LFE20:
 2238              		.size	VL53L0X_ref_calibration_io, .-VL53L0X_ref_calibration_io
 2239              		.section	.text.VL53L0X_perform_vhv_calibration,"ax",%progbits
 2240              		.align	1
 2241              		.p2align 4,,15
 2242              		.global	VL53L0X_perform_vhv_calibration
 2243              		.syntax unified
 2244              		.thumb
 2245              		.thumb_func
 2246              		.fpu fpv4-sp-d16
 2247              		.type	VL53L0X_perform_vhv_calibration, %function
 2248              	VL53L0X_perform_vhv_calibration:
 2249              	.LFB21:
 2250              		.loc 1 1126 0
 2251              		.cfi_startproc
 2252              		@ args = 0, pretend = 0, frame = 8
 2253              		@ frame_needed = 0, uses_anonymous_args = 0
 2254              	.LVL296:
 2255 0000 2DE9F047 		push	{r4, r5, r6, r7, r8, r9, r10, lr}
 2256              		.cfi_def_cfa_offset 32
 2257              		.cfi_offset 4, -32
 2258              		.cfi_offset 5, -28
 2259              		.cfi_offset 6, -24
 2260              		.cfi_offset 7, -20
 2261              		.cfi_offset 8, -16
 2262              		.cfi_offset 9, -12
 2263              		.cfi_offset 10, -8
 2264              		.cfi_offset 14, -4
 2265 0004 2A4F     		ldr	r7, .L271
 2266 0006 86B0     		sub	sp, sp, #24
 2267              		.cfi_def_cfa_offset 56
 2268              		.loc 1 1126 0
 2269 0008 3C68     		ldr	r4, [r7]
 2270 000a 0594     		str	r4, [sp, #20]
 2271              	.LVL297:
 2272              		.loc 1 1131 0
 2273 000c 0024     		movs	r4, #0
 2274              		.loc 1 1126 0
 2275 000e 0546     		mov	r5, r0
 2276 0010 8846     		mov	r8, r1
 2277 0012 9146     		mov	r9, r2
 2278              		.loc 1 1131 0
 2279 0014 8DF81340 		strb	r4, [sp, #19]
 2280              		.loc 1 1137 0
ARM GAS  C:\Users\Moi\AppData\Local\Temp\ccWeMAis.s 			page 41


 2281 0018 1E46     		mov	r6, r3
 2282 001a 9BB1     		cbz	r3, .L260
 2283              		.loc 1 1141 0
 2284 001c 0122     		movs	r2, #1
 2285              	.LVL298:
 2286              		.loc 1 1138 0
 2287 001e 90F830A1 		ldrb	r10, [r0, #304]	@ zero_extendqisi2
 2288              	.LVL299:
 2289              		.loc 1 1141 0
 2290 0022 1146     		mov	r1, r2
 2291              	.LVL300:
 2292 0024 2846     		mov	r0, r5
 2293 0026 FFF7FEFF 		bl	VL53L0X_WrByte
 2294              	.LVL301:
 2295              		.loc 1 1143 0
 2296 002a 0446     		mov	r4, r0
 2297 002c 98B1     		cbz	r0, .L268
 2298              	.L255:
 2299              		.loc 1 1153 0
 2300 002e 0023     		movs	r3, #0
 2301 0030 88F80030 		strb	r3, [r8]
 2302              	.LVL302:
 2303              	.L258:
 2304              		.loc 1 1166 0
 2305 0034 059A     		ldr	r2, [sp, #20]
 2306 0036 3B68     		ldr	r3, [r7]
 2307 0038 9A42     		cmp	r2, r3
 2308 003a 2046     		mov	r0, r4
 2309 003c 35D1     		bne	.L269
 2310 003e 06B0     		add	sp, sp, #24
 2311              		.cfi_remember_state
 2312              		.cfi_def_cfa_offset 32
 2313              		@ sp needed
 2314 0040 BDE8F087 		pop	{r4, r5, r6, r7, r8, r9, r10, pc}
 2315              	.LVL303:
 2316              	.L260:
 2317              		.cfi_restore_state
 2318              		.loc 1 1141 0
 2319 0044 0122     		movs	r2, #1
 2320              	.LVL304:
 2321 0046 1146     		mov	r1, r2
 2322              	.LVL305:
 2323 0048 2846     		mov	r0, r5
 2324              	.LVL306:
 2325              		.loc 1 1128 0
 2326 004a 9A46     		mov	r10, r3
 2327              	.LVL307:
 2328              		.loc 1 1141 0
 2329 004c FFF7FEFF 		bl	VL53L0X_WrByte
 2330              	.LVL308:
 2331              		.loc 1 1143 0
 2332 0050 0446     		mov	r4, r0
 2333 0052 0028     		cmp	r0, #0
 2334 0054 EBD1     		bne	.L255
 2335              	.L268:
 2336              		.loc 1 1144 0
 2337 0056 4021     		movs	r1, #64
ARM GAS  C:\Users\Moi\AppData\Local\Temp\ccWeMAis.s 			page 42


 2338 0058 2846     		mov	r0, r5
 2339              	.LVL309:
 2340 005a FFF7FEFF 		bl	VL53L0X_perform_single_ref_calibration
 2341              	.LVL310:
 2342              		.loc 1 1147 0
 2343 005e 0446     		mov	r4, r0
 2344 0060 0028     		cmp	r0, #0
 2345 0062 E4D1     		bne	.L255
 2346              		.loc 1 1147 0 is_stmt 0 discriminator 1
 2347 0064 B9F1010F 		cmp	r9, #1
 2348 0068 0ED0     		beq	.L270
 2349              		.loc 1 1153 0 is_stmt 1
 2350 006a 88F80000 		strb	r0, [r8]
 2351              	.LVL311:
 2352              	.L257:
 2353              		.loc 1 1156 0 discriminator 1
 2354 006e 002E     		cmp	r6, #0
 2355 0070 E0D0     		beq	.L258
 2356              		.loc 1 1158 0
 2357 0072 5246     		mov	r2, r10
 2358 0074 0121     		movs	r1, #1
 2359 0076 2846     		mov	r0, r5
 2360 0078 FFF7FEFF 		bl	VL53L0X_WrByte
 2361              	.LVL312:
 2362              		.loc 1 1160 0
 2363 007c 0446     		mov	r4, r0
 2364 007e 0028     		cmp	r0, #0
 2365 0080 D8D1     		bne	.L258
 2366              		.loc 1 1161 0
 2367 0082 85F830A1 		strb	r10, [r5, #304]
 2368 0086 D5E7     		b	.L258
 2369              	.L270:
 2370              		.loc 1 1148 0
 2371 0088 0DF11303 		add	r3, sp, #19
 2372 008c CDE90290 		strd	r9, r0, [sp, #8]
 2373 0090 0193     		str	r3, [sp, #4]
 2374 0092 0246     		mov	r2, r0
 2375 0094 0346     		mov	r3, r0
 2376 0096 CDF80080 		str	r8, [sp]
 2377 009a 4946     		mov	r1, r9
 2378 009c 2846     		mov	r0, r5
 2379              	.LVL313:
 2380 009e FFF7FEFF 		bl	VL53L0X_ref_calibration_io
 2381              	.LVL314:
 2382              		.loc 1 1156 0
 2383 00a2 0028     		cmp	r0, #0
 2384 00a4 E3D0     		beq	.L257
 2385              		.loc 1 1148 0
 2386 00a6 0446     		mov	r4, r0
 2387 00a8 C4E7     		b	.L258
 2388              	.LVL315:
 2389              	.L269:
 2390              		.loc 1 1166 0
 2391 00aa FFF7FEFF 		bl	__stack_chk_fail
 2392              	.LVL316:
 2393              	.L272:
 2394 00ae 00BF     		.align	2
ARM GAS  C:\Users\Moi\AppData\Local\Temp\ccWeMAis.s 			page 43


 2395              	.L271:
 2396 00b0 00000000 		.word	__stack_chk_guard
 2397              		.cfi_endproc
 2398              	.LFE21:
 2399              		.size	VL53L0X_perform_vhv_calibration, .-VL53L0X_perform_vhv_calibration
 2400              		.section	.text.VL53L0X_perform_phase_calibration,"ax",%progbits
 2401              		.align	1
 2402              		.p2align 4,,15
 2403              		.global	VL53L0X_perform_phase_calibration
 2404              		.syntax unified
 2405              		.thumb
 2406              		.thumb_func
 2407              		.fpu fpv4-sp-d16
 2408              		.type	VL53L0X_perform_phase_calibration, %function
 2409              	VL53L0X_perform_phase_calibration:
 2410              	.LFB22:
 2411              		.loc 1 1171 0
 2412              		.cfi_startproc
 2413              		@ args = 0, pretend = 0, frame = 8
 2414              		@ frame_needed = 0, uses_anonymous_args = 0
 2415              	.LVL317:
 2416 0000 2DE9F047 		push	{r4, r5, r6, r7, r8, r9, r10, lr}
 2417              		.cfi_def_cfa_offset 32
 2418              		.cfi_offset 4, -32
 2419              		.cfi_offset 5, -28
 2420              		.cfi_offset 6, -24
 2421              		.cfi_offset 7, -20
 2422              		.cfi_offset 8, -16
 2423              		.cfi_offset 9, -12
 2424              		.cfi_offset 10, -8
 2425              		.cfi_offset 14, -4
 2426 0004 254F     		ldr	r7, .L291
 2427 0006 86B0     		sub	sp, sp, #24
 2428              		.cfi_def_cfa_offset 56
 2429              		.loc 1 1171 0
 2430 0008 3C68     		ldr	r4, [r7]
 2431 000a 0594     		str	r4, [sp, #20]
 2432              	.LVL318:
 2433 000c 0546     		mov	r5, r0
 2434 000e 8846     		mov	r8, r1
 2435 0010 9146     		mov	r9, r2
 2436              		.loc 1 1182 0
 2437 0012 1E46     		mov	r6, r3
 2438 0014 9BB1     		cbz	r3, .L280
 2439              		.loc 1 1183 0
 2440 0016 90F830A1 		ldrb	r10, [r0, #304]	@ zero_extendqisi2
 2441              	.LVL319:
 2442              	.L274:
 2443              		.loc 1 1186 0
 2444 001a 0222     		movs	r2, #2
 2445              	.LVL320:
 2446 001c 0121     		movs	r1, #1
 2447              	.LVL321:
 2448 001e 2846     		mov	r0, r5
 2449              	.LVL322:
 2450 0020 FFF7FEFF 		bl	VL53L0X_WrByte
 2451              	.LVL323:
ARM GAS  C:\Users\Moi\AppData\Local\Temp\ccWeMAis.s 			page 44


 2452              		.loc 1 1188 0
 2453 0024 0446     		mov	r4, r0
 2454 0026 60B1     		cbz	r0, .L288
 2455              	.L275:
 2456              		.loc 1 1198 0
 2457 0028 0023     		movs	r3, #0
 2458 002a 88F80030 		strb	r3, [r8]
 2459              	.LVL324:
 2460              	.L278:
 2461              		.loc 1 1211 0
 2462 002e 059A     		ldr	r2, [sp, #20]
 2463 0030 3B68     		ldr	r3, [r7]
 2464 0032 9A42     		cmp	r2, r3
 2465 0034 2046     		mov	r0, r4
 2466 0036 2ED1     		bne	.L289
 2467 0038 06B0     		add	sp, sp, #24
 2468              		.cfi_remember_state
 2469              		.cfi_def_cfa_offset 32
 2470              		@ sp needed
 2471 003a BDE8F087 		pop	{r4, r5, r6, r7, r8, r9, r10, pc}
 2472              	.LVL325:
 2473              	.L280:
 2474              		.cfi_restore_state
 2475              		.loc 1 1173 0
 2476 003e 9A46     		mov	r10, r3
 2477 0040 EBE7     		b	.L274
 2478              	.LVL326:
 2479              	.L288:
 2480              		.loc 1 1189 0
 2481 0042 0146     		mov	r1, r0
 2482 0044 2846     		mov	r0, r5
 2483              	.LVL327:
 2484 0046 FFF7FEFF 		bl	VL53L0X_perform_single_ref_calibration
 2485              	.LVL328:
 2486              		.loc 1 1192 0
 2487 004a 0446     		mov	r4, r0
 2488 004c 0028     		cmp	r0, #0
 2489 004e EBD1     		bne	.L275
 2490              		.loc 1 1192 0 is_stmt 0 discriminator 1
 2491 0050 B9F1010F 		cmp	r9, #1
 2492 0054 0ED0     		beq	.L290
 2493              		.loc 1 1198 0 is_stmt 1
 2494 0056 88F80000 		strb	r0, [r8]
 2495              	.LVL329:
 2496              	.L277:
 2497              		.loc 1 1201 0 discriminator 1
 2498 005a 002E     		cmp	r6, #0
 2499 005c E7D0     		beq	.L278
 2500              		.loc 1 1203 0
 2501 005e 5246     		mov	r2, r10
 2502 0060 0121     		movs	r1, #1
 2503 0062 2846     		mov	r0, r5
 2504 0064 FFF7FEFF 		bl	VL53L0X_WrByte
 2505              	.LVL330:
 2506              		.loc 1 1205 0
 2507 0068 0446     		mov	r4, r0
 2508 006a 0028     		cmp	r0, #0
ARM GAS  C:\Users\Moi\AppData\Local\Temp\ccWeMAis.s 			page 45


 2509 006c DFD1     		bne	.L278
 2510              		.loc 1 1206 0
 2511 006e 85F830A1 		strb	r10, [r5, #304]
 2512 0072 DCE7     		b	.L278
 2513              	.L290:
 2514              		.loc 1 1193 0
 2515 0074 0DF11303 		add	r3, sp, #19
 2516 0078 CDE90209 		strd	r0, r9, [sp, #8]
 2517 007c 0093     		str	r3, [sp]
 2518 007e 0246     		mov	r2, r0
 2519 0080 0346     		mov	r3, r0
 2520 0082 CDF80480 		str	r8, [sp, #4]
 2521 0086 4946     		mov	r1, r9
 2522 0088 2846     		mov	r0, r5
 2523              	.LVL331:
 2524 008a FFF7FEFF 		bl	VL53L0X_ref_calibration_io
 2525              	.LVL332:
 2526              		.loc 1 1201 0
 2527 008e 0028     		cmp	r0, #0
 2528 0090 E3D0     		beq	.L277
 2529              		.loc 1 1193 0
 2530 0092 0446     		mov	r4, r0
 2531 0094 CBE7     		b	.L278
 2532              	.LVL333:
 2533              	.L289:
 2534              		.loc 1 1211 0
 2535 0096 FFF7FEFF 		bl	__stack_chk_fail
 2536              	.LVL334:
 2537              	.L292:
 2538 009a 00BF     		.align	2
 2539              	.L291:
 2540 009c 00000000 		.word	__stack_chk_guard
 2541              		.cfi_endproc
 2542              	.LFE22:
 2543              		.size	VL53L0X_perform_phase_calibration, .-VL53L0X_perform_phase_calibration
 2544              		.section	.text.VL53L0X_perform_ref_calibration,"ax",%progbits
 2545              		.align	1
 2546              		.p2align 4,,15
 2547              		.global	VL53L0X_perform_ref_calibration
 2548              		.syntax unified
 2549              		.thumb
 2550              		.thumb_func
 2551              		.fpu fpv4-sp-d16
 2552              		.type	VL53L0X_perform_ref_calibration, %function
 2553              	VL53L0X_perform_ref_calibration:
 2554              	.LFB23:
 2555              		.loc 1 1215 0
 2556              		.cfi_startproc
 2557              		@ args = 0, pretend = 0, frame = 8
 2558              		@ frame_needed = 0, uses_anonymous_args = 0
 2559              	.LVL335:
 2560 0000 2DE9F041 		push	{r4, r5, r6, r7, r8, lr}
 2561              		.cfi_def_cfa_offset 24
 2562              		.cfi_offset 4, -24
 2563              		.cfi_offset 5, -20
 2564              		.cfi_offset 6, -16
 2565              		.cfi_offset 7, -12
ARM GAS  C:\Users\Moi\AppData\Local\Temp\ccWeMAis.s 			page 46


 2566              		.cfi_offset 8, -8
 2567              		.cfi_offset 14, -4
 2568 0004 144C     		ldr	r4, .L299
 2569              		.loc 1 1223 0
 2570 0006 90F83071 		ldrb	r7, [r0, #304]	@ zero_extendqisi2
 2571              		.loc 1 1215 0
 2572 000a 82B0     		sub	sp, sp, #8
 2573              		.cfi_def_cfa_offset 32
 2574              		.loc 1 1215 0
 2575 000c 1E46     		mov	r6, r3
 2576 000e 2368     		ldr	r3, [r4]
 2577              	.LVL336:
 2578 0010 0193     		str	r3, [sp, #4]
 2579              	.LVL337:
 2580 0012 9046     		mov	r8, r2
 2581              		.loc 1 1227 0
 2582 0014 0023     		movs	r3, #0
 2583 0016 3246     		mov	r2, r6
 2584              	.LVL338:
 2585              		.loc 1 1215 0
 2586 0018 0546     		mov	r5, r0
 2587              		.loc 1 1227 0
 2588 001a FFF7FEFF 		bl	VL53L0X_perform_vhv_calibration
 2589              	.LVL339:
 2590              		.loc 1 1231 0
 2591 001e 30B1     		cbz	r0, .L297
 2592              	.L294:
 2593              		.loc 1 1246 0
 2594 0020 019A     		ldr	r2, [sp, #4]
 2595 0022 2368     		ldr	r3, [r4]
 2596 0024 9A42     		cmp	r2, r3
 2597 0026 14D1     		bne	.L298
 2598 0028 02B0     		add	sp, sp, #8
 2599              		.cfi_remember_state
 2600              		.cfi_def_cfa_offset 24
 2601              		@ sp needed
 2602 002a BDE8F081 		pop	{r4, r5, r6, r7, r8, pc}
 2603              	.LVL340:
 2604              	.L297:
 2605              		.cfi_restore_state
 2606              		.loc 1 1232 0
 2607 002e 0346     		mov	r3, r0
 2608 0030 3246     		mov	r2, r6
 2609 0032 4146     		mov	r1, r8
 2610 0034 2846     		mov	r0, r5
 2611              	.LVL341:
 2612 0036 FFF7FEFF 		bl	VL53L0X_perform_phase_calibration
 2613              	.LVL342:
 2614              		.loc 1 1236 0
 2615 003a 0028     		cmp	r0, #0
 2616 003c F0D1     		bne	.L294
 2617              		.loc 1 1238 0
 2618 003e 3A46     		mov	r2, r7
 2619 0040 0121     		movs	r1, #1
 2620 0042 2846     		mov	r0, r5
 2621              	.LVL343:
 2622 0044 FFF7FEFF 		bl	VL53L0X_WrByte
ARM GAS  C:\Users\Moi\AppData\Local\Temp\ccWeMAis.s 			page 47


 2623              	.LVL344:
 2624              		.loc 1 1240 0
 2625 0048 0028     		cmp	r0, #0
 2626 004a E9D1     		bne	.L294
 2627              		.loc 1 1241 0
 2628 004c 85F83071 		strb	r7, [r5, #304]
 2629 0050 E6E7     		b	.L294
 2630              	.L298:
 2631              		.loc 1 1246 0
 2632 0052 FFF7FEFF 		bl	__stack_chk_fail
 2633              	.LVL345:
 2634              	.L300:
 2635 0056 00BF     		.align	2
 2636              	.L299:
 2637 0058 00000000 		.word	__stack_chk_guard
 2638              		.cfi_endproc
 2639              	.LFE23:
 2640              		.size	VL53L0X_perform_ref_calibration, .-VL53L0X_perform_ref_calibration
 2641              		.section	.text.VL53L0X_perform_ref_spad_management,"ax",%progbits
 2642              		.align	1
 2643              		.p2align 4,,15
 2644              		.global	VL53L0X_perform_ref_spad_management
 2645              		.syntax unified
 2646              		.thumb
 2647              		.thumb_func
 2648              		.fpu fpv4-sp-d16
 2649              		.type	VL53L0X_perform_ref_spad_management, %function
 2650              	VL53L0X_perform_ref_spad_management:
 2651              	.LFB16:
 2652              		.loc 1 679 0
 2653              		.cfi_startproc
 2654              		@ args = 0, pretend = 0, frame = 56
 2655              		@ frame_needed = 0, uses_anonymous_args = 0
 2656              	.LVL346:
 2657 0000 2DE9F04F 		push	{r4, r5, r6, r7, r8, r9, r10, fp, lr}
 2658              		.cfi_def_cfa_offset 36
 2659              		.cfi_offset 4, -36
 2660              		.cfi_offset 5, -32
 2661              		.cfi_offset 6, -28
 2662              		.cfi_offset 7, -24
 2663              		.cfi_offset 8, -20
 2664              		.cfi_offset 9, -16
 2665              		.cfi_offset 10, -12
 2666              		.cfi_offset 11, -8
 2667              		.cfi_offset 14, -4
 2668 0004 DFF8B0A2 		ldr	r10, .L331+4
 2669              		.loc 1 724 0
 2670 0008 B0F83C71 		ldrh	r7, [r0, #316]
 2671              		.loc 1 679 0
 2672 000c DAF80040 		ldr	r4, [r10]
 2673 0010 95B0     		sub	sp, sp, #84
 2674              		.cfi_def_cfa_offset 120
 2675              		.loc 1 686 0
 2676 0012 0023     		movs	r3, #0
 2677              		.loc 1 679 0
 2678 0014 CDE90912 		strd	r1, r2, [sp, #36]
 2679              		.loc 1 735 0
ARM GAS  C:\Users\Moi\AppData\Local\Temp\ccWeMAis.s 			page 48


 2680 0018 C0F82431 		str	r3, [r0, #292]
 2681 001c A0F82831 		strh	r3, [r0, #296]	@ movhi
 2682              		.loc 1 738 0
 2683 0020 0122     		movs	r2, #1
 2684              	.LVL347:
 2685 0022 FF21     		movs	r1, #255
 2686              	.LVL348:
 2687              		.loc 1 679 0
 2688 0024 0646     		mov	r6, r0
 2689 0026 1394     		str	r4, [sp, #76]
 2690              	.LVL349:
 2691              		.loc 1 687 0
 2692 0028 CDE90F33 		strd	r3, r3, [sp, #60]
 2693              	.LVL350:
 2694              		.loc 1 696 0
 2695 002c 8DF83830 		strb	r3, [sp, #56]
 2696              		.loc 1 697 0
 2697 0030 8DF83930 		strb	r3, [sp, #57]
 2698              	.LVL351:
 2699              		.loc 1 738 0
 2700 0034 FFF7FEFF 		bl	VL53L0X_WrByte
 2701              	.LVL352:
 2702              		.loc 1 740 0
 2703 0038 0546     		mov	r5, r0
 2704 003a 48B1     		cbz	r0, .L325
 2705              	.LVL353:
 2706              	.L302:
 2707              		.loc 1 941 0
 2708 003c 139A     		ldr	r2, [sp, #76]
 2709 003e DAF80030 		ldr	r3, [r10]
 2710 0042 9A42     		cmp	r2, r3
 2711 0044 2846     		mov	r0, r5
 2712 0046 40F03181 		bne	.L326
 2713 004a 15B0     		add	sp, sp, #84
 2714              		.cfi_remember_state
 2715              		.cfi_def_cfa_offset 36
 2716              		@ sp needed
 2717 004c BDE8F08F 		pop	{r4, r5, r6, r7, r8, r9, r10, fp, pc}
 2718              	.LVL354:
 2719              	.L325:
 2720              		.cfi_restore_state
 2721              		.loc 1 741 0
 2722 0050 0246     		mov	r2, r0
 2723 0052 4F21     		movs	r1, #79
 2724 0054 3046     		mov	r0, r6
 2725              	.LVL355:
 2726 0056 FFF7FEFF 		bl	VL53L0X_WrByte
 2727              	.LVL356:
 2728              		.loc 1 744 0
 2729 005a 0546     		mov	r5, r0
 2730 005c 0028     		cmp	r0, #0
 2731 005e EDD1     		bne	.L302
 2732              		.loc 1 745 0
 2733 0060 2C22     		movs	r2, #44
 2734 0062 4E21     		movs	r1, #78
 2735 0064 3046     		mov	r0, r6
 2736              	.LVL357:
ARM GAS  C:\Users\Moi\AppData\Local\Temp\ccWeMAis.s 			page 49


 2737 0066 FFF7FEFF 		bl	VL53L0X_WrByte
 2738              	.LVL358:
 2739              		.loc 1 748 0
 2740 006a 0546     		mov	r5, r0
 2741 006c 0028     		cmp	r0, #0
 2742 006e E5D1     		bne	.L302
 2743              		.loc 1 749 0
 2744 0070 0246     		mov	r2, r0
 2745 0072 FF21     		movs	r1, #255
 2746 0074 3046     		mov	r0, r6
 2747              	.LVL359:
 2748 0076 FFF7FEFF 		bl	VL53L0X_WrByte
 2749              	.LVL360:
 2750              		.loc 1 751 0
 2751 007a 0546     		mov	r5, r0
 2752 007c 0028     		cmp	r0, #0
 2753 007e DDD1     		bne	.L302
 2754              		.loc 1 752 0
 2755 0080 B422     		movs	r2, #180
 2756 0082 B621     		movs	r1, #182
 2757 0084 3046     		mov	r0, r6
 2758              	.LVL361:
 2759 0086 FFF7FEFF 		bl	VL53L0X_WrByte
 2760              	.LVL362:
 2761              		.loc 1 757 0
 2762 008a 0546     		mov	r5, r0
 2763 008c 0028     		cmp	r0, #0
 2764 008e D5D1     		bne	.L302
 2765              		.loc 1 758 0
 2766 0090 0246     		mov	r2, r0
 2767 0092 8021     		movs	r1, #128
 2768 0094 3046     		mov	r0, r6
 2769              	.LVL363:
 2770 0096 FFF7FEFF 		bl	VL53L0X_WrByte
 2771              	.LVL364:
 2772              		.loc 1 762 0
 2773 009a 0546     		mov	r5, r0
 2774 009c 0028     		cmp	r0, #0
 2775 009e CDD1     		bne	.L302
 2776              		.loc 1 763 0
 2777 00a0 0346     		mov	r3, r0
 2778 00a2 0DF13902 		add	r2, sp, #57
 2779 00a6 0EA9     		add	r1, sp, #56
 2780 00a8 3046     		mov	r0, r6
 2781              	.LVL365:
 2782 00aa FFF7FEFF 		bl	VL53L0X_perform_ref_calibration
 2783              	.LVL366:
 2784              		.loc 1 766 0
 2785 00ae 0546     		mov	r5, r0
 2786 00b0 0028     		cmp	r0, #0
 2787 00b2 C3D1     		bne	.L302
 2788              		.loc 1 769 0
 2789 00b4 0DF1500B 		add	fp, sp, #80
 2790              		.loc 1 773 0
 2791 00b8 06F59573 		add	r3, r6, #298
 2792              		.loc 1 769 0
 2793 00bc 4BF8140D 		str	r0, [fp, #-20]!
ARM GAS  C:\Users\Moi\AppData\Local\Temp\ccWeMAis.s 			page 50


 2794              		.loc 1 771 0
 2795 00c0 0320     		movs	r0, #3
 2796              	.LVL367:
 2797 00c2 0390     		str	r0, [sp, #12]
 2798              		.loc 1 774 0
 2799 00c4 06F59278 		add	r8, r6, #292
 2800              		.loc 1 771 0
 2801 00c8 0620     		movs	r0, #6
 2802 00ca B424     		movs	r4, #180
 2803              		.loc 1 773 0
 2804 00cc 0D93     		str	r3, [sp, #52]
 2805              		.loc 1 771 0
 2806 00ce 0295     		str	r5, [sp, #8]
 2807 00d0 2946     		mov	r1, r5
 2808 00d2 1A46     		mov	r2, r3
 2809 00d4 CDE90004 		strd	r0, r4, [sp]
 2810 00d8 CDF810B0 		str	fp, [sp, #16]
 2811 00dc 4346     		mov	r3, r8
 2812 00de 3046     		mov	r0, r6
 2813 00e0 FFF7FEFF 		bl	enable_ref_spads
 2814              	.LVL368:
 2815              		.loc 1 782 0
 2816 00e4 0546     		mov	r5, r0
 2817 00e6 0028     		cmp	r0, #0
 2818 00e8 A8D1     		bne	.L302
 2819              		.loc 1 785 0
 2820 00ea 0DF13A01 		add	r1, sp, #58
 2821 00ee 3046     		mov	r0, r6
 2822              	.LVL369:
 2823              		.loc 1 783 0
 2824 00f0 0F9C     		ldr	r4, [sp, #60]
 2825              	.LVL370:
 2826              		.loc 1 785 0
 2827 00f2 FFF7FEFF 		bl	perform_ref_signal_measurement
 2828              	.LVL371:
 2829              		.loc 1 787 0
 2830 00f6 0546     		mov	r5, r0
 2831 00f8 0028     		cmp	r0, #0
 2832 00fa 9FD1     		bne	.L302
 2833              		.loc 1 788 0 discriminator 1
 2834 00fc BDF83A30 		ldrh	r3, [sp, #58]
 2835              		.loc 1 787 0 discriminator 1
 2836 0100 BB42     		cmp	r3, r7
 2837 0102 30D9     		bls	.L310
 2838              	.LVL372:
 2839              		.loc 1 797 0
 2840 0104 04F1B403 		add	r3, r4, #180
 2841              	.LBB48:
 2842              	.LBB49:
 2843              		.loc 1 455 0
 2844 0108 9B09     		lsrs	r3, r3, #6
 2845              		.loc 1 456 0
 2846 010a 6A49     		ldr	r1, .L331
 2847 010c 51F82320 		ldr	r2, [r1, r3, lsl #2]
 2848              	.LBE49:
 2849              	.LBE48:
 2850              		.loc 1 793 0
ARM GAS  C:\Users\Moi\AppData\Local\Temp\ccWeMAis.s 			page 51


 2851 0110 0023     		movs	r3, #0
 2852 0112 C6F82431 		str	r3, [r6, #292]
 2853 0116 A6F82831 		strh	r3, [r6, #296]	@ movhi
 2854              	.LVL373:
 2855              	.LBB53:
 2856              	.LBB50:
 2857              		.loc 1 456 0
 2858 011a 002A     		cmp	r2, #0
 2859 011c 40F0BF80 		bne	.L312
 2860              	.LVL374:
 2861              	.LBE50:
 2862              	.LBE53:
 2863              		.loc 1 798 0
 2864 0120 2B2C     		cmp	r4, #43
 2865 0122 03D9     		bls	.L305
 2866 0124 BBE0     		b	.L312
 2867              	.LVL375:
 2868              	.L327:
 2869 0126 2C2A     		cmp	r2, #44
 2870 0128 1446     		mov	r4, r2
 2871 012a 07D0     		beq	.L304
 2872              	.LVL376:
 2873              	.L305:
 2874              	.LBB54:
 2875              	.LBB51:
 2876              		.loc 1 455 0
 2877 012c 04F1B503 		add	r3, r4, #181
 2878 0130 9B09     		lsrs	r3, r3, #6
 2879              	.LBE51:
 2880              	.LBE54:
 2881              		.loc 1 799 0
 2882 0132 621C     		adds	r2, r4, #1
 2883              	.LVL377:
 2884              	.LBB55:
 2885              	.LBB52:
 2886              		.loc 1 456 0
 2887 0134 51F82330 		ldr	r3, [r1, r3, lsl #2]
 2888 0138 002B     		cmp	r3, #0
 2889 013a F4D0     		beq	.L327
 2890              	.LVL378:
 2891              	.L304:
 2892              	.LBE52:
 2893              	.LBE55:
 2894              		.loc 1 804 0
 2895 013c B421     		movs	r1, #180
 2896 013e 0623     		movs	r3, #6
 2897 0140 4FF00309 		mov	r9, #3
 2898 0144 CDE90031 		strd	r3, r1, [sp]
 2899 0148 CDE90229 		strd	r2, r9, [sp, #8]
 2900 014c CDF810B0 		str	fp, [sp, #16]
 2901 0150 4346     		mov	r3, r8
 2902 0152 0D9A     		ldr	r2, [sp, #52]
 2903 0154 0121     		movs	r1, #1
 2904 0156 3046     		mov	r0, r6
 2905              	.LVL379:
 2906 0158 FFF7FEFF 		bl	enable_ref_spads
 2907              	.LVL380:
ARM GAS  C:\Users\Moi\AppData\Local\Temp\ccWeMAis.s 			page 52


 2908              		.loc 1 814 0
 2909 015c 0028     		cmp	r0, #0
 2910 015e 00F08D80 		beq	.L328
 2911              	.LVL381:
 2912              	.L320:
 2913 0162 0546     		mov	r5, r0
 2914 0164 6AE7     		b	.L302
 2915              	.LVL382:
 2916              	.L310:
 2917              		.loc 1 699 0
 2918 0166 0022     		movs	r2, #0
 2919 0168 0C92     		str	r2, [sp, #48]
 2920              		.loc 1 698 0
 2921 016a 9146     		mov	r9, r2
 2922              		.loc 1 832 0
 2923 016c 0792     		str	r2, [sp, #28]
 2924              	.LVL383:
 2925              	.L303:
 2926              		.loc 1 836 0 discriminator 1
 2927 016e 9F42     		cmp	r7, r3
 2928 0170 66D9     		bls	.L306
 2929              		.loc 1 848 0
 2930 0172 DB1B     		subs	r3, r3, r7
 2931 0174 002B     		cmp	r3, #0
 2932 0176 B8BF     		it	lt
 2933 0178 5B42     		rsblt	r3, r3, #0
 2934              		.loc 1 846 0
 2935 017a B8F80420 		ldrh	r2, [r8, #4]	@ unaligned
 2936 017e D8F80000 		ldr	r0, [r8]	@ unaligned
 2937              	.LVL384:
 2938              		.loc 1 848 0
 2939 0182 0893     		str	r3, [sp, #32]
 2940              	.LBB56:
 2941              	.LBB57:
 2942              		.loc 1 476 0
 2943 0184 0B95     		str	r5, [sp, #44]
 2944              	.LBE57:
 2945              	.LBE56:
 2946              		.loc 1 843 0
 2947 0186 9DF81C30 		ldrb	r3, [sp, #28]	@ zero_extendqisi2
 2948              	.LBB62:
 2949              	.LBB58:
 2950              		.loc 1 476 0
 2951 018a 0D9D     		ldr	r5, [sp, #52]
 2952              	.LBE58:
 2953              	.LBE62:
 2954              		.loc 1 846 0
 2955 018c ADF84820 		strh	r2, [sp, #72]	@ unaligned
 2956 0190 1190     		str	r0, [sp, #68]
 2957              		.loc 1 843 0
 2958 0192 0C93     		str	r3, [sp, #48]
 2959              	.LVL385:
 2960              		.loc 1 844 0
 2961 0194 4FF0030B 		mov	fp, #3
 2962              	.LVL386:
 2963              	.L308:
 2964              		.loc 1 853 0
ARM GAS  C:\Users\Moi\AppData\Local\Temp\ccWeMAis.s 			page 53


 2965 0198 2246     		mov	r2, r4
 2966 019a 10AB     		add	r3, sp, #64
 2967 019c 0621     		movs	r1, #6
 2968 019e 2846     		mov	r0, r5
 2969 01a0 FFF7FEFF 		bl	get_next_good_spad
 2970              	.LVL387:
 2971              		.loc 1 858 0
 2972 01a4 109C     		ldr	r4, [sp, #64]
 2973              	.LVL388:
 2974 01a6 631C     		adds	r3, r4, #1
 2975 01a8 10D0     		beq	.L318
 2976              		.loc 1 866 0
 2977 01aa 04F1B403 		add	r3, r4, #180
 2978              	.LBB63:
 2979              	.LBB64:
 2980              		.loc 1 456 0
 2981 01ae 414A     		ldr	r2, .L331
 2982              		.loc 1 455 0
 2983 01b0 9B09     		lsrs	r3, r3, #6
 2984              		.loc 1 456 0
 2985 01b2 52F82330 		ldr	r3, [r2, r3, lsl #2]
 2986              	.LBE64:
 2987              	.LBE63:
 2988              		.loc 1 866 0
 2989 01b6 079A     		ldr	r2, [sp, #28]
 2990              	.LBB66:
 2991              	.LBB65:
 2992              		.loc 1 456 0
 2993 01b8 0033     		adds	r3, r3, #0
 2994 01ba 18BF     		it	ne
 2995 01bc 0123     		movne	r3, #1
 2996              	.LBE65:
 2997              	.LBE66:
 2998              		.loc 1 866 0
 2999 01be 9342     		cmp	r3, r2
 3000 01c0 59D1     		bne	.L317
 3001              	.LBB67:
 3002              	.LBB59:
 3003              		.loc 1 471 0
 3004 01c2 E308     		lsrs	r3, r4, #3
 3005              		.loc 1 473 0
 3006 01c4 052B     		cmp	r3, #5
 3007              	.LBE59:
 3008              	.LBE67:
 3009              		.loc 1 875 0
 3010 01c6 0BF10109 		add	r9, fp, #1
 3011              	.LVL389:
 3012              	.LBB68:
 3013              	.LBB60:
 3014              		.loc 1 473 0
 3015 01ca 02D9     		bls	.L329
 3016              	.LVL390:
 3017              	.L318:
 3018              	.LBE60:
 3019              	.LBE68:
 3020              		.loc 1 859 0
 3021 01cc 6FF03105 		mvn	r5, #49
ARM GAS  C:\Users\Moi\AppData\Local\Temp\ccWeMAis.s 			page 54


 3022 01d0 34E7     		b	.L302
 3023              	.LVL391:
 3024              	.L329:
 3025              	.LBB69:
 3026              	.LBB61:
 3027              		.loc 1 476 0
 3028 01d2 18F80310 		ldrb	r1, [r8, r3]	@ zero_extendqisi2
 3029              		.loc 1 472 0
 3030 01d6 04F00702 		and	r2, r4, #7
 3031              		.loc 1 476 0
 3032 01da 0120     		movs	r0, #1
 3033 01dc 00FA02F2 		lsl	r2, r0, r2
 3034 01e0 0A43     		orrs	r2, r2, r1
 3035 01e2 08F80320 		strb	r2, [r8, r3]
 3036              	.LVL392:
 3037              	.LBE61:
 3038              	.LBE69:
 3039              	.LBB70:
 3040              	.LBB71:
 3041              		.loc 1 541 0
 3042 01e6 B021     		movs	r1, #176
 3043 01e8 0623     		movs	r3, #6
 3044 01ea 4246     		mov	r2, r8
 3045 01ec 3046     		mov	r0, r6
 3046              	.LBE71:
 3047              	.LBE70:
 3048              		.loc 1 883 0
 3049 01ee 0134     		adds	r4, r4, #1
 3050              	.LVL393:
 3051              	.LBB73:
 3052              	.LBB72:
 3053              		.loc 1 541 0
 3054 01f0 FFF7FEFF 		bl	VL53L0X_WriteMulti
 3055              	.LVL394:
 3056              	.LBE72:
 3057              	.LBE73:
 3058              		.loc 1 890 0
 3059 01f4 0028     		cmp	r0, #0
 3060 01f6 B4D1     		bne	.L320
 3061              		.loc 1 893 0
 3062 01f8 0DF13A01 		add	r1, sp, #58
 3063 01fc 3046     		mov	r0, r6
 3064              	.LVL395:
 3065 01fe FFF7FEFF 		bl	perform_ref_signal_measurement
 3066              	.LVL396:
 3067              		.loc 1 896 0
 3068 0202 0028     		cmp	r0, #0
 3069 0204 ADD1     		bne	.L320
 3070              		.loc 1 899 0
 3071 0206 BDF83A20 		ldrh	r2, [sp, #58]
 3072 020a D31B     		subs	r3, r2, r7
 3073 020c 002B     		cmp	r3, #0
 3074 020e B8BF     		it	lt
 3075 0210 5B42     		rsblt	r3, r3, #0
 3076              	.LVL397:
 3077              		.loc 1 901 0
 3078 0212 BA42     		cmp	r2, r7
ARM GAS  C:\Users\Moi\AppData\Local\Temp\ccWeMAis.s 			page 55


 3079 0214 25D9     		bls	.L307
 3080              		.loc 1 906 0
 3081 0216 089A     		ldr	r2, [sp, #32]
 3082 0218 0B9D     		ldr	r5, [sp, #44]
 3083 021a 9342     		cmp	r3, r2
 3084 021c 10D9     		bls	.L306
 3085              	.LVL398:
 3086              	.LBB74:
 3087              	.LBB75:
 3088              		.loc 1 541 0
 3089 021e 0623     		movs	r3, #6
 3090              	.LVL399:
 3091 0220 11AA     		add	r2, sp, #68
 3092              	.LVL400:
 3093 0222 B021     		movs	r1, #176
 3094 0224 3046     		mov	r0, r6
 3095              	.LVL401:
 3096 0226 FFF7FEFF 		bl	VL53L0X_WriteMulti
 3097              	.LVL402:
 3098              	.LBE75:
 3099              	.LBE74:
 3100              		.loc 1 911 0
 3101 022a BDF84820 		ldrh	r2, [sp, #72]	@ unaligned
 3102              	.LBB77:
 3103              	.LBB76:
 3104              		.loc 1 541 0
 3105 022e 0346     		mov	r3, r0
 3106              	.LVL403:
 3107              	.LBE76:
 3108              	.LBE77:
 3109              		.loc 1 911 0
 3110 0230 1198     		ldr	r0, [sp, #68]
 3111 0232 C6F82401 		str	r0, [r6, #292]	@ unaligned
 3112 0236 D946     		mov	r9, fp
 3113              	.LVL404:
 3114 0238 A8F80420 		strh	r2, [r8, #4]	@ unaligned
 3115              	.LVL405:
 3116              		.loc 1 929 0
 3117 023c 002B     		cmp	r3, #0
 3118 023e 37D1     		bne	.L330
 3119              	.LVL406:
 3120              	.L306:
 3121              		.loc 1 930 0
 3122 0240 099A     		ldr	r2, [sp, #36]
 3123              		.loc 1 931 0
 3124 0242 0A99     		ldr	r1, [sp, #40]
 3125 0244 9DF83040 		ldrb	r4, [sp, #48]	@ zero_extendqisi2
 3126              		.loc 1 930 0
 3127 0248 C2F80090 		str	r9, [r2]
 3128              		.loc 1 933 0
 3129 024c 0123     		movs	r3, #1
 3130              		.loc 1 931 0
 3131 024e 0C70     		strb	r4, [r1]
 3132              		.loc 1 933 0
 3133 0250 86F81531 		strb	r3, [r6, #277]
 3134              		.loc 1 934 0
 3135 0254 1368     		ldr	r3, [r2]
ARM GAS  C:\Users\Moi\AppData\Local\Temp\ccWeMAis.s 			page 56


 3136 0256 86F81331 		strb	r3, [r6, #275]
 3137              		.loc 1 936 0
 3138 025a 0B78     		ldrb	r3, [r1]	@ zero_extendqisi2
 3139 025c 86F81431 		strb	r3, [r6, #276]
 3140 0260 ECE6     		b	.L302
 3141              	.LVL407:
 3142              	.L307:
 3143              		.loc 1 921 0
 3144 0262 D8F80000 		ldr	r0, [r8]	@ unaligned
 3145              	.LVL408:
 3146 0266 B8F80420 		ldrh	r2, [r8, #4]	@ unaligned
 3147 026a 1190     		str	r0, [sp, #68]
 3148              		.loc 1 899 0
 3149 026c 0893     		str	r3, [sp, #32]
 3150              		.loc 1 875 0
 3151 026e CB46     		mov	fp, r9
 3152              		.loc 1 921 0
 3153 0270 ADF84820 		strh	r2, [sp, #72]	@ unaligned
 3154              	.LVL409:
 3155 0274 90E7     		b	.L308
 3156              	.LVL410:
 3157              	.L317:
 3158 0276 0B9D     		ldr	r5, [sp, #44]
 3159 0278 D946     		mov	r9, fp
 3160 027a E1E7     		b	.L306
 3161              	.LVL411:
 3162              	.L328:
 3163              		.loc 1 816 0
 3164 027c 0DF13A01 		add	r1, sp, #58
 3165 0280 3046     		mov	r0, r6
 3166              	.LVL412:
 3167              		.loc 1 815 0
 3168 0282 0F9C     		ldr	r4, [sp, #60]
 3169              	.LVL413:
 3170              		.loc 1 816 0
 3171 0284 FFF7FEFF 		bl	perform_ref_signal_measurement
 3172              	.LVL414:
 3173              		.loc 1 819 0
 3174 0288 0028     		cmp	r0, #0
 3175 028a 7FF46AAF 		bne	.L320
 3176              		.loc 1 820 0 discriminator 1
 3177 028e BDF83A30 		ldrh	r3, [sp, #58]
 3178              		.loc 1 819 0 discriminator 1
 3179 0292 BB42     		cmp	r3, r7
 3180 0294 05D9     		bls	.L315
 3181              		.loc 1 827 0
 3182 0296 0122     		movs	r2, #1
 3183 0298 0C92     		str	r2, [sp, #48]
 3184              		.loc 1 802 0
 3185 029a 0792     		str	r2, [sp, #28]
 3186 029c 67E7     		b	.L303
 3187              	.LVL415:
 3188              	.L312:
 3189              		.loc 1 798 0
 3190 029e 2246     		mov	r2, r4
 3191 02a0 4CE7     		b	.L304
 3192              	.LVL416:
ARM GAS  C:\Users\Moi\AppData\Local\Temp\ccWeMAis.s 			page 57


 3193              	.L315:
 3194              		.loc 1 802 0
 3195 02a2 0122     		movs	r2, #1
 3196              		.loc 1 699 0
 3197 02a4 0C90     		str	r0, [sp, #48]
 3198              		.loc 1 698 0
 3199 02a6 8146     		mov	r9, r0
 3200              		.loc 1 802 0
 3201 02a8 0792     		str	r2, [sp, #28]
 3202 02aa 60E7     		b	.L303
 3203              	.LVL417:
 3204              	.L326:
 3205              		.loc 1 941 0
 3206 02ac FFF7FEFF 		bl	__stack_chk_fail
 3207              	.LVL418:
 3208              	.L330:
 3209 02b0 1D46     		mov	r5, r3
 3210 02b2 C3E6     		b	.L302
 3211              	.L332:
 3212              		.align	2
 3213              	.L331:
 3214 02b4 00000000 		.word	.LANCHOR0
 3215 02b8 00000000 		.word	__stack_chk_guard
 3216              		.cfi_endproc
 3217              	.LFE16:
 3218              		.size	VL53L0X_perform_ref_spad_management, .-VL53L0X_perform_ref_spad_management
 3219              		.section	.text.VL53L0X_set_ref_calibration,"ax",%progbits
 3220              		.align	1
 3221              		.p2align 4,,15
 3222              		.global	VL53L0X_set_ref_calibration
 3223              		.syntax unified
 3224              		.thumb
 3225              		.thumb_func
 3226              		.fpu fpv4-sp-d16
 3227              		.type	VL53L0X_set_ref_calibration, %function
 3228              	VL53L0X_set_ref_calibration:
 3229              	.LFB24:
 3230              		.loc 1 1250 0
 3231              		.cfi_startproc
 3232              		@ args = 0, pretend = 0, frame = 8
 3233              		@ frame_needed = 0, uses_anonymous_args = 0
 3234              	.LVL419:
 3235 0000 70B5     		push	{r4, r5, r6, lr}
 3236              		.cfi_def_cfa_offset 16
 3237              		.cfi_offset 4, -16
 3238              		.cfi_offset 5, -12
 3239              		.cfi_offset 6, -8
 3240              		.cfi_offset 14, -4
 3241 0002 86B0     		sub	sp, sp, #24
 3242              		.cfi_def_cfa_offset 40
 3243              		.loc 1 1255 0
 3244 0004 1346     		mov	r3, r2
 3245              		.loc 1 1250 0
 3246 0006 0C4C     		ldr	r4, .L337
 3247              		.loc 1 1255 0
 3248 0008 0A46     		mov	r2, r1
 3249              	.LVL420:
ARM GAS  C:\Users\Moi\AppData\Local\Temp\ccWeMAis.s 			page 58


 3250 000a 0DF11301 		add	r1, sp, #19
 3251              	.LVL421:
 3252 000e 0125     		movs	r5, #1
 3253 0010 0191     		str	r1, [sp, #4]
 3254 0012 0DF11201 		add	r1, sp, #18
 3255              		.loc 1 1250 0
 3256 0016 2668     		ldr	r6, [r4]
 3257              		.loc 1 1255 0
 3258 0018 0091     		str	r1, [sp]
 3259 001a 0395     		str	r5, [sp, #12]
 3260 001c 0295     		str	r5, [sp, #8]
 3261 001e 0021     		movs	r1, #0
 3262              		.loc 1 1250 0
 3263 0020 0596     		str	r6, [sp, #20]
 3264              	.LVL422:
 3265              		.loc 1 1255 0
 3266 0022 FFF7FEFF 		bl	VL53L0X_ref_calibration_io
 3267              	.LVL423:
 3268              		.loc 1 1261 0
 3269 0026 059A     		ldr	r2, [sp, #20]
 3270 0028 2368     		ldr	r3, [r4]
 3271 002a 9A42     		cmp	r2, r3
 3272 002c 01D1     		bne	.L336
 3273 002e 06B0     		add	sp, sp, #24
 3274              		.cfi_remember_state
 3275              		.cfi_def_cfa_offset 16
 3276              		@ sp needed
 3277 0030 70BD     		pop	{r4, r5, r6, pc}
 3278              	.L336:
 3279              		.cfi_restore_state
 3280 0032 FFF7FEFF 		bl	__stack_chk_fail
 3281              	.LVL424:
 3282              	.L338:
 3283 0036 00BF     		.align	2
 3284              	.L337:
 3285 0038 00000000 		.word	__stack_chk_guard
 3286              		.cfi_endproc
 3287              	.LFE24:
 3288              		.size	VL53L0X_set_ref_calibration, .-VL53L0X_set_ref_calibration
 3289              		.section	.text.VL53L0X_get_ref_calibration,"ax",%progbits
 3290              		.align	1
 3291              		.p2align 4,,15
 3292              		.global	VL53L0X_get_ref_calibration
 3293              		.syntax unified
 3294              		.thumb
 3295              		.thumb_func
 3296              		.fpu fpv4-sp-d16
 3297              		.type	VL53L0X_get_ref_calibration, %function
 3298              	VL53L0X_get_ref_calibration:
 3299              	.LFB25:
 3300              		.loc 1 1265 0
 3301              		.cfi_startproc
 3302              		@ args = 0, pretend = 0, frame = 8
 3303              		@ frame_needed = 0, uses_anonymous_args = 0
 3304              	.LVL425:
 3305 0000 30B5     		push	{r4, r5, lr}
 3306              		.cfi_def_cfa_offset 12
ARM GAS  C:\Users\Moi\AppData\Local\Temp\ccWeMAis.s 			page 59


 3307              		.cfi_offset 4, -12
 3308              		.cfi_offset 5, -8
 3309              		.cfi_offset 14, -4
 3310 0002 87B0     		sub	sp, sp, #28
 3311              		.cfi_def_cfa_offset 40
 3312              		.loc 1 1265 0
 3313 0004 0A4C     		ldr	r4, .L343
 3314              		.loc 1 1270 0
 3315 0006 0192     		str	r2, [sp, #4]
 3316 0008 0023     		movs	r3, #0
 3317 000a 0122     		movs	r2, #1
 3318              	.LVL426:
 3319 000c 0091     		str	r1, [sp]
 3320              		.loc 1 1265 0
 3321 000e 2568     		ldr	r5, [r4]
 3322 0010 0595     		str	r5, [sp, #20]
 3323              	.LVL427:
 3324              		.loc 1 1270 0
 3325 0012 CDE90222 		strd	r2, r2, [sp, #8]
 3326 0016 1146     		mov	r1, r2
 3327              	.LVL428:
 3328 0018 1A46     		mov	r2, r3
 3329 001a FFF7FEFF 		bl	VL53L0X_ref_calibration_io
 3330              	.LVL429:
 3331              		.loc 1 1276 0
 3332 001e 059A     		ldr	r2, [sp, #20]
 3333 0020 2368     		ldr	r3, [r4]
 3334 0022 9A42     		cmp	r2, r3
 3335 0024 01D1     		bne	.L342
 3336 0026 07B0     		add	sp, sp, #28
 3337              		.cfi_remember_state
 3338              		.cfi_def_cfa_offset 12
 3339              		@ sp needed
 3340 0028 30BD     		pop	{r4, r5, pc}
 3341              	.L342:
 3342              		.cfi_restore_state
 3343 002a FFF7FEFF 		bl	__stack_chk_fail
 3344              	.LVL430:
 3345              	.L344:
 3346 002e 00BF     		.align	2
 3347              	.L343:
 3348 0030 00000000 		.word	__stack_chk_guard
 3349              		.cfi_endproc
 3350              	.LFE25:
 3351              		.size	VL53L0X_get_ref_calibration, .-VL53L0X_get_ref_calibration
 3352              		.global	refArrayQuadrants
 3353              		.section	.data.refArrayQuadrants,"aw",%progbits
 3354              		.align	2
 3355              		.set	.LANCHOR0,. + 0
 3356              		.type	refArrayQuadrants, %object
 3357              		.size	refArrayQuadrants, 16
 3358              	refArrayQuadrants:
 3359 0000 0A000000 		.word	10
 3360 0004 05000000 		.word	5
 3361 0008 00000000 		.word	0
 3362 000c 05000000 		.word	5
 3363              		.text
ARM GAS  C:\Users\Moi\AppData\Local\Temp\ccWeMAis.s 			page 60


 3364              	.Letext0:
 3365              		.file 2 "c:\\users\\moi\\documents\\_microinfo\\epuck-eclipse\\tools\\gcc-arm-none-eabi-7-2017-q4-
 3366              		.file 3 "c:\\users\\moi\\documents\\_microinfo\\epuck-eclipse\\tools\\gcc-arm-none-eabi-7-2017-q4-
 3367              		.file 4 "..//src/sensors/VL53L0X/Api/core/src/../inc/vl53l0x_types.h"
 3368              		.file 5 "..//src/sensors/VL53L0X/Api/core/src/../inc/vl53l0x_device.h"
 3369              		.file 6 "..//src/sensors/VL53L0X/Api/core/src/../inc/vl53l0x_def.h"
 3370              		.file 7 "c:\\users\\moi\\documents\\_microinfo\\epuck-eclipse\\tools\\gcc-arm-none-eabi-7-2017-q4-
 3371              		.file 8 "c:\\users\\moi\\documents\\_microinfo\\epuck-eclipse\\tools\\gcc-arm-none-eabi-7-2017-q4-
 3372              		.file 9 "c:\\users\\moi\\documents\\_microinfo\\epuck-eclipse\\tools\\gcc-arm-none-eabi-7-2017-q4-
 3373              		.file 10 "c:\\users\\moi\\documents\\_microinfo\\epuck-eclipse\\tools\\gcc-arm-none-eabi-7-2017-q4
 3374              		.file 11 "..//src/sensors/VL53L0X/Api/core/src/../inc/../../platform/inc/vl53l0x_platform.h"
 3375              		.file 12 "c:\\users\\moi\\documents\\_microinfo\\epuck-eclipse\\tools\\gcc-arm-none-eabi-7-2017-q4
 3376              		.file 13 "..//src/sensors/VL53L0X/Api/core/src/../inc/vl53l0x_api.h"
 3377              		.file 14 "..//src/sensors/VL53L0X/Api/core/src/../inc/vl53l0x_api_core.h"
 3378              		.section	.debug_info,"",%progbits
 3379              	.Ldebug_info0:
 3380 0000 562C0000 		.4byte	0x2c56
 3381 0004 0400     		.2byte	0x4
 3382 0006 00000000 		.4byte	.Ldebug_abbrev0
 3383 000a 04       		.byte	0x4
 3384 000b 01       		.uleb128 0x1
 3385 000c A10E0000 		.4byte	.LASF382
 3386 0010 0C       		.byte	0xc
 3387 0011 0C110000 		.4byte	.LASF383
 3388 0015 B7130000 		.4byte	.LASF384
 3389 0019 F0000000 		.4byte	.Ldebug_ranges0+0xf0
 3390 001d 00000000 		.4byte	0
 3391 0021 00000000 		.4byte	.Ldebug_line0
 3392 0025 02       		.uleb128 0x2
 3393 0026 04       		.byte	0x4
 3394 0027 07       		.byte	0x7
 3395 0028 9B010000 		.4byte	.LASF0
 3396 002c 03       		.uleb128 0x3
 3397 002d FB0D0000 		.4byte	.LASF2
 3398 0031 02       		.byte	0x2
 3399 0032 29       		.byte	0x29
 3400 0033 37000000 		.4byte	0x37
 3401 0037 02       		.uleb128 0x2
 3402 0038 01       		.byte	0x1
 3403 0039 06       		.byte	0x6
 3404 003a 22160000 		.4byte	.LASF1
 3405 003e 03       		.uleb128 0x3
 3406 003f 36120000 		.4byte	.LASF3
 3407 0043 02       		.byte	0x2
 3408 0044 2B       		.byte	0x2b
 3409 0045 49000000 		.4byte	0x49
 3410 0049 02       		.uleb128 0x2
 3411 004a 01       		.byte	0x1
 3412 004b 08       		.byte	0x8
 3413 004c 56140000 		.4byte	.LASF4
 3414 0050 03       		.uleb128 0x3
 3415 0051 6C0C0000 		.4byte	.LASF5
 3416 0055 02       		.byte	0x2
 3417 0056 37       		.byte	0x37
 3418 0057 5B000000 		.4byte	0x5b
 3419 005b 02       		.uleb128 0x2
 3420 005c 02       		.byte	0x2
ARM GAS  C:\Users\Moi\AppData\Local\Temp\ccWeMAis.s 			page 61


 3421 005d 05       		.byte	0x5
 3422 005e 79100000 		.4byte	.LASF6
 3423 0062 03       		.uleb128 0x3
 3424 0063 6B060000 		.4byte	.LASF7
 3425 0067 02       		.byte	0x2
 3426 0068 39       		.byte	0x39
 3427 0069 6D000000 		.4byte	0x6d
 3428 006d 02       		.uleb128 0x2
 3429 006e 02       		.byte	0x2
 3430 006f 07       		.byte	0x7
 3431 0070 43160000 		.4byte	.LASF8
 3432 0074 03       		.uleb128 0x3
 3433 0075 4F020000 		.4byte	.LASF9
 3434 0079 02       		.byte	0x2
 3435 007a 4D       		.byte	0x4d
 3436 007b 7F000000 		.4byte	0x7f
 3437 007f 02       		.uleb128 0x2
 3438 0080 04       		.byte	0x4
 3439 0081 05       		.byte	0x5
 3440 0082 B0100000 		.4byte	.LASF10
 3441 0086 03       		.uleb128 0x3
 3442 0087 8A140000 		.4byte	.LASF11
 3443 008b 02       		.byte	0x2
 3444 008c 4F       		.byte	0x4f
 3445 008d 91000000 		.4byte	0x91
 3446 0091 02       		.uleb128 0x2
 3447 0092 04       		.byte	0x4
 3448 0093 07       		.byte	0x7
 3449 0094 53130000 		.4byte	.LASF12
 3450 0098 02       		.uleb128 0x2
 3451 0099 08       		.byte	0x8
 3452 009a 05       		.byte	0x5
 3453 009b 690B0000 		.4byte	.LASF13
 3454 009f 02       		.uleb128 0x2
 3455 00a0 08       		.byte	0x8
 3456 00a1 07       		.byte	0x7
 3457 00a2 E0050000 		.4byte	.LASF14
 3458 00a6 04       		.uleb128 0x4
 3459 00a7 04       		.byte	0x4
 3460 00a8 05       		.byte	0x5
 3461 00a9 696E7400 		.ascii	"int\000"
 3462 00ad 03       		.uleb128 0x3
 3463 00ae 87040000 		.4byte	.LASF15
 3464 00b2 03       		.byte	0x3
 3465 00b3 14       		.byte	0x14
 3466 00b4 2C000000 		.4byte	0x2c
 3467 00b8 03       		.uleb128 0x3
 3468 00b9 840A0000 		.4byte	.LASF16
 3469 00bd 03       		.byte	0x3
 3470 00be 18       		.byte	0x18
 3471 00bf 3E000000 		.4byte	0x3e
 3472 00c3 05       		.uleb128 0x5
 3473 00c4 B8000000 		.4byte	0xb8
 3474 00c8 03       		.uleb128 0x3
 3475 00c9 5A050000 		.4byte	.LASF17
 3476 00cd 03       		.byte	0x3
 3477 00ce 20       		.byte	0x20
ARM GAS  C:\Users\Moi\AppData\Local\Temp\ccWeMAis.s 			page 62


 3478 00cf 50000000 		.4byte	0x50
 3479 00d3 03       		.uleb128 0x3
 3480 00d4 770E0000 		.4byte	.LASF18
 3481 00d8 03       		.byte	0x3
 3482 00d9 24       		.byte	0x24
 3483 00da 62000000 		.4byte	0x62
 3484 00de 03       		.uleb128 0x3
 3485 00df AF130000 		.4byte	.LASF19
 3486 00e3 03       		.byte	0x3
 3487 00e4 2C       		.byte	0x2c
 3488 00e5 74000000 		.4byte	0x74
 3489 00e9 03       		.uleb128 0x3
 3490 00ea 7E040000 		.4byte	.LASF20
 3491 00ee 03       		.byte	0x3
 3492 00ef 30       		.byte	0x30
 3493 00f0 86000000 		.4byte	0x86
 3494 00f4 02       		.uleb128 0x2
 3495 00f5 08       		.byte	0x8
 3496 00f6 04       		.byte	0x4
 3497 00f7 540E0000 		.4byte	.LASF21
 3498 00fb 03       		.uleb128 0x3
 3499 00fc 4C040000 		.4byte	.LASF22
 3500 0100 04       		.byte	0x4
 3501 0101 6D       		.byte	0x6d
 3502 0102 E9000000 		.4byte	0xe9
 3503 0106 03       		.uleb128 0x3
 3504 0107 1C050000 		.4byte	.LASF23
 3505 010b 05       		.byte	0x5
 3506 010c 36       		.byte	0x36
 3507 010d B8000000 		.4byte	0xb8
 3508 0111 03       		.uleb128 0x3
 3509 0112 930A0000 		.4byte	.LASF24
 3510 0116 05       		.byte	0x5
 3511 0117 64       		.byte	0x64
 3512 0118 B8000000 		.4byte	0xb8
 3513 011c 06       		.uleb128 0x6
 3514 011d 63       		.byte	0x63
 3515 011e 06       		.byte	0x6
 3516 011f 6E       		.byte	0x6e
 3517 0120 6D010000 		.4byte	0x16d
 3518 0124 07       		.uleb128 0x7
 3519 0125 B9060000 		.4byte	.LASF25
 3520 0129 06       		.byte	0x6
 3521 012a 6F       		.byte	0x6f
 3522 012b 6D010000 		.4byte	0x16d
 3523 012f 00       		.byte	0
 3524 0130 07       		.uleb128 0x7
 3525 0131 D80A0000 		.4byte	.LASF26
 3526 0135 06       		.byte	0x6
 3527 0136 71       		.byte	0x71
 3528 0137 6D010000 		.4byte	0x16d
 3529 013b 20       		.byte	0x20
 3530 013c 07       		.uleb128 0x7
 3531 013d F7010000 		.4byte	.LASF27
 3532 0141 06       		.byte	0x6
 3533 0142 73       		.byte	0x73
 3534 0143 6D010000 		.4byte	0x16d
ARM GAS  C:\Users\Moi\AppData\Local\Temp\ccWeMAis.s 			page 63


 3535 0147 40       		.byte	0x40
 3536 0148 07       		.uleb128 0x7
 3537 0149 3B150000 		.4byte	.LASF28
 3538 014d 06       		.byte	0x6
 3539 014e 75       		.byte	0x75
 3540 014f B8000000 		.4byte	0xb8
 3541 0153 60       		.byte	0x60
 3542 0154 07       		.uleb128 0x7
 3543 0155 A1000000 		.4byte	.LASF29
 3544 0159 06       		.byte	0x6
 3545 015a 77       		.byte	0x77
 3546 015b B8000000 		.4byte	0xb8
 3547 015f 61       		.byte	0x61
 3548 0160 07       		.uleb128 0x7
 3549 0161 6A050000 		.4byte	.LASF30
 3550 0165 06       		.byte	0x6
 3551 0166 79       		.byte	0x79
 3552 0167 B8000000 		.4byte	0xb8
 3553 016b 62       		.byte	0x62
 3554 016c 00       		.byte	0
 3555 016d 08       		.uleb128 0x8
 3556 016e 7D010000 		.4byte	0x17d
 3557 0172 7D010000 		.4byte	0x17d
 3558 0176 09       		.uleb128 0x9
 3559 0177 25000000 		.4byte	0x25
 3560 017b 1F       		.byte	0x1f
 3561 017c 00       		.byte	0
 3562 017d 02       		.uleb128 0x2
 3563 017e 01       		.byte	0x1
 3564 017f 08       		.byte	0x8
 3565 0180 81090000 		.4byte	.LASF31
 3566 0184 05       		.uleb128 0x5
 3567 0185 7D010000 		.4byte	0x17d
 3568 0189 03       		.uleb128 0x3
 3569 018a EC030000 		.4byte	.LASF32
 3570 018e 06       		.byte	0x6
 3571 018f 7B       		.byte	0x7b
 3572 0190 1C010000 		.4byte	0x11c
 3573 0194 03       		.uleb128 0x3
 3574 0195 8D120000 		.4byte	.LASF33
 3575 0199 06       		.byte	0x6
 3576 019a 83       		.byte	0x83
 3577 019b AD000000 		.4byte	0xad
 3578 019f 03       		.uleb128 0x3
 3579 01a0 A90B0000 		.4byte	.LASF34
 3580 01a4 06       		.byte	0x6
 3581 01a5 B5       		.byte	0xb5
 3582 01a6 B8000000 		.4byte	0xb8
 3583 01aa 03       		.uleb128 0x3
 3584 01ab 120B0000 		.4byte	.LASF35
 3585 01af 06       		.byte	0x6
 3586 01b0 C7       		.byte	0xc7
 3587 01b1 B8000000 		.4byte	0xb8
 3588 01b5 03       		.uleb128 0x3
 3589 01b6 E4010000 		.4byte	.LASF36
 3590 01ba 06       		.byte	0x6
 3591 01bb DA       		.byte	0xda
ARM GAS  C:\Users\Moi\AppData\Local\Temp\ccWeMAis.s 			page 64


 3592 01bc B8000000 		.4byte	0xb8
 3593 01c0 06       		.uleb128 0x6
 3594 01c1 40       		.byte	0x40
 3595 01c2 06       		.byte	0x6
 3596 01c3 EA       		.byte	0xea
 3597 01c4 5C020000 		.4byte	0x25c
 3598 01c8 07       		.uleb128 0x7
 3599 01c9 2C0E0000 		.4byte	.LASF37
 3600 01cd 06       		.byte	0x6
 3601 01ce EB       		.byte	0xeb
 3602 01cf 9F010000 		.4byte	0x19f
 3603 01d3 00       		.byte	0
 3604 01d4 07       		.uleb128 0x7
 3605 01d5 D7000000 		.4byte	.LASF38
 3606 01d9 06       		.byte	0x6
 3607 01da ED       		.byte	0xed
 3608 01db AA010000 		.4byte	0x1aa
 3609 01df 01       		.byte	0x1
 3610 01e0 07       		.uleb128 0x7
 3611 01e1 D6090000 		.4byte	.LASF39
 3612 01e5 06       		.byte	0x6
 3613 01e6 F0       		.byte	0xf0
 3614 01e7 E9000000 		.4byte	0xe9
 3615 01eb 04       		.byte	0x4
 3616 01ec 07       		.uleb128 0x7
 3617 01ed 97070000 		.4byte	.LASF40
 3618 01f1 06       		.byte	0x6
 3619 01f2 F2       		.byte	0xf2
 3620 01f3 E9000000 		.4byte	0xe9
 3621 01f7 08       		.byte	0x8
 3622 01f8 07       		.uleb128 0x7
 3623 01f9 1C010000 		.4byte	.LASF41
 3624 01fd 06       		.byte	0x6
 3625 01fe F5       		.byte	0xf5
 3626 01ff B8000000 		.4byte	0xb8
 3627 0203 0C       		.byte	0xc
 3628 0204 07       		.uleb128 0x7
 3629 0205 A8010000 		.4byte	.LASF42
 3630 0209 06       		.byte	0x6
 3631 020a F7       		.byte	0xf7
 3632 020b D3000000 		.4byte	0xd3
 3633 020f 0E       		.byte	0xe
 3634 0210 07       		.uleb128 0x7
 3635 0211 370E0000 		.4byte	.LASF43
 3636 0215 06       		.byte	0x6
 3637 0216 F9       		.byte	0xf9
 3638 0217 FB000000 		.4byte	0xfb
 3639 021b 10       		.byte	0x10
 3640 021c 07       		.uleb128 0x7
 3641 021d 80080000 		.4byte	.LASF44
 3642 0221 06       		.byte	0x6
 3643 0222 FC       		.byte	0xfc
 3644 0223 DE000000 		.4byte	0xde
 3645 0227 14       		.byte	0x14
 3646 0228 07       		.uleb128 0x7
 3647 0229 0E020000 		.4byte	.LASF45
 3648 022d 06       		.byte	0x6
ARM GAS  C:\Users\Moi\AppData\Local\Temp\ccWeMAis.s 			page 65


 3649 022e FF       		.byte	0xff
 3650 022f 5C020000 		.4byte	0x25c
 3651 0233 18       		.byte	0x18
 3652 0234 0A       		.uleb128 0xa
 3653 0235 90030000 		.4byte	.LASF46
 3654 0239 06       		.byte	0x6
 3655 023a 0101     		.2byte	0x101
 3656 023c 5C020000 		.4byte	0x25c
 3657 0240 1E       		.byte	0x1e
 3658 0241 0A       		.uleb128 0xa
 3659 0242 12080000 		.4byte	.LASF47
 3660 0246 06       		.byte	0x6
 3661 0247 0401     		.2byte	0x104
 3662 0249 6C020000 		.4byte	0x26c
 3663 024d 24       		.byte	0x24
 3664 024e 0A       		.uleb128 0xa
 3665 024f 49030000 		.4byte	.LASF48
 3666 0253 06       		.byte	0x6
 3667 0254 0701     		.2byte	0x107
 3668 0256 B8000000 		.4byte	0xb8
 3669 025a 3C       		.byte	0x3c
 3670 025b 00       		.byte	0
 3671 025c 08       		.uleb128 0x8
 3672 025d B8000000 		.4byte	0xb8
 3673 0261 6C020000 		.4byte	0x26c
 3674 0265 09       		.uleb128 0x9
 3675 0266 25000000 		.4byte	0x25
 3676 026a 05       		.byte	0x5
 3677 026b 00       		.byte	0
 3678 026c 08       		.uleb128 0x8
 3679 026d FB000000 		.4byte	0xfb
 3680 0271 7C020000 		.4byte	0x27c
 3681 0275 09       		.uleb128 0x9
 3682 0276 25000000 		.4byte	0x25
 3683 027a 05       		.byte	0x5
 3684 027b 00       		.byte	0
 3685 027c 0B       		.uleb128 0xb
 3686 027d FA040000 		.4byte	.LASF49
 3687 0281 06       		.byte	0x6
 3688 0282 0901     		.2byte	0x109
 3689 0284 C0010000 		.4byte	0x1c0
 3690 0288 0B       		.uleb128 0xb
 3691 0289 DA0D0000 		.4byte	.LASF50
 3692 028d 06       		.byte	0x6
 3693 028e 1101     		.2byte	0x111
 3694 0290 B8000000 		.4byte	0xb8
 3695 0294 0C       		.uleb128 0xc
 3696 0295 08       		.byte	0x8
 3697 0296 06       		.byte	0x6
 3698 0297 2701     		.2byte	0x127
 3699 0299 B8020000 		.4byte	0x2b8
 3700 029d 0A       		.uleb128 0xa
 3701 029e F7050000 		.4byte	.LASF51
 3702 02a2 06       		.byte	0x6
 3703 02a3 2801     		.2byte	0x128
 3704 02a5 DE000000 		.4byte	0xde
 3705 02a9 00       		.byte	0
ARM GAS  C:\Users\Moi\AppData\Local\Temp\ccWeMAis.s 			page 66


 3706 02aa 0A       		.uleb128 0xa
 3707 02ab C20C0000 		.4byte	.LASF52
 3708 02af 06       		.byte	0x6
 3709 02b0 2A01     		.2byte	0x12a
 3710 02b2 DE000000 		.4byte	0xde
 3711 02b6 04       		.byte	0x4
 3712 02b7 00       		.byte	0
 3713 02b8 0B       		.uleb128 0xb
 3714 02b9 E80D0000 		.4byte	.LASF53
 3715 02bd 06       		.byte	0x6
 3716 02be 2C01     		.2byte	0x12c
 3717 02c0 94020000 		.4byte	0x294
 3718 02c4 0C       		.uleb128 0xc
 3719 02c5 1C       		.byte	0x1c
 3720 02c6 06       		.byte	0x6
 3721 02c7 3201     		.2byte	0x132
 3722 02c9 50030000 		.4byte	0x350
 3723 02cd 0A       		.uleb128 0xa
 3724 02ce C7170000 		.4byte	.LASF54
 3725 02d2 06       		.byte	0x6
 3726 02d3 3301     		.2byte	0x133
 3727 02d5 E9000000 		.4byte	0xe9
 3728 02d9 00       		.byte	0
 3729 02da 0A       		.uleb128 0xa
 3730 02db 3C090000 		.4byte	.LASF55
 3731 02df 06       		.byte	0x6
 3732 02e0 3401     		.2byte	0x134
 3733 02e2 E9000000 		.4byte	0xe9
 3734 02e6 04       		.byte	0x4
 3735 02e7 0A       		.uleb128 0xa
 3736 02e8 89160000 		.4byte	.LASF56
 3737 02ec 06       		.byte	0x6
 3738 02ed 3901     		.2byte	0x139
 3739 02ef D3000000 		.4byte	0xd3
 3740 02f3 08       		.byte	0x8
 3741 02f4 0A       		.uleb128 0xa
 3742 02f5 A2030000 		.4byte	.LASF57
 3743 02f9 06       		.byte	0x6
 3744 02fa 3B01     		.2byte	0x13b
 3745 02fc D3000000 		.4byte	0xd3
 3746 0300 0A       		.byte	0xa
 3747 0301 0A       		.uleb128 0xa
 3748 0302 6C000000 		.4byte	.LASF58
 3749 0306 06       		.byte	0x6
 3750 0307 4001     		.2byte	0x140
 3751 0309 FB000000 		.4byte	0xfb
 3752 030d 0C       		.byte	0xc
 3753 030e 0A       		.uleb128 0xa
 3754 030f 39020000 		.4byte	.LASF59
 3755 0313 06       		.byte	0x6
 3756 0314 4401     		.2byte	0x144
 3757 0316 FB000000 		.4byte	0xfb
 3758 031a 10       		.byte	0x10
 3759 031b 0A       		.uleb128 0xa
 3760 031c 26070000 		.4byte	.LASF60
 3761 0320 06       		.byte	0x6
 3762 0321 4901     		.2byte	0x149
ARM GAS  C:\Users\Moi\AppData\Local\Temp\ccWeMAis.s 			page 67


 3763 0323 D3000000 		.4byte	0xd3
 3764 0327 14       		.byte	0x14
 3765 0328 0A       		.uleb128 0xa
 3766 0329 08120000 		.4byte	.LASF61
 3767 032d 06       		.byte	0x6
 3768 032e 4D01     		.2byte	0x14d
 3769 0330 B8000000 		.4byte	0xb8
 3770 0334 16       		.byte	0x16
 3771 0335 0A       		.uleb128 0xa
 3772 0336 BE160000 		.4byte	.LASF62
 3773 033a 06       		.byte	0x6
 3774 033b 5001     		.2byte	0x150
 3775 033d B8000000 		.4byte	0xb8
 3776 0341 17       		.byte	0x17
 3777 0342 0A       		.uleb128 0xa
 3778 0343 540B0000 		.4byte	.LASF63
 3779 0347 06       		.byte	0x6
 3780 0348 5301     		.2byte	0x153
 3781 034a B8000000 		.4byte	0xb8
 3782 034e 18       		.byte	0x18
 3783 034f 00       		.byte	0
 3784 0350 0B       		.uleb128 0xb
 3785 0351 800E0000 		.4byte	.LASF64
 3786 0355 06       		.byte	0x6
 3787 0356 5701     		.2byte	0x157
 3788 0358 C4020000 		.4byte	0x2c4
 3789 035c 0C       		.uleb128 0xc
 3790 035d 68       		.byte	0x68
 3791 035e 06       		.byte	0x6
 3792 035f 6001     		.2byte	0x160
 3793 0361 B4030000 		.4byte	0x3b4
 3794 0365 0A       		.uleb128 0xa
 3795 0366 04080000 		.4byte	.LASF65
 3796 036a 06       		.byte	0x6
 3797 036b 6201     		.2byte	0x162
 3798 036d B4030000 		.4byte	0x3b4
 3799 0371 00       		.byte	0
 3800 0372 0A       		.uleb128 0xa
 3801 0373 D5040000 		.4byte	.LASF66
 3802 0377 06       		.byte	0x6
 3803 0378 6401     		.2byte	0x164
 3804 037a B8000000 		.4byte	0xb8
 3805 037e 60       		.byte	0x60
 3806 037f 0A       		.uleb128 0xa
 3807 0380 600B0000 		.4byte	.LASF67
 3808 0384 06       		.byte	0x6
 3809 0385 6601     		.2byte	0x166
 3810 0387 B8000000 		.4byte	0xb8
 3811 038b 61       		.byte	0x61
 3812 038c 0A       		.uleb128 0xa
 3813 038d 1C0A0000 		.4byte	.LASF68
 3814 0391 06       		.byte	0x6
 3815 0392 6701     		.2byte	0x167
 3816 0394 B8000000 		.4byte	0xb8
 3817 0398 62       		.byte	0x62
 3818 0399 0A       		.uleb128 0xa
 3819 039a 64140000 		.4byte	.LASF69
ARM GAS  C:\Users\Moi\AppData\Local\Temp\ccWeMAis.s 			page 68


 3820 039e 06       		.byte	0x6
 3821 039f 6801     		.2byte	0x168
 3822 03a1 B8000000 		.4byte	0xb8
 3823 03a5 63       		.byte	0x63
 3824 03a6 0A       		.uleb128 0xa
 3825 03a7 2D020000 		.4byte	.LASF70
 3826 03ab 06       		.byte	0x6
 3827 03ac 6B01     		.2byte	0x16b
 3828 03ae 06010000 		.4byte	0x106
 3829 03b2 64       		.byte	0x64
 3830 03b3 00       		.byte	0
 3831 03b4 08       		.uleb128 0x8
 3832 03b5 E9000000 		.4byte	0xe9
 3833 03b9 C4030000 		.4byte	0x3c4
 3834 03bd 09       		.uleb128 0x9
 3835 03be 25000000 		.4byte	0x25
 3836 03c2 17       		.byte	0x17
 3837 03c3 00       		.byte	0
 3838 03c4 0B       		.uleb128 0xb
 3839 03c5 E2170000 		.4byte	.LASF71
 3840 03c9 06       		.byte	0x6
 3841 03ca 6E01     		.2byte	0x16e
 3842 03cc 5C030000 		.4byte	0x35c
 3843 03d0 0C       		.uleb128 0xc
 3844 03d1 0C       		.byte	0xc
 3845 03d2 06       		.byte	0x6
 3846 03d3 7601     		.2byte	0x176
 3847 03d5 F4030000 		.4byte	0x3f4
 3848 03d9 0A       		.uleb128 0xa
 3849 03da AA060000 		.4byte	.LASF72
 3850 03de 06       		.byte	0x6
 3851 03df 7701     		.2byte	0x177
 3852 03e1 5C020000 		.4byte	0x25c
 3853 03e5 00       		.byte	0
 3854 03e6 0A       		.uleb128 0xa
 3855 03e7 74120000 		.4byte	.LASF73
 3856 03eb 06       		.byte	0x6
 3857 03ec 7901     		.2byte	0x179
 3858 03ee 5C020000 		.4byte	0x25c
 3859 03f2 06       		.byte	0x6
 3860 03f3 00       		.byte	0
 3861 03f4 0B       		.uleb128 0xb
 3862 03f5 5C0A0000 		.4byte	.LASF74
 3863 03f9 06       		.byte	0x6
 3864 03fa 7B01     		.2byte	0x17b
 3865 03fc D0030000 		.4byte	0x3d0
 3866 0400 0C       		.uleb128 0xc
 3867 0401 50       		.byte	0x50
 3868 0402 06       		.byte	0x6
 3869 0403 7D01     		.2byte	0x17d
 3870 0405 0E050000 		.4byte	0x50e
 3871 0409 0A       		.uleb128 0xa
 3872 040a 52060000 		.4byte	.LASF75
 3873 040e 06       		.byte	0x6
 3874 040f 7E01     		.2byte	0x17e
 3875 0411 FB000000 		.4byte	0xfb
 3876 0415 00       		.byte	0
ARM GAS  C:\Users\Moi\AppData\Local\Temp\ccWeMAis.s 			page 69


 3877 0416 0A       		.uleb128 0xa
 3878 0417 F5160000 		.4byte	.LASF76
 3879 041b 06       		.byte	0x6
 3880 041c 8001     		.2byte	0x180
 3881 041e D3000000 		.4byte	0xd3
 3882 0422 04       		.byte	0x4
 3883 0423 0A       		.uleb128 0xa
 3884 0424 91150000 		.4byte	.LASF77
 3885 0428 06       		.byte	0x6
 3886 0429 8301     		.2byte	0x183
 3887 042b 11010000 		.4byte	0x111
 3888 042f 06       		.byte	0x6
 3889 0430 0A       		.uleb128 0xa
 3890 0431 E3110000 		.4byte	.LASF78
 3891 0435 06       		.byte	0x6
 3892 0436 8601     		.2byte	0x186
 3893 0438 E9000000 		.4byte	0xe9
 3894 043c 08       		.byte	0x8
 3895 043d 0A       		.uleb128 0xa
 3896 043e B1140000 		.4byte	.LASF79
 3897 0442 06       		.byte	0x6
 3898 0443 8801     		.2byte	0x188
 3899 0445 B8000000 		.4byte	0xb8
 3900 0449 0C       		.byte	0xc
 3901 044a 0A       		.uleb128 0xa
 3902 044b 71140000 		.4byte	.LASF80
 3903 044f 06       		.byte	0x6
 3904 0450 8A01     		.2byte	0x18a
 3905 0452 E9000000 		.4byte	0xe9
 3906 0456 10       		.byte	0x10
 3907 0457 0A       		.uleb128 0xa
 3908 0458 34010000 		.4byte	.LASF81
 3909 045c 06       		.byte	0x6
 3910 045d 8C01     		.2byte	0x18c
 3911 045f B8000000 		.4byte	0xb8
 3912 0463 14       		.byte	0x14
 3913 0464 0A       		.uleb128 0xa
 3914 0465 A7160000 		.4byte	.LASF82
 3915 0469 06       		.byte	0x6
 3916 046a 8F01     		.2byte	0x18f
 3917 046c D3000000 		.4byte	0xd3
 3918 0470 16       		.byte	0x16
 3919 0471 0A       		.uleb128 0xa
 3920 0472 EA080000 		.4byte	.LASF83
 3921 0476 06       		.byte	0x6
 3922 0477 9101     		.2byte	0x191
 3923 0479 D3000000 		.4byte	0xd3
 3924 047d 18       		.byte	0x18
 3925 047e 0A       		.uleb128 0xa
 3926 047f 09140000 		.4byte	.LASF84
 3927 0483 06       		.byte	0x6
 3928 0484 9401     		.2byte	0x194
 3929 0486 D3000000 		.4byte	0xd3
 3930 048a 1A       		.byte	0x1a
 3931 048b 0A       		.uleb128 0xa
 3932 048c BF090000 		.4byte	.LASF85
 3933 0490 06       		.byte	0x6
ARM GAS  C:\Users\Moi\AppData\Local\Temp\ccWeMAis.s 			page 70


 3934 0491 9901     		.2byte	0x199
 3935 0493 B8000000 		.4byte	0xb8
 3936 0497 1C       		.byte	0x1c
 3937 0498 0A       		.uleb128 0xa
 3938 0499 FB070000 		.4byte	.LASF86
 3939 049d 06       		.byte	0x6
 3940 049e 9B01     		.2byte	0x19b
 3941 04a0 B8000000 		.4byte	0xb8
 3942 04a4 1D       		.byte	0x1d
 3943 04a5 0A       		.uleb128 0xa
 3944 04a6 DB030000 		.4byte	.LASF87
 3945 04aa 06       		.byte	0x6
 3946 04ab 9C01     		.2byte	0x19c
 3947 04ad B8000000 		.4byte	0xb8
 3948 04b1 1E       		.byte	0x1e
 3949 04b2 0A       		.uleb128 0xa
 3950 04b3 F7010000 		.4byte	.LASF27
 3951 04b7 06       		.byte	0x6
 3952 04b8 9D01     		.2byte	0x19d
 3953 04ba 6D010000 		.4byte	0x16d
 3954 04be 1F       		.byte	0x1f
 3955 04bf 0A       		.uleb128 0xa
 3956 04c0 BA070000 		.4byte	.LASF88
 3957 04c4 06       		.byte	0x6
 3958 04c5 9F01     		.2byte	0x19f
 3959 04c7 B8000000 		.4byte	0xb8
 3960 04cb 3F       		.byte	0x3f
 3961 04cc 0A       		.uleb128 0xa
 3962 04cd 5A000000 		.4byte	.LASF89
 3963 04d1 06       		.byte	0x6
 3964 04d2 A001     		.2byte	0x1a0
 3965 04d4 B8000000 		.4byte	0xb8
 3966 04d8 40       		.byte	0x40
 3967 04d9 0A       		.uleb128 0xa
 3968 04da 0F0C0000 		.4byte	.LASF90
 3969 04de 06       		.byte	0x6
 3970 04df A101     		.2byte	0x1a1
 3971 04e1 B8000000 		.4byte	0xb8
 3972 04e5 41       		.byte	0x41
 3973 04e6 0A       		.uleb128 0xa
 3974 04e7 DF100000 		.4byte	.LASF91
 3975 04eb 06       		.byte	0x6
 3976 04ec A201     		.2byte	0x1a2
 3977 04ee E9000000 		.4byte	0xe9
 3978 04f2 44       		.byte	0x44
 3979 04f3 0A       		.uleb128 0xa
 3980 04f4 89000000 		.4byte	.LASF92
 3981 04f8 06       		.byte	0x6
 3982 04f9 A301     		.2byte	0x1a3
 3983 04fb E9000000 		.4byte	0xe9
 3984 04ff 48       		.byte	0x48
 3985 0500 0A       		.uleb128 0xa
 3986 0501 57180000 		.4byte	.LASF93
 3987 0505 06       		.byte	0x6
 3988 0506 A401     		.2byte	0x1a4
 3989 0508 FB000000 		.4byte	0xfb
 3990 050c 4C       		.byte	0x4c
ARM GAS  C:\Users\Moi\AppData\Local\Temp\ccWeMAis.s 			page 71


 3991 050d 00       		.byte	0
 3992 050e 0B       		.uleb128 0xb
 3993 050f 5B040000 		.4byte	.LASF94
 3994 0513 06       		.byte	0x6
 3995 0514 A701     		.2byte	0x1a7
 3996 0516 00040000 		.4byte	0x400
 3997 051a 0D       		.uleb128 0xd
 3998 051b 5C01     		.2byte	0x15c
 3999 051d 06       		.byte	0x6
 4000 051e B101     		.2byte	0x1b1
 4001 0520 7C060000 		.4byte	0x67c
 4002 0524 0A       		.uleb128 0xa
 4003 0525 33090000 		.4byte	.LASF95
 4004 0529 06       		.byte	0x6
 4005 052a B201     		.2byte	0x1b2
 4006 052c B8020000 		.4byte	0x2b8
 4007 0530 00       		.byte	0
 4008 0531 0A       		.uleb128 0xa
 4009 0532 01040000 		.4byte	.LASF96
 4010 0536 06       		.byte	0x6
 4011 0537 B401     		.2byte	0x1b4
 4012 0539 DE000000 		.4byte	0xde
 4013 053d 08       		.byte	0x8
 4014 053e 0A       		.uleb128 0xa
 4015 053f B9050000 		.4byte	.LASF97
 4016 0543 06       		.byte	0x6
 4017 0544 B601     		.2byte	0x1b6
 4018 0546 DE000000 		.4byte	0xde
 4019 054a 0C       		.byte	0xc
 4020 054b 0A       		.uleb128 0xa
 4021 054c 41130000 		.4byte	.LASF98
 4022 0550 06       		.byte	0x6
 4023 0551 B801     		.2byte	0x1b8
 4024 0553 7C020000 		.4byte	0x27c
 4025 0557 10       		.byte	0x10
 4026 0558 0A       		.uleb128 0xa
 4027 0559 FA090000 		.4byte	.LASF99
 4028 055d 06       		.byte	0x6
 4029 055e BA01     		.2byte	0x1ba
 4030 0560 50030000 		.4byte	0x350
 4031 0564 50       		.byte	0x50
 4032 0565 0A       		.uleb128 0xa
 4033 0566 2E160000 		.4byte	.LASF100
 4034 056a 06       		.byte	0x6
 4035 056b BC01     		.2byte	0x1bc
 4036 056d C4030000 		.4byte	0x3c4
 4037 0571 6C       		.byte	0x6c
 4038 0572 0A       		.uleb128 0xa
 4039 0573 71130000 		.4byte	.LASF101
 4040 0577 06       		.byte	0x6
 4041 0578 BE01     		.2byte	0x1be
 4042 057a 0E050000 		.4byte	0x50e
 4043 057e D4       		.byte	0xd4
 4044 057f 0E       		.uleb128 0xe
 4045 0580 87070000 		.4byte	.LASF102
 4046 0584 06       		.byte	0x6
 4047 0585 C001     		.2byte	0x1c0
ARM GAS  C:\Users\Moi\AppData\Local\Temp\ccWeMAis.s 			page 72


 4048 0587 F4030000 		.4byte	0x3f4
 4049 058b 2401     		.2byte	0x124
 4050 058d 0E       		.uleb128 0xe
 4051 058e 18100000 		.4byte	.LASF103
 4052 0592 06       		.byte	0x6
 4053 0593 C201     		.2byte	0x1c2
 4054 0595 B8000000 		.4byte	0xb8
 4055 0599 3001     		.2byte	0x130
 4056 059b 0E       		.uleb128 0xe
 4057 059c 56160000 		.4byte	.LASF104
 4058 05a0 06       		.byte	0x6
 4059 05a1 C401     		.2byte	0x1c4
 4060 05a3 B8000000 		.4byte	0xb8
 4061 05a7 3101     		.2byte	0x131
 4062 05a9 0E       		.uleb128 0xe
 4063 05aa BE170000 		.4byte	.LASF105
 4064 05ae 06       		.byte	0x6
 4065 05af C601     		.2byte	0x1c6
 4066 05b1 88020000 		.4byte	0x288
 4067 05b5 3201     		.2byte	0x132
 4068 05b7 0E       		.uleb128 0xe
 4069 05b8 5F030000 		.4byte	.LASF106
 4070 05bc 06       		.byte	0x6
 4071 05bd C801     		.2byte	0x1c8
 4072 05bf B5010000 		.4byte	0x1b5
 4073 05c3 3301     		.2byte	0x133
 4074 05c5 0E       		.uleb128 0xe
 4075 05c6 A7160000 		.4byte	.LASF82
 4076 05ca 06       		.byte	0x6
 4077 05cb CA01     		.2byte	0x1ca
 4078 05cd D3000000 		.4byte	0xd3
 4079 05d1 3401     		.2byte	0x134
 4080 05d3 0E       		.uleb128 0xe
 4081 05d4 EA080000 		.4byte	.LASF83
 4082 05d8 06       		.byte	0x6
 4083 05d9 CC01     		.2byte	0x1cc
 4084 05db D3000000 		.4byte	0xd3
 4085 05df 3601     		.2byte	0x136
 4086 05e1 0E       		.uleb128 0xe
 4087 05e2 09140000 		.4byte	.LASF84
 4088 05e6 06       		.byte	0x6
 4089 05e7 CF01     		.2byte	0x1cf
 4090 05e9 D3000000 		.4byte	0xd3
 4091 05ed 3801     		.2byte	0x138
 4092 05ef 0E       		.uleb128 0xe
 4093 05f0 1C090000 		.4byte	.LASF107
 4094 05f4 06       		.byte	0x6
 4095 05f5 D201     		.2byte	0x1d2
 4096 05f7 B8000000 		.4byte	0xb8
 4097 05fb 3A01     		.2byte	0x13a
 4098 05fd 0E       		.uleb128 0xe
 4099 05fe 4C050000 		.4byte	.LASF108
 4100 0602 06       		.byte	0x6
 4101 0603 D401     		.2byte	0x1d4
 4102 0605 D3000000 		.4byte	0xd3
 4103 0609 3C01     		.2byte	0x13c
 4104 060b 0E       		.uleb128 0xe
ARM GAS  C:\Users\Moi\AppData\Local\Temp\ccWeMAis.s 			page 73


 4105 060c 99160000 		.4byte	.LASF109
 4106 0610 06       		.byte	0x6
 4107 0611 D601     		.2byte	0x1d6
 4108 0613 FB000000 		.4byte	0xfb
 4109 0617 4001     		.2byte	0x140
 4110 0619 0E       		.uleb128 0xe
 4111 061a EC100000 		.4byte	.LASF110
 4112 061e 06       		.byte	0x6
 4113 061f D901     		.2byte	0x1d9
 4114 0621 FB000000 		.4byte	0xfb
 4115 0625 4401     		.2byte	0x144
 4116 0627 0E       		.uleb128 0xe
 4117 0628 B7110000 		.4byte	.LASF111
 4118 062c 06       		.byte	0x6
 4119 062d DB01     		.2byte	0x1db
 4120 062f FB000000 		.4byte	0xfb
 4121 0633 4801     		.2byte	0x148
 4122 0635 0E       		.uleb128 0xe
 4123 0636 98130000 		.4byte	.LASF112
 4124 063a 06       		.byte	0x6
 4125 063b DD01     		.2byte	0x1dd
 4126 063d 7C060000 		.4byte	0x67c
 4127 0641 4C01     		.2byte	0x14c
 4128 0643 0E       		.uleb128 0xe
 4129 0644 BE060000 		.4byte	.LASF113
 4130 0648 06       		.byte	0x6
 4131 0649 DF01     		.2byte	0x1df
 4132 064b B8000000 		.4byte	0xb8
 4133 064f 5001     		.2byte	0x150
 4134 0651 0E       		.uleb128 0xe
 4135 0652 0E070000 		.4byte	.LASF114
 4136 0656 06       		.byte	0x6
 4137 0657 E101     		.2byte	0x1e1
 4138 0659 D3000000 		.4byte	0xd3
 4139 065d 5201     		.2byte	0x152
 4140 065f 0E       		.uleb128 0xe
 4141 0660 C2080000 		.4byte	.LASF115
 4142 0664 06       		.byte	0x6
 4143 0665 E301     		.2byte	0x1e3
 4144 0667 D3000000 		.4byte	0xd3
 4145 066b 5401     		.2byte	0x154
 4146 066d 0E       		.uleb128 0xe
 4147 066e 95140000 		.4byte	.LASF116
 4148 0672 06       		.byte	0x6
 4149 0673 E501     		.2byte	0x1e5
 4150 0675 FB000000 		.4byte	0xfb
 4151 0679 5801     		.2byte	0x158
 4152 067b 00       		.byte	0
 4153 067c 0F       		.uleb128 0xf
 4154 067d 04       		.byte	0x4
 4155 067e B8000000 		.4byte	0xb8
 4156 0682 0B       		.uleb128 0xb
 4157 0683 F5140000 		.4byte	.LASF117
 4158 0687 06       		.byte	0x6
 4159 0688 E801     		.2byte	0x1e8
 4160 068a 1A050000 		.4byte	0x51a
 4161 068e 0B       		.uleb128 0xb
ARM GAS  C:\Users\Moi\AppData\Local\Temp\ccWeMAis.s 			page 74


 4162 068f 06160000 		.4byte	.LASF118
 4163 0693 06       		.byte	0x6
 4164 0694 FE01     		.2byte	0x1fe
 4165 0696 B8000000 		.4byte	0xb8
 4166 069a 10       		.uleb128 0x10
 4167 069b 04       		.byte	0x4
 4168 069c 03       		.uleb128 0x3
 4169 069d 6F0E0000 		.4byte	.LASF119
 4170 06a1 07       		.byte	0x7
 4171 06a2 22       		.byte	0x22
 4172 06a3 A7060000 		.4byte	0x6a7
 4173 06a7 0F       		.uleb128 0xf
 4174 06a8 04       		.byte	0x4
 4175 06a9 AD060000 		.4byte	0x6ad
 4176 06ad 11       		.uleb128 0x11
 4177 06ae 02140000 		.4byte	.LASF225
 4178 06b2 03       		.uleb128 0x3
 4179 06b3 EE160000 		.4byte	.LASF120
 4180 06b7 08       		.byte	0x8
 4181 06b8 2C       		.byte	0x2c
 4182 06b9 7F000000 		.4byte	0x7f
 4183 06bd 03       		.uleb128 0x3
 4184 06be C2030000 		.4byte	.LASF121
 4185 06c2 08       		.byte	0x8
 4186 06c3 72       		.byte	0x72
 4187 06c4 7F000000 		.4byte	0x7f
 4188 06c8 0B       		.uleb128 0xb
 4189 06c9 91130000 		.4byte	.LASF122
 4190 06cd 09       		.byte	0x9
 4191 06ce 6501     		.2byte	0x165
 4192 06d0 25000000 		.4byte	0x25
 4193 06d4 12       		.uleb128 0x12
 4194 06d5 04       		.byte	0x4
 4195 06d6 08       		.byte	0x8
 4196 06d7 A6       		.byte	0xa6
 4197 06d8 F3060000 		.4byte	0x6f3
 4198 06dc 13       		.uleb128 0x13
 4199 06dd 780A0000 		.4byte	.LASF123
 4200 06e1 08       		.byte	0x8
 4201 06e2 A8       		.byte	0xa8
 4202 06e3 C8060000 		.4byte	0x6c8
 4203 06e7 13       		.uleb128 0x13
 4204 06e8 C9110000 		.4byte	.LASF124
 4205 06ec 08       		.byte	0x8
 4206 06ed A9       		.byte	0xa9
 4207 06ee F3060000 		.4byte	0x6f3
 4208 06f2 00       		.byte	0
 4209 06f3 08       		.uleb128 0x8
 4210 06f4 49000000 		.4byte	0x49
 4211 06f8 03070000 		.4byte	0x703
 4212 06fc 09       		.uleb128 0x9
 4213 06fd 25000000 		.4byte	0x25
 4214 0701 03       		.byte	0x3
 4215 0702 00       		.byte	0
 4216 0703 06       		.uleb128 0x6
 4217 0704 08       		.byte	0x8
 4218 0705 08       		.byte	0x8
ARM GAS  C:\Users\Moi\AppData\Local\Temp\ccWeMAis.s 			page 75


 4219 0706 A3       		.byte	0xa3
 4220 0707 24070000 		.4byte	0x724
 4221 070b 07       		.uleb128 0x7
 4222 070c BB040000 		.4byte	.LASF125
 4223 0710 08       		.byte	0x8
 4224 0711 A5       		.byte	0xa5
 4225 0712 A6000000 		.4byte	0xa6
 4226 0716 00       		.byte	0
 4227 0717 07       		.uleb128 0x7
 4228 0718 E2080000 		.4byte	.LASF126
 4229 071c 08       		.byte	0x8
 4230 071d AA       		.byte	0xaa
 4231 071e D4060000 		.4byte	0x6d4
 4232 0722 04       		.byte	0x4
 4233 0723 00       		.byte	0
 4234 0724 03       		.uleb128 0x3
 4235 0725 A30C0000 		.4byte	.LASF127
 4236 0729 08       		.byte	0x8
 4237 072a AB       		.byte	0xab
 4238 072b 03070000 		.4byte	0x703
 4239 072f 03       		.uleb128 0x3
 4240 0730 420A0000 		.4byte	.LASF128
 4241 0734 08       		.byte	0x8
 4242 0735 AF       		.byte	0xaf
 4243 0736 9C060000 		.4byte	0x69c
 4244 073a 03       		.uleb128 0x3
 4245 073b 070C0000 		.4byte	.LASF129
 4246 073f 0A       		.byte	0xa
 4247 0740 16       		.byte	0x16
 4248 0741 91000000 		.4byte	0x91
 4249 0745 14       		.uleb128 0x14
 4250 0746 32040000 		.4byte	.LASF134
 4251 074a 18       		.byte	0x18
 4252 074b 0A       		.byte	0xa
 4253 074c 2F       		.byte	0x2f
 4254 074d 98070000 		.4byte	0x798
 4255 0751 07       		.uleb128 0x7
 4256 0752 4B080000 		.4byte	.LASF130
 4257 0756 0A       		.byte	0xa
 4258 0757 31       		.byte	0x31
 4259 0758 98070000 		.4byte	0x798
 4260 075c 00       		.byte	0
 4261 075d 15       		.uleb128 0x15
 4262 075e 5F6B00   		.ascii	"_k\000"
 4263 0761 0A       		.byte	0xa
 4264 0762 32       		.byte	0x32
 4265 0763 A6000000 		.4byte	0xa6
 4266 0767 04       		.byte	0x4
 4267 0768 07       		.uleb128 0x7
 4268 0769 81000000 		.4byte	.LASF131
 4269 076d 0A       		.byte	0xa
 4270 076e 32       		.byte	0x32
 4271 076f A6000000 		.4byte	0xa6
 4272 0773 08       		.byte	0x8
 4273 0774 07       		.uleb128 0x7
 4274 0775 5B110000 		.4byte	.LASF132
 4275 0779 0A       		.byte	0xa
ARM GAS  C:\Users\Moi\AppData\Local\Temp\ccWeMAis.s 			page 76


 4276 077a 32       		.byte	0x32
 4277 077b A6000000 		.4byte	0xa6
 4278 077f 0C       		.byte	0xc
 4279 0780 07       		.uleb128 0x7
 4280 0781 24060000 		.4byte	.LASF133
 4281 0785 0A       		.byte	0xa
 4282 0786 32       		.byte	0x32
 4283 0787 A6000000 		.4byte	0xa6
 4284 078b 10       		.byte	0x10
 4285 078c 15       		.uleb128 0x15
 4286 078d 5F7800   		.ascii	"_x\000"
 4287 0790 0A       		.byte	0xa
 4288 0791 33       		.byte	0x33
 4289 0792 9E070000 		.4byte	0x79e
 4290 0796 14       		.byte	0x14
 4291 0797 00       		.byte	0
 4292 0798 0F       		.uleb128 0xf
 4293 0799 04       		.byte	0x4
 4294 079a 45070000 		.4byte	0x745
 4295 079e 08       		.uleb128 0x8
 4296 079f 3A070000 		.4byte	0x73a
 4297 07a3 AE070000 		.4byte	0x7ae
 4298 07a7 09       		.uleb128 0x9
 4299 07a8 25000000 		.4byte	0x25
 4300 07ac 00       		.byte	0
 4301 07ad 00       		.byte	0
 4302 07ae 14       		.uleb128 0x14
 4303 07af 15130000 		.4byte	.LASF135
 4304 07b3 24       		.byte	0x24
 4305 07b4 0A       		.byte	0xa
 4306 07b5 37       		.byte	0x37
 4307 07b6 27080000 		.4byte	0x827
 4308 07ba 07       		.uleb128 0x7
 4309 07bb 86010000 		.4byte	.LASF136
 4310 07bf 0A       		.byte	0xa
 4311 07c0 39       		.byte	0x39
 4312 07c1 A6000000 		.4byte	0xa6
 4313 07c5 00       		.byte	0
 4314 07c6 07       		.uleb128 0x7
 4315 07c7 F1040000 		.4byte	.LASF137
 4316 07cb 0A       		.byte	0xa
 4317 07cc 3A       		.byte	0x3a
 4318 07cd A6000000 		.4byte	0xa6
 4319 07d1 04       		.byte	0x4
 4320 07d2 07       		.uleb128 0x7
 4321 07d3 8E040000 		.4byte	.LASF138
 4322 07d7 0A       		.byte	0xa
 4323 07d8 3B       		.byte	0x3b
 4324 07d9 A6000000 		.4byte	0xa6
 4325 07dd 08       		.byte	0x8
 4326 07de 07       		.uleb128 0x7
 4327 07df 86090000 		.4byte	.LASF139
 4328 07e3 0A       		.byte	0xa
 4329 07e4 3C       		.byte	0x3c
 4330 07e5 A6000000 		.4byte	0xa6
 4331 07e9 0C       		.byte	0xc
 4332 07ea 07       		.uleb128 0x7
ARM GAS  C:\Users\Moi\AppData\Local\Temp\ccWeMAis.s 			page 77


 4333 07eb 230E0000 		.4byte	.LASF140
 4334 07ef 0A       		.byte	0xa
 4335 07f0 3D       		.byte	0x3d
 4336 07f1 A6000000 		.4byte	0xa6
 4337 07f5 10       		.byte	0x10
 4338 07f6 07       		.uleb128 0x7
 4339 07f7 FE110000 		.4byte	.LASF141
 4340 07fb 0A       		.byte	0xa
 4341 07fc 3E       		.byte	0x3e
 4342 07fd A6000000 		.4byte	0xa6
 4343 0801 14       		.byte	0x14
 4344 0802 07       		.uleb128 0x7
 4345 0803 3A040000 		.4byte	.LASF142
 4346 0807 0A       		.byte	0xa
 4347 0808 3F       		.byte	0x3f
 4348 0809 A6000000 		.4byte	0xa6
 4349 080d 18       		.byte	0x18
 4350 080e 07       		.uleb128 0x7
 4351 080f D7070000 		.4byte	.LASF143
 4352 0813 0A       		.byte	0xa
 4353 0814 40       		.byte	0x40
 4354 0815 A6000000 		.4byte	0xa6
 4355 0819 1C       		.byte	0x1c
 4356 081a 07       		.uleb128 0x7
 4357 081b E60C0000 		.4byte	.LASF144
 4358 081f 0A       		.byte	0xa
 4359 0820 41       		.byte	0x41
 4360 0821 A6000000 		.4byte	0xa6
 4361 0825 20       		.byte	0x20
 4362 0826 00       		.byte	0
 4363 0827 16       		.uleb128 0x16
 4364 0828 C2000000 		.4byte	.LASF145
 4365 082c 0801     		.2byte	0x108
 4366 082e 0A       		.byte	0xa
 4367 082f 4A       		.byte	0x4a
 4368 0830 67080000 		.4byte	0x867
 4369 0834 07       		.uleb128 0x7
 4370 0835 1A160000 		.4byte	.LASF146
 4371 0839 0A       		.byte	0xa
 4372 083a 4B       		.byte	0x4b
 4373 083b 67080000 		.4byte	0x867
 4374 083f 00       		.byte	0
 4375 0840 07       		.uleb128 0x7
 4376 0841 E7130000 		.4byte	.LASF147
 4377 0845 0A       		.byte	0xa
 4378 0846 4C       		.byte	0x4c
 4379 0847 67080000 		.4byte	0x867
 4380 084b 80       		.byte	0x80
 4381 084c 17       		.uleb128 0x17
 4382 084d 07150000 		.4byte	.LASF148
 4383 0851 0A       		.byte	0xa
 4384 0852 4E       		.byte	0x4e
 4385 0853 3A070000 		.4byte	0x73a
 4386 0857 0001     		.2byte	0x100
 4387 0859 17       		.uleb128 0x17
 4388 085a 8E170000 		.4byte	.LASF149
 4389 085e 0A       		.byte	0xa
ARM GAS  C:\Users\Moi\AppData\Local\Temp\ccWeMAis.s 			page 78


 4390 085f 51       		.byte	0x51
 4391 0860 3A070000 		.4byte	0x73a
 4392 0864 0401     		.2byte	0x104
 4393 0866 00       		.byte	0
 4394 0867 08       		.uleb128 0x8
 4395 0868 9A060000 		.4byte	0x69a
 4396 086c 77080000 		.4byte	0x877
 4397 0870 09       		.uleb128 0x9
 4398 0871 25000000 		.4byte	0x25
 4399 0875 1F       		.byte	0x1f
 4400 0876 00       		.byte	0
 4401 0877 16       		.uleb128 0x16
 4402 0878 27100000 		.4byte	.LASF150
 4403 087c 9001     		.2byte	0x190
 4404 087e 0A       		.byte	0xa
 4405 087f 5D       		.byte	0x5d
 4406 0880 B5080000 		.4byte	0x8b5
 4407 0884 07       		.uleb128 0x7
 4408 0885 4B080000 		.4byte	.LASF130
 4409 0889 0A       		.byte	0xa
 4410 088a 5E       		.byte	0x5e
 4411 088b B5080000 		.4byte	0x8b5
 4412 088f 00       		.byte	0
 4413 0890 07       		.uleb128 0x7
 4414 0891 E6070000 		.4byte	.LASF151
 4415 0895 0A       		.byte	0xa
 4416 0896 5F       		.byte	0x5f
 4417 0897 A6000000 		.4byte	0xa6
 4418 089b 04       		.byte	0x4
 4419 089c 07       		.uleb128 0x7
 4420 089d D6030000 		.4byte	.LASF152
 4421 08a1 0A       		.byte	0xa
 4422 08a2 61       		.byte	0x61
 4423 08a3 BB080000 		.4byte	0x8bb
 4424 08a7 08       		.byte	0x8
 4425 08a8 07       		.uleb128 0x7
 4426 08a9 C2000000 		.4byte	.LASF145
 4427 08ad 0A       		.byte	0xa
 4428 08ae 62       		.byte	0x62
 4429 08af 27080000 		.4byte	0x827
 4430 08b3 88       		.byte	0x88
 4431 08b4 00       		.byte	0
 4432 08b5 0F       		.uleb128 0xf
 4433 08b6 04       		.byte	0x4
 4434 08b7 77080000 		.4byte	0x877
 4435 08bb 08       		.uleb128 0x8
 4436 08bc CB080000 		.4byte	0x8cb
 4437 08c0 CB080000 		.4byte	0x8cb
 4438 08c4 09       		.uleb128 0x9
 4439 08c5 25000000 		.4byte	0x25
 4440 08c9 1F       		.byte	0x1f
 4441 08ca 00       		.byte	0
 4442 08cb 0F       		.uleb128 0xf
 4443 08cc 04       		.byte	0x4
 4444 08cd D1080000 		.4byte	0x8d1
 4445 08d1 18       		.uleb128 0x18
 4446 08d2 14       		.uleb128 0x14
ARM GAS  C:\Users\Moi\AppData\Local\Temp\ccWeMAis.s 			page 79


 4447 08d3 5B150000 		.4byte	.LASF153
 4448 08d7 08       		.byte	0x8
 4449 08d8 0A       		.byte	0xa
 4450 08d9 75       		.byte	0x75
 4451 08da F7080000 		.4byte	0x8f7
 4452 08de 07       		.uleb128 0x7
 4453 08df BD0B0000 		.4byte	.LASF154
 4454 08e3 0A       		.byte	0xa
 4455 08e4 76       		.byte	0x76
 4456 08e5 F7080000 		.4byte	0x8f7
 4457 08e9 00       		.byte	0
 4458 08ea 07       		.uleb128 0x7
 4459 08eb B8160000 		.4byte	.LASF155
 4460 08ef 0A       		.byte	0xa
 4461 08f0 77       		.byte	0x77
 4462 08f1 A6000000 		.4byte	0xa6
 4463 08f5 04       		.byte	0x4
 4464 08f6 00       		.byte	0
 4465 08f7 0F       		.uleb128 0xf
 4466 08f8 04       		.byte	0x4
 4467 08f9 49000000 		.4byte	0x49
 4468 08fd 14       		.uleb128 0x14
 4469 08fe 1C060000 		.4byte	.LASF156
 4470 0902 68       		.byte	0x68
 4471 0903 0A       		.byte	0xa
 4472 0904 B5       		.byte	0xb5
 4473 0905 270A0000 		.4byte	0xa27
 4474 0909 15       		.uleb128 0x15
 4475 090a 5F7000   		.ascii	"_p\000"
 4476 090d 0A       		.byte	0xa
 4477 090e B6       		.byte	0xb6
 4478 090f F7080000 		.4byte	0x8f7
 4479 0913 00       		.byte	0
 4480 0914 15       		.uleb128 0x15
 4481 0915 5F7200   		.ascii	"_r\000"
 4482 0918 0A       		.byte	0xa
 4483 0919 B7       		.byte	0xb7
 4484 091a A6000000 		.4byte	0xa6
 4485 091e 04       		.byte	0x4
 4486 091f 15       		.uleb128 0x15
 4487 0920 5F7700   		.ascii	"_w\000"
 4488 0923 0A       		.byte	0xa
 4489 0924 B8       		.byte	0xb8
 4490 0925 A6000000 		.4byte	0xa6
 4491 0929 08       		.byte	0x8
 4492 092a 07       		.uleb128 0x7
 4493 092b 20020000 		.4byte	.LASF157
 4494 092f 0A       		.byte	0xa
 4495 0930 B9       		.byte	0xb9
 4496 0931 5B000000 		.4byte	0x5b
 4497 0935 0C       		.byte	0xc
 4498 0936 07       		.uleb128 0x7
 4499 0937 5A0C0000 		.4byte	.LASF158
 4500 093b 0A       		.byte	0xa
 4501 093c BA       		.byte	0xba
 4502 093d 5B000000 		.4byte	0x5b
 4503 0941 0E       		.byte	0xe
ARM GAS  C:\Users\Moi\AppData\Local\Temp\ccWeMAis.s 			page 80


 4504 0942 15       		.uleb128 0x15
 4505 0943 5F626600 		.ascii	"_bf\000"
 4506 0947 0A       		.byte	0xa
 4507 0948 BB       		.byte	0xbb
 4508 0949 D2080000 		.4byte	0x8d2
 4509 094d 10       		.byte	0x10
 4510 094e 07       		.uleb128 0x7
 4511 094f D9140000 		.4byte	.LASF159
 4512 0953 0A       		.byte	0xa
 4513 0954 BC       		.byte	0xbc
 4514 0955 A6000000 		.4byte	0xa6
 4515 0959 18       		.byte	0x18
 4516 095a 07       		.uleb128 0x7
 4517 095b E4030000 		.4byte	.LASF160
 4518 095f 0A       		.byte	0xa
 4519 0960 C3       		.byte	0xc3
 4520 0961 9A060000 		.4byte	0x69a
 4521 0965 1C       		.byte	0x1c
 4522 0966 07       		.uleb128 0x7
 4523 0967 1E030000 		.4byte	.LASF161
 4524 096b 0A       		.byte	0xa
 4525 096c C5       		.byte	0xc5
 4526 096d 880B0000 		.4byte	0xb88
 4527 0971 20       		.byte	0x20
 4528 0972 07       		.uleb128 0x7
 4529 0973 D0000000 		.4byte	.LASF162
 4530 0977 0A       		.byte	0xa
 4531 0978 C7       		.byte	0xc7
 4532 0979 B20B0000 		.4byte	0xbb2
 4533 097d 24       		.byte	0x24
 4534 097e 07       		.uleb128 0x7
 4535 097f 0A180000 		.4byte	.LASF163
 4536 0983 0A       		.byte	0xa
 4537 0984 CA       		.byte	0xca
 4538 0985 D60B0000 		.4byte	0xbd6
 4539 0989 28       		.byte	0x28
 4540 098a 07       		.uleb128 0x7
 4541 098b BE0A0000 		.4byte	.LASF164
 4542 098f 0A       		.byte	0xa
 4543 0990 CB       		.byte	0xcb
 4544 0991 F00B0000 		.4byte	0xbf0
 4545 0995 2C       		.byte	0x2c
 4546 0996 15       		.uleb128 0x15
 4547 0997 5F756200 		.ascii	"_ub\000"
 4548 099b 0A       		.byte	0xa
 4549 099c CE       		.byte	0xce
 4550 099d D2080000 		.4byte	0x8d2
 4551 09a1 30       		.byte	0x30
 4552 09a2 15       		.uleb128 0x15
 4553 09a3 5F757000 		.ascii	"_up\000"
 4554 09a7 0A       		.byte	0xa
 4555 09a8 CF       		.byte	0xcf
 4556 09a9 F7080000 		.4byte	0x8f7
 4557 09ad 38       		.byte	0x38
 4558 09ae 15       		.uleb128 0x15
 4559 09af 5F757200 		.ascii	"_ur\000"
 4560 09b3 0A       		.byte	0xa
ARM GAS  C:\Users\Moi\AppData\Local\Temp\ccWeMAis.s 			page 81


 4561 09b4 D0       		.byte	0xd0
 4562 09b5 A6000000 		.4byte	0xa6
 4563 09b9 3C       		.byte	0x3c
 4564 09ba 07       		.uleb128 0x7
 4565 09bb 2F180000 		.4byte	.LASF165
 4566 09bf 0A       		.byte	0xa
 4567 09c0 D3       		.byte	0xd3
 4568 09c1 F60B0000 		.4byte	0xbf6
 4569 09c5 40       		.byte	0x40
 4570 09c6 07       		.uleb128 0x7
 4571 09c7 08170000 		.4byte	.LASF166
 4572 09cb 0A       		.byte	0xa
 4573 09cc D4       		.byte	0xd4
 4574 09cd 060C0000 		.4byte	0xc06
 4575 09d1 43       		.byte	0x43
 4576 09d2 15       		.uleb128 0x15
 4577 09d3 5F6C6200 		.ascii	"_lb\000"
 4578 09d7 0A       		.byte	0xa
 4579 09d8 D7       		.byte	0xd7
 4580 09d9 D2080000 		.4byte	0x8d2
 4581 09dd 44       		.byte	0x44
 4582 09de 07       		.uleb128 0x7
 4583 09df 0C130000 		.4byte	.LASF167
 4584 09e3 0A       		.byte	0xa
 4585 09e4 DA       		.byte	0xda
 4586 09e5 A6000000 		.4byte	0xa6
 4587 09e9 4C       		.byte	0x4c
 4588 09ea 07       		.uleb128 0x7
 4589 09eb 8B060000 		.4byte	.LASF168
 4590 09ef 0A       		.byte	0xa
 4591 09f0 DB       		.byte	0xdb
 4592 09f1 B2060000 		.4byte	0x6b2
 4593 09f5 50       		.byte	0x50
 4594 09f6 07       		.uleb128 0x7
 4595 09f7 B1110000 		.4byte	.LASF169
 4596 09fb 0A       		.byte	0xa
 4597 09fc DE       		.byte	0xde
 4598 09fd 450A0000 		.4byte	0xa45
 4599 0a01 54       		.byte	0x54
 4600 0a02 07       		.uleb128 0x7
 4601 0a03 1A130000 		.4byte	.LASF170
 4602 0a07 0A       		.byte	0xa
 4603 0a08 E2       		.byte	0xe2
 4604 0a09 2F070000 		.4byte	0x72f
 4605 0a0d 58       		.byte	0x58
 4606 0a0e 07       		.uleb128 0x7
 4607 0a0f 15030000 		.4byte	.LASF171
 4608 0a13 0A       		.byte	0xa
 4609 0a14 E4       		.byte	0xe4
 4610 0a15 24070000 		.4byte	0x724
 4611 0a19 5C       		.byte	0x5c
 4612 0a1a 07       		.uleb128 0x7
 4613 0a1b 86170000 		.4byte	.LASF172
 4614 0a1f 0A       		.byte	0xa
 4615 0a20 E5       		.byte	0xe5
 4616 0a21 A6000000 		.4byte	0xa6
 4617 0a25 64       		.byte	0x64
ARM GAS  C:\Users\Moi\AppData\Local\Temp\ccWeMAis.s 			page 82


 4618 0a26 00       		.byte	0
 4619 0a27 19       		.uleb128 0x19
 4620 0a28 A6000000 		.4byte	0xa6
 4621 0a2c 450A0000 		.4byte	0xa45
 4622 0a30 1A       		.uleb128 0x1a
 4623 0a31 450A0000 		.4byte	0xa45
 4624 0a35 1A       		.uleb128 0x1a
 4625 0a36 9A060000 		.4byte	0x69a
 4626 0a3a 1A       		.uleb128 0x1a
 4627 0a3b 820B0000 		.4byte	0xb82
 4628 0a3f 1A       		.uleb128 0x1a
 4629 0a40 A6000000 		.4byte	0xa6
 4630 0a44 00       		.byte	0
 4631 0a45 0F       		.uleb128 0xf
 4632 0a46 04       		.byte	0x4
 4633 0a47 500A0000 		.4byte	0xa50
 4634 0a4b 05       		.uleb128 0x5
 4635 0a4c 450A0000 		.4byte	0xa45
 4636 0a50 1B       		.uleb128 0x1b
 4637 0a51 2F100000 		.4byte	.LASF173
 4638 0a55 2804     		.2byte	0x428
 4639 0a57 0A       		.byte	0xa
 4640 0a58 3902     		.2byte	0x239
 4641 0a5a 820B0000 		.4byte	0xb82
 4642 0a5e 0A       		.uleb128 0xa
 4643 0a5f 59020000 		.4byte	.LASF174
 4644 0a63 0A       		.byte	0xa
 4645 0a64 3B02     		.2byte	0x23b
 4646 0a66 A6000000 		.4byte	0xa6
 4647 0a6a 00       		.byte	0
 4648 0a6b 0A       		.uleb128 0xa
 4649 0a6c 3E0B0000 		.4byte	.LASF175
 4650 0a70 0A       		.byte	0xa
 4651 0a71 4002     		.2byte	0x240
 4652 0a73 5D0C0000 		.4byte	0xc5d
 4653 0a77 04       		.byte	0x4
 4654 0a78 0A       		.uleb128 0xa
 4655 0a79 39140000 		.4byte	.LASF176
 4656 0a7d 0A       		.byte	0xa
 4657 0a7e 4002     		.2byte	0x240
 4658 0a80 5D0C0000 		.4byte	0xc5d
 4659 0a84 08       		.byte	0x8
 4660 0a85 0A       		.uleb128 0xa
 4661 0a86 1E180000 		.4byte	.LASF177
 4662 0a8a 0A       		.byte	0xa
 4663 0a8b 4002     		.2byte	0x240
 4664 0a8d 5D0C0000 		.4byte	0xc5d
 4665 0a91 0C       		.byte	0xc
 4666 0a92 0A       		.uleb128 0xa
 4667 0a93 E1070000 		.4byte	.LASF178
 4668 0a97 0A       		.byte	0xa
 4669 0a98 4202     		.2byte	0x242
 4670 0a9a A6000000 		.4byte	0xa6
 4671 0a9e 10       		.byte	0x10
 4672 0a9f 0A       		.uleb128 0xa
 4673 0aa0 D8060000 		.4byte	.LASF179
 4674 0aa4 0A       		.byte	0xa
ARM GAS  C:\Users\Moi\AppData\Local\Temp\ccWeMAis.s 			page 83


 4675 0aa5 4302     		.2byte	0x243
 4676 0aa7 3F0E0000 		.4byte	0xe3f
 4677 0aab 14       		.byte	0x14
 4678 0aac 0A       		.uleb128 0xa
 4679 0aad 6D170000 		.4byte	.LASF180
 4680 0ab1 0A       		.byte	0xa
 4681 0ab2 4602     		.2byte	0x246
 4682 0ab4 A6000000 		.4byte	0xa6
 4683 0ab8 30       		.byte	0x30
 4684 0ab9 0A       		.uleb128 0xa
 4685 0aba FE150000 		.4byte	.LASF181
 4686 0abe 0A       		.byte	0xa
 4687 0abf 4702     		.2byte	0x247
 4688 0ac1 540E0000 		.4byte	0xe54
 4689 0ac5 34       		.byte	0x34
 4690 0ac6 0A       		.uleb128 0xa
 4691 0ac7 CD0A0000 		.4byte	.LASF182
 4692 0acb 0A       		.byte	0xa
 4693 0acc 4902     		.2byte	0x249
 4694 0ace A6000000 		.4byte	0xa6
 4695 0ad2 38       		.byte	0x38
 4696 0ad3 0A       		.uleb128 0xa
 4697 0ad4 990C0000 		.4byte	.LASF183
 4698 0ad8 0A       		.byte	0xa
 4699 0ad9 4B02     		.2byte	0x24b
 4700 0adb 650E0000 		.4byte	0xe65
 4701 0adf 3C       		.byte	0x3c
 4702 0ae0 0A       		.uleb128 0xa
 4703 0ae1 44040000 		.4byte	.LASF184
 4704 0ae5 0A       		.byte	0xa
 4705 0ae6 4E02     		.2byte	0x24e
 4706 0ae8 98070000 		.4byte	0x798
 4707 0aec 40       		.byte	0x40
 4708 0aed 0A       		.uleb128 0xa
 4709 0aee AF050000 		.4byte	.LASF185
 4710 0af2 0A       		.byte	0xa
 4711 0af3 4F02     		.2byte	0x24f
 4712 0af5 A6000000 		.4byte	0xa6
 4713 0af9 44       		.byte	0x44
 4714 0afa 0A       		.uleb128 0xa
 4715 0afb 11090000 		.4byte	.LASF186
 4716 0aff 0A       		.byte	0xa
 4717 0b00 5002     		.2byte	0x250
 4718 0b02 98070000 		.4byte	0x798
 4719 0b06 48       		.byte	0x48
 4720 0b07 0A       		.uleb128 0xa
 4721 0b08 C30B0000 		.4byte	.LASF187
 4722 0b0c 0A       		.byte	0xa
 4723 0b0d 5102     		.2byte	0x251
 4724 0b0f 6B0E0000 		.4byte	0xe6b
 4725 0b13 4C       		.byte	0x4c
 4726 0b14 0A       		.uleb128 0xa
 4727 0b15 6C120000 		.4byte	.LASF188
 4728 0b19 0A       		.byte	0xa
 4729 0b1a 5402     		.2byte	0x254
 4730 0b1c A6000000 		.4byte	0xa6
 4731 0b20 50       		.byte	0x50
ARM GAS  C:\Users\Moi\AppData\Local\Temp\ccWeMAis.s 			page 84


 4732 0b21 0A       		.uleb128 0xa
 4733 0b22 41140000 		.4byte	.LASF189
 4734 0b26 0A       		.byte	0xa
 4735 0b27 5502     		.2byte	0x255
 4736 0b29 820B0000 		.4byte	0xb82
 4737 0b2d 54       		.byte	0x54
 4738 0b2e 0A       		.uleb128 0xa
 4739 0b2f 67120000 		.4byte	.LASF190
 4740 0b33 0A       		.byte	0xa
 4741 0b34 7802     		.2byte	0x278
 4742 0b36 1D0E0000 		.4byte	0xe1d
 4743 0b3a 58       		.byte	0x58
 4744 0b3b 0E       		.uleb128 0xe
 4745 0b3c 27100000 		.4byte	.LASF150
 4746 0b40 0A       		.byte	0xa
 4747 0b41 7C02     		.2byte	0x27c
 4748 0b43 B5080000 		.4byte	0x8b5
 4749 0b47 4801     		.2byte	0x148
 4750 0b49 0E       		.uleb128 0xe
 4751 0b4a A9090000 		.4byte	.LASF191
 4752 0b4e 0A       		.byte	0xa
 4753 0b4f 7D02     		.2byte	0x27d
 4754 0b51 77080000 		.4byte	0x877
 4755 0b55 4C01     		.2byte	0x14c
 4756 0b57 0E       		.uleb128 0xe
 4757 0b58 90090000 		.4byte	.LASF192
 4758 0b5c 0A       		.byte	0xa
 4759 0b5d 8102     		.2byte	0x281
 4760 0b5f 7C0E0000 		.4byte	0xe7c
 4761 0b63 DC02     		.2byte	0x2dc
 4762 0b65 0E       		.uleb128 0xe
 4763 0b66 C3150000 		.4byte	.LASF193
 4764 0b6a 0A       		.byte	0xa
 4765 0b6b 8602     		.2byte	0x286
 4766 0b6d 220C0000 		.4byte	0xc22
 4767 0b71 E002     		.2byte	0x2e0
 4768 0b73 0E       		.uleb128 0xe
 4769 0b74 56110000 		.4byte	.LASF194
 4770 0b78 0A       		.byte	0xa
 4771 0b79 8802     		.2byte	0x288
 4772 0b7b 880E0000 		.4byte	0xe88
 4773 0b7f EC02     		.2byte	0x2ec
 4774 0b81 00       		.byte	0
 4775 0b82 0F       		.uleb128 0xf
 4776 0b83 04       		.byte	0x4
 4777 0b84 7D010000 		.4byte	0x17d
 4778 0b88 0F       		.uleb128 0xf
 4779 0b89 04       		.byte	0x4
 4780 0b8a 270A0000 		.4byte	0xa27
 4781 0b8e 19       		.uleb128 0x19
 4782 0b8f A6000000 		.4byte	0xa6
 4783 0b93 AC0B0000 		.4byte	0xbac
 4784 0b97 1A       		.uleb128 0x1a
 4785 0b98 450A0000 		.4byte	0xa45
 4786 0b9c 1A       		.uleb128 0x1a
 4787 0b9d 9A060000 		.4byte	0x69a
 4788 0ba1 1A       		.uleb128 0x1a
ARM GAS  C:\Users\Moi\AppData\Local\Temp\ccWeMAis.s 			page 85


 4789 0ba2 AC0B0000 		.4byte	0xbac
 4790 0ba6 1A       		.uleb128 0x1a
 4791 0ba7 A6000000 		.4byte	0xa6
 4792 0bab 00       		.byte	0
 4793 0bac 0F       		.uleb128 0xf
 4794 0bad 04       		.byte	0x4
 4795 0bae 84010000 		.4byte	0x184
 4796 0bb2 0F       		.uleb128 0xf
 4797 0bb3 04       		.byte	0x4
 4798 0bb4 8E0B0000 		.4byte	0xb8e
 4799 0bb8 19       		.uleb128 0x19
 4800 0bb9 BD060000 		.4byte	0x6bd
 4801 0bbd D60B0000 		.4byte	0xbd6
 4802 0bc1 1A       		.uleb128 0x1a
 4803 0bc2 450A0000 		.4byte	0xa45
 4804 0bc6 1A       		.uleb128 0x1a
 4805 0bc7 9A060000 		.4byte	0x69a
 4806 0bcb 1A       		.uleb128 0x1a
 4807 0bcc BD060000 		.4byte	0x6bd
 4808 0bd0 1A       		.uleb128 0x1a
 4809 0bd1 A6000000 		.4byte	0xa6
 4810 0bd5 00       		.byte	0
 4811 0bd6 0F       		.uleb128 0xf
 4812 0bd7 04       		.byte	0x4
 4813 0bd8 B80B0000 		.4byte	0xbb8
 4814 0bdc 19       		.uleb128 0x19
 4815 0bdd A6000000 		.4byte	0xa6
 4816 0be1 F00B0000 		.4byte	0xbf0
 4817 0be5 1A       		.uleb128 0x1a
 4818 0be6 450A0000 		.4byte	0xa45
 4819 0bea 1A       		.uleb128 0x1a
 4820 0beb 9A060000 		.4byte	0x69a
 4821 0bef 00       		.byte	0
 4822 0bf0 0F       		.uleb128 0xf
 4823 0bf1 04       		.byte	0x4
 4824 0bf2 DC0B0000 		.4byte	0xbdc
 4825 0bf6 08       		.uleb128 0x8
 4826 0bf7 49000000 		.4byte	0x49
 4827 0bfb 060C0000 		.4byte	0xc06
 4828 0bff 09       		.uleb128 0x9
 4829 0c00 25000000 		.4byte	0x25
 4830 0c04 02       		.byte	0x2
 4831 0c05 00       		.byte	0
 4832 0c06 08       		.uleb128 0x8
 4833 0c07 49000000 		.4byte	0x49
 4834 0c0b 160C0000 		.4byte	0xc16
 4835 0c0f 09       		.uleb128 0x9
 4836 0c10 25000000 		.4byte	0x25
 4837 0c14 00       		.byte	0
 4838 0c15 00       		.byte	0
 4839 0c16 0B       		.uleb128 0xb
 4840 0c17 76060000 		.4byte	.LASF195
 4841 0c1b 0A       		.byte	0xa
 4842 0c1c 1F01     		.2byte	0x11f
 4843 0c1e FD080000 		.4byte	0x8fd
 4844 0c22 1C       		.uleb128 0x1c
 4845 0c23 A7150000 		.4byte	.LASF196
ARM GAS  C:\Users\Moi\AppData\Local\Temp\ccWeMAis.s 			page 86


 4846 0c27 0C       		.byte	0xc
 4847 0c28 0A       		.byte	0xa
 4848 0c29 2301     		.2byte	0x123
 4849 0c2b 570C0000 		.4byte	0xc57
 4850 0c2f 0A       		.uleb128 0xa
 4851 0c30 4B080000 		.4byte	.LASF130
 4852 0c34 0A       		.byte	0xa
 4853 0c35 2501     		.2byte	0x125
 4854 0c37 570C0000 		.4byte	0xc57
 4855 0c3b 00       		.byte	0
 4856 0c3c 0A       		.uleb128 0xa
 4857 0c3d 8A130000 		.4byte	.LASF197
 4858 0c41 0A       		.byte	0xa
 4859 0c42 2601     		.2byte	0x126
 4860 0c44 A6000000 		.4byte	0xa6
 4861 0c48 04       		.byte	0x4
 4862 0c49 0A       		.uleb128 0xa
 4863 0c4a 7E0A0000 		.4byte	.LASF198
 4864 0c4e 0A       		.byte	0xa
 4865 0c4f 2701     		.2byte	0x127
 4866 0c51 5D0C0000 		.4byte	0xc5d
 4867 0c55 08       		.byte	0x8
 4868 0c56 00       		.byte	0
 4869 0c57 0F       		.uleb128 0xf
 4870 0c58 04       		.byte	0x4
 4871 0c59 220C0000 		.4byte	0xc22
 4872 0c5d 0F       		.uleb128 0xf
 4873 0c5e 04       		.byte	0x4
 4874 0c5f 160C0000 		.4byte	0xc16
 4875 0c63 1C       		.uleb128 0x1c
 4876 0c64 62050000 		.4byte	.LASF199
 4877 0c68 0E       		.byte	0xe
 4878 0c69 0A       		.byte	0xa
 4879 0c6a 3F01     		.2byte	0x13f
 4880 0c6c 980C0000 		.4byte	0xc98
 4881 0c70 0A       		.uleb128 0xa
 4882 0c71 D1170000 		.4byte	.LASF200
 4883 0c75 0A       		.byte	0xa
 4884 0c76 4001     		.2byte	0x140
 4885 0c78 980C0000 		.4byte	0xc98
 4886 0c7c 00       		.byte	0
 4887 0c7d 0A       		.uleb128 0xa
 4888 0c7e E30B0000 		.4byte	.LASF201
 4889 0c82 0A       		.byte	0xa
 4890 0c83 4101     		.2byte	0x141
 4891 0c85 980C0000 		.4byte	0xc98
 4892 0c89 06       		.byte	0x6
 4893 0c8a 0A       		.uleb128 0xa
 4894 0c8b 10150000 		.4byte	.LASF202
 4895 0c8f 0A       		.byte	0xa
 4896 0c90 4201     		.2byte	0x142
 4897 0c92 6D000000 		.4byte	0x6d
 4898 0c96 0C       		.byte	0xc
 4899 0c97 00       		.byte	0
 4900 0c98 08       		.uleb128 0x8
 4901 0c99 6D000000 		.4byte	0x6d
 4902 0c9d A80C0000 		.4byte	0xca8
ARM GAS  C:\Users\Moi\AppData\Local\Temp\ccWeMAis.s 			page 87


 4903 0ca1 09       		.uleb128 0x9
 4904 0ca2 25000000 		.4byte	0x25
 4905 0ca6 02       		.byte	0x2
 4906 0ca7 00       		.byte	0
 4907 0ca8 0C       		.uleb128 0xc
 4908 0ca9 D0       		.byte	0xd0
 4909 0caa 0A       		.byte	0xa
 4910 0cab 5902     		.2byte	0x259
 4911 0cad A90D0000 		.4byte	0xda9
 4912 0cb1 0A       		.uleb128 0xa
 4913 0cb2 0E170000 		.4byte	.LASF203
 4914 0cb6 0A       		.byte	0xa
 4915 0cb7 5B02     		.2byte	0x25b
 4916 0cb9 25000000 		.4byte	0x25
 4917 0cbd 00       		.byte	0
 4918 0cbe 0A       		.uleb128 0xa
 4919 0cbf D7150000 		.4byte	.LASF204
 4920 0cc3 0A       		.byte	0xa
 4921 0cc4 5C02     		.2byte	0x25c
 4922 0cc6 820B0000 		.4byte	0xb82
 4923 0cca 04       		.byte	0x4
 4924 0ccb 0A       		.uleb128 0xa
 4925 0ccc 0F060000 		.4byte	.LASF205
 4926 0cd0 0A       		.byte	0xa
 4927 0cd1 5D02     		.2byte	0x25d
 4928 0cd3 A90D0000 		.4byte	0xda9
 4929 0cd7 08       		.byte	0x8
 4930 0cd8 0A       		.uleb128 0xa
 4931 0cd9 0F120000 		.4byte	.LASF206
 4932 0cdd 0A       		.byte	0xa
 4933 0cde 5E02     		.2byte	0x25e
 4934 0ce0 AE070000 		.4byte	0x7ae
 4935 0ce4 24       		.byte	0x24
 4936 0ce5 0A       		.uleb128 0xa
 4937 0ce6 450B0000 		.4byte	.LASF207
 4938 0cea 0A       		.byte	0xa
 4939 0ceb 5F02     		.2byte	0x25f
 4940 0ced A6000000 		.4byte	0xa6
 4941 0cf1 48       		.byte	0x48
 4942 0cf2 0A       		.uleb128 0xa
 4943 0cf3 D7170000 		.4byte	.LASF208
 4944 0cf7 0A       		.byte	0xa
 4945 0cf8 6002     		.2byte	0x260
 4946 0cfa 9F000000 		.4byte	0x9f
 4947 0cfe 50       		.byte	0x50
 4948 0cff 0A       		.uleb128 0xa
 4949 0d00 4D010000 		.4byte	.LASF209
 4950 0d04 0A       		.byte	0xa
 4951 0d05 6102     		.2byte	0x261
 4952 0d07 630C0000 		.4byte	0xc63
 4953 0d0b 58       		.byte	0x58
 4954 0d0c 0A       		.uleb128 0xa
 4955 0d0d 50090000 		.4byte	.LASF210
 4956 0d11 0A       		.byte	0xa
 4957 0d12 6202     		.2byte	0x262
 4958 0d14 24070000 		.4byte	0x724
 4959 0d18 68       		.byte	0x68
ARM GAS  C:\Users\Moi\AppData\Local\Temp\ccWeMAis.s 			page 88


 4960 0d19 0A       		.uleb128 0xa
 4961 0d1a E4150000 		.4byte	.LASF211
 4962 0d1e 0A       		.byte	0xa
 4963 0d1f 6302     		.2byte	0x263
 4964 0d21 24070000 		.4byte	0x724
 4965 0d25 70       		.byte	0x70
 4966 0d26 0A       		.uleb128 0xa
 4967 0d27 03010000 		.4byte	.LASF212
 4968 0d2b 0A       		.byte	0xa
 4969 0d2c 6402     		.2byte	0x264
 4970 0d2e 24070000 		.4byte	0x724
 4971 0d32 78       		.byte	0x78
 4972 0d33 0A       		.uleb128 0xa
 4973 0d34 83120000 		.4byte	.LASF213
 4974 0d38 0A       		.byte	0xa
 4975 0d39 6502     		.2byte	0x265
 4976 0d3b B90D0000 		.4byte	0xdb9
 4977 0d3f 80       		.byte	0x80
 4978 0d40 0A       		.uleb128 0xa
 4979 0d41 8F010000 		.4byte	.LASF214
 4980 0d45 0A       		.byte	0xa
 4981 0d46 6602     		.2byte	0x266
 4982 0d48 C90D0000 		.4byte	0xdc9
 4983 0d4c 88       		.byte	0x88
 4984 0d4d 0A       		.uleb128 0xa
 4985 0d4e CC140000 		.4byte	.LASF215
 4986 0d52 0A       		.byte	0xa
 4987 0d53 6702     		.2byte	0x267
 4988 0d55 A6000000 		.4byte	0xa6
 4989 0d59 A0       		.byte	0xa0
 4990 0d5a 0A       		.uleb128 0xa
 4991 0d5b 2D030000 		.4byte	.LASF216
 4992 0d5f 0A       		.byte	0xa
 4993 0d60 6802     		.2byte	0x268
 4994 0d62 24070000 		.4byte	0x724
 4995 0d66 A4       		.byte	0xa4
 4996 0d67 0A       		.uleb128 0xa
 4997 0d68 9A090000 		.4byte	.LASF217
 4998 0d6c 0A       		.byte	0xa
 4999 0d6d 6902     		.2byte	0x269
 5000 0d6f 24070000 		.4byte	0x724
 5001 0d73 AC       		.byte	0xac
 5002 0d74 0A       		.uleb128 0xa
 5003 0d75 62080000 		.4byte	.LASF218
 5004 0d79 0A       		.byte	0xa
 5005 0d7a 6A02     		.2byte	0x26a
 5006 0d7c 24070000 		.4byte	0x724
 5007 0d80 B4       		.byte	0xb4
 5008 0d81 0A       		.uleb128 0xa
 5009 0d82 3A0C0000 		.4byte	.LASF219
 5010 0d86 0A       		.byte	0xa
 5011 0d87 6B02     		.2byte	0x26b
 5012 0d89 24070000 		.4byte	0x724
 5013 0d8d BC       		.byte	0xbc
 5014 0d8e 0A       		.uleb128 0xa
 5015 0d8f 530D0000 		.4byte	.LASF220
 5016 0d93 0A       		.byte	0xa
ARM GAS  C:\Users\Moi\AppData\Local\Temp\ccWeMAis.s 			page 89


 5017 0d94 6C02     		.2byte	0x26c
 5018 0d96 24070000 		.4byte	0x724
 5019 0d9a C4       		.byte	0xc4
 5020 0d9b 0A       		.uleb128 0xa
 5021 0d9c 930D0000 		.4byte	.LASF221
 5022 0da0 0A       		.byte	0xa
 5023 0da1 6D02     		.2byte	0x26d
 5024 0da3 A6000000 		.4byte	0xa6
 5025 0da7 CC       		.byte	0xcc
 5026 0da8 00       		.byte	0
 5027 0da9 08       		.uleb128 0x8
 5028 0daa 7D010000 		.4byte	0x17d
 5029 0dae B90D0000 		.4byte	0xdb9
 5030 0db2 09       		.uleb128 0x9
 5031 0db3 25000000 		.4byte	0x25
 5032 0db7 19       		.byte	0x19
 5033 0db8 00       		.byte	0
 5034 0db9 08       		.uleb128 0x8
 5035 0dba 7D010000 		.4byte	0x17d
 5036 0dbe C90D0000 		.4byte	0xdc9
 5037 0dc2 09       		.uleb128 0x9
 5038 0dc3 25000000 		.4byte	0x25
 5039 0dc7 07       		.byte	0x7
 5040 0dc8 00       		.byte	0
 5041 0dc9 08       		.uleb128 0x8
 5042 0dca 7D010000 		.4byte	0x17d
 5043 0dce D90D0000 		.4byte	0xdd9
 5044 0dd2 09       		.uleb128 0x9
 5045 0dd3 25000000 		.4byte	0x25
 5046 0dd7 17       		.byte	0x17
 5047 0dd8 00       		.byte	0
 5048 0dd9 0C       		.uleb128 0xc
 5049 0dda F0       		.byte	0xf0
 5050 0ddb 0A       		.byte	0xa
 5051 0ddc 7202     		.2byte	0x272
 5052 0dde FD0D0000 		.4byte	0xdfd
 5053 0de2 0A       		.uleb128 0xa
 5054 0de3 15050000 		.4byte	.LASF222
 5055 0de7 0A       		.byte	0xa
 5056 0de8 7502     		.2byte	0x275
 5057 0dea FD0D0000 		.4byte	0xdfd
 5058 0dee 00       		.byte	0
 5059 0def 0A       		.uleb128 0xa
 5060 0df0 26180000 		.4byte	.LASF223
 5061 0df4 0A       		.byte	0xa
 5062 0df5 7602     		.2byte	0x276
 5063 0df7 0D0E0000 		.4byte	0xe0d
 5064 0dfb 78       		.byte	0x78
 5065 0dfc 00       		.byte	0
 5066 0dfd 08       		.uleb128 0x8
 5067 0dfe F7080000 		.4byte	0x8f7
 5068 0e02 0D0E0000 		.4byte	0xe0d
 5069 0e06 09       		.uleb128 0x9
 5070 0e07 25000000 		.4byte	0x25
 5071 0e0b 1D       		.byte	0x1d
 5072 0e0c 00       		.byte	0
 5073 0e0d 08       		.uleb128 0x8
ARM GAS  C:\Users\Moi\AppData\Local\Temp\ccWeMAis.s 			page 90


 5074 0e0e 25000000 		.4byte	0x25
 5075 0e12 1D0E0000 		.4byte	0xe1d
 5076 0e16 09       		.uleb128 0x9
 5077 0e17 25000000 		.4byte	0x25
 5078 0e1b 1D       		.byte	0x1d
 5079 0e1c 00       		.byte	0
 5080 0e1d 1D       		.uleb128 0x1d
 5081 0e1e F0       		.byte	0xf0
 5082 0e1f 0A       		.byte	0xa
 5083 0e20 5702     		.2byte	0x257
 5084 0e22 3F0E0000 		.4byte	0xe3f
 5085 0e26 1E       		.uleb128 0x1e
 5086 0e27 2F100000 		.4byte	.LASF173
 5087 0e2b 0A       		.byte	0xa
 5088 0e2c 6E02     		.2byte	0x26e
 5089 0e2e A80C0000 		.4byte	0xca8
 5090 0e32 1E       		.uleb128 0x1e
 5091 0e33 2E120000 		.4byte	.LASF224
 5092 0e37 0A       		.byte	0xa
 5093 0e38 7702     		.2byte	0x277
 5094 0e3a D90D0000 		.4byte	0xdd9
 5095 0e3e 00       		.byte	0
 5096 0e3f 08       		.uleb128 0x8
 5097 0e40 7D010000 		.4byte	0x17d
 5098 0e44 4F0E0000 		.4byte	0xe4f
 5099 0e48 09       		.uleb128 0x9
 5100 0e49 25000000 		.4byte	0x25
 5101 0e4d 18       		.byte	0x18
 5102 0e4e 00       		.byte	0
 5103 0e4f 11       		.uleb128 0x11
 5104 0e50 0A030000 		.4byte	.LASF226
 5105 0e54 0F       		.uleb128 0xf
 5106 0e55 04       		.byte	0x4
 5107 0e56 4F0E0000 		.4byte	0xe4f
 5108 0e5a 1F       		.uleb128 0x1f
 5109 0e5b 650E0000 		.4byte	0xe65
 5110 0e5f 1A       		.uleb128 0x1a
 5111 0e60 450A0000 		.4byte	0xa45
 5112 0e64 00       		.byte	0
 5113 0e65 0F       		.uleb128 0xf
 5114 0e66 04       		.byte	0x4
 5115 0e67 5A0E0000 		.4byte	0xe5a
 5116 0e6b 0F       		.uleb128 0xf
 5117 0e6c 04       		.byte	0x4
 5118 0e6d 98070000 		.4byte	0x798
 5119 0e71 1F       		.uleb128 0x1f
 5120 0e72 7C0E0000 		.4byte	0xe7c
 5121 0e76 1A       		.uleb128 0x1a
 5122 0e77 A6000000 		.4byte	0xa6
 5123 0e7b 00       		.byte	0
 5124 0e7c 0F       		.uleb128 0xf
 5125 0e7d 04       		.byte	0x4
 5126 0e7e 820E0000 		.4byte	0xe82
 5127 0e82 0F       		.uleb128 0xf
 5128 0e83 04       		.byte	0x4
 5129 0e84 710E0000 		.4byte	0xe71
 5130 0e88 08       		.uleb128 0x8
ARM GAS  C:\Users\Moi\AppData\Local\Temp\ccWeMAis.s 			page 91


 5131 0e89 160C0000 		.4byte	0xc16
 5132 0e8d 980E0000 		.4byte	0xe98
 5133 0e91 09       		.uleb128 0x9
 5134 0e92 25000000 		.4byte	0x25
 5135 0e96 02       		.byte	0x2
 5136 0e97 00       		.byte	0
 5137 0e98 20       		.uleb128 0x20
 5138 0e99 CA030000 		.4byte	.LASF227
 5139 0e9d 0A       		.byte	0xa
 5140 0e9e 0703     		.2byte	0x307
 5141 0ea0 450A0000 		.4byte	0xa45
 5142 0ea4 20       		.uleb128 0x20
 5143 0ea5 D0110000 		.4byte	.LASF228
 5144 0ea9 0A       		.byte	0xa
 5145 0eaa 0803     		.2byte	0x308
 5146 0eac 4B0A0000 		.4byte	0xa4b
 5147 0eb0 21       		.uleb128 0x21
 5148 0eb1 C001     		.2byte	0x1c0
 5149 0eb3 0B       		.byte	0xb
 5150 0eb4 44       		.byte	0x44
 5151 0eb5 E00E0000 		.4byte	0xee0
 5152 0eb9 07       		.uleb128 0x7
 5153 0eba 05180000 		.4byte	.LASF229
 5154 0ebe 0B       		.byte	0xb
 5155 0ebf 45       		.byte	0x45
 5156 0ec0 82060000 		.4byte	0x682
 5157 0ec4 00       		.byte	0
 5158 0ec5 17       		.uleb128 0x17
 5159 0ec6 11010000 		.4byte	.LASF230
 5160 0eca 0B       		.byte	0xb
 5161 0ecb 48       		.byte	0x48
 5162 0ecc 89010000 		.4byte	0x189
 5163 0ed0 5C01     		.2byte	0x15c
 5164 0ed2 17       		.uleb128 0x17
 5165 0ed3 4B110000 		.4byte	.LASF231
 5166 0ed7 0B       		.byte	0xb
 5167 0ed8 49       		.byte	0x49
 5168 0ed9 B8000000 		.4byte	0xb8
 5169 0edd BF01     		.2byte	0x1bf
 5170 0edf 00       		.byte	0
 5171 0ee0 03       		.uleb128 0x3
 5172 0ee1 3B030000 		.4byte	.LASF232
 5173 0ee5 0B       		.byte	0xb
 5174 0ee6 4B       		.byte	0x4b
 5175 0ee7 B00E0000 		.4byte	0xeb0
 5176 0eeb 03       		.uleb128 0x3
 5177 0eec B6000000 		.4byte	.LASF233
 5178 0ef0 0B       		.byte	0xb
 5179 0ef1 52       		.byte	0x52
 5180 0ef2 F60E0000 		.4byte	0xef6
 5181 0ef6 0F       		.uleb128 0xf
 5182 0ef7 04       		.byte	0x4
 5183 0ef8 E00E0000 		.4byte	0xee0
 5184 0efc 22       		.uleb128 0x22
 5185 0efd CD070000 		.4byte	.LASF234
 5186 0f01 0C       		.byte	0xc
 5187 0f02 63       		.byte	0x63
ARM GAS  C:\Users\Moi\AppData\Local\Temp\ccWeMAis.s 			page 92


 5188 0f03 820B0000 		.4byte	0xb82
 5189 0f07 08       		.uleb128 0x8
 5190 0f08 E9000000 		.4byte	0xe9
 5191 0f0c 170F0000 		.4byte	0xf17
 5192 0f10 09       		.uleb128 0x9
 5193 0f11 25000000 		.4byte	0x25
 5194 0f15 03       		.byte	0x3
 5195 0f16 00       		.byte	0
 5196 0f17 23       		.uleb128 0x23
 5197 0f18 F10C0000 		.4byte	.LASF235
 5198 0f1c 01       		.byte	0x1
 5199 0f1d 30       		.byte	0x30
 5200 0f1e 070F0000 		.4byte	0xf07
 5201 0f22 05       		.uleb128 0x5
 5202 0f23 03       		.byte	0x3
 5203 0f24 00000000 		.4byte	refArrayQuadrants
 5204 0f28 24       		.uleb128 0x24
 5205 0f29 E3060000 		.4byte	.LASF241
 5206 0f2d 01       		.byte	0x1
 5207 0f2e EF04     		.2byte	0x4ef
 5208 0f30 94010000 		.4byte	0x194
 5209 0f34 00000000 		.4byte	.LFB25
 5210 0f38 34000000 		.4byte	.LFE25-.LFB25
 5211 0f3c 01       		.uleb128 0x1
 5212 0f3d 9C       		.byte	0x9c
 5213 0f3e E60F0000 		.4byte	0xfe6
 5214 0f42 25       		.uleb128 0x25
 5215 0f43 44657600 		.ascii	"Dev\000"
 5216 0f47 01       		.byte	0x1
 5217 0f48 EF04     		.2byte	0x4ef
 5218 0f4a EB0E0000 		.4byte	0xeeb
 5219 0f4e 00000000 		.4byte	.LLST158
 5220 0f52 26       		.uleb128 0x26
 5221 0f53 B2090000 		.4byte	.LASF236
 5222 0f57 01       		.byte	0x1
 5223 0f58 F004     		.2byte	0x4f0
 5224 0f5a 7C060000 		.4byte	0x67c
 5225 0f5e 21000000 		.4byte	.LLST159
 5226 0f62 26       		.uleb128 0x26
 5227 0f63 28040000 		.4byte	.LASF237
 5228 0f67 01       		.byte	0x1
 5229 0f68 F004     		.2byte	0x4f0
 5230 0f6a 7C060000 		.4byte	0x67c
 5231 0f6e 4E000000 		.4byte	.LLST160
 5232 0f72 27       		.uleb128 0x27
 5233 0f73 CE010000 		.4byte	.LASF238
 5234 0f77 01       		.byte	0x1
 5235 0f78 F204     		.2byte	0x4f2
 5236 0f7a 94010000 		.4byte	0x194
 5237 0f7e 7B000000 		.4byte	.LLST161
 5238 0f82 28       		.uleb128 0x28
 5239 0f83 40120000 		.4byte	.LASF239
 5240 0f87 01       		.byte	0x1
 5241 0f88 F304     		.2byte	0x4f3
 5242 0f8a B8000000 		.4byte	0xb8
 5243 0f8e 00       		.byte	0
 5244 0f8f 28       		.uleb128 0x28
ARM GAS  C:\Users\Moi\AppData\Local\Temp\ccWeMAis.s 			page 93


 5245 0f90 B50A0000 		.4byte	.LASF240
 5246 0f94 01       		.byte	0x1
 5247 0f95 F404     		.2byte	0x4f4
 5248 0f97 B8000000 		.4byte	0xb8
 5249 0f9b 00       		.byte	0
 5250 0f9c 29       		.uleb128 0x29
 5251 0f9d 1E000000 		.4byte	.LVL429
 5252 0fa1 2F140000 		.4byte	0x142f
 5253 0fa5 DC0F0000 		.4byte	0xfdc
 5254 0fa9 2A       		.uleb128 0x2a
 5255 0faa 01       		.uleb128 0x1
 5256 0fab 50       		.byte	0x50
 5257 0fac 03       		.uleb128 0x3
 5258 0fad F3       		.byte	0xf3
 5259 0fae 01       		.uleb128 0x1
 5260 0faf 50       		.byte	0x50
 5261 0fb0 2A       		.uleb128 0x2a
 5262 0fb1 01       		.uleb128 0x1
 5263 0fb2 51       		.byte	0x51
 5264 0fb3 01       		.uleb128 0x1
 5265 0fb4 31       		.byte	0x31
 5266 0fb5 2A       		.uleb128 0x2a
 5267 0fb6 01       		.uleb128 0x1
 5268 0fb7 52       		.byte	0x52
 5269 0fb8 01       		.uleb128 0x1
 5270 0fb9 30       		.byte	0x30
 5271 0fba 2A       		.uleb128 0x2a
 5272 0fbb 01       		.uleb128 0x1
 5273 0fbc 53       		.byte	0x53
 5274 0fbd 01       		.uleb128 0x1
 5275 0fbe 30       		.byte	0x30
 5276 0fbf 2A       		.uleb128 0x2a
 5277 0fc0 02       		.uleb128 0x2
 5278 0fc1 7D       		.byte	0x7d
 5279 0fc2 00       		.sleb128 0
 5280 0fc3 03       		.uleb128 0x3
 5281 0fc4 F3       		.byte	0xf3
 5282 0fc5 01       		.uleb128 0x1
 5283 0fc6 51       		.byte	0x51
 5284 0fc7 2A       		.uleb128 0x2a
 5285 0fc8 02       		.uleb128 0x2
 5286 0fc9 7D       		.byte	0x7d
 5287 0fca 04       		.sleb128 4
 5288 0fcb 03       		.uleb128 0x3
 5289 0fcc F3       		.byte	0xf3
 5290 0fcd 01       		.uleb128 0x1
 5291 0fce 52       		.byte	0x52
 5292 0fcf 2A       		.uleb128 0x2a
 5293 0fd0 02       		.uleb128 0x2
 5294 0fd1 7D       		.byte	0x7d
 5295 0fd2 08       		.sleb128 8
 5296 0fd3 01       		.uleb128 0x1
 5297 0fd4 31       		.byte	0x31
 5298 0fd5 2A       		.uleb128 0x2a
 5299 0fd6 02       		.uleb128 0x2
 5300 0fd7 7D       		.byte	0x7d
 5301 0fd8 0C       		.sleb128 12
ARM GAS  C:\Users\Moi\AppData\Local\Temp\ccWeMAis.s 			page 94


 5302 0fd9 01       		.uleb128 0x1
 5303 0fda 31       		.byte	0x31
 5304 0fdb 00       		.byte	0
 5305 0fdc 2B       		.uleb128 0x2b
 5306 0fdd 2E000000 		.4byte	.LVL430
 5307 0fe1 822B0000 		.4byte	0x2b82
 5308 0fe5 00       		.byte	0
 5309 0fe6 24       		.uleb128 0x24
 5310 0fe7 D00F0000 		.4byte	.LASF242
 5311 0feb 01       		.byte	0x1
 5312 0fec E004     		.2byte	0x4e0
 5313 0fee 94010000 		.4byte	0x194
 5314 0ff2 00000000 		.4byte	.LFB24
 5315 0ff6 3C000000 		.4byte	.LFE24-.LFB24
 5316 0ffa 01       		.uleb128 0x1
 5317 0ffb 9C       		.byte	0x9c
 5318 0ffc 9E100000 		.4byte	0x109e
 5319 1000 25       		.uleb128 0x25
 5320 1001 44657600 		.ascii	"Dev\000"
 5321 1005 01       		.byte	0x1
 5322 1006 E004     		.2byte	0x4e0
 5323 1008 EB0E0000 		.4byte	0xeeb
 5324 100c 9A000000 		.4byte	.LLST154
 5325 1010 26       		.uleb128 0x26
 5326 1011 40120000 		.4byte	.LASF239
 5327 1015 01       		.byte	0x1
 5328 1016 E104     		.2byte	0x4e1
 5329 1018 B8000000 		.4byte	0xb8
 5330 101c BB000000 		.4byte	.LLST155
 5331 1020 26       		.uleb128 0x26
 5332 1021 B50A0000 		.4byte	.LASF240
 5333 1025 01       		.byte	0x1
 5334 1026 E104     		.2byte	0x4e1
 5335 1028 B8000000 		.4byte	0xb8
 5336 102c DC000000 		.4byte	.LLST156
 5337 1030 27       		.uleb128 0x27
 5338 1031 CE010000 		.4byte	.LASF238
 5339 1035 01       		.byte	0x1
 5340 1036 E304     		.2byte	0x4e3
 5341 1038 94010000 		.4byte	0x194
 5342 103c FD000000 		.4byte	.LLST157
 5343 1040 2C       		.uleb128 0x2c
 5344 1041 B2090000 		.4byte	.LASF236
 5345 1045 01       		.byte	0x1
 5346 1046 E404     		.2byte	0x4e4
 5347 1048 B8000000 		.4byte	0xb8
 5348 104c 02       		.uleb128 0x2
 5349 104d 91       		.byte	0x91
 5350 104e 6A       		.sleb128 -22
 5351 104f 2C       		.uleb128 0x2c
 5352 1050 28040000 		.4byte	.LASF237
 5353 1054 01       		.byte	0x1
 5354 1055 E504     		.2byte	0x4e5
 5355 1057 B8000000 		.4byte	0xb8
 5356 105b 02       		.uleb128 0x2
 5357 105c 91       		.byte	0x91
 5358 105d 6B       		.sleb128 -21
ARM GAS  C:\Users\Moi\AppData\Local\Temp\ccWeMAis.s 			page 95


 5359 105e 29       		.uleb128 0x29
 5360 105f 26000000 		.4byte	.LVL423
 5361 1063 2F140000 		.4byte	0x142f
 5362 1067 94100000 		.4byte	0x1094
 5363 106b 2A       		.uleb128 0x2a
 5364 106c 01       		.uleb128 0x1
 5365 106d 50       		.byte	0x50
 5366 106e 03       		.uleb128 0x3
 5367 106f F3       		.byte	0xf3
 5368 1070 01       		.uleb128 0x1
 5369 1071 50       		.byte	0x50
 5370 1072 2A       		.uleb128 0x2a
 5371 1073 01       		.uleb128 0x1
 5372 1074 51       		.byte	0x51
 5373 1075 01       		.uleb128 0x1
 5374 1076 30       		.byte	0x30
 5375 1077 2A       		.uleb128 0x2a
 5376 1078 02       		.uleb128 0x2
 5377 1079 7D       		.byte	0x7d
 5378 107a 00       		.sleb128 0
 5379 107b 02       		.uleb128 0x2
 5380 107c 91       		.byte	0x91
 5381 107d 6A       		.sleb128 -22
 5382 107e 2A       		.uleb128 0x2a
 5383 107f 02       		.uleb128 0x2
 5384 1080 7D       		.byte	0x7d
 5385 1081 04       		.sleb128 4
 5386 1082 02       		.uleb128 0x2
 5387 1083 91       		.byte	0x91
 5388 1084 6B       		.sleb128 -21
 5389 1085 2A       		.uleb128 0x2a
 5390 1086 02       		.uleb128 0x2
 5391 1087 7D       		.byte	0x7d
 5392 1088 08       		.sleb128 8
 5393 1089 02       		.uleb128 0x2
 5394 108a 75       		.byte	0x75
 5395 108b 00       		.sleb128 0
 5396 108c 2A       		.uleb128 0x2a
 5397 108d 02       		.uleb128 0x2
 5398 108e 7D       		.byte	0x7d
 5399 108f 0C       		.sleb128 12
 5400 1090 02       		.uleb128 0x2
 5401 1091 75       		.byte	0x75
 5402 1092 00       		.sleb128 0
 5403 1093 00       		.byte	0
 5404 1094 2B       		.uleb128 0x2b
 5405 1095 36000000 		.4byte	.LVL424
 5406 1099 822B0000 		.4byte	0x2b82
 5407 109d 00       		.byte	0
 5408 109e 24       		.uleb128 0x24
 5409 109f 70180000 		.4byte	.LASF243
 5410 10a3 01       		.byte	0x1
 5411 10a4 BD04     		.2byte	0x4bd
 5412 10a6 94010000 		.4byte	0x194
 5413 10aa 00000000 		.4byte	.LFB23
 5414 10ae 5C000000 		.4byte	.LFE23-.LFB23
 5415 10b2 01       		.uleb128 0x1
ARM GAS  C:\Users\Moi\AppData\Local\Temp\ccWeMAis.s 			page 96


 5416 10b3 9C       		.byte	0x9c
 5417 10b4 85110000 		.4byte	0x1185
 5418 10b8 25       		.uleb128 0x25
 5419 10b9 44657600 		.ascii	"Dev\000"
 5420 10bd 01       		.byte	0x1
 5421 10be BD04     		.2byte	0x4bd
 5422 10c0 EB0E0000 		.4byte	0xeeb
 5423 10c4 1C010000 		.4byte	.LLST127
 5424 10c8 26       		.uleb128 0x26
 5425 10c9 B2090000 		.4byte	.LASF236
 5426 10cd 01       		.byte	0x1
 5427 10ce BE04     		.2byte	0x4be
 5428 10d0 7C060000 		.4byte	0x67c
 5429 10d4 3A010000 		.4byte	.LLST128
 5430 10d8 26       		.uleb128 0x26
 5431 10d9 28040000 		.4byte	.LASF237
 5432 10dd 01       		.byte	0x1
 5433 10de BE04     		.2byte	0x4be
 5434 10e0 7C060000 		.4byte	0x67c
 5435 10e4 5B010000 		.4byte	.LLST129
 5436 10e8 26       		.uleb128 0x26
 5437 10e9 1E120000 		.4byte	.LASF244
 5438 10ed 01       		.byte	0x1
 5439 10ee BE04     		.2byte	0x4be
 5440 10f0 B8000000 		.4byte	0xb8
 5441 10f4 79010000 		.4byte	.LLST130
 5442 10f8 27       		.uleb128 0x27
 5443 10f9 CE010000 		.4byte	.LASF238
 5444 10fd 01       		.byte	0x1
 5445 10fe C004     		.2byte	0x4c0
 5446 1100 94010000 		.4byte	0x194
 5447 1104 9A010000 		.4byte	.LLST131
 5448 1108 2C       		.uleb128 0x2c
 5449 1109 18100000 		.4byte	.LASF103
 5450 110d 01       		.byte	0x1
 5451 110e C104     		.2byte	0x4c1
 5452 1110 B8000000 		.4byte	0xb8
 5453 1114 01       		.uleb128 0x1
 5454 1115 57       		.byte	0x57
 5455 1116 29       		.uleb128 0x29
 5456 1117 1E000000 		.4byte	.LVL339
 5457 111b CB120000 		.4byte	0x12cb
 5458 111f 3C110000 		.4byte	0x113c
 5459 1123 2A       		.uleb128 0x2a
 5460 1124 01       		.uleb128 0x1
 5461 1125 50       		.byte	0x50
 5462 1126 02       		.uleb128 0x2
 5463 1127 75       		.byte	0x75
 5464 1128 00       		.sleb128 0
 5465 1129 2A       		.uleb128 0x2a
 5466 112a 01       		.uleb128 0x1
 5467 112b 51       		.byte	0x51
 5468 112c 03       		.uleb128 0x3
 5469 112d F3       		.byte	0xf3
 5470 112e 01       		.uleb128 0x1
 5471 112f 51       		.byte	0x51
 5472 1130 2A       		.uleb128 0x2a
ARM GAS  C:\Users\Moi\AppData\Local\Temp\ccWeMAis.s 			page 97


 5473 1131 01       		.uleb128 0x1
 5474 1132 52       		.byte	0x52
 5475 1133 02       		.uleb128 0x2
 5476 1134 76       		.byte	0x76
 5477 1135 00       		.sleb128 0
 5478 1136 2A       		.uleb128 0x2a
 5479 1137 01       		.uleb128 0x1
 5480 1138 53       		.byte	0x53
 5481 1139 01       		.uleb128 0x1
 5482 113a 30       		.byte	0x30
 5483 113b 00       		.byte	0
 5484 113c 29       		.uleb128 0x29
 5485 113d 3A000000 		.4byte	.LVL342
 5486 1141 85110000 		.4byte	0x1185
 5487 1145 5C110000 		.4byte	0x115c
 5488 1149 2A       		.uleb128 0x2a
 5489 114a 01       		.uleb128 0x1
 5490 114b 50       		.byte	0x50
 5491 114c 02       		.uleb128 0x2
 5492 114d 75       		.byte	0x75
 5493 114e 00       		.sleb128 0
 5494 114f 2A       		.uleb128 0x2a
 5495 1150 01       		.uleb128 0x1
 5496 1151 51       		.byte	0x51
 5497 1152 02       		.uleb128 0x2
 5498 1153 78       		.byte	0x78
 5499 1154 00       		.sleb128 0
 5500 1155 2A       		.uleb128 0x2a
 5501 1156 01       		.uleb128 0x1
 5502 1157 52       		.byte	0x52
 5503 1158 02       		.uleb128 0x2
 5504 1159 76       		.byte	0x76
 5505 115a 00       		.sleb128 0
 5506 115b 00       		.byte	0
 5507 115c 29       		.uleb128 0x29
 5508 115d 48000000 		.4byte	.LVL344
 5509 1161 8B2B0000 		.4byte	0x2b8b
 5510 1165 7B110000 		.4byte	0x117b
 5511 1169 2A       		.uleb128 0x2a
 5512 116a 01       		.uleb128 0x1
 5513 116b 50       		.byte	0x50
 5514 116c 02       		.uleb128 0x2
 5515 116d 75       		.byte	0x75
 5516 116e 00       		.sleb128 0
 5517 116f 2A       		.uleb128 0x2a
 5518 1170 01       		.uleb128 0x1
 5519 1171 51       		.byte	0x51
 5520 1172 01       		.uleb128 0x1
 5521 1173 31       		.byte	0x31
 5522 1174 2A       		.uleb128 0x2a
 5523 1175 01       		.uleb128 0x1
 5524 1176 52       		.byte	0x52
 5525 1177 02       		.uleb128 0x2
 5526 1178 77       		.byte	0x77
 5527 1179 00       		.sleb128 0
 5528 117a 00       		.byte	0
 5529 117b 2B       		.uleb128 0x2b
ARM GAS  C:\Users\Moi\AppData\Local\Temp\ccWeMAis.s 			page 98


 5530 117c 56000000 		.4byte	.LVL345
 5531 1180 822B0000 		.4byte	0x2b82
 5532 1184 00       		.byte	0
 5533 1185 24       		.uleb128 0x24
 5534 1186 20000000 		.4byte	.LASF245
 5535 118a 01       		.byte	0x1
 5536 118b 9004     		.2byte	0x490
 5537 118d 94010000 		.4byte	0x194
 5538 1191 00000000 		.4byte	.LFB22
 5539 1195 A0000000 		.4byte	.LFE22-.LFB22
 5540 1199 01       		.uleb128 0x1
 5541 119a 9C       		.byte	0x9c
 5542 119b CB120000 		.4byte	0x12cb
 5543 119f 25       		.uleb128 0x25
 5544 11a0 44657600 		.ascii	"Dev\000"
 5545 11a4 01       		.byte	0x1
 5546 11a5 9004     		.2byte	0x490
 5547 11a7 EB0E0000 		.4byte	0xeeb
 5548 11ab CF010000 		.4byte	.LLST121
 5549 11af 26       		.uleb128 0x26
 5550 11b0 28040000 		.4byte	.LASF237
 5551 11b4 01       		.byte	0x1
 5552 11b5 9104     		.2byte	0x491
 5553 11b7 7C060000 		.4byte	0x67c
 5554 11bb 03020000 		.4byte	.LLST122
 5555 11bf 26       		.uleb128 0x26
 5556 11c0 1E120000 		.4byte	.LASF244
 5557 11c4 01       		.byte	0x1
 5558 11c5 9104     		.2byte	0x491
 5559 11c7 C3000000 		.4byte	0xc3
 5560 11cb 37020000 		.4byte	.LLST123
 5561 11cf 26       		.uleb128 0x26
 5562 11d0 FF060000 		.4byte	.LASF246
 5563 11d4 01       		.byte	0x1
 5564 11d5 9204     		.2byte	0x492
 5565 11d7 C3000000 		.4byte	0xc3
 5566 11db 71020000 		.4byte	.LLST124
 5567 11df 27       		.uleb128 0x27
 5568 11e0 CE010000 		.4byte	.LASF238
 5569 11e4 01       		.byte	0x1
 5570 11e5 9404     		.2byte	0x494
 5571 11e7 94010000 		.4byte	0x194
 5572 11eb AB020000 		.4byte	.LLST125
 5573 11ef 27       		.uleb128 0x27
 5574 11f0 18100000 		.4byte	.LASF103
 5575 11f4 01       		.byte	0x1
 5576 11f5 9504     		.2byte	0x495
 5577 11f7 B8000000 		.4byte	0xb8
 5578 11fb 18030000 		.4byte	.LLST126
 5579 11ff 28       		.uleb128 0x28
 5580 1200 40120000 		.4byte	.LASF239
 5581 1204 01       		.byte	0x1
 5582 1205 9604     		.2byte	0x496
 5583 1207 B8000000 		.4byte	0xb8
 5584 120b 00       		.byte	0
 5585 120c 28       		.uleb128 0x28
 5586 120d B50A0000 		.4byte	.LASF240
ARM GAS  C:\Users\Moi\AppData\Local\Temp\ccWeMAis.s 			page 99


 5587 1211 01       		.byte	0x1
 5588 1212 9704     		.2byte	0x497
 5589 1214 B8000000 		.4byte	0xb8
 5590 1218 00       		.byte	0
 5591 1219 2C       		.uleb128 0x2c
 5592 121a 8C020000 		.4byte	.LASF247
 5593 121e 01       		.byte	0x1
 5594 121f 9804     		.2byte	0x498
 5595 1221 B8000000 		.4byte	0xb8
 5596 1225 02       		.uleb128 0x2
 5597 1226 91       		.byte	0x91
 5598 1227 5B       		.sleb128 -37
 5599 1228 29       		.uleb128 0x29
 5600 1229 24000000 		.4byte	.LVL323
 5601 122d 8B2B0000 		.4byte	0x2b8b
 5602 1231 46120000 		.4byte	0x1246
 5603 1235 2A       		.uleb128 0x2a
 5604 1236 01       		.uleb128 0x1
 5605 1237 50       		.byte	0x50
 5606 1238 02       		.uleb128 0x2
 5607 1239 75       		.byte	0x75
 5608 123a 00       		.sleb128 0
 5609 123b 2A       		.uleb128 0x2a
 5610 123c 01       		.uleb128 0x1
 5611 123d 51       		.byte	0x51
 5612 123e 01       		.uleb128 0x1
 5613 123f 31       		.byte	0x31
 5614 1240 2A       		.uleb128 0x2a
 5615 1241 01       		.uleb128 0x1
 5616 1242 52       		.byte	0x52
 5617 1243 01       		.uleb128 0x1
 5618 1244 32       		.byte	0x32
 5619 1245 00       		.byte	0
 5620 1246 29       		.uleb128 0x29
 5621 1247 4A000000 		.4byte	.LVL328
 5622 124b 3A160000 		.4byte	0x163a
 5623 124f 60120000 		.4byte	0x1260
 5624 1253 2A       		.uleb128 0x2a
 5625 1254 01       		.uleb128 0x1
 5626 1255 50       		.byte	0x50
 5627 1256 02       		.uleb128 0x2
 5628 1257 75       		.byte	0x75
 5629 1258 00       		.sleb128 0
 5630 1259 2A       		.uleb128 0x2a
 5631 125a 01       		.uleb128 0x1
 5632 125b 51       		.byte	0x51
 5633 125c 02       		.uleb128 0x2
 5634 125d 74       		.byte	0x74
 5635 125e 00       		.sleb128 0
 5636 125f 00       		.byte	0
 5637 1260 29       		.uleb128 0x29
 5638 1261 68000000 		.4byte	.LVL330
 5639 1265 8B2B0000 		.4byte	0x2b8b
 5640 1269 7F120000 		.4byte	0x127f
 5641 126d 2A       		.uleb128 0x2a
 5642 126e 01       		.uleb128 0x1
 5643 126f 50       		.byte	0x50
ARM GAS  C:\Users\Moi\AppData\Local\Temp\ccWeMAis.s 			page 100


 5644 1270 02       		.uleb128 0x2
 5645 1271 75       		.byte	0x75
 5646 1272 00       		.sleb128 0
 5647 1273 2A       		.uleb128 0x2a
 5648 1274 01       		.uleb128 0x1
 5649 1275 51       		.byte	0x51
 5650 1276 01       		.uleb128 0x1
 5651 1277 31       		.byte	0x31
 5652 1278 2A       		.uleb128 0x2a
 5653 1279 01       		.uleb128 0x1
 5654 127a 52       		.byte	0x52
 5655 127b 02       		.uleb128 0x2
 5656 127c 7A       		.byte	0x7a
 5657 127d 00       		.sleb128 0
 5658 127e 00       		.byte	0
 5659 127f 29       		.uleb128 0x29
 5660 1280 8E000000 		.4byte	.LVL332
 5661 1284 2F140000 		.4byte	0x142f
 5662 1288 C1120000 		.4byte	0x12c1
 5663 128c 2A       		.uleb128 0x2a
 5664 128d 01       		.uleb128 0x1
 5665 128e 50       		.byte	0x50
 5666 128f 02       		.uleb128 0x2
 5667 1290 75       		.byte	0x75
 5668 1291 00       		.sleb128 0
 5669 1292 2A       		.uleb128 0x2a
 5670 1293 01       		.uleb128 0x1
 5671 1294 51       		.byte	0x51
 5672 1295 02       		.uleb128 0x2
 5673 1296 79       		.byte	0x79
 5674 1297 00       		.sleb128 0
 5675 1298 2A       		.uleb128 0x2a
 5676 1299 01       		.uleb128 0x1
 5677 129a 52       		.byte	0x52
 5678 129b 02       		.uleb128 0x2
 5679 129c 74       		.byte	0x74
 5680 129d 00       		.sleb128 0
 5681 129e 2A       		.uleb128 0x2a
 5682 129f 01       		.uleb128 0x1
 5683 12a0 53       		.byte	0x53
 5684 12a1 02       		.uleb128 0x2
 5685 12a2 74       		.byte	0x74
 5686 12a3 00       		.sleb128 0
 5687 12a4 2A       		.uleb128 0x2a
 5688 12a5 02       		.uleb128 0x2
 5689 12a6 7D       		.byte	0x7d
 5690 12a7 00       		.sleb128 0
 5691 12a8 02       		.uleb128 0x2
 5692 12a9 91       		.byte	0x91
 5693 12aa 5B       		.sleb128 -37
 5694 12ab 2A       		.uleb128 0x2a
 5695 12ac 02       		.uleb128 0x2
 5696 12ad 7D       		.byte	0x7d
 5697 12ae 04       		.sleb128 4
 5698 12af 02       		.uleb128 0x2
 5699 12b0 78       		.byte	0x78
 5700 12b1 00       		.sleb128 0
ARM GAS  C:\Users\Moi\AppData\Local\Temp\ccWeMAis.s 			page 101


 5701 12b2 2A       		.uleb128 0x2a
 5702 12b3 02       		.uleb128 0x2
 5703 12b4 7D       		.byte	0x7d
 5704 12b5 08       		.sleb128 8
 5705 12b6 02       		.uleb128 0x2
 5706 12b7 74       		.byte	0x74
 5707 12b8 00       		.sleb128 0
 5708 12b9 2A       		.uleb128 0x2a
 5709 12ba 02       		.uleb128 0x2
 5710 12bb 7D       		.byte	0x7d
 5711 12bc 0C       		.sleb128 12
 5712 12bd 02       		.uleb128 0x2
 5713 12be 79       		.byte	0x79
 5714 12bf 00       		.sleb128 0
 5715 12c0 00       		.byte	0
 5716 12c1 2B       		.uleb128 0x2b
 5717 12c2 9A000000 		.4byte	.LVL334
 5718 12c6 822B0000 		.4byte	0x2b82
 5719 12ca 00       		.byte	0
 5720 12cb 24       		.uleb128 0x24
 5721 12cc 330D0000 		.4byte	.LASF248
 5722 12d0 01       		.byte	0x1
 5723 12d1 6304     		.2byte	0x463
 5724 12d3 94010000 		.4byte	0x194
 5725 12d7 00000000 		.4byte	.LFB21
 5726 12db B4000000 		.4byte	.LFE21-.LFB21
 5727 12df 01       		.uleb128 0x1
 5728 12e0 9C       		.byte	0x9c
 5729 12e1 2F140000 		.4byte	0x142f
 5730 12e5 25       		.uleb128 0x25
 5731 12e6 44657600 		.ascii	"Dev\000"
 5732 12ea 01       		.byte	0x1
 5733 12eb 6304     		.2byte	0x463
 5734 12ed EB0E0000 		.4byte	0xeeb
 5735 12f1 4E030000 		.4byte	.LLST115
 5736 12f5 26       		.uleb128 0x26
 5737 12f6 B2090000 		.4byte	.LASF236
 5738 12fa 01       		.byte	0x1
 5739 12fb 6404     		.2byte	0x464
 5740 12fd 7C060000 		.4byte	0x67c
 5741 1301 82030000 		.4byte	.LLST116
 5742 1305 26       		.uleb128 0x26
 5743 1306 1E120000 		.4byte	.LASF244
 5744 130a 01       		.byte	0x1
 5745 130b 6404     		.2byte	0x464
 5746 130d C3000000 		.4byte	0xc3
 5747 1311 B6030000 		.4byte	.LLST117
 5748 1315 26       		.uleb128 0x26
 5749 1316 FF060000 		.4byte	.LASF246
 5750 131a 01       		.byte	0x1
 5751 131b 6504     		.2byte	0x465
 5752 131d C3000000 		.4byte	0xc3
 5753 1321 F0030000 		.4byte	.LLST118
 5754 1325 27       		.uleb128 0x27
 5755 1326 CE010000 		.4byte	.LASF238
 5756 132a 01       		.byte	0x1
 5757 132b 6704     		.2byte	0x467
ARM GAS  C:\Users\Moi\AppData\Local\Temp\ccWeMAis.s 			page 102


 5758 132d 94010000 		.4byte	0x194
 5759 1331 2A040000 		.4byte	.LLST119
 5760 1335 27       		.uleb128 0x27
 5761 1336 18100000 		.4byte	.LASF103
 5762 133a 01       		.byte	0x1
 5763 133b 6804     		.2byte	0x468
 5764 133d B8000000 		.4byte	0xb8
 5765 1341 97040000 		.4byte	.LLST120
 5766 1345 28       		.uleb128 0x28
 5767 1346 40120000 		.4byte	.LASF239
 5768 134a 01       		.byte	0x1
 5769 134b 6904     		.2byte	0x469
 5770 134d B8000000 		.4byte	0xb8
 5771 1351 00       		.byte	0
 5772 1352 28       		.uleb128 0x28
 5773 1353 B50A0000 		.4byte	.LASF240
 5774 1357 01       		.byte	0x1
 5775 1358 6A04     		.2byte	0x46a
 5776 135a B8000000 		.4byte	0xb8
 5777 135e 00       		.byte	0
 5778 135f 2C       		.uleb128 0x2c
 5779 1360 F2150000 		.4byte	.LASF249
 5780 1364 01       		.byte	0x1
 5781 1365 6B04     		.2byte	0x46b
 5782 1367 B8000000 		.4byte	0xb8
 5783 136b 02       		.uleb128 0x2
 5784 136c 91       		.byte	0x91
 5785 136d 5B       		.sleb128 -37
 5786 136e 29       		.uleb128 0x29
 5787 136f 2A000000 		.4byte	.LVL301
 5788 1373 8B2B0000 		.4byte	0x2b8b
 5789 1377 8C130000 		.4byte	0x138c
 5790 137b 2A       		.uleb128 0x2a
 5791 137c 01       		.uleb128 0x1
 5792 137d 50       		.byte	0x50
 5793 137e 02       		.uleb128 0x2
 5794 137f 75       		.byte	0x75
 5795 1380 00       		.sleb128 0
 5796 1381 2A       		.uleb128 0x2a
 5797 1382 01       		.uleb128 0x1
 5798 1383 51       		.byte	0x51
 5799 1384 01       		.uleb128 0x1
 5800 1385 31       		.byte	0x31
 5801 1386 2A       		.uleb128 0x2a
 5802 1387 01       		.uleb128 0x1
 5803 1388 52       		.byte	0x52
 5804 1389 01       		.uleb128 0x1
 5805 138a 31       		.byte	0x31
 5806 138b 00       		.byte	0
 5807 138c 29       		.uleb128 0x29
 5808 138d 50000000 		.4byte	.LVL308
 5809 1391 8B2B0000 		.4byte	0x2b8b
 5810 1395 AA130000 		.4byte	0x13aa
 5811 1399 2A       		.uleb128 0x2a
 5812 139a 01       		.uleb128 0x1
 5813 139b 50       		.byte	0x50
 5814 139c 02       		.uleb128 0x2
ARM GAS  C:\Users\Moi\AppData\Local\Temp\ccWeMAis.s 			page 103


 5815 139d 75       		.byte	0x75
 5816 139e 00       		.sleb128 0
 5817 139f 2A       		.uleb128 0x2a
 5818 13a0 01       		.uleb128 0x1
 5819 13a1 51       		.byte	0x51
 5820 13a2 01       		.uleb128 0x1
 5821 13a3 31       		.byte	0x31
 5822 13a4 2A       		.uleb128 0x2a
 5823 13a5 01       		.uleb128 0x1
 5824 13a6 52       		.byte	0x52
 5825 13a7 01       		.uleb128 0x1
 5826 13a8 31       		.byte	0x31
 5827 13a9 00       		.byte	0
 5828 13aa 29       		.uleb128 0x29
 5829 13ab 5E000000 		.4byte	.LVL310
 5830 13af 3A160000 		.4byte	0x163a
 5831 13b3 C4130000 		.4byte	0x13c4
 5832 13b7 2A       		.uleb128 0x2a
 5833 13b8 01       		.uleb128 0x1
 5834 13b9 50       		.byte	0x50
 5835 13ba 02       		.uleb128 0x2
 5836 13bb 75       		.byte	0x75
 5837 13bc 00       		.sleb128 0
 5838 13bd 2A       		.uleb128 0x2a
 5839 13be 01       		.uleb128 0x1
 5840 13bf 51       		.byte	0x51
 5841 13c0 02       		.uleb128 0x2
 5842 13c1 08       		.byte	0x8
 5843 13c2 40       		.byte	0x40
 5844 13c3 00       		.byte	0
 5845 13c4 29       		.uleb128 0x29
 5846 13c5 7C000000 		.4byte	.LVL312
 5847 13c9 8B2B0000 		.4byte	0x2b8b
 5848 13cd E3130000 		.4byte	0x13e3
 5849 13d1 2A       		.uleb128 0x2a
 5850 13d2 01       		.uleb128 0x1
 5851 13d3 50       		.byte	0x50
 5852 13d4 02       		.uleb128 0x2
 5853 13d5 75       		.byte	0x75
 5854 13d6 00       		.sleb128 0
 5855 13d7 2A       		.uleb128 0x2a
 5856 13d8 01       		.uleb128 0x1
 5857 13d9 51       		.byte	0x51
 5858 13da 01       		.uleb128 0x1
 5859 13db 31       		.byte	0x31
 5860 13dc 2A       		.uleb128 0x2a
 5861 13dd 01       		.uleb128 0x1
 5862 13de 52       		.byte	0x52
 5863 13df 02       		.uleb128 0x2
 5864 13e0 7A       		.byte	0x7a
 5865 13e1 00       		.sleb128 0
 5866 13e2 00       		.byte	0
 5867 13e3 29       		.uleb128 0x29
 5868 13e4 A2000000 		.4byte	.LVL314
 5869 13e8 2F140000 		.4byte	0x142f
 5870 13ec 25140000 		.4byte	0x1425
 5871 13f0 2A       		.uleb128 0x2a
ARM GAS  C:\Users\Moi\AppData\Local\Temp\ccWeMAis.s 			page 104


 5872 13f1 01       		.uleb128 0x1
 5873 13f2 50       		.byte	0x50
 5874 13f3 02       		.uleb128 0x2
 5875 13f4 75       		.byte	0x75
 5876 13f5 00       		.sleb128 0
 5877 13f6 2A       		.uleb128 0x2a
 5878 13f7 01       		.uleb128 0x1
 5879 13f8 51       		.byte	0x51
 5880 13f9 02       		.uleb128 0x2
 5881 13fa 79       		.byte	0x79
 5882 13fb 00       		.sleb128 0
 5883 13fc 2A       		.uleb128 0x2a
 5884 13fd 01       		.uleb128 0x1
 5885 13fe 52       		.byte	0x52
 5886 13ff 02       		.uleb128 0x2
 5887 1400 74       		.byte	0x74
 5888 1401 00       		.sleb128 0
 5889 1402 2A       		.uleb128 0x2a
 5890 1403 01       		.uleb128 0x1
 5891 1404 53       		.byte	0x53
 5892 1405 02       		.uleb128 0x2
 5893 1406 74       		.byte	0x74
 5894 1407 00       		.sleb128 0
 5895 1408 2A       		.uleb128 0x2a
 5896 1409 02       		.uleb128 0x2
 5897 140a 7D       		.byte	0x7d
 5898 140b 00       		.sleb128 0
 5899 140c 02       		.uleb128 0x2
 5900 140d 78       		.byte	0x78
 5901 140e 00       		.sleb128 0
 5902 140f 2A       		.uleb128 0x2a
 5903 1410 02       		.uleb128 0x2
 5904 1411 7D       		.byte	0x7d
 5905 1412 04       		.sleb128 4
 5906 1413 02       		.uleb128 0x2
 5907 1414 91       		.byte	0x91
 5908 1415 5B       		.sleb128 -37
 5909 1416 2A       		.uleb128 0x2a
 5910 1417 02       		.uleb128 0x2
 5911 1418 7D       		.byte	0x7d
 5912 1419 08       		.sleb128 8
 5913 141a 02       		.uleb128 0x2
 5914 141b 79       		.byte	0x79
 5915 141c 00       		.sleb128 0
 5916 141d 2A       		.uleb128 0x2a
 5917 141e 02       		.uleb128 0x2
 5918 141f 7D       		.byte	0x7d
 5919 1420 0C       		.sleb128 12
 5920 1421 02       		.uleb128 0x2
 5921 1422 74       		.byte	0x74
 5922 1423 00       		.sleb128 0
 5923 1424 00       		.byte	0
 5924 1425 2B       		.uleb128 0x2b
 5925 1426 AE000000 		.4byte	.LVL316
 5926 142a 822B0000 		.4byte	0x2b82
 5927 142e 00       		.byte	0
 5928 142f 24       		.uleb128 0x24
ARM GAS  C:\Users\Moi\AppData\Local\Temp\ccWeMAis.s 			page 105


 5929 1430 4C120000 		.4byte	.LASF250
 5930 1434 01       		.byte	0x1
 5931 1435 4004     		.2byte	0x440
 5932 1437 94010000 		.4byte	0x194
 5933 143b 00000000 		.4byte	.LFB20
 5934 143f 08010000 		.4byte	.LFE20-.LFB20
 5935 1443 01       		.uleb128 0x1
 5936 1444 9C       		.byte	0x9c
 5937 1445 3A160000 		.4byte	0x163a
 5938 1449 25       		.uleb128 0x25
 5939 144a 44657600 		.ascii	"Dev\000"
 5940 144e 01       		.byte	0x1
 5941 144f 4004     		.2byte	0x440
 5942 1451 EB0E0000 		.4byte	0xeeb
 5943 1455 CD040000 		.4byte	.LLST106
 5944 1459 26       		.uleb128 0x26
 5945 145a D5010000 		.4byte	.LASF251
 5946 145e 01       		.byte	0x1
 5947 145f 4004     		.2byte	0x440
 5948 1461 B8000000 		.4byte	0xb8
 5949 1465 EB040000 		.4byte	.LLST107
 5950 1469 26       		.uleb128 0x26
 5951 146a 40120000 		.4byte	.LASF239
 5952 146e 01       		.byte	0x1
 5953 146f 4104     		.2byte	0x441
 5954 1471 B8000000 		.4byte	0xb8
 5955 1475 0C050000 		.4byte	.LLST108
 5956 1479 26       		.uleb128 0x26
 5957 147a B50A0000 		.4byte	.LASF240
 5958 147e 01       		.byte	0x1
 5959 147f 4104     		.2byte	0x441
 5960 1481 B8000000 		.4byte	0xb8
 5961 1485 2D050000 		.4byte	.LLST109
 5962 1489 26       		.uleb128 0x26
 5963 148a B2090000 		.4byte	.LASF236
 5964 148e 01       		.byte	0x1
 5965 148f 4204     		.2byte	0x442
 5966 1491 7C060000 		.4byte	0x67c
 5967 1495 4E050000 		.4byte	.LLST110
 5968 1499 26       		.uleb128 0x26
 5969 149a 28040000 		.4byte	.LASF237
 5970 149e 01       		.byte	0x1
 5971 149f 4204     		.2byte	0x442
 5972 14a1 7C060000 		.4byte	0x67c
 5973 14a5 6E050000 		.4byte	.LLST111
 5974 14a9 26       		.uleb128 0x26
 5975 14aa 5D100000 		.4byte	.LASF252
 5976 14ae 01       		.byte	0x1
 5977 14af 4304     		.2byte	0x443
 5978 14b1 C3000000 		.4byte	0xc3
 5979 14b5 8E050000 		.4byte	.LLST112
 5980 14b9 26       		.uleb128 0x26
 5981 14ba 01020000 		.4byte	.LASF253
 5982 14be 01       		.byte	0x1
 5983 14bf 4304     		.2byte	0x443
 5984 14c1 C3000000 		.4byte	0xc3
 5985 14c5 AE050000 		.4byte	.LLST113
ARM GAS  C:\Users\Moi\AppData\Local\Temp\ccWeMAis.s 			page 106


 5986 14c9 27       		.uleb128 0x27
 5987 14ca CE010000 		.4byte	.LASF238
 5988 14ce 01       		.byte	0x1
 5989 14cf 4504     		.2byte	0x445
 5990 14d1 94010000 		.4byte	0x194
 5991 14d5 CE050000 		.4byte	.LLST114
 5992 14d9 2C       		.uleb128 0x2c
 5993 14da C00D0000 		.4byte	.LASF254
 5994 14de 01       		.byte	0x1
 5995 14df 4604     		.2byte	0x446
 5996 14e1 B8000000 		.4byte	0xb8
 5997 14e5 02       		.uleb128 0x2
 5998 14e6 91       		.byte	0x91
 5999 14e7 53       		.sleb128 -45
 6000 14e8 29       		.uleb128 0x29
 6001 14e9 32000000 		.4byte	.LVL265
 6002 14ed 8B2B0000 		.4byte	0x2b8b
 6003 14f1 07150000 		.4byte	0x1507
 6004 14f5 2A       		.uleb128 0x2a
 6005 14f6 01       		.uleb128 0x1
 6006 14f7 50       		.byte	0x50
 6007 14f8 02       		.uleb128 0x2
 6008 14f9 75       		.byte	0x75
 6009 14fa 00       		.sleb128 0
 6010 14fb 2A       		.uleb128 0x2a
 6011 14fc 01       		.uleb128 0x1
 6012 14fd 51       		.byte	0x51
 6013 14fe 02       		.uleb128 0x2
 6014 14ff 09       		.byte	0x9
 6015 1500 FF       		.byte	0xff
 6016 1501 2A       		.uleb128 0x2a
 6017 1502 01       		.uleb128 0x1
 6018 1503 52       		.byte	0x52
 6019 1504 01       		.uleb128 0x1
 6020 1505 31       		.byte	0x31
 6021 1506 00       		.byte	0
 6022 1507 29       		.uleb128 0x29
 6023 1508 3E000000 		.4byte	.LVL267
 6024 150c 8B2B0000 		.4byte	0x2b8b
 6025 1510 27150000 		.4byte	0x1527
 6026 1514 2A       		.uleb128 0x2a
 6027 1515 01       		.uleb128 0x1
 6028 1516 50       		.byte	0x50
 6029 1517 02       		.uleb128 0x2
 6030 1518 75       		.byte	0x75
 6031 1519 00       		.sleb128 0
 6032 151a 2A       		.uleb128 0x2a
 6033 151b 01       		.uleb128 0x1
 6034 151c 51       		.byte	0x51
 6035 151d 02       		.uleb128 0x2
 6036 151e 76       		.byte	0x76
 6037 151f 00       		.sleb128 0
 6038 1520 2A       		.uleb128 0x2a
 6039 1521 01       		.uleb128 0x1
 6040 1522 52       		.byte	0x52
 6041 1523 02       		.uleb128 0x2
 6042 1524 76       		.byte	0x76
ARM GAS  C:\Users\Moi\AppData\Local\Temp\ccWeMAis.s 			page 107


 6043 1525 00       		.sleb128 0
 6044 1526 00       		.byte	0
 6045 1527 29       		.uleb128 0x29
 6046 1528 4A000000 		.4byte	.LVL269
 6047 152c 8B2B0000 		.4byte	0x2b8b
 6048 1530 47150000 		.4byte	0x1547
 6049 1534 2A       		.uleb128 0x2a
 6050 1535 01       		.uleb128 0x1
 6051 1536 50       		.byte	0x50
 6052 1537 02       		.uleb128 0x2
 6053 1538 75       		.byte	0x75
 6054 1539 00       		.sleb128 0
 6055 153a 2A       		.uleb128 0x2a
 6056 153b 01       		.uleb128 0x1
 6057 153c 51       		.byte	0x51
 6058 153d 02       		.uleb128 0x2
 6059 153e 09       		.byte	0x9
 6060 153f FF       		.byte	0xff
 6061 1540 2A       		.uleb128 0x2a
 6062 1541 01       		.uleb128 0x1
 6063 1542 52       		.byte	0x52
 6064 1543 02       		.uleb128 0x2
 6065 1544 76       		.byte	0x76
 6066 1545 00       		.sleb128 0
 6067 1546 00       		.byte	0
 6068 1547 29       		.uleb128 0x29
 6069 1548 6C000000 		.4byte	.LVL273
 6070 154c 8B2B0000 		.4byte	0x2b8b
 6071 1550 66150000 		.4byte	0x1566
 6072 1554 2A       		.uleb128 0x2a
 6073 1555 01       		.uleb128 0x1
 6074 1556 50       		.byte	0x50
 6075 1557 02       		.uleb128 0x2
 6076 1558 75       		.byte	0x75
 6077 1559 00       		.sleb128 0
 6078 155a 2A       		.uleb128 0x2a
 6079 155b 01       		.uleb128 0x1
 6080 155c 51       		.byte	0x51
 6081 155d 02       		.uleb128 0x2
 6082 155e 09       		.byte	0x9
 6083 155f FF       		.byte	0xff
 6084 1560 2A       		.uleb128 0x2a
 6085 1561 01       		.uleb128 0x1
 6086 1562 52       		.byte	0x52
 6087 1563 01       		.uleb128 0x1
 6088 1564 31       		.byte	0x31
 6089 1565 00       		.byte	0
 6090 1566 29       		.uleb128 0x29
 6091 1567 78000000 		.4byte	.LVL275
 6092 156b 8B2B0000 		.4byte	0x2b8b
 6093 156f 85150000 		.4byte	0x1585
 6094 1573 2A       		.uleb128 0x2a
 6095 1574 01       		.uleb128 0x1
 6096 1575 50       		.byte	0x50
 6097 1576 02       		.uleb128 0x2
 6098 1577 75       		.byte	0x75
 6099 1578 00       		.sleb128 0
ARM GAS  C:\Users\Moi\AppData\Local\Temp\ccWeMAis.s 			page 108


 6100 1579 2A       		.uleb128 0x2a
 6101 157a 01       		.uleb128 0x1
 6102 157b 51       		.byte	0x51
 6103 157c 02       		.uleb128 0x2
 6104 157d 76       		.byte	0x76
 6105 157e 00       		.sleb128 0
 6106 157f 2A       		.uleb128 0x2a
 6107 1580 01       		.uleb128 0x1
 6108 1581 52       		.byte	0x52
 6109 1582 01       		.uleb128 0x1
 6110 1583 31       		.byte	0x31
 6111 1584 00       		.byte	0
 6112 1585 29       		.uleb128 0x29
 6113 1586 86000000 		.4byte	.LVL278
 6114 158a 8B2B0000 		.4byte	0x2b8b
 6115 158e A5150000 		.4byte	0x15a5
 6116 1592 2A       		.uleb128 0x2a
 6117 1593 01       		.uleb128 0x1
 6118 1594 50       		.byte	0x50
 6119 1595 02       		.uleb128 0x2
 6120 1596 75       		.byte	0x75
 6121 1597 00       		.sleb128 0
 6122 1598 2A       		.uleb128 0x2a
 6123 1599 01       		.uleb128 0x1
 6124 159a 51       		.byte	0x51
 6125 159b 02       		.uleb128 0x2
 6126 159c 09       		.byte	0x9
 6127 159d FF       		.byte	0xff
 6128 159e 2A       		.uleb128 0x2a
 6129 159f 01       		.uleb128 0x1
 6130 15a0 52       		.byte	0x52
 6131 15a1 02       		.uleb128 0x2
 6132 15a2 76       		.byte	0x76
 6133 15a3 00       		.sleb128 0
 6134 15a4 00       		.byte	0
 6135 15a5 29       		.uleb128 0x29
 6136 15a6 BE000000 		.4byte	.LVL282
 6137 15aa 962B0000 		.4byte	0x2b96
 6138 15ae CD150000 		.4byte	0x15cd
 6139 15b2 2A       		.uleb128 0x2a
 6140 15b3 01       		.uleb128 0x1
 6141 15b4 50       		.byte	0x50
 6142 15b5 02       		.uleb128 0x2
 6143 15b6 75       		.byte	0x75
 6144 15b7 00       		.sleb128 0
 6145 15b8 2A       		.uleb128 0x2a
 6146 15b9 01       		.uleb128 0x1
 6147 15ba 51       		.byte	0x51
 6148 15bb 02       		.uleb128 0x2
 6149 15bc 09       		.byte	0x9
 6150 15bd EE       		.byte	0xee
 6151 15be 2A       		.uleb128 0x2a
 6152 15bf 01       		.uleb128 0x1
 6153 15c0 52       		.byte	0x52
 6154 15c1 02       		.uleb128 0x2
 6155 15c2 09       		.byte	0x9
 6156 15c3 80       		.byte	0x80
ARM GAS  C:\Users\Moi\AppData\Local\Temp\ccWeMAis.s 			page 109


 6157 15c4 2A       		.uleb128 0x2a
 6158 15c5 01       		.uleb128 0x1
 6159 15c6 53       		.byte	0x53
 6160 15c7 04       		.uleb128 0x4
 6161 15c8 91       		.byte	0x91
 6162 15c9 44       		.sleb128 -60
 6163 15ca 94       		.byte	0x94
 6164 15cb 01       		.byte	0x1
 6165 15cc 00       		.byte	0
 6166 15cd 29       		.uleb128 0x29
 6167 15ce CE000000 		.4byte	.LVL285
 6168 15d2 A12B0000 		.4byte	0x2ba1
 6169 15d6 EE150000 		.4byte	0x15ee
 6170 15da 2A       		.uleb128 0x2a
 6171 15db 01       		.uleb128 0x1
 6172 15dc 50       		.byte	0x50
 6173 15dd 02       		.uleb128 0x2
 6174 15de 75       		.byte	0x75
 6175 15df 00       		.sleb128 0
 6176 15e0 2A       		.uleb128 0x2a
 6177 15e1 01       		.uleb128 0x1
 6178 15e2 51       		.byte	0x51
 6179 15e3 02       		.uleb128 0x2
 6180 15e4 09       		.byte	0x9
 6181 15e5 CB       		.byte	0xcb
 6182 15e6 2A       		.uleb128 0x2a
 6183 15e7 01       		.uleb128 0x1
 6184 15e8 52       		.byte	0x52
 6185 15e9 03       		.uleb128 0x3
 6186 15ea 91       		.byte	0x91
 6187 15eb 4C       		.sleb128 -52
 6188 15ec 06       		.byte	0x6
 6189 15ed 00       		.byte	0
 6190 15ee 29       		.uleb128 0x29
 6191 15ef E4000000 		.4byte	.LVL288
 6192 15f3 A12B0000 		.4byte	0x2ba1
 6193 15f7 0E160000 		.4byte	0x160e
 6194 15fb 2A       		.uleb128 0x2a
 6195 15fc 01       		.uleb128 0x1
 6196 15fd 50       		.byte	0x50
 6197 15fe 02       		.uleb128 0x2
 6198 15ff 75       		.byte	0x75
 6199 1600 00       		.sleb128 0
 6200 1601 2A       		.uleb128 0x2a
 6201 1602 01       		.uleb128 0x1
 6202 1603 51       		.byte	0x51
 6203 1604 02       		.uleb128 0x2
 6204 1605 09       		.byte	0x9
 6205 1606 EE       		.byte	0xee
 6206 1607 2A       		.uleb128 0x2a
 6207 1608 01       		.uleb128 0x1
 6208 1609 52       		.byte	0x52
 6209 160a 02       		.uleb128 0x2
 6210 160b 91       		.byte	0x91
 6211 160c 53       		.sleb128 -45
 6212 160d 00       		.byte	0
 6213 160e 29       		.uleb128 0x29
ARM GAS  C:\Users\Moi\AppData\Local\Temp\ccWeMAis.s 			page 110


 6214 160f F4000000 		.4byte	.LVL291
 6215 1613 8B2B0000 		.4byte	0x2b8b
 6216 1617 30160000 		.4byte	0x1630
 6217 161b 2A       		.uleb128 0x2a
 6218 161c 01       		.uleb128 0x1
 6219 161d 50       		.byte	0x50
 6220 161e 02       		.uleb128 0x2
 6221 161f 75       		.byte	0x75
 6222 1620 00       		.sleb128 0
 6223 1621 2A       		.uleb128 0x2a
 6224 1622 01       		.uleb128 0x1
 6225 1623 51       		.byte	0x51
 6226 1624 02       		.uleb128 0x2
 6227 1625 09       		.byte	0x9
 6228 1626 CB       		.byte	0xcb
 6229 1627 2A       		.uleb128 0x2a
 6230 1628 01       		.uleb128 0x1
 6231 1629 52       		.byte	0x52
 6232 162a 04       		.uleb128 0x4
 6233 162b 91       		.byte	0x91
 6234 162c 48       		.sleb128 -56
 6235 162d 94       		.byte	0x94
 6236 162e 01       		.byte	0x1
 6237 162f 00       		.byte	0
 6238 1630 2B       		.uleb128 0x2b
 6239 1631 04010000 		.4byte	.LVL295
 6240 1635 822B0000 		.4byte	0x2b82
 6241 1639 00       		.byte	0
 6242 163a 2D       		.uleb128 0x2d
 6243 163b 36100000 		.4byte	.LASF300
 6244 163f 01       		.byte	0x1
 6245 1640 2904     		.2byte	0x429
 6246 1642 94010000 		.4byte	0x194
 6247 1646 01       		.byte	0x1
 6248 1647 70160000 		.4byte	0x1670
 6249 164b 2E       		.uleb128 0x2e
 6250 164c 44657600 		.ascii	"Dev\000"
 6251 1650 01       		.byte	0x1
 6252 1651 2904     		.2byte	0x429
 6253 1653 EB0E0000 		.4byte	0xeeb
 6254 1657 2F       		.uleb128 0x2f
 6255 1658 E3040000 		.4byte	.LASF255
 6256 165c 01       		.byte	0x1
 6257 165d 2A04     		.2byte	0x42a
 6258 165f B8000000 		.4byte	0xb8
 6259 1663 30       		.uleb128 0x30
 6260 1664 CE010000 		.4byte	.LASF238
 6261 1668 01       		.byte	0x1
 6262 1669 2C04     		.2byte	0x42c
 6263 166b 94010000 		.4byte	0x194
 6264 166f 00       		.byte	0
 6265 1670 24       		.uleb128 0x24
 6266 1671 1B170000 		.4byte	.LASF256
 6267 1675 01       		.byte	0x1
 6268 1676 F203     		.2byte	0x3f2
 6269 1678 94010000 		.4byte	0x194
 6270 167c 00000000 		.4byte	.LFB18
ARM GAS  C:\Users\Moi\AppData\Local\Temp\ccWeMAis.s 			page 111


 6271 1680 88000000 		.4byte	.LFE18-.LFB18
 6272 1684 01       		.uleb128 0x1
 6273 1685 9C       		.byte	0x9c
 6274 1686 B0170000 		.4byte	0x17b0
 6275 168a 25       		.uleb128 0x25
 6276 168b 44657600 		.ascii	"Dev\000"
 6277 168f 01       		.byte	0x1
 6278 1690 F203     		.2byte	0x3f2
 6279 1692 EB0E0000 		.4byte	0xeeb
 6280 1696 55060000 		.4byte	.LLST95
 6281 169a 26       		.uleb128 0x26
 6282 169b 97080000 		.4byte	.LASF257
 6283 169f 01       		.byte	0x1
 6284 16a0 F303     		.2byte	0x3f3
 6285 16a2 B0170000 		.4byte	0x17b0
 6286 16a6 89060000 		.4byte	.LLST96
 6287 16aa 26       		.uleb128 0x26
 6288 16ab 00090000 		.4byte	.LASF258
 6289 16af 01       		.byte	0x1
 6290 16b0 F303     		.2byte	0x3f3
 6291 16b2 7C060000 		.4byte	0x67c
 6292 16b6 BD060000 		.4byte	.LLST97
 6293 16ba 27       		.uleb128 0x27
 6294 16bb CE010000 		.4byte	.LASF238
 6295 16bf 01       		.byte	0x1
 6296 16c0 F503     		.2byte	0x3f5
 6297 16c2 94010000 		.4byte	0x194
 6298 16c6 F1060000 		.4byte	.LLST98
 6299 16ca 27       		.uleb128 0x27
 6300 16cb 27150000 		.4byte	.LASF259
 6301 16cf 01       		.byte	0x1
 6302 16d0 F603     		.2byte	0x3f6
 6303 16d2 B8000000 		.4byte	0xb8
 6304 16d6 27070000 		.4byte	.LLST99
 6305 16da 2C       		.uleb128 0x2c
 6306 16db 49140000 		.4byte	.LASF260
 6307 16df 01       		.byte	0x1
 6308 16e0 F703     		.2byte	0x3f7
 6309 16e2 5C020000 		.4byte	0x25c
 6310 16e6 02       		.uleb128 0x2
 6311 16e7 91       		.byte	0x91
 6312 16e8 5C       		.sleb128 -36
 6313 16e9 28       		.uleb128 0x28
 6314 16ea 10180000 		.4byte	.LASF261
 6315 16ee 01       		.byte	0x1
 6316 16ef F803     		.2byte	0x3f8
 6317 16f1 E9000000 		.4byte	0xe9
 6318 16f5 2C       		.byte	0x2c
 6319 16f6 28       		.uleb128 0x28
 6320 16f7 040E0000 		.4byte	.LASF262
 6321 16fb 01       		.byte	0x1
 6322 16fc F903     		.2byte	0x3f9
 6323 16fe E9000000 		.4byte	0xe9
 6324 1702 06       		.byte	0x6
 6325 1703 2C       		.uleb128 0x2c
 6326 1704 73080000 		.4byte	.LASF263
 6327 1708 01       		.byte	0x1
ARM GAS  C:\Users\Moi\AppData\Local\Temp\ccWeMAis.s 			page 112


 6328 1709 FA03     		.2byte	0x3fa
 6329 170b E9000000 		.4byte	0xe9
 6330 170f 02       		.uleb128 0x2
 6331 1710 91       		.byte	0x91
 6332 1711 58       		.sleb128 -40
 6333 1712 2C       		.uleb128 0x2c
 6334 1713 130E0000 		.4byte	.LASF264
 6335 1717 01       		.byte	0x1
 6336 1718 FB03     		.2byte	0x3fb
 6337 171a B8000000 		.4byte	0xb8
 6338 171e 02       		.uleb128 0x2
 6339 171f 91       		.byte	0x91
 6340 1720 57       		.sleb128 -41
 6341 1721 31       		.uleb128 0x31
 6342 1722 B1210000 		.4byte	0x21b1
 6343 1726 22000000 		.4byte	.LBB40
 6344 172a 0A000000 		.4byte	.LBE40-.LBB40
 6345 172e 01       		.byte	0x1
 6346 172f 0904     		.2byte	0x409
 6347 1731 7A170000 		.4byte	0x177a
 6348 1735 32       		.uleb128 0x32
 6349 1736 CE210000 		.4byte	0x21ce
 6350 173a 5F070000 		.4byte	.LLST100
 6351 173e 32       		.uleb128 0x32
 6352 173f C2210000 		.4byte	0x21c2
 6353 1743 8C070000 		.4byte	.LLST101
 6354 1747 33       		.uleb128 0x33
 6355 1748 22000000 		.4byte	.LBB41
 6356 174c 0A000000 		.4byte	.LBE41-.LBB41
 6357 1750 34       		.uleb128 0x34
 6358 1751 9B2A0000 		.4byte	0x2a9b
 6359 1755 01       		.uleb128 0x1
 6360 1756 50       		.byte	0x50
 6361 1757 35       		.uleb128 0x35
 6362 1758 2C000000 		.4byte	.LVL237
 6363 175c AC2B0000 		.4byte	0x2bac
 6364 1760 2A       		.uleb128 0x2a
 6365 1761 01       		.uleb128 0x1
 6366 1762 50       		.byte	0x50
 6367 1763 02       		.uleb128 0x2
 6368 1764 74       		.byte	0x74
 6369 1765 00       		.sleb128 0
 6370 1766 2A       		.uleb128 0x2a
 6371 1767 01       		.uleb128 0x1
 6372 1768 51       		.byte	0x51
 6373 1769 02       		.uleb128 0x2
 6374 176a 09       		.byte	0x9
 6375 176b B0       		.byte	0xb0
 6376 176c 2A       		.uleb128 0x2a
 6377 176d 01       		.uleb128 0x1
 6378 176e 52       		.byte	0x52
 6379 176f 02       		.uleb128 0x2
 6380 1770 91       		.byte	0x91
 6381 1771 5C       		.sleb128 -36
 6382 1772 2A       		.uleb128 0x2a
 6383 1773 01       		.uleb128 0x1
 6384 1774 53       		.byte	0x53
ARM GAS  C:\Users\Moi\AppData\Local\Temp\ccWeMAis.s 			page 113


 6385 1775 01       		.uleb128 0x1
 6386 1776 36       		.byte	0x36
 6387 1777 00       		.byte	0
 6388 1778 00       		.byte	0
 6389 1779 00       		.byte	0
 6390 177a 29       		.uleb128 0x29
 6391 177b 5E000000 		.4byte	.LVL244
 6392 177f 1D220000 		.4byte	0x221d
 6393 1783 A6170000 		.4byte	0x17a6
 6394 1787 2A       		.uleb128 0x2a
 6395 1788 01       		.uleb128 0x1
 6396 1789 50       		.byte	0x50
 6397 178a 02       		.uleb128 0x2
 6398 178b 91       		.byte	0x91
 6399 178c 5C       		.sleb128 -36
 6400 178d 2A       		.uleb128 0x2a
 6401 178e 01       		.uleb128 0x1
 6402 178f 51       		.byte	0x51
 6403 1790 01       		.uleb128 0x1
 6404 1791 36       		.byte	0x36
 6405 1792 2A       		.uleb128 0x2a
 6406 1793 01       		.uleb128 0x1
 6407 1794 52       		.byte	0x52
 6408 1795 02       		.uleb128 0x2
 6409 1796 08       		.byte	0x8
 6410 1797 2C       		.byte	0x2c
 6411 1798 2A       		.uleb128 0x2a
 6412 1799 01       		.uleb128 0x1
 6413 179a 53       		.byte	0x53
 6414 179b 02       		.uleb128 0x2
 6415 179c 91       		.byte	0x91
 6416 179d 58       		.sleb128 -40
 6417 179e 2A       		.uleb128 0x2a
 6418 179f 02       		.uleb128 0x2
 6419 17a0 7D       		.byte	0x7d
 6420 17a1 00       		.sleb128 0
 6421 17a2 02       		.uleb128 0x2
 6422 17a3 91       		.byte	0x91
 6423 17a4 57       		.sleb128 -41
 6424 17a5 00       		.byte	0
 6425 17a6 2B       		.uleb128 0x2b
 6426 17a7 82000000 		.4byte	.LVL245
 6427 17ab 822B0000 		.4byte	0x2b82
 6428 17af 00       		.byte	0
 6429 17b0 0F       		.uleb128 0xf
 6430 17b1 04       		.byte	0x4
 6431 17b2 E9000000 		.4byte	0xe9
 6432 17b6 24       		.uleb128 0x24
 6433 17b7 93050000 		.4byte	.LASF265
 6434 17bb 01       		.byte	0x1
 6435 17bc AF03     		.2byte	0x3af
 6436 17be 94010000 		.4byte	0x194
 6437 17c2 00000000 		.4byte	.LFB17
 6438 17c6 C8000000 		.4byte	.LFE17-.LFB17
 6439 17ca 01       		.uleb128 0x1
 6440 17cb 9C       		.byte	0x9c
 6441 17cc 7D190000 		.4byte	0x197d
ARM GAS  C:\Users\Moi\AppData\Local\Temp\ccWeMAis.s 			page 114


 6442 17d0 25       		.uleb128 0x25
 6443 17d1 44657600 		.ascii	"Dev\000"
 6444 17d5 01       		.byte	0x1
 6445 17d6 AF03     		.2byte	0x3af
 6446 17d8 EB0E0000 		.4byte	0xeeb
 6447 17dc AA070000 		.4byte	.LLST86
 6448 17e0 26       		.uleb128 0x26
 6449 17e1 16090000 		.4byte	.LASF266
 6450 17e5 01       		.byte	0x1
 6451 17e6 B003     		.2byte	0x3b0
 6452 17e8 E9000000 		.4byte	0xe9
 6453 17ec C8070000 		.4byte	.LLST87
 6454 17f0 26       		.uleb128 0x26
 6455 17f1 130E0000 		.4byte	.LASF264
 6456 17f5 01       		.byte	0x1
 6457 17f6 B003     		.2byte	0x3b0
 6458 17f8 B8000000 		.4byte	0xb8
 6459 17fc E6070000 		.4byte	.LLST88
 6460 1800 27       		.uleb128 0x27
 6461 1801 CE010000 		.4byte	.LASF238
 6462 1805 01       		.byte	0x1
 6463 1806 B203     		.2byte	0x3b2
 6464 1808 94010000 		.4byte	0x194
 6465 180c 07080000 		.4byte	.LLST89
 6466 1810 27       		.uleb128 0x27
 6467 1811 75010000 		.4byte	.LASF267
 6468 1815 01       		.byte	0x1
 6469 1816 B303     		.2byte	0x3b3
 6470 1818 E9000000 		.4byte	0xe9
 6471 181c 68080000 		.4byte	.LLST90
 6472 1820 36       		.uleb128 0x36
 6473 1821 67070000 		.4byte	.LASF268
 6474 1825 01       		.byte	0x1
 6475 1826 B403     		.2byte	0x3b4
 6476 1828 B8000000 		.4byte	0xb8
 6477 182c B47F     		.sleb128 -76
 6478 182e 28       		.uleb128 0x28
 6479 182f CC0D0000 		.4byte	.LASF269
 6480 1833 01       		.byte	0x1
 6481 1834 B503     		.2byte	0x3b5
 6482 1836 E9000000 		.4byte	0xe9
 6483 183a 06       		.byte	0x6
 6484 183b 28       		.uleb128 0x28
 6485 183c 20130000 		.4byte	.LASF270
 6486 1840 01       		.byte	0x1
 6487 1841 B603     		.2byte	0x3b6
 6488 1843 E9000000 		.4byte	0xe9
 6489 1847 2C       		.byte	0x2c
 6490 1848 2C       		.uleb128 0x2c
 6491 1849 62150000 		.4byte	.LASF271
 6492 184d 01       		.byte	0x1
 6493 184e B703     		.2byte	0x3b7
 6494 1850 E9000000 		.4byte	0xe9
 6495 1854 02       		.uleb128 0x2
 6496 1855 91       		.byte	0x91
 6497 1856 60       		.sleb128 -32
 6498 1857 27       		.uleb128 0x27
ARM GAS  C:\Users\Moi\AppData\Local\Temp\ccWeMAis.s 			page 115


 6499 1858 27020000 		.4byte	.LASF272
 6500 185c 01       		.byte	0x1
 6501 185d B803     		.2byte	0x3b8
 6502 185f E9000000 		.4byte	0xe9
 6503 1863 C0080000 		.4byte	.LLST91
 6504 1867 37       		.uleb128 0x37
 6505 1868 70230000 		.4byte	0x2370
 6506 186c 26000000 		.4byte	.LBB34
 6507 1870 18000000 		.4byte	.Ldebug_ranges0+0x18
 6508 1874 01       		.byte	0x1
 6509 1875 D803     		.2byte	0x3d8
 6510 1877 9D180000 		.4byte	0x189d
 6511 187b 32       		.uleb128 0x32
 6512 187c 81230000 		.4byte	0x2381
 6513 1880 EC080000 		.4byte	.LLST92
 6514 1884 38       		.uleb128 0x38
 6515 1885 18000000 		.4byte	.Ldebug_ranges0+0x18
 6516 1889 39       		.uleb128 0x39
 6517 188a AE290000 		.4byte	0x29ae
 6518 188e 0F090000 		.4byte	.LLST93
 6519 1892 39       		.uleb128 0x39
 6520 1893 B3290000 		.4byte	0x29b3
 6521 1897 33090000 		.4byte	.LLST94
 6522 189b 00       		.byte	0
 6523 189c 00       		.byte	0
 6524 189d 29       		.uleb128 0x29
 6525 189e 18000000 		.4byte	.LVL209
 6526 18a2 8B2B0000 		.4byte	0x2b8b
 6527 18a6 BC180000 		.4byte	0x18bc
 6528 18aa 2A       		.uleb128 0x2a
 6529 18ab 01       		.uleb128 0x1
 6530 18ac 50       		.byte	0x50
 6531 18ad 02       		.uleb128 0x2
 6532 18ae 74       		.byte	0x74
 6533 18af 00       		.sleb128 0
 6534 18b0 2A       		.uleb128 0x2a
 6535 18b1 01       		.uleb128 0x1
 6536 18b2 51       		.byte	0x51
 6537 18b3 02       		.uleb128 0x2
 6538 18b4 09       		.byte	0x9
 6539 18b5 FF       		.byte	0xff
 6540 18b6 2A       		.uleb128 0x2a
 6541 18b7 01       		.uleb128 0x1
 6542 18b8 52       		.byte	0x52
 6543 18b9 01       		.uleb128 0x1
 6544 18ba 31       		.byte	0x31
 6545 18bb 00       		.byte	0
 6546 18bc 29       		.uleb128 0x29
 6547 18bd 4E000000 		.4byte	.LVL215
 6548 18c1 571F0000 		.4byte	0x1f57
 6549 18c5 FF180000 		.4byte	0x18ff
 6550 18c9 2A       		.uleb128 0x2a
 6551 18ca 01       		.uleb128 0x1
 6552 18cb 50       		.byte	0x50
 6553 18cc 02       		.uleb128 0x2
 6554 18cd 74       		.byte	0x74
 6555 18ce 00       		.sleb128 0
ARM GAS  C:\Users\Moi\AppData\Local\Temp\ccWeMAis.s 			page 116


 6556 18cf 2A       		.uleb128 0x2a
 6557 18d0 01       		.uleb128 0x1
 6558 18d1 51       		.byte	0x51
 6559 18d2 02       		.uleb128 0x2
 6560 18d3 75       		.byte	0x75
 6561 18d4 00       		.sleb128 0
 6562 18d5 2A       		.uleb128 0x2a
 6563 18d6 01       		.uleb128 0x1
 6564 18d7 52       		.byte	0x52
 6565 18d8 03       		.uleb128 0x3
 6566 18d9 74       		.byte	0x74
 6567 18da AA02     		.sleb128 298
 6568 18dc 2A       		.uleb128 0x2a
 6569 18dd 01       		.uleb128 0x1
 6570 18de 53       		.byte	0x53
 6571 18df 03       		.uleb128 0x3
 6572 18e0 74       		.byte	0x74
 6573 18e1 A402     		.sleb128 292
 6574 18e3 2A       		.uleb128 0x2a
 6575 18e4 02       		.uleb128 0x2
 6576 18e5 7D       		.byte	0x7d
 6577 18e6 00       		.sleb128 0
 6578 18e7 01       		.uleb128 0x1
 6579 18e8 36       		.byte	0x36
 6580 18e9 2A       		.uleb128 0x2a
 6581 18ea 02       		.uleb128 0x2
 6582 18eb 7D       		.byte	0x7d
 6583 18ec 04       		.sleb128 4
 6584 18ed 02       		.uleb128 0x2
 6585 18ee 08       		.byte	0x8
 6586 18ef B4       		.byte	0xb4
 6587 18f0 2A       		.uleb128 0x2a
 6588 18f1 02       		.uleb128 0x2
 6589 18f2 7D       		.byte	0x7d
 6590 18f3 0C       		.sleb128 12
 6591 18f4 02       		.uleb128 0x2
 6592 18f5 77       		.byte	0x77
 6593 18f6 00       		.sleb128 0
 6594 18f7 2A       		.uleb128 0x2a
 6595 18f8 02       		.uleb128 0x2
 6596 18f9 7D       		.byte	0x7d
 6597 18fa 10       		.sleb128 16
 6598 18fb 02       		.uleb128 0x2
 6599 18fc 91       		.byte	0x91
 6600 18fd 60       		.sleb128 -32
 6601 18fe 00       		.byte	0
 6602 18ff 29       		.uleb128 0x29
 6603 1900 8E000000 		.4byte	.LVL222
 6604 1904 8B2B0000 		.4byte	0x2b8b
 6605 1908 19190000 		.4byte	0x1919
 6606 190c 2A       		.uleb128 0x2a
 6607 190d 01       		.uleb128 0x1
 6608 190e 50       		.byte	0x50
 6609 190f 02       		.uleb128 0x2
 6610 1910 74       		.byte	0x74
 6611 1911 00       		.sleb128 0
 6612 1912 2A       		.uleb128 0x2a
ARM GAS  C:\Users\Moi\AppData\Local\Temp\ccWeMAis.s 			page 117


 6613 1913 01       		.uleb128 0x1
 6614 1914 51       		.byte	0x51
 6615 1915 02       		.uleb128 0x2
 6616 1916 08       		.byte	0x8
 6617 1917 4F       		.byte	0x4f
 6618 1918 00       		.byte	0
 6619 1919 29       		.uleb128 0x29
 6620 191a 9C000000 		.4byte	.LVL224
 6621 191e 8B2B0000 		.4byte	0x2b8b
 6622 1922 39190000 		.4byte	0x1939
 6623 1926 2A       		.uleb128 0x2a
 6624 1927 01       		.uleb128 0x1
 6625 1928 50       		.byte	0x50
 6626 1929 02       		.uleb128 0x2
 6627 192a 74       		.byte	0x74
 6628 192b 00       		.sleb128 0
 6629 192c 2A       		.uleb128 0x2a
 6630 192d 01       		.uleb128 0x1
 6631 192e 51       		.byte	0x51
 6632 192f 02       		.uleb128 0x2
 6633 1930 08       		.byte	0x8
 6634 1931 4E       		.byte	0x4e
 6635 1932 2A       		.uleb128 0x2a
 6636 1933 01       		.uleb128 0x1
 6637 1934 52       		.byte	0x52
 6638 1935 02       		.uleb128 0x2
 6639 1936 08       		.byte	0x8
 6640 1937 2C       		.byte	0x2c
 6641 1938 00       		.byte	0
 6642 1939 29       		.uleb128 0x29
 6643 193a AA000000 		.4byte	.LVL226
 6644 193e 8B2B0000 		.4byte	0x2b8b
 6645 1942 53190000 		.4byte	0x1953
 6646 1946 2A       		.uleb128 0x2a
 6647 1947 01       		.uleb128 0x1
 6648 1948 50       		.byte	0x50
 6649 1949 02       		.uleb128 0x2
 6650 194a 74       		.byte	0x74
 6651 194b 00       		.sleb128 0
 6652 194c 2A       		.uleb128 0x2a
 6653 194d 01       		.uleb128 0x1
 6654 194e 51       		.byte	0x51
 6655 194f 02       		.uleb128 0x2
 6656 1950 09       		.byte	0x9
 6657 1951 FF       		.byte	0xff
 6658 1952 00       		.byte	0
 6659 1953 29       		.uleb128 0x29
 6660 1954 B8000000 		.4byte	.LVL228
 6661 1958 8B2B0000 		.4byte	0x2b8b
 6662 195c 73190000 		.4byte	0x1973
 6663 1960 2A       		.uleb128 0x2a
 6664 1961 01       		.uleb128 0x1
 6665 1962 50       		.byte	0x50
 6666 1963 02       		.uleb128 0x2
 6667 1964 74       		.byte	0x74
 6668 1965 00       		.sleb128 0
 6669 1966 2A       		.uleb128 0x2a
ARM GAS  C:\Users\Moi\AppData\Local\Temp\ccWeMAis.s 			page 118


 6670 1967 01       		.uleb128 0x1
 6671 1968 51       		.byte	0x51
 6672 1969 02       		.uleb128 0x2
 6673 196a 09       		.byte	0x9
 6674 196b B6       		.byte	0xb6
 6675 196c 2A       		.uleb128 0x2a
 6676 196d 01       		.uleb128 0x1
 6677 196e 52       		.byte	0x52
 6678 196f 02       		.uleb128 0x2
 6679 1970 09       		.byte	0x9
 6680 1971 B4       		.byte	0xb4
 6681 1972 00       		.byte	0
 6682 1973 2B       		.uleb128 0x2b
 6683 1974 BE000000 		.4byte	.LVL230
 6684 1978 822B0000 		.4byte	0x2b82
 6685 197c 00       		.byte	0
 6686 197d 24       		.uleb128 0x24
 6687 197e 9C0D0000 		.4byte	.LASF273
 6688 1982 01       		.byte	0x1
 6689 1983 A402     		.2byte	0x2a4
 6690 1985 94010000 		.4byte	0x194
 6691 1989 00000000 		.4byte	.LFB16
 6692 198d BC020000 		.4byte	.LFE16-.LFB16
 6693 1991 01       		.uleb128 0x1
 6694 1992 9C       		.byte	0x9c
 6695 1993 2F1E0000 		.4byte	0x1e2f
 6696 1997 25       		.uleb128 0x25
 6697 1998 44657600 		.ascii	"Dev\000"
 6698 199c 01       		.byte	0x1
 6699 199d A402     		.2byte	0x2a4
 6700 199f EB0E0000 		.4byte	0xeeb
 6701 19a3 53090000 		.4byte	.LLST132
 6702 19a7 26       		.uleb128 0x26
 6703 19a8 350A0000 		.4byte	.LASF274
 6704 19ac 01       		.byte	0x1
 6705 19ad A502     		.2byte	0x2a5
 6706 19af B0170000 		.4byte	0x17b0
 6707 19b3 71090000 		.4byte	.LLST133
 6708 19b7 26       		.uleb128 0x26
 6709 19b8 130E0000 		.4byte	.LASF264
 6710 19bc 01       		.byte	0x1
 6711 19bd A602     		.2byte	0x2a6
 6712 19bf 7C060000 		.4byte	0x67c
 6713 19c3 91090000 		.4byte	.LLST134
 6714 19c7 27       		.uleb128 0x27
 6715 19c8 CE010000 		.4byte	.LASF238
 6716 19cc 01       		.byte	0x1
 6717 19cd A802     		.2byte	0x2a8
 6718 19cf 94010000 		.4byte	0x194
 6719 19d3 B1090000 		.4byte	.LLST135
 6720 19d7 2C       		.uleb128 0x2c
 6721 19d8 44060000 		.4byte	.LASF275
 6722 19dc 01       		.byte	0x1
 6723 19dd A902     		.2byte	0x2a9
 6724 19df 5C020000 		.4byte	0x25c
 6725 19e3 02       		.uleb128 0x2
 6726 19e4 91       		.byte	0x91
ARM GAS  C:\Users\Moi\AppData\Local\Temp\ccWeMAis.s 			page 119


 6727 19e5 4C       		.sleb128 -52
 6728 19e6 36       		.uleb128 0x36
 6729 19e7 67070000 		.4byte	.LASF268
 6730 19eb 01       		.byte	0x1
 6731 19ec AA02     		.2byte	0x2aa
 6732 19ee B8000000 		.4byte	0xb8
 6733 19f2 B47F     		.sleb128 -76
 6734 19f4 28       		.uleb128 0x28
 6735 19f5 69030000 		.4byte	.LASF276
 6736 19f9 01       		.byte	0x1
 6737 19fa AB02     		.2byte	0x2ab
 6738 19fc E9000000 		.4byte	0xe9
 6739 1a00 03       		.byte	0x3
 6740 1a01 28       		.uleb128 0x28
 6741 1a02 20130000 		.4byte	.LASF270
 6742 1a06 01       		.byte	0x1
 6743 1a07 AC02     		.2byte	0x2ac
 6744 1a09 E9000000 		.4byte	0xe9
 6745 1a0d 2C       		.byte	0x2c
 6746 1a0e 27       		.uleb128 0x27
 6747 1a0f 75010000 		.4byte	.LASF267
 6748 1a13 01       		.byte	0x1
 6749 1a14 AD02     		.2byte	0x2ad
 6750 1a16 E9000000 		.4byte	0xe9
 6751 1a1a A30A0000 		.4byte	.LLST136
 6752 1a1e 2C       		.uleb128 0x2c
 6753 1a1f 62150000 		.4byte	.LASF271
 6754 1a23 01       		.byte	0x1
 6755 1a24 AE02     		.2byte	0x2ae
 6756 1a26 E9000000 		.4byte	0xe9
 6757 1a2a 02       		.uleb128 0x2
 6758 1a2b 91       		.byte	0x91
 6759 1a2c 44       		.sleb128 -60
 6760 1a2d 2C       		.uleb128 0x2c
 6761 1a2e 2C140000 		.4byte	.LASF277
 6762 1a32 01       		.byte	0x1
 6763 1a33 AF02     		.2byte	0x2af
 6764 1a35 DE000000 		.4byte	0xde
 6765 1a39 02       		.uleb128 0x2
 6766 1a3a 91       		.byte	0x91
 6767 1a3b 48       		.sleb128 -56
 6768 1a3c 27       		.uleb128 0x27
 6769 1a3d 4C050000 		.4byte	.LASF108
 6770 1a41 01       		.byte	0x1
 6771 1a42 B002     		.2byte	0x2b0
 6772 1a44 D3000000 		.4byte	0xd3
 6773 1a48 310B0000 		.4byte	.LLST137
 6774 1a4c 2C       		.uleb128 0x2c
 6775 1a4d 15150000 		.4byte	.LASF278
 6776 1a51 01       		.byte	0x1
 6777 1a52 B102     		.2byte	0x2b1
 6778 1a54 D3000000 		.4byte	0xd3
 6779 1a58 02       		.uleb128 0x2
 6780 1a59 91       		.byte	0x91
 6781 1a5a 42       		.sleb128 -62
 6782 1a5b 27       		.uleb128 0x27
 6783 1a5c CD020000 		.4byte	.LASF279
ARM GAS  C:\Users\Moi\AppData\Local\Temp\ccWeMAis.s 			page 120


 6784 1a60 01       		.byte	0x1
 6785 1a61 B202     		.2byte	0x2b2
 6786 1a63 E9000000 		.4byte	0xe9
 6787 1a67 520B0000 		.4byte	.LLST138
 6788 1a6b 27       		.uleb128 0x27
 6789 1a6c 27020000 		.4byte	.LASF272
 6790 1a70 01       		.byte	0x1
 6791 1a71 B302     		.2byte	0x2b3
 6792 1a73 E9000000 		.4byte	0xe9
 6793 1a77 AE0B0000 		.4byte	.LLST139
 6794 1a7b 28       		.uleb128 0x28
 6795 1a7c CC0D0000 		.4byte	.LASF269
 6796 1a80 01       		.byte	0x1
 6797 1a81 B402     		.2byte	0x2b4
 6798 1a83 E9000000 		.4byte	0xe9
 6799 1a87 06       		.byte	0x6
 6800 1a88 27       		.uleb128 0x27
 6801 1a89 F3130000 		.4byte	.LASF280
 6802 1a8d 01       		.byte	0x1
 6803 1a8e B502     		.2byte	0x2b5
 6804 1a90 E9000000 		.4byte	0xe9
 6805 1a94 E60B0000 		.4byte	.LLST140
 6806 1a98 27       		.uleb128 0x27
 6807 1a99 E2140000 		.4byte	.LASF281
 6808 1a9d 01       		.byte	0x1
 6809 1a9e B602     		.2byte	0x2b6
 6810 1aa0 E9000000 		.4byte	0xe9
 6811 1aa4 670C0000 		.4byte	.LLST141
 6812 1aa8 27       		.uleb128 0x27
 6813 1aa9 D9080000 		.4byte	.LASF282
 6814 1aad 01       		.byte	0x1
 6815 1aae B702     		.2byte	0x2b7
 6816 1ab0 B8000000 		.4byte	0xb8
 6817 1ab4 AA0C0000 		.4byte	.LLST142
 6818 1ab8 2C       		.uleb128 0x2c
 6819 1ab9 40120000 		.4byte	.LASF239
 6820 1abd 01       		.byte	0x1
 6821 1abe B802     		.2byte	0x2b8
 6822 1ac0 B8000000 		.4byte	0xb8
 6823 1ac4 02       		.uleb128 0x2
 6824 1ac5 91       		.byte	0x91
 6825 1ac6 40       		.sleb128 -64
 6826 1ac7 2C       		.uleb128 0x2c
 6827 1ac8 B50A0000 		.4byte	.LASF240
 6828 1acc 01       		.byte	0x1
 6829 1acd B902     		.2byte	0x2b9
 6830 1acf B8000000 		.4byte	0xb8
 6831 1ad3 02       		.uleb128 0x2
 6832 1ad4 91       		.byte	0x91
 6833 1ad5 41       		.sleb128 -63
 6834 1ad6 27       		.uleb128 0x27
 6835 1ad7 0B0A0000 		.4byte	.LASF283
 6836 1adb 01       		.byte	0x1
 6837 1adc BA02     		.2byte	0x2ba
 6838 1ade E9000000 		.4byte	0xe9
 6839 1ae2 EE0C0000 		.4byte	.LLST143
 6840 1ae6 27       		.uleb128 0x27
ARM GAS  C:\Users\Moi\AppData\Local\Temp\ccWeMAis.s 			page 121


 6841 1ae7 47150000 		.4byte	.LASF284
 6842 1aeb 01       		.byte	0x1
 6843 1aec BB02     		.2byte	0x2bb
 6844 1aee B8000000 		.4byte	0xb8
 6845 1af2 810D0000 		.4byte	.LLST144
 6846 1af6 37       		.uleb128 0x37
 6847 1af7 70230000 		.4byte	0x2370
 6848 1afb 08010000 		.4byte	.LBB48
 6849 1aff 50000000 		.4byte	.Ldebug_ranges0+0x50
 6850 1b03 01       		.byte	0x1
 6851 1b04 1D03     		.2byte	0x31d
 6852 1b06 2C1B0000 		.4byte	0x1b2c
 6853 1b0a 32       		.uleb128 0x32
 6854 1b0b 81230000 		.4byte	0x2381
 6855 1b0f E00D0000 		.4byte	.LLST145
 6856 1b13 38       		.uleb128 0x38
 6857 1b14 50000000 		.4byte	.Ldebug_ranges0+0x50
 6858 1b18 39       		.uleb128 0x39
 6859 1b19 AE290000 		.4byte	0x29ae
 6860 1b1d 040E0000 		.4byte	.LLST146
 6861 1b21 39       		.uleb128 0x39
 6862 1b22 B3290000 		.4byte	0x29b3
 6863 1b26 2C0E0000 		.4byte	.LLST147
 6864 1b2a 00       		.byte	0
 6865 1b2b 00       		.byte	0
 6866 1b2c 37       		.uleb128 0x37
 6867 1b2d 0A230000 		.4byte	0x230a
 6868 1b31 84010000 		.4byte	.LBB56
 6869 1b35 78000000 		.4byte	.Ldebug_ranges0+0x78
 6870 1b39 01       		.byte	0x1
 6871 1b3a 6E03     		.2byte	0x36e
 6872 1b3c 721B0000 		.4byte	0x1b72
 6873 1b40 32       		.uleb128 0x32
 6874 1b41 33230000 		.4byte	0x2333
 6875 1b45 4C0E0000 		.4byte	.LLST148
 6876 1b49 32       		.uleb128 0x32
 6877 1b4a 27230000 		.4byte	0x2327
 6878 1b4e 6A0E0000 		.4byte	.LLST149
 6879 1b52 3A       		.uleb128 0x3a
 6880 1b53 1B230000 		.4byte	0x231b
 6881 1b57 38       		.uleb128 0x38
 6882 1b58 78000000 		.4byte	.Ldebug_ranges0+0x78
 6883 1b5c 3B       		.uleb128 0x3b
 6884 1b5d F0290000 		.4byte	0x29f0
 6885 1b61 3B       		.uleb128 0x3b
 6886 1b62 F9290000 		.4byte	0x29f9
 6887 1b66 3B       		.uleb128 0x3b
 6888 1b67 FF290000 		.4byte	0x29ff
 6889 1b6b 3B       		.uleb128 0x3b
 6890 1b6c 082A0000 		.4byte	0x2a08
 6891 1b70 00       		.byte	0
 6892 1b71 00       		.byte	0
 6893 1b72 37       		.uleb128 0x37
 6894 1b73 70230000 		.4byte	0x2370
 6895 1b77 AE010000 		.4byte	.LBB63
 6896 1b7b A8000000 		.4byte	.Ldebug_ranges0+0xa8
 6897 1b7f 01       		.byte	0x1
ARM GAS  C:\Users\Moi\AppData\Local\Temp\ccWeMAis.s 			page 122


 6898 1b80 6203     		.2byte	0x362
 6899 1b82 9C1B0000 		.4byte	0x1b9c
 6900 1b86 3A       		.uleb128 0x3a
 6901 1b87 81230000 		.4byte	0x2381
 6902 1b8b 38       		.uleb128 0x38
 6903 1b8c A8000000 		.4byte	.Ldebug_ranges0+0xa8
 6904 1b90 3B       		.uleb128 0x3b
 6905 1b91 AE290000 		.4byte	0x29ae
 6906 1b95 3B       		.uleb128 0x3b
 6907 1b96 B3290000 		.4byte	0x29b3
 6908 1b9a 00       		.byte	0
 6909 1b9b 00       		.byte	0
 6910 1b9c 37       		.uleb128 0x37
 6911 1b9d E7210000 		.4byte	0x21e7
 6912 1ba1 E6010000 		.4byte	.LBB70
 6913 1ba5 C0000000 		.4byte	.Ldebug_ranges0+0xc0
 6914 1ba9 01       		.byte	0x1
 6915 1baa 7603     		.2byte	0x376
 6916 1bac EF1B0000 		.4byte	0x1bef
 6917 1bb0 32       		.uleb128 0x32
 6918 1bb1 04220000 		.4byte	0x2204
 6919 1bb5 8A0E0000 		.4byte	.LLST150
 6920 1bb9 32       		.uleb128 0x32
 6921 1bba F8210000 		.4byte	0x21f8
 6922 1bbe A80E0000 		.4byte	.LLST151
 6923 1bc2 38       		.uleb128 0x38
 6924 1bc3 C0000000 		.4byte	.Ldebug_ranges0+0xc0
 6925 1bc7 3B       		.uleb128 0x3b
 6926 1bc8 402A0000 		.4byte	0x2a40
 6927 1bcc 35       		.uleb128 0x35
 6928 1bcd F4010000 		.4byte	.LVL394
 6929 1bd1 B72B0000 		.4byte	0x2bb7
 6930 1bd5 2A       		.uleb128 0x2a
 6931 1bd6 01       		.uleb128 0x1
 6932 1bd7 50       		.byte	0x50
 6933 1bd8 02       		.uleb128 0x2
 6934 1bd9 76       		.byte	0x76
 6935 1bda 00       		.sleb128 0
 6936 1bdb 2A       		.uleb128 0x2a
 6937 1bdc 01       		.uleb128 0x1
 6938 1bdd 51       		.byte	0x51
 6939 1bde 02       		.uleb128 0x2
 6940 1bdf 09       		.byte	0x9
 6941 1be0 B0       		.byte	0xb0
 6942 1be1 2A       		.uleb128 0x2a
 6943 1be2 01       		.uleb128 0x1
 6944 1be3 52       		.byte	0x52
 6945 1be4 02       		.uleb128 0x2
 6946 1be5 78       		.byte	0x78
 6947 1be6 00       		.sleb128 0
 6948 1be7 2A       		.uleb128 0x2a
 6949 1be8 01       		.uleb128 0x1
 6950 1be9 53       		.byte	0x53
 6951 1bea 01       		.uleb128 0x1
 6952 1beb 36       		.byte	0x36
 6953 1bec 00       		.byte	0
 6954 1bed 00       		.byte	0
ARM GAS  C:\Users\Moi\AppData\Local\Temp\ccWeMAis.s 			page 123


 6955 1bee 00       		.byte	0
 6956 1bef 37       		.uleb128 0x37
 6957 1bf0 E7210000 		.4byte	0x21e7
 6958 1bf4 1E020000 		.4byte	.LBB74
 6959 1bf8 D8000000 		.4byte	.Ldebug_ranges0+0xd8
 6960 1bfc 01       		.byte	0x1
 6961 1bfd 8D03     		.2byte	0x38d
 6962 1bff 421C0000 		.4byte	0x1c42
 6963 1c03 32       		.uleb128 0x32
 6964 1c04 04220000 		.4byte	0x2204
 6965 1c08 C60E0000 		.4byte	.LLST152
 6966 1c0c 32       		.uleb128 0x32
 6967 1c0d F8210000 		.4byte	0x21f8
 6968 1c11 F30E0000 		.4byte	.LLST153
 6969 1c15 38       		.uleb128 0x38
 6970 1c16 D8000000 		.4byte	.Ldebug_ranges0+0xd8
 6971 1c1a 3B       		.uleb128 0x3b
 6972 1c1b 402A0000 		.4byte	0x2a40
 6973 1c1f 35       		.uleb128 0x35
 6974 1c20 2A020000 		.4byte	.LVL402
 6975 1c24 B72B0000 		.4byte	0x2bb7
 6976 1c28 2A       		.uleb128 0x2a
 6977 1c29 01       		.uleb128 0x1
 6978 1c2a 50       		.byte	0x50
 6979 1c2b 02       		.uleb128 0x2
 6980 1c2c 76       		.byte	0x76
 6981 1c2d 00       		.sleb128 0
 6982 1c2e 2A       		.uleb128 0x2a
 6983 1c2f 01       		.uleb128 0x1
 6984 1c30 51       		.byte	0x51
 6985 1c31 02       		.uleb128 0x2
 6986 1c32 09       		.byte	0x9
 6987 1c33 B0       		.byte	0xb0
 6988 1c34 2A       		.uleb128 0x2a
 6989 1c35 01       		.uleb128 0x1
 6990 1c36 52       		.byte	0x52
 6991 1c37 02       		.uleb128 0x2
 6992 1c38 91       		.byte	0x91
 6993 1c39 4C       		.sleb128 -52
 6994 1c3a 2A       		.uleb128 0x2a
 6995 1c3b 01       		.uleb128 0x1
 6996 1c3c 53       		.byte	0x53
 6997 1c3d 01       		.uleb128 0x1
 6998 1c3e 36       		.byte	0x36
 6999 1c3f 00       		.byte	0
 7000 1c40 00       		.byte	0
 7001 1c41 00       		.byte	0
 7002 1c42 29       		.uleb128 0x29
 7003 1c43 38000000 		.4byte	.LVL352
 7004 1c47 8B2B0000 		.4byte	0x2b8b
 7005 1c4b 611C0000 		.4byte	0x1c61
 7006 1c4f 2A       		.uleb128 0x2a
 7007 1c50 01       		.uleb128 0x1
 7008 1c51 50       		.byte	0x50
 7009 1c52 02       		.uleb128 0x2
 7010 1c53 76       		.byte	0x76
 7011 1c54 00       		.sleb128 0
ARM GAS  C:\Users\Moi\AppData\Local\Temp\ccWeMAis.s 			page 124


 7012 1c55 2A       		.uleb128 0x2a
 7013 1c56 01       		.uleb128 0x1
 7014 1c57 51       		.byte	0x51
 7015 1c58 02       		.uleb128 0x2
 7016 1c59 09       		.byte	0x9
 7017 1c5a FF       		.byte	0xff
 7018 1c5b 2A       		.uleb128 0x2a
 7019 1c5c 01       		.uleb128 0x1
 7020 1c5d 52       		.byte	0x52
 7021 1c5e 01       		.uleb128 0x1
 7022 1c5f 31       		.byte	0x31
 7023 1c60 00       		.byte	0
 7024 1c61 29       		.uleb128 0x29
 7025 1c62 5A000000 		.4byte	.LVL356
 7026 1c66 8B2B0000 		.4byte	0x2b8b
 7027 1c6a 811C0000 		.4byte	0x1c81
 7028 1c6e 2A       		.uleb128 0x2a
 7029 1c6f 01       		.uleb128 0x1
 7030 1c70 50       		.byte	0x50
 7031 1c71 02       		.uleb128 0x2
 7032 1c72 76       		.byte	0x76
 7033 1c73 00       		.sleb128 0
 7034 1c74 2A       		.uleb128 0x2a
 7035 1c75 01       		.uleb128 0x1
 7036 1c76 51       		.byte	0x51
 7037 1c77 02       		.uleb128 0x2
 7038 1c78 08       		.byte	0x8
 7039 1c79 4F       		.byte	0x4f
 7040 1c7a 2A       		.uleb128 0x2a
 7041 1c7b 01       		.uleb128 0x1
 7042 1c7c 52       		.byte	0x52
 7043 1c7d 02       		.uleb128 0x2
 7044 1c7e 75       		.byte	0x75
 7045 1c7f 00       		.sleb128 0
 7046 1c80 00       		.byte	0
 7047 1c81 29       		.uleb128 0x29
 7048 1c82 6A000000 		.4byte	.LVL358
 7049 1c86 8B2B0000 		.4byte	0x2b8b
 7050 1c8a A11C0000 		.4byte	0x1ca1
 7051 1c8e 2A       		.uleb128 0x2a
 7052 1c8f 01       		.uleb128 0x1
 7053 1c90 50       		.byte	0x50
 7054 1c91 02       		.uleb128 0x2
 7055 1c92 76       		.byte	0x76
 7056 1c93 00       		.sleb128 0
 7057 1c94 2A       		.uleb128 0x2a
 7058 1c95 01       		.uleb128 0x1
 7059 1c96 51       		.byte	0x51
 7060 1c97 02       		.uleb128 0x2
 7061 1c98 08       		.byte	0x8
 7062 1c99 4E       		.byte	0x4e
 7063 1c9a 2A       		.uleb128 0x2a
 7064 1c9b 01       		.uleb128 0x1
 7065 1c9c 52       		.byte	0x52
 7066 1c9d 02       		.uleb128 0x2
 7067 1c9e 08       		.byte	0x8
 7068 1c9f 2C       		.byte	0x2c
ARM GAS  C:\Users\Moi\AppData\Local\Temp\ccWeMAis.s 			page 125


 7069 1ca0 00       		.byte	0
 7070 1ca1 29       		.uleb128 0x29
 7071 1ca2 7A000000 		.4byte	.LVL360
 7072 1ca6 8B2B0000 		.4byte	0x2b8b
 7073 1caa C11C0000 		.4byte	0x1cc1
 7074 1cae 2A       		.uleb128 0x2a
 7075 1caf 01       		.uleb128 0x1
 7076 1cb0 50       		.byte	0x50
 7077 1cb1 02       		.uleb128 0x2
 7078 1cb2 76       		.byte	0x76
 7079 1cb3 00       		.sleb128 0
 7080 1cb4 2A       		.uleb128 0x2a
 7081 1cb5 01       		.uleb128 0x1
 7082 1cb6 51       		.byte	0x51
 7083 1cb7 02       		.uleb128 0x2
 7084 1cb8 09       		.byte	0x9
 7085 1cb9 FF       		.byte	0xff
 7086 1cba 2A       		.uleb128 0x2a
 7087 1cbb 01       		.uleb128 0x1
 7088 1cbc 52       		.byte	0x52
 7089 1cbd 02       		.uleb128 0x2
 7090 1cbe 75       		.byte	0x75
 7091 1cbf 00       		.sleb128 0
 7092 1cc0 00       		.byte	0
 7093 1cc1 29       		.uleb128 0x29
 7094 1cc2 8A000000 		.4byte	.LVL362
 7095 1cc6 8B2B0000 		.4byte	0x2b8b
 7096 1cca E11C0000 		.4byte	0x1ce1
 7097 1cce 2A       		.uleb128 0x2a
 7098 1ccf 01       		.uleb128 0x1
 7099 1cd0 50       		.byte	0x50
 7100 1cd1 02       		.uleb128 0x2
 7101 1cd2 76       		.byte	0x76
 7102 1cd3 00       		.sleb128 0
 7103 1cd4 2A       		.uleb128 0x2a
 7104 1cd5 01       		.uleb128 0x1
 7105 1cd6 51       		.byte	0x51
 7106 1cd7 02       		.uleb128 0x2
 7107 1cd8 09       		.byte	0x9
 7108 1cd9 B6       		.byte	0xb6
 7109 1cda 2A       		.uleb128 0x2a
 7110 1cdb 01       		.uleb128 0x1
 7111 1cdc 52       		.byte	0x52
 7112 1cdd 02       		.uleb128 0x2
 7113 1cde 09       		.byte	0x9
 7114 1cdf B4       		.byte	0xb4
 7115 1ce0 00       		.byte	0
 7116 1ce1 29       		.uleb128 0x29
 7117 1ce2 9A000000 		.4byte	.LVL364
 7118 1ce6 8B2B0000 		.4byte	0x2b8b
 7119 1cea 011D0000 		.4byte	0x1d01
 7120 1cee 2A       		.uleb128 0x2a
 7121 1cef 01       		.uleb128 0x1
 7122 1cf0 50       		.byte	0x50
 7123 1cf1 02       		.uleb128 0x2
 7124 1cf2 76       		.byte	0x76
 7125 1cf3 00       		.sleb128 0
ARM GAS  C:\Users\Moi\AppData\Local\Temp\ccWeMAis.s 			page 126


 7126 1cf4 2A       		.uleb128 0x2a
 7127 1cf5 01       		.uleb128 0x1
 7128 1cf6 51       		.byte	0x51
 7129 1cf7 02       		.uleb128 0x2
 7130 1cf8 09       		.byte	0x9
 7131 1cf9 80       		.byte	0x80
 7132 1cfa 2A       		.uleb128 0x2a
 7133 1cfb 01       		.uleb128 0x1
 7134 1cfc 52       		.byte	0x52
 7135 1cfd 02       		.uleb128 0x2
 7136 1cfe 75       		.byte	0x75
 7137 1cff 00       		.sleb128 0
 7138 1d00 00       		.byte	0
 7139 1d01 29       		.uleb128 0x29
 7140 1d02 AE000000 		.4byte	.LVL366
 7141 1d06 9E100000 		.4byte	0x109e
 7142 1d0a 271D0000 		.4byte	0x1d27
 7143 1d0e 2A       		.uleb128 0x2a
 7144 1d0f 01       		.uleb128 0x1
 7145 1d10 50       		.byte	0x50
 7146 1d11 02       		.uleb128 0x2
 7147 1d12 76       		.byte	0x76
 7148 1d13 00       		.sleb128 0
 7149 1d14 2A       		.uleb128 0x2a
 7150 1d15 01       		.uleb128 0x1
 7151 1d16 51       		.byte	0x51
 7152 1d17 02       		.uleb128 0x2
 7153 1d18 91       		.byte	0x91
 7154 1d19 40       		.sleb128 -64
 7155 1d1a 2A       		.uleb128 0x2a
 7156 1d1b 01       		.uleb128 0x1
 7157 1d1c 52       		.byte	0x52
 7158 1d1d 02       		.uleb128 0x2
 7159 1d1e 91       		.byte	0x91
 7160 1d1f 41       		.sleb128 -63
 7161 1d20 2A       		.uleb128 0x2a
 7162 1d21 01       		.uleb128 0x1
 7163 1d22 53       		.byte	0x53
 7164 1d23 02       		.uleb128 0x2
 7165 1d24 75       		.byte	0x75
 7166 1d25 00       		.sleb128 0
 7167 1d26 00       		.byte	0
 7168 1d27 29       		.uleb128 0x29
 7169 1d28 E4000000 		.4byte	.LVL368
 7170 1d2c 571F0000 		.4byte	0x1f57
 7171 1d30 701D0000 		.4byte	0x1d70
 7172 1d34 2A       		.uleb128 0x2a
 7173 1d35 01       		.uleb128 0x1
 7174 1d36 50       		.byte	0x50
 7175 1d37 02       		.uleb128 0x2
 7176 1d38 76       		.byte	0x76
 7177 1d39 00       		.sleb128 0
 7178 1d3a 2A       		.uleb128 0x2a
 7179 1d3b 01       		.uleb128 0x1
 7180 1d3c 51       		.byte	0x51
 7181 1d3d 02       		.uleb128 0x2
 7182 1d3e 75       		.byte	0x75
ARM GAS  C:\Users\Moi\AppData\Local\Temp\ccWeMAis.s 			page 127


 7183 1d3f 00       		.sleb128 0
 7184 1d40 2A       		.uleb128 0x2a
 7185 1d41 01       		.uleb128 0x1
 7186 1d42 52       		.byte	0x52
 7187 1d43 04       		.uleb128 0x4
 7188 1d44 91       		.byte	0x91
 7189 1d45 BC7F     		.sleb128 -68
 7190 1d47 06       		.byte	0x6
 7191 1d48 2A       		.uleb128 0x2a
 7192 1d49 01       		.uleb128 0x1
 7193 1d4a 53       		.byte	0x53
 7194 1d4b 02       		.uleb128 0x2
 7195 1d4c 78       		.byte	0x78
 7196 1d4d 00       		.sleb128 0
 7197 1d4e 2A       		.uleb128 0x2a
 7198 1d4f 02       		.uleb128 0x2
 7199 1d50 7D       		.byte	0x7d
 7200 1d51 00       		.sleb128 0
 7201 1d52 01       		.uleb128 0x1
 7202 1d53 36       		.byte	0x36
 7203 1d54 2A       		.uleb128 0x2a
 7204 1d55 02       		.uleb128 0x2
 7205 1d56 7D       		.byte	0x7d
 7206 1d57 04       		.sleb128 4
 7207 1d58 02       		.uleb128 0x2
 7208 1d59 74       		.byte	0x74
 7209 1d5a 00       		.sleb128 0
 7210 1d5b 2A       		.uleb128 0x2a
 7211 1d5c 02       		.uleb128 0x2
 7212 1d5d 7D       		.byte	0x7d
 7213 1d5e 08       		.sleb128 8
 7214 1d5f 02       		.uleb128 0x2
 7215 1d60 75       		.byte	0x75
 7216 1d61 00       		.sleb128 0
 7217 1d62 2A       		.uleb128 0x2a
 7218 1d63 02       		.uleb128 0x2
 7219 1d64 7D       		.byte	0x7d
 7220 1d65 0C       		.sleb128 12
 7221 1d66 01       		.uleb128 0x1
 7222 1d67 33       		.byte	0x33
 7223 1d68 2A       		.uleb128 0x2a
 7224 1d69 02       		.uleb128 0x2
 7225 1d6a 7D       		.byte	0x7d
 7226 1d6b 10       		.sleb128 16
 7227 1d6c 02       		.uleb128 0x2
 7228 1d6d 7B       		.byte	0x7b
 7229 1d6e 00       		.sleb128 0
 7230 1d6f 00       		.byte	0
 7231 1d70 29       		.uleb128 0x29
 7232 1d71 F6000000 		.4byte	.LVL371
 7233 1d75 2F1E0000 		.4byte	0x1e2f
 7234 1d79 8A1D0000 		.4byte	0x1d8a
 7235 1d7d 2A       		.uleb128 0x2a
 7236 1d7e 01       		.uleb128 0x1
 7237 1d7f 50       		.byte	0x50
 7238 1d80 02       		.uleb128 0x2
 7239 1d81 76       		.byte	0x76
ARM GAS  C:\Users\Moi\AppData\Local\Temp\ccWeMAis.s 			page 128


 7240 1d82 00       		.sleb128 0
 7241 1d83 2A       		.uleb128 0x2a
 7242 1d84 01       		.uleb128 0x1
 7243 1d85 51       		.byte	0x51
 7244 1d86 02       		.uleb128 0x2
 7245 1d87 91       		.byte	0x91
 7246 1d88 42       		.sleb128 -62
 7247 1d89 00       		.byte	0
 7248 1d8a 29       		.uleb128 0x29
 7249 1d8b 5C010000 		.4byte	.LVL380
 7250 1d8f 571F0000 		.4byte	0x1f57
 7251 1d93 CC1D0000 		.4byte	0x1dcc
 7252 1d97 2A       		.uleb128 0x2a
 7253 1d98 01       		.uleb128 0x1
 7254 1d99 50       		.byte	0x50
 7255 1d9a 02       		.uleb128 0x2
 7256 1d9b 76       		.byte	0x76
 7257 1d9c 00       		.sleb128 0
 7258 1d9d 2A       		.uleb128 0x2a
 7259 1d9e 01       		.uleb128 0x1
 7260 1d9f 51       		.byte	0x51
 7261 1da0 01       		.uleb128 0x1
 7262 1da1 31       		.byte	0x31
 7263 1da2 2A       		.uleb128 0x2a
 7264 1da3 01       		.uleb128 0x1
 7265 1da4 52       		.byte	0x52
 7266 1da5 04       		.uleb128 0x4
 7267 1da6 91       		.byte	0x91
 7268 1da7 BC7F     		.sleb128 -68
 7269 1da9 06       		.byte	0x6
 7270 1daa 2A       		.uleb128 0x2a
 7271 1dab 01       		.uleb128 0x1
 7272 1dac 53       		.byte	0x53
 7273 1dad 02       		.uleb128 0x2
 7274 1dae 78       		.byte	0x78
 7275 1daf 00       		.sleb128 0
 7276 1db0 2A       		.uleb128 0x2a
 7277 1db1 02       		.uleb128 0x2
 7278 1db2 7D       		.byte	0x7d
 7279 1db3 00       		.sleb128 0
 7280 1db4 01       		.uleb128 0x1
 7281 1db5 36       		.byte	0x36
 7282 1db6 2A       		.uleb128 0x2a
 7283 1db7 02       		.uleb128 0x2
 7284 1db8 7D       		.byte	0x7d
 7285 1db9 04       		.sleb128 4
 7286 1dba 02       		.uleb128 0x2
 7287 1dbb 08       		.byte	0x8
 7288 1dbc B4       		.byte	0xb4
 7289 1dbd 2A       		.uleb128 0x2a
 7290 1dbe 02       		.uleb128 0x2
 7291 1dbf 7D       		.byte	0x7d
 7292 1dc0 0C       		.sleb128 12
 7293 1dc1 02       		.uleb128 0x2
 7294 1dc2 79       		.byte	0x79
 7295 1dc3 00       		.sleb128 0
 7296 1dc4 2A       		.uleb128 0x2a
ARM GAS  C:\Users\Moi\AppData\Local\Temp\ccWeMAis.s 			page 129


 7297 1dc5 02       		.uleb128 0x2
 7298 1dc6 7D       		.byte	0x7d
 7299 1dc7 10       		.sleb128 16
 7300 1dc8 02       		.uleb128 0x2
 7301 1dc9 7B       		.byte	0x7b
 7302 1dca 00       		.sleb128 0
 7303 1dcb 00       		.byte	0
 7304 1dcc 29       		.uleb128 0x29
 7305 1dcd A4010000 		.4byte	.LVL387
 7306 1dd1 A6230000 		.4byte	0x23a6
 7307 1dd5 F11D0000 		.4byte	0x1df1
 7308 1dd9 2A       		.uleb128 0x2a
 7309 1dda 01       		.uleb128 0x1
 7310 1ddb 50       		.byte	0x50
 7311 1ddc 02       		.uleb128 0x2
 7312 1ddd 75       		.byte	0x75
 7313 1dde 00       		.sleb128 0
 7314 1ddf 2A       		.uleb128 0x2a
 7315 1de0 01       		.uleb128 0x1
 7316 1de1 51       		.byte	0x51
 7317 1de2 01       		.uleb128 0x1
 7318 1de3 36       		.byte	0x36
 7319 1de4 2A       		.uleb128 0x2a
 7320 1de5 01       		.uleb128 0x1
 7321 1de6 52       		.byte	0x52
 7322 1de7 02       		.uleb128 0x2
 7323 1de8 74       		.byte	0x74
 7324 1de9 00       		.sleb128 0
 7325 1dea 2A       		.uleb128 0x2a
 7326 1deb 01       		.uleb128 0x1
 7327 1dec 53       		.byte	0x53
 7328 1ded 02       		.uleb128 0x2
 7329 1dee 91       		.byte	0x91
 7330 1def 48       		.sleb128 -56
 7331 1df0 00       		.byte	0
 7332 1df1 29       		.uleb128 0x29
 7333 1df2 02020000 		.4byte	.LVL396
 7334 1df6 2F1E0000 		.4byte	0x1e2f
 7335 1dfa 0B1E0000 		.4byte	0x1e0b
 7336 1dfe 2A       		.uleb128 0x2a
 7337 1dff 01       		.uleb128 0x1
 7338 1e00 50       		.byte	0x50
 7339 1e01 02       		.uleb128 0x2
 7340 1e02 76       		.byte	0x76
 7341 1e03 00       		.sleb128 0
 7342 1e04 2A       		.uleb128 0x2a
 7343 1e05 01       		.uleb128 0x1
 7344 1e06 51       		.byte	0x51
 7345 1e07 02       		.uleb128 0x2
 7346 1e08 91       		.byte	0x91
 7347 1e09 42       		.sleb128 -62
 7348 1e0a 00       		.byte	0
 7349 1e0b 29       		.uleb128 0x29
 7350 1e0c 88020000 		.4byte	.LVL414
 7351 1e10 2F1E0000 		.4byte	0x1e2f
 7352 1e14 251E0000 		.4byte	0x1e25
 7353 1e18 2A       		.uleb128 0x2a
ARM GAS  C:\Users\Moi\AppData\Local\Temp\ccWeMAis.s 			page 130


 7354 1e19 01       		.uleb128 0x1
 7355 1e1a 50       		.byte	0x50
 7356 1e1b 02       		.uleb128 0x2
 7357 1e1c 76       		.byte	0x76
 7358 1e1d 00       		.sleb128 0
 7359 1e1e 2A       		.uleb128 0x2a
 7360 1e1f 01       		.uleb128 0x1
 7361 1e20 51       		.byte	0x51
 7362 1e21 02       		.uleb128 0x2
 7363 1e22 91       		.byte	0x91
 7364 1e23 42       		.sleb128 -62
 7365 1e24 00       		.byte	0
 7366 1e25 2B       		.uleb128 0x2b
 7367 1e26 B0020000 		.4byte	.LVL418
 7368 1e2a 822B0000 		.4byte	0x2b82
 7369 1e2e 00       		.byte	0
 7370 1e2f 24       		.uleb128 0x24
 7371 1e30 83100000 		.4byte	.LASF285
 7372 1e34 01       		.byte	0x1
 7373 1e35 7502     		.2byte	0x275
 7374 1e37 94010000 		.4byte	0x194
 7375 1e3b 00000000 		.4byte	.LFB15
 7376 1e3f 7C000000 		.4byte	.LFE15-.LFB15
 7377 1e43 01       		.uleb128 0x1
 7378 1e44 9C       		.byte	0x9c
 7379 1e45 511F0000 		.4byte	0x1f51
 7380 1e49 25       		.uleb128 0x25
 7381 1e4a 44657600 		.ascii	"Dev\000"
 7382 1e4e 01       		.byte	0x1
 7383 1e4f 7502     		.2byte	0x275
 7384 1e51 EB0E0000 		.4byte	0xeeb
 7385 1e55 060F0000 		.4byte	.LLST83
 7386 1e59 26       		.uleb128 0x26
 7387 1e5a 850D0000 		.4byte	.LASF286
 7388 1e5e 01       		.byte	0x1
 7389 1e5f 7602     		.2byte	0x276
 7390 1e61 511F0000 		.4byte	0x1f51
 7391 1e65 240F0000 		.4byte	.LLST84
 7392 1e69 27       		.uleb128 0x27
 7393 1e6a 8C0A0000 		.4byte	.LASF287
 7394 1e6e 01       		.byte	0x1
 7395 1e6f 7802     		.2byte	0x278
 7396 1e71 94010000 		.4byte	0x194
 7397 1e75 420F0000 		.4byte	.LLST85
 7398 1e79 2C       		.uleb128 0x2c
 7399 1e7a D2160000 		.4byte	.LASF288
 7400 1e7e 01       		.byte	0x1
 7401 1e7f 7902     		.2byte	0x279
 7402 1e81 50030000 		.4byte	0x350
 7403 1e85 02       		.uleb128 0x2
 7404 1e86 91       		.byte	0x91
 7405 1e87 48       		.sleb128 -56
 7406 1e88 2C       		.uleb128 0x2c
 7407 1e89 18100000 		.4byte	.LASF103
 7408 1e8d 01       		.byte	0x1
 7409 1e8e 7B02     		.2byte	0x27b
 7410 1e90 B8000000 		.4byte	0xb8
ARM GAS  C:\Users\Moi\AppData\Local\Temp\ccWeMAis.s 			page 131


 7411 1e94 01       		.uleb128 0x1
 7412 1e95 56       		.byte	0x56
 7413 1e96 29       		.uleb128 0x29
 7414 1e97 1A000000 		.4byte	.LVL192
 7415 1e9b 8B2B0000 		.4byte	0x2b8b
 7416 1e9f B51E0000 		.4byte	0x1eb5
 7417 1ea3 2A       		.uleb128 0x2a
 7418 1ea4 01       		.uleb128 0x1
 7419 1ea5 50       		.byte	0x50
 7420 1ea6 02       		.uleb128 0x2
 7421 1ea7 74       		.byte	0x74
 7422 1ea8 00       		.sleb128 0
 7423 1ea9 2A       		.uleb128 0x2a
 7424 1eaa 01       		.uleb128 0x1
 7425 1eab 51       		.byte	0x51
 7426 1eac 01       		.uleb128 0x1
 7427 1ead 31       		.byte	0x31
 7428 1eae 2A       		.uleb128 0x2a
 7429 1eaf 01       		.uleb128 0x1
 7430 1eb0 52       		.byte	0x52
 7431 1eb1 02       		.uleb128 0x2
 7432 1eb2 09       		.byte	0x9
 7433 1eb3 C0       		.byte	0xc0
 7434 1eb4 00       		.byte	0
 7435 1eb5 29       		.uleb128 0x29
 7436 1eb6 30000000 		.4byte	.LVL195
 7437 1eba C22B0000 		.4byte	0x2bc2
 7438 1ebe CF1E0000 		.4byte	0x1ecf
 7439 1ec2 2A       		.uleb128 0x2a
 7440 1ec3 01       		.uleb128 0x1
 7441 1ec4 50       		.byte	0x50
 7442 1ec5 02       		.uleb128 0x2
 7443 1ec6 74       		.byte	0x74
 7444 1ec7 00       		.sleb128 0
 7445 1ec8 2A       		.uleb128 0x2a
 7446 1ec9 01       		.uleb128 0x1
 7447 1eca 51       		.byte	0x51
 7448 1ecb 02       		.uleb128 0x2
 7449 1ecc 7D       		.byte	0x7d
 7450 1ecd 00       		.sleb128 0
 7451 1ece 00       		.byte	0
 7452 1ecf 29       		.uleb128 0x29
 7453 1ed0 3E000000 		.4byte	.LVL197
 7454 1ed4 8B2B0000 		.4byte	0x2b8b
 7455 1ed8 EE1E0000 		.4byte	0x1eee
 7456 1edc 2A       		.uleb128 0x2a
 7457 1edd 01       		.uleb128 0x1
 7458 1ede 50       		.byte	0x50
 7459 1edf 02       		.uleb128 0x2
 7460 1ee0 74       		.byte	0x74
 7461 1ee1 00       		.sleb128 0
 7462 1ee2 2A       		.uleb128 0x2a
 7463 1ee3 01       		.uleb128 0x1
 7464 1ee4 51       		.byte	0x51
 7465 1ee5 02       		.uleb128 0x2
 7466 1ee6 09       		.byte	0x9
 7467 1ee7 FF       		.byte	0xff
ARM GAS  C:\Users\Moi\AppData\Local\Temp\ccWeMAis.s 			page 132


 7468 1ee8 2A       		.uleb128 0x2a
 7469 1ee9 01       		.uleb128 0x1
 7470 1eea 52       		.byte	0x52
 7471 1eeb 01       		.uleb128 0x1
 7472 1eec 31       		.byte	0x31
 7473 1eed 00       		.byte	0
 7474 1eee 29       		.uleb128 0x29
 7475 1eef 4C000000 		.4byte	.LVL199
 7476 1ef3 CE2B0000 		.4byte	0x2bce
 7477 1ef7 0E1F0000 		.4byte	0x1f0e
 7478 1efb 2A       		.uleb128 0x2a
 7479 1efc 01       		.uleb128 0x1
 7480 1efd 50       		.byte	0x50
 7481 1efe 02       		.uleb128 0x2
 7482 1eff 74       		.byte	0x74
 7483 1f00 00       		.sleb128 0
 7484 1f01 2A       		.uleb128 0x2a
 7485 1f02 01       		.uleb128 0x1
 7486 1f03 51       		.byte	0x51
 7487 1f04 02       		.uleb128 0x2
 7488 1f05 09       		.byte	0x9
 7489 1f06 B6       		.byte	0xb6
 7490 1f07 2A       		.uleb128 0x2a
 7491 1f08 01       		.uleb128 0x1
 7492 1f09 52       		.byte	0x52
 7493 1f0a 02       		.uleb128 0x2
 7494 1f0b 77       		.byte	0x77
 7495 1f0c 00       		.sleb128 0
 7496 1f0d 00       		.byte	0
 7497 1f0e 29       		.uleb128 0x29
 7498 1f0f 5A000000 		.4byte	.LVL201
 7499 1f13 8B2B0000 		.4byte	0x2b8b
 7500 1f17 281F0000 		.4byte	0x1f28
 7501 1f1b 2A       		.uleb128 0x2a
 7502 1f1c 01       		.uleb128 0x1
 7503 1f1d 50       		.byte	0x50
 7504 1f1e 02       		.uleb128 0x2
 7505 1f1f 74       		.byte	0x74
 7506 1f20 00       		.sleb128 0
 7507 1f21 2A       		.uleb128 0x2a
 7508 1f22 01       		.uleb128 0x1
 7509 1f23 51       		.byte	0x51
 7510 1f24 02       		.uleb128 0x2
 7511 1f25 09       		.byte	0x9
 7512 1f26 FF       		.byte	0xff
 7513 1f27 00       		.byte	0
 7514 1f28 29       		.uleb128 0x29
 7515 1f29 68000000 		.4byte	.LVL203
 7516 1f2d 8B2B0000 		.4byte	0x2b8b
 7517 1f31 471F0000 		.4byte	0x1f47
 7518 1f35 2A       		.uleb128 0x2a
 7519 1f36 01       		.uleb128 0x1
 7520 1f37 50       		.byte	0x50
 7521 1f38 02       		.uleb128 0x2
 7522 1f39 74       		.byte	0x74
 7523 1f3a 00       		.sleb128 0
 7524 1f3b 2A       		.uleb128 0x2a
ARM GAS  C:\Users\Moi\AppData\Local\Temp\ccWeMAis.s 			page 133


 7525 1f3c 01       		.uleb128 0x1
 7526 1f3d 51       		.byte	0x51
 7527 1f3e 01       		.uleb128 0x1
 7528 1f3f 31       		.byte	0x31
 7529 1f40 2A       		.uleb128 0x2a
 7530 1f41 01       		.uleb128 0x1
 7531 1f42 52       		.byte	0x52
 7532 1f43 02       		.uleb128 0x2
 7533 1f44 76       		.byte	0x76
 7534 1f45 00       		.sleb128 0
 7535 1f46 00       		.byte	0
 7536 1f47 2B       		.uleb128 0x2b
 7537 1f48 76000000 		.4byte	.LVL204
 7538 1f4c 822B0000 		.4byte	0x2b82
 7539 1f50 00       		.byte	0
 7540 1f51 0F       		.uleb128 0xf
 7541 1f52 04       		.byte	0x4
 7542 1f53 D3000000 		.4byte	0xd3
 7543 1f57 24       		.uleb128 0x24
 7544 1f58 68100000 		.4byte	.LASF289
 7545 1f5c 01       		.byte	0x1
 7546 1f5d 2C02     		.2byte	0x22c
 7547 1f5f 94010000 		.4byte	0x194
 7548 1f63 00000000 		.4byte	.LFB14
 7549 1f67 E4000000 		.4byte	.LFE14-.LFB14
 7550 1f6b 01       		.uleb128 0x1
 7551 1f6c 9C       		.byte	0x9c
 7552 1f6d B1210000 		.4byte	0x21b1
 7553 1f71 25       		.uleb128 0x25
 7554 1f72 44657600 		.ascii	"Dev\000"
 7555 1f76 01       		.byte	0x1
 7556 1f77 2C02     		.2byte	0x22c
 7557 1f79 EB0E0000 		.4byte	0xeeb
 7558 1f7d 980F0000 		.4byte	.LLST65
 7559 1f81 26       		.uleb128 0x26
 7560 1f82 270A0000 		.4byte	.LASF290
 7561 1f86 01       		.byte	0x1
 7562 1f87 2D02     		.2byte	0x22d
 7563 1f89 B8000000 		.4byte	0xb8
 7564 1f8d B70F0000 		.4byte	.LLST66
 7565 1f91 26       		.uleb128 0x26
 7566 1f92 5F170000 		.4byte	.LASF291
 7567 1f96 01       		.byte	0x1
 7568 1f97 2E02     		.2byte	0x22e
 7569 1f99 7C060000 		.4byte	0x67c
 7570 1f9d D80F0000 		.4byte	.LLST67
 7571 1fa1 26       		.uleb128 0x26
 7572 1fa2 1E040000 		.4byte	.LASF292
 7573 1fa6 01       		.byte	0x1
 7574 1fa7 2F02     		.2byte	0x22f
 7575 1fa9 7C060000 		.4byte	0x67c
 7576 1fad 04100000 		.4byte	.LLST68
 7577 1fb1 26       		.uleb128 0x26
 7578 1fb2 BD0C0000 		.4byte	.LASF293
 7579 1fb6 01       		.byte	0x1
 7580 1fb7 3002     		.2byte	0x230
 7581 1fb9 E9000000 		.4byte	0xe9
ARM GAS  C:\Users\Moi\AppData\Local\Temp\ccWeMAis.s 			page 134


 7582 1fbd 49100000 		.4byte	.LLST69
 7583 1fc1 26       		.uleb128 0x26
 7584 1fc2 640D0000 		.4byte	.LASF294
 7585 1fc6 01       		.byte	0x1
 7586 1fc7 3102     		.2byte	0x231
 7587 1fc9 E9000000 		.4byte	0xe9
 7588 1fcd 69100000 		.4byte	.LLST70
 7589 1fd1 26       		.uleb128 0x26
 7590 1fd2 90070000 		.4byte	.LASF295
 7591 1fd6 01       		.byte	0x1
 7592 1fd7 3202     		.2byte	0x232
 7593 1fd9 E9000000 		.4byte	0xe9
 7594 1fdd 89100000 		.4byte	.LLST71
 7595 1fe1 26       		.uleb128 0x26
 7596 1fe2 2D130000 		.4byte	.LASF296
 7597 1fe6 01       		.byte	0x1
 7598 1fe7 3302     		.2byte	0x233
 7599 1fe9 E9000000 		.4byte	0xe9
 7600 1fed A9100000 		.4byte	.LLST72
 7601 1ff1 26       		.uleb128 0x26
 7602 1ff2 BA150000 		.4byte	.LASF297
 7603 1ff6 01       		.byte	0x1
 7604 1ff7 3402     		.2byte	0x234
 7605 1ff9 B0170000 		.4byte	0x17b0
 7606 1ffd C9100000 		.4byte	.LLST73
 7607 2001 27       		.uleb128 0x27
 7608 2002 8C0A0000 		.4byte	.LASF287
 7609 2006 01       		.byte	0x1
 7610 2007 3602     		.2byte	0x236
 7611 2009 94010000 		.4byte	0x194
 7612 200d E9100000 		.4byte	.LLST74
 7613 2011 27       		.uleb128 0x27
 7614 2012 27020000 		.4byte	.LASF272
 7615 2016 01       		.byte	0x1
 7616 2017 3702     		.2byte	0x237
 7617 2019 E9000000 		.4byte	0xe9
 7618 201d 37110000 		.4byte	.LLST75
 7619 2021 3C       		.uleb128 0x3c
 7620 2022 6900     		.ascii	"i\000"
 7621 2024 01       		.byte	0x1
 7622 2025 3802     		.2byte	0x238
 7623 2027 E9000000 		.4byte	0xe9
 7624 202b 6E110000 		.4byte	.LLST76
 7625 202f 2C       		.uleb128 0x2c
 7626 2030 2C140000 		.4byte	.LASF277
 7627 2034 01       		.byte	0x1
 7628 2035 3902     		.2byte	0x239
 7629 2037 DE000000 		.4byte	0xde
 7630 203b 02       		.uleb128 0x2
 7631 203c 91       		.byte	0x91
 7632 203d 48       		.sleb128 -56
 7633 203e 27       		.uleb128 0x27
 7634 203f 65130000 		.4byte	.LASF298
 7635 2043 01       		.byte	0x1
 7636 2044 3A02     		.2byte	0x23a
 7637 2046 E9000000 		.4byte	0xe9
 7638 204a 82110000 		.4byte	.LLST77
ARM GAS  C:\Users\Moi\AppData\Local\Temp\ccWeMAis.s 			page 135


 7639 204e 2C       		.uleb128 0x2c
 7640 204f 1D140000 		.4byte	.LASF299
 7641 2053 01       		.byte	0x1
 7642 2054 3B02     		.2byte	0x23b
 7643 2056 5C020000 		.4byte	0x25c
 7644 205a 02       		.uleb128 0x2
 7645 205b 91       		.byte	0x91
 7646 205c 4C       		.sleb128 -52
 7647 205d 31       		.uleb128 0x31
 7648 205e 70230000 		.4byte	0x2370
 7649 2062 32000000 		.4byte	.LBB24
 7650 2066 08000000 		.4byte	.LBE24-.LBB24
 7651 206a 01       		.byte	0x1
 7652 206b 5202     		.2byte	0x252
 7653 206d 8B200000 		.4byte	0x208b
 7654 2071 3A       		.uleb128 0x3a
 7655 2072 81230000 		.4byte	0x2381
 7656 2076 33       		.uleb128 0x33
 7657 2077 32000000 		.4byte	.LBB25
 7658 207b 08000000 		.4byte	.LBE25-.LBB25
 7659 207f 3B       		.uleb128 0x3b
 7660 2080 AE290000 		.4byte	0x29ae
 7661 2084 3B       		.uleb128 0x3b
 7662 2085 B3290000 		.4byte	0x29b3
 7663 2089 00       		.byte	0
 7664 208a 00       		.byte	0
 7665 208b 31       		.uleb128 0x31
 7666 208c 0A230000 		.4byte	0x230a
 7667 2090 44000000 		.4byte	.LBB26
 7668 2094 16000000 		.4byte	.LBE26-.LBB26
 7669 2098 01       		.byte	0x1
 7670 2099 5A02     		.2byte	0x25a
 7671 209b D5200000 		.4byte	0x20d5
 7672 209f 32       		.uleb128 0x32
 7673 20a0 33230000 		.4byte	0x2333
 7674 20a4 AB110000 		.4byte	.LLST78
 7675 20a8 32       		.uleb128 0x32
 7676 20a9 27230000 		.4byte	0x2327
 7677 20ad BE110000 		.4byte	.LLST79
 7678 20b1 3A       		.uleb128 0x3a
 7679 20b2 1B230000 		.4byte	0x231b
 7680 20b6 33       		.uleb128 0x33
 7681 20b7 44000000 		.4byte	.LBB27
 7682 20bb 16000000 		.4byte	.LBE27-.LBB27
 7683 20bf 3B       		.uleb128 0x3b
 7684 20c0 F0290000 		.4byte	0x29f0
 7685 20c4 3B       		.uleb128 0x3b
 7686 20c5 F9290000 		.4byte	0x29f9
 7687 20c9 3B       		.uleb128 0x3b
 7688 20ca FF290000 		.4byte	0x29ff
 7689 20ce 3B       		.uleb128 0x3b
 7690 20cf 082A0000 		.4byte	0x2a08
 7691 20d3 00       		.byte	0
 7692 20d4 00       		.byte	0
 7693 20d5 37       		.uleb128 0x37
 7694 20d6 E7210000 		.4byte	0x21e7
 7695 20da 90000000 		.4byte	.LBB28
ARM GAS  C:\Users\Moi\AppData\Local\Temp\ccWeMAis.s 			page 136


 7696 20de 00000000 		.4byte	.Ldebug_ranges0+0
 7697 20e2 01       		.byte	0x1
 7698 20e3 6002     		.2byte	0x260
 7699 20e5 27210000 		.4byte	0x2127
 7700 20e9 3A       		.uleb128 0x3a
 7701 20ea 04220000 		.4byte	0x2204
 7702 20ee 32       		.uleb128 0x32
 7703 20ef F8210000 		.4byte	0x21f8
 7704 20f3 D1110000 		.4byte	.LLST80
 7705 20f7 38       		.uleb128 0x38
 7706 20f8 00000000 		.4byte	.Ldebug_ranges0+0
 7707 20fc 34       		.uleb128 0x34
 7708 20fd 402A0000 		.4byte	0x2a40
 7709 2101 01       		.uleb128 0x1
 7710 2102 50       		.byte	0x50
 7711 2103 35       		.uleb128 0x35
 7712 2104 9E000000 		.4byte	.LVL181
 7713 2108 B72B0000 		.4byte	0x2bb7
 7714 210c 2A       		.uleb128 0x2a
 7715 210d 01       		.uleb128 0x1
 7716 210e 50       		.byte	0x50
 7717 210f 03       		.uleb128 0x3
 7718 2110 91       		.byte	0x91
 7719 2111 44       		.sleb128 -60
 7720 2112 06       		.byte	0x6
 7721 2113 2A       		.uleb128 0x2a
 7722 2114 01       		.uleb128 0x1
 7723 2115 51       		.byte	0x51
 7724 2116 02       		.uleb128 0x2
 7725 2117 09       		.byte	0x9
 7726 2118 B0       		.byte	0xb0
 7727 2119 2A       		.uleb128 0x2a
 7728 211a 01       		.uleb128 0x1
 7729 211b 52       		.byte	0x52
 7730 211c 02       		.uleb128 0x2
 7731 211d 77       		.byte	0x77
 7732 211e 00       		.sleb128 0
 7733 211f 2A       		.uleb128 0x2a
 7734 2120 01       		.uleb128 0x1
 7735 2121 53       		.byte	0x53
 7736 2122 01       		.uleb128 0x1
 7737 2123 36       		.byte	0x36
 7738 2124 00       		.byte	0
 7739 2125 00       		.byte	0
 7740 2126 00       		.byte	0
 7741 2127 31       		.uleb128 0x31
 7742 2128 B1210000 		.4byte	0x21b1
 7743 212c A2000000 		.4byte	.LBB32
 7744 2130 0C000000 		.4byte	.LBE32-.LBB32
 7745 2134 01       		.byte	0x1
 7746 2135 6402     		.2byte	0x264
 7747 2137 81210000 		.4byte	0x2181
 7748 213b 32       		.uleb128 0x32
 7749 213c CE210000 		.4byte	0x21ce
 7750 2140 F0110000 		.4byte	.LLST81
 7751 2144 32       		.uleb128 0x32
 7752 2145 C2210000 		.4byte	0x21c2
ARM GAS  C:\Users\Moi\AppData\Local\Temp\ccWeMAis.s 			page 137


 7753 2149 1D120000 		.4byte	.LLST82
 7754 214d 33       		.uleb128 0x33
 7755 214e A2000000 		.4byte	.LBB33
 7756 2152 0C000000 		.4byte	.LBE33-.LBB33
 7757 2156 34       		.uleb128 0x34
 7758 2157 9B2A0000 		.4byte	0x2a9b
 7759 215b 01       		.uleb128 0x1
 7760 215c 50       		.byte	0x50
 7761 215d 35       		.uleb128 0x35
 7762 215e AE000000 		.4byte	.LVL185
 7763 2162 AC2B0000 		.4byte	0x2bac
 7764 2166 2A       		.uleb128 0x2a
 7765 2167 01       		.uleb128 0x1
 7766 2168 50       		.byte	0x50
 7767 2169 03       		.uleb128 0x3
 7768 216a 91       		.byte	0x91
 7769 216b 44       		.sleb128 -60
 7770 216c 06       		.byte	0x6
 7771 216d 2A       		.uleb128 0x2a
 7772 216e 01       		.uleb128 0x1
 7773 216f 51       		.byte	0x51
 7774 2170 02       		.uleb128 0x2
 7775 2171 09       		.byte	0x9
 7776 2172 B0       		.byte	0xb0
 7777 2173 2A       		.uleb128 0x2a
 7778 2174 01       		.uleb128 0x1
 7779 2175 52       		.byte	0x52
 7780 2176 02       		.uleb128 0x2
 7781 2177 91       		.byte	0x91
 7782 2178 4C       		.sleb128 -52
 7783 2179 2A       		.uleb128 0x2a
 7784 217a 01       		.uleb128 0x1
 7785 217b 53       		.byte	0x53
 7786 217c 01       		.uleb128 0x1
 7787 217d 36       		.byte	0x36
 7788 217e 00       		.byte	0
 7789 217f 00       		.byte	0
 7790 2180 00       		.byte	0
 7791 2181 29       		.uleb128 0x29
 7792 2182 70000000 		.4byte	.LVL176
 7793 2186 A6230000 		.4byte	0x23a6
 7794 218a A7210000 		.4byte	0x21a7
 7795 218e 2A       		.uleb128 0x2a
 7796 218f 01       		.uleb128 0x1
 7797 2190 50       		.byte	0x50
 7798 2191 02       		.uleb128 0x2
 7799 2192 79       		.byte	0x79
 7800 2193 00       		.sleb128 0
 7801 2194 2A       		.uleb128 0x2a
 7802 2195 01       		.uleb128 0x1
 7803 2196 51       		.byte	0x51
 7804 2197 02       		.uleb128 0x2
 7805 2198 75       		.byte	0x75
 7806 2199 00       		.sleb128 0
 7807 219a 2A       		.uleb128 0x2a
 7808 219b 01       		.uleb128 0x1
 7809 219c 52       		.byte	0x52
ARM GAS  C:\Users\Moi\AppData\Local\Temp\ccWeMAis.s 			page 138


 7810 219d 02       		.uleb128 0x2
 7811 219e 76       		.byte	0x76
 7812 219f 00       		.sleb128 0
 7813 21a0 2A       		.uleb128 0x2a
 7814 21a1 01       		.uleb128 0x1
 7815 21a2 53       		.byte	0x53
 7816 21a3 02       		.uleb128 0x2
 7817 21a4 91       		.byte	0x91
 7818 21a5 48       		.sleb128 -56
 7819 21a6 00       		.byte	0
 7820 21a7 2B       		.uleb128 0x2b
 7821 21a8 DC000000 		.4byte	.LVL188
 7822 21ac 822B0000 		.4byte	0x2b82
 7823 21b0 00       		.byte	0
 7824 21b1 2D       		.uleb128 0x2d
 7825 21b2 490C0000 		.4byte	.LASF301
 7826 21b6 01       		.byte	0x1
 7827 21b7 2302     		.2byte	0x223
 7828 21b9 94010000 		.4byte	0x194
 7829 21bd 01       		.byte	0x1
 7830 21be E7210000 		.4byte	0x21e7
 7831 21c2 2E       		.uleb128 0x2e
 7832 21c3 44657600 		.ascii	"Dev\000"
 7833 21c7 01       		.byte	0x1
 7834 21c8 2302     		.2byte	0x223
 7835 21ca EB0E0000 		.4byte	0xeeb
 7836 21ce 2F       		.uleb128 0x2f
 7837 21cf 49140000 		.4byte	.LASF260
 7838 21d3 01       		.byte	0x1
 7839 21d4 2302     		.2byte	0x223
 7840 21d6 7C060000 		.4byte	0x67c
 7841 21da 30       		.uleb128 0x30
 7842 21db 8C0A0000 		.4byte	.LASF287
 7843 21df 01       		.byte	0x1
 7844 21e0 2502     		.2byte	0x225
 7845 21e2 94010000 		.4byte	0x194
 7846 21e6 00       		.byte	0
 7847 21e7 2D       		.uleb128 0x2d
 7848 21e8 00000000 		.4byte	.LASF302
 7849 21ec 01       		.byte	0x1
 7850 21ed 1B02     		.2byte	0x21b
 7851 21ef 94010000 		.4byte	0x194
 7852 21f3 01       		.byte	0x1
 7853 21f4 1D220000 		.4byte	0x221d
 7854 21f8 2E       		.uleb128 0x2e
 7855 21f9 44657600 		.ascii	"Dev\000"
 7856 21fd 01       		.byte	0x1
 7857 21fe 1B02     		.2byte	0x21b
 7858 2200 EB0E0000 		.4byte	0xeeb
 7859 2204 2F       		.uleb128 0x2f
 7860 2205 49140000 		.4byte	.LASF260
 7861 2209 01       		.byte	0x1
 7862 220a 1B02     		.2byte	0x21b
 7863 220c 7C060000 		.4byte	0x67c
 7864 2210 30       		.uleb128 0x30
 7865 2211 8C0A0000 		.4byte	.LASF287
 7866 2215 01       		.byte	0x1
ARM GAS  C:\Users\Moi\AppData\Local\Temp\ccWeMAis.s 			page 139


 7867 2216 1D02     		.2byte	0x21d
 7868 2218 94010000 		.4byte	0x194
 7869 221c 00       		.byte	0
 7870 221d 24       		.uleb128 0x24
 7871 221e B9020000 		.4byte	.LASF303
 7872 2222 01       		.byte	0x1
 7873 2223 E101     		.2byte	0x1e1
 7874 2225 94010000 		.4byte	0x194
 7875 2229 00000000 		.4byte	.LFB11
 7876 222d A0000000 		.4byte	.LFE11-.LFB11
 7877 2231 01       		.uleb128 0x1
 7878 2232 9C       		.byte	0x9c
 7879 2233 0A230000 		.4byte	0x230a
 7880 2237 26       		.uleb128 0x26
 7881 2238 1E040000 		.4byte	.LASF292
 7882 223c 01       		.byte	0x1
 7883 223d E101     		.2byte	0x1e1
 7884 223f 7C060000 		.4byte	0x67c
 7885 2243 31120000 		.4byte	.LLST51
 7886 2247 26       		.uleb128 0x26
 7887 2248 73070000 		.4byte	.LASF304
 7888 224c 01       		.byte	0x1
 7889 224d E201     		.2byte	0x1e2
 7890 224f E9000000 		.4byte	0xe9
 7891 2253 52120000 		.4byte	.LLST52
 7892 2257 26       		.uleb128 0x26
 7893 2258 78090000 		.4byte	.LASF305
 7894 225c 01       		.byte	0x1
 7895 225d E201     		.2byte	0x1e2
 7896 225f E9000000 		.4byte	0xe9
 7897 2263 73120000 		.4byte	.LLST53
 7898 2267 26       		.uleb128 0x26
 7899 2268 F9120000 		.4byte	.LASF306
 7900 226c 01       		.byte	0x1
 7901 226d E301     		.2byte	0x1e3
 7902 226f B0170000 		.4byte	0x17b0
 7903 2273 94120000 		.4byte	.LLST54
 7904 2277 26       		.uleb128 0x26
 7905 2278 B6030000 		.4byte	.LASF307
 7906 227c 01       		.byte	0x1
 7907 227d E301     		.2byte	0x1e3
 7908 227f 7C060000 		.4byte	0x67c
 7909 2283 B5120000 		.4byte	.LLST55
 7910 2287 27       		.uleb128 0x27
 7911 2288 8C0A0000 		.4byte	.LASF287
 7912 228c 01       		.byte	0x1
 7913 228d E501     		.2byte	0x1e5
 7914 228f 94010000 		.4byte	0x194
 7915 2293 D5120000 		.4byte	.LLST56
 7916 2297 28       		.uleb128 0x28
 7917 2298 7D060000 		.4byte	.LASF308
 7918 229c 01       		.byte	0x1
 7919 229d E601     		.2byte	0x1e6
 7920 229f E9000000 		.4byte	0xe9
 7921 22a3 08       		.byte	0x8
 7922 22a4 2C       		.uleb128 0x2c
 7923 22a5 A2100000 		.4byte	.LASF309
ARM GAS  C:\Users\Moi\AppData\Local\Temp\ccWeMAis.s 			page 140


 7924 22a9 01       		.byte	0x1
 7925 22aa E701     		.2byte	0x1e7
 7926 22ac E9000000 		.4byte	0xe9
 7927 22b0 01       		.uleb128 0x1
 7928 22b1 5A       		.byte	0x5a
 7929 22b2 2C       		.uleb128 0x2c
 7930 22b3 C50A0000 		.4byte	.LASF310
 7931 22b7 01       		.byte	0x1
 7932 22b8 E801     		.2byte	0x1e8
 7933 22ba E9000000 		.4byte	0xe9
 7934 22be 01       		.uleb128 0x1
 7935 22bf 58       		.byte	0x58
 7936 22c0 27       		.uleb128 0x27
 7937 22c1 7D070000 		.4byte	.LASF311
 7938 22c5 01       		.byte	0x1
 7939 22c6 E901     		.2byte	0x1e9
 7940 22c8 E9000000 		.4byte	0xe9
 7941 22cc F5120000 		.4byte	.LLST57
 7942 22d0 27       		.uleb128 0x27
 7943 22d1 62060000 		.4byte	.LASF312
 7944 22d5 01       		.byte	0x1
 7945 22d6 EA01     		.2byte	0x1ea
 7946 22d8 E9000000 		.4byte	0xe9
 7947 22dc 14130000 		.4byte	.LLST58
 7948 22e0 27       		.uleb128 0x27
 7949 22e1 6F0A0000 		.4byte	.LASF313
 7950 22e5 01       		.byte	0x1
 7951 22e6 EB01     		.2byte	0x1eb
 7952 22e8 B8000000 		.4byte	0xb8
 7953 22ec 6E130000 		.4byte	.LLST59
 7954 22f0 27       		.uleb128 0x27
 7955 22f1 770B0000 		.4byte	.LASF314
 7956 22f5 01       		.byte	0x1
 7957 22f6 EC01     		.2byte	0x1ec
 7958 22f8 B8000000 		.4byte	0xb8
 7959 22fc 9B130000 		.4byte	.LLST60
 7960 2300 2B       		.uleb128 0x2b
 7961 2301 9C000000 		.4byte	.LVL154
 7962 2305 822B0000 		.4byte	0x2b82
 7963 2309 00       		.byte	0
 7964 230a 2D       		.uleb128 0x2d
 7965 230b 29060000 		.4byte	.LASF315
 7966 230f 01       		.byte	0x1
 7967 2310 CF01     		.2byte	0x1cf
 7968 2312 94010000 		.4byte	0x194
 7969 2316 01       		.byte	0x1
 7970 2317 70230000 		.4byte	0x2370
 7971 231b 2F       		.uleb128 0x2f
 7972 231c 1E040000 		.4byte	.LASF292
 7973 2320 01       		.byte	0x1
 7974 2321 CF01     		.2byte	0x1cf
 7975 2323 7C060000 		.4byte	0x67c
 7976 2327 2F       		.uleb128 0x2f
 7977 2328 BD0C0000 		.4byte	.LASF293
 7978 232c 01       		.byte	0x1
 7979 232d CF01     		.2byte	0x1cf
 7980 232f E9000000 		.4byte	0xe9
ARM GAS  C:\Users\Moi\AppData\Local\Temp\ccWeMAis.s 			page 141


 7981 2333 2F       		.uleb128 0x2f
 7982 2334 37130000 		.4byte	.LASF316
 7983 2338 01       		.byte	0x1
 7984 2339 D001     		.2byte	0x1d0
 7985 233b E9000000 		.4byte	0xe9
 7986 233f 30       		.uleb128 0x30
 7987 2340 8C0A0000 		.4byte	.LASF287
 7988 2344 01       		.byte	0x1
 7989 2345 D201     		.2byte	0x1d2
 7990 2347 94010000 		.4byte	0x194
 7991 234b 30       		.uleb128 0x30
 7992 234c 7D060000 		.4byte	.LASF308
 7993 2350 01       		.byte	0x1
 7994 2351 D301     		.2byte	0x1d3
 7995 2353 E9000000 		.4byte	0xe9
 7996 2357 30       		.uleb128 0x30
 7997 2358 CB150000 		.4byte	.LASF317
 7998 235c 01       		.byte	0x1
 7999 235d D401     		.2byte	0x1d4
 8000 235f E9000000 		.4byte	0xe9
 8001 2363 30       		.uleb128 0x30
 8002 2364 29090000 		.4byte	.LASF318
 8003 2368 01       		.byte	0x1
 8004 2369 D501     		.2byte	0x1d5
 8005 236b E9000000 		.4byte	0xe9
 8006 236f 00       		.byte	0
 8007 2370 2D       		.uleb128 0x2d
 8008 2371 9E060000 		.4byte	.LASF319
 8009 2375 01       		.byte	0x1
 8010 2376 BF01     		.2byte	0x1bf
 8011 2378 B8000000 		.4byte	0xb8
 8012 237c 01       		.byte	0x1
 8013 237d A6230000 		.4byte	0x23a6
 8014 2381 2F       		.uleb128 0x2f
 8015 2382 37130000 		.4byte	.LASF316
 8016 2386 01       		.byte	0x1
 8017 2387 BF01     		.2byte	0x1bf
 8018 2389 E9000000 		.4byte	0xe9
 8019 238d 30       		.uleb128 0x30
 8020 238e 24030000 		.4byte	.LASF320
 8021 2392 01       		.byte	0x1
 8022 2393 C501     		.2byte	0x1c5
 8023 2395 E9000000 		.4byte	0xe9
 8024 2399 30       		.uleb128 0x30
 8025 239a 8A0B0000 		.4byte	.LASF321
 8026 239e 01       		.byte	0x1
 8027 239f C601     		.2byte	0x1c6
 8028 23a1 B8000000 		.4byte	0xb8
 8029 23a5 00       		.byte	0
 8030 23a6 3D       		.uleb128 0x3d
 8031 23a7 23080000 		.4byte	.LASF385
 8032 23ab 01       		.byte	0x1
 8033 23ac 8E01     		.2byte	0x18e
 8034 23ae 00000000 		.4byte	.LFB8
 8035 23b2 68000000 		.4byte	.LFE8-.LFB8
 8036 23b6 01       		.uleb128 0x1
 8037 23b7 9C       		.byte	0x9c
ARM GAS  C:\Users\Moi\AppData\Local\Temp\ccWeMAis.s 			page 142


 8038 23b8 71240000 		.4byte	0x2471
 8039 23bc 26       		.uleb128 0x26
 8040 23bd 5F170000 		.4byte	.LASF291
 8041 23c1 01       		.byte	0x1
 8042 23c2 8E01     		.2byte	0x18e
 8043 23c4 7C060000 		.4byte	0x67c
 8044 23c8 BA130000 		.4byte	.LLST35
 8045 23cc 26       		.uleb128 0x26
 8046 23cd BD0C0000 		.4byte	.LASF293
 8047 23d1 01       		.byte	0x1
 8048 23d2 8E01     		.2byte	0x18e
 8049 23d4 E9000000 		.4byte	0xe9
 8050 23d8 DB130000 		.4byte	.LLST36
 8051 23dc 26       		.uleb128 0x26
 8052 23dd AB100000 		.4byte	.LASF322
 8053 23e1 01       		.byte	0x1
 8054 23e2 8F01     		.2byte	0x18f
 8055 23e4 E9000000 		.4byte	0xe9
 8056 23e8 FC130000 		.4byte	.LLST37
 8057 23ec 26       		.uleb128 0x26
 8058 23ed C9010000 		.4byte	.LASF323
 8059 23f1 01       		.byte	0x1
 8060 23f2 8F01     		.2byte	0x18f
 8061 23f4 71240000 		.4byte	0x2471
 8062 23f8 1D140000 		.4byte	.LLST38
 8063 23fc 2C       		.uleb128 0x2c
 8064 23fd 93060000 		.4byte	.LASF324
 8065 2401 01       		.byte	0x1
 8066 2402 9101     		.2byte	0x191
 8067 2404 E9000000 		.4byte	0xe9
 8068 2408 01       		.uleb128 0x1
 8069 2409 57       		.byte	0x57
 8070 240a 27       		.uleb128 0x27
 8071 240b 39060000 		.4byte	.LASF325
 8072 240f 01       		.byte	0x1
 8073 2410 9201     		.2byte	0x192
 8074 2412 E9000000 		.4byte	0xe9
 8075 2416 57140000 		.4byte	.LLST39
 8076 241a 28       		.uleb128 0x28
 8077 241b 7D060000 		.4byte	.LASF308
 8078 241f 01       		.byte	0x1
 8079 2420 9301     		.2byte	0x193
 8080 2422 E9000000 		.4byte	0xe9
 8081 2426 08       		.byte	0x8
 8082 2427 27       		.uleb128 0x27
 8083 2428 CB150000 		.4byte	.LASF317
 8084 242c 01       		.byte	0x1
 8085 242d 9401     		.2byte	0x194
 8086 242f E9000000 		.4byte	0xe9
 8087 2433 A4140000 		.4byte	.LLST40
 8088 2437 27       		.uleb128 0x27
 8089 2438 29090000 		.4byte	.LASF318
 8090 243c 01       		.byte	0x1
 8091 243d 9501     		.2byte	0x195
 8092 243f E9000000 		.4byte	0xe9
 8093 2443 F2140000 		.4byte	.LLST41
 8094 2447 27       		.uleb128 0x27
ARM GAS  C:\Users\Moi\AppData\Local\Temp\ccWeMAis.s 			page 143


 8095 2448 FA000000 		.4byte	.LASF326
 8096 244c 01       		.byte	0x1
 8097 244d 9601     		.2byte	0x196
 8098 244f B8000000 		.4byte	0xb8
 8099 2453 3F150000 		.4byte	.LLST42
 8100 2457 27       		.uleb128 0x27
 8101 2458 AD0A0000 		.4byte	.LASF327
 8102 245c 01       		.byte	0x1
 8103 245d 9701     		.2byte	0x197
 8104 245f B8000000 		.4byte	0xb8
 8105 2463 74150000 		.4byte	.LLST43
 8106 2467 2B       		.uleb128 0x2b
 8107 2468 64000000 		.4byte	.LVL118
 8108 246c 822B0000 		.4byte	0x2b82
 8109 2470 00       		.byte	0
 8110 2471 0F       		.uleb128 0xf
 8111 2472 04       		.byte	0x4
 8112 2473 DE000000 		.4byte	0xde
 8113 2477 24       		.uleb128 0x24
 8114 2478 A2080000 		.4byte	.LASF328
 8115 247c 01       		.byte	0x1
 8116 247d 6601     		.2byte	0x166
 8117 247f 94010000 		.4byte	0x194
 8118 2483 00000000 		.4byte	.LFB7
 8119 2487 4C000000 		.4byte	.LFE7-.LFB7
 8120 248b 01       		.uleb128 0x1
 8121 248c 9C       		.byte	0x9c
 8122 248d 27250000 		.4byte	0x2527
 8123 2491 25       		.uleb128 0x25
 8124 2492 44657600 		.ascii	"Dev\000"
 8125 2496 01       		.byte	0x1
 8126 2497 6601     		.2byte	0x166
 8127 2499 EB0E0000 		.4byte	0xeeb
 8128 249d 94150000 		.4byte	.LLST32
 8129 24a1 27       		.uleb128 0x27
 8130 24a2 CE010000 		.4byte	.LASF238
 8131 24a6 01       		.byte	0x1
 8132 24a7 6801     		.2byte	0x168
 8133 24a9 94010000 		.4byte	0x194
 8134 24ad B2150000 		.4byte	.LLST33
 8135 24b1 27       		.uleb128 0x27
 8136 24b2 6A0D0000 		.4byte	.LASF329
 8137 24b6 01       		.byte	0x1
 8138 24b7 6901     		.2byte	0x169
 8139 24b9 DE000000 		.4byte	0xde
 8140 24bd E7150000 		.4byte	.LLST34
 8141 24c1 2C       		.uleb128 0x2c
 8142 24c2 61110000 		.4byte	.LASF330
 8143 24c6 01       		.byte	0x1
 8144 24c7 6A01     		.2byte	0x16a
 8145 24c9 DE000000 		.4byte	0xde
 8146 24cd 02       		.uleb128 0x2
 8147 24ce 91       		.byte	0x91
 8148 24cf 68       		.sleb128 -24
 8149 24d0 29       		.uleb128 0x29
 8150 24d1 12000000 		.4byte	.LVL88
 8151 24d5 D92B0000 		.4byte	0x2bd9
ARM GAS  C:\Users\Moi\AppData\Local\Temp\ccWeMAis.s 			page 144


 8152 24d9 E9240000 		.4byte	0x24e9
 8153 24dd 2A       		.uleb128 0x2a
 8154 24de 01       		.uleb128 0x1
 8155 24df 50       		.byte	0x50
 8156 24e0 02       		.uleb128 0x2
 8157 24e1 75       		.byte	0x75
 8158 24e2 00       		.sleb128 0
 8159 24e3 2A       		.uleb128 0x2a
 8160 24e4 01       		.uleb128 0x1
 8161 24e5 51       		.byte	0x51
 8162 24e6 01       		.uleb128 0x1
 8163 24e7 37       		.byte	0x37
 8164 24e8 00       		.byte	0
 8165 24e9 29       		.uleb128 0x29
 8166 24ea 28000000 		.4byte	.LVL91
 8167 24ee E42B0000 		.4byte	0x2be4
 8168 24f2 03250000 		.4byte	0x2503
 8169 24f6 2A       		.uleb128 0x2a
 8170 24f7 01       		.uleb128 0x1
 8171 24f8 50       		.byte	0x50
 8172 24f9 02       		.uleb128 0x2
 8173 24fa 75       		.byte	0x75
 8174 24fb 00       		.sleb128 0
 8175 24fc 2A       		.uleb128 0x2a
 8176 24fd 01       		.uleb128 0x1
 8177 24fe 51       		.byte	0x51
 8178 24ff 02       		.uleb128 0x2
 8179 2500 7D       		.byte	0x7d
 8180 2501 00       		.sleb128 0
 8181 2502 00       		.byte	0
 8182 2503 29       		.uleb128 0x29
 8183 2504 3C000000 		.4byte	.LVL94
 8184 2508 F02B0000 		.4byte	0x2bf0
 8185 250c 1D250000 		.4byte	0x251d
 8186 2510 2A       		.uleb128 0x2a
 8187 2511 01       		.uleb128 0x1
 8188 2512 50       		.byte	0x50
 8189 2513 02       		.uleb128 0x2
 8190 2514 75       		.byte	0x75
 8191 2515 00       		.sleb128 0
 8192 2516 2A       		.uleb128 0x2a
 8193 2517 01       		.uleb128 0x1
 8194 2518 51       		.byte	0x51
 8195 2519 02       		.uleb128 0x2
 8196 251a 76       		.byte	0x76
 8197 251b 00       		.sleb128 0
 8198 251c 00       		.byte	0
 8199 251d 2B       		.uleb128 0x2b
 8200 251e 48000000 		.4byte	.LVL96
 8201 2522 822B0000 		.4byte	0x2b82
 8202 2526 00       		.byte	0
 8203 2527 24       		.uleb128 0x24
 8204 2528 030D0000 		.4byte	.LASF331
 8205 252c 01       		.byte	0x1
 8206 252d 4601     		.2byte	0x146
 8207 252f 94010000 		.4byte	0x194
 8208 2533 00000000 		.4byte	.LFB6
ARM GAS  C:\Users\Moi\AppData\Local\Temp\ccWeMAis.s 			page 145


 8209 2537 54000000 		.4byte	.LFE6-.LFB6
 8210 253b 01       		.uleb128 0x1
 8211 253c 9C       		.byte	0x9c
 8212 253d C8250000 		.4byte	0x25c8
 8213 2541 25       		.uleb128 0x25
 8214 2542 44657600 		.ascii	"Dev\000"
 8215 2546 01       		.byte	0x1
 8216 2547 4601     		.2byte	0x146
 8217 2549 EB0E0000 		.4byte	0xeeb
 8218 254d FA150000 		.4byte	.LLST28
 8219 2551 26       		.uleb128 0x26
 8220 2552 70150000 		.4byte	.LASF332
 8221 2556 01       		.byte	0x1
 8222 2557 4701     		.2byte	0x147
 8223 2559 71240000 		.4byte	0x2471
 8224 255d 1B160000 		.4byte	.LLST29
 8225 2561 27       		.uleb128 0x27
 8226 2562 CE010000 		.4byte	.LASF238
 8227 2566 01       		.byte	0x1
 8228 2567 4901     		.2byte	0x149
 8229 2569 94010000 		.4byte	0x194
 8230 256d 39160000 		.4byte	.LLST30
 8231 2571 27       		.uleb128 0x27
 8232 2572 950B0000 		.4byte	.LASF333
 8233 2576 01       		.byte	0x1
 8234 2577 4A01     		.2byte	0x14a
 8235 2579 D3000000 		.4byte	0xd3
 8236 257d 58160000 		.4byte	.LLST31
 8237 2581 3E       		.uleb128 0x3e
 8238 2582 96000000 		.4byte	.LASF334
 8239 2586 01       		.byte	0x1
 8240 2587 4B01     		.2byte	0x14b
 8241 2589 C8000000 		.4byte	0xc8
 8242 258d FF07     		.2byte	0x7ff
 8243 258f 3E       		.uleb128 0x3e
 8244 2590 AD150000 		.4byte	.LASF335
 8245 2594 01       		.byte	0x1
 8246 2595 4C01     		.2byte	0x14c
 8247 2597 C8000000 		.4byte	0xc8
 8248 259b 0010     		.2byte	0x1000
 8249 259d 29       		.uleb128 0x29
 8250 259e 16000000 		.4byte	.LVL77
 8251 25a2 CE2B0000 		.4byte	0x2bce
 8252 25a6 BE250000 		.4byte	0x25be
 8253 25aa 2A       		.uleb128 0x2a
 8254 25ab 01       		.uleb128 0x1
 8255 25ac 50       		.byte	0x50
 8256 25ad 03       		.uleb128 0x3
 8257 25ae F3       		.byte	0xf3
 8258 25af 01       		.uleb128 0x1
 8259 25b0 50       		.byte	0x50
 8260 25b1 2A       		.uleb128 0x2a
 8261 25b2 01       		.uleb128 0x1
 8262 25b3 51       		.byte	0x51
 8263 25b4 02       		.uleb128 0x2
 8264 25b5 08       		.byte	0x8
 8265 25b6 28       		.byte	0x28
ARM GAS  C:\Users\Moi\AppData\Local\Temp\ccWeMAis.s 			page 146


 8266 25b7 2A       		.uleb128 0x2a
 8267 25b8 01       		.uleb128 0x1
 8268 25b9 52       		.byte	0x52
 8269 25ba 02       		.uleb128 0x2
 8270 25bb 91       		.byte	0x91
 8271 25bc 6A       		.sleb128 -22
 8272 25bd 00       		.byte	0
 8273 25be 2B       		.uleb128 0x2b
 8274 25bf 50000000 		.4byte	.LVL85
 8275 25c3 822B0000 		.4byte	0x2b82
 8276 25c7 00       		.byte	0
 8277 25c8 24       		.uleb128 0x24
 8278 25c9 DA020000 		.4byte	.LASF336
 8279 25cd 01       		.byte	0x1
 8280 25ce 2101     		.2byte	0x121
 8281 25d0 94010000 		.4byte	0x194
 8282 25d4 00000000 		.4byte	.LFB5
 8283 25d8 5C000000 		.4byte	.LFE5-.LFB5
 8284 25dc 01       		.uleb128 0x1
 8285 25dd 9C       		.byte	0x9c
 8286 25de 66260000 		.4byte	0x2666
 8287 25e2 25       		.uleb128 0x25
 8288 25e3 44657600 		.ascii	"Dev\000"
 8289 25e7 01       		.byte	0x1
 8290 25e8 2101     		.2byte	0x121
 8291 25ea EB0E0000 		.4byte	0xeeb
 8292 25ee B6160000 		.4byte	.LLST26
 8293 25f2 26       		.uleb128 0x26
 8294 25f3 DD0A0000 		.4byte	.LASF337
 8295 25f7 01       		.byte	0x1
 8296 25f8 2201     		.2byte	0x122
 8297 25fa DE000000 		.4byte	0xde
 8298 25fe F0160000 		.4byte	.LLST27
 8299 2602 28       		.uleb128 0x28
 8300 2603 CE010000 		.4byte	.LASF238
 8301 2607 01       		.byte	0x1
 8302 2608 2401     		.2byte	0x124
 8303 260a 94010000 		.4byte	0x194
 8304 260e 00       		.byte	0
 8305 260f 3F       		.uleb128 0x3f
 8306 2610 D10C0000 		.4byte	.LASF338
 8307 2614 01       		.byte	0x1
 8308 2615 2501     		.2byte	0x125
 8309 2617 DE000000 		.4byte	0xde
 8310 261b 18CC0700 		.4byte	0x7cc18
 8311 261f 36       		.uleb128 0x36
 8312 2620 FD0A0000 		.4byte	.LASF339
 8313 2624 01       		.byte	0x1
 8314 2625 2601     		.2byte	0x126
 8315 2627 DE000000 		.4byte	0xde
 8316 262b 80E060   		.sleb128 -512000
 8317 262e 3E       		.uleb128 0x3e
 8318 262f AD150000 		.4byte	.LASF335
 8319 2633 01       		.byte	0x1
 8320 2634 2701     		.2byte	0x127
 8321 2636 C8000000 		.4byte	0xc8
 8322 263a 0010     		.2byte	0x1000
ARM GAS  C:\Users\Moi\AppData\Local\Temp\ccWeMAis.s 			page 147


 8323 263c 30       		.uleb128 0x30
 8324 263d 4B0A0000 		.4byte	.LASF340
 8325 2641 01       		.byte	0x1
 8326 2642 2801     		.2byte	0x128
 8327 2644 E9000000 		.4byte	0xe9
 8328 2648 40       		.uleb128 0x40
 8329 2649 40000000 		.4byte	.LVL70
 8330 264d FB2B0000 		.4byte	0x2bfb
 8331 2651 5C260000 		.4byte	0x265c
 8332 2655 2A       		.uleb128 0x2a
 8333 2656 01       		.uleb128 0x1
 8334 2657 51       		.byte	0x51
 8335 2658 02       		.uleb128 0x2
 8336 2659 08       		.byte	0x8
 8337 265a 28       		.byte	0x28
 8338 265b 00       		.byte	0
 8339 265c 2B       		.uleb128 0x2b
 8340 265d 50000000 		.4byte	.LVL73
 8341 2661 822B0000 		.4byte	0x2b82
 8342 2665 00       		.byte	0
 8343 2666 41       		.uleb128 0x41
 8344 2667 52010000 		.4byte	.LASF341
 8345 266b 01       		.byte	0x1
 8346 266c BE       		.byte	0xbe
 8347 266d 94010000 		.4byte	0x194
 8348 2671 00000000 		.4byte	.LFB4
 8349 2675 E8000000 		.4byte	.LFE4-.LFB4
 8350 2679 01       		.uleb128 0x1
 8351 267a 9C       		.byte	0x9c
 8352 267b EA270000 		.4byte	0x27ea
 8353 267f 42       		.uleb128 0x42
 8354 2680 44657600 		.ascii	"Dev\000"
 8355 2684 01       		.byte	0x1
 8356 2685 BE       		.byte	0xbe
 8357 2686 EB0E0000 		.4byte	0xeeb
 8358 268a 2A170000 		.4byte	.LLST16
 8359 268e 43       		.uleb128 0x43
 8360 268f 7A030000 		.4byte	.LASF342
 8361 2693 01       		.byte	0x1
 8362 2694 BF       		.byte	0xbf
 8363 2695 FB000000 		.4byte	0xfb
 8364 2699 6F170000 		.4byte	.LLST17
 8365 269d 43       		.uleb128 0x43
 8366 269e 60020000 		.4byte	.LASF343
 8367 26a2 01       		.byte	0x1
 8368 26a3 C0       		.byte	0xc0
 8369 26a4 71240000 		.4byte	0x2471
 8370 26a8 CD170000 		.4byte	.LLST18
 8371 26ac 44       		.uleb128 0x44
 8372 26ad CE010000 		.4byte	.LASF238
 8373 26b1 01       		.byte	0x1
 8374 26b2 C2       		.byte	0xc2
 8375 26b3 94010000 		.4byte	0x194
 8376 26b7 12180000 		.4byte	.LLST19
 8377 26bb 44       		.uleb128 0x44
 8378 26bc 7A110000 		.4byte	.LASF344
 8379 26c0 01       		.byte	0x1
ARM GAS  C:\Users\Moi\AppData\Local\Temp\ccWeMAis.s 			page 148


 8380 26c1 C3       		.byte	0xc3
 8381 26c2 D3000000 		.4byte	0xd3
 8382 26c6 B9180000 		.4byte	.LLST20
 8383 26ca 44       		.uleb128 0x44
 8384 26cb 600C0000 		.4byte	.LASF345
 8385 26cf 01       		.byte	0x1
 8386 26d0 C4       		.byte	0xc4
 8387 26d1 FB000000 		.4byte	0xfb
 8388 26d5 E4180000 		.4byte	.LLST21
 8389 26d9 45       		.uleb128 0x45
 8390 26da 230C0000 		.4byte	.LASF346
 8391 26de 01       		.byte	0x1
 8392 26df C5       		.byte	0xc5
 8393 26e0 50030000 		.4byte	0x350
 8394 26e4 02       		.uleb128 0x2
 8395 26e5 91       		.byte	0x91
 8396 26e6 40       		.sleb128 -64
 8397 26e7 44       		.uleb128 0x44
 8398 26e8 EB070000 		.4byte	.LASF347
 8399 26ec 01       		.byte	0x1
 8400 26ed C6       		.byte	0xc6
 8401 26ee FB000000 		.4byte	0xfb
 8402 26f2 27190000 		.4byte	.LLST22
 8403 26f6 44       		.uleb128 0x44
 8404 26f7 36080000 		.4byte	.LASF348
 8405 26fb 01       		.byte	0x1
 8406 26fc C7       		.byte	0xc7
 8407 26fd E9000000 		.4byte	0xe9
 8408 2701 4B190000 		.4byte	.LLST23
 8409 2705 44       		.uleb128 0x44
 8410 2706 760C0000 		.4byte	.LASF349
 8411 270a 01       		.byte	0x1
 8412 270b C8       		.byte	0xc8
 8413 270c E9000000 		.4byte	0xe9
 8414 2710 75190000 		.4byte	.LLST24
 8415 2714 45       		.uleb128 0x45
 8416 2715 7F050000 		.4byte	.LASF350
 8417 2719 01       		.byte	0x1
 8418 271a C9       		.byte	0xc9
 8419 271b B8000000 		.4byte	0xb8
 8420 271f 03       		.uleb128 0x3
 8421 2720 91       		.byte	0x91
 8422 2721 BF7F     		.sleb128 -65
 8423 2723 44       		.uleb128 0x44
 8424 2724 E9160000 		.4byte	.LASF351
 8425 2728 01       		.byte	0x1
 8426 2729 CA       		.byte	0xca
 8427 272a A6000000 		.4byte	0xa6
 8428 272e B1190000 		.4byte	.LLST25
 8429 2732 29       		.uleb128 0x29
 8430 2733 2C000000 		.4byte	.LVL43
 8431 2737 F02B0000 		.4byte	0x2bf0
 8432 273b 4B270000 		.4byte	0x274b
 8433 273f 2A       		.uleb128 0x2a
 8434 2740 01       		.uleb128 0x1
 8435 2741 50       		.byte	0x50
 8436 2742 02       		.uleb128 0x2
ARM GAS  C:\Users\Moi\AppData\Local\Temp\ccWeMAis.s 			page 149


 8437 2743 75       		.byte	0x75
 8438 2744 00       		.sleb128 0
 8439 2745 2A       		.uleb128 0x2a
 8440 2746 01       		.uleb128 0x1
 8441 2747 51       		.byte	0x51
 8442 2748 01       		.uleb128 0x1
 8443 2749 30       		.byte	0x30
 8444 274a 00       		.byte	0
 8445 274b 29       		.uleb128 0x29
 8446 274c 3C000000 		.4byte	.LVL45
 8447 2750 062C0000 		.4byte	0x2c06
 8448 2754 66270000 		.4byte	0x2766
 8449 2758 2A       		.uleb128 0x2a
 8450 2759 01       		.uleb128 0x1
 8451 275a 50       		.byte	0x50
 8452 275b 02       		.uleb128 0x2
 8453 275c 75       		.byte	0x75
 8454 275d 00       		.sleb128 0
 8455 275e 2A       		.uleb128 0x2a
 8456 275f 01       		.uleb128 0x1
 8457 2760 52       		.byte	0x52
 8458 2761 03       		.uleb128 0x3
 8459 2762 91       		.byte	0x91
 8460 2763 BF7F     		.sleb128 -65
 8461 2765 00       		.byte	0
 8462 2766 29       		.uleb128 0x29
 8463 2767 4A000000 		.4byte	.LVL47
 8464 276b 122C0000 		.4byte	0x2c12
 8465 276f 7A270000 		.4byte	0x277a
 8466 2773 2A       		.uleb128 0x2a
 8467 2774 01       		.uleb128 0x1
 8468 2775 50       		.byte	0x50
 8469 2776 02       		.uleb128 0x2
 8470 2777 75       		.byte	0x75
 8471 2778 00       		.sleb128 0
 8472 2779 00       		.byte	0
 8473 277a 29       		.uleb128 0x29
 8474 277b 58000000 		.4byte	.LVL49
 8475 277f 1E2C0000 		.4byte	0x2c1e
 8476 2783 93270000 		.4byte	0x2793
 8477 2787 2A       		.uleb128 0x2a
 8478 2788 01       		.uleb128 0x1
 8479 2789 50       		.byte	0x50
 8480 278a 02       		.uleb128 0x2
 8481 278b 75       		.byte	0x75
 8482 278c 00       		.sleb128 0
 8483 278d 2A       		.uleb128 0x2a
 8484 278e 01       		.uleb128 0x1
 8485 278f 51       		.byte	0x51
 8486 2790 01       		.uleb128 0x1
 8487 2791 33       		.byte	0x33
 8488 2792 00       		.byte	0
 8489 2793 29       		.uleb128 0x29
 8490 2794 82000000 		.4byte	.LVL55
 8491 2798 C22B0000 		.4byte	0x2bc2
 8492 279c AD270000 		.4byte	0x27ad
 8493 27a0 2A       		.uleb128 0x2a
ARM GAS  C:\Users\Moi\AppData\Local\Temp\ccWeMAis.s 			page 150


 8494 27a1 01       		.uleb128 0x1
 8495 27a2 50       		.byte	0x50
 8496 27a3 02       		.uleb128 0x2
 8497 27a4 75       		.byte	0x75
 8498 27a5 00       		.sleb128 0
 8499 27a6 2A       		.uleb128 0x2a
 8500 27a7 01       		.uleb128 0x1
 8501 27a8 51       		.byte	0x51
 8502 27a9 02       		.uleb128 0x2
 8503 27aa 91       		.byte	0x91
 8504 27ab 40       		.sleb128 -64
 8505 27ac 00       		.byte	0
 8506 27ad 29       		.uleb128 0x29
 8507 27ae C0000000 		.4byte	.LVL61
 8508 27b2 F02B0000 		.4byte	0x2bf0
 8509 27b6 C1270000 		.4byte	0x27c1
 8510 27ba 2A       		.uleb128 0x2a
 8511 27bb 01       		.uleb128 0x1
 8512 27bc 50       		.byte	0x50
 8513 27bd 02       		.uleb128 0x2
 8514 27be 75       		.byte	0x75
 8515 27bf 00       		.sleb128 0
 8516 27c0 00       		.byte	0
 8517 27c1 29       		.uleb128 0x29
 8518 27c2 D6000000 		.4byte	.LVL63
 8519 27c6 122C0000 		.4byte	0x2c12
 8520 27ca E0270000 		.4byte	0x27e0
 8521 27ce 2A       		.uleb128 0x2a
 8522 27cf 01       		.uleb128 0x1
 8523 27d0 50       		.byte	0x50
 8524 27d1 02       		.uleb128 0x2
 8525 27d2 75       		.byte	0x75
 8526 27d3 00       		.sleb128 0
 8527 27d4 2A       		.uleb128 0x2a
 8528 27d5 01       		.uleb128 0x1
 8529 27d6 51       		.byte	0x51
 8530 27d7 02       		.uleb128 0x2
 8531 27d8 74       		.byte	0x74
 8532 27d9 00       		.sleb128 0
 8533 27da 2A       		.uleb128 0x2a
 8534 27db 01       		.uleb128 0x1
 8535 27dc 52       		.byte	0x52
 8536 27dd 01       		.uleb128 0x1
 8537 27de 31       		.byte	0x31
 8538 27df 00       		.byte	0
 8539 27e0 2B       		.uleb128 0x2b
 8540 27e1 E2000000 		.4byte	.LVL66
 8541 27e5 822B0000 		.4byte	0x2b82
 8542 27e9 00       		.byte	0
 8543 27ea 41       		.uleb128 0x41
 8544 27eb 35180000 		.4byte	.LASF352
 8545 27ef 01       		.byte	0x1
 8546 27f0 33       		.byte	0x33
 8547 27f1 94010000 		.4byte	0x194
 8548 27f5 00000000 		.4byte	.LFB3
 8549 27f9 F8000000 		.4byte	.LFE3-.LFB3
 8550 27fd 01       		.uleb128 0x1
ARM GAS  C:\Users\Moi\AppData\Local\Temp\ccWeMAis.s 			page 151


 8551 27fe 9C       		.byte	0x9c
 8552 27ff 8C290000 		.4byte	0x298c
 8553 2803 42       		.uleb128 0x42
 8554 2804 44657600 		.ascii	"Dev\000"
 8555 2808 01       		.byte	0x1
 8556 2809 33       		.byte	0x33
 8557 280a EB0E0000 		.4byte	0xeeb
 8558 280e 011A0000 		.4byte	.LLST0
 8559 2812 43       		.uleb128 0x43
 8560 2813 51080000 		.4byte	.LASF353
 8561 2817 01       		.byte	0x1
 8562 2818 34       		.byte	0x34
 8563 2819 FB000000 		.4byte	0xfb
 8564 281d 461A0000 		.4byte	.LLST1
 8565 2821 43       		.uleb128 0x43
 8566 2822 E90B0000 		.4byte	.LASF354
 8567 2826 01       		.byte	0x1
 8568 2827 35       		.byte	0x35
 8569 2828 8C290000 		.4byte	0x298c
 8570 282c 8B1A0000 		.4byte	.LLST2
 8571 2830 44       		.uleb128 0x44
 8572 2831 CE010000 		.4byte	.LASF238
 8573 2835 01       		.byte	0x1
 8574 2836 37       		.byte	0x37
 8575 2837 94010000 		.4byte	0x194
 8576 283b C31A0000 		.4byte	.LLST3
 8577 283f 44       		.uleb128 0x44
 8578 2840 7A110000 		.4byte	.LASF344
 8579 2844 01       		.byte	0x1
 8580 2845 38       		.byte	0x38
 8581 2846 D3000000 		.4byte	0xd3
 8582 284a 541B0000 		.4byte	.LLST4
 8583 284e 44       		.uleb128 0x44
 8584 284f 290B0000 		.4byte	.LASF355
 8585 2853 01       		.byte	0x1
 8586 2854 39       		.byte	0x39
 8587 2855 D3000000 		.4byte	0xd3
 8588 2859 8A1B0000 		.4byte	.LLST5
 8589 285d 44       		.uleb128 0x44
 8590 285e 600E0000 		.4byte	.LASF356
 8591 2862 01       		.byte	0x1
 8592 2863 3A       		.byte	0x3a
 8593 2864 FB000000 		.4byte	0xfb
 8594 2868 C01B0000 		.4byte	.LLST6
 8595 286c 44       		.uleb128 0x44
 8596 286d 600C0000 		.4byte	.LASF345
 8597 2871 01       		.byte	0x1
 8598 2872 3B       		.byte	0x3b
 8599 2873 FB000000 		.4byte	0xfb
 8600 2877 EB1B0000 		.4byte	.LLST7
 8601 287b 44       		.uleb128 0x44
 8602 287c 330B0000 		.4byte	.LASF357
 8603 2880 01       		.byte	0x1
 8604 2881 3C       		.byte	0x3c
 8605 2882 B8000000 		.4byte	0xb8
 8606 2886 2E1C0000 		.4byte	.LLST8
 8607 288a 45       		.uleb128 0x45
ARM GAS  C:\Users\Moi\AppData\Local\Temp\ccWeMAis.s 			page 152


 8608 288b 230C0000 		.4byte	.LASF346
 8609 288f 01       		.byte	0x1
 8610 2890 3D       		.byte	0x3d
 8611 2891 50030000 		.4byte	0x350
 8612 2895 03       		.uleb128 0x3
 8613 2896 91       		.byte	0x91
 8614 2897 B87F     		.sleb128 -72
 8615 2899 44       		.uleb128 0x44
 8616 289a 72020000 		.4byte	.LASF358
 8617 289e 01       		.byte	0x1
 8618 289f 3E       		.byte	0x3e
 8619 28a0 FB000000 		.4byte	0xfb
 8620 28a4 7E1C0000 		.4byte	.LLST9
 8621 28a8 44       		.uleb128 0x44
 8622 28a9 E5000000 		.4byte	.LASF359
 8623 28ad 01       		.byte	0x1
 8624 28ae 3F       		.byte	0x3f
 8625 28af FB000000 		.4byte	0xfb
 8626 28b3 BD1C0000 		.4byte	.LLST10
 8627 28b7 44       		.uleb128 0x44
 8628 28b8 E1120000 		.4byte	.LASF360
 8629 28bc 01       		.byte	0x1
 8630 28bd 40       		.byte	0x40
 8631 28be FB000000 		.4byte	0xfb
 8632 28c2 E11C0000 		.4byte	.LLST11
 8633 28c6 44       		.uleb128 0x44
 8634 28c7 42000000 		.4byte	.LASF361
 8635 28cb 01       		.byte	0x1
 8636 28cc 41       		.byte	0x41
 8637 28cd E9000000 		.4byte	0xe9
 8638 28d1 051D0000 		.4byte	.LLST12
 8639 28d5 44       		.uleb128 0x44
 8640 28d6 6C160000 		.4byte	.LASF362
 8641 28da 01       		.byte	0x1
 8642 28db 42       		.byte	0x42
 8643 28dc E9000000 		.4byte	0xe9
 8644 28e0 611D0000 		.4byte	.LLST13
 8645 28e4 44       		.uleb128 0x44
 8646 28e5 CD0B0000 		.4byte	.LASF363
 8647 28e9 01       		.byte	0x1
 8648 28ea 43       		.byte	0x43
 8649 28eb E9000000 		.4byte	0xe9
 8650 28ef 8E1D0000 		.4byte	.LLST14
 8651 28f3 44       		.uleb128 0x44
 8652 28f4 370E0000 		.4byte	.LASF43
 8653 28f8 01       		.byte	0x1
 8654 28f9 44       		.byte	0x44
 8655 28fa FB000000 		.4byte	0xfb
 8656 28fe C71D0000 		.4byte	.LLST15
 8657 2902 29       		.uleb128 0x29
 8658 2903 32000000 		.4byte	.LVL5
 8659 2907 2A2C0000 		.4byte	0x2c2a
 8660 290b 1B290000 		.4byte	0x291b
 8661 290f 2A       		.uleb128 0x2a
 8662 2910 01       		.uleb128 0x1
 8663 2911 50       		.byte	0x50
 8664 2912 02       		.uleb128 0x2
ARM GAS  C:\Users\Moi\AppData\Local\Temp\ccWeMAis.s 			page 153


 8665 2913 76       		.byte	0x76
 8666 2914 00       		.sleb128 0
 8667 2915 2A       		.uleb128 0x2a
 8668 2916 01       		.uleb128 0x1
 8669 2917 51       		.byte	0x51
 8670 2918 01       		.uleb128 0x1
 8671 2919 30       		.byte	0x30
 8672 291a 00       		.byte	0
 8673 291b 29       		.uleb128 0x29
 8674 291c 40000000 		.4byte	.LVL7
 8675 2920 1E2C0000 		.4byte	0x2c1e
 8676 2924 34290000 		.4byte	0x2934
 8677 2928 2A       		.uleb128 0x2a
 8678 2929 01       		.uleb128 0x1
 8679 292a 50       		.byte	0x50
 8680 292b 02       		.uleb128 0x2
 8681 292c 76       		.byte	0x76
 8682 292d 00       		.sleb128 0
 8683 292e 2A       		.uleb128 0x2a
 8684 292f 01       		.uleb128 0x1
 8685 2930 51       		.byte	0x51
 8686 2931 01       		.uleb128 0x1
 8687 2932 33       		.byte	0x33
 8688 2933 00       		.byte	0
 8689 2934 29       		.uleb128 0x29
 8690 2935 82000000 		.4byte	.LVL17
 8691 2939 C22B0000 		.4byte	0x2bc2
 8692 293d 4F290000 		.4byte	0x294f
 8693 2941 2A       		.uleb128 0x2a
 8694 2942 01       		.uleb128 0x1
 8695 2943 50       		.byte	0x50
 8696 2944 02       		.uleb128 0x2
 8697 2945 76       		.byte	0x76
 8698 2946 00       		.sleb128 0
 8699 2947 2A       		.uleb128 0x2a
 8700 2948 01       		.uleb128 0x1
 8701 2949 51       		.byte	0x51
 8702 294a 03       		.uleb128 0x3
 8703 294b 91       		.byte	0x91
 8704 294c B87F     		.sleb128 -72
 8705 294e 00       		.byte	0
 8706 294f 29       		.uleb128 0x29
 8707 2950 DE000000 		.4byte	.LVL31
 8708 2954 2A2C0000 		.4byte	0x2c2a
 8709 2958 68290000 		.4byte	0x2968
 8710 295c 2A       		.uleb128 0x2a
 8711 295d 01       		.uleb128 0x1
 8712 295e 50       		.byte	0x50
 8713 295f 02       		.uleb128 0x2
 8714 2960 76       		.byte	0x76
 8715 2961 00       		.sleb128 0
 8716 2962 2A       		.uleb128 0x2a
 8717 2963 01       		.uleb128 0x1
 8718 2964 51       		.byte	0x51
 8719 2965 01       		.uleb128 0x1
 8720 2966 31       		.byte	0x31
 8721 2967 00       		.byte	0
ARM GAS  C:\Users\Moi\AppData\Local\Temp\ccWeMAis.s 			page 154


 8722 2968 29       		.uleb128 0x29
 8723 2969 EA000000 		.4byte	.LVL33
 8724 296d 362C0000 		.4byte	0x2c36
 8725 2971 82290000 		.4byte	0x2982
 8726 2975 2A       		.uleb128 0x2a
 8727 2976 01       		.uleb128 0x1
 8728 2977 50       		.byte	0x50
 8729 2978 02       		.uleb128 0x2
 8730 2979 76       		.byte	0x76
 8731 297a 00       		.sleb128 0
 8732 297b 2A       		.uleb128 0x2a
 8733 297c 01       		.uleb128 0x1
 8734 297d 51       		.byte	0x51
 8735 297e 02       		.uleb128 0x2
 8736 297f 74       		.byte	0x74
 8737 2980 00       		.sleb128 0
 8738 2981 00       		.byte	0
 8739 2982 2B       		.uleb128 0x2b
 8740 2983 F4000000 		.4byte	.LVL37
 8741 2987 822B0000 		.4byte	0x2b82
 8742 298b 00       		.byte	0
 8743 298c 0F       		.uleb128 0xf
 8744 298d 04       		.byte	0x4
 8745 298e FB000000 		.4byte	0xfb
 8746 2992 46       		.uleb128 0x46
 8747 2993 70230000 		.4byte	0x2370
 8748 2997 00000000 		.4byte	.LFB9
 8749 299b 34000000 		.4byte	.LFE9-.LFB9
 8750 299f 01       		.uleb128 0x1
 8751 29a0 9C       		.byte	0x9c
 8752 29a1 C2290000 		.4byte	0x29c2
 8753 29a5 32       		.uleb128 0x32
 8754 29a6 81230000 		.4byte	0x2381
 8755 29aa DA1D0000 		.4byte	.LLST44
 8756 29ae 3B       		.uleb128 0x3b
 8757 29af 8D230000 		.4byte	0x238d
 8758 29b3 3B       		.uleb128 0x3b
 8759 29b4 99230000 		.4byte	0x2399
 8760 29b8 2B       		.uleb128 0x2b
 8761 29b9 2A000000 		.4byte	.LVL122
 8762 29bd 822B0000 		.4byte	0x2b82
 8763 29c1 00       		.byte	0
 8764 29c2 46       		.uleb128 0x46
 8765 29c3 0A230000 		.4byte	0x230a
 8766 29c7 00000000 		.4byte	.LFB10
 8767 29cb 3C000000 		.4byte	.LFE10-.LFB10
 8768 29cf 01       		.uleb128 0x1
 8769 29d0 9C       		.byte	0x9c
 8770 29d1 1B2A0000 		.4byte	0x2a1b
 8771 29d5 32       		.uleb128 0x32
 8772 29d6 1B230000 		.4byte	0x231b
 8773 29da FB1D0000 		.4byte	.LLST45
 8774 29de 32       		.uleb128 0x32
 8775 29df 27230000 		.4byte	0x2327
 8776 29e3 351E0000 		.4byte	.LLST46
 8777 29e7 32       		.uleb128 0x32
 8778 29e8 33230000 		.4byte	0x2333
ARM GAS  C:\Users\Moi\AppData\Local\Temp\ccWeMAis.s 			page 155


 8779 29ec 6F1E0000 		.4byte	.LLST47
 8780 29f0 39       		.uleb128 0x39
 8781 29f1 3F230000 		.4byte	0x233f
 8782 29f5 A91E0000 		.4byte	.LLST48
 8783 29f9 47       		.uleb128 0x47
 8784 29fa 4B230000 		.4byte	0x234b
 8785 29fe 08       		.byte	0x8
 8786 29ff 39       		.uleb128 0x39
 8787 2a00 57230000 		.4byte	0x2357
 8788 2a04 DF1E0000 		.4byte	.LLST49
 8789 2a08 39       		.uleb128 0x39
 8790 2a09 63230000 		.4byte	0x2363
 8791 2a0d 1D1F0000 		.4byte	.LLST50
 8792 2a11 2B       		.uleb128 0x2b
 8793 2a12 38000000 		.4byte	.LVL134
 8794 2a16 822B0000 		.4byte	0x2b82
 8795 2a1a 00       		.byte	0
 8796 2a1b 46       		.uleb128 0x46
 8797 2a1c E7210000 		.4byte	0x21e7
 8798 2a20 00000000 		.4byte	.LFB12
 8799 2a24 2C000000 		.4byte	.LFE12-.LFB12
 8800 2a28 01       		.uleb128 0x1
 8801 2a29 9C       		.byte	0x9c
 8802 2a2a 762A0000 		.4byte	0x2a76
 8803 2a2e 32       		.uleb128 0x32
 8804 2a2f F8210000 		.4byte	0x21f8
 8805 2a33 6E1F0000 		.4byte	.LLST61
 8806 2a37 32       		.uleb128 0x32
 8807 2a38 04220000 		.4byte	0x2204
 8808 2a3c A81F0000 		.4byte	.LLST62
 8809 2a40 3B       		.uleb128 0x3b
 8810 2a41 10220000 		.4byte	0x2210
 8811 2a45 40       		.uleb128 0x40
 8812 2a46 22000000 		.4byte	.LVL157
 8813 2a4a B72B0000 		.4byte	0x2bb7
 8814 2a4e 6C2A0000 		.4byte	0x2a6c
 8815 2a52 2A       		.uleb128 0x2a
 8816 2a53 01       		.uleb128 0x1
 8817 2a54 50       		.byte	0x50
 8818 2a55 03       		.uleb128 0x3
 8819 2a56 F3       		.byte	0xf3
 8820 2a57 01       		.uleb128 0x1
 8821 2a58 50       		.byte	0x50
 8822 2a59 2A       		.uleb128 0x2a
 8823 2a5a 01       		.uleb128 0x1
 8824 2a5b 51       		.byte	0x51
 8825 2a5c 02       		.uleb128 0x2
 8826 2a5d 09       		.byte	0x9
 8827 2a5e B0       		.byte	0xb0
 8828 2a5f 2A       		.uleb128 0x2a
 8829 2a60 01       		.uleb128 0x1
 8830 2a61 52       		.byte	0x52
 8831 2a62 03       		.uleb128 0x3
 8832 2a63 F3       		.byte	0xf3
 8833 2a64 01       		.uleb128 0x1
 8834 2a65 51       		.byte	0x51
 8835 2a66 2A       		.uleb128 0x2a
ARM GAS  C:\Users\Moi\AppData\Local\Temp\ccWeMAis.s 			page 156


 8836 2a67 01       		.uleb128 0x1
 8837 2a68 53       		.byte	0x53
 8838 2a69 01       		.uleb128 0x1
 8839 2a6a 36       		.byte	0x36
 8840 2a6b 00       		.byte	0
 8841 2a6c 2B       		.uleb128 0x2b
 8842 2a6d 26000000 		.4byte	.LVL158
 8843 2a71 822B0000 		.4byte	0x2b82
 8844 2a75 00       		.byte	0
 8845 2a76 46       		.uleb128 0x46
 8846 2a77 B1210000 		.4byte	0x21b1
 8847 2a7b 00000000 		.4byte	.LFB13
 8848 2a7f 2C000000 		.4byte	.LFE13-.LFB13
 8849 2a83 01       		.uleb128 0x1
 8850 2a84 9C       		.byte	0x9c
 8851 2a85 D12A0000 		.4byte	0x2ad1
 8852 2a89 32       		.uleb128 0x32
 8853 2a8a C2210000 		.4byte	0x21c2
 8854 2a8e ED1F0000 		.4byte	.LLST63
 8855 2a92 32       		.uleb128 0x32
 8856 2a93 CE210000 		.4byte	0x21ce
 8857 2a97 27200000 		.4byte	.LLST64
 8858 2a9b 3B       		.uleb128 0x3b
 8859 2a9c DA210000 		.4byte	0x21da
 8860 2aa0 40       		.uleb128 0x40
 8861 2aa1 22000000 		.4byte	.LVL161
 8862 2aa5 AC2B0000 		.4byte	0x2bac
 8863 2aa9 C72A0000 		.4byte	0x2ac7
 8864 2aad 2A       		.uleb128 0x2a
 8865 2aae 01       		.uleb128 0x1
 8866 2aaf 50       		.byte	0x50
 8867 2ab0 03       		.uleb128 0x3
 8868 2ab1 F3       		.byte	0xf3
 8869 2ab2 01       		.uleb128 0x1
 8870 2ab3 50       		.byte	0x50
 8871 2ab4 2A       		.uleb128 0x2a
 8872 2ab5 01       		.uleb128 0x1
 8873 2ab6 51       		.byte	0x51
 8874 2ab7 02       		.uleb128 0x2
 8875 2ab8 09       		.byte	0x9
 8876 2ab9 B0       		.byte	0xb0
 8877 2aba 2A       		.uleb128 0x2a
 8878 2abb 01       		.uleb128 0x1
 8879 2abc 52       		.byte	0x52
 8880 2abd 03       		.uleb128 0x3
 8881 2abe F3       		.byte	0xf3
 8882 2abf 01       		.uleb128 0x1
 8883 2ac0 51       		.byte	0x51
 8884 2ac1 2A       		.uleb128 0x2a
 8885 2ac2 01       		.uleb128 0x1
 8886 2ac3 53       		.byte	0x53
 8887 2ac4 01       		.uleb128 0x1
 8888 2ac5 36       		.byte	0x36
 8889 2ac6 00       		.byte	0
 8890 2ac7 2B       		.uleb128 0x2b
 8891 2ac8 26000000 		.4byte	.LVL162
 8892 2acc 822B0000 		.4byte	0x2b82
ARM GAS  C:\Users\Moi\AppData\Local\Temp\ccWeMAis.s 			page 157


 8893 2ad0 00       		.byte	0
 8894 2ad1 46       		.uleb128 0x46
 8895 2ad2 3A160000 		.4byte	0x163a
 8896 2ad6 00000000 		.4byte	.LFB19
 8897 2ada 60000000 		.4byte	.LFE19-.LFB19
 8898 2ade 01       		.uleb128 0x1
 8899 2adf 9C       		.byte	0x9c
 8900 2ae0 822B0000 		.4byte	0x2b82
 8901 2ae4 32       		.uleb128 0x32
 8902 2ae5 4B160000 		.4byte	0x164b
 8903 2ae9 6C200000 		.4byte	.LLST102
 8904 2aed 32       		.uleb128 0x32
 8905 2aee 57160000 		.4byte	0x1657
 8906 2af2 AE200000 		.4byte	.LLST103
 8907 2af6 39       		.uleb128 0x39
 8908 2af7 63160000 		.4byte	0x1663
 8909 2afb CF200000 		.4byte	.LLST104
 8910 2aff 48       		.uleb128 0x48
 8911 2b00 3A160000 		.4byte	0x163a
 8912 2b04 38000000 		.4byte	.Ldebug_ranges0+0x38
 8913 2b08 372B0000 		.4byte	0x2b37
 8914 2b0c 3A       		.uleb128 0x3a
 8915 2b0d 57160000 		.4byte	0x1657
 8916 2b11 32       		.uleb128 0x32
 8917 2b12 4B160000 		.4byte	0x164b
 8918 2b16 1A210000 		.4byte	.LLST105
 8919 2b1a 38       		.uleb128 0x38
 8920 2b1b 38000000 		.4byte	.Ldebug_ranges0+0x38
 8921 2b1f 3B       		.uleb128 0x3b
 8922 2b20 F62A0000 		.4byte	0x2af6
 8923 2b24 49       		.uleb128 0x49
 8924 2b25 58000000 		.4byte	.LVL259
 8925 2b29 8B2B0000 		.4byte	0x2b8b
 8926 2b2d 2A       		.uleb128 0x2a
 8927 2b2e 01       		.uleb128 0x1
 8928 2b2f 50       		.byte	0x50
 8929 2b30 03       		.uleb128 0x3
 8930 2b31 F3       		.byte	0xf3
 8931 2b32 01       		.uleb128 0x1
 8932 2b33 50       		.byte	0x50
 8933 2b34 00       		.byte	0
 8934 2b35 00       		.byte	0
 8935 2b36 00       		.byte	0
 8936 2b37 29       		.uleb128 0x29
 8937 2b38 16000000 		.4byte	.LVL249
 8938 2b3c 8B2B0000 		.4byte	0x2b8b
 8939 2b40 502B0000 		.4byte	0x2b50
 8940 2b44 2A       		.uleb128 0x2a
 8941 2b45 01       		.uleb128 0x1
 8942 2b46 50       		.byte	0x50
 8943 2b47 02       		.uleb128 0x2
 8944 2b48 75       		.byte	0x75
 8945 2b49 00       		.sleb128 0
 8946 2b4a 2A       		.uleb128 0x2a
 8947 2b4b 01       		.uleb128 0x1
 8948 2b4c 51       		.byte	0x51
 8949 2b4d 01       		.uleb128 0x1
ARM GAS  C:\Users\Moi\AppData\Local\Temp\ccWeMAis.s 			page 158


 8950 2b4e 30       		.byte	0x30
 8951 2b4f 00       		.byte	0
 8952 2b50 29       		.uleb128 0x29
 8953 2b51 2E000000 		.4byte	.LVL253
 8954 2b55 422C0000 		.4byte	0x2c42
 8955 2b59 642B0000 		.4byte	0x2b64
 8956 2b5d 2A       		.uleb128 0x2a
 8957 2b5e 01       		.uleb128 0x1
 8958 2b5f 50       		.byte	0x50
 8959 2b60 02       		.uleb128 0x2
 8960 2b61 75       		.byte	0x75
 8961 2b62 00       		.sleb128 0
 8962 2b63 00       		.byte	0
 8963 2b64 29       		.uleb128 0x29
 8964 2b65 3C000000 		.4byte	.LVL255
 8965 2b69 4D2C0000 		.4byte	0x2c4d
 8966 2b6d 782B0000 		.4byte	0x2b78
 8967 2b71 2A       		.uleb128 0x2a
 8968 2b72 01       		.uleb128 0x1
 8969 2b73 50       		.byte	0x50
 8970 2b74 02       		.uleb128 0x2
 8971 2b75 75       		.byte	0x75
 8972 2b76 00       		.sleb128 0
 8973 2b77 00       		.byte	0
 8974 2b78 2B       		.uleb128 0x2b
 8975 2b79 5C000000 		.4byte	.LVL260
 8976 2b7d 822B0000 		.4byte	0x2b82
 8977 2b81 00       		.byte	0
 8978 2b82 4A       		.uleb128 0x4a
 8979 2b83 FB100000 		.4byte	.LASF386
 8980 2b87 FB100000 		.4byte	.LASF386
 8981 2b8b 4B       		.uleb128 0x4b
 8982 2b8c 11000000 		.4byte	.LASF364
 8983 2b90 11000000 		.4byte	.LASF364
 8984 2b94 0B       		.byte	0xb
 8985 2b95 8E       		.byte	0x8e
 8986 2b96 4B       		.uleb128 0x4b
 8987 2b97 CC100000 		.4byte	.LASF365
 8988 2b9b CC100000 		.4byte	.LASF365
 8989 2b9f 0B       		.byte	0xb
 8990 2ba0 CE       		.byte	0xce
 8991 2ba1 4B       		.uleb128 0x4b
 8992 2ba2 8A0C0000 		.4byte	.LASF366
 8993 2ba6 8A0C0000 		.4byte	.LASF366
 8994 2baa 0B       		.byte	0xb
 8995 2bab AC       		.byte	0xac
 8996 2bac 4B       		.uleb128 0x4b
 8997 2bad C3040000 		.4byte	.LASF367
 8998 2bb1 C3040000 		.4byte	.LASF367
 8999 2bb5 0B       		.byte	0xb
 9000 2bb6 84       		.byte	0x84
 9001 2bb7 4B       		.uleb128 0x4b
 9002 2bb8 B9100000 		.4byte	.LASF368
 9003 2bbc B9100000 		.4byte	.LASF368
 9004 2bc0 0B       		.byte	0xb
 9005 2bc1 79       		.byte	0x79
 9006 2bc2 4C       		.uleb128 0x4c
ARM GAS  C:\Users\Moi\AppData\Local\Temp\ccWeMAis.s 			page 159


 9007 2bc3 9B120000 		.4byte	.LASF369
 9008 2bc7 9B120000 		.4byte	.LASF369
 9009 2bcb 0D       		.byte	0xd
 9010 2bcc 0906     		.2byte	0x609
 9011 2bce 4B       		.uleb128 0x4b
 9012 2bcf AE0C0000 		.4byte	.LASF370
 9013 2bd3 AE0C0000 		.4byte	.LASF370
 9014 2bd7 0B       		.byte	0xb
 9015 2bd8 B6       		.byte	0xb6
 9016 2bd9 4B       		.uleb128 0x4b
 9017 2bda EC0F0000 		.4byte	.LASF371
 9018 2bde EC0F0000 		.4byte	.LASF371
 9019 2be2 0E       		.byte	0xe
 9020 2be3 35       		.byte	0x35
 9021 2be4 4C       		.uleb128 0x4c
 9022 2be5 3C070000 		.4byte	.LASF372
 9023 2be9 3C070000 		.4byte	.LASF372
 9024 2bed 0D       		.byte	0xd
 9025 2bee 0A01     		.2byte	0x10a
 9026 2bf0 4B       		.uleb128 0x4b
 9027 2bf1 86110000 		.4byte	.LASF373
 9028 2bf5 86110000 		.4byte	.LASF373
 9029 2bf9 0D       		.byte	0xd
 9030 2bfa F8       		.byte	0xf8
 9031 2bfb 4B       		.uleb128 0x4b
 9032 2bfc 09100000 		.4byte	.LASF374
 9033 2c00 09100000 		.4byte	.LASF374
 9034 2c04 0B       		.byte	0xb
 9035 2c05 98       		.byte	0x98
 9036 2c06 4C       		.uleb128 0x4c
 9037 2c07 9B020000 		.4byte	.LASF375
 9038 2c0b 9B020000 		.4byte	.LASF375
 9039 2c0f 0D       		.byte	0xd
 9040 2c10 0A03     		.2byte	0x30a
 9041 2c12 4C       		.uleb128 0x4c
 9042 2c13 C3120000 		.4byte	.LASF376
 9043 2c17 C3120000 		.4byte	.LASF376
 9044 2c1b 0D       		.byte	0xd
 9045 2c1c F602     		.2byte	0x2f6
 9046 2c1e 4C       		.uleb128 0x4c
 9047 2c1f 30050000 		.4byte	.LASF377
 9048 2c23 30050000 		.4byte	.LASF377
 9049 2c27 0D       		.byte	0xd
 9050 2c28 4004     		.2byte	0x440
 9051 2c2a 4C       		.uleb128 0x4c
 9052 2c2b 98040000 		.4byte	.LASF378
 9053 2c2f 98040000 		.4byte	.LASF378
 9054 2c33 0D       		.byte	0xd
 9055 2c34 9503     		.2byte	0x395
 9056 2c36 4C       		.uleb128 0x4c
 9057 2c37 96170000 		.4byte	.LASF379
 9058 2c3b 96170000 		.4byte	.LASF379
 9059 2c3f 0D       		.byte	0xd
 9060 2c40 B503     		.2byte	0x3b5
 9061 2c42 4B       		.uleb128 0x4b
 9062 2c43 37170000 		.4byte	.LASF380
 9063 2c47 37170000 		.4byte	.LASF380
ARM GAS  C:\Users\Moi\AppData\Local\Temp\ccWeMAis.s 			page 160


 9064 2c4b 0E       		.byte	0xe
 9065 2c4c 2B       		.byte	0x2b
 9066 2c4d 4C       		.uleb128 0x4c
 9067 2c4e 5D090000 		.4byte	.LASF381
 9068 2c52 5D090000 		.4byte	.LASF381
 9069 2c56 0D       		.byte	0xd
 9070 2c57 E406     		.2byte	0x6e4
 9071 2c59 00       		.byte	0
 9072              		.section	.debug_abbrev,"",%progbits
 9073              	.Ldebug_abbrev0:
 9074 0000 01       		.uleb128 0x1
 9075 0001 11       		.uleb128 0x11
 9076 0002 01       		.byte	0x1
 9077 0003 25       		.uleb128 0x25
 9078 0004 0E       		.uleb128 0xe
 9079 0005 13       		.uleb128 0x13
 9080 0006 0B       		.uleb128 0xb
 9081 0007 03       		.uleb128 0x3
 9082 0008 0E       		.uleb128 0xe
 9083 0009 1B       		.uleb128 0x1b
 9084 000a 0E       		.uleb128 0xe
 9085 000b 55       		.uleb128 0x55
 9086 000c 17       		.uleb128 0x17
 9087 000d 11       		.uleb128 0x11
 9088 000e 01       		.uleb128 0x1
 9089 000f 10       		.uleb128 0x10
 9090 0010 17       		.uleb128 0x17
 9091 0011 00       		.byte	0
 9092 0012 00       		.byte	0
 9093 0013 02       		.uleb128 0x2
 9094 0014 24       		.uleb128 0x24
 9095 0015 00       		.byte	0
 9096 0016 0B       		.uleb128 0xb
 9097 0017 0B       		.uleb128 0xb
 9098 0018 3E       		.uleb128 0x3e
 9099 0019 0B       		.uleb128 0xb
 9100 001a 03       		.uleb128 0x3
 9101 001b 0E       		.uleb128 0xe
 9102 001c 00       		.byte	0
 9103 001d 00       		.byte	0
 9104 001e 03       		.uleb128 0x3
 9105 001f 16       		.uleb128 0x16
 9106 0020 00       		.byte	0
 9107 0021 03       		.uleb128 0x3
 9108 0022 0E       		.uleb128 0xe
 9109 0023 3A       		.uleb128 0x3a
 9110 0024 0B       		.uleb128 0xb
 9111 0025 3B       		.uleb128 0x3b
 9112 0026 0B       		.uleb128 0xb
 9113 0027 49       		.uleb128 0x49
 9114 0028 13       		.uleb128 0x13
 9115 0029 00       		.byte	0
 9116 002a 00       		.byte	0
 9117 002b 04       		.uleb128 0x4
 9118 002c 24       		.uleb128 0x24
 9119 002d 00       		.byte	0
 9120 002e 0B       		.uleb128 0xb
ARM GAS  C:\Users\Moi\AppData\Local\Temp\ccWeMAis.s 			page 161


 9121 002f 0B       		.uleb128 0xb
 9122 0030 3E       		.uleb128 0x3e
 9123 0031 0B       		.uleb128 0xb
 9124 0032 03       		.uleb128 0x3
 9125 0033 08       		.uleb128 0x8
 9126 0034 00       		.byte	0
 9127 0035 00       		.byte	0
 9128 0036 05       		.uleb128 0x5
 9129 0037 26       		.uleb128 0x26
 9130 0038 00       		.byte	0
 9131 0039 49       		.uleb128 0x49
 9132 003a 13       		.uleb128 0x13
 9133 003b 00       		.byte	0
 9134 003c 00       		.byte	0
 9135 003d 06       		.uleb128 0x6
 9136 003e 13       		.uleb128 0x13
 9137 003f 01       		.byte	0x1
 9138 0040 0B       		.uleb128 0xb
 9139 0041 0B       		.uleb128 0xb
 9140 0042 3A       		.uleb128 0x3a
 9141 0043 0B       		.uleb128 0xb
 9142 0044 3B       		.uleb128 0x3b
 9143 0045 0B       		.uleb128 0xb
 9144 0046 01       		.uleb128 0x1
 9145 0047 13       		.uleb128 0x13
 9146 0048 00       		.byte	0
 9147 0049 00       		.byte	0
 9148 004a 07       		.uleb128 0x7
 9149 004b 0D       		.uleb128 0xd
 9150 004c 00       		.byte	0
 9151 004d 03       		.uleb128 0x3
 9152 004e 0E       		.uleb128 0xe
 9153 004f 3A       		.uleb128 0x3a
 9154 0050 0B       		.uleb128 0xb
 9155 0051 3B       		.uleb128 0x3b
 9156 0052 0B       		.uleb128 0xb
 9157 0053 49       		.uleb128 0x49
 9158 0054 13       		.uleb128 0x13
 9159 0055 38       		.uleb128 0x38
 9160 0056 0B       		.uleb128 0xb
 9161 0057 00       		.byte	0
 9162 0058 00       		.byte	0
 9163 0059 08       		.uleb128 0x8
 9164 005a 01       		.uleb128 0x1
 9165 005b 01       		.byte	0x1
 9166 005c 49       		.uleb128 0x49
 9167 005d 13       		.uleb128 0x13
 9168 005e 01       		.uleb128 0x1
 9169 005f 13       		.uleb128 0x13
 9170 0060 00       		.byte	0
 9171 0061 00       		.byte	0
 9172 0062 09       		.uleb128 0x9
 9173 0063 21       		.uleb128 0x21
 9174 0064 00       		.byte	0
 9175 0065 49       		.uleb128 0x49
 9176 0066 13       		.uleb128 0x13
 9177 0067 2F       		.uleb128 0x2f
ARM GAS  C:\Users\Moi\AppData\Local\Temp\ccWeMAis.s 			page 162


 9178 0068 0B       		.uleb128 0xb
 9179 0069 00       		.byte	0
 9180 006a 00       		.byte	0
 9181 006b 0A       		.uleb128 0xa
 9182 006c 0D       		.uleb128 0xd
 9183 006d 00       		.byte	0
 9184 006e 03       		.uleb128 0x3
 9185 006f 0E       		.uleb128 0xe
 9186 0070 3A       		.uleb128 0x3a
 9187 0071 0B       		.uleb128 0xb
 9188 0072 3B       		.uleb128 0x3b
 9189 0073 05       		.uleb128 0x5
 9190 0074 49       		.uleb128 0x49
 9191 0075 13       		.uleb128 0x13
 9192 0076 38       		.uleb128 0x38
 9193 0077 0B       		.uleb128 0xb
 9194 0078 00       		.byte	0
 9195 0079 00       		.byte	0
 9196 007a 0B       		.uleb128 0xb
 9197 007b 16       		.uleb128 0x16
 9198 007c 00       		.byte	0
 9199 007d 03       		.uleb128 0x3
 9200 007e 0E       		.uleb128 0xe
 9201 007f 3A       		.uleb128 0x3a
 9202 0080 0B       		.uleb128 0xb
 9203 0081 3B       		.uleb128 0x3b
 9204 0082 05       		.uleb128 0x5
 9205 0083 49       		.uleb128 0x49
 9206 0084 13       		.uleb128 0x13
 9207 0085 00       		.byte	0
 9208 0086 00       		.byte	0
 9209 0087 0C       		.uleb128 0xc
 9210 0088 13       		.uleb128 0x13
 9211 0089 01       		.byte	0x1
 9212 008a 0B       		.uleb128 0xb
 9213 008b 0B       		.uleb128 0xb
 9214 008c 3A       		.uleb128 0x3a
 9215 008d 0B       		.uleb128 0xb
 9216 008e 3B       		.uleb128 0x3b
 9217 008f 05       		.uleb128 0x5
 9218 0090 01       		.uleb128 0x1
 9219 0091 13       		.uleb128 0x13
 9220 0092 00       		.byte	0
 9221 0093 00       		.byte	0
 9222 0094 0D       		.uleb128 0xd
 9223 0095 13       		.uleb128 0x13
 9224 0096 01       		.byte	0x1
 9225 0097 0B       		.uleb128 0xb
 9226 0098 05       		.uleb128 0x5
 9227 0099 3A       		.uleb128 0x3a
 9228 009a 0B       		.uleb128 0xb
 9229 009b 3B       		.uleb128 0x3b
 9230 009c 05       		.uleb128 0x5
 9231 009d 01       		.uleb128 0x1
 9232 009e 13       		.uleb128 0x13
 9233 009f 00       		.byte	0
 9234 00a0 00       		.byte	0
ARM GAS  C:\Users\Moi\AppData\Local\Temp\ccWeMAis.s 			page 163


 9235 00a1 0E       		.uleb128 0xe
 9236 00a2 0D       		.uleb128 0xd
 9237 00a3 00       		.byte	0
 9238 00a4 03       		.uleb128 0x3
 9239 00a5 0E       		.uleb128 0xe
 9240 00a6 3A       		.uleb128 0x3a
 9241 00a7 0B       		.uleb128 0xb
 9242 00a8 3B       		.uleb128 0x3b
 9243 00a9 05       		.uleb128 0x5
 9244 00aa 49       		.uleb128 0x49
 9245 00ab 13       		.uleb128 0x13
 9246 00ac 38       		.uleb128 0x38
 9247 00ad 05       		.uleb128 0x5
 9248 00ae 00       		.byte	0
 9249 00af 00       		.byte	0
 9250 00b0 0F       		.uleb128 0xf
 9251 00b1 0F       		.uleb128 0xf
 9252 00b2 00       		.byte	0
 9253 00b3 0B       		.uleb128 0xb
 9254 00b4 0B       		.uleb128 0xb
 9255 00b5 49       		.uleb128 0x49
 9256 00b6 13       		.uleb128 0x13
 9257 00b7 00       		.byte	0
 9258 00b8 00       		.byte	0
 9259 00b9 10       		.uleb128 0x10
 9260 00ba 0F       		.uleb128 0xf
 9261 00bb 00       		.byte	0
 9262 00bc 0B       		.uleb128 0xb
 9263 00bd 0B       		.uleb128 0xb
 9264 00be 00       		.byte	0
 9265 00bf 00       		.byte	0
 9266 00c0 11       		.uleb128 0x11
 9267 00c1 13       		.uleb128 0x13
 9268 00c2 00       		.byte	0
 9269 00c3 03       		.uleb128 0x3
 9270 00c4 0E       		.uleb128 0xe
 9271 00c5 3C       		.uleb128 0x3c
 9272 00c6 19       		.uleb128 0x19
 9273 00c7 00       		.byte	0
 9274 00c8 00       		.byte	0
 9275 00c9 12       		.uleb128 0x12
 9276 00ca 17       		.uleb128 0x17
 9277 00cb 01       		.byte	0x1
 9278 00cc 0B       		.uleb128 0xb
 9279 00cd 0B       		.uleb128 0xb
 9280 00ce 3A       		.uleb128 0x3a
 9281 00cf 0B       		.uleb128 0xb
 9282 00d0 3B       		.uleb128 0x3b
 9283 00d1 0B       		.uleb128 0xb
 9284 00d2 01       		.uleb128 0x1
 9285 00d3 13       		.uleb128 0x13
 9286 00d4 00       		.byte	0
 9287 00d5 00       		.byte	0
 9288 00d6 13       		.uleb128 0x13
 9289 00d7 0D       		.uleb128 0xd
 9290 00d8 00       		.byte	0
 9291 00d9 03       		.uleb128 0x3
ARM GAS  C:\Users\Moi\AppData\Local\Temp\ccWeMAis.s 			page 164


 9292 00da 0E       		.uleb128 0xe
 9293 00db 3A       		.uleb128 0x3a
 9294 00dc 0B       		.uleb128 0xb
 9295 00dd 3B       		.uleb128 0x3b
 9296 00de 0B       		.uleb128 0xb
 9297 00df 49       		.uleb128 0x49
 9298 00e0 13       		.uleb128 0x13
 9299 00e1 00       		.byte	0
 9300 00e2 00       		.byte	0
 9301 00e3 14       		.uleb128 0x14
 9302 00e4 13       		.uleb128 0x13
 9303 00e5 01       		.byte	0x1
 9304 00e6 03       		.uleb128 0x3
 9305 00e7 0E       		.uleb128 0xe
 9306 00e8 0B       		.uleb128 0xb
 9307 00e9 0B       		.uleb128 0xb
 9308 00ea 3A       		.uleb128 0x3a
 9309 00eb 0B       		.uleb128 0xb
 9310 00ec 3B       		.uleb128 0x3b
 9311 00ed 0B       		.uleb128 0xb
 9312 00ee 01       		.uleb128 0x1
 9313 00ef 13       		.uleb128 0x13
 9314 00f0 00       		.byte	0
 9315 00f1 00       		.byte	0
 9316 00f2 15       		.uleb128 0x15
 9317 00f3 0D       		.uleb128 0xd
 9318 00f4 00       		.byte	0
 9319 00f5 03       		.uleb128 0x3
 9320 00f6 08       		.uleb128 0x8
 9321 00f7 3A       		.uleb128 0x3a
 9322 00f8 0B       		.uleb128 0xb
 9323 00f9 3B       		.uleb128 0x3b
 9324 00fa 0B       		.uleb128 0xb
 9325 00fb 49       		.uleb128 0x49
 9326 00fc 13       		.uleb128 0x13
 9327 00fd 38       		.uleb128 0x38
 9328 00fe 0B       		.uleb128 0xb
 9329 00ff 00       		.byte	0
 9330 0100 00       		.byte	0
 9331 0101 16       		.uleb128 0x16
 9332 0102 13       		.uleb128 0x13
 9333 0103 01       		.byte	0x1
 9334 0104 03       		.uleb128 0x3
 9335 0105 0E       		.uleb128 0xe
 9336 0106 0B       		.uleb128 0xb
 9337 0107 05       		.uleb128 0x5
 9338 0108 3A       		.uleb128 0x3a
 9339 0109 0B       		.uleb128 0xb
 9340 010a 3B       		.uleb128 0x3b
 9341 010b 0B       		.uleb128 0xb
 9342 010c 01       		.uleb128 0x1
 9343 010d 13       		.uleb128 0x13
 9344 010e 00       		.byte	0
 9345 010f 00       		.byte	0
 9346 0110 17       		.uleb128 0x17
 9347 0111 0D       		.uleb128 0xd
 9348 0112 00       		.byte	0
ARM GAS  C:\Users\Moi\AppData\Local\Temp\ccWeMAis.s 			page 165


 9349 0113 03       		.uleb128 0x3
 9350 0114 0E       		.uleb128 0xe
 9351 0115 3A       		.uleb128 0x3a
 9352 0116 0B       		.uleb128 0xb
 9353 0117 3B       		.uleb128 0x3b
 9354 0118 0B       		.uleb128 0xb
 9355 0119 49       		.uleb128 0x49
 9356 011a 13       		.uleb128 0x13
 9357 011b 38       		.uleb128 0x38
 9358 011c 05       		.uleb128 0x5
 9359 011d 00       		.byte	0
 9360 011e 00       		.byte	0
 9361 011f 18       		.uleb128 0x18
 9362 0120 15       		.uleb128 0x15
 9363 0121 00       		.byte	0
 9364 0122 27       		.uleb128 0x27
 9365 0123 19       		.uleb128 0x19
 9366 0124 00       		.byte	0
 9367 0125 00       		.byte	0
 9368 0126 19       		.uleb128 0x19
 9369 0127 15       		.uleb128 0x15
 9370 0128 01       		.byte	0x1
 9371 0129 27       		.uleb128 0x27
 9372 012a 19       		.uleb128 0x19
 9373 012b 49       		.uleb128 0x49
 9374 012c 13       		.uleb128 0x13
 9375 012d 01       		.uleb128 0x1
 9376 012e 13       		.uleb128 0x13
 9377 012f 00       		.byte	0
 9378 0130 00       		.byte	0
 9379 0131 1A       		.uleb128 0x1a
 9380 0132 05       		.uleb128 0x5
 9381 0133 00       		.byte	0
 9382 0134 49       		.uleb128 0x49
 9383 0135 13       		.uleb128 0x13
 9384 0136 00       		.byte	0
 9385 0137 00       		.byte	0
 9386 0138 1B       		.uleb128 0x1b
 9387 0139 13       		.uleb128 0x13
 9388 013a 01       		.byte	0x1
 9389 013b 03       		.uleb128 0x3
 9390 013c 0E       		.uleb128 0xe
 9391 013d 0B       		.uleb128 0xb
 9392 013e 05       		.uleb128 0x5
 9393 013f 3A       		.uleb128 0x3a
 9394 0140 0B       		.uleb128 0xb
 9395 0141 3B       		.uleb128 0x3b
 9396 0142 05       		.uleb128 0x5
 9397 0143 01       		.uleb128 0x1
 9398 0144 13       		.uleb128 0x13
 9399 0145 00       		.byte	0
 9400 0146 00       		.byte	0
 9401 0147 1C       		.uleb128 0x1c
 9402 0148 13       		.uleb128 0x13
 9403 0149 01       		.byte	0x1
 9404 014a 03       		.uleb128 0x3
 9405 014b 0E       		.uleb128 0xe
ARM GAS  C:\Users\Moi\AppData\Local\Temp\ccWeMAis.s 			page 166


 9406 014c 0B       		.uleb128 0xb
 9407 014d 0B       		.uleb128 0xb
 9408 014e 3A       		.uleb128 0x3a
 9409 014f 0B       		.uleb128 0xb
 9410 0150 3B       		.uleb128 0x3b
 9411 0151 05       		.uleb128 0x5
 9412 0152 01       		.uleb128 0x1
 9413 0153 13       		.uleb128 0x13
 9414 0154 00       		.byte	0
 9415 0155 00       		.byte	0
 9416 0156 1D       		.uleb128 0x1d
 9417 0157 17       		.uleb128 0x17
 9418 0158 01       		.byte	0x1
 9419 0159 0B       		.uleb128 0xb
 9420 015a 0B       		.uleb128 0xb
 9421 015b 3A       		.uleb128 0x3a
 9422 015c 0B       		.uleb128 0xb
 9423 015d 3B       		.uleb128 0x3b
 9424 015e 05       		.uleb128 0x5
 9425 015f 01       		.uleb128 0x1
 9426 0160 13       		.uleb128 0x13
 9427 0161 00       		.byte	0
 9428 0162 00       		.byte	0
 9429 0163 1E       		.uleb128 0x1e
 9430 0164 0D       		.uleb128 0xd
 9431 0165 00       		.byte	0
 9432 0166 03       		.uleb128 0x3
 9433 0167 0E       		.uleb128 0xe
 9434 0168 3A       		.uleb128 0x3a
 9435 0169 0B       		.uleb128 0xb
 9436 016a 3B       		.uleb128 0x3b
 9437 016b 05       		.uleb128 0x5
 9438 016c 49       		.uleb128 0x49
 9439 016d 13       		.uleb128 0x13
 9440 016e 00       		.byte	0
 9441 016f 00       		.byte	0
 9442 0170 1F       		.uleb128 0x1f
 9443 0171 15       		.uleb128 0x15
 9444 0172 01       		.byte	0x1
 9445 0173 27       		.uleb128 0x27
 9446 0174 19       		.uleb128 0x19
 9447 0175 01       		.uleb128 0x1
 9448 0176 13       		.uleb128 0x13
 9449 0177 00       		.byte	0
 9450 0178 00       		.byte	0
 9451 0179 20       		.uleb128 0x20
 9452 017a 34       		.uleb128 0x34
 9453 017b 00       		.byte	0
 9454 017c 03       		.uleb128 0x3
 9455 017d 0E       		.uleb128 0xe
 9456 017e 3A       		.uleb128 0x3a
 9457 017f 0B       		.uleb128 0xb
 9458 0180 3B       		.uleb128 0x3b
 9459 0181 05       		.uleb128 0x5
 9460 0182 49       		.uleb128 0x49
 9461 0183 13       		.uleb128 0x13
 9462 0184 3F       		.uleb128 0x3f
ARM GAS  C:\Users\Moi\AppData\Local\Temp\ccWeMAis.s 			page 167


 9463 0185 19       		.uleb128 0x19
 9464 0186 3C       		.uleb128 0x3c
 9465 0187 19       		.uleb128 0x19
 9466 0188 00       		.byte	0
 9467 0189 00       		.byte	0
 9468 018a 21       		.uleb128 0x21
 9469 018b 13       		.uleb128 0x13
 9470 018c 01       		.byte	0x1
 9471 018d 0B       		.uleb128 0xb
 9472 018e 05       		.uleb128 0x5
 9473 018f 3A       		.uleb128 0x3a
 9474 0190 0B       		.uleb128 0xb
 9475 0191 3B       		.uleb128 0x3b
 9476 0192 0B       		.uleb128 0xb
 9477 0193 01       		.uleb128 0x1
 9478 0194 13       		.uleb128 0x13
 9479 0195 00       		.byte	0
 9480 0196 00       		.byte	0
 9481 0197 22       		.uleb128 0x22
 9482 0198 34       		.uleb128 0x34
 9483 0199 00       		.byte	0
 9484 019a 03       		.uleb128 0x3
 9485 019b 0E       		.uleb128 0xe
 9486 019c 3A       		.uleb128 0x3a
 9487 019d 0B       		.uleb128 0xb
 9488 019e 3B       		.uleb128 0x3b
 9489 019f 0B       		.uleb128 0xb
 9490 01a0 49       		.uleb128 0x49
 9491 01a1 13       		.uleb128 0x13
 9492 01a2 3F       		.uleb128 0x3f
 9493 01a3 19       		.uleb128 0x19
 9494 01a4 3C       		.uleb128 0x3c
 9495 01a5 19       		.uleb128 0x19
 9496 01a6 00       		.byte	0
 9497 01a7 00       		.byte	0
 9498 01a8 23       		.uleb128 0x23
 9499 01a9 34       		.uleb128 0x34
 9500 01aa 00       		.byte	0
 9501 01ab 03       		.uleb128 0x3
 9502 01ac 0E       		.uleb128 0xe
 9503 01ad 3A       		.uleb128 0x3a
 9504 01ae 0B       		.uleb128 0xb
 9505 01af 3B       		.uleb128 0x3b
 9506 01b0 0B       		.uleb128 0xb
 9507 01b1 49       		.uleb128 0x49
 9508 01b2 13       		.uleb128 0x13
 9509 01b3 3F       		.uleb128 0x3f
 9510 01b4 19       		.uleb128 0x19
 9511 01b5 02       		.uleb128 0x2
 9512 01b6 18       		.uleb128 0x18
 9513 01b7 00       		.byte	0
 9514 01b8 00       		.byte	0
 9515 01b9 24       		.uleb128 0x24
 9516 01ba 2E       		.uleb128 0x2e
 9517 01bb 01       		.byte	0x1
 9518 01bc 3F       		.uleb128 0x3f
 9519 01bd 19       		.uleb128 0x19
ARM GAS  C:\Users\Moi\AppData\Local\Temp\ccWeMAis.s 			page 168


 9520 01be 03       		.uleb128 0x3
 9521 01bf 0E       		.uleb128 0xe
 9522 01c0 3A       		.uleb128 0x3a
 9523 01c1 0B       		.uleb128 0xb
 9524 01c2 3B       		.uleb128 0x3b
 9525 01c3 05       		.uleb128 0x5
 9526 01c4 27       		.uleb128 0x27
 9527 01c5 19       		.uleb128 0x19
 9528 01c6 49       		.uleb128 0x49
 9529 01c7 13       		.uleb128 0x13
 9530 01c8 11       		.uleb128 0x11
 9531 01c9 01       		.uleb128 0x1
 9532 01ca 12       		.uleb128 0x12
 9533 01cb 06       		.uleb128 0x6
 9534 01cc 40       		.uleb128 0x40
 9535 01cd 18       		.uleb128 0x18
 9536 01ce 9742     		.uleb128 0x2117
 9537 01d0 19       		.uleb128 0x19
 9538 01d1 01       		.uleb128 0x1
 9539 01d2 13       		.uleb128 0x13
 9540 01d3 00       		.byte	0
 9541 01d4 00       		.byte	0
 9542 01d5 25       		.uleb128 0x25
 9543 01d6 05       		.uleb128 0x5
 9544 01d7 00       		.byte	0
 9545 01d8 03       		.uleb128 0x3
 9546 01d9 08       		.uleb128 0x8
 9547 01da 3A       		.uleb128 0x3a
 9548 01db 0B       		.uleb128 0xb
 9549 01dc 3B       		.uleb128 0x3b
 9550 01dd 05       		.uleb128 0x5
 9551 01de 49       		.uleb128 0x49
 9552 01df 13       		.uleb128 0x13
 9553 01e0 02       		.uleb128 0x2
 9554 01e1 17       		.uleb128 0x17
 9555 01e2 00       		.byte	0
 9556 01e3 00       		.byte	0
 9557 01e4 26       		.uleb128 0x26
 9558 01e5 05       		.uleb128 0x5
 9559 01e6 00       		.byte	0
 9560 01e7 03       		.uleb128 0x3
 9561 01e8 0E       		.uleb128 0xe
 9562 01e9 3A       		.uleb128 0x3a
 9563 01ea 0B       		.uleb128 0xb
 9564 01eb 3B       		.uleb128 0x3b
 9565 01ec 05       		.uleb128 0x5
 9566 01ed 49       		.uleb128 0x49
 9567 01ee 13       		.uleb128 0x13
 9568 01ef 02       		.uleb128 0x2
 9569 01f0 17       		.uleb128 0x17
 9570 01f1 00       		.byte	0
 9571 01f2 00       		.byte	0
 9572 01f3 27       		.uleb128 0x27
 9573 01f4 34       		.uleb128 0x34
 9574 01f5 00       		.byte	0
 9575 01f6 03       		.uleb128 0x3
 9576 01f7 0E       		.uleb128 0xe
ARM GAS  C:\Users\Moi\AppData\Local\Temp\ccWeMAis.s 			page 169


 9577 01f8 3A       		.uleb128 0x3a
 9578 01f9 0B       		.uleb128 0xb
 9579 01fa 3B       		.uleb128 0x3b
 9580 01fb 05       		.uleb128 0x5
 9581 01fc 49       		.uleb128 0x49
 9582 01fd 13       		.uleb128 0x13
 9583 01fe 02       		.uleb128 0x2
 9584 01ff 17       		.uleb128 0x17
 9585 0200 00       		.byte	0
 9586 0201 00       		.byte	0
 9587 0202 28       		.uleb128 0x28
 9588 0203 34       		.uleb128 0x34
 9589 0204 00       		.byte	0
 9590 0205 03       		.uleb128 0x3
 9591 0206 0E       		.uleb128 0xe
 9592 0207 3A       		.uleb128 0x3a
 9593 0208 0B       		.uleb128 0xb
 9594 0209 3B       		.uleb128 0x3b
 9595 020a 05       		.uleb128 0x5
 9596 020b 49       		.uleb128 0x49
 9597 020c 13       		.uleb128 0x13
 9598 020d 1C       		.uleb128 0x1c
 9599 020e 0B       		.uleb128 0xb
 9600 020f 00       		.byte	0
 9601 0210 00       		.byte	0
 9602 0211 29       		.uleb128 0x29
 9603 0212 898201   		.uleb128 0x4109
 9604 0215 01       		.byte	0x1
 9605 0216 11       		.uleb128 0x11
 9606 0217 01       		.uleb128 0x1
 9607 0218 31       		.uleb128 0x31
 9608 0219 13       		.uleb128 0x13
 9609 021a 01       		.uleb128 0x1
 9610 021b 13       		.uleb128 0x13
 9611 021c 00       		.byte	0
 9612 021d 00       		.byte	0
 9613 021e 2A       		.uleb128 0x2a
 9614 021f 8A8201   		.uleb128 0x410a
 9615 0222 00       		.byte	0
 9616 0223 02       		.uleb128 0x2
 9617 0224 18       		.uleb128 0x18
 9618 0225 9142     		.uleb128 0x2111
 9619 0227 18       		.uleb128 0x18
 9620 0228 00       		.byte	0
 9621 0229 00       		.byte	0
 9622 022a 2B       		.uleb128 0x2b
 9623 022b 898201   		.uleb128 0x4109
 9624 022e 00       		.byte	0
 9625 022f 11       		.uleb128 0x11
 9626 0230 01       		.uleb128 0x1
 9627 0231 31       		.uleb128 0x31
 9628 0232 13       		.uleb128 0x13
 9629 0233 00       		.byte	0
 9630 0234 00       		.byte	0
 9631 0235 2C       		.uleb128 0x2c
 9632 0236 34       		.uleb128 0x34
 9633 0237 00       		.byte	0
ARM GAS  C:\Users\Moi\AppData\Local\Temp\ccWeMAis.s 			page 170


 9634 0238 03       		.uleb128 0x3
 9635 0239 0E       		.uleb128 0xe
 9636 023a 3A       		.uleb128 0x3a
 9637 023b 0B       		.uleb128 0xb
 9638 023c 3B       		.uleb128 0x3b
 9639 023d 05       		.uleb128 0x5
 9640 023e 49       		.uleb128 0x49
 9641 023f 13       		.uleb128 0x13
 9642 0240 02       		.uleb128 0x2
 9643 0241 18       		.uleb128 0x18
 9644 0242 00       		.byte	0
 9645 0243 00       		.byte	0
 9646 0244 2D       		.uleb128 0x2d
 9647 0245 2E       		.uleb128 0x2e
 9648 0246 01       		.byte	0x1
 9649 0247 3F       		.uleb128 0x3f
 9650 0248 19       		.uleb128 0x19
 9651 0249 03       		.uleb128 0x3
 9652 024a 0E       		.uleb128 0xe
 9653 024b 3A       		.uleb128 0x3a
 9654 024c 0B       		.uleb128 0xb
 9655 024d 3B       		.uleb128 0x3b
 9656 024e 05       		.uleb128 0x5
 9657 024f 27       		.uleb128 0x27
 9658 0250 19       		.uleb128 0x19
 9659 0251 49       		.uleb128 0x49
 9660 0252 13       		.uleb128 0x13
 9661 0253 20       		.uleb128 0x20
 9662 0254 0B       		.uleb128 0xb
 9663 0255 01       		.uleb128 0x1
 9664 0256 13       		.uleb128 0x13
 9665 0257 00       		.byte	0
 9666 0258 00       		.byte	0
 9667 0259 2E       		.uleb128 0x2e
 9668 025a 05       		.uleb128 0x5
 9669 025b 00       		.byte	0
 9670 025c 03       		.uleb128 0x3
 9671 025d 08       		.uleb128 0x8
 9672 025e 3A       		.uleb128 0x3a
 9673 025f 0B       		.uleb128 0xb
 9674 0260 3B       		.uleb128 0x3b
 9675 0261 05       		.uleb128 0x5
 9676 0262 49       		.uleb128 0x49
 9677 0263 13       		.uleb128 0x13
 9678 0264 00       		.byte	0
 9679 0265 00       		.byte	0
 9680 0266 2F       		.uleb128 0x2f
 9681 0267 05       		.uleb128 0x5
 9682 0268 00       		.byte	0
 9683 0269 03       		.uleb128 0x3
 9684 026a 0E       		.uleb128 0xe
 9685 026b 3A       		.uleb128 0x3a
 9686 026c 0B       		.uleb128 0xb
 9687 026d 3B       		.uleb128 0x3b
 9688 026e 05       		.uleb128 0x5
 9689 026f 49       		.uleb128 0x49
 9690 0270 13       		.uleb128 0x13
ARM GAS  C:\Users\Moi\AppData\Local\Temp\ccWeMAis.s 			page 171


 9691 0271 00       		.byte	0
 9692 0272 00       		.byte	0
 9693 0273 30       		.uleb128 0x30
 9694 0274 34       		.uleb128 0x34
 9695 0275 00       		.byte	0
 9696 0276 03       		.uleb128 0x3
 9697 0277 0E       		.uleb128 0xe
 9698 0278 3A       		.uleb128 0x3a
 9699 0279 0B       		.uleb128 0xb
 9700 027a 3B       		.uleb128 0x3b
 9701 027b 05       		.uleb128 0x5
 9702 027c 49       		.uleb128 0x49
 9703 027d 13       		.uleb128 0x13
 9704 027e 00       		.byte	0
 9705 027f 00       		.byte	0
 9706 0280 31       		.uleb128 0x31
 9707 0281 1D       		.uleb128 0x1d
 9708 0282 01       		.byte	0x1
 9709 0283 31       		.uleb128 0x31
 9710 0284 13       		.uleb128 0x13
 9711 0285 11       		.uleb128 0x11
 9712 0286 01       		.uleb128 0x1
 9713 0287 12       		.uleb128 0x12
 9714 0288 06       		.uleb128 0x6
 9715 0289 58       		.uleb128 0x58
 9716 028a 0B       		.uleb128 0xb
 9717 028b 59       		.uleb128 0x59
 9718 028c 05       		.uleb128 0x5
 9719 028d 01       		.uleb128 0x1
 9720 028e 13       		.uleb128 0x13
 9721 028f 00       		.byte	0
 9722 0290 00       		.byte	0
 9723 0291 32       		.uleb128 0x32
 9724 0292 05       		.uleb128 0x5
 9725 0293 00       		.byte	0
 9726 0294 31       		.uleb128 0x31
 9727 0295 13       		.uleb128 0x13
 9728 0296 02       		.uleb128 0x2
 9729 0297 17       		.uleb128 0x17
 9730 0298 00       		.byte	0
 9731 0299 00       		.byte	0
 9732 029a 33       		.uleb128 0x33
 9733 029b 0B       		.uleb128 0xb
 9734 029c 01       		.byte	0x1
 9735 029d 11       		.uleb128 0x11
 9736 029e 01       		.uleb128 0x1
 9737 029f 12       		.uleb128 0x12
 9738 02a0 06       		.uleb128 0x6
 9739 02a1 00       		.byte	0
 9740 02a2 00       		.byte	0
 9741 02a3 34       		.uleb128 0x34
 9742 02a4 34       		.uleb128 0x34
 9743 02a5 00       		.byte	0
 9744 02a6 31       		.uleb128 0x31
 9745 02a7 13       		.uleb128 0x13
 9746 02a8 02       		.uleb128 0x2
 9747 02a9 18       		.uleb128 0x18
ARM GAS  C:\Users\Moi\AppData\Local\Temp\ccWeMAis.s 			page 172


 9748 02aa 00       		.byte	0
 9749 02ab 00       		.byte	0
 9750 02ac 35       		.uleb128 0x35
 9751 02ad 898201   		.uleb128 0x4109
 9752 02b0 01       		.byte	0x1
 9753 02b1 11       		.uleb128 0x11
 9754 02b2 01       		.uleb128 0x1
 9755 02b3 31       		.uleb128 0x31
 9756 02b4 13       		.uleb128 0x13
 9757 02b5 00       		.byte	0
 9758 02b6 00       		.byte	0
 9759 02b7 36       		.uleb128 0x36
 9760 02b8 34       		.uleb128 0x34
 9761 02b9 00       		.byte	0
 9762 02ba 03       		.uleb128 0x3
 9763 02bb 0E       		.uleb128 0xe
 9764 02bc 3A       		.uleb128 0x3a
 9765 02bd 0B       		.uleb128 0xb
 9766 02be 3B       		.uleb128 0x3b
 9767 02bf 05       		.uleb128 0x5
 9768 02c0 49       		.uleb128 0x49
 9769 02c1 13       		.uleb128 0x13
 9770 02c2 1C       		.uleb128 0x1c
 9771 02c3 0D       		.uleb128 0xd
 9772 02c4 00       		.byte	0
 9773 02c5 00       		.byte	0
 9774 02c6 37       		.uleb128 0x37
 9775 02c7 1D       		.uleb128 0x1d
 9776 02c8 01       		.byte	0x1
 9777 02c9 31       		.uleb128 0x31
 9778 02ca 13       		.uleb128 0x13
 9779 02cb 52       		.uleb128 0x52
 9780 02cc 01       		.uleb128 0x1
 9781 02cd 55       		.uleb128 0x55
 9782 02ce 17       		.uleb128 0x17
 9783 02cf 58       		.uleb128 0x58
 9784 02d0 0B       		.uleb128 0xb
 9785 02d1 59       		.uleb128 0x59
 9786 02d2 05       		.uleb128 0x5
 9787 02d3 01       		.uleb128 0x1
 9788 02d4 13       		.uleb128 0x13
 9789 02d5 00       		.byte	0
 9790 02d6 00       		.byte	0
 9791 02d7 38       		.uleb128 0x38
 9792 02d8 0B       		.uleb128 0xb
 9793 02d9 01       		.byte	0x1
 9794 02da 55       		.uleb128 0x55
 9795 02db 17       		.uleb128 0x17
 9796 02dc 00       		.byte	0
 9797 02dd 00       		.byte	0
 9798 02de 39       		.uleb128 0x39
 9799 02df 34       		.uleb128 0x34
 9800 02e0 00       		.byte	0
 9801 02e1 31       		.uleb128 0x31
 9802 02e2 13       		.uleb128 0x13
 9803 02e3 02       		.uleb128 0x2
 9804 02e4 17       		.uleb128 0x17
ARM GAS  C:\Users\Moi\AppData\Local\Temp\ccWeMAis.s 			page 173


 9805 02e5 00       		.byte	0
 9806 02e6 00       		.byte	0
 9807 02e7 3A       		.uleb128 0x3a
 9808 02e8 05       		.uleb128 0x5
 9809 02e9 00       		.byte	0
 9810 02ea 31       		.uleb128 0x31
 9811 02eb 13       		.uleb128 0x13
 9812 02ec 00       		.byte	0
 9813 02ed 00       		.byte	0
 9814 02ee 3B       		.uleb128 0x3b
 9815 02ef 34       		.uleb128 0x34
 9816 02f0 00       		.byte	0
 9817 02f1 31       		.uleb128 0x31
 9818 02f2 13       		.uleb128 0x13
 9819 02f3 00       		.byte	0
 9820 02f4 00       		.byte	0
 9821 02f5 3C       		.uleb128 0x3c
 9822 02f6 34       		.uleb128 0x34
 9823 02f7 00       		.byte	0
 9824 02f8 03       		.uleb128 0x3
 9825 02f9 08       		.uleb128 0x8
 9826 02fa 3A       		.uleb128 0x3a
 9827 02fb 0B       		.uleb128 0xb
 9828 02fc 3B       		.uleb128 0x3b
 9829 02fd 05       		.uleb128 0x5
 9830 02fe 49       		.uleb128 0x49
 9831 02ff 13       		.uleb128 0x13
 9832 0300 02       		.uleb128 0x2
 9833 0301 17       		.uleb128 0x17
 9834 0302 00       		.byte	0
 9835 0303 00       		.byte	0
 9836 0304 3D       		.uleb128 0x3d
 9837 0305 2E       		.uleb128 0x2e
 9838 0306 01       		.byte	0x1
 9839 0307 3F       		.uleb128 0x3f
 9840 0308 19       		.uleb128 0x19
 9841 0309 03       		.uleb128 0x3
 9842 030a 0E       		.uleb128 0xe
 9843 030b 3A       		.uleb128 0x3a
 9844 030c 0B       		.uleb128 0xb
 9845 030d 3B       		.uleb128 0x3b
 9846 030e 05       		.uleb128 0x5
 9847 030f 27       		.uleb128 0x27
 9848 0310 19       		.uleb128 0x19
 9849 0311 11       		.uleb128 0x11
 9850 0312 01       		.uleb128 0x1
 9851 0313 12       		.uleb128 0x12
 9852 0314 06       		.uleb128 0x6
 9853 0315 40       		.uleb128 0x40
 9854 0316 18       		.uleb128 0x18
 9855 0317 9742     		.uleb128 0x2117
 9856 0319 19       		.uleb128 0x19
 9857 031a 01       		.uleb128 0x1
 9858 031b 13       		.uleb128 0x13
 9859 031c 00       		.byte	0
 9860 031d 00       		.byte	0
 9861 031e 3E       		.uleb128 0x3e
ARM GAS  C:\Users\Moi\AppData\Local\Temp\ccWeMAis.s 			page 174


 9862 031f 34       		.uleb128 0x34
 9863 0320 00       		.byte	0
 9864 0321 03       		.uleb128 0x3
 9865 0322 0E       		.uleb128 0xe
 9866 0323 3A       		.uleb128 0x3a
 9867 0324 0B       		.uleb128 0xb
 9868 0325 3B       		.uleb128 0x3b
 9869 0326 05       		.uleb128 0x5
 9870 0327 49       		.uleb128 0x49
 9871 0328 13       		.uleb128 0x13
 9872 0329 1C       		.uleb128 0x1c
 9873 032a 05       		.uleb128 0x5
 9874 032b 00       		.byte	0
 9875 032c 00       		.byte	0
 9876 032d 3F       		.uleb128 0x3f
 9877 032e 34       		.uleb128 0x34
 9878 032f 00       		.byte	0
 9879 0330 03       		.uleb128 0x3
 9880 0331 0E       		.uleb128 0xe
 9881 0332 3A       		.uleb128 0x3a
 9882 0333 0B       		.uleb128 0xb
 9883 0334 3B       		.uleb128 0x3b
 9884 0335 05       		.uleb128 0x5
 9885 0336 49       		.uleb128 0x49
 9886 0337 13       		.uleb128 0x13
 9887 0338 1C       		.uleb128 0x1c
 9888 0339 06       		.uleb128 0x6
 9889 033a 00       		.byte	0
 9890 033b 00       		.byte	0
 9891 033c 40       		.uleb128 0x40
 9892 033d 898201   		.uleb128 0x4109
 9893 0340 01       		.byte	0x1
 9894 0341 11       		.uleb128 0x11
 9895 0342 01       		.uleb128 0x1
 9896 0343 9542     		.uleb128 0x2115
 9897 0345 19       		.uleb128 0x19
 9898 0346 31       		.uleb128 0x31
 9899 0347 13       		.uleb128 0x13
 9900 0348 01       		.uleb128 0x1
 9901 0349 13       		.uleb128 0x13
 9902 034a 00       		.byte	0
 9903 034b 00       		.byte	0
 9904 034c 41       		.uleb128 0x41
 9905 034d 2E       		.uleb128 0x2e
 9906 034e 01       		.byte	0x1
 9907 034f 3F       		.uleb128 0x3f
 9908 0350 19       		.uleb128 0x19
 9909 0351 03       		.uleb128 0x3
 9910 0352 0E       		.uleb128 0xe
 9911 0353 3A       		.uleb128 0x3a
 9912 0354 0B       		.uleb128 0xb
 9913 0355 3B       		.uleb128 0x3b
 9914 0356 0B       		.uleb128 0xb
 9915 0357 27       		.uleb128 0x27
 9916 0358 19       		.uleb128 0x19
 9917 0359 49       		.uleb128 0x49
 9918 035a 13       		.uleb128 0x13
ARM GAS  C:\Users\Moi\AppData\Local\Temp\ccWeMAis.s 			page 175


 9919 035b 11       		.uleb128 0x11
 9920 035c 01       		.uleb128 0x1
 9921 035d 12       		.uleb128 0x12
 9922 035e 06       		.uleb128 0x6
 9923 035f 40       		.uleb128 0x40
 9924 0360 18       		.uleb128 0x18
 9925 0361 9742     		.uleb128 0x2117
 9926 0363 19       		.uleb128 0x19
 9927 0364 01       		.uleb128 0x1
 9928 0365 13       		.uleb128 0x13
 9929 0366 00       		.byte	0
 9930 0367 00       		.byte	0
 9931 0368 42       		.uleb128 0x42
 9932 0369 05       		.uleb128 0x5
 9933 036a 00       		.byte	0
 9934 036b 03       		.uleb128 0x3
 9935 036c 08       		.uleb128 0x8
 9936 036d 3A       		.uleb128 0x3a
 9937 036e 0B       		.uleb128 0xb
 9938 036f 3B       		.uleb128 0x3b
 9939 0370 0B       		.uleb128 0xb
 9940 0371 49       		.uleb128 0x49
 9941 0372 13       		.uleb128 0x13
 9942 0373 02       		.uleb128 0x2
 9943 0374 17       		.uleb128 0x17
 9944 0375 00       		.byte	0
 9945 0376 00       		.byte	0
 9946 0377 43       		.uleb128 0x43
 9947 0378 05       		.uleb128 0x5
 9948 0379 00       		.byte	0
 9949 037a 03       		.uleb128 0x3
 9950 037b 0E       		.uleb128 0xe
 9951 037c 3A       		.uleb128 0x3a
 9952 037d 0B       		.uleb128 0xb
 9953 037e 3B       		.uleb128 0x3b
 9954 037f 0B       		.uleb128 0xb
 9955 0380 49       		.uleb128 0x49
 9956 0381 13       		.uleb128 0x13
 9957 0382 02       		.uleb128 0x2
 9958 0383 17       		.uleb128 0x17
 9959 0384 00       		.byte	0
 9960 0385 00       		.byte	0
 9961 0386 44       		.uleb128 0x44
 9962 0387 34       		.uleb128 0x34
 9963 0388 00       		.byte	0
 9964 0389 03       		.uleb128 0x3
 9965 038a 0E       		.uleb128 0xe
 9966 038b 3A       		.uleb128 0x3a
 9967 038c 0B       		.uleb128 0xb
 9968 038d 3B       		.uleb128 0x3b
 9969 038e 0B       		.uleb128 0xb
 9970 038f 49       		.uleb128 0x49
 9971 0390 13       		.uleb128 0x13
 9972 0391 02       		.uleb128 0x2
 9973 0392 17       		.uleb128 0x17
 9974 0393 00       		.byte	0
 9975 0394 00       		.byte	0
ARM GAS  C:\Users\Moi\AppData\Local\Temp\ccWeMAis.s 			page 176


 9976 0395 45       		.uleb128 0x45
 9977 0396 34       		.uleb128 0x34
 9978 0397 00       		.byte	0
 9979 0398 03       		.uleb128 0x3
 9980 0399 0E       		.uleb128 0xe
 9981 039a 3A       		.uleb128 0x3a
 9982 039b 0B       		.uleb128 0xb
 9983 039c 3B       		.uleb128 0x3b
 9984 039d 0B       		.uleb128 0xb
 9985 039e 49       		.uleb128 0x49
 9986 039f 13       		.uleb128 0x13
 9987 03a0 02       		.uleb128 0x2
 9988 03a1 18       		.uleb128 0x18
 9989 03a2 00       		.byte	0
 9990 03a3 00       		.byte	0
 9991 03a4 46       		.uleb128 0x46
 9992 03a5 2E       		.uleb128 0x2e
 9993 03a6 01       		.byte	0x1
 9994 03a7 31       		.uleb128 0x31
 9995 03a8 13       		.uleb128 0x13
 9996 03a9 11       		.uleb128 0x11
 9997 03aa 01       		.uleb128 0x1
 9998 03ab 12       		.uleb128 0x12
 9999 03ac 06       		.uleb128 0x6
 10000 03ad 40       		.uleb128 0x40
 10001 03ae 18       		.uleb128 0x18
 10002 03af 9742     		.uleb128 0x2117
 10003 03b1 19       		.uleb128 0x19
 10004 03b2 01       		.uleb128 0x1
 10005 03b3 13       		.uleb128 0x13
 10006 03b4 00       		.byte	0
 10007 03b5 00       		.byte	0
 10008 03b6 47       		.uleb128 0x47
 10009 03b7 34       		.uleb128 0x34
 10010 03b8 00       		.byte	0
 10011 03b9 31       		.uleb128 0x31
 10012 03ba 13       		.uleb128 0x13
 10013 03bb 1C       		.uleb128 0x1c
 10014 03bc 0B       		.uleb128 0xb
 10015 03bd 00       		.byte	0
 10016 03be 00       		.byte	0
 10017 03bf 48       		.uleb128 0x48
 10018 03c0 0B       		.uleb128 0xb
 10019 03c1 01       		.byte	0x1
 10020 03c2 31       		.uleb128 0x31
 10021 03c3 13       		.uleb128 0x13
 10022 03c4 55       		.uleb128 0x55
 10023 03c5 17       		.uleb128 0x17
 10024 03c6 01       		.uleb128 0x1
 10025 03c7 13       		.uleb128 0x13
 10026 03c8 00       		.byte	0
 10027 03c9 00       		.byte	0
 10028 03ca 49       		.uleb128 0x49
 10029 03cb 898201   		.uleb128 0x4109
 10030 03ce 01       		.byte	0x1
 10031 03cf 11       		.uleb128 0x11
 10032 03d0 01       		.uleb128 0x1
ARM GAS  C:\Users\Moi\AppData\Local\Temp\ccWeMAis.s 			page 177


 10033 03d1 9542     		.uleb128 0x2115
 10034 03d3 19       		.uleb128 0x19
 10035 03d4 31       		.uleb128 0x31
 10036 03d5 13       		.uleb128 0x13
 10037 03d6 00       		.byte	0
 10038 03d7 00       		.byte	0
 10039 03d8 4A       		.uleb128 0x4a
 10040 03d9 2E       		.uleb128 0x2e
 10041 03da 00       		.byte	0
 10042 03db 3F       		.uleb128 0x3f
 10043 03dc 19       		.uleb128 0x19
 10044 03dd 3C       		.uleb128 0x3c
 10045 03de 19       		.uleb128 0x19
 10046 03df 6E       		.uleb128 0x6e
 10047 03e0 0E       		.uleb128 0xe
 10048 03e1 03       		.uleb128 0x3
 10049 03e2 0E       		.uleb128 0xe
 10050 03e3 00       		.byte	0
 10051 03e4 00       		.byte	0
 10052 03e5 4B       		.uleb128 0x4b
 10053 03e6 2E       		.uleb128 0x2e
 10054 03e7 00       		.byte	0
 10055 03e8 3F       		.uleb128 0x3f
 10056 03e9 19       		.uleb128 0x19
 10057 03ea 3C       		.uleb128 0x3c
 10058 03eb 19       		.uleb128 0x19
 10059 03ec 6E       		.uleb128 0x6e
 10060 03ed 0E       		.uleb128 0xe
 10061 03ee 03       		.uleb128 0x3
 10062 03ef 0E       		.uleb128 0xe
 10063 03f0 3A       		.uleb128 0x3a
 10064 03f1 0B       		.uleb128 0xb
 10065 03f2 3B       		.uleb128 0x3b
 10066 03f3 0B       		.uleb128 0xb
 10067 03f4 00       		.byte	0
 10068 03f5 00       		.byte	0
 10069 03f6 4C       		.uleb128 0x4c
 10070 03f7 2E       		.uleb128 0x2e
 10071 03f8 00       		.byte	0
 10072 03f9 3F       		.uleb128 0x3f
 10073 03fa 19       		.uleb128 0x19
 10074 03fb 3C       		.uleb128 0x3c
 10075 03fc 19       		.uleb128 0x19
 10076 03fd 6E       		.uleb128 0x6e
 10077 03fe 0E       		.uleb128 0xe
 10078 03ff 03       		.uleb128 0x3
 10079 0400 0E       		.uleb128 0xe
 10080 0401 3A       		.uleb128 0x3a
 10081 0402 0B       		.uleb128 0xb
 10082 0403 3B       		.uleb128 0x3b
 10083 0404 05       		.uleb128 0x5
 10084 0405 00       		.byte	0
 10085 0406 00       		.byte	0
 10086 0407 00       		.byte	0
 10087              		.section	.debug_loc,"",%progbits
 10088              	.Ldebug_loc0:
 10089              	.LLST158:
ARM GAS  C:\Users\Moi\AppData\Local\Temp\ccWeMAis.s 			page 178


 10090 0000 00000000 		.4byte	.LVL425
 10091 0004 1D000000 		.4byte	.LVL429-1
 10092 0008 0100     		.2byte	0x1
 10093 000a 50       		.byte	0x50
 10094 000b 1D000000 		.4byte	.LVL429-1
 10095 000f 34000000 		.4byte	.LFE25
 10096 0013 0400     		.2byte	0x4
 10097 0015 F3       		.byte	0xf3
 10098 0016 01       		.uleb128 0x1
 10099 0017 50       		.byte	0x50
 10100 0018 9F       		.byte	0x9f
 10101 0019 00000000 		.4byte	0
 10102 001d 00000000 		.4byte	0
 10103              	.LLST159:
 10104 0021 00000000 		.4byte	.LVL425
 10105 0025 18000000 		.4byte	.LVL428
 10106 0029 0100     		.2byte	0x1
 10107 002b 51       		.byte	0x51
 10108 002c 18000000 		.4byte	.LVL428
 10109 0030 1D000000 		.4byte	.LVL429-1
 10110 0034 0200     		.2byte	0x2
 10111 0036 7D       		.byte	0x7d
 10112 0037 00       		.sleb128 0
 10113 0038 1D000000 		.4byte	.LVL429-1
 10114 003c 34000000 		.4byte	.LFE25
 10115 0040 0400     		.2byte	0x4
 10116 0042 F3       		.byte	0xf3
 10117 0043 01       		.uleb128 0x1
 10118 0044 51       		.byte	0x51
 10119 0045 9F       		.byte	0x9f
 10120 0046 00000000 		.4byte	0
 10121 004a 00000000 		.4byte	0
 10122              	.LLST160:
 10123 004e 00000000 		.4byte	.LVL425
 10124 0052 0C000000 		.4byte	.LVL426
 10125 0056 0100     		.2byte	0x1
 10126 0058 52       		.byte	0x52
 10127 0059 0C000000 		.4byte	.LVL426
 10128 005d 1D000000 		.4byte	.LVL429-1
 10129 0061 0200     		.2byte	0x2
 10130 0063 91       		.byte	0x91
 10131 0064 5C       		.sleb128 -36
 10132 0065 1D000000 		.4byte	.LVL429-1
 10133 0069 34000000 		.4byte	.LFE25
 10134 006d 0400     		.2byte	0x4
 10135 006f F3       		.byte	0xf3
 10136 0070 01       		.uleb128 0x1
 10137 0071 52       		.byte	0x52
 10138 0072 9F       		.byte	0x9f
 10139 0073 00000000 		.4byte	0
 10140 0077 00000000 		.4byte	0
 10141              	.LLST161:
 10142 007b 12000000 		.4byte	.LVL427
 10143 007f 1E000000 		.4byte	.LVL429
 10144 0083 0200     		.2byte	0x2
 10145 0085 30       		.byte	0x30
 10146 0086 9F       		.byte	0x9f
ARM GAS  C:\Users\Moi\AppData\Local\Temp\ccWeMAis.s 			page 179


 10147 0087 1E000000 		.4byte	.LVL429
 10148 008b 2D000000 		.4byte	.LVL430-1
 10149 008f 0100     		.2byte	0x1
 10150 0091 50       		.byte	0x50
 10151 0092 00000000 		.4byte	0
 10152 0096 00000000 		.4byte	0
 10153              	.LLST154:
 10154 009a 00000000 		.4byte	.LVL419
 10155 009e 25000000 		.4byte	.LVL423-1
 10156 00a2 0100     		.2byte	0x1
 10157 00a4 50       		.byte	0x50
 10158 00a5 25000000 		.4byte	.LVL423-1
 10159 00a9 3C000000 		.4byte	.LFE24
 10160 00ad 0400     		.2byte	0x4
 10161 00af F3       		.byte	0xf3
 10162 00b0 01       		.uleb128 0x1
 10163 00b1 50       		.byte	0x50
 10164 00b2 9F       		.byte	0x9f
 10165 00b3 00000000 		.4byte	0
 10166 00b7 00000000 		.4byte	0
 10167              	.LLST155:
 10168 00bb 00000000 		.4byte	.LVL419
 10169 00bf 0E000000 		.4byte	.LVL421
 10170 00c3 0100     		.2byte	0x1
 10171 00c5 51       		.byte	0x51
 10172 00c6 0E000000 		.4byte	.LVL421
 10173 00ca 3C000000 		.4byte	.LFE24
 10174 00ce 0400     		.2byte	0x4
 10175 00d0 F3       		.byte	0xf3
 10176 00d1 01       		.uleb128 0x1
 10177 00d2 51       		.byte	0x51
 10178 00d3 9F       		.byte	0x9f
 10179 00d4 00000000 		.4byte	0
 10180 00d8 00000000 		.4byte	0
 10181              	.LLST156:
 10182 00dc 00000000 		.4byte	.LVL419
 10183 00e0 0A000000 		.4byte	.LVL420
 10184 00e4 0100     		.2byte	0x1
 10185 00e6 52       		.byte	0x52
 10186 00e7 0A000000 		.4byte	.LVL420
 10187 00eb 3C000000 		.4byte	.LFE24
 10188 00ef 0400     		.2byte	0x4
 10189 00f1 F3       		.byte	0xf3
 10190 00f2 01       		.uleb128 0x1
 10191 00f3 52       		.byte	0x52
 10192 00f4 9F       		.byte	0x9f
 10193 00f5 00000000 		.4byte	0
 10194 00f9 00000000 		.4byte	0
 10195              	.LLST157:
 10196 00fd 22000000 		.4byte	.LVL422
 10197 0101 26000000 		.4byte	.LVL423
 10198 0105 0200     		.2byte	0x2
 10199 0107 30       		.byte	0x30
 10200 0108 9F       		.byte	0x9f
 10201 0109 26000000 		.4byte	.LVL423
 10202 010d 35000000 		.4byte	.LVL424-1
 10203 0111 0100     		.2byte	0x1
ARM GAS  C:\Users\Moi\AppData\Local\Temp\ccWeMAis.s 			page 180


 10204 0113 50       		.byte	0x50
 10205 0114 00000000 		.4byte	0
 10206 0118 00000000 		.4byte	0
 10207              	.LLST127:
 10208 011c 00000000 		.4byte	.LVL335
 10209 0120 1D000000 		.4byte	.LVL339-1
 10210 0124 0100     		.2byte	0x1
 10211 0126 50       		.byte	0x50
 10212 0127 1D000000 		.4byte	.LVL339-1
 10213 012b 5C000000 		.4byte	.LFE23
 10214 012f 0100     		.2byte	0x1
 10215 0131 55       		.byte	0x55
 10216 0132 00000000 		.4byte	0
 10217 0136 00000000 		.4byte	0
 10218              	.LLST128:
 10219 013a 00000000 		.4byte	.LVL335
 10220 013e 1D000000 		.4byte	.LVL339-1
 10221 0142 0100     		.2byte	0x1
 10222 0144 51       		.byte	0x51
 10223 0145 1D000000 		.4byte	.LVL339-1
 10224 0149 5C000000 		.4byte	.LFE23
 10225 014d 0400     		.2byte	0x4
 10226 014f F3       		.byte	0xf3
 10227 0150 01       		.uleb128 0x1
 10228 0151 51       		.byte	0x51
 10229 0152 9F       		.byte	0x9f
 10230 0153 00000000 		.4byte	0
 10231 0157 00000000 		.4byte	0
 10232              	.LLST129:
 10233 015b 00000000 		.4byte	.LVL335
 10234 015f 18000000 		.4byte	.LVL338
 10235 0163 0100     		.2byte	0x1
 10236 0165 52       		.byte	0x52
 10237 0166 18000000 		.4byte	.LVL338
 10238 016a 5C000000 		.4byte	.LFE23
 10239 016e 0100     		.2byte	0x1
 10240 0170 58       		.byte	0x58
 10241 0171 00000000 		.4byte	0
 10242 0175 00000000 		.4byte	0
 10243              	.LLST130:
 10244 0179 00000000 		.4byte	.LVL335
 10245 017d 10000000 		.4byte	.LVL336
 10246 0181 0100     		.2byte	0x1
 10247 0183 53       		.byte	0x53
 10248 0184 10000000 		.4byte	.LVL336
 10249 0188 5C000000 		.4byte	.LFE23
 10250 018c 0400     		.2byte	0x4
 10251 018e F3       		.byte	0xf3
 10252 018f 01       		.uleb128 0x1
 10253 0190 53       		.byte	0x53
 10254 0191 9F       		.byte	0x9f
 10255 0192 00000000 		.4byte	0
 10256 0196 00000000 		.4byte	0
 10257              	.LLST131:
 10258 019a 12000000 		.4byte	.LVL337
 10259 019e 1E000000 		.4byte	.LVL339
 10260 01a2 0200     		.2byte	0x2
ARM GAS  C:\Users\Moi\AppData\Local\Temp\ccWeMAis.s 			page 181


 10261 01a4 30       		.byte	0x30
 10262 01a5 9F       		.byte	0x9f
 10263 01a6 1E000000 		.4byte	.LVL339
 10264 01aa 36000000 		.4byte	.LVL341
 10265 01ae 0100     		.2byte	0x1
 10266 01b0 50       		.byte	0x50
 10267 01b1 3A000000 		.4byte	.LVL342
 10268 01b5 44000000 		.4byte	.LVL343
 10269 01b9 0100     		.2byte	0x1
 10270 01bb 50       		.byte	0x50
 10271 01bc 48000000 		.4byte	.LVL344
 10272 01c0 55000000 		.4byte	.LVL345-1
 10273 01c4 0100     		.2byte	0x1
 10274 01c6 50       		.byte	0x50
 10275 01c7 00000000 		.4byte	0
 10276 01cb 00000000 		.4byte	0
 10277              	.LLST121:
 10278 01cf 00000000 		.4byte	.LVL317
 10279 01d3 20000000 		.4byte	.LVL322
 10280 01d7 0100     		.2byte	0x1
 10281 01d9 50       		.byte	0x50
 10282 01da 20000000 		.4byte	.LVL322
 10283 01de 3E000000 		.4byte	.LVL325
 10284 01e2 0100     		.2byte	0x1
 10285 01e4 55       		.byte	0x55
 10286 01e5 3E000000 		.4byte	.LVL325
 10287 01e9 42000000 		.4byte	.LVL326
 10288 01ed 0100     		.2byte	0x1
 10289 01ef 50       		.byte	0x50
 10290 01f0 42000000 		.4byte	.LVL326
 10291 01f4 A0000000 		.4byte	.LFE22
 10292 01f8 0100     		.2byte	0x1
 10293 01fa 55       		.byte	0x55
 10294 01fb 00000000 		.4byte	0
 10295 01ff 00000000 		.4byte	0
 10296              	.LLST122:
 10297 0203 00000000 		.4byte	.LVL317
 10298 0207 1E000000 		.4byte	.LVL321
 10299 020b 0100     		.2byte	0x1
 10300 020d 51       		.byte	0x51
 10301 020e 1E000000 		.4byte	.LVL321
 10302 0212 3E000000 		.4byte	.LVL325
 10303 0216 0100     		.2byte	0x1
 10304 0218 58       		.byte	0x58
 10305 0219 3E000000 		.4byte	.LVL325
 10306 021d 42000000 		.4byte	.LVL326
 10307 0221 0100     		.2byte	0x1
 10308 0223 51       		.byte	0x51
 10309 0224 42000000 		.4byte	.LVL326
 10310 0228 A0000000 		.4byte	.LFE22
 10311 022c 0100     		.2byte	0x1
 10312 022e 58       		.byte	0x58
 10313 022f 00000000 		.4byte	0
 10314 0233 00000000 		.4byte	0
 10315              	.LLST123:
 10316 0237 00000000 		.4byte	.LVL317
 10317 023b 1C000000 		.4byte	.LVL320
ARM GAS  C:\Users\Moi\AppData\Local\Temp\ccWeMAis.s 			page 182


 10318 023f 0100     		.2byte	0x1
 10319 0241 52       		.byte	0x52
 10320 0242 1C000000 		.4byte	.LVL320
 10321 0246 3E000000 		.4byte	.LVL325
 10322 024a 0400     		.2byte	0x4
 10323 024c F3       		.byte	0xf3
 10324 024d 01       		.uleb128 0x1
 10325 024e 52       		.byte	0x52
 10326 024f 9F       		.byte	0x9f
 10327 0250 3E000000 		.4byte	.LVL325
 10328 0254 42000000 		.4byte	.LVL326
 10329 0258 0100     		.2byte	0x1
 10330 025a 52       		.byte	0x52
 10331 025b 42000000 		.4byte	.LVL326
 10332 025f A0000000 		.4byte	.LFE22
 10333 0263 0400     		.2byte	0x4
 10334 0265 F3       		.byte	0xf3
 10335 0266 01       		.uleb128 0x1
 10336 0267 52       		.byte	0x52
 10337 0268 9F       		.byte	0x9f
 10338 0269 00000000 		.4byte	0
 10339 026d 00000000 		.4byte	0
 10340              	.LLST124:
 10341 0271 00000000 		.4byte	.LVL317
 10342 0275 23000000 		.4byte	.LVL323-1
 10343 0279 0100     		.2byte	0x1
 10344 027b 53       		.byte	0x53
 10345 027c 23000000 		.4byte	.LVL323-1
 10346 0280 3E000000 		.4byte	.LVL325
 10347 0284 0400     		.2byte	0x4
 10348 0286 F3       		.byte	0xf3
 10349 0287 01       		.uleb128 0x1
 10350 0288 53       		.byte	0x53
 10351 0289 9F       		.byte	0x9f
 10352 028a 3E000000 		.4byte	.LVL325
 10353 028e 42000000 		.4byte	.LVL326
 10354 0292 0100     		.2byte	0x1
 10355 0294 53       		.byte	0x53
 10356 0295 42000000 		.4byte	.LVL326
 10357 0299 A0000000 		.4byte	.LFE22
 10358 029d 0400     		.2byte	0x4
 10359 029f F3       		.byte	0xf3
 10360 02a0 01       		.uleb128 0x1
 10361 02a1 53       		.byte	0x53
 10362 02a2 9F       		.byte	0x9f
 10363 02a3 00000000 		.4byte	0
 10364 02a7 00000000 		.4byte	0
 10365              	.LLST125:
 10366 02ab 0C000000 		.4byte	.LVL318
 10367 02af 24000000 		.4byte	.LVL323
 10368 02b3 0200     		.2byte	0x2
 10369 02b5 30       		.byte	0x30
 10370 02b6 9F       		.byte	0x9f
 10371 02b7 24000000 		.4byte	.LVL323
 10372 02bb 2E000000 		.4byte	.LVL324
 10373 02bf 0100     		.2byte	0x1
 10374 02c1 50       		.byte	0x50
ARM GAS  C:\Users\Moi\AppData\Local\Temp\ccWeMAis.s 			page 183


 10375 02c2 2E000000 		.4byte	.LVL324
 10376 02c6 3E000000 		.4byte	.LVL325
 10377 02ca 0100     		.2byte	0x1
 10378 02cc 54       		.byte	0x54
 10379 02cd 3E000000 		.4byte	.LVL325
 10380 02d1 42000000 		.4byte	.LVL326
 10381 02d5 0200     		.2byte	0x2
 10382 02d7 30       		.byte	0x30
 10383 02d8 9F       		.byte	0x9f
 10384 02d9 42000000 		.4byte	.LVL326
 10385 02dd 46000000 		.4byte	.LVL327
 10386 02e1 0100     		.2byte	0x1
 10387 02e3 50       		.byte	0x50
 10388 02e4 4A000000 		.4byte	.LVL328
 10389 02e8 5A000000 		.4byte	.LVL329
 10390 02ec 0100     		.2byte	0x1
 10391 02ee 50       		.byte	0x50
 10392 02ef 68000000 		.4byte	.LVL330
 10393 02f3 8A000000 		.4byte	.LVL331
 10394 02f7 0100     		.2byte	0x1
 10395 02f9 50       		.byte	0x50
 10396 02fa 8E000000 		.4byte	.LVL332
 10397 02fe 96000000 		.4byte	.LVL333
 10398 0302 0100     		.2byte	0x1
 10399 0304 50       		.byte	0x50
 10400 0305 96000000 		.4byte	.LVL333
 10401 0309 A0000000 		.4byte	.LFE22
 10402 030d 0100     		.2byte	0x1
 10403 030f 54       		.byte	0x54
 10404 0310 00000000 		.4byte	0
 10405 0314 00000000 		.4byte	0
 10406              	.LLST126:
 10407 0318 0C000000 		.4byte	.LVL318
 10408 031c 1A000000 		.4byte	.LVL319
 10409 0320 0200     		.2byte	0x2
 10410 0322 30       		.byte	0x30
 10411 0323 9F       		.byte	0x9f
 10412 0324 1A000000 		.4byte	.LVL319
 10413 0328 3E000000 		.4byte	.LVL325
 10414 032c 0100     		.2byte	0x1
 10415 032e 5A       		.byte	0x5a
 10416 032f 3E000000 		.4byte	.LVL325
 10417 0333 42000000 		.4byte	.LVL326
 10418 0337 0200     		.2byte	0x2
 10419 0339 30       		.byte	0x30
 10420 033a 9F       		.byte	0x9f
 10421 033b 42000000 		.4byte	.LVL326
 10422 033f A0000000 		.4byte	.LFE22
 10423 0343 0100     		.2byte	0x1
 10424 0345 5A       		.byte	0x5a
 10425 0346 00000000 		.4byte	0
 10426 034a 00000000 		.4byte	0
 10427              	.LLST115:
 10428 034e 00000000 		.4byte	.LVL296
 10429 0352 29000000 		.4byte	.LVL301-1
 10430 0356 0100     		.2byte	0x1
 10431 0358 50       		.byte	0x50
ARM GAS  C:\Users\Moi\AppData\Local\Temp\ccWeMAis.s 			page 184


 10432 0359 29000000 		.4byte	.LVL301-1
 10433 035d 44000000 		.4byte	.LVL303
 10434 0361 0100     		.2byte	0x1
 10435 0363 55       		.byte	0x55
 10436 0364 44000000 		.4byte	.LVL303
 10437 0368 4A000000 		.4byte	.LVL306
 10438 036c 0100     		.2byte	0x1
 10439 036e 50       		.byte	0x50
 10440 036f 4A000000 		.4byte	.LVL306
 10441 0373 B4000000 		.4byte	.LFE21
 10442 0377 0100     		.2byte	0x1
 10443 0379 55       		.byte	0x55
 10444 037a 00000000 		.4byte	0
 10445 037e 00000000 		.4byte	0
 10446              	.LLST116:
 10447 0382 00000000 		.4byte	.LVL296
 10448 0386 24000000 		.4byte	.LVL300
 10449 038a 0100     		.2byte	0x1
 10450 038c 51       		.byte	0x51
 10451 038d 24000000 		.4byte	.LVL300
 10452 0391 44000000 		.4byte	.LVL303
 10453 0395 0100     		.2byte	0x1
 10454 0397 58       		.byte	0x58
 10455 0398 44000000 		.4byte	.LVL303
 10456 039c 48000000 		.4byte	.LVL305
 10457 03a0 0100     		.2byte	0x1
 10458 03a2 51       		.byte	0x51
 10459 03a3 48000000 		.4byte	.LVL305
 10460 03a7 B4000000 		.4byte	.LFE21
 10461 03ab 0100     		.2byte	0x1
 10462 03ad 58       		.byte	0x58
 10463 03ae 00000000 		.4byte	0
 10464 03b2 00000000 		.4byte	0
 10465              	.LLST117:
 10466 03b6 00000000 		.4byte	.LVL296
 10467 03ba 1E000000 		.4byte	.LVL298
 10468 03be 0100     		.2byte	0x1
 10469 03c0 52       		.byte	0x52
 10470 03c1 1E000000 		.4byte	.LVL298
 10471 03c5 44000000 		.4byte	.LVL303
 10472 03c9 0400     		.2byte	0x4
 10473 03cb F3       		.byte	0xf3
 10474 03cc 01       		.uleb128 0x1
 10475 03cd 52       		.byte	0x52
 10476 03ce 9F       		.byte	0x9f
 10477 03cf 44000000 		.4byte	.LVL303
 10478 03d3 46000000 		.4byte	.LVL304
 10479 03d7 0100     		.2byte	0x1
 10480 03d9 52       		.byte	0x52
 10481 03da 46000000 		.4byte	.LVL304
 10482 03de B4000000 		.4byte	.LFE21
 10483 03e2 0400     		.2byte	0x4
 10484 03e4 F3       		.byte	0xf3
 10485 03e5 01       		.uleb128 0x1
 10486 03e6 52       		.byte	0x52
 10487 03e7 9F       		.byte	0x9f
 10488 03e8 00000000 		.4byte	0
ARM GAS  C:\Users\Moi\AppData\Local\Temp\ccWeMAis.s 			page 185


 10489 03ec 00000000 		.4byte	0
 10490              	.LLST118:
 10491 03f0 00000000 		.4byte	.LVL296
 10492 03f4 29000000 		.4byte	.LVL301-1
 10493 03f8 0100     		.2byte	0x1
 10494 03fa 53       		.byte	0x53
 10495 03fb 29000000 		.4byte	.LVL301-1
 10496 03ff 44000000 		.4byte	.LVL303
 10497 0403 0400     		.2byte	0x4
 10498 0405 F3       		.byte	0xf3
 10499 0406 01       		.uleb128 0x1
 10500 0407 53       		.byte	0x53
 10501 0408 9F       		.byte	0x9f
 10502 0409 44000000 		.4byte	.LVL303
 10503 040d 4F000000 		.4byte	.LVL308-1
 10504 0411 0100     		.2byte	0x1
 10505 0413 53       		.byte	0x53
 10506 0414 4F000000 		.4byte	.LVL308-1
 10507 0418 B4000000 		.4byte	.LFE21
 10508 041c 0400     		.2byte	0x4
 10509 041e F3       		.byte	0xf3
 10510 041f 01       		.uleb128 0x1
 10511 0420 53       		.byte	0x53
 10512 0421 9F       		.byte	0x9f
 10513 0422 00000000 		.4byte	0
 10514 0426 00000000 		.4byte	0
 10515              	.LLST119:
 10516 042a 0C000000 		.4byte	.LVL297
 10517 042e 2A000000 		.4byte	.LVL301
 10518 0432 0200     		.2byte	0x2
 10519 0434 30       		.byte	0x30
 10520 0435 9F       		.byte	0x9f
 10521 0436 2A000000 		.4byte	.LVL301
 10522 043a 34000000 		.4byte	.LVL302
 10523 043e 0100     		.2byte	0x1
 10524 0440 50       		.byte	0x50
 10525 0441 34000000 		.4byte	.LVL302
 10526 0445 44000000 		.4byte	.LVL303
 10527 0449 0100     		.2byte	0x1
 10528 044b 54       		.byte	0x54
 10529 044c 44000000 		.4byte	.LVL303
 10530 0450 50000000 		.4byte	.LVL308
 10531 0454 0200     		.2byte	0x2
 10532 0456 30       		.byte	0x30
 10533 0457 9F       		.byte	0x9f
 10534 0458 50000000 		.4byte	.LVL308
 10535 045c 5A000000 		.4byte	.LVL309
 10536 0460 0100     		.2byte	0x1
 10537 0462 50       		.byte	0x50
 10538 0463 5E000000 		.4byte	.LVL310
 10539 0467 6E000000 		.4byte	.LVL311
 10540 046b 0100     		.2byte	0x1
 10541 046d 50       		.byte	0x50
 10542 046e 7C000000 		.4byte	.LVL312
 10543 0472 9E000000 		.4byte	.LVL313
 10544 0476 0100     		.2byte	0x1
 10545 0478 50       		.byte	0x50
ARM GAS  C:\Users\Moi\AppData\Local\Temp\ccWeMAis.s 			page 186


 10546 0479 A2000000 		.4byte	.LVL314
 10547 047d AA000000 		.4byte	.LVL315
 10548 0481 0100     		.2byte	0x1
 10549 0483 50       		.byte	0x50
 10550 0484 AA000000 		.4byte	.LVL315
 10551 0488 B4000000 		.4byte	.LFE21
 10552 048c 0100     		.2byte	0x1
 10553 048e 54       		.byte	0x54
 10554 048f 00000000 		.4byte	0
 10555 0493 00000000 		.4byte	0
 10556              	.LLST120:
 10557 0497 0C000000 		.4byte	.LVL297
 10558 049b 22000000 		.4byte	.LVL299
 10559 049f 0200     		.2byte	0x2
 10560 04a1 30       		.byte	0x30
 10561 04a2 9F       		.byte	0x9f
 10562 04a3 22000000 		.4byte	.LVL299
 10563 04a7 44000000 		.4byte	.LVL303
 10564 04ab 0100     		.2byte	0x1
 10565 04ad 5A       		.byte	0x5a
 10566 04ae 44000000 		.4byte	.LVL303
 10567 04b2 4C000000 		.4byte	.LVL307
 10568 04b6 0200     		.2byte	0x2
 10569 04b8 30       		.byte	0x30
 10570 04b9 9F       		.byte	0x9f
 10571 04ba 4C000000 		.4byte	.LVL307
 10572 04be B4000000 		.4byte	.LFE21
 10573 04c2 0100     		.2byte	0x1
 10574 04c4 5A       		.byte	0x5a
 10575 04c5 00000000 		.4byte	0
 10576 04c9 00000000 		.4byte	0
 10577              	.LLST106:
 10578 04cd 00000000 		.4byte	.LVL261
 10579 04d1 31000000 		.4byte	.LVL265-1
 10580 04d5 0100     		.2byte	0x1
 10581 04d7 50       		.byte	0x50
 10582 04d8 31000000 		.4byte	.LVL265-1
 10583 04dc 08010000 		.4byte	.LFE20
 10584 04e0 0100     		.2byte	0x1
 10585 04e2 55       		.byte	0x55
 10586 04e3 00000000 		.4byte	0
 10587 04e7 00000000 		.4byte	0
 10588              	.LLST107:
 10589 04eb 00000000 		.4byte	.LVL261
 10590 04ef 18000000 		.4byte	.LVL263
 10591 04f3 0100     		.2byte	0x1
 10592 04f5 51       		.byte	0x51
 10593 04f6 18000000 		.4byte	.LVL263
 10594 04fa 08010000 		.4byte	.LFE20
 10595 04fe 0400     		.2byte	0x4
 10596 0500 F3       		.byte	0xf3
 10597 0501 01       		.uleb128 0x1
 10598 0502 51       		.byte	0x51
 10599 0503 9F       		.byte	0x9f
 10600 0504 00000000 		.4byte	0
 10601 0508 00000000 		.4byte	0
 10602              	.LLST108:
ARM GAS  C:\Users\Moi\AppData\Local\Temp\ccWeMAis.s 			page 187


 10603 050c 00000000 		.4byte	.LVL261
 10604 0510 16000000 		.4byte	.LVL262
 10605 0514 0100     		.2byte	0x1
 10606 0516 52       		.byte	0x52
 10607 0517 16000000 		.4byte	.LVL262
 10608 051b 08010000 		.4byte	.LFE20
 10609 051f 0400     		.2byte	0x4
 10610 0521 F3       		.byte	0xf3
 10611 0522 01       		.uleb128 0x1
 10612 0523 52       		.byte	0x52
 10613 0524 9F       		.byte	0x9f
 10614 0525 00000000 		.4byte	0
 10615 0529 00000000 		.4byte	0
 10616              	.LLST109:
 10617 052d 00000000 		.4byte	.LVL261
 10618 0531 31000000 		.4byte	.LVL265-1
 10619 0535 0100     		.2byte	0x1
 10620 0537 53       		.byte	0x53
 10621 0538 31000000 		.4byte	.LVL265-1
 10622 053c 08010000 		.4byte	.LFE20
 10623 0540 0400     		.2byte	0x4
 10624 0542 F3       		.byte	0xf3
 10625 0543 01       		.uleb128 0x1
 10626 0544 53       		.byte	0x53
 10627 0545 9F       		.byte	0x9f
 10628 0546 00000000 		.4byte	0
 10629 054a 00000000 		.4byte	0
 10630              	.LLST110:
 10631 054e 00000000 		.4byte	.LVL261
 10632 0552 A6000000 		.4byte	.LVL281
 10633 0556 0200     		.2byte	0x2
 10634 0558 91       		.byte	0x91
 10635 0559 00       		.sleb128 0
 10636 055a A6000000 		.4byte	.LVL281
 10637 055e 08010000 		.4byte	.LFE20
 10638 0562 0200     		.2byte	0x2
 10639 0564 91       		.byte	0x91
 10640 0565 00       		.sleb128 0
 10641 0566 00000000 		.4byte	0
 10642 056a 00000000 		.4byte	0
 10643              	.LLST111:
 10644 056e 00000000 		.4byte	.LVL261
 10645 0572 A6000000 		.4byte	.LVL281
 10646 0576 0200     		.2byte	0x2
 10647 0578 91       		.byte	0x91
 10648 0579 04       		.sleb128 4
 10649 057a A6000000 		.4byte	.LVL281
 10650 057e 08010000 		.4byte	.LFE20
 10651 0582 0200     		.2byte	0x2
 10652 0584 91       		.byte	0x91
 10653 0585 04       		.sleb128 4
 10654 0586 00000000 		.4byte	0
 10655 058a 00000000 		.4byte	0
 10656              	.LLST112:
 10657 058e 00000000 		.4byte	.LVL261
 10658 0592 A6000000 		.4byte	.LVL281
 10659 0596 0200     		.2byte	0x2
ARM GAS  C:\Users\Moi\AppData\Local\Temp\ccWeMAis.s 			page 188


 10660 0598 91       		.byte	0x91
 10661 0599 08       		.sleb128 8
 10662 059a A6000000 		.4byte	.LVL281
 10663 059e 08010000 		.4byte	.LFE20
 10664 05a2 0200     		.2byte	0x2
 10665 05a4 91       		.byte	0x91
 10666 05a5 08       		.sleb128 8
 10667 05a6 00000000 		.4byte	0
 10668 05aa 00000000 		.4byte	0
 10669              	.LLST113:
 10670 05ae 00000000 		.4byte	.LVL261
 10671 05b2 A6000000 		.4byte	.LVL281
 10672 05b6 0200     		.2byte	0x2
 10673 05b8 91       		.byte	0x91
 10674 05b9 0C       		.sleb128 12
 10675 05ba A6000000 		.4byte	.LVL281
 10676 05be 08010000 		.4byte	.LFE20
 10677 05c2 0200     		.2byte	0x2
 10678 05c4 91       		.byte	0x91
 10679 05c5 0C       		.sleb128 12
 10680 05c6 00000000 		.4byte	0
 10681 05ca 00000000 		.4byte	0
 10682              	.LLST114:
 10683 05ce 1E000000 		.4byte	.LVL264
 10684 05d2 36000000 		.4byte	.LVL266
 10685 05d6 0200     		.2byte	0x2
 10686 05d8 30       		.byte	0x30
 10687 05d9 9F       		.byte	0x9f
 10688 05da 36000000 		.4byte	.LVL266
 10689 05de 42000000 		.4byte	.LVL268
 10690 05e2 0100     		.2byte	0x1
 10691 05e4 54       		.byte	0x54
 10692 05e5 4C000000 		.4byte	.LVL270
 10693 05e9 4E000000 		.4byte	.LVL271
 10694 05ed 0100     		.2byte	0x1
 10695 05ef 54       		.byte	0x54
 10696 05f0 50000000 		.4byte	.LVL272
 10697 05f4 70000000 		.4byte	.LVL274
 10698 05f8 0100     		.2byte	0x1
 10699 05fa 54       		.byte	0x54
 10700 05fb 7A000000 		.4byte	.LVL276
 10701 05ff 7E000000 		.4byte	.LVL277
 10702 0603 0100     		.2byte	0x1
 10703 0605 54       		.byte	0x54
 10704 0606 98000000 		.4byte	.LVL279
 10705 060a 9A000000 		.4byte	.LVL280
 10706 060e 0600     		.2byte	0x6
 10707 0610 70       		.byte	0x70
 10708 0611 00       		.sleb128 0
 10709 0612 74       		.byte	0x74
 10710 0613 00       		.sleb128 0
 10711 0614 21       		.byte	0x21
 10712 0615 9F       		.byte	0x9f
 10713 0616 A6000000 		.4byte	.LVL281
 10714 061a C0000000 		.4byte	.LVL283
 10715 061e 0100     		.2byte	0x1
 10716 0620 54       		.byte	0x54
ARM GAS  C:\Users\Moi\AppData\Local\Temp\ccWeMAis.s 			page 189


 10717 0621 C2000000 		.4byte	.LVL284
 10718 0625 D0000000 		.4byte	.LVL286
 10719 0629 0100     		.2byte	0x1
 10720 062b 54       		.byte	0x54
 10721 062c D2000000 		.4byte	.LVL287
 10722 0630 E6000000 		.4byte	.LVL289
 10723 0634 0100     		.2byte	0x1
 10724 0636 54       		.byte	0x54
 10725 0637 E8000000 		.4byte	.LVL290
 10726 063b F6000000 		.4byte	.LVL292
 10727 063f 0100     		.2byte	0x1
 10728 0641 54       		.byte	0x54
 10729 0642 F8000000 		.4byte	.LVL293
 10730 0646 00010000 		.4byte	.LVL294
 10731 064a 0100     		.2byte	0x1
 10732 064c 54       		.byte	0x54
 10733 064d 00000000 		.4byte	0
 10734 0651 00000000 		.4byte	0
 10735              	.LLST95:
 10736 0655 00000000 		.4byte	.LVL231
 10737 0659 2B000000 		.4byte	.LVL237-1
 10738 065d 0100     		.2byte	0x1
 10739 065f 50       		.byte	0x50
 10740 0660 2B000000 		.4byte	.LVL237-1
 10741 0664 3C000000 		.4byte	.LVL239
 10742 0668 0100     		.2byte	0x1
 10743 066a 54       		.byte	0x54
 10744 066b 3C000000 		.4byte	.LVL239
 10745 066f 4A000000 		.4byte	.LVL242
 10746 0673 0100     		.2byte	0x1
 10747 0675 50       		.byte	0x50
 10748 0676 4A000000 		.4byte	.LVL242
 10749 067a 88000000 		.4byte	.LFE18
 10750 067e 0100     		.2byte	0x1
 10751 0680 54       		.byte	0x54
 10752 0681 00000000 		.4byte	0
 10753 0685 00000000 		.4byte	0
 10754              	.LLST96:
 10755 0689 00000000 		.4byte	.LVL231
 10756 068d 28000000 		.4byte	.LVL236
 10757 0691 0100     		.2byte	0x1
 10758 0693 51       		.byte	0x51
 10759 0694 28000000 		.4byte	.LVL236
 10760 0698 3C000000 		.4byte	.LVL239
 10761 069c 0100     		.2byte	0x1
 10762 069e 58       		.byte	0x58
 10763 069f 3C000000 		.4byte	.LVL239
 10764 06a3 4C000000 		.4byte	.LVL243
 10765 06a7 0100     		.2byte	0x1
 10766 06a9 51       		.byte	0x51
 10767 06aa 4C000000 		.4byte	.LVL243
 10768 06ae 88000000 		.4byte	.LFE18
 10769 06b2 0100     		.2byte	0x1
 10770 06b4 58       		.byte	0x58
 10771 06b5 00000000 		.4byte	0
 10772 06b9 00000000 		.4byte	0
 10773              	.LLST97:
ARM GAS  C:\Users\Moi\AppData\Local\Temp\ccWeMAis.s 			page 190


 10774 06bd 00000000 		.4byte	.LVL231
 10775 06c1 24000000 		.4byte	.LVL235
 10776 06c5 0100     		.2byte	0x1
 10777 06c7 52       		.byte	0x52
 10778 06c8 24000000 		.4byte	.LVL235
 10779 06cc 3C000000 		.4byte	.LVL239
 10780 06d0 0100     		.2byte	0x1
 10781 06d2 57       		.byte	0x57
 10782 06d3 3C000000 		.4byte	.LVL239
 10783 06d7 40000000 		.4byte	.LVL240
 10784 06db 0100     		.2byte	0x1
 10785 06dd 52       		.byte	0x52
 10786 06de 40000000 		.4byte	.LVL240
 10787 06e2 88000000 		.4byte	.LFE18
 10788 06e6 0100     		.2byte	0x1
 10789 06e8 57       		.byte	0x57
 10790 06e9 00000000 		.4byte	0
 10791 06ed 00000000 		.4byte	0
 10792              	.LLST98:
 10793 06f1 12000000 		.4byte	.LVL232
 10794 06f5 2C000000 		.4byte	.LVL237
 10795 06f9 0200     		.2byte	0x2
 10796 06fb 30       		.byte	0x30
 10797 06fc 9F       		.byte	0x9f
 10798 06fd 2E000000 		.4byte	.LVL238
 10799 0701 3C000000 		.4byte	.LVL239
 10800 0705 0100     		.2byte	0x1
 10801 0707 50       		.byte	0x50
 10802 0708 3C000000 		.4byte	.LVL239
 10803 070c 4C000000 		.4byte	.LVL243
 10804 0710 0200     		.2byte	0x2
 10805 0712 30       		.byte	0x30
 10806 0713 9F       		.byte	0x9f
 10807 0714 5E000000 		.4byte	.LVL244
 10808 0718 81000000 		.4byte	.LVL245-1
 10809 071c 0100     		.2byte	0x1
 10810 071e 50       		.byte	0x50
 10811 071f 00000000 		.4byte	0
 10812 0723 00000000 		.4byte	0
 10813              	.LLST99:
 10814 0727 20000000 		.4byte	.LVL233
 10815 072b 2B000000 		.4byte	.LVL237-1
 10816 072f 0300     		.2byte	0x3
 10817 0731 70       		.byte	0x70
 10818 0732 9502     		.sleb128 277
 10819 0734 2B000000 		.4byte	.LVL237-1
 10820 0738 3C000000 		.4byte	.LVL239
 10821 073c 0100     		.2byte	0x1
 10822 073e 56       		.byte	0x56
 10823 073f 3C000000 		.4byte	.LVL239
 10824 0743 42000000 		.4byte	.LVL241
 10825 0747 0300     		.2byte	0x3
 10826 0749 70       		.byte	0x70
 10827 074a 9502     		.sleb128 277
 10828 074c 42000000 		.4byte	.LVL241
 10829 0750 88000000 		.4byte	.LFE18
 10830 0754 0100     		.2byte	0x1
ARM GAS  C:\Users\Moi\AppData\Local\Temp\ccWeMAis.s 			page 191


 10831 0756 56       		.byte	0x56
 10832 0757 00000000 		.4byte	0
 10833 075b 00000000 		.4byte	0
 10834              	.LLST100:
 10835 075f 22000000 		.4byte	.LVL234
 10836 0763 24000000 		.4byte	.LVL235
 10837 0767 0300     		.2byte	0x3
 10838 0769 91       		.byte	0x91
 10839 076a 5C       		.sleb128 -36
 10840 076b 9F       		.byte	0x9f
 10841 076c 24000000 		.4byte	.LVL235
 10842 0770 2B000000 		.4byte	.LVL237-1
 10843 0774 0100     		.2byte	0x1
 10844 0776 52       		.byte	0x52
 10845 0777 2B000000 		.4byte	.LVL237-1
 10846 077b 2C000000 		.4byte	.LVL237
 10847 077f 0300     		.2byte	0x3
 10848 0781 91       		.byte	0x91
 10849 0782 5C       		.sleb128 -36
 10850 0783 9F       		.byte	0x9f
 10851 0784 00000000 		.4byte	0
 10852 0788 00000000 		.4byte	0
 10853              	.LLST101:
 10854 078c 22000000 		.4byte	.LVL234
 10855 0790 2B000000 		.4byte	.LVL237-1
 10856 0794 0100     		.2byte	0x1
 10857 0796 50       		.byte	0x50
 10858 0797 2B000000 		.4byte	.LVL237-1
 10859 079b 2C000000 		.4byte	.LVL237
 10860 079f 0100     		.2byte	0x1
 10861 07a1 54       		.byte	0x54
 10862 07a2 00000000 		.4byte	0
 10863 07a6 00000000 		.4byte	0
 10864              	.LLST86:
 10865 07aa 00000000 		.4byte	.LVL205
 10866 07ae 17000000 		.4byte	.LVL209-1
 10867 07b2 0100     		.2byte	0x1
 10868 07b4 50       		.byte	0x50
 10869 07b5 17000000 		.4byte	.LVL209-1
 10870 07b9 C8000000 		.4byte	.LFE17
 10871 07bd 0100     		.2byte	0x1
 10872 07bf 54       		.byte	0x54
 10873 07c0 00000000 		.4byte	0
 10874 07c4 00000000 		.4byte	0
 10875              	.LLST87:
 10876 07c8 00000000 		.4byte	.LVL205
 10877 07cc 12000000 		.4byte	.LVL208
 10878 07d0 0100     		.2byte	0x1
 10879 07d2 51       		.byte	0x51
 10880 07d3 12000000 		.4byte	.LVL208
 10881 07d7 C8000000 		.4byte	.LFE17
 10882 07db 0100     		.2byte	0x1
 10883 07dd 57       		.byte	0x57
 10884 07de 00000000 		.4byte	0
 10885 07e2 00000000 		.4byte	0
 10886              	.LLST88:
 10887 07e6 00000000 		.4byte	.LVL205
ARM GAS  C:\Users\Moi\AppData\Local\Temp\ccWeMAis.s 			page 192


 10888 07ea 10000000 		.4byte	.LVL207
 10889 07ee 0100     		.2byte	0x1
 10890 07f0 52       		.byte	0x52
 10891 07f1 10000000 		.4byte	.LVL207
 10892 07f5 C8000000 		.4byte	.LFE17
 10893 07f9 0400     		.2byte	0x4
 10894 07fb F3       		.byte	0xf3
 10895 07fc 01       		.uleb128 0x1
 10896 07fd 52       		.byte	0x52
 10897 07fe 9F       		.byte	0x9f
 10898 07ff 00000000 		.4byte	0
 10899 0803 00000000 		.4byte	0
 10900              	.LLST89:
 10901 0807 0E000000 		.4byte	.LVL206
 10902 080b 18000000 		.4byte	.LVL209
 10903 080f 0200     		.2byte	0x2
 10904 0811 30       		.byte	0x30
 10905 0812 9F       		.byte	0x9f
 10906 0813 18000000 		.4byte	.LVL209
 10907 0817 1A000000 		.4byte	.LVL210
 10908 081b 0100     		.2byte	0x1
 10909 081d 50       		.byte	0x50
 10910 081e 4E000000 		.4byte	.LVL215
 10911 0822 6A000000 		.4byte	.LVL216
 10912 0826 0100     		.2byte	0x1
 10913 0828 50       		.byte	0x50
 10914 0829 84000000 		.4byte	.LVL220
 10915 082d 8A000000 		.4byte	.LVL221
 10916 0831 0100     		.2byte	0x1
 10917 0833 50       		.byte	0x50
 10918 0834 8E000000 		.4byte	.LVL222
 10919 0838 98000000 		.4byte	.LVL223
 10920 083c 0100     		.2byte	0x1
 10921 083e 50       		.byte	0x50
 10922 083f 9C000000 		.4byte	.LVL224
 10923 0843 A6000000 		.4byte	.LVL225
 10924 0847 0100     		.2byte	0x1
 10925 0849 50       		.byte	0x50
 10926 084a AA000000 		.4byte	.LVL226
 10927 084e B4000000 		.4byte	.LVL227
 10928 0852 0100     		.2byte	0x1
 10929 0854 50       		.byte	0x50
 10930 0855 BA000000 		.4byte	.LVL229
 10931 0859 BD000000 		.4byte	.LVL230-1
 10932 085d 0100     		.2byte	0x1
 10933 085f 50       		.byte	0x50
 10934 0860 00000000 		.4byte	0
 10935 0864 00000000 		.4byte	0
 10936              	.LLST90:
 10937 0868 0E000000 		.4byte	.LVL206
 10938 086c 2E000000 		.4byte	.LVL213
 10939 0870 0200     		.2byte	0x2
 10940 0872 30       		.byte	0x30
 10941 0873 9F       		.byte	0x9f
 10942 0874 2E000000 		.4byte	.LVL213
 10943 0878 46000000 		.4byte	.LVL214
 10944 087c 0100     		.2byte	0x1
ARM GAS  C:\Users\Moi\AppData\Local\Temp\ccWeMAis.s 			page 193


 10945 087e 52       		.byte	0x52
 10946 087f 46000000 		.4byte	.LVL214
 10947 0883 4D000000 		.4byte	.LVL215-1
 10948 0887 0200     		.2byte	0x2
 10949 0889 91       		.byte	0x91
 10950 088a 50       		.sleb128 -48
 10951 088b 6A000000 		.4byte	.LVL216
 10952 088f 78000000 		.4byte	.LVL217
 10953 0893 0100     		.2byte	0x1
 10954 0895 52       		.byte	0x52
 10955 0896 78000000 		.4byte	.LVL217
 10956 089a 7A000000 		.4byte	.LVL218
 10957 089e 0100     		.2byte	0x1
 10958 08a0 53       		.byte	0x53
 10959 08a1 7A000000 		.4byte	.LVL218
 10960 08a5 80000000 		.4byte	.LVL219
 10961 08a9 0100     		.2byte	0x1
 10962 08ab 52       		.byte	0x52
 10963 08ac 80000000 		.4byte	.LVL219
 10964 08b0 BA000000 		.4byte	.LVL229
 10965 08b4 0200     		.2byte	0x2
 10966 08b6 30       		.byte	0x30
 10967 08b7 9F       		.byte	0x9f
 10968 08b8 00000000 		.4byte	0
 10969 08bc 00000000 		.4byte	0
 10970              	.LLST91:
 10971 08c0 1A000000 		.4byte	.LVL210
 10972 08c4 24000000 		.4byte	.LVL211
 10973 08c8 0200     		.2byte	0x2
 10974 08ca 35       		.byte	0x35
 10975 08cb 9F       		.byte	0x9f
 10976 08cc 24000000 		.4byte	.LVL211
 10977 08d0 84000000 		.4byte	.LVL220
 10978 08d4 0200     		.2byte	0x2
 10979 08d6 36       		.byte	0x36
 10980 08d7 9F       		.byte	0x9f
 10981 08d8 BA000000 		.4byte	.LVL229
 10982 08dc C8000000 		.4byte	.LFE17
 10983 08e0 0200     		.2byte	0x2
 10984 08e2 36       		.byte	0x36
 10985 08e3 9F       		.byte	0x9f
 10986 08e4 00000000 		.4byte	0
 10987 08e8 00000000 		.4byte	0
 10988              	.LLST92:
 10989 08ec 26000000 		.4byte	.LVL212
 10990 08f0 2E000000 		.4byte	.LVL213
 10991 08f4 0300     		.2byte	0x3
 10992 08f6 08       		.byte	0x8
 10993 08f7 B4       		.byte	0xb4
 10994 08f8 9F       		.byte	0x9f
 10995 08f9 7A000000 		.4byte	.LVL218
 10996 08fd 80000000 		.4byte	.LVL219
 10997 0901 0400     		.2byte	0x4
 10998 0903 73       		.byte	0x73
 10999 0904 B501     		.sleb128 181
 11000 0906 9F       		.byte	0x9f
 11001 0907 00000000 		.4byte	0
ARM GAS  C:\Users\Moi\AppData\Local\Temp\ccWeMAis.s 			page 194


 11002 090b 00000000 		.4byte	0
 11003              	.LLST93:
 11004 090f 26000000 		.4byte	.LVL212
 11005 0913 2E000000 		.4byte	.LVL213
 11006 0917 0200     		.2byte	0x2
 11007 0919 32       		.byte	0x32
 11008 091a 9F       		.byte	0x9f
 11009 091b 7A000000 		.4byte	.LVL218
 11010 091f 80000000 		.4byte	.LVL219
 11011 0923 0600     		.2byte	0x6
 11012 0925 73       		.byte	0x73
 11013 0926 B501     		.sleb128 181
 11014 0928 36       		.byte	0x36
 11015 0929 25       		.byte	0x25
 11016 092a 9F       		.byte	0x9f
 11017 092b 00000000 		.4byte	0
 11018 092f 00000000 		.4byte	0
 11019              	.LLST94:
 11020 0933 26000000 		.4byte	.LVL212
 11021 0937 2E000000 		.4byte	.LVL213
 11022 093b 0200     		.2byte	0x2
 11023 093d 31       		.byte	0x31
 11024 093e 9F       		.byte	0x9f
 11025 093f 7A000000 		.4byte	.LVL218
 11026 0943 80000000 		.4byte	.LVL219
 11027 0947 0200     		.2byte	0x2
 11028 0949 31       		.byte	0x31
 11029 094a 9F       		.byte	0x9f
 11030 094b 00000000 		.4byte	0
 11031 094f 00000000 		.4byte	0
 11032              	.LLST132:
 11033 0953 00000000 		.4byte	.LVL346
 11034 0957 37000000 		.4byte	.LVL352-1
 11035 095b 0100     		.2byte	0x1
 11036 095d 50       		.byte	0x50
 11037 095e 37000000 		.4byte	.LVL352-1
 11038 0962 BC020000 		.4byte	.LFE16
 11039 0966 0100     		.2byte	0x1
 11040 0968 56       		.byte	0x56
 11041 0969 00000000 		.4byte	0
 11042 096d 00000000 		.4byte	0
 11043              	.LLST133:
 11044 0971 00000000 		.4byte	.LVL346
 11045 0975 24000000 		.4byte	.LVL348
 11046 0979 0100     		.2byte	0x1
 11047 097b 51       		.byte	0x51
 11048 097c 24000000 		.4byte	.LVL348
 11049 0980 BC020000 		.4byte	.LFE16
 11050 0984 0300     		.2byte	0x3
 11051 0986 91       		.byte	0x91
 11052 0987 AC7F     		.sleb128 -84
 11053 0989 00000000 		.4byte	0
 11054 098d 00000000 		.4byte	0
 11055              	.LLST134:
 11056 0991 00000000 		.4byte	.LVL346
 11057 0995 22000000 		.4byte	.LVL347
 11058 0999 0100     		.2byte	0x1
ARM GAS  C:\Users\Moi\AppData\Local\Temp\ccWeMAis.s 			page 195


 11059 099b 52       		.byte	0x52
 11060 099c 22000000 		.4byte	.LVL347
 11061 09a0 BC020000 		.4byte	.LFE16
 11062 09a4 0300     		.2byte	0x3
 11063 09a6 91       		.byte	0x91
 11064 09a7 B07F     		.sleb128 -80
 11065 09a9 00000000 		.4byte	0
 11066 09ad 00000000 		.4byte	0
 11067              	.LLST135:
 11068 09b1 28000000 		.4byte	.LVL349
 11069 09b5 38000000 		.4byte	.LVL352
 11070 09b9 0200     		.2byte	0x2
 11071 09bb 30       		.byte	0x30
 11072 09bc 9F       		.byte	0x9f
 11073 09bd 38000000 		.4byte	.LVL352
 11074 09c1 3C000000 		.4byte	.LVL353
 11075 09c5 0100     		.2byte	0x1
 11076 09c7 50       		.byte	0x50
 11077 09c8 50000000 		.4byte	.LVL354
 11078 09cc 56000000 		.4byte	.LVL355
 11079 09d0 0100     		.2byte	0x1
 11080 09d2 50       		.byte	0x50
 11081 09d3 5A000000 		.4byte	.LVL356
 11082 09d7 66000000 		.4byte	.LVL357
 11083 09db 0100     		.2byte	0x1
 11084 09dd 50       		.byte	0x50
 11085 09de 6A000000 		.4byte	.LVL358
 11086 09e2 76000000 		.4byte	.LVL359
 11087 09e6 0100     		.2byte	0x1
 11088 09e8 50       		.byte	0x50
 11089 09e9 7A000000 		.4byte	.LVL360
 11090 09ed 86000000 		.4byte	.LVL361
 11091 09f1 0100     		.2byte	0x1
 11092 09f3 50       		.byte	0x50
 11093 09f4 8A000000 		.4byte	.LVL362
 11094 09f8 96000000 		.4byte	.LVL363
 11095 09fc 0100     		.2byte	0x1
 11096 09fe 50       		.byte	0x50
 11097 09ff 9A000000 		.4byte	.LVL364
 11098 0a03 AA000000 		.4byte	.LVL365
 11099 0a07 0100     		.2byte	0x1
 11100 0a09 50       		.byte	0x50
 11101 0a0a AE000000 		.4byte	.LVL366
 11102 0a0e C2000000 		.4byte	.LVL367
 11103 0a12 0100     		.2byte	0x1
 11104 0a14 50       		.byte	0x50
 11105 0a15 E4000000 		.4byte	.LVL368
 11106 0a19 F0000000 		.4byte	.LVL369
 11107 0a1d 0100     		.2byte	0x1
 11108 0a1f 50       		.byte	0x50
 11109 0a20 F6000000 		.4byte	.LVL371
 11110 0a24 58010000 		.4byte	.LVL379
 11111 0a28 0100     		.2byte	0x1
 11112 0a2a 50       		.byte	0x50
 11113 0a2b 5C010000 		.4byte	.LVL380
 11114 0a2f 82010000 		.4byte	.LVL384
 11115 0a33 0100     		.2byte	0x1
ARM GAS  C:\Users\Moi\AppData\Local\Temp\ccWeMAis.s 			page 196


 11116 0a35 50       		.byte	0x50
 11117 0a36 94010000 		.4byte	.LVL385
 11118 0a3a E6010000 		.4byte	.LVL392
 11119 0a3e 0200     		.2byte	0x2
 11120 0a40 30       		.byte	0x30
 11121 0a41 9F       		.byte	0x9f
 11122 0a42 F4010000 		.4byte	.LVL394
 11123 0a46 FE010000 		.4byte	.LVL395
 11124 0a4a 0100     		.2byte	0x1
 11125 0a4c 50       		.byte	0x50
 11126 0a4d 02020000 		.4byte	.LVL396
 11127 0a51 26020000 		.4byte	.LVL401
 11128 0a55 0100     		.2byte	0x1
 11129 0a57 50       		.byte	0x50
 11130 0a58 3C020000 		.4byte	.LVL405
 11131 0a5c 40020000 		.4byte	.LVL406
 11132 0a60 0100     		.2byte	0x1
 11133 0a62 53       		.byte	0x53
 11134 0a63 62020000 		.4byte	.LVL407
 11135 0a67 66020000 		.4byte	.LVL408
 11136 0a6b 0100     		.2byte	0x1
 11137 0a6d 50       		.byte	0x50
 11138 0a6e 74020000 		.4byte	.LVL409
 11139 0a72 7C020000 		.4byte	.LVL411
 11140 0a76 0200     		.2byte	0x2
 11141 0a78 30       		.byte	0x30
 11142 0a79 9F       		.byte	0x9f
 11143 0a7a 7C020000 		.4byte	.LVL411
 11144 0a7e 82020000 		.4byte	.LVL412
 11145 0a82 0100     		.2byte	0x1
 11146 0a84 50       		.byte	0x50
 11147 0a85 88020000 		.4byte	.LVL414
 11148 0a89 AC020000 		.4byte	.LVL417
 11149 0a8d 0100     		.2byte	0x1
 11150 0a8f 50       		.byte	0x50
 11151 0a90 B0020000 		.4byte	.LVL418
 11152 0a94 BC020000 		.4byte	.LFE16
 11153 0a98 0100     		.2byte	0x1
 11154 0a9a 53       		.byte	0x53
 11155 0a9b 00000000 		.4byte	0
 11156 0a9f 00000000 		.4byte	0
 11157              	.LLST136:
 11158 0aa3 28000000 		.4byte	.LVL349
 11159 0aa7 3C000000 		.4byte	.LVL353
 11160 0aab 0200     		.2byte	0x2
 11161 0aad 30       		.byte	0x30
 11162 0aae 9F       		.byte	0x9f
 11163 0aaf 50000000 		.4byte	.LVL354
 11164 0ab3 F2000000 		.4byte	.LVL370
 11165 0ab7 0200     		.2byte	0x2
 11166 0ab9 30       		.byte	0x30
 11167 0aba 9F       		.byte	0x9f
 11168 0abb F2000000 		.4byte	.LVL370
 11169 0abf 26010000 		.4byte	.LVL375
 11170 0ac3 0100     		.2byte	0x1
 11171 0ac5 54       		.byte	0x54
 11172 0ac6 26010000 		.4byte	.LVL375
ARM GAS  C:\Users\Moi\AppData\Local\Temp\ccWeMAis.s 			page 197


 11173 0aca 2C010000 		.4byte	.LVL376
 11174 0ace 0100     		.2byte	0x1
 11175 0ad0 52       		.byte	0x52
 11176 0ad1 2C010000 		.4byte	.LVL376
 11177 0ad5 34010000 		.4byte	.LVL377
 11178 0ad9 0100     		.2byte	0x1
 11179 0adb 54       		.byte	0x54
 11180 0adc 34010000 		.4byte	.LVL377
 11181 0ae0 3C010000 		.4byte	.LVL378
 11182 0ae4 0100     		.2byte	0x1
 11183 0ae6 52       		.byte	0x52
 11184 0ae7 66010000 		.4byte	.LVL382
 11185 0aeb A6010000 		.4byte	.LVL388
 11186 0aef 0100     		.2byte	0x1
 11187 0af1 54       		.byte	0x54
 11188 0af2 CA010000 		.4byte	.LVL389
 11189 0af6 CC010000 		.4byte	.LVL390
 11190 0afa 0100     		.2byte	0x1
 11191 0afc 54       		.byte	0x54
 11192 0afd D2010000 		.4byte	.LVL391
 11193 0b01 40020000 		.4byte	.LVL406
 11194 0b05 0100     		.2byte	0x1
 11195 0b07 54       		.byte	0x54
 11196 0b08 62020000 		.4byte	.LVL407
 11197 0b0c 76020000 		.4byte	.LVL410
 11198 0b10 0100     		.2byte	0x1
 11199 0b12 54       		.byte	0x54
 11200 0b13 84020000 		.4byte	.LVL413
 11201 0b17 AC020000 		.4byte	.LVL417
 11202 0b1b 0100     		.2byte	0x1
 11203 0b1d 54       		.byte	0x54
 11204 0b1e B0020000 		.4byte	.LVL418
 11205 0b22 BC020000 		.4byte	.LFE16
 11206 0b26 0100     		.2byte	0x1
 11207 0b28 54       		.byte	0x54
 11208 0b29 00000000 		.4byte	0
 11209 0b2d 00000000 		.4byte	0
 11210              	.LLST137:
 11211 0b31 2C000000 		.4byte	.LVL350
 11212 0b35 34000000 		.4byte	.LVL351
 11213 0b39 0400     		.2byte	0x4
 11214 0b3b 0A       		.byte	0xa
 11215 0b3c 000A     		.2byte	0xa00
 11216 0b3e 9F       		.byte	0x9f
 11217 0b3f 34000000 		.4byte	.LVL351
 11218 0b43 BC020000 		.4byte	.LFE16
 11219 0b47 0100     		.2byte	0x1
 11220 0b49 57       		.byte	0x57
 11221 0b4a 00000000 		.4byte	0
 11222 0b4e 00000000 		.4byte	0
 11223              	.LLST138:
 11224 0b52 2C000000 		.4byte	.LVL350
 11225 0b56 3C000000 		.4byte	.LVL353
 11226 0b5a 0200     		.2byte	0x2
 11227 0b5c 30       		.byte	0x30
 11228 0b5d 9F       		.byte	0x9f
 11229 0b5e 50000000 		.4byte	.LVL354
ARM GAS  C:\Users\Moi\AppData\Local\Temp\ccWeMAis.s 			page 198


 11230 0b62 3C010000 		.4byte	.LVL378
 11231 0b66 0200     		.2byte	0x2
 11232 0b68 30       		.byte	0x30
 11233 0b69 9F       		.byte	0x9f
 11234 0b6a 3C010000 		.4byte	.LVL378
 11235 0b6e 62010000 		.4byte	.LVL381
 11236 0b72 0200     		.2byte	0x2
 11237 0b74 31       		.byte	0x31
 11238 0b75 9F       		.byte	0x9f
 11239 0b76 66010000 		.4byte	.LVL382
 11240 0b7a 6E010000 		.4byte	.LVL383
 11241 0b7e 0200     		.2byte	0x2
 11242 0b80 30       		.byte	0x30
 11243 0b81 9F       		.byte	0x9f
 11244 0b82 7C020000 		.4byte	.LVL411
 11245 0b86 9E020000 		.4byte	.LVL415
 11246 0b8a 0200     		.2byte	0x2
 11247 0b8c 31       		.byte	0x31
 11248 0b8d 9F       		.byte	0x9f
 11249 0b8e 9E020000 		.4byte	.LVL415
 11250 0b92 A2020000 		.4byte	.LVL416
 11251 0b96 0200     		.2byte	0x2
 11252 0b98 30       		.byte	0x30
 11253 0b99 9F       		.byte	0x9f
 11254 0b9a A2020000 		.4byte	.LVL416
 11255 0b9e AC020000 		.4byte	.LVL417
 11256 0ba2 0200     		.2byte	0x2
 11257 0ba4 31       		.byte	0x31
 11258 0ba5 9F       		.byte	0x9f
 11259 0ba6 00000000 		.4byte	0
 11260 0baa 00000000 		.4byte	0
 11261              	.LLST139:
 11262 0bae 2C000000 		.4byte	.LVL350
 11263 0bb2 34000000 		.4byte	.LVL351
 11264 0bb6 0200     		.2byte	0x2
 11265 0bb8 30       		.byte	0x30
 11266 0bb9 9F       		.byte	0x9f
 11267 0bba 34000000 		.4byte	.LVL351
 11268 0bbe 04010000 		.4byte	.LVL372
 11269 0bc2 0200     		.2byte	0x2
 11270 0bc4 36       		.byte	0x36
 11271 0bc5 9F       		.byte	0x9f
 11272 0bc6 04010000 		.4byte	.LVL372
 11273 0bca 1A010000 		.4byte	.LVL373
 11274 0bce 0200     		.2byte	0x2
 11275 0bd0 35       		.byte	0x35
 11276 0bd1 9F       		.byte	0x9f
 11277 0bd2 1A010000 		.4byte	.LVL373
 11278 0bd6 BC020000 		.4byte	.LFE16
 11279 0bda 0200     		.2byte	0x2
 11280 0bdc 36       		.byte	0x36
 11281 0bdd 9F       		.byte	0x9f
 11282 0bde 00000000 		.4byte	0
 11283 0be2 00000000 		.4byte	0
 11284              	.LLST140:
 11285 0be6 2C000000 		.4byte	.LVL350
 11286 0bea 3C000000 		.4byte	.LVL353
ARM GAS  C:\Users\Moi\AppData\Local\Temp\ccWeMAis.s 			page 199


 11287 0bee 0200     		.2byte	0x2
 11288 0bf0 30       		.byte	0x30
 11289 0bf1 9F       		.byte	0x9f
 11290 0bf2 50000000 		.4byte	.LVL354
 11291 0bf6 62010000 		.4byte	.LVL381
 11292 0bfa 0200     		.2byte	0x2
 11293 0bfc 30       		.byte	0x30
 11294 0bfd 9F       		.byte	0x9f
 11295 0bfe 66010000 		.4byte	.LVL382
 11296 0c02 98010000 		.4byte	.LVL386
 11297 0c06 0200     		.2byte	0x2
 11298 0c08 30       		.byte	0x30
 11299 0c09 9F       		.byte	0x9f
 11300 0c0a 12020000 		.4byte	.LVL397
 11301 0c0e 20020000 		.4byte	.LVL399
 11302 0c12 0100     		.2byte	0x1
 11303 0c14 53       		.byte	0x53
 11304 0c15 20020000 		.4byte	.LVL399
 11305 0c19 29020000 		.4byte	.LVL402-1
 11306 0c1d 2900     		.2byte	0x29
 11307 0c1f 77       		.byte	0x77
 11308 0c20 00       		.sleb128 0
 11309 0c21 91       		.byte	0x91
 11310 0c22 42       		.sleb128 -62
 11311 0c23 94       		.byte	0x94
 11312 0c24 02       		.byte	0x2
 11313 0c25 0A       		.byte	0xa
 11314 0c26 FFFF     		.2byte	0xffff
 11315 0c28 1A       		.byte	0x1a
 11316 0c29 1C       		.byte	0x1c
 11317 0c2a 91       		.byte	0x91
 11318 0c2b 42       		.sleb128 -62
 11319 0c2c 94       		.byte	0x94
 11320 0c2d 02       		.byte	0x2
 11321 0c2e 0A       		.byte	0xa
 11322 0c2f FFFF     		.2byte	0xffff
 11323 0c31 1A       		.byte	0x1a
 11324 0c32 77       		.byte	0x77
 11325 0c33 00       		.sleb128 0
 11326 0c34 1C       		.byte	0x1c
 11327 0c35 91       		.byte	0x91
 11328 0c36 42       		.sleb128 -62
 11329 0c37 94       		.byte	0x94
 11330 0c38 02       		.byte	0x2
 11331 0c39 0A       		.byte	0xa
 11332 0c3a FFFF     		.2byte	0xffff
 11333 0c3c 1A       		.byte	0x1a
 11334 0c3d 77       		.byte	0x77
 11335 0c3e 00       		.sleb128 0
 11336 0c3f 1C       		.byte	0x1c
 11337 0c40 30       		.byte	0x30
 11338 0c41 2D       		.byte	0x2d
 11339 0c42 28       		.byte	0x28
 11340 0c43 0100     		.2byte	0x1
 11341 0c45 16       		.byte	0x16
 11342 0c46 13       		.byte	0x13
 11343 0c47 9F       		.byte	0x9f
ARM GAS  C:\Users\Moi\AppData\Local\Temp\ccWeMAis.s 			page 200


 11344 0c48 62020000 		.4byte	.LVL407
 11345 0c4c 76020000 		.4byte	.LVL410
 11346 0c50 0100     		.2byte	0x1
 11347 0c52 53       		.byte	0x53
 11348 0c53 7C020000 		.4byte	.LVL411
 11349 0c57 AC020000 		.4byte	.LVL417
 11350 0c5b 0200     		.2byte	0x2
 11351 0c5d 30       		.byte	0x30
 11352 0c5e 9F       		.byte	0x9f
 11353 0c5f 00000000 		.4byte	0
 11354 0c63 00000000 		.4byte	0
 11355              	.LLST141:
 11356 0c67 2C000000 		.4byte	.LVL350
 11357 0c6b 3C000000 		.4byte	.LVL353
 11358 0c6f 0200     		.2byte	0x2
 11359 0c71 30       		.byte	0x30
 11360 0c72 9F       		.byte	0x9f
 11361 0c73 50000000 		.4byte	.LVL354
 11362 0c77 62010000 		.4byte	.LVL381
 11363 0c7b 0200     		.2byte	0x2
 11364 0c7d 30       		.byte	0x30
 11365 0c7e 9F       		.byte	0x9f
 11366 0c7f 66010000 		.4byte	.LVL382
 11367 0c83 94010000 		.4byte	.LVL385
 11368 0c87 0200     		.2byte	0x2
 11369 0c89 30       		.byte	0x30
 11370 0c8a 9F       		.byte	0x9f
 11371 0c8b 62020000 		.4byte	.LVL407
 11372 0c8f 76020000 		.4byte	.LVL410
 11373 0c93 0100     		.2byte	0x1
 11374 0c95 53       		.byte	0x53
 11375 0c96 7C020000 		.4byte	.LVL411
 11376 0c9a AC020000 		.4byte	.LVL417
 11377 0c9e 0200     		.2byte	0x2
 11378 0ca0 30       		.byte	0x30
 11379 0ca1 9F       		.byte	0x9f
 11380 0ca2 00000000 		.4byte	0
 11381 0ca6 00000000 		.4byte	0
 11382              	.LLST142:
 11383 0caa 2C000000 		.4byte	.LVL350
 11384 0cae 3C000000 		.4byte	.LVL353
 11385 0cb2 0200     		.2byte	0x2
 11386 0cb4 30       		.byte	0x30
 11387 0cb5 9F       		.byte	0x9f
 11388 0cb6 50000000 		.4byte	.LVL354
 11389 0cba 3C020000 		.4byte	.LVL405
 11390 0cbe 0200     		.2byte	0x2
 11391 0cc0 30       		.byte	0x30
 11392 0cc1 9F       		.byte	0x9f
 11393 0cc2 3C020000 		.4byte	.LVL405
 11394 0cc6 40020000 		.4byte	.LVL406
 11395 0cca 0200     		.2byte	0x2
 11396 0ccc 31       		.byte	0x31
 11397 0ccd 9F       		.byte	0x9f
 11398 0cce 62020000 		.4byte	.LVL407
 11399 0cd2 AC020000 		.4byte	.LVL417
 11400 0cd6 0200     		.2byte	0x2
ARM GAS  C:\Users\Moi\AppData\Local\Temp\ccWeMAis.s 			page 201


 11401 0cd8 30       		.byte	0x30
 11402 0cd9 9F       		.byte	0x9f
 11403 0cda B0020000 		.4byte	.LVL418
 11404 0cde BC020000 		.4byte	.LFE16
 11405 0ce2 0200     		.2byte	0x2
 11406 0ce4 31       		.byte	0x31
 11407 0ce5 9F       		.byte	0x9f
 11408 0ce6 00000000 		.4byte	0
 11409 0cea 00000000 		.4byte	0
 11410              	.LLST143:
 11411 0cee 34000000 		.4byte	.LVL351
 11412 0cf2 3C000000 		.4byte	.LVL353
 11413 0cf6 0200     		.2byte	0x2
 11414 0cf8 30       		.byte	0x30
 11415 0cf9 9F       		.byte	0x9f
 11416 0cfa 50000000 		.4byte	.LVL354
 11417 0cfe 62010000 		.4byte	.LVL381
 11418 0d02 0200     		.2byte	0x2
 11419 0d04 30       		.byte	0x30
 11420 0d05 9F       		.byte	0x9f
 11421 0d06 66010000 		.4byte	.LVL382
 11422 0d0a 94010000 		.4byte	.LVL385
 11423 0d0e 0200     		.2byte	0x2
 11424 0d10 30       		.byte	0x30
 11425 0d11 9F       		.byte	0x9f
 11426 0d12 94010000 		.4byte	.LVL385
 11427 0d16 98010000 		.4byte	.LVL386
 11428 0d1a 0200     		.2byte	0x2
 11429 0d1c 33       		.byte	0x33
 11430 0d1d 9F       		.byte	0x9f
 11431 0d1e CA010000 		.4byte	.LVL389
 11432 0d22 CC010000 		.4byte	.LVL390
 11433 0d26 0100     		.2byte	0x1
 11434 0d28 59       		.byte	0x59
 11435 0d29 D2010000 		.4byte	.LVL391
 11436 0d2d 38020000 		.4byte	.LVL404
 11437 0d31 0100     		.2byte	0x1
 11438 0d33 59       		.byte	0x59
 11439 0d34 38020000 		.4byte	.LVL404
 11440 0d38 3C020000 		.4byte	.LVL405
 11441 0d3c 0300     		.2byte	0x3
 11442 0d3e 7B       		.byte	0x7b
 11443 0d3f 01       		.sleb128 1
 11444 0d40 9F       		.byte	0x9f
 11445 0d41 3C020000 		.4byte	.LVL405
 11446 0d45 40020000 		.4byte	.LVL406
 11447 0d49 0100     		.2byte	0x1
 11448 0d4b 59       		.byte	0x59
 11449 0d4c 62020000 		.4byte	.LVL407
 11450 0d50 74020000 		.4byte	.LVL409
 11451 0d54 0100     		.2byte	0x1
 11452 0d56 59       		.byte	0x59
 11453 0d57 74020000 		.4byte	.LVL409
 11454 0d5b 76020000 		.4byte	.LVL410
 11455 0d5f 0100     		.2byte	0x1
 11456 0d61 5B       		.byte	0x5b
 11457 0d62 7C020000 		.4byte	.LVL411
ARM GAS  C:\Users\Moi\AppData\Local\Temp\ccWeMAis.s 			page 202


 11458 0d66 AC020000 		.4byte	.LVL417
 11459 0d6a 0200     		.2byte	0x2
 11460 0d6c 30       		.byte	0x30
 11461 0d6d 9F       		.byte	0x9f
 11462 0d6e B0020000 		.4byte	.LVL418
 11463 0d72 BC020000 		.4byte	.LFE16
 11464 0d76 0100     		.2byte	0x1
 11465 0d78 59       		.byte	0x59
 11466 0d79 00000000 		.4byte	0
 11467 0d7d 00000000 		.4byte	0
 11468              	.LLST144:
 11469 0d81 34000000 		.4byte	.LVL351
 11470 0d85 3C000000 		.4byte	.LVL353
 11471 0d89 0200     		.2byte	0x2
 11472 0d8b 30       		.byte	0x30
 11473 0d8c 9F       		.byte	0x9f
 11474 0d8d 50000000 		.4byte	.LVL354
 11475 0d91 62010000 		.4byte	.LVL381
 11476 0d95 0200     		.2byte	0x2
 11477 0d97 30       		.byte	0x30
 11478 0d98 9F       		.byte	0x9f
 11479 0d99 66010000 		.4byte	.LVL382
 11480 0d9d 94010000 		.4byte	.LVL385
 11481 0da1 0200     		.2byte	0x2
 11482 0da3 30       		.byte	0x30
 11483 0da4 9F       		.byte	0x9f
 11484 0da5 94010000 		.4byte	.LVL385
 11485 0da9 40020000 		.4byte	.LVL406
 11486 0dad 0300     		.2byte	0x3
 11487 0daf 91       		.byte	0x91
 11488 0db0 B87F     		.sleb128 -72
 11489 0db2 62020000 		.4byte	.LVL407
 11490 0db6 7C020000 		.4byte	.LVL411
 11491 0dba 0300     		.2byte	0x3
 11492 0dbc 91       		.byte	0x91
 11493 0dbd B87F     		.sleb128 -72
 11494 0dbf 7C020000 		.4byte	.LVL411
 11495 0dc3 AC020000 		.4byte	.LVL417
 11496 0dc7 0200     		.2byte	0x2
 11497 0dc9 30       		.byte	0x30
 11498 0dca 9F       		.byte	0x9f
 11499 0dcb B0020000 		.4byte	.LVL418
 11500 0dcf BC020000 		.4byte	.LFE16
 11501 0dd3 0300     		.2byte	0x3
 11502 0dd5 91       		.byte	0x91
 11503 0dd6 B87F     		.sleb128 -72
 11504 0dd8 00000000 		.4byte	0
 11505 0ddc 00000000 		.4byte	0
 11506              	.LLST145:
 11507 0de0 1A010000 		.4byte	.LVL373
 11508 0de4 20010000 		.4byte	.LVL374
 11509 0de8 0400     		.2byte	0x4
 11510 0dea 74       		.byte	0x74
 11511 0deb B401     		.sleb128 180
 11512 0ded 9F       		.byte	0x9f
 11513 0dee 34010000 		.4byte	.LVL377
 11514 0df2 3C010000 		.4byte	.LVL378
ARM GAS  C:\Users\Moi\AppData\Local\Temp\ccWeMAis.s 			page 203


 11515 0df6 0400     		.2byte	0x4
 11516 0df8 74       		.byte	0x74
 11517 0df9 B501     		.sleb128 181
 11518 0dfb 9F       		.byte	0x9f
 11519 0dfc 00000000 		.4byte	0
 11520 0e00 00000000 		.4byte	0
 11521              	.LLST146:
 11522 0e04 1A010000 		.4byte	.LVL373
 11523 0e08 20010000 		.4byte	.LVL374
 11524 0e0c 0600     		.2byte	0x6
 11525 0e0e 74       		.byte	0x74
 11526 0e0f B401     		.sleb128 180
 11527 0e11 36       		.byte	0x36
 11528 0e12 25       		.byte	0x25
 11529 0e13 9F       		.byte	0x9f
 11530 0e14 34010000 		.4byte	.LVL377
 11531 0e18 3C010000 		.4byte	.LVL378
 11532 0e1c 0600     		.2byte	0x6
 11533 0e1e 74       		.byte	0x74
 11534 0e1f B501     		.sleb128 181
 11535 0e21 36       		.byte	0x36
 11536 0e22 25       		.byte	0x25
 11537 0e23 9F       		.byte	0x9f
 11538 0e24 00000000 		.4byte	0
 11539 0e28 00000000 		.4byte	0
 11540              	.LLST147:
 11541 0e2c 1A010000 		.4byte	.LVL373
 11542 0e30 20010000 		.4byte	.LVL374
 11543 0e34 0200     		.2byte	0x2
 11544 0e36 31       		.byte	0x31
 11545 0e37 9F       		.byte	0x9f
 11546 0e38 34010000 		.4byte	.LVL377
 11547 0e3c 3C010000 		.4byte	.LVL378
 11548 0e40 0200     		.2byte	0x2
 11549 0e42 31       		.byte	0x31
 11550 0e43 9F       		.byte	0x9f
 11551 0e44 00000000 		.4byte	0
 11552 0e48 00000000 		.4byte	0
 11553              	.LLST148:
 11554 0e4c CA010000 		.4byte	.LVL389
 11555 0e50 CC010000 		.4byte	.LVL390
 11556 0e54 0100     		.2byte	0x1
 11557 0e56 54       		.byte	0x54
 11558 0e57 D2010000 		.4byte	.LVL391
 11559 0e5b E6010000 		.4byte	.LVL392
 11560 0e5f 0100     		.2byte	0x1
 11561 0e61 54       		.byte	0x54
 11562 0e62 00000000 		.4byte	0
 11563 0e66 00000000 		.4byte	0
 11564              	.LLST149:
 11565 0e6a CA010000 		.4byte	.LVL389
 11566 0e6e CC010000 		.4byte	.LVL390
 11567 0e72 0200     		.2byte	0x2
 11568 0e74 36       		.byte	0x36
 11569 0e75 9F       		.byte	0x9f
 11570 0e76 D2010000 		.4byte	.LVL391
 11571 0e7a E6010000 		.4byte	.LVL392
ARM GAS  C:\Users\Moi\AppData\Local\Temp\ccWeMAis.s 			page 204


 11572 0e7e 0200     		.2byte	0x2
 11573 0e80 36       		.byte	0x36
 11574 0e81 9F       		.byte	0x9f
 11575 0e82 00000000 		.4byte	0
 11576 0e86 00000000 		.4byte	0
 11577              	.LLST150:
 11578 0e8a F0010000 		.4byte	.LVL393
 11579 0e8e F3010000 		.4byte	.LVL394-1
 11580 0e92 0100     		.2byte	0x1
 11581 0e94 52       		.byte	0x52
 11582 0e95 F3010000 		.4byte	.LVL394-1
 11583 0e99 F4010000 		.4byte	.LVL394
 11584 0e9d 0100     		.2byte	0x1
 11585 0e9f 58       		.byte	0x58
 11586 0ea0 00000000 		.4byte	0
 11587 0ea4 00000000 		.4byte	0
 11588              	.LLST151:
 11589 0ea8 F0010000 		.4byte	.LVL393
 11590 0eac F3010000 		.4byte	.LVL394-1
 11591 0eb0 0100     		.2byte	0x1
 11592 0eb2 50       		.byte	0x50
 11593 0eb3 F3010000 		.4byte	.LVL394-1
 11594 0eb7 F4010000 		.4byte	.LVL394
 11595 0ebb 0100     		.2byte	0x1
 11596 0ebd 56       		.byte	0x56
 11597 0ebe 00000000 		.4byte	0
 11598 0ec2 00000000 		.4byte	0
 11599              	.LLST152:
 11600 0ec6 1E020000 		.4byte	.LVL398
 11601 0eca 22020000 		.4byte	.LVL400
 11602 0ece 0300     		.2byte	0x3
 11603 0ed0 91       		.byte	0x91
 11604 0ed1 4C       		.sleb128 -52
 11605 0ed2 9F       		.byte	0x9f
 11606 0ed3 22020000 		.4byte	.LVL400
 11607 0ed7 29020000 		.4byte	.LVL402-1
 11608 0edb 0100     		.2byte	0x1
 11609 0edd 52       		.byte	0x52
 11610 0ede 29020000 		.4byte	.LVL402-1
 11611 0ee2 30020000 		.4byte	.LVL403
 11612 0ee6 0300     		.2byte	0x3
 11613 0ee8 91       		.byte	0x91
 11614 0ee9 4C       		.sleb128 -52
 11615 0eea 9F       		.byte	0x9f
 11616 0eeb 00000000 		.4byte	0
 11617 0eef 00000000 		.4byte	0
 11618              	.LLST153:
 11619 0ef3 1E020000 		.4byte	.LVL398
 11620 0ef7 30020000 		.4byte	.LVL403
 11621 0efb 0100     		.2byte	0x1
 11622 0efd 56       		.byte	0x56
 11623 0efe 00000000 		.4byte	0
 11624 0f02 00000000 		.4byte	0
 11625              	.LLST83:
 11626 0f06 00000000 		.4byte	.LVL189
 11627 0f0a 19000000 		.4byte	.LVL192-1
 11628 0f0e 0100     		.2byte	0x1
ARM GAS  C:\Users\Moi\AppData\Local\Temp\ccWeMAis.s 			page 205


 11629 0f10 50       		.byte	0x50
 11630 0f11 19000000 		.4byte	.LVL192-1
 11631 0f15 7C000000 		.4byte	.LFE15
 11632 0f19 0100     		.2byte	0x1
 11633 0f1b 54       		.byte	0x54
 11634 0f1c 00000000 		.4byte	0
 11635 0f20 00000000 		.4byte	0
 11636              	.LLST84:
 11637 0f24 00000000 		.4byte	.LVL189
 11638 0f28 12000000 		.4byte	.LVL190
 11639 0f2c 0100     		.2byte	0x1
 11640 0f2e 51       		.byte	0x51
 11641 0f2f 12000000 		.4byte	.LVL190
 11642 0f33 7C000000 		.4byte	.LFE15
 11643 0f37 0100     		.2byte	0x1
 11644 0f39 57       		.byte	0x57
 11645 0f3a 00000000 		.4byte	0
 11646 0f3e 00000000 		.4byte	0
 11647              	.LLST85:
 11648 0f42 16000000 		.4byte	.LVL191
 11649 0f46 1A000000 		.4byte	.LVL192
 11650 0f4a 0200     		.2byte	0x2
 11651 0f4c 30       		.byte	0x30
 11652 0f4d 9F       		.byte	0x9f
 11653 0f4e 1A000000 		.4byte	.LVL192
 11654 0f52 2C000000 		.4byte	.LVL194
 11655 0f56 0100     		.2byte	0x1
 11656 0f58 50       		.byte	0x50
 11657 0f59 30000000 		.4byte	.LVL195
 11658 0f5d 3A000000 		.4byte	.LVL196
 11659 0f61 0100     		.2byte	0x1
 11660 0f63 50       		.byte	0x50
 11661 0f64 3E000000 		.4byte	.LVL197
 11662 0f68 48000000 		.4byte	.LVL198
 11663 0f6c 0100     		.2byte	0x1
 11664 0f6e 50       		.byte	0x50
 11665 0f6f 4C000000 		.4byte	.LVL199
 11666 0f73 56000000 		.4byte	.LVL200
 11667 0f77 0100     		.2byte	0x1
 11668 0f79 50       		.byte	0x50
 11669 0f7a 5A000000 		.4byte	.LVL201
 11670 0f7e 64000000 		.4byte	.LVL202
 11671 0f82 0100     		.2byte	0x1
 11672 0f84 50       		.byte	0x50
 11673 0f85 68000000 		.4byte	.LVL203
 11674 0f89 75000000 		.4byte	.LVL204-1
 11675 0f8d 0100     		.2byte	0x1
 11676 0f8f 50       		.byte	0x50
 11677 0f90 00000000 		.4byte	0
 11678 0f94 00000000 		.4byte	0
 11679              	.LLST65:
 11680 0f98 00000000 		.4byte	.LVL163
 11681 0f9c 2E000000 		.4byte	.LVL167
 11682 0fa0 0100     		.2byte	0x1
 11683 0fa2 50       		.byte	0x50
 11684 0fa3 2E000000 		.4byte	.LVL167
 11685 0fa7 E4000000 		.4byte	.LFE14
ARM GAS  C:\Users\Moi\AppData\Local\Temp\ccWeMAis.s 			page 206


 11686 0fab 0200     		.2byte	0x2
 11687 0fad 91       		.byte	0x91
 11688 0fae 44       		.sleb128 -60
 11689 0faf 00000000 		.4byte	0
 11690 0fb3 00000000 		.4byte	0
 11691              	.LLST66:
 11692 0fb7 00000000 		.4byte	.LVL163
 11693 0fbb 2E000000 		.4byte	.LVL167
 11694 0fbf 0100     		.2byte	0x1
 11695 0fc1 51       		.byte	0x51
 11696 0fc2 2E000000 		.4byte	.LVL167
 11697 0fc6 E4000000 		.4byte	.LFE14
 11698 0fca 0400     		.2byte	0x4
 11699 0fcc F3       		.byte	0xf3
 11700 0fcd 01       		.uleb128 0x1
 11701 0fce 51       		.byte	0x51
 11702 0fcf 9F       		.byte	0x9f
 11703 0fd0 00000000 		.4byte	0
 11704 0fd4 00000000 		.4byte	0
 11705              	.LLST67:
 11706 0fd8 00000000 		.4byte	.LVL163
 11707 0fdc 2E000000 		.4byte	.LVL167
 11708 0fe0 0100     		.2byte	0x1
 11709 0fe2 52       		.byte	0x52
 11710 0fe3 2E000000 		.4byte	.LVL167
 11711 0fe7 7E000000 		.4byte	.LVL178
 11712 0feb 0100     		.2byte	0x1
 11713 0fed 59       		.byte	0x59
 11714 0fee 7E000000 		.4byte	.LVL178
 11715 0ff2 E4000000 		.4byte	.LFE14
 11716 0ff6 0400     		.2byte	0x4
 11717 0ff8 F3       		.byte	0xf3
 11718 0ff9 01       		.uleb128 0x1
 11719 0ffa 52       		.byte	0x52
 11720 0ffb 9F       		.byte	0x9f
 11721 0ffc 00000000 		.4byte	0
 11722 1000 00000000 		.4byte	0
 11723              	.LLST68:
 11724 1004 00000000 		.4byte	.LVL163
 11725 1008 16000000 		.4byte	.LVL164
 11726 100c 0100     		.2byte	0x1
 11727 100e 53       		.byte	0x53
 11728 100f 16000000 		.4byte	.LVL164
 11729 1013 7E000000 		.4byte	.LVL178
 11730 1017 0100     		.2byte	0x1
 11731 1019 57       		.byte	0x57
 11732 101a 7E000000 		.4byte	.LVL178
 11733 101e 8E000000 		.4byte	.LVL179
 11734 1022 0400     		.2byte	0x4
 11735 1024 F3       		.byte	0xf3
 11736 1025 01       		.uleb128 0x1
 11737 1026 53       		.byte	0x53
 11738 1027 9F       		.byte	0x9f
 11739 1028 8E000000 		.4byte	.LVL179
 11740 102c C2000000 		.4byte	.LVL186
 11741 1030 0100     		.2byte	0x1
 11742 1032 57       		.byte	0x57
ARM GAS  C:\Users\Moi\AppData\Local\Temp\ccWeMAis.s 			page 207


 11743 1033 C2000000 		.4byte	.LVL186
 11744 1037 E4000000 		.4byte	.LFE14
 11745 103b 0400     		.2byte	0x4
 11746 103d F3       		.byte	0xf3
 11747 103e 01       		.uleb128 0x1
 11748 103f 53       		.byte	0x53
 11749 1040 9F       		.byte	0x9f
 11750 1041 00000000 		.4byte	0
 11751 1045 00000000 		.4byte	0
 11752              	.LLST69:
 11753 1049 00000000 		.4byte	.LVL163
 11754 104d 8E000000 		.4byte	.LVL179
 11755 1051 0200     		.2byte	0x2
 11756 1053 91       		.byte	0x91
 11757 1054 00       		.sleb128 0
 11758 1055 8E000000 		.4byte	.LVL179
 11759 1059 E4000000 		.4byte	.LFE14
 11760 105d 0200     		.2byte	0x2
 11761 105f 91       		.byte	0x91
 11762 1060 00       		.sleb128 0
 11763 1061 00000000 		.4byte	0
 11764 1065 00000000 		.4byte	0
 11765              	.LLST70:
 11766 1069 00000000 		.4byte	.LVL163
 11767 106d 8E000000 		.4byte	.LVL179
 11768 1071 0200     		.2byte	0x2
 11769 1073 91       		.byte	0x91
 11770 1074 04       		.sleb128 4
 11771 1075 8E000000 		.4byte	.LVL179
 11772 1079 E4000000 		.4byte	.LFE14
 11773 107d 0200     		.2byte	0x2
 11774 107f 91       		.byte	0x91
 11775 1080 04       		.sleb128 4
 11776 1081 00000000 		.4byte	0
 11777 1085 00000000 		.4byte	0
 11778              	.LLST71:
 11779 1089 00000000 		.4byte	.LVL163
 11780 108d 8E000000 		.4byte	.LVL179
 11781 1091 0200     		.2byte	0x2
 11782 1093 91       		.byte	0x91
 11783 1094 08       		.sleb128 8
 11784 1095 8E000000 		.4byte	.LVL179
 11785 1099 E4000000 		.4byte	.LFE14
 11786 109d 0200     		.2byte	0x2
 11787 109f 91       		.byte	0x91
 11788 10a0 08       		.sleb128 8
 11789 10a1 00000000 		.4byte	0
 11790 10a5 00000000 		.4byte	0
 11791              	.LLST72:
 11792 10a9 00000000 		.4byte	.LVL163
 11793 10ad 8E000000 		.4byte	.LVL179
 11794 10b1 0200     		.2byte	0x2
 11795 10b3 91       		.byte	0x91
 11796 10b4 0C       		.sleb128 12
 11797 10b5 8E000000 		.4byte	.LVL179
 11798 10b9 E4000000 		.4byte	.LFE14
 11799 10bd 0200     		.2byte	0x2
ARM GAS  C:\Users\Moi\AppData\Local\Temp\ccWeMAis.s 			page 208


 11800 10bf 91       		.byte	0x91
 11801 10c0 0C       		.sleb128 12
 11802 10c1 00000000 		.4byte	0
 11803 10c5 00000000 		.4byte	0
 11804              	.LLST73:
 11805 10c9 00000000 		.4byte	.LVL163
 11806 10cd 8E000000 		.4byte	.LVL179
 11807 10d1 0200     		.2byte	0x2
 11808 10d3 91       		.byte	0x91
 11809 10d4 10       		.sleb128 16
 11810 10d5 8E000000 		.4byte	.LVL179
 11811 10d9 E4000000 		.4byte	.LFE14
 11812 10dd 0200     		.2byte	0x2
 11813 10df 91       		.byte	0x91
 11814 10e0 10       		.sleb128 16
 11815 10e1 00000000 		.4byte	0
 11816 10e5 00000000 		.4byte	0
 11817              	.LLST74:
 11818 10e9 18000000 		.4byte	.LVL165
 11819 10ed 76000000 		.4byte	.LVL177
 11820 10f1 0200     		.2byte	0x2
 11821 10f3 30       		.byte	0x30
 11822 10f4 9F       		.byte	0x9f
 11823 10f5 76000000 		.4byte	.LVL177
 11824 10f9 7E000000 		.4byte	.LVL178
 11825 10fd 0300     		.2byte	0x3
 11826 10ff 09       		.byte	0x9
 11827 1100 CE       		.byte	0xce
 11828 1101 9F       		.byte	0x9f
 11829 1102 7E000000 		.4byte	.LVL178
 11830 1106 8E000000 		.4byte	.LVL179
 11831 110a 0100     		.2byte	0x1
 11832 110c 50       		.byte	0x50
 11833 110d 8E000000 		.4byte	.LVL179
 11834 1111 9E000000 		.4byte	.LVL181
 11835 1115 0200     		.2byte	0x2
 11836 1117 30       		.byte	0x30
 11837 1118 9F       		.byte	0x9f
 11838 1119 9E000000 		.4byte	.LVL181
 11839 111d A4000000 		.4byte	.LVL183
 11840 1121 0100     		.2byte	0x1
 11841 1123 50       		.byte	0x50
 11842 1124 D8000000 		.4byte	.LVL187
 11843 1128 DB000000 		.4byte	.LVL188-1
 11844 112c 0100     		.2byte	0x1
 11845 112e 50       		.byte	0x50
 11846 112f 00000000 		.4byte	0
 11847 1133 00000000 		.4byte	0
 11848              	.LLST75:
 11849 1137 1A000000 		.4byte	.LVL166
 11850 113b 2E000000 		.4byte	.LVL167
 11851 113f 0200     		.2byte	0x2
 11852 1141 30       		.byte	0x30
 11853 1142 9F       		.byte	0x9f
 11854 1143 2E000000 		.4byte	.LVL167
 11855 1147 5C000000 		.4byte	.LVL173
 11856 114b 0100     		.2byte	0x1
ARM GAS  C:\Users\Moi\AppData\Local\Temp\ccWeMAis.s 			page 209


 11857 114d 54       		.byte	0x54
 11858 114e 5C000000 		.4byte	.LVL173
 11859 1152 62000000 		.4byte	.LVL174
 11860 1156 0300     		.2byte	0x3
 11861 1158 74       		.byte	0x74
 11862 1159 7F       		.sleb128 -1
 11863 115a 9F       		.byte	0x9f
 11864 115b 62000000 		.4byte	.LVL174
 11865 115f 7E000000 		.4byte	.LVL178
 11866 1163 0100     		.2byte	0x1
 11867 1165 54       		.byte	0x54
 11868 1166 00000000 		.4byte	0
 11869 116a 00000000 		.4byte	0
 11870              	.LLST76:
 11871 116e AE000000 		.4byte	.LVL185
 11872 1172 C2000000 		.4byte	.LVL186
 11873 1176 0200     		.2byte	0x2
 11874 1178 30       		.byte	0x30
 11875 1179 9F       		.byte	0x9f
 11876 117a 00000000 		.4byte	0
 11877 117e 00000000 		.4byte	0
 11878              	.LLST77:
 11879 1182 1A000000 		.4byte	.LVL166
 11880 1186 44000000 		.4byte	.LVL168
 11881 118a 0100     		.2byte	0x1
 11882 118c 56       		.byte	0x56
 11883 118d 44000000 		.4byte	.LVL168
 11884 1191 62000000 		.4byte	.LVL174
 11885 1195 0100     		.2byte	0x1
 11886 1197 53       		.byte	0x53
 11887 1198 62000000 		.4byte	.LVL174
 11888 119c E4000000 		.4byte	.LFE14
 11889 11a0 0100     		.2byte	0x1
 11890 11a2 56       		.byte	0x56
 11891 11a3 00000000 		.4byte	0
 11892 11a7 00000000 		.4byte	0
 11893              	.LLST78:
 11894 11ab 44000000 		.4byte	.LVL168
 11895 11af 5A000000 		.4byte	.LVL172
 11896 11b3 0100     		.2byte	0x1
 11897 11b5 53       		.byte	0x53
 11898 11b6 00000000 		.4byte	0
 11899 11ba 00000000 		.4byte	0
 11900              	.LLST79:
 11901 11be 44000000 		.4byte	.LVL168
 11902 11c2 5A000000 		.4byte	.LVL172
 11903 11c6 0100     		.2byte	0x1
 11904 11c8 55       		.byte	0x55
 11905 11c9 00000000 		.4byte	0
 11906 11cd 00000000 		.4byte	0
 11907              	.LLST80:
 11908 11d1 94000000 		.4byte	.LVL180
 11909 11d5 9D000000 		.4byte	.LVL181-1
 11910 11d9 0100     		.2byte	0x1
 11911 11db 50       		.byte	0x50
 11912 11dc 9D000000 		.4byte	.LVL181-1
 11913 11e0 9E000000 		.4byte	.LVL181
ARM GAS  C:\Users\Moi\AppData\Local\Temp\ccWeMAis.s 			page 210


 11914 11e4 0200     		.2byte	0x2
 11915 11e6 91       		.byte	0x91
 11916 11e7 44       		.sleb128 -60
 11917 11e8 00000000 		.4byte	0
 11918 11ec 00000000 		.4byte	0
 11919              	.LLST81:
 11920 11f0 A2000000 		.4byte	.LVL182
 11921 11f4 A6000000 		.4byte	.LVL184
 11922 11f8 0300     		.2byte	0x3
 11923 11fa 91       		.byte	0x91
 11924 11fb 4C       		.sleb128 -52
 11925 11fc 9F       		.byte	0x9f
 11926 11fd A6000000 		.4byte	.LVL184
 11927 1201 AD000000 		.4byte	.LVL185-1
 11928 1205 0100     		.2byte	0x1
 11929 1207 52       		.byte	0x52
 11930 1208 AD000000 		.4byte	.LVL185-1
 11931 120c AE000000 		.4byte	.LVL185
 11932 1210 0300     		.2byte	0x3
 11933 1212 91       		.byte	0x91
 11934 1213 4C       		.sleb128 -52
 11935 1214 9F       		.byte	0x9f
 11936 1215 00000000 		.4byte	0
 11937 1219 00000000 		.4byte	0
 11938              	.LLST82:
 11939 121d A2000000 		.4byte	.LVL182
 11940 1221 AE000000 		.4byte	.LVL185
 11941 1225 0200     		.2byte	0x2
 11942 1227 91       		.byte	0x91
 11943 1228 44       		.sleb128 -60
 11944 1229 00000000 		.4byte	0
 11945 122d 00000000 		.4byte	0
 11946              	.LLST51:
 11947 1231 00000000 		.4byte	.LVL135
 11948 1235 72000000 		.4byte	.LVL148
 11949 1239 0100     		.2byte	0x1
 11950 123b 50       		.byte	0x50
 11951 123c 72000000 		.4byte	.LVL148
 11952 1240 A0000000 		.4byte	.LFE11
 11953 1244 0400     		.2byte	0x4
 11954 1246 F3       		.byte	0xf3
 11955 1247 01       		.uleb128 0x1
 11956 1248 50       		.byte	0x50
 11957 1249 9F       		.byte	0x9f
 11958 124a 00000000 		.4byte	0
 11959 124e 00000000 		.4byte	0
 11960              	.LLST52:
 11961 1252 00000000 		.4byte	.LVL135
 11962 1256 3C000000 		.4byte	.LVL140
 11963 125a 0100     		.2byte	0x1
 11964 125c 51       		.byte	0x51
 11965 125d 3C000000 		.4byte	.LVL140
 11966 1261 A0000000 		.4byte	.LFE11
 11967 1265 0400     		.2byte	0x4
 11968 1267 F3       		.byte	0xf3
 11969 1268 01       		.uleb128 0x1
 11970 1269 51       		.byte	0x51
ARM GAS  C:\Users\Moi\AppData\Local\Temp\ccWeMAis.s 			page 211


 11971 126a 9F       		.byte	0x9f
 11972 126b 00000000 		.4byte	0
 11973 126f 00000000 		.4byte	0
 11974              	.LLST53:
 11975 1273 00000000 		.4byte	.LVL135
 11976 1277 28000000 		.4byte	.LVL138
 11977 127b 0100     		.2byte	0x1
 11978 127d 52       		.byte	0x52
 11979 127e 28000000 		.4byte	.LVL138
 11980 1282 A0000000 		.4byte	.LFE11
 11981 1286 0400     		.2byte	0x4
 11982 1288 F3       		.byte	0xf3
 11983 1289 01       		.uleb128 0x1
 11984 128a 52       		.byte	0x52
 11985 128b 9F       		.byte	0x9f
 11986 128c 00000000 		.4byte	0
 11987 1290 00000000 		.4byte	0
 11988              	.LLST54:
 11989 1294 00000000 		.4byte	.LVL135
 11990 1298 8C000000 		.4byte	.LVL152
 11991 129c 0100     		.2byte	0x1
 11992 129e 53       		.byte	0x53
 11993 129f 8C000000 		.4byte	.LVL152
 11994 12a3 A0000000 		.4byte	.LFE11
 11995 12a7 0400     		.2byte	0x4
 11996 12a9 F3       		.byte	0xf3
 11997 12aa 01       		.uleb128 0x1
 11998 12ab 53       		.byte	0x53
 11999 12ac 9F       		.byte	0x9f
 12000 12ad 00000000 		.4byte	0
 12001 12b1 00000000 		.4byte	0
 12002              	.LLST55:
 12003 12b5 00000000 		.4byte	.LVL135
 12004 12b9 98000000 		.4byte	.LVL153
 12005 12bd 0200     		.2byte	0x2
 12006 12bf 91       		.byte	0x91
 12007 12c0 00       		.sleb128 0
 12008 12c1 98000000 		.4byte	.LVL153
 12009 12c5 A0000000 		.4byte	.LFE11
 12010 12c9 0200     		.2byte	0x2
 12011 12cb 91       		.byte	0x91
 12012 12cc 00       		.sleb128 0
 12013 12cd 00000000 		.4byte	0
 12014 12d1 00000000 		.4byte	0
 12015              	.LLST56:
 12016 12d5 14000000 		.4byte	.LVL136
 12017 12d9 2E000000 		.4byte	.LVL139
 12018 12dd 0200     		.2byte	0x2
 12019 12df 30       		.byte	0x30
 12020 12e0 9F       		.byte	0x9f
 12021 12e1 2E000000 		.4byte	.LVL139
 12022 12e5 A0000000 		.4byte	.LFE11
 12023 12e9 0200     		.2byte	0x2
 12024 12eb 91       		.byte	0x91
 12025 12ec 4C       		.sleb128 -52
 12026 12ed 00000000 		.4byte	0
 12027 12f1 00000000 		.4byte	0
ARM GAS  C:\Users\Moi\AppData\Local\Temp\ccWeMAis.s 			page 212


 12028              	.LLST57:
 12029 12f5 14000000 		.4byte	.LVL136
 12030 12f9 3C000000 		.4byte	.LVL140
 12031 12fd 0200     		.2byte	0x2
 12032 12ff 30       		.byte	0x30
 12033 1300 9F       		.byte	0x9f
 12034 1301 3C000000 		.4byte	.LVL140
 12035 1305 A0000000 		.4byte	.LFE11
 12036 1309 0100     		.2byte	0x1
 12037 130b 56       		.byte	0x56
 12038 130c 00000000 		.4byte	0
 12039 1310 00000000 		.4byte	0
 12040              	.LLST58:
 12041 1314 14000000 		.4byte	.LVL136
 12042 1318 3C000000 		.4byte	.LVL140
 12043 131c 0200     		.2byte	0x2
 12044 131e 30       		.byte	0x30
 12045 131f 9F       		.byte	0x9f
 12046 1320 40000000 		.4byte	.LVL141
 12047 1324 42000000 		.4byte	.LVL142
 12048 1328 0200     		.2byte	0x2
 12049 132a 30       		.byte	0x30
 12050 132b 9F       		.byte	0x9f
 12051 132c 42000000 		.4byte	.LVL142
 12052 1330 60000000 		.4byte	.LVL144
 12053 1334 0100     		.2byte	0x1
 12054 1336 52       		.byte	0x52
 12055 1337 60000000 		.4byte	.LVL144
 12056 133b 66000000 		.4byte	.LVL145
 12057 133f 0300     		.2byte	0x3
 12058 1341 72       		.byte	0x72
 12059 1342 7F       		.sleb128 -1
 12060 1343 9F       		.byte	0x9f
 12061 1344 66000000 		.4byte	.LVL145
 12062 1348 6E000000 		.4byte	.LVL147
 12063 134c 0100     		.2byte	0x1
 12064 134e 52       		.byte	0x52
 12065 134f 6E000000 		.4byte	.LVL147
 12066 1353 78000000 		.4byte	.LVL149
 12067 1357 0200     		.2byte	0x2
 12068 1359 30       		.byte	0x30
 12069 135a 9F       		.byte	0x9f
 12070 135b 78000000 		.4byte	.LVL149
 12071 135f 88000000 		.4byte	.LVL151
 12072 1363 0100     		.2byte	0x1
 12073 1365 52       		.byte	0x52
 12074 1366 00000000 		.4byte	0
 12075 136a 00000000 		.4byte	0
 12076              	.LLST59:
 12077 136e 40000000 		.4byte	.LVL141
 12078 1372 6E000000 		.4byte	.LVL147
 12079 1376 0100     		.2byte	0x1
 12080 1378 51       		.byte	0x51
 12081 1379 6E000000 		.4byte	.LVL147
 12082 137d 72000000 		.4byte	.LVL148
 12083 1381 0500     		.2byte	0x5
 12084 1383 70       		.byte	0x70
ARM GAS  C:\Users\Moi\AppData\Local\Temp\ccWeMAis.s 			page 213


 12085 1384 00       		.sleb128 0
 12086 1385 7A       		.byte	0x7a
 12087 1386 00       		.sleb128 0
 12088 1387 22       		.byte	0x22
 12089 1388 72000000 		.4byte	.LVL148
 12090 138c 78000000 		.4byte	.LVL149
 12091 1390 0100     		.2byte	0x1
 12092 1392 50       		.byte	0x50
 12093 1393 00000000 		.4byte	0
 12094 1397 00000000 		.4byte	0
 12095              	.LLST60:
 12096 139b 14000000 		.4byte	.LVL136
 12097 139f 3C000000 		.4byte	.LVL140
 12098 13a3 0200     		.2byte	0x2
 12099 13a5 30       		.byte	0x30
 12100 13a6 9F       		.byte	0x9f
 12101 13a7 3C000000 		.4byte	.LVL140
 12102 13ab A0000000 		.4byte	.LFE11
 12103 13af 0100     		.2byte	0x1
 12104 13b1 55       		.byte	0x55
 12105 13b2 00000000 		.4byte	0
 12106 13b6 00000000 		.4byte	0
 12107              	.LLST35:
 12108 13ba 00000000 		.4byte	.LVL97
 12109 13be 22000000 		.4byte	.LVL102
 12110 13c2 0100     		.2byte	0x1
 12111 13c4 50       		.byte	0x50
 12112 13c5 22000000 		.4byte	.LVL102
 12113 13c9 68000000 		.4byte	.LFE8
 12114 13cd 0400     		.2byte	0x4
 12115 13cf F3       		.byte	0xf3
 12116 13d0 01       		.uleb128 0x1
 12117 13d1 50       		.byte	0x50
 12118 13d2 9F       		.byte	0x9f
 12119 13d3 00000000 		.4byte	0
 12120 13d7 00000000 		.4byte	0
 12121              	.LLST36:
 12122 13db 00000000 		.4byte	.LVL97
 12123 13df 63000000 		.4byte	.LVL118-1
 12124 13e3 0100     		.2byte	0x1
 12125 13e5 51       		.byte	0x51
 12126 13e6 63000000 		.4byte	.LVL118-1
 12127 13ea 68000000 		.4byte	.LFE8
 12128 13ee 0400     		.2byte	0x4
 12129 13f0 F3       		.byte	0xf3
 12130 13f1 01       		.uleb128 0x1
 12131 13f2 51       		.byte	0x51
 12132 13f3 9F       		.byte	0x9f
 12133 13f4 00000000 		.4byte	0
 12134 13f8 00000000 		.4byte	0
 12135              	.LLST37:
 12136 13fc 00000000 		.4byte	.LVL97
 12137 1400 20000000 		.4byte	.LVL101
 12138 1404 0100     		.2byte	0x1
 12139 1406 52       		.byte	0x52
 12140 1407 20000000 		.4byte	.LVL101
 12141 140b 68000000 		.4byte	.LFE8
ARM GAS  C:\Users\Moi\AppData\Local\Temp\ccWeMAis.s 			page 214


 12142 140f 0400     		.2byte	0x4
 12143 1411 F3       		.byte	0xf3
 12144 1412 01       		.uleb128 0x1
 12145 1413 52       		.byte	0x52
 12146 1414 9F       		.byte	0x9f
 12147 1415 00000000 		.4byte	0
 12148 1419 00000000 		.4byte	0
 12149              	.LLST38:
 12150 141d 00000000 		.4byte	.LVL97
 12151 1421 50000000 		.4byte	.LVL113
 12152 1425 0100     		.2byte	0x1
 12153 1427 53       		.byte	0x53
 12154 1428 50000000 		.4byte	.LVL113
 12155 142c 58000000 		.4byte	.LVL114
 12156 1430 0400     		.2byte	0x4
 12157 1432 F3       		.byte	0xf3
 12158 1433 01       		.uleb128 0x1
 12159 1434 53       		.byte	0x53
 12160 1435 9F       		.byte	0x9f
 12161 1436 58000000 		.4byte	.LVL114
 12162 143a 60000000 		.4byte	.LVL117
 12163 143e 0100     		.2byte	0x1
 12164 1440 53       		.byte	0x53
 12165 1441 60000000 		.4byte	.LVL117
 12166 1445 68000000 		.4byte	.LFE8
 12167 1449 0400     		.2byte	0x4
 12168 144b F3       		.byte	0xf3
 12169 144c 01       		.uleb128 0x1
 12170 144d 53       		.byte	0x53
 12171 144e 9F       		.byte	0x9f
 12172 144f 00000000 		.4byte	0
 12173 1453 00000000 		.4byte	0
 12174              	.LLST39:
 12175 1457 18000000 		.4byte	.LVL100
 12176 145b 20000000 		.4byte	.LVL101
 12177 145f 0500     		.2byte	0x5
 12178 1461 72       		.byte	0x72
 12179 1462 00       		.sleb128 0
 12180 1463 37       		.byte	0x37
 12181 1464 1A       		.byte	0x1a
 12182 1465 9F       		.byte	0x9f
 12183 1466 20000000 		.4byte	.LVL101
 12184 146a 4A000000 		.4byte	.LVL112
 12185 146e 0100     		.2byte	0x1
 12186 1470 52       		.byte	0x52
 12187 1471 4A000000 		.4byte	.LVL112
 12188 1475 58000000 		.4byte	.LVL114
 12189 1479 0600     		.2byte	0x6
 12190 147b F3       		.byte	0xf3
 12191 147c 01       		.uleb128 0x1
 12192 147d 52       		.byte	0x52
 12193 147e 37       		.byte	0x37
 12194 147f 1A       		.byte	0x1a
 12195 1480 9F       		.byte	0x9f
 12196 1481 58000000 		.4byte	.LVL114
 12197 1485 60000000 		.4byte	.LVL117
 12198 1489 0100     		.2byte	0x1
ARM GAS  C:\Users\Moi\AppData\Local\Temp\ccWeMAis.s 			page 215


 12199 148b 52       		.byte	0x52
 12200 148c 60000000 		.4byte	.LVL117
 12201 1490 68000000 		.4byte	.LFE8
 12202 1494 0600     		.2byte	0x6
 12203 1496 F3       		.byte	0xf3
 12204 1497 01       		.uleb128 0x1
 12205 1498 52       		.byte	0x52
 12206 1499 37       		.byte	0x37
 12207 149a 1A       		.byte	0x1a
 12208 149b 9F       		.byte	0x9f
 12209 149c 00000000 		.4byte	0
 12210 14a0 00000000 		.4byte	0
 12211              	.LLST40:
 12212 14a4 18000000 		.4byte	.LVL100
 12213 14a8 24000000 		.4byte	.LVL103
 12214 14ac 0100     		.2byte	0x1
 12215 14ae 57       		.byte	0x57
 12216 14af 24000000 		.4byte	.LVL103
 12217 14b3 44000000 		.4byte	.LVL110
 12218 14b7 0100     		.2byte	0x1
 12219 14b9 56       		.byte	0x56
 12220 14ba 44000000 		.4byte	.LVL110
 12221 14be 46000000 		.4byte	.LVL111
 12222 14c2 0300     		.2byte	0x3
 12223 14c4 76       		.byte	0x76
 12224 14c5 01       		.sleb128 1
 12225 14c6 9F       		.byte	0x9f
 12226 14c7 46000000 		.4byte	.LVL111
 12227 14cb 4A000000 		.4byte	.LVL112
 12228 14cf 0100     		.2byte	0x1
 12229 14d1 56       		.byte	0x56
 12230 14d2 58000000 		.4byte	.LVL114
 12231 14d6 5E000000 		.4byte	.LVL116
 12232 14da 0100     		.2byte	0x1
 12233 14dc 56       		.byte	0x56
 12234 14dd 5E000000 		.4byte	.LVL116
 12235 14e1 60000000 		.4byte	.LVL117
 12236 14e5 0300     		.2byte	0x3
 12237 14e7 76       		.byte	0x76
 12238 14e8 01       		.sleb128 1
 12239 14e9 9F       		.byte	0x9f
 12240 14ea 00000000 		.4byte	0
 12241 14ee 00000000 		.4byte	0
 12242              	.LLST41:
 12243 14f2 24000000 		.4byte	.LVL103
 12244 14f6 30000000 		.4byte	.LVL106
 12245 14fa 0200     		.2byte	0x2
 12246 14fc 30       		.byte	0x30
 12247 14fd 9F       		.byte	0x9f
 12248 14fe 30000000 		.4byte	.LVL106
 12249 1502 34000000 		.4byte	.LVL107
 12250 1506 0100     		.2byte	0x1
 12251 1508 52       		.byte	0x52
 12252 1509 34000000 		.4byte	.LVL107
 12253 150d 3C000000 		.4byte	.LVL108
 12254 1511 0100     		.2byte	0x1
 12255 1513 54       		.byte	0x54
ARM GAS  C:\Users\Moi\AppData\Local\Temp\ccWeMAis.s 			page 216


 12256 1514 3C000000 		.4byte	.LVL108
 12257 1518 42000000 		.4byte	.LVL109
 12258 151c 0300     		.2byte	0x3
 12259 151e 74       		.byte	0x74
 12260 151f 7F       		.sleb128 -1
 12261 1520 9F       		.byte	0x9f
 12262 1521 42000000 		.4byte	.LVL109
 12263 1525 4A000000 		.4byte	.LVL112
 12264 1529 0100     		.2byte	0x1
 12265 152b 54       		.byte	0x54
 12266 152c 58000000 		.4byte	.LVL114
 12267 1530 5C000000 		.4byte	.LVL115
 12268 1534 0100     		.2byte	0x1
 12269 1536 54       		.byte	0x54
 12270 1537 00000000 		.4byte	0
 12271 153b 00000000 		.4byte	0
 12272              	.LLST42:
 12273 153f 28000000 		.4byte	.LVL104
 12274 1543 2E000000 		.4byte	.LVL105
 12275 1547 0100     		.2byte	0x1
 12276 1549 55       		.byte	0x55
 12277 154a 2E000000 		.4byte	.LVL105
 12278 154e 30000000 		.4byte	.LVL106
 12279 1552 0200     		.2byte	0x2
 12280 1554 70       		.byte	0x70
 12281 1555 00       		.sleb128 0
 12282 1556 30000000 		.4byte	.LVL106
 12283 155a 4A000000 		.4byte	.LVL112
 12284 155e 0100     		.2byte	0x1
 12285 1560 55       		.byte	0x55
 12286 1561 58000000 		.4byte	.LVL114
 12287 1565 60000000 		.4byte	.LVL117
 12288 1569 0100     		.2byte	0x1
 12289 156b 55       		.byte	0x55
 12290 156c 00000000 		.4byte	0
 12291 1570 00000000 		.4byte	0
 12292              	.LLST43:
 12293 1574 0E000000 		.4byte	.LVL98
 12294 1578 4A000000 		.4byte	.LVL112
 12295 157c 0200     		.2byte	0x2
 12296 157e 30       		.byte	0x30
 12297 157f 9F       		.byte	0x9f
 12298 1580 58000000 		.4byte	.LVL114
 12299 1584 60000000 		.4byte	.LVL117
 12300 1588 0200     		.2byte	0x2
 12301 158a 31       		.byte	0x31
 12302 158b 9F       		.byte	0x9f
 12303 158c 00000000 		.4byte	0
 12304 1590 00000000 		.4byte	0
 12305              	.LLST32:
 12306 1594 00000000 		.4byte	.LVL86
 12307 1598 11000000 		.4byte	.LVL88-1
 12308 159c 0100     		.2byte	0x1
 12309 159e 50       		.byte	0x50
 12310 159f 11000000 		.4byte	.LVL88-1
 12311 15a3 4C000000 		.4byte	.LFE7
 12312 15a7 0100     		.2byte	0x1
ARM GAS  C:\Users\Moi\AppData\Local\Temp\ccWeMAis.s 			page 217


 12313 15a9 55       		.byte	0x55
 12314 15aa 00000000 		.4byte	0
 12315 15ae 00000000 		.4byte	0
 12316              	.LLST33:
 12317 15b2 0A000000 		.4byte	.LVL87
 12318 15b6 12000000 		.4byte	.LVL88
 12319 15ba 0200     		.2byte	0x2
 12320 15bc 30       		.byte	0x30
 12321 15bd 9F       		.byte	0x9f
 12322 15be 12000000 		.4byte	.LVL88
 12323 15c2 24000000 		.4byte	.LVL90
 12324 15c6 0100     		.2byte	0x1
 12325 15c8 50       		.byte	0x50
 12326 15c9 28000000 		.4byte	.LVL91
 12327 15cd 38000000 		.4byte	.LVL93
 12328 15d1 0100     		.2byte	0x1
 12329 15d3 50       		.byte	0x50
 12330 15d4 3C000000 		.4byte	.LVL94
 12331 15d8 47000000 		.4byte	.LVL96-1
 12332 15dc 0100     		.2byte	0x1
 12333 15de 50       		.byte	0x50
 12334 15df 00000000 		.4byte	0
 12335 15e3 00000000 		.4byte	0
 12336              	.LLST34:
 12337 15e7 34000000 		.4byte	.LVL92
 12338 15eb 44000000 		.4byte	.LVL95
 12339 15ef 0100     		.2byte	0x1
 12340 15f1 56       		.byte	0x56
 12341 15f2 00000000 		.4byte	0
 12342 15f6 00000000 		.4byte	0
 12343              	.LLST28:
 12344 15fa 00000000 		.4byte	.LVL74
 12345 15fe 15000000 		.4byte	.LVL77-1
 12346 1602 0100     		.2byte	0x1
 12347 1604 50       		.byte	0x50
 12348 1605 15000000 		.4byte	.LVL77-1
 12349 1609 54000000 		.4byte	.LFE6
 12350 160d 0400     		.2byte	0x4
 12351 160f F3       		.byte	0xf3
 12352 1610 01       		.uleb128 0x1
 12353 1611 50       		.byte	0x50
 12354 1612 9F       		.byte	0x9f
 12355 1613 00000000 		.4byte	0
 12356 1617 00000000 		.4byte	0
 12357              	.LLST29:
 12358 161b 00000000 		.4byte	.LVL74
 12359 161f 12000000 		.4byte	.LVL76
 12360 1623 0100     		.2byte	0x1
 12361 1625 51       		.byte	0x51
 12362 1626 12000000 		.4byte	.LVL76
 12363 162a 54000000 		.4byte	.LFE6
 12364 162e 0100     		.2byte	0x1
 12365 1630 55       		.byte	0x55
 12366 1631 00000000 		.4byte	0
 12367 1635 00000000 		.4byte	0
 12368              	.LLST30:
 12369 1639 0C000000 		.4byte	.LVL75
ARM GAS  C:\Users\Moi\AppData\Local\Temp\ccWeMAis.s 			page 218


 12370 163d 16000000 		.4byte	.LVL77
 12371 1641 0200     		.2byte	0x2
 12372 1643 30       		.byte	0x30
 12373 1644 9F       		.byte	0x9f
 12374 1645 16000000 		.4byte	.LVL77
 12375 1649 4F000000 		.4byte	.LVL85-1
 12376 164d 0100     		.2byte	0x1
 12377 164f 50       		.byte	0x50
 12378 1650 00000000 		.4byte	0
 12379 1654 00000000 		.4byte	0
 12380              	.LLST31:
 12381 1658 20000000 		.4byte	.LVL78
 12382 165c 2C000000 		.4byte	.LVL79
 12383 1660 0100     		.2byte	0x1
 12384 1662 53       		.byte	0x53
 12385 1663 2C000000 		.4byte	.LVL79
 12386 1667 2E000000 		.4byte	.LVL80
 12387 166b 0F00     		.2byte	0xf
 12388 166d 91       		.byte	0x91
 12389 166e 6A       		.sleb128 -22
 12390 166f 94       		.byte	0x94
 12391 1670 02       		.byte	0x2
 12392 1671 0A       		.byte	0xa
 12393 1672 FFFF     		.2byte	0xffff
 12394 1674 1A       		.byte	0x1a
 12395 1675 09       		.byte	0x9
 12396 1676 F8       		.byte	0xf8
 12397 1677 24       		.byte	0x24
 12398 1678 09       		.byte	0x9
 12399 1679 F8       		.byte	0xf8
 12400 167a 25       		.byte	0x25
 12401 167b 9F       		.byte	0x9f
 12402 167c 3A000000 		.4byte	.LVL81
 12403 1680 3E000000 		.4byte	.LVL82
 12404 1684 0100     		.2byte	0x1
 12405 1686 53       		.byte	0x53
 12406 1687 3E000000 		.4byte	.LVL82
 12407 168b 46000000 		.4byte	.LVL83
 12408 168f 0400     		.2byte	0x4
 12409 1691 73       		.byte	0x73
 12410 1692 8020     		.sleb128 4096
 12411 1694 9F       		.byte	0x9f
 12412 1695 46000000 		.4byte	.LVL83
 12413 1699 4C000000 		.4byte	.LVL84
 12414 169d 0F00     		.2byte	0xf
 12415 169f 91       		.byte	0x91
 12416 16a0 6A       		.sleb128 -22
 12417 16a1 94       		.byte	0x94
 12418 16a2 02       		.byte	0x2
 12419 16a3 0A       		.byte	0xa
 12420 16a4 FFFF     		.2byte	0xffff
 12421 16a6 1A       		.byte	0x1a
 12422 16a7 09       		.byte	0x9
 12423 16a8 F8       		.byte	0xf8
 12424 16a9 24       		.byte	0x24
 12425 16aa 09       		.byte	0x9
 12426 16ab F8       		.byte	0xf8
ARM GAS  C:\Users\Moi\AppData\Local\Temp\ccWeMAis.s 			page 219


 12427 16ac 25       		.byte	0x25
 12428 16ad 9F       		.byte	0x9f
 12429 16ae 00000000 		.4byte	0
 12430 16b2 00000000 		.4byte	0
 12431              	.LLST26:
 12432 16b6 00000000 		.4byte	.LVL67
 12433 16ba 3F000000 		.4byte	.LVL70-1
 12434 16be 0100     		.2byte	0x1
 12435 16c0 50       		.byte	0x50
 12436 16c1 3F000000 		.4byte	.LVL70-1
 12437 16c5 40000000 		.4byte	.LVL70
 12438 16c9 0400     		.2byte	0x4
 12439 16cb F3       		.byte	0xf3
 12440 16cc 01       		.uleb128 0x1
 12441 16cd 50       		.byte	0x50
 12442 16ce 9F       		.byte	0x9f
 12443 16cf 40000000 		.4byte	.LVL70
 12444 16d3 4F000000 		.4byte	.LVL73-1
 12445 16d7 0100     		.2byte	0x1
 12446 16d9 50       		.byte	0x50
 12447 16da 4F000000 		.4byte	.LVL73-1
 12448 16de 5C000000 		.4byte	.LFE5
 12449 16e2 0400     		.2byte	0x4
 12450 16e4 F3       		.byte	0xf3
 12451 16e5 01       		.uleb128 0x1
 12452 16e6 50       		.byte	0x50
 12453 16e7 9F       		.byte	0x9f
 12454 16e8 00000000 		.4byte	0
 12455 16ec 00000000 		.4byte	0
 12456              	.LLST27:
 12457 16f0 00000000 		.4byte	.LVL67
 12458 16f4 2E000000 		.4byte	.LVL69
 12459 16f8 0100     		.2byte	0x1
 12460 16fa 51       		.byte	0x51
 12461 16fb 2E000000 		.4byte	.LVL69
 12462 16ff 40000000 		.4byte	.LVL70
 12463 1703 0400     		.2byte	0x4
 12464 1705 F3       		.byte	0xf3
 12465 1706 01       		.uleb128 0x1
 12466 1707 51       		.byte	0x51
 12467 1708 9F       		.byte	0x9f
 12468 1709 40000000 		.4byte	.LVL70
 12469 170d 4C000000 		.4byte	.LVL72
 12470 1711 0100     		.2byte	0x1
 12471 1713 51       		.byte	0x51
 12472 1714 4C000000 		.4byte	.LVL72
 12473 1718 5C000000 		.4byte	.LFE5
 12474 171c 0400     		.2byte	0x4
 12475 171e F3       		.byte	0xf3
 12476 171f 01       		.uleb128 0x1
 12477 1720 51       		.byte	0x51
 12478 1721 9F       		.byte	0x9f
 12479 1722 00000000 		.4byte	0
 12480 1726 00000000 		.4byte	0
 12481              	.LLST16:
 12482 172a 00000000 		.4byte	.LVL38
 12483 172e 12000000 		.4byte	.LVL40
ARM GAS  C:\Users\Moi\AppData\Local\Temp\ccWeMAis.s 			page 220


 12484 1732 0100     		.2byte	0x1
 12485 1734 50       		.byte	0x50
 12486 1735 12000000 		.4byte	.LVL40
 12487 1739 20000000 		.4byte	.LVL41
 12488 173d 0400     		.2byte	0x4
 12489 173f F3       		.byte	0xf3
 12490 1740 01       		.uleb128 0x1
 12491 1741 50       		.byte	0x50
 12492 1742 9F       		.byte	0x9f
 12493 1743 20000000 		.4byte	.LVL41
 12494 1747 2B000000 		.4byte	.LVL43-1
 12495 174b 0100     		.2byte	0x1
 12496 174d 50       		.byte	0x50
 12497 174e 2B000000 		.4byte	.LVL43-1
 12498 1752 DE000000 		.4byte	.LVL65
 12499 1756 0100     		.2byte	0x1
 12500 1758 55       		.byte	0x55
 12501 1759 DE000000 		.4byte	.LVL65
 12502 175d E8000000 		.4byte	.LFE4
 12503 1761 0400     		.2byte	0x4
 12504 1763 F3       		.byte	0xf3
 12505 1764 01       		.uleb128 0x1
 12506 1765 50       		.byte	0x50
 12507 1766 9F       		.byte	0x9f
 12508 1767 00000000 		.4byte	0
 12509 176b 00000000 		.4byte	0
 12510              	.LLST17:
 12511 176f 00000000 		.4byte	.LVL38
 12512 1773 12000000 		.4byte	.LVL40
 12513 1777 0100     		.2byte	0x1
 12514 1779 51       		.byte	0x51
 12515 177a 12000000 		.4byte	.LVL40
 12516 177e 20000000 		.4byte	.LVL41
 12517 1782 0400     		.2byte	0x4
 12518 1784 F3       		.byte	0xf3
 12519 1785 01       		.uleb128 0x1
 12520 1786 51       		.byte	0x51
 12521 1787 9F       		.byte	0x9f
 12522 1788 20000000 		.4byte	.LVL41
 12523 178c 24000000 		.4byte	.LVL42
 12524 1790 0100     		.2byte	0x1
 12525 1792 51       		.byte	0x51
 12526 1793 24000000 		.4byte	.LVL42
 12527 1797 A4000000 		.4byte	.LVL59
 12528 179b 0100     		.2byte	0x1
 12529 179d 58       		.byte	0x58
 12530 179e A4000000 		.4byte	.LVL59
 12531 17a2 D8000000 		.4byte	.LVL64
 12532 17a6 0400     		.2byte	0x4
 12533 17a8 F3       		.byte	0xf3
 12534 17a9 01       		.uleb128 0x1
 12535 17aa 51       		.byte	0x51
 12536 17ab 9F       		.byte	0x9f
 12537 17ac D8000000 		.4byte	.LVL64
 12538 17b0 DE000000 		.4byte	.LVL65
 12539 17b4 0100     		.2byte	0x1
 12540 17b6 58       		.byte	0x58
ARM GAS  C:\Users\Moi\AppData\Local\Temp\ccWeMAis.s 			page 221


 12541 17b7 DE000000 		.4byte	.LVL65
 12542 17bb E8000000 		.4byte	.LFE4
 12543 17bf 0400     		.2byte	0x4
 12544 17c1 F3       		.byte	0xf3
 12545 17c2 01       		.uleb128 0x1
 12546 17c3 51       		.byte	0x51
 12547 17c4 9F       		.byte	0x9f
 12548 17c5 00000000 		.4byte	0
 12549 17c9 00000000 		.4byte	0
 12550              	.LLST18:
 12551 17cd 00000000 		.4byte	.LVL38
 12552 17d1 12000000 		.4byte	.LVL40
 12553 17d5 0100     		.2byte	0x1
 12554 17d7 52       		.byte	0x52
 12555 17d8 12000000 		.4byte	.LVL40
 12556 17dc 20000000 		.4byte	.LVL41
 12557 17e0 0400     		.2byte	0x4
 12558 17e2 F3       		.byte	0xf3
 12559 17e3 01       		.uleb128 0x1
 12560 17e4 52       		.byte	0x52
 12561 17e5 9F       		.byte	0x9f
 12562 17e6 20000000 		.4byte	.LVL41
 12563 17ea 2B000000 		.4byte	.LVL43-1
 12564 17ee 0100     		.2byte	0x1
 12565 17f0 52       		.byte	0x52
 12566 17f1 2B000000 		.4byte	.LVL43-1
 12567 17f5 DE000000 		.4byte	.LVL65
 12568 17f9 0100     		.2byte	0x1
 12569 17fb 59       		.byte	0x59
 12570 17fc DE000000 		.4byte	.LVL65
 12571 1800 E8000000 		.4byte	.LFE4
 12572 1804 0400     		.2byte	0x4
 12573 1806 F3       		.byte	0xf3
 12574 1807 01       		.uleb128 0x1
 12575 1808 52       		.byte	0x52
 12576 1809 9F       		.byte	0x9f
 12577 180a 00000000 		.4byte	0
 12578 180e 00000000 		.4byte	0
 12579              	.LLST19:
 12580 1812 0C000000 		.4byte	.LVL39
 12581 1816 12000000 		.4byte	.LVL40
 12582 181a 0200     		.2byte	0x2
 12583 181c 30       		.byte	0x30
 12584 181d 9F       		.byte	0x9f
 12585 181e 12000000 		.4byte	.LVL40
 12586 1822 20000000 		.4byte	.LVL41
 12587 1826 0100     		.2byte	0x1
 12588 1828 50       		.byte	0x50
 12589 1829 20000000 		.4byte	.LVL41
 12590 182d 2C000000 		.4byte	.LVL43
 12591 1831 0200     		.2byte	0x2
 12592 1833 30       		.byte	0x30
 12593 1834 9F       		.byte	0x9f
 12594 1835 2C000000 		.4byte	.LVL43
 12595 1839 38000000 		.4byte	.LVL44
 12596 183d 0100     		.2byte	0x1
 12597 183f 50       		.byte	0x50
ARM GAS  C:\Users\Moi\AppData\Local\Temp\ccWeMAis.s 			page 222


 12598 1840 3C000000 		.4byte	.LVL45
 12599 1844 46000000 		.4byte	.LVL46
 12600 1848 0100     		.2byte	0x1
 12601 184a 50       		.byte	0x50
 12602 184b 4A000000 		.4byte	.LVL47
 12603 184f 54000000 		.4byte	.LVL48
 12604 1853 0100     		.2byte	0x1
 12605 1855 50       		.byte	0x50
 12606 1856 58000000 		.4byte	.LVL49
 12607 185a 76000000 		.4byte	.LVL52
 12608 185e 0100     		.2byte	0x1
 12609 1860 50       		.byte	0x50
 12610 1861 76000000 		.4byte	.LVL52
 12611 1865 82000000 		.4byte	.LVL55
 12612 1869 0200     		.2byte	0x2
 12613 186b 30       		.byte	0x30
 12614 186c 9F       		.byte	0x9f
 12615 186d 82000000 		.4byte	.LVL55
 12616 1871 8E000000 		.4byte	.LVL56
 12617 1875 0100     		.2byte	0x1
 12618 1877 50       		.byte	0x50
 12619 1878 90000000 		.4byte	.LVL57
 12620 187c C0000000 		.4byte	.LVL61
 12621 1880 0200     		.2byte	0x2
 12622 1882 30       		.byte	0x30
 12623 1883 9F       		.byte	0x9f
 12624 1884 C0000000 		.4byte	.LVL61
 12625 1888 D0000000 		.4byte	.LVL62
 12626 188c 0100     		.2byte	0x1
 12627 188e 50       		.byte	0x50
 12628 188f D6000000 		.4byte	.LVL63
 12629 1893 D8000000 		.4byte	.LVL64
 12630 1897 0100     		.2byte	0x1
 12631 1899 50       		.byte	0x50
 12632 189a D8000000 		.4byte	.LVL64
 12633 189e DE000000 		.4byte	.LVL65
 12634 18a2 0200     		.2byte	0x2
 12635 18a4 30       		.byte	0x30
 12636 18a5 9F       		.byte	0x9f
 12637 18a6 DE000000 		.4byte	.LVL65
 12638 18aa E1000000 		.4byte	.LVL66-1
 12639 18ae 0100     		.2byte	0x1
 12640 18b0 50       		.byte	0x50
 12641 18b1 00000000 		.4byte	0
 12642 18b5 00000000 		.4byte	0
 12643              	.LLST20:
 12644 18b9 0C000000 		.4byte	.LVL39
 12645 18bd 12000000 		.4byte	.LVL40
 12646 18c1 0200     		.2byte	0x2
 12647 18c3 30       		.byte	0x30
 12648 18c4 9F       		.byte	0x9f
 12649 18c5 20000000 		.4byte	.LVL41
 12650 18c9 64000000 		.4byte	.LVL50
 12651 18cd 0200     		.2byte	0x2
 12652 18cf 30       		.byte	0x30
 12653 18d0 9F       		.byte	0x9f
 12654 18d1 64000000 		.4byte	.LVL50
ARM GAS  C:\Users\Moi\AppData\Local\Temp\ccWeMAis.s 			page 223


 12655 18d5 DE000000 		.4byte	.LVL65
 12656 18d9 0100     		.2byte	0x1
 12657 18db 5A       		.byte	0x5a
 12658 18dc 00000000 		.4byte	0
 12659 18e0 00000000 		.4byte	0
 12660              	.LLST21:
 12661 18e4 0C000000 		.4byte	.LVL39
 12662 18e8 12000000 		.4byte	.LVL40
 12663 18ec 0200     		.2byte	0x2
 12664 18ee 30       		.byte	0x30
 12665 18ef 9F       		.byte	0x9f
 12666 18f0 20000000 		.4byte	.LVL41
 12667 18f4 64000000 		.4byte	.LVL50
 12668 18f8 0200     		.2byte	0x2
 12669 18fa 30       		.byte	0x30
 12670 18fb 9F       		.byte	0x9f
 12671 18fc 64000000 		.4byte	.LVL50
 12672 1900 72000000 		.4byte	.LVL51
 12673 1904 0100     		.2byte	0x1
 12674 1906 56       		.byte	0x56
 12675 1907 72000000 		.4byte	.LVL51
 12676 190b 76000000 		.4byte	.LVL52
 12677 190f 0300     		.2byte	0x3
 12678 1911 76       		.byte	0x76
 12679 1912 7F       		.sleb128 -1
 12680 1913 9F       		.byte	0x9f
 12681 1914 76000000 		.4byte	.LVL52
 12682 1918 DE000000 		.4byte	.LVL65
 12683 191c 0100     		.2byte	0x1
 12684 191e 56       		.byte	0x56
 12685 191f 00000000 		.4byte	0
 12686 1923 00000000 		.4byte	0
 12687              	.LLST22:
 12688 1927 92000000 		.4byte	.LVL58
 12689 192b D8000000 		.4byte	.LVL64
 12690 192f 1200     		.2byte	0x12
 12691 1931 7A       		.byte	0x7a
 12692 1932 00       		.sleb128 0
 12693 1933 0A       		.byte	0xa
 12694 1934 FFFF     		.2byte	0xffff
 12695 1936 1A       		.byte	0x1a
 12696 1937 40       		.byte	0x40
 12697 1938 24       		.byte	0x24
 12698 1939 F7       		.byte	0xf7
 12699 193a 25       		.uleb128 0x25
 12700 193b 76       		.byte	0x76
 12701 193c 00       		.sleb128 0
 12702 193d F7       		.byte	0xf7
 12703 193e 25       		.uleb128 0x25
 12704 193f 1B       		.byte	0x1b
 12705 1940 F7       		.byte	0xf7
 12706 1941 00       		.uleb128 0
 12707 1942 9F       		.byte	0x9f
 12708 1943 00000000 		.4byte	0
 12709 1947 00000000 		.4byte	0
 12710              	.LLST23:
 12711 194b 92000000 		.4byte	.LVL58
ARM GAS  C:\Users\Moi\AppData\Local\Temp\ccWeMAis.s 			page 224


 12712 194f D8000000 		.4byte	.LVL64
 12713 1953 1800     		.2byte	0x18
 12714 1955 7A       		.byte	0x7a
 12715 1956 00       		.sleb128 0
 12716 1957 0A       		.byte	0xa
 12717 1958 FFFF     		.2byte	0xffff
 12718 195a 1A       		.byte	0x1a
 12719 195b 40       		.byte	0x40
 12720 195c 24       		.byte	0x24
 12721 195d F7       		.byte	0xf7
 12722 195e 25       		.uleb128 0x25
 12723 195f 76       		.byte	0x76
 12724 1960 00       		.sleb128 0
 12725 1961 F7       		.byte	0xf7
 12726 1962 25       		.uleb128 0x25
 12727 1963 1B       		.byte	0x1b
 12728 1964 F7       		.byte	0xf7
 12729 1965 00       		.uleb128 0
 12730 1966 23       		.byte	0x23
 12731 1967 808002   		.uleb128 0x8000
 12732 196a 40       		.byte	0x40
 12733 196b 25       		.byte	0x25
 12734 196c 9F       		.byte	0x9f
 12735 196d 00000000 		.4byte	0
 12736 1971 00000000 		.4byte	0
 12737              	.LLST24:
 12738 1975 92000000 		.4byte	.LVL58
 12739 1979 A4000000 		.4byte	.LVL59
 12740 197d 0700     		.2byte	0x7
 12741 197f 78       		.byte	0x78
 12742 1980 808002   		.sleb128 32768
 12743 1983 40       		.byte	0x40
 12744 1984 25       		.byte	0x25
 12745 1985 9F       		.byte	0x9f
 12746 1986 A4000000 		.4byte	.LVL59
 12747 198a A8000000 		.4byte	.LVL60
 12748 198e 0500     		.2byte	0x5
 12749 1990 78       		.byte	0x78
 12750 1991 00       		.sleb128 0
 12751 1992 40       		.byte	0x40
 12752 1993 25       		.byte	0x25
 12753 1994 9F       		.byte	0x9f
 12754 1995 A8000000 		.4byte	.LVL60
 12755 1999 D8000000 		.4byte	.LVL64
 12756 199d 0A00     		.2byte	0xa
 12757 199f F3       		.byte	0xf3
 12758 19a0 01       		.uleb128 0x1
 12759 19a1 51       		.byte	0x51
 12760 19a2 23       		.byte	0x23
 12761 19a3 808002   		.uleb128 0x8000
 12762 19a6 40       		.byte	0x40
 12763 19a7 25       		.byte	0x25
 12764 19a8 9F       		.byte	0x9f
 12765 19a9 00000000 		.4byte	0
 12766 19ad 00000000 		.4byte	0
 12767              	.LLST25:
 12768 19b1 0C000000 		.4byte	.LVL39
ARM GAS  C:\Users\Moi\AppData\Local\Temp\ccWeMAis.s 			page 225


 12769 19b5 12000000 		.4byte	.LVL40
 12770 19b9 0200     		.2byte	0x2
 12771 19bb 30       		.byte	0x30
 12772 19bc 9F       		.byte	0x9f
 12773 19bd 20000000 		.4byte	.LVL41
 12774 19c1 64000000 		.4byte	.LVL50
 12775 19c5 0200     		.2byte	0x2
 12776 19c7 30       		.byte	0x30
 12777 19c8 9F       		.byte	0x9f
 12778 19c9 64000000 		.4byte	.LVL50
 12779 19cd 76000000 		.4byte	.LVL52
 12780 19d1 0600     		.2byte	0x6
 12781 19d3 08       		.byte	0x8
 12782 19d4 32       		.byte	0x32
 12783 19d5 74       		.byte	0x74
 12784 19d6 00       		.sleb128 0
 12785 19d7 1C       		.byte	0x1c
 12786 19d8 9F       		.byte	0x9f
 12787 19d9 76000000 		.4byte	.LVL52
 12788 19dd 78000000 		.4byte	.LVL53
 12789 19e1 0600     		.2byte	0x6
 12790 19e3 08       		.byte	0x8
 12791 19e4 33       		.byte	0x33
 12792 19e5 74       		.byte	0x74
 12793 19e6 00       		.sleb128 0
 12794 19e7 1C       		.byte	0x1c
 12795 19e8 9F       		.byte	0x9f
 12796 19e9 78000000 		.4byte	.LVL53
 12797 19ed DE000000 		.4byte	.LVL65
 12798 19f1 0600     		.2byte	0x6
 12799 19f3 08       		.byte	0x8
 12800 19f4 32       		.byte	0x32
 12801 19f5 74       		.byte	0x74
 12802 19f6 00       		.sleb128 0
 12803 19f7 1C       		.byte	0x1c
 12804 19f8 9F       		.byte	0x9f
 12805 19f9 00000000 		.4byte	0
 12806 19fd 00000000 		.4byte	0
 12807              	.LLST0:
 12808 1a01 00000000 		.4byte	.LVL0
 12809 1a05 18000000 		.4byte	.LVL2
 12810 1a09 0100     		.2byte	0x1
 12811 1a0b 50       		.byte	0x50
 12812 1a0c 18000000 		.4byte	.LVL2
 12813 1a10 28000000 		.4byte	.LVL3
 12814 1a14 0400     		.2byte	0x4
 12815 1a16 F3       		.byte	0xf3
 12816 1a17 01       		.uleb128 0x1
 12817 1a18 50       		.byte	0x50
 12818 1a19 9F       		.byte	0x9f
 12819 1a1a 28000000 		.4byte	.LVL3
 12820 1a1e 31000000 		.4byte	.LVL5-1
 12821 1a22 0100     		.2byte	0x1
 12822 1a24 50       		.byte	0x50
 12823 1a25 31000000 		.4byte	.LVL5-1
 12824 1a29 F0000000 		.4byte	.LVL36
 12825 1a2d 0100     		.2byte	0x1
ARM GAS  C:\Users\Moi\AppData\Local\Temp\ccWeMAis.s 			page 226


 12826 1a2f 56       		.byte	0x56
 12827 1a30 F0000000 		.4byte	.LVL36
 12828 1a34 F8000000 		.4byte	.LFE3
 12829 1a38 0400     		.2byte	0x4
 12830 1a3a F3       		.byte	0xf3
 12831 1a3b 01       		.uleb128 0x1
 12832 1a3c 50       		.byte	0x50
 12833 1a3d 9F       		.byte	0x9f
 12834 1a3e 00000000 		.4byte	0
 12835 1a42 00000000 		.4byte	0
 12836              	.LLST1:
 12837 1a46 00000000 		.4byte	.LVL0
 12838 1a4a 18000000 		.4byte	.LVL2
 12839 1a4e 0100     		.2byte	0x1
 12840 1a50 51       		.byte	0x51
 12841 1a51 18000000 		.4byte	.LVL2
 12842 1a55 28000000 		.4byte	.LVL3
 12843 1a59 0400     		.2byte	0x4
 12844 1a5b F3       		.byte	0xf3
 12845 1a5c 01       		.uleb128 0x1
 12846 1a5d 51       		.byte	0x51
 12847 1a5e 9F       		.byte	0x9f
 12848 1a5f 28000000 		.4byte	.LVL3
 12849 1a63 2C000000 		.4byte	.LVL4
 12850 1a67 0100     		.2byte	0x1
 12851 1a69 51       		.byte	0x51
 12852 1a6a 2C000000 		.4byte	.LVL4
 12853 1a6e F0000000 		.4byte	.LVL36
 12854 1a72 0100     		.2byte	0x1
 12855 1a74 5A       		.byte	0x5a
 12856 1a75 F0000000 		.4byte	.LVL36
 12857 1a79 F8000000 		.4byte	.LFE3
 12858 1a7d 0400     		.2byte	0x4
 12859 1a7f F3       		.byte	0xf3
 12860 1a80 01       		.uleb128 0x1
 12861 1a81 51       		.byte	0x51
 12862 1a82 9F       		.byte	0x9f
 12863 1a83 00000000 		.4byte	0
 12864 1a87 00000000 		.4byte	0
 12865              	.LLST2:
 12866 1a8b 00000000 		.4byte	.LVL0
 12867 1a8f 18000000 		.4byte	.LVL2
 12868 1a93 0100     		.2byte	0x1
 12869 1a95 52       		.byte	0x52
 12870 1a96 18000000 		.4byte	.LVL2
 12871 1a9a 28000000 		.4byte	.LVL3
 12872 1a9e 0300     		.2byte	0x3
 12873 1aa0 91       		.byte	0x91
 12874 1aa1 B47F     		.sleb128 -76
 12875 1aa3 28000000 		.4byte	.LVL3
 12876 1aa7 31000000 		.4byte	.LVL5-1
 12877 1aab 0100     		.2byte	0x1
 12878 1aad 52       		.byte	0x52
 12879 1aae 31000000 		.4byte	.LVL5-1
 12880 1ab2 F8000000 		.4byte	.LFE3
 12881 1ab6 0300     		.2byte	0x3
 12882 1ab8 91       		.byte	0x91
ARM GAS  C:\Users\Moi\AppData\Local\Temp\ccWeMAis.s 			page 227


 12883 1ab9 B47F     		.sleb128 -76
 12884 1abb 00000000 		.4byte	0
 12885 1abf 00000000 		.4byte	0
 12886              	.LLST3:
 12887 1ac3 10000000 		.4byte	.LVL1
 12888 1ac7 18000000 		.4byte	.LVL2
 12889 1acb 0200     		.2byte	0x2
 12890 1acd 30       		.byte	0x30
 12891 1ace 9F       		.byte	0x9f
 12892 1acf 18000000 		.4byte	.LVL2
 12893 1ad3 28000000 		.4byte	.LVL3
 12894 1ad7 0100     		.2byte	0x1
 12895 1ad9 50       		.byte	0x50
 12896 1ada 28000000 		.4byte	.LVL3
 12897 1ade 32000000 		.4byte	.LVL5
 12898 1ae2 0200     		.2byte	0x2
 12899 1ae4 30       		.byte	0x30
 12900 1ae5 9F       		.byte	0x9f
 12901 1ae6 32000000 		.4byte	.LVL5
 12902 1aea 3C000000 		.4byte	.LVL6
 12903 1aee 0100     		.2byte	0x1
 12904 1af0 50       		.byte	0x50
 12905 1af1 40000000 		.4byte	.LVL7
 12906 1af5 5C000000 		.4byte	.LVL9
 12907 1af9 0100     		.2byte	0x1
 12908 1afb 50       		.byte	0x50
 12909 1afc 70000000 		.4byte	.LVL14
 12910 1b00 82000000 		.4byte	.LVL17
 12911 1b04 0200     		.2byte	0x2
 12912 1b06 30       		.byte	0x30
 12913 1b07 9F       		.byte	0x9f
 12914 1b08 82000000 		.4byte	.LVL17
 12915 1b0c 8E000000 		.4byte	.LVL18
 12916 1b10 0100     		.2byte	0x1
 12917 1b12 50       		.byte	0x50
 12918 1b13 90000000 		.4byte	.LVL19
 12919 1b17 DE000000 		.4byte	.LVL31
 12920 1b1b 0200     		.2byte	0x2
 12921 1b1d 30       		.byte	0x30
 12922 1b1e 9F       		.byte	0x9f
 12923 1b1f DE000000 		.4byte	.LVL31
 12924 1b23 E6000000 		.4byte	.LVL32
 12925 1b27 0100     		.2byte	0x1
 12926 1b29 50       		.byte	0x50
 12927 1b2a EA000000 		.4byte	.LVL33
 12928 1b2e EC000000 		.4byte	.LVL34
 12929 1b32 0100     		.2byte	0x1
 12930 1b34 50       		.byte	0x50
 12931 1b35 EC000000 		.4byte	.LVL34
 12932 1b39 F0000000 		.4byte	.LVL36
 12933 1b3d 0200     		.2byte	0x2
 12934 1b3f 30       		.byte	0x30
 12935 1b40 9F       		.byte	0x9f
 12936 1b41 F0000000 		.4byte	.LVL36
 12937 1b45 F3000000 		.4byte	.LVL37-1
 12938 1b49 0100     		.2byte	0x1
 12939 1b4b 50       		.byte	0x50
ARM GAS  C:\Users\Moi\AppData\Local\Temp\ccWeMAis.s 			page 228


 12940 1b4c 00000000 		.4byte	0
 12941 1b50 00000000 		.4byte	0
 12942              	.LLST4:
 12943 1b54 10000000 		.4byte	.LVL1
 12944 1b58 18000000 		.4byte	.LVL2
 12945 1b5c 0200     		.2byte	0x2
 12946 1b5e 30       		.byte	0x30
 12947 1b5f 9F       		.byte	0x9f
 12948 1b60 28000000 		.4byte	.LVL3
 12949 1b64 52000000 		.4byte	.LVL8
 12950 1b68 0200     		.2byte	0x2
 12951 1b6a 30       		.byte	0x30
 12952 1b6b 9F       		.byte	0x9f
 12953 1b6c 52000000 		.4byte	.LVL8
 12954 1b70 64000000 		.4byte	.LVL10
 12955 1b74 0100     		.2byte	0x1
 12956 1b76 57       		.byte	0x57
 12957 1b77 6C000000 		.4byte	.LVL13
 12958 1b7b B0000000 		.4byte	.LVL26
 12959 1b7f 0100     		.2byte	0x1
 12960 1b81 57       		.byte	0x57
 12961 1b82 00000000 		.4byte	0
 12962 1b86 00000000 		.4byte	0
 12963              	.LLST5:
 12964 1b8a 10000000 		.4byte	.LVL1
 12965 1b8e 18000000 		.4byte	.LVL2
 12966 1b92 0200     		.2byte	0x2
 12967 1b94 30       		.byte	0x30
 12968 1b95 9F       		.byte	0x9f
 12969 1b96 28000000 		.4byte	.LVL3
 12970 1b9a 52000000 		.4byte	.LVL8
 12971 1b9e 0200     		.2byte	0x2
 12972 1ba0 30       		.byte	0x30
 12973 1ba1 9F       		.byte	0x9f
 12974 1ba2 52000000 		.4byte	.LVL8
 12975 1ba6 68000000 		.4byte	.LVL11
 12976 1baa 0100     		.2byte	0x1
 12977 1bac 54       		.byte	0x54
 12978 1bad 70000000 		.4byte	.LVL14
 12979 1bb1 9A000000 		.4byte	.LVL21
 12980 1bb5 0100     		.2byte	0x1
 12981 1bb7 54       		.byte	0x54
 12982 1bb8 00000000 		.4byte	0
 12983 1bbc 00000000 		.4byte	0
 12984              	.LLST6:
 12985 1bc0 10000000 		.4byte	.LVL1
 12986 1bc4 18000000 		.4byte	.LVL2
 12987 1bc8 0200     		.2byte	0x2
 12988 1bca 30       		.byte	0x30
 12989 1bcb 9F       		.byte	0x9f
 12990 1bcc 28000000 		.4byte	.LVL3
 12991 1bd0 52000000 		.4byte	.LVL8
 12992 1bd4 0200     		.2byte	0x2
 12993 1bd6 30       		.byte	0x30
 12994 1bd7 9F       		.byte	0x9f
 12995 1bd8 52000000 		.4byte	.LVL8
 12996 1bdc F0000000 		.4byte	.LVL36
ARM GAS  C:\Users\Moi\AppData\Local\Temp\ccWeMAis.s 			page 229


 12997 1be0 0100     		.2byte	0x1
 12998 1be2 58       		.byte	0x58
 12999 1be3 00000000 		.4byte	0
 13000 1be7 00000000 		.4byte	0
 13001              	.LLST7:
 13002 1beb 10000000 		.4byte	.LVL1
 13003 1bef 18000000 		.4byte	.LVL2
 13004 1bf3 0200     		.2byte	0x2
 13005 1bf5 30       		.byte	0x30
 13006 1bf6 9F       		.byte	0x9f
 13007 1bf7 28000000 		.4byte	.LVL3
 13008 1bfb 52000000 		.4byte	.LVL8
 13009 1bff 0200     		.2byte	0x2
 13010 1c01 30       		.byte	0x30
 13011 1c02 9F       		.byte	0x9f
 13012 1c03 52000000 		.4byte	.LVL8
 13013 1c07 6A000000 		.4byte	.LVL12
 13014 1c0b 0100     		.2byte	0x1
 13015 1c0d 55       		.byte	0x55
 13016 1c0e 6A000000 		.4byte	.LVL12
 13017 1c12 70000000 		.4byte	.LVL14
 13018 1c16 0300     		.2byte	0x3
 13019 1c18 75       		.byte	0x75
 13020 1c19 7F       		.sleb128 -1
 13021 1c1a 9F       		.byte	0x9f
 13022 1c1b 70000000 		.4byte	.LVL14
 13023 1c1f F0000000 		.4byte	.LVL36
 13024 1c23 0100     		.2byte	0x1
 13025 1c25 55       		.byte	0x55
 13026 1c26 00000000 		.4byte	0
 13027 1c2a 00000000 		.4byte	0
 13028              	.LLST8:
 13029 1c2e 10000000 		.4byte	.LVL1
 13030 1c32 18000000 		.4byte	.LVL2
 13031 1c36 0200     		.2byte	0x2
 13032 1c38 30       		.byte	0x30
 13033 1c39 9F       		.byte	0x9f
 13034 1c3a 28000000 		.4byte	.LVL3
 13035 1c3e 52000000 		.4byte	.LVL8
 13036 1c42 0200     		.2byte	0x2
 13037 1c44 30       		.byte	0x30
 13038 1c45 9F       		.byte	0x9f
 13039 1c46 52000000 		.4byte	.LVL8
 13040 1c4a 70000000 		.4byte	.LVL14
 13041 1c4e 0600     		.2byte	0x6
 13042 1c50 08       		.byte	0x8
 13043 1c51 32       		.byte	0x32
 13044 1c52 7B       		.byte	0x7b
 13045 1c53 00       		.sleb128 0
 13046 1c54 1C       		.byte	0x1c
 13047 1c55 9F       		.byte	0x9f
 13048 1c56 70000000 		.4byte	.LVL14
 13049 1c5a 78000000 		.4byte	.LVL15
 13050 1c5e 0600     		.2byte	0x6
 13051 1c60 08       		.byte	0x8
 13052 1c61 33       		.byte	0x33
 13053 1c62 7B       		.byte	0x7b
ARM GAS  C:\Users\Moi\AppData\Local\Temp\ccWeMAis.s 			page 230


 13054 1c63 00       		.sleb128 0
 13055 1c64 1C       		.byte	0x1c
 13056 1c65 9F       		.byte	0x9f
 13057 1c66 7A000000 		.4byte	.LVL16
 13058 1c6a 90000000 		.4byte	.LVL19
 13059 1c6e 0600     		.2byte	0x6
 13060 1c70 08       		.byte	0x8
 13061 1c71 32       		.byte	0x32
 13062 1c72 7B       		.byte	0x7b
 13063 1c73 00       		.sleb128 0
 13064 1c74 1C       		.byte	0x1c
 13065 1c75 9F       		.byte	0x9f
 13066 1c76 00000000 		.4byte	0
 13067 1c7a 00000000 		.4byte	0
 13068              	.LLST9:
 13069 1c7e 98000000 		.4byte	.LVL20
 13070 1c82 C0000000 		.4byte	.LVL27
 13071 1c86 0C00     		.2byte	0xc
 13072 1c88 78       		.byte	0x78
 13073 1c89 00       		.sleb128 0
 13074 1c8a F7       		.byte	0xf7
 13075 1c8b 25       		.uleb128 0x25
 13076 1c8c 75       		.byte	0x75
 13077 1c8d 00       		.sleb128 0
 13078 1c8e F7       		.byte	0xf7
 13079 1c8f 25       		.uleb128 0x25
 13080 1c90 1B       		.byte	0x1b
 13081 1c91 F7       		.byte	0xf7
 13082 1c92 00       		.uleb128 0
 13083 1c93 9F       		.byte	0x9f
 13084 1c94 C0000000 		.4byte	.LVL27
 13085 1c98 C8000000 		.4byte	.LVL28
 13086 1c9c 0100     		.2byte	0x1
 13087 1c9e 53       		.byte	0x53
 13088 1c9f C8000000 		.4byte	.LVL28
 13089 1ca3 F0000000 		.4byte	.LVL36
 13090 1ca7 0C00     		.2byte	0xc
 13091 1ca9 78       		.byte	0x78
 13092 1caa 00       		.sleb128 0
 13093 1cab F7       		.byte	0xf7
 13094 1cac 25       		.uleb128 0x25
 13095 1cad 75       		.byte	0x75
 13096 1cae 00       		.sleb128 0
 13097 1caf F7       		.byte	0xf7
 13098 1cb0 25       		.uleb128 0x25
 13099 1cb1 1B       		.byte	0x1b
 13100 1cb2 F7       		.byte	0xf7
 13101 1cb3 00       		.uleb128 0
 13102 1cb4 9F       		.byte	0x9f
 13103 1cb5 00000000 		.4byte	0
 13104 1cb9 00000000 		.4byte	0
 13105              	.LLST10:
 13106 1cbd 98000000 		.4byte	.LVL20
 13107 1cc1 B0000000 		.4byte	.LVL26
 13108 1cc5 1200     		.2byte	0x12
 13109 1cc7 77       		.byte	0x77
 13110 1cc8 00       		.sleb128 0
ARM GAS  C:\Users\Moi\AppData\Local\Temp\ccWeMAis.s 			page 231


 13111 1cc9 0A       		.byte	0xa
 13112 1cca FFFF     		.2byte	0xffff
 13113 1ccc 1A       		.byte	0x1a
 13114 1ccd 40       		.byte	0x40
 13115 1cce 24       		.byte	0x24
 13116 1ccf F7       		.byte	0xf7
 13117 1cd0 25       		.uleb128 0x25
 13118 1cd1 75       		.byte	0x75
 13119 1cd2 00       		.sleb128 0
 13120 1cd3 F7       		.byte	0xf7
 13121 1cd4 25       		.uleb128 0x25
 13122 1cd5 1B       		.byte	0x1b
 13123 1cd6 F7       		.byte	0xf7
 13124 1cd7 00       		.uleb128 0
 13125 1cd8 9F       		.byte	0x9f
 13126 1cd9 00000000 		.4byte	0
 13127 1cdd 00000000 		.4byte	0
 13128              	.LLST11:
 13129 1ce1 98000000 		.4byte	.LVL20
 13130 1ce5 9A000000 		.4byte	.LVL21
 13131 1ce9 1200     		.2byte	0x12
 13132 1ceb 74       		.byte	0x74
 13133 1cec 00       		.sleb128 0
 13134 1ced 0A       		.byte	0xa
 13135 1cee FFFF     		.2byte	0xffff
 13136 1cf0 1A       		.byte	0x1a
 13137 1cf1 40       		.byte	0x40
 13138 1cf2 24       		.byte	0x24
 13139 1cf3 F7       		.byte	0xf7
 13140 1cf4 25       		.uleb128 0x25
 13141 1cf5 75       		.byte	0x75
 13142 1cf6 00       		.sleb128 0
 13143 1cf7 F7       		.byte	0xf7
 13144 1cf8 25       		.uleb128 0x25
 13145 1cf9 1B       		.byte	0x1b
 13146 1cfa F7       		.byte	0xf7
 13147 1cfb 00       		.uleb128 0
 13148 1cfc 9F       		.byte	0x9f
 13149 1cfd 00000000 		.4byte	0
 13150 1d01 00000000 		.4byte	0
 13151              	.LLST12:
 13152 1d05 C8000000 		.4byte	.LVL28
 13153 1d09 CC000000 		.4byte	.LVL29
 13154 1d0d 1700     		.2byte	0x17
 13155 1d0f 40       		.byte	0x40
 13156 1d10 3C       		.byte	0x3c
 13157 1d11 24       		.byte	0x24
 13158 1d12 77       		.byte	0x77
 13159 1d13 00       		.sleb128 0
 13160 1d14 F7       		.byte	0xf7
 13161 1d15 25       		.uleb128 0x25
 13162 1d16 7A       		.byte	0x7a
 13163 1d17 808002   		.sleb128 32768
 13164 1d1a 40       		.byte	0x40
 13165 1d1b 25       		.byte	0x25
 13166 1d1c F7       		.byte	0xf7
 13167 1d1d 25       		.uleb128 0x25
ARM GAS  C:\Users\Moi\AppData\Local\Temp\ccWeMAis.s 			page 232


 13168 1d1e 1B       		.byte	0x1b
 13169 1d1f F7       		.byte	0xf7
 13170 1d20 00       		.uleb128 0
 13171 1d21 1C       		.byte	0x1c
 13172 1d22 73       		.byte	0x73
 13173 1d23 00       		.sleb128 0
 13174 1d24 1E       		.byte	0x1e
 13175 1d25 9F       		.byte	0x9f
 13176 1d26 CC000000 		.4byte	.LVL29
 13177 1d2a D2000000 		.4byte	.LVL30
 13178 1d2e 2900     		.2byte	0x29
 13179 1d30 40       		.byte	0x40
 13180 1d31 3C       		.byte	0x3c
 13181 1d32 24       		.byte	0x24
 13182 1d33 77       		.byte	0x77
 13183 1d34 00       		.sleb128 0
 13184 1d35 F7       		.byte	0xf7
 13185 1d36 25       		.uleb128 0x25
 13186 1d37 7A       		.byte	0x7a
 13187 1d38 808002   		.sleb128 32768
 13188 1d3b 40       		.byte	0x40
 13189 1d3c 25       		.byte	0x25
 13190 1d3d F7       		.byte	0xf7
 13191 1d3e 25       		.uleb128 0x25
 13192 1d3f 1B       		.byte	0x1b
 13193 1d40 F7       		.byte	0xf7
 13194 1d41 00       		.uleb128 0
 13195 1d42 1C       		.byte	0x1c
 13196 1d43 78       		.byte	0x78
 13197 1d44 00       		.sleb128 0
 13198 1d45 F7       		.byte	0xf7
 13199 1d46 25       		.uleb128 0x25
 13200 1d47 75       		.byte	0x75
 13201 1d48 00       		.sleb128 0
 13202 1d49 F7       		.byte	0xf7
 13203 1d4a 25       		.uleb128 0x25
 13204 1d4b 1B       		.byte	0x1b
 13205 1d4c F7       		.byte	0xf7
 13206 1d4d 00       		.uleb128 0
 13207 1d4e F7       		.byte	0xf7
 13208 1d4f 25       		.uleb128 0x25
 13209 1d50 74       		.byte	0x74
 13210 1d51 00       		.sleb128 0
 13211 1d52 F7       		.byte	0xf7
 13212 1d53 25       		.uleb128 0x25
 13213 1d54 1B       		.byte	0x1b
 13214 1d55 F7       		.byte	0xf7
 13215 1d56 00       		.uleb128 0
 13216 1d57 1E       		.byte	0x1e
 13217 1d58 9F       		.byte	0x9f
 13218 1d59 00000000 		.4byte	0
 13219 1d5d 00000000 		.4byte	0
 13220              	.LLST13:
 13221 1d61 A2000000 		.4byte	.LVL22
 13222 1d65 A4000000 		.4byte	.LVL23
 13223 1d69 0500     		.2byte	0x5
 13224 1d6b 74       		.byte	0x74
ARM GAS  C:\Users\Moi\AppData\Local\Temp\ccWeMAis.s 			page 233


 13225 1d6c 00       		.sleb128 0
 13226 1d6d 40       		.byte	0x40
 13227 1d6e 25       		.byte	0x25
 13228 1d6f 9F       		.byte	0x9f
 13229 1d70 A4000000 		.4byte	.LVL23
 13230 1d74 D2000000 		.4byte	.LVL30
 13231 1d78 0100     		.2byte	0x1
 13232 1d7a 54       		.byte	0x54
 13233 1d7b EC000000 		.4byte	.LVL34
 13234 1d7f EE000000 		.4byte	.LVL35
 13235 1d83 0100     		.2byte	0x1
 13236 1d85 54       		.byte	0x54
 13237 1d86 00000000 		.4byte	0
 13238 1d8a 00000000 		.4byte	0
 13239              	.LLST14:
 13240 1d8e A2000000 		.4byte	.LVL22
 13241 1d92 AA000000 		.4byte	.LVL24
 13242 1d96 0700     		.2byte	0x7
 13243 1d98 7A       		.byte	0x7a
 13244 1d99 808002   		.sleb128 32768
 13245 1d9c 40       		.byte	0x40
 13246 1d9d 25       		.byte	0x25
 13247 1d9e 9F       		.byte	0x9f
 13248 1d9f AA000000 		.4byte	.LVL24
 13249 1da3 AC000000 		.4byte	.LVL25
 13250 1da7 0500     		.2byte	0x5
 13251 1da9 72       		.byte	0x72
 13252 1daa 00       		.sleb128 0
 13253 1dab 40       		.byte	0x40
 13254 1dac 25       		.byte	0x25
 13255 1dad 9F       		.byte	0x9f
 13256 1dae AC000000 		.4byte	.LVL25
 13257 1db2 F0000000 		.4byte	.LVL36
 13258 1db6 0700     		.2byte	0x7
 13259 1db8 7A       		.byte	0x7a
 13260 1db9 808002   		.sleb128 32768
 13261 1dbc 40       		.byte	0x40
 13262 1dbd 25       		.byte	0x25
 13263 1dbe 9F       		.byte	0x9f
 13264 1dbf 00000000 		.4byte	0
 13265 1dc3 00000000 		.4byte	0
 13266              	.LLST15:
 13267 1dc7 D2000000 		.4byte	.LVL30
 13268 1dcb EC000000 		.4byte	.LVL34
 13269 1dcf 0100     		.2byte	0x1
 13270 1dd1 54       		.byte	0x54
 13271 1dd2 00000000 		.4byte	0
 13272 1dd6 00000000 		.4byte	0
 13273              	.LLST44:
 13274 1dda 00000000 		.4byte	.LVL119
 13275 1dde 0C000000 		.4byte	.LVL120
 13276 1de2 0100     		.2byte	0x1
 13277 1de4 50       		.byte	0x50
 13278 1de5 0C000000 		.4byte	.LVL120
 13279 1de9 34000000 		.4byte	.LFE9
 13280 1ded 0400     		.2byte	0x4
 13281 1def F3       		.byte	0xf3
ARM GAS  C:\Users\Moi\AppData\Local\Temp\ccWeMAis.s 			page 234


 13282 1df0 01       		.uleb128 0x1
 13283 1df1 50       		.byte	0x50
 13284 1df2 9F       		.byte	0x9f
 13285 1df3 00000000 		.4byte	0
 13286 1df7 00000000 		.4byte	0
 13287              	.LLST45:
 13288 1dfb 00000000 		.4byte	.LVL123
 13289 1dff 22000000 		.4byte	.LVL129
 13290 1e03 0100     		.2byte	0x1
 13291 1e05 50       		.byte	0x50
 13292 1e06 22000000 		.4byte	.LVL129
 13293 1e0a 2E000000 		.4byte	.LVL131
 13294 1e0e 0400     		.2byte	0x4
 13295 1e10 F3       		.byte	0xf3
 13296 1e11 01       		.uleb128 0x1
 13297 1e12 50       		.byte	0x50
 13298 1e13 9F       		.byte	0x9f
 13299 1e14 2E000000 		.4byte	.LVL131
 13300 1e18 32000000 		.4byte	.LVL132
 13301 1e1c 0100     		.2byte	0x1
 13302 1e1e 50       		.byte	0x50
 13303 1e1f 32000000 		.4byte	.LVL132
 13304 1e23 3C000000 		.4byte	.LFE10
 13305 1e27 0400     		.2byte	0x4
 13306 1e29 F3       		.byte	0xf3
 13307 1e2a 01       		.uleb128 0x1
 13308 1e2b 50       		.byte	0x50
 13309 1e2c 9F       		.byte	0x9f
 13310 1e2d 00000000 		.4byte	0
 13311 1e31 00000000 		.4byte	0
 13312              	.LLST46:
 13313 1e35 00000000 		.4byte	.LVL123
 13314 1e39 12000000 		.4byte	.LVL126
 13315 1e3d 0100     		.2byte	0x1
 13316 1e3f 51       		.byte	0x51
 13317 1e40 12000000 		.4byte	.LVL126
 13318 1e44 2E000000 		.4byte	.LVL131
 13319 1e48 0400     		.2byte	0x4
 13320 1e4a F3       		.byte	0xf3
 13321 1e4b 01       		.uleb128 0x1
 13322 1e4c 51       		.byte	0x51
 13323 1e4d 9F       		.byte	0x9f
 13324 1e4e 2E000000 		.4byte	.LVL131
 13325 1e52 34000000 		.4byte	.LVL133
 13326 1e56 0100     		.2byte	0x1
 13327 1e58 51       		.byte	0x51
 13328 1e59 34000000 		.4byte	.LVL133
 13329 1e5d 3C000000 		.4byte	.LFE10
 13330 1e61 0400     		.2byte	0x4
 13331 1e63 F3       		.byte	0xf3
 13332 1e64 01       		.uleb128 0x1
 13333 1e65 51       		.byte	0x51
 13334 1e66 9F       		.byte	0x9f
 13335 1e67 00000000 		.4byte	0
 13336 1e6b 00000000 		.4byte	0
 13337              	.LLST47:
 13338 1e6f 00000000 		.4byte	.LVL123
ARM GAS  C:\Users\Moi\AppData\Local\Temp\ccWeMAis.s 			page 235


 13339 1e73 16000000 		.4byte	.LVL127
 13340 1e77 0100     		.2byte	0x1
 13341 1e79 52       		.byte	0x52
 13342 1e7a 16000000 		.4byte	.LVL127
 13343 1e7e 2E000000 		.4byte	.LVL131
 13344 1e82 0400     		.2byte	0x4
 13345 1e84 F3       		.byte	0xf3
 13346 1e85 01       		.uleb128 0x1
 13347 1e86 52       		.byte	0x52
 13348 1e87 9F       		.byte	0x9f
 13349 1e88 2E000000 		.4byte	.LVL131
 13350 1e8c 34000000 		.4byte	.LVL133
 13351 1e90 0100     		.2byte	0x1
 13352 1e92 52       		.byte	0x52
 13353 1e93 34000000 		.4byte	.LVL133
 13354 1e97 3C000000 		.4byte	.LFE10
 13355 1e9b 0400     		.2byte	0x4
 13356 1e9d F3       		.byte	0xf3
 13357 1e9e 01       		.uleb128 0x1
 13358 1e9f 52       		.byte	0x52
 13359 1ea0 9F       		.byte	0x9f
 13360 1ea1 00000000 		.4byte	0
 13361 1ea5 00000000 		.4byte	0
 13362              	.LLST48:
 13363 1ea9 0A000000 		.4byte	.LVL124
 13364 1ead 22000000 		.4byte	.LVL129
 13365 1eb1 0200     		.2byte	0x2
 13366 1eb3 30       		.byte	0x30
 13367 1eb4 9F       		.byte	0x9f
 13368 1eb5 22000000 		.4byte	.LVL129
 13369 1eb9 2E000000 		.4byte	.LVL131
 13370 1ebd 0100     		.2byte	0x1
 13371 1ebf 50       		.byte	0x50
 13372 1ec0 2E000000 		.4byte	.LVL131
 13373 1ec4 34000000 		.4byte	.LVL133
 13374 1ec8 0200     		.2byte	0x2
 13375 1eca 30       		.byte	0x30
 13376 1ecb 9F       		.byte	0x9f
 13377 1ecc 34000000 		.4byte	.LVL133
 13378 1ed0 37000000 		.4byte	.LVL134-1
 13379 1ed4 0100     		.2byte	0x1
 13380 1ed6 50       		.byte	0x50
 13381 1ed7 00000000 		.4byte	0
 13382 1edb 00000000 		.4byte	0
 13383              	.LLST49:
 13384 1edf 0C000000 		.4byte	.LVL125
 13385 1ee3 26000000 		.4byte	.LVL130
 13386 1ee7 0100     		.2byte	0x1
 13387 1ee9 53       		.byte	0x53
 13388 1eea 26000000 		.4byte	.LVL130
 13389 1eee 2E000000 		.4byte	.LVL131
 13390 1ef2 0600     		.2byte	0x6
 13391 1ef4 F3       		.byte	0xf3
 13392 1ef5 01       		.uleb128 0x1
 13393 1ef6 52       		.byte	0x52
 13394 1ef7 33       		.byte	0x33
 13395 1ef8 25       		.byte	0x25
ARM GAS  C:\Users\Moi\AppData\Local\Temp\ccWeMAis.s 			page 236


 13396 1ef9 9F       		.byte	0x9f
 13397 1efa 2E000000 		.4byte	.LVL131
 13398 1efe 34000000 		.4byte	.LVL133
 13399 1f02 0100     		.2byte	0x1
 13400 1f04 53       		.byte	0x53
 13401 1f05 34000000 		.4byte	.LVL133
 13402 1f09 3C000000 		.4byte	.LFE10
 13403 1f0d 0600     		.2byte	0x6
 13404 1f0f F3       		.byte	0xf3
 13405 1f10 01       		.uleb128 0x1
 13406 1f11 52       		.byte	0x52
 13407 1f12 33       		.byte	0x33
 13408 1f13 25       		.byte	0x25
 13409 1f14 9F       		.byte	0x9f
 13410 1f15 00000000 		.4byte	0
 13411 1f19 00000000 		.4byte	0
 13412              	.LLST50:
 13413 1f1d 0C000000 		.4byte	.LVL125
 13414 1f21 16000000 		.4byte	.LVL127
 13415 1f25 0500     		.2byte	0x5
 13416 1f27 72       		.byte	0x72
 13417 1f28 00       		.sleb128 0
 13418 1f29 37       		.byte	0x37
 13419 1f2a 1A       		.byte	0x1a
 13420 1f2b 9F       		.byte	0x9f
 13421 1f2c 16000000 		.4byte	.LVL127
 13422 1f30 1C000000 		.4byte	.LVL128
 13423 1f34 0100     		.2byte	0x1
 13424 1f36 52       		.byte	0x52
 13425 1f37 1C000000 		.4byte	.LVL128
 13426 1f3b 2E000000 		.4byte	.LVL131
 13427 1f3f 0600     		.2byte	0x6
 13428 1f41 F3       		.byte	0xf3
 13429 1f42 01       		.uleb128 0x1
 13430 1f43 52       		.byte	0x52
 13431 1f44 37       		.byte	0x37
 13432 1f45 1A       		.byte	0x1a
 13433 1f46 9F       		.byte	0x9f
 13434 1f47 2E000000 		.4byte	.LVL131
 13435 1f4b 34000000 		.4byte	.LVL133
 13436 1f4f 0500     		.2byte	0x5
 13437 1f51 72       		.byte	0x72
 13438 1f52 00       		.sleb128 0
 13439 1f53 37       		.byte	0x37
 13440 1f54 1A       		.byte	0x1a
 13441 1f55 9F       		.byte	0x9f
 13442 1f56 34000000 		.4byte	.LVL133
 13443 1f5a 3C000000 		.4byte	.LFE10
 13444 1f5e 0600     		.2byte	0x6
 13445 1f60 F3       		.byte	0xf3
 13446 1f61 01       		.uleb128 0x1
 13447 1f62 52       		.byte	0x52
 13448 1f63 37       		.byte	0x37
 13449 1f64 1A       		.byte	0x1a
 13450 1f65 9F       		.byte	0x9f
 13451 1f66 00000000 		.4byte	0
 13452 1f6a 00000000 		.4byte	0
ARM GAS  C:\Users\Moi\AppData\Local\Temp\ccWeMAis.s 			page 237


 13453              	.LLST61:
 13454 1f6e 00000000 		.4byte	.LVL155
 13455 1f72 21000000 		.4byte	.LVL157-1
 13456 1f76 0100     		.2byte	0x1
 13457 1f78 50       		.byte	0x50
 13458 1f79 21000000 		.4byte	.LVL157-1
 13459 1f7d 22000000 		.4byte	.LVL157
 13460 1f81 0400     		.2byte	0x4
 13461 1f83 F3       		.byte	0xf3
 13462 1f84 01       		.uleb128 0x1
 13463 1f85 50       		.byte	0x50
 13464 1f86 9F       		.byte	0x9f
 13465 1f87 22000000 		.4byte	.LVL157
 13466 1f8b 25000000 		.4byte	.LVL158-1
 13467 1f8f 0100     		.2byte	0x1
 13468 1f91 50       		.byte	0x50
 13469 1f92 25000000 		.4byte	.LVL158-1
 13470 1f96 2C000000 		.4byte	.LFE12
 13471 1f9a 0400     		.2byte	0x4
 13472 1f9c F3       		.byte	0xf3
 13473 1f9d 01       		.uleb128 0x1
 13474 1f9e 50       		.byte	0x50
 13475 1f9f 9F       		.byte	0x9f
 13476 1fa0 00000000 		.4byte	0
 13477 1fa4 00000000 		.4byte	0
 13478              	.LLST62:
 13479 1fa8 00000000 		.4byte	.LVL155
 13480 1fac 18000000 		.4byte	.LVL156
 13481 1fb0 0100     		.2byte	0x1
 13482 1fb2 51       		.byte	0x51
 13483 1fb3 18000000 		.4byte	.LVL156
 13484 1fb7 21000000 		.4byte	.LVL157-1
 13485 1fbb 0100     		.2byte	0x1
 13486 1fbd 52       		.byte	0x52
 13487 1fbe 21000000 		.4byte	.LVL157-1
 13488 1fc2 22000000 		.4byte	.LVL157
 13489 1fc6 0400     		.2byte	0x4
 13490 1fc8 F3       		.byte	0xf3
 13491 1fc9 01       		.uleb128 0x1
 13492 1fca 51       		.byte	0x51
 13493 1fcb 9F       		.byte	0x9f
 13494 1fcc 22000000 		.4byte	.LVL157
 13495 1fd0 25000000 		.4byte	.LVL158-1
 13496 1fd4 0100     		.2byte	0x1
 13497 1fd6 51       		.byte	0x51
 13498 1fd7 25000000 		.4byte	.LVL158-1
 13499 1fdb 2C000000 		.4byte	.LFE12
 13500 1fdf 0400     		.2byte	0x4
 13501 1fe1 F3       		.byte	0xf3
 13502 1fe2 01       		.uleb128 0x1
 13503 1fe3 51       		.byte	0x51
 13504 1fe4 9F       		.byte	0x9f
 13505 1fe5 00000000 		.4byte	0
 13506 1fe9 00000000 		.4byte	0
 13507              	.LLST63:
 13508 1fed 00000000 		.4byte	.LVL159
 13509 1ff1 21000000 		.4byte	.LVL161-1
ARM GAS  C:\Users\Moi\AppData\Local\Temp\ccWeMAis.s 			page 238


 13510 1ff5 0100     		.2byte	0x1
 13511 1ff7 50       		.byte	0x50
 13512 1ff8 21000000 		.4byte	.LVL161-1
 13513 1ffc 22000000 		.4byte	.LVL161
 13514 2000 0400     		.2byte	0x4
 13515 2002 F3       		.byte	0xf3
 13516 2003 01       		.uleb128 0x1
 13517 2004 50       		.byte	0x50
 13518 2005 9F       		.byte	0x9f
 13519 2006 22000000 		.4byte	.LVL161
 13520 200a 25000000 		.4byte	.LVL162-1
 13521 200e 0100     		.2byte	0x1
 13522 2010 50       		.byte	0x50
 13523 2011 25000000 		.4byte	.LVL162-1
 13524 2015 2C000000 		.4byte	.LFE13
 13525 2019 0400     		.2byte	0x4
 13526 201b F3       		.byte	0xf3
 13527 201c 01       		.uleb128 0x1
 13528 201d 50       		.byte	0x50
 13529 201e 9F       		.byte	0x9f
 13530 201f 00000000 		.4byte	0
 13531 2023 00000000 		.4byte	0
 13532              	.LLST64:
 13533 2027 00000000 		.4byte	.LVL159
 13534 202b 18000000 		.4byte	.LVL160
 13535 202f 0100     		.2byte	0x1
 13536 2031 51       		.byte	0x51
 13537 2032 18000000 		.4byte	.LVL160
 13538 2036 21000000 		.4byte	.LVL161-1
 13539 203a 0100     		.2byte	0x1
 13540 203c 52       		.byte	0x52
 13541 203d 21000000 		.4byte	.LVL161-1
 13542 2041 22000000 		.4byte	.LVL161
 13543 2045 0400     		.2byte	0x4
 13544 2047 F3       		.byte	0xf3
 13545 2048 01       		.uleb128 0x1
 13546 2049 51       		.byte	0x51
 13547 204a 9F       		.byte	0x9f
 13548 204b 22000000 		.4byte	.LVL161
 13549 204f 25000000 		.4byte	.LVL162-1
 13550 2053 0100     		.2byte	0x1
 13551 2055 51       		.byte	0x51
 13552 2056 25000000 		.4byte	.LVL162-1
 13553 205a 2C000000 		.4byte	.LFE13
 13554 205e 0400     		.2byte	0x4
 13555 2060 F3       		.byte	0xf3
 13556 2061 01       		.uleb128 0x1
 13557 2062 51       		.byte	0x51
 13558 2063 9F       		.byte	0x9f
 13559 2064 00000000 		.4byte	0
 13560 2068 00000000 		.4byte	0
 13561              	.LLST102:
 13562 206c 00000000 		.4byte	.LVL246
 13563 2070 15000000 		.4byte	.LVL249-1
 13564 2074 0100     		.2byte	0x1
 13565 2076 50       		.byte	0x50
 13566 2077 15000000 		.4byte	.LVL249-1
ARM GAS  C:\Users\Moi\AppData\Local\Temp\ccWeMAis.s 			page 239


 13567 207b 54000000 		.4byte	.LVL258
 13568 207f 0100     		.2byte	0x1
 13569 2081 55       		.byte	0x55
 13570 2082 54000000 		.4byte	.LVL258
 13571 2086 57000000 		.4byte	.LVL259-1
 13572 208a 0100     		.2byte	0x1
 13573 208c 50       		.byte	0x50
 13574 208d 57000000 		.4byte	.LVL259-1
 13575 2091 58000000 		.4byte	.LVL259
 13576 2095 0400     		.2byte	0x4
 13577 2097 F3       		.byte	0xf3
 13578 2098 01       		.uleb128 0x1
 13579 2099 50       		.byte	0x50
 13580 209a 9F       		.byte	0x9f
 13581 209b 58000000 		.4byte	.LVL259
 13582 209f 60000000 		.4byte	.LFE19
 13583 20a3 0100     		.2byte	0x1
 13584 20a5 55       		.byte	0x55
 13585 20a6 00000000 		.4byte	0
 13586 20aa 00000000 		.4byte	0
 13587              	.LLST103:
 13588 20ae 00000000 		.4byte	.LVL246
 13589 20b2 10000000 		.4byte	.LVL247
 13590 20b6 0100     		.2byte	0x1
 13591 20b8 51       		.byte	0x51
 13592 20b9 10000000 		.4byte	.LVL247
 13593 20bd 60000000 		.4byte	.LFE19
 13594 20c1 0400     		.2byte	0x4
 13595 20c3 F3       		.byte	0xf3
 13596 20c4 01       		.uleb128 0x1
 13597 20c5 51       		.byte	0x51
 13598 20c6 9F       		.byte	0x9f
 13599 20c7 00000000 		.4byte	0
 13600 20cb 00000000 		.4byte	0
 13601              	.LLST104:
 13602 20cf 12000000 		.4byte	.LVL248
 13603 20d3 16000000 		.4byte	.LVL249
 13604 20d7 0200     		.2byte	0x2
 13605 20d9 30       		.byte	0x30
 13606 20da 9F       		.byte	0x9f
 13607 20db 16000000 		.4byte	.LVL249
 13608 20df 1A000000 		.4byte	.LVL250
 13609 20e3 0100     		.2byte	0x1
 13610 20e5 50       		.byte	0x50
 13611 20e6 1A000000 		.4byte	.LVL250
 13612 20ea 28000000 		.4byte	.LVL251
 13613 20ee 0100     		.2byte	0x1
 13614 20f0 52       		.byte	0x52
 13615 20f1 28000000 		.4byte	.LVL251
 13616 20f5 2A000000 		.4byte	.LVL252
 13617 20f9 0100     		.2byte	0x1
 13618 20fb 50       		.byte	0x50
 13619 20fc 2E000000 		.4byte	.LVL253
 13620 2100 38000000 		.4byte	.LVL254
 13621 2104 0100     		.2byte	0x1
 13622 2106 50       		.byte	0x50
 13623 2107 3C000000 		.4byte	.LVL255
ARM GAS  C:\Users\Moi\AppData\Local\Temp\ccWeMAis.s 			page 240


 13624 210b 4C000000 		.4byte	.LVL257
 13625 210f 0100     		.2byte	0x1
 13626 2111 50       		.byte	0x50
 13627 2112 00000000 		.4byte	0
 13628 2116 00000000 		.4byte	0
 13629              	.LLST105:
 13630 211a 42000000 		.4byte	.LVL256
 13631 211e 54000000 		.4byte	.LVL258
 13632 2122 0100     		.2byte	0x1
 13633 2124 55       		.byte	0x55
 13634 2125 54000000 		.4byte	.LVL258
 13635 2129 57000000 		.4byte	.LVL259-1
 13636 212d 0100     		.2byte	0x1
 13637 212f 50       		.byte	0x50
 13638 2130 57000000 		.4byte	.LVL259-1
 13639 2134 58000000 		.4byte	.LVL259
 13640 2138 0400     		.2byte	0x4
 13641 213a F3       		.byte	0xf3
 13642 213b 01       		.uleb128 0x1
 13643 213c 50       		.byte	0x50
 13644 213d 9F       		.byte	0x9f
 13645 213e 00000000 		.4byte	0
 13646 2142 00000000 		.4byte	0
 13647              		.section	.debug_aranges,"",%progbits
 13648 0000 CC000000 		.4byte	0xcc
 13649 0004 0200     		.2byte	0x2
 13650 0006 00000000 		.4byte	.Ldebug_info0
 13651 000a 04       		.byte	0x4
 13652 000b 00       		.byte	0
 13653 000c 0000     		.2byte	0
 13654 000e 0000     		.2byte	0
 13655 0010 00000000 		.4byte	.LFB3
 13656 0014 F8000000 		.4byte	.LFE3-.LFB3
 13657 0018 00000000 		.4byte	.LFB4
 13658 001c E8000000 		.4byte	.LFE4-.LFB4
 13659 0020 00000000 		.4byte	.LFB5
 13660 0024 5C000000 		.4byte	.LFE5-.LFB5
 13661 0028 00000000 		.4byte	.LFB6
 13662 002c 54000000 		.4byte	.LFE6-.LFB6
 13663 0030 00000000 		.4byte	.LFB7
 13664 0034 4C000000 		.4byte	.LFE7-.LFB7
 13665 0038 00000000 		.4byte	.LFB8
 13666 003c 68000000 		.4byte	.LFE8-.LFB8
 13667 0040 00000000 		.4byte	.LFB9
 13668 0044 34000000 		.4byte	.LFE9-.LFB9
 13669 0048 00000000 		.4byte	.LFB10
 13670 004c 3C000000 		.4byte	.LFE10-.LFB10
 13671 0050 00000000 		.4byte	.LFB11
 13672 0054 A0000000 		.4byte	.LFE11-.LFB11
 13673 0058 00000000 		.4byte	.LFB12
 13674 005c 2C000000 		.4byte	.LFE12-.LFB12
 13675 0060 00000000 		.4byte	.LFB13
 13676 0064 2C000000 		.4byte	.LFE13-.LFB13
 13677 0068 00000000 		.4byte	.LFB14
 13678 006c E4000000 		.4byte	.LFE14-.LFB14
 13679 0070 00000000 		.4byte	.LFB15
 13680 0074 7C000000 		.4byte	.LFE15-.LFB15
ARM GAS  C:\Users\Moi\AppData\Local\Temp\ccWeMAis.s 			page 241


 13681 0078 00000000 		.4byte	.LFB17
 13682 007c C8000000 		.4byte	.LFE17-.LFB17
 13683 0080 00000000 		.4byte	.LFB18
 13684 0084 88000000 		.4byte	.LFE18-.LFB18
 13685 0088 00000000 		.4byte	.LFB19
 13686 008c 60000000 		.4byte	.LFE19-.LFB19
 13687 0090 00000000 		.4byte	.LFB20
 13688 0094 08010000 		.4byte	.LFE20-.LFB20
 13689 0098 00000000 		.4byte	.LFB21
 13690 009c B4000000 		.4byte	.LFE21-.LFB21
 13691 00a0 00000000 		.4byte	.LFB22
 13692 00a4 A0000000 		.4byte	.LFE22-.LFB22
 13693 00a8 00000000 		.4byte	.LFB23
 13694 00ac 5C000000 		.4byte	.LFE23-.LFB23
 13695 00b0 00000000 		.4byte	.LFB16
 13696 00b4 BC020000 		.4byte	.LFE16-.LFB16
 13697 00b8 00000000 		.4byte	.LFB24
 13698 00bc 3C000000 		.4byte	.LFE24-.LFB24
 13699 00c0 00000000 		.4byte	.LFB25
 13700 00c4 34000000 		.4byte	.LFE25-.LFB25
 13701 00c8 00000000 		.4byte	0
 13702 00cc 00000000 		.4byte	0
 13703              		.section	.debug_ranges,"",%progbits
 13704              	.Ldebug_ranges0:
 13705 0000 90000000 		.4byte	.LBB28
 13706 0004 92000000 		.4byte	.LBE28
 13707 0008 94000000 		.4byte	.LBB31
 13708 000c 9E000000 		.4byte	.LBE31
 13709 0010 00000000 		.4byte	0
 13710 0014 00000000 		.4byte	0
 13711 0018 26000000 		.4byte	.LBB34
 13712 001c 2A000000 		.4byte	.LBE34
 13713 0020 2C000000 		.4byte	.LBB38
 13714 0024 2E000000 		.4byte	.LBE38
 13715 0028 7A000000 		.4byte	.LBB39
 13716 002c 80000000 		.4byte	.LBE39
 13717 0030 00000000 		.4byte	0
 13718 0034 00000000 		.4byte	0
 13719 0038 42000000 		.4byte	.LBB44
 13720 003c 4E000000 		.4byte	.LBE44
 13721 0040 54000000 		.4byte	.LBB47
 13722 0044 58000000 		.4byte	.LBE47
 13723 0048 00000000 		.4byte	0
 13724 004c 00000000 		.4byte	0
 13725 0050 08010000 		.4byte	.LBB48
 13726 0054 10010000 		.4byte	.LBE48
 13727 0058 1A010000 		.4byte	.LBB53
 13728 005c 20010000 		.4byte	.LBE53
 13729 0060 2C010000 		.4byte	.LBB54
 13730 0064 32010000 		.4byte	.LBE54
 13731 0068 34010000 		.4byte	.LBB55
 13732 006c 3C010000 		.4byte	.LBE55
 13733 0070 00000000 		.4byte	0
 13734 0074 00000000 		.4byte	0
 13735 0078 84010000 		.4byte	.LBB56
 13736 007c 86010000 		.4byte	.LBE56
 13737 0080 8A010000 		.4byte	.LBB62
ARM GAS  C:\Users\Moi\AppData\Local\Temp\ccWeMAis.s 			page 242


 13738 0084 8C010000 		.4byte	.LBE62
 13739 0088 C2010000 		.4byte	.LBB67
 13740 008c C6010000 		.4byte	.LBE67
 13741 0090 CA010000 		.4byte	.LBB68
 13742 0094 CC010000 		.4byte	.LBE68
 13743 0098 D2010000 		.4byte	.LBB69
 13744 009c E6010000 		.4byte	.LBE69
 13745 00a0 00000000 		.4byte	0
 13746 00a4 00000000 		.4byte	0
 13747 00a8 AE010000 		.4byte	.LBB63
 13748 00ac B6010000 		.4byte	.LBE63
 13749 00b0 B8010000 		.4byte	.LBB66
 13750 00b4 BE010000 		.4byte	.LBE66
 13751 00b8 00000000 		.4byte	0
 13752 00bc 00000000 		.4byte	0
 13753 00c0 E6010000 		.4byte	.LBB70
 13754 00c4 EE010000 		.4byte	.LBE70
 13755 00c8 F0010000 		.4byte	.LBB73
 13756 00cc F4010000 		.4byte	.LBE73
 13757 00d0 00000000 		.4byte	0
 13758 00d4 00000000 		.4byte	0
 13759 00d8 1E020000 		.4byte	.LBB74
 13760 00dc 2A020000 		.4byte	.LBE74
 13761 00e0 2E020000 		.4byte	.LBB77
 13762 00e4 30020000 		.4byte	.LBE77
 13763 00e8 00000000 		.4byte	0
 13764 00ec 00000000 		.4byte	0
 13765 00f0 00000000 		.4byte	.LFB3
 13766 00f4 F8000000 		.4byte	.LFE3
 13767 00f8 00000000 		.4byte	.LFB4
 13768 00fc E8000000 		.4byte	.LFE4
 13769 0100 00000000 		.4byte	.LFB5
 13770 0104 5C000000 		.4byte	.LFE5
 13771 0108 00000000 		.4byte	.LFB6
 13772 010c 54000000 		.4byte	.LFE6
 13773 0110 00000000 		.4byte	.LFB7
 13774 0114 4C000000 		.4byte	.LFE7
 13775 0118 00000000 		.4byte	.LFB8
 13776 011c 68000000 		.4byte	.LFE8
 13777 0120 00000000 		.4byte	.LFB9
 13778 0124 34000000 		.4byte	.LFE9
 13779 0128 00000000 		.4byte	.LFB10
 13780 012c 3C000000 		.4byte	.LFE10
 13781 0130 00000000 		.4byte	.LFB11
 13782 0134 A0000000 		.4byte	.LFE11
 13783 0138 00000000 		.4byte	.LFB12
 13784 013c 2C000000 		.4byte	.LFE12
 13785 0140 00000000 		.4byte	.LFB13
 13786 0144 2C000000 		.4byte	.LFE13
 13787 0148 00000000 		.4byte	.LFB14
 13788 014c E4000000 		.4byte	.LFE14
 13789 0150 00000000 		.4byte	.LFB15
 13790 0154 7C000000 		.4byte	.LFE15
 13791 0158 00000000 		.4byte	.LFB17
 13792 015c C8000000 		.4byte	.LFE17
 13793 0160 00000000 		.4byte	.LFB18
 13794 0164 88000000 		.4byte	.LFE18
ARM GAS  C:\Users\Moi\AppData\Local\Temp\ccWeMAis.s 			page 243


 13795 0168 00000000 		.4byte	.LFB19
 13796 016c 60000000 		.4byte	.LFE19
 13797 0170 00000000 		.4byte	.LFB20
 13798 0174 08010000 		.4byte	.LFE20
 13799 0178 00000000 		.4byte	.LFB21
 13800 017c B4000000 		.4byte	.LFE21
 13801 0180 00000000 		.4byte	.LFB22
 13802 0184 A0000000 		.4byte	.LFE22
 13803 0188 00000000 		.4byte	.LFB23
 13804 018c 5C000000 		.4byte	.LFE23
 13805 0190 00000000 		.4byte	.LFB16
 13806 0194 BC020000 		.4byte	.LFE16
 13807 0198 00000000 		.4byte	.LFB24
 13808 019c 3C000000 		.4byte	.LFE24
 13809 01a0 00000000 		.4byte	.LFB25
 13810 01a4 34000000 		.4byte	.LFE25
 13811 01a8 00000000 		.4byte	0
 13812 01ac 00000000 		.4byte	0
 13813              		.section	.debug_line,"",%progbits
 13814              	.Ldebug_line0:
 13815 0000 45090000 		.section	.debug_str,"MS",%progbits,1
 13815      02007903 
 13815      00000201 
 13815      FB0E0D00 
 13815      01010101 
 13816              	.LASF302:
 13817 0000 7365745F 		.ascii	"set_ref_spad_map\000"
 13817      7265665F 
 13817      73706164 
 13817      5F6D6170 
 13817      00
 13818              	.LASF364:
 13819 0011 564C3533 		.ascii	"VL53L0X_WrByte\000"
 13819      4C30585F 
 13819      57724279 
 13819      746500
 13820              	.LASF245:
 13821 0020 564C3533 		.ascii	"VL53L0X_perform_phase_calibration\000"
 13821      4C30585F 
 13821      70657266 
 13821      6F726D5F 
 13821      70686173 
 13822              	.LASF361:
 13823 0042 7369676E 		.ascii	"signalXTalkTotalPerSpad\000"
 13823      616C5854 
 13823      616C6B54 
 13823      6F74616C 
 13823      50657253 
 13824              	.LASF89:
 13825 005a 52656665 		.ascii	"ReferenceSpadType\000"
 13825      72656E63 
 13825      65537061 
 13825      64547970 
 13825      6500
 13826              	.LASF58:
 13827 006c 5369676E 		.ascii	"SignalRateRtnMegaCps\000"
 13827      616C5261 
ARM GAS  C:\Users\Moi\AppData\Local\Temp\ccWeMAis.s 			page 244


 13827      74655274 
 13827      6E4D6567 
 13827      61437073 
 13828              	.LASF131:
 13829 0081 5F6D6178 		.ascii	"_maxwds\000"
 13829      77647300 
 13830              	.LASF92:
 13831 0089 50617274 		.ascii	"PartUIDLower\000"
 13831      5549444C 
 13831      6F776572 
 13831      00
 13832              	.LASF334:
 13833 0096 634D6178 		.ascii	"cMaxOffset\000"
 13833      4F666673 
 13833      657400
 13834              	.LASF29:
 13835 00a1 50726F64 		.ascii	"ProductRevisionMajor\000"
 13835      75637452 
 13835      65766973 
 13835      696F6E4D 
 13835      616A6F72 
 13836              	.LASF233:
 13837 00b6 564C3533 		.ascii	"VL53L0X_DEV\000"
 13837      4C30585F 
 13837      44455600 
 13838              	.LASF145:
 13839 00c2 5F6F6E5F 		.ascii	"_on_exit_args\000"
 13839      65786974 
 13839      5F617267 
 13839      7300
 13840              	.LASF162:
 13841 00d0 5F777269 		.ascii	"_write\000"
 13841      746500
 13842              	.LASF38:
 13843 00d7 48697374 		.ascii	"HistogramMode\000"
 13843      6F677261 
 13843      6D4D6F64 
 13843      6500
 13844              	.LASF359:
 13845 00e5 7854616C 		.ascii	"xTalkStoredMeanRange\000"
 13845      6B53746F 
 13845      7265644D 
 13845      65616E52 
 13845      616E6765 
 13846              	.LASF326:
 13847 00fa 64617461 		.ascii	"dataByte\000"
 13847      42797465 
 13847      00
 13848              	.LASF212:
 13849 0103 5F776374 		.ascii	"_wctomb_state\000"
 13849      6F6D625F 
 13849      73746174 
 13849      6500
 13850              	.LASF230:
 13851 0111 44657669 		.ascii	"DeviceInfo\000"
 13851      6365496E 
 13851      666F00
ARM GAS  C:\Users\Moi\AppData\Local\Temp\ccWeMAis.s 			page 245


 13852              	.LASF41:
 13853 011c 5854616C 		.ascii	"XTalkCompensationEnable\000"
 13853      6B436F6D 
 13853      70656E73 
 13853      6174696F 
 13853      6E456E61 
 13854              	.LASF81:
 13855 0134 50726552 		.ascii	"PreRangeVcselPulsePeriod\000"
 13855      616E6765 
 13855      56637365 
 13855      6C50756C 
 13855      73655065 
 13856              	.LASF209:
 13857 014d 5F723438 		.ascii	"_r48\000"
 13857      00
 13858              	.LASF341:
 13859 0152 564C3533 		.ascii	"VL53L0X_perform_offset_calibration\000"
 13859      4C30585F 
 13859      70657266 
 13859      6F726D5F 
 13859      6F666673 
 13860              	.LASF267:
 13861 0175 63757272 		.ascii	"currentSpadIndex\000"
 13861      656E7453 
 13861      70616449 
 13861      6E646578 
 13861      00
 13862              	.LASF136:
 13863 0186 5F5F746D 		.ascii	"__tm_sec\000"
 13863      5F736563 
 13863      00
 13864              	.LASF214:
 13865 018f 5F736967 		.ascii	"_signal_buf\000"
 13865      6E616C5F 
 13865      62756600 
 13866              	.LASF0:
 13867 019b 756E7369 		.ascii	"unsigned int\000"
 13867      676E6564 
 13867      20696E74 
 13867      00
 13868              	.LASF42:
 13869 01a8 5854616C 		.ascii	"XTalkCompensationRangeMilliMeter\000"
 13869      6B436F6D 
 13869      70656E73 
 13869      6174696F 
 13869      6E52616E 
 13870              	.LASF323:
 13871 01c9 6E657874 		.ascii	"next\000"
 13871      00
 13872              	.LASF238:
 13873 01ce 53746174 		.ascii	"Status\000"
 13873      757300
 13874              	.LASF251:
 13875 01d5 72656164 		.ascii	"read_not_write\000"
 13875      5F6E6F74 
 13875      5F777269 
 13875      746500
ARM GAS  C:\Users\Moi\AppData\Local\Temp\ccWeMAis.s 			page 246


 13876              	.LASF36:
 13877 01e4 564C3533 		.ascii	"VL53L0X_PowerModes\000"
 13877      4C30585F 
 13877      506F7765 
 13877      724D6F64 
 13877      657300
 13878              	.LASF27:
 13879 01f7 50726F64 		.ascii	"ProductId\000"
 13879      75637449 
 13879      6400
 13880              	.LASF253:
 13881 0201 70686173 		.ascii	"phase_enable\000"
 13881      655F656E 
 13881      61626C65 
 13881      00
 13882              	.LASF45:
 13883 020e 4C696D69 		.ascii	"LimitChecksEnable\000"
 13883      74436865 
 13883      636B7345 
 13883      6E61626C 
 13883      6500
 13884              	.LASF157:
 13885 0220 5F666C61 		.ascii	"_flags\000"
 13885      677300
 13886              	.LASF272:
 13887 0227 696E6465 		.ascii	"index\000"
 13887      7800
 13888              	.LASF70:
 13889 022d 4572726F 		.ascii	"ErrorStatus\000"
 13889      72537461 
 13889      74757300 
 13890              	.LASF59:
 13891 0239 416D6269 		.ascii	"AmbientRateRtnMegaCps\000"
 13891      656E7452 
 13891      61746552 
 13891      746E4D65 
 13891      67614370 
 13892              	.LASF9:
 13893 024f 5F5F696E 		.ascii	"__int32_t\000"
 13893      7433325F 
 13893      7400
 13894              	.LASF174:
 13895 0259 5F657272 		.ascii	"_errno\000"
 13895      6E6F00
 13896              	.LASF343:
 13897 0260 704F6666 		.ascii	"pOffsetMicroMeter\000"
 13897      7365744D 
 13897      6963726F 
 13897      4D657465 
 13897      7200
 13898              	.LASF358:
 13899 0272 7854616C 		.ascii	"xTalkStoredMeanSignalRate\000"
 13899      6B53746F 
 13899      7265644D 
 13899      65616E53 
 13899      69676E61 
 13900              	.LASF247:
ARM GAS  C:\Users\Moi\AppData\Local\Temp\ccWeMAis.s 			page 247


 13901 028c 56687653 		.ascii	"VhvSettingsint\000"
 13901      65747469 
 13901      6E677369 
 13901      6E7400
 13902              	.LASF375:
 13903 029b 564C3533 		.ascii	"VL53L0X_GetSequenceStepEnable\000"
 13903      4C30585F 
 13903      47657453 
 13903      65717565 
 13903      6E636553 
 13904              	.LASF303:
 13905 02b9 636F756E 		.ascii	"count_enabled_spads\000"
 13905      745F656E 
 13905      61626C65 
 13905      645F7370 
 13905      61647300 
 13906              	.LASF279:
 13907 02cd 6E656564 		.ascii	"needAptSpads\000"
 13907      41707453 
 13907      70616473 
 13907      00
 13908              	.LASF336:
 13909 02da 564C3533 		.ascii	"VL53L0X_set_offset_calibration_data_micro_meter\000"
 13909      4C30585F 
 13909      7365745F 
 13909      6F666673 
 13909      65745F63 
 13910              	.LASF226:
 13911 030a 5F5F6C6F 		.ascii	"__locale_t\000"
 13911      63616C65 
 13911      5F7400
 13912              	.LASF171:
 13913 0315 5F6D6273 		.ascii	"_mbstate\000"
 13913      74617465 
 13913      00
 13914              	.LASF161:
 13915 031e 5F726561 		.ascii	"_read\000"
 13915      6400
 13916              	.LASF320:
 13917 0324 71756164 		.ascii	"quadrant\000"
 13917      72616E74 
 13917      00
 13918              	.LASF216:
 13919 032d 5F6D6272 		.ascii	"_mbrlen_state\000"
 13919      6C656E5F 
 13919      73746174 
 13919      6500
 13920              	.LASF232:
 13921 033b 564C3533 		.ascii	"VL53L0X_Dev_t\000"
 13921      4C30585F 
 13921      4465765F 
 13921      7400
 13922              	.LASF48:
 13923 0349 57726170 		.ascii	"WrapAroundCheckEnable\000"
 13923      41726F75 
 13923      6E644368 
 13923      65636B45 
ARM GAS  C:\Users\Moi\AppData\Local\Temp\ccWeMAis.s 			page 248


 13923      6E61626C 
 13924              	.LASF106:
 13925 035f 506F7765 		.ascii	"PowerMode\000"
 13925      724D6F64 
 13925      6500
 13926              	.LASF276:
 13927 0369 6D696E69 		.ascii	"minimumSpadCount\000"
 13927      6D756D53 
 13927      70616443 
 13927      6F756E74 
 13927      00
 13928              	.LASF342:
 13929 037a 43616C44 		.ascii	"CalDistanceMilliMeter\000"
 13929      69737461 
 13929      6E63654D 
 13929      696C6C69 
 13929      4D657465 
 13930              	.LASF46:
 13931 0390 4C696D69 		.ascii	"LimitChecksStatus\000"
 13931      74436865 
 13931      636B7353 
 13931      74617475 
 13931      7300
 13932              	.LASF57:
 13933 03a2 52616E67 		.ascii	"RangeDMaxMilliMeter\000"
 13933      65444D61 
 13933      784D696C 
 13933      6C694D65 
 13933      74657200 
 13934              	.LASF307:
 13935 03b6 70497341 		.ascii	"pIsAperture\000"
 13935      70657274 
 13935      75726500 
 13936              	.LASF121:
 13937 03c2 5F66706F 		.ascii	"_fpos_t\000"
 13937      735F7400 
 13938              	.LASF227:
 13939 03ca 5F696D70 		.ascii	"_impure_ptr\000"
 13939      7572655F 
 13939      70747200 
 13940              	.LASF152:
 13941 03d6 5F666E73 		.ascii	"_fns\000"
 13941      00
 13942              	.LASF87:
 13943 03db 52657669 		.ascii	"Revision\000"
 13943      73696F6E 
 13943      00
 13944              	.LASF160:
 13945 03e4 5F636F6F 		.ascii	"_cookie\000"
 13945      6B696500 
 13946              	.LASF32:
 13947 03ec 564C3533 		.ascii	"VL53L0X_DeviceInfo_t\000"
 13947      4C30585F 
 13947      44657669 
 13947      6365496E 
 13947      666F5F74 
 13948              	.LASF96:
ARM GAS  C:\Users\Moi\AppData\Local\Temp\ccWeMAis.s 			page 249


 13949 0401 50617274 		.ascii	"Part2PartOffsetNVMMicroMeter\000"
 13949      32506172 
 13949      744F6666 
 13949      7365744E 
 13949      564D4D69 
 13950              	.LASF292:
 13951 041e 73706164 		.ascii	"spadArray\000"
 13951      41727261 
 13951      7900
 13952              	.LASF237:
 13953 0428 70506861 		.ascii	"pPhaseCal\000"
 13953      73654361 
 13953      6C00
 13954              	.LASF134:
 13955 0432 5F426967 		.ascii	"_Bigint\000"
 13955      696E7400 
 13956              	.LASF142:
 13957 043a 5F5F746D 		.ascii	"__tm_wday\000"
 13957      5F776461 
 13957      7900
 13958              	.LASF184:
 13959 0444 5F726573 		.ascii	"_result\000"
 13959      756C7400 
 13960              	.LASF22:
 13961 044c 46697850 		.ascii	"FixPoint1616_t\000"
 13961      6F696E74 
 13961      31363136 
 13961      5F7400
 13962              	.LASF94:
 13963 045b 564C3533 		.ascii	"VL53L0X_DeviceSpecificParameters_t\000"
 13963      4C30585F 
 13963      44657669 
 13963      63655370 
 13963      65636966 
 13964              	.LASF20:
 13965 047e 75696E74 		.ascii	"uint32_t\000"
 13965      33325F74 
 13965      00
 13966              	.LASF15:
 13967 0487 696E7438 		.ascii	"int8_t\000"
 13967      5F7400
 13968              	.LASF138:
 13969 048e 5F5F746D 		.ascii	"__tm_hour\000"
 13969      5F686F75 
 13969      7200
 13970              	.LASF378:
 13971 0498 564C3533 		.ascii	"VL53L0X_SetXTalkCompensationEnable\000"
 13971      4C30585F 
 13971      53657458 
 13971      54616C6B 
 13971      436F6D70 
 13972              	.LASF125:
 13973 04bb 5F5F636F 		.ascii	"__count\000"
 13973      756E7400 
 13974              	.LASF367:
 13975 04c3 564C3533 		.ascii	"VL53L0X_ReadMulti\000"
 13975      4C30585F 
ARM GAS  C:\Users\Moi\AppData\Local\Temp\ccWeMAis.s 			page 250


 13975      52656164 
 13975      4D756C74 
 13975      6900
 13976              	.LASF66:
 13977 04d5 48697374 		.ascii	"HistogramType\000"
 13977      6F677261 
 13977      6D547970 
 13977      6500
 13978              	.LASF255:
 13979 04e3 7668765F 		.ascii	"vhv_init_byte\000"
 13979      696E6974 
 13979      5F627974 
 13979      6500
 13980              	.LASF137:
 13981 04f1 5F5F746D 		.ascii	"__tm_min\000"
 13981      5F6D696E 
 13981      00
 13982              	.LASF49:
 13983 04fa 564C3533 		.ascii	"VL53L0X_DeviceParameters_t\000"
 13983      4C30585F 
 13983      44657669 
 13983      63655061 
 13983      72616D65 
 13984              	.LASF222:
 13985 0515 5F6E6578 		.ascii	"_nextf\000"
 13985      746600
 13986              	.LASF23:
 13987 051c 564C3533 		.ascii	"VL53L0X_DeviceError\000"
 13987      4C30585F 
 13987      44657669 
 13987      63654572 
 13987      726F7200 
 13988              	.LASF377:
 13989 0530 564C3533 		.ascii	"VL53L0X_SetLimitCheckEnable\000"
 13989      4C30585F 
 13989      5365744C 
 13989      696D6974 
 13989      43686563 
 13990              	.LASF108:
 13991 054c 74617267 		.ascii	"targetRefRate\000"
 13991      65745265 
 13991      66526174 
 13991      6500
 13992              	.LASF17:
 13993 055a 696E7431 		.ascii	"int16_t\000"
 13993      365F7400 
 13994              	.LASF199:
 13995 0562 5F72616E 		.ascii	"_rand48\000"
 13995      64343800 
 13996              	.LASF30:
 13997 056a 50726F64 		.ascii	"ProductRevisionMinor\000"
 13997      75637452 
 13997      65766973 
 13997      696F6E4D 
 13997      696E6F72 
 13998              	.LASF350:
 13999 057f 53657175 		.ascii	"SequenceStepEnabled\000"
ARM GAS  C:\Users\Moi\AppData\Local\Temp\ccWeMAis.s 			page 251


 13999      656E6365 
 13999      53746570 
 13999      456E6162 
 13999      6C656400 
 14000              	.LASF265:
 14001 0593 564C3533 		.ascii	"VL53L0X_set_reference_spads\000"
 14001      4C30585F 
 14001      7365745F 
 14001      72656665 
 14001      72656E63 
 14002              	.LASF185:
 14003 05af 5F726573 		.ascii	"_result_k\000"
 14003      756C745F 
 14003      6B00
 14004              	.LASF97:
 14005 05b9 50617274 		.ascii	"Part2PartOffsetAdjustmentNVMMicroMeter\000"
 14005      32506172 
 14005      744F6666 
 14005      73657441 
 14005      646A7573 
 14006              	.LASF14:
 14007 05e0 6C6F6E67 		.ascii	"long long unsigned int\000"
 14007      206C6F6E 
 14007      6720756E 
 14007      7369676E 
 14007      65642069 
 14008              	.LASF51:
 14009 05f7 416D6254 		.ascii	"AmbTuningWindowFactor_K\000"
 14009      756E696E 
 14009      6757696E 
 14009      646F7746 
 14009      6163746F 
 14010              	.LASF205:
 14011 060f 5F617363 		.ascii	"_asctime_buf\000"
 14011      74696D65 
 14011      5F627566 
 14011      00
 14012              	.LASF156:
 14013 061c 5F5F7346 		.ascii	"__sFILE\000"
 14013      494C4500 
 14014              	.LASF133:
 14015 0624 5F776473 		.ascii	"_wds\000"
 14015      00
 14016              	.LASF315:
 14017 0629 656E6162 		.ascii	"enable_spad_bit\000"
 14017      6C655F73 
 14017      7061645F 
 14017      62697400 
 14018              	.LASF325:
 14019 0639 66696E65 		.ascii	"fineOffset\000"
 14019      4F666673 
 14019      657400
 14020              	.LASF275:
 14021 0644 6C617374 		.ascii	"lastSpadArray\000"
 14021      53706164 
 14021      41727261 
 14021      7900
ARM GAS  C:\Users\Moi\AppData\Local\Temp\ccWeMAis.s 			page 252


 14022              	.LASF75:
 14023 0652 4F736346 		.ascii	"OscFrequencyMHz\000"
 14023      72657175 
 14023      656E6379 
 14023      4D487A00 
 14024              	.LASF312:
 14025 0662 62697449 		.ascii	"bitIndex\000"
 14025      6E646578 
 14025      00
 14026              	.LASF7:
 14027 066b 5F5F7569 		.ascii	"__uint16_t\000"
 14027      6E743136 
 14027      5F7400
 14028              	.LASF195:
 14029 0676 5F5F4649 		.ascii	"__FILE\000"
 14029      4C4500
 14030              	.LASF308:
 14031 067d 63537061 		.ascii	"cSpadsPerByte\000"
 14031      64735065 
 14031      72427974 
 14031      6500
 14032              	.LASF168:
 14033 068b 5F6F6666 		.ascii	"_offset\000"
 14033      73657400 
 14034              	.LASF324:
 14035 0693 73746172 		.ascii	"startIndex\000"
 14035      74496E64 
 14035      657800
 14036              	.LASF319:
 14037 069e 69735F61 		.ascii	"is_aperture\000"
 14037      70657274 
 14037      75726500 
 14038              	.LASF72:
 14039 06aa 52656653 		.ascii	"RefSpadEnables\000"
 14039      70616445 
 14039      6E61626C 
 14039      657300
 14040              	.LASF25:
 14041 06b9 4E616D65 		.ascii	"Name\000"
 14041      00
 14042              	.LASF113:
 14043 06be 55736549 		.ascii	"UseInternalTuningSettings\000"
 14043      6E746572 
 14043      6E616C54 
 14043      756E696E 
 14043      67536574 
 14044              	.LASF179:
 14045 06d8 5F656D65 		.ascii	"_emergency\000"
 14045      7267656E 
 14045      637900
 14046              	.LASF241:
 14047 06e3 564C3533 		.ascii	"VL53L0X_get_ref_calibration\000"
 14047      4C30585F 
 14047      6765745F 
 14047      7265665F 
 14047      63616C69 
 14048              	.LASF246:
ARM GAS  C:\Users\Moi\AppData\Local\Temp\ccWeMAis.s 			page 253


 14049 06ff 72657374 		.ascii	"restore_config\000"
 14049      6F72655F 
 14049      636F6E66 
 14049      696700
 14050              	.LASF114:
 14051 070e 4C696E65 		.ascii	"LinearityCorrectiveGain\000"
 14051      61726974 
 14051      79436F72 
 14051      72656374 
 14051      69766547 
 14052              	.LASF60:
 14053 0726 45666665 		.ascii	"EffectiveSpadRtnCount\000"
 14053      63746976 
 14053      65537061 
 14053      6452746E 
 14053      436F756E 
 14054              	.LASF372:
 14055 073c 564C3533 		.ascii	"VL53L0X_GetOffsetCalibrationDataMicroMeter\000"
 14055      4C30585F 
 14055      4765744F 
 14055      66667365 
 14055      7443616C 
 14056              	.LASF268:
 14057 0767 73746172 		.ascii	"startSelect\000"
 14057      7453656C 
 14057      65637400 
 14058              	.LASF304:
 14059 0773 62797465 		.ascii	"byteCount\000"
 14059      436F756E 
 14059      7400
 14060              	.LASF311:
 14061 077d 62797465 		.ascii	"byteIndex\000"
 14061      496E6465 
 14061      7800
 14062              	.LASF102:
 14063 0787 53706164 		.ascii	"SpadData\000"
 14063      44617461 
 14063      00
 14064              	.LASF295:
 14065 0790 6F666673 		.ascii	"offset\000"
 14065      657400
 14066              	.LASF40:
 14067 0797 496E7465 		.ascii	"InterMeasurementPeriodMilliSeconds\000"
 14067      724D6561 
 14067      73757265 
 14067      6D656E74 
 14067      50657269 
 14068              	.LASF88:
 14069 07ba 52656665 		.ascii	"ReferenceSpadCount\000"
 14069      72656E63 
 14069      65537061 
 14069      64436F75 
 14069      6E7400
 14070              	.LASF234:
 14071 07cd 7375626F 		.ascii	"suboptarg\000"
 14071      70746172 
 14071      6700
ARM GAS  C:\Users\Moi\AppData\Local\Temp\ccWeMAis.s 			page 254


 14072              	.LASF143:
 14073 07d7 5F5F746D 		.ascii	"__tm_yday\000"
 14073      5F796461 
 14073      7900
 14074              	.LASF178:
 14075 07e1 5F696E63 		.ascii	"_inc\000"
 14075      00
 14076              	.LASF151:
 14077 07e6 5F696E64 		.ascii	"_ind\000"
 14077      00
 14078              	.LASF347:
 14079 07eb 53746F72 		.ascii	"StoredMeanRange\000"
 14079      65644D65 
 14079      616E5261 
 14079      6E676500 
 14080              	.LASF86:
 14081 07fb 4D6F6475 		.ascii	"ModuleId\000"
 14081      6C654964 
 14081      00
 14082              	.LASF65:
 14083 0804 48697374 		.ascii	"HistogramData\000"
 14083      6F677261 
 14083      6D446174 
 14083      6100
 14084              	.LASF47:
 14085 0812 4C696D69 		.ascii	"LimitChecksValue\000"
 14085      74436865 
 14085      636B7356 
 14085      616C7565 
 14085      00
 14086              	.LASF385:
 14087 0823 6765745F 		.ascii	"get_next_good_spad\000"
 14087      6E657874 
 14087      5F676F6F 
 14087      645F7370 
 14087      616400
 14088              	.LASF348:
 14089 0836 53746F72 		.ascii	"StoredMeanRangeAsInt\000"
 14089      65644D65 
 14089      616E5261 
 14089      6E676541 
 14089      73496E74 
 14090              	.LASF130:
 14091 084b 5F6E6578 		.ascii	"_next\000"
 14091      7400
 14092              	.LASF353:
 14093 0851 5854616C 		.ascii	"XTalkCalDistance\000"
 14093      6B43616C 
 14093      44697374 
 14093      616E6365 
 14093      00
 14094              	.LASF218:
 14095 0862 5F6D6273 		.ascii	"_mbsrtowcs_state\000"
 14095      72746F77 
 14095      63735F73 
 14095      74617465 
 14095      00
ARM GAS  C:\Users\Moi\AppData\Local\Temp\ccWeMAis.s 			page 255


 14096              	.LASF263:
 14097 0873 73706164 		.ascii	"spadsEnabled\000"
 14097      73456E61 
 14097      626C6564 
 14097      00
 14098              	.LASF44:
 14099 0880 52616E67 		.ascii	"RangeOffsetMicroMeters\000"
 14099      654F6666 
 14099      7365744D 
 14099      6963726F 
 14099      4D657465 
 14100              	.LASF257:
 14101 0897 70537061 		.ascii	"pSpadCount\000"
 14101      64436F75 
 14101      6E7400
 14102              	.LASF328:
 14103 08a2 564C3533 		.ascii	"VL53L0X_apply_offset_adjustment\000"
 14103      4C30585F 
 14103      6170706C 
 14103      795F6F66 
 14103      66736574 
 14104              	.LASF115:
 14105 08c2 446D6178 		.ascii	"DmaxCalRangeMilliMeter\000"
 14105      43616C52 
 14105      616E6765 
 14105      4D696C6C 
 14105      694D6574 
 14106              	.LASF282:
 14107 08d9 636F6D70 		.ascii	"complete\000"
 14107      6C657465 
 14107      00
 14108              	.LASF126:
 14109 08e2 5F5F7661 		.ascii	"__value\000"
 14109      6C756500 
 14110              	.LASF83:
 14111 08ea 5369676D 		.ascii	"SigmaEstEffPulseWidth\000"
 14111      61457374 
 14111      45666650 
 14111      756C7365 
 14111      57696474 
 14112              	.LASF258:
 14113 0900 70497341 		.ascii	"pIsApertureSpads\000"
 14113      70657274 
 14113      75726553 
 14113      70616473 
 14113      00
 14114              	.LASF186:
 14115 0911 5F703573 		.ascii	"_p5s\000"
 14115      00
 14116              	.LASF266:
 14117 0916 636F756E 		.ascii	"count\000"
 14117      7400
 14118              	.LASF107:
 14119 091c 53746F70 		.ascii	"StopVariable\000"
 14119      56617269 
 14119      61626C65 
 14119      00
ARM GAS  C:\Users\Moi\AppData\Local\Temp\ccWeMAis.s 			page 256


 14120              	.LASF318:
 14121 0929 66696E65 		.ascii	"fineIndex\000"
 14121      496E6465 
 14121      7800
 14122              	.LASF95:
 14123 0933 444D6178 		.ascii	"DMaxData\000"
 14123      44617461 
 14123      00
 14124              	.LASF55:
 14125 093c 4D656173 		.ascii	"MeasurementTimeUsec\000"
 14125      7572656D 
 14125      656E7454 
 14125      696D6555 
 14125      73656300 
 14126              	.LASF210:
 14127 0950 5F6D626C 		.ascii	"_mblen_state\000"
 14127      656E5F73 
 14127      74617465 
 14127      00
 14128              	.LASF381:
 14129 095d 564C3533 		.ascii	"VL53L0X_ClearInterruptMask\000"
 14129      4C30585F 
 14129      436C6561 
 14129      72496E74 
 14129      65727275 
 14130              	.LASF305:
 14131 0978 6D617853 		.ascii	"maxSpads\000"
 14131      70616473 
 14131      00
 14132              	.LASF31:
 14133 0981 63686172 		.ascii	"char\000"
 14133      00
 14134              	.LASF139:
 14135 0986 5F5F746D 		.ascii	"__tm_mday\000"
 14135      5F6D6461 
 14135      7900
 14136              	.LASF192:
 14137 0990 5F736967 		.ascii	"_sig_func\000"
 14137      5F66756E 
 14137      6300
 14138              	.LASF217:
 14139 099a 5F6D6272 		.ascii	"_mbrtowc_state\000"
 14139      746F7763 
 14139      5F737461 
 14139      746500
 14140              	.LASF191:
 14141 09a9 5F617465 		.ascii	"_atexit0\000"
 14141      78697430 
 14141      00
 14142              	.LASF236:
 14143 09b2 70566876 		.ascii	"pVhvSettings\000"
 14143      53657474 
 14143      696E6773 
 14143      00
 14144              	.LASF85:
 14145 09bf 52656164 		.ascii	"ReadDataFromDeviceDone\000"
 14145      44617461 
ARM GAS  C:\Users\Moi\AppData\Local\Temp\ccWeMAis.s 			page 257


 14145      46726F6D 
 14145      44657669 
 14145      6365446F 
 14146              	.LASF39:
 14147 09d6 4D656173 		.ascii	"MeasurementTimingBudgetMicroSeconds\000"
 14147      7572656D 
 14147      656E7454 
 14147      696D696E 
 14147      67427564 
 14148              	.LASF99:
 14149 09fa 4C617374 		.ascii	"LastRangeMeasure\000"
 14149      52616E67 
 14149      654D6561 
 14149      73757265 
 14149      00
 14150              	.LASF283:
 14151 0a0b 72656653 		.ascii	"refSpadCount_int\000"
 14151      70616443 
 14151      6F756E74 
 14151      5F696E74 
 14151      00
 14152              	.LASF68:
 14153 0a1c 42756666 		.ascii	"BufferSize\000"
 14153      65725369 
 14153      7A6500
 14154              	.LASF290:
 14155 0a27 61706572 		.ascii	"apertureSpads\000"
 14155      74757265 
 14155      53706164 
 14155      7300
 14156              	.LASF274:
 14157 0a35 72656653 		.ascii	"refSpadCount\000"
 14157      70616443 
 14157      6F756E74 
 14157      00
 14158              	.LASF128:
 14159 0a42 5F666C6F 		.ascii	"_flock_t\000"
 14159      636B5F74 
 14159      00
 14160              	.LASF340:
 14161 0a4b 656E636F 		.ascii	"encodedOffsetVal\000"
 14161      6465644F 
 14161      66667365 
 14161      7456616C 
 14161      00
 14162              	.LASF74:
 14163 0a5c 564C3533 		.ascii	"VL53L0X_SpadData_t\000"
 14163      4C30585F 
 14163      53706164 
 14163      44617461 
 14163      5F7400
 14164              	.LASF313:
 14165 0a6f 74656D70 		.ascii	"tempByte\000"
 14165      42797465 
 14165      00
 14166              	.LASF123:
 14167 0a78 5F5F7763 		.ascii	"__wch\000"
ARM GAS  C:\Users\Moi\AppData\Local\Temp\ccWeMAis.s 			page 258


 14167      6800
 14168              	.LASF198:
 14169 0a7e 5F696F62 		.ascii	"_iobs\000"
 14169      7300
 14170              	.LASF16:
 14171 0a84 75696E74 		.ascii	"uint8_t\000"
 14171      385F7400 
 14172              	.LASF287:
 14173 0a8c 73746174 		.ascii	"status\000"
 14173      757300
 14174              	.LASF24:
 14175 0a93 564C3533 		.ascii	"VL53L0X_GpioFunctionality\000"
 14175      4C30585F 
 14175      4770696F 
 14175      46756E63 
 14175      74696F6E 
 14176              	.LASF327:
 14177 0aad 73756363 		.ascii	"success\000"
 14177      65737300 
 14178              	.LASF240:
 14179 0ab5 50686173 		.ascii	"PhaseCal\000"
 14179      6543616C 
 14179      00
 14180              	.LASF164:
 14181 0abe 5F636C6F 		.ascii	"_close\000"
 14181      736500
 14182              	.LASF310:
 14183 0ac5 6C617374 		.ascii	"lastBit\000"
 14183      42697400 
 14184              	.LASF182:
 14185 0acd 5F5F7364 		.ascii	"__sdidinit\000"
 14185      6964696E 
 14185      697400
 14186              	.LASF26:
 14187 0ad8 54797065 		.ascii	"Type\000"
 14187      00
 14188              	.LASF337:
 14189 0add 4F666673 		.ascii	"OffsetCalibrationDataMicroMeter\000"
 14189      65744361 
 14189      6C696272 
 14189      6174696F 
 14189      6E446174 
 14190              	.LASF339:
 14191 0afd 634D696E 		.ascii	"cMinOffsetMicroMeter\000"
 14191      4F666673 
 14191      65744D69 
 14191      63726F4D 
 14191      65746572 
 14192              	.LASF35:
 14193 0b12 564C3533 		.ascii	"VL53L0X_HistogramModes\000"
 14193      4C30585F 
 14193      48697374 
 14193      6F677261 
 14193      6D4D6F64 
 14194              	.LASF355:
 14195 0b29 73756D5F 		.ascii	"sum_spads\000"
 14195      73706164 
ARM GAS  C:\Users\Moi\AppData\Local\Temp\ccWeMAis.s 			page 259


 14195      7300
 14196              	.LASF357:
 14197 0b33 7874616C 		.ascii	"xtalk_meas\000"
 14197      6B5F6D65 
 14197      617300
 14198              	.LASF175:
 14199 0b3e 5F737464 		.ascii	"_stdin\000"
 14199      696E00
 14200              	.LASF207:
 14201 0b45 5F67616D 		.ascii	"_gamma_signgam\000"
 14201      6D615F73 
 14201      69676E67 
 14201      616D00
 14202              	.LASF63:
 14203 0b54 52616E67 		.ascii	"RangeStatus\000"
 14203      65537461 
 14203      74757300 
 14204              	.LASF67:
 14205 0b60 46697273 		.ascii	"FirstBin\000"
 14205      7442696E 
 14205      00
 14206              	.LASF13:
 14207 0b69 6C6F6E67 		.ascii	"long long int\000"
 14207      206C6F6E 
 14207      6720696E 
 14207      7400
 14208              	.LASF314:
 14209 0b77 73706164 		.ascii	"spadTypeIdentified\000"
 14209      54797065 
 14209      4964656E 
 14209      74696669 
 14209      656400
 14210              	.LASF321:
 14211 0b8a 69734170 		.ascii	"isAperture\000"
 14211      65727475 
 14211      726500
 14212              	.LASF333:
 14213 0b95 52616E67 		.ascii	"RangeOffsetRegister\000"
 14213      654F6666 
 14213      73657452 
 14213      65676973 
 14213      74657200 
 14214              	.LASF34:
 14215 0ba9 564C3533 		.ascii	"VL53L0X_DeviceModes\000"
 14215      4C30585F 
 14215      44657669 
 14215      63654D6F 
 14215      64657300 
 14216              	.LASF154:
 14217 0bbd 5F626173 		.ascii	"_base\000"
 14217      6500
 14218              	.LASF187:
 14219 0bc3 5F667265 		.ascii	"_freelist\000"
 14219      656C6973 
 14219      7400
 14220              	.LASF363:
 14221 0bcd 7854616C 		.ascii	"xTalkCalDistanceAsInt\000"
ARM GAS  C:\Users\Moi\AppData\Local\Temp\ccWeMAis.s 			page 260


 14221      6B43616C 
 14221      44697374 
 14221      616E6365 
 14221      4173496E 
 14222              	.LASF201:
 14223 0be3 5F6D756C 		.ascii	"_mult\000"
 14223      7400
 14224              	.LASF354:
 14225 0be9 70585461 		.ascii	"pXTalkCompensationRateMegaCps\000"
 14225      6C6B436F 
 14225      6D70656E 
 14225      73617469 
 14225      6F6E5261 
 14226              	.LASF129:
 14227 0c07 5F5F554C 		.ascii	"__ULong\000"
 14227      6F6E6700 
 14228              	.LASF90:
 14229 0c0f 52656653 		.ascii	"RefSpadsInitialised\000"
 14229      70616473 
 14229      496E6974 
 14229      69616C69 
 14229      73656400 
 14230              	.LASF346:
 14231 0c23 52616E67 		.ascii	"RangingMeasurementData\000"
 14231      696E674D 
 14231      65617375 
 14231      72656D65 
 14231      6E744461 
 14232              	.LASF219:
 14233 0c3a 5F776372 		.ascii	"_wcrtomb_state\000"
 14233      746F6D62 
 14233      5F737461 
 14233      746500
 14234              	.LASF301:
 14235 0c49 6765745F 		.ascii	"get_ref_spad_map\000"
 14235      7265665F 
 14235      73706164 
 14235      5F6D6170 
 14235      00
 14236              	.LASF158:
 14237 0c5a 5F66696C 		.ascii	"_file\000"
 14237      6500
 14238              	.LASF345:
 14239 0c60 746F7461 		.ascii	"total_count\000"
 14239      6C5F636F 
 14239      756E7400 
 14240              	.LASF5:
 14241 0c6c 5F5F696E 		.ascii	"__int16_t\000"
 14241      7431365F 
 14241      7400
 14242              	.LASF349:
 14243 0c76 43616C44 		.ascii	"CalDistanceAsInt_mm\000"
 14243      69737461 
 14243      6E636541 
 14243      73496E74 
 14243      5F6D6D00 
 14244              	.LASF366:
ARM GAS  C:\Users\Moi\AppData\Local\Temp\ccWeMAis.s 			page 261


 14245 0c8a 564C3533 		.ascii	"VL53L0X_RdByte\000"
 14245      4C30585F 
 14245      52644279 
 14245      746500
 14246              	.LASF183:
 14247 0c99 5F5F636C 		.ascii	"__cleanup\000"
 14247      65616E75 
 14247      7000
 14248              	.LASF127:
 14249 0ca3 5F6D6273 		.ascii	"_mbstate_t\000"
 14249      74617465 
 14249      5F7400
 14250              	.LASF370:
 14251 0cae 564C3533 		.ascii	"VL53L0X_RdWord\000"
 14251      4C30585F 
 14251      5264576F 
 14251      726400
 14252              	.LASF293:
 14253 0cbd 73697A65 		.ascii	"size\000"
 14253      00
 14254              	.LASF52:
 14255 0cc2 52657453 		.ascii	"RetSignalAt0mm\000"
 14255      69676E61 
 14255      6C417430 
 14255      6D6D00
 14256              	.LASF338:
 14257 0cd1 634D6178 		.ascii	"cMaxOffsetMicroMeter\000"
 14257      4F666673 
 14257      65744D69 
 14257      63726F4D 
 14257      65746572 
 14258              	.LASF144:
 14259 0ce6 5F5F746D 		.ascii	"__tm_isdst\000"
 14259      5F697364 
 14259      737400
 14260              	.LASF235:
 14261 0cf1 72656641 		.ascii	"refArrayQuadrants\000"
 14261      72726179 
 14261      51756164 
 14261      72616E74 
 14261      7300
 14262              	.LASF331:
 14263 0d03 564C3533 		.ascii	"VL53L0X_get_offset_calibration_data_micro_meter\000"
 14263      4C30585F 
 14263      6765745F 
 14263      6F666673 
 14263      65745F63 
 14264              	.LASF248:
 14265 0d33 564C3533 		.ascii	"VL53L0X_perform_vhv_calibration\000"
 14265      4C30585F 
 14265      70657266 
 14265      6F726D5F 
 14265      7668765F 
 14266              	.LASF220:
 14267 0d53 5F776373 		.ascii	"_wcsrtombs_state\000"
 14267      72746F6D 
 14267      62735F73 
ARM GAS  C:\Users\Moi\AppData\Local\Temp\ccWeMAis.s 			page 262


 14267      74617465 
 14267      00
 14268              	.LASF294:
 14269 0d64 73746172 		.ascii	"start\000"
 14269      7400
 14270              	.LASF329:
 14271 0d6a 436F7272 		.ascii	"CorrectedOffsetMicroMeters\000"
 14271      65637465 
 14271      644F6666 
 14271      7365744D 
 14271      6963726F 
 14272              	.LASF286:
 14273 0d85 72656653 		.ascii	"refSignalRate\000"
 14273      69676E61 
 14273      6C526174 
 14273      6500
 14274              	.LASF221:
 14275 0d93 5F685F65 		.ascii	"_h_errno\000"
 14275      72726E6F 
 14275      00
 14276              	.LASF273:
 14277 0d9c 564C3533 		.ascii	"VL53L0X_perform_ref_spad_management\000"
 14277      4C30585F 
 14277      70657266 
 14277      6F726D5F 
 14277      7265665F 
 14278              	.LASF254:
 14279 0dc0 50686173 		.ascii	"PhaseCalint\000"
 14279      6543616C 
 14279      696E7400 
 14280              	.LASF269:
 14281 0dcc 73706164 		.ascii	"spadArraySize\000"
 14281      41727261 
 14281      7953697A 
 14281      6500
 14282              	.LASF50:
 14283 0dda 564C3533 		.ascii	"VL53L0X_State\000"
 14283      4C30585F 
 14283      53746174 
 14283      6500
 14284              	.LASF53:
 14285 0de8 564C3533 		.ascii	"VL53L0X_DMaxData_t\000"
 14285      4C30585F 
 14285      444D6178 
 14285      44617461 
 14285      5F7400
 14286              	.LASF2:
 14287 0dfb 5F5F696E 		.ascii	"__int8_t\000"
 14287      74385F74 
 14287      00
 14288              	.LASF262:
 14289 0e04 63537061 		.ascii	"cSpadArraySize\000"
 14289      64417272 
 14289      61795369 
 14289      7A6500
 14290              	.LASF264:
 14291 0e13 69734170 		.ascii	"isApertureSpads\000"
ARM GAS  C:\Users\Moi\AppData\Local\Temp\ccWeMAis.s 			page 263


 14291      65727475 
 14291      72655370 
 14291      61647300 
 14292              	.LASF140:
 14293 0e23 5F5F746D 		.ascii	"__tm_mon\000"
 14293      5F6D6F6E 
 14293      00
 14294              	.LASF37:
 14295 0e2c 44657669 		.ascii	"DeviceMode\000"
 14295      63654D6F 
 14295      646500
 14296              	.LASF43:
 14297 0e37 5854616C 		.ascii	"XTalkCompensationRateMegaCps\000"
 14297      6B436F6D 
 14297      70656E73 
 14297      6174696F 
 14297      6E526174 
 14298              	.LASF21:
 14299 0e54 6C6F6E67 		.ascii	"long double\000"
 14299      20646F75 
 14299      626C6500 
 14300              	.LASF356:
 14301 0e60 73756D5F 		.ascii	"sum_signalRate\000"
 14301      7369676E 
 14301      616C5261 
 14301      746500
 14302              	.LASF119:
 14303 0e6f 5F4C4F43 		.ascii	"_LOCK_T\000"
 14303      4B5F5400 
 14304              	.LASF18:
 14305 0e77 75696E74 		.ascii	"uint16_t\000"
 14305      31365F74 
 14305      00
 14306              	.LASF64:
 14307 0e80 564C3533 		.ascii	"VL53L0X_RangingMeasurementData_t\000"
 14307      4C30585F 
 14307      52616E67 
 14307      696E674D 
 14307      65617375 
 14308              	.LASF382:
 14309 0ea1 474E5520 		.ascii	"GNU C11 7.2.1 20170904 (release) [ARM/embedded-7-br"
 14309      43313120 
 14309      372E322E 
 14309      31203230 
 14309      31373039 
 14310 0ed4 616E6368 		.ascii	"anch revision 255204] -mcpu=cortex-m4 -mfloat-abi=h"
 14310      20726576 
 14310      6973696F 
 14310      6E203235 
 14310      35323034 
 14311 0f07 61726420 		.ascii	"ard -mfpu=fpv4-sp-d16 -mno-thumb-interwork -mthumb "
 14311      2D6D6670 
 14311      753D6670 
 14311      76342D73 
 14311      702D6431 
 14312 0f3a 2D676764 		.ascii	"-ggdb -O2 -fomit-frame-pointer -falign-functions=16"
 14312      62202D4F 
ARM GAS  C:\Users\Moi\AppData\Local\Temp\ccWeMAis.s 			page 264


 14312      32202D66 
 14312      6F6D6974 
 14312      2D667261 
 14313 0f6d 202D6673 		.ascii	" -fstack-protector-all -ffunction-sections -fdata-s"
 14313      7461636B 
 14313      2D70726F 
 14313      74656374 
 14313      6F722D61 
 14314 0fa0 65637469 		.ascii	"ections -fno-common -fsingle-precision-constant\000"
 14314      6F6E7320 
 14314      2D666E6F 
 14314      2D636F6D 
 14314      6D6F6E20 
 14315              	.LASF242:
 14316 0fd0 564C3533 		.ascii	"VL53L0X_set_ref_calibration\000"
 14316      4C30585F 
 14316      7365745F 
 14316      7265665F 
 14316      63616C69 
 14317              	.LASF371:
 14318 0fec 564C3533 		.ascii	"VL53L0X_get_info_from_device\000"
 14318      4C30585F 
 14318      6765745F 
 14318      696E666F 
 14318      5F66726F 
 14319              	.LASF374:
 14320 1009 564C3533 		.ascii	"VL53L0X_WrWord\000"
 14320      4C30585F 
 14320      5772576F 
 14320      726400
 14321              	.LASF103:
 14322 1018 53657175 		.ascii	"SequenceConfig\000"
 14322      656E6365 
 14322      436F6E66 
 14322      696700
 14323              	.LASF150:
 14324 1027 5F617465 		.ascii	"_atexit\000"
 14324      78697400 
 14325              	.LASF173:
 14326 102f 5F726565 		.ascii	"_reent\000"
 14326      6E7400
 14327              	.LASF300:
 14328 1036 564C3533 		.ascii	"VL53L0X_perform_single_ref_calibration\000"
 14328      4C30585F 
 14328      70657266 
 14328      6F726D5F 
 14328      73696E67 
 14329              	.LASF252:
 14330 105d 7668765F 		.ascii	"vhv_enable\000"
 14330      656E6162 
 14330      6C6500
 14331              	.LASF289:
 14332 1068 656E6162 		.ascii	"enable_ref_spads\000"
 14332      6C655F72 
 14332      65665F73 
 14332      70616473 
 14332      00
ARM GAS  C:\Users\Moi\AppData\Local\Temp\ccWeMAis.s 			page 265


 14333              	.LASF6:
 14334 1079 73686F72 		.ascii	"short int\000"
 14334      7420696E 
 14334      7400
 14335              	.LASF285:
 14336 1083 70657266 		.ascii	"perform_ref_signal_measurement\000"
 14336      6F726D5F 
 14336      7265665F 
 14336      7369676E 
 14336      616C5F6D 
 14337              	.LASF309:
 14338 10a2 6C617374 		.ascii	"lastByte\000"
 14338      42797465 
 14338      00
 14339              	.LASF322:
 14340 10ab 63757272 		.ascii	"curr\000"
 14340      00
 14341              	.LASF10:
 14342 10b0 6C6F6E67 		.ascii	"long int\000"
 14342      20696E74 
 14342      00
 14343              	.LASF368:
 14344 10b9 564C3533 		.ascii	"VL53L0X_WriteMulti\000"
 14344      4C30585F 
 14344      57726974 
 14344      654D756C 
 14344      746900
 14345              	.LASF365:
 14346 10cc 564C3533 		.ascii	"VL53L0X_UpdateByte\000"
 14346      4C30585F 
 14346      55706461 
 14346      74654279 
 14346      746500
 14347              	.LASF91:
 14348 10df 50617274 		.ascii	"PartUIDUpper\000"
 14348      55494455 
 14348      70706572 
 14348      00
 14349              	.LASF110:
 14350 10ec 5369676E 		.ascii	"SignalEstimate\000"
 14350      616C4573 
 14350      74696D61 
 14350      746500
 14351              	.LASF386:
 14352 10fb 5F5F7374 		.ascii	"__stack_chk_fail\000"
 14352      61636B5F 
 14352      63686B5F 
 14352      6661696C 
 14352      00
 14353              	.LASF383:
 14354 110c 2E2E2F2F 		.ascii	"..//src/sensors/VL53L0X/Api/core/src/vl53l0x_api_ca"
 14354      7372632F 
 14354      73656E73 
 14354      6F72732F 
 14354      564C3533 
 14355 113f 6C696272 		.ascii	"libration.c\000"
 14355      6174696F 
ARM GAS  C:\Users\Moi\AppData\Local\Temp\ccWeMAis.s 			page 266


 14355      6E2E6300 
 14356              	.LASF231:
 14357 114b 49326344 		.ascii	"I2cDevAddr\000"
 14357      65764164 
 14357      647200
 14358              	.LASF194:
 14359 1156 5F5F7366 		.ascii	"__sf\000"
 14359      00
 14360              	.LASF132:
 14361 115b 5F736967 		.ascii	"_sign\000"
 14361      6E00
 14362              	.LASF330:
 14363 1161 43757272 		.ascii	"CurrentOffsetMicroMeters\000"
 14363      656E744F 
 14363      66667365 
 14363      744D6963 
 14363      726F4D65 
 14364              	.LASF344:
 14365 117a 73756D5F 		.ascii	"sum_ranging\000"
 14365      72616E67 
 14365      696E6700 
 14366              	.LASF373:
 14367 1186 564C3533 		.ascii	"VL53L0X_SetOffsetCalibrationDataMicroMeter\000"
 14367      4C30585F 
 14367      5365744F 
 14367      66667365 
 14367      7443616C 
 14368              	.LASF169:
 14369 11b1 5F646174 		.ascii	"_data\000"
 14369      6100
 14370              	.LASF111:
 14371 11b7 4C617374 		.ascii	"LastSignalRefMcps\000"
 14371      5369676E 
 14371      616C5265 
 14371      664D6370 
 14371      7300
 14372              	.LASF124:
 14373 11c9 5F5F7763 		.ascii	"__wchb\000"
 14373      686200
 14374              	.LASF228:
 14375 11d0 5F676C6F 		.ascii	"_global_impure_ptr\000"
 14375      62616C5F 
 14375      696D7075 
 14375      72655F70 
 14375      747200
 14376              	.LASF78:
 14377 11e3 46696E61 		.ascii	"FinalRangeTimeoutMicroSecs\000"
 14377      6C52616E 
 14377      67655469 
 14377      6D656F75 
 14377      744D6963 
 14378              	.LASF141:
 14379 11fe 5F5F746D 		.ascii	"__tm_year\000"
 14379      5F796561 
 14379      7200
 14380              	.LASF61:
 14381 1208 5A6F6E65 		.ascii	"ZoneId\000"
ARM GAS  C:\Users\Moi\AppData\Local\Temp\ccWeMAis.s 			page 267


 14381      496400
 14382              	.LASF206:
 14383 120f 5F6C6F63 		.ascii	"_localtime_buf\000"
 14383      616C7469 
 14383      6D655F62 
 14383      756600
 14384              	.LASF244:
 14385 121e 6765745F 		.ascii	"get_data_enable\000"
 14385      64617461 
 14385      5F656E61 
 14385      626C6500 
 14386              	.LASF224:
 14387 122e 5F756E75 		.ascii	"_unused\000"
 14387      73656400 
 14388              	.LASF3:
 14389 1236 5F5F7569 		.ascii	"__uint8_t\000"
 14389      6E74385F 
 14389      7400
 14390              	.LASF239:
 14391 1240 56687653 		.ascii	"VhvSettings\000"
 14391      65747469 
 14391      6E677300 
 14392              	.LASF250:
 14393 124c 564C3533 		.ascii	"VL53L0X_ref_calibration_io\000"
 14393      4C30585F 
 14393      7265665F 
 14393      63616C69 
 14393      62726174 
 14394              	.LASF190:
 14395 1267 5F6E6577 		.ascii	"_new\000"
 14395      00
 14396              	.LASF188:
 14397 126c 5F637674 		.ascii	"_cvtlen\000"
 14397      6C656E00 
 14398              	.LASF73:
 14399 1274 52656647 		.ascii	"RefGoodSpadMap\000"
 14399      6F6F6453 
 14399      7061644D 
 14399      617000
 14400              	.LASF213:
 14401 1283 5F6C3634 		.ascii	"_l64a_buf\000"
 14401      615F6275 
 14401      6600
 14402              	.LASF33:
 14403 128d 564C3533 		.ascii	"VL53L0X_Error\000"
 14403      4C30585F 
 14403      4572726F 
 14403      7200
 14404              	.LASF369:
 14405 129b 564C3533 		.ascii	"VL53L0X_PerformSingleRangingMeasurement\000"
 14405      4C30585F 
 14405      50657266 
 14405      6F726D53 
 14405      696E676C 
 14406              	.LASF376:
 14407 12c3 564C3533 		.ascii	"VL53L0X_SetSequenceStepEnable\000"
 14407      4C30585F 
ARM GAS  C:\Users\Moi\AppData\Local\Temp\ccWeMAis.s 			page 268


 14407      53657453 
 14407      65717565 
 14407      6E636553 
 14408              	.LASF360:
 14409 12e1 7854616C 		.ascii	"xTalkStoredMeanRtnSpads\000"
 14409      6B53746F 
 14409      7265644D 
 14409      65616E52 
 14409      746E5370 
 14410              	.LASF306:
 14411 12f9 70546F74 		.ascii	"pTotalSpadsEnabled\000"
 14411      616C5370 
 14411      61647345 
 14411      6E61626C 
 14411      656400
 14412              	.LASF167:
 14413 130c 5F626C6B 		.ascii	"_blksize\000"
 14413      73697A65 
 14413      00
 14414              	.LASF135:
 14415 1315 5F5F746D 		.ascii	"__tm\000"
 14415      00
 14416              	.LASF170:
 14417 131a 5F6C6F63 		.ascii	"_lock\000"
 14417      6B00
 14418              	.LASF270:
 14419 1320 6D617853 		.ascii	"maxSpadCount\000"
 14419      70616443 
 14419      6F756E74 
 14419      00
 14420              	.LASF296:
 14421 132d 73706164 		.ascii	"spadCount\000"
 14421      436F756E 
 14421      7400
 14422              	.LASF316:
 14423 1337 73706164 		.ascii	"spadIndex\000"
 14423      496E6465 
 14423      7800
 14424              	.LASF98:
 14425 1341 43757272 		.ascii	"CurrentParameters\000"
 14425      656E7450 
 14425      6172616D 
 14425      65746572 
 14425      7300
 14426              	.LASF12:
 14427 1353 6C6F6E67 		.ascii	"long unsigned int\000"
 14427      20756E73 
 14427      69676E65 
 14427      6420696E 
 14427      7400
 14428              	.LASF298:
 14429 1365 63757272 		.ascii	"currentSpad\000"
 14429      656E7453 
 14429      70616400 
 14430              	.LASF101:
 14431 1371 44657669 		.ascii	"DeviceSpecificParameters\000"
 14431      63655370 
ARM GAS  C:\Users\Moi\AppData\Local\Temp\ccWeMAis.s 			page 269


 14431      65636966 
 14431      69635061 
 14431      72616D65 
 14432              	.LASF197:
 14433 138a 5F6E696F 		.ascii	"_niobs\000"
 14433      627300
 14434              	.LASF122:
 14435 1391 77696E74 		.ascii	"wint_t\000"
 14435      5F7400
 14436              	.LASF112:
 14437 1398 7054756E 		.ascii	"pTuningSettingsPointer\000"
 14437      696E6753 
 14437      65747469 
 14437      6E677350 
 14437      6F696E74 
 14438              	.LASF19:
 14439 13af 696E7433 		.ascii	"int32_t\000"
 14439      325F7400 
 14440              	.LASF384:
 14441 13b7 433A5C55 		.ascii	"C:\\Users\\Moi\\Documents\\_microinfo\\_projet\\hug"
 14441      73657273 
 14441      5C4D6F69 
 14441      5C446F63 
 14441      756D656E 
 14442 13e4 756900   		.ascii	"ui\000"
 14443              	.LASF147:
 14444 13e7 5F64736F 		.ascii	"_dso_handle\000"
 14444      5F68616E 
 14444      646C6500 
 14445              	.LASF280:
 14446 13f3 7369676E 		.ascii	"signalRateDiff\000"
 14446      616C5261 
 14446      74654469 
 14446      666600
 14447              	.LASF225:
 14448 1402 5F5F6C6F 		.ascii	"__lock\000"
 14448      636B00
 14449              	.LASF84:
 14450 1409 5369676D 		.ascii	"SigmaEstEffAmbWidth\000"
 14450      61457374 
 14450      45666641 
 14450      6D625769 
 14450      64746800 
 14451              	.LASF299:
 14452 141d 63686563 		.ascii	"checkSpadArray\000"
 14452      6B537061 
 14452      64417272 
 14452      617900
 14453              	.LASF277:
 14454 142c 6E657874 		.ascii	"nextGoodSpad\000"
 14454      476F6F64 
 14454      53706164 
 14454      00
 14455              	.LASF176:
 14456 1439 5F737464 		.ascii	"_stdout\000"
 14456      6F757400 
 14457              	.LASF189:
ARM GAS  C:\Users\Moi\AppData\Local\Temp\ccWeMAis.s 			page 270


 14458 1441 5F637674 		.ascii	"_cvtbuf\000"
 14458      62756600 
 14459              	.LASF260:
 14460 1449 72656653 		.ascii	"refSpadArray\000"
 14460      70616441 
 14460      72726179 
 14460      00
 14461              	.LASF4:
 14462 1456 756E7369 		.ascii	"unsigned char\000"
 14462      676E6564 
 14462      20636861 
 14462      7200
 14463              	.LASF69:
 14464 1464 4E756D62 		.ascii	"NumberOfBins\000"
 14464      65724F66 
 14464      42696E73 
 14464      00
 14465              	.LASF80:
 14466 1471 50726552 		.ascii	"PreRangeTimeoutMicroSecs\000"
 14466      616E6765 
 14466      54696D65 
 14466      6F75744D 
 14466      6963726F 
 14467              	.LASF11:
 14468 148a 5F5F7569 		.ascii	"__uint32_t\000"
 14468      6E743332 
 14468      5F7400
 14469              	.LASF116:
 14470 1495 446D6178 		.ascii	"DmaxCalSignalRateRtnMegaCps\000"
 14470      43616C53 
 14470      69676E61 
 14470      6C526174 
 14470      6552746E 
 14471              	.LASF79:
 14472 14b1 46696E61 		.ascii	"FinalRangeVcselPulsePeriod\000"
 14472      6C52616E 
 14472      67655663 
 14472      73656C50 
 14472      756C7365 
 14473              	.LASF215:
 14474 14cc 5F676574 		.ascii	"_getdate_err\000"
 14474      64617465 
 14474      5F657272 
 14474      00
 14475              	.LASF159:
 14476 14d9 5F6C6266 		.ascii	"_lbfsize\000"
 14476      73697A65 
 14476      00
 14477              	.LASF281:
 14478 14e2 6C617374 		.ascii	"lastSignalRateDiff\000"
 14478      5369676E 
 14478      616C5261 
 14478      74654469 
 14478      666600
 14479              	.LASF117:
 14480 14f5 564C3533 		.ascii	"VL53L0X_DevData_t\000"
 14480      4C30585F 
ARM GAS  C:\Users\Moi\AppData\Local\Temp\ccWeMAis.s 			page 271


 14480      44657644 
 14480      6174615F 
 14480      7400
 14481              	.LASF148:
 14482 1507 5F666E74 		.ascii	"_fntypes\000"
 14482      79706573 
 14482      00
 14483              	.LASF202:
 14484 1510 5F616464 		.ascii	"_add\000"
 14484      00
 14485              	.LASF278:
 14486 1515 7065616B 		.ascii	"peakSignalRateRef\000"
 14486      5369676E 
 14486      616C5261 
 14486      74655265 
 14486      6600
 14487              	.LASF259:
 14488 1527 72656653 		.ascii	"refSpadsInitialised\000"
 14488      70616473 
 14488      496E6974 
 14488      69616C69 
 14488      73656400 
 14489              	.LASF28:
 14490 153b 50726F64 		.ascii	"ProductType\000"
 14490      75637454 
 14490      79706500 
 14491              	.LASF284:
 14492 1547 69734170 		.ascii	"isApertureSpads_int\000"
 14492      65727475 
 14492      72655370 
 14492      6164735F 
 14492      696E7400 
 14493              	.LASF153:
 14494 155b 5F5F7362 		.ascii	"__sbuf\000"
 14494      756600
 14495              	.LASF271:
 14496 1562 6C617374 		.ascii	"lastSpadIndex\000"
 14496      53706164 
 14496      496E6465 
 14496      7800
 14497              	.LASF332:
 14498 1570 704F6666 		.ascii	"pOffsetCalibrationDataMicroMeter\000"
 14498      73657443 
 14498      616C6962 
 14498      72617469 
 14498      6F6E4461 
 14499              	.LASF77:
 14500 1591 50696E30 		.ascii	"Pin0GpioFunctionality\000"
 14500      4770696F 
 14500      46756E63 
 14500      74696F6E 
 14500      616C6974 
 14501              	.LASF196:
 14502 15a7 5F676C75 		.ascii	"_glue\000"
 14502      6500
 14503              	.LASF335:
 14504 15ad 634F6666 		.ascii	"cOffsetRange\000"
ARM GAS  C:\Users\Moi\AppData\Local\Temp\ccWeMAis.s 			page 272


 14504      73657452 
 14504      616E6765 
 14504      00
 14505              	.LASF297:
 14506 15ba 6C617374 		.ascii	"lastSpad\000"
 14506      53706164 
 14506      00
 14507              	.LASF193:
 14508 15c3 5F5F7367 		.ascii	"__sglue\000"
 14508      6C756500 
 14509              	.LASF317:
 14510 15cb 636F6172 		.ascii	"coarseIndex\000"
 14510      7365496E 
 14510      64657800 
 14511              	.LASF204:
 14512 15d7 5F737472 		.ascii	"_strtok_last\000"
 14512      746F6B5F 
 14512      6C617374 
 14512      00
 14513              	.LASF211:
 14514 15e4 5F6D6274 		.ascii	"_mbtowc_state\000"
 14514      6F77635F 
 14514      73746174 
 14514      6500
 14515              	.LASF249:
 14516 15f2 50686173 		.ascii	"PhaseCalInt\000"
 14516      6543616C 
 14516      496E7400 
 14517              	.LASF181:
 14518 15fe 5F6C6F63 		.ascii	"_locale\000"
 14518      616C6500 
 14519              	.LASF118:
 14520 1606 564C3533 		.ascii	"VL53L0X_VcselPeriod\000"
 14520      4C30585F 
 14520      56637365 
 14520      6C506572 
 14520      696F6400 
 14521              	.LASF146:
 14522 161a 5F666E61 		.ascii	"_fnargs\000"
 14522      72677300 
 14523              	.LASF1:
 14524 1622 7369676E 		.ascii	"signed char\000"
 14524      65642063 
 14524      68617200 
 14525              	.LASF100:
 14526 162e 4C617374 		.ascii	"LastHistogramMeasure\000"
 14526      48697374 
 14526      6F677261 
 14526      6D4D6561 
 14526      73757265 
 14527              	.LASF8:
 14528 1643 73686F72 		.ascii	"short unsigned int\000"
 14528      7420756E 
 14528      7369676E 
 14528      65642069 
 14528      6E7400
 14529              	.LASF104:
ARM GAS  C:\Users\Moi\AppData\Local\Temp\ccWeMAis.s 			page 273


 14530 1656 52616E67 		.ascii	"RangeFractionalEnable\000"
 14530      65467261 
 14530      6374696F 
 14530      6E616C45 
 14530      6E61626C 
 14531              	.LASF362:
 14532 166c 7854616C 		.ascii	"xTalkStoredMeanRtnSpadsAsInt\000"
 14532      6B53746F 
 14532      7265644D 
 14532      65616E52 
 14532      746E5370 
 14533              	.LASF56:
 14534 1689 52616E67 		.ascii	"RangeMilliMeter\000"
 14534      654D696C 
 14534      6C694D65 
 14534      74657200 
 14535              	.LASF109:
 14536 1699 5369676D 		.ascii	"SigmaEstimate\000"
 14536      61457374 
 14536      696D6174 
 14536      6500
 14537              	.LASF82:
 14538 16a7 5369676D 		.ascii	"SigmaEstRefArray\000"
 14538      61457374 
 14538      52656641 
 14538      72726179 
 14538      00
 14539              	.LASF155:
 14540 16b8 5F73697A 		.ascii	"_size\000"
 14540      6500
 14541              	.LASF62:
 14542 16be 52616E67 		.ascii	"RangeFractionalPart\000"
 14542      65467261 
 14542      6374696F 
 14542      6E616C50 
 14542      61727400 
 14543              	.LASF288:
 14544 16d2 72616E67 		.ascii	"rangingMeasurementData\000"
 14544      696E674D 
 14544      65617375 
 14544      72656D65 
 14544      6E744461 
 14545              	.LASF351:
 14546 16e9 6D656173 		.ascii	"meas\000"
 14546      00
 14547              	.LASF120:
 14548 16ee 5F6F6666 		.ascii	"_off_t\000"
 14548      5F7400
 14549              	.LASF76:
 14550 16f5 4C617374 		.ascii	"LastEncodedTimeout\000"
 14550      456E636F 
 14550      64656454 
 14550      696D656F 
 14550      757400
 14551              	.LASF166:
 14552 1708 5F6E6275 		.ascii	"_nbuf\000"
 14552      6600
ARM GAS  C:\Users\Moi\AppData\Local\Temp\ccWeMAis.s 			page 274


 14553              	.LASF203:
 14554 170e 5F756E75 		.ascii	"_unused_rand\000"
 14554      7365645F 
 14554      72616E64 
 14554      00
 14555              	.LASF256:
 14556 171b 564C3533 		.ascii	"VL53L0X_get_reference_spads\000"
 14556      4C30585F 
 14556      6765745F 
 14556      72656665 
 14556      72656E63 
 14557              	.LASF380:
 14558 1737 564C3533 		.ascii	"VL53L0X_measurement_poll_for_completion\000"
 14558      4C30585F 
 14558      6D656173 
 14558      7572656D 
 14558      656E745F 
 14559              	.LASF291:
 14560 175f 676F6F64 		.ascii	"goodSpadArray\000"
 14560      53706164 
 14560      41727261 
 14560      7900
 14561              	.LASF180:
 14562 176d 5F756E73 		.ascii	"_unspecified_locale_info\000"
 14562      70656369 
 14562      66696564 
 14562      5F6C6F63 
 14562      616C655F 
 14563              	.LASF172:
 14564 1786 5F666C61 		.ascii	"_flags2\000"
 14564      67733200 
 14565              	.LASF149:
 14566 178e 5F69735F 		.ascii	"_is_cxa\000"
 14566      63786100 
 14567              	.LASF379:
 14568 1796 564C3533 		.ascii	"VL53L0X_SetXTalkCompensationRateMegaCps\000"
 14568      4C30585F 
 14568      53657458 
 14568      54616C6B 
 14568      436F6D70 
 14569              	.LASF105:
 14570 17be 50616C53 		.ascii	"PalState\000"
 14570      74617465 
 14570      00
 14571              	.LASF54:
 14572 17c7 54696D65 		.ascii	"TimeStamp\000"
 14572      5374616D 
 14572      7000
 14573              	.LASF200:
 14574 17d1 5F736565 		.ascii	"_seed\000"
 14574      6400
 14575              	.LASF208:
 14576 17d7 5F72616E 		.ascii	"_rand_next\000"
 14576      645F6E65 
 14576      787400
 14577              	.LASF71:
 14578 17e2 564C3533 		.ascii	"VL53L0X_HistogramMeasurementData_t\000"
ARM GAS  C:\Users\Moi\AppData\Local\Temp\ccWeMAis.s 			page 275


 14578      4C30585F 
 14578      48697374 
 14578      6F677261 
 14578      6D4D6561 
 14579              	.LASF229:
 14580 1805 44617461 		.ascii	"Data\000"
 14580      00
 14581              	.LASF163:
 14582 180a 5F736565 		.ascii	"_seek\000"
 14582      6B00
 14583              	.LASF261:
 14584 1810 634D6178 		.ascii	"cMaxSpadCount\000"
 14584      53706164 
 14584      436F756E 
 14584      7400
 14585              	.LASF177:
 14586 181e 5F737464 		.ascii	"_stderr\000"
 14586      65727200 
 14587              	.LASF223:
 14588 1826 5F6E6D61 		.ascii	"_nmalloc\000"
 14588      6C6C6F63 
 14588      00
 14589              	.LASF165:
 14590 182f 5F756275 		.ascii	"_ubuf\000"
 14590      6600
 14591              	.LASF352:
 14592 1835 564C3533 		.ascii	"VL53L0X_perform_xtalk_calibration\000"
 14592      4C30585F 
 14592      70657266 
 14592      6F726D5F 
 14592      7874616C 
 14593              	.LASF93:
 14594 1857 5369676E 		.ascii	"SignalRateMeasFixed400mm\000"
 14594      616C5261 
 14594      74654D65 
 14594      61734669 
 14594      78656434 
 14595              	.LASF243:
 14596 1870 564C3533 		.ascii	"VL53L0X_perform_ref_calibration\000"
 14596      4C30585F 
 14596      70657266 
 14596      6F726D5F 
 14596      7265665F 
 14597              		.ident	"GCC: (GNU Tools for Arm Embedded Processors 7-2017-q4-major) 7.2.1 20170904 (release) [ARM
ARM GAS  C:\Users\Moi\AppData\Local\Temp\ccWeMAis.s 			page 276


DEFINED SYMBOLS
                            *ABS*:00000000 vl53l0x_api_calibration.c
C:\Users\Moi\AppData\Local\Temp\ccWeMAis.s:18     .text.VL53L0X_perform_xtalk_calibration:00000000 $t
C:\Users\Moi\AppData\Local\Temp\ccWeMAis.s:26     .text.VL53L0X_perform_xtalk_calibration:00000000 VL53L0X_perform_xtalk_calibration
C:\Users\Moi\AppData\Local\Temp\ccWeMAis.s:242    .text.VL53L0X_perform_xtalk_calibration:000000f4 $d
C:\Users\Moi\AppData\Local\Temp\ccWeMAis.s:247    .text.VL53L0X_perform_offset_calibration:00000000 $t
C:\Users\Moi\AppData\Local\Temp\ccWeMAis.s:255    .text.VL53L0X_perform_offset_calibration:00000000 VL53L0X_perform_offset_calibration
C:\Users\Moi\AppData\Local\Temp\ccWeMAis.s:437    .text.VL53L0X_perform_offset_calibration:000000e4 $d
C:\Users\Moi\AppData\Local\Temp\ccWeMAis.s:442    .text.VL53L0X_set_offset_calibration_data_micro_meter:00000000 $t
C:\Users\Moi\AppData\Local\Temp\ccWeMAis.s:450    .text.VL53L0X_set_offset_calibration_data_micro_meter:00000000 VL53L0X_set_offset_calibration_data_micro_meter
C:\Users\Moi\AppData\Local\Temp\ccWeMAis.s:522    .text.VL53L0X_set_offset_calibration_data_micro_meter:00000050 $d
C:\Users\Moi\AppData\Local\Temp\ccWeMAis.s:529    .text.VL53L0X_get_offset_calibration_data_micro_meter:00000000 $t
C:\Users\Moi\AppData\Local\Temp\ccWeMAis.s:537    .text.VL53L0X_get_offset_calibration_data_micro_meter:00000000 VL53L0X_get_offset_calibration_data_micro_meter
C:\Users\Moi\AppData\Local\Temp\ccWeMAis.s:612    .text.VL53L0X_get_offset_calibration_data_micro_meter:00000050 $d
C:\Users\Moi\AppData\Local\Temp\ccWeMAis.s:617    .text.VL53L0X_apply_offset_adjustment:00000000 $t
C:\Users\Moi\AppData\Local\Temp\ccWeMAis.s:625    .text.VL53L0X_apply_offset_adjustment:00000000 VL53L0X_apply_offset_adjustment
C:\Users\Moi\AppData\Local\Temp\ccWeMAis.s:706    .text.VL53L0X_apply_offset_adjustment:00000048 $d
C:\Users\Moi\AppData\Local\Temp\ccWeMAis.s:711    .text.get_next_good_spad:00000000 $t
C:\Users\Moi\AppData\Local\Temp\ccWeMAis.s:719    .text.get_next_good_spad:00000000 get_next_good_spad
C:\Users\Moi\AppData\Local\Temp\ccWeMAis.s:827    .text.get_next_good_spad:00000064 $d
C:\Users\Moi\AppData\Local\Temp\ccWeMAis.s:832    .text.is_aperture:00000000 $t
C:\Users\Moi\AppData\Local\Temp\ccWeMAis.s:840    .text.is_aperture:00000000 is_aperture
C:\Users\Moi\AppData\Local\Temp\ccWeMAis.s:885    .text.is_aperture:0000002c $d
C:\Users\Moi\AppData\Local\Temp\ccWeMAis.s:891    .text.enable_spad_bit:00000000 $t
C:\Users\Moi\AppData\Local\Temp\ccWeMAis.s:899    .text.enable_spad_bit:00000000 enable_spad_bit
C:\Users\Moi\AppData\Local\Temp\ccWeMAis.s:964    .text.enable_spad_bit:00000038 $d
C:\Users\Moi\AppData\Local\Temp\ccWeMAis.s:969    .text.count_enabled_spads:00000000 $t
C:\Users\Moi\AppData\Local\Temp\ccWeMAis.s:977    .text.count_enabled_spads:00000000 count_enabled_spads
C:\Users\Moi\AppData\Local\Temp\ccWeMAis.s:1120   .text.count_enabled_spads:0000009c $d
C:\Users\Moi\AppData\Local\Temp\ccWeMAis.s:1125   .text.set_ref_spad_map:00000000 $t
C:\Users\Moi\AppData\Local\Temp\ccWeMAis.s:1133   .text.set_ref_spad_map:00000000 set_ref_spad_map
C:\Users\Moi\AppData\Local\Temp\ccWeMAis.s:1178   .text.set_ref_spad_map:00000028 $d
C:\Users\Moi\AppData\Local\Temp\ccWeMAis.s:1183   .text.get_ref_spad_map:00000000 $t
C:\Users\Moi\AppData\Local\Temp\ccWeMAis.s:1191   .text.get_ref_spad_map:00000000 get_ref_spad_map
C:\Users\Moi\AppData\Local\Temp\ccWeMAis.s:1236   .text.get_ref_spad_map:00000028 $d
C:\Users\Moi\AppData\Local\Temp\ccWeMAis.s:1241   .text.enable_ref_spads:00000000 $t
C:\Users\Moi\AppData\Local\Temp\ccWeMAis.s:1249   .text.enable_ref_spads:00000000 enable_ref_spads
C:\Users\Moi\AppData\Local\Temp\ccWeMAis.s:1451   .text.enable_ref_spads:000000dc $d
C:\Users\Moi\AppData\Local\Temp\ccWeMAis.s:1457   .text.perform_ref_signal_measurement:00000000 $t
C:\Users\Moi\AppData\Local\Temp\ccWeMAis.s:1465   .text.perform_ref_signal_measurement:00000000 perform_ref_signal_measurement
C:\Users\Moi\AppData\Local\Temp\ccWeMAis.s:1574   .text.perform_ref_signal_measurement:00000078 $d
C:\Users\Moi\AppData\Local\Temp\ccWeMAis.s:1579   .text.VL53L0X_set_reference_spads:00000000 $t
C:\Users\Moi\AppData\Local\Temp\ccWeMAis.s:1587   .text.VL53L0X_set_reference_spads:00000000 VL53L0X_set_reference_spads
C:\Users\Moi\AppData\Local\Temp\ccWeMAis.s:1760   .text.VL53L0X_set_reference_spads:000000c0 $d
C:\Users\Moi\AppData\Local\Temp\ccWeMAis.s:1766   .text.VL53L0X_get_reference_spads:00000000 $t
C:\Users\Moi\AppData\Local\Temp\ccWeMAis.s:1774   .text.VL53L0X_get_reference_spads:00000000 VL53L0X_get_reference_spads
C:\Users\Moi\AppData\Local\Temp\ccWeMAis.s:1892   .text.VL53L0X_get_reference_spads:00000084 $d
C:\Users\Moi\AppData\Local\Temp\ccWeMAis.s:1897   .text.VL53L0X_perform_single_ref_calibration:00000000 $t
C:\Users\Moi\AppData\Local\Temp\ccWeMAis.s:1905   .text.VL53L0X_perform_single_ref_calibration:00000000 VL53L0X_perform_single_ref_calibration
C:\Users\Moi\AppData\Local\Temp\ccWeMAis.s:2011   .text.VL53L0X_perform_single_ref_calibration:0000005c $d
C:\Users\Moi\AppData\Local\Temp\ccWeMAis.s:2016   .text.VL53L0X_ref_calibration_io:00000000 $t
C:\Users\Moi\AppData\Local\Temp\ccWeMAis.s:2024   .text.VL53L0X_ref_calibration_io:00000000 VL53L0X_ref_calibration_io
C:\Users\Moi\AppData\Local\Temp\ccWeMAis.s:2235   .text.VL53L0X_ref_calibration_io:00000104 $d
C:\Users\Moi\AppData\Local\Temp\ccWeMAis.s:2240   .text.VL53L0X_perform_vhv_calibration:00000000 $t
C:\Users\Moi\AppData\Local\Temp\ccWeMAis.s:2248   .text.VL53L0X_perform_vhv_calibration:00000000 VL53L0X_perform_vhv_calibration
C:\Users\Moi\AppData\Local\Temp\ccWeMAis.s:2396   .text.VL53L0X_perform_vhv_calibration:000000b0 $d
C:\Users\Moi\AppData\Local\Temp\ccWeMAis.s:2401   .text.VL53L0X_perform_phase_calibration:00000000 $t
ARM GAS  C:\Users\Moi\AppData\Local\Temp\ccWeMAis.s 			page 277


C:\Users\Moi\AppData\Local\Temp\ccWeMAis.s:2409   .text.VL53L0X_perform_phase_calibration:00000000 VL53L0X_perform_phase_calibration
C:\Users\Moi\AppData\Local\Temp\ccWeMAis.s:2540   .text.VL53L0X_perform_phase_calibration:0000009c $d
C:\Users\Moi\AppData\Local\Temp\ccWeMAis.s:2545   .text.VL53L0X_perform_ref_calibration:00000000 $t
C:\Users\Moi\AppData\Local\Temp\ccWeMAis.s:2553   .text.VL53L0X_perform_ref_calibration:00000000 VL53L0X_perform_ref_calibration
C:\Users\Moi\AppData\Local\Temp\ccWeMAis.s:2637   .text.VL53L0X_perform_ref_calibration:00000058 $d
C:\Users\Moi\AppData\Local\Temp\ccWeMAis.s:2642   .text.VL53L0X_perform_ref_spad_management:00000000 $t
C:\Users\Moi\AppData\Local\Temp\ccWeMAis.s:2650   .text.VL53L0X_perform_ref_spad_management:00000000 VL53L0X_perform_ref_spad_management
C:\Users\Moi\AppData\Local\Temp\ccWeMAis.s:3214   .text.VL53L0X_perform_ref_spad_management:000002b4 $d
C:\Users\Moi\AppData\Local\Temp\ccWeMAis.s:3220   .text.VL53L0X_set_ref_calibration:00000000 $t
C:\Users\Moi\AppData\Local\Temp\ccWeMAis.s:3228   .text.VL53L0X_set_ref_calibration:00000000 VL53L0X_set_ref_calibration
C:\Users\Moi\AppData\Local\Temp\ccWeMAis.s:3285   .text.VL53L0X_set_ref_calibration:00000038 $d
C:\Users\Moi\AppData\Local\Temp\ccWeMAis.s:3290   .text.VL53L0X_get_ref_calibration:00000000 $t
C:\Users\Moi\AppData\Local\Temp\ccWeMAis.s:3298   .text.VL53L0X_get_ref_calibration:00000000 VL53L0X_get_ref_calibration
C:\Users\Moi\AppData\Local\Temp\ccWeMAis.s:3348   .text.VL53L0X_get_ref_calibration:00000030 $d
C:\Users\Moi\AppData\Local\Temp\ccWeMAis.s:3358   .data.refArrayQuadrants:00000000 refArrayQuadrants
C:\Users\Moi\AppData\Local\Temp\ccWeMAis.s:3354   .data.refArrayQuadrants:00000000 $d

UNDEFINED SYMBOLS
VL53L0X_SetXTalkCompensationEnable
VL53L0X_SetLimitCheckEnable
VL53L0X_PerformSingleRangingMeasurement
VL53L0X_SetXTalkCompensationRateMegaCps
__stack_chk_fail
__stack_chk_guard
VL53L0X_SetOffsetCalibrationDataMicroMeter
VL53L0X_GetSequenceStepEnable
VL53L0X_SetSequenceStepEnable
VL53L0X_WrWord
VL53L0X_RdWord
VL53L0X_get_info_from_device
VL53L0X_GetOffsetCalibrationDataMicroMeter
VL53L0X_WriteMulti
VL53L0X_ReadMulti
VL53L0X_WrByte
VL53L0X_measurement_poll_for_completion
VL53L0X_ClearInterruptMask
VL53L0X_UpdateByte
VL53L0X_RdByte
