
build/hugui.elf:     file format elf32-littlearm


Disassembly of section .text:

080001c0 <Reset_Handler>:
 80001c0:	b672      	cpsid	i
 80001c2:	482e      	ldr	r0, [pc, #184]	; (800027c <endfiniloop+0x4>)
 80001c4:	f380 8809 	msr	PSP, r0
 80001c8:	f240 0000 	movw	r0, #0
 80001cc:	f2cc 0000 	movt	r0, #49152	; 0xc000
 80001d0:	f64e 7134 	movw	r1, #61236	; 0xef34
 80001d4:	f2ce 0100 	movt	r1, #57344	; 0xe000
 80001d8:	6008      	str	r0, [r1, #0]
 80001da:	f240 0000 	movw	r0, #0
 80001de:	f2c0 00f0 	movt	r0, #240	; 0xf0
 80001e2:	f64e 5188 	movw	r1, #60808	; 0xed88
 80001e6:	f2ce 0100 	movt	r1, #57344	; 0xe000
 80001ea:	6008      	str	r0, [r1, #0]
 80001ec:	f04f 0000 	mov.w	r0, #0
 80001f0:	eee1 0a10 	vmsr	fpscr, r0
 80001f4:	f64e 713c 	movw	r1, #61244	; 0xef3c
 80001f8:	f2ce 0100 	movt	r1, #57344	; 0xe000
 80001fc:	6008      	str	r0, [r1, #0]
 80001fe:	2006      	movs	r0, #6
 8000200:	f380 8814 	msr	CONTROL, r0
 8000204:	f3bf 8f6f 	isb	sy
 8000208:	f009 fc42 	bl	8009a90 <__early_init>
 800020c:	f04f 3055 	mov.w	r0, #1431655765	; 0x55555555
 8000210:	491b      	ldr	r1, [pc, #108]	; (8000280 <endfiniloop+0x8>)
 8000212:	4a1c      	ldr	r2, [pc, #112]	; (8000284 <endfiniloop+0xc>)

08000214 <msloop>:
 8000214:	4291      	cmp	r1, r2
 8000216:	bf3c      	itt	cc
 8000218:	f841 0b04 	strcc.w	r0, [r1], #4
 800021c:	e7fa      	bcc.n	8000214 <msloop>
 800021e:	491a      	ldr	r1, [pc, #104]	; (8000288 <endfiniloop+0x10>)
 8000220:	4a16      	ldr	r2, [pc, #88]	; (800027c <endfiniloop+0x4>)

08000222 <psloop>:
 8000222:	4291      	cmp	r1, r2
 8000224:	bf3c      	itt	cc
 8000226:	f841 0b04 	strcc.w	r0, [r1], #4
 800022a:	e7fa      	bcc.n	8000222 <psloop>
 800022c:	4917      	ldr	r1, [pc, #92]	; (800028c <endfiniloop+0x14>)
 800022e:	4a18      	ldr	r2, [pc, #96]	; (8000290 <endfiniloop+0x18>)
 8000230:	4b18      	ldr	r3, [pc, #96]	; (8000294 <endfiniloop+0x1c>)

08000232 <dloop>:
 8000232:	429a      	cmp	r2, r3
 8000234:	bf3e      	ittt	cc
 8000236:	f851 0b04 	ldrcc.w	r0, [r1], #4
 800023a:	f842 0b04 	strcc.w	r0, [r2], #4
 800023e:	e7f8      	bcc.n	8000232 <dloop>
 8000240:	2000      	movs	r0, #0
 8000242:	4915      	ldr	r1, [pc, #84]	; (8000298 <endfiniloop+0x20>)
 8000244:	4a15      	ldr	r2, [pc, #84]	; (800029c <endfiniloop+0x24>)

08000246 <bloop>:
 8000246:	4291      	cmp	r1, r2
 8000248:	bf3c      	itt	cc
 800024a:	f841 0b04 	strcc.w	r0, [r1], #4
 800024e:	e7fa      	bcc.n	8000246 <bloop>
 8000250:	f002 fc36 	bl	8002ac0 <__late_init>
 8000254:	4c12      	ldr	r4, [pc, #72]	; (80002a0 <endfiniloop+0x28>)
 8000256:	4d13      	ldr	r5, [pc, #76]	; (80002a4 <endfiniloop+0x2c>)

08000258 <initloop>:
 8000258:	42ac      	cmp	r4, r5
 800025a:	da03      	bge.n	8000264 <endinitloop>
 800025c:	f854 1b04 	ldr.w	r1, [r4], #4
 8000260:	4788      	blx	r1
 8000262:	e7f9      	b.n	8000258 <initloop>

08000264 <endinitloop>:
 8000264:	f000 fff4 	bl	8001250 <main>
 8000268:	4c0f      	ldr	r4, [pc, #60]	; (80002a8 <endfiniloop+0x30>)
 800026a:	4d10      	ldr	r5, [pc, #64]	; (80002ac <endfiniloop+0x34>)

0800026c <finiloop>:
 800026c:	42ac      	cmp	r4, r5
 800026e:	da03      	bge.n	8000278 <endfiniloop>
 8000270:	f854 1b04 	ldr.w	r1, [r4], #4
 8000274:	4788      	blx	r1
 8000276:	e7f9      	b.n	800026c <finiloop>

08000278 <endfiniloop>:
 8000278:	f002 bc32 	b.w	8002ae0 <__default_exit>
 800027c:	20000800 	.word	0x20000800
 8000280:	20000000 	.word	0x20000000
 8000284:	20000400 	.word	0x20000400
 8000288:	20000400 	.word	0x20000400
 800028c:	0800e178 	.word	0x0800e178
 8000290:	20000800 	.word	0x20000800
 8000294:	200011ec 	.word	0x200011ec
 8000298:	200011f0 	.word	0x200011f0
 800029c:	20002780 	.word	0x20002780
 80002a0:	080001c0 	.word	0x080001c0
 80002a4:	080001c0 	.word	0x080001c0
 80002a8:	080001c0 	.word	0x080001c0
 80002ac:	080001c0 	.word	0x080001c0

080002b0 <_port_switch>:
 80002b0:	e92d 4ff0 	stmdb	sp!, {r4, r5, r6, r7, r8, r9, sl, fp, lr}
 80002b4:	ed2d 8a10 	vpush	{s16-s31}
 80002b8:	f8c1 d00c 	str.w	sp, [r1, #12]
 80002bc:	f8d0 d00c 	ldr.w	sp, [r0, #12]
 80002c0:	ecbd 8a10 	vpop	{s16-s31}
 80002c4:	e8bd 8ff0 	ldmia.w	sp!, {r4, r5, r6, r7, r8, r9, sl, fp, pc}

080002c8 <_port_thread_start>:
 80002c8:	f002 fd52 	bl	8002d70 <_dbg_check_unlock>
 80002cc:	f003 fdb8 	bl	8003e40 <_stats_stop_measure_crit_thd>
 80002d0:	2300      	movs	r3, #0
 80002d2:	f383 8811 	msr	BASEPRI, r3
 80002d6:	4628      	mov	r0, r5
 80002d8:	47a0      	blx	r4
 80002da:	2000      	movs	r0, #0
 80002dc:	f003 fb50 	bl	8003980 <chThdExit>

080002e0 <_port_switch_from_isr>:
 80002e0:	f003 fd96 	bl	8003e10 <_stats_start_measure_crit_thd>
 80002e4:	f002 fd24 	bl	8002d30 <_dbg_check_lock>
 80002e8:	f003 f942 	bl	8003570 <chSchDoReschedule>
 80002ec:	f002 fd40 	bl	8002d70 <_dbg_check_unlock>
 80002f0:	f003 fda6 	bl	8003e40 <_stats_stop_measure_crit_thd>

080002f4 <_port_exit_from_isr>:
 80002f4:	df00      	svc	0
 80002f6:	e7fe      	b.n	80002f6 <_port_exit_from_isr+0x2>
	...

08000300 <__aeabi_drsub>:
 8000300:	f081 4100 	eor.w	r1, r1, #2147483648	; 0x80000000
 8000304:	e002      	b.n	800030c <__adddf3>
 8000306:	bf00      	nop

08000308 <__aeabi_dsub>:
 8000308:	f083 4300 	eor.w	r3, r3, #2147483648	; 0x80000000

0800030c <__adddf3>:
 800030c:	b530      	push	{r4, r5, lr}
 800030e:	ea4f 0441 	mov.w	r4, r1, lsl #1
 8000312:	ea4f 0543 	mov.w	r5, r3, lsl #1
 8000316:	ea94 0f05 	teq	r4, r5
 800031a:	bf08      	it	eq
 800031c:	ea90 0f02 	teqeq	r0, r2
 8000320:	bf1f      	itttt	ne
 8000322:	ea54 0c00 	orrsne.w	ip, r4, r0
 8000326:	ea55 0c02 	orrsne.w	ip, r5, r2
 800032a:	ea7f 5c64 	mvnsne.w	ip, r4, asr #21
 800032e:	ea7f 5c65 	mvnsne.w	ip, r5, asr #21
 8000332:	f000 80e2 	beq.w	80004fa <__adddf3+0x1ee>
 8000336:	ea4f 5454 	mov.w	r4, r4, lsr #21
 800033a:	ebd4 5555 	rsbs	r5, r4, r5, lsr #21
 800033e:	bfb8      	it	lt
 8000340:	426d      	neglt	r5, r5
 8000342:	dd0c      	ble.n	800035e <__adddf3+0x52>
 8000344:	442c      	add	r4, r5
 8000346:	ea80 0202 	eor.w	r2, r0, r2
 800034a:	ea81 0303 	eor.w	r3, r1, r3
 800034e:	ea82 0000 	eor.w	r0, r2, r0
 8000352:	ea83 0101 	eor.w	r1, r3, r1
 8000356:	ea80 0202 	eor.w	r2, r0, r2
 800035a:	ea81 0303 	eor.w	r3, r1, r3
 800035e:	2d36      	cmp	r5, #54	; 0x36
 8000360:	bf88      	it	hi
 8000362:	bd30      	pophi	{r4, r5, pc}
 8000364:	f011 4f00 	tst.w	r1, #2147483648	; 0x80000000
 8000368:	ea4f 3101 	mov.w	r1, r1, lsl #12
 800036c:	f44f 1c80 	mov.w	ip, #1048576	; 0x100000
 8000370:	ea4c 3111 	orr.w	r1, ip, r1, lsr #12
 8000374:	d002      	beq.n	800037c <__adddf3+0x70>
 8000376:	4240      	negs	r0, r0
 8000378:	eb61 0141 	sbc.w	r1, r1, r1, lsl #1
 800037c:	f013 4f00 	tst.w	r3, #2147483648	; 0x80000000
 8000380:	ea4f 3303 	mov.w	r3, r3, lsl #12
 8000384:	ea4c 3313 	orr.w	r3, ip, r3, lsr #12
 8000388:	d002      	beq.n	8000390 <__adddf3+0x84>
 800038a:	4252      	negs	r2, r2
 800038c:	eb63 0343 	sbc.w	r3, r3, r3, lsl #1
 8000390:	ea94 0f05 	teq	r4, r5
 8000394:	f000 80a7 	beq.w	80004e6 <__adddf3+0x1da>
 8000398:	f1a4 0401 	sub.w	r4, r4, #1
 800039c:	f1d5 0e20 	rsbs	lr, r5, #32
 80003a0:	db0d      	blt.n	80003be <__adddf3+0xb2>
 80003a2:	fa02 fc0e 	lsl.w	ip, r2, lr
 80003a6:	fa22 f205 	lsr.w	r2, r2, r5
 80003aa:	1880      	adds	r0, r0, r2
 80003ac:	f141 0100 	adc.w	r1, r1, #0
 80003b0:	fa03 f20e 	lsl.w	r2, r3, lr
 80003b4:	1880      	adds	r0, r0, r2
 80003b6:	fa43 f305 	asr.w	r3, r3, r5
 80003ba:	4159      	adcs	r1, r3
 80003bc:	e00e      	b.n	80003dc <__adddf3+0xd0>
 80003be:	f1a5 0520 	sub.w	r5, r5, #32
 80003c2:	f10e 0e20 	add.w	lr, lr, #32
 80003c6:	2a01      	cmp	r2, #1
 80003c8:	fa03 fc0e 	lsl.w	ip, r3, lr
 80003cc:	bf28      	it	cs
 80003ce:	f04c 0c02 	orrcs.w	ip, ip, #2
 80003d2:	fa43 f305 	asr.w	r3, r3, r5
 80003d6:	18c0      	adds	r0, r0, r3
 80003d8:	eb51 71e3 	adcs.w	r1, r1, r3, asr #31
 80003dc:	f001 4500 	and.w	r5, r1, #2147483648	; 0x80000000
 80003e0:	d507      	bpl.n	80003f2 <__adddf3+0xe6>
 80003e2:	f04f 0e00 	mov.w	lr, #0
 80003e6:	f1dc 0c00 	rsbs	ip, ip, #0
 80003ea:	eb7e 0000 	sbcs.w	r0, lr, r0
 80003ee:	eb6e 0101 	sbc.w	r1, lr, r1
 80003f2:	f5b1 1f80 	cmp.w	r1, #1048576	; 0x100000
 80003f6:	d31b      	bcc.n	8000430 <__adddf3+0x124>
 80003f8:	f5b1 1f00 	cmp.w	r1, #2097152	; 0x200000
 80003fc:	d30c      	bcc.n	8000418 <__adddf3+0x10c>
 80003fe:	0849      	lsrs	r1, r1, #1
 8000400:	ea5f 0030 	movs.w	r0, r0, rrx
 8000404:	ea4f 0c3c 	mov.w	ip, ip, rrx
 8000408:	f104 0401 	add.w	r4, r4, #1
 800040c:	ea4f 5244 	mov.w	r2, r4, lsl #21
 8000410:	f512 0f80 	cmn.w	r2, #4194304	; 0x400000
 8000414:	f080 809a 	bcs.w	800054c <__adddf3+0x240>
 8000418:	f1bc 4f00 	cmp.w	ip, #2147483648	; 0x80000000
 800041c:	bf08      	it	eq
 800041e:	ea5f 0c50 	movseq.w	ip, r0, lsr #1
 8000422:	f150 0000 	adcs.w	r0, r0, #0
 8000426:	eb41 5104 	adc.w	r1, r1, r4, lsl #20
 800042a:	ea41 0105 	orr.w	r1, r1, r5
 800042e:	bd30      	pop	{r4, r5, pc}
 8000430:	ea5f 0c4c 	movs.w	ip, ip, lsl #1
 8000434:	4140      	adcs	r0, r0
 8000436:	eb41 0101 	adc.w	r1, r1, r1
 800043a:	f411 1f80 	tst.w	r1, #1048576	; 0x100000
 800043e:	f1a4 0401 	sub.w	r4, r4, #1
 8000442:	d1e9      	bne.n	8000418 <__adddf3+0x10c>
 8000444:	f091 0f00 	teq	r1, #0
 8000448:	bf04      	itt	eq
 800044a:	4601      	moveq	r1, r0
 800044c:	2000      	moveq	r0, #0
 800044e:	fab1 f381 	clz	r3, r1
 8000452:	bf08      	it	eq
 8000454:	3320      	addeq	r3, #32
 8000456:	f1a3 030b 	sub.w	r3, r3, #11
 800045a:	f1b3 0220 	subs.w	r2, r3, #32
 800045e:	da0c      	bge.n	800047a <__adddf3+0x16e>
 8000460:	320c      	adds	r2, #12
 8000462:	dd08      	ble.n	8000476 <__adddf3+0x16a>
 8000464:	f102 0c14 	add.w	ip, r2, #20
 8000468:	f1c2 020c 	rsb	r2, r2, #12
 800046c:	fa01 f00c 	lsl.w	r0, r1, ip
 8000470:	fa21 f102 	lsr.w	r1, r1, r2
 8000474:	e00c      	b.n	8000490 <__adddf3+0x184>
 8000476:	f102 0214 	add.w	r2, r2, #20
 800047a:	bfd8      	it	le
 800047c:	f1c2 0c20 	rsble	ip, r2, #32
 8000480:	fa01 f102 	lsl.w	r1, r1, r2
 8000484:	fa20 fc0c 	lsr.w	ip, r0, ip
 8000488:	bfdc      	itt	le
 800048a:	ea41 010c 	orrle.w	r1, r1, ip
 800048e:	4090      	lslle	r0, r2
 8000490:	1ae4      	subs	r4, r4, r3
 8000492:	bfa2      	ittt	ge
 8000494:	eb01 5104 	addge.w	r1, r1, r4, lsl #20
 8000498:	4329      	orrge	r1, r5
 800049a:	bd30      	popge	{r4, r5, pc}
 800049c:	ea6f 0404 	mvn.w	r4, r4
 80004a0:	3c1f      	subs	r4, #31
 80004a2:	da1c      	bge.n	80004de <__adddf3+0x1d2>
 80004a4:	340c      	adds	r4, #12
 80004a6:	dc0e      	bgt.n	80004c6 <__adddf3+0x1ba>
 80004a8:	f104 0414 	add.w	r4, r4, #20
 80004ac:	f1c4 0220 	rsb	r2, r4, #32
 80004b0:	fa20 f004 	lsr.w	r0, r0, r4
 80004b4:	fa01 f302 	lsl.w	r3, r1, r2
 80004b8:	ea40 0003 	orr.w	r0, r0, r3
 80004bc:	fa21 f304 	lsr.w	r3, r1, r4
 80004c0:	ea45 0103 	orr.w	r1, r5, r3
 80004c4:	bd30      	pop	{r4, r5, pc}
 80004c6:	f1c4 040c 	rsb	r4, r4, #12
 80004ca:	f1c4 0220 	rsb	r2, r4, #32
 80004ce:	fa20 f002 	lsr.w	r0, r0, r2
 80004d2:	fa01 f304 	lsl.w	r3, r1, r4
 80004d6:	ea40 0003 	orr.w	r0, r0, r3
 80004da:	4629      	mov	r1, r5
 80004dc:	bd30      	pop	{r4, r5, pc}
 80004de:	fa21 f004 	lsr.w	r0, r1, r4
 80004e2:	4629      	mov	r1, r5
 80004e4:	bd30      	pop	{r4, r5, pc}
 80004e6:	f094 0f00 	teq	r4, #0
 80004ea:	f483 1380 	eor.w	r3, r3, #1048576	; 0x100000
 80004ee:	bf06      	itte	eq
 80004f0:	f481 1180 	eoreq.w	r1, r1, #1048576	; 0x100000
 80004f4:	3401      	addeq	r4, #1
 80004f6:	3d01      	subne	r5, #1
 80004f8:	e74e      	b.n	8000398 <__adddf3+0x8c>
 80004fa:	ea7f 5c64 	mvns.w	ip, r4, asr #21
 80004fe:	bf18      	it	ne
 8000500:	ea7f 5c65 	mvnsne.w	ip, r5, asr #21
 8000504:	d029      	beq.n	800055a <__adddf3+0x24e>
 8000506:	ea94 0f05 	teq	r4, r5
 800050a:	bf08      	it	eq
 800050c:	ea90 0f02 	teqeq	r0, r2
 8000510:	d005      	beq.n	800051e <__adddf3+0x212>
 8000512:	ea54 0c00 	orrs.w	ip, r4, r0
 8000516:	bf04      	itt	eq
 8000518:	4619      	moveq	r1, r3
 800051a:	4610      	moveq	r0, r2
 800051c:	bd30      	pop	{r4, r5, pc}
 800051e:	ea91 0f03 	teq	r1, r3
 8000522:	bf1e      	ittt	ne
 8000524:	2100      	movne	r1, #0
 8000526:	2000      	movne	r0, #0
 8000528:	bd30      	popne	{r4, r5, pc}
 800052a:	ea5f 5c54 	movs.w	ip, r4, lsr #21
 800052e:	d105      	bne.n	800053c <__adddf3+0x230>
 8000530:	0040      	lsls	r0, r0, #1
 8000532:	4149      	adcs	r1, r1
 8000534:	bf28      	it	cs
 8000536:	f041 4100 	orrcs.w	r1, r1, #2147483648	; 0x80000000
 800053a:	bd30      	pop	{r4, r5, pc}
 800053c:	f514 0480 	adds.w	r4, r4, #4194304	; 0x400000
 8000540:	bf3c      	itt	cc
 8000542:	f501 1180 	addcc.w	r1, r1, #1048576	; 0x100000
 8000546:	bd30      	popcc	{r4, r5, pc}
 8000548:	f001 4500 	and.w	r5, r1, #2147483648	; 0x80000000
 800054c:	f045 41fe 	orr.w	r1, r5, #2130706432	; 0x7f000000
 8000550:	f441 0170 	orr.w	r1, r1, #15728640	; 0xf00000
 8000554:	f04f 0000 	mov.w	r0, #0
 8000558:	bd30      	pop	{r4, r5, pc}
 800055a:	ea7f 5c64 	mvns.w	ip, r4, asr #21
 800055e:	bf1a      	itte	ne
 8000560:	4619      	movne	r1, r3
 8000562:	4610      	movne	r0, r2
 8000564:	ea7f 5c65 	mvnseq.w	ip, r5, asr #21
 8000568:	bf1c      	itt	ne
 800056a:	460b      	movne	r3, r1
 800056c:	4602      	movne	r2, r0
 800056e:	ea50 3401 	orrs.w	r4, r0, r1, lsl #12
 8000572:	bf06      	itte	eq
 8000574:	ea52 3503 	orrseq.w	r5, r2, r3, lsl #12
 8000578:	ea91 0f03 	teqeq	r1, r3
 800057c:	f441 2100 	orrne.w	r1, r1, #524288	; 0x80000
 8000580:	bd30      	pop	{r4, r5, pc}
 8000582:	bf00      	nop

08000584 <__aeabi_ui2d>:
 8000584:	f090 0f00 	teq	r0, #0
 8000588:	bf04      	itt	eq
 800058a:	2100      	moveq	r1, #0
 800058c:	4770      	bxeq	lr
 800058e:	b530      	push	{r4, r5, lr}
 8000590:	f44f 6480 	mov.w	r4, #1024	; 0x400
 8000594:	f104 0432 	add.w	r4, r4, #50	; 0x32
 8000598:	f04f 0500 	mov.w	r5, #0
 800059c:	f04f 0100 	mov.w	r1, #0
 80005a0:	e750      	b.n	8000444 <__adddf3+0x138>
 80005a2:	bf00      	nop

080005a4 <__aeabi_i2d>:
 80005a4:	f090 0f00 	teq	r0, #0
 80005a8:	bf04      	itt	eq
 80005aa:	2100      	moveq	r1, #0
 80005ac:	4770      	bxeq	lr
 80005ae:	b530      	push	{r4, r5, lr}
 80005b0:	f44f 6480 	mov.w	r4, #1024	; 0x400
 80005b4:	f104 0432 	add.w	r4, r4, #50	; 0x32
 80005b8:	f010 4500 	ands.w	r5, r0, #2147483648	; 0x80000000
 80005bc:	bf48      	it	mi
 80005be:	4240      	negmi	r0, r0
 80005c0:	f04f 0100 	mov.w	r1, #0
 80005c4:	e73e      	b.n	8000444 <__adddf3+0x138>
 80005c6:	bf00      	nop

080005c8 <__aeabi_f2d>:
 80005c8:	0042      	lsls	r2, r0, #1
 80005ca:	ea4f 01e2 	mov.w	r1, r2, asr #3
 80005ce:	ea4f 0131 	mov.w	r1, r1, rrx
 80005d2:	ea4f 7002 	mov.w	r0, r2, lsl #28
 80005d6:	bf1f      	itttt	ne
 80005d8:	f012 437f 	andsne.w	r3, r2, #4278190080	; 0xff000000
 80005dc:	f093 4f7f 	teqne	r3, #4278190080	; 0xff000000
 80005e0:	f081 5160 	eorne.w	r1, r1, #939524096	; 0x38000000
 80005e4:	4770      	bxne	lr
 80005e6:	f032 427f 	bics.w	r2, r2, #4278190080	; 0xff000000
 80005ea:	bf08      	it	eq
 80005ec:	4770      	bxeq	lr
 80005ee:	f093 4f7f 	teq	r3, #4278190080	; 0xff000000
 80005f2:	bf04      	itt	eq
 80005f4:	f441 2100 	orreq.w	r1, r1, #524288	; 0x80000
 80005f8:	4770      	bxeq	lr
 80005fa:	b530      	push	{r4, r5, lr}
 80005fc:	f44f 7460 	mov.w	r4, #896	; 0x380
 8000600:	f001 4500 	and.w	r5, r1, #2147483648	; 0x80000000
 8000604:	f021 4100 	bic.w	r1, r1, #2147483648	; 0x80000000
 8000608:	e71c      	b.n	8000444 <__adddf3+0x138>
 800060a:	bf00      	nop

0800060c <__aeabi_ul2d>:
 800060c:	ea50 0201 	orrs.w	r2, r0, r1
 8000610:	bf08      	it	eq
 8000612:	4770      	bxeq	lr
 8000614:	b530      	push	{r4, r5, lr}
 8000616:	f04f 0500 	mov.w	r5, #0
 800061a:	e00a      	b.n	8000632 <__aeabi_l2d+0x16>

0800061c <__aeabi_l2d>:
 800061c:	ea50 0201 	orrs.w	r2, r0, r1
 8000620:	bf08      	it	eq
 8000622:	4770      	bxeq	lr
 8000624:	b530      	push	{r4, r5, lr}
 8000626:	f011 4500 	ands.w	r5, r1, #2147483648	; 0x80000000
 800062a:	d502      	bpl.n	8000632 <__aeabi_l2d+0x16>
 800062c:	4240      	negs	r0, r0
 800062e:	eb61 0141 	sbc.w	r1, r1, r1, lsl #1
 8000632:	f44f 6480 	mov.w	r4, #1024	; 0x400
 8000636:	f104 0432 	add.w	r4, r4, #50	; 0x32
 800063a:	ea5f 5c91 	movs.w	ip, r1, lsr #22
 800063e:	f43f aed8 	beq.w	80003f2 <__adddf3+0xe6>
 8000642:	f04f 0203 	mov.w	r2, #3
 8000646:	ea5f 0cdc 	movs.w	ip, ip, lsr #3
 800064a:	bf18      	it	ne
 800064c:	3203      	addne	r2, #3
 800064e:	ea5f 0cdc 	movs.w	ip, ip, lsr #3
 8000652:	bf18      	it	ne
 8000654:	3203      	addne	r2, #3
 8000656:	eb02 02dc 	add.w	r2, r2, ip, lsr #3
 800065a:	f1c2 0320 	rsb	r3, r2, #32
 800065e:	fa00 fc03 	lsl.w	ip, r0, r3
 8000662:	fa20 f002 	lsr.w	r0, r0, r2
 8000666:	fa01 fe03 	lsl.w	lr, r1, r3
 800066a:	ea40 000e 	orr.w	r0, r0, lr
 800066e:	fa21 f102 	lsr.w	r1, r1, r2
 8000672:	4414      	add	r4, r2
 8000674:	e6bd      	b.n	80003f2 <__adddf3+0xe6>
 8000676:	bf00      	nop
	...

08000680 <__aeabi_dmul>:
 8000680:	b570      	push	{r4, r5, r6, lr}
 8000682:	f04f 0cff 	mov.w	ip, #255	; 0xff
 8000686:	f44c 6ce0 	orr.w	ip, ip, #1792	; 0x700
 800068a:	ea1c 5411 	ands.w	r4, ip, r1, lsr #20
 800068e:	bf1d      	ittte	ne
 8000690:	ea1c 5513 	andsne.w	r5, ip, r3, lsr #20
 8000694:	ea94 0f0c 	teqne	r4, ip
 8000698:	ea95 0f0c 	teqne	r5, ip
 800069c:	f000 f8de 	bleq	800085c <__aeabi_dmul+0x1dc>
 80006a0:	442c      	add	r4, r5
 80006a2:	ea81 0603 	eor.w	r6, r1, r3
 80006a6:	ea21 514c 	bic.w	r1, r1, ip, lsl #21
 80006aa:	ea23 534c 	bic.w	r3, r3, ip, lsl #21
 80006ae:	ea50 3501 	orrs.w	r5, r0, r1, lsl #12
 80006b2:	bf18      	it	ne
 80006b4:	ea52 3503 	orrsne.w	r5, r2, r3, lsl #12
 80006b8:	f441 1180 	orr.w	r1, r1, #1048576	; 0x100000
 80006bc:	f443 1380 	orr.w	r3, r3, #1048576	; 0x100000
 80006c0:	d038      	beq.n	8000734 <__aeabi_dmul+0xb4>
 80006c2:	fba0 ce02 	umull	ip, lr, r0, r2
 80006c6:	f04f 0500 	mov.w	r5, #0
 80006ca:	fbe1 e502 	umlal	lr, r5, r1, r2
 80006ce:	f006 4200 	and.w	r2, r6, #2147483648	; 0x80000000
 80006d2:	fbe0 e503 	umlal	lr, r5, r0, r3
 80006d6:	f04f 0600 	mov.w	r6, #0
 80006da:	fbe1 5603 	umlal	r5, r6, r1, r3
 80006de:	f09c 0f00 	teq	ip, #0
 80006e2:	bf18      	it	ne
 80006e4:	f04e 0e01 	orrne.w	lr, lr, #1
 80006e8:	f1a4 04ff 	sub.w	r4, r4, #255	; 0xff
 80006ec:	f5b6 7f00 	cmp.w	r6, #512	; 0x200
 80006f0:	f564 7440 	sbc.w	r4, r4, #768	; 0x300
 80006f4:	d204      	bcs.n	8000700 <__aeabi_dmul+0x80>
 80006f6:	ea5f 0e4e 	movs.w	lr, lr, lsl #1
 80006fa:	416d      	adcs	r5, r5
 80006fc:	eb46 0606 	adc.w	r6, r6, r6
 8000700:	ea42 21c6 	orr.w	r1, r2, r6, lsl #11
 8000704:	ea41 5155 	orr.w	r1, r1, r5, lsr #21
 8000708:	ea4f 20c5 	mov.w	r0, r5, lsl #11
 800070c:	ea40 505e 	orr.w	r0, r0, lr, lsr #21
 8000710:	ea4f 2ece 	mov.w	lr, lr, lsl #11
 8000714:	f1b4 0cfd 	subs.w	ip, r4, #253	; 0xfd
 8000718:	bf88      	it	hi
 800071a:	f5bc 6fe0 	cmphi.w	ip, #1792	; 0x700
 800071e:	d81e      	bhi.n	800075e <__aeabi_dmul+0xde>
 8000720:	f1be 4f00 	cmp.w	lr, #2147483648	; 0x80000000
 8000724:	bf08      	it	eq
 8000726:	ea5f 0e50 	movseq.w	lr, r0, lsr #1
 800072a:	f150 0000 	adcs.w	r0, r0, #0
 800072e:	eb41 5104 	adc.w	r1, r1, r4, lsl #20
 8000732:	bd70      	pop	{r4, r5, r6, pc}
 8000734:	f006 4600 	and.w	r6, r6, #2147483648	; 0x80000000
 8000738:	ea46 0101 	orr.w	r1, r6, r1
 800073c:	ea40 0002 	orr.w	r0, r0, r2
 8000740:	ea81 0103 	eor.w	r1, r1, r3
 8000744:	ebb4 045c 	subs.w	r4, r4, ip, lsr #1
 8000748:	bfc2      	ittt	gt
 800074a:	ebd4 050c 	rsbsgt	r5, r4, ip
 800074e:	ea41 5104 	orrgt.w	r1, r1, r4, lsl #20
 8000752:	bd70      	popgt	{r4, r5, r6, pc}
 8000754:	f441 1180 	orr.w	r1, r1, #1048576	; 0x100000
 8000758:	f04f 0e00 	mov.w	lr, #0
 800075c:	3c01      	subs	r4, #1
 800075e:	f300 80ab 	bgt.w	80008b8 <__aeabi_dmul+0x238>
 8000762:	f114 0f36 	cmn.w	r4, #54	; 0x36
 8000766:	bfde      	ittt	le
 8000768:	2000      	movle	r0, #0
 800076a:	f001 4100 	andle.w	r1, r1, #2147483648	; 0x80000000
 800076e:	bd70      	pople	{r4, r5, r6, pc}
 8000770:	f1c4 0400 	rsb	r4, r4, #0
 8000774:	3c20      	subs	r4, #32
 8000776:	da35      	bge.n	80007e4 <__aeabi_dmul+0x164>
 8000778:	340c      	adds	r4, #12
 800077a:	dc1b      	bgt.n	80007b4 <__aeabi_dmul+0x134>
 800077c:	f104 0414 	add.w	r4, r4, #20
 8000780:	f1c4 0520 	rsb	r5, r4, #32
 8000784:	fa00 f305 	lsl.w	r3, r0, r5
 8000788:	fa20 f004 	lsr.w	r0, r0, r4
 800078c:	fa01 f205 	lsl.w	r2, r1, r5
 8000790:	ea40 0002 	orr.w	r0, r0, r2
 8000794:	f001 4200 	and.w	r2, r1, #2147483648	; 0x80000000
 8000798:	f021 4100 	bic.w	r1, r1, #2147483648	; 0x80000000
 800079c:	eb10 70d3 	adds.w	r0, r0, r3, lsr #31
 80007a0:	fa21 f604 	lsr.w	r6, r1, r4
 80007a4:	eb42 0106 	adc.w	r1, r2, r6
 80007a8:	ea5e 0e43 	orrs.w	lr, lr, r3, lsl #1
 80007ac:	bf08      	it	eq
 80007ae:	ea20 70d3 	biceq.w	r0, r0, r3, lsr #31
 80007b2:	bd70      	pop	{r4, r5, r6, pc}
 80007b4:	f1c4 040c 	rsb	r4, r4, #12
 80007b8:	f1c4 0520 	rsb	r5, r4, #32
 80007bc:	fa00 f304 	lsl.w	r3, r0, r4
 80007c0:	fa20 f005 	lsr.w	r0, r0, r5
 80007c4:	fa01 f204 	lsl.w	r2, r1, r4
 80007c8:	ea40 0002 	orr.w	r0, r0, r2
 80007cc:	f001 4100 	and.w	r1, r1, #2147483648	; 0x80000000
 80007d0:	eb10 70d3 	adds.w	r0, r0, r3, lsr #31
 80007d4:	f141 0100 	adc.w	r1, r1, #0
 80007d8:	ea5e 0e43 	orrs.w	lr, lr, r3, lsl #1
 80007dc:	bf08      	it	eq
 80007de:	ea20 70d3 	biceq.w	r0, r0, r3, lsr #31
 80007e2:	bd70      	pop	{r4, r5, r6, pc}
 80007e4:	f1c4 0520 	rsb	r5, r4, #32
 80007e8:	fa00 f205 	lsl.w	r2, r0, r5
 80007ec:	ea4e 0e02 	orr.w	lr, lr, r2
 80007f0:	fa20 f304 	lsr.w	r3, r0, r4
 80007f4:	fa01 f205 	lsl.w	r2, r1, r5
 80007f8:	ea43 0302 	orr.w	r3, r3, r2
 80007fc:	fa21 f004 	lsr.w	r0, r1, r4
 8000800:	f001 4100 	and.w	r1, r1, #2147483648	; 0x80000000
 8000804:	fa21 f204 	lsr.w	r2, r1, r4
 8000808:	ea20 0002 	bic.w	r0, r0, r2
 800080c:	eb00 70d3 	add.w	r0, r0, r3, lsr #31
 8000810:	ea5e 0e43 	orrs.w	lr, lr, r3, lsl #1
 8000814:	bf08      	it	eq
 8000816:	ea20 70d3 	biceq.w	r0, r0, r3, lsr #31
 800081a:	bd70      	pop	{r4, r5, r6, pc}
 800081c:	f094 0f00 	teq	r4, #0
 8000820:	d10f      	bne.n	8000842 <__aeabi_dmul+0x1c2>
 8000822:	f001 4600 	and.w	r6, r1, #2147483648	; 0x80000000
 8000826:	0040      	lsls	r0, r0, #1
 8000828:	eb41 0101 	adc.w	r1, r1, r1
 800082c:	f411 1f80 	tst.w	r1, #1048576	; 0x100000
 8000830:	bf08      	it	eq
 8000832:	3c01      	subeq	r4, #1
 8000834:	d0f7      	beq.n	8000826 <__aeabi_dmul+0x1a6>
 8000836:	ea41 0106 	orr.w	r1, r1, r6
 800083a:	f095 0f00 	teq	r5, #0
 800083e:	bf18      	it	ne
 8000840:	4770      	bxne	lr
 8000842:	f003 4600 	and.w	r6, r3, #2147483648	; 0x80000000
 8000846:	0052      	lsls	r2, r2, #1
 8000848:	eb43 0303 	adc.w	r3, r3, r3
 800084c:	f413 1f80 	tst.w	r3, #1048576	; 0x100000
 8000850:	bf08      	it	eq
 8000852:	3d01      	subeq	r5, #1
 8000854:	d0f7      	beq.n	8000846 <__aeabi_dmul+0x1c6>
 8000856:	ea43 0306 	orr.w	r3, r3, r6
 800085a:	4770      	bx	lr
 800085c:	ea94 0f0c 	teq	r4, ip
 8000860:	ea0c 5513 	and.w	r5, ip, r3, lsr #20
 8000864:	bf18      	it	ne
 8000866:	ea95 0f0c 	teqne	r5, ip
 800086a:	d00c      	beq.n	8000886 <__aeabi_dmul+0x206>
 800086c:	ea50 0641 	orrs.w	r6, r0, r1, lsl #1
 8000870:	bf18      	it	ne
 8000872:	ea52 0643 	orrsne.w	r6, r2, r3, lsl #1
 8000876:	d1d1      	bne.n	800081c <__aeabi_dmul+0x19c>
 8000878:	ea81 0103 	eor.w	r1, r1, r3
 800087c:	f001 4100 	and.w	r1, r1, #2147483648	; 0x80000000
 8000880:	f04f 0000 	mov.w	r0, #0
 8000884:	bd70      	pop	{r4, r5, r6, pc}
 8000886:	ea50 0641 	orrs.w	r6, r0, r1, lsl #1
 800088a:	bf06      	itte	eq
 800088c:	4610      	moveq	r0, r2
 800088e:	4619      	moveq	r1, r3
 8000890:	ea52 0643 	orrsne.w	r6, r2, r3, lsl #1
 8000894:	d019      	beq.n	80008ca <__aeabi_dmul+0x24a>
 8000896:	ea94 0f0c 	teq	r4, ip
 800089a:	d102      	bne.n	80008a2 <__aeabi_dmul+0x222>
 800089c:	ea50 3601 	orrs.w	r6, r0, r1, lsl #12
 80008a0:	d113      	bne.n	80008ca <__aeabi_dmul+0x24a>
 80008a2:	ea95 0f0c 	teq	r5, ip
 80008a6:	d105      	bne.n	80008b4 <__aeabi_dmul+0x234>
 80008a8:	ea52 3603 	orrs.w	r6, r2, r3, lsl #12
 80008ac:	bf1c      	itt	ne
 80008ae:	4610      	movne	r0, r2
 80008b0:	4619      	movne	r1, r3
 80008b2:	d10a      	bne.n	80008ca <__aeabi_dmul+0x24a>
 80008b4:	ea81 0103 	eor.w	r1, r1, r3
 80008b8:	f001 4100 	and.w	r1, r1, #2147483648	; 0x80000000
 80008bc:	f041 41fe 	orr.w	r1, r1, #2130706432	; 0x7f000000
 80008c0:	f441 0170 	orr.w	r1, r1, #15728640	; 0xf00000
 80008c4:	f04f 0000 	mov.w	r0, #0
 80008c8:	bd70      	pop	{r4, r5, r6, pc}
 80008ca:	f041 41fe 	orr.w	r1, r1, #2130706432	; 0x7f000000
 80008ce:	f441 0178 	orr.w	r1, r1, #16252928	; 0xf80000
 80008d2:	bd70      	pop	{r4, r5, r6, pc}

080008d4 <__aeabi_ddiv>:
 80008d4:	b570      	push	{r4, r5, r6, lr}
 80008d6:	f04f 0cff 	mov.w	ip, #255	; 0xff
 80008da:	f44c 6ce0 	orr.w	ip, ip, #1792	; 0x700
 80008de:	ea1c 5411 	ands.w	r4, ip, r1, lsr #20
 80008e2:	bf1d      	ittte	ne
 80008e4:	ea1c 5513 	andsne.w	r5, ip, r3, lsr #20
 80008e8:	ea94 0f0c 	teqne	r4, ip
 80008ec:	ea95 0f0c 	teqne	r5, ip
 80008f0:	f000 f8a7 	bleq	8000a42 <__aeabi_ddiv+0x16e>
 80008f4:	eba4 0405 	sub.w	r4, r4, r5
 80008f8:	ea81 0e03 	eor.w	lr, r1, r3
 80008fc:	ea52 3503 	orrs.w	r5, r2, r3, lsl #12
 8000900:	ea4f 3101 	mov.w	r1, r1, lsl #12
 8000904:	f000 8088 	beq.w	8000a18 <__aeabi_ddiv+0x144>
 8000908:	ea4f 3303 	mov.w	r3, r3, lsl #12
 800090c:	f04f 5580 	mov.w	r5, #268435456	; 0x10000000
 8000910:	ea45 1313 	orr.w	r3, r5, r3, lsr #4
 8000914:	ea43 6312 	orr.w	r3, r3, r2, lsr #24
 8000918:	ea4f 2202 	mov.w	r2, r2, lsl #8
 800091c:	ea45 1511 	orr.w	r5, r5, r1, lsr #4
 8000920:	ea45 6510 	orr.w	r5, r5, r0, lsr #24
 8000924:	ea4f 2600 	mov.w	r6, r0, lsl #8
 8000928:	f00e 4100 	and.w	r1, lr, #2147483648	; 0x80000000
 800092c:	429d      	cmp	r5, r3
 800092e:	bf08      	it	eq
 8000930:	4296      	cmpeq	r6, r2
 8000932:	f144 04fd 	adc.w	r4, r4, #253	; 0xfd
 8000936:	f504 7440 	add.w	r4, r4, #768	; 0x300
 800093a:	d202      	bcs.n	8000942 <__aeabi_ddiv+0x6e>
 800093c:	085b      	lsrs	r3, r3, #1
 800093e:	ea4f 0232 	mov.w	r2, r2, rrx
 8000942:	1ab6      	subs	r6, r6, r2
 8000944:	eb65 0503 	sbc.w	r5, r5, r3
 8000948:	085b      	lsrs	r3, r3, #1
 800094a:	ea4f 0232 	mov.w	r2, r2, rrx
 800094e:	f44f 1080 	mov.w	r0, #1048576	; 0x100000
 8000952:	f44f 2c00 	mov.w	ip, #524288	; 0x80000
 8000956:	ebb6 0e02 	subs.w	lr, r6, r2
 800095a:	eb75 0e03 	sbcs.w	lr, r5, r3
 800095e:	bf22      	ittt	cs
 8000960:	1ab6      	subcs	r6, r6, r2
 8000962:	4675      	movcs	r5, lr
 8000964:	ea40 000c 	orrcs.w	r0, r0, ip
 8000968:	085b      	lsrs	r3, r3, #1
 800096a:	ea4f 0232 	mov.w	r2, r2, rrx
 800096e:	ebb6 0e02 	subs.w	lr, r6, r2
 8000972:	eb75 0e03 	sbcs.w	lr, r5, r3
 8000976:	bf22      	ittt	cs
 8000978:	1ab6      	subcs	r6, r6, r2
 800097a:	4675      	movcs	r5, lr
 800097c:	ea40 005c 	orrcs.w	r0, r0, ip, lsr #1
 8000980:	085b      	lsrs	r3, r3, #1
 8000982:	ea4f 0232 	mov.w	r2, r2, rrx
 8000986:	ebb6 0e02 	subs.w	lr, r6, r2
 800098a:	eb75 0e03 	sbcs.w	lr, r5, r3
 800098e:	bf22      	ittt	cs
 8000990:	1ab6      	subcs	r6, r6, r2
 8000992:	4675      	movcs	r5, lr
 8000994:	ea40 009c 	orrcs.w	r0, r0, ip, lsr #2
 8000998:	085b      	lsrs	r3, r3, #1
 800099a:	ea4f 0232 	mov.w	r2, r2, rrx
 800099e:	ebb6 0e02 	subs.w	lr, r6, r2
 80009a2:	eb75 0e03 	sbcs.w	lr, r5, r3
 80009a6:	bf22      	ittt	cs
 80009a8:	1ab6      	subcs	r6, r6, r2
 80009aa:	4675      	movcs	r5, lr
 80009ac:	ea40 00dc 	orrcs.w	r0, r0, ip, lsr #3
 80009b0:	ea55 0e06 	orrs.w	lr, r5, r6
 80009b4:	d018      	beq.n	80009e8 <__aeabi_ddiv+0x114>
 80009b6:	ea4f 1505 	mov.w	r5, r5, lsl #4
 80009ba:	ea45 7516 	orr.w	r5, r5, r6, lsr #28
 80009be:	ea4f 1606 	mov.w	r6, r6, lsl #4
 80009c2:	ea4f 03c3 	mov.w	r3, r3, lsl #3
 80009c6:	ea43 7352 	orr.w	r3, r3, r2, lsr #29
 80009ca:	ea4f 02c2 	mov.w	r2, r2, lsl #3
 80009ce:	ea5f 1c1c 	movs.w	ip, ip, lsr #4
 80009d2:	d1c0      	bne.n	8000956 <__aeabi_ddiv+0x82>
 80009d4:	f411 1f80 	tst.w	r1, #1048576	; 0x100000
 80009d8:	d10b      	bne.n	80009f2 <__aeabi_ddiv+0x11e>
 80009da:	ea41 0100 	orr.w	r1, r1, r0
 80009de:	f04f 0000 	mov.w	r0, #0
 80009e2:	f04f 4c00 	mov.w	ip, #2147483648	; 0x80000000
 80009e6:	e7b6      	b.n	8000956 <__aeabi_ddiv+0x82>
 80009e8:	f411 1f80 	tst.w	r1, #1048576	; 0x100000
 80009ec:	bf04      	itt	eq
 80009ee:	4301      	orreq	r1, r0
 80009f0:	2000      	moveq	r0, #0
 80009f2:	f1b4 0cfd 	subs.w	ip, r4, #253	; 0xfd
 80009f6:	bf88      	it	hi
 80009f8:	f5bc 6fe0 	cmphi.w	ip, #1792	; 0x700
 80009fc:	f63f aeaf 	bhi.w	800075e <__aeabi_dmul+0xde>
 8000a00:	ebb5 0c03 	subs.w	ip, r5, r3
 8000a04:	bf04      	itt	eq
 8000a06:	ebb6 0c02 	subseq.w	ip, r6, r2
 8000a0a:	ea5f 0c50 	movseq.w	ip, r0, lsr #1
 8000a0e:	f150 0000 	adcs.w	r0, r0, #0
 8000a12:	eb41 5104 	adc.w	r1, r1, r4, lsl #20
 8000a16:	bd70      	pop	{r4, r5, r6, pc}
 8000a18:	f00e 4e00 	and.w	lr, lr, #2147483648	; 0x80000000
 8000a1c:	ea4e 3111 	orr.w	r1, lr, r1, lsr #12
 8000a20:	eb14 045c 	adds.w	r4, r4, ip, lsr #1
 8000a24:	bfc2      	ittt	gt
 8000a26:	ebd4 050c 	rsbsgt	r5, r4, ip
 8000a2a:	ea41 5104 	orrgt.w	r1, r1, r4, lsl #20
 8000a2e:	bd70      	popgt	{r4, r5, r6, pc}
 8000a30:	f441 1180 	orr.w	r1, r1, #1048576	; 0x100000
 8000a34:	f04f 0e00 	mov.w	lr, #0
 8000a38:	3c01      	subs	r4, #1
 8000a3a:	e690      	b.n	800075e <__aeabi_dmul+0xde>
 8000a3c:	ea45 0e06 	orr.w	lr, r5, r6
 8000a40:	e68d      	b.n	800075e <__aeabi_dmul+0xde>
 8000a42:	ea0c 5513 	and.w	r5, ip, r3, lsr #20
 8000a46:	ea94 0f0c 	teq	r4, ip
 8000a4a:	bf08      	it	eq
 8000a4c:	ea95 0f0c 	teqeq	r5, ip
 8000a50:	f43f af3b 	beq.w	80008ca <__aeabi_dmul+0x24a>
 8000a54:	ea94 0f0c 	teq	r4, ip
 8000a58:	d10a      	bne.n	8000a70 <__aeabi_ddiv+0x19c>
 8000a5a:	ea50 3401 	orrs.w	r4, r0, r1, lsl #12
 8000a5e:	f47f af34 	bne.w	80008ca <__aeabi_dmul+0x24a>
 8000a62:	ea95 0f0c 	teq	r5, ip
 8000a66:	f47f af25 	bne.w	80008b4 <__aeabi_dmul+0x234>
 8000a6a:	4610      	mov	r0, r2
 8000a6c:	4619      	mov	r1, r3
 8000a6e:	e72c      	b.n	80008ca <__aeabi_dmul+0x24a>
 8000a70:	ea95 0f0c 	teq	r5, ip
 8000a74:	d106      	bne.n	8000a84 <__aeabi_ddiv+0x1b0>
 8000a76:	ea52 3503 	orrs.w	r5, r2, r3, lsl #12
 8000a7a:	f43f aefd 	beq.w	8000878 <__aeabi_dmul+0x1f8>
 8000a7e:	4610      	mov	r0, r2
 8000a80:	4619      	mov	r1, r3
 8000a82:	e722      	b.n	80008ca <__aeabi_dmul+0x24a>
 8000a84:	ea50 0641 	orrs.w	r6, r0, r1, lsl #1
 8000a88:	bf18      	it	ne
 8000a8a:	ea52 0643 	orrsne.w	r6, r2, r3, lsl #1
 8000a8e:	f47f aec5 	bne.w	800081c <__aeabi_dmul+0x19c>
 8000a92:	ea50 0441 	orrs.w	r4, r0, r1, lsl #1
 8000a96:	f47f af0d 	bne.w	80008b4 <__aeabi_dmul+0x234>
 8000a9a:	ea52 0543 	orrs.w	r5, r2, r3, lsl #1
 8000a9e:	f47f aeeb 	bne.w	8000878 <__aeabi_dmul+0x1f8>
 8000aa2:	e712      	b.n	80008ca <__aeabi_dmul+0x24a>
	...

08000ab0 <__gedf2>:
 8000ab0:	f04f 3cff 	mov.w	ip, #4294967295
 8000ab4:	e006      	b.n	8000ac4 <__cmpdf2+0x4>
 8000ab6:	bf00      	nop

08000ab8 <__ledf2>:
 8000ab8:	f04f 0c01 	mov.w	ip, #1
 8000abc:	e002      	b.n	8000ac4 <__cmpdf2+0x4>
 8000abe:	bf00      	nop

08000ac0 <__cmpdf2>:
 8000ac0:	f04f 0c01 	mov.w	ip, #1
 8000ac4:	f84d cd04 	str.w	ip, [sp, #-4]!
 8000ac8:	ea4f 0c41 	mov.w	ip, r1, lsl #1
 8000acc:	ea7f 5c6c 	mvns.w	ip, ip, asr #21
 8000ad0:	ea4f 0c43 	mov.w	ip, r3, lsl #1
 8000ad4:	bf18      	it	ne
 8000ad6:	ea7f 5c6c 	mvnsne.w	ip, ip, asr #21
 8000ada:	d01b      	beq.n	8000b14 <__cmpdf2+0x54>
 8000adc:	b001      	add	sp, #4
 8000ade:	ea50 0c41 	orrs.w	ip, r0, r1, lsl #1
 8000ae2:	bf0c      	ite	eq
 8000ae4:	ea52 0c43 	orrseq.w	ip, r2, r3, lsl #1
 8000ae8:	ea91 0f03 	teqne	r1, r3
 8000aec:	bf02      	ittt	eq
 8000aee:	ea90 0f02 	teqeq	r0, r2
 8000af2:	2000      	moveq	r0, #0
 8000af4:	4770      	bxeq	lr
 8000af6:	f110 0f00 	cmn.w	r0, #0
 8000afa:	ea91 0f03 	teq	r1, r3
 8000afe:	bf58      	it	pl
 8000b00:	4299      	cmppl	r1, r3
 8000b02:	bf08      	it	eq
 8000b04:	4290      	cmpeq	r0, r2
 8000b06:	bf2c      	ite	cs
 8000b08:	17d8      	asrcs	r0, r3, #31
 8000b0a:	ea6f 70e3 	mvncc.w	r0, r3, asr #31
 8000b0e:	f040 0001 	orr.w	r0, r0, #1
 8000b12:	4770      	bx	lr
 8000b14:	ea4f 0c41 	mov.w	ip, r1, lsl #1
 8000b18:	ea7f 5c6c 	mvns.w	ip, ip, asr #21
 8000b1c:	d102      	bne.n	8000b24 <__cmpdf2+0x64>
 8000b1e:	ea50 3c01 	orrs.w	ip, r0, r1, lsl #12
 8000b22:	d107      	bne.n	8000b34 <__cmpdf2+0x74>
 8000b24:	ea4f 0c43 	mov.w	ip, r3, lsl #1
 8000b28:	ea7f 5c6c 	mvns.w	ip, ip, asr #21
 8000b2c:	d1d6      	bne.n	8000adc <__cmpdf2+0x1c>
 8000b2e:	ea52 3c03 	orrs.w	ip, r2, r3, lsl #12
 8000b32:	d0d3      	beq.n	8000adc <__cmpdf2+0x1c>
 8000b34:	f85d 0b04 	ldr.w	r0, [sp], #4
 8000b38:	4770      	bx	lr
 8000b3a:	bf00      	nop

08000b3c <__aeabi_cdrcmple>:
 8000b3c:	4684      	mov	ip, r0
 8000b3e:	4610      	mov	r0, r2
 8000b40:	4662      	mov	r2, ip
 8000b42:	468c      	mov	ip, r1
 8000b44:	4619      	mov	r1, r3
 8000b46:	4663      	mov	r3, ip
 8000b48:	e000      	b.n	8000b4c <__aeabi_cdcmpeq>
 8000b4a:	bf00      	nop

08000b4c <__aeabi_cdcmpeq>:
 8000b4c:	b501      	push	{r0, lr}
 8000b4e:	f7ff ffb7 	bl	8000ac0 <__cmpdf2>
 8000b52:	2800      	cmp	r0, #0
 8000b54:	bf48      	it	mi
 8000b56:	f110 0f00 	cmnmi.w	r0, #0
 8000b5a:	bd01      	pop	{r0, pc}

08000b5c <__aeabi_dcmpeq>:
 8000b5c:	f84d ed08 	str.w	lr, [sp, #-8]!
 8000b60:	f7ff fff4 	bl	8000b4c <__aeabi_cdcmpeq>
 8000b64:	bf0c      	ite	eq
 8000b66:	2001      	moveq	r0, #1
 8000b68:	2000      	movne	r0, #0
 8000b6a:	f85d fb08 	ldr.w	pc, [sp], #8
 8000b6e:	bf00      	nop

08000b70 <__aeabi_dcmplt>:
 8000b70:	f84d ed08 	str.w	lr, [sp, #-8]!
 8000b74:	f7ff ffea 	bl	8000b4c <__aeabi_cdcmpeq>
 8000b78:	bf34      	ite	cc
 8000b7a:	2001      	movcc	r0, #1
 8000b7c:	2000      	movcs	r0, #0
 8000b7e:	f85d fb08 	ldr.w	pc, [sp], #8
 8000b82:	bf00      	nop

08000b84 <__aeabi_dcmple>:
 8000b84:	f84d ed08 	str.w	lr, [sp, #-8]!
 8000b88:	f7ff ffe0 	bl	8000b4c <__aeabi_cdcmpeq>
 8000b8c:	bf94      	ite	ls
 8000b8e:	2001      	movls	r0, #1
 8000b90:	2000      	movhi	r0, #0
 8000b92:	f85d fb08 	ldr.w	pc, [sp], #8
 8000b96:	bf00      	nop

08000b98 <__aeabi_dcmpge>:
 8000b98:	f84d ed08 	str.w	lr, [sp, #-8]!
 8000b9c:	f7ff ffce 	bl	8000b3c <__aeabi_cdrcmple>
 8000ba0:	bf94      	ite	ls
 8000ba2:	2001      	movls	r0, #1
 8000ba4:	2000      	movhi	r0, #0
 8000ba6:	f85d fb08 	ldr.w	pc, [sp], #8
 8000baa:	bf00      	nop

08000bac <__aeabi_dcmpgt>:
 8000bac:	f84d ed08 	str.w	lr, [sp, #-8]!
 8000bb0:	f7ff ffc4 	bl	8000b3c <__aeabi_cdrcmple>
 8000bb4:	bf34      	ite	cc
 8000bb6:	2001      	movcc	r0, #1
 8000bb8:	2000      	movcs	r0, #0
 8000bba:	f85d fb08 	ldr.w	pc, [sp], #8
 8000bbe:	bf00      	nop

08000bc0 <__aeabi_d2iz>:
 8000bc0:	ea4f 0241 	mov.w	r2, r1, lsl #1
 8000bc4:	f512 1200 	adds.w	r2, r2, #2097152	; 0x200000
 8000bc8:	d215      	bcs.n	8000bf6 <__aeabi_d2iz+0x36>
 8000bca:	d511      	bpl.n	8000bf0 <__aeabi_d2iz+0x30>
 8000bcc:	f46f 7378 	mvn.w	r3, #992	; 0x3e0
 8000bd0:	ebb3 5262 	subs.w	r2, r3, r2, asr #21
 8000bd4:	d912      	bls.n	8000bfc <__aeabi_d2iz+0x3c>
 8000bd6:	ea4f 23c1 	mov.w	r3, r1, lsl #11
 8000bda:	f043 4300 	orr.w	r3, r3, #2147483648	; 0x80000000
 8000bde:	ea43 5350 	orr.w	r3, r3, r0, lsr #21
 8000be2:	f011 4f00 	tst.w	r1, #2147483648	; 0x80000000
 8000be6:	fa23 f002 	lsr.w	r0, r3, r2
 8000bea:	bf18      	it	ne
 8000bec:	4240      	negne	r0, r0
 8000bee:	4770      	bx	lr
 8000bf0:	f04f 0000 	mov.w	r0, #0
 8000bf4:	4770      	bx	lr
 8000bf6:	ea50 3001 	orrs.w	r0, r0, r1, lsl #12
 8000bfa:	d105      	bne.n	8000c08 <__aeabi_d2iz+0x48>
 8000bfc:	f011 4000 	ands.w	r0, r1, #2147483648	; 0x80000000
 8000c00:	bf08      	it	eq
 8000c02:	f06f 4000 	mvneq.w	r0, #2147483648	; 0x80000000
 8000c06:	4770      	bx	lr
 8000c08:	f04f 0000 	mov.w	r0, #0
 8000c0c:	4770      	bx	lr
 8000c0e:	bf00      	nop

08000c10 <__aeabi_uldivmod>:
 8000c10:	b953      	cbnz	r3, 8000c28 <__aeabi_uldivmod+0x18>
 8000c12:	b94a      	cbnz	r2, 8000c28 <__aeabi_uldivmod+0x18>
 8000c14:	2900      	cmp	r1, #0
 8000c16:	bf08      	it	eq
 8000c18:	2800      	cmpeq	r0, #0
 8000c1a:	bf1c      	itt	ne
 8000c1c:	f04f 31ff 	movne.w	r1, #4294967295
 8000c20:	f04f 30ff 	movne.w	r0, #4294967295
 8000c24:	f000 b974 	b.w	8000f10 <__aeabi_idiv0>
 8000c28:	f1ad 0c08 	sub.w	ip, sp, #8
 8000c2c:	e96d ce04 	strd	ip, lr, [sp, #-16]!
 8000c30:	f000 f806 	bl	8000c40 <__udivmoddi4>
 8000c34:	f8dd e004 	ldr.w	lr, [sp, #4]
 8000c38:	e9dd 2302 	ldrd	r2, r3, [sp, #8]
 8000c3c:	b004      	add	sp, #16
 8000c3e:	4770      	bx	lr

08000c40 <__udivmoddi4>:
 8000c40:	e92d 47f0 	stmdb	sp!, {r4, r5, r6, r7, r8, r9, sl, lr}
 8000c44:	9e08      	ldr	r6, [sp, #32]
 8000c46:	4604      	mov	r4, r0
 8000c48:	4688      	mov	r8, r1
 8000c4a:	2b00      	cmp	r3, #0
 8000c4c:	d14b      	bne.n	8000ce6 <__udivmoddi4+0xa6>
 8000c4e:	428a      	cmp	r2, r1
 8000c50:	4615      	mov	r5, r2
 8000c52:	d967      	bls.n	8000d24 <__udivmoddi4+0xe4>
 8000c54:	fab2 f282 	clz	r2, r2
 8000c58:	b14a      	cbz	r2, 8000c6e <__udivmoddi4+0x2e>
 8000c5a:	f1c2 0720 	rsb	r7, r2, #32
 8000c5e:	fa01 f302 	lsl.w	r3, r1, r2
 8000c62:	fa20 f707 	lsr.w	r7, r0, r7
 8000c66:	4095      	lsls	r5, r2
 8000c68:	ea47 0803 	orr.w	r8, r7, r3
 8000c6c:	4094      	lsls	r4, r2
 8000c6e:	ea4f 4e15 	mov.w	lr, r5, lsr #16
 8000c72:	0c23      	lsrs	r3, r4, #16
 8000c74:	fbb8 f7fe 	udiv	r7, r8, lr
 8000c78:	fa1f fc85 	uxth.w	ip, r5
 8000c7c:	fb0e 8817 	mls	r8, lr, r7, r8
 8000c80:	ea43 4308 	orr.w	r3, r3, r8, lsl #16
 8000c84:	fb07 f10c 	mul.w	r1, r7, ip
 8000c88:	4299      	cmp	r1, r3
 8000c8a:	d909      	bls.n	8000ca0 <__udivmoddi4+0x60>
 8000c8c:	18eb      	adds	r3, r5, r3
 8000c8e:	f107 30ff 	add.w	r0, r7, #4294967295
 8000c92:	f080 811b 	bcs.w	8000ecc <__udivmoddi4+0x28c>
 8000c96:	4299      	cmp	r1, r3
 8000c98:	f240 8118 	bls.w	8000ecc <__udivmoddi4+0x28c>
 8000c9c:	3f02      	subs	r7, #2
 8000c9e:	442b      	add	r3, r5
 8000ca0:	1a5b      	subs	r3, r3, r1
 8000ca2:	b2a4      	uxth	r4, r4
 8000ca4:	fbb3 f0fe 	udiv	r0, r3, lr
 8000ca8:	fb0e 3310 	mls	r3, lr, r0, r3
 8000cac:	ea44 4403 	orr.w	r4, r4, r3, lsl #16
 8000cb0:	fb00 fc0c 	mul.w	ip, r0, ip
 8000cb4:	45a4      	cmp	ip, r4
 8000cb6:	d909      	bls.n	8000ccc <__udivmoddi4+0x8c>
 8000cb8:	192c      	adds	r4, r5, r4
 8000cba:	f100 33ff 	add.w	r3, r0, #4294967295
 8000cbe:	f080 8107 	bcs.w	8000ed0 <__udivmoddi4+0x290>
 8000cc2:	45a4      	cmp	ip, r4
 8000cc4:	f240 8104 	bls.w	8000ed0 <__udivmoddi4+0x290>
 8000cc8:	3802      	subs	r0, #2
 8000cca:	442c      	add	r4, r5
 8000ccc:	ea40 4007 	orr.w	r0, r0, r7, lsl #16
 8000cd0:	eba4 040c 	sub.w	r4, r4, ip
 8000cd4:	2700      	movs	r7, #0
 8000cd6:	b11e      	cbz	r6, 8000ce0 <__udivmoddi4+0xa0>
 8000cd8:	40d4      	lsrs	r4, r2
 8000cda:	2300      	movs	r3, #0
 8000cdc:	e9c6 4300 	strd	r4, r3, [r6]
 8000ce0:	4639      	mov	r1, r7
 8000ce2:	e8bd 87f0 	ldmia.w	sp!, {r4, r5, r6, r7, r8, r9, sl, pc}
 8000ce6:	428b      	cmp	r3, r1
 8000ce8:	d909      	bls.n	8000cfe <__udivmoddi4+0xbe>
 8000cea:	2e00      	cmp	r6, #0
 8000cec:	f000 80eb 	beq.w	8000ec6 <__udivmoddi4+0x286>
 8000cf0:	2700      	movs	r7, #0
 8000cf2:	e9c6 0100 	strd	r0, r1, [r6]
 8000cf6:	4638      	mov	r0, r7
 8000cf8:	4639      	mov	r1, r7
 8000cfa:	e8bd 87f0 	ldmia.w	sp!, {r4, r5, r6, r7, r8, r9, sl, pc}
 8000cfe:	fab3 f783 	clz	r7, r3
 8000d02:	2f00      	cmp	r7, #0
 8000d04:	d147      	bne.n	8000d96 <__udivmoddi4+0x156>
 8000d06:	428b      	cmp	r3, r1
 8000d08:	d302      	bcc.n	8000d10 <__udivmoddi4+0xd0>
 8000d0a:	4282      	cmp	r2, r0
 8000d0c:	f200 80fa 	bhi.w	8000f04 <__udivmoddi4+0x2c4>
 8000d10:	1a84      	subs	r4, r0, r2
 8000d12:	eb61 0303 	sbc.w	r3, r1, r3
 8000d16:	2001      	movs	r0, #1
 8000d18:	4698      	mov	r8, r3
 8000d1a:	2e00      	cmp	r6, #0
 8000d1c:	d0e0      	beq.n	8000ce0 <__udivmoddi4+0xa0>
 8000d1e:	e9c6 4800 	strd	r4, r8, [r6]
 8000d22:	e7dd      	b.n	8000ce0 <__udivmoddi4+0xa0>
 8000d24:	b902      	cbnz	r2, 8000d28 <__udivmoddi4+0xe8>
 8000d26:	deff      	udf	#255	; 0xff
 8000d28:	fab2 f282 	clz	r2, r2
 8000d2c:	2a00      	cmp	r2, #0
 8000d2e:	f040 808f 	bne.w	8000e50 <__udivmoddi4+0x210>
 8000d32:	1b49      	subs	r1, r1, r5
 8000d34:	ea4f 4e15 	mov.w	lr, r5, lsr #16
 8000d38:	fa1f f885 	uxth.w	r8, r5
 8000d3c:	2701      	movs	r7, #1
 8000d3e:	fbb1 fcfe 	udiv	ip, r1, lr
 8000d42:	0c23      	lsrs	r3, r4, #16
 8000d44:	fb0e 111c 	mls	r1, lr, ip, r1
 8000d48:	ea43 4301 	orr.w	r3, r3, r1, lsl #16
 8000d4c:	fb08 f10c 	mul.w	r1, r8, ip
 8000d50:	4299      	cmp	r1, r3
 8000d52:	d907      	bls.n	8000d64 <__udivmoddi4+0x124>
 8000d54:	18eb      	adds	r3, r5, r3
 8000d56:	f10c 30ff 	add.w	r0, ip, #4294967295
 8000d5a:	d202      	bcs.n	8000d62 <__udivmoddi4+0x122>
 8000d5c:	4299      	cmp	r1, r3
 8000d5e:	f200 80cd 	bhi.w	8000efc <__udivmoddi4+0x2bc>
 8000d62:	4684      	mov	ip, r0
 8000d64:	1a59      	subs	r1, r3, r1
 8000d66:	b2a3      	uxth	r3, r4
 8000d68:	fbb1 f0fe 	udiv	r0, r1, lr
 8000d6c:	fb0e 1410 	mls	r4, lr, r0, r1
 8000d70:	ea43 4404 	orr.w	r4, r3, r4, lsl #16
 8000d74:	fb08 f800 	mul.w	r8, r8, r0
 8000d78:	45a0      	cmp	r8, r4
 8000d7a:	d907      	bls.n	8000d8c <__udivmoddi4+0x14c>
 8000d7c:	192c      	adds	r4, r5, r4
 8000d7e:	f100 33ff 	add.w	r3, r0, #4294967295
 8000d82:	d202      	bcs.n	8000d8a <__udivmoddi4+0x14a>
 8000d84:	45a0      	cmp	r8, r4
 8000d86:	f200 80b6 	bhi.w	8000ef6 <__udivmoddi4+0x2b6>
 8000d8a:	4618      	mov	r0, r3
 8000d8c:	eba4 0408 	sub.w	r4, r4, r8
 8000d90:	ea40 400c 	orr.w	r0, r0, ip, lsl #16
 8000d94:	e79f      	b.n	8000cd6 <__udivmoddi4+0x96>
 8000d96:	f1c7 0c20 	rsb	ip, r7, #32
 8000d9a:	40bb      	lsls	r3, r7
 8000d9c:	fa22 fe0c 	lsr.w	lr, r2, ip
 8000da0:	ea4e 0e03 	orr.w	lr, lr, r3
 8000da4:	fa01 f407 	lsl.w	r4, r1, r7
 8000da8:	fa20 f50c 	lsr.w	r5, r0, ip
 8000dac:	fa21 f30c 	lsr.w	r3, r1, ip
 8000db0:	ea4f 481e 	mov.w	r8, lr, lsr #16
 8000db4:	4325      	orrs	r5, r4
 8000db6:	fbb3 f9f8 	udiv	r9, r3, r8
 8000dba:	0c2c      	lsrs	r4, r5, #16
 8000dbc:	fb08 3319 	mls	r3, r8, r9, r3
 8000dc0:	fa1f fa8e 	uxth.w	sl, lr
 8000dc4:	ea44 4303 	orr.w	r3, r4, r3, lsl #16
 8000dc8:	fb09 f40a 	mul.w	r4, r9, sl
 8000dcc:	429c      	cmp	r4, r3
 8000dce:	fa02 f207 	lsl.w	r2, r2, r7
 8000dd2:	fa00 f107 	lsl.w	r1, r0, r7
 8000dd6:	d90b      	bls.n	8000df0 <__udivmoddi4+0x1b0>
 8000dd8:	eb1e 0303 	adds.w	r3, lr, r3
 8000ddc:	f109 30ff 	add.w	r0, r9, #4294967295
 8000de0:	f080 8087 	bcs.w	8000ef2 <__udivmoddi4+0x2b2>
 8000de4:	429c      	cmp	r4, r3
 8000de6:	f240 8084 	bls.w	8000ef2 <__udivmoddi4+0x2b2>
 8000dea:	f1a9 0902 	sub.w	r9, r9, #2
 8000dee:	4473      	add	r3, lr
 8000df0:	1b1b      	subs	r3, r3, r4
 8000df2:	b2ad      	uxth	r5, r5
 8000df4:	fbb3 f0f8 	udiv	r0, r3, r8
 8000df8:	fb08 3310 	mls	r3, r8, r0, r3
 8000dfc:	ea45 4403 	orr.w	r4, r5, r3, lsl #16
 8000e00:	fb00 fa0a 	mul.w	sl, r0, sl
 8000e04:	45a2      	cmp	sl, r4
 8000e06:	d908      	bls.n	8000e1a <__udivmoddi4+0x1da>
 8000e08:	eb1e 0404 	adds.w	r4, lr, r4
 8000e0c:	f100 33ff 	add.w	r3, r0, #4294967295
 8000e10:	d26b      	bcs.n	8000eea <__udivmoddi4+0x2aa>
 8000e12:	45a2      	cmp	sl, r4
 8000e14:	d969      	bls.n	8000eea <__udivmoddi4+0x2aa>
 8000e16:	3802      	subs	r0, #2
 8000e18:	4474      	add	r4, lr
 8000e1a:	ea40 4009 	orr.w	r0, r0, r9, lsl #16
 8000e1e:	fba0 8902 	umull	r8, r9, r0, r2
 8000e22:	eba4 040a 	sub.w	r4, r4, sl
 8000e26:	454c      	cmp	r4, r9
 8000e28:	46c2      	mov	sl, r8
 8000e2a:	464b      	mov	r3, r9
 8000e2c:	d354      	bcc.n	8000ed8 <__udivmoddi4+0x298>
 8000e2e:	d051      	beq.n	8000ed4 <__udivmoddi4+0x294>
 8000e30:	2e00      	cmp	r6, #0
 8000e32:	d069      	beq.n	8000f08 <__udivmoddi4+0x2c8>
 8000e34:	ebb1 050a 	subs.w	r5, r1, sl
 8000e38:	eb64 0403 	sbc.w	r4, r4, r3
 8000e3c:	fa04 fc0c 	lsl.w	ip, r4, ip
 8000e40:	40fd      	lsrs	r5, r7
 8000e42:	40fc      	lsrs	r4, r7
 8000e44:	ea4c 0505 	orr.w	r5, ip, r5
 8000e48:	e9c6 5400 	strd	r5, r4, [r6]
 8000e4c:	2700      	movs	r7, #0
 8000e4e:	e747      	b.n	8000ce0 <__udivmoddi4+0xa0>
 8000e50:	f1c2 0320 	rsb	r3, r2, #32
 8000e54:	fa20 f703 	lsr.w	r7, r0, r3
 8000e58:	4095      	lsls	r5, r2
 8000e5a:	fa01 f002 	lsl.w	r0, r1, r2
 8000e5e:	fa21 f303 	lsr.w	r3, r1, r3
 8000e62:	ea4f 4e15 	mov.w	lr, r5, lsr #16
 8000e66:	4338      	orrs	r0, r7
 8000e68:	0c01      	lsrs	r1, r0, #16
 8000e6a:	fbb3 f7fe 	udiv	r7, r3, lr
 8000e6e:	fa1f f885 	uxth.w	r8, r5
 8000e72:	fb0e 3317 	mls	r3, lr, r7, r3
 8000e76:	ea41 4103 	orr.w	r1, r1, r3, lsl #16
 8000e7a:	fb07 f308 	mul.w	r3, r7, r8
 8000e7e:	428b      	cmp	r3, r1
 8000e80:	fa04 f402 	lsl.w	r4, r4, r2
 8000e84:	d907      	bls.n	8000e96 <__udivmoddi4+0x256>
 8000e86:	1869      	adds	r1, r5, r1
 8000e88:	f107 3cff 	add.w	ip, r7, #4294967295
 8000e8c:	d22f      	bcs.n	8000eee <__udivmoddi4+0x2ae>
 8000e8e:	428b      	cmp	r3, r1
 8000e90:	d92d      	bls.n	8000eee <__udivmoddi4+0x2ae>
 8000e92:	3f02      	subs	r7, #2
 8000e94:	4429      	add	r1, r5
 8000e96:	1acb      	subs	r3, r1, r3
 8000e98:	b281      	uxth	r1, r0
 8000e9a:	fbb3 f0fe 	udiv	r0, r3, lr
 8000e9e:	fb0e 3310 	mls	r3, lr, r0, r3
 8000ea2:	ea41 4103 	orr.w	r1, r1, r3, lsl #16
 8000ea6:	fb00 f308 	mul.w	r3, r0, r8
 8000eaa:	428b      	cmp	r3, r1
 8000eac:	d907      	bls.n	8000ebe <__udivmoddi4+0x27e>
 8000eae:	1869      	adds	r1, r5, r1
 8000eb0:	f100 3cff 	add.w	ip, r0, #4294967295
 8000eb4:	d217      	bcs.n	8000ee6 <__udivmoddi4+0x2a6>
 8000eb6:	428b      	cmp	r3, r1
 8000eb8:	d915      	bls.n	8000ee6 <__udivmoddi4+0x2a6>
 8000eba:	3802      	subs	r0, #2
 8000ebc:	4429      	add	r1, r5
 8000ebe:	1ac9      	subs	r1, r1, r3
 8000ec0:	ea40 4707 	orr.w	r7, r0, r7, lsl #16
 8000ec4:	e73b      	b.n	8000d3e <__udivmoddi4+0xfe>
 8000ec6:	4637      	mov	r7, r6
 8000ec8:	4630      	mov	r0, r6
 8000eca:	e709      	b.n	8000ce0 <__udivmoddi4+0xa0>
 8000ecc:	4607      	mov	r7, r0
 8000ece:	e6e7      	b.n	8000ca0 <__udivmoddi4+0x60>
 8000ed0:	4618      	mov	r0, r3
 8000ed2:	e6fb      	b.n	8000ccc <__udivmoddi4+0x8c>
 8000ed4:	4541      	cmp	r1, r8
 8000ed6:	d2ab      	bcs.n	8000e30 <__udivmoddi4+0x1f0>
 8000ed8:	ebb8 0a02 	subs.w	sl, r8, r2
 8000edc:	eb69 020e 	sbc.w	r2, r9, lr
 8000ee0:	3801      	subs	r0, #1
 8000ee2:	4613      	mov	r3, r2
 8000ee4:	e7a4      	b.n	8000e30 <__udivmoddi4+0x1f0>
 8000ee6:	4660      	mov	r0, ip
 8000ee8:	e7e9      	b.n	8000ebe <__udivmoddi4+0x27e>
 8000eea:	4618      	mov	r0, r3
 8000eec:	e795      	b.n	8000e1a <__udivmoddi4+0x1da>
 8000eee:	4667      	mov	r7, ip
 8000ef0:	e7d1      	b.n	8000e96 <__udivmoddi4+0x256>
 8000ef2:	4681      	mov	r9, r0
 8000ef4:	e77c      	b.n	8000df0 <__udivmoddi4+0x1b0>
 8000ef6:	3802      	subs	r0, #2
 8000ef8:	442c      	add	r4, r5
 8000efa:	e747      	b.n	8000d8c <__udivmoddi4+0x14c>
 8000efc:	f1ac 0c02 	sub.w	ip, ip, #2
 8000f00:	442b      	add	r3, r5
 8000f02:	e72f      	b.n	8000d64 <__udivmoddi4+0x124>
 8000f04:	4638      	mov	r0, r7
 8000f06:	e708      	b.n	8000d1a <__udivmoddi4+0xda>
 8000f08:	4637      	mov	r7, r6
 8000f0a:	e6e9      	b.n	8000ce0 <__udivmoddi4+0xa0>
 8000f0c:	0000      	movs	r0, r0
	...

08000f10 <__aeabi_idiv0>:
 8000f10:	4770      	bx	lr
 8000f12:	bf00      	nop
	...

08000f20 <memcpy>:
 8000f20:	4684      	mov	ip, r0
 8000f22:	ea41 0300 	orr.w	r3, r1, r0
 8000f26:	f013 0303 	ands.w	r3, r3, #3
 8000f2a:	d16d      	bne.n	8001008 <memcpy+0xe8>
 8000f2c:	3a40      	subs	r2, #64	; 0x40
 8000f2e:	d341      	bcc.n	8000fb4 <memcpy+0x94>
 8000f30:	f851 3b04 	ldr.w	r3, [r1], #4
 8000f34:	f840 3b04 	str.w	r3, [r0], #4
 8000f38:	f851 3b04 	ldr.w	r3, [r1], #4
 8000f3c:	f840 3b04 	str.w	r3, [r0], #4
 8000f40:	f851 3b04 	ldr.w	r3, [r1], #4
 8000f44:	f840 3b04 	str.w	r3, [r0], #4
 8000f48:	f851 3b04 	ldr.w	r3, [r1], #4
 8000f4c:	f840 3b04 	str.w	r3, [r0], #4
 8000f50:	f851 3b04 	ldr.w	r3, [r1], #4
 8000f54:	f840 3b04 	str.w	r3, [r0], #4
 8000f58:	f851 3b04 	ldr.w	r3, [r1], #4
 8000f5c:	f840 3b04 	str.w	r3, [r0], #4
 8000f60:	f851 3b04 	ldr.w	r3, [r1], #4
 8000f64:	f840 3b04 	str.w	r3, [r0], #4
 8000f68:	f851 3b04 	ldr.w	r3, [r1], #4
 8000f6c:	f840 3b04 	str.w	r3, [r0], #4
 8000f70:	f851 3b04 	ldr.w	r3, [r1], #4
 8000f74:	f840 3b04 	str.w	r3, [r0], #4
 8000f78:	f851 3b04 	ldr.w	r3, [r1], #4
 8000f7c:	f840 3b04 	str.w	r3, [r0], #4
 8000f80:	f851 3b04 	ldr.w	r3, [r1], #4
 8000f84:	f840 3b04 	str.w	r3, [r0], #4
 8000f88:	f851 3b04 	ldr.w	r3, [r1], #4
 8000f8c:	f840 3b04 	str.w	r3, [r0], #4
 8000f90:	f851 3b04 	ldr.w	r3, [r1], #4
 8000f94:	f840 3b04 	str.w	r3, [r0], #4
 8000f98:	f851 3b04 	ldr.w	r3, [r1], #4
 8000f9c:	f840 3b04 	str.w	r3, [r0], #4
 8000fa0:	f851 3b04 	ldr.w	r3, [r1], #4
 8000fa4:	f840 3b04 	str.w	r3, [r0], #4
 8000fa8:	f851 3b04 	ldr.w	r3, [r1], #4
 8000fac:	f840 3b04 	str.w	r3, [r0], #4
 8000fb0:	3a40      	subs	r2, #64	; 0x40
 8000fb2:	d2bd      	bcs.n	8000f30 <memcpy+0x10>
 8000fb4:	3230      	adds	r2, #48	; 0x30
 8000fb6:	d311      	bcc.n	8000fdc <memcpy+0xbc>
 8000fb8:	f851 3b04 	ldr.w	r3, [r1], #4
 8000fbc:	f840 3b04 	str.w	r3, [r0], #4
 8000fc0:	f851 3b04 	ldr.w	r3, [r1], #4
 8000fc4:	f840 3b04 	str.w	r3, [r0], #4
 8000fc8:	f851 3b04 	ldr.w	r3, [r1], #4
 8000fcc:	f840 3b04 	str.w	r3, [r0], #4
 8000fd0:	f851 3b04 	ldr.w	r3, [r1], #4
 8000fd4:	f840 3b04 	str.w	r3, [r0], #4
 8000fd8:	3a10      	subs	r2, #16
 8000fda:	d2ed      	bcs.n	8000fb8 <memcpy+0x98>
 8000fdc:	320c      	adds	r2, #12
 8000fde:	d305      	bcc.n	8000fec <memcpy+0xcc>
 8000fe0:	f851 3b04 	ldr.w	r3, [r1], #4
 8000fe4:	f840 3b04 	str.w	r3, [r0], #4
 8000fe8:	3a04      	subs	r2, #4
 8000fea:	d2f9      	bcs.n	8000fe0 <memcpy+0xc0>
 8000fec:	3204      	adds	r2, #4
 8000fee:	d008      	beq.n	8001002 <memcpy+0xe2>
 8000ff0:	07d2      	lsls	r2, r2, #31
 8000ff2:	bf1c      	itt	ne
 8000ff4:	f811 3b01 	ldrbne.w	r3, [r1], #1
 8000ff8:	f800 3b01 	strbne.w	r3, [r0], #1
 8000ffc:	d301      	bcc.n	8001002 <memcpy+0xe2>
 8000ffe:	880b      	ldrh	r3, [r1, #0]
 8001000:	8003      	strh	r3, [r0, #0]
 8001002:	4660      	mov	r0, ip
 8001004:	4770      	bx	lr
 8001006:	bf00      	nop
 8001008:	2a08      	cmp	r2, #8
 800100a:	d313      	bcc.n	8001034 <memcpy+0x114>
 800100c:	078b      	lsls	r3, r1, #30
 800100e:	d08d      	beq.n	8000f2c <memcpy+0xc>
 8001010:	f010 0303 	ands.w	r3, r0, #3
 8001014:	d08a      	beq.n	8000f2c <memcpy+0xc>
 8001016:	f1c3 0304 	rsb	r3, r3, #4
 800101a:	1ad2      	subs	r2, r2, r3
 800101c:	07db      	lsls	r3, r3, #31
 800101e:	bf1c      	itt	ne
 8001020:	f811 3b01 	ldrbne.w	r3, [r1], #1
 8001024:	f800 3b01 	strbne.w	r3, [r0], #1
 8001028:	d380      	bcc.n	8000f2c <memcpy+0xc>
 800102a:	f831 3b02 	ldrh.w	r3, [r1], #2
 800102e:	f820 3b02 	strh.w	r3, [r0], #2
 8001032:	e77b      	b.n	8000f2c <memcpy+0xc>
 8001034:	3a04      	subs	r2, #4
 8001036:	d3d9      	bcc.n	8000fec <memcpy+0xcc>
 8001038:	3a01      	subs	r2, #1
 800103a:	f811 3b01 	ldrb.w	r3, [r1], #1
 800103e:	f800 3b01 	strb.w	r3, [r0], #1
 8001042:	d2f9      	bcs.n	8001038 <memcpy+0x118>
 8001044:	780b      	ldrb	r3, [r1, #0]
 8001046:	7003      	strb	r3, [r0, #0]
 8001048:	784b      	ldrb	r3, [r1, #1]
 800104a:	7043      	strb	r3, [r0, #1]
 800104c:	788b      	ldrb	r3, [r1, #2]
 800104e:	7083      	strb	r3, [r0, #2]
 8001050:	4660      	mov	r0, ip
 8001052:	4770      	bx	lr
	...

08001060 <strlen>:
 8001060:	f890 f000 	pld	[r0]
 8001064:	e96d 4502 	strd	r4, r5, [sp, #-8]!
 8001068:	f020 0107 	bic.w	r1, r0, #7
 800106c:	f06f 0c00 	mvn.w	ip, #0
 8001070:	f010 0407 	ands.w	r4, r0, #7
 8001074:	f891 f020 	pld	[r1, #32]
 8001078:	f040 8049 	bne.w	800110e <strlen+0xae>
 800107c:	f04f 0400 	mov.w	r4, #0
 8001080:	f06f 0007 	mvn.w	r0, #7
 8001084:	e9d1 2300 	ldrd	r2, r3, [r1]
 8001088:	f891 f040 	pld	[r1, #64]	; 0x40
 800108c:	f100 0008 	add.w	r0, r0, #8
 8001090:	fa82 f24c 	uadd8	r2, r2, ip
 8001094:	faa4 f28c 	sel	r2, r4, ip
 8001098:	fa83 f34c 	uadd8	r3, r3, ip
 800109c:	faa2 f38c 	sel	r3, r2, ip
 80010a0:	bb4b      	cbnz	r3, 80010f6 <strlen+0x96>
 80010a2:	e9d1 2302 	ldrd	r2, r3, [r1, #8]
 80010a6:	fa82 f24c 	uadd8	r2, r2, ip
 80010aa:	f100 0008 	add.w	r0, r0, #8
 80010ae:	faa4 f28c 	sel	r2, r4, ip
 80010b2:	fa83 f34c 	uadd8	r3, r3, ip
 80010b6:	faa2 f38c 	sel	r3, r2, ip
 80010ba:	b9e3      	cbnz	r3, 80010f6 <strlen+0x96>
 80010bc:	e9d1 2304 	ldrd	r2, r3, [r1, #16]
 80010c0:	fa82 f24c 	uadd8	r2, r2, ip
 80010c4:	f100 0008 	add.w	r0, r0, #8
 80010c8:	faa4 f28c 	sel	r2, r4, ip
 80010cc:	fa83 f34c 	uadd8	r3, r3, ip
 80010d0:	faa2 f38c 	sel	r3, r2, ip
 80010d4:	b97b      	cbnz	r3, 80010f6 <strlen+0x96>
 80010d6:	e9d1 2306 	ldrd	r2, r3, [r1, #24]
 80010da:	f101 0120 	add.w	r1, r1, #32
 80010de:	fa82 f24c 	uadd8	r2, r2, ip
 80010e2:	f100 0008 	add.w	r0, r0, #8
 80010e6:	faa4 f28c 	sel	r2, r4, ip
 80010ea:	fa83 f34c 	uadd8	r3, r3, ip
 80010ee:	faa2 f38c 	sel	r3, r2, ip
 80010f2:	2b00      	cmp	r3, #0
 80010f4:	d0c6      	beq.n	8001084 <strlen+0x24>
 80010f6:	2a00      	cmp	r2, #0
 80010f8:	bf04      	itt	eq
 80010fa:	3004      	addeq	r0, #4
 80010fc:	461a      	moveq	r2, r3
 80010fe:	ba12      	rev	r2, r2
 8001100:	fab2 f282 	clz	r2, r2
 8001104:	e8fd 4502 	ldrd	r4, r5, [sp], #8
 8001108:	eb00 00d2 	add.w	r0, r0, r2, lsr #3
 800110c:	4770      	bx	lr
 800110e:	e9d1 2300 	ldrd	r2, r3, [r1]
 8001112:	f004 0503 	and.w	r5, r4, #3
 8001116:	f1c4 0000 	rsb	r0, r4, #0
 800111a:	ea4f 05c5 	mov.w	r5, r5, lsl #3
 800111e:	f014 0f04 	tst.w	r4, #4
 8001122:	f891 f040 	pld	[r1, #64]	; 0x40
 8001126:	fa0c f505 	lsl.w	r5, ip, r5
 800112a:	ea62 0205 	orn	r2, r2, r5
 800112e:	bf1c      	itt	ne
 8001130:	ea63 0305 	ornne	r3, r3, r5
 8001134:	4662      	movne	r2, ip
 8001136:	f04f 0400 	mov.w	r4, #0
 800113a:	e7a9      	b.n	8001090 <strlen+0x30>
 800113c:	0000      	movs	r0, r0
	...

08001140 <memchr>:
 8001140:	f001 01ff 	and.w	r1, r1, #255	; 0xff
 8001144:	2a10      	cmp	r2, #16
 8001146:	db2b      	blt.n	80011a0 <memchr+0x60>
 8001148:	f010 0f07 	tst.w	r0, #7
 800114c:	d008      	beq.n	8001160 <memchr+0x20>
 800114e:	f810 3b01 	ldrb.w	r3, [r0], #1
 8001152:	3a01      	subs	r2, #1
 8001154:	428b      	cmp	r3, r1
 8001156:	d02d      	beq.n	80011b4 <memchr+0x74>
 8001158:	f010 0f07 	tst.w	r0, #7
 800115c:	b342      	cbz	r2, 80011b0 <memchr+0x70>
 800115e:	d1f6      	bne.n	800114e <memchr+0xe>
 8001160:	b4f0      	push	{r4, r5, r6, r7}
 8001162:	ea41 2101 	orr.w	r1, r1, r1, lsl #8
 8001166:	ea41 4101 	orr.w	r1, r1, r1, lsl #16
 800116a:	f022 0407 	bic.w	r4, r2, #7
 800116e:	f07f 0700 	mvns.w	r7, #0
 8001172:	2300      	movs	r3, #0
 8001174:	e8f0 5602 	ldrd	r5, r6, [r0], #8
 8001178:	3c08      	subs	r4, #8
 800117a:	ea85 0501 	eor.w	r5, r5, r1
 800117e:	ea86 0601 	eor.w	r6, r6, r1
 8001182:	fa85 f547 	uadd8	r5, r5, r7
 8001186:	faa3 f587 	sel	r5, r3, r7
 800118a:	fa86 f647 	uadd8	r6, r6, r7
 800118e:	faa5 f687 	sel	r6, r5, r7
 8001192:	b98e      	cbnz	r6, 80011b8 <memchr+0x78>
 8001194:	d1ee      	bne.n	8001174 <memchr+0x34>
 8001196:	bcf0      	pop	{r4, r5, r6, r7}
 8001198:	f001 01ff 	and.w	r1, r1, #255	; 0xff
 800119c:	f002 0207 	and.w	r2, r2, #7
 80011a0:	b132      	cbz	r2, 80011b0 <memchr+0x70>
 80011a2:	f810 3b01 	ldrb.w	r3, [r0], #1
 80011a6:	3a01      	subs	r2, #1
 80011a8:	ea83 0301 	eor.w	r3, r3, r1
 80011ac:	b113      	cbz	r3, 80011b4 <memchr+0x74>
 80011ae:	d1f8      	bne.n	80011a2 <memchr+0x62>
 80011b0:	2000      	movs	r0, #0
 80011b2:	4770      	bx	lr
 80011b4:	3801      	subs	r0, #1
 80011b6:	4770      	bx	lr
 80011b8:	2d00      	cmp	r5, #0
 80011ba:	bf06      	itte	eq
 80011bc:	4635      	moveq	r5, r6
 80011be:	3803      	subeq	r0, #3
 80011c0:	3807      	subne	r0, #7
 80011c2:	f015 0f01 	tst.w	r5, #1
 80011c6:	d107      	bne.n	80011d8 <memchr+0x98>
 80011c8:	3001      	adds	r0, #1
 80011ca:	f415 7f80 	tst.w	r5, #256	; 0x100
 80011ce:	bf02      	ittt	eq
 80011d0:	3001      	addeq	r0, #1
 80011d2:	f415 3fc0 	tsteq.w	r5, #98304	; 0x18000
 80011d6:	3001      	addeq	r0, #1
 80011d8:	bcf0      	pop	{r4, r5, r6, r7}
 80011da:	3801      	subs	r0, #1
 80011dc:	4770      	bx	lr
 80011de:	bf00      	nop

080011e0 <__aeabi_dcmpun>:
 80011e0:	ea4f 0c41 	mov.w	ip, r1, lsl #1
 80011e4:	ea7f 5c6c 	mvns.w	ip, ip, asr #21
 80011e8:	d102      	bne.n	80011f0 <__aeabi_dcmpun+0x10>
 80011ea:	ea50 3c01 	orrs.w	ip, r0, r1, lsl #12
 80011ee:	d10a      	bne.n	8001206 <__aeabi_dcmpun+0x26>
 80011f0:	ea4f 0c43 	mov.w	ip, r3, lsl #1
 80011f4:	ea7f 5c6c 	mvns.w	ip, ip, asr #21
 80011f8:	d102      	bne.n	8001200 <__aeabi_dcmpun+0x20>
 80011fa:	ea52 3c03 	orrs.w	ip, r2, r3, lsl #12
 80011fe:	d102      	bne.n	8001206 <__aeabi_dcmpun+0x26>
 8001200:	f04f 0000 	mov.w	r0, #0
 8001204:	4770      	bx	lr
 8001206:	f04f 0001 	mov.w	r0, #1
 800120a:	4770      	bx	lr
 800120c:	0000      	movs	r0, r0
	...

08001210 <serial_start>:
 8001210:	b500      	push	{lr}
 8001212:	b083      	sub	sp, #12
 8001214:	4b08      	ldr	r3, [pc, #32]	; (8001238 <serial_start+0x28>)
 8001216:	681b      	ldr	r3, [r3, #0]
 8001218:	9301      	str	r3, [sp, #4]
 800121a:	4908      	ldr	r1, [pc, #32]	; (800123c <serial_start+0x2c>)
 800121c:	4808      	ldr	r0, [pc, #32]	; (8001240 <serial_start+0x30>)
 800121e:	f004 fcb7 	bl	8005b90 <sdStart>
 8001222:	bf00      	nop
 8001224:	4b04      	ldr	r3, [pc, #16]	; (8001238 <serial_start+0x28>)
 8001226:	9a01      	ldr	r2, [sp, #4]
 8001228:	681b      	ldr	r3, [r3, #0]
 800122a:	429a      	cmp	r2, r3
 800122c:	d001      	beq.n	8001232 <serial_start+0x22>
 800122e:	f000 f86f 	bl	8001310 <__stack_chk_fail>
 8001232:	b003      	add	sp, #12
 8001234:	f85d fb04 	ldr.w	pc, [sp], #4
 8001238:	2000081c 	.word	0x2000081c
 800123c:	20000820 	.word	0x20000820
 8001240:	200026d4 	.word	0x200026d4
	...

08001250 <main>:
 8001250:	b500      	push	{lr}
 8001252:	b083      	sub	sp, #12
 8001254:	4b27      	ldr	r3, [pc, #156]	; (80012f4 <main+0xa4>)
 8001256:	681b      	ldr	r3, [r3, #0]
 8001258:	9301      	str	r3, [sp, #4]
 800125a:	4b27      	ldr	r3, [pc, #156]	; (80012f8 <main+0xa8>)
 800125c:	781b      	ldrb	r3, [r3, #0]
 800125e:	f083 0301 	eor.w	r3, r3, #1
 8001262:	b2db      	uxtb	r3, r3
 8001264:	2b00      	cmp	r3, #0
 8001266:	d016      	beq.n	8001296 <main+0x46>
 8001268:	f003 fc32 	bl	8004ad0 <halInit>
 800126c:	f001 fc58 	bl	8002b20 <chSysInit>
 8001270:	f000 fd9e 	bl	8001db0 <mpu_init>
 8001274:	4a21      	ldr	r2, [pc, #132]	; (80012fc <main+0xac>)
 8001276:	4922      	ldr	r1, [pc, #136]	; (8001300 <main+0xb0>)
 8001278:	4822      	ldr	r0, [pc, #136]	; (8001304 <main+0xb4>)
 800127a:	f001 fb39 	bl	80028f0 <messagebus_init>
 800127e:	2200      	movs	r2, #0
 8001280:	2100      	movs	r1, #0
 8001282:	4821      	ldr	r0, [pc, #132]	; (8001308 <main+0xb8>)
 8001284:	f001 fbdc 	bl	8002a40 <parameter_namespace_declare>
 8001288:	f7ff ffc2 	bl	8001210 <serial_start>
 800128c:	f001 f810 	bl	80022b0 <imu_start>
 8001290:	4b19      	ldr	r3, [pc, #100]	; (80012f8 <main+0xa8>)
 8001292:	2201      	movs	r2, #1
 8001294:	701a      	strb	r2, [r3, #0]
 8001296:	f000 fe4b 	bl	8001f30 <get_selector>
 800129a:	4603      	mov	r3, r0
 800129c:	2b01      	cmp	r3, #1
 800129e:	d004      	beq.n	80012aa <main+0x5a>
 80012a0:	2b02      	cmp	r3, #2
 80012a2:	d005      	beq.n	80012b0 <main+0x60>
 80012a4:	2b00      	cmp	r3, #0
 80012a6:	d005      	beq.n	80012b4 <main+0x64>
 80012a8:	e005      	b.n	80012b6 <main+0x66>
 80012aa:	f000 f981 	bl	80015b0 <calibrate_imu>
 80012ae:	e002      	b.n	80012b6 <main+0x66>
 80012b0:	bf00      	nop
 80012b2:	e000      	b.n	80012b6 <main+0x66>
 80012b4:	bf00      	nop
 80012b6:	f000 fe3b 	bl	8001f30 <get_selector>
 80012ba:	4603      	mov	r3, r0
 80012bc:	2b00      	cmp	r3, #0
 80012be:	bf14      	ite	ne
 80012c0:	2301      	movne	r3, #1
 80012c2:	2300      	moveq	r3, #0
 80012c4:	b2da      	uxtb	r2, r3
 80012c6:	4b11      	ldr	r3, [pc, #68]	; (800130c <main+0xbc>)
 80012c8:	701a      	strb	r2, [r3, #0]
 80012ca:	4b10      	ldr	r3, [pc, #64]	; (800130c <main+0xbc>)
 80012cc:	781b      	ldrb	r3, [r3, #0]
 80012ce:	2b00      	cmp	r3, #0
 80012d0:	d007      	beq.n	80012e2 <main+0x92>
 80012d2:	2000      	movs	r0, #0
 80012d4:	f000 fccc 	bl	8001c70 <set_front_led>
 80012d8:	4b0c      	ldr	r3, [pc, #48]	; (800130c <main+0xbc>)
 80012da:	2200      	movs	r2, #0
 80012dc:	701a      	strb	r2, [r3, #0]
 80012de:	f7ff ffb7 	bl	8001250 <main>
 80012e2:	2002      	movs	r0, #2
 80012e4:	f000 fcc4 	bl	8001c70 <set_front_led>
 80012e8:	f44f 70fa 	mov.w	r0, #500	; 0x1f4
 80012ec:	f002 fa88 	bl	8003800 <chThdSleep>
 80012f0:	e7e1      	b.n	80012b6 <main+0x66>
 80012f2:	bf00      	nop
 80012f4:	2000081c 	.word	0x2000081c
 80012f8:	20001214 	.word	0x20001214
 80012fc:	20000814 	.word	0x20000814
 8001300:	20000800 	.word	0x20000800
 8001304:	200011f0 	.word	0x200011f0
 8001308:	200011fc 	.word	0x200011fc
 800130c:	20001215 	.word	0x20001215

08001310 <__stack_chk_fail>:
 8001310:	b500      	push	{lr}
 8001312:	b083      	sub	sp, #12
 8001314:	4b08      	ldr	r3, [pc, #32]	; (8001338 <__stack_chk_fail+0x28>)
 8001316:	681b      	ldr	r3, [r3, #0]
 8001318:	9301      	str	r3, [sp, #4]
 800131a:	4808      	ldr	r0, [pc, #32]	; (800133c <__stack_chk_fail+0x2c>)
 800131c:	f001 fc68 	bl	8002bf0 <chSysHalt>
 8001320:	bf00      	nop
 8001322:	4b05      	ldr	r3, [pc, #20]	; (8001338 <__stack_chk_fail+0x28>)
 8001324:	9a01      	ldr	r2, [sp, #4]
 8001326:	681b      	ldr	r3, [r3, #0]
 8001328:	429a      	cmp	r2, r3
 800132a:	d001      	beq.n	8001330 <__stack_chk_fail+0x20>
 800132c:	f7ff fff0 	bl	8001310 <__stack_chk_fail>
 8001330:	b003      	add	sp, #12
 8001332:	f85d fb04 	ldr.w	pc, [sp], #4
 8001336:	bf00      	nop
 8001338:	2000081c 	.word	0x2000081c
 800133c:	0800d4d0 	.word	0x0800d4d0

08001340 <port_lock>:
 8001340:	b500      	push	{lr}
 8001342:	b083      	sub	sp, #12
 8001344:	4b09      	ldr	r3, [pc, #36]	; (800136c <port_lock+0x2c>)
 8001346:	681b      	ldr	r3, [r3, #0]
 8001348:	9301      	str	r3, [sp, #4]
 800134a:	2320      	movs	r3, #32
 800134c:	9300      	str	r3, [sp, #0]
 800134e:	9b00      	ldr	r3, [sp, #0]
 8001350:	f383 8811 	msr	BASEPRI, r3
 8001354:	bf00      	nop
 8001356:	4b05      	ldr	r3, [pc, #20]	; (800136c <port_lock+0x2c>)
 8001358:	9a01      	ldr	r2, [sp, #4]
 800135a:	681b      	ldr	r3, [r3, #0]
 800135c:	429a      	cmp	r2, r3
 800135e:	d001      	beq.n	8001364 <port_lock+0x24>
 8001360:	f7ff ffd6 	bl	8001310 <__stack_chk_fail>
 8001364:	b003      	add	sp, #12
 8001366:	f85d fb04 	ldr.w	pc, [sp], #4
 800136a:	bf00      	nop
 800136c:	2000081c 	.word	0x2000081c

08001370 <port_unlock>:
 8001370:	b500      	push	{lr}
 8001372:	b083      	sub	sp, #12
 8001374:	4b09      	ldr	r3, [pc, #36]	; (800139c <port_unlock+0x2c>)
 8001376:	681b      	ldr	r3, [r3, #0]
 8001378:	9301      	str	r3, [sp, #4]
 800137a:	2300      	movs	r3, #0
 800137c:	9300      	str	r3, [sp, #0]
 800137e:	9b00      	ldr	r3, [sp, #0]
 8001380:	f383 8811 	msr	BASEPRI, r3
 8001384:	bf00      	nop
 8001386:	4b05      	ldr	r3, [pc, #20]	; (800139c <port_unlock+0x2c>)
 8001388:	9a01      	ldr	r2, [sp, #4]
 800138a:	681b      	ldr	r3, [r3, #0]
 800138c:	429a      	cmp	r2, r3
 800138e:	d001      	beq.n	8001394 <port_unlock+0x24>
 8001390:	f7ff ffbe 	bl	8001310 <__stack_chk_fail>
 8001394:	b003      	add	sp, #12
 8001396:	f85d fb04 	ldr.w	pc, [sp], #4
 800139a:	bf00      	nop
 800139c:	2000081c 	.word	0x2000081c

080013a0 <chSysLock>:
 80013a0:	b500      	push	{lr}
 80013a2:	b083      	sub	sp, #12
 80013a4:	4b09      	ldr	r3, [pc, #36]	; (80013cc <chSysLock+0x2c>)
 80013a6:	681b      	ldr	r3, [r3, #0]
 80013a8:	9301      	str	r3, [sp, #4]
 80013aa:	f7ff ffc9 	bl	8001340 <port_lock>
 80013ae:	f002 fd2f 	bl	8003e10 <_stats_start_measure_crit_thd>
 80013b2:	f001 fcbd 	bl	8002d30 <_dbg_check_lock>
 80013b6:	bf00      	nop
 80013b8:	4b04      	ldr	r3, [pc, #16]	; (80013cc <chSysLock+0x2c>)
 80013ba:	9a01      	ldr	r2, [sp, #4]
 80013bc:	681b      	ldr	r3, [r3, #0]
 80013be:	429a      	cmp	r2, r3
 80013c0:	d001      	beq.n	80013c6 <chSysLock+0x26>
 80013c2:	f7ff ffa5 	bl	8001310 <__stack_chk_fail>
 80013c6:	b003      	add	sp, #12
 80013c8:	f85d fb04 	ldr.w	pc, [sp], #4
 80013cc:	2000081c 	.word	0x2000081c

080013d0 <chSysUnlock>:
 80013d0:	b500      	push	{lr}
 80013d2:	b083      	sub	sp, #12
 80013d4:	4b11      	ldr	r3, [pc, #68]	; (800141c <chSysUnlock+0x4c>)
 80013d6:	681b      	ldr	r3, [r3, #0]
 80013d8:	9301      	str	r3, [sp, #4]
 80013da:	f001 fcc9 	bl	8002d70 <_dbg_check_unlock>
 80013de:	f002 fd2f 	bl	8003e40 <_stats_stop_measure_crit_thd>
 80013e2:	4b0f      	ldr	r3, [pc, #60]	; (8001420 <chSysUnlock+0x50>)
 80013e4:	681b      	ldr	r3, [r3, #0]
 80013e6:	4a0e      	ldr	r2, [pc, #56]	; (8001420 <chSysUnlock+0x50>)
 80013e8:	4293      	cmp	r3, r2
 80013ea:	d00a      	beq.n	8001402 <chSysUnlock+0x32>
 80013ec:	4b0c      	ldr	r3, [pc, #48]	; (8001420 <chSysUnlock+0x50>)
 80013ee:	699b      	ldr	r3, [r3, #24]
 80013f0:	689a      	ldr	r2, [r3, #8]
 80013f2:	4b0b      	ldr	r3, [pc, #44]	; (8001420 <chSysUnlock+0x50>)
 80013f4:	681b      	ldr	r3, [r3, #0]
 80013f6:	689b      	ldr	r3, [r3, #8]
 80013f8:	429a      	cmp	r2, r3
 80013fa:	d202      	bcs.n	8001402 <chSysUnlock+0x32>
 80013fc:	4809      	ldr	r0, [pc, #36]	; (8001424 <chSysUnlock+0x54>)
 80013fe:	f001 fbf7 	bl	8002bf0 <chSysHalt>
 8001402:	f7ff ffb5 	bl	8001370 <port_unlock>
 8001406:	bf00      	nop
 8001408:	4b04      	ldr	r3, [pc, #16]	; (800141c <chSysUnlock+0x4c>)
 800140a:	9a01      	ldr	r2, [sp, #4]
 800140c:	681b      	ldr	r3, [r3, #0]
 800140e:	429a      	cmp	r2, r3
 8001410:	d001      	beq.n	8001416 <chSysUnlock+0x46>
 8001412:	f7ff ff7d 	bl	8001310 <__stack_chk_fail>
 8001416:	b003      	add	sp, #12
 8001418:	f85d fb04 	ldr.w	pc, [sp], #4
 800141c:	2000081c 	.word	0x2000081c
 8001420:	200018b0 	.word	0x200018b0
 8001424:	0800d510 	.word	0x0800d510
	...

08001430 <chVTGetSystemTimeX>:
 8001430:	b500      	push	{lr}
 8001432:	b083      	sub	sp, #12
 8001434:	4b07      	ldr	r3, [pc, #28]	; (8001454 <chVTGetSystemTimeX+0x24>)
 8001436:	681b      	ldr	r3, [r3, #0]
 8001438:	9301      	str	r3, [sp, #4]
 800143a:	4b07      	ldr	r3, [pc, #28]	; (8001458 <chVTGetSystemTimeX+0x28>)
 800143c:	6a9b      	ldr	r3, [r3, #40]	; 0x28
 800143e:	4618      	mov	r0, r3
 8001440:	4b04      	ldr	r3, [pc, #16]	; (8001454 <chVTGetSystemTimeX+0x24>)
 8001442:	9a01      	ldr	r2, [sp, #4]
 8001444:	681b      	ldr	r3, [r3, #0]
 8001446:	429a      	cmp	r2, r3
 8001448:	d001      	beq.n	800144e <chVTGetSystemTimeX+0x1e>
 800144a:	f7ff ff61 	bl	8001310 <__stack_chk_fail>
 800144e:	b003      	add	sp, #12
 8001450:	f85d fb04 	ldr.w	pc, [sp], #4
 8001454:	2000081c 	.word	0x2000081c
 8001458:	200018b0 	.word	0x200018b0
 800145c:	00000000 	.word	0x00000000

08001460 <chVTGetSystemTime>:
 8001460:	b500      	push	{lr}
 8001462:	b083      	sub	sp, #12
 8001464:	4b0a      	ldr	r3, [pc, #40]	; (8001490 <chVTGetSystemTime+0x30>)
 8001466:	681b      	ldr	r3, [r3, #0]
 8001468:	9301      	str	r3, [sp, #4]
 800146a:	f7ff ff99 	bl	80013a0 <chSysLock>
 800146e:	f7ff ffdf 	bl	8001430 <chVTGetSystemTimeX>
 8001472:	9000      	str	r0, [sp, #0]
 8001474:	f7ff ffac 	bl	80013d0 <chSysUnlock>
 8001478:	9b00      	ldr	r3, [sp, #0]
 800147a:	4618      	mov	r0, r3
 800147c:	4b04      	ldr	r3, [pc, #16]	; (8001490 <chVTGetSystemTime+0x30>)
 800147e:	9a01      	ldr	r2, [sp, #4]
 8001480:	681b      	ldr	r3, [r3, #0]
 8001482:	429a      	cmp	r2, r3
 8001484:	d001      	beq.n	800148a <chVTGetSystemTime+0x2a>
 8001486:	f7ff ff43 	bl	8001310 <__stack_chk_fail>
 800148a:	b003      	add	sp, #12
 800148c:	f85d fb04 	ldr.w	pc, [sp], #4
 8001490:	2000081c 	.word	0x2000081c
	...

080014a0 <chThdGetSelfX>:
 80014a0:	b500      	push	{lr}
 80014a2:	b083      	sub	sp, #12
 80014a4:	4b07      	ldr	r3, [pc, #28]	; (80014c4 <chThdGetSelfX+0x24>)
 80014a6:	681b      	ldr	r3, [r3, #0]
 80014a8:	9301      	str	r3, [sp, #4]
 80014aa:	4b07      	ldr	r3, [pc, #28]	; (80014c8 <chThdGetSelfX+0x28>)
 80014ac:	699b      	ldr	r3, [r3, #24]
 80014ae:	4618      	mov	r0, r3
 80014b0:	4b04      	ldr	r3, [pc, #16]	; (80014c4 <chThdGetSelfX+0x24>)
 80014b2:	9a01      	ldr	r2, [sp, #4]
 80014b4:	681b      	ldr	r3, [r3, #0]
 80014b6:	429a      	cmp	r2, r3
 80014b8:	d001      	beq.n	80014be <chThdGetSelfX+0x1e>
 80014ba:	f7ff ff29 	bl	8001310 <__stack_chk_fail>
 80014be:	b003      	add	sp, #12
 80014c0:	f85d fb04 	ldr.w	pc, [sp], #4
 80014c4:	2000081c 	.word	0x2000081c
 80014c8:	200018b0 	.word	0x200018b0
 80014cc:	00000000 	.word	0x00000000

080014d0 <chThdShouldTerminateX>:
 80014d0:	b500      	push	{lr}
 80014d2:	b083      	sub	sp, #12
 80014d4:	4b0c      	ldr	r3, [pc, #48]	; (8001508 <chThdShouldTerminateX+0x38>)
 80014d6:	681b      	ldr	r3, [r3, #0]
 80014d8:	9301      	str	r3, [sp, #4]
 80014da:	f7ff ffe1 	bl	80014a0 <chThdGetSelfX>
 80014de:	4603      	mov	r3, r0
 80014e0:	f893 3021 	ldrb.w	r3, [r3, #33]	; 0x21
 80014e4:	f003 0304 	and.w	r3, r3, #4
 80014e8:	2b00      	cmp	r3, #0
 80014ea:	bf14      	ite	ne
 80014ec:	2301      	movne	r3, #1
 80014ee:	2300      	moveq	r3, #0
 80014f0:	b2db      	uxtb	r3, r3
 80014f2:	4618      	mov	r0, r3
 80014f4:	4b04      	ldr	r3, [pc, #16]	; (8001508 <chThdShouldTerminateX+0x38>)
 80014f6:	9a01      	ldr	r2, [sp, #4]
 80014f8:	681b      	ldr	r3, [r3, #0]
 80014fa:	429a      	cmp	r2, r3
 80014fc:	d001      	beq.n	8001502 <chThdShouldTerminateX+0x32>
 80014fe:	f7ff ff07 	bl	8001310 <__stack_chk_fail>
 8001502:	b003      	add	sp, #12
 8001504:	f85d fb04 	ldr.w	pc, [sp], #4
 8001508:	2000081c 	.word	0x2000081c
 800150c:	00000000 	.word	0x00000000

08001510 <chRegSetThreadName>:
 8001510:	b500      	push	{lr}
 8001512:	b085      	sub	sp, #20
 8001514:	9001      	str	r0, [sp, #4]
 8001516:	4b09      	ldr	r3, [pc, #36]	; (800153c <chRegSetThreadName+0x2c>)
 8001518:	681b      	ldr	r3, [r3, #0]
 800151a:	9303      	str	r3, [sp, #12]
 800151c:	4b08      	ldr	r3, [pc, #32]	; (8001540 <chRegSetThreadName+0x30>)
 800151e:	699b      	ldr	r3, [r3, #24]
 8001520:	9a01      	ldr	r2, [sp, #4]
 8001522:	619a      	str	r2, [r3, #24]
 8001524:	bf00      	nop
 8001526:	4b05      	ldr	r3, [pc, #20]	; (800153c <chRegSetThreadName+0x2c>)
 8001528:	9a03      	ldr	r2, [sp, #12]
 800152a:	681b      	ldr	r3, [r3, #0]
 800152c:	429a      	cmp	r2, r3
 800152e:	d001      	beq.n	8001534 <chRegSetThreadName+0x24>
 8001530:	f7ff feee 	bl	8001310 <__stack_chk_fail>
 8001534:	b005      	add	sp, #20
 8001536:	f85d fb04 	ldr.w	pc, [sp], #4
 800153a:	bf00      	nop
 800153c:	2000081c 	.word	0x2000081c
 8001540:	200018b0 	.word	0x200018b0
	...

08001550 <blinkLed>:
 8001550:	b500      	push	{lr}
 8001552:	b085      	sub	sp, #20
 8001554:	9001      	str	r0, [sp, #4]
 8001556:	4b13      	ldr	r3, [pc, #76]	; (80015a4 <blinkLed+0x54>)
 8001558:	681b      	ldr	r3, [r3, #0]
 800155a:	9303      	str	r3, [sp, #12]
 800155c:	4812      	ldr	r0, [pc, #72]	; (80015a8 <blinkLed+0x58>)
 800155e:	f7ff ffd7 	bl	8001510 <chRegSetThreadName>
 8001562:	e007      	b.n	8001574 <blinkLed+0x24>
 8001564:	2102      	movs	r1, #2
 8001566:	2002      	movs	r0, #2
 8001568:	f000 fb0a 	bl	8001b80 <set_led>
 800156c:	f44f 70fa 	mov.w	r0, #500	; 0x1f4
 8001570:	f002 f946 	bl	8003800 <chThdSleep>
 8001574:	f7ff ffac 	bl	80014d0 <chThdShouldTerminateX>
 8001578:	4603      	mov	r3, r0
 800157a:	f083 0301 	eor.w	r3, r3, #1
 800157e:	b2db      	uxtb	r3, r3
 8001580:	2b00      	cmp	r3, #0
 8001582:	d1ef      	bne.n	8001564 <blinkLed+0x14>
 8001584:	4b09      	ldr	r3, [pc, #36]	; (80015ac <blinkLed+0x5c>)
 8001586:	4618      	mov	r0, r3
 8001588:	f002 f9fa 	bl	8003980 <chThdExit>
 800158c:	bf00      	nop
 800158e:	4b05      	ldr	r3, [pc, #20]	; (80015a4 <blinkLed+0x54>)
 8001590:	9a03      	ldr	r2, [sp, #12]
 8001592:	681b      	ldr	r3, [r3, #0]
 8001594:	429a      	cmp	r2, r3
 8001596:	d001      	beq.n	800159c <blinkLed+0x4c>
 8001598:	f7ff feba 	bl	8001310 <__stack_chk_fail>
 800159c:	b005      	add	sp, #20
 800159e:	f85d fb04 	ldr.w	pc, [sp], #4
 80015a2:	bf00      	nop
 80015a4:	2000081c 	.word	0x2000081c
 80015a8:	0800d500 	.word	0x0800d500
 80015ac:	0800d4f0 	.word	0x0800d4f0

080015b0 <calibrate_imu>:
 80015b0:	b530      	push	{r4, r5, lr}
 80015b2:	b091      	sub	sp, #68	; 0x44
 80015b4:	4b8c      	ldr	r3, [pc, #560]	; (80017e8 <calibrate_imu+0x238>)
 80015b6:	681b      	ldr	r3, [r3, #0]
 80015b8:	930f      	str	r3, [sp, #60]	; 0x3c
 80015ba:	2300      	movs	r3, #0
 80015bc:	f88d 300b 	strb.w	r3, [sp, #11]
 80015c0:	ab06      	add	r3, sp, #24
 80015c2:	2224      	movs	r2, #36	; 0x24
 80015c4:	2100      	movs	r1, #0
 80015c6:	4618      	mov	r0, r3
 80015c8:	f008 fd7a 	bl	800a0c0 <memset>
 80015cc:	2300      	movs	r3, #0
 80015ce:	f8ad 300e 	strh.w	r3, [sp, #14]
 80015d2:	2301      	movs	r3, #1
 80015d4:	f88d 300c 	strb.w	r3, [sp, #12]
 80015d8:	2300      	movs	r3, #0
 80015da:	9300      	str	r3, [sp, #0]
 80015dc:	4b83      	ldr	r3, [pc, #524]	; (80017ec <calibrate_imu+0x23c>)
 80015de:	2240      	movs	r2, #64	; 0x40
 80015e0:	f44f 71fc 	mov.w	r1, #504	; 0x1f8
 80015e4:	4882      	ldr	r0, [pc, #520]	; (80017f0 <calibrate_imu+0x240>)
 80015e6:	f002 f87b 	bl	80036e0 <chThdCreateStatic>
 80015ea:	9004      	str	r0, [sp, #16]
 80015ec:	e0b1      	b.n	8001752 <calibrate_imu+0x1a2>
 80015ee:	f89d 200b 	ldrb.w	r2, [sp, #11]
 80015f2:	4b80      	ldr	r3, [pc, #512]	; (80017f4 <calibrate_imu+0x244>)
 80015f4:	fba3 1302 	umull	r1, r3, r3, r2
 80015f8:	0899      	lsrs	r1, r3, #2
 80015fa:	460b      	mov	r3, r1
 80015fc:	005b      	lsls	r3, r3, #1
 80015fe:	440b      	add	r3, r1
 8001600:	005b      	lsls	r3, r3, #1
 8001602:	1ad3      	subs	r3, r2, r3
 8001604:	b2db      	uxtb	r3, r3
 8001606:	4619      	mov	r1, r3
 8001608:	aa06      	add	r2, sp, #24
 800160a:	460b      	mov	r3, r1
 800160c:	005b      	lsls	r3, r3, #1
 800160e:	440b      	add	r3, r1
 8001610:	005b      	lsls	r3, r3, #1
 8001612:	4413      	add	r3, r2
 8001614:	4618      	mov	r0, r3
 8001616:	f000 fe7b 	bl	8002310 <get_acc_all>
 800161a:	f7ff ff21 	bl	8001460 <chVTGetSystemTime>
 800161e:	9005      	str	r0, [sp, #20]
 8001620:	f89d 300b 	ldrb.w	r3, [sp, #11]
 8001624:	f003 0301 	and.w	r3, r3, #1
 8001628:	b2db      	uxtb	r3, r3
 800162a:	2b00      	cmp	r3, #0
 800162c:	f000 8086 	beq.w	800173c <calibrate_imu+0x18c>
 8001630:	2300      	movs	r3, #0
 8001632:	f8ad 300e 	strh.w	r3, [sp, #14]
 8001636:	2300      	movs	r3, #0
 8001638:	f88d 300d 	strb.w	r3, [sp, #13]
 800163c:	e05f      	b.n	80016fe <calibrate_imu+0x14e>
 800163e:	f89d 200d 	ldrb.w	r2, [sp, #13]
 8001642:	4613      	mov	r3, r2
 8001644:	005b      	lsls	r3, r3, #1
 8001646:	4413      	add	r3, r2
 8001648:	005b      	lsls	r3, r3, #1
 800164a:	aa10      	add	r2, sp, #64	; 0x40
 800164c:	4413      	add	r3, r2
 800164e:	3b28      	subs	r3, #40	; 0x28
 8001650:	f9b3 3000 	ldrsh.w	r3, [r3]
 8001654:	b299      	uxth	r1, r3
 8001656:	f89d 300d 	ldrb.w	r3, [sp, #13]
 800165a:	1c5a      	adds	r2, r3, #1
 800165c:	4613      	mov	r3, r2
 800165e:	005b      	lsls	r3, r3, #1
 8001660:	4413      	add	r3, r2
 8001662:	005b      	lsls	r3, r3, #1
 8001664:	aa10      	add	r2, sp, #64	; 0x40
 8001666:	4413      	add	r3, r2
 8001668:	3b28      	subs	r3, #40	; 0x28
 800166a:	f9b3 3000 	ldrsh.w	r3, [r3]
 800166e:	b29b      	uxth	r3, r3
 8001670:	1acb      	subs	r3, r1, r3
 8001672:	b299      	uxth	r1, r3
 8001674:	f89d 200d 	ldrb.w	r2, [sp, #13]
 8001678:	4613      	mov	r3, r2
 800167a:	005b      	lsls	r3, r3, #1
 800167c:	4413      	add	r3, r2
 800167e:	005b      	lsls	r3, r3, #1
 8001680:	aa10      	add	r2, sp, #64	; 0x40
 8001682:	4413      	add	r3, r2
 8001684:	3b26      	subs	r3, #38	; 0x26
 8001686:	f9b3 3000 	ldrsh.w	r3, [r3]
 800168a:	b29b      	uxth	r3, r3
 800168c:	440b      	add	r3, r1
 800168e:	b299      	uxth	r1, r3
 8001690:	f89d 300d 	ldrb.w	r3, [sp, #13]
 8001694:	1c5a      	adds	r2, r3, #1
 8001696:	4613      	mov	r3, r2
 8001698:	005b      	lsls	r3, r3, #1
 800169a:	4413      	add	r3, r2
 800169c:	005b      	lsls	r3, r3, #1
 800169e:	aa10      	add	r2, sp, #64	; 0x40
 80016a0:	4413      	add	r3, r2
 80016a2:	3b26      	subs	r3, #38	; 0x26
 80016a4:	f9b3 3000 	ldrsh.w	r3, [r3]
 80016a8:	b29b      	uxth	r3, r3
 80016aa:	1acb      	subs	r3, r1, r3
 80016ac:	b299      	uxth	r1, r3
 80016ae:	f89d 200d 	ldrb.w	r2, [sp, #13]
 80016b2:	4613      	mov	r3, r2
 80016b4:	005b      	lsls	r3, r3, #1
 80016b6:	4413      	add	r3, r2
 80016b8:	005b      	lsls	r3, r3, #1
 80016ba:	aa10      	add	r2, sp, #64	; 0x40
 80016bc:	4413      	add	r3, r2
 80016be:	3b24      	subs	r3, #36	; 0x24
 80016c0:	f9b3 3000 	ldrsh.w	r3, [r3]
 80016c4:	b29b      	uxth	r3, r3
 80016c6:	440b      	add	r3, r1
 80016c8:	b299      	uxth	r1, r3
 80016ca:	f89d 300d 	ldrb.w	r3, [sp, #13]
 80016ce:	1c5a      	adds	r2, r3, #1
 80016d0:	4613      	mov	r3, r2
 80016d2:	005b      	lsls	r3, r3, #1
 80016d4:	4413      	add	r3, r2
 80016d6:	005b      	lsls	r3, r3, #1
 80016d8:	aa10      	add	r2, sp, #64	; 0x40
 80016da:	4413      	add	r3, r2
 80016dc:	3b24      	subs	r3, #36	; 0x24
 80016de:	f9b3 3000 	ldrsh.w	r3, [r3]
 80016e2:	b29b      	uxth	r3, r3
 80016e4:	1acb      	subs	r3, r1, r3
 80016e6:	b29a      	uxth	r2, r3
 80016e8:	f8bd 300e 	ldrh.w	r3, [sp, #14]
 80016ec:	4413      	add	r3, r2
 80016ee:	b29b      	uxth	r3, r3
 80016f0:	f8ad 300e 	strh.w	r3, [sp, #14]
 80016f4:	f89d 300d 	ldrb.w	r3, [sp, #13]
 80016f8:	3302      	adds	r3, #2
 80016fa:	f88d 300d 	strb.w	r3, [sp, #13]
 80016fe:	f89d 300d 	ldrb.w	r3, [sp, #13]
 8001702:	2b05      	cmp	r3, #5
 8001704:	d99b      	bls.n	800163e <calibrate_imu+0x8e>
 8001706:	f9bd 300e 	ldrsh.w	r3, [sp, #14]
 800170a:	4618      	mov	r0, r3
 800170c:	f7fe ff4a 	bl	80005a4 <__aeabi_i2d>
 8001710:	4602      	mov	r2, r0
 8001712:	460b      	mov	r3, r1
 8001714:	4614      	mov	r4, r2
 8001716:	f023 4500 	bic.w	r5, r3, #2147483648	; 0x80000000
 800171a:	f04f 0200 	mov.w	r2, #0
 800171e:	4b36      	ldr	r3, [pc, #216]	; (80017f8 <calibrate_imu+0x248>)
 8001720:	4620      	mov	r0, r4
 8001722:	4629      	mov	r1, r5
 8001724:	f7ff fa24 	bl	8000b70 <__aeabi_dcmplt>
 8001728:	4603      	mov	r3, r0
 800172a:	2b00      	cmp	r3, #0
 800172c:	d006      	beq.n	800173c <calibrate_imu+0x18c>
 800172e:	f89d 300b 	ldrb.w	r3, [sp, #11]
 8001732:	2b0c      	cmp	r3, #12
 8001734:	d902      	bls.n	800173c <calibrate_imu+0x18c>
 8001736:	2300      	movs	r3, #0
 8001738:	f88d 300c 	strb.w	r3, [sp, #12]
 800173c:	f89d 300b 	ldrb.w	r3, [sp, #11]
 8001740:	3301      	adds	r3, #1
 8001742:	f88d 300b 	strb.w	r3, [sp, #11]
 8001746:	9b05      	ldr	r3, [sp, #20]
 8001748:	33fa      	adds	r3, #250	; 0xfa
 800174a:	4619      	mov	r1, r3
 800174c:	9805      	ldr	r0, [sp, #20]
 800174e:	f002 f897 	bl	8003880 <chThdSleepUntilWindowed>
 8001752:	f89d 300c 	ldrb.w	r3, [sp, #12]
 8001756:	2b00      	cmp	r3, #0
 8001758:	f47f af49 	bne.w	80015ee <calibrate_imu+0x3e>
 800175c:	9804      	ldr	r0, [sp, #16]
 800175e:	f002 f817 	bl	8003790 <chThdTerminate>
 8001762:	2101      	movs	r1, #1
 8001764:	2002      	movs	r0, #2
 8001766:	f000 fa0b 	bl	8001b80 <set_led>
 800176a:	f000 fdf1 	bl	8002350 <calibrate_acc>
 800176e:	f000 fe1f 	bl	80023b0 <calibrate_gyro>
 8001772:	2101      	movs	r1, #1
 8001774:	2002      	movs	r0, #2
 8001776:	f000 fa03 	bl	8001b80 <set_led>
 800177a:	f44f 70fa 	mov.w	r0, #500	; 0x1f4
 800177e:	f002 f83f 	bl	8003800 <chThdSleep>
 8001782:	2101      	movs	r1, #1
 8001784:	2003      	movs	r0, #3
 8001786:	f000 f9fb 	bl	8001b80 <set_led>
 800178a:	2101      	movs	r1, #1
 800178c:	2001      	movs	r0, #1
 800178e:	f000 f9f7 	bl	8001b80 <set_led>
 8001792:	f44f 70fa 	mov.w	r0, #500	; 0x1f4
 8001796:	f002 f833 	bl	8003800 <chThdSleep>
 800179a:	2101      	movs	r1, #1
 800179c:	2000      	movs	r0, #0
 800179e:	f000 f9ef 	bl	8001b80 <set_led>
 80017a2:	f44f 70fa 	mov.w	r0, #500	; 0x1f4
 80017a6:	f002 f82b 	bl	8003800 <chThdSleep>
 80017aa:	f000 fa89 	bl	8001cc0 <clear_leds>
 80017ae:	e006      	b.n	80017be <calibrate_imu+0x20e>
 80017b0:	2002      	movs	r0, #2
 80017b2:	f000 fa3d 	bl	8001c30 <set_body_led>
 80017b6:	f44f 70fa 	mov.w	r0, #500	; 0x1f4
 80017ba:	f002 f821 	bl	8003800 <chThdSleep>
 80017be:	f000 fbb7 	bl	8001f30 <get_selector>
 80017c2:	4603      	mov	r3, r0
 80017c4:	2b01      	cmp	r3, #1
 80017c6:	d0f3      	beq.n	80017b0 <calibrate_imu+0x200>
 80017c8:	2000      	movs	r0, #0
 80017ca:	f000 fa31 	bl	8001c30 <set_body_led>
 80017ce:	f7ff fd3f 	bl	8001250 <main>
 80017d2:	bf00      	nop
 80017d4:	4b04      	ldr	r3, [pc, #16]	; (80017e8 <calibrate_imu+0x238>)
 80017d6:	9a0f      	ldr	r2, [sp, #60]	; 0x3c
 80017d8:	681b      	ldr	r3, [r3, #0]
 80017da:	429a      	cmp	r2, r3
 80017dc:	d001      	beq.n	80017e2 <calibrate_imu+0x232>
 80017de:	f7ff fd97 	bl	8001310 <__stack_chk_fail>
 80017e2:	b011      	add	sp, #68	; 0x44
 80017e4:	bd30      	pop	{r4, r5, pc}
 80017e6:	bf00      	nop
 80017e8:	2000081c 	.word	0x2000081c
 80017ec:	08001551 	.word	0x08001551
 80017f0:	20001218 	.word	0x20001218
 80017f4:	aaaaaaab 	.word	0xaaaaaaab
 80017f8:	40590000 	.word	0x40590000
 80017fc:	00000000 	.word	0x00000000

08001800 <dcmi_lld_stop_stream.part.0>:
 8001800:	b530      	push	{r4, r5, lr}
 8001802:	4d0f      	ldr	r5, [pc, #60]	; (8001840 <dcmi_lld_stop_stream.part.0+0x40>)
 8001804:	6882      	ldr	r2, [r0, #8]
 8001806:	682b      	ldr	r3, [r5, #0]
 8001808:	490e      	ldr	r1, [pc, #56]	; (8001844 <dcmi_lld_stop_stream.part.0+0x44>)
 800180a:	b083      	sub	sp, #12
 800180c:	9301      	str	r3, [sp, #4]
 800180e:	6813      	ldr	r3, [r2, #0]
 8001810:	f023 0301 	bic.w	r3, r3, #1
 8001814:	6013      	str	r3, [r2, #0]
 8001816:	6a8c      	ldr	r4, [r1, #40]	; 0x28
 8001818:	e003      	b.n	8001822 <dcmi_lld_stop_stream.part.0+0x22>
 800181a:	6a8b      	ldr	r3, [r1, #40]	; 0x28
 800181c:	1b1b      	subs	r3, r3, r4
 800181e:	2bc7      	cmp	r3, #199	; 0xc7
 8001820:	d809      	bhi.n	8001836 <dcmi_lld_stop_stream.part.0+0x36>
 8001822:	6810      	ldr	r0, [r2, #0]
 8001824:	f010 0001 	ands.w	r0, r0, #1
 8001828:	d1f7      	bne.n	800181a <dcmi_lld_stop_stream.part.0+0x1a>
 800182a:	9a01      	ldr	r2, [sp, #4]
 800182c:	682b      	ldr	r3, [r5, #0]
 800182e:	429a      	cmp	r2, r3
 8001830:	d104      	bne.n	800183c <dcmi_lld_stop_stream.part.0+0x3c>
 8001832:	b003      	add	sp, #12
 8001834:	bd30      	pop	{r4, r5, pc}
 8001836:	f04f 30ff 	mov.w	r0, #4294967295
 800183a:	e7f6      	b.n	800182a <dcmi_lld_stop_stream.part.0+0x2a>
 800183c:	f7ff fd68 	bl	8001310 <__stack_chk_fail>
 8001840:	2000081c 	.word	0x2000081c
 8001844:	200018b0 	.word	0x200018b0
	...

08001850 <Vector178>:
 8001850:	b5f0      	push	{r4, r5, r6, r7, lr}
 8001852:	4d28      	ldr	r5, [pc, #160]	; (80018f4 <Vector178+0xa4>)
 8001854:	b083      	sub	sp, #12
 8001856:	682b      	ldr	r3, [r5, #0]
 8001858:	9301      	str	r3, [sp, #4]
 800185a:	f002 faa1 	bl	8003da0 <_stats_increase_irq>
 800185e:	f001 fae7 	bl	8002e30 <_dbg_check_enter_isr>
 8001862:	4b25      	ldr	r3, [pc, #148]	; (80018f8 <Vector178+0xa8>)
 8001864:	691e      	ldr	r6, [r3, #16]
 8001866:	07f2      	lsls	r2, r6, #31
 8001868:	d515      	bpl.n	8001896 <Vector178+0x46>
 800186a:	4c24      	ldr	r4, [pc, #144]	; (80018fc <Vector178+0xac>)
 800186c:	695a      	ldr	r2, [r3, #20]
 800186e:	7827      	ldrb	r7, [r4, #0]
 8001870:	1fb9      	subs	r1, r7, #6
 8001872:	f042 0201 	orr.w	r2, r2, #1
 8001876:	2901      	cmp	r1, #1
 8001878:	615a      	str	r2, [r3, #20]
 800187a:	d92a      	bls.n	80018d2 <Vector178+0x82>
 800187c:	6863      	ldr	r3, [r4, #4]
 800187e:	681b      	ldr	r3, [r3, #0]
 8001880:	2205      	movs	r2, #5
 8001882:	7022      	strb	r2, [r4, #0]
 8001884:	b10b      	cbz	r3, 800188a <Vector178+0x3a>
 8001886:	4620      	mov	r0, r4
 8001888:	4798      	blx	r3
 800188a:	2f04      	cmp	r7, #4
 800188c:	d027      	beq.n	80018de <Vector178+0x8e>
 800188e:	2f02      	cmp	r7, #2
 8001890:	d025      	beq.n	80018de <Vector178+0x8e>
 8001892:	2303      	movs	r3, #3
 8001894:	7023      	strb	r3, [r4, #0]
 8001896:	07b3      	lsls	r3, r6, #30
 8001898:	d510      	bpl.n	80018bc <Vector178+0x6c>
 800189a:	4a17      	ldr	r2, [pc, #92]	; (80018f8 <Vector178+0xa8>)
 800189c:	4c17      	ldr	r4, [pc, #92]	; (80018fc <Vector178+0xac>)
 800189e:	6953      	ldr	r3, [r2, #20]
 80018a0:	7821      	ldrb	r1, [r4, #0]
 80018a2:	f043 0302 	orr.w	r3, r3, #2
 80018a6:	2903      	cmp	r1, #3
 80018a8:	6153      	str	r3, [r2, #20]
 80018aa:	d01d      	beq.n	80018e8 <Vector178+0x98>
 80018ac:	6863      	ldr	r3, [r4, #4]
 80018ae:	689b      	ldr	r3, [r3, #8]
 80018b0:	2206      	movs	r2, #6
 80018b2:	7022      	strb	r2, [r4, #0]
 80018b4:	b113      	cbz	r3, 80018bc <Vector178+0x6c>
 80018b6:	2101      	movs	r1, #1
 80018b8:	4810      	ldr	r0, [pc, #64]	; (80018fc <Vector178+0xac>)
 80018ba:	4798      	blx	r3
 80018bc:	f001 fae0 	bl	8002e80 <_dbg_check_leave_isr>
 80018c0:	9a01      	ldr	r2, [sp, #4]
 80018c2:	682b      	ldr	r3, [r5, #0]
 80018c4:	429a      	cmp	r2, r3
 80018c6:	d113      	bne.n	80018f0 <Vector178+0xa0>
 80018c8:	b003      	add	sp, #12
 80018ca:	e8bd 40f0 	ldmia.w	sp!, {r4, r5, r6, r7, lr}
 80018ce:	f003 b8bf 	b.w	8004a50 <_port_irq_epilogue>
 80018d2:	9a01      	ldr	r2, [sp, #4]
 80018d4:	682b      	ldr	r3, [r5, #0]
 80018d6:	429a      	cmp	r2, r3
 80018d8:	d10a      	bne.n	80018f0 <Vector178+0xa0>
 80018da:	b003      	add	sp, #12
 80018dc:	bdf0      	pop	{r4, r5, r6, r7, pc}
 80018de:	2302      	movs	r3, #2
 80018e0:	7023      	strb	r3, [r4, #0]
 80018e2:	07b3      	lsls	r3, r6, #30
 80018e4:	d5ea      	bpl.n	80018bc <Vector178+0x6c>
 80018e6:	e7d8      	b.n	800189a <Vector178+0x4a>
 80018e8:	4620      	mov	r0, r4
 80018ea:	f7ff ff89 	bl	8001800 <dcmi_lld_stop_stream.part.0>
 80018ee:	e7dd      	b.n	80018ac <Vector178+0x5c>
 80018f0:	f7ff fd0e 	bl	8001310 <__stack_chk_fail>
 80018f4:	2000081c 	.word	0x2000081c
 80018f8:	50050000 	.word	0x50050000
 80018fc:	20001410 	.word	0x20001410

08001900 <i2c_start.part.0>:
 8001900:	b570      	push	{r4, r5, r6, lr}
 8001902:	4e16      	ldr	r6, [pc, #88]	; (800195c <i2c_start.part.0+0x5c>)
 8001904:	4816      	ldr	r0, [pc, #88]	; (8001960 <i2c_start.part.0+0x60>)
 8001906:	6833      	ldr	r3, [r6, #0]
 8001908:	4d15      	ldr	r5, [pc, #84]	; (8001960 <i2c_start.part.0+0x60>)
 800190a:	b082      	sub	sp, #8
 800190c:	2205      	movs	r2, #5
 800190e:	f44f 7180 	mov.w	r1, #256	; 0x100
 8001912:	9301      	str	r3, [sp, #4]
 8001914:	f006 fd1c 	bl	8008350 <_pal_lld_setgroupmode>
 8001918:	2420      	movs	r4, #32
 800191a:	696b      	ldr	r3, [r5, #20]
 800191c:	f483 7380 	eor.w	r3, r3, #256	; 0x100
 8001920:	616b      	str	r3, [r5, #20]
 8001922:	2001      	movs	r0, #1
 8001924:	f001 ff6c 	bl	8003800 <chThdSleep>
 8001928:	1e63      	subs	r3, r4, #1
 800192a:	f013 04ff 	ands.w	r4, r3, #255	; 0xff
 800192e:	d1f4      	bne.n	800191a <i2c_start.part.0+0x1a>
 8001930:	f44f 7180 	mov.w	r1, #256	; 0x100
 8001934:	f240 2206 	movw	r2, #518	; 0x206
 8001938:	8329      	strh	r1, [r5, #24]
 800193a:	4809      	ldr	r0, [pc, #36]	; (8001960 <i2c_start.part.0+0x60>)
 800193c:	f006 fd08 	bl	8008350 <_pal_lld_setgroupmode>
 8001940:	9a01      	ldr	r2, [sp, #4]
 8001942:	6833      	ldr	r3, [r6, #0]
 8001944:	429a      	cmp	r2, r3
 8001946:	d106      	bne.n	8001956 <i2c_start.part.0+0x56>
 8001948:	4906      	ldr	r1, [pc, #24]	; (8001964 <i2c_start.part.0+0x64>)
 800194a:	4807      	ldr	r0, [pc, #28]	; (8001968 <i2c_start.part.0+0x68>)
 800194c:	b002      	add	sp, #8
 800194e:	e8bd 4070 	ldmia.w	sp!, {r4, r5, r6, lr}
 8001952:	f003 badd 	b.w	8004f10 <i2cStart>
 8001956:	f7ff fcdb 	bl	8001310 <__stack_chk_fail>
 800195a:	bf00      	nop
 800195c:	2000081c 	.word	0x2000081c
 8001960:	40020400 	.word	0x40020400
 8001964:	0800d520 	.word	0x0800d520
 8001968:	20002330 	.word	0x20002330
 800196c:	00000000 	.word	0x00000000

08001970 <i2c_start>:
 8001970:	b500      	push	{lr}
 8001972:	4a0c      	ldr	r2, [pc, #48]	; (80019a4 <i2c_start+0x34>)
 8001974:	4b0c      	ldr	r3, [pc, #48]	; (80019a8 <i2c_start+0x38>)
 8001976:	7812      	ldrb	r2, [r2, #0]
 8001978:	6819      	ldr	r1, [r3, #0]
 800197a:	b083      	sub	sp, #12
 800197c:	2a01      	cmp	r2, #1
 800197e:	9101      	str	r1, [sp, #4]
 8001980:	9a01      	ldr	r2, [sp, #4]
 8001982:	681b      	ldr	r3, [r3, #0]
 8001984:	d004      	beq.n	8001990 <i2c_start+0x20>
 8001986:	429a      	cmp	r2, r3
 8001988:	d109      	bne.n	800199e <i2c_start+0x2e>
 800198a:	b003      	add	sp, #12
 800198c:	f85d fb04 	ldr.w	pc, [sp], #4
 8001990:	429a      	cmp	r2, r3
 8001992:	d104      	bne.n	800199e <i2c_start+0x2e>
 8001994:	b003      	add	sp, #12
 8001996:	f85d eb04 	ldr.w	lr, [sp], #4
 800199a:	f7ff bfb1 	b.w	8001900 <i2c_start.part.0>
 800199e:	f7ff fcb7 	bl	8001310 <__stack_chk_fail>
 80019a2:	bf00      	nop
 80019a4:	20002330 	.word	0x20002330
 80019a8:	2000081c 	.word	0x2000081c
 80019ac:	00000000 	.word	0x00000000

080019b0 <read_reg>:
 80019b0:	e92d 41f0 	stmdb	sp!, {r4, r5, r6, r7, r8, lr}
 80019b4:	4c22      	ldr	r4, [pc, #136]	; (8001a40 <read_reg+0x90>)
 80019b6:	4e23      	ldr	r6, [pc, #140]	; (8001a44 <read_reg+0x94>)
 80019b8:	b088      	sub	sp, #32
 80019ba:	2300      	movs	r3, #0
 80019bc:	6835      	ldr	r5, [r6, #0]
 80019be:	f88d 3018 	strb.w	r3, [sp, #24]
 80019c2:	4680      	mov	r8, r0
 80019c4:	4620      	mov	r0, r4
 80019c6:	f88d 1014 	strb.w	r1, [sp, #20]
 80019ca:	4617      	mov	r7, r2
 80019cc:	9507      	str	r5, [sp, #28]
 80019ce:	f003 fbb7 	bl	8005140 <i2cAcquireBus>
 80019d2:	7823      	ldrb	r3, [r4, #0]
 80019d4:	2b01      	cmp	r3, #1
 80019d6:	d00c      	beq.n	80019f2 <read_reg+0x42>
 80019d8:	2004      	movs	r0, #4
 80019da:	2301      	movs	r3, #1
 80019dc:	aa06      	add	r2, sp, #24
 80019de:	e9cd 3001 	strd	r3, r0, [sp, #4]
 80019e2:	9200      	str	r2, [sp, #0]
 80019e4:	4641      	mov	r1, r8
 80019e6:	aa05      	add	r2, sp, #20
 80019e8:	4620      	mov	r0, r4
 80019ea:	f003 fb39 	bl	8005060 <i2cMasterTransmitTimeout>
 80019ee:	4605      	mov	r5, r0
 80019f0:	b968      	cbnz	r0, 8001a0e <read_reg+0x5e>
 80019f2:	4813      	ldr	r0, [pc, #76]	; (8001a40 <read_reg+0x90>)
 80019f4:	f003 fbc4 	bl	8005180 <i2cReleaseBus>
 80019f8:	f89d 3018 	ldrb.w	r3, [sp, #24]
 80019fc:	703b      	strb	r3, [r7, #0]
 80019fe:	2000      	movs	r0, #0
 8001a00:	9a07      	ldr	r2, [sp, #28]
 8001a02:	6833      	ldr	r3, [r6, #0]
 8001a04:	429a      	cmp	r2, r3
 8001a06:	d118      	bne.n	8001a3a <read_reg+0x8a>
 8001a08:	b008      	add	sp, #32
 8001a0a:	e8bd 81f0 	ldmia.w	sp!, {r4, r5, r6, r7, r8, pc}
 8001a0e:	4620      	mov	r0, r4
 8001a10:	f003 fb0e 	bl	8005030 <i2cGetErrors>
 8001a14:	7823      	ldrb	r3, [r4, #0]
 8001a16:	4a0c      	ldr	r2, [pc, #48]	; (8001a48 <read_reg+0x98>)
 8001a18:	2b05      	cmp	r3, #5
 8001a1a:	6010      	str	r0, [r2, #0]
 8001a1c:	d004      	beq.n	8001a28 <read_reg+0x78>
 8001a1e:	4808      	ldr	r0, [pc, #32]	; (8001a40 <read_reg+0x90>)
 8001a20:	f003 fbae 	bl	8005180 <i2cReleaseBus>
 8001a24:	b268      	sxtb	r0, r5
 8001a26:	e7eb      	b.n	8001a00 <read_reg+0x50>
 8001a28:	4620      	mov	r0, r4
 8001a2a:	f003 fab9 	bl	8004fa0 <i2cStop>
 8001a2e:	7823      	ldrb	r3, [r4, #0]
 8001a30:	2b01      	cmp	r3, #1
 8001a32:	d1f4      	bne.n	8001a1e <read_reg+0x6e>
 8001a34:	f7ff ff64 	bl	8001900 <i2c_start.part.0>
 8001a38:	e7f1      	b.n	8001a1e <read_reg+0x6e>
 8001a3a:	f7ff fc69 	bl	8001310 <__stack_chk_fail>
 8001a3e:	bf00      	nop
 8001a40:	20002330 	.word	0x20002330
 8001a44:	2000081c 	.word	0x2000081c
 8001a48:	20001428 	.word	0x20001428
 8001a4c:	00000000 	.word	0x00000000

08001a50 <write_reg>:
 8001a50:	b5f0      	push	{r4, r5, r6, r7, lr}
 8001a52:	4c21      	ldr	r4, [pc, #132]	; (8001ad8 <write_reg+0x88>)
 8001a54:	4e21      	ldr	r6, [pc, #132]	; (8001adc <write_reg+0x8c>)
 8001a56:	b089      	sub	sp, #36	; 0x24
 8001a58:	6833      	ldr	r3, [r6, #0]
 8001a5a:	9307      	str	r3, [sp, #28]
 8001a5c:	4607      	mov	r7, r0
 8001a5e:	2500      	movs	r5, #0
 8001a60:	4620      	mov	r0, r4
 8001a62:	f88d 1018 	strb.w	r1, [sp, #24]
 8001a66:	f88d 2019 	strb.w	r2, [sp, #25]
 8001a6a:	f88d 5014 	strb.w	r5, [sp, #20]
 8001a6e:	f003 fb67 	bl	8005140 <i2cAcquireBus>
 8001a72:	7823      	ldrb	r3, [r4, #0]
 8001a74:	2b01      	cmp	r3, #1
 8001a76:	d00c      	beq.n	8001a92 <write_reg+0x42>
 8001a78:	2204      	movs	r2, #4
 8001a7a:	ab05      	add	r3, sp, #20
 8001a7c:	9501      	str	r5, [sp, #4]
 8001a7e:	9202      	str	r2, [sp, #8]
 8001a80:	9300      	str	r3, [sp, #0]
 8001a82:	4639      	mov	r1, r7
 8001a84:	2302      	movs	r3, #2
 8001a86:	aa06      	add	r2, sp, #24
 8001a88:	4620      	mov	r0, r4
 8001a8a:	f003 fae9 	bl	8005060 <i2cMasterTransmitTimeout>
 8001a8e:	4605      	mov	r5, r0
 8001a90:	b948      	cbnz	r0, 8001aa6 <write_reg+0x56>
 8001a92:	4811      	ldr	r0, [pc, #68]	; (8001ad8 <write_reg+0x88>)
 8001a94:	f003 fb74 	bl	8005180 <i2cReleaseBus>
 8001a98:	2000      	movs	r0, #0
 8001a9a:	9a07      	ldr	r2, [sp, #28]
 8001a9c:	6833      	ldr	r3, [r6, #0]
 8001a9e:	429a      	cmp	r2, r3
 8001aa0:	d117      	bne.n	8001ad2 <write_reg+0x82>
 8001aa2:	b009      	add	sp, #36	; 0x24
 8001aa4:	bdf0      	pop	{r4, r5, r6, r7, pc}
 8001aa6:	4620      	mov	r0, r4
 8001aa8:	f003 fac2 	bl	8005030 <i2cGetErrors>
 8001aac:	7823      	ldrb	r3, [r4, #0]
 8001aae:	4a0c      	ldr	r2, [pc, #48]	; (8001ae0 <write_reg+0x90>)
 8001ab0:	2b05      	cmp	r3, #5
 8001ab2:	6010      	str	r0, [r2, #0]
 8001ab4:	d004      	beq.n	8001ac0 <write_reg+0x70>
 8001ab6:	4808      	ldr	r0, [pc, #32]	; (8001ad8 <write_reg+0x88>)
 8001ab8:	f003 fb62 	bl	8005180 <i2cReleaseBus>
 8001abc:	b268      	sxtb	r0, r5
 8001abe:	e7ec      	b.n	8001a9a <write_reg+0x4a>
 8001ac0:	4620      	mov	r0, r4
 8001ac2:	f003 fa6d 	bl	8004fa0 <i2cStop>
 8001ac6:	7823      	ldrb	r3, [r4, #0]
 8001ac8:	2b01      	cmp	r3, #1
 8001aca:	d1f4      	bne.n	8001ab6 <write_reg+0x66>
 8001acc:	f7ff ff18 	bl	8001900 <i2c_start.part.0>
 8001ad0:	e7f1      	b.n	8001ab6 <write_reg+0x66>
 8001ad2:	f7ff fc1d 	bl	8001310 <__stack_chk_fail>
 8001ad6:	bf00      	nop
 8001ad8:	20002330 	.word	0x20002330
 8001adc:	2000081c 	.word	0x2000081c
 8001ae0:	20001428 	.word	0x20001428
	...

08001af0 <read_reg_multi>:
 8001af0:	e92d 43f0 	stmdb	sp!, {r4, r5, r6, r7, r8, r9, lr}
 8001af4:	4c1f      	ldr	r4, [pc, #124]	; (8001b74 <read_reg_multi+0x84>)
 8001af6:	4e20      	ldr	r6, [pc, #128]	; (8001b78 <read_reg_multi+0x88>)
 8001af8:	b089      	sub	sp, #36	; 0x24
 8001afa:	6835      	ldr	r5, [r6, #0]
 8001afc:	f88d 1017 	strb.w	r1, [sp, #23]
 8001b00:	4607      	mov	r7, r0
 8001b02:	4620      	mov	r0, r4
 8001b04:	4690      	mov	r8, r2
 8001b06:	4699      	mov	r9, r3
 8001b08:	9507      	str	r5, [sp, #28]
 8001b0a:	f003 fb19 	bl	8005140 <i2cAcquireBus>
 8001b0e:	7821      	ldrb	r1, [r4, #0]
 8001b10:	2901      	cmp	r1, #1
 8001b12:	d00c      	beq.n	8001b2e <read_reg_multi+0x3e>
 8001b14:	2304      	movs	r3, #4
 8001b16:	9302      	str	r3, [sp, #8]
 8001b18:	e9cd 8900 	strd	r8, r9, [sp]
 8001b1c:	4639      	mov	r1, r7
 8001b1e:	2301      	movs	r3, #1
 8001b20:	f10d 0217 	add.w	r2, sp, #23
 8001b24:	4620      	mov	r0, r4
 8001b26:	f003 fa9b 	bl	8005060 <i2cMasterTransmitTimeout>
 8001b2a:	4605      	mov	r5, r0
 8001b2c:	b950      	cbnz	r0, 8001b44 <read_reg_multi+0x54>
 8001b2e:	4811      	ldr	r0, [pc, #68]	; (8001b74 <read_reg_multi+0x84>)
 8001b30:	f003 fb26 	bl	8005180 <i2cReleaseBus>
 8001b34:	2000      	movs	r0, #0
 8001b36:	9a07      	ldr	r2, [sp, #28]
 8001b38:	6833      	ldr	r3, [r6, #0]
 8001b3a:	429a      	cmp	r2, r3
 8001b3c:	d118      	bne.n	8001b70 <read_reg_multi+0x80>
 8001b3e:	b009      	add	sp, #36	; 0x24
 8001b40:	e8bd 83f0 	ldmia.w	sp!, {r4, r5, r6, r7, r8, r9, pc}
 8001b44:	4620      	mov	r0, r4
 8001b46:	f003 fa73 	bl	8005030 <i2cGetErrors>
 8001b4a:	7823      	ldrb	r3, [r4, #0]
 8001b4c:	4a0b      	ldr	r2, [pc, #44]	; (8001b7c <read_reg_multi+0x8c>)
 8001b4e:	2b05      	cmp	r3, #5
 8001b50:	6010      	str	r0, [r2, #0]
 8001b52:	d004      	beq.n	8001b5e <read_reg_multi+0x6e>
 8001b54:	4807      	ldr	r0, [pc, #28]	; (8001b74 <read_reg_multi+0x84>)
 8001b56:	f003 fb13 	bl	8005180 <i2cReleaseBus>
 8001b5a:	b268      	sxtb	r0, r5
 8001b5c:	e7eb      	b.n	8001b36 <read_reg_multi+0x46>
 8001b5e:	4620      	mov	r0, r4
 8001b60:	f003 fa1e 	bl	8004fa0 <i2cStop>
 8001b64:	7823      	ldrb	r3, [r4, #0]
 8001b66:	2b01      	cmp	r3, #1
 8001b68:	d1f4      	bne.n	8001b54 <read_reg_multi+0x64>
 8001b6a:	f7ff fec9 	bl	8001900 <i2c_start.part.0>
 8001b6e:	e7f1      	b.n	8001b54 <read_reg_multi+0x64>
 8001b70:	f7ff fbce 	bl	8001310 <__stack_chk_fail>
 8001b74:	20002330 	.word	0x20002330
 8001b78:	2000081c 	.word	0x2000081c
 8001b7c:	20001428 	.word	0x20001428

08001b80 <set_led>:
 8001b80:	b570      	push	{r4, r5, r6, lr}
 8001b82:	4d29      	ldr	r5, [pc, #164]	; (8001c28 <set_led+0xa8>)
 8001b84:	b082      	sub	sp, #8
 8001b86:	682b      	ldr	r3, [r5, #0]
 8001b88:	9301      	str	r3, [sp, #4]
 8001b8a:	460e      	mov	r6, r1
 8001b8c:	2803      	cmp	r0, #3
 8001b8e:	d841      	bhi.n	8001c14 <set_led+0x94>
 8001b90:	e8df f000 	tbb	[pc, r0]
 8001b94:	020a121a 	.word	0x020a121a
 8001b98:	2901      	cmp	r1, #1
 8001b9a:	d922      	bls.n	8001be2 <set_led+0x62>
 8001b9c:	4a23      	ldr	r2, [pc, #140]	; (8001c2c <set_led+0xac>)
 8001b9e:	6953      	ldr	r3, [r2, #20]
 8001ba0:	f483 6300 	eor.w	r3, r3, #2048	; 0x800
 8001ba4:	6153      	str	r3, [r2, #20]
 8001ba6:	e016      	b.n	8001bd6 <set_led+0x56>
 8001ba8:	2901      	cmp	r1, #1
 8001baa:	d926      	bls.n	8001bfa <set_led+0x7a>
 8001bac:	4a1f      	ldr	r2, [pc, #124]	; (8001c2c <set_led+0xac>)
 8001bae:	6953      	ldr	r3, [r2, #20]
 8001bb0:	f483 6380 	eor.w	r3, r3, #1024	; 0x400
 8001bb4:	6153      	str	r3, [r2, #20]
 8001bb6:	e00e      	b.n	8001bd6 <set_led+0x56>
 8001bb8:	2901      	cmp	r1, #1
 8001bba:	d918      	bls.n	8001bee <set_led+0x6e>
 8001bbc:	4a1b      	ldr	r2, [pc, #108]	; (8001c2c <set_led+0xac>)
 8001bbe:	6953      	ldr	r3, [r2, #20]
 8001bc0:	f083 0340 	eor.w	r3, r3, #64	; 0x40
 8001bc4:	6153      	str	r3, [r2, #20]
 8001bc6:	e006      	b.n	8001bd6 <set_led+0x56>
 8001bc8:	2901      	cmp	r1, #1
 8001bca:	d91c      	bls.n	8001c06 <set_led+0x86>
 8001bcc:	4a17      	ldr	r2, [pc, #92]	; (8001c2c <set_led+0xac>)
 8001bce:	6953      	ldr	r3, [r2, #20]
 8001bd0:	f083 0320 	eor.w	r3, r3, #32
 8001bd4:	6153      	str	r3, [r2, #20]
 8001bd6:	9a01      	ldr	r2, [sp, #4]
 8001bd8:	682b      	ldr	r3, [r5, #0]
 8001bda:	429a      	cmp	r2, r3
 8001bdc:	d118      	bne.n	8001c10 <set_led+0x90>
 8001bde:	b002      	add	sp, #8
 8001be0:	bd70      	pop	{r4, r5, r6, pc}
 8001be2:	4b12      	ldr	r3, [pc, #72]	; (8001c2c <set_led+0xac>)
 8001be4:	f44f 6200 	mov.w	r2, #2048	; 0x800
 8001be8:	b129      	cbz	r1, 8001bf6 <set_led+0x76>
 8001bea:	835a      	strh	r2, [r3, #26]
 8001bec:	e7f3      	b.n	8001bd6 <set_led+0x56>
 8001bee:	4b0f      	ldr	r3, [pc, #60]	; (8001c2c <set_led+0xac>)
 8001bf0:	2240      	movs	r2, #64	; 0x40
 8001bf2:	2900      	cmp	r1, #0
 8001bf4:	d1f9      	bne.n	8001bea <set_led+0x6a>
 8001bf6:	831a      	strh	r2, [r3, #24]
 8001bf8:	e7ed      	b.n	8001bd6 <set_led+0x56>
 8001bfa:	4b0c      	ldr	r3, [pc, #48]	; (8001c2c <set_led+0xac>)
 8001bfc:	f44f 6280 	mov.w	r2, #1024	; 0x400
 8001c00:	2900      	cmp	r1, #0
 8001c02:	d0f8      	beq.n	8001bf6 <set_led+0x76>
 8001c04:	e7f1      	b.n	8001bea <set_led+0x6a>
 8001c06:	4b09      	ldr	r3, [pc, #36]	; (8001c2c <set_led+0xac>)
 8001c08:	2220      	movs	r2, #32
 8001c0a:	2900      	cmp	r1, #0
 8001c0c:	d0f3      	beq.n	8001bf6 <set_led+0x76>
 8001c0e:	e7ec      	b.n	8001bea <set_led+0x6a>
 8001c10:	f7ff fb7e 	bl	8001310 <__stack_chk_fail>
 8001c14:	2400      	movs	r4, #0
 8001c16:	b2e0      	uxtb	r0, r4
 8001c18:	4631      	mov	r1, r6
 8001c1a:	3401      	adds	r4, #1
 8001c1c:	f7ff ffb0 	bl	8001b80 <set_led>
 8001c20:	2c04      	cmp	r4, #4
 8001c22:	d1f8      	bne.n	8001c16 <set_led+0x96>
 8001c24:	e7d7      	b.n	8001bd6 <set_led+0x56>
 8001c26:	bf00      	nop
 8001c28:	2000081c 	.word	0x2000081c
 8001c2c:	40020c00 	.word	0x40020c00

08001c30 <set_body_led>:
 8001c30:	b500      	push	{lr}
 8001c32:	4b0d      	ldr	r3, [pc, #52]	; (8001c68 <set_body_led+0x38>)
 8001c34:	b083      	sub	sp, #12
 8001c36:	681a      	ldr	r2, [r3, #0]
 8001c38:	9201      	str	r2, [sp, #4]
 8001c3a:	2801      	cmp	r0, #1
 8001c3c:	d90b      	bls.n	8001c56 <set_body_led+0x26>
 8001c3e:	490b      	ldr	r1, [pc, #44]	; (8001c6c <set_body_led+0x3c>)
 8001c40:	694a      	ldr	r2, [r1, #20]
 8001c42:	f082 0204 	eor.w	r2, r2, #4
 8001c46:	614a      	str	r2, [r1, #20]
 8001c48:	9a01      	ldr	r2, [sp, #4]
 8001c4a:	681b      	ldr	r3, [r3, #0]
 8001c4c:	429a      	cmp	r2, r3
 8001c4e:	d109      	bne.n	8001c64 <set_body_led+0x34>
 8001c50:	b003      	add	sp, #12
 8001c52:	f85d fb04 	ldr.w	pc, [sp], #4
 8001c56:	4a05      	ldr	r2, [pc, #20]	; (8001c6c <set_body_led+0x3c>)
 8001c58:	2104      	movs	r1, #4
 8001c5a:	b908      	cbnz	r0, 8001c60 <set_body_led+0x30>
 8001c5c:	8351      	strh	r1, [r2, #26]
 8001c5e:	e7f3      	b.n	8001c48 <set_body_led+0x18>
 8001c60:	8311      	strh	r1, [r2, #24]
 8001c62:	e7f1      	b.n	8001c48 <set_body_led+0x18>
 8001c64:	f7ff fb54 	bl	8001310 <__stack_chk_fail>
 8001c68:	2000081c 	.word	0x2000081c
 8001c6c:	40020400 	.word	0x40020400

08001c70 <set_front_led>:
 8001c70:	b500      	push	{lr}
 8001c72:	4b0e      	ldr	r3, [pc, #56]	; (8001cac <set_front_led+0x3c>)
 8001c74:	b083      	sub	sp, #12
 8001c76:	681a      	ldr	r2, [r3, #0]
 8001c78:	9201      	str	r2, [sp, #4]
 8001c7a:	2801      	cmp	r0, #1
 8001c7c:	d90b      	bls.n	8001c96 <set_front_led+0x26>
 8001c7e:	490c      	ldr	r1, [pc, #48]	; (8001cb0 <set_front_led+0x40>)
 8001c80:	694a      	ldr	r2, [r1, #20]
 8001c82:	f482 4280 	eor.w	r2, r2, #16384	; 0x4000
 8001c86:	614a      	str	r2, [r1, #20]
 8001c88:	9a01      	ldr	r2, [sp, #4]
 8001c8a:	681b      	ldr	r3, [r3, #0]
 8001c8c:	429a      	cmp	r2, r3
 8001c8e:	d10a      	bne.n	8001ca6 <set_front_led+0x36>
 8001c90:	b003      	add	sp, #12
 8001c92:	f85d fb04 	ldr.w	pc, [sp], #4
 8001c96:	4a06      	ldr	r2, [pc, #24]	; (8001cb0 <set_front_led+0x40>)
 8001c98:	f44f 4180 	mov.w	r1, #16384	; 0x4000
 8001c9c:	b908      	cbnz	r0, 8001ca2 <set_front_led+0x32>
 8001c9e:	8351      	strh	r1, [r2, #26]
 8001ca0:	e7f2      	b.n	8001c88 <set_front_led+0x18>
 8001ca2:	8311      	strh	r1, [r2, #24]
 8001ca4:	e7f0      	b.n	8001c88 <set_front_led+0x18>
 8001ca6:	f7ff fb33 	bl	8001310 <__stack_chk_fail>
 8001caa:	bf00      	nop
 8001cac:	2000081c 	.word	0x2000081c
 8001cb0:	40020c00 	.word	0x40020c00
	...

08001cc0 <clear_leds>:
 8001cc0:	b5f0      	push	{r4, r5, r6, r7, lr}
 8001cc2:	4f0d      	ldr	r7, [pc, #52]	; (8001cf8 <clear_leds+0x38>)
 8001cc4:	4c0d      	ldr	r4, [pc, #52]	; (8001cfc <clear_leds+0x3c>)
 8001cc6:	683b      	ldr	r3, [r7, #0]
 8001cc8:	b083      	sub	sp, #12
 8001cca:	2500      	movs	r5, #0
 8001ccc:	9301      	str	r3, [sp, #4]
 8001cce:	462e      	mov	r6, r5
 8001cd0:	b2e8      	uxtb	r0, r5
 8001cd2:	2100      	movs	r1, #0
 8001cd4:	3501      	adds	r5, #1
 8001cd6:	f7ff ff53 	bl	8001b80 <set_led>
 8001cda:	2d04      	cmp	r5, #4
 8001cdc:	7026      	strb	r6, [r4, #0]
 8001cde:	7066      	strb	r6, [r4, #1]
 8001ce0:	70a6      	strb	r6, [r4, #2]
 8001ce2:	f104 0403 	add.w	r4, r4, #3
 8001ce6:	d1f3      	bne.n	8001cd0 <clear_leds+0x10>
 8001ce8:	9a01      	ldr	r2, [sp, #4]
 8001cea:	683b      	ldr	r3, [r7, #0]
 8001cec:	429a      	cmp	r2, r3
 8001cee:	d101      	bne.n	8001cf4 <clear_leds+0x34>
 8001cf0:	b003      	add	sp, #12
 8001cf2:	bdf0      	pop	{r4, r5, r6, r7, pc}
 8001cf4:	f7ff fb0c 	bl	8001310 <__stack_chk_fail>
 8001cf8:	2000081c 	.word	0x2000081c
 8001cfc:	2000142c 	.word	0x2000142c

08001d00 <mpu_configure_region>:
 8001d00:	e92d 43f0 	stmdb	sp!, {r4, r5, r6, r7, r8, r9, lr}
 8001d04:	4e25      	ldr	r6, [pc, #148]	; (8001d9c <mpu_configure_region+0x9c>)
 8001d06:	b083      	sub	sp, #12
 8001d08:	6834      	ldr	r4, [r6, #0]
 8001d0a:	9401      	str	r4, [sp, #4]
 8001d0c:	2a04      	cmp	r2, #4
 8001d0e:	f89d 9028 	ldrb.w	r9, [sp, #40]	; 0x28
 8001d12:	4614      	mov	r4, r2
 8001d14:	4605      	mov	r5, r0
 8001d16:	460f      	mov	r7, r1
 8001d18:	4698      	mov	r8, r3
 8001d1a:	d939      	bls.n	8001d90 <mpu_configure_region+0x90>
 8001d1c:	f1b9 0f00 	cmp.w	r9, #0
 8001d20:	bf14      	ite	ne
 8001d22:	2200      	movne	r2, #0
 8001d24:	f04f 5280 	moveq.w	r2, #268435456	; 0x10000000
 8001d28:	0064      	lsls	r4, r4, #1
 8001d2a:	eb02 6308 	add.w	r3, r2, r8, lsl #24
 8001d2e:	3c01      	subs	r4, #1
 8001d30:	441c      	add	r4, r3
 8001d32:	f005 050f 	and.w	r5, r5, #15
 8001d36:	f027 071f 	bic.w	r7, r7, #31
 8001d3a:	2320      	movs	r3, #32
 8001d3c:	f383 8811 	msr	BASEPRI, r3
 8001d40:	f002 f866 	bl	8003e10 <_stats_start_measure_crit_thd>
 8001d44:	433d      	orrs	r5, r7
 8001d46:	f000 fff3 	bl	8002d30 <_dbg_check_lock>
 8001d4a:	4b15      	ldr	r3, [pc, #84]	; (8001da0 <mpu_configure_region+0xa0>)
 8001d4c:	3510      	adds	r5, #16
 8001d4e:	60dd      	str	r5, [r3, #12]
 8001d50:	611c      	str	r4, [r3, #16]
 8001d52:	f001 f80d 	bl	8002d70 <_dbg_check_unlock>
 8001d56:	f002 f873 	bl	8003e40 <_stats_stop_measure_crit_thd>
 8001d5a:	4b12      	ldr	r3, [pc, #72]	; (8001da4 <mpu_configure_region+0xa4>)
 8001d5c:	681a      	ldr	r2, [r3, #0]
 8001d5e:	429a      	cmp	r2, r3
 8001d60:	d004      	beq.n	8001d6c <mpu_configure_region+0x6c>
 8001d62:	6999      	ldr	r1, [r3, #24]
 8001d64:	6893      	ldr	r3, [r2, #8]
 8001d66:	688a      	ldr	r2, [r1, #8]
 8001d68:	429a      	cmp	r2, r3
 8001d6a:	d30d      	bcc.n	8001d88 <mpu_configure_region+0x88>
 8001d6c:	2300      	movs	r3, #0
 8001d6e:	f383 8811 	msr	BASEPRI, r3
 8001d72:	f3bf 8f6f 	isb	sy
 8001d76:	f3bf 8f4f 	dsb	sy
 8001d7a:	9a01      	ldr	r2, [sp, #4]
 8001d7c:	6833      	ldr	r3, [r6, #0]
 8001d7e:	429a      	cmp	r2, r3
 8001d80:	d10a      	bne.n	8001d98 <mpu_configure_region+0x98>
 8001d82:	b003      	add	sp, #12
 8001d84:	e8bd 83f0 	ldmia.w	sp!, {r4, r5, r6, r7, r8, r9, pc}
 8001d88:	4807      	ldr	r0, [pc, #28]	; (8001da8 <mpu_configure_region+0xa8>)
 8001d8a:	f000 ff31 	bl	8002bf0 <chSysHalt>
 8001d8e:	e7ed      	b.n	8001d6c <mpu_configure_region+0x6c>
 8001d90:	4806      	ldr	r0, [pc, #24]	; (8001dac <mpu_configure_region+0xac>)
 8001d92:	f000 ff2d 	bl	8002bf0 <chSysHalt>
 8001d96:	e7c1      	b.n	8001d1c <mpu_configure_region+0x1c>
 8001d98:	f7ff faba 	bl	8001310 <__stack_chk_fail>
 8001d9c:	2000081c 	.word	0x2000081c
 8001da0:	e000ed90 	.word	0xe000ed90
 8001da4:	200018b0 	.word	0x200018b0
 8001da8:	0800d5b0 	.word	0x0800d5b0
 8001dac:	0800d590 	.word	0x0800d590

08001db0 <mpu_init>:
 8001db0:	b530      	push	{r4, r5, lr}
 8001db2:	4d22      	ldr	r5, [pc, #136]	; (8001e3c <mpu_init+0x8c>)
 8001db4:	4c22      	ldr	r4, [pc, #136]	; (8001e40 <mpu_init+0x90>)
 8001db6:	682b      	ldr	r3, [r5, #0]
 8001db8:	4a22      	ldr	r2, [pc, #136]	; (8001e44 <mpu_init+0x94>)
 8001dba:	b085      	sub	sp, #20
 8001dbc:	9303      	str	r3, [sp, #12]
 8001dbe:	6863      	ldr	r3, [r4, #4]
 8001dc0:	f043 0304 	orr.w	r3, r3, #4
 8001dc4:	6063      	str	r3, [r4, #4]
 8001dc6:	6a53      	ldr	r3, [r2, #36]	; 0x24
 8001dc8:	f443 3380 	orr.w	r3, r3, #65536	; 0x10000
 8001dcc:	6253      	str	r3, [r2, #36]	; 0x24
 8001dce:	2320      	movs	r3, #32
 8001dd0:	f383 8811 	msr	BASEPRI, r3
 8001dd4:	f002 f81c 	bl	8003e10 <_stats_start_measure_crit_thd>
 8001dd8:	f000 ffaa 	bl	8002d30 <_dbg_check_lock>
 8001ddc:	2217      	movs	r2, #23
 8001dde:	4b1a      	ldr	r3, [pc, #104]	; (8001e48 <mpu_init+0x98>)
 8001de0:	60e2      	str	r2, [r4, #12]
 8001de2:	6123      	str	r3, [r4, #16]
 8001de4:	f000 ffc4 	bl	8002d70 <_dbg_check_unlock>
 8001de8:	f002 f82a 	bl	8003e40 <_stats_stop_measure_crit_thd>
 8001dec:	4b17      	ldr	r3, [pc, #92]	; (8001e4c <mpu_init+0x9c>)
 8001dee:	681a      	ldr	r2, [r3, #0]
 8001df0:	429a      	cmp	r2, r3
 8001df2:	d004      	beq.n	8001dfe <mpu_init+0x4e>
 8001df4:	6999      	ldr	r1, [r3, #24]
 8001df6:	6893      	ldr	r3, [r2, #8]
 8001df8:	688a      	ldr	r2, [r1, #8]
 8001dfa:	429a      	cmp	r2, r3
 8001dfc:	d318      	bcc.n	8001e30 <mpu_init+0x80>
 8001dfe:	2000      	movs	r0, #0
 8001e00:	f380 8811 	msr	BASEPRI, r0
 8001e04:	f3bf 8f6f 	isb	sy
 8001e08:	f3bf 8f4f 	dsb	sy
 8001e0c:	2303      	movs	r3, #3
 8001e0e:	221d      	movs	r2, #29
 8001e10:	9000      	str	r0, [sp, #0]
 8001e12:	f04f 5100 	mov.w	r1, #536870912	; 0x20000000
 8001e16:	f7ff ff73 	bl	8001d00 <mpu_configure_region>
 8001e1a:	4a09      	ldr	r2, [pc, #36]	; (8001e40 <mpu_init+0x90>)
 8001e1c:	6853      	ldr	r3, [r2, #4]
 8001e1e:	f043 0301 	orr.w	r3, r3, #1
 8001e22:	6053      	str	r3, [r2, #4]
 8001e24:	9a03      	ldr	r2, [sp, #12]
 8001e26:	682b      	ldr	r3, [r5, #0]
 8001e28:	429a      	cmp	r2, r3
 8001e2a:	d105      	bne.n	8001e38 <mpu_init+0x88>
 8001e2c:	b005      	add	sp, #20
 8001e2e:	bd30      	pop	{r4, r5, pc}
 8001e30:	4807      	ldr	r0, [pc, #28]	; (8001e50 <mpu_init+0xa0>)
 8001e32:	f000 fedd 	bl	8002bf0 <chSysHalt>
 8001e36:	e7e2      	b.n	8001dfe <mpu_init+0x4e>
 8001e38:	f7ff fa6a 	bl	8001310 <__stack_chk_fail>
 8001e3c:	2000081c 	.word	0x2000081c
 8001e40:	e000ed90 	.word	0xe000ed90
 8001e44:	e000ed00 	.word	0xe000ed00
 8001e48:	10000009 	.word	0x10000009
 8001e4c:	200018b0 	.word	0x200018b0
 8001e50:	0800d5b0 	.word	0x0800d5b0
	...

08001e60 <MemManage_Handler>:
 8001e60:	b570      	push	{r4, r5, r6, lr}
 8001e62:	4d1a      	ldr	r5, [pc, #104]	; (8001ecc <MemManage_Handler+0x6c>)
 8001e64:	4c1a      	ldr	r4, [pc, #104]	; (8001ed0 <MemManage_Handler+0x70>)
 8001e66:	4e1b      	ldr	r6, [pc, #108]	; (8001ed4 <MemManage_Handler+0x74>)
 8001e68:	cd0f      	ldmia	r5!, {r0, r1, r2, r3}
 8001e6a:	c40f      	stmia	r4!, {r0, r1, r2, r3}
 8001e6c:	b09e      	sub	sp, #120	; 0x78
 8001e6e:	682a      	ldr	r2, [r5, #0]
 8001e70:	6833      	ldr	r3, [r6, #0]
 8001e72:	8022      	strh	r2, [r4, #0]
 8001e74:	931d      	str	r3, [sp, #116]	; 0x74
 8001e76:	f3ef 8109 	mrs	r1, PSP
 8001e7a:	2268      	movs	r2, #104	; 0x68
 8001e7c:	a803      	add	r0, sp, #12
 8001e7e:	f7ff f84f 	bl	8000f20 <memcpy>
 8001e82:	4b15      	ldr	r3, [pc, #84]	; (8001ed8 <MemManage_Handler+0x78>)
 8001e84:	6a9d      	ldr	r5, [r3, #40]	; 0x28
 8001e86:	07aa      	lsls	r2, r5, #30
 8001e88:	d414      	bmi.n	8001eb4 <MemManage_Handler+0x54>
 8001e8a:	07eb      	lsls	r3, r5, #31
 8001e8c:	d508      	bpl.n	8001ea0 <MemManage_Handler+0x40>
 8001e8e:	4b12      	ldr	r3, [pc, #72]	; (8001ed8 <MemManage_Handler+0x78>)
 8001e90:	9908      	ldr	r1, [sp, #32]
 8001e92:	6b5b      	ldr	r3, [r3, #52]	; 0x34
 8001e94:	4a11      	ldr	r2, [pc, #68]	; (8001edc <MemManage_Handler+0x7c>)
 8001e96:	9100      	str	r1, [sp, #0]
 8001e98:	480d      	ldr	r0, [pc, #52]	; (8001ed0 <MemManage_Handler+0x70>)
 8001e9a:	2180      	movs	r1, #128	; 0x80
 8001e9c:	f008 f960 	bl	800a160 <snprintf>
 8001ea0:	9a1d      	ldr	r2, [sp, #116]	; 0x74
 8001ea2:	6833      	ldr	r3, [r6, #0]
 8001ea4:	429a      	cmp	r2, r3
 8001ea6:	d10f      	bne.n	8001ec8 <MemManage_Handler+0x68>
 8001ea8:	4809      	ldr	r0, [pc, #36]	; (8001ed0 <MemManage_Handler+0x70>)
 8001eaa:	b01e      	add	sp, #120	; 0x78
 8001eac:	e8bd 4070 	ldmia.w	sp!, {r4, r5, r6, lr}
 8001eb0:	f000 be9e 	b.w	8002bf0 <chSysHalt>
 8001eb4:	9a09      	ldr	r2, [sp, #36]	; 0x24
 8001eb6:	6b5b      	ldr	r3, [r3, #52]	; 0x34
 8001eb8:	9200      	str	r2, [sp, #0]
 8001eba:	f1a4 0010 	sub.w	r0, r4, #16
 8001ebe:	4a08      	ldr	r2, [pc, #32]	; (8001ee0 <MemManage_Handler+0x80>)
 8001ec0:	2180      	movs	r1, #128	; 0x80
 8001ec2:	f008 f94d 	bl	800a160 <snprintf>
 8001ec6:	e7e0      	b.n	8001e8a <MemManage_Handler+0x2a>
 8001ec8:	f7ff fa22 	bl	8001310 <__stack_chk_fail>
 8001ecc:	0800d574 	.word	0x0800d574
 8001ed0:	20001438 	.word	0x20001438
 8001ed4:	2000081c 	.word	0x2000081c
 8001ed8:	e000ed00 	.word	0xe000ed00
 8001edc:	0800d550 	.word	0x0800d550
 8001ee0:	0800d530 	.word	0x0800d530
	...

08001ef0 <panic_handler>:
 8001ef0:	490a      	ldr	r1, [pc, #40]	; (8001f1c <panic_handler+0x2c>)
 8001ef2:	4b0b      	ldr	r3, [pc, #44]	; (8001f20 <panic_handler+0x30>)
 8001ef4:	6809      	ldr	r1, [r1, #0]
 8001ef6:	4a0b      	ldr	r2, [pc, #44]	; (8001f24 <panic_handler+0x34>)
 8001ef8:	b082      	sub	sp, #8
 8001efa:	2020      	movs	r0, #32
 8001efc:	9101      	str	r1, [sp, #4]
 8001efe:	2140      	movs	r1, #64	; 0x40
 8001f00:	8358      	strh	r0, [r3, #26]
 8001f02:	f44f 6580 	mov.w	r5, #1024	; 0x400
 8001f06:	8359      	strh	r1, [r3, #26]
 8001f08:	f44f 6400 	mov.w	r4, #2048	; 0x800
 8001f0c:	f44f 4080 	mov.w	r0, #16384	; 0x4000
 8001f10:	2104      	movs	r1, #4
 8001f12:	835d      	strh	r5, [r3, #26]
 8001f14:	835c      	strh	r4, [r3, #26]
 8001f16:	8358      	strh	r0, [r3, #26]
 8001f18:	8351      	strh	r1, [r2, #26]
 8001f1a:	e7fe      	b.n	8001f1a <panic_handler+0x2a>
 8001f1c:	2000081c 	.word	0x2000081c
 8001f20:	40020c00 	.word	0x40020c00
 8001f24:	40020400 	.word	0x40020400
	...

08001f30 <get_selector>:
 8001f30:	b530      	push	{r4, r5, lr}
 8001f32:	4c10      	ldr	r4, [pc, #64]	; (8001f74 <get_selector+0x44>)
 8001f34:	4b10      	ldr	r3, [pc, #64]	; (8001f78 <get_selector+0x48>)
 8001f36:	6822      	ldr	r2, [r4, #0]
 8001f38:	4910      	ldr	r1, [pc, #64]	; (8001f7c <get_selector+0x4c>)
 8001f3a:	b083      	sub	sp, #12
 8001f3c:	9201      	str	r2, [sp, #4]
 8001f3e:	6918      	ldr	r0, [r3, #16]
 8001f40:	691a      	ldr	r2, [r3, #16]
 8001f42:	6909      	ldr	r1, [r1, #16]
 8001f44:	691b      	ldr	r3, [r3, #16]
 8001f46:	9d01      	ldr	r5, [sp, #4]
 8001f48:	6824      	ldr	r4, [r4, #0]
 8001f4a:	f3c2 32c0 	ubfx	r2, r2, #15, #1
 8001f4e:	f3c1 1100 	ubfx	r1, r1, #4, #1
 8001f52:	eb02 0241 	add.w	r2, r2, r1, lsl #1
 8001f56:	f3c3 3380 	ubfx	r3, r3, #14, #1
 8001f5a:	f3c0 3040 	ubfx	r0, r0, #13, #1
 8001f5e:	eb03 0342 	add.w	r3, r3, r2, lsl #1
 8001f62:	42a5      	cmp	r5, r4
 8001f64:	eb00 0043 	add.w	r0, r0, r3, lsl #1
 8001f68:	d101      	bne.n	8001f6e <get_selector+0x3e>
 8001f6a:	b003      	add	sp, #12
 8001f6c:	bd30      	pop	{r4, r5, pc}
 8001f6e:	f7ff f9cf 	bl	8001310 <__stack_chk_fail>
 8001f72:	bf00      	nop
 8001f74:	2000081c 	.word	0x2000081c
 8001f78:	40020800 	.word	0x40020800
 8001f7c:	40020c00 	.word	0x40020c00

08001f80 <imu_reader_thd>:
 8001f80:	e92d 4ff0 	stmdb	sp!, {r4, r5, r6, r7, r8, r9, sl, fp, lr}
 8001f84:	4c7d      	ldr	r4, [pc, #500]	; (800217c <imu_reader_thd+0x1fc>)
 8001f86:	4a7e      	ldr	r2, [pc, #504]	; (8002180 <imu_reader_thd+0x200>)
 8001f88:	69a3      	ldr	r3, [r4, #24]
 8001f8a:	487e      	ldr	r0, [pc, #504]	; (8002184 <imu_reader_thd+0x204>)
 8001f8c:	619a      	str	r2, [r3, #24]
 8001f8e:	4a7e      	ldr	r2, [pc, #504]	; (8002188 <imu_reader_thd+0x208>)
 8001f90:	b0af      	sub	sp, #188	; 0xbc
 8001f92:	2301      	movs	r3, #1
 8001f94:	6812      	ldr	r2, [r2, #0]
 8001f96:	922d      	str	r2, [sp, #180]	; 0xb4
 8001f98:	a90c      	add	r1, sp, #48	; 0x30
 8001f9a:	461a      	mov	r2, r3
 8001f9c:	f002 f998 	bl	80042d0 <chEvtRegisterMaskWithFlags>
 8001fa0:	ad11      	add	r5, sp, #68	; 0x44
 8001fa2:	ab0a      	add	r3, sp, #40	; 0x28
 8001fa4:	2250      	movs	r2, #80	; 0x50
 8001fa6:	4629      	mov	r1, r5
 8001fa8:	9200      	str	r2, [sp, #0]
 8001faa:	a816      	add	r0, sp, #88	; 0x58
 8001fac:	461a      	mov	r2, r3
 8001fae:	e9cd 5511 	strd	r5, r5, [sp, #68]	; 0x44
 8001fb2:	e9cd 330a 	strd	r3, r3, [sp, #40]	; 0x28
 8001fb6:	2500      	movs	r5, #0
 8001fb8:	4b74      	ldr	r3, [pc, #464]	; (800218c <imu_reader_thd+0x20c>)
 8001fba:	9515      	str	r5, [sp, #84]	; 0x54
 8001fbc:	e9cd 5513 	strd	r5, r5, [sp, #76]	; 0x4c
 8001fc0:	f000 fcae 	bl	8002920 <messagebus_topic_init>
 8001fc4:	a916      	add	r1, sp, #88	; 0x58
 8001fc6:	4a72      	ldr	r2, [pc, #456]	; (8002190 <imu_reader_thd+0x210>)
 8001fc8:	4872      	ldr	r0, [pc, #456]	; (8002194 <imu_reader_thd+0x214>)
 8001fca:	f000 fcc9 	bl	8002960 <messagebus_advertise_topic>
 8001fce:	69a3      	ldr	r3, [r4, #24]
 8001fd0:	f893 6021 	ldrb.w	r6, [r3, #33]	; 0x21
 8001fd4:	f016 0604 	ands.w	r6, r6, #4
 8001fd8:	f040 8083 	bne.w	80020e2 <imu_reader_thd+0x162>
 8001fdc:	4f6b      	ldr	r7, [pc, #428]	; (800218c <imu_reader_thd+0x20c>)
 8001fde:	f8df b1e0 	ldr.w	fp, [pc, #480]	; 80021c0 <imu_reader_thd+0x240>
 8001fe2:	f8df 91e0 	ldr.w	r9, [pc, #480]	; 80021c4 <imu_reader_thd+0x244>
 8001fe6:	f8df 81e0 	ldr.w	r8, [pc, #480]	; 80021c8 <imu_reader_thd+0x248>
 8001fea:	f107 0334 	add.w	r3, r7, #52	; 0x34
 8001fee:	46b2      	mov	sl, r6
 8001ff0:	e9cd 6607 	strd	r6, r6, [sp, #28]
 8001ff4:	9309      	str	r3, [sp, #36]	; 0x24
 8001ff6:	e03f      	b.n	8002078 <imu_reader_thd+0xf8>
 8001ff8:	2250      	movs	r2, #80	; 0x50
 8001ffa:	4964      	ldr	r1, [pc, #400]	; (800218c <imu_reader_thd+0x20c>)
 8001ffc:	a816      	add	r0, sp, #88	; 0x58
 8001ffe:	f000 fcdf 	bl	80029c0 <messagebus_topic_publish>
 8002002:	f899 3000 	ldrb.w	r3, [r9]
 8002006:	b1b3      	cbz	r3, 8002036 <imu_reader_thd+0xb6>
 8002008:	4a63      	ldr	r2, [pc, #396]	; (8002198 <imu_reader_thd+0x218>)
 800200a:	7813      	ldrb	r3, [r2, #0]
 800200c:	2b00      	cmp	r3, #0
 800200e:	d070      	beq.n	80020f2 <imu_reader_thd+0x172>
 8002010:	2b01      	cmp	r3, #1
 8002012:	d110      	bne.n	8002036 <imu_reader_thd+0xb6>
 8002014:	4b61      	ldr	r3, [pc, #388]	; (800219c <imu_reader_thd+0x21c>)
 8002016:	9807      	ldr	r0, [sp, #28]
 8002018:	781b      	ldrb	r3, [r3, #0]
 800201a:	4a61      	ldr	r2, [pc, #388]	; (80021a0 <imu_reader_thd+0x220>)
 800201c:	f103 0114 	add.w	r1, r3, #20
 8002020:	7812      	ldrb	r2, [r2, #0]
 8002022:	f937 c011 	ldrsh.w	ip, [r7, r1, lsl #1]
 8002026:	9908      	ldr	r1, [sp, #32]
 8002028:	3001      	adds	r0, #1
 800202a:	b2c0      	uxtb	r0, r0
 800202c:	4461      	add	r1, ip
 800202e:	4282      	cmp	r2, r0
 8002030:	9007      	str	r0, [sp, #28]
 8002032:	9108      	str	r1, [sp, #32]
 8002034:	d071      	beq.n	800211a <imu_reader_thd+0x19a>
 8002036:	f898 3000 	ldrb.w	r3, [r8]
 800203a:	b1a3      	cbz	r3, 8002066 <imu_reader_thd+0xe6>
 800203c:	4a59      	ldr	r2, [pc, #356]	; (80021a4 <imu_reader_thd+0x224>)
 800203e:	7813      	ldrb	r3, [r2, #0]
 8002040:	2b00      	cmp	r3, #0
 8002042:	d060      	beq.n	8002106 <imu_reader_thd+0x186>
 8002044:	2b01      	cmp	r3, #1
 8002046:	d10e      	bne.n	8002066 <imu_reader_thd+0xe6>
 8002048:	4b57      	ldr	r3, [pc, #348]	; (80021a8 <imu_reader_thd+0x228>)
 800204a:	4a58      	ldr	r2, [pc, #352]	; (80021ac <imu_reader_thd+0x22c>)
 800204c:	781b      	ldrb	r3, [r3, #0]
 800204e:	7812      	ldrb	r2, [r2, #0]
 8002050:	eb07 0143 	add.w	r1, r7, r3, lsl #1
 8002054:	f10a 0a01 	add.w	sl, sl, #1
 8002058:	f9b1 102e 	ldrsh.w	r1, [r1, #46]	; 0x2e
 800205c:	fa5f fa8a 	uxtb.w	sl, sl
 8002060:	4552      	cmp	r2, sl
 8002062:	440e      	add	r6, r1
 8002064:	d072      	beq.n	800214c <imu_reader_thd+0x1cc>
 8002066:	1d29      	adds	r1, r5, #4
 8002068:	4628      	mov	r0, r5
 800206a:	f001 fc09 	bl	8003880 <chThdSleepUntilWindowed>
 800206e:	69a3      	ldr	r3, [r4, #24]
 8002070:	f893 3021 	ldrb.w	r3, [r3, #33]	; 0x21
 8002074:	075b      	lsls	r3, r3, #29
 8002076:	d434      	bmi.n	80020e2 <imu_reader_thd+0x162>
 8002078:	2320      	movs	r3, #32
 800207a:	f383 8811 	msr	BASEPRI, r3
 800207e:	f001 fec7 	bl	8003e10 <_stats_start_measure_crit_thd>
 8002082:	f000 fe55 	bl	8002d30 <_dbg_check_lock>
 8002086:	6aa5      	ldr	r5, [r4, #40]	; 0x28
 8002088:	f000 fe72 	bl	8002d70 <_dbg_check_unlock>
 800208c:	f001 fed8 	bl	8003e40 <_stats_stop_measure_crit_thd>
 8002090:	6823      	ldr	r3, [r4, #0]
 8002092:	42a3      	cmp	r3, r4
 8002094:	d007      	beq.n	80020a6 <imu_reader_thd+0x126>
 8002096:	69a2      	ldr	r2, [r4, #24]
 8002098:	689b      	ldr	r3, [r3, #8]
 800209a:	6892      	ldr	r2, [r2, #8]
 800209c:	429a      	cmp	r2, r3
 800209e:	d202      	bcs.n	80020a6 <imu_reader_thd+0x126>
 80020a0:	4843      	ldr	r0, [pc, #268]	; (80021b0 <imu_reader_thd+0x230>)
 80020a2:	f000 fda5 	bl	8002bf0 <chSysHalt>
 80020a6:	2300      	movs	r3, #0
 80020a8:	f383 8811 	msr	BASEPRI, r3
 80020ac:	f89b 3000 	ldrb.w	r3, [fp]
 80020b0:	2b00      	cmp	r3, #0
 80020b2:	d0a1      	beq.n	8001ff8 <imu_reader_thd+0x78>
 80020b4:	483f      	ldr	r0, [pc, #252]	; (80021b4 <imu_reader_thd+0x234>)
 80020b6:	9909      	ldr	r1, [sp, #36]	; 0x24
 80020b8:	f100 0312 	add.w	r3, r0, #18
 80020bc:	f1a0 0212 	sub.w	r2, r0, #18
 80020c0:	9304      	str	r3, [sp, #16]
 80020c2:	f1a0 030c 	sub.w	r3, r0, #12
 80020c6:	e9cd 0102 	strd	r0, r1, [sp, #8]
 80020ca:	e9cd 3200 	strd	r3, r2, [sp]
 80020ce:	f1a0 013a 	sub.w	r1, r0, #58	; 0x3a
 80020d2:	f1a0 031e 	sub.w	r3, r0, #30
 80020d6:	f1a0 0222 	sub.w	r2, r0, #34	; 0x22
 80020da:	382e      	subs	r0, #46	; 0x2e
 80020dc:	f000 fa40 	bl	8002560 <mpu9250_read>
 80020e0:	e78a      	b.n	8001ff8 <imu_reader_thd+0x78>
 80020e2:	4b29      	ldr	r3, [pc, #164]	; (8002188 <imu_reader_thd+0x208>)
 80020e4:	9a2d      	ldr	r2, [sp, #180]	; 0xb4
 80020e6:	681b      	ldr	r3, [r3, #0]
 80020e8:	429a      	cmp	r2, r3
 80020ea:	d145      	bne.n	8002178 <imu_reader_thd+0x1f8>
 80020ec:	b02f      	add	sp, #188	; 0xbc
 80020ee:	e8bd 8ff0 	ldmia.w	sp!, {r4, r5, r6, r7, r8, r9, sl, fp, pc}
 80020f2:	492a      	ldr	r1, [pc, #168]	; (800219c <imu_reader_thd+0x21c>)
 80020f4:	9308      	str	r3, [sp, #32]
 80020f6:	7809      	ldrb	r1, [r1, #0]
 80020f8:	9307      	str	r3, [sp, #28]
 80020fa:	eb07 0141 	add.w	r1, r7, r1, lsl #1
 80020fe:	2001      	movs	r0, #1
 8002100:	868b      	strh	r3, [r1, #52]	; 0x34
 8002102:	7010      	strb	r0, [r2, #0]
 8002104:	e797      	b.n	8002036 <imu_reader_thd+0xb6>
 8002106:	4928      	ldr	r1, [pc, #160]	; (80021a8 <imu_reader_thd+0x228>)
 8002108:	7809      	ldrb	r1, [r1, #0]
 800210a:	eb07 0141 	add.w	r1, r7, r1, lsl #1
 800210e:	2001      	movs	r0, #1
 8002110:	461e      	mov	r6, r3
 8002112:	874b      	strh	r3, [r1, #58]	; 0x3a
 8002114:	469a      	mov	sl, r3
 8002116:	7010      	strb	r0, [r2, #0]
 8002118:	e7a5      	b.n	8002066 <imu_reader_thd+0xe6>
 800211a:	460a      	mov	r2, r1
 800211c:	fb92 f2f0 	sdiv	r2, r2, r0
 8002120:	4825      	ldr	r0, [pc, #148]	; (80021b8 <imu_reader_thd+0x238>)
 8002122:	f890 e000 	ldrb.w	lr, [r0]
 8002126:	f103 0120 	add.w	r1, r3, #32
 800212a:	b212      	sxth	r2, r2
 800212c:	f04f 0c00 	mov.w	ip, #0
 8002130:	f1be 0f01 	cmp.w	lr, #1
 8002134:	f827 2011 	strh.w	r2, [r7, r1, lsl #1]
 8002138:	f889 c000 	strb.w	ip, [r9]
 800213c:	f47f af7b 	bne.w	8002036 <imu_reader_thd+0xb6>
 8002140:	eb07 0343 	add.w	r3, r7, r3, lsl #1
 8002144:	f880 c000 	strb.w	ip, [r0]
 8002148:	869a      	strh	r2, [r3, #52]	; 0x34
 800214a:	e774      	b.n	8002036 <imu_reader_thd+0xb6>
 800214c:	481b      	ldr	r0, [pc, #108]	; (80021bc <imu_reader_thd+0x23c>)
 800214e:	fb96 f2fa 	sdiv	r2, r6, sl
 8002152:	f890 e000 	ldrb.w	lr, [r0]
 8002156:	eb07 0143 	add.w	r1, r7, r3, lsl #1
 800215a:	b212      	sxth	r2, r2
 800215c:	f04f 0c00 	mov.w	ip, #0
 8002160:	f1be 0f01 	cmp.w	lr, #1
 8002164:	f8a1 2046 	strh.w	r2, [r1, #70]	; 0x46
 8002168:	f888 c000 	strb.w	ip, [r8]
 800216c:	f47f af7b 	bne.w	8002066 <imu_reader_thd+0xe6>
 8002170:	f880 c000 	strb.w	ip, [r0]
 8002174:	874a      	strh	r2, [r1, #58]	; 0x3a
 8002176:	e776      	b.n	8002066 <imu_reader_thd+0xe6>
 8002178:	f7ff f8ca 	bl	8001310 <__stack_chk_fail>
 800217c:	200018b0 	.word	0x200018b0
 8002180:	0800d5c0 	.word	0x0800d5c0
 8002184:	20001424 	.word	0x20001424
 8002188:	2000081c 	.word	0x2000081c
 800218c:	20001848 	.word	0x20001848
 8002190:	0800d5e0 	.word	0x0800d5e0
 8002194:	200011f0 	.word	0x200011f0
 8002198:	200014b9 	.word	0x200014b9
 800219c:	200014ba 	.word	0x200014ba
 80021a0:	200014bc 	.word	0x200014bc
 80021a4:	200014be 	.word	0x200014be
 80021a8:	200014bf 	.word	0x200014bf
 80021ac:	200014c1 	.word	0x200014c1
 80021b0:	0800d5d0 	.word	0x0800d5d0
 80021b4:	20001882 	.word	0x20001882
 80021b8:	200014bb 	.word	0x200014bb
 80021bc:	200014c0 	.word	0x200014c0
 80021c0:	200014c8 	.word	0x200014c8
 80021c4:	200014b8 	.word	0x200014b8
 80021c8:	200014bd 	.word	0x200014bd
 80021cc:	00000000 	.word	0x00000000

080021d0 <get_acc_filtered.part.0>:
 80021d0:	b570      	push	{r4, r5, r6, lr}
 80021d2:	4b12      	ldr	r3, [pc, #72]	; (800221c <get_acc_filtered.part.0+0x4c>)
 80021d4:	4e12      	ldr	r6, [pc, #72]	; (8002220 <get_acc_filtered.part.0+0x50>)
 80021d6:	781b      	ldrb	r3, [r3, #0]
 80021d8:	6832      	ldr	r2, [r6, #0]
 80021da:	b082      	sub	sp, #8
 80021dc:	4604      	mov	r4, r0
 80021de:	9201      	str	r2, [sp, #4]
 80021e0:	b17b      	cbz	r3, 8002202 <get_acc_filtered.part.0+0x32>
 80021e2:	4810      	ldr	r0, [pc, #64]	; (8002224 <get_acc_filtered.part.0+0x54>)
 80021e4:	4a10      	ldr	r2, [pc, #64]	; (8002228 <get_acc_filtered.part.0+0x58>)
 80021e6:	4d11      	ldr	r5, [pc, #68]	; (800222c <get_acc_filtered.part.0+0x5c>)
 80021e8:	4b11      	ldr	r3, [pc, #68]	; (8002230 <get_acc_filtered.part.0+0x60>)
 80021ea:	7004      	strb	r4, [r0, #0]
 80021ec:	2000      	movs	r0, #0
 80021ee:	7010      	strb	r0, [r2, #0]
 80021f0:	2201      	movs	r2, #1
 80021f2:	702a      	strb	r2, [r5, #0]
 80021f4:	7019      	strb	r1, [r3, #0]
 80021f6:	2014      	movs	r0, #20
 80021f8:	f001 fb02 	bl	8003800 <chThdSleep>
 80021fc:	782b      	ldrb	r3, [r5, #0]
 80021fe:	2b00      	cmp	r3, #0
 8002200:	d1f9      	bne.n	80021f6 <get_acc_filtered.part.0+0x26>
 8002202:	9a01      	ldr	r2, [sp, #4]
 8002204:	6833      	ldr	r3, [r6, #0]
 8002206:	490b      	ldr	r1, [pc, #44]	; (8002234 <get_acc_filtered.part.0+0x64>)
 8002208:	3420      	adds	r4, #32
 800220a:	429a      	cmp	r2, r3
 800220c:	f931 0014 	ldrsh.w	r0, [r1, r4, lsl #1]
 8002210:	d101      	bne.n	8002216 <get_acc_filtered.part.0+0x46>
 8002212:	b002      	add	sp, #8
 8002214:	bd70      	pop	{r4, r5, r6, pc}
 8002216:	f7ff f87b 	bl	8001310 <__stack_chk_fail>
 800221a:	bf00      	nop
 800221c:	200014c8 	.word	0x200014c8
 8002220:	2000081c 	.word	0x2000081c
 8002224:	200014ba 	.word	0x200014ba
 8002228:	200014b9 	.word	0x200014b9
 800222c:	200014b8 	.word	0x200014b8
 8002230:	200014bc 	.word	0x200014bc
 8002234:	20001848 	.word	0x20001848
	...

08002240 <get_gyro_filtered.part.1>:
 8002240:	b570      	push	{r4, r5, r6, lr}
 8002242:	4b12      	ldr	r3, [pc, #72]	; (800228c <get_gyro_filtered.part.1+0x4c>)
 8002244:	4d12      	ldr	r5, [pc, #72]	; (8002290 <get_gyro_filtered.part.1+0x50>)
 8002246:	781b      	ldrb	r3, [r3, #0]
 8002248:	682a      	ldr	r2, [r5, #0]
 800224a:	b082      	sub	sp, #8
 800224c:	4606      	mov	r6, r0
 800224e:	9201      	str	r2, [sp, #4]
 8002250:	b17b      	cbz	r3, 8002272 <get_gyro_filtered.part.1+0x32>
 8002252:	4810      	ldr	r0, [pc, #64]	; (8002294 <get_gyro_filtered.part.1+0x54>)
 8002254:	4a10      	ldr	r2, [pc, #64]	; (8002298 <get_gyro_filtered.part.1+0x58>)
 8002256:	4c11      	ldr	r4, [pc, #68]	; (800229c <get_gyro_filtered.part.1+0x5c>)
 8002258:	4b11      	ldr	r3, [pc, #68]	; (80022a0 <get_gyro_filtered.part.1+0x60>)
 800225a:	7006      	strb	r6, [r0, #0]
 800225c:	2000      	movs	r0, #0
 800225e:	7010      	strb	r0, [r2, #0]
 8002260:	2201      	movs	r2, #1
 8002262:	7022      	strb	r2, [r4, #0]
 8002264:	7019      	strb	r1, [r3, #0]
 8002266:	2014      	movs	r0, #20
 8002268:	f001 faca 	bl	8003800 <chThdSleep>
 800226c:	7823      	ldrb	r3, [r4, #0]
 800226e:	2b00      	cmp	r3, #0
 8002270:	d1f9      	bne.n	8002266 <get_gyro_filtered.part.1+0x26>
 8002272:	480c      	ldr	r0, [pc, #48]	; (80022a4 <get_gyro_filtered.part.1+0x64>)
 8002274:	9a01      	ldr	r2, [sp, #4]
 8002276:	682b      	ldr	r3, [r5, #0]
 8002278:	eb00 0046 	add.w	r0, r0, r6, lsl #1
 800227c:	429a      	cmp	r2, r3
 800227e:	f9b0 0046 	ldrsh.w	r0, [r0, #70]	; 0x46
 8002282:	d101      	bne.n	8002288 <get_gyro_filtered.part.1+0x48>
 8002284:	b002      	add	sp, #8
 8002286:	bd70      	pop	{r4, r5, r6, pc}
 8002288:	f7ff f842 	bl	8001310 <__stack_chk_fail>
 800228c:	200014c8 	.word	0x200014c8
 8002290:	2000081c 	.word	0x2000081c
 8002294:	200014bf 	.word	0x200014bf
 8002298:	200014be 	.word	0x200014be
 800229c:	200014bd 	.word	0x200014bd
 80022a0:	200014c1 	.word	0x200014c1
 80022a4:	20001848 	.word	0x20001848
	...

080022b0 <imu_start>:
 80022b0:	b530      	push	{r4, r5, lr}
 80022b2:	4d12      	ldr	r5, [pc, #72]	; (80022fc <imu_start+0x4c>)
 80022b4:	4c12      	ldr	r4, [pc, #72]	; (8002300 <imu_start+0x50>)
 80022b6:	782b      	ldrb	r3, [r5, #0]
 80022b8:	6822      	ldr	r2, [r4, #0]
 80022ba:	b085      	sub	sp, #20
 80022bc:	9203      	str	r2, [sp, #12]
 80022be:	b12b      	cbz	r3, 80022cc <imu_start+0x1c>
 80022c0:	9a03      	ldr	r2, [sp, #12]
 80022c2:	6823      	ldr	r3, [r4, #0]
 80022c4:	429a      	cmp	r2, r3
 80022c6:	d116      	bne.n	80022f6 <imu_start+0x46>
 80022c8:	b005      	add	sp, #20
 80022ca:	bd30      	pop	{r4, r5, pc}
 80022cc:	f7ff fb50 	bl	8001970 <i2c_start>
 80022d0:	f44f 40c8 	mov.w	r0, #25600	; 0x6400
 80022d4:	f000 f89c 	bl	8002410 <mpu9250_setup>
 80022d8:	b908      	cbnz	r0, 80022de <imu_start+0x2e>
 80022da:	2301      	movs	r3, #1
 80022dc:	702b      	strb	r3, [r5, #0]
 80022de:	2300      	movs	r3, #0
 80022e0:	9300      	str	r3, [sp, #0]
 80022e2:	4808      	ldr	r0, [pc, #32]	; (8002304 <imu_start+0x54>)
 80022e4:	4b08      	ldr	r3, [pc, #32]	; (8002308 <imu_start+0x58>)
 80022e6:	2240      	movs	r2, #64	; 0x40
 80022e8:	f44f 715e 	mov.w	r1, #888	; 0x378
 80022ec:	f001 f9f8 	bl	80036e0 <chThdCreateStatic>
 80022f0:	4b06      	ldr	r3, [pc, #24]	; (800230c <imu_start+0x5c>)
 80022f2:	6018      	str	r0, [r3, #0]
 80022f4:	e7e4      	b.n	80022c0 <imu_start+0x10>
 80022f6:	f7ff f80b 	bl	8001310 <__stack_chk_fail>
 80022fa:	bf00      	nop
 80022fc:	200014c8 	.word	0x200014c8
 8002300:	2000081c 	.word	0x2000081c
 8002304:	200014d0 	.word	0x200014d0
 8002308:	08001f81 	.word	0x08001f81
 800230c:	200014c4 	.word	0x200014c4

08002310 <get_acc_all>:
 8002310:	b510      	push	{r4, lr}
 8002312:	4b0b      	ldr	r3, [pc, #44]	; (8002340 <get_acc_all+0x30>)
 8002314:	4a0b      	ldr	r2, [pc, #44]	; (8002344 <get_acc_all+0x34>)
 8002316:	f9b3 4028 	ldrsh.w	r4, [r3, #40]	; 0x28
 800231a:	6811      	ldr	r1, [r2, #0]
 800231c:	8004      	strh	r4, [r0, #0]
 800231e:	b082      	sub	sp, #8
 8002320:	f9b3 402a 	ldrsh.w	r4, [r3, #42]	; 0x2a
 8002324:	9101      	str	r1, [sp, #4]
 8002326:	9901      	ldr	r1, [sp, #4]
 8002328:	6812      	ldr	r2, [r2, #0]
 800232a:	8044      	strh	r4, [r0, #2]
 800232c:	f9b3 302c 	ldrsh.w	r3, [r3, #44]	; 0x2c
 8002330:	8083      	strh	r3, [r0, #4]
 8002332:	4291      	cmp	r1, r2
 8002334:	d101      	bne.n	800233a <get_acc_all+0x2a>
 8002336:	b002      	add	sp, #8
 8002338:	bd10      	pop	{r4, pc}
 800233a:	f7fe ffe9 	bl	8001310 <__stack_chk_fail>
 800233e:	bf00      	nop
 8002340:	20001848 	.word	0x20001848
 8002344:	2000081c 	.word	0x2000081c
	...

08002350 <calibrate_acc>:
 8002350:	b570      	push	{r4, r5, r6, lr}
 8002352:	4b11      	ldr	r3, [pc, #68]	; (8002398 <calibrate_acc+0x48>)
 8002354:	4c11      	ldr	r4, [pc, #68]	; (800239c <calibrate_acc+0x4c>)
 8002356:	781b      	ldrb	r3, [r3, #0]
 8002358:	6822      	ldr	r2, [r4, #0]
 800235a:	b082      	sub	sp, #8
 800235c:	9201      	str	r2, [sp, #4]
 800235e:	b193      	cbz	r3, 8002386 <calibrate_acc+0x36>
 8002360:	4d0f      	ldr	r5, [pc, #60]	; (80023a0 <calibrate_acc+0x50>)
 8002362:	2601      	movs	r6, #1
 8002364:	2132      	movs	r1, #50	; 0x32
 8002366:	2000      	movs	r0, #0
 8002368:	702e      	strb	r6, [r5, #0]
 800236a:	f7ff ff31 	bl	80021d0 <get_acc_filtered.part.0>
 800236e:	2132      	movs	r1, #50	; 0x32
 8002370:	4630      	mov	r0, r6
 8002372:	702e      	strb	r6, [r5, #0]
 8002374:	f7ff ff2c 	bl	80021d0 <get_acc_filtered.part.0>
 8002378:	2132      	movs	r1, #50	; 0x32
 800237a:	2002      	movs	r0, #2
 800237c:	702e      	strb	r6, [r5, #0]
 800237e:	f7ff ff27 	bl	80021d0 <get_acc_filtered.part.0>
 8002382:	2300      	movs	r3, #0
 8002384:	702b      	strb	r3, [r5, #0]
 8002386:	9a01      	ldr	r2, [sp, #4]
 8002388:	6823      	ldr	r3, [r4, #0]
 800238a:	429a      	cmp	r2, r3
 800238c:	d101      	bne.n	8002392 <calibrate_acc+0x42>
 800238e:	b002      	add	sp, #8
 8002390:	bd70      	pop	{r4, r5, r6, pc}
 8002392:	f7fe ffbd 	bl	8001310 <__stack_chk_fail>
 8002396:	bf00      	nop
 8002398:	200014c8 	.word	0x200014c8
 800239c:	2000081c 	.word	0x2000081c
 80023a0:	200014bb 	.word	0x200014bb
	...

080023b0 <calibrate_gyro>:
 80023b0:	b570      	push	{r4, r5, r6, lr}
 80023b2:	4b11      	ldr	r3, [pc, #68]	; (80023f8 <calibrate_gyro+0x48>)
 80023b4:	4c11      	ldr	r4, [pc, #68]	; (80023fc <calibrate_gyro+0x4c>)
 80023b6:	781b      	ldrb	r3, [r3, #0]
 80023b8:	6822      	ldr	r2, [r4, #0]
 80023ba:	b082      	sub	sp, #8
 80023bc:	9201      	str	r2, [sp, #4]
 80023be:	b193      	cbz	r3, 80023e6 <calibrate_gyro+0x36>
 80023c0:	4d0f      	ldr	r5, [pc, #60]	; (8002400 <calibrate_gyro+0x50>)
 80023c2:	2601      	movs	r6, #1
 80023c4:	2132      	movs	r1, #50	; 0x32
 80023c6:	2000      	movs	r0, #0
 80023c8:	702e      	strb	r6, [r5, #0]
 80023ca:	f7ff ff39 	bl	8002240 <get_gyro_filtered.part.1>
 80023ce:	2132      	movs	r1, #50	; 0x32
 80023d0:	4630      	mov	r0, r6
 80023d2:	702e      	strb	r6, [r5, #0]
 80023d4:	f7ff ff34 	bl	8002240 <get_gyro_filtered.part.1>
 80023d8:	2132      	movs	r1, #50	; 0x32
 80023da:	2002      	movs	r0, #2
 80023dc:	702e      	strb	r6, [r5, #0]
 80023de:	f7ff ff2f 	bl	8002240 <get_gyro_filtered.part.1>
 80023e2:	2300      	movs	r3, #0
 80023e4:	702b      	strb	r3, [r5, #0]
 80023e6:	9a01      	ldr	r2, [sp, #4]
 80023e8:	6823      	ldr	r3, [r4, #0]
 80023ea:	429a      	cmp	r2, r3
 80023ec:	d101      	bne.n	80023f2 <calibrate_gyro+0x42>
 80023ee:	b002      	add	sp, #8
 80023f0:	bd70      	pop	{r4, r5, r6, pc}
 80023f2:	f7fe ff8d 	bl	8001310 <__stack_chk_fail>
 80023f6:	bf00      	nop
 80023f8:	200014c8 	.word	0x200014c8
 80023fc:	2000081c 	.word	0x2000081c
 8002400:	200014c0 	.word	0x200014c0
	...

08002410 <mpu9250_setup>:
 8002410:	b5f0      	push	{r4, r5, r6, r7, lr}
 8002412:	4d50      	ldr	r5, [pc, #320]	; (8002554 <mpu9250_setup+0x144>)
 8002414:	4c50      	ldr	r4, [pc, #320]	; (8002558 <mpu9250_setup+0x148>)
 8002416:	682b      	ldr	r3, [r5, #0]
 8002418:	b083      	sub	sp, #12
 800241a:	4607      	mov	r7, r0
 800241c:	9301      	str	r3, [sp, #4]
 800241e:	7820      	ldrb	r0, [r4, #0]
 8002420:	2300      	movs	r3, #0
 8002422:	2280      	movs	r2, #128	; 0x80
 8002424:	216b      	movs	r1, #107	; 0x6b
 8002426:	f88d 3003 	strb.w	r3, [sp, #3]
 800242a:	f7ff fb11 	bl	8001a50 <write_reg>
 800242e:	b158      	cbz	r0, 8002448 <mpu9250_setup+0x38>
 8002430:	7823      	ldrb	r3, [r4, #0]
 8002432:	2b68      	cmp	r3, #104	; 0x68
 8002434:	bf0c      	ite	eq
 8002436:	2069      	moveq	r0, #105	; 0x69
 8002438:	2068      	movne	r0, #104	; 0x68
 800243a:	2280      	movs	r2, #128	; 0x80
 800243c:	216b      	movs	r1, #107	; 0x6b
 800243e:	7020      	strb	r0, [r4, #0]
 8002440:	f7ff fb06 	bl	8001a50 <write_reg>
 8002444:	2800      	cmp	r0, #0
 8002446:	d17c      	bne.n	8002542 <mpu9250_setup+0x132>
 8002448:	2001      	movs	r0, #1
 800244a:	f001 f9d9 	bl	8003800 <chThdSleep>
 800244e:	2668      	movs	r6, #104	; 0x68
 8002450:	e002      	b.n	8002458 <mpu9250_setup+0x48>
 8002452:	2001      	movs	r0, #1
 8002454:	f001 f9d4 	bl	8003800 <chThdSleep>
 8002458:	f10d 0203 	add.w	r2, sp, #3
 800245c:	216b      	movs	r1, #107	; 0x6b
 800245e:	7820      	ldrb	r0, [r4, #0]
 8002460:	f7ff faa6 	bl	80019b0 <read_reg>
 8002464:	b178      	cbz	r0, 8002486 <mpu9250_setup+0x76>
 8002466:	7823      	ldrb	r3, [r4, #0]
 8002468:	2b68      	cmp	r3, #104	; 0x68
 800246a:	bf0c      	ite	eq
 800246c:	2069      	moveq	r0, #105	; 0x69
 800246e:	2068      	movne	r0, #104	; 0x68
 8002470:	f10d 0203 	add.w	r2, sp, #3
 8002474:	f04f 016b 	mov.w	r1, #107	; 0x6b
 8002478:	bf0c      	ite	eq
 800247a:	7020      	strbeq	r0, [r4, #0]
 800247c:	7026      	strbne	r6, [r4, #0]
 800247e:	f7ff fa97 	bl	80019b0 <read_reg>
 8002482:	2800      	cmp	r0, #0
 8002484:	d15d      	bne.n	8002542 <mpu9250_setup+0x132>
 8002486:	f99d 3003 	ldrsb.w	r3, [sp, #3]
 800248a:	2b00      	cmp	r3, #0
 800248c:	dbe1      	blt.n	8002452 <mpu9250_setup+0x42>
 800248e:	007e      	lsls	r6, r7, #1
 8002490:	f006 0618 	and.w	r6, r6, #24
 8002494:	4632      	mov	r2, r6
 8002496:	211b      	movs	r1, #27
 8002498:	7820      	ldrb	r0, [r4, #0]
 800249a:	f7ff fad9 	bl	8001a50 <write_reg>
 800249e:	b158      	cbz	r0, 80024b8 <mpu9250_setup+0xa8>
 80024a0:	7823      	ldrb	r3, [r4, #0]
 80024a2:	2b68      	cmp	r3, #104	; 0x68
 80024a4:	bf0c      	ite	eq
 80024a6:	2069      	moveq	r0, #105	; 0x69
 80024a8:	2068      	movne	r0, #104	; 0x68
 80024aa:	4632      	mov	r2, r6
 80024ac:	211b      	movs	r1, #27
 80024ae:	7020      	strb	r0, [r4, #0]
 80024b0:	f7ff face 	bl	8001a50 <write_reg>
 80024b4:	2800      	cmp	r0, #0
 80024b6:	d144      	bne.n	8002542 <mpu9250_setup+0x132>
 80024b8:	00fe      	lsls	r6, r7, #3
 80024ba:	2001      	movs	r0, #1
 80024bc:	f006 0618 	and.w	r6, r6, #24
 80024c0:	f001 f99e 	bl	8003800 <chThdSleep>
 80024c4:	4632      	mov	r2, r6
 80024c6:	211c      	movs	r1, #28
 80024c8:	7820      	ldrb	r0, [r4, #0]
 80024ca:	f7ff fac1 	bl	8001a50 <write_reg>
 80024ce:	b150      	cbz	r0, 80024e6 <mpu9250_setup+0xd6>
 80024d0:	7823      	ldrb	r3, [r4, #0]
 80024d2:	2b68      	cmp	r3, #104	; 0x68
 80024d4:	bf0c      	ite	eq
 80024d6:	2069      	moveq	r0, #105	; 0x69
 80024d8:	2068      	movne	r0, #104	; 0x68
 80024da:	4632      	mov	r2, r6
 80024dc:	211c      	movs	r1, #28
 80024de:	7020      	strb	r0, [r4, #0]
 80024e0:	f7ff fab6 	bl	8001a50 <write_reg>
 80024e4:	bb68      	cbnz	r0, 8002542 <mpu9250_setup+0x132>
 80024e6:	2001      	movs	r0, #1
 80024e8:	f3c7 2707 	ubfx	r7, r7, #8, #8
 80024ec:	f001 f988 	bl	8003800 <chThdSleep>
 80024f0:	463a      	mov	r2, r7
 80024f2:	2119      	movs	r1, #25
 80024f4:	7820      	ldrb	r0, [r4, #0]
 80024f6:	f7ff faab 	bl	8001a50 <write_reg>
 80024fa:	b150      	cbz	r0, 8002512 <mpu9250_setup+0x102>
 80024fc:	7823      	ldrb	r3, [r4, #0]
 80024fe:	2b68      	cmp	r3, #104	; 0x68
 8002500:	bf0c      	ite	eq
 8002502:	2069      	moveq	r0, #105	; 0x69
 8002504:	2068      	movne	r0, #104	; 0x68
 8002506:	463a      	mov	r2, r7
 8002508:	2119      	movs	r1, #25
 800250a:	7020      	strb	r0, [r4, #0]
 800250c:	f7ff faa0 	bl	8001a50 <write_reg>
 8002510:	b9b8      	cbnz	r0, 8002542 <mpu9250_setup+0x132>
 8002512:	2001      	movs	r0, #1
 8002514:	f001 f974 	bl	8003800 <chThdSleep>
 8002518:	2201      	movs	r2, #1
 800251a:	2138      	movs	r1, #56	; 0x38
 800251c:	7820      	ldrb	r0, [r4, #0]
 800251e:	f7ff fa97 	bl	8001a50 <write_reg>
 8002522:	b150      	cbz	r0, 800253a <mpu9250_setup+0x12a>
 8002524:	7823      	ldrb	r3, [r4, #0]
 8002526:	2b68      	cmp	r3, #104	; 0x68
 8002528:	bf0c      	ite	eq
 800252a:	2069      	moveq	r0, #105	; 0x69
 800252c:	2068      	movne	r0, #104	; 0x68
 800252e:	2201      	movs	r2, #1
 8002530:	2138      	movs	r1, #56	; 0x38
 8002532:	7020      	strb	r0, [r4, #0]
 8002534:	f7ff fa8c 	bl	8001a50 <write_reg>
 8002538:	b918      	cbnz	r0, 8002542 <mpu9250_setup+0x132>
 800253a:	2001      	movs	r0, #1
 800253c:	f001 f960 	bl	8003800 <chThdSleep>
 8002540:	2000      	movs	r0, #0
 8002542:	9a01      	ldr	r2, [sp, #4]
 8002544:	682b      	ldr	r3, [r5, #0]
 8002546:	429a      	cmp	r2, r3
 8002548:	d101      	bne.n	800254e <mpu9250_setup+0x13e>
 800254a:	b003      	add	sp, #12
 800254c:	bdf0      	pop	{r4, r5, r6, r7, pc}
 800254e:	f7fe fedf 	bl	8001310 <__stack_chk_fail>
 8002552:	bf00      	nop
 8002554:	2000081c 	.word	0x2000081c
 8002558:	2000082c 	.word	0x2000082c
 800255c:	00000000 	.word	0x00000000

08002560 <mpu9250_read>:
 8002560:	e92d 4ff0 	stmdb	sp!, {r4, r5, r6, r7, r8, r9, sl, fp, lr}
 8002564:	4f83      	ldr	r7, [pc, #524]	; (8002774 <mpu9250_read+0x214>)
 8002566:	f8df 822c 	ldr.w	r8, [pc, #556]	; 8002794 <mpu9250_read+0x234>
 800256a:	683c      	ldr	r4, [r7, #0]
 800256c:	b087      	sub	sp, #28
 800256e:	4605      	mov	r5, r0
 8002570:	9405      	str	r4, [sp, #20]
 8002572:	461c      	mov	r4, r3
 8002574:	9b10      	ldr	r3, [sp, #64]	; 0x40
 8002576:	9301      	str	r3, [sp, #4]
 8002578:	e9dd 9313 	ldrd	r9, r3, [sp, #76]	; 0x4c
 800257c:	460e      	mov	r6, r1
 800257e:	9203      	str	r2, [sp, #12]
 8002580:	9302      	str	r3, [sp, #8]
 8002582:	f898 0000 	ldrb.w	r0, [r8]
 8002586:	4a7c      	ldr	r2, [pc, #496]	; (8002778 <mpu9250_read+0x218>)
 8002588:	2316      	movs	r3, #22
 800258a:	213a      	movs	r1, #58	; 0x3a
 800258c:	e9dd ab11 	ldrd	sl, fp, [sp, #68]	; 0x44
 8002590:	f7ff faae 	bl	8001af0 <read_reg_multi>
 8002594:	b178      	cbz	r0, 80025b6 <mpu9250_read+0x56>
 8002596:	f898 3000 	ldrb.w	r3, [r8]
 800259a:	4a77      	ldr	r2, [pc, #476]	; (8002778 <mpu9250_read+0x218>)
 800259c:	2b68      	cmp	r3, #104	; 0x68
 800259e:	bf0c      	ite	eq
 80025a0:	2069      	moveq	r0, #105	; 0x69
 80025a2:	2068      	movne	r0, #104	; 0x68
 80025a4:	2316      	movs	r3, #22
 80025a6:	213a      	movs	r1, #58	; 0x3a
 80025a8:	f888 0000 	strb.w	r0, [r8]
 80025ac:	f7ff faa0 	bl	8001af0 <read_reg_multi>
 80025b0:	2800      	cmp	r0, #0
 80025b2:	f040 80d4 	bne.w	800275e <mpu9250_read+0x1fe>
 80025b6:	9b02      	ldr	r3, [sp, #8]
 80025b8:	b11b      	cbz	r3, 80025c2 <mpu9250_read+0x62>
 80025ba:	4b6f      	ldr	r3, [pc, #444]	; (8002778 <mpu9250_read+0x218>)
 80025bc:	9a02      	ldr	r2, [sp, #8]
 80025be:	781b      	ldrb	r3, [r3, #0]
 80025c0:	7013      	strb	r3, [r2, #0]
 80025c2:	2e00      	cmp	r6, #0
 80025c4:	d04c      	beq.n	8002660 <mpu9250_read+0x100>
 80025c6:	486c      	ldr	r0, [pc, #432]	; (8002778 <mpu9250_read+0x218>)
 80025c8:	ed9f 5a6c 	vldr	s10, [pc, #432]	; 800277c <mpu9250_read+0x21c>
 80025cc:	f990 3001 	ldrsb.w	r3, [r0, #1]
 80025d0:	7881      	ldrb	r1, [r0, #2]
 80025d2:	eddf 5a6b 	vldr	s11, [pc, #428]	; 8002780 <mpu9250_read+0x220>
 80025d6:	ed9f 6a6b 	vldr	s12, [pc, #428]	; 8002784 <mpu9250_read+0x224>
 80025da:	ea41 2103 	orr.w	r1, r1, r3, lsl #8
 80025de:	4249      	negs	r1, r1
 80025e0:	b209      	sxth	r1, r1
 80025e2:	f8aa 1000 	strh.w	r1, [sl]
 80025e6:	7902      	ldrb	r2, [r0, #4]
 80025e8:	f990 3003 	ldrsb.w	r3, [r0, #3]
 80025ec:	ea42 2203 	orr.w	r2, r2, r3, lsl #8
 80025f0:	4252      	negs	r2, r2
 80025f2:	b212      	sxth	r2, r2
 80025f4:	f8aa 2002 	strh.w	r2, [sl, #2]
 80025f8:	f990 c005 	ldrsb.w	ip, [r0, #5]
 80025fc:	7983      	ldrb	r3, [r0, #6]
 80025fe:	ea43 230c 	orr.w	r3, r3, ip, lsl #8
 8002602:	425b      	negs	r3, r3
 8002604:	b21b      	sxth	r3, r3
 8002606:	f8aa 3004 	strh.w	r3, [sl, #4]
 800260a:	f9b9 e004 	ldrsh.w	lr, [r9, #4]
 800260e:	f9b9 c000 	ldrsh.w	ip, [r9]
 8002612:	f9b9 0002 	ldrsh.w	r0, [r9, #2]
 8002616:	eba3 030e 	sub.w	r3, r3, lr
 800261a:	ee07 3a90 	vmov	s15, r3
 800261e:	eba1 030c 	sub.w	r3, r1, ip
 8002622:	ee06 3a90 	vmov	s13, r3
 8002626:	1a13      	subs	r3, r2, r0
 8002628:	eef8 7ae7 	vcvt.f32.s32	s15, s15
 800262c:	ee07 3a10 	vmov	s14, r3
 8002630:	ee77 7ac5 	vsub.f32	s15, s15, s10
 8002634:	eef8 6ae6 	vcvt.f32.s32	s13, s13
 8002638:	eeb8 7ac7 	vcvt.f32.s32	s14, s14
 800263c:	ee67 7aa5 	vmul.f32	s15, s15, s11
 8002640:	ee66 6aa5 	vmul.f32	s13, s13, s11
 8002644:	ee27 7a25 	vmul.f32	s14, s14, s11
 8002648:	ee67 7a86 	vmul.f32	s15, s15, s12
 800264c:	ee66 6a86 	vmul.f32	s13, s13, s12
 8002650:	ee27 7a06 	vmul.f32	s14, s14, s12
 8002654:	edc6 7a02 	vstr	s15, [r6, #8]
 8002658:	edc6 6a00 	vstr	s13, [r6]
 800265c:	ed86 7a01 	vstr	s14, [r6, #4]
 8002660:	9803      	ldr	r0, [sp, #12]
 8002662:	b1a8      	cbz	r0, 8002690 <mpu9250_read+0x130>
 8002664:	4a44      	ldr	r2, [pc, #272]	; (8002778 <mpu9250_read+0x218>)
 8002666:	ed9f 6a48 	vldr	s12, [pc, #288]	; 8002788 <mpu9250_read+0x228>
 800266a:	f992 1007 	ldrsb.w	r1, [r2, #7]
 800266e:	7a13      	ldrb	r3, [r2, #8]
 8002670:	ea43 2301 	orr.w	r3, r3, r1, lsl #8
 8002674:	ee07 3a90 	vmov	s15, r3
 8002678:	eef8 7ae7 	vcvt.f32.s32	s15, s15
 800267c:	eef3 6a05 	vmov.f32	s13, #53	; 0x41a80000  21.0
 8002680:	ee77 7ae6 	vsub.f32	s15, s15, s13
 8002684:	ee87 7a86 	vdiv.f32	s14, s15, s12
 8002688:	ee77 7a26 	vadd.f32	s15, s14, s13
 800268c:	edc0 7a00 	vstr	s15, [r0]
 8002690:	2d00      	cmp	r5, #0
 8002692:	d038      	beq.n	8002706 <mpu9250_read+0x1a6>
 8002694:	4838      	ldr	r0, [pc, #224]	; (8002778 <mpu9250_read+0x218>)
 8002696:	9e01      	ldr	r6, [sp, #4]
 8002698:	f990 3009 	ldrsb.w	r3, [r0, #9]
 800269c:	7a81      	ldrb	r1, [r0, #10]
 800269e:	ed9f 6a3b 	vldr	s12, [pc, #236]	; 800278c <mpu9250_read+0x22c>
 80026a2:	ea41 2103 	orr.w	r1, r1, r3, lsl #8
 80026a6:	8031      	strh	r1, [r6, #0]
 80026a8:	f990 300b 	ldrsb.w	r3, [r0, #11]
 80026ac:	7b02      	ldrb	r2, [r0, #12]
 80026ae:	ea42 2203 	orr.w	r2, r2, r3, lsl #8
 80026b2:	8072      	strh	r2, [r6, #2]
 80026b4:	f990 600d 	ldrsb.w	r6, [r0, #13]
 80026b8:	7b83      	ldrb	r3, [r0, #14]
 80026ba:	ea43 2306 	orr.w	r3, r3, r6, lsl #8
 80026be:	9e01      	ldr	r6, [sp, #4]
 80026c0:	80b3      	strh	r3, [r6, #4]
 80026c2:	f9bb 6004 	ldrsh.w	r6, [fp, #4]
 80026c6:	f9bb c000 	ldrsh.w	ip, [fp]
 80026ca:	f9bb 0002 	ldrsh.w	r0, [fp, #2]
 80026ce:	1b9b      	subs	r3, r3, r6
 80026d0:	ee07 3a90 	vmov	s15, r3
 80026d4:	eba1 010c 	sub.w	r1, r1, ip
 80026d8:	1a13      	subs	r3, r2, r0
 80026da:	ee06 1a90 	vmov	s13, r1
 80026de:	ee07 3a10 	vmov	s14, r3
 80026e2:	eef8 6ae6 	vcvt.f32.s32	s13, s13
 80026e6:	eeb8 7ac7 	vcvt.f32.s32	s14, s14
 80026ea:	eef8 7ae7 	vcvt.f32.s32	s15, s15
 80026ee:	ee66 6a86 	vmul.f32	s13, s13, s12
 80026f2:	ee27 7a06 	vmul.f32	s14, s14, s12
 80026f6:	ee67 7a86 	vmul.f32	s15, s15, s12
 80026fa:	edc5 6a00 	vstr	s13, [r5]
 80026fe:	ed85 7a01 	vstr	s14, [r5, #4]
 8002702:	edc5 7a02 	vstr	s15, [r5, #8]
 8002706:	b38c      	cbz	r4, 800276c <mpu9250_read+0x20c>
 8002708:	4a1b      	ldr	r2, [pc, #108]	; (8002778 <mpu9250_read+0x218>)
 800270a:	eddf 6a21 	vldr	s13, [pc, #132]	; 8002790 <mpu9250_read+0x230>
 800270e:	f992 1010 	ldrsb.w	r1, [r2, #16]
 8002712:	7bd3      	ldrb	r3, [r2, #15]
 8002714:	ea43 2301 	orr.w	r3, r3, r1, lsl #8
 8002718:	ee07 3a10 	vmov	s14, r3
 800271c:	eeb8 7ac7 	vcvt.f32.s32	s14, s14
 8002720:	2000      	movs	r0, #0
 8002722:	ee27 7a26 	vmul.f32	s14, s14, s13
 8002726:	ed84 7a00 	vstr	s14, [r4]
 800272a:	f992 1012 	ldrsb.w	r1, [r2, #18]
 800272e:	7c53      	ldrb	r3, [r2, #17]
 8002730:	ea43 2301 	orr.w	r3, r3, r1, lsl #8
 8002734:	ee07 3a10 	vmov	s14, r3
 8002738:	eeb8 7ac7 	vcvt.f32.s32	s14, s14
 800273c:	ee27 7a26 	vmul.f32	s14, s14, s13
 8002740:	ed84 7a01 	vstr	s14, [r4, #4]
 8002744:	f992 1014 	ldrsb.w	r1, [r2, #20]
 8002748:	7cd3      	ldrb	r3, [r2, #19]
 800274a:	ea43 2301 	orr.w	r3, r3, r1, lsl #8
 800274e:	ee07 3a90 	vmov	s15, r3
 8002752:	eef8 7ae7 	vcvt.f32.s32	s15, s15
 8002756:	ee67 7aa6 	vmul.f32	s15, s15, s13
 800275a:	edc4 7a02 	vstr	s15, [r4, #8]
 800275e:	9a05      	ldr	r2, [sp, #20]
 8002760:	683b      	ldr	r3, [r7, #0]
 8002762:	429a      	cmp	r2, r3
 8002764:	d104      	bne.n	8002770 <mpu9250_read+0x210>
 8002766:	b007      	add	sp, #28
 8002768:	e8bd 8ff0 	ldmia.w	sp!, {r4, r5, r6, r7, r8, r9, sl, fp, pc}
 800276c:	4620      	mov	r0, r4
 800276e:	e7f6      	b.n	800275e <mpu9250_read+0x1fe>
 8002770:	f7fe fdce 	bl	8001310 <__stack_chk_fail>
 8002774:	2000081c 	.word	0x2000081c
 8002778:	20001898 	.word	0x20001898
 800277c:	46800000 	.word	0x46800000
 8002780:	411ce80a 	.word	0x411ce80a
 8002784:	38800000 	.word	0x38800000
 8002788:	43a6ef5c 	.word	0x43a6ef5c
 800278c:	390ba058 	.word	0x390ba058
 8002790:	3e160000 	.word	0x3e160000
 8002794:	2000082c 	.word	0x2000082c
	...

080027a0 <__malloc_lock>:
 80027a0:	b500      	push	{lr}
 80027a2:	4b08      	ldr	r3, [pc, #32]	; (80027c4 <__malloc_lock+0x24>)
 80027a4:	b083      	sub	sp, #12
 80027a6:	681a      	ldr	r2, [r3, #0]
 80027a8:	9201      	str	r2, [sp, #4]
 80027aa:	9a01      	ldr	r2, [sp, #4]
 80027ac:	681b      	ldr	r3, [r3, #0]
 80027ae:	429a      	cmp	r2, r3
 80027b0:	d105      	bne.n	80027be <__malloc_lock+0x1e>
 80027b2:	4805      	ldr	r0, [pc, #20]	; (80027c8 <__malloc_lock+0x28>)
 80027b4:	b003      	add	sp, #12
 80027b6:	f85d eb04 	ldr.w	lr, [sp], #4
 80027ba:	f001 bc69 	b.w	8004090 <chMtxLock>
 80027be:	f7fe fda7 	bl	8001310 <__stack_chk_fail>
 80027c2:	bf00      	nop
 80027c4:	2000081c 	.word	0x2000081c
 80027c8:	20000830 	.word	0x20000830
 80027cc:	00000000 	.word	0x00000000

080027d0 <__malloc_unlock>:
 80027d0:	b500      	push	{lr}
 80027d2:	4b08      	ldr	r3, [pc, #32]	; (80027f4 <__malloc_unlock+0x24>)
 80027d4:	b083      	sub	sp, #12
 80027d6:	681a      	ldr	r2, [r3, #0]
 80027d8:	9201      	str	r2, [sp, #4]
 80027da:	9a01      	ldr	r2, [sp, #4]
 80027dc:	681b      	ldr	r3, [r3, #0]
 80027de:	429a      	cmp	r2, r3
 80027e0:	d105      	bne.n	80027ee <__malloc_unlock+0x1e>
 80027e2:	4805      	ldr	r0, [pc, #20]	; (80027f8 <__malloc_unlock+0x28>)
 80027e4:	b003      	add	sp, #12
 80027e6:	f85d eb04 	ldr.w	lr, [sp], #4
 80027ea:	f001 bc89 	b.w	8004100 <chMtxUnlock>
 80027ee:	f7fe fd8f 	bl	8001310 <__stack_chk_fail>
 80027f2:	bf00      	nop
 80027f4:	2000081c 	.word	0x2000081c
 80027f8:	20000830 	.word	0x20000830
 80027fc:	00000000 	.word	0x00000000

08002800 <_sbrk_r>:
 8002800:	b570      	push	{r4, r5, r6, lr}
 8002802:	4c0d      	ldr	r4, [pc, #52]	; (8002838 <_sbrk_r+0x38>)
 8002804:	b082      	sub	sp, #8
 8002806:	6823      	ldr	r3, [r4, #0]
 8002808:	9301      	str	r3, [sp, #4]
 800280a:	1e0d      	subs	r5, r1, #0
 800280c:	4606      	mov	r6, r0
 800280e:	dd0d      	ble.n	800282c <_sbrk_r+0x2c>
 8002810:	4628      	mov	r0, r5
 8002812:	f002 f895 	bl	8004940 <chCoreAlloc>
 8002816:	b918      	cbnz	r0, 8002820 <_sbrk_r+0x20>
 8002818:	230c      	movs	r3, #12
 800281a:	6033      	str	r3, [r6, #0]
 800281c:	f04f 30ff 	mov.w	r0, #4294967295
 8002820:	9a01      	ldr	r2, [sp, #4]
 8002822:	6823      	ldr	r3, [r4, #0]
 8002824:	429a      	cmp	r2, r3
 8002826:	d105      	bne.n	8002834 <_sbrk_r+0x34>
 8002828:	b002      	add	sp, #8
 800282a:	bd70      	pop	{r4, r5, r6, pc}
 800282c:	4803      	ldr	r0, [pc, #12]	; (800283c <_sbrk_r+0x3c>)
 800282e:	f000 f9df 	bl	8002bf0 <chSysHalt>
 8002832:	e7ed      	b.n	8002810 <_sbrk_r+0x10>
 8002834:	f7fe fd6c 	bl	8001310 <__stack_chk_fail>
 8002838:	2000081c 	.word	0x2000081c
 800283c:	0800d5f0 	.word	0x0800d5f0

08002840 <_fini>:
 8002840:	b500      	push	{lr}
 8002842:	4b06      	ldr	r3, [pc, #24]	; (800285c <_fini+0x1c>)
 8002844:	b083      	sub	sp, #12
 8002846:	681a      	ldr	r2, [r3, #0]
 8002848:	9201      	str	r2, [sp, #4]
 800284a:	9a01      	ldr	r2, [sp, #4]
 800284c:	681b      	ldr	r3, [r3, #0]
 800284e:	429a      	cmp	r2, r3
 8002850:	d102      	bne.n	8002858 <_fini+0x18>
 8002852:	b003      	add	sp, #12
 8002854:	f85d fb04 	ldr.w	pc, [sp], #4
 8002858:	f7fe fd5a 	bl	8001310 <__stack_chk_fail>
 800285c:	2000081c 	.word	0x2000081c

08002860 <messagebus_lock_acquire>:
 8002860:	b500      	push	{lr}
 8002862:	4b07      	ldr	r3, [pc, #28]	; (8002880 <messagebus_lock_acquire+0x20>)
 8002864:	b083      	sub	sp, #12
 8002866:	681a      	ldr	r2, [r3, #0]
 8002868:	9201      	str	r2, [sp, #4]
 800286a:	9a01      	ldr	r2, [sp, #4]
 800286c:	681b      	ldr	r3, [r3, #0]
 800286e:	429a      	cmp	r2, r3
 8002870:	d104      	bne.n	800287c <messagebus_lock_acquire+0x1c>
 8002872:	b003      	add	sp, #12
 8002874:	f85d eb04 	ldr.w	lr, [sp], #4
 8002878:	f001 bc0a 	b.w	8004090 <chMtxLock>
 800287c:	f7fe fd48 	bl	8001310 <__stack_chk_fail>
 8002880:	2000081c 	.word	0x2000081c
	...

08002890 <messagebus_lock_release>:
 8002890:	b500      	push	{lr}
 8002892:	4b07      	ldr	r3, [pc, #28]	; (80028b0 <messagebus_lock_release+0x20>)
 8002894:	b083      	sub	sp, #12
 8002896:	681a      	ldr	r2, [r3, #0]
 8002898:	9201      	str	r2, [sp, #4]
 800289a:	9a01      	ldr	r2, [sp, #4]
 800289c:	681b      	ldr	r3, [r3, #0]
 800289e:	429a      	cmp	r2, r3
 80028a0:	d104      	bne.n	80028ac <messagebus_lock_release+0x1c>
 80028a2:	b003      	add	sp, #12
 80028a4:	f85d eb04 	ldr.w	lr, [sp], #4
 80028a8:	f001 bc2a 	b.w	8004100 <chMtxUnlock>
 80028ac:	f7fe fd30 	bl	8001310 <__stack_chk_fail>
 80028b0:	2000081c 	.word	0x2000081c
	...

080028c0 <messagebus_condvar_broadcast>:
 80028c0:	b500      	push	{lr}
 80028c2:	4b07      	ldr	r3, [pc, #28]	; (80028e0 <messagebus_condvar_broadcast+0x20>)
 80028c4:	b083      	sub	sp, #12
 80028c6:	681a      	ldr	r2, [r3, #0]
 80028c8:	9201      	str	r2, [sp, #4]
 80028ca:	9a01      	ldr	r2, [sp, #4]
 80028cc:	681b      	ldr	r3, [r3, #0]
 80028ce:	429a      	cmp	r2, r3
 80028d0:	d104      	bne.n	80028dc <messagebus_condvar_broadcast+0x1c>
 80028d2:	b003      	add	sp, #12
 80028d4:	f85d eb04 	ldr.w	lr, [sp], #4
 80028d8:	f001 bcc2 	b.w	8004260 <chCondBroadcast>
 80028dc:	f7fe fd18 	bl	8001310 <__stack_chk_fail>
 80028e0:	2000081c 	.word	0x2000081c
	...

080028f0 <messagebus_init>:
 80028f0:	b510      	push	{r4, lr}
 80028f2:	4b08      	ldr	r3, [pc, #32]	; (8002914 <messagebus_init+0x24>)
 80028f4:	b082      	sub	sp, #8
 80028f6:	681c      	ldr	r4, [r3, #0]
 80028f8:	9401      	str	r4, [sp, #4]
 80028fa:	2400      	movs	r4, #0
 80028fc:	6004      	str	r4, [r0, #0]
 80028fe:	9c01      	ldr	r4, [sp, #4]
 8002900:	681b      	ldr	r3, [r3, #0]
 8002902:	429c      	cmp	r4, r3
 8002904:	e9c0 1201 	strd	r1, r2, [r0, #4]
 8002908:	d101      	bne.n	800290e <messagebus_init+0x1e>
 800290a:	b002      	add	sp, #8
 800290c:	bd10      	pop	{r4, pc}
 800290e:	f7fe fcff 	bl	8001310 <__stack_chk_fail>
 8002912:	bf00      	nop
 8002914:	2000081c 	.word	0x2000081c
	...

08002920 <messagebus_topic_init>:
 8002920:	e92d 43f0 	stmdb	sp!, {r4, r5, r6, r7, r8, r9, lr}
 8002924:	4d0d      	ldr	r5, [pc, #52]	; (800295c <messagebus_topic_init+0x3c>)
 8002926:	b083      	sub	sp, #12
 8002928:	682c      	ldr	r4, [r5, #0]
 800292a:	9401      	str	r4, [sp, #4]
 800292c:	460f      	mov	r7, r1
 800292e:	4604      	mov	r4, r0
 8002930:	4616      	mov	r6, r2
 8002932:	2100      	movs	r1, #0
 8002934:	224c      	movs	r2, #76	; 0x4c
 8002936:	3010      	adds	r0, #16
 8002938:	f8dd 8028 	ldr.w	r8, [sp, #40]	; 0x28
 800293c:	4699      	mov	r9, r3
 800293e:	f007 fbbf 	bl	800a0c0 <memset>
 8002942:	9901      	ldr	r1, [sp, #4]
 8002944:	682a      	ldr	r2, [r5, #0]
 8002946:	4291      	cmp	r1, r2
 8002948:	e9c4 9800 	strd	r9, r8, [r4]
 800294c:	e9c4 7602 	strd	r7, r6, [r4, #8]
 8002950:	d102      	bne.n	8002958 <messagebus_topic_init+0x38>
 8002952:	b003      	add	sp, #12
 8002954:	e8bd 83f0 	ldmia.w	sp!, {r4, r5, r6, r7, r8, r9, pc}
 8002958:	f7fe fcda 	bl	8001310 <__stack_chk_fail>
 800295c:	2000081c 	.word	0x2000081c

08002960 <messagebus_advertise_topic>:
 8002960:	b5f0      	push	{r4, r5, r6, r7, lr}
 8002962:	4e14      	ldr	r6, [pc, #80]	; (80029b4 <messagebus_advertise_topic+0x54>)
 8002964:	b083      	sub	sp, #12
 8002966:	f101 0310 	add.w	r3, r1, #16
 800296a:	4617      	mov	r7, r2
 800296c:	6832      	ldr	r2, [r6, #0]
 800296e:	9201      	str	r2, [sp, #4]
 8002970:	4604      	mov	r4, r0
 8002972:	2241      	movs	r2, #65	; 0x41
 8002974:	4618      	mov	r0, r3
 8002976:	460d      	mov	r5, r1
 8002978:	2100      	movs	r1, #0
 800297a:	f007 fba1 	bl	800a0c0 <memset>
 800297e:	4639      	mov	r1, r7
 8002980:	2240      	movs	r2, #64	; 0x40
 8002982:	f007 fc35 	bl	800a1f0 <strncpy>
 8002986:	6860      	ldr	r0, [r4, #4]
 8002988:	f7ff ff6a 	bl	8002860 <messagebus_lock_acquire>
 800298c:	6823      	ldr	r3, [r4, #0]
 800298e:	b103      	cbz	r3, 8002992 <messagebus_advertise_topic+0x32>
 8002990:	65ab      	str	r3, [r5, #88]	; 0x58
 8002992:	6025      	str	r5, [r4, #0]
 8002994:	68a0      	ldr	r0, [r4, #8]
 8002996:	f7ff ff93 	bl	80028c0 <messagebus_condvar_broadcast>
 800299a:	9a01      	ldr	r2, [sp, #4]
 800299c:	6833      	ldr	r3, [r6, #0]
 800299e:	429a      	cmp	r2, r3
 80029a0:	d105      	bne.n	80029ae <messagebus_advertise_topic+0x4e>
 80029a2:	6860      	ldr	r0, [r4, #4]
 80029a4:	b003      	add	sp, #12
 80029a6:	e8bd 40f0 	ldmia.w	sp!, {r4, r5, r6, r7, lr}
 80029aa:	f7ff bf71 	b.w	8002890 <messagebus_lock_release>
 80029ae:	f7fe fcaf 	bl	8001310 <__stack_chk_fail>
 80029b2:	bf00      	nop
 80029b4:	2000081c 	.word	0x2000081c
	...

080029c0 <messagebus_topic_publish>:
 80029c0:	b5f0      	push	{r4, r5, r6, r7, lr}
 80029c2:	6843      	ldr	r3, [r0, #4]
 80029c4:	4e1b      	ldr	r6, [pc, #108]	; (8002a34 <messagebus_topic_publish+0x74>)
 80029c6:	b083      	sub	sp, #12
 80029c8:	4605      	mov	r5, r0
 80029ca:	4293      	cmp	r3, r2
 80029cc:	6830      	ldr	r0, [r6, #0]
 80029ce:	9001      	str	r0, [sp, #4]
 80029d0:	d206      	bcs.n	80029e0 <messagebus_topic_publish+0x20>
 80029d2:	2000      	movs	r0, #0
 80029d4:	9a01      	ldr	r2, [sp, #4]
 80029d6:	6833      	ldr	r3, [r6, #0]
 80029d8:	429a      	cmp	r2, r3
 80029da:	d128      	bne.n	8002a2e <messagebus_topic_publish+0x6e>
 80029dc:	b003      	add	sp, #12
 80029de:	bdf0      	pop	{r4, r5, r6, r7, pc}
 80029e0:	4614      	mov	r4, r2
 80029e2:	460f      	mov	r7, r1
 80029e4:	68a8      	ldr	r0, [r5, #8]
 80029e6:	f7ff ff3b 	bl	8002860 <messagebus_lock_acquire>
 80029ea:	4622      	mov	r2, r4
 80029ec:	4639      	mov	r1, r7
 80029ee:	6828      	ldr	r0, [r5, #0]
 80029f0:	f7fe fa96 	bl	8000f20 <memcpy>
 80029f4:	2301      	movs	r3, #1
 80029f6:	f885 3051 	strb.w	r3, [r5, #81]	; 0x51
 80029fa:	68e8      	ldr	r0, [r5, #12]
 80029fc:	f7ff ff60 	bl	80028c0 <messagebus_condvar_broadcast>
 8002a00:	6d6c      	ldr	r4, [r5, #84]	; 0x54
 8002a02:	b17c      	cbz	r4, 8002a24 <messagebus_topic_publish+0x64>
 8002a04:	6823      	ldr	r3, [r4, #0]
 8002a06:	6818      	ldr	r0, [r3, #0]
 8002a08:	f7ff ff2a 	bl	8002860 <messagebus_lock_acquire>
 8002a0c:	6823      	ldr	r3, [r4, #0]
 8002a0e:	6858      	ldr	r0, [r3, #4]
 8002a10:	609d      	str	r5, [r3, #8]
 8002a12:	f7ff ff55 	bl	80028c0 <messagebus_condvar_broadcast>
 8002a16:	6823      	ldr	r3, [r4, #0]
 8002a18:	6818      	ldr	r0, [r3, #0]
 8002a1a:	f7ff ff39 	bl	8002890 <messagebus_lock_release>
 8002a1e:	6864      	ldr	r4, [r4, #4]
 8002a20:	2c00      	cmp	r4, #0
 8002a22:	d1ef      	bne.n	8002a04 <messagebus_topic_publish+0x44>
 8002a24:	68a8      	ldr	r0, [r5, #8]
 8002a26:	f7ff ff33 	bl	8002890 <messagebus_lock_release>
 8002a2a:	2001      	movs	r0, #1
 8002a2c:	e7d2      	b.n	80029d4 <messagebus_topic_publish+0x14>
 8002a2e:	f7fe fc6f 	bl	8001310 <__stack_chk_fail>
 8002a32:	bf00      	nop
 8002a34:	2000081c 	.word	0x2000081c
	...

08002a40 <parameter_namespace_declare>:
 8002a40:	b530      	push	{r4, r5, lr}
 8002a42:	4d1a      	ldr	r5, [pc, #104]	; (8002aac <parameter_namespace_declare+0x6c>)
 8002a44:	4604      	mov	r4, r0
 8002a46:	b083      	sub	sp, #12
 8002a48:	2300      	movs	r3, #0
 8002a4a:	6828      	ldr	r0, [r5, #0]
 8002a4c:	60a1      	str	r1, [r4, #8]
 8002a4e:	6022      	str	r2, [r4, #0]
 8002a50:	9001      	str	r0, [sp, #4]
 8002a52:	6063      	str	r3, [r4, #4]
 8002a54:	60e3      	str	r3, [r4, #12]
 8002a56:	6163      	str	r3, [r4, #20]
 8002a58:	b931      	cbnz	r1, 8002a68 <parameter_namespace_declare+0x28>
 8002a5a:	6121      	str	r1, [r4, #16]
 8002a5c:	9a01      	ldr	r2, [sp, #4]
 8002a5e:	682b      	ldr	r3, [r5, #0]
 8002a60:	429a      	cmp	r2, r3
 8002a62:	d120      	bne.n	8002aa6 <parameter_namespace_declare+0x66>
 8002a64:	b003      	add	sp, #12
 8002a66:	bd30      	pop	{r4, r5, pc}
 8002a68:	2320      	movs	r3, #32
 8002a6a:	f383 8811 	msr	BASEPRI, r3
 8002a6e:	f001 f9cf 	bl	8003e10 <_stats_start_measure_crit_thd>
 8002a72:	f000 f95d 	bl	8002d30 <_dbg_check_lock>
 8002a76:	68a3      	ldr	r3, [r4, #8]
 8002a78:	68da      	ldr	r2, [r3, #12]
 8002a7a:	6122      	str	r2, [r4, #16]
 8002a7c:	60dc      	str	r4, [r3, #12]
 8002a7e:	f000 f977 	bl	8002d70 <_dbg_check_unlock>
 8002a82:	f001 f9dd 	bl	8003e40 <_stats_stop_measure_crit_thd>
 8002a86:	4b0a      	ldr	r3, [pc, #40]	; (8002ab0 <parameter_namespace_declare+0x70>)
 8002a88:	681a      	ldr	r2, [r3, #0]
 8002a8a:	429a      	cmp	r2, r3
 8002a8c:	d007      	beq.n	8002a9e <parameter_namespace_declare+0x5e>
 8002a8e:	6999      	ldr	r1, [r3, #24]
 8002a90:	6893      	ldr	r3, [r2, #8]
 8002a92:	688a      	ldr	r2, [r1, #8]
 8002a94:	429a      	cmp	r2, r3
 8002a96:	d202      	bcs.n	8002a9e <parameter_namespace_declare+0x5e>
 8002a98:	4806      	ldr	r0, [pc, #24]	; (8002ab4 <parameter_namespace_declare+0x74>)
 8002a9a:	f000 f8a9 	bl	8002bf0 <chSysHalt>
 8002a9e:	2300      	movs	r3, #0
 8002aa0:	f383 8811 	msr	BASEPRI, r3
 8002aa4:	e7da      	b.n	8002a5c <parameter_namespace_declare+0x1c>
 8002aa6:	f7fe fc33 	bl	8001310 <__stack_chk_fail>
 8002aaa:	bf00      	nop
 8002aac:	2000081c 	.word	0x2000081c
 8002ab0:	200018b0 	.word	0x200018b0
 8002ab4:	0800d600 	.word	0x0800d600
	...

08002ac0 <__late_init>:
 8002ac0:	b500      	push	{lr}
 8002ac2:	4b06      	ldr	r3, [pc, #24]	; (8002adc <__late_init+0x1c>)
 8002ac4:	b083      	sub	sp, #12
 8002ac6:	681a      	ldr	r2, [r3, #0]
 8002ac8:	9201      	str	r2, [sp, #4]
 8002aca:	9a01      	ldr	r2, [sp, #4]
 8002acc:	681b      	ldr	r3, [r3, #0]
 8002ace:	429a      	cmp	r2, r3
 8002ad0:	d102      	bne.n	8002ad8 <__late_init+0x18>
 8002ad2:	b003      	add	sp, #12
 8002ad4:	f85d fb04 	ldr.w	pc, [sp], #4
 8002ad8:	f7fe fc1a 	bl	8001310 <__stack_chk_fail>
 8002adc:	2000081c 	.word	0x2000081c

08002ae0 <__default_exit>:
 8002ae0:	4b02      	ldr	r3, [pc, #8]	; (8002aec <__default_exit+0xc>)
 8002ae2:	b082      	sub	sp, #8
 8002ae4:	681b      	ldr	r3, [r3, #0]
 8002ae6:	9301      	str	r3, [sp, #4]
 8002ae8:	e7fe      	b.n	8002ae8 <__default_exit+0x8>
 8002aea:	bf00      	nop
 8002aec:	2000081c 	.word	0x2000081c

08002af0 <_unhandled_exception>:
 8002af0:	b500      	push	{lr}
 8002af2:	4b04      	ldr	r3, [pc, #16]	; (8002b04 <_unhandled_exception+0x14>)
 8002af4:	4804      	ldr	r0, [pc, #16]	; (8002b08 <_unhandled_exception+0x18>)
 8002af6:	681b      	ldr	r3, [r3, #0]
 8002af8:	b083      	sub	sp, #12
 8002afa:	9301      	str	r3, [sp, #4]
 8002afc:	f000 f878 	bl	8002bf0 <chSysHalt>
 8002b00:	e7fe      	b.n	8002b00 <_unhandled_exception+0x10>
 8002b02:	bf00      	nop
 8002b04:	2000081c 	.word	0x2000081c
 8002b08:	0800d610 	.word	0x0800d610
 8002b0c:	00000000 	.word	0x00000000

08002b10 <_idle_thread>:
 8002b10:	4b02      	ldr	r3, [pc, #8]	; (8002b1c <_idle_thread+0xc>)
 8002b12:	b082      	sub	sp, #8
 8002b14:	681b      	ldr	r3, [r3, #0]
 8002b16:	9301      	str	r3, [sp, #4]
 8002b18:	e7fe      	b.n	8002b18 <_idle_thread+0x8>
 8002b1a:	bf00      	nop
 8002b1c:	2000081c 	.word	0x2000081c

08002b20 <chSysInit>:
 8002b20:	b5f0      	push	{r4, r5, r6, r7, lr}
 8002b22:	4e29      	ldr	r6, [pc, #164]	; (8002bc8 <chSysInit+0xa8>)
 8002b24:	4b29      	ldr	r3, [pc, #164]	; (8002bcc <chSysInit+0xac>)
 8002b26:	6832      	ldr	r2, [r6, #0]
 8002b28:	4829      	ldr	r0, [pc, #164]	; (8002bd0 <chSysInit+0xb0>)
 8002b2a:	b085      	sub	sp, #20
 8002b2c:	2400      	movs	r4, #0
 8002b2e:	9203      	str	r2, [sp, #12]
 8002b30:	609c      	str	r4, [r3, #8]
 8002b32:	68d9      	ldr	r1, [r3, #12]
 8002b34:	4a27      	ldr	r2, [pc, #156]	; (8002bd4 <chSysInit+0xb4>)
 8002b36:	f64f 05ff 	movw	r5, #63743	; 0xf8ff
 8002b3a:	4029      	ands	r1, r5
 8002b3c:	430a      	orrs	r2, r1
 8002b3e:	60da      	str	r2, [r3, #12]
 8002b40:	68c2      	ldr	r2, [r0, #12]
 8002b42:	4925      	ldr	r1, [pc, #148]	; (8002bd8 <chSysInit+0xb8>)
 8002b44:	4d25      	ldr	r5, [pc, #148]	; (8002bdc <chSysInit+0xbc>)
 8002b46:	f042 7280 	orr.w	r2, r2, #16777216	; 0x1000000
 8002b4a:	60c2      	str	r2, [r0, #12]
 8002b4c:	680a      	ldr	r2, [r1, #0]
 8002b4e:	f042 0201 	orr.w	r2, r2, #1
 8002b52:	600a      	str	r2, [r1, #0]
 8002b54:	2010      	movs	r0, #16
 8002b56:	2220      	movs	r2, #32
 8002b58:	77d8      	strb	r0, [r3, #31]
 8002b5a:	f883 2022 	strb.w	r2, [r3, #34]	; 0x22
 8002b5e:	f000 fad7 	bl	8003110 <_scheduler_init>
 8002b62:	f000 fa45 	bl	8002ff0 <_vt_init>
 8002b66:	f001 f8a3 	bl	8003cb0 <_tm_init>
 8002b6a:	f001 fec1 	bl	80048f0 <_core_init>
 8002b6e:	f001 ff2f 	bl	80049d0 <_heap_init>
 8002b72:	f001 f8f5 	bl	8003d60 <_stats_init>
 8002b76:	f000 f9fb 	bl	8002f70 <_dbg_trace_init>
 8002b7a:	2140      	movs	r1, #64	; 0x40
 8002b7c:	f505 6088 	add.w	r0, r5, #1088	; 0x440
 8002b80:	f000 fd1e 	bl	80035c0 <_thread_init>
 8002b84:	2701      	movs	r7, #1
 8002b86:	4b16      	ldr	r3, [pc, #88]	; (8002be0 <chSysInit+0xc0>)
 8002b88:	61c3      	str	r3, [r0, #28]
 8002b8a:	f880 7020 	strb.w	r7, [r0, #32]
 8002b8e:	61a8      	str	r0, [r5, #24]
 8002b90:	f000 f8a6 	bl	8002ce0 <_dbg_check_enable>
 8002b94:	f384 8811 	msr	BASEPRI, r4
 8002b98:	b662      	cpsie	i
 8002b9a:	69ab      	ldr	r3, [r5, #24]
 8002b9c:	4a11      	ldr	r2, [pc, #68]	; (8002be4 <chSysInit+0xc4>)
 8002b9e:	619a      	str	r2, [r3, #24]
 8002ba0:	f44f 71c4 	mov.w	r1, #392	; 0x188
 8002ba4:	463a      	mov	r2, r7
 8002ba6:	4b10      	ldr	r3, [pc, #64]	; (8002be8 <chSysInit+0xc8>)
 8002ba8:	9400      	str	r4, [sp, #0]
 8002baa:	f505 609d 	add.w	r0, r5, #1256	; 0x4e8
 8002bae:	f000 fd97 	bl	80036e0 <chThdCreateStatic>
 8002bb2:	9a03      	ldr	r2, [sp, #12]
 8002bb4:	6833      	ldr	r3, [r6, #0]
 8002bb6:	490d      	ldr	r1, [pc, #52]	; (8002bec <chSysInit+0xcc>)
 8002bb8:	6181      	str	r1, [r0, #24]
 8002bba:	429a      	cmp	r2, r3
 8002bbc:	d101      	bne.n	8002bc2 <chSysInit+0xa2>
 8002bbe:	b005      	add	sp, #20
 8002bc0:	bdf0      	pop	{r4, r5, r6, r7, pc}
 8002bc2:	f7fe fba5 	bl	8001310 <__stack_chk_fail>
 8002bc6:	bf00      	nop
 8002bc8:	2000081c 	.word	0x2000081c
 8002bcc:	e000ed00 	.word	0xe000ed00
 8002bd0:	e000edf0 	.word	0xe000edf0
 8002bd4:	05fa0300 	.word	0x05fa0300
 8002bd8:	e0001000 	.word	0xe0001000
 8002bdc:	200018b0 	.word	0x200018b0
 8002be0:	20000400 	.word	0x20000400
 8002be4:	0800d7b0 	.word	0x0800d7b0
 8002be8:	08002b11 	.word	0x08002b11
 8002bec:	0800d630 	.word	0x0800d630

08002bf0 <chSysHalt>:
 8002bf0:	b500      	push	{lr}
 8002bf2:	4b05      	ldr	r3, [pc, #20]	; (8002c08 <chSysHalt+0x18>)
 8002bf4:	b083      	sub	sp, #12
 8002bf6:	681b      	ldr	r3, [r3, #0]
 8002bf8:	9301      	str	r3, [sp, #4]
 8002bfa:	4604      	mov	r4, r0
 8002bfc:	b672      	cpsid	i
 8002bfe:	f7ff f977 	bl	8001ef0 <panic_handler>
 8002c02:	4b02      	ldr	r3, [pc, #8]	; (8002c0c <chSysHalt+0x1c>)
 8002c04:	62dc      	str	r4, [r3, #44]	; 0x2c
 8002c06:	e7fe      	b.n	8002c06 <chSysHalt+0x16>
 8002c08:	2000081c 	.word	0x2000081c
 8002c0c:	200018b0 	.word	0x200018b0

08002c10 <chSysTimerHandlerI>:
 8002c10:	e92d 47f0 	stmdb	sp!, {r4, r5, r6, r7, r8, r9, sl, lr}
 8002c14:	f8df 908c 	ldr.w	r9, [pc, #140]	; 8002ca4 <chSysTimerHandlerI+0x94>
 8002c18:	4d20      	ldr	r5, [pc, #128]	; (8002c9c <chSysTimerHandlerI+0x8c>)
 8002c1a:	f8d9 3000 	ldr.w	r3, [r9]
 8002c1e:	b082      	sub	sp, #8
 8002c20:	9301      	str	r3, [sp, #4]
 8002c22:	f000 f955 	bl	8002ed0 <chDbgCheckClassI>
 8002c26:	69ab      	ldr	r3, [r5, #24]
 8002c28:	f893 2023 	ldrb.w	r2, [r3, #35]	; 0x23
 8002c2c:	b112      	cbz	r2, 8002c34 <chSysTimerHandlerI+0x24>
 8002c2e:	3a01      	subs	r2, #1
 8002c30:	f883 2023 	strb.w	r2, [r3, #35]	; 0x23
 8002c34:	6a5a      	ldr	r2, [r3, #36]	; 0x24
 8002c36:	4f1a      	ldr	r7, [pc, #104]	; (8002ca0 <chSysTimerHandlerI+0x90>)
 8002c38:	3201      	adds	r2, #1
 8002c3a:	625a      	str	r2, [r3, #36]	; 0x24
 8002c3c:	f000 f948 	bl	8002ed0 <chDbgCheckClassI>
 8002c40:	6aab      	ldr	r3, [r5, #40]	; 0x28
 8002c42:	69ec      	ldr	r4, [r5, #28]
 8002c44:	3301      	adds	r3, #1
 8002c46:	42bc      	cmp	r4, r7
 8002c48:	62ab      	str	r3, [r5, #40]	; 0x28
 8002c4a:	d01d      	beq.n	8002c88 <chSysTimerHandlerI+0x78>
 8002c4c:	68a6      	ldr	r6, [r4, #8]
 8002c4e:	3e01      	subs	r6, #1
 8002c50:	60a6      	str	r6, [r4, #8]
 8002c52:	b9ce      	cbnz	r6, 8002c88 <chSysTimerHandlerI+0x78>
 8002c54:	f04f 0820 	mov.w	r8, #32
 8002c58:	6823      	ldr	r3, [r4, #0]
 8002c5a:	f8d4 a00c 	ldr.w	sl, [r4, #12]
 8002c5e:	60e6      	str	r6, [r4, #12]
 8002c60:	605f      	str	r7, [r3, #4]
 8002c62:	61eb      	str	r3, [r5, #28]
 8002c64:	f000 f8c4 	bl	8002df0 <_dbg_check_unlock_from_isr>
 8002c68:	f001 f91a 	bl	8003ea0 <_stats_stop_measure_crit_isr>
 8002c6c:	f386 8811 	msr	BASEPRI, r6
 8002c70:	6920      	ldr	r0, [r4, #16]
 8002c72:	47d0      	blx	sl
 8002c74:	f388 8811 	msr	BASEPRI, r8
 8002c78:	f001 f8fa 	bl	8003e70 <_stats_start_measure_crit_isr>
 8002c7c:	f000 f898 	bl	8002db0 <_dbg_check_lock_from_isr>
 8002c80:	69ec      	ldr	r4, [r5, #28]
 8002c82:	68a3      	ldr	r3, [r4, #8]
 8002c84:	2b00      	cmp	r3, #0
 8002c86:	d0e7      	beq.n	8002c58 <chSysTimerHandlerI+0x48>
 8002c88:	9a01      	ldr	r2, [sp, #4]
 8002c8a:	f8d9 3000 	ldr.w	r3, [r9]
 8002c8e:	429a      	cmp	r2, r3
 8002c90:	d102      	bne.n	8002c98 <chSysTimerHandlerI+0x88>
 8002c92:	b002      	add	sp, #8
 8002c94:	e8bd 87f0 	ldmia.w	sp!, {r4, r5, r6, r7, r8, r9, sl, pc}
 8002c98:	f7fe fb3a 	bl	8001310 <__stack_chk_fail>
 8002c9c:	200018b0 	.word	0x200018b0
 8002ca0:	200018cc 	.word	0x200018cc
 8002ca4:	2000081c 	.word	0x2000081c
	...

08002cb0 <chSysPolledDelayX>:
 8002cb0:	b510      	push	{r4, lr}
 8002cb2:	4c09      	ldr	r4, [pc, #36]	; (8002cd8 <chSysPolledDelayX+0x28>)
 8002cb4:	4a09      	ldr	r2, [pc, #36]	; (8002cdc <chSysPolledDelayX+0x2c>)
 8002cb6:	6823      	ldr	r3, [r4, #0]
 8002cb8:	b082      	sub	sp, #8
 8002cba:	9301      	str	r3, [sp, #4]
 8002cbc:	6851      	ldr	r1, [r2, #4]
 8002cbe:	6853      	ldr	r3, [r2, #4]
 8002cc0:	1a5b      	subs	r3, r3, r1
 8002cc2:	4298      	cmp	r0, r3
 8002cc4:	d8fb      	bhi.n	8002cbe <chSysPolledDelayX+0xe>
 8002cc6:	9a01      	ldr	r2, [sp, #4]
 8002cc8:	6823      	ldr	r3, [r4, #0]
 8002cca:	429a      	cmp	r2, r3
 8002ccc:	d101      	bne.n	8002cd2 <chSysPolledDelayX+0x22>
 8002cce:	b002      	add	sp, #8
 8002cd0:	bd10      	pop	{r4, pc}
 8002cd2:	f7fe fb1d 	bl	8001310 <__stack_chk_fail>
 8002cd6:	bf00      	nop
 8002cd8:	2000081c 	.word	0x2000081c
 8002cdc:	e0001000 	.word	0xe0001000

08002ce0 <_dbg_check_enable>:
 8002ce0:	b500      	push	{lr}
 8002ce2:	4a0e      	ldr	r2, [pc, #56]	; (8002d1c <_dbg_check_enable+0x3c>)
 8002ce4:	4b0e      	ldr	r3, [pc, #56]	; (8002d20 <_dbg_check_enable+0x40>)
 8002ce6:	6b11      	ldr	r1, [r2, #48]	; 0x30
 8002ce8:	6818      	ldr	r0, [r3, #0]
 8002cea:	b083      	sub	sp, #12
 8002cec:	9001      	str	r0, [sp, #4]
 8002cee:	b909      	cbnz	r1, 8002cf4 <_dbg_check_enable+0x14>
 8002cf0:	6b52      	ldr	r2, [r2, #52]	; 0x34
 8002cf2:	b14a      	cbz	r2, 8002d08 <_dbg_check_enable+0x28>
 8002cf4:	9a01      	ldr	r2, [sp, #4]
 8002cf6:	681b      	ldr	r3, [r3, #0]
 8002cf8:	429a      	cmp	r2, r3
 8002cfa:	d10c      	bne.n	8002d16 <_dbg_check_enable+0x36>
 8002cfc:	4809      	ldr	r0, [pc, #36]	; (8002d24 <_dbg_check_enable+0x44>)
 8002cfe:	b003      	add	sp, #12
 8002d00:	f85d eb04 	ldr.w	lr, [sp], #4
 8002d04:	f7ff bf74 	b.w	8002bf0 <chSysHalt>
 8002d08:	9a01      	ldr	r2, [sp, #4]
 8002d0a:	681b      	ldr	r3, [r3, #0]
 8002d0c:	429a      	cmp	r2, r3
 8002d0e:	d102      	bne.n	8002d16 <_dbg_check_enable+0x36>
 8002d10:	b003      	add	sp, #12
 8002d12:	f85d fb04 	ldr.w	pc, [sp], #4
 8002d16:	f7fe fafb 	bl	8001310 <__stack_chk_fail>
 8002d1a:	bf00      	nop
 8002d1c:	200018b0 	.word	0x200018b0
 8002d20:	2000081c 	.word	0x2000081c
 8002d24:	0800d640 	.word	0x0800d640
	...

08002d30 <_dbg_check_lock>:
 8002d30:	b530      	push	{r4, r5, lr}
 8002d32:	4c0b      	ldr	r4, [pc, #44]	; (8002d60 <_dbg_check_lock+0x30>)
 8002d34:	4d0b      	ldr	r5, [pc, #44]	; (8002d64 <_dbg_check_lock+0x34>)
 8002d36:	6b23      	ldr	r3, [r4, #48]	; 0x30
 8002d38:	682a      	ldr	r2, [r5, #0]
 8002d3a:	b083      	sub	sp, #12
 8002d3c:	9201      	str	r2, [sp, #4]
 8002d3e:	b90b      	cbnz	r3, 8002d44 <_dbg_check_lock+0x14>
 8002d40:	6b63      	ldr	r3, [r4, #52]	; 0x34
 8002d42:	b113      	cbz	r3, 8002d4a <_dbg_check_lock+0x1a>
 8002d44:	4808      	ldr	r0, [pc, #32]	; (8002d68 <_dbg_check_lock+0x38>)
 8002d46:	f7ff ff53 	bl	8002bf0 <chSysHalt>
 8002d4a:	9a01      	ldr	r2, [sp, #4]
 8002d4c:	682b      	ldr	r3, [r5, #0]
 8002d4e:	2101      	movs	r1, #1
 8002d50:	429a      	cmp	r2, r3
 8002d52:	6361      	str	r1, [r4, #52]	; 0x34
 8002d54:	d101      	bne.n	8002d5a <_dbg_check_lock+0x2a>
 8002d56:	b003      	add	sp, #12
 8002d58:	bd30      	pop	{r4, r5, pc}
 8002d5a:	f7fe fad9 	bl	8001310 <__stack_chk_fail>
 8002d5e:	bf00      	nop
 8002d60:	200018b0 	.word	0x200018b0
 8002d64:	2000081c 	.word	0x2000081c
 8002d68:	0800d670 	.word	0x0800d670
 8002d6c:	00000000 	.word	0x00000000

08002d70 <_dbg_check_unlock>:
 8002d70:	b530      	push	{r4, r5, lr}
 8002d72:	4c0c      	ldr	r4, [pc, #48]	; (8002da4 <_dbg_check_unlock+0x34>)
 8002d74:	4d0c      	ldr	r5, [pc, #48]	; (8002da8 <_dbg_check_unlock+0x38>)
 8002d76:	6b23      	ldr	r3, [r4, #48]	; 0x30
 8002d78:	682a      	ldr	r2, [r5, #0]
 8002d7a:	b083      	sub	sp, #12
 8002d7c:	9201      	str	r2, [sp, #4]
 8002d7e:	b953      	cbnz	r3, 8002d96 <_dbg_check_unlock+0x26>
 8002d80:	6b63      	ldr	r3, [r4, #52]	; 0x34
 8002d82:	2b00      	cmp	r3, #0
 8002d84:	dd07      	ble.n	8002d96 <_dbg_check_unlock+0x26>
 8002d86:	9a01      	ldr	r2, [sp, #4]
 8002d88:	682b      	ldr	r3, [r5, #0]
 8002d8a:	2100      	movs	r1, #0
 8002d8c:	429a      	cmp	r2, r3
 8002d8e:	6361      	str	r1, [r4, #52]	; 0x34
 8002d90:	d105      	bne.n	8002d9e <_dbg_check_unlock+0x2e>
 8002d92:	b003      	add	sp, #12
 8002d94:	bd30      	pop	{r4, r5, pc}
 8002d96:	4805      	ldr	r0, [pc, #20]	; (8002dac <_dbg_check_unlock+0x3c>)
 8002d98:	f7ff ff2a 	bl	8002bf0 <chSysHalt>
 8002d9c:	e7f3      	b.n	8002d86 <_dbg_check_unlock+0x16>
 8002d9e:	f7fe fab7 	bl	8001310 <__stack_chk_fail>
 8002da2:	bf00      	nop
 8002da4:	200018b0 	.word	0x200018b0
 8002da8:	2000081c 	.word	0x2000081c
 8002dac:	0800d690 	.word	0x0800d690

08002db0 <_dbg_check_lock_from_isr>:
 8002db0:	b530      	push	{r4, r5, lr}
 8002db2:	4c0b      	ldr	r4, [pc, #44]	; (8002de0 <_dbg_check_lock_from_isr+0x30>)
 8002db4:	4d0b      	ldr	r5, [pc, #44]	; (8002de4 <_dbg_check_lock_from_isr+0x34>)
 8002db6:	6b23      	ldr	r3, [r4, #48]	; 0x30
 8002db8:	682a      	ldr	r2, [r5, #0]
 8002dba:	b083      	sub	sp, #12
 8002dbc:	2b00      	cmp	r3, #0
 8002dbe:	9201      	str	r2, [sp, #4]
 8002dc0:	dd01      	ble.n	8002dc6 <_dbg_check_lock_from_isr+0x16>
 8002dc2:	6b63      	ldr	r3, [r4, #52]	; 0x34
 8002dc4:	b113      	cbz	r3, 8002dcc <_dbg_check_lock_from_isr+0x1c>
 8002dc6:	4808      	ldr	r0, [pc, #32]	; (8002de8 <_dbg_check_lock_from_isr+0x38>)
 8002dc8:	f7ff ff12 	bl	8002bf0 <chSysHalt>
 8002dcc:	9a01      	ldr	r2, [sp, #4]
 8002dce:	682b      	ldr	r3, [r5, #0]
 8002dd0:	2101      	movs	r1, #1
 8002dd2:	429a      	cmp	r2, r3
 8002dd4:	6361      	str	r1, [r4, #52]	; 0x34
 8002dd6:	d101      	bne.n	8002ddc <_dbg_check_lock_from_isr+0x2c>
 8002dd8:	b003      	add	sp, #12
 8002dda:	bd30      	pop	{r4, r5, pc}
 8002ddc:	f7fe fa98 	bl	8001310 <__stack_chk_fail>
 8002de0:	200018b0 	.word	0x200018b0
 8002de4:	2000081c 	.word	0x2000081c
 8002de8:	0800d680 	.word	0x0800d680
 8002dec:	00000000 	.word	0x00000000

08002df0 <_dbg_check_unlock_from_isr>:
 8002df0:	b530      	push	{r4, r5, lr}
 8002df2:	4c0c      	ldr	r4, [pc, #48]	; (8002e24 <_dbg_check_unlock_from_isr+0x34>)
 8002df4:	4d0c      	ldr	r5, [pc, #48]	; (8002e28 <_dbg_check_unlock_from_isr+0x38>)
 8002df6:	6b23      	ldr	r3, [r4, #48]	; 0x30
 8002df8:	682a      	ldr	r2, [r5, #0]
 8002dfa:	b083      	sub	sp, #12
 8002dfc:	2b00      	cmp	r3, #0
 8002dfe:	9201      	str	r2, [sp, #4]
 8002e00:	dd0a      	ble.n	8002e18 <_dbg_check_unlock_from_isr+0x28>
 8002e02:	6b63      	ldr	r3, [r4, #52]	; 0x34
 8002e04:	2b00      	cmp	r3, #0
 8002e06:	dd07      	ble.n	8002e18 <_dbg_check_unlock_from_isr+0x28>
 8002e08:	9a01      	ldr	r2, [sp, #4]
 8002e0a:	682b      	ldr	r3, [r5, #0]
 8002e0c:	2100      	movs	r1, #0
 8002e0e:	429a      	cmp	r2, r3
 8002e10:	6361      	str	r1, [r4, #52]	; 0x34
 8002e12:	d105      	bne.n	8002e20 <_dbg_check_unlock_from_isr+0x30>
 8002e14:	b003      	add	sp, #12
 8002e16:	bd30      	pop	{r4, r5, pc}
 8002e18:	4804      	ldr	r0, [pc, #16]	; (8002e2c <_dbg_check_unlock_from_isr+0x3c>)
 8002e1a:	f7ff fee9 	bl	8002bf0 <chSysHalt>
 8002e1e:	e7f3      	b.n	8002e08 <_dbg_check_unlock_from_isr+0x18>
 8002e20:	f7fe fa76 	bl	8001310 <__stack_chk_fail>
 8002e24:	200018b0 	.word	0x200018b0
 8002e28:	2000081c 	.word	0x2000081c
 8002e2c:	0800d6a0 	.word	0x0800d6a0

08002e30 <_dbg_check_enter_isr>:
 8002e30:	b530      	push	{r4, r5, lr}
 8002e32:	4d0f      	ldr	r5, [pc, #60]	; (8002e70 <_dbg_check_enter_isr+0x40>)
 8002e34:	b083      	sub	sp, #12
 8002e36:	682b      	ldr	r3, [r5, #0]
 8002e38:	9301      	str	r3, [sp, #4]
 8002e3a:	2320      	movs	r3, #32
 8002e3c:	f383 8811 	msr	BASEPRI, r3
 8002e40:	4c0c      	ldr	r4, [pc, #48]	; (8002e74 <_dbg_check_enter_isr+0x44>)
 8002e42:	6b23      	ldr	r3, [r4, #48]	; 0x30
 8002e44:	2b00      	cmp	r3, #0
 8002e46:	db01      	blt.n	8002e4c <_dbg_check_enter_isr+0x1c>
 8002e48:	6b62      	ldr	r2, [r4, #52]	; 0x34
 8002e4a:	b11a      	cbz	r2, 8002e54 <_dbg_check_enter_isr+0x24>
 8002e4c:	480a      	ldr	r0, [pc, #40]	; (8002e78 <_dbg_check_enter_isr+0x48>)
 8002e4e:	f7ff fecf 	bl	8002bf0 <chSysHalt>
 8002e52:	6b23      	ldr	r3, [r4, #48]	; 0x30
 8002e54:	3301      	adds	r3, #1
 8002e56:	6323      	str	r3, [r4, #48]	; 0x30
 8002e58:	2300      	movs	r3, #0
 8002e5a:	f383 8811 	msr	BASEPRI, r3
 8002e5e:	9a01      	ldr	r2, [sp, #4]
 8002e60:	682b      	ldr	r3, [r5, #0]
 8002e62:	429a      	cmp	r2, r3
 8002e64:	d101      	bne.n	8002e6a <_dbg_check_enter_isr+0x3a>
 8002e66:	b003      	add	sp, #12
 8002e68:	bd30      	pop	{r4, r5, pc}
 8002e6a:	f7fe fa51 	bl	8001310 <__stack_chk_fail>
 8002e6e:	bf00      	nop
 8002e70:	2000081c 	.word	0x2000081c
 8002e74:	200018b0 	.word	0x200018b0
 8002e78:	0800d650 	.word	0x0800d650
 8002e7c:	00000000 	.word	0x00000000

08002e80 <_dbg_check_leave_isr>:
 8002e80:	b530      	push	{r4, r5, lr}
 8002e82:	4d0f      	ldr	r5, [pc, #60]	; (8002ec0 <_dbg_check_leave_isr+0x40>)
 8002e84:	b083      	sub	sp, #12
 8002e86:	682b      	ldr	r3, [r5, #0]
 8002e88:	9301      	str	r3, [sp, #4]
 8002e8a:	2320      	movs	r3, #32
 8002e8c:	f383 8811 	msr	BASEPRI, r3
 8002e90:	4c0c      	ldr	r4, [pc, #48]	; (8002ec4 <_dbg_check_leave_isr+0x44>)
 8002e92:	6b23      	ldr	r3, [r4, #48]	; 0x30
 8002e94:	2b00      	cmp	r3, #0
 8002e96:	dd01      	ble.n	8002e9c <_dbg_check_leave_isr+0x1c>
 8002e98:	6b62      	ldr	r2, [r4, #52]	; 0x34
 8002e9a:	b11a      	cbz	r2, 8002ea4 <_dbg_check_leave_isr+0x24>
 8002e9c:	480a      	ldr	r0, [pc, #40]	; (8002ec8 <_dbg_check_leave_isr+0x48>)
 8002e9e:	f7ff fea7 	bl	8002bf0 <chSysHalt>
 8002ea2:	6b23      	ldr	r3, [r4, #48]	; 0x30
 8002ea4:	3b01      	subs	r3, #1
 8002ea6:	6323      	str	r3, [r4, #48]	; 0x30
 8002ea8:	2300      	movs	r3, #0
 8002eaa:	f383 8811 	msr	BASEPRI, r3
 8002eae:	9a01      	ldr	r2, [sp, #4]
 8002eb0:	682b      	ldr	r3, [r5, #0]
 8002eb2:	429a      	cmp	r2, r3
 8002eb4:	d101      	bne.n	8002eba <_dbg_check_leave_isr+0x3a>
 8002eb6:	b003      	add	sp, #12
 8002eb8:	bd30      	pop	{r4, r5, pc}
 8002eba:	f7fe fa29 	bl	8001310 <__stack_chk_fail>
 8002ebe:	bf00      	nop
 8002ec0:	2000081c 	.word	0x2000081c
 8002ec4:	200018b0 	.word	0x200018b0
 8002ec8:	0800d660 	.word	0x0800d660
 8002ecc:	00000000 	.word	0x00000000

08002ed0 <chDbgCheckClassI>:
 8002ed0:	b500      	push	{lr}
 8002ed2:	4a0f      	ldr	r2, [pc, #60]	; (8002f10 <chDbgCheckClassI+0x40>)
 8002ed4:	4b0f      	ldr	r3, [pc, #60]	; (8002f14 <chDbgCheckClassI+0x44>)
 8002ed6:	6b11      	ldr	r1, [r2, #48]	; 0x30
 8002ed8:	6818      	ldr	r0, [r3, #0]
 8002eda:	b083      	sub	sp, #12
 8002edc:	2900      	cmp	r1, #0
 8002ede:	9001      	str	r0, [sp, #4]
 8002ee0:	db09      	blt.n	8002ef6 <chDbgCheckClassI+0x26>
 8002ee2:	6b52      	ldr	r2, [r2, #52]	; 0x34
 8002ee4:	2a00      	cmp	r2, #0
 8002ee6:	dd06      	ble.n	8002ef6 <chDbgCheckClassI+0x26>
 8002ee8:	9a01      	ldr	r2, [sp, #4]
 8002eea:	681b      	ldr	r3, [r3, #0]
 8002eec:	429a      	cmp	r2, r3
 8002eee:	d10c      	bne.n	8002f0a <chDbgCheckClassI+0x3a>
 8002ef0:	b003      	add	sp, #12
 8002ef2:	f85d fb04 	ldr.w	pc, [sp], #4
 8002ef6:	9a01      	ldr	r2, [sp, #4]
 8002ef8:	681b      	ldr	r3, [r3, #0]
 8002efa:	429a      	cmp	r2, r3
 8002efc:	d105      	bne.n	8002f0a <chDbgCheckClassI+0x3a>
 8002efe:	4806      	ldr	r0, [pc, #24]	; (8002f18 <chDbgCheckClassI+0x48>)
 8002f00:	b003      	add	sp, #12
 8002f02:	f85d eb04 	ldr.w	lr, [sp], #4
 8002f06:	f7ff be73 	b.w	8002bf0 <chSysHalt>
 8002f0a:	f7fe fa01 	bl	8001310 <__stack_chk_fail>
 8002f0e:	bf00      	nop
 8002f10:	200018b0 	.word	0x200018b0
 8002f14:	2000081c 	.word	0x2000081c
 8002f18:	0800d6b0 	.word	0x0800d6b0
 8002f1c:	00000000 	.word	0x00000000

08002f20 <chDbgCheckClassS>:
 8002f20:	b500      	push	{lr}
 8002f22:	4a0e      	ldr	r2, [pc, #56]	; (8002f5c <chDbgCheckClassS+0x3c>)
 8002f24:	4b0e      	ldr	r3, [pc, #56]	; (8002f60 <chDbgCheckClassS+0x40>)
 8002f26:	6b11      	ldr	r1, [r2, #48]	; 0x30
 8002f28:	6818      	ldr	r0, [r3, #0]
 8002f2a:	b083      	sub	sp, #12
 8002f2c:	9001      	str	r0, [sp, #4]
 8002f2e:	b949      	cbnz	r1, 8002f44 <chDbgCheckClassS+0x24>
 8002f30:	6b52      	ldr	r2, [r2, #52]	; 0x34
 8002f32:	2a00      	cmp	r2, #0
 8002f34:	dd06      	ble.n	8002f44 <chDbgCheckClassS+0x24>
 8002f36:	9a01      	ldr	r2, [sp, #4]
 8002f38:	681b      	ldr	r3, [r3, #0]
 8002f3a:	429a      	cmp	r2, r3
 8002f3c:	d10c      	bne.n	8002f58 <chDbgCheckClassS+0x38>
 8002f3e:	b003      	add	sp, #12
 8002f40:	f85d fb04 	ldr.w	pc, [sp], #4
 8002f44:	9a01      	ldr	r2, [sp, #4]
 8002f46:	681b      	ldr	r3, [r3, #0]
 8002f48:	429a      	cmp	r2, r3
 8002f4a:	d105      	bne.n	8002f58 <chDbgCheckClassS+0x38>
 8002f4c:	4805      	ldr	r0, [pc, #20]	; (8002f64 <chDbgCheckClassS+0x44>)
 8002f4e:	b003      	add	sp, #12
 8002f50:	f85d eb04 	ldr.w	lr, [sp], #4
 8002f54:	f7ff be4c 	b.w	8002bf0 <chSysHalt>
 8002f58:	f7fe f9da 	bl	8001310 <__stack_chk_fail>
 8002f5c:	200018b0 	.word	0x200018b0
 8002f60:	2000081c 	.word	0x2000081c
 8002f64:	0800d6c0 	.word	0x0800d6c0
	...

08002f70 <_dbg_trace_init>:
 8002f70:	b510      	push	{r4, lr}
 8002f72:	4a08      	ldr	r2, [pc, #32]	; (8002f94 <_dbg_trace_init+0x24>)
 8002f74:	4b08      	ldr	r3, [pc, #32]	; (8002f98 <_dbg_trace_init+0x28>)
 8002f76:	6811      	ldr	r1, [r2, #0]
 8002f78:	b082      	sub	sp, #8
 8002f7a:	2440      	movs	r4, #64	; 0x40
 8002f7c:	9101      	str	r1, [sp, #4]
 8002f7e:	9901      	ldr	r1, [sp, #4]
 8002f80:	6812      	ldr	r2, [r2, #0]
 8002f82:	1918      	adds	r0, r3, r4
 8002f84:	4291      	cmp	r1, r2
 8002f86:	e9c3 400e 	strd	r4, r0, [r3, #56]	; 0x38
 8002f8a:	d101      	bne.n	8002f90 <_dbg_trace_init+0x20>
 8002f8c:	b002      	add	sp, #8
 8002f8e:	bd10      	pop	{r4, pc}
 8002f90:	f7fe f9be 	bl	8001310 <__stack_chk_fail>
 8002f94:	2000081c 	.word	0x2000081c
 8002f98:	200018b0 	.word	0x200018b0
 8002f9c:	00000000 	.word	0x00000000

08002fa0 <_dbg_trace>:
 8002fa0:	b530      	push	{r4, r5, lr}
 8002fa2:	490f      	ldr	r1, [pc, #60]	; (8002fe0 <_dbg_trace+0x40>)
 8002fa4:	4a0f      	ldr	r2, [pc, #60]	; (8002fe4 <_dbg_trace+0x44>)
 8002fa6:	680b      	ldr	r3, [r1, #0]
 8002fa8:	6995      	ldr	r5, [r2, #24]
 8002faa:	b083      	sub	sp, #12
 8002fac:	9301      	str	r3, [sp, #4]
 8002fae:	6bd3      	ldr	r3, [r2, #60]	; 0x3c
 8002fb0:	6a94      	ldr	r4, [r2, #40]	; 0x28
 8002fb2:	601c      	str	r4, [r3, #0]
 8002fb4:	6a84      	ldr	r4, [r0, #40]	; 0x28
 8002fb6:	e9c3 5401 	strd	r5, r4, [r3, #4]
 8002fba:	f890 0020 	ldrb.w	r0, [r0, #32]
 8002fbe:	7318      	strb	r0, [r3, #12]
 8002fc0:	3310      	adds	r3, #16
 8002fc2:	f502 6088 	add.w	r0, r2, #1088	; 0x440
 8002fc6:	4283      	cmp	r3, r0
 8002fc8:	bf28      	it	cs
 8002fca:	f102 0340 	addcs.w	r3, r2, #64	; 0x40
 8002fce:	63d3      	str	r3, [r2, #60]	; 0x3c
 8002fd0:	9a01      	ldr	r2, [sp, #4]
 8002fd2:	680b      	ldr	r3, [r1, #0]
 8002fd4:	429a      	cmp	r2, r3
 8002fd6:	d101      	bne.n	8002fdc <_dbg_trace+0x3c>
 8002fd8:	b003      	add	sp, #12
 8002fda:	bd30      	pop	{r4, r5, pc}
 8002fdc:	f7fe f998 	bl	8001310 <__stack_chk_fail>
 8002fe0:	2000081c 	.word	0x2000081c
 8002fe4:	200018b0 	.word	0x200018b0
	...

08002ff0 <_vt_init>:
 8002ff0:	b510      	push	{r4, lr}
 8002ff2:	4a0b      	ldr	r2, [pc, #44]	; (8003020 <_vt_init+0x30>)
 8002ff4:	4b0b      	ldr	r3, [pc, #44]	; (8003024 <_vt_init+0x34>)
 8002ff6:	6811      	ldr	r1, [r2, #0]
 8002ff8:	b082      	sub	sp, #8
 8002ffa:	f04f 34ff 	mov.w	r4, #4294967295
 8002ffe:	9101      	str	r1, [sp, #4]
 8003000:	2100      	movs	r1, #0
 8003002:	6299      	str	r1, [r3, #40]	; 0x28
 8003004:	9801      	ldr	r0, [sp, #4]
 8003006:	6811      	ldr	r1, [r2, #0]
 8003008:	625c      	str	r4, [r3, #36]	; 0x24
 800300a:	f103 021c 	add.w	r2, r3, #28
 800300e:	4288      	cmp	r0, r1
 8003010:	e9c3 2207 	strd	r2, r2, [r3, #28]
 8003014:	d101      	bne.n	800301a <_vt_init+0x2a>
 8003016:	b002      	add	sp, #8
 8003018:	bd10      	pop	{r4, pc}
 800301a:	f7fe f979 	bl	8001310 <__stack_chk_fail>
 800301e:	bf00      	nop
 8003020:	2000081c 	.word	0x2000081c
 8003024:	200018b0 	.word	0x200018b0
	...

08003030 <chVTDoSetI>:
 8003030:	e92d 41f0 	stmdb	sp!, {r4, r5, r6, r7, r8, lr}
 8003034:	4e19      	ldr	r6, [pc, #100]	; (800309c <chVTDoSetI+0x6c>)
 8003036:	b082      	sub	sp, #8
 8003038:	4605      	mov	r5, r0
 800303a:	6830      	ldr	r0, [r6, #0]
 800303c:	9001      	str	r0, [sp, #4]
 800303e:	460c      	mov	r4, r1
 8003040:	4617      	mov	r7, r2
 8003042:	4698      	mov	r8, r3
 8003044:	f7ff ff44 	bl	8002ed0 <chDbgCheckClassI>
 8003048:	b30d      	cbz	r5, 800308e <chVTDoSetI+0x5e>
 800304a:	b307      	cbz	r7, 800308e <chVTDoSetI+0x5e>
 800304c:	b1fc      	cbz	r4, 800308e <chVTDoSetI+0x5e>
 800304e:	4814      	ldr	r0, [pc, #80]	; (80030a0 <chVTDoSetI+0x70>)
 8003050:	f8c5 8010 	str.w	r8, [r5, #16]
 8003054:	69c3      	ldr	r3, [r0, #28]
 8003056:	60ef      	str	r7, [r5, #12]
 8003058:	689a      	ldr	r2, [r3, #8]
 800305a:	4294      	cmp	r4, r2
 800305c:	d904      	bls.n	8003068 <chVTDoSetI+0x38>
 800305e:	681b      	ldr	r3, [r3, #0]
 8003060:	1aa4      	subs	r4, r4, r2
 8003062:	689a      	ldr	r2, [r3, #8]
 8003064:	42a2      	cmp	r2, r4
 8003066:	d3fa      	bcc.n	800305e <chVTDoSetI+0x2e>
 8003068:	685a      	ldr	r2, [r3, #4]
 800306a:	e9c5 3200 	strd	r3, r2, [r5]
 800306e:	6015      	str	r5, [r2, #0]
 8003070:	605d      	str	r5, [r3, #4]
 8003072:	60ac      	str	r4, [r5, #8]
 8003074:	6899      	ldr	r1, [r3, #8]
 8003076:	9d01      	ldr	r5, [sp, #4]
 8003078:	6832      	ldr	r2, [r6, #0]
 800307a:	1b09      	subs	r1, r1, r4
 800307c:	4295      	cmp	r5, r2
 800307e:	f04f 34ff 	mov.w	r4, #4294967295
 8003082:	6099      	str	r1, [r3, #8]
 8003084:	6244      	str	r4, [r0, #36]	; 0x24
 8003086:	d106      	bne.n	8003096 <chVTDoSetI+0x66>
 8003088:	b002      	add	sp, #8
 800308a:	e8bd 81f0 	ldmia.w	sp!, {r4, r5, r6, r7, r8, pc}
 800308e:	4805      	ldr	r0, [pc, #20]	; (80030a4 <chVTDoSetI+0x74>)
 8003090:	f7ff fdae 	bl	8002bf0 <chSysHalt>
 8003094:	e7db      	b.n	800304e <chVTDoSetI+0x1e>
 8003096:	f7fe f93b 	bl	8001310 <__stack_chk_fail>
 800309a:	bf00      	nop
 800309c:	2000081c 	.word	0x2000081c
 80030a0:	200018b0 	.word	0x200018b0
 80030a4:	0800d6d0 	.word	0x0800d6d0
	...

080030b0 <chVTDoResetI>:
 80030b0:	b570      	push	{r4, r5, r6, lr}
 80030b2:	4d14      	ldr	r5, [pc, #80]	; (8003104 <chVTDoResetI+0x54>)
 80030b4:	b082      	sub	sp, #8
 80030b6:	4604      	mov	r4, r0
 80030b8:	682b      	ldr	r3, [r5, #0]
 80030ba:	9301      	str	r3, [sp, #4]
 80030bc:	f7ff ff08 	bl	8002ed0 <chDbgCheckClassI>
 80030c0:	b1d4      	cbz	r4, 80030f8 <chVTDoResetI+0x48>
 80030c2:	68e3      	ldr	r3, [r4, #12]
 80030c4:	b1a3      	cbz	r3, 80030f0 <chVTDoResetI+0x40>
 80030c6:	6823      	ldr	r3, [r4, #0]
 80030c8:	68a0      	ldr	r0, [r4, #8]
 80030ca:	689a      	ldr	r2, [r3, #8]
 80030cc:	6861      	ldr	r1, [r4, #4]
 80030ce:	4402      	add	r2, r0
 80030d0:	609a      	str	r2, [r3, #8]
 80030d2:	600b      	str	r3, [r1, #0]
 80030d4:	6826      	ldr	r6, [r4, #0]
 80030d6:	9a01      	ldr	r2, [sp, #4]
 80030d8:	682b      	ldr	r3, [r5, #0]
 80030da:	480b      	ldr	r0, [pc, #44]	; (8003108 <chVTDoResetI+0x58>)
 80030dc:	6071      	str	r1, [r6, #4]
 80030de:	2500      	movs	r5, #0
 80030e0:	f04f 31ff 	mov.w	r1, #4294967295
 80030e4:	429a      	cmp	r2, r3
 80030e6:	60e5      	str	r5, [r4, #12]
 80030e8:	6241      	str	r1, [r0, #36]	; 0x24
 80030ea:	d109      	bne.n	8003100 <chVTDoResetI+0x50>
 80030ec:	b002      	add	sp, #8
 80030ee:	bd70      	pop	{r4, r5, r6, pc}
 80030f0:	4806      	ldr	r0, [pc, #24]	; (800310c <chVTDoResetI+0x5c>)
 80030f2:	f7ff fd7d 	bl	8002bf0 <chSysHalt>
 80030f6:	e7e6      	b.n	80030c6 <chVTDoResetI+0x16>
 80030f8:	4804      	ldr	r0, [pc, #16]	; (800310c <chVTDoResetI+0x5c>)
 80030fa:	f7ff fd79 	bl	8002bf0 <chSysHalt>
 80030fe:	e7e0      	b.n	80030c2 <chVTDoResetI+0x12>
 8003100:	f7fe f906 	bl	8001310 <__stack_chk_fail>
 8003104:	2000081c 	.word	0x2000081c
 8003108:	200018b0 	.word	0x200018b0
 800310c:	0800d6e0 	.word	0x0800d6e0

08003110 <_scheduler_init>:
 8003110:	b500      	push	{lr}
 8003112:	4a0a      	ldr	r2, [pc, #40]	; (800313c <_scheduler_init+0x2c>)
 8003114:	4b0a      	ldr	r3, [pc, #40]	; (8003140 <_scheduler_init+0x30>)
 8003116:	6811      	ldr	r1, [r2, #0]
 8003118:	601b      	str	r3, [r3, #0]
 800311a:	b083      	sub	sp, #12
 800311c:	2000      	movs	r0, #0
 800311e:	9101      	str	r1, [sp, #4]
 8003120:	9901      	ldr	r1, [sp, #4]
 8003122:	6812      	ldr	r2, [r2, #0]
 8003124:	605b      	str	r3, [r3, #4]
 8003126:	4291      	cmp	r1, r2
 8003128:	e9c3 3304 	strd	r3, r3, [r3, #16]
 800312c:	6098      	str	r0, [r3, #8]
 800312e:	d102      	bne.n	8003136 <_scheduler_init+0x26>
 8003130:	b003      	add	sp, #12
 8003132:	f85d fb04 	ldr.w	pc, [sp], #4
 8003136:	f7fe f8eb 	bl	8001310 <__stack_chk_fail>
 800313a:	bf00      	nop
 800313c:	2000081c 	.word	0x2000081c
 8003140:	200018b0 	.word	0x200018b0
	...

08003150 <chSchReadyI>:
 8003150:	b570      	push	{r4, r5, r6, lr}
 8003152:	4d16      	ldr	r5, [pc, #88]	; (80031ac <chSchReadyI+0x5c>)
 8003154:	b082      	sub	sp, #8
 8003156:	4604      	mov	r4, r0
 8003158:	682b      	ldr	r3, [r5, #0]
 800315a:	9301      	str	r3, [sp, #4]
 800315c:	f7ff feb8 	bl	8002ed0 <chDbgCheckClassI>
 8003160:	b1ec      	cbz	r4, 800319e <chSchReadyI+0x4e>
 8003162:	f894 3020 	ldrb.w	r3, [r4, #32]
 8003166:	b1b3      	cbz	r3, 8003196 <chSchReadyI+0x46>
 8003168:	2b0f      	cmp	r3, #15
 800316a:	d014      	beq.n	8003196 <chSchReadyI+0x46>
 800316c:	2200      	movs	r2, #0
 800316e:	68a1      	ldr	r1, [r4, #8]
 8003170:	4b0f      	ldr	r3, [pc, #60]	; (80031b0 <chSchReadyI+0x60>)
 8003172:	f884 2020 	strb.w	r2, [r4, #32]
 8003176:	681b      	ldr	r3, [r3, #0]
 8003178:	689a      	ldr	r2, [r3, #8]
 800317a:	428a      	cmp	r2, r1
 800317c:	d2fb      	bcs.n	8003176 <chSchReadyI+0x26>
 800317e:	9e01      	ldr	r6, [sp, #4]
 8003180:	6829      	ldr	r1, [r5, #0]
 8003182:	685a      	ldr	r2, [r3, #4]
 8003184:	428e      	cmp	r6, r1
 8003186:	e9c4 3200 	strd	r3, r2, [r4]
 800318a:	4620      	mov	r0, r4
 800318c:	6014      	str	r4, [r2, #0]
 800318e:	605c      	str	r4, [r3, #4]
 8003190:	d109      	bne.n	80031a6 <chSchReadyI+0x56>
 8003192:	b002      	add	sp, #8
 8003194:	bd70      	pop	{r4, r5, r6, pc}
 8003196:	4807      	ldr	r0, [pc, #28]	; (80031b4 <chSchReadyI+0x64>)
 8003198:	f7ff fd2a 	bl	8002bf0 <chSysHalt>
 800319c:	e7e6      	b.n	800316c <chSchReadyI+0x1c>
 800319e:	4805      	ldr	r0, [pc, #20]	; (80031b4 <chSchReadyI+0x64>)
 80031a0:	f7ff fd26 	bl	8002bf0 <chSysHalt>
 80031a4:	e7dd      	b.n	8003162 <chSchReadyI+0x12>
 80031a6:	f7fe f8b3 	bl	8001310 <__stack_chk_fail>
 80031aa:	bf00      	nop
 80031ac:	2000081c 	.word	0x2000081c
 80031b0:	200018b0 	.word	0x200018b0
 80031b4:	0800d6f0 	.word	0x0800d6f0
	...

080031c0 <wakeup>:
 80031c0:	b570      	push	{r4, r5, r6, lr}
 80031c2:	4d20      	ldr	r5, [pc, #128]	; (8003244 <wakeup+0x84>)
 80031c4:	b082      	sub	sp, #8
 80031c6:	682b      	ldr	r3, [r5, #0]
 80031c8:	9301      	str	r3, [sp, #4]
 80031ca:	4604      	mov	r4, r0
 80031cc:	2320      	movs	r3, #32
 80031ce:	f383 8811 	msr	BASEPRI, r3
 80031d2:	f000 fe4d 	bl	8003e70 <_stats_start_measure_crit_isr>
 80031d6:	f7ff fdeb 	bl	8002db0 <_dbg_check_lock_from_isr>
 80031da:	f894 3020 	ldrb.w	r3, [r4, #32]
 80031de:	2b07      	cmp	r3, #7
 80031e0:	d810      	bhi.n	8003204 <wakeup+0x44>
 80031e2:	e8df f003 	tbb	[pc, r3]
 80031e6:	0f15      	.short	0x0f15
 80031e8:	040a220f 	.word	0x040a220f
 80031ec:	0a0f      	.short	0x0a0f
 80031ee:	6aa6      	ldr	r6, [r4, #40]	; 0x28
 80031f0:	f7ff fe6e 	bl	8002ed0 <chDbgCheckClassI>
 80031f4:	68b3      	ldr	r3, [r6, #8]
 80031f6:	3301      	adds	r3, #1
 80031f8:	60b3      	str	r3, [r6, #8]
 80031fa:	e9d4 2300 	ldrd	r2, r3, [r4]
 80031fe:	601a      	str	r2, [r3, #0]
 8003200:	6822      	ldr	r2, [r4, #0]
 8003202:	6053      	str	r3, [r2, #4]
 8003204:	f04f 33ff 	mov.w	r3, #4294967295
 8003208:	62a3      	str	r3, [r4, #40]	; 0x28
 800320a:	4620      	mov	r0, r4
 800320c:	f7ff ffa0 	bl	8003150 <chSchReadyI>
 8003210:	f7ff fdee 	bl	8002df0 <_dbg_check_unlock_from_isr>
 8003214:	f000 fe44 	bl	8003ea0 <_stats_stop_measure_crit_isr>
 8003218:	2300      	movs	r3, #0
 800321a:	f383 8811 	msr	BASEPRI, r3
 800321e:	9a01      	ldr	r2, [sp, #4]
 8003220:	682b      	ldr	r3, [r5, #0]
 8003222:	429a      	cmp	r2, r3
 8003224:	d10b      	bne.n	800323e <wakeup+0x7e>
 8003226:	b002      	add	sp, #8
 8003228:	bd70      	pop	{r4, r5, r6, pc}
 800322a:	6aa3      	ldr	r3, [r4, #40]	; 0x28
 800322c:	2200      	movs	r2, #0
 800322e:	601a      	str	r2, [r3, #0]
 8003230:	f04f 33ff 	mov.w	r3, #4294967295
 8003234:	62a3      	str	r3, [r4, #40]	; 0x28
 8003236:	4620      	mov	r0, r4
 8003238:	f7ff ff8a 	bl	8003150 <chSchReadyI>
 800323c:	e7e8      	b.n	8003210 <wakeup+0x50>
 800323e:	f7fe f867 	bl	8001310 <__stack_chk_fail>
 8003242:	bf00      	nop
 8003244:	2000081c 	.word	0x2000081c
	...

08003250 <chSchGoSleepS>:
 8003250:	b5f0      	push	{r4, r5, r6, r7, lr}
 8003252:	4e19      	ldr	r6, [pc, #100]	; (80032b8 <chSchGoSleepS+0x68>)
 8003254:	4c19      	ldr	r4, [pc, #100]	; (80032bc <chSchGoSleepS+0x6c>)
 8003256:	6833      	ldr	r3, [r6, #0]
 8003258:	b083      	sub	sp, #12
 800325a:	4607      	mov	r7, r0
 800325c:	9301      	str	r3, [sp, #4]
 800325e:	f7ff fe5f 	bl	8002f20 <chDbgCheckClassS>
 8003262:	69a5      	ldr	r5, [r4, #24]
 8003264:	6823      	ldr	r3, [r4, #0]
 8003266:	f885 7020 	strb.w	r7, [r5, #32]
 800326a:	2214      	movs	r2, #20
 800326c:	f885 2023 	strb.w	r2, [r5, #35]	; 0x23
 8003270:	681a      	ldr	r2, [r3, #0]
 8003272:	6022      	str	r2, [r4, #0]
 8003274:	2101      	movs	r1, #1
 8003276:	6054      	str	r4, [r2, #4]
 8003278:	4628      	mov	r0, r5
 800327a:	f883 1020 	strb.w	r1, [r3, #32]
 800327e:	61a3      	str	r3, [r4, #24]
 8003280:	f7ff fe8e 	bl	8002fa0 <_dbg_trace>
 8003284:	4629      	mov	r1, r5
 8003286:	69a0      	ldr	r0, [r4, #24]
 8003288:	f000 fda2 	bl	8003dd0 <_stats_ctxswc>
 800328c:	f3ef 8309 	mrs	r3, PSP
 8003290:	69ea      	ldr	r2, [r5, #28]
 8003292:	3b64      	subs	r3, #100	; 0x64
 8003294:	429a      	cmp	r2, r3
 8003296:	d902      	bls.n	800329e <chSchGoSleepS+0x4e>
 8003298:	4809      	ldr	r0, [pc, #36]	; (80032c0 <chSchGoSleepS+0x70>)
 800329a:	f7ff fca9 	bl	8002bf0 <chSysHalt>
 800329e:	9a01      	ldr	r2, [sp, #4]
 80032a0:	6833      	ldr	r3, [r6, #0]
 80032a2:	429a      	cmp	r2, r3
 80032a4:	d106      	bne.n	80032b4 <chSchGoSleepS+0x64>
 80032a6:	69a0      	ldr	r0, [r4, #24]
 80032a8:	4629      	mov	r1, r5
 80032aa:	b003      	add	sp, #12
 80032ac:	e8bd 40f0 	ldmia.w	sp!, {r4, r5, r6, r7, lr}
 80032b0:	f7fc bffe 	b.w	80002b0 <_port_switch>
 80032b4:	f7fe f82c 	bl	8001310 <__stack_chk_fail>
 80032b8:	2000081c 	.word	0x2000081c
 80032bc:	200018b0 	.word	0x200018b0
 80032c0:	0800d700 	.word	0x0800d700
	...

080032d0 <chSchGoSleepTimeoutS>:
 80032d0:	b5f0      	push	{r4, r5, r6, r7, lr}
 80032d2:	4c15      	ldr	r4, [pc, #84]	; (8003328 <chSchGoSleepTimeoutS+0x58>)
 80032d4:	b087      	sub	sp, #28
 80032d6:	6823      	ldr	r3, [r4, #0]
 80032d8:	9305      	str	r3, [sp, #20]
 80032da:	460e      	mov	r6, r1
 80032dc:	4607      	mov	r7, r0
 80032de:	f7ff fe1f 	bl	8002f20 <chDbgCheckClassS>
 80032e2:	1c73      	adds	r3, r6, #1
 80032e4:	d018      	beq.n	8003318 <chSchGoSleepTimeoutS+0x48>
 80032e6:	4d11      	ldr	r5, [pc, #68]	; (800332c <chSchGoSleepTimeoutS+0x5c>)
 80032e8:	4a11      	ldr	r2, [pc, #68]	; (8003330 <chSchGoSleepTimeoutS+0x60>)
 80032ea:	69ab      	ldr	r3, [r5, #24]
 80032ec:	4631      	mov	r1, r6
 80032ee:	4668      	mov	r0, sp
 80032f0:	f7ff fe9e 	bl	8003030 <chVTDoSetI>
 80032f4:	4638      	mov	r0, r7
 80032f6:	f7ff ffab 	bl	8003250 <chSchGoSleepS>
 80032fa:	f7ff fde9 	bl	8002ed0 <chDbgCheckClassI>
 80032fe:	9b03      	ldr	r3, [sp, #12]
 8003300:	b113      	cbz	r3, 8003308 <chSchGoSleepTimeoutS+0x38>
 8003302:	4668      	mov	r0, sp
 8003304:	f7ff fed4 	bl	80030b0 <chVTDoResetI>
 8003308:	9a05      	ldr	r2, [sp, #20]
 800330a:	6823      	ldr	r3, [r4, #0]
 800330c:	69a9      	ldr	r1, [r5, #24]
 800330e:	429a      	cmp	r2, r3
 8003310:	6a88      	ldr	r0, [r1, #40]	; 0x28
 8003312:	d106      	bne.n	8003322 <chSchGoSleepTimeoutS+0x52>
 8003314:	b007      	add	sp, #28
 8003316:	bdf0      	pop	{r4, r5, r6, r7, pc}
 8003318:	4638      	mov	r0, r7
 800331a:	f7ff ff99 	bl	8003250 <chSchGoSleepS>
 800331e:	4d03      	ldr	r5, [pc, #12]	; (800332c <chSchGoSleepTimeoutS+0x5c>)
 8003320:	e7f2      	b.n	8003308 <chSchGoSleepTimeoutS+0x38>
 8003322:	f7fd fff5 	bl	8001310 <__stack_chk_fail>
 8003326:	bf00      	nop
 8003328:	2000081c 	.word	0x2000081c
 800332c:	200018b0 	.word	0x200018b0
 8003330:	080031c1 	.word	0x080031c1
	...

08003340 <chSchWakeupS>:
 8003340:	b5f0      	push	{r4, r5, r6, r7, lr}
 8003342:	4d1e      	ldr	r5, [pc, #120]	; (80033bc <chSchWakeupS+0x7c>)
 8003344:	4e1e      	ldr	r6, [pc, #120]	; (80033c0 <chSchWakeupS+0x80>)
 8003346:	682b      	ldr	r3, [r5, #0]
 8003348:	b083      	sub	sp, #12
 800334a:	4604      	mov	r4, r0
 800334c:	9301      	str	r3, [sp, #4]
 800334e:	460f      	mov	r7, r1
 8003350:	f7ff fde6 	bl	8002f20 <chDbgCheckClassS>
 8003354:	69b0      	ldr	r0, [r6, #24]
 8003356:	68a2      	ldr	r2, [r4, #8]
 8003358:	6883      	ldr	r3, [r0, #8]
 800335a:	62a7      	str	r7, [r4, #40]	; 0x28
 800335c:	429a      	cmp	r2, r3
 800335e:	d91d      	bls.n	800339c <chSchWakeupS+0x5c>
 8003360:	f7ff fef6 	bl	8003150 <chSchReadyI>
 8003364:	2301      	movs	r3, #1
 8003366:	4607      	mov	r7, r0
 8003368:	f884 3020 	strb.w	r3, [r4, #32]
 800336c:	61b4      	str	r4, [r6, #24]
 800336e:	f7ff fe17 	bl	8002fa0 <_dbg_trace>
 8003372:	4639      	mov	r1, r7
 8003374:	4620      	mov	r0, r4
 8003376:	f000 fd2b 	bl	8003dd0 <_stats_ctxswc>
 800337a:	f3ef 8309 	mrs	r3, PSP
 800337e:	69fa      	ldr	r2, [r7, #28]
 8003380:	3b64      	subs	r3, #100	; 0x64
 8003382:	429a      	cmp	r2, r3
 8003384:	d814      	bhi.n	80033b0 <chSchWakeupS+0x70>
 8003386:	9a01      	ldr	r2, [sp, #4]
 8003388:	682b      	ldr	r3, [r5, #0]
 800338a:	429a      	cmp	r2, r3
 800338c:	d114      	bne.n	80033b8 <chSchWakeupS+0x78>
 800338e:	4639      	mov	r1, r7
 8003390:	4620      	mov	r0, r4
 8003392:	b003      	add	sp, #12
 8003394:	e8bd 40f0 	ldmia.w	sp!, {r4, r5, r6, r7, lr}
 8003398:	f7fc bf8a 	b.w	80002b0 <_port_switch>
 800339c:	9a01      	ldr	r2, [sp, #4]
 800339e:	682b      	ldr	r3, [r5, #0]
 80033a0:	429a      	cmp	r2, r3
 80033a2:	d109      	bne.n	80033b8 <chSchWakeupS+0x78>
 80033a4:	4620      	mov	r0, r4
 80033a6:	b003      	add	sp, #12
 80033a8:	e8bd 40f0 	ldmia.w	sp!, {r4, r5, r6, r7, lr}
 80033ac:	f7ff bed0 	b.w	8003150 <chSchReadyI>
 80033b0:	4804      	ldr	r0, [pc, #16]	; (80033c4 <chSchWakeupS+0x84>)
 80033b2:	f7ff fc1d 	bl	8002bf0 <chSysHalt>
 80033b6:	e7e6      	b.n	8003386 <chSchWakeupS+0x46>
 80033b8:	f7fd ffaa 	bl	8001310 <__stack_chk_fail>
 80033bc:	2000081c 	.word	0x2000081c
 80033c0:	200018b0 	.word	0x200018b0
 80033c4:	0800d700 	.word	0x0800d700
	...

080033d0 <chSchIsPreemptionRequired>:
 80033d0:	b510      	push	{r4, lr}
 80033d2:	490e      	ldr	r1, [pc, #56]	; (800340c <chSchIsPreemptionRequired+0x3c>)
 80033d4:	4b0e      	ldr	r3, [pc, #56]	; (8003410 <chSchIsPreemptionRequired+0x40>)
 80033d6:	698a      	ldr	r2, [r1, #24]
 80033d8:	6808      	ldr	r0, [r1, #0]
 80033da:	f892 1023 	ldrb.w	r1, [r2, #35]	; 0x23
 80033de:	681c      	ldr	r4, [r3, #0]
 80033e0:	6880      	ldr	r0, [r0, #8]
 80033e2:	6892      	ldr	r2, [r2, #8]
 80033e4:	b082      	sub	sp, #8
 80033e6:	9401      	str	r4, [sp, #4]
 80033e8:	b949      	cbnz	r1, 80033fe <chSchIsPreemptionRequired+0x2e>
 80033ea:	4290      	cmp	r0, r2
 80033ec:	bf34      	ite	cc
 80033ee:	2000      	movcc	r0, #0
 80033f0:	2001      	movcs	r0, #1
 80033f2:	9a01      	ldr	r2, [sp, #4]
 80033f4:	681b      	ldr	r3, [r3, #0]
 80033f6:	429a      	cmp	r2, r3
 80033f8:	d106      	bne.n	8003408 <chSchIsPreemptionRequired+0x38>
 80033fa:	b002      	add	sp, #8
 80033fc:	bd10      	pop	{r4, pc}
 80033fe:	4290      	cmp	r0, r2
 8003400:	bf94      	ite	ls
 8003402:	2000      	movls	r0, #0
 8003404:	2001      	movhi	r0, #1
 8003406:	e7f4      	b.n	80033f2 <chSchIsPreemptionRequired+0x22>
 8003408:	f7fd ff82 	bl	8001310 <__stack_chk_fail>
 800340c:	200018b0 	.word	0x200018b0
 8003410:	2000081c 	.word	0x2000081c
	...

08003420 <chSchDoRescheduleBehind>:
 8003420:	b570      	push	{r4, r5, r6, lr}
 8003422:	4c18      	ldr	r4, [pc, #96]	; (8003484 <chSchDoRescheduleBehind+0x64>)
 8003424:	4e18      	ldr	r6, [pc, #96]	; (8003488 <chSchDoRescheduleBehind+0x68>)
 8003426:	6823      	ldr	r3, [r4, #0]
 8003428:	69a5      	ldr	r5, [r4, #24]
 800342a:	681a      	ldr	r2, [r3, #0]
 800342c:	6022      	str	r2, [r4, #0]
 800342e:	6054      	str	r4, [r2, #4]
 8003430:	2201      	movs	r2, #1
 8003432:	f883 2020 	strb.w	r2, [r3, #32]
 8003436:	b082      	sub	sp, #8
 8003438:	2214      	movs	r2, #20
 800343a:	6831      	ldr	r1, [r6, #0]
 800343c:	f885 2023 	strb.w	r2, [r5, #35]	; 0x23
 8003440:	4628      	mov	r0, r5
 8003442:	61a3      	str	r3, [r4, #24]
 8003444:	9101      	str	r1, [sp, #4]
 8003446:	f7ff fe83 	bl	8003150 <chSchReadyI>
 800344a:	4628      	mov	r0, r5
 800344c:	f7ff fda8 	bl	8002fa0 <_dbg_trace>
 8003450:	4629      	mov	r1, r5
 8003452:	69a0      	ldr	r0, [r4, #24]
 8003454:	f000 fcbc 	bl	8003dd0 <_stats_ctxswc>
 8003458:	f3ef 8309 	mrs	r3, PSP
 800345c:	69ea      	ldr	r2, [r5, #28]
 800345e:	3b64      	subs	r3, #100	; 0x64
 8003460:	429a      	cmp	r2, r3
 8003462:	d902      	bls.n	800346a <chSchDoRescheduleBehind+0x4a>
 8003464:	4809      	ldr	r0, [pc, #36]	; (800348c <chSchDoRescheduleBehind+0x6c>)
 8003466:	f7ff fbc3 	bl	8002bf0 <chSysHalt>
 800346a:	9a01      	ldr	r2, [sp, #4]
 800346c:	6833      	ldr	r3, [r6, #0]
 800346e:	429a      	cmp	r2, r3
 8003470:	d106      	bne.n	8003480 <chSchDoRescheduleBehind+0x60>
 8003472:	69a0      	ldr	r0, [r4, #24]
 8003474:	4629      	mov	r1, r5
 8003476:	b002      	add	sp, #8
 8003478:	e8bd 4070 	ldmia.w	sp!, {r4, r5, r6, lr}
 800347c:	f7fc bf18 	b.w	80002b0 <_port_switch>
 8003480:	f7fd ff46 	bl	8001310 <__stack_chk_fail>
 8003484:	200018b0 	.word	0x200018b0
 8003488:	2000081c 	.word	0x2000081c
 800348c:	0800d700 	.word	0x0800d700

08003490 <chSchDoRescheduleAhead>:
 8003490:	4b1d      	ldr	r3, [pc, #116]	; (8003508 <chSchDoRescheduleAhead+0x78>)
 8003492:	b5f0      	push	{r4, r5, r6, r7, lr}
 8003494:	681a      	ldr	r2, [r3, #0]
 8003496:	699c      	ldr	r4, [r3, #24]
 8003498:	6810      	ldr	r0, [r2, #0]
 800349a:	4e1c      	ldr	r6, [pc, #112]	; (800350c <chSchDoRescheduleAhead+0x7c>)
 800349c:	68a1      	ldr	r1, [r4, #8]
 800349e:	6018      	str	r0, [r3, #0]
 80034a0:	6043      	str	r3, [r0, #4]
 80034a2:	461d      	mov	r5, r3
 80034a4:	b083      	sub	sp, #12
 80034a6:	619a      	str	r2, [r3, #24]
 80034a8:	2301      	movs	r3, #1
 80034aa:	f882 3020 	strb.w	r3, [r2, #32]
 80034ae:	6837      	ldr	r7, [r6, #0]
 80034b0:	9701      	str	r7, [sp, #4]
 80034b2:	2300      	movs	r3, #0
 80034b4:	f884 3020 	strb.w	r3, [r4, #32]
 80034b8:	462b      	mov	r3, r5
 80034ba:	681b      	ldr	r3, [r3, #0]
 80034bc:	689a      	ldr	r2, [r3, #8]
 80034be:	4291      	cmp	r1, r2
 80034c0:	d3fb      	bcc.n	80034ba <chSchDoRescheduleAhead+0x2a>
 80034c2:	685a      	ldr	r2, [r3, #4]
 80034c4:	4620      	mov	r0, r4
 80034c6:	e9c4 3200 	strd	r3, r2, [r4]
 80034ca:	6014      	str	r4, [r2, #0]
 80034cc:	605c      	str	r4, [r3, #4]
 80034ce:	f7ff fd67 	bl	8002fa0 <_dbg_trace>
 80034d2:	4621      	mov	r1, r4
 80034d4:	69a8      	ldr	r0, [r5, #24]
 80034d6:	f000 fc7b 	bl	8003dd0 <_stats_ctxswc>
 80034da:	f3ef 8309 	mrs	r3, PSP
 80034de:	69e2      	ldr	r2, [r4, #28]
 80034e0:	3b64      	subs	r3, #100	; 0x64
 80034e2:	429a      	cmp	r2, r3
 80034e4:	d902      	bls.n	80034ec <chSchDoRescheduleAhead+0x5c>
 80034e6:	480a      	ldr	r0, [pc, #40]	; (8003510 <chSchDoRescheduleAhead+0x80>)
 80034e8:	f7ff fb82 	bl	8002bf0 <chSysHalt>
 80034ec:	9a01      	ldr	r2, [sp, #4]
 80034ee:	6833      	ldr	r3, [r6, #0]
 80034f0:	429a      	cmp	r2, r3
 80034f2:	d106      	bne.n	8003502 <chSchDoRescheduleAhead+0x72>
 80034f4:	69a8      	ldr	r0, [r5, #24]
 80034f6:	4621      	mov	r1, r4
 80034f8:	b003      	add	sp, #12
 80034fa:	e8bd 40f0 	ldmia.w	sp!, {r4, r5, r6, r7, lr}
 80034fe:	f7fc bed7 	b.w	80002b0 <_port_switch>
 8003502:	f7fd ff05 	bl	8001310 <__stack_chk_fail>
 8003506:	bf00      	nop
 8003508:	200018b0 	.word	0x200018b0
 800350c:	2000081c 	.word	0x2000081c
 8003510:	0800d700 	.word	0x0800d700
	...

08003520 <chSchRescheduleS>:
 8003520:	b510      	push	{r4, lr}
 8003522:	4c0f      	ldr	r4, [pc, #60]	; (8003560 <chSchRescheduleS+0x40>)
 8003524:	b082      	sub	sp, #8
 8003526:	6823      	ldr	r3, [r4, #0]
 8003528:	9301      	str	r3, [sp, #4]
 800352a:	f7ff fcf9 	bl	8002f20 <chDbgCheckClassS>
 800352e:	f7ff fccf 	bl	8002ed0 <chDbgCheckClassI>
 8003532:	4b0c      	ldr	r3, [pc, #48]	; (8003564 <chSchRescheduleS+0x44>)
 8003534:	681a      	ldr	r2, [r3, #0]
 8003536:	699b      	ldr	r3, [r3, #24]
 8003538:	6892      	ldr	r2, [r2, #8]
 800353a:	689b      	ldr	r3, [r3, #8]
 800353c:	429a      	cmp	r2, r3
 800353e:	9a01      	ldr	r2, [sp, #4]
 8003540:	6823      	ldr	r3, [r4, #0]
 8003542:	d803      	bhi.n	800354c <chSchRescheduleS+0x2c>
 8003544:	429a      	cmp	r2, r3
 8003546:	d108      	bne.n	800355a <chSchRescheduleS+0x3a>
 8003548:	b002      	add	sp, #8
 800354a:	bd10      	pop	{r4, pc}
 800354c:	429a      	cmp	r2, r3
 800354e:	d104      	bne.n	800355a <chSchRescheduleS+0x3a>
 8003550:	b002      	add	sp, #8
 8003552:	e8bd 4010 	ldmia.w	sp!, {r4, lr}
 8003556:	f7ff bf9b 	b.w	8003490 <chSchDoRescheduleAhead>
 800355a:	f7fd fed9 	bl	8001310 <__stack_chk_fail>
 800355e:	bf00      	nop
 8003560:	2000081c 	.word	0x2000081c
 8003564:	200018b0 	.word	0x200018b0
	...

08003570 <chSchDoReschedule>:
 8003570:	b500      	push	{lr}
 8003572:	4a0e      	ldr	r2, [pc, #56]	; (80035ac <chSchDoReschedule+0x3c>)
 8003574:	4b0e      	ldr	r3, [pc, #56]	; (80035b0 <chSchDoReschedule+0x40>)
 8003576:	6992      	ldr	r2, [r2, #24]
 8003578:	6819      	ldr	r1, [r3, #0]
 800357a:	f892 2023 	ldrb.w	r2, [r2, #35]	; 0x23
 800357e:	b083      	sub	sp, #12
 8003580:	9101      	str	r1, [sp, #4]
 8003582:	b142      	cbz	r2, 8003596 <chSchDoReschedule+0x26>
 8003584:	9a01      	ldr	r2, [sp, #4]
 8003586:	681b      	ldr	r3, [r3, #0]
 8003588:	429a      	cmp	r2, r3
 800358a:	d10d      	bne.n	80035a8 <chSchDoReschedule+0x38>
 800358c:	b003      	add	sp, #12
 800358e:	f85d eb04 	ldr.w	lr, [sp], #4
 8003592:	f7ff bf7d 	b.w	8003490 <chSchDoRescheduleAhead>
 8003596:	9a01      	ldr	r2, [sp, #4]
 8003598:	681b      	ldr	r3, [r3, #0]
 800359a:	429a      	cmp	r2, r3
 800359c:	d104      	bne.n	80035a8 <chSchDoReschedule+0x38>
 800359e:	b003      	add	sp, #12
 80035a0:	f85d eb04 	ldr.w	lr, [sp], #4
 80035a4:	f7ff bf3c 	b.w	8003420 <chSchDoRescheduleBehind>
 80035a8:	f7fd feb2 	bl	8001310 <__stack_chk_fail>
 80035ac:	200018b0 	.word	0x200018b0
 80035b0:	2000081c 	.word	0x2000081c
	...

080035c0 <_thread_init>:
 80035c0:	b5f0      	push	{r4, r5, r6, r7, lr}
 80035c2:	4d1a      	ldr	r5, [pc, #104]	; (800362c <_thread_init+0x6c>)
 80035c4:	4a1a      	ldr	r2, [pc, #104]	; (8003630 <_thread_init+0x70>)
 80035c6:	682b      	ldr	r3, [r5, #0]
 80035c8:	6441      	str	r1, [r0, #68]	; 0x44
 80035ca:	b083      	sub	sp, #12
 80035cc:	4604      	mov	r4, r0
 80035ce:	9301      	str	r3, [sp, #4]
 80035d0:	2302      	movs	r3, #2
 80035d2:	6957      	ldr	r7, [r2, #20]
 80035d4:	6081      	str	r1, [r0, #8]
 80035d6:	2601      	movs	r6, #1
 80035d8:	8423      	strh	r3, [r4, #32]
 80035da:	2300      	movs	r3, #0
 80035dc:	f04f 0c14 	mov.w	ip, #20
 80035e0:	f104 0168 	add.w	r1, r4, #104	; 0x68
 80035e4:	f884 6022 	strb.w	r6, [r4, #34]	; 0x22
 80035e8:	e9c4 330f 	strd	r3, r3, [r4, #60]	; 0x3c
 80035ec:	61a3      	str	r3, [r4, #24]
 80035ee:	6263      	str	r3, [r4, #36]	; 0x24
 80035f0:	302c      	adds	r0, #44	; 0x2c
 80035f2:	f104 0330 	add.w	r3, r4, #48	; 0x30
 80035f6:	f104 0650 	add.w	r6, r4, #80	; 0x50
 80035fa:	e9c4 2704 	strd	r2, r7, [r4, #16]
 80035fe:	f884 c023 	strb.w	ip, [r4, #35]	; 0x23
 8003602:	613c      	str	r4, [r7, #16]
 8003604:	e9c4 330c 	strd	r3, r3, [r4, #48]	; 0x30
 8003608:	62e0      	str	r0, [r4, #44]	; 0x2c
 800360a:	61e1      	str	r1, [r4, #28]
 800360c:	4630      	mov	r0, r6
 800360e:	6154      	str	r4, [r2, #20]
 8003610:	f000 fae6 	bl	8003be0 <chTMObjectInit>
 8003614:	4630      	mov	r0, r6
 8003616:	f000 fb03 	bl	8003c20 <chTMStartMeasurementX>
 800361a:	9a01      	ldr	r2, [sp, #4]
 800361c:	682b      	ldr	r3, [r5, #0]
 800361e:	429a      	cmp	r2, r3
 8003620:	d102      	bne.n	8003628 <_thread_init+0x68>
 8003622:	4620      	mov	r0, r4
 8003624:	b003      	add	sp, #12
 8003626:	bdf0      	pop	{r4, r5, r6, r7, pc}
 8003628:	f7fd fe72 	bl	8001310 <__stack_chk_fail>
 800362c:	2000081c 	.word	0x2000081c
 8003630:	200018b0 	.word	0x200018b0
	...

08003640 <_thread_memfill>:
 8003640:	b510      	push	{r4, lr}
 8003642:	4b09      	ldr	r3, [pc, #36]	; (8003668 <_thread_memfill+0x28>)
 8003644:	b082      	sub	sp, #8
 8003646:	681c      	ldr	r4, [r3, #0]
 8003648:	9401      	str	r4, [sp, #4]
 800364a:	4288      	cmp	r0, r1
 800364c:	d203      	bcs.n	8003656 <_thread_memfill+0x16>
 800364e:	f800 2b01 	strb.w	r2, [r0], #1
 8003652:	4281      	cmp	r1, r0
 8003654:	d1fb      	bne.n	800364e <_thread_memfill+0xe>
 8003656:	9a01      	ldr	r2, [sp, #4]
 8003658:	681b      	ldr	r3, [r3, #0]
 800365a:	429a      	cmp	r2, r3
 800365c:	d101      	bne.n	8003662 <_thread_memfill+0x22>
 800365e:	b002      	add	sp, #8
 8003660:	bd10      	pop	{r4, pc}
 8003662:	f7fd fe55 	bl	8001310 <__stack_chk_fail>
 8003666:	bf00      	nop
 8003668:	2000081c 	.word	0x2000081c
 800366c:	00000000 	.word	0x00000000

08003670 <chThdCreateI>:
 8003670:	e92d 43f0 	stmdb	sp!, {r4, r5, r6, r7, r8, r9, lr}
 8003674:	4e17      	ldr	r6, [pc, #92]	; (80036d4 <chThdCreateI+0x64>)
 8003676:	b083      	sub	sp, #12
 8003678:	6834      	ldr	r4, [r6, #0]
 800367a:	9401      	str	r4, [sp, #4]
 800367c:	4605      	mov	r5, r0
 800367e:	f8dd 9028 	ldr.w	r9, [sp, #40]	; 0x28
 8003682:	460c      	mov	r4, r1
 8003684:	4617      	mov	r7, r2
 8003686:	4698      	mov	r8, r3
 8003688:	f7ff fc22 	bl	8002ed0 <chDbgCheckClassI>
 800368c:	b115      	cbz	r5, 8003694 <chThdCreateI+0x24>
 800368e:	f5b4 7fbc 	cmp.w	r4, #376	; 0x178
 8003692:	d217      	bcs.n	80036c4 <chThdCreateI+0x54>
 8003694:	4810      	ldr	r0, [pc, #64]	; (80036d8 <chThdCreateI+0x68>)
 8003696:	f7ff faab 	bl	8002bf0 <chSysHalt>
 800369a:	9a01      	ldr	r2, [sp, #4]
 800369c:	6833      	ldr	r3, [r6, #0]
 800369e:	480f      	ldr	r0, [pc, #60]	; (80036dc <chThdCreateI+0x6c>)
 80036a0:	f1a4 0164 	sub.w	r1, r4, #100	; 0x64
 80036a4:	4429      	add	r1, r5
 80036a6:	429a      	cmp	r2, r3
 80036a8:	60e9      	str	r1, [r5, #12]
 80036aa:	f8c1 8040 	str.w	r8, [r1, #64]	; 0x40
 80036ae:	f8c1 9044 	str.w	r9, [r1, #68]	; 0x44
 80036b2:	6608      	str	r0, [r1, #96]	; 0x60
 80036b4:	d10c      	bne.n	80036d0 <chThdCreateI+0x60>
 80036b6:	4639      	mov	r1, r7
 80036b8:	4628      	mov	r0, r5
 80036ba:	b003      	add	sp, #12
 80036bc:	e8bd 43f0 	ldmia.w	sp!, {r4, r5, r6, r7, r8, r9, lr}
 80036c0:	f7ff bf7e 	b.w	80035c0 <_thread_init>
 80036c4:	2f7f      	cmp	r7, #127	; 0x7f
 80036c6:	d8e5      	bhi.n	8003694 <chThdCreateI+0x24>
 80036c8:	f1b8 0f00 	cmp.w	r8, #0
 80036cc:	d1e5      	bne.n	800369a <chThdCreateI+0x2a>
 80036ce:	e7e1      	b.n	8003694 <chThdCreateI+0x24>
 80036d0:	f7fd fe1e 	bl	8001310 <__stack_chk_fail>
 80036d4:	2000081c 	.word	0x2000081c
 80036d8:	0800d750 	.word	0x0800d750
 80036dc:	080002c9 	.word	0x080002c9

080036e0 <chThdCreateStatic>:
 80036e0:	e92d 4ff0 	stmdb	sp!, {r4, r5, r6, r7, r8, r9, sl, fp, lr}
 80036e4:	f8df 80a4 	ldr.w	r8, [pc, #164]	; 800378c <chThdCreateStatic+0xac>
 80036e8:	b087      	sub	sp, #28
 80036ea:	f8d8 4000 	ldr.w	r4, [r8]
 80036ee:	f8dd 9040 	ldr.w	r9, [sp, #64]	; 0x40
 80036f2:	9405      	str	r4, [sp, #20]
 80036f4:	4607      	mov	r7, r0
 80036f6:	468a      	mov	sl, r1
 80036f8:	4693      	mov	fp, r2
 80036fa:	f100 0668 	add.w	r6, r0, #104	; 0x68
 80036fe:	4604      	mov	r4, r0
 8003700:	25ff      	movs	r5, #255	; 0xff
 8003702:	f804 5b01 	strb.w	r5, [r4], #1
 8003706:	42a6      	cmp	r6, r4
 8003708:	d1fb      	bne.n	8003702 <chThdCreateStatic+0x22>
 800370a:	eb07 050a 	add.w	r5, r7, sl
 800370e:	42a5      	cmp	r5, r4
 8003710:	d904      	bls.n	800371c <chThdCreateStatic+0x3c>
 8003712:	2655      	movs	r6, #85	; 0x55
 8003714:	f804 6b01 	strb.w	r6, [r4], #1
 8003718:	42a5      	cmp	r5, r4
 800371a:	d1fb      	bne.n	8003714 <chThdCreateStatic+0x34>
 800371c:	9303      	str	r3, [sp, #12]
 800371e:	2220      	movs	r2, #32
 8003720:	f382 8811 	msr	BASEPRI, r2
 8003724:	f000 fb74 	bl	8003e10 <_stats_start_measure_crit_thd>
 8003728:	f7ff fb02 	bl	8002d30 <_dbg_check_lock>
 800372c:	9b03      	ldr	r3, [sp, #12]
 800372e:	f8cd 9000 	str.w	r9, [sp]
 8003732:	465a      	mov	r2, fp
 8003734:	4651      	mov	r1, sl
 8003736:	4638      	mov	r0, r7
 8003738:	f7ff ff9a 	bl	8003670 <chThdCreateI>
 800373c:	2100      	movs	r1, #0
 800373e:	4604      	mov	r4, r0
 8003740:	f7ff fdfe 	bl	8003340 <chSchWakeupS>
 8003744:	f7ff fb14 	bl	8002d70 <_dbg_check_unlock>
 8003748:	f000 fb7a 	bl	8003e40 <_stats_stop_measure_crit_thd>
 800374c:	4b0d      	ldr	r3, [pc, #52]	; (8003784 <chThdCreateStatic+0xa4>)
 800374e:	681a      	ldr	r2, [r3, #0]
 8003750:	429a      	cmp	r2, r3
 8003752:	d004      	beq.n	800375e <chThdCreateStatic+0x7e>
 8003754:	6999      	ldr	r1, [r3, #24]
 8003756:	6893      	ldr	r3, [r2, #8]
 8003758:	688a      	ldr	r2, [r1, #8]
 800375a:	429a      	cmp	r2, r3
 800375c:	d30b      	bcc.n	8003776 <chThdCreateStatic+0x96>
 800375e:	2300      	movs	r3, #0
 8003760:	f383 8811 	msr	BASEPRI, r3
 8003764:	9a05      	ldr	r2, [sp, #20]
 8003766:	f8d8 3000 	ldr.w	r3, [r8]
 800376a:	429a      	cmp	r2, r3
 800376c:	4620      	mov	r0, r4
 800376e:	d106      	bne.n	800377e <chThdCreateStatic+0x9e>
 8003770:	b007      	add	sp, #28
 8003772:	e8bd 8ff0 	ldmia.w	sp!, {r4, r5, r6, r7, r8, r9, sl, fp, pc}
 8003776:	4804      	ldr	r0, [pc, #16]	; (8003788 <chThdCreateStatic+0xa8>)
 8003778:	f7ff fa3a 	bl	8002bf0 <chSysHalt>
 800377c:	e7ef      	b.n	800375e <chThdCreateStatic+0x7e>
 800377e:	f7fd fdc7 	bl	8001310 <__stack_chk_fail>
 8003782:	bf00      	nop
 8003784:	200018b0 	.word	0x200018b0
 8003788:	0800d710 	.word	0x0800d710
 800378c:	2000081c 	.word	0x2000081c

08003790 <chThdTerminate>:
 8003790:	b530      	push	{r4, r5, lr}
 8003792:	4c17      	ldr	r4, [pc, #92]	; (80037f0 <chThdTerminate+0x60>)
 8003794:	b083      	sub	sp, #12
 8003796:	6823      	ldr	r3, [r4, #0]
 8003798:	9301      	str	r3, [sp, #4]
 800379a:	4605      	mov	r5, r0
 800379c:	2320      	movs	r3, #32
 800379e:	f383 8811 	msr	BASEPRI, r3
 80037a2:	f000 fb35 	bl	8003e10 <_stats_start_measure_crit_thd>
 80037a6:	f7ff fac3 	bl	8002d30 <_dbg_check_lock>
 80037aa:	f895 3021 	ldrb.w	r3, [r5, #33]	; 0x21
 80037ae:	f043 0304 	orr.w	r3, r3, #4
 80037b2:	f885 3021 	strb.w	r3, [r5, #33]	; 0x21
 80037b6:	f7ff fadb 	bl	8002d70 <_dbg_check_unlock>
 80037ba:	f000 fb41 	bl	8003e40 <_stats_stop_measure_crit_thd>
 80037be:	4b0d      	ldr	r3, [pc, #52]	; (80037f4 <chThdTerminate+0x64>)
 80037c0:	681a      	ldr	r2, [r3, #0]
 80037c2:	429a      	cmp	r2, r3
 80037c4:	d004      	beq.n	80037d0 <chThdTerminate+0x40>
 80037c6:	6999      	ldr	r1, [r3, #24]
 80037c8:	6893      	ldr	r3, [r2, #8]
 80037ca:	688a      	ldr	r2, [r1, #8]
 80037cc:	429a      	cmp	r2, r3
 80037ce:	d308      	bcc.n	80037e2 <chThdTerminate+0x52>
 80037d0:	2300      	movs	r3, #0
 80037d2:	f383 8811 	msr	BASEPRI, r3
 80037d6:	9a01      	ldr	r2, [sp, #4]
 80037d8:	6823      	ldr	r3, [r4, #0]
 80037da:	429a      	cmp	r2, r3
 80037dc:	d105      	bne.n	80037ea <chThdTerminate+0x5a>
 80037de:	b003      	add	sp, #12
 80037e0:	bd30      	pop	{r4, r5, pc}
 80037e2:	4805      	ldr	r0, [pc, #20]	; (80037f8 <chThdTerminate+0x68>)
 80037e4:	f7ff fa04 	bl	8002bf0 <chSysHalt>
 80037e8:	e7f2      	b.n	80037d0 <chThdTerminate+0x40>
 80037ea:	f7fd fd91 	bl	8001310 <__stack_chk_fail>
 80037ee:	bf00      	nop
 80037f0:	2000081c 	.word	0x2000081c
 80037f4:	200018b0 	.word	0x200018b0
 80037f8:	0800d710 	.word	0x0800d710
 80037fc:	00000000 	.word	0x00000000

08003800 <chThdSleep>:
 8003800:	b530      	push	{r4, r5, lr}
 8003802:	4c18      	ldr	r4, [pc, #96]	; (8003864 <chThdSleep+0x64>)
 8003804:	b083      	sub	sp, #12
 8003806:	6823      	ldr	r3, [r4, #0]
 8003808:	9301      	str	r3, [sp, #4]
 800380a:	4605      	mov	r5, r0
 800380c:	2320      	movs	r3, #32
 800380e:	f383 8811 	msr	BASEPRI, r3
 8003812:	f000 fafd 	bl	8003e10 <_stats_start_measure_crit_thd>
 8003816:	f7ff fa8b 	bl	8002d30 <_dbg_check_lock>
 800381a:	b915      	cbnz	r5, 8003822 <chThdSleep+0x22>
 800381c:	4812      	ldr	r0, [pc, #72]	; (8003868 <chThdSleep+0x68>)
 800381e:	f7ff f9e7 	bl	8002bf0 <chSysHalt>
 8003822:	4629      	mov	r1, r5
 8003824:	2008      	movs	r0, #8
 8003826:	f7ff fd53 	bl	80032d0 <chSchGoSleepTimeoutS>
 800382a:	f7ff faa1 	bl	8002d70 <_dbg_check_unlock>
 800382e:	f000 fb07 	bl	8003e40 <_stats_stop_measure_crit_thd>
 8003832:	4b0e      	ldr	r3, [pc, #56]	; (800386c <chThdSleep+0x6c>)
 8003834:	681a      	ldr	r2, [r3, #0]
 8003836:	429a      	cmp	r2, r3
 8003838:	d004      	beq.n	8003844 <chThdSleep+0x44>
 800383a:	6999      	ldr	r1, [r3, #24]
 800383c:	6893      	ldr	r3, [r2, #8]
 800383e:	688a      	ldr	r2, [r1, #8]
 8003840:	429a      	cmp	r2, r3
 8003842:	d308      	bcc.n	8003856 <chThdSleep+0x56>
 8003844:	2300      	movs	r3, #0
 8003846:	f383 8811 	msr	BASEPRI, r3
 800384a:	9a01      	ldr	r2, [sp, #4]
 800384c:	6823      	ldr	r3, [r4, #0]
 800384e:	429a      	cmp	r2, r3
 8003850:	d105      	bne.n	800385e <chThdSleep+0x5e>
 8003852:	b003      	add	sp, #12
 8003854:	bd30      	pop	{r4, r5, pc}
 8003856:	4806      	ldr	r0, [pc, #24]	; (8003870 <chThdSleep+0x70>)
 8003858:	f7ff f9ca 	bl	8002bf0 <chSysHalt>
 800385c:	e7f2      	b.n	8003844 <chThdSleep+0x44>
 800385e:	f7fd fd57 	bl	8001310 <__stack_chk_fail>
 8003862:	bf00      	nop
 8003864:	2000081c 	.word	0x2000081c
 8003868:	0800d720 	.word	0x0800d720
 800386c:	200018b0 	.word	0x200018b0
 8003870:	0800d710 	.word	0x0800d710
	...

08003880 <chThdSleepUntilWindowed>:
 8003880:	b5f0      	push	{r4, r5, r6, r7, lr}
 8003882:	4f1c      	ldr	r7, [pc, #112]	; (80038f4 <chThdSleepUntilWindowed+0x74>)
 8003884:	b083      	sub	sp, #12
 8003886:	683b      	ldr	r3, [r7, #0]
 8003888:	9301      	str	r3, [sp, #4]
 800388a:	4604      	mov	r4, r0
 800388c:	460e      	mov	r6, r1
 800388e:	2320      	movs	r3, #32
 8003890:	f383 8811 	msr	BASEPRI, r3
 8003894:	4d18      	ldr	r5, [pc, #96]	; (80038f8 <chThdSleepUntilWindowed+0x78>)
 8003896:	f000 fabb 	bl	8003e10 <_stats_start_measure_crit_thd>
 800389a:	f7ff fa49 	bl	8002d30 <_dbg_check_lock>
 800389e:	6aa9      	ldr	r1, [r5, #40]	; 0x28
 80038a0:	1b33      	subs	r3, r6, r4
 80038a2:	1b0c      	subs	r4, r1, r4
 80038a4:	429c      	cmp	r4, r3
 80038a6:	d319      	bcc.n	80038dc <chThdSleepUntilWindowed+0x5c>
 80038a8:	f7ff fa62 	bl	8002d70 <_dbg_check_unlock>
 80038ac:	f000 fac8 	bl	8003e40 <_stats_stop_measure_crit_thd>
 80038b0:	682b      	ldr	r3, [r5, #0]
 80038b2:	42ab      	cmp	r3, r5
 80038b4:	d004      	beq.n	80038c0 <chThdSleepUntilWindowed+0x40>
 80038b6:	69aa      	ldr	r2, [r5, #24]
 80038b8:	689b      	ldr	r3, [r3, #8]
 80038ba:	6892      	ldr	r2, [r2, #8]
 80038bc:	429a      	cmp	r2, r3
 80038be:	d309      	bcc.n	80038d4 <chThdSleepUntilWindowed+0x54>
 80038c0:	2300      	movs	r3, #0
 80038c2:	f383 8811 	msr	BASEPRI, r3
 80038c6:	9a01      	ldr	r2, [sp, #4]
 80038c8:	683b      	ldr	r3, [r7, #0]
 80038ca:	429a      	cmp	r2, r3
 80038cc:	4630      	mov	r0, r6
 80038ce:	d10f      	bne.n	80038f0 <chThdSleepUntilWindowed+0x70>
 80038d0:	b003      	add	sp, #12
 80038d2:	bdf0      	pop	{r4, r5, r6, r7, pc}
 80038d4:	4809      	ldr	r0, [pc, #36]	; (80038fc <chThdSleepUntilWindowed+0x7c>)
 80038d6:	f7ff f98b 	bl	8002bf0 <chSysHalt>
 80038da:	e7f1      	b.n	80038c0 <chThdSleepUntilWindowed+0x40>
 80038dc:	1a74      	subs	r4, r6, r1
 80038de:	d102      	bne.n	80038e6 <chThdSleepUntilWindowed+0x66>
 80038e0:	4807      	ldr	r0, [pc, #28]	; (8003900 <chThdSleepUntilWindowed+0x80>)
 80038e2:	f7ff f985 	bl	8002bf0 <chSysHalt>
 80038e6:	4621      	mov	r1, r4
 80038e8:	2008      	movs	r0, #8
 80038ea:	f7ff fcf1 	bl	80032d0 <chSchGoSleepTimeoutS>
 80038ee:	e7db      	b.n	80038a8 <chThdSleepUntilWindowed+0x28>
 80038f0:	f7fd fd0e 	bl	8001310 <__stack_chk_fail>
 80038f4:	2000081c 	.word	0x2000081c
 80038f8:	200018b0 	.word	0x200018b0
 80038fc:	0800d710 	.word	0x0800d710
 8003900:	0800d720 	.word	0x0800d720
	...

08003910 <chThdExitS>:
 8003910:	b570      	push	{r4, r5, r6, lr}
 8003912:	4b16      	ldr	r3, [pc, #88]	; (800396c <chThdExitS+0x5c>)
 8003914:	4e16      	ldr	r6, [pc, #88]	; (8003970 <chThdExitS+0x60>)
 8003916:	699c      	ldr	r4, [r3, #24]
 8003918:	6832      	ldr	r2, [r6, #0]
 800391a:	6ae3      	ldr	r3, [r4, #44]	; 0x2c
 800391c:	62a0      	str	r0, [r4, #40]	; 0x28
 800391e:	b082      	sub	sp, #8
 8003920:	f104 052c 	add.w	r5, r4, #44	; 0x2c
 8003924:	42ab      	cmp	r3, r5
 8003926:	9201      	str	r2, [sp, #4]
 8003928:	d007      	beq.n	800393a <chThdExitS+0x2a>
 800392a:	681a      	ldr	r2, [r3, #0]
 800392c:	62e2      	str	r2, [r4, #44]	; 0x2c
 800392e:	4618      	mov	r0, r3
 8003930:	f7ff fc0e 	bl	8003150 <chSchReadyI>
 8003934:	6ae3      	ldr	r3, [r4, #44]	; 0x2c
 8003936:	42ab      	cmp	r3, r5
 8003938:	d1f7      	bne.n	800392a <chThdExitS+0x1a>
 800393a:	f894 3021 	ldrb.w	r3, [r4, #33]	; 0x21
 800393e:	079b      	lsls	r3, r3, #30
 8003940:	d104      	bne.n	800394c <chThdExitS+0x3c>
 8003942:	e9d4 2304 	ldrd	r2, r3, [r4, #16]
 8003946:	611a      	str	r2, [r3, #16]
 8003948:	6922      	ldr	r2, [r4, #16]
 800394a:	6153      	str	r3, [r2, #20]
 800394c:	200f      	movs	r0, #15
 800394e:	f7ff fc7f 	bl	8003250 <chSchGoSleepS>
 8003952:	9a01      	ldr	r2, [sp, #4]
 8003954:	6833      	ldr	r3, [r6, #0]
 8003956:	429a      	cmp	r2, r3
 8003958:	d105      	bne.n	8003966 <chThdExitS+0x56>
 800395a:	4806      	ldr	r0, [pc, #24]	; (8003974 <chThdExitS+0x64>)
 800395c:	b002      	add	sp, #8
 800395e:	e8bd 4070 	ldmia.w	sp!, {r4, r5, r6, lr}
 8003962:	f7ff b945 	b.w	8002bf0 <chSysHalt>
 8003966:	f7fd fcd3 	bl	8001310 <__stack_chk_fail>
 800396a:	bf00      	nop
 800396c:	200018b0 	.word	0x200018b0
 8003970:	2000081c 	.word	0x2000081c
 8003974:	0800d760 	.word	0x0800d760
	...

08003980 <chThdExit>:
 8003980:	b530      	push	{r4, r5, lr}
 8003982:	4c0c      	ldr	r4, [pc, #48]	; (80039b4 <chThdExit+0x34>)
 8003984:	b083      	sub	sp, #12
 8003986:	6823      	ldr	r3, [r4, #0]
 8003988:	9301      	str	r3, [sp, #4]
 800398a:	4605      	mov	r5, r0
 800398c:	2320      	movs	r3, #32
 800398e:	f383 8811 	msr	BASEPRI, r3
 8003992:	f000 fa3d 	bl	8003e10 <_stats_start_measure_crit_thd>
 8003996:	f7ff f9cb 	bl	8002d30 <_dbg_check_lock>
 800399a:	9a01      	ldr	r2, [sp, #4]
 800399c:	6823      	ldr	r3, [r4, #0]
 800399e:	429a      	cmp	r2, r3
 80039a0:	d105      	bne.n	80039ae <chThdExit+0x2e>
 80039a2:	4628      	mov	r0, r5
 80039a4:	b003      	add	sp, #12
 80039a6:	e8bd 4030 	ldmia.w	sp!, {r4, r5, lr}
 80039aa:	f7ff bfb1 	b.w	8003910 <chThdExitS>
 80039ae:	f7fd fcaf 	bl	8001310 <__stack_chk_fail>
 80039b2:	bf00      	nop
 80039b4:	2000081c 	.word	0x2000081c
	...

080039c0 <chThdSuspendS>:
 80039c0:	b5f0      	push	{r4, r5, r6, r7, lr}
 80039c2:	4d0d      	ldr	r5, [pc, #52]	; (80039f8 <chThdSuspendS+0x38>)
 80039c4:	4e0d      	ldr	r6, [pc, #52]	; (80039fc <chThdSuspendS+0x3c>)
 80039c6:	6803      	ldr	r3, [r0, #0]
 80039c8:	682a      	ldr	r2, [r5, #0]
 80039ca:	69b7      	ldr	r7, [r6, #24]
 80039cc:	b083      	sub	sp, #12
 80039ce:	4604      	mov	r4, r0
 80039d0:	9201      	str	r2, [sp, #4]
 80039d2:	b113      	cbz	r3, 80039da <chThdSuspendS+0x1a>
 80039d4:	480a      	ldr	r0, [pc, #40]	; (8003a00 <chThdSuspendS+0x40>)
 80039d6:	f7ff f90b 	bl	8002bf0 <chSysHalt>
 80039da:	6027      	str	r7, [r4, #0]
 80039dc:	2003      	movs	r0, #3
 80039de:	62bc      	str	r4, [r7, #40]	; 0x28
 80039e0:	f7ff fc36 	bl	8003250 <chSchGoSleepS>
 80039e4:	9a01      	ldr	r2, [sp, #4]
 80039e6:	682b      	ldr	r3, [r5, #0]
 80039e8:	69b1      	ldr	r1, [r6, #24]
 80039ea:	429a      	cmp	r2, r3
 80039ec:	6a88      	ldr	r0, [r1, #40]	; 0x28
 80039ee:	d101      	bne.n	80039f4 <chThdSuspendS+0x34>
 80039f0:	b003      	add	sp, #12
 80039f2:	bdf0      	pop	{r4, r5, r6, r7, pc}
 80039f4:	f7fd fc8c 	bl	8001310 <__stack_chk_fail>
 80039f8:	2000081c 	.word	0x2000081c
 80039fc:	200018b0 	.word	0x200018b0
 8003a00:	0800d770 	.word	0x0800d770
	...

08003a10 <chThdSuspendTimeoutS>:
 8003a10:	b5f0      	push	{r4, r5, r6, r7, lr}
 8003a12:	4d12      	ldr	r5, [pc, #72]	; (8003a5c <chThdSuspendTimeoutS+0x4c>)
 8003a14:	6803      	ldr	r3, [r0, #0]
 8003a16:	4a12      	ldr	r2, [pc, #72]	; (8003a60 <chThdSuspendTimeoutS+0x50>)
 8003a18:	b083      	sub	sp, #12
 8003a1a:	4604      	mov	r4, r0
 8003a1c:	6828      	ldr	r0, [r5, #0]
 8003a1e:	9001      	str	r0, [sp, #4]
 8003a20:	460e      	mov	r6, r1
 8003a22:	6997      	ldr	r7, [r2, #24]
 8003a24:	b113      	cbz	r3, 8003a2c <chThdSuspendTimeoutS+0x1c>
 8003a26:	480f      	ldr	r0, [pc, #60]	; (8003a64 <chThdSuspendTimeoutS+0x54>)
 8003a28:	f7ff f8e2 	bl	8002bf0 <chSysHalt>
 8003a2c:	b166      	cbz	r6, 8003a48 <chThdSuspendTimeoutS+0x38>
 8003a2e:	6027      	str	r7, [r4, #0]
 8003a30:	9a01      	ldr	r2, [sp, #4]
 8003a32:	682b      	ldr	r3, [r5, #0]
 8003a34:	62bc      	str	r4, [r7, #40]	; 0x28
 8003a36:	429a      	cmp	r2, r3
 8003a38:	d10e      	bne.n	8003a58 <chThdSuspendTimeoutS+0x48>
 8003a3a:	4631      	mov	r1, r6
 8003a3c:	2003      	movs	r0, #3
 8003a3e:	b003      	add	sp, #12
 8003a40:	e8bd 40f0 	ldmia.w	sp!, {r4, r5, r6, r7, lr}
 8003a44:	f7ff bc44 	b.w	80032d0 <chSchGoSleepTimeoutS>
 8003a48:	9a01      	ldr	r2, [sp, #4]
 8003a4a:	682b      	ldr	r3, [r5, #0]
 8003a4c:	429a      	cmp	r2, r3
 8003a4e:	f04f 30ff 	mov.w	r0, #4294967295
 8003a52:	d101      	bne.n	8003a58 <chThdSuspendTimeoutS+0x48>
 8003a54:	b003      	add	sp, #12
 8003a56:	bdf0      	pop	{r4, r5, r6, r7, pc}
 8003a58:	f7fd fc5a 	bl	8001310 <__stack_chk_fail>
 8003a5c:	2000081c 	.word	0x2000081c
 8003a60:	200018b0 	.word	0x200018b0
 8003a64:	0800d780 	.word	0x0800d780
	...

08003a70 <chThdResumeI>:
 8003a70:	b5f0      	push	{r4, r5, r6, r7, lr}
 8003a72:	4d12      	ldr	r5, [pc, #72]	; (8003abc <chThdResumeI+0x4c>)
 8003a74:	6804      	ldr	r4, [r0, #0]
 8003a76:	682b      	ldr	r3, [r5, #0]
 8003a78:	b083      	sub	sp, #12
 8003a7a:	9301      	str	r3, [sp, #4]
 8003a7c:	b1b4      	cbz	r4, 8003aac <chThdResumeI+0x3c>
 8003a7e:	f894 3020 	ldrb.w	r3, [r4, #32]
 8003a82:	2b03      	cmp	r3, #3
 8003a84:	4606      	mov	r6, r0
 8003a86:	460f      	mov	r7, r1
 8003a88:	d10c      	bne.n	8003aa4 <chThdResumeI+0x34>
 8003a8a:	2300      	movs	r3, #0
 8003a8c:	6033      	str	r3, [r6, #0]
 8003a8e:	9a01      	ldr	r2, [sp, #4]
 8003a90:	682b      	ldr	r3, [r5, #0]
 8003a92:	62a7      	str	r7, [r4, #40]	; 0x28
 8003a94:	429a      	cmp	r2, r3
 8003a96:	d10f      	bne.n	8003ab8 <chThdResumeI+0x48>
 8003a98:	4620      	mov	r0, r4
 8003a9a:	b003      	add	sp, #12
 8003a9c:	e8bd 40f0 	ldmia.w	sp!, {r4, r5, r6, r7, lr}
 8003aa0:	f7ff bb56 	b.w	8003150 <chSchReadyI>
 8003aa4:	4806      	ldr	r0, [pc, #24]	; (8003ac0 <chThdResumeI+0x50>)
 8003aa6:	f7ff f8a3 	bl	8002bf0 <chSysHalt>
 8003aaa:	e7ee      	b.n	8003a8a <chThdResumeI+0x1a>
 8003aac:	9a01      	ldr	r2, [sp, #4]
 8003aae:	682b      	ldr	r3, [r5, #0]
 8003ab0:	429a      	cmp	r2, r3
 8003ab2:	d101      	bne.n	8003ab8 <chThdResumeI+0x48>
 8003ab4:	b003      	add	sp, #12
 8003ab6:	bdf0      	pop	{r4, r5, r6, r7, pc}
 8003ab8:	f7fd fc2a 	bl	8001310 <__stack_chk_fail>
 8003abc:	2000081c 	.word	0x2000081c
 8003ac0:	0800d7a0 	.word	0x0800d7a0
	...

08003ad0 <chThdEnqueueTimeoutS>:
 8003ad0:	b530      	push	{r4, r5, lr}
 8003ad2:	4a10      	ldr	r2, [pc, #64]	; (8003b14 <chThdEnqueueTimeoutS+0x44>)
 8003ad4:	b083      	sub	sp, #12
 8003ad6:	6813      	ldr	r3, [r2, #0]
 8003ad8:	9301      	str	r3, [sp, #4]
 8003ada:	b181      	cbz	r1, 8003afe <chThdEnqueueTimeoutS+0x2e>
 8003adc:	4b0e      	ldr	r3, [pc, #56]	; (8003b18 <chThdEnqueueTimeoutS+0x48>)
 8003ade:	9d01      	ldr	r5, [sp, #4]
 8003ae0:	6812      	ldr	r2, [r2, #0]
 8003ae2:	6844      	ldr	r4, [r0, #4]
 8003ae4:	699b      	ldr	r3, [r3, #24]
 8003ae6:	4295      	cmp	r5, r2
 8003ae8:	e9c3 0400 	strd	r0, r4, [r3]
 8003aec:	6023      	str	r3, [r4, #0]
 8003aee:	6043      	str	r3, [r0, #4]
 8003af0:	d10d      	bne.n	8003b0e <chThdEnqueueTimeoutS+0x3e>
 8003af2:	2004      	movs	r0, #4
 8003af4:	b003      	add	sp, #12
 8003af6:	e8bd 4030 	ldmia.w	sp!, {r4, r5, lr}
 8003afa:	f7ff bbe9 	b.w	80032d0 <chSchGoSleepTimeoutS>
 8003afe:	9901      	ldr	r1, [sp, #4]
 8003b00:	6813      	ldr	r3, [r2, #0]
 8003b02:	4299      	cmp	r1, r3
 8003b04:	f04f 30ff 	mov.w	r0, #4294967295
 8003b08:	d101      	bne.n	8003b0e <chThdEnqueueTimeoutS+0x3e>
 8003b0a:	b003      	add	sp, #12
 8003b0c:	bd30      	pop	{r4, r5, pc}
 8003b0e:	f7fd fbff 	bl	8001310 <__stack_chk_fail>
 8003b12:	bf00      	nop
 8003b14:	2000081c 	.word	0x2000081c
 8003b18:	200018b0 	.word	0x200018b0
 8003b1c:	00000000 	.word	0x00000000

08003b20 <chThdDequeueNextI>:
 8003b20:	b570      	push	{r4, r5, r6, lr}
 8003b22:	4d12      	ldr	r5, [pc, #72]	; (8003b6c <chThdDequeueNextI+0x4c>)
 8003b24:	6804      	ldr	r4, [r0, #0]
 8003b26:	682b      	ldr	r3, [r5, #0]
 8003b28:	b082      	sub	sp, #8
 8003b2a:	42a0      	cmp	r0, r4
 8003b2c:	9301      	str	r3, [sp, #4]
 8003b2e:	d015      	beq.n	8003b5c <chThdDequeueNextI+0x3c>
 8003b30:	6823      	ldr	r3, [r4, #0]
 8003b32:	6003      	str	r3, [r0, #0]
 8003b34:	6058      	str	r0, [r3, #4]
 8003b36:	f894 3020 	ldrb.w	r3, [r4, #32]
 8003b3a:	2b04      	cmp	r3, #4
 8003b3c:	460e      	mov	r6, r1
 8003b3e:	d002      	beq.n	8003b46 <chThdDequeueNextI+0x26>
 8003b40:	480b      	ldr	r0, [pc, #44]	; (8003b70 <chThdDequeueNextI+0x50>)
 8003b42:	f7ff f855 	bl	8002bf0 <chSysHalt>
 8003b46:	9a01      	ldr	r2, [sp, #4]
 8003b48:	682b      	ldr	r3, [r5, #0]
 8003b4a:	62a6      	str	r6, [r4, #40]	; 0x28
 8003b4c:	429a      	cmp	r2, r3
 8003b4e:	d10b      	bne.n	8003b68 <chThdDequeueNextI+0x48>
 8003b50:	4620      	mov	r0, r4
 8003b52:	b002      	add	sp, #8
 8003b54:	e8bd 4070 	ldmia.w	sp!, {r4, r5, r6, lr}
 8003b58:	f7ff bafa 	b.w	8003150 <chSchReadyI>
 8003b5c:	9a01      	ldr	r2, [sp, #4]
 8003b5e:	682b      	ldr	r3, [r5, #0]
 8003b60:	429a      	cmp	r2, r3
 8003b62:	d101      	bne.n	8003b68 <chThdDequeueNextI+0x48>
 8003b64:	b002      	add	sp, #8
 8003b66:	bd70      	pop	{r4, r5, r6, pc}
 8003b68:	f7fd fbd2 	bl	8001310 <__stack_chk_fail>
 8003b6c:	2000081c 	.word	0x2000081c
 8003b70:	0800d730 	.word	0x0800d730
	...

08003b80 <chThdDequeueAllI>:
 8003b80:	e92d 41f0 	stmdb	sp!, {r4, r5, r6, r7, r8, lr}
 8003b84:	f8df 8050 	ldr.w	r8, [pc, #80]	; 8003bd8 <chThdDequeueAllI+0x58>
 8003b88:	6804      	ldr	r4, [r0, #0]
 8003b8a:	f8d8 3000 	ldr.w	r3, [r8]
 8003b8e:	b082      	sub	sp, #8
 8003b90:	42a0      	cmp	r0, r4
 8003b92:	9301      	str	r3, [sp, #4]
 8003b94:	d013      	beq.n	8003bbe <chThdDequeueAllI+0x3e>
 8003b96:	4f0f      	ldr	r7, [pc, #60]	; (8003bd4 <chThdDequeueAllI+0x54>)
 8003b98:	4605      	mov	r5, r0
 8003b9a:	460e      	mov	r6, r1
 8003b9c:	6823      	ldr	r3, [r4, #0]
 8003b9e:	602b      	str	r3, [r5, #0]
 8003ba0:	605d      	str	r5, [r3, #4]
 8003ba2:	f894 3020 	ldrb.w	r3, [r4, #32]
 8003ba6:	2b04      	cmp	r3, #4
 8003ba8:	d002      	beq.n	8003bb0 <chThdDequeueAllI+0x30>
 8003baa:	4638      	mov	r0, r7
 8003bac:	f7ff f820 	bl	8002bf0 <chSysHalt>
 8003bb0:	62a6      	str	r6, [r4, #40]	; 0x28
 8003bb2:	4620      	mov	r0, r4
 8003bb4:	f7ff facc 	bl	8003150 <chSchReadyI>
 8003bb8:	682c      	ldr	r4, [r5, #0]
 8003bba:	42a5      	cmp	r5, r4
 8003bbc:	d1ee      	bne.n	8003b9c <chThdDequeueAllI+0x1c>
 8003bbe:	9a01      	ldr	r2, [sp, #4]
 8003bc0:	f8d8 3000 	ldr.w	r3, [r8]
 8003bc4:	429a      	cmp	r2, r3
 8003bc6:	d102      	bne.n	8003bce <chThdDequeueAllI+0x4e>
 8003bc8:	b002      	add	sp, #8
 8003bca:	e8bd 81f0 	ldmia.w	sp!, {r4, r5, r6, r7, r8, pc}
 8003bce:	f7fd fb9f 	bl	8001310 <__stack_chk_fail>
 8003bd2:	bf00      	nop
 8003bd4:	0800d730 	.word	0x0800d730
 8003bd8:	2000081c 	.word	0x2000081c
 8003bdc:	00000000 	.word	0x00000000

08003be0 <chTMObjectInit>:
 8003be0:	b530      	push	{r4, r5, lr}
 8003be2:	4b0c      	ldr	r3, [pc, #48]	; (8003c14 <chTMObjectInit+0x34>)
 8003be4:	b083      	sub	sp, #12
 8003be6:	681a      	ldr	r2, [r3, #0]
 8003be8:	9201      	str	r2, [sp, #4]
 8003bea:	9901      	ldr	r1, [sp, #4]
 8003bec:	681a      	ldr	r2, [r3, #0]
 8003bee:	f04f 33ff 	mov.w	r3, #4294967295
 8003bf2:	2400      	movs	r4, #0
 8003bf4:	2500      	movs	r5, #0
 8003bf6:	6003      	str	r3, [r0, #0]
 8003bf8:	4291      	cmp	r1, r2
 8003bfa:	f04f 0300 	mov.w	r3, #0
 8003bfe:	e9c0 4504 	strd	r4, r5, [r0, #16]
 8003c02:	e9c0 3301 	strd	r3, r3, [r0, #4]
 8003c06:	60c3      	str	r3, [r0, #12]
 8003c08:	d101      	bne.n	8003c0e <chTMObjectInit+0x2e>
 8003c0a:	b003      	add	sp, #12
 8003c0c:	bd30      	pop	{r4, r5, pc}
 8003c0e:	f7fd fb7f 	bl	8001310 <__stack_chk_fail>
 8003c12:	bf00      	nop
 8003c14:	2000081c 	.word	0x2000081c
	...

08003c20 <chTMStartMeasurementX>:
 8003c20:	b500      	push	{lr}
 8003c22:	4b08      	ldr	r3, [pc, #32]	; (8003c44 <chTMStartMeasurementX+0x24>)
 8003c24:	4a08      	ldr	r2, [pc, #32]	; (8003c48 <chTMStartMeasurementX+0x28>)
 8003c26:	6819      	ldr	r1, [r3, #0]
 8003c28:	b083      	sub	sp, #12
 8003c2a:	9101      	str	r1, [sp, #4]
 8003c2c:	6851      	ldr	r1, [r2, #4]
 8003c2e:	9a01      	ldr	r2, [sp, #4]
 8003c30:	681b      	ldr	r3, [r3, #0]
 8003c32:	6081      	str	r1, [r0, #8]
 8003c34:	429a      	cmp	r2, r3
 8003c36:	d102      	bne.n	8003c3e <chTMStartMeasurementX+0x1e>
 8003c38:	b003      	add	sp, #12
 8003c3a:	f85d fb04 	ldr.w	pc, [sp], #4
 8003c3e:	f7fd fb67 	bl	8001310 <__stack_chk_fail>
 8003c42:	bf00      	nop
 8003c44:	2000081c 	.word	0x2000081c
 8003c48:	e0001000 	.word	0xe0001000
 8003c4c:	00000000 	.word	0x00000000

08003c50 <chTMStopMeasurementX>:
 8003c50:	b5f0      	push	{r4, r5, r6, r7, lr}
 8003c52:	4914      	ldr	r1, [pc, #80]	; (8003ca4 <chTMStopMeasurementX+0x54>)
 8003c54:	4b14      	ldr	r3, [pc, #80]	; (8003ca8 <chTMStopMeasurementX+0x58>)
 8003c56:	680a      	ldr	r2, [r1, #0]
 8003c58:	6884      	ldr	r4, [r0, #8]
 8003c5a:	b083      	sub	sp, #12
 8003c5c:	9201      	str	r2, [sp, #4]
 8003c5e:	4a13      	ldr	r2, [pc, #76]	; (8003cac <chTMStopMeasurementX+0x5c>)
 8003c60:	685b      	ldr	r3, [r3, #4]
 8003c62:	f8d2 64a8 	ldr.w	r6, [r2, #1192]	; 0x4a8
 8003c66:	68c2      	ldr	r2, [r0, #12]
 8003c68:	1b1b      	subs	r3, r3, r4
 8003c6a:	e9d0 4504 	ldrd	r4, r5, [r0, #16]
 8003c6e:	3201      	adds	r2, #1
 8003c70:	1b9b      	subs	r3, r3, r6
 8003c72:	60c2      	str	r2, [r0, #12]
 8003c74:	6842      	ldr	r2, [r0, #4]
 8003c76:	6083      	str	r3, [r0, #8]
 8003c78:	18e6      	adds	r6, r4, r3
 8003c7a:	f145 0700 	adc.w	r7, r5, #0
 8003c7e:	4293      	cmp	r3, r2
 8003c80:	e9c0 6704 	strd	r6, r7, [r0, #16]
 8003c84:	d809      	bhi.n	8003c9a <chTMStopMeasurementX+0x4a>
 8003c86:	6802      	ldr	r2, [r0, #0]
 8003c88:	4293      	cmp	r3, r2
 8003c8a:	bf38      	it	cc
 8003c8c:	6003      	strcc	r3, [r0, #0]
 8003c8e:	9a01      	ldr	r2, [sp, #4]
 8003c90:	680b      	ldr	r3, [r1, #0]
 8003c92:	429a      	cmp	r2, r3
 8003c94:	d103      	bne.n	8003c9e <chTMStopMeasurementX+0x4e>
 8003c96:	b003      	add	sp, #12
 8003c98:	bdf0      	pop	{r4, r5, r6, r7, pc}
 8003c9a:	6043      	str	r3, [r0, #4]
 8003c9c:	e7f7      	b.n	8003c8e <chTMStopMeasurementX+0x3e>
 8003c9e:	f7fd fb37 	bl	8001310 <__stack_chk_fail>
 8003ca2:	bf00      	nop
 8003ca4:	2000081c 	.word	0x2000081c
 8003ca8:	e0001000 	.word	0xe0001000
 8003cac:	200018b0 	.word	0x200018b0

08003cb0 <_tm_init>:
 8003cb0:	b530      	push	{r4, r5, lr}
 8003cb2:	4d11      	ldr	r5, [pc, #68]	; (8003cf8 <_tm_init+0x48>)
 8003cb4:	4c11      	ldr	r4, [pc, #68]	; (8003cfc <_tm_init+0x4c>)
 8003cb6:	682b      	ldr	r3, [r5, #0]
 8003cb8:	b089      	sub	sp, #36	; 0x24
 8003cba:	f04f 31ff 	mov.w	r1, #4294967295
 8003cbe:	9307      	str	r3, [sp, #28]
 8003cc0:	2300      	movs	r3, #0
 8003cc2:	2200      	movs	r2, #0
 8003cc4:	4668      	mov	r0, sp
 8003cc6:	f8c4 34a8 	str.w	r3, [r4, #1192]	; 0x4a8
 8003cca:	e9cd 3301 	strd	r3, r3, [sp, #4]
 8003cce:	9303      	str	r3, [sp, #12]
 8003cd0:	2300      	movs	r3, #0
 8003cd2:	e9cd 2304 	strd	r2, r3, [sp, #16]
 8003cd6:	9100      	str	r1, [sp, #0]
 8003cd8:	f7ff ffa2 	bl	8003c20 <chTMStartMeasurementX>
 8003cdc:	4668      	mov	r0, sp
 8003cde:	f7ff ffb7 	bl	8003c50 <chTMStopMeasurementX>
 8003ce2:	9a07      	ldr	r2, [sp, #28]
 8003ce4:	682b      	ldr	r3, [r5, #0]
 8003ce6:	9902      	ldr	r1, [sp, #8]
 8003ce8:	f8c4 14a8 	str.w	r1, [r4, #1192]	; 0x4a8
 8003cec:	429a      	cmp	r2, r3
 8003cee:	d101      	bne.n	8003cf4 <_tm_init+0x44>
 8003cf0:	b009      	add	sp, #36	; 0x24
 8003cf2:	bd30      	pop	{r4, r5, pc}
 8003cf4:	f7fd fb0c 	bl	8001310 <__stack_chk_fail>
 8003cf8:	2000081c 	.word	0x2000081c
 8003cfc:	200018b0 	.word	0x200018b0

08003d00 <chTMChainMeasurementToX>:
 8003d00:	e92d 4870 	stmdb	sp!, {r4, r5, r6, fp, lr}
 8003d04:	4e13      	ldr	r6, [pc, #76]	; (8003d54 <chTMChainMeasurementToX+0x54>)
 8003d06:	4b14      	ldr	r3, [pc, #80]	; (8003d58 <chTMChainMeasurementToX+0x58>)
 8003d08:	6832      	ldr	r2, [r6, #0]
 8003d0a:	b083      	sub	sp, #12
 8003d0c:	9201      	str	r2, [sp, #4]
 8003d0e:	685b      	ldr	r3, [r3, #4]
 8003d10:	608b      	str	r3, [r1, #8]
 8003d12:	e9d0 4102 	ldrd	r4, r1, [r0, #8]
 8003d16:	1b1b      	subs	r3, r3, r4
 8003d18:	e9d0 4504 	ldrd	r4, r5, [r0, #16]
 8003d1c:	6842      	ldr	r2, [r0, #4]
 8003d1e:	eb14 0b03 	adds.w	fp, r4, r3
 8003d22:	f145 0c00 	adc.w	ip, r5, #0
 8003d26:	3101      	adds	r1, #1
 8003d28:	4293      	cmp	r3, r2
 8003d2a:	e9c0 3102 	strd	r3, r1, [r0, #8]
 8003d2e:	e9c0 bc04 	strd	fp, ip, [r0, #16]
 8003d32:	d80a      	bhi.n	8003d4a <chTMChainMeasurementToX+0x4a>
 8003d34:	6802      	ldr	r2, [r0, #0]
 8003d36:	4293      	cmp	r3, r2
 8003d38:	bf38      	it	cc
 8003d3a:	6003      	strcc	r3, [r0, #0]
 8003d3c:	9a01      	ldr	r2, [sp, #4]
 8003d3e:	6833      	ldr	r3, [r6, #0]
 8003d40:	429a      	cmp	r2, r3
 8003d42:	d104      	bne.n	8003d4e <chTMChainMeasurementToX+0x4e>
 8003d44:	b003      	add	sp, #12
 8003d46:	e8bd 8870 	ldmia.w	sp!, {r4, r5, r6, fp, pc}
 8003d4a:	6043      	str	r3, [r0, #4]
 8003d4c:	e7f6      	b.n	8003d3c <chTMChainMeasurementToX+0x3c>
 8003d4e:	f7fd fadf 	bl	8001310 <__stack_chk_fail>
 8003d52:	bf00      	nop
 8003d54:	2000081c 	.word	0x2000081c
 8003d58:	e0001000 	.word	0xe0001000
 8003d5c:	00000000 	.word	0x00000000

08003d60 <_stats_init>:
 8003d60:	b530      	push	{r4, r5, lr}
 8003d62:	4d0d      	ldr	r5, [pc, #52]	; (8003d98 <_stats_init+0x38>)
 8003d64:	4c0d      	ldr	r4, [pc, #52]	; (8003d9c <_stats_init+0x3c>)
 8003d66:	682b      	ldr	r3, [r5, #0]
 8003d68:	b083      	sub	sp, #12
 8003d6a:	f504 6097 	add.w	r0, r4, #1208	; 0x4b8
 8003d6e:	9301      	str	r3, [sp, #4]
 8003d70:	2300      	movs	r3, #0
 8003d72:	f8c4 34b0 	str.w	r3, [r4, #1200]	; 0x4b0
 8003d76:	f8c4 34b4 	str.w	r3, [r4, #1204]	; 0x4b4
 8003d7a:	f7ff ff31 	bl	8003be0 <chTMObjectInit>
 8003d7e:	9a01      	ldr	r2, [sp, #4]
 8003d80:	682b      	ldr	r3, [r5, #0]
 8003d82:	429a      	cmp	r2, r3
 8003d84:	d106      	bne.n	8003d94 <_stats_init+0x34>
 8003d86:	f504 609a 	add.w	r0, r4, #1232	; 0x4d0
 8003d8a:	b003      	add	sp, #12
 8003d8c:	e8bd 4030 	ldmia.w	sp!, {r4, r5, lr}
 8003d90:	f7ff bf26 	b.w	8003be0 <chTMObjectInit>
 8003d94:	f7fd fabc 	bl	8001310 <__stack_chk_fail>
 8003d98:	2000081c 	.word	0x2000081c
 8003d9c:	200018b0 	.word	0x200018b0

08003da0 <_stats_increase_irq>:
 8003da0:	b500      	push	{lr}
 8003da2:	4909      	ldr	r1, [pc, #36]	; (8003dc8 <_stats_increase_irq+0x28>)
 8003da4:	4a09      	ldr	r2, [pc, #36]	; (8003dcc <_stats_increase_irq+0x2c>)
 8003da6:	680b      	ldr	r3, [r1, #0]
 8003da8:	b083      	sub	sp, #12
 8003daa:	9301      	str	r3, [sp, #4]
 8003dac:	9801      	ldr	r0, [sp, #4]
 8003dae:	f8d2 34b0 	ldr.w	r3, [r2, #1200]	; 0x4b0
 8003db2:	6809      	ldr	r1, [r1, #0]
 8003db4:	3301      	adds	r3, #1
 8003db6:	4288      	cmp	r0, r1
 8003db8:	f8c2 34b0 	str.w	r3, [r2, #1200]	; 0x4b0
 8003dbc:	d102      	bne.n	8003dc4 <_stats_increase_irq+0x24>
 8003dbe:	b003      	add	sp, #12
 8003dc0:	f85d fb04 	ldr.w	pc, [sp], #4
 8003dc4:	f7fd faa4 	bl	8001310 <__stack_chk_fail>
 8003dc8:	2000081c 	.word	0x2000081c
 8003dcc:	200018b0 	.word	0x200018b0

08003dd0 <_stats_ctxswc>:
 8003dd0:	b570      	push	{r4, r5, r6, lr}
 8003dd2:	4c0d      	ldr	r4, [pc, #52]	; (8003e08 <_stats_ctxswc+0x38>)
 8003dd4:	4a0d      	ldr	r2, [pc, #52]	; (8003e0c <_stats_ctxswc+0x3c>)
 8003dd6:	6823      	ldr	r3, [r4, #0]
 8003dd8:	b082      	sub	sp, #8
 8003dda:	9301      	str	r3, [sp, #4]
 8003ddc:	9d01      	ldr	r5, [sp, #4]
 8003dde:	f8d2 34b4 	ldr.w	r3, [r2, #1204]	; 0x4b4
 8003de2:	6824      	ldr	r4, [r4, #0]
 8003de4:	3301      	adds	r3, #1
 8003de6:	42a5      	cmp	r5, r4
 8003de8:	f8c2 34b4 	str.w	r3, [r2, #1204]	; 0x4b4
 8003dec:	d109      	bne.n	8003e02 <_stats_ctxswc+0x32>
 8003dee:	460e      	mov	r6, r1
 8003df0:	f100 0150 	add.w	r1, r0, #80	; 0x50
 8003df4:	f106 0050 	add.w	r0, r6, #80	; 0x50
 8003df8:	b002      	add	sp, #8
 8003dfa:	e8bd 4070 	ldmia.w	sp!, {r4, r5, r6, lr}
 8003dfe:	f7ff bf7f 	b.w	8003d00 <chTMChainMeasurementToX>
 8003e02:	f7fd fa85 	bl	8001310 <__stack_chk_fail>
 8003e06:	bf00      	nop
 8003e08:	2000081c 	.word	0x2000081c
 8003e0c:	200018b0 	.word	0x200018b0

08003e10 <_stats_start_measure_crit_thd>:
 8003e10:	b500      	push	{lr}
 8003e12:	4b08      	ldr	r3, [pc, #32]	; (8003e34 <_stats_start_measure_crit_thd+0x24>)
 8003e14:	b083      	sub	sp, #12
 8003e16:	681a      	ldr	r2, [r3, #0]
 8003e18:	9201      	str	r2, [sp, #4]
 8003e1a:	9a01      	ldr	r2, [sp, #4]
 8003e1c:	681b      	ldr	r3, [r3, #0]
 8003e1e:	429a      	cmp	r2, r3
 8003e20:	d105      	bne.n	8003e2e <_stats_start_measure_crit_thd+0x1e>
 8003e22:	4805      	ldr	r0, [pc, #20]	; (8003e38 <_stats_start_measure_crit_thd+0x28>)
 8003e24:	b003      	add	sp, #12
 8003e26:	f85d eb04 	ldr.w	lr, [sp], #4
 8003e2a:	f7ff bef9 	b.w	8003c20 <chTMStartMeasurementX>
 8003e2e:	f7fd fa6f 	bl	8001310 <__stack_chk_fail>
 8003e32:	bf00      	nop
 8003e34:	2000081c 	.word	0x2000081c
 8003e38:	20001d68 	.word	0x20001d68
 8003e3c:	00000000 	.word	0x00000000

08003e40 <_stats_stop_measure_crit_thd>:
 8003e40:	b500      	push	{lr}
 8003e42:	4b08      	ldr	r3, [pc, #32]	; (8003e64 <_stats_stop_measure_crit_thd+0x24>)
 8003e44:	b083      	sub	sp, #12
 8003e46:	681a      	ldr	r2, [r3, #0]
 8003e48:	9201      	str	r2, [sp, #4]
 8003e4a:	9a01      	ldr	r2, [sp, #4]
 8003e4c:	681b      	ldr	r3, [r3, #0]
 8003e4e:	429a      	cmp	r2, r3
 8003e50:	d105      	bne.n	8003e5e <_stats_stop_measure_crit_thd+0x1e>
 8003e52:	4805      	ldr	r0, [pc, #20]	; (8003e68 <_stats_stop_measure_crit_thd+0x28>)
 8003e54:	b003      	add	sp, #12
 8003e56:	f85d eb04 	ldr.w	lr, [sp], #4
 8003e5a:	f7ff bef9 	b.w	8003c50 <chTMStopMeasurementX>
 8003e5e:	f7fd fa57 	bl	8001310 <__stack_chk_fail>
 8003e62:	bf00      	nop
 8003e64:	2000081c 	.word	0x2000081c
 8003e68:	20001d68 	.word	0x20001d68
 8003e6c:	00000000 	.word	0x00000000

08003e70 <_stats_start_measure_crit_isr>:
 8003e70:	b500      	push	{lr}
 8003e72:	4b08      	ldr	r3, [pc, #32]	; (8003e94 <_stats_start_measure_crit_isr+0x24>)
 8003e74:	b083      	sub	sp, #12
 8003e76:	681a      	ldr	r2, [r3, #0]
 8003e78:	9201      	str	r2, [sp, #4]
 8003e7a:	9a01      	ldr	r2, [sp, #4]
 8003e7c:	681b      	ldr	r3, [r3, #0]
 8003e7e:	429a      	cmp	r2, r3
 8003e80:	d105      	bne.n	8003e8e <_stats_start_measure_crit_isr+0x1e>
 8003e82:	4805      	ldr	r0, [pc, #20]	; (8003e98 <_stats_start_measure_crit_isr+0x28>)
 8003e84:	b003      	add	sp, #12
 8003e86:	f85d eb04 	ldr.w	lr, [sp], #4
 8003e8a:	f7ff bec9 	b.w	8003c20 <chTMStartMeasurementX>
 8003e8e:	f7fd fa3f 	bl	8001310 <__stack_chk_fail>
 8003e92:	bf00      	nop
 8003e94:	2000081c 	.word	0x2000081c
 8003e98:	20001d80 	.word	0x20001d80
 8003e9c:	00000000 	.word	0x00000000

08003ea0 <_stats_stop_measure_crit_isr>:
 8003ea0:	b500      	push	{lr}
 8003ea2:	4b08      	ldr	r3, [pc, #32]	; (8003ec4 <_stats_stop_measure_crit_isr+0x24>)
 8003ea4:	b083      	sub	sp, #12
 8003ea6:	681a      	ldr	r2, [r3, #0]
 8003ea8:	9201      	str	r2, [sp, #4]
 8003eaa:	9a01      	ldr	r2, [sp, #4]
 8003eac:	681b      	ldr	r3, [r3, #0]
 8003eae:	429a      	cmp	r2, r3
 8003eb0:	d105      	bne.n	8003ebe <_stats_stop_measure_crit_isr+0x1e>
 8003eb2:	4805      	ldr	r0, [pc, #20]	; (8003ec8 <_stats_stop_measure_crit_isr+0x28>)
 8003eb4:	b003      	add	sp, #12
 8003eb6:	f85d eb04 	ldr.w	lr, [sp], #4
 8003eba:	f7ff bec9 	b.w	8003c50 <chTMStopMeasurementX>
 8003ebe:	f7fd fa27 	bl	8001310 <__stack_chk_fail>
 8003ec2:	bf00      	nop
 8003ec4:	2000081c 	.word	0x2000081c
 8003ec8:	20001d80 	.word	0x20001d80
 8003ecc:	00000000 	.word	0x00000000

08003ed0 <chMtxObjectInit>:
 8003ed0:	b530      	push	{r4, r5, lr}
 8003ed2:	4d0b      	ldr	r5, [pc, #44]	; (8003f00 <chMtxObjectInit+0x30>)
 8003ed4:	b083      	sub	sp, #12
 8003ed6:	682b      	ldr	r3, [r5, #0]
 8003ed8:	9301      	str	r3, [sp, #4]
 8003eda:	4604      	mov	r4, r0
 8003edc:	b150      	cbz	r0, 8003ef4 <chMtxObjectInit+0x24>
 8003ede:	9901      	ldr	r1, [sp, #4]
 8003ee0:	682a      	ldr	r2, [r5, #0]
 8003ee2:	6024      	str	r4, [r4, #0]
 8003ee4:	2300      	movs	r3, #0
 8003ee6:	4291      	cmp	r1, r2
 8003ee8:	e9c4 4301 	strd	r4, r3, [r4, #4]
 8003eec:	6123      	str	r3, [r4, #16]
 8003eee:	d105      	bne.n	8003efc <chMtxObjectInit+0x2c>
 8003ef0:	b003      	add	sp, #12
 8003ef2:	bd30      	pop	{r4, r5, pc}
 8003ef4:	4803      	ldr	r0, [pc, #12]	; (8003f04 <chMtxObjectInit+0x34>)
 8003ef6:	f7fe fe7b 	bl	8002bf0 <chSysHalt>
 8003efa:	e7f0      	b.n	8003ede <chMtxObjectInit+0xe>
 8003efc:	f7fd fa08 	bl	8001310 <__stack_chk_fail>
 8003f00:	2000081c 	.word	0x2000081c
 8003f04:	0800d7e0 	.word	0x0800d7e0
	...

08003f10 <chMtxLockS>:
 8003f10:	b5f0      	push	{r4, r5, r6, r7, lr}
 8003f12:	4e5b      	ldr	r6, [pc, #364]	; (8004080 <chMtxLockS+0x170>)
 8003f14:	4b5b      	ldr	r3, [pc, #364]	; (8004084 <chMtxLockS+0x174>)
 8003f16:	6832      	ldr	r2, [r6, #0]
 8003f18:	699d      	ldr	r5, [r3, #24]
 8003f1a:	b083      	sub	sp, #12
 8003f1c:	4604      	mov	r4, r0
 8003f1e:	9201      	str	r2, [sp, #4]
 8003f20:	f7fe fffe 	bl	8002f20 <chDbgCheckClassS>
 8003f24:	2c00      	cmp	r4, #0
 8003f26:	f000 8083 	beq.w	8004030 <chMtxLockS+0x120>
 8003f2a:	68a0      	ldr	r0, [r4, #8]
 8003f2c:	6923      	ldr	r3, [r4, #16]
 8003f2e:	2800      	cmp	r0, #0
 8003f30:	d043      	beq.n	8003fba <chMtxLockS+0xaa>
 8003f32:	2b00      	cmp	r3, #0
 8003f34:	f340 8094 	ble.w	8004060 <chMtxLockS+0x150>
 8003f38:	4285      	cmp	r5, r0
 8003f3a:	d075      	beq.n	8004028 <chMtxLockS+0x118>
 8003f3c:	68aa      	ldr	r2, [r5, #8]
 8003f3e:	6883      	ldr	r3, [r0, #8]
 8003f40:	429a      	cmp	r2, r3
 8003f42:	d908      	bls.n	8003f56 <chMtxLockS+0x46>
 8003f44:	f890 3020 	ldrb.w	r3, [r0, #32]
 8003f48:	6082      	str	r2, [r0, #8]
 8003f4a:	2b06      	cmp	r3, #6
 8003f4c:	d040      	beq.n	8003fd0 <chMtxLockS+0xc0>
 8003f4e:	2b07      	cmp	r3, #7
 8003f50:	d072      	beq.n	8004038 <chMtxLockS+0x128>
 8003f52:	2b00      	cmp	r3, #0
 8003f54:	d05d      	beq.n	8004012 <chMtxLockS+0x102>
 8003f56:	4627      	mov	r7, r4
 8003f58:	4623      	mov	r3, r4
 8003f5a:	e003      	b.n	8003f64 <chMtxLockS+0x54>
 8003f5c:	6899      	ldr	r1, [r3, #8]
 8003f5e:	68aa      	ldr	r2, [r5, #8]
 8003f60:	4291      	cmp	r1, r2
 8003f62:	d333      	bcc.n	8003fcc <chMtxLockS+0xbc>
 8003f64:	681b      	ldr	r3, [r3, #0]
 8003f66:	429c      	cmp	r4, r3
 8003f68:	d1f8      	bne.n	8003f5c <chMtxLockS+0x4c>
 8003f6a:	687b      	ldr	r3, [r7, #4]
 8003f6c:	2006      	movs	r0, #6
 8003f6e:	e9c5 7300 	strd	r7, r3, [r5]
 8003f72:	601d      	str	r5, [r3, #0]
 8003f74:	607d      	str	r5, [r7, #4]
 8003f76:	62ac      	str	r4, [r5, #40]	; 0x28
 8003f78:	f7ff f96a 	bl	8003250 <chSchGoSleepS>
 8003f7c:	68a3      	ldr	r3, [r4, #8]
 8003f7e:	42ab      	cmp	r3, r5
 8003f80:	d002      	beq.n	8003f88 <chMtxLockS+0x78>
 8003f82:	4841      	ldr	r0, [pc, #260]	; (8004088 <chMtxLockS+0x178>)
 8003f84:	f7fe fe34 	bl	8002bf0 <chSysHalt>
 8003f88:	6c2b      	ldr	r3, [r5, #64]	; 0x40
 8003f8a:	42a3      	cmp	r3, r4
 8003f8c:	d002      	beq.n	8003f94 <chMtxLockS+0x84>
 8003f8e:	483e      	ldr	r0, [pc, #248]	; (8004088 <chMtxLockS+0x178>)
 8003f90:	f7fe fe2e 	bl	8002bf0 <chSysHalt>
 8003f94:	6923      	ldr	r3, [r4, #16]
 8003f96:	2b01      	cmp	r3, #1
 8003f98:	d105      	bne.n	8003fa6 <chMtxLockS+0x96>
 8003f9a:	9a01      	ldr	r2, [sp, #4]
 8003f9c:	6833      	ldr	r3, [r6, #0]
 8003f9e:	429a      	cmp	r2, r3
 8003fa0:	d16c      	bne.n	800407c <chMtxLockS+0x16c>
 8003fa2:	b003      	add	sp, #12
 8003fa4:	bdf0      	pop	{r4, r5, r6, r7, pc}
 8003fa6:	9a01      	ldr	r2, [sp, #4]
 8003fa8:	6833      	ldr	r3, [r6, #0]
 8003faa:	429a      	cmp	r2, r3
 8003fac:	d166      	bne.n	800407c <chMtxLockS+0x16c>
 8003fae:	4836      	ldr	r0, [pc, #216]	; (8004088 <chMtxLockS+0x178>)
 8003fb0:	b003      	add	sp, #12
 8003fb2:	e8bd 40f0 	ldmia.w	sp!, {r4, r5, r6, r7, lr}
 8003fb6:	f7fe be1b 	b.w	8002bf0 <chSysHalt>
 8003fba:	2b00      	cmp	r3, #0
 8003fbc:	d155      	bne.n	800406a <chMtxLockS+0x15a>
 8003fbe:	6c2a      	ldr	r2, [r5, #64]	; 0x40
 8003fc0:	60a5      	str	r5, [r4, #8]
 8003fc2:	3301      	adds	r3, #1
 8003fc4:	e9c4 2303 	strd	r2, r3, [r4, #12]
 8003fc8:	642c      	str	r4, [r5, #64]	; 0x40
 8003fca:	e7e6      	b.n	8003f9a <chMtxLockS+0x8a>
 8003fcc:	461f      	mov	r7, r3
 8003fce:	e7cc      	b.n	8003f6a <chMtxLockS+0x5a>
 8003fd0:	e9d0 1300 	ldrd	r1, r3, [r0]
 8003fd4:	6019      	str	r1, [r3, #0]
 8003fd6:	6a87      	ldr	r7, [r0, #40]	; 0x28
 8003fd8:	6801      	ldr	r1, [r0, #0]
 8003fda:	46bc      	mov	ip, r7
 8003fdc:	604b      	str	r3, [r1, #4]
 8003fde:	463b      	mov	r3, r7
 8003fe0:	e002      	b.n	8003fe8 <chMtxLockS+0xd8>
 8003fe2:	6899      	ldr	r1, [r3, #8]
 8003fe4:	4291      	cmp	r1, r2
 8003fe6:	d345      	bcc.n	8004074 <chMtxLockS+0x164>
 8003fe8:	681b      	ldr	r3, [r3, #0]
 8003fea:	429f      	cmp	r7, r3
 8003fec:	d1f9      	bne.n	8003fe2 <chMtxLockS+0xd2>
 8003fee:	f8dc 3004 	ldr.w	r3, [ip, #4]
 8003ff2:	68aa      	ldr	r2, [r5, #8]
 8003ff4:	e9c0 c300 	strd	ip, r3, [r0]
 8003ff8:	6018      	str	r0, [r3, #0]
 8003ffa:	f8cc 0004 	str.w	r0, [ip, #4]
 8003ffe:	68b8      	ldr	r0, [r7, #8]
 8004000:	6883      	ldr	r3, [r0, #8]
 8004002:	4293      	cmp	r3, r2
 8004004:	d2a7      	bcs.n	8003f56 <chMtxLockS+0x46>
 8004006:	f890 3020 	ldrb.w	r3, [r0, #32]
 800400a:	6082      	str	r2, [r0, #8]
 800400c:	2b06      	cmp	r3, #6
 800400e:	d19e      	bne.n	8003f4e <chMtxLockS+0x3e>
 8004010:	e7de      	b.n	8003fd0 <chMtxLockS+0xc0>
 8004012:	e9d0 2300 	ldrd	r2, r3, [r0]
 8004016:	2101      	movs	r1, #1
 8004018:	f880 1020 	strb.w	r1, [r0, #32]
 800401c:	601a      	str	r2, [r3, #0]
 800401e:	6802      	ldr	r2, [r0, #0]
 8004020:	6053      	str	r3, [r2, #4]
 8004022:	f7ff f895 	bl	8003150 <chSchReadyI>
 8004026:	e796      	b.n	8003f56 <chMtxLockS+0x46>
 8004028:	6923      	ldr	r3, [r4, #16]
 800402a:	3301      	adds	r3, #1
 800402c:	6123      	str	r3, [r4, #16]
 800402e:	e7b4      	b.n	8003f9a <chMtxLockS+0x8a>
 8004030:	4815      	ldr	r0, [pc, #84]	; (8004088 <chMtxLockS+0x178>)
 8004032:	f7fe fddd 	bl	8002bf0 <chSysHalt>
 8004036:	e778      	b.n	8003f2a <chMtxLockS+0x1a>
 8004038:	e9d0 1300 	ldrd	r1, r3, [r0]
 800403c:	6019      	str	r1, [r3, #0]
 800403e:	6a87      	ldr	r7, [r0, #40]	; 0x28
 8004040:	6801      	ldr	r1, [r0, #0]
 8004042:	604b      	str	r3, [r1, #4]
 8004044:	463b      	mov	r3, r7
 8004046:	e002      	b.n	800404e <chMtxLockS+0x13e>
 8004048:	6899      	ldr	r1, [r3, #8]
 800404a:	4291      	cmp	r1, r2
 800404c:	d314      	bcc.n	8004078 <chMtxLockS+0x168>
 800404e:	681b      	ldr	r3, [r3, #0]
 8004050:	429f      	cmp	r7, r3
 8004052:	d1f9      	bne.n	8004048 <chMtxLockS+0x138>
 8004054:	687b      	ldr	r3, [r7, #4]
 8004056:	e9c0 7300 	strd	r7, r3, [r0]
 800405a:	6018      	str	r0, [r3, #0]
 800405c:	6078      	str	r0, [r7, #4]
 800405e:	e77a      	b.n	8003f56 <chMtxLockS+0x46>
 8004060:	4809      	ldr	r0, [pc, #36]	; (8004088 <chMtxLockS+0x178>)
 8004062:	f7fe fdc5 	bl	8002bf0 <chSysHalt>
 8004066:	68a0      	ldr	r0, [r4, #8]
 8004068:	e766      	b.n	8003f38 <chMtxLockS+0x28>
 800406a:	4807      	ldr	r0, [pc, #28]	; (8004088 <chMtxLockS+0x178>)
 800406c:	f7fe fdc0 	bl	8002bf0 <chSysHalt>
 8004070:	6923      	ldr	r3, [r4, #16]
 8004072:	e7a4      	b.n	8003fbe <chMtxLockS+0xae>
 8004074:	469c      	mov	ip, r3
 8004076:	e7ba      	b.n	8003fee <chMtxLockS+0xde>
 8004078:	461f      	mov	r7, r3
 800407a:	e7eb      	b.n	8004054 <chMtxLockS+0x144>
 800407c:	f7fd f948 	bl	8001310 <__stack_chk_fail>
 8004080:	2000081c 	.word	0x2000081c
 8004084:	200018b0 	.word	0x200018b0
 8004088:	0800d7f0 	.word	0x0800d7f0
 800408c:	00000000 	.word	0x00000000

08004090 <chMtxLock>:
 8004090:	b530      	push	{r4, r5, lr}
 8004092:	4c15      	ldr	r4, [pc, #84]	; (80040e8 <chMtxLock+0x58>)
 8004094:	b083      	sub	sp, #12
 8004096:	6823      	ldr	r3, [r4, #0]
 8004098:	9301      	str	r3, [sp, #4]
 800409a:	4605      	mov	r5, r0
 800409c:	2320      	movs	r3, #32
 800409e:	f383 8811 	msr	BASEPRI, r3
 80040a2:	f7ff feb5 	bl	8003e10 <_stats_start_measure_crit_thd>
 80040a6:	f7fe fe43 	bl	8002d30 <_dbg_check_lock>
 80040aa:	4628      	mov	r0, r5
 80040ac:	f7ff ff30 	bl	8003f10 <chMtxLockS>
 80040b0:	f7fe fe5e 	bl	8002d70 <_dbg_check_unlock>
 80040b4:	f7ff fec4 	bl	8003e40 <_stats_stop_measure_crit_thd>
 80040b8:	4b0c      	ldr	r3, [pc, #48]	; (80040ec <chMtxLock+0x5c>)
 80040ba:	681a      	ldr	r2, [r3, #0]
 80040bc:	429a      	cmp	r2, r3
 80040be:	d004      	beq.n	80040ca <chMtxLock+0x3a>
 80040c0:	6999      	ldr	r1, [r3, #24]
 80040c2:	6893      	ldr	r3, [r2, #8]
 80040c4:	688a      	ldr	r2, [r1, #8]
 80040c6:	429a      	cmp	r2, r3
 80040c8:	d308      	bcc.n	80040dc <chMtxLock+0x4c>
 80040ca:	2300      	movs	r3, #0
 80040cc:	f383 8811 	msr	BASEPRI, r3
 80040d0:	9a01      	ldr	r2, [sp, #4]
 80040d2:	6823      	ldr	r3, [r4, #0]
 80040d4:	429a      	cmp	r2, r3
 80040d6:	d105      	bne.n	80040e4 <chMtxLock+0x54>
 80040d8:	b003      	add	sp, #12
 80040da:	bd30      	pop	{r4, r5, pc}
 80040dc:	4804      	ldr	r0, [pc, #16]	; (80040f0 <chMtxLock+0x60>)
 80040de:	f7fe fd87 	bl	8002bf0 <chSysHalt>
 80040e2:	e7f2      	b.n	80040ca <chMtxLock+0x3a>
 80040e4:	f7fd f914 	bl	8001310 <__stack_chk_fail>
 80040e8:	2000081c 	.word	0x2000081c
 80040ec:	200018b0 	.word	0x200018b0
 80040f0:	0800d7d0 	.word	0x0800d7d0
	...

08004100 <chMtxUnlock>:
 8004100:	e92d 43f0 	stmdb	sp!, {r4, r5, r6, r7, r8, r9, lr}
 8004104:	f8df 8100 	ldr.w	r8, [pc, #256]	; 8004208 <chMtxUnlock+0x108>
 8004108:	4f3c      	ldr	r7, [pc, #240]	; (80041fc <chMtxUnlock+0xfc>)
 800410a:	f8d8 3000 	ldr.w	r3, [r8]
 800410e:	69be      	ldr	r6, [r7, #24]
 8004110:	b083      	sub	sp, #12
 8004112:	4605      	mov	r5, r0
 8004114:	9301      	str	r3, [sp, #4]
 8004116:	2800      	cmp	r0, #0
 8004118:	d064      	beq.n	80041e4 <chMtxUnlock+0xe4>
 800411a:	2320      	movs	r3, #32
 800411c:	f383 8811 	msr	BASEPRI, r3
 8004120:	f7ff fe76 	bl	8003e10 <_stats_start_measure_crit_thd>
 8004124:	f7fe fe04 	bl	8002d30 <_dbg_check_lock>
 8004128:	6c33      	ldr	r3, [r6, #64]	; 0x40
 800412a:	2b00      	cmp	r3, #0
 800412c:	d05e      	beq.n	80041ec <chMtxUnlock+0xec>
 800412e:	689b      	ldr	r3, [r3, #8]
 8004130:	42b3      	cmp	r3, r6
 8004132:	d002      	beq.n	800413a <chMtxUnlock+0x3a>
 8004134:	4832      	ldr	r0, [pc, #200]	; (8004200 <chMtxUnlock+0x100>)
 8004136:	f7fe fd5b 	bl	8002bf0 <chSysHalt>
 800413a:	692b      	ldr	r3, [r5, #16]
 800413c:	2b00      	cmp	r3, #0
 800413e:	dd49      	ble.n	80041d4 <chMtxUnlock+0xd4>
 8004140:	3b01      	subs	r3, #1
 8004142:	612b      	str	r3, [r5, #16]
 8004144:	bb5b      	cbnz	r3, 800419e <chMtxUnlock+0x9e>
 8004146:	6c33      	ldr	r3, [r6, #64]	; 0x40
 8004148:	42ab      	cmp	r3, r5
 800414a:	d002      	beq.n	8004152 <chMtxUnlock+0x52>
 800414c:	482c      	ldr	r0, [pc, #176]	; (8004200 <chMtxUnlock+0x100>)
 800414e:	f7fe fd4f 	bl	8002bf0 <chSysHalt>
 8004152:	68eb      	ldr	r3, [r5, #12]
 8004154:	6433      	str	r3, [r6, #64]	; 0x40
 8004156:	f7fe fee3 	bl	8002f20 <chDbgCheckClassS>
 800415a:	682b      	ldr	r3, [r5, #0]
 800415c:	429d      	cmp	r5, r3
 800415e:	d03e      	beq.n	80041de <chMtxUnlock+0xde>
 8004160:	e9d6 4910 	ldrd	r4, r9, [r6, #64]	; 0x40
 8004164:	b164      	cbz	r4, 8004180 <chMtxUnlock+0x80>
 8004166:	f7fe fedb 	bl	8002f20 <chDbgCheckClassS>
 800416a:	6823      	ldr	r3, [r4, #0]
 800416c:	429c      	cmp	r4, r3
 800416e:	d003      	beq.n	8004178 <chMtxUnlock+0x78>
 8004170:	689b      	ldr	r3, [r3, #8]
 8004172:	4599      	cmp	r9, r3
 8004174:	bf38      	it	cc
 8004176:	4699      	movcc	r9, r3
 8004178:	68e4      	ldr	r4, [r4, #12]
 800417a:	2c00      	cmp	r4, #0
 800417c:	d1f3      	bne.n	8004166 <chMtxUnlock+0x66>
 800417e:	682b      	ldr	r3, [r5, #0]
 8004180:	6c19      	ldr	r1, [r3, #64]	; 0x40
 8004182:	681a      	ldr	r2, [r3, #0]
 8004184:	f8c6 9008 	str.w	r9, [r6, #8]
 8004188:	2001      	movs	r0, #1
 800418a:	6128      	str	r0, [r5, #16]
 800418c:	602a      	str	r2, [r5, #0]
 800418e:	4618      	mov	r0, r3
 8004190:	6055      	str	r5, [r2, #4]
 8004192:	e9c5 3102 	strd	r3, r1, [r5, #8]
 8004196:	2100      	movs	r1, #0
 8004198:	641d      	str	r5, [r3, #64]	; 0x40
 800419a:	f7ff f8d1 	bl	8003340 <chSchWakeupS>
 800419e:	f7fe fde7 	bl	8002d70 <_dbg_check_unlock>
 80041a2:	f7ff fe4d 	bl	8003e40 <_stats_stop_measure_crit_thd>
 80041a6:	683b      	ldr	r3, [r7, #0]
 80041a8:	42bb      	cmp	r3, r7
 80041aa:	d004      	beq.n	80041b6 <chMtxUnlock+0xb6>
 80041ac:	69ba      	ldr	r2, [r7, #24]
 80041ae:	689b      	ldr	r3, [r3, #8]
 80041b0:	6892      	ldr	r2, [r2, #8]
 80041b2:	429a      	cmp	r2, r3
 80041b4:	d30a      	bcc.n	80041cc <chMtxUnlock+0xcc>
 80041b6:	2300      	movs	r3, #0
 80041b8:	f383 8811 	msr	BASEPRI, r3
 80041bc:	9a01      	ldr	r2, [sp, #4]
 80041be:	f8d8 3000 	ldr.w	r3, [r8]
 80041c2:	429a      	cmp	r2, r3
 80041c4:	d117      	bne.n	80041f6 <chMtxUnlock+0xf6>
 80041c6:	b003      	add	sp, #12
 80041c8:	e8bd 83f0 	ldmia.w	sp!, {r4, r5, r6, r7, r8, r9, pc}
 80041cc:	480d      	ldr	r0, [pc, #52]	; (8004204 <chMtxUnlock+0x104>)
 80041ce:	f7fe fd0f 	bl	8002bf0 <chSysHalt>
 80041d2:	e7f0      	b.n	80041b6 <chMtxUnlock+0xb6>
 80041d4:	480a      	ldr	r0, [pc, #40]	; (8004200 <chMtxUnlock+0x100>)
 80041d6:	f7fe fd0b 	bl	8002bf0 <chSysHalt>
 80041da:	692b      	ldr	r3, [r5, #16]
 80041dc:	e7b0      	b.n	8004140 <chMtxUnlock+0x40>
 80041de:	2300      	movs	r3, #0
 80041e0:	60ab      	str	r3, [r5, #8]
 80041e2:	e7dc      	b.n	800419e <chMtxUnlock+0x9e>
 80041e4:	4806      	ldr	r0, [pc, #24]	; (8004200 <chMtxUnlock+0x100>)
 80041e6:	f7fe fd03 	bl	8002bf0 <chSysHalt>
 80041ea:	e796      	b.n	800411a <chMtxUnlock+0x1a>
 80041ec:	4804      	ldr	r0, [pc, #16]	; (8004200 <chMtxUnlock+0x100>)
 80041ee:	f7fe fcff 	bl	8002bf0 <chSysHalt>
 80041f2:	6c33      	ldr	r3, [r6, #64]	; 0x40
 80041f4:	e79b      	b.n	800412e <chMtxUnlock+0x2e>
 80041f6:	f7fd f88b 	bl	8001310 <__stack_chk_fail>
 80041fa:	bf00      	nop
 80041fc:	200018b0 	.word	0x200018b0
 8004200:	0800d800 	.word	0x0800d800
 8004204:	0800d7d0 	.word	0x0800d7d0
 8004208:	2000081c 	.word	0x2000081c
 800420c:	00000000 	.word	0x00000000

08004210 <chCondBroadcastI>:
 8004210:	b570      	push	{r4, r5, r6, lr}
 8004212:	4e11      	ldr	r6, [pc, #68]	; (8004258 <chCondBroadcastI+0x48>)
 8004214:	b082      	sub	sp, #8
 8004216:	4604      	mov	r4, r0
 8004218:	6833      	ldr	r3, [r6, #0]
 800421a:	9301      	str	r3, [sp, #4]
 800421c:	f7fe fe58 	bl	8002ed0 <chDbgCheckClassI>
 8004220:	b1a4      	cbz	r4, 800424c <chCondBroadcastI+0x3c>
 8004222:	6823      	ldr	r3, [r4, #0]
 8004224:	42a3      	cmp	r3, r4
 8004226:	d00b      	beq.n	8004240 <chCondBroadcastI+0x30>
 8004228:	f06f 0501 	mvn.w	r5, #1
 800422c:	681a      	ldr	r2, [r3, #0]
 800422e:	6022      	str	r2, [r4, #0]
 8004230:	4618      	mov	r0, r3
 8004232:	6054      	str	r4, [r2, #4]
 8004234:	f7fe ff8c 	bl	8003150 <chSchReadyI>
 8004238:	6823      	ldr	r3, [r4, #0]
 800423a:	6285      	str	r5, [r0, #40]	; 0x28
 800423c:	42a3      	cmp	r3, r4
 800423e:	d1f5      	bne.n	800422c <chCondBroadcastI+0x1c>
 8004240:	9a01      	ldr	r2, [sp, #4]
 8004242:	6833      	ldr	r3, [r6, #0]
 8004244:	429a      	cmp	r2, r3
 8004246:	d105      	bne.n	8004254 <chCondBroadcastI+0x44>
 8004248:	b002      	add	sp, #8
 800424a:	bd70      	pop	{r4, r5, r6, pc}
 800424c:	4803      	ldr	r0, [pc, #12]	; (800425c <chCondBroadcastI+0x4c>)
 800424e:	f7fe fccf 	bl	8002bf0 <chSysHalt>
 8004252:	e7e6      	b.n	8004222 <chCondBroadcastI+0x12>
 8004254:	f7fd f85c 	bl	8001310 <__stack_chk_fail>
 8004258:	2000081c 	.word	0x2000081c
 800425c:	0800d820 	.word	0x0800d820

08004260 <chCondBroadcast>:
 8004260:	b530      	push	{r4, r5, lr}
 8004262:	4c16      	ldr	r4, [pc, #88]	; (80042bc <chCondBroadcast+0x5c>)
 8004264:	b083      	sub	sp, #12
 8004266:	6823      	ldr	r3, [r4, #0]
 8004268:	9301      	str	r3, [sp, #4]
 800426a:	4605      	mov	r5, r0
 800426c:	2320      	movs	r3, #32
 800426e:	f383 8811 	msr	BASEPRI, r3
 8004272:	f7ff fdcd 	bl	8003e10 <_stats_start_measure_crit_thd>
 8004276:	f7fe fd5b 	bl	8002d30 <_dbg_check_lock>
 800427a:	4628      	mov	r0, r5
 800427c:	f7ff ffc8 	bl	8004210 <chCondBroadcastI>
 8004280:	f7ff f94e 	bl	8003520 <chSchRescheduleS>
 8004284:	f7fe fd74 	bl	8002d70 <_dbg_check_unlock>
 8004288:	f7ff fdda 	bl	8003e40 <_stats_stop_measure_crit_thd>
 800428c:	4b0c      	ldr	r3, [pc, #48]	; (80042c0 <chCondBroadcast+0x60>)
 800428e:	681a      	ldr	r2, [r3, #0]
 8004290:	429a      	cmp	r2, r3
 8004292:	d004      	beq.n	800429e <chCondBroadcast+0x3e>
 8004294:	6999      	ldr	r1, [r3, #24]
 8004296:	6893      	ldr	r3, [r2, #8]
 8004298:	688a      	ldr	r2, [r1, #8]
 800429a:	429a      	cmp	r2, r3
 800429c:	d308      	bcc.n	80042b0 <chCondBroadcast+0x50>
 800429e:	2300      	movs	r3, #0
 80042a0:	f383 8811 	msr	BASEPRI, r3
 80042a4:	9a01      	ldr	r2, [sp, #4]
 80042a6:	6823      	ldr	r3, [r4, #0]
 80042a8:	429a      	cmp	r2, r3
 80042aa:	d105      	bne.n	80042b8 <chCondBroadcast+0x58>
 80042ac:	b003      	add	sp, #12
 80042ae:	bd30      	pop	{r4, r5, pc}
 80042b0:	4804      	ldr	r0, [pc, #16]	; (80042c4 <chCondBroadcast+0x64>)
 80042b2:	f7fe fc9d 	bl	8002bf0 <chSysHalt>
 80042b6:	e7f2      	b.n	800429e <chCondBroadcast+0x3e>
 80042b8:	f7fd f82a 	bl	8001310 <__stack_chk_fail>
 80042bc:	2000081c 	.word	0x2000081c
 80042c0:	200018b0 	.word	0x200018b0
 80042c4:	0800d810 	.word	0x0800d810
	...

080042d0 <chEvtRegisterMaskWithFlags>:
 80042d0:	e92d 43f0 	stmdb	sp!, {r4, r5, r6, r7, r8, r9, lr}
 80042d4:	4f1d      	ldr	r7, [pc, #116]	; (800434c <chEvtRegisterMaskWithFlags+0x7c>)
 80042d6:	b083      	sub	sp, #12
 80042d8:	683c      	ldr	r4, [r7, #0]
 80042da:	9401      	str	r4, [sp, #4]
 80042dc:	4691      	mov	r9, r2
 80042de:	460c      	mov	r4, r1
 80042e0:	4698      	mov	r8, r3
 80042e2:	4606      	mov	r6, r0
 80042e4:	b358      	cbz	r0, 800433e <chEvtRegisterMaskWithFlags+0x6e>
 80042e6:	b351      	cbz	r1, 800433e <chEvtRegisterMaskWithFlags+0x6e>
 80042e8:	2320      	movs	r3, #32
 80042ea:	f383 8811 	msr	BASEPRI, r3
 80042ee:	4d18      	ldr	r5, [pc, #96]	; (8004350 <chEvtRegisterMaskWithFlags+0x80>)
 80042f0:	f7ff fd8e 	bl	8003e10 <_stats_start_measure_crit_thd>
 80042f4:	f7fe fd1c 	bl	8002d30 <_dbg_check_lock>
 80042f8:	6833      	ldr	r3, [r6, #0]
 80042fa:	69aa      	ldr	r2, [r5, #24]
 80042fc:	6023      	str	r3, [r4, #0]
 80042fe:	2300      	movs	r3, #0
 8004300:	6034      	str	r4, [r6, #0]
 8004302:	e9c4 3803 	strd	r3, r8, [r4, #12]
 8004306:	e9c4 2901 	strd	r2, r9, [r4, #4]
 800430a:	f7fe fd31 	bl	8002d70 <_dbg_check_unlock>
 800430e:	f7ff fd97 	bl	8003e40 <_stats_stop_measure_crit_thd>
 8004312:	682b      	ldr	r3, [r5, #0]
 8004314:	42ab      	cmp	r3, r5
 8004316:	d004      	beq.n	8004322 <chEvtRegisterMaskWithFlags+0x52>
 8004318:	69aa      	ldr	r2, [r5, #24]
 800431a:	689b      	ldr	r3, [r3, #8]
 800431c:	6892      	ldr	r2, [r2, #8]
 800431e:	429a      	cmp	r2, r3
 8004320:	d309      	bcc.n	8004336 <chEvtRegisterMaskWithFlags+0x66>
 8004322:	2300      	movs	r3, #0
 8004324:	f383 8811 	msr	BASEPRI, r3
 8004328:	9a01      	ldr	r2, [sp, #4]
 800432a:	683b      	ldr	r3, [r7, #0]
 800432c:	429a      	cmp	r2, r3
 800432e:	d10a      	bne.n	8004346 <chEvtRegisterMaskWithFlags+0x76>
 8004330:	b003      	add	sp, #12
 8004332:	e8bd 83f0 	ldmia.w	sp!, {r4, r5, r6, r7, r8, r9, pc}
 8004336:	4807      	ldr	r0, [pc, #28]	; (8004354 <chEvtRegisterMaskWithFlags+0x84>)
 8004338:	f7fe fc5a 	bl	8002bf0 <chSysHalt>
 800433c:	e7f1      	b.n	8004322 <chEvtRegisterMaskWithFlags+0x52>
 800433e:	4806      	ldr	r0, [pc, #24]	; (8004358 <chEvtRegisterMaskWithFlags+0x88>)
 8004340:	f7fe fc56 	bl	8002bf0 <chSysHalt>
 8004344:	e7d0      	b.n	80042e8 <chEvtRegisterMaskWithFlags+0x18>
 8004346:	f7fc ffe3 	bl	8001310 <__stack_chk_fail>
 800434a:	bf00      	nop
 800434c:	2000081c 	.word	0x2000081c
 8004350:	200018b0 	.word	0x200018b0
 8004354:	0800d840 	.word	0x0800d840
 8004358:	0800d850 	.word	0x0800d850
 800435c:	00000000 	.word	0x00000000

08004360 <chEvtSignalI>:
 8004360:	b570      	push	{r4, r5, r6, lr}
 8004362:	4e18      	ldr	r6, [pc, #96]	; (80043c4 <chEvtSignalI+0x64>)
 8004364:	b082      	sub	sp, #8
 8004366:	4604      	mov	r4, r0
 8004368:	6833      	ldr	r3, [r6, #0]
 800436a:	9301      	str	r3, [sp, #4]
 800436c:	460d      	mov	r5, r1
 800436e:	f7fe fdaf 	bl	8002ed0 <chDbgCheckClassI>
 8004372:	b30c      	cbz	r4, 80043b8 <chEvtSignalI+0x58>
 8004374:	6be1      	ldr	r1, [r4, #60]	; 0x3c
 8004376:	f894 3020 	ldrb.w	r3, [r4, #32]
 800437a:	4329      	orrs	r1, r5
 800437c:	2b0a      	cmp	r3, #10
 800437e:	63e1      	str	r1, [r4, #60]	; 0x3c
 8004380:	d016      	beq.n	80043b0 <chEvtSignalI+0x50>
 8004382:	2b0b      	cmp	r3, #11
 8004384:	d005      	beq.n	8004392 <chEvtSignalI+0x32>
 8004386:	9a01      	ldr	r2, [sp, #4]
 8004388:	6833      	ldr	r3, [r6, #0]
 800438a:	429a      	cmp	r2, r3
 800438c:	d118      	bne.n	80043c0 <chEvtSignalI+0x60>
 800438e:	b002      	add	sp, #8
 8004390:	bd70      	pop	{r4, r5, r6, pc}
 8004392:	6aa3      	ldr	r3, [r4, #40]	; 0x28
 8004394:	438b      	bics	r3, r1
 8004396:	d1f6      	bne.n	8004386 <chEvtSignalI+0x26>
 8004398:	9a01      	ldr	r2, [sp, #4]
 800439a:	6833      	ldr	r3, [r6, #0]
 800439c:	2100      	movs	r1, #0
 800439e:	429a      	cmp	r2, r3
 80043a0:	62a1      	str	r1, [r4, #40]	; 0x28
 80043a2:	d10d      	bne.n	80043c0 <chEvtSignalI+0x60>
 80043a4:	4620      	mov	r0, r4
 80043a6:	b002      	add	sp, #8
 80043a8:	e8bd 4070 	ldmia.w	sp!, {r4, r5, r6, lr}
 80043ac:	f7fe bed0 	b.w	8003150 <chSchReadyI>
 80043b0:	6aa3      	ldr	r3, [r4, #40]	; 0x28
 80043b2:	4219      	tst	r1, r3
 80043b4:	d1f0      	bne.n	8004398 <chEvtSignalI+0x38>
 80043b6:	e7e6      	b.n	8004386 <chEvtSignalI+0x26>
 80043b8:	4803      	ldr	r0, [pc, #12]	; (80043c8 <chEvtSignalI+0x68>)
 80043ba:	f7fe fc19 	bl	8002bf0 <chSysHalt>
 80043be:	e7d9      	b.n	8004374 <chEvtSignalI+0x14>
 80043c0:	f7fc ffa6 	bl	8001310 <__stack_chk_fail>
 80043c4:	2000081c 	.word	0x2000081c
 80043c8:	0800d890 	.word	0x0800d890
 80043cc:	00000000 	.word	0x00000000

080043d0 <chEvtBroadcastFlagsI>:
 80043d0:	b5f0      	push	{r4, r5, r6, r7, lr}
 80043d2:	4f13      	ldr	r7, [pc, #76]	; (8004420 <chEvtBroadcastFlagsI+0x50>)
 80043d4:	b083      	sub	sp, #12
 80043d6:	4606      	mov	r6, r0
 80043d8:	683b      	ldr	r3, [r7, #0]
 80043da:	9301      	str	r3, [sp, #4]
 80043dc:	460d      	mov	r5, r1
 80043de:	f7fe fd77 	bl	8002ed0 <chDbgCheckClassI>
 80043e2:	b1b6      	cbz	r6, 8004412 <chEvtBroadcastFlagsI+0x42>
 80043e4:	6834      	ldr	r4, [r6, #0]
 80043e6:	42a6      	cmp	r6, r4
 80043e8:	d00d      	beq.n	8004406 <chEvtBroadcastFlagsI+0x36>
 80043ea:	68e3      	ldr	r3, [r4, #12]
 80043ec:	432b      	orrs	r3, r5
 80043ee:	60e3      	str	r3, [r4, #12]
 80043f0:	b115      	cbz	r5, 80043f8 <chEvtBroadcastFlagsI+0x28>
 80043f2:	6922      	ldr	r2, [r4, #16]
 80043f4:	4213      	tst	r3, r2
 80043f6:	d003      	beq.n	8004400 <chEvtBroadcastFlagsI+0x30>
 80043f8:	e9d4 0101 	ldrd	r0, r1, [r4, #4]
 80043fc:	f7ff ffb0 	bl	8004360 <chEvtSignalI>
 8004400:	6824      	ldr	r4, [r4, #0]
 8004402:	42a6      	cmp	r6, r4
 8004404:	d1f1      	bne.n	80043ea <chEvtBroadcastFlagsI+0x1a>
 8004406:	9a01      	ldr	r2, [sp, #4]
 8004408:	683b      	ldr	r3, [r7, #0]
 800440a:	429a      	cmp	r2, r3
 800440c:	d105      	bne.n	800441a <chEvtBroadcastFlagsI+0x4a>
 800440e:	b003      	add	sp, #12
 8004410:	bdf0      	pop	{r4, r5, r6, r7, pc}
 8004412:	4804      	ldr	r0, [pc, #16]	; (8004424 <chEvtBroadcastFlagsI+0x54>)
 8004414:	f7fe fbec 	bl	8002bf0 <chSysHalt>
 8004418:	e7e4      	b.n	80043e4 <chEvtBroadcastFlagsI+0x14>
 800441a:	f7fc ff79 	bl	8001310 <__stack_chk_fail>
 800441e:	bf00      	nop
 8004420:	2000081c 	.word	0x2000081c
 8004424:	0800d870 	.word	0x0800d870
	...

08004430 <chIQObjectInit>:
 8004430:	b570      	push	{r4, r5, r6, lr}
 8004432:	4c0c      	ldr	r4, [pc, #48]	; (8004464 <chIQObjectInit+0x34>)
 8004434:	60c1      	str	r1, [r0, #12]
 8004436:	b082      	sub	sp, #8
 8004438:	6826      	ldr	r6, [r4, #0]
 800443a:	9601      	str	r6, [sp, #4]
 800443c:	440a      	add	r2, r1
 800443e:	9e01      	ldr	r6, [sp, #4]
 8004440:	6102      	str	r2, [r0, #16]
 8004442:	6822      	ldr	r2, [r4, #0]
 8004444:	9d06      	ldr	r5, [sp, #24]
 8004446:	6040      	str	r0, [r0, #4]
 8004448:	e9c0 1105 	strd	r1, r1, [r0, #20]
 800444c:	4296      	cmp	r6, r2
 800444e:	f04f 0100 	mov.w	r1, #0
 8004452:	61c3      	str	r3, [r0, #28]
 8004454:	6081      	str	r1, [r0, #8]
 8004456:	6205      	str	r5, [r0, #32]
 8004458:	6000      	str	r0, [r0, #0]
 800445a:	d101      	bne.n	8004460 <chIQObjectInit+0x30>
 800445c:	b002      	add	sp, #8
 800445e:	bd70      	pop	{r4, r5, r6, pc}
 8004460:	f7fc ff56 	bl	8001310 <__stack_chk_fail>
 8004464:	2000081c 	.word	0x2000081c
	...

08004470 <chIQPutI>:
 8004470:	b570      	push	{r4, r5, r6, lr}
 8004472:	4d16      	ldr	r5, [pc, #88]	; (80044cc <chIQPutI+0x5c>)
 8004474:	b082      	sub	sp, #8
 8004476:	4604      	mov	r4, r0
 8004478:	682b      	ldr	r3, [r5, #0]
 800447a:	9301      	str	r3, [sp, #4]
 800447c:	460e      	mov	r6, r1
 800447e:	f7fe fd27 	bl	8002ed0 <chDbgCheckClassI>
 8004482:	f7fe fd25 	bl	8002ed0 <chDbgCheckClassI>
 8004486:	e9d4 2305 	ldrd	r2, r3, [r4, #20]
 800448a:	429a      	cmp	r2, r3
 800448c:	68a3      	ldr	r3, [r4, #8]
 800448e:	d016      	beq.n	80044be <chIQPutI+0x4e>
 8004490:	3301      	adds	r3, #1
 8004492:	1c51      	adds	r1, r2, #1
 8004494:	60a3      	str	r3, [r4, #8]
 8004496:	6161      	str	r1, [r4, #20]
 8004498:	7016      	strb	r6, [r2, #0]
 800449a:	e9d4 3204 	ldrd	r3, r2, [r4, #16]
 800449e:	429a      	cmp	r2, r3
 80044a0:	d20a      	bcs.n	80044b8 <chIQPutI+0x48>
 80044a2:	4620      	mov	r0, r4
 80044a4:	2100      	movs	r1, #0
 80044a6:	f7ff fb3b 	bl	8003b20 <chThdDequeueNextI>
 80044aa:	2000      	movs	r0, #0
 80044ac:	9a01      	ldr	r2, [sp, #4]
 80044ae:	682b      	ldr	r3, [r5, #0]
 80044b0:	429a      	cmp	r2, r3
 80044b2:	d109      	bne.n	80044c8 <chIQPutI+0x58>
 80044b4:	b002      	add	sp, #8
 80044b6:	bd70      	pop	{r4, r5, r6, pc}
 80044b8:	68e3      	ldr	r3, [r4, #12]
 80044ba:	6163      	str	r3, [r4, #20]
 80044bc:	e7f1      	b.n	80044a2 <chIQPutI+0x32>
 80044be:	2b00      	cmp	r3, #0
 80044c0:	d0e6      	beq.n	8004490 <chIQPutI+0x20>
 80044c2:	f06f 0003 	mvn.w	r0, #3
 80044c6:	e7f1      	b.n	80044ac <chIQPutI+0x3c>
 80044c8:	f7fc ff22 	bl	8001310 <__stack_chk_fail>
 80044cc:	2000081c 	.word	0x2000081c

080044d0 <chIQGetTimeout>:
 80044d0:	b5f0      	push	{r4, r5, r6, r7, lr}
 80044d2:	4f23      	ldr	r7, [pc, #140]	; (8004560 <chIQGetTimeout+0x90>)
 80044d4:	b083      	sub	sp, #12
 80044d6:	683b      	ldr	r3, [r7, #0]
 80044d8:	9301      	str	r3, [sp, #4]
 80044da:	4604      	mov	r4, r0
 80044dc:	460e      	mov	r6, r1
 80044de:	2320      	movs	r3, #32
 80044e0:	f383 8811 	msr	BASEPRI, r3
 80044e4:	f7ff fc94 	bl	8003e10 <_stats_start_measure_crit_thd>
 80044e8:	f7fe fc22 	bl	8002d30 <_dbg_check_lock>
 80044ec:	69e3      	ldr	r3, [r4, #28]
 80044ee:	b143      	cbz	r3, 8004502 <chIQGetTimeout+0x32>
 80044f0:	4620      	mov	r0, r4
 80044f2:	4798      	blx	r3
 80044f4:	e005      	b.n	8004502 <chIQGetTimeout+0x32>
 80044f6:	4631      	mov	r1, r6
 80044f8:	4620      	mov	r0, r4
 80044fa:	f7ff fae9 	bl	8003ad0 <chThdEnqueueTimeoutS>
 80044fe:	1e05      	subs	r5, r0, #0
 8004500:	db10      	blt.n	8004524 <chIQGetTimeout+0x54>
 8004502:	f7fe fce5 	bl	8002ed0 <chDbgCheckClassI>
 8004506:	68a3      	ldr	r3, [r4, #8]
 8004508:	2b00      	cmp	r3, #0
 800450a:	d0f4      	beq.n	80044f6 <chIQGetTimeout+0x26>
 800450c:	69a1      	ldr	r1, [r4, #24]
 800450e:	6920      	ldr	r0, [r4, #16]
 8004510:	1c4a      	adds	r2, r1, #1
 8004512:	3b01      	subs	r3, #1
 8004514:	4282      	cmp	r2, r0
 8004516:	60a3      	str	r3, [r4, #8]
 8004518:	61a2      	str	r2, [r4, #24]
 800451a:	bf28      	it	cs
 800451c:	68e3      	ldrcs	r3, [r4, #12]
 800451e:	780d      	ldrb	r5, [r1, #0]
 8004520:	bf28      	it	cs
 8004522:	61a3      	strcs	r3, [r4, #24]
 8004524:	f7fe fc24 	bl	8002d70 <_dbg_check_unlock>
 8004528:	f7ff fc8a 	bl	8003e40 <_stats_stop_measure_crit_thd>
 800452c:	4b0d      	ldr	r3, [pc, #52]	; (8004564 <chIQGetTimeout+0x94>)
 800452e:	681a      	ldr	r2, [r3, #0]
 8004530:	429a      	cmp	r2, r3
 8004532:	d004      	beq.n	800453e <chIQGetTimeout+0x6e>
 8004534:	6999      	ldr	r1, [r3, #24]
 8004536:	6893      	ldr	r3, [r2, #8]
 8004538:	688a      	ldr	r2, [r1, #8]
 800453a:	429a      	cmp	r2, r3
 800453c:	d309      	bcc.n	8004552 <chIQGetTimeout+0x82>
 800453e:	2300      	movs	r3, #0
 8004540:	f383 8811 	msr	BASEPRI, r3
 8004544:	9a01      	ldr	r2, [sp, #4]
 8004546:	683b      	ldr	r3, [r7, #0]
 8004548:	429a      	cmp	r2, r3
 800454a:	4628      	mov	r0, r5
 800454c:	d105      	bne.n	800455a <chIQGetTimeout+0x8a>
 800454e:	b003      	add	sp, #12
 8004550:	bdf0      	pop	{r4, r5, r6, r7, pc}
 8004552:	4805      	ldr	r0, [pc, #20]	; (8004568 <chIQGetTimeout+0x98>)
 8004554:	f7fe fb4c 	bl	8002bf0 <chSysHalt>
 8004558:	e7f1      	b.n	800453e <chIQGetTimeout+0x6e>
 800455a:	f7fc fed9 	bl	8001310 <__stack_chk_fail>
 800455e:	bf00      	nop
 8004560:	2000081c 	.word	0x2000081c
 8004564:	200018b0 	.word	0x200018b0
 8004568:	0800d8a0 	.word	0x0800d8a0
 800456c:	00000000 	.word	0x00000000

08004570 <chIQReadTimeout>:
 8004570:	e92d 4ff0 	stmdb	sp!, {r4, r5, r6, r7, r8, r9, sl, fp, lr}
 8004574:	f8df 90f4 	ldr.w	r9, [pc, #244]	; 800466c <chIQReadTimeout+0xfc>
 8004578:	4604      	mov	r4, r0
 800457a:	b085      	sub	sp, #20
 800457c:	f8d9 0000 	ldr.w	r0, [r9]
 8004580:	9003      	str	r0, [sp, #12]
 8004582:	468a      	mov	sl, r1
 8004584:	461d      	mov	r5, r3
 8004586:	f8d4 801c 	ldr.w	r8, [r4, #28]
 800458a:	4693      	mov	fp, r2
 800458c:	2a00      	cmp	r2, #0
 800458e:	d060      	beq.n	8004652 <chIQReadTimeout+0xe2>
 8004590:	2320      	movs	r3, #32
 8004592:	f383 8811 	msr	BASEPRI, r3
 8004596:	9301      	str	r3, [sp, #4]
 8004598:	f7ff fc3a 	bl	8003e10 <_stats_start_measure_crit_thd>
 800459c:	f7fe fbc8 	bl	8002d30 <_dbg_check_lock>
 80045a0:	4e2f      	ldr	r6, [pc, #188]	; (8004660 <chIQReadTimeout+0xf0>)
 80045a2:	2700      	movs	r7, #0
 80045a4:	f1b8 0f00 	cmp.w	r8, #0
 80045a8:	d007      	beq.n	80045ba <chIQReadTimeout+0x4a>
 80045aa:	4620      	mov	r0, r4
 80045ac:	47c0      	blx	r8
 80045ae:	e004      	b.n	80045ba <chIQReadTimeout+0x4a>
 80045b0:	4629      	mov	r1, r5
 80045b2:	4620      	mov	r0, r4
 80045b4:	f7ff fa8c 	bl	8003ad0 <chThdEnqueueTimeoutS>
 80045b8:	bb60      	cbnz	r0, 8004614 <chIQReadTimeout+0xa4>
 80045ba:	f7fe fc89 	bl	8002ed0 <chDbgCheckClassI>
 80045be:	68a3      	ldr	r3, [r4, #8]
 80045c0:	2b00      	cmp	r3, #0
 80045c2:	d0f5      	beq.n	80045b0 <chIQReadTimeout+0x40>
 80045c4:	69a2      	ldr	r2, [r4, #24]
 80045c6:	3b01      	subs	r3, #1
 80045c8:	1c51      	adds	r1, r2, #1
 80045ca:	61a1      	str	r1, [r4, #24]
 80045cc:	60a3      	str	r3, [r4, #8]
 80045ce:	7813      	ldrb	r3, [r2, #0]
 80045d0:	f80a 3b01 	strb.w	r3, [sl], #1
 80045d4:	6923      	ldr	r3, [r4, #16]
 80045d6:	69a2      	ldr	r2, [r4, #24]
 80045d8:	429a      	cmp	r2, r3
 80045da:	bf24      	itt	cs
 80045dc:	68e3      	ldrcs	r3, [r4, #12]
 80045de:	61a3      	strcs	r3, [r4, #24]
 80045e0:	f7fe fbc6 	bl	8002d70 <_dbg_check_unlock>
 80045e4:	f7ff fc2c 	bl	8003e40 <_stats_stop_measure_crit_thd>
 80045e8:	6833      	ldr	r3, [r6, #0]
 80045ea:	42b3      	cmp	r3, r6
 80045ec:	d004      	beq.n	80045f8 <chIQReadTimeout+0x88>
 80045ee:	69b2      	ldr	r2, [r6, #24]
 80045f0:	689b      	ldr	r3, [r3, #8]
 80045f2:	6892      	ldr	r2, [r2, #8]
 80045f4:	429a      	cmp	r2, r3
 80045f6:	d328      	bcc.n	800464a <chIQReadTimeout+0xda>
 80045f8:	2300      	movs	r3, #0
 80045fa:	f383 8811 	msr	BASEPRI, r3
 80045fe:	3701      	adds	r7, #1
 8004600:	45bb      	cmp	fp, r7
 8004602:	d019      	beq.n	8004638 <chIQReadTimeout+0xc8>
 8004604:	9b01      	ldr	r3, [sp, #4]
 8004606:	f383 8811 	msr	BASEPRI, r3
 800460a:	f7ff fc01 	bl	8003e10 <_stats_start_measure_crit_thd>
 800460e:	f7fe fb8f 	bl	8002d30 <_dbg_check_lock>
 8004612:	e7c7      	b.n	80045a4 <chIQReadTimeout+0x34>
 8004614:	f7fe fbac 	bl	8002d70 <_dbg_check_unlock>
 8004618:	f7ff fc12 	bl	8003e40 <_stats_stop_measure_crit_thd>
 800461c:	6833      	ldr	r3, [r6, #0]
 800461e:	42b3      	cmp	r3, r6
 8004620:	d007      	beq.n	8004632 <chIQReadTimeout+0xc2>
 8004622:	69b2      	ldr	r2, [r6, #24]
 8004624:	689b      	ldr	r3, [r3, #8]
 8004626:	6892      	ldr	r2, [r2, #8]
 8004628:	429a      	cmp	r2, r3
 800462a:	d202      	bcs.n	8004632 <chIQReadTimeout+0xc2>
 800462c:	480d      	ldr	r0, [pc, #52]	; (8004664 <chIQReadTimeout+0xf4>)
 800462e:	f7fe fadf 	bl	8002bf0 <chSysHalt>
 8004632:	2300      	movs	r3, #0
 8004634:	f383 8811 	msr	BASEPRI, r3
 8004638:	9a03      	ldr	r2, [sp, #12]
 800463a:	f8d9 3000 	ldr.w	r3, [r9]
 800463e:	429a      	cmp	r2, r3
 8004640:	4638      	mov	r0, r7
 8004642:	d10a      	bne.n	800465a <chIQReadTimeout+0xea>
 8004644:	b005      	add	sp, #20
 8004646:	e8bd 8ff0 	ldmia.w	sp!, {r4, r5, r6, r7, r8, r9, sl, fp, pc}
 800464a:	4806      	ldr	r0, [pc, #24]	; (8004664 <chIQReadTimeout+0xf4>)
 800464c:	f7fe fad0 	bl	8002bf0 <chSysHalt>
 8004650:	e7d2      	b.n	80045f8 <chIQReadTimeout+0x88>
 8004652:	4805      	ldr	r0, [pc, #20]	; (8004668 <chIQReadTimeout+0xf8>)
 8004654:	f7fe facc 	bl	8002bf0 <chSysHalt>
 8004658:	e79a      	b.n	8004590 <chIQReadTimeout+0x20>
 800465a:	f7fc fe59 	bl	8001310 <__stack_chk_fail>
 800465e:	bf00      	nop
 8004660:	200018b0 	.word	0x200018b0
 8004664:	0800d8a0 	.word	0x0800d8a0
 8004668:	0800d8b0 	.word	0x0800d8b0
 800466c:	2000081c 	.word	0x2000081c

08004670 <chOQObjectInit>:
 8004670:	b570      	push	{r4, r5, r6, lr}
 8004672:	4d0b      	ldr	r5, [pc, #44]	; (80046a0 <chOQObjectInit+0x30>)
 8004674:	b082      	sub	sp, #8
 8004676:	682e      	ldr	r6, [r5, #0]
 8004678:	9601      	str	r6, [sp, #4]
 800467a:	9e01      	ldr	r6, [sp, #4]
 800467c:	682d      	ldr	r5, [r5, #0]
 800467e:	9c06      	ldr	r4, [sp, #24]
 8004680:	6000      	str	r0, [r0, #0]
 8004682:	e9c0 0201 	strd	r0, r2, [r0, #4]
 8004686:	42ae      	cmp	r6, r5
 8004688:	440a      	add	r2, r1
 800468a:	e9c0 1203 	strd	r1, r2, [r0, #12]
 800468e:	e9c0 1105 	strd	r1, r1, [r0, #20]
 8004692:	e9c0 3407 	strd	r3, r4, [r0, #28]
 8004696:	d101      	bne.n	800469c <chOQObjectInit+0x2c>
 8004698:	b002      	add	sp, #8
 800469a:	bd70      	pop	{r4, r5, r6, pc}
 800469c:	f7fc fe38 	bl	8001310 <__stack_chk_fail>
 80046a0:	2000081c 	.word	0x2000081c
	...

080046b0 <chOQPutTimeout>:
 80046b0:	e92d 41f0 	stmdb	sp!, {r4, r5, r6, r7, r8, lr}
 80046b4:	4f2e      	ldr	r7, [pc, #184]	; (8004770 <chOQPutTimeout+0xc0>)
 80046b6:	b082      	sub	sp, #8
 80046b8:	683b      	ldr	r3, [r7, #0]
 80046ba:	9301      	str	r3, [sp, #4]
 80046bc:	4604      	mov	r4, r0
 80046be:	4688      	mov	r8, r1
 80046c0:	4616      	mov	r6, r2
 80046c2:	2320      	movs	r3, #32
 80046c4:	f383 8811 	msr	BASEPRI, r3
 80046c8:	f7ff fba2 	bl	8003e10 <_stats_start_measure_crit_thd>
 80046cc:	f7fe fb30 	bl	8002d30 <_dbg_check_lock>
 80046d0:	e005      	b.n	80046de <chOQPutTimeout+0x2e>
 80046d2:	4631      	mov	r1, r6
 80046d4:	4620      	mov	r0, r4
 80046d6:	f7ff f9fb 	bl	8003ad0 <chThdEnqueueTimeoutS>
 80046da:	1e05      	subs	r5, r0, #0
 80046dc:	db2d      	blt.n	800473a <chOQPutTimeout+0x8a>
 80046de:	f7fe fbf7 	bl	8002ed0 <chDbgCheckClassI>
 80046e2:	68a3      	ldr	r3, [r4, #8]
 80046e4:	2b00      	cmp	r3, #0
 80046e6:	d0f4      	beq.n	80046d2 <chOQPutTimeout+0x22>
 80046e8:	6962      	ldr	r2, [r4, #20]
 80046ea:	3b01      	subs	r3, #1
 80046ec:	1c51      	adds	r1, r2, #1
 80046ee:	6161      	str	r1, [r4, #20]
 80046f0:	60a3      	str	r3, [r4, #8]
 80046f2:	f882 8000 	strb.w	r8, [r2]
 80046f6:	e9d4 3204 	ldrd	r3, r2, [r4, #16]
 80046fa:	429a      	cmp	r2, r3
 80046fc:	bf24      	itt	cs
 80046fe:	68e3      	ldrcs	r3, [r4, #12]
 8004700:	6163      	strcs	r3, [r4, #20]
 8004702:	69e3      	ldr	r3, [r4, #28]
 8004704:	b10b      	cbz	r3, 800470a <chOQPutTimeout+0x5a>
 8004706:	4620      	mov	r0, r4
 8004708:	4798      	blx	r3
 800470a:	f7fe fb31 	bl	8002d70 <_dbg_check_unlock>
 800470e:	f7ff fb97 	bl	8003e40 <_stats_stop_measure_crit_thd>
 8004712:	4b18      	ldr	r3, [pc, #96]	; (8004774 <chOQPutTimeout+0xc4>)
 8004714:	681a      	ldr	r2, [r3, #0]
 8004716:	429a      	cmp	r2, r3
 8004718:	d004      	beq.n	8004724 <chOQPutTimeout+0x74>
 800471a:	6999      	ldr	r1, [r3, #24]
 800471c:	6893      	ldr	r3, [r2, #8]
 800471e:	688a      	ldr	r2, [r1, #8]
 8004720:	429a      	cmp	r2, r3
 8004722:	d31e      	bcc.n	8004762 <chOQPutTimeout+0xb2>
 8004724:	2500      	movs	r5, #0
 8004726:	f385 8811 	msr	BASEPRI, r5
 800472a:	9a01      	ldr	r2, [sp, #4]
 800472c:	683b      	ldr	r3, [r7, #0]
 800472e:	429a      	cmp	r2, r3
 8004730:	4628      	mov	r0, r5
 8004732:	d11a      	bne.n	800476a <chOQPutTimeout+0xba>
 8004734:	b002      	add	sp, #8
 8004736:	e8bd 81f0 	ldmia.w	sp!, {r4, r5, r6, r7, r8, pc}
 800473a:	f7fe fb19 	bl	8002d70 <_dbg_check_unlock>
 800473e:	f7ff fb7f 	bl	8003e40 <_stats_stop_measure_crit_thd>
 8004742:	4b0c      	ldr	r3, [pc, #48]	; (8004774 <chOQPutTimeout+0xc4>)
 8004744:	681a      	ldr	r2, [r3, #0]
 8004746:	429a      	cmp	r2, r3
 8004748:	d007      	beq.n	800475a <chOQPutTimeout+0xaa>
 800474a:	6999      	ldr	r1, [r3, #24]
 800474c:	6893      	ldr	r3, [r2, #8]
 800474e:	688a      	ldr	r2, [r1, #8]
 8004750:	429a      	cmp	r2, r3
 8004752:	d202      	bcs.n	800475a <chOQPutTimeout+0xaa>
 8004754:	4808      	ldr	r0, [pc, #32]	; (8004778 <chOQPutTimeout+0xc8>)
 8004756:	f7fe fa4b 	bl	8002bf0 <chSysHalt>
 800475a:	2300      	movs	r3, #0
 800475c:	f383 8811 	msr	BASEPRI, r3
 8004760:	e7e3      	b.n	800472a <chOQPutTimeout+0x7a>
 8004762:	4805      	ldr	r0, [pc, #20]	; (8004778 <chOQPutTimeout+0xc8>)
 8004764:	f7fe fa44 	bl	8002bf0 <chSysHalt>
 8004768:	e7dc      	b.n	8004724 <chOQPutTimeout+0x74>
 800476a:	f7fc fdd1 	bl	8001310 <__stack_chk_fail>
 800476e:	bf00      	nop
 8004770:	2000081c 	.word	0x2000081c
 8004774:	200018b0 	.word	0x200018b0
 8004778:	0800d8a0 	.word	0x0800d8a0
 800477c:	00000000 	.word	0x00000000

08004780 <chOQGetI>:
 8004780:	b570      	push	{r4, r5, r6, lr}
 8004782:	4e15      	ldr	r6, [pc, #84]	; (80047d8 <chOQGetI+0x58>)
 8004784:	b082      	sub	sp, #8
 8004786:	4604      	mov	r4, r0
 8004788:	6833      	ldr	r3, [r6, #0]
 800478a:	9301      	str	r3, [sp, #4]
 800478c:	f7fe fba0 	bl	8002ed0 <chDbgCheckClassI>
 8004790:	f7fe fb9e 	bl	8002ed0 <chDbgCheckClassI>
 8004794:	e9d4 3205 	ldrd	r3, r2, [r4, #20]
 8004798:	4293      	cmp	r3, r2
 800479a:	68a3      	ldr	r3, [r4, #8]
 800479c:	d015      	beq.n	80047ca <chOQGetI+0x4a>
 800479e:	6920      	ldr	r0, [r4, #16]
 80047a0:	1c51      	adds	r1, r2, #1
 80047a2:	3301      	adds	r3, #1
 80047a4:	60a3      	str	r3, [r4, #8]
 80047a6:	61a1      	str	r1, [r4, #24]
 80047a8:	4281      	cmp	r1, r0
 80047aa:	7815      	ldrb	r5, [r2, #0]
 80047ac:	d20a      	bcs.n	80047c4 <chOQGetI+0x44>
 80047ae:	4620      	mov	r0, r4
 80047b0:	2100      	movs	r1, #0
 80047b2:	f7ff f9b5 	bl	8003b20 <chThdDequeueNextI>
 80047b6:	4628      	mov	r0, r5
 80047b8:	9a01      	ldr	r2, [sp, #4]
 80047ba:	6833      	ldr	r3, [r6, #0]
 80047bc:	429a      	cmp	r2, r3
 80047be:	d109      	bne.n	80047d4 <chOQGetI+0x54>
 80047c0:	b002      	add	sp, #8
 80047c2:	bd70      	pop	{r4, r5, r6, pc}
 80047c4:	68e3      	ldr	r3, [r4, #12]
 80047c6:	61a3      	str	r3, [r4, #24]
 80047c8:	e7f1      	b.n	80047ae <chOQGetI+0x2e>
 80047ca:	2b00      	cmp	r3, #0
 80047cc:	d0e7      	beq.n	800479e <chOQGetI+0x1e>
 80047ce:	f06f 0002 	mvn.w	r0, #2
 80047d2:	e7f1      	b.n	80047b8 <chOQGetI+0x38>
 80047d4:	f7fc fd9c 	bl	8001310 <__stack_chk_fail>
 80047d8:	2000081c 	.word	0x2000081c
 80047dc:	00000000 	.word	0x00000000

080047e0 <chOQWriteTimeout>:
 80047e0:	e92d 4ff0 	stmdb	sp!, {r4, r5, r6, r7, r8, r9, sl, fp, lr}
 80047e4:	4604      	mov	r4, r0
 80047e6:	483b      	ldr	r0, [pc, #236]	; (80048d4 <chOQWriteTimeout+0xf4>)
 80047e8:	f8d4 901c 	ldr.w	r9, [r4, #28]
 80047ec:	6800      	ldr	r0, [r0, #0]
 80047ee:	b085      	sub	sp, #20
 80047f0:	460d      	mov	r5, r1
 80047f2:	9003      	str	r0, [sp, #12]
 80047f4:	9301      	str	r3, [sp, #4]
 80047f6:	4616      	mov	r6, r2
 80047f8:	2a00      	cmp	r2, #0
 80047fa:	d061      	beq.n	80048c0 <chOQWriteTimeout+0xe0>
 80047fc:	f04f 0a20 	mov.w	sl, #32
 8004800:	f38a 8811 	msr	BASEPRI, sl
 8004804:	f7ff fb04 	bl	8003e10 <_stats_start_measure_crit_thd>
 8004808:	f7fe fa92 	bl	8002d30 <_dbg_check_lock>
 800480c:	f04f 0800 	mov.w	r8, #0
 8004810:	4f31      	ldr	r7, [pc, #196]	; (80048d8 <chOQWriteTimeout+0xf8>)
 8004812:	46c3      	mov	fp, r8
 8004814:	f7fe fb5c 	bl	8002ed0 <chDbgCheckClassI>
 8004818:	68a3      	ldr	r3, [r4, #8]
 800481a:	2b00      	cmp	r3, #0
 800481c:	d032      	beq.n	8004884 <chOQWriteTimeout+0xa4>
 800481e:	6962      	ldr	r2, [r4, #20]
 8004820:	3b01      	subs	r3, #1
 8004822:	1c51      	adds	r1, r2, #1
 8004824:	6161      	str	r1, [r4, #20]
 8004826:	60a3      	str	r3, [r4, #8]
 8004828:	782b      	ldrb	r3, [r5, #0]
 800482a:	7013      	strb	r3, [r2, #0]
 800482c:	e9d4 3204 	ldrd	r3, r2, [r4, #16]
 8004830:	429a      	cmp	r2, r3
 8004832:	bf24      	itt	cs
 8004834:	68e3      	ldrcs	r3, [r4, #12]
 8004836:	6163      	strcs	r3, [r4, #20]
 8004838:	3501      	adds	r5, #1
 800483a:	f1b9 0f00 	cmp.w	r9, #0
 800483e:	d001      	beq.n	8004844 <chOQWriteTimeout+0x64>
 8004840:	4620      	mov	r0, r4
 8004842:	47c8      	blx	r9
 8004844:	f7fe fa94 	bl	8002d70 <_dbg_check_unlock>
 8004848:	f7ff fafa 	bl	8003e40 <_stats_stop_measure_crit_thd>
 800484c:	683b      	ldr	r3, [r7, #0]
 800484e:	42bb      	cmp	r3, r7
 8004850:	d007      	beq.n	8004862 <chOQWriteTimeout+0x82>
 8004852:	69ba      	ldr	r2, [r7, #24]
 8004854:	689b      	ldr	r3, [r3, #8]
 8004856:	6892      	ldr	r2, [r2, #8]
 8004858:	429a      	cmp	r2, r3
 800485a:	d202      	bcs.n	8004862 <chOQWriteTimeout+0x82>
 800485c:	481f      	ldr	r0, [pc, #124]	; (80048dc <chOQWriteTimeout+0xfc>)
 800485e:	f7fe f9c7 	bl	8002bf0 <chSysHalt>
 8004862:	f38b 8811 	msr	BASEPRI, fp
 8004866:	3e01      	subs	r6, #1
 8004868:	f108 0801 	add.w	r8, r8, #1
 800486c:	d01f      	beq.n	80048ae <chOQWriteTimeout+0xce>
 800486e:	f38a 8811 	msr	BASEPRI, sl
 8004872:	f7ff facd 	bl	8003e10 <_stats_start_measure_crit_thd>
 8004876:	f7fe fa5b 	bl	8002d30 <_dbg_check_lock>
 800487a:	f7fe fb29 	bl	8002ed0 <chDbgCheckClassI>
 800487e:	68a3      	ldr	r3, [r4, #8]
 8004880:	2b00      	cmp	r3, #0
 8004882:	d1cc      	bne.n	800481e <chOQWriteTimeout+0x3e>
 8004884:	9901      	ldr	r1, [sp, #4]
 8004886:	4620      	mov	r0, r4
 8004888:	f7ff f922 	bl	8003ad0 <chThdEnqueueTimeoutS>
 800488c:	2800      	cmp	r0, #0
 800488e:	d0c1      	beq.n	8004814 <chOQWriteTimeout+0x34>
 8004890:	f7fe fa6e 	bl	8002d70 <_dbg_check_unlock>
 8004894:	f7ff fad4 	bl	8003e40 <_stats_stop_measure_crit_thd>
 8004898:	683b      	ldr	r3, [r7, #0]
 800489a:	42bb      	cmp	r3, r7
 800489c:	d004      	beq.n	80048a8 <chOQWriteTimeout+0xc8>
 800489e:	69ba      	ldr	r2, [r7, #24]
 80048a0:	689b      	ldr	r3, [r3, #8]
 80048a2:	6892      	ldr	r2, [r2, #8]
 80048a4:	429a      	cmp	r2, r3
 80048a6:	d30f      	bcc.n	80048c8 <chOQWriteTimeout+0xe8>
 80048a8:	2300      	movs	r3, #0
 80048aa:	f383 8811 	msr	BASEPRI, r3
 80048ae:	4b09      	ldr	r3, [pc, #36]	; (80048d4 <chOQWriteTimeout+0xf4>)
 80048b0:	9a03      	ldr	r2, [sp, #12]
 80048b2:	681b      	ldr	r3, [r3, #0]
 80048b4:	429a      	cmp	r2, r3
 80048b6:	4640      	mov	r0, r8
 80048b8:	d10a      	bne.n	80048d0 <chOQWriteTimeout+0xf0>
 80048ba:	b005      	add	sp, #20
 80048bc:	e8bd 8ff0 	ldmia.w	sp!, {r4, r5, r6, r7, r8, r9, sl, fp, pc}
 80048c0:	4807      	ldr	r0, [pc, #28]	; (80048e0 <chOQWriteTimeout+0x100>)
 80048c2:	f7fe f995 	bl	8002bf0 <chSysHalt>
 80048c6:	e799      	b.n	80047fc <chOQWriteTimeout+0x1c>
 80048c8:	4804      	ldr	r0, [pc, #16]	; (80048dc <chOQWriteTimeout+0xfc>)
 80048ca:	f7fe f991 	bl	8002bf0 <chSysHalt>
 80048ce:	e7eb      	b.n	80048a8 <chOQWriteTimeout+0xc8>
 80048d0:	f7fc fd1e 	bl	8001310 <__stack_chk_fail>
 80048d4:	2000081c 	.word	0x2000081c
 80048d8:	200018b0 	.word	0x200018b0
 80048dc:	0800d8a0 	.word	0x0800d8a0
 80048e0:	0800d8c0 	.word	0x0800d8c0
	...

080048f0 <_core_init>:
 80048f0:	b530      	push	{r4, r5, lr}
 80048f2:	490b      	ldr	r1, [pc, #44]	; (8004920 <_core_init+0x30>)
 80048f4:	4a0b      	ldr	r2, [pc, #44]	; (8004924 <_core_init+0x34>)
 80048f6:	680b      	ldr	r3, [r1, #0]
 80048f8:	4d0b      	ldr	r5, [pc, #44]	; (8004928 <_core_init+0x38>)
 80048fa:	4c0c      	ldr	r4, [pc, #48]	; (800492c <_core_init+0x3c>)
 80048fc:	b083      	sub	sp, #12
 80048fe:	f022 0207 	bic.w	r2, r2, #7
 8004902:	9301      	str	r3, [sp, #4]
 8004904:	9801      	ldr	r0, [sp, #4]
 8004906:	4b0a      	ldr	r3, [pc, #40]	; (8004930 <_core_init+0x40>)
 8004908:	6809      	ldr	r1, [r1, #0]
 800490a:	602a      	str	r2, [r5, #0]
 800490c:	f023 0307 	bic.w	r3, r3, #7
 8004910:	4288      	cmp	r0, r1
 8004912:	6023      	str	r3, [r4, #0]
 8004914:	d101      	bne.n	800491a <_core_init+0x2a>
 8004916:	b003      	add	sp, #12
 8004918:	bd30      	pop	{r4, r5, pc}
 800491a:	f7fc fcf9 	bl	8001310 <__stack_chk_fail>
 800491e:	bf00      	nop
 8004920:	2000081c 	.word	0x2000081c
 8004924:	20002787 	.word	0x20002787
 8004928:	20001f24 	.word	0x20001f24
 800492c:	20001f20 	.word	0x20001f20
 8004930:	20020000 	.word	0x20020000
	...

08004940 <chCoreAlloc>:
 8004940:	b570      	push	{r4, r5, r6, lr}
 8004942:	4e1c      	ldr	r6, [pc, #112]	; (80049b4 <chCoreAlloc+0x74>)
 8004944:	b082      	sub	sp, #8
 8004946:	6833      	ldr	r3, [r6, #0]
 8004948:	9301      	str	r3, [sp, #4]
 800494a:	4604      	mov	r4, r0
 800494c:	2320      	movs	r3, #32
 800494e:	f383 8811 	msr	BASEPRI, r3
 8004952:	f7ff fa5d 	bl	8003e10 <_stats_start_measure_crit_thd>
 8004956:	f7fe f9eb 	bl	8002d30 <_dbg_check_lock>
 800495a:	f7fe fab9 	bl	8002ed0 <chDbgCheckClassI>
 800495e:	4a16      	ldr	r2, [pc, #88]	; (80049b8 <chCoreAlloc+0x78>)
 8004960:	4b16      	ldr	r3, [pc, #88]	; (80049bc <chCoreAlloc+0x7c>)
 8004962:	6815      	ldr	r5, [r2, #0]
 8004964:	681b      	ldr	r3, [r3, #0]
 8004966:	1de0      	adds	r0, r4, #7
 8004968:	f020 0007 	bic.w	r0, r0, #7
 800496c:	1b5b      	subs	r3, r3, r5
 800496e:	4298      	cmp	r0, r3
 8004970:	bf9a      	itte	ls
 8004972:	1940      	addls	r0, r0, r5
 8004974:	6010      	strls	r0, [r2, #0]
 8004976:	2500      	movhi	r5, #0
 8004978:	f7fe f9fa 	bl	8002d70 <_dbg_check_unlock>
 800497c:	f7ff fa60 	bl	8003e40 <_stats_stop_measure_crit_thd>
 8004980:	4b0f      	ldr	r3, [pc, #60]	; (80049c0 <chCoreAlloc+0x80>)
 8004982:	681a      	ldr	r2, [r3, #0]
 8004984:	429a      	cmp	r2, r3
 8004986:	d004      	beq.n	8004992 <chCoreAlloc+0x52>
 8004988:	6999      	ldr	r1, [r3, #24]
 800498a:	6893      	ldr	r3, [r2, #8]
 800498c:	688a      	ldr	r2, [r1, #8]
 800498e:	429a      	cmp	r2, r3
 8004990:	d309      	bcc.n	80049a6 <chCoreAlloc+0x66>
 8004992:	2300      	movs	r3, #0
 8004994:	f383 8811 	msr	BASEPRI, r3
 8004998:	9a01      	ldr	r2, [sp, #4]
 800499a:	6833      	ldr	r3, [r6, #0]
 800499c:	429a      	cmp	r2, r3
 800499e:	4628      	mov	r0, r5
 80049a0:	d105      	bne.n	80049ae <chCoreAlloc+0x6e>
 80049a2:	b002      	add	sp, #8
 80049a4:	bd70      	pop	{r4, r5, r6, pc}
 80049a6:	4807      	ldr	r0, [pc, #28]	; (80049c4 <chCoreAlloc+0x84>)
 80049a8:	f7fe f922 	bl	8002bf0 <chSysHalt>
 80049ac:	e7f1      	b.n	8004992 <chCoreAlloc+0x52>
 80049ae:	f7fc fcaf 	bl	8001310 <__stack_chk_fail>
 80049b2:	bf00      	nop
 80049b4:	2000081c 	.word	0x2000081c
 80049b8:	20001f24 	.word	0x20001f24
 80049bc:	20001f20 	.word	0x20001f20
 80049c0:	200018b0 	.word	0x200018b0
 80049c4:	0800d8e0 	.word	0x0800d8e0
	...

080049d0 <_heap_init>:
 80049d0:	b500      	push	{lr}
 80049d2:	4b0b      	ldr	r3, [pc, #44]	; (8004a00 <_heap_init+0x30>)
 80049d4:	480b      	ldr	r0, [pc, #44]	; (8004a04 <_heap_init+0x34>)
 80049d6:	681a      	ldr	r2, [r3, #0]
 80049d8:	b083      	sub	sp, #12
 80049da:	9201      	str	r2, [sp, #4]
 80049dc:	9901      	ldr	r1, [sp, #4]
 80049de:	681a      	ldr	r2, [r3, #0]
 80049e0:	4b09      	ldr	r3, [pc, #36]	; (8004a08 <_heap_init+0x38>)
 80049e2:	6003      	str	r3, [r0, #0]
 80049e4:	4291      	cmp	r1, r2
 80049e6:	f04f 0300 	mov.w	r3, #0
 80049ea:	e9c0 3302 	strd	r3, r3, [r0, #8]
 80049ee:	d105      	bne.n	80049fc <_heap_init+0x2c>
 80049f0:	3010      	adds	r0, #16
 80049f2:	b003      	add	sp, #12
 80049f4:	f85d eb04 	ldr.w	lr, [sp], #4
 80049f8:	f7ff ba6a 	b.w	8003ed0 <chMtxObjectInit>
 80049fc:	f7fc fc88 	bl	8001310 <__stack_chk_fail>
 8004a00:	2000081c 	.word	0x2000081c
 8004a04:	20001f28 	.word	0x20001f28
 8004a08:	08004941 	.word	0x08004941
 8004a0c:	00000000 	.word	0x00000000

08004a10 <SVC_Handler>:
 8004a10:	b580      	push	{r7, lr}
 8004a12:	4a0d      	ldr	r2, [pc, #52]	; (8004a48 <SVC_Handler+0x38>)
 8004a14:	490d      	ldr	r1, [pc, #52]	; (8004a4c <SVC_Handler+0x3c>)
 8004a16:	b082      	sub	sp, #8
 8004a18:	af00      	add	r7, sp, #0
 8004a1a:	6813      	ldr	r3, [r2, #0]
 8004a1c:	607b      	str	r3, [r7, #4]
 8004a1e:	684b      	ldr	r3, [r1, #4]
 8004a20:	f023 0301 	bic.w	r3, r3, #1
 8004a24:	604b      	str	r3, [r1, #4]
 8004a26:	f3ef 8309 	mrs	r3, PSP
 8004a2a:	3368      	adds	r3, #104	; 0x68
 8004a2c:	f383 8809 	msr	PSP, r3
 8004a30:	2300      	movs	r3, #0
 8004a32:	f383 8811 	msr	BASEPRI, r3
 8004a36:	6879      	ldr	r1, [r7, #4]
 8004a38:	6813      	ldr	r3, [r2, #0]
 8004a3a:	4299      	cmp	r1, r3
 8004a3c:	d102      	bne.n	8004a44 <SVC_Handler+0x34>
 8004a3e:	3708      	adds	r7, #8
 8004a40:	46bd      	mov	sp, r7
 8004a42:	bd80      	pop	{r7, pc}
 8004a44:	f7fc fc64 	bl	8001310 <__stack_chk_fail>
 8004a48:	2000081c 	.word	0x2000081c
 8004a4c:	e000ef30 	.word	0xe000ef30

08004a50 <_port_irq_epilogue>:
 8004a50:	b5b0      	push	{r4, r5, r7, lr}
 8004a52:	4c19      	ldr	r4, [pc, #100]	; (8004ab8 <_port_irq_epilogue+0x68>)
 8004a54:	b082      	sub	sp, #8
 8004a56:	af00      	add	r7, sp, #0
 8004a58:	6823      	ldr	r3, [r4, #0]
 8004a5a:	607b      	str	r3, [r7, #4]
 8004a5c:	2320      	movs	r3, #32
 8004a5e:	f383 8811 	msr	BASEPRI, r3
 8004a62:	4b16      	ldr	r3, [pc, #88]	; (8004abc <_port_irq_epilogue+0x6c>)
 8004a64:	685b      	ldr	r3, [r3, #4]
 8004a66:	f413 6300 	ands.w	r3, r3, #2048	; 0x800
 8004a6a:	d108      	bne.n	8004a7e <_port_irq_epilogue+0x2e>
 8004a6c:	f383 8811 	msr	BASEPRI, r3
 8004a70:	687a      	ldr	r2, [r7, #4]
 8004a72:	6823      	ldr	r3, [r4, #0]
 8004a74:	429a      	cmp	r2, r3
 8004a76:	d11d      	bne.n	8004ab4 <_port_irq_epilogue+0x64>
 8004a78:	3708      	adds	r7, #8
 8004a7a:	46bd      	mov	sp, r7
 8004a7c:	bdb0      	pop	{r4, r5, r7, pc}
 8004a7e:	eef1 3a10 	vmrs	r3, fpscr
 8004a82:	f3ef 8509 	mrs	r5, PSP
 8004a86:	4b0e      	ldr	r3, [pc, #56]	; (8004ac0 <_port_irq_epilogue+0x70>)
 8004a88:	f04f 7280 	mov.w	r2, #16777216	; 0x1000000
 8004a8c:	68db      	ldr	r3, [r3, #12]
 8004a8e:	f845 3c08 	str.w	r3, [r5, #-8]
 8004a92:	f845 2c4c 	str.w	r2, [r5, #-76]
 8004a96:	f1a5 0368 	sub.w	r3, r5, #104	; 0x68
 8004a9a:	f383 8809 	msr	PSP, r3
 8004a9e:	f7fe fc97 	bl	80033d0 <chSchIsPreemptionRequired>
 8004aa2:	b118      	cbz	r0, 8004aac <_port_irq_epilogue+0x5c>
 8004aa4:	4b07      	ldr	r3, [pc, #28]	; (8004ac4 <_port_irq_epilogue+0x74>)
 8004aa6:	f845 3c50 	str.w	r3, [r5, #-80]
 8004aaa:	e7e1      	b.n	8004a70 <_port_irq_epilogue+0x20>
 8004aac:	4b06      	ldr	r3, [pc, #24]	; (8004ac8 <_port_irq_epilogue+0x78>)
 8004aae:	f845 3c50 	str.w	r3, [r5, #-80]
 8004ab2:	e7dd      	b.n	8004a70 <_port_irq_epilogue+0x20>
 8004ab4:	f7fc fc2c 	bl	8001310 <__stack_chk_fail>
 8004ab8:	2000081c 	.word	0x2000081c
 8004abc:	e000ed00 	.word	0xe000ed00
 8004ac0:	e000ef30 	.word	0xe000ef30
 8004ac4:	080002e1 	.word	0x080002e1
 8004ac8:	080002f4 	.word	0x080002f4
 8004acc:	00000000 	.word	0x00000000

08004ad0 <halInit>:
 8004ad0:	b510      	push	{r4, lr}
 8004ad2:	4c18      	ldr	r4, [pc, #96]	; (8004b34 <halInit+0x64>)
 8004ad4:	b082      	sub	sp, #8
 8004ad6:	6823      	ldr	r3, [r4, #0]
 8004ad8:	9301      	str	r3, [sp, #4]
 8004ada:	f002 f851 	bl	8006b80 <hal_lld_init>
 8004ade:	4816      	ldr	r0, [pc, #88]	; (8004b38 <halInit+0x68>)
 8004ae0:	f003 fb4e 	bl	8008180 <_pal_lld_init>
 8004ae4:	f000 f8d4 	bl	8004c90 <adcInit>
 8004ae8:	f000 f90a 	bl	8004d00 <canInit>
 8004aec:	f000 f950 	bl	8004d90 <dacInit>
 8004af0:	f000 f97e 	bl	8004df0 <extInit>
 8004af4:	f000 f9ac 	bl	8004e50 <gptInit>
 8004af8:	f000 f9da 	bl	8004eb0 <i2cInit>
 8004afc:	f000 fb60 	bl	80051c0 <i2sInit>
 8004b00:	f000 fb8e 	bl	8005220 <pwmInit>
 8004b04:	f000 fffc 	bl	8005b00 <sdInit>
 8004b08:	f000 ff02 	bl	8005910 <sdcInit>
 8004b0c:	f001 f8d0 	bl	8005cb0 <spiInit>
 8004b10:	f001 f916 	bl	8005d40 <usbInit>
 8004b14:	f001 f8bc 	bl	8005c90 <sduInit>
 8004b18:	f005 f802 	bl	8009b20 <boardInit>
 8004b1c:	9a01      	ldr	r2, [sp, #4]
 8004b1e:	6823      	ldr	r3, [r4, #0]
 8004b20:	429a      	cmp	r2, r3
 8004b22:	d104      	bne.n	8004b2e <halInit+0x5e>
 8004b24:	b002      	add	sp, #8
 8004b26:	e8bd 4010 	ldmia.w	sp!, {r4, lr}
 8004b2a:	f001 b8f1 	b.w	8005d10 <stInit>
 8004b2e:	f7fc fbef 	bl	8001310 <__stack_chk_fail>
 8004b32:	bf00      	nop
 8004b34:	2000081c 	.word	0x2000081c
 8004b38:	0800ddc0 	.word	0x0800ddc0
 8004b3c:	00000000 	.word	0x00000000

08004b40 <_mmcsd_get_slice>:
 8004b40:	b5f0      	push	{r4, r5, r6, r7, lr}
 8004b42:	4d1a      	ldr	r5, [pc, #104]	; (8004bac <_mmcsd_get_slice+0x6c>)
 8004b44:	b083      	sub	sp, #12
 8004b46:	682b      	ldr	r3, [r5, #0]
 8004b48:	9301      	str	r3, [sp, #4]
 8004b4a:	4291      	cmp	r1, r2
 8004b4c:	460e      	mov	r6, r1
 8004b4e:	4614      	mov	r4, r2
 8004b50:	4607      	mov	r7, r0
 8004b52:	d319      	bcc.n	8004b88 <_mmcsd_get_slice+0x48>
 8004b54:	1a8b      	subs	r3, r1, r2
 8004b56:	2b1f      	cmp	r3, #31
 8004b58:	d816      	bhi.n	8004b88 <_mmcsd_get_slice+0x48>
 8004b5a:	f006 031f 	and.w	r3, r6, #31
 8004b5e:	1c58      	adds	r0, r3, #1
 8004b60:	0962      	lsrs	r2, r4, #5
 8004b62:	2301      	movs	r3, #1
 8004b64:	0976      	lsrs	r6, r6, #5
 8004b66:	4083      	lsls	r3, r0
 8004b68:	42b2      	cmp	r2, r6
 8004b6a:	f103 33ff 	add.w	r3, r3, #4294967295
 8004b6e:	f004 041f 	and.w	r4, r4, #31
 8004b72:	f857 0022 	ldr.w	r0, [r7, r2, lsl #2]
 8004b76:	d30b      	bcc.n	8004b90 <_mmcsd_get_slice+0x50>
 8004b78:	4018      	ands	r0, r3
 8004b7a:	40e0      	lsrs	r0, r4
 8004b7c:	9a01      	ldr	r2, [sp, #4]
 8004b7e:	682b      	ldr	r3, [r5, #0]
 8004b80:	429a      	cmp	r2, r3
 8004b82:	d110      	bne.n	8004ba6 <_mmcsd_get_slice+0x66>
 8004b84:	b003      	add	sp, #12
 8004b86:	bdf0      	pop	{r4, r5, r6, r7, pc}
 8004b88:	4809      	ldr	r0, [pc, #36]	; (8004bb0 <_mmcsd_get_slice+0x70>)
 8004b8a:	f7fe f831 	bl	8002bf0 <chSysHalt>
 8004b8e:	e7e4      	b.n	8004b5a <_mmcsd_get_slice+0x1a>
 8004b90:	f857 1026 	ldr.w	r1, [r7, r6, lsl #2]
 8004b94:	f1c4 0220 	rsb	r2, r4, #32
 8004b98:	400b      	ands	r3, r1
 8004b9a:	fa20 f404 	lsr.w	r4, r0, r4
 8004b9e:	fa03 f002 	lsl.w	r0, r3, r2
 8004ba2:	4320      	orrs	r0, r4
 8004ba4:	e7ea      	b.n	8004b7c <_mmcsd_get_slice+0x3c>
 8004ba6:	f7fc fbb3 	bl	8001310 <__stack_chk_fail>
 8004baa:	bf00      	nop
 8004bac:	2000081c 	.word	0x2000081c
 8004bb0:	0800d8f0 	.word	0x0800d8f0
	...

08004bc0 <_mmcsd_get_capacity>:
 8004bc0:	b5f0      	push	{r4, r5, r6, r7, lr}
 8004bc2:	4e1d      	ldr	r6, [pc, #116]	; (8004c38 <_mmcsd_get_capacity+0x78>)
 8004bc4:	b083      	sub	sp, #12
 8004bc6:	6833      	ldr	r3, [r6, #0]
 8004bc8:	9301      	str	r3, [sp, #4]
 8004bca:	4605      	mov	r5, r0
 8004bcc:	b370      	cbz	r0, 8004c2c <_mmcsd_get_capacity+0x6c>
 8004bce:	227e      	movs	r2, #126	; 0x7e
 8004bd0:	217f      	movs	r1, #127	; 0x7f
 8004bd2:	4628      	mov	r0, r5
 8004bd4:	f7ff ffb4 	bl	8004b40 <_mmcsd_get_slice>
 8004bd8:	b180      	cbz	r0, 8004bfc <_mmcsd_get_capacity+0x3c>
 8004bda:	2801      	cmp	r0, #1
 8004bdc:	d006      	beq.n	8004bec <_mmcsd_get_capacity+0x2c>
 8004bde:	2000      	movs	r0, #0
 8004be0:	9a01      	ldr	r2, [sp, #4]
 8004be2:	6833      	ldr	r3, [r6, #0]
 8004be4:	429a      	cmp	r2, r3
 8004be6:	d125      	bne.n	8004c34 <_mmcsd_get_capacity+0x74>
 8004be8:	b003      	add	sp, #12
 8004bea:	bdf0      	pop	{r4, r5, r6, r7, pc}
 8004bec:	4628      	mov	r0, r5
 8004bee:	2230      	movs	r2, #48	; 0x30
 8004bf0:	2145      	movs	r1, #69	; 0x45
 8004bf2:	f7ff ffa5 	bl	8004b40 <_mmcsd_get_slice>
 8004bf6:	3001      	adds	r0, #1
 8004bf8:	0280      	lsls	r0, r0, #10
 8004bfa:	e7f1      	b.n	8004be0 <_mmcsd_get_capacity+0x20>
 8004bfc:	223e      	movs	r2, #62	; 0x3e
 8004bfe:	2149      	movs	r1, #73	; 0x49
 8004c00:	4628      	mov	r0, r5
 8004c02:	f7ff ff9d 	bl	8004b40 <_mmcsd_get_slice>
 8004c06:	222f      	movs	r2, #47	; 0x2f
 8004c08:	4604      	mov	r4, r0
 8004c0a:	2131      	movs	r1, #49	; 0x31
 8004c0c:	4628      	mov	r0, r5
 8004c0e:	f7ff ff97 	bl	8004b40 <_mmcsd_get_slice>
 8004c12:	2250      	movs	r2, #80	; 0x50
 8004c14:	4607      	mov	r7, r0
 8004c16:	2153      	movs	r1, #83	; 0x53
 8004c18:	4628      	mov	r0, r5
 8004c1a:	f7ff ff91 	bl	8004b40 <_mmcsd_get_slice>
 8004c1e:	3401      	adds	r4, #1
 8004c20:	3702      	adds	r7, #2
 8004c22:	3809      	subs	r0, #9
 8004c24:	40bc      	lsls	r4, r7
 8004c26:	fa04 f000 	lsl.w	r0, r4, r0
 8004c2a:	e7d9      	b.n	8004be0 <_mmcsd_get_capacity+0x20>
 8004c2c:	4803      	ldr	r0, [pc, #12]	; (8004c3c <_mmcsd_get_capacity+0x7c>)
 8004c2e:	f7fd ffdf 	bl	8002bf0 <chSysHalt>
 8004c32:	e7cc      	b.n	8004bce <_mmcsd_get_capacity+0xe>
 8004c34:	f7fc fb6c 	bl	8001310 <__stack_chk_fail>
 8004c38:	2000081c 	.word	0x2000081c
 8004c3c:	0800d910 	.word	0x0800d910

08004c40 <_mmcsd_get_capacity_ext>:
 8004c40:	b5f0      	push	{r4, r5, r6, r7, lr}
 8004c42:	4d10      	ldr	r5, [pc, #64]	; (8004c84 <_mmcsd_get_capacity_ext+0x44>)
 8004c44:	b083      	sub	sp, #12
 8004c46:	682b      	ldr	r3, [r5, #0]
 8004c48:	9301      	str	r3, [sp, #4]
 8004c4a:	4604      	mov	r4, r0
 8004c4c:	b198      	cbz	r0, 8004c76 <_mmcsd_get_capacity_ext+0x36>
 8004c4e:	f894 30d6 	ldrb.w	r3, [r4, #214]	; 0xd6
 8004c52:	f894 70d7 	ldrb.w	r7, [r4, #215]	; 0xd7
 8004c56:	9901      	ldr	r1, [sp, #4]
 8004c58:	f894 60d4 	ldrb.w	r6, [r4, #212]	; 0xd4
 8004c5c:	682a      	ldr	r2, [r5, #0]
 8004c5e:	f894 00d5 	ldrb.w	r0, [r4, #213]	; 0xd5
 8004c62:	041b      	lsls	r3, r3, #16
 8004c64:	eb03 6307 	add.w	r3, r3, r7, lsl #24
 8004c68:	4433      	add	r3, r6
 8004c6a:	4291      	cmp	r1, r2
 8004c6c:	eb03 2000 	add.w	r0, r3, r0, lsl #8
 8004c70:	d105      	bne.n	8004c7e <_mmcsd_get_capacity_ext+0x3e>
 8004c72:	b003      	add	sp, #12
 8004c74:	bdf0      	pop	{r4, r5, r6, r7, pc}
 8004c76:	4804      	ldr	r0, [pc, #16]	; (8004c88 <_mmcsd_get_capacity_ext+0x48>)
 8004c78:	f7fd ffba 	bl	8002bf0 <chSysHalt>
 8004c7c:	e7e7      	b.n	8004c4e <_mmcsd_get_capacity_ext+0xe>
 8004c7e:	f7fc fb47 	bl	8001310 <__stack_chk_fail>
 8004c82:	bf00      	nop
 8004c84:	2000081c 	.word	0x2000081c
 8004c88:	0800d930 	.word	0x0800d930
 8004c8c:	00000000 	.word	0x00000000

08004c90 <adcInit>:
 8004c90:	b500      	push	{lr}
 8004c92:	4b07      	ldr	r3, [pc, #28]	; (8004cb0 <adcInit+0x20>)
 8004c94:	b083      	sub	sp, #12
 8004c96:	681a      	ldr	r2, [r3, #0]
 8004c98:	9201      	str	r2, [sp, #4]
 8004c9a:	9a01      	ldr	r2, [sp, #4]
 8004c9c:	681b      	ldr	r3, [r3, #0]
 8004c9e:	429a      	cmp	r2, r3
 8004ca0:	d104      	bne.n	8004cac <adcInit+0x1c>
 8004ca2:	b003      	add	sp, #12
 8004ca4:	f85d eb04 	ldr.w	lr, [sp], #4
 8004ca8:	f002 b922 	b.w	8006ef0 <adc_lld_init>
 8004cac:	f7fc fb30 	bl	8001310 <__stack_chk_fail>
 8004cb0:	2000081c 	.word	0x2000081c
	...

08004cc0 <adcObjectInit>:
 8004cc0:	b510      	push	{r4, lr}
 8004cc2:	4b0c      	ldr	r3, [pc, #48]	; (8004cf4 <adcObjectInit+0x34>)
 8004cc4:	b082      	sub	sp, #8
 8004cc6:	681a      	ldr	r2, [r3, #0]
 8004cc8:	9201      	str	r2, [sp, #4]
 8004cca:	9901      	ldr	r1, [sp, #4]
 8004ccc:	681a      	ldr	r2, [r3, #0]
 8004cce:	2401      	movs	r4, #1
 8004cd0:	2300      	movs	r3, #0
 8004cd2:	4291      	cmp	r1, r2
 8004cd4:	7004      	strb	r4, [r0, #0]
 8004cd6:	e9c0 3301 	strd	r3, r3, [r0, #4]
 8004cda:	e9c0 3303 	strd	r3, r3, [r0, #12]
 8004cde:	6143      	str	r3, [r0, #20]
 8004ce0:	d105      	bne.n	8004cee <adcObjectInit+0x2e>
 8004ce2:	3018      	adds	r0, #24
 8004ce4:	b002      	add	sp, #8
 8004ce6:	e8bd 4010 	ldmia.w	sp!, {r4, lr}
 8004cea:	f7ff b8f1 	b.w	8003ed0 <chMtxObjectInit>
 8004cee:	f7fc fb0f 	bl	8001310 <__stack_chk_fail>
 8004cf2:	bf00      	nop
 8004cf4:	2000081c 	.word	0x2000081c
	...

08004d00 <canInit>:
 8004d00:	b500      	push	{lr}
 8004d02:	4b07      	ldr	r3, [pc, #28]	; (8004d20 <canInit+0x20>)
 8004d04:	b083      	sub	sp, #12
 8004d06:	681a      	ldr	r2, [r3, #0]
 8004d08:	9201      	str	r2, [sp, #4]
 8004d0a:	9a01      	ldr	r2, [sp, #4]
 8004d0c:	681b      	ldr	r3, [r3, #0]
 8004d0e:	429a      	cmp	r2, r3
 8004d10:	d104      	bne.n	8004d1c <canInit+0x1c>
 8004d12:	b003      	add	sp, #12
 8004d14:	f85d eb04 	ldr.w	lr, [sp], #4
 8004d18:	f002 bd9a 	b.w	8007850 <can_lld_init>
 8004d1c:	f7fc faf8 	bl	8001310 <__stack_chk_fail>
 8004d20:	2000081c 	.word	0x2000081c
	...

08004d30 <canObjectInit>:
 8004d30:	b530      	push	{r4, r5, lr}
 8004d32:	4b13      	ldr	r3, [pc, #76]	; (8004d80 <canObjectInit+0x50>)
 8004d34:	b083      	sub	sp, #12
 8004d36:	681a      	ldr	r2, [r3, #0]
 8004d38:	9201      	str	r2, [sp, #4]
 8004d3a:	9c01      	ldr	r4, [sp, #4]
 8004d3c:	6819      	ldr	r1, [r3, #0]
 8004d3e:	2501      	movs	r5, #1
 8004d40:	2200      	movs	r2, #0
 8004d42:	f100 0318 	add.w	r3, r0, #24
 8004d46:	7005      	strb	r5, [r0, #0]
 8004d48:	6042      	str	r2, [r0, #4]
 8004d4a:	f100 051c 	add.w	r5, r0, #28
 8004d4e:	f100 0220 	add.w	r2, r0, #32
 8004d52:	6183      	str	r3, [r0, #24]
 8004d54:	f100 0324 	add.w	r3, r0, #36	; 0x24
 8004d58:	61c5      	str	r5, [r0, #28]
 8004d5a:	6202      	str	r2, [r0, #32]
 8004d5c:	f100 0528 	add.w	r5, r0, #40	; 0x28
 8004d60:	f100 0208 	add.w	r2, r0, #8
 8004d64:	6243      	str	r3, [r0, #36]	; 0x24
 8004d66:	428c      	cmp	r4, r1
 8004d68:	f100 0310 	add.w	r3, r0, #16
 8004d6c:	6285      	str	r5, [r0, #40]	; 0x28
 8004d6e:	e9c0 2202 	strd	r2, r2, [r0, #8]
 8004d72:	e9c0 3304 	strd	r3, r3, [r0, #16]
 8004d76:	d101      	bne.n	8004d7c <canObjectInit+0x4c>
 8004d78:	b003      	add	sp, #12
 8004d7a:	bd30      	pop	{r4, r5, pc}
 8004d7c:	f7fc fac8 	bl	8001310 <__stack_chk_fail>
 8004d80:	2000081c 	.word	0x2000081c
	...

08004d90 <dacInit>:
 8004d90:	b500      	push	{lr}
 8004d92:	4b07      	ldr	r3, [pc, #28]	; (8004db0 <dacInit+0x20>)
 8004d94:	b083      	sub	sp, #12
 8004d96:	681a      	ldr	r2, [r3, #0]
 8004d98:	9201      	str	r2, [sp, #4]
 8004d9a:	9a01      	ldr	r2, [sp, #4]
 8004d9c:	681b      	ldr	r3, [r3, #0]
 8004d9e:	429a      	cmp	r2, r3
 8004da0:	d104      	bne.n	8004dac <dacInit+0x1c>
 8004da2:	b003      	add	sp, #12
 8004da4:	f85d eb04 	ldr.w	lr, [sp], #4
 8004da8:	f003 b9ca 	b.w	8008140 <dac_lld_init>
 8004dac:	f7fc fab0 	bl	8001310 <__stack_chk_fail>
 8004db0:	2000081c 	.word	0x2000081c
	...

08004dc0 <dacObjectInit>:
 8004dc0:	b510      	push	{r4, lr}
 8004dc2:	4b0a      	ldr	r3, [pc, #40]	; (8004dec <dacObjectInit+0x2c>)
 8004dc4:	b082      	sub	sp, #8
 8004dc6:	681a      	ldr	r2, [r3, #0]
 8004dc8:	9201      	str	r2, [sp, #4]
 8004dca:	9901      	ldr	r1, [sp, #4]
 8004dcc:	681a      	ldr	r2, [r3, #0]
 8004dce:	2401      	movs	r4, #1
 8004dd0:	2300      	movs	r3, #0
 8004dd2:	4291      	cmp	r1, r2
 8004dd4:	7004      	strb	r4, [r0, #0]
 8004dd6:	e9c0 3304 	strd	r3, r3, [r0, #16]
 8004dda:	d105      	bne.n	8004de8 <dacObjectInit+0x28>
 8004ddc:	3018      	adds	r0, #24
 8004dde:	b002      	add	sp, #8
 8004de0:	e8bd 4010 	ldmia.w	sp!, {r4, lr}
 8004de4:	f7ff b874 	b.w	8003ed0 <chMtxObjectInit>
 8004de8:	f7fc fa92 	bl	8001310 <__stack_chk_fail>
 8004dec:	2000081c 	.word	0x2000081c

08004df0 <extInit>:
 8004df0:	b500      	push	{lr}
 8004df2:	4b07      	ldr	r3, [pc, #28]	; (8004e10 <extInit+0x20>)
 8004df4:	b083      	sub	sp, #12
 8004df6:	681a      	ldr	r2, [r3, #0]
 8004df8:	9201      	str	r2, [sp, #4]
 8004dfa:	9a01      	ldr	r2, [sp, #4]
 8004dfc:	681b      	ldr	r3, [r3, #0]
 8004dfe:	429a      	cmp	r2, r3
 8004e00:	d104      	bne.n	8004e0c <extInit+0x1c>
 8004e02:	b003      	add	sp, #12
 8004e04:	f85d eb04 	ldr.w	lr, [sp], #4
 8004e08:	f002 bd42 	b.w	8007890 <ext_lld_init>
 8004e0c:	f7fc fa80 	bl	8001310 <__stack_chk_fail>
 8004e10:	2000081c 	.word	0x2000081c
	...

08004e20 <extObjectInit>:
 8004e20:	b510      	push	{r4, lr}
 8004e22:	4b08      	ldr	r3, [pc, #32]	; (8004e44 <extObjectInit+0x24>)
 8004e24:	b082      	sub	sp, #8
 8004e26:	681a      	ldr	r2, [r3, #0]
 8004e28:	9201      	str	r2, [sp, #4]
 8004e2a:	9a01      	ldr	r2, [sp, #4]
 8004e2c:	681b      	ldr	r3, [r3, #0]
 8004e2e:	2401      	movs	r4, #1
 8004e30:	2100      	movs	r1, #0
 8004e32:	429a      	cmp	r2, r3
 8004e34:	7004      	strb	r4, [r0, #0]
 8004e36:	6041      	str	r1, [r0, #4]
 8004e38:	d101      	bne.n	8004e3e <extObjectInit+0x1e>
 8004e3a:	b002      	add	sp, #8
 8004e3c:	bd10      	pop	{r4, pc}
 8004e3e:	f7fc fa67 	bl	8001310 <__stack_chk_fail>
 8004e42:	bf00      	nop
 8004e44:	2000081c 	.word	0x2000081c
	...

08004e50 <gptInit>:
 8004e50:	b500      	push	{lr}
 8004e52:	4b07      	ldr	r3, [pc, #28]	; (8004e70 <gptInit+0x20>)
 8004e54:	b083      	sub	sp, #12
 8004e56:	681a      	ldr	r2, [r3, #0]
 8004e58:	9201      	str	r2, [sp, #4]
 8004e5a:	9a01      	ldr	r2, [sp, #4]
 8004e5c:	681b      	ldr	r3, [r3, #0]
 8004e5e:	429a      	cmp	r2, r3
 8004e60:	d104      	bne.n	8004e6c <gptInit+0x1c>
 8004e62:	b003      	add	sp, #12
 8004e64:	f85d eb04 	ldr.w	lr, [sp], #4
 8004e68:	f004 bb42 	b.w	80094f0 <gpt_lld_init>
 8004e6c:	f7fc fa50 	bl	8001310 <__stack_chk_fail>
 8004e70:	2000081c 	.word	0x2000081c
	...

08004e80 <gptObjectInit>:
 8004e80:	b510      	push	{r4, lr}
 8004e82:	4b08      	ldr	r3, [pc, #32]	; (8004ea4 <gptObjectInit+0x24>)
 8004e84:	b082      	sub	sp, #8
 8004e86:	681a      	ldr	r2, [r3, #0]
 8004e88:	9201      	str	r2, [sp, #4]
 8004e8a:	9a01      	ldr	r2, [sp, #4]
 8004e8c:	681b      	ldr	r3, [r3, #0]
 8004e8e:	2401      	movs	r4, #1
 8004e90:	2100      	movs	r1, #0
 8004e92:	429a      	cmp	r2, r3
 8004e94:	7004      	strb	r4, [r0, #0]
 8004e96:	6041      	str	r1, [r0, #4]
 8004e98:	d101      	bne.n	8004e9e <gptObjectInit+0x1e>
 8004e9a:	b002      	add	sp, #8
 8004e9c:	bd10      	pop	{r4, pc}
 8004e9e:	f7fc fa37 	bl	8001310 <__stack_chk_fail>
 8004ea2:	bf00      	nop
 8004ea4:	2000081c 	.word	0x2000081c
	...

08004eb0 <i2cInit>:
 8004eb0:	b500      	push	{lr}
 8004eb2:	4b07      	ldr	r3, [pc, #28]	; (8004ed0 <i2cInit+0x20>)
 8004eb4:	b083      	sub	sp, #12
 8004eb6:	681a      	ldr	r2, [r3, #0]
 8004eb8:	9201      	str	r2, [sp, #4]
 8004eba:	9a01      	ldr	r2, [sp, #4]
 8004ebc:	681b      	ldr	r3, [r3, #0]
 8004ebe:	429a      	cmp	r2, r3
 8004ec0:	d104      	bne.n	8004ecc <i2cInit+0x1c>
 8004ec2:	b003      	add	sp, #12
 8004ec4:	f85d eb04 	ldr.w	lr, [sp], #4
 8004ec8:	f003 bc42 	b.w	8008750 <i2c_lld_init>
 8004ecc:	f7fc fa20 	bl	8001310 <__stack_chk_fail>
 8004ed0:	2000081c 	.word	0x2000081c
	...

08004ee0 <i2cObjectInit>:
 8004ee0:	b510      	push	{r4, lr}
 8004ee2:	4b0a      	ldr	r3, [pc, #40]	; (8004f0c <i2cObjectInit+0x2c>)
 8004ee4:	b082      	sub	sp, #8
 8004ee6:	681a      	ldr	r2, [r3, #0]
 8004ee8:	9201      	str	r2, [sp, #4]
 8004eea:	9a01      	ldr	r2, [sp, #4]
 8004eec:	681b      	ldr	r3, [r3, #0]
 8004eee:	2401      	movs	r4, #1
 8004ef0:	2100      	movs	r1, #0
 8004ef2:	429a      	cmp	r2, r3
 8004ef4:	7004      	strb	r4, [r0, #0]
 8004ef6:	6041      	str	r1, [r0, #4]
 8004ef8:	d105      	bne.n	8004f06 <i2cObjectInit+0x26>
 8004efa:	300c      	adds	r0, #12
 8004efc:	b002      	add	sp, #8
 8004efe:	e8bd 4010 	ldmia.w	sp!, {r4, lr}
 8004f02:	f7fe bfe5 	b.w	8003ed0 <chMtxObjectInit>
 8004f06:	f7fc fa03 	bl	8001310 <__stack_chk_fail>
 8004f0a:	bf00      	nop
 8004f0c:	2000081c 	.word	0x2000081c

08004f10 <i2cStart>:
 8004f10:	b570      	push	{r4, r5, r6, lr}
 8004f12:	4d1f      	ldr	r5, [pc, #124]	; (8004f90 <i2cStart+0x80>)
 8004f14:	b082      	sub	sp, #8
 8004f16:	682b      	ldr	r3, [r5, #0]
 8004f18:	9301      	str	r3, [sp, #4]
 8004f1a:	460e      	mov	r6, r1
 8004f1c:	4604      	mov	r4, r0
 8004f1e:	b380      	cbz	r0, 8004f82 <i2cStart+0x72>
 8004f20:	b379      	cbz	r1, 8004f82 <i2cStart+0x72>
 8004f22:	7823      	ldrb	r3, [r4, #0]
 8004f24:	1e5a      	subs	r2, r3, #1
 8004f26:	2a01      	cmp	r2, #1
 8004f28:	d904      	bls.n	8004f34 <i2cStart+0x24>
 8004f2a:	2b05      	cmp	r3, #5
 8004f2c:	d002      	beq.n	8004f34 <i2cStart+0x24>
 8004f2e:	4819      	ldr	r0, [pc, #100]	; (8004f94 <i2cStart+0x84>)
 8004f30:	f7fd fe5e 	bl	8002bf0 <chSysHalt>
 8004f34:	2320      	movs	r3, #32
 8004f36:	f383 8811 	msr	BASEPRI, r3
 8004f3a:	f7fe ff69 	bl	8003e10 <_stats_start_measure_crit_thd>
 8004f3e:	f7fd fef7 	bl	8002d30 <_dbg_check_lock>
 8004f42:	4620      	mov	r0, r4
 8004f44:	6066      	str	r6, [r4, #4]
 8004f46:	f003 fc2b 	bl	80087a0 <i2c_lld_start>
 8004f4a:	2302      	movs	r3, #2
 8004f4c:	7023      	strb	r3, [r4, #0]
 8004f4e:	f7fd ff0f 	bl	8002d70 <_dbg_check_unlock>
 8004f52:	f7fe ff75 	bl	8003e40 <_stats_stop_measure_crit_thd>
 8004f56:	4b10      	ldr	r3, [pc, #64]	; (8004f98 <i2cStart+0x88>)
 8004f58:	681a      	ldr	r2, [r3, #0]
 8004f5a:	429a      	cmp	r2, r3
 8004f5c:	d004      	beq.n	8004f68 <i2cStart+0x58>
 8004f5e:	6999      	ldr	r1, [r3, #24]
 8004f60:	6893      	ldr	r3, [r2, #8]
 8004f62:	688a      	ldr	r2, [r1, #8]
 8004f64:	429a      	cmp	r2, r3
 8004f66:	d308      	bcc.n	8004f7a <i2cStart+0x6a>
 8004f68:	2300      	movs	r3, #0
 8004f6a:	f383 8811 	msr	BASEPRI, r3
 8004f6e:	9a01      	ldr	r2, [sp, #4]
 8004f70:	682b      	ldr	r3, [r5, #0]
 8004f72:	429a      	cmp	r2, r3
 8004f74:	d109      	bne.n	8004f8a <i2cStart+0x7a>
 8004f76:	b002      	add	sp, #8
 8004f78:	bd70      	pop	{r4, r5, r6, pc}
 8004f7a:	4808      	ldr	r0, [pc, #32]	; (8004f9c <i2cStart+0x8c>)
 8004f7c:	f7fd fe38 	bl	8002bf0 <chSysHalt>
 8004f80:	e7f2      	b.n	8004f68 <i2cStart+0x58>
 8004f82:	4804      	ldr	r0, [pc, #16]	; (8004f94 <i2cStart+0x84>)
 8004f84:	f7fd fe34 	bl	8002bf0 <chSysHalt>
 8004f88:	e7cb      	b.n	8004f22 <i2cStart+0x12>
 8004f8a:	f7fc f9c1 	bl	8001310 <__stack_chk_fail>
 8004f8e:	bf00      	nop
 8004f90:	2000081c 	.word	0x2000081c
 8004f94:	0800d960 	.word	0x0800d960
 8004f98:	200018b0 	.word	0x200018b0
 8004f9c:	0800d950 	.word	0x0800d950

08004fa0 <i2cStop>:
 8004fa0:	b530      	push	{r4, r5, lr}
 8004fa2:	4d1d      	ldr	r5, [pc, #116]	; (8005018 <i2cStop+0x78>)
 8004fa4:	b083      	sub	sp, #12
 8004fa6:	682b      	ldr	r3, [r5, #0]
 8004fa8:	9301      	str	r3, [sp, #4]
 8004faa:	4604      	mov	r4, r0
 8004fac:	b370      	cbz	r0, 800500c <i2cStop+0x6c>
 8004fae:	7823      	ldrb	r3, [r4, #0]
 8004fb0:	1e5a      	subs	r2, r3, #1
 8004fb2:	2a01      	cmp	r2, #1
 8004fb4:	d904      	bls.n	8004fc0 <i2cStop+0x20>
 8004fb6:	2b05      	cmp	r3, #5
 8004fb8:	d002      	beq.n	8004fc0 <i2cStop+0x20>
 8004fba:	4818      	ldr	r0, [pc, #96]	; (800501c <i2cStop+0x7c>)
 8004fbc:	f7fd fe18 	bl	8002bf0 <chSysHalt>
 8004fc0:	2320      	movs	r3, #32
 8004fc2:	f383 8811 	msr	BASEPRI, r3
 8004fc6:	f7fe ff23 	bl	8003e10 <_stats_start_measure_crit_thd>
 8004fca:	f7fd feb1 	bl	8002d30 <_dbg_check_lock>
 8004fce:	4620      	mov	r0, r4
 8004fd0:	f003 fd26 	bl	8008a20 <i2c_lld_stop>
 8004fd4:	2301      	movs	r3, #1
 8004fd6:	7023      	strb	r3, [r4, #0]
 8004fd8:	f7fd feca 	bl	8002d70 <_dbg_check_unlock>
 8004fdc:	f7fe ff30 	bl	8003e40 <_stats_stop_measure_crit_thd>
 8004fe0:	4b0f      	ldr	r3, [pc, #60]	; (8005020 <i2cStop+0x80>)
 8004fe2:	681a      	ldr	r2, [r3, #0]
 8004fe4:	429a      	cmp	r2, r3
 8004fe6:	d004      	beq.n	8004ff2 <i2cStop+0x52>
 8004fe8:	6999      	ldr	r1, [r3, #24]
 8004fea:	6893      	ldr	r3, [r2, #8]
 8004fec:	688a      	ldr	r2, [r1, #8]
 8004fee:	429a      	cmp	r2, r3
 8004ff0:	d308      	bcc.n	8005004 <i2cStop+0x64>
 8004ff2:	2300      	movs	r3, #0
 8004ff4:	f383 8811 	msr	BASEPRI, r3
 8004ff8:	9a01      	ldr	r2, [sp, #4]
 8004ffa:	682b      	ldr	r3, [r5, #0]
 8004ffc:	429a      	cmp	r2, r3
 8004ffe:	d109      	bne.n	8005014 <i2cStop+0x74>
 8005000:	b003      	add	sp, #12
 8005002:	bd30      	pop	{r4, r5, pc}
 8005004:	4807      	ldr	r0, [pc, #28]	; (8005024 <i2cStop+0x84>)
 8005006:	f7fd fdf3 	bl	8002bf0 <chSysHalt>
 800500a:	e7f2      	b.n	8004ff2 <i2cStop+0x52>
 800500c:	4803      	ldr	r0, [pc, #12]	; (800501c <i2cStop+0x7c>)
 800500e:	f7fd fdef 	bl	8002bf0 <chSysHalt>
 8005012:	e7cc      	b.n	8004fae <i2cStop+0xe>
 8005014:	f7fc f97c 	bl	8001310 <__stack_chk_fail>
 8005018:	2000081c 	.word	0x2000081c
 800501c:	0800d970 	.word	0x0800d970
 8005020:	200018b0 	.word	0x200018b0
 8005024:	0800d950 	.word	0x0800d950
	...

08005030 <i2cGetErrors>:
 8005030:	b530      	push	{r4, r5, lr}
 8005032:	4d09      	ldr	r5, [pc, #36]	; (8005058 <i2cGetErrors+0x28>)
 8005034:	b083      	sub	sp, #12
 8005036:	682b      	ldr	r3, [r5, #0]
 8005038:	9301      	str	r3, [sp, #4]
 800503a:	4604      	mov	r4, r0
 800503c:	b130      	cbz	r0, 800504c <i2cGetErrors+0x1c>
 800503e:	9a01      	ldr	r2, [sp, #4]
 8005040:	682b      	ldr	r3, [r5, #0]
 8005042:	68a0      	ldr	r0, [r4, #8]
 8005044:	429a      	cmp	r2, r3
 8005046:	d105      	bne.n	8005054 <i2cGetErrors+0x24>
 8005048:	b003      	add	sp, #12
 800504a:	bd30      	pop	{r4, r5, pc}
 800504c:	4803      	ldr	r0, [pc, #12]	; (800505c <i2cGetErrors+0x2c>)
 800504e:	f7fd fdcf 	bl	8002bf0 <chSysHalt>
 8005052:	e7f4      	b.n	800503e <i2cGetErrors+0xe>
 8005054:	f7fc f95c 	bl	8001310 <__stack_chk_fail>
 8005058:	2000081c 	.word	0x2000081c
 800505c:	0800d980 	.word	0x0800d980

08005060 <i2cMasterTransmitTimeout>:
 8005060:	e92d 4ff0 	stmdb	sp!, {r4, r5, r6, r7, r8, r9, sl, fp, lr}
 8005064:	4e30      	ldr	r6, [pc, #192]	; (8005128 <i2cMasterTransmitTimeout+0xc8>)
 8005066:	b087      	sub	sp, #28
 8005068:	6834      	ldr	r4, [r6, #0]
 800506a:	9405      	str	r4, [sp, #20]
 800506c:	f8dd b040 	ldr.w	fp, [sp, #64]	; 0x40
 8005070:	460d      	mov	r5, r1
 8005072:	4690      	mov	r8, r2
 8005074:	461f      	mov	r7, r3
 8005076:	e9dd 9a11 	ldrd	r9, sl, [sp, #68]	; 0x44
 800507a:	4604      	mov	r4, r0
 800507c:	b108      	cbz	r0, 8005082 <i2cMasterTransmitTimeout+0x22>
 800507e:	2900      	cmp	r1, #0
 8005080:	d13d      	bne.n	80050fe <i2cMasterTransmitTimeout+0x9e>
 8005082:	482a      	ldr	r0, [pc, #168]	; (800512c <i2cMasterTransmitTimeout+0xcc>)
 8005084:	f7fd fdb4 	bl	8002bf0 <chSysHalt>
 8005088:	7823      	ldrb	r3, [r4, #0]
 800508a:	2b02      	cmp	r3, #2
 800508c:	d002      	beq.n	8005094 <i2cMasterTransmitTimeout+0x34>
 800508e:	4827      	ldr	r0, [pc, #156]	; (800512c <i2cMasterTransmitTimeout+0xcc>)
 8005090:	f7fd fdae 	bl	8002bf0 <chSysHalt>
 8005094:	2320      	movs	r3, #32
 8005096:	f383 8811 	msr	BASEPRI, r3
 800509a:	f7fe feb9 	bl	8003e10 <_stats_start_measure_crit_thd>
 800509e:	f7fd fe47 	bl	8002d30 <_dbg_check_lock>
 80050a2:	f04f 0c00 	mov.w	ip, #0
 80050a6:	2003      	movs	r0, #3
 80050a8:	f8c4 c008 	str.w	ip, [r4, #8]
 80050ac:	4642      	mov	r2, r8
 80050ae:	4629      	mov	r1, r5
 80050b0:	7020      	strb	r0, [r4, #0]
 80050b2:	463b      	mov	r3, r7
 80050b4:	4620      	mov	r0, r4
 80050b6:	e9cd 9a01 	strd	r9, sl, [sp, #4]
 80050ba:	f8cd b000 	str.w	fp, [sp]
 80050be:	f003 fcff 	bl	8008ac0 <i2c_lld_master_transmit_timeout>
 80050c2:	1c43      	adds	r3, r0, #1
 80050c4:	bf0c      	ite	eq
 80050c6:	2305      	moveq	r3, #5
 80050c8:	2302      	movne	r3, #2
 80050ca:	7023      	strb	r3, [r4, #0]
 80050cc:	4605      	mov	r5, r0
 80050ce:	f7fd fe4f 	bl	8002d70 <_dbg_check_unlock>
 80050d2:	f7fe feb5 	bl	8003e40 <_stats_stop_measure_crit_thd>
 80050d6:	4b16      	ldr	r3, [pc, #88]	; (8005130 <i2cMasterTransmitTimeout+0xd0>)
 80050d8:	681a      	ldr	r2, [r3, #0]
 80050da:	429a      	cmp	r2, r3
 80050dc:	d004      	beq.n	80050e8 <i2cMasterTransmitTimeout+0x88>
 80050de:	6999      	ldr	r1, [r3, #24]
 80050e0:	6893      	ldr	r3, [r2, #8]
 80050e2:	688a      	ldr	r2, [r1, #8]
 80050e4:	429a      	cmp	r2, r3
 80050e6:	d318      	bcc.n	800511a <i2cMasterTransmitTimeout+0xba>
 80050e8:	2300      	movs	r3, #0
 80050ea:	f383 8811 	msr	BASEPRI, r3
 80050ee:	9a05      	ldr	r2, [sp, #20]
 80050f0:	6833      	ldr	r3, [r6, #0]
 80050f2:	429a      	cmp	r2, r3
 80050f4:	4628      	mov	r0, r5
 80050f6:	d114      	bne.n	8005122 <i2cMasterTransmitTimeout+0xc2>
 80050f8:	b007      	add	sp, #28
 80050fa:	e8bd 8ff0 	ldmia.w	sp!, {r4, r5, r6, r7, r8, r9, sl, fp, pc}
 80050fe:	2b00      	cmp	r3, #0
 8005100:	d0bf      	beq.n	8005082 <i2cMasterTransmitTimeout+0x22>
 8005102:	2a00      	cmp	r2, #0
 8005104:	d0bd      	beq.n	8005082 <i2cMasterTransmitTimeout+0x22>
 8005106:	f1b9 0f00 	cmp.w	r9, #0
 800510a:	d002      	beq.n	8005112 <i2cMasterTransmitTimeout+0xb2>
 800510c:	f1bb 0f00 	cmp.w	fp, #0
 8005110:	d0b7      	beq.n	8005082 <i2cMasterTransmitTimeout+0x22>
 8005112:	f1ba 0f00 	cmp.w	sl, #0
 8005116:	d1b7      	bne.n	8005088 <i2cMasterTransmitTimeout+0x28>
 8005118:	e7b3      	b.n	8005082 <i2cMasterTransmitTimeout+0x22>
 800511a:	4806      	ldr	r0, [pc, #24]	; (8005134 <i2cMasterTransmitTimeout+0xd4>)
 800511c:	f7fd fd68 	bl	8002bf0 <chSysHalt>
 8005120:	e7e2      	b.n	80050e8 <i2cMasterTransmitTimeout+0x88>
 8005122:	f7fc f8f5 	bl	8001310 <__stack_chk_fail>
 8005126:	bf00      	nop
 8005128:	2000081c 	.word	0x2000081c
 800512c:	0800d990 	.word	0x0800d990
 8005130:	200018b0 	.word	0x200018b0
 8005134:	0800d950 	.word	0x0800d950
	...

08005140 <i2cAcquireBus>:
 8005140:	b530      	push	{r4, r5, lr}
 8005142:	4c0b      	ldr	r4, [pc, #44]	; (8005170 <i2cAcquireBus+0x30>)
 8005144:	b083      	sub	sp, #12
 8005146:	6823      	ldr	r3, [r4, #0]
 8005148:	9301      	str	r3, [sp, #4]
 800514a:	4605      	mov	r5, r0
 800514c:	b150      	cbz	r0, 8005164 <i2cAcquireBus+0x24>
 800514e:	9a01      	ldr	r2, [sp, #4]
 8005150:	6823      	ldr	r3, [r4, #0]
 8005152:	429a      	cmp	r2, r3
 8005154:	d10a      	bne.n	800516c <i2cAcquireBus+0x2c>
 8005156:	f105 000c 	add.w	r0, r5, #12
 800515a:	b003      	add	sp, #12
 800515c:	e8bd 4030 	ldmia.w	sp!, {r4, r5, lr}
 8005160:	f7fe bf96 	b.w	8004090 <chMtxLock>
 8005164:	4803      	ldr	r0, [pc, #12]	; (8005174 <i2cAcquireBus+0x34>)
 8005166:	f7fd fd43 	bl	8002bf0 <chSysHalt>
 800516a:	e7f0      	b.n	800514e <i2cAcquireBus+0xe>
 800516c:	f7fc f8d0 	bl	8001310 <__stack_chk_fail>
 8005170:	2000081c 	.word	0x2000081c
 8005174:	0800d9b0 	.word	0x0800d9b0
	...

08005180 <i2cReleaseBus>:
 8005180:	b530      	push	{r4, r5, lr}
 8005182:	4c0b      	ldr	r4, [pc, #44]	; (80051b0 <i2cReleaseBus+0x30>)
 8005184:	b083      	sub	sp, #12
 8005186:	6823      	ldr	r3, [r4, #0]
 8005188:	9301      	str	r3, [sp, #4]
 800518a:	4605      	mov	r5, r0
 800518c:	b150      	cbz	r0, 80051a4 <i2cReleaseBus+0x24>
 800518e:	9a01      	ldr	r2, [sp, #4]
 8005190:	6823      	ldr	r3, [r4, #0]
 8005192:	429a      	cmp	r2, r3
 8005194:	d10a      	bne.n	80051ac <i2cReleaseBus+0x2c>
 8005196:	f105 000c 	add.w	r0, r5, #12
 800519a:	b003      	add	sp, #12
 800519c:	e8bd 4030 	ldmia.w	sp!, {r4, r5, lr}
 80051a0:	f7fe bfae 	b.w	8004100 <chMtxUnlock>
 80051a4:	4803      	ldr	r0, [pc, #12]	; (80051b4 <i2cReleaseBus+0x34>)
 80051a6:	f7fd fd23 	bl	8002bf0 <chSysHalt>
 80051aa:	e7f0      	b.n	800518e <i2cReleaseBus+0xe>
 80051ac:	f7fc f8b0 	bl	8001310 <__stack_chk_fail>
 80051b0:	2000081c 	.word	0x2000081c
 80051b4:	0800d9c0 	.word	0x0800d9c0
	...

080051c0 <i2sInit>:
 80051c0:	b500      	push	{lr}
 80051c2:	4b07      	ldr	r3, [pc, #28]	; (80051e0 <i2sInit+0x20>)
 80051c4:	b083      	sub	sp, #12
 80051c6:	681a      	ldr	r2, [r3, #0]
 80051c8:	9201      	str	r2, [sp, #4]
 80051ca:	9a01      	ldr	r2, [sp, #4]
 80051cc:	681b      	ldr	r3, [r3, #0]
 80051ce:	429a      	cmp	r2, r3
 80051d0:	d104      	bne.n	80051dc <i2sInit+0x1c>
 80051d2:	b003      	add	sp, #12
 80051d4:	f85d eb04 	ldr.w	lr, [sp], #4
 80051d8:	f004 b8d2 	b.w	8009380 <i2s_lld_init>
 80051dc:	f7fc f898 	bl	8001310 <__stack_chk_fail>
 80051e0:	2000081c 	.word	0x2000081c
	...

080051f0 <i2sObjectInit>:
 80051f0:	b510      	push	{r4, lr}
 80051f2:	4b08      	ldr	r3, [pc, #32]	; (8005214 <i2sObjectInit+0x24>)
 80051f4:	b082      	sub	sp, #8
 80051f6:	681a      	ldr	r2, [r3, #0]
 80051f8:	9201      	str	r2, [sp, #4]
 80051fa:	9a01      	ldr	r2, [sp, #4]
 80051fc:	681b      	ldr	r3, [r3, #0]
 80051fe:	2401      	movs	r4, #1
 8005200:	2100      	movs	r1, #0
 8005202:	429a      	cmp	r2, r3
 8005204:	7004      	strb	r4, [r0, #0]
 8005206:	6041      	str	r1, [r0, #4]
 8005208:	d101      	bne.n	800520e <i2sObjectInit+0x1e>
 800520a:	b002      	add	sp, #8
 800520c:	bd10      	pop	{r4, pc}
 800520e:	f7fc f87f 	bl	8001310 <__stack_chk_fail>
 8005212:	bf00      	nop
 8005214:	2000081c 	.word	0x2000081c
	...

08005220 <pwmInit>:
 8005220:	b500      	push	{lr}
 8005222:	4b07      	ldr	r3, [pc, #28]	; (8005240 <pwmInit+0x20>)
 8005224:	b083      	sub	sp, #12
 8005226:	681a      	ldr	r2, [r3, #0]
 8005228:	9201      	str	r2, [sp, #4]
 800522a:	9a01      	ldr	r2, [sp, #4]
 800522c:	681b      	ldr	r3, [r3, #0]
 800522e:	429a      	cmp	r2, r3
 8005230:	d104      	bne.n	800523c <pwmInit+0x1c>
 8005232:	b003      	add	sp, #12
 8005234:	f85d eb04 	ldr.w	lr, [sp], #4
 8005238:	f004 ba42 	b.w	80096c0 <pwm_lld_init>
 800523c:	f7fc f868 	bl	8001310 <__stack_chk_fail>
 8005240:	2000081c 	.word	0x2000081c
	...

08005250 <pwmObjectInit>:
 8005250:	b510      	push	{r4, lr}
 8005252:	4b09      	ldr	r3, [pc, #36]	; (8005278 <pwmObjectInit+0x28>)
 8005254:	b082      	sub	sp, #8
 8005256:	681a      	ldr	r2, [r3, #0]
 8005258:	9201      	str	r2, [sp, #4]
 800525a:	9901      	ldr	r1, [sp, #4]
 800525c:	681a      	ldr	r2, [r3, #0]
 800525e:	2401      	movs	r4, #1
 8005260:	2300      	movs	r3, #0
 8005262:	4291      	cmp	r1, r2
 8005264:	7004      	strb	r4, [r0, #0]
 8005266:	6043      	str	r3, [r0, #4]
 8005268:	60c3      	str	r3, [r0, #12]
 800526a:	7403      	strb	r3, [r0, #16]
 800526c:	d101      	bne.n	8005272 <pwmObjectInit+0x22>
 800526e:	b002      	add	sp, #8
 8005270:	bd10      	pop	{r4, pc}
 8005272:	f7fc f84d 	bl	8001310 <__stack_chk_fail>
 8005276:	bf00      	nop
 8005278:	2000081c 	.word	0x2000081c
 800527c:	00000000 	.word	0x00000000

08005280 <sdcGetInfo>:
 8005280:	b570      	push	{r4, r5, r6, lr}
 8005282:	4d10      	ldr	r5, [pc, #64]	; (80052c4 <sdcGetInfo+0x44>)
 8005284:	b082      	sub	sp, #8
 8005286:	682b      	ldr	r3, [r5, #0]
 8005288:	9301      	str	r3, [sp, #4]
 800528a:	460e      	mov	r6, r1
 800528c:	4604      	mov	r4, r0
 800528e:	b150      	cbz	r0, 80052a6 <sdcGetInfo+0x26>
 8005290:	b149      	cbz	r1, 80052a6 <sdcGetInfo+0x26>
 8005292:	7923      	ldrb	r3, [r4, #4]
 8005294:	2b05      	cmp	r3, #5
 8005296:	d00c      	beq.n	80052b2 <sdcGetInfo+0x32>
 8005298:	2001      	movs	r0, #1
 800529a:	9a01      	ldr	r2, [sp, #4]
 800529c:	682b      	ldr	r3, [r5, #0]
 800529e:	429a      	cmp	r2, r3
 80052a0:	d10e      	bne.n	80052c0 <sdcGetInfo+0x40>
 80052a2:	b002      	add	sp, #8
 80052a4:	bd70      	pop	{r4, r5, r6, pc}
 80052a6:	4808      	ldr	r0, [pc, #32]	; (80052c8 <sdcGetInfo+0x48>)
 80052a8:	f7fd fca2 	bl	8002bf0 <chSysHalt>
 80052ac:	7923      	ldrb	r3, [r4, #4]
 80052ae:	2b05      	cmp	r3, #5
 80052b0:	d1f2      	bne.n	8005298 <sdcGetInfo+0x18>
 80052b2:	6aa3      	ldr	r3, [r4, #40]	; 0x28
 80052b4:	6073      	str	r3, [r6, #4]
 80052b6:	f44f 7300 	mov.w	r3, #512	; 0x200
 80052ba:	6033      	str	r3, [r6, #0]
 80052bc:	2000      	movs	r0, #0
 80052be:	e7ec      	b.n	800529a <sdcGetInfo+0x1a>
 80052c0:	f7fc f826 	bl	8001310 <__stack_chk_fail>
 80052c4:	2000081c 	.word	0x2000081c
 80052c8:	0800da40 	.word	0x0800da40
 80052cc:	00000000 	.word	0x00000000

080052d0 <sdcConnect>:
 80052d0:	e92d 47f0 	stmdb	sp!, {r4, r5, r6, r7, r8, r9, sl, lr}
 80052d4:	f8df 839c 	ldr.w	r8, [pc, #924]	; 8005674 <sdcConnect+0x3a4>
 80052d8:	b086      	sub	sp, #24
 80052da:	af02      	add	r7, sp, #8
 80052dc:	f8d8 3000 	ldr.w	r3, [r8]
 80052e0:	60fb      	str	r3, [r7, #12]
 80052e2:	4604      	mov	r4, r0
 80052e4:	2800      	cmp	r0, #0
 80052e6:	f000 8119 	beq.w	800551c <sdcConnect+0x24c>
 80052ea:	7923      	ldrb	r3, [r4, #4]
 80052ec:	2b02      	cmp	r3, #2
 80052ee:	d001      	beq.n	80052f4 <sdcConnect+0x24>
 80052f0:	2b05      	cmp	r3, #5
 80052f2:	d12b      	bne.n	800534c <sdcConnect+0x7c>
 80052f4:	2303      	movs	r3, #3
 80052f6:	7123      	strb	r3, [r4, #4]
 80052f8:	4620      	mov	r0, r4
 80052fa:	f002 fb61 	bl	80079c0 <sdc_lld_start_clk>
 80052fe:	2200      	movs	r2, #0
 8005300:	4611      	mov	r1, r2
 8005302:	4620      	mov	r0, r4
 8005304:	f002 fbd4 	bl	8007ab0 <sdc_lld_send_cmd_none>
 8005308:	f107 0308 	add.w	r3, r7, #8
 800530c:	f44f 72d5 	mov.w	r2, #426	; 0x1aa
 8005310:	2108      	movs	r1, #8
 8005312:	4620      	mov	r0, r4
 8005314:	f002 fc14 	bl	8007b40 <sdc_lld_send_cmd_short_crc>
 8005318:	b9e0      	cbnz	r0, 8005354 <sdcConnect+0x84>
 800531a:	68bb      	ldr	r3, [r7, #8]
 800531c:	2201      	movs	r2, #1
 800531e:	f3c3 2303 	ubfx	r3, r3, #8, #4
 8005322:	4293      	cmp	r3, r2
 8005324:	6322      	str	r2, [r4, #48]	; 0x30
 8005326:	f000 80fd 	beq.w	8005524 <sdcConnect+0x254>
 800532a:	4620      	mov	r0, r4
 800532c:	f002 fb80 	bl	8007a30 <sdc_lld_stop_clk>
 8005330:	2302      	movs	r3, #2
 8005332:	7123      	strb	r3, [r4, #4]
 8005334:	2501      	movs	r5, #1
 8005336:	68fa      	ldr	r2, [r7, #12]
 8005338:	f8d8 3000 	ldr.w	r3, [r8]
 800533c:	429a      	cmp	r2, r3
 800533e:	4628      	mov	r0, r5
 8005340:	f040 8146 	bne.w	80055d0 <sdcConnect+0x300>
 8005344:	3710      	adds	r7, #16
 8005346:	46bd      	mov	sp, r7
 8005348:	e8bd 87f0 	ldmia.w	sp!, {r4, r5, r6, r7, r8, r9, sl, pc}
 800534c:	48c0      	ldr	r0, [pc, #768]	; (8005650 <sdcConnect+0x380>)
 800534e:	f7fd fc4f 	bl	8002bf0 <chSysHalt>
 8005352:	e7cf      	b.n	80052f4 <sdcConnect+0x24>
 8005354:	f107 0308 	add.w	r3, r7, #8
 8005358:	2200      	movs	r2, #0
 800535a:	2137      	movs	r1, #55	; 0x37
 800535c:	4620      	mov	r0, r4
 800535e:	f002 fbef 	bl	8007b40 <sdc_lld_send_cmd_short_crc>
 8005362:	2800      	cmp	r0, #0
 8005364:	f040 80be 	bne.w	80054e4 <sdcConnect+0x214>
 8005368:	68bb      	ldr	r3, [r7, #8]
 800536a:	4aba      	ldr	r2, [pc, #744]	; (8005654 <sdcConnect+0x384>)
 800536c:	401a      	ands	r2, r3
 800536e:	2a00      	cmp	r2, #0
 8005370:	f040 80b8 	bne.w	80054e4 <sdcConnect+0x214>
 8005374:	6322      	str	r2, [r4, #48]	; 0x30
 8005376:	4611      	mov	r1, r2
 8005378:	4620      	mov	r0, r4
 800537a:	f002 fb99 	bl	8007ab0 <sdc_lld_send_cmd_none>
 800537e:	6b26      	ldr	r6, [r4, #48]	; 0x30
 8005380:	f006 030f 	and.w	r3, r6, #15
 8005384:	2b02      	cmp	r3, #2
 8005386:	f000 80af 	beq.w	80054e8 <sdcConnect+0x218>
 800538a:	4eb3      	ldr	r6, [pc, #716]	; (8005658 <sdcConnect+0x388>)
 800538c:	4ab3      	ldr	r2, [pc, #716]	; (800565c <sdcConnect+0x38c>)
 800538e:	f8df 92c4 	ldr.w	r9, [pc, #708]	; 8005654 <sdcConnect+0x384>
 8005392:	2b01      	cmp	r3, #1
 8005394:	bf18      	it	ne
 8005396:	4616      	movne	r6, r2
 8005398:	2564      	movs	r5, #100	; 0x64
 800539a:	e004      	b.n	80053a6 <sdcConnect+0xd6>
 800539c:	3d01      	subs	r5, #1
 800539e:	d0c4      	beq.n	800532a <sdcConnect+0x5a>
 80053a0:	200a      	movs	r0, #10
 80053a2:	f7fe fa2d 	bl	8003800 <chThdSleep>
 80053a6:	f107 0308 	add.w	r3, r7, #8
 80053aa:	2200      	movs	r2, #0
 80053ac:	2137      	movs	r1, #55	; 0x37
 80053ae:	4620      	mov	r0, r4
 80053b0:	f002 fbc6 	bl	8007b40 <sdc_lld_send_cmd_short_crc>
 80053b4:	2800      	cmp	r0, #0
 80053b6:	d1b8      	bne.n	800532a <sdcConnect+0x5a>
 80053b8:	68bb      	ldr	r3, [r7, #8]
 80053ba:	ea13 0f09 	tst.w	r3, r9
 80053be:	d1b4      	bne.n	800532a <sdcConnect+0x5a>
 80053c0:	f107 0308 	add.w	r3, r7, #8
 80053c4:	4632      	mov	r2, r6
 80053c6:	2129      	movs	r1, #41	; 0x29
 80053c8:	4620      	mov	r0, r4
 80053ca:	f002 fb91 	bl	8007af0 <sdc_lld_send_cmd_short>
 80053ce:	2800      	cmp	r0, #0
 80053d0:	d1ab      	bne.n	800532a <sdcConnect+0x5a>
 80053d2:	68bb      	ldr	r3, [r7, #8]
 80053d4:	2b00      	cmp	r3, #0
 80053d6:	dae1      	bge.n	800539c <sdcConnect+0xcc>
 80053d8:	005b      	lsls	r3, r3, #1
 80053da:	d503      	bpl.n	80053e4 <sdcConnect+0x114>
 80053dc:	6b23      	ldr	r3, [r4, #48]	; 0x30
 80053de:	f043 0310 	orr.w	r3, r3, #16
 80053e2:	6323      	str	r3, [r4, #48]	; 0x30
 80053e4:	f104 0308 	add.w	r3, r4, #8
 80053e8:	2200      	movs	r2, #0
 80053ea:	2102      	movs	r1, #2
 80053ec:	4620      	mov	r0, r4
 80053ee:	f002 fc97 	bl	8007d20 <sdc_lld_send_cmd_long_crc>
 80053f2:	2800      	cmp	r0, #0
 80053f4:	d199      	bne.n	800532a <sdcConnect+0x5a>
 80053f6:	4602      	mov	r2, r0
 80053f8:	f104 0338 	add.w	r3, r4, #56	; 0x38
 80053fc:	2103      	movs	r1, #3
 80053fe:	4620      	mov	r0, r4
 8005400:	f002 fb9e 	bl	8007b40 <sdc_lld_send_cmd_short_crc>
 8005404:	2800      	cmp	r0, #0
 8005406:	d190      	bne.n	800532a <sdcConnect+0x5a>
 8005408:	f104 0518 	add.w	r5, r4, #24
 800540c:	462b      	mov	r3, r5
 800540e:	6ba2      	ldr	r2, [r4, #56]	; 0x38
 8005410:	2109      	movs	r1, #9
 8005412:	4620      	mov	r0, r4
 8005414:	f002 fc84 	bl	8007d20 <sdc_lld_send_cmd_long_crc>
 8005418:	2800      	cmp	r0, #0
 800541a:	d186      	bne.n	800532a <sdcConnect+0x5a>
 800541c:	1d3b      	adds	r3, r7, #4
 800541e:	6ba2      	ldr	r2, [r4, #56]	; 0x38
 8005420:	2107      	movs	r1, #7
 8005422:	4620      	mov	r0, r4
 8005424:	f002 fb8c 	bl	8007b40 <sdc_lld_send_cmd_short_crc>
 8005428:	4682      	mov	sl, r0
 800542a:	2800      	cmp	r0, #0
 800542c:	f47f af7d 	bne.w	800532a <sdcConnect+0x5a>
 8005430:	6b23      	ldr	r3, [r4, #48]	; 0x30
 8005432:	f003 030f 	and.w	r3, r3, #15
 8005436:	2b02      	cmp	r3, #2
 8005438:	f000 8097 	beq.w	800556a <sdcConnect+0x29a>
 800543c:	466e      	mov	r6, sp
 800543e:	227e      	movs	r2, #126	; 0x7e
 8005440:	b090      	sub	sp, #64	; 0x40
 8005442:	217f      	movs	r1, #127	; 0x7f
 8005444:	4628      	mov	r0, r5
 8005446:	f7ff fb7b 	bl	8004b40 <_mmcsd_get_slice>
 800544a:	f10d 0908 	add.w	r9, sp, #8
 800544e:	2800      	cmp	r0, #0
 8005450:	d179      	bne.n	8005546 <sdcConnect+0x276>
 8005452:	4601      	mov	r1, r0
 8005454:	46b5      	mov	sp, r6
 8005456:	4620      	mov	r0, r4
 8005458:	f002 fad2 	bl	8007a00 <sdc_lld_set_data_clk>
 800545c:	6b23      	ldr	r3, [r4, #48]	; 0x30
 800545e:	f003 030f 	and.w	r3, r3, #15
 8005462:	2b02      	cmp	r3, #2
 8005464:	f000 8096 	beq.w	8005594 <sdcConnect+0x2c4>
 8005468:	4628      	mov	r0, r5
 800546a:	f7ff fba9 	bl	8004bc0 <_mmcsd_get_capacity>
 800546e:	62a0      	str	r0, [r4, #40]	; 0x28
 8005470:	1d3b      	adds	r3, r7, #4
 8005472:	f44f 7200 	mov.w	r2, #512	; 0x200
 8005476:	2110      	movs	r1, #16
 8005478:	4620      	mov	r0, r4
 800547a:	f002 fb61 	bl	8007b40 <sdc_lld_send_cmd_short_crc>
 800547e:	4605      	mov	r5, r0
 8005480:	2800      	cmp	r0, #0
 8005482:	f47f af52 	bne.w	800532a <sdcConnect+0x5a>
 8005486:	687b      	ldr	r3, [r7, #4]
 8005488:	4e72      	ldr	r6, [pc, #456]	; (8005654 <sdcConnect+0x384>)
 800548a:	4233      	tst	r3, r6
 800548c:	f47f af4d 	bne.w	800532a <sdcConnect+0x5a>
 8005490:	6b23      	ldr	r3, [r4, #48]	; 0x30
 8005492:	f003 030f 	and.w	r3, r3, #15
 8005496:	2b01      	cmp	r3, #1
 8005498:	f240 80b2 	bls.w	8005600 <sdcConnect+0x330>
 800549c:	2b02      	cmp	r3, #2
 800549e:	f47f af44 	bne.w	800532a <sdcConnect+0x5a>
 80054a2:	6ae3      	ldr	r3, [r4, #44]	; 0x2c
 80054a4:	791a      	ldrb	r2, [r3, #4]
 80054a6:	2a01      	cmp	r2, #1
 80054a8:	f000 80a8 	beq.w	80055fc <sdcConnect+0x32c>
 80054ac:	d317      	bcc.n	80054de <sdcConnect+0x20e>
 80054ae:	2a02      	cmp	r2, #2
 80054b0:	f040 80e2 	bne.w	8005678 <sdcConnect+0x3a8>
 80054b4:	4e6a      	ldr	r6, [pc, #424]	; (8005660 <sdcConnect+0x390>)
 80054b6:	7919      	ldrb	r1, [r3, #4]
 80054b8:	4620      	mov	r0, r4
 80054ba:	f002 fad1 	bl	8007a60 <sdc_lld_set_bus_mode>
 80054be:	f107 0308 	add.w	r3, r7, #8
 80054c2:	4632      	mov	r2, r6
 80054c4:	2106      	movs	r1, #6
 80054c6:	4620      	mov	r0, r4
 80054c8:	f002 fb3a 	bl	8007b40 <sdc_lld_send_cmd_short_crc>
 80054cc:	2800      	cmp	r0, #0
 80054ce:	f47f af2c 	bne.w	800532a <sdcConnect+0x5a>
 80054d2:	68ba      	ldr	r2, [r7, #8]
 80054d4:	4b5f      	ldr	r3, [pc, #380]	; (8005654 <sdcConnect+0x384>)
 80054d6:	4013      	ands	r3, r2
 80054d8:	2b00      	cmp	r3, #0
 80054da:	f47f af26 	bne.w	800532a <sdcConnect+0x5a>
 80054de:	2305      	movs	r3, #5
 80054e0:	7123      	strb	r3, [r4, #4]
 80054e2:	e728      	b.n	8005336 <sdcConnect+0x66>
 80054e4:	2302      	movs	r3, #2
 80054e6:	6323      	str	r3, [r4, #48]	; 0x30
 80054e8:	4e5e      	ldr	r6, [pc, #376]	; (8005664 <sdcConnect+0x394>)
 80054ea:	2564      	movs	r5, #100	; 0x64
 80054ec:	e005      	b.n	80054fa <sdcConnect+0x22a>
 80054ee:	3d01      	subs	r5, #1
 80054f0:	f43f af1b 	beq.w	800532a <sdcConnect+0x5a>
 80054f4:	200a      	movs	r0, #10
 80054f6:	f7fe f983 	bl	8003800 <chThdSleep>
 80054fa:	f107 0308 	add.w	r3, r7, #8
 80054fe:	4632      	mov	r2, r6
 8005500:	2101      	movs	r1, #1
 8005502:	4620      	mov	r0, r4
 8005504:	f002 faf4 	bl	8007af0 <sdc_lld_send_cmd_short>
 8005508:	2800      	cmp	r0, #0
 800550a:	f47f af0e 	bne.w	800532a <sdcConnect+0x5a>
 800550e:	68bb      	ldr	r3, [r7, #8]
 8005510:	2b00      	cmp	r3, #0
 8005512:	daec      	bge.n	80054ee <sdcConnect+0x21e>
 8005514:	005b      	lsls	r3, r3, #1
 8005516:	f57f af65 	bpl.w	80053e4 <sdcConnect+0x114>
 800551a:	e75f      	b.n	80053dc <sdcConnect+0x10c>
 800551c:	484c      	ldr	r0, [pc, #304]	; (8005650 <sdcConnect+0x380>)
 800551e:	f7fd fb67 	bl	8002bf0 <chSysHalt>
 8005522:	e6e2      	b.n	80052ea <sdcConnect+0x1a>
 8005524:	4602      	mov	r2, r0
 8005526:	f107 0308 	add.w	r3, r7, #8
 800552a:	2137      	movs	r1, #55	; 0x37
 800552c:	4620      	mov	r0, r4
 800552e:	f002 fb07 	bl	8007b40 <sdc_lld_send_cmd_short_crc>
 8005532:	2800      	cmp	r0, #0
 8005534:	f47f aef9 	bne.w	800532a <sdcConnect+0x5a>
 8005538:	68ba      	ldr	r2, [r7, #8]
 800553a:	4b46      	ldr	r3, [pc, #280]	; (8005654 <sdcConnect+0x384>)
 800553c:	4013      	ands	r3, r2
 800553e:	2b00      	cmp	r3, #0
 8005540:	f47f aef3 	bne.w	800532a <sdcConnect+0x5a>
 8005544:	e71b      	b.n	800537e <sdcConnect+0xae>
 8005546:	f8cd a000 	str.w	sl, [sp]
 800554a:	2306      	movs	r3, #6
 800554c:	2240      	movs	r2, #64	; 0x40
 800554e:	4649      	mov	r1, r9
 8005550:	4620      	mov	r0, r4
 8005552:	f002 fc15 	bl	8007d80 <sdc_lld_read_special>
 8005556:	2800      	cmp	r0, #0
 8005558:	d14e      	bne.n	80055f8 <sdcConnect+0x328>
 800555a:	f899 300d 	ldrb.w	r3, [r9, #13]
 800555e:	f013 0302 	ands.w	r3, r3, #2
 8005562:	d137      	bne.n	80055d4 <sdcConnect+0x304>
 8005564:	4619      	mov	r1, r3
 8005566:	46b5      	mov	sp, r6
 8005568:	e775      	b.n	8005456 <sdcConnect+0x186>
 800556a:	6ae3      	ldr	r3, [r4, #44]	; 0x2c
 800556c:	681b      	ldr	r3, [r3, #0]
 800556e:	b17b      	cbz	r3, 8005590 <sdcConnect+0x2c0>
 8005570:	f107 0308 	add.w	r3, r7, #8
 8005574:	4a3c      	ldr	r2, [pc, #240]	; (8005668 <sdcConnect+0x398>)
 8005576:	2106      	movs	r1, #6
 8005578:	4620      	mov	r0, r4
 800557a:	f002 fae1 	bl	8007b40 <sdc_lld_send_cmd_short_crc>
 800557e:	b938      	cbnz	r0, 8005590 <sdcConnect+0x2c0>
 8005580:	68bb      	ldr	r3, [r7, #8]
 8005582:	4934      	ldr	r1, [pc, #208]	; (8005654 <sdcConnect+0x384>)
 8005584:	4019      	ands	r1, r3
 8005586:	fab1 f181 	clz	r1, r1
 800558a:	0949      	lsrs	r1, r1, #5
 800558c:	e763      	b.n	8005456 <sdcConnect+0x186>
 800558e:	46b5      	mov	sp, r6
 8005590:	2100      	movs	r1, #0
 8005592:	e760      	b.n	8005456 <sdcConnect+0x186>
 8005594:	227e      	movs	r2, #126	; 0x7e
 8005596:	217f      	movs	r1, #127	; 0x7f
 8005598:	4628      	mov	r0, r5
 800559a:	f7ff fad1 	bl	8004b40 <_mmcsd_get_slice>
 800559e:	2801      	cmp	r0, #1
 80055a0:	f67f af62 	bls.w	8005468 <sdcConnect+0x198>
 80055a4:	6ae3      	ldr	r3, [r4, #44]	; 0x2c
 80055a6:	681d      	ldr	r5, [r3, #0]
 80055a8:	2d00      	cmp	r5, #0
 80055aa:	f43f aebe 	beq.w	800532a <sdcConnect+0x5a>
 80055ae:	2300      	movs	r3, #0
 80055b0:	9300      	str	r3, [sp, #0]
 80055b2:	f44f 7200 	mov.w	r2, #512	; 0x200
 80055b6:	2308      	movs	r3, #8
 80055b8:	4629      	mov	r1, r5
 80055ba:	4620      	mov	r0, r4
 80055bc:	f002 fbe0 	bl	8007d80 <sdc_lld_read_special>
 80055c0:	2800      	cmp	r0, #0
 80055c2:	f47f aeb2 	bne.w	800532a <sdcConnect+0x5a>
 80055c6:	4628      	mov	r0, r5
 80055c8:	f7ff fb3a 	bl	8004c40 <_mmcsd_get_capacity_ext>
 80055cc:	62a0      	str	r0, [r4, #40]	; 0x28
 80055ce:	e74f      	b.n	8005470 <sdcConnect+0x1a0>
 80055d0:	f7fb fe9e 	bl	8001310 <__stack_chk_fail>
 80055d4:	4b25      	ldr	r3, [pc, #148]	; (800566c <sdcConnect+0x39c>)
 80055d6:	9300      	str	r3, [sp, #0]
 80055d8:	2240      	movs	r2, #64	; 0x40
 80055da:	2306      	movs	r3, #6
 80055dc:	4649      	mov	r1, r9
 80055de:	4620      	mov	r0, r4
 80055e0:	f002 fbce 	bl	8007d80 <sdc_lld_read_special>
 80055e4:	b940      	cbnz	r0, 80055f8 <sdcConnect+0x328>
 80055e6:	f899 3010 	ldrb.w	r3, [r9, #16]
 80055ea:	f003 030f 	and.w	r3, r3, #15
 80055ee:	2b0f      	cmp	r3, #15
 80055f0:	d0cd      	beq.n	800558e <sdcConnect+0x2be>
 80055f2:	46b5      	mov	sp, r6
 80055f4:	2101      	movs	r1, #1
 80055f6:	e72e      	b.n	8005456 <sdcConnect+0x186>
 80055f8:	46b5      	mov	sp, r6
 80055fa:	e696      	b.n	800532a <sdcConnect+0x5a>
 80055fc:	4e1c      	ldr	r6, [pc, #112]	; (8005670 <sdcConnect+0x3a0>)
 80055fe:	e75a      	b.n	80054b6 <sdcConnect+0x1e6>
 8005600:	6ae3      	ldr	r3, [r4, #44]	; 0x2c
 8005602:	7919      	ldrb	r1, [r3, #4]
 8005604:	2900      	cmp	r1, #0
 8005606:	f43f af6a 	beq.w	80054de <sdcConnect+0x20e>
 800560a:	2901      	cmp	r1, #1
 800560c:	f47f ae8d 	bne.w	800532a <sdcConnect+0x5a>
 8005610:	4620      	mov	r0, r4
 8005612:	f002 fa25 	bl	8007a60 <sdc_lld_set_bus_mode>
 8005616:	f107 0308 	add.w	r3, r7, #8
 800561a:	6ba2      	ldr	r2, [r4, #56]	; 0x38
 800561c:	2137      	movs	r1, #55	; 0x37
 800561e:	4620      	mov	r0, r4
 8005620:	f002 fa8e 	bl	8007b40 <sdc_lld_send_cmd_short_crc>
 8005624:	2800      	cmp	r0, #0
 8005626:	f47f ae80 	bne.w	800532a <sdcConnect+0x5a>
 800562a:	68bb      	ldr	r3, [r7, #8]
 800562c:	4233      	tst	r3, r6
 800562e:	f47f ae7c 	bne.w	800532a <sdcConnect+0x5a>
 8005632:	f107 0308 	add.w	r3, r7, #8
 8005636:	2202      	movs	r2, #2
 8005638:	2106      	movs	r1, #6
 800563a:	4620      	mov	r0, r4
 800563c:	f002 fa80 	bl	8007b40 <sdc_lld_send_cmd_short_crc>
 8005640:	2800      	cmp	r0, #0
 8005642:	f47f ae72 	bne.w	800532a <sdcConnect+0x5a>
 8005646:	68bb      	ldr	r3, [r7, #8]
 8005648:	4233      	tst	r3, r6
 800564a:	f43f af48 	beq.w	80054de <sdcConnect+0x20e>
 800564e:	e66c      	b.n	800532a <sdcConnect+0x5a>
 8005650:	0800d9f0 	.word	0x0800d9f0
 8005654:	fdffe008 	.word	0xfdffe008
 8005658:	c0100000 	.word	0xc0100000
 800565c:	80100000 	.word	0x80100000
 8005660:	03b70200 	.word	0x03b70200
 8005664:	c0ff8000 	.word	0xc0ff8000
 8005668:	03b90100 	.word	0x03b90100
 800566c:	80fffff1 	.word	0x80fffff1
 8005670:	03b70100 	.word	0x03b70100
 8005674:	2000081c 	.word	0x2000081c
 8005678:	4802      	ldr	r0, [pc, #8]	; (8005684 <sdcConnect+0x3b4>)
 800567a:	4e03      	ldr	r6, [pc, #12]	; (8005688 <sdcConnect+0x3b8>)
 800567c:	f7fd fab8 	bl	8002bf0 <chSysHalt>
 8005680:	6ae3      	ldr	r3, [r4, #44]	; 0x2c
 8005682:	e718      	b.n	80054b6 <sdcConnect+0x1e6>
 8005684:	0800d9d0 	.word	0x0800d9d0
 8005688:	03b70000 	.word	0x03b70000
 800568c:	00000000 	.word	0x00000000

08005690 <sdcRead>:
 8005690:	e92d 41f0 	stmdb	sp!, {r4, r5, r6, r7, r8, lr}
 8005694:	4d19      	ldr	r5, [pc, #100]	; (80056fc <sdcRead+0x6c>)
 8005696:	b082      	sub	sp, #8
 8005698:	682c      	ldr	r4, [r5, #0]
 800569a:	9401      	str	r4, [sp, #4]
 800569c:	460f      	mov	r7, r1
 800569e:	4690      	mov	r8, r2
 80056a0:	461e      	mov	r6, r3
 80056a2:	4604      	mov	r4, r0
 80056a4:	b1c0      	cbz	r0, 80056d8 <sdcRead+0x48>
 80056a6:	b1ba      	cbz	r2, 80056d8 <sdcRead+0x48>
 80056a8:	b1b3      	cbz	r3, 80056d8 <sdcRead+0x48>
 80056aa:	7923      	ldrb	r3, [r4, #4]
 80056ac:	2b05      	cmp	r3, #5
 80056ae:	d002      	beq.n	80056b6 <sdcRead+0x26>
 80056b0:	4813      	ldr	r0, [pc, #76]	; (8005700 <sdcRead+0x70>)
 80056b2:	f7fd fa9d 	bl	8002bf0 <chSysHalt>
 80056b6:	1e78      	subs	r0, r7, #1
 80056b8:	6aa3      	ldr	r3, [r4, #40]	; 0x28
 80056ba:	4430      	add	r0, r6
 80056bc:	4298      	cmp	r0, r3
 80056be:	d90f      	bls.n	80056e0 <sdcRead+0x50>
 80056c0:	6b63      	ldr	r3, [r4, #52]	; 0x34
 80056c2:	f043 0380 	orr.w	r3, r3, #128	; 0x80
 80056c6:	6363      	str	r3, [r4, #52]	; 0x34
 80056c8:	2001      	movs	r0, #1
 80056ca:	9a01      	ldr	r2, [sp, #4]
 80056cc:	682b      	ldr	r3, [r5, #0]
 80056ce:	429a      	cmp	r2, r3
 80056d0:	d111      	bne.n	80056f6 <sdcRead+0x66>
 80056d2:	b002      	add	sp, #8
 80056d4:	e8bd 81f0 	ldmia.w	sp!, {r4, r5, r6, r7, r8, pc}
 80056d8:	4809      	ldr	r0, [pc, #36]	; (8005700 <sdcRead+0x70>)
 80056da:	f7fd fa89 	bl	8002bf0 <chSysHalt>
 80056de:	e7e4      	b.n	80056aa <sdcRead+0x1a>
 80056e0:	2006      	movs	r0, #6
 80056e2:	4633      	mov	r3, r6
 80056e4:	7120      	strb	r0, [r4, #4]
 80056e6:	4642      	mov	r2, r8
 80056e8:	4639      	mov	r1, r7
 80056ea:	4620      	mov	r0, r4
 80056ec:	f002 fc90 	bl	8008010 <sdc_lld_read>
 80056f0:	2305      	movs	r3, #5
 80056f2:	7123      	strb	r3, [r4, #4]
 80056f4:	e7e9      	b.n	80056ca <sdcRead+0x3a>
 80056f6:	f7fb fe0b 	bl	8001310 <__stack_chk_fail>
 80056fa:	bf00      	nop
 80056fc:	2000081c 	.word	0x2000081c
 8005700:	0800da10 	.word	0x0800da10
	...

08005710 <sdcWrite>:
 8005710:	e92d 41f0 	stmdb	sp!, {r4, r5, r6, r7, r8, lr}
 8005714:	4d19      	ldr	r5, [pc, #100]	; (800577c <sdcWrite+0x6c>)
 8005716:	b082      	sub	sp, #8
 8005718:	682c      	ldr	r4, [r5, #0]
 800571a:	9401      	str	r4, [sp, #4]
 800571c:	460f      	mov	r7, r1
 800571e:	4690      	mov	r8, r2
 8005720:	461e      	mov	r6, r3
 8005722:	4604      	mov	r4, r0
 8005724:	b1c0      	cbz	r0, 8005758 <sdcWrite+0x48>
 8005726:	b1ba      	cbz	r2, 8005758 <sdcWrite+0x48>
 8005728:	b1b3      	cbz	r3, 8005758 <sdcWrite+0x48>
 800572a:	7923      	ldrb	r3, [r4, #4]
 800572c:	2b05      	cmp	r3, #5
 800572e:	d002      	beq.n	8005736 <sdcWrite+0x26>
 8005730:	4813      	ldr	r0, [pc, #76]	; (8005780 <sdcWrite+0x70>)
 8005732:	f7fd fa5d 	bl	8002bf0 <chSysHalt>
 8005736:	1e78      	subs	r0, r7, #1
 8005738:	6aa3      	ldr	r3, [r4, #40]	; 0x28
 800573a:	4430      	add	r0, r6
 800573c:	4298      	cmp	r0, r3
 800573e:	d90f      	bls.n	8005760 <sdcWrite+0x50>
 8005740:	6b63      	ldr	r3, [r4, #52]	; 0x34
 8005742:	f043 0380 	orr.w	r3, r3, #128	; 0x80
 8005746:	6363      	str	r3, [r4, #52]	; 0x34
 8005748:	2001      	movs	r0, #1
 800574a:	9a01      	ldr	r2, [sp, #4]
 800574c:	682b      	ldr	r3, [r5, #0]
 800574e:	429a      	cmp	r2, r3
 8005750:	d111      	bne.n	8005776 <sdcWrite+0x66>
 8005752:	b002      	add	sp, #8
 8005754:	e8bd 81f0 	ldmia.w	sp!, {r4, r5, r6, r7, r8, pc}
 8005758:	4809      	ldr	r0, [pc, #36]	; (8005780 <sdcWrite+0x70>)
 800575a:	f7fd fa49 	bl	8002bf0 <chSysHalt>
 800575e:	e7e4      	b.n	800572a <sdcWrite+0x1a>
 8005760:	2007      	movs	r0, #7
 8005762:	4633      	mov	r3, r6
 8005764:	7120      	strb	r0, [r4, #4]
 8005766:	4642      	mov	r2, r8
 8005768:	4639      	mov	r1, r7
 800576a:	4620      	mov	r0, r4
 800576c:	f002 fc90 	bl	8008090 <sdc_lld_write>
 8005770:	2305      	movs	r3, #5
 8005772:	7123      	strb	r3, [r4, #4]
 8005774:	e7e9      	b.n	800574a <sdcWrite+0x3a>
 8005776:	f7fb fdcb 	bl	8001310 <__stack_chk_fail>
 800577a:	bf00      	nop
 800577c:	2000081c 	.word	0x2000081c
 8005780:	0800da20 	.word	0x0800da20
	...

08005790 <sdcSync>:
 8005790:	b570      	push	{r4, r5, r6, lr}
 8005792:	4d0e      	ldr	r5, [pc, #56]	; (80057cc <sdcSync+0x3c>)
 8005794:	b082      	sub	sp, #8
 8005796:	682b      	ldr	r3, [r5, #0]
 8005798:	9301      	str	r3, [sp, #4]
 800579a:	4604      	mov	r4, r0
 800579c:	b180      	cbz	r0, 80057c0 <sdcSync+0x30>
 800579e:	7926      	ldrb	r6, [r4, #4]
 80057a0:	2e05      	cmp	r6, #5
 80057a2:	d006      	beq.n	80057b2 <sdcSync+0x22>
 80057a4:	2001      	movs	r0, #1
 80057a6:	9a01      	ldr	r2, [sp, #4]
 80057a8:	682b      	ldr	r3, [r5, #0]
 80057aa:	429a      	cmp	r2, r3
 80057ac:	d10c      	bne.n	80057c8 <sdcSync+0x38>
 80057ae:	b002      	add	sp, #8
 80057b0:	bd70      	pop	{r4, r5, r6, pc}
 80057b2:	2308      	movs	r3, #8
 80057b4:	7123      	strb	r3, [r4, #4]
 80057b6:	4620      	mov	r0, r4
 80057b8:	f002 fcaa 	bl	8008110 <sdc_lld_sync>
 80057bc:	7126      	strb	r6, [r4, #4]
 80057be:	e7f2      	b.n	80057a6 <sdcSync+0x16>
 80057c0:	4803      	ldr	r0, [pc, #12]	; (80057d0 <sdcSync+0x40>)
 80057c2:	f7fd fa15 	bl	8002bf0 <chSysHalt>
 80057c6:	e7ea      	b.n	800579e <sdcSync+0xe>
 80057c8:	f7fb fda2 	bl	8001310 <__stack_chk_fail>
 80057cc:	2000081c 	.word	0x2000081c
 80057d0:	0800da30 	.word	0x0800da30
	...

080057e0 <_sdc_wait_for_transfer_state>:
 80057e0:	b570      	push	{r4, r5, r6, lr}
 80057e2:	4d12      	ldr	r5, [pc, #72]	; (800582c <_sdc_wait_for_transfer_state+0x4c>)
 80057e4:	4e12      	ldr	r6, [pc, #72]	; (8005830 <_sdc_wait_for_transfer_state+0x50>)
 80057e6:	682b      	ldr	r3, [r5, #0]
 80057e8:	b082      	sub	sp, #8
 80057ea:	4604      	mov	r4, r0
 80057ec:	9301      	str	r3, [sp, #4]
 80057ee:	466b      	mov	r3, sp
 80057f0:	6ba2      	ldr	r2, [r4, #56]	; 0x38
 80057f2:	210d      	movs	r1, #13
 80057f4:	4620      	mov	r0, r4
 80057f6:	f002 f9a3 	bl	8007b40 <sdc_lld_send_cmd_short_crc>
 80057fa:	b978      	cbnz	r0, 800581c <_sdc_wait_for_transfer_state+0x3c>
 80057fc:	9b00      	ldr	r3, [sp, #0]
 80057fe:	4233      	tst	r3, r6
 8005800:	d10b      	bne.n	800581a <_sdc_wait_for_transfer_state+0x3a>
 8005802:	f3c3 2343 	ubfx	r3, r3, #9, #4
 8005806:	2b04      	cmp	r3, #4
 8005808:	d008      	beq.n	800581c <_sdc_wait_for_transfer_state+0x3c>
 800580a:	f04f 0001 	mov.w	r0, #1
 800580e:	d305      	bcc.n	800581c <_sdc_wait_for_transfer_state+0x3c>
 8005810:	2b07      	cmp	r3, #7
 8005812:	d803      	bhi.n	800581c <_sdc_wait_for_transfer_state+0x3c>
 8005814:	f7fd fff4 	bl	8003800 <chThdSleep>
 8005818:	e7e9      	b.n	80057ee <_sdc_wait_for_transfer_state+0xe>
 800581a:	2001      	movs	r0, #1
 800581c:	9a01      	ldr	r2, [sp, #4]
 800581e:	682b      	ldr	r3, [r5, #0]
 8005820:	429a      	cmp	r2, r3
 8005822:	d101      	bne.n	8005828 <_sdc_wait_for_transfer_state+0x48>
 8005824:	b002      	add	sp, #8
 8005826:	bd70      	pop	{r4, r5, r6, pc}
 8005828:	f7fb fd72 	bl	8001310 <__stack_chk_fail>
 800582c:	2000081c 	.word	0x2000081c
 8005830:	fdffe008 	.word	0xfdffe008
	...

08005840 <sdcDisconnect>:
 8005840:	b570      	push	{r4, r5, r6, lr}
 8005842:	4e2d      	ldr	r6, [pc, #180]	; (80058f8 <sdcDisconnect+0xb8>)
 8005844:	b082      	sub	sp, #8
 8005846:	6833      	ldr	r3, [r6, #0]
 8005848:	9301      	str	r3, [sp, #4]
 800584a:	4604      	mov	r4, r0
 800584c:	2800      	cmp	r0, #0
 800584e:	d04c      	beq.n	80058ea <sdcDisconnect+0xaa>
 8005850:	2320      	movs	r3, #32
 8005852:	f383 8811 	msr	BASEPRI, r3
 8005856:	f7fe fadb 	bl	8003e10 <_stats_start_measure_crit_thd>
 800585a:	f7fd fa69 	bl	8002d30 <_dbg_check_lock>
 800585e:	7923      	ldrb	r3, [r4, #4]
 8005860:	2b02      	cmp	r3, #2
 8005862:	d029      	beq.n	80058b8 <sdcDisconnect+0x78>
 8005864:	2b05      	cmp	r3, #5
 8005866:	d121      	bne.n	80058ac <sdcDisconnect+0x6c>
 8005868:	2304      	movs	r3, #4
 800586a:	7123      	strb	r3, [r4, #4]
 800586c:	f7fd fa80 	bl	8002d70 <_dbg_check_unlock>
 8005870:	f7fe fae6 	bl	8003e40 <_stats_stop_measure_crit_thd>
 8005874:	4b21      	ldr	r3, [pc, #132]	; (80058fc <sdcDisconnect+0xbc>)
 8005876:	681a      	ldr	r2, [r3, #0]
 8005878:	429a      	cmp	r2, r3
 800587a:	d004      	beq.n	8005886 <sdcDisconnect+0x46>
 800587c:	6999      	ldr	r1, [r3, #24]
 800587e:	6893      	ldr	r3, [r2, #8]
 8005880:	688a      	ldr	r2, [r1, #8]
 8005882:	429a      	cmp	r2, r3
 8005884:	d329      	bcc.n	80058da <sdcDisconnect+0x9a>
 8005886:	2300      	movs	r3, #0
 8005888:	f383 8811 	msr	BASEPRI, r3
 800588c:	4620      	mov	r0, r4
 800588e:	f7ff ffa7 	bl	80057e0 <_sdc_wait_for_transfer_state>
 8005892:	4605      	mov	r5, r0
 8005894:	4620      	mov	r0, r4
 8005896:	f002 f8cb 	bl	8007a30 <sdc_lld_stop_clk>
 800589a:	2302      	movs	r3, #2
 800589c:	7123      	strb	r3, [r4, #4]
 800589e:	9a01      	ldr	r2, [sp, #4]
 80058a0:	6833      	ldr	r3, [r6, #0]
 80058a2:	429a      	cmp	r2, r3
 80058a4:	4628      	mov	r0, r5
 80058a6:	d124      	bne.n	80058f2 <sdcDisconnect+0xb2>
 80058a8:	b002      	add	sp, #8
 80058aa:	bd70      	pop	{r4, r5, r6, pc}
 80058ac:	4814      	ldr	r0, [pc, #80]	; (8005900 <sdcDisconnect+0xc0>)
 80058ae:	f7fd f99f 	bl	8002bf0 <chSysHalt>
 80058b2:	7923      	ldrb	r3, [r4, #4]
 80058b4:	2b02      	cmp	r3, #2
 80058b6:	d1d7      	bne.n	8005868 <sdcDisconnect+0x28>
 80058b8:	f7fd fa5a 	bl	8002d70 <_dbg_check_unlock>
 80058bc:	f7fe fac0 	bl	8003e40 <_stats_stop_measure_crit_thd>
 80058c0:	4b0e      	ldr	r3, [pc, #56]	; (80058fc <sdcDisconnect+0xbc>)
 80058c2:	681a      	ldr	r2, [r3, #0]
 80058c4:	429a      	cmp	r2, r3
 80058c6:	d004      	beq.n	80058d2 <sdcDisconnect+0x92>
 80058c8:	6999      	ldr	r1, [r3, #24]
 80058ca:	6893      	ldr	r3, [r2, #8]
 80058cc:	688a      	ldr	r2, [r1, #8]
 80058ce:	429a      	cmp	r2, r3
 80058d0:	d307      	bcc.n	80058e2 <sdcDisconnect+0xa2>
 80058d2:	2500      	movs	r5, #0
 80058d4:	f385 8811 	msr	BASEPRI, r5
 80058d8:	e7e1      	b.n	800589e <sdcDisconnect+0x5e>
 80058da:	480a      	ldr	r0, [pc, #40]	; (8005904 <sdcDisconnect+0xc4>)
 80058dc:	f7fd f988 	bl	8002bf0 <chSysHalt>
 80058e0:	e7d1      	b.n	8005886 <sdcDisconnect+0x46>
 80058e2:	4808      	ldr	r0, [pc, #32]	; (8005904 <sdcDisconnect+0xc4>)
 80058e4:	f7fd f984 	bl	8002bf0 <chSysHalt>
 80058e8:	e7f3      	b.n	80058d2 <sdcDisconnect+0x92>
 80058ea:	4805      	ldr	r0, [pc, #20]	; (8005900 <sdcDisconnect+0xc0>)
 80058ec:	f7fd f980 	bl	8002bf0 <chSysHalt>
 80058f0:	e7ae      	b.n	8005850 <sdcDisconnect+0x10>
 80058f2:	f7fb fd0d 	bl	8001310 <__stack_chk_fail>
 80058f6:	bf00      	nop
 80058f8:	2000081c 	.word	0x2000081c
 80058fc:	200018b0 	.word	0x200018b0
 8005900:	0800da00 	.word	0x0800da00
 8005904:	0800da50 	.word	0x0800da50
	...

08005910 <sdcInit>:
 8005910:	b500      	push	{lr}
 8005912:	4b07      	ldr	r3, [pc, #28]	; (8005930 <sdcInit+0x20>)
 8005914:	b083      	sub	sp, #12
 8005916:	681a      	ldr	r2, [r3, #0]
 8005918:	9201      	str	r2, [sp, #4]
 800591a:	9a01      	ldr	r2, [sp, #4]
 800591c:	681b      	ldr	r3, [r3, #0]
 800591e:	429a      	cmp	r2, r3
 8005920:	d104      	bne.n	800592c <sdcInit+0x1c>
 8005922:	b003      	add	sp, #12
 8005924:	f85d eb04 	ldr.w	lr, [sp], #4
 8005928:	f002 b82a 	b.w	8007980 <sdc_lld_init>
 800592c:	f7fb fcf0 	bl	8001310 <__stack_chk_fail>
 8005930:	2000081c 	.word	0x2000081c
	...

08005940 <sdcObjectInit>:
 8005940:	b510      	push	{r4, lr}
 8005942:	4b0a      	ldr	r3, [pc, #40]	; (800596c <sdcObjectInit+0x2c>)
 8005944:	4c0a      	ldr	r4, [pc, #40]	; (8005970 <sdcObjectInit+0x30>)
 8005946:	681a      	ldr	r2, [r3, #0]
 8005948:	b082      	sub	sp, #8
 800594a:	9201      	str	r2, [sp, #4]
 800594c:	9901      	ldr	r1, [sp, #4]
 800594e:	681a      	ldr	r2, [r3, #0]
 8005950:	6004      	str	r4, [r0, #0]
 8005952:	2300      	movs	r3, #0
 8005954:	2401      	movs	r4, #1
 8005956:	4291      	cmp	r1, r2
 8005958:	7104      	strb	r4, [r0, #4]
 800595a:	6343      	str	r3, [r0, #52]	; 0x34
 800595c:	e9c0 330a 	strd	r3, r3, [r0, #40]	; 0x28
 8005960:	d101      	bne.n	8005966 <sdcObjectInit+0x26>
 8005962:	b002      	add	sp, #8
 8005964:	bd10      	pop	{r4, pc}
 8005966:	f7fb fcd3 	bl	8001310 <__stack_chk_fail>
 800596a:	bf00      	nop
 800596c:	2000081c 	.word	0x2000081c
 8005970:	0800da60 	.word	0x0800da60
	...

08005980 <readt>:
 8005980:	b530      	push	{r4, r5, lr}
 8005982:	4c08      	ldr	r4, [pc, #32]	; (80059a4 <readt+0x24>)
 8005984:	b083      	sub	sp, #12
 8005986:	6825      	ldr	r5, [r4, #0]
 8005988:	9501      	str	r5, [sp, #4]
 800598a:	9d01      	ldr	r5, [sp, #4]
 800598c:	6824      	ldr	r4, [r4, #0]
 800598e:	42a5      	cmp	r5, r4
 8005990:	d105      	bne.n	800599e <readt+0x1e>
 8005992:	300c      	adds	r0, #12
 8005994:	b003      	add	sp, #12
 8005996:	e8bd 4030 	ldmia.w	sp!, {r4, r5, lr}
 800599a:	f7fe bde9 	b.w	8004570 <chIQReadTimeout>
 800599e:	f7fb fcb7 	bl	8001310 <__stack_chk_fail>
 80059a2:	bf00      	nop
 80059a4:	2000081c 	.word	0x2000081c
	...

080059b0 <read>:
 80059b0:	b510      	push	{r4, lr}
 80059b2:	4b09      	ldr	r3, [pc, #36]	; (80059d8 <read+0x28>)
 80059b4:	b082      	sub	sp, #8
 80059b6:	681c      	ldr	r4, [r3, #0]
 80059b8:	9401      	str	r4, [sp, #4]
 80059ba:	9c01      	ldr	r4, [sp, #4]
 80059bc:	681b      	ldr	r3, [r3, #0]
 80059be:	429c      	cmp	r4, r3
 80059c0:	d107      	bne.n	80059d2 <read+0x22>
 80059c2:	300c      	adds	r0, #12
 80059c4:	f04f 33ff 	mov.w	r3, #4294967295
 80059c8:	b002      	add	sp, #8
 80059ca:	e8bd 4010 	ldmia.w	sp!, {r4, lr}
 80059ce:	f7fe bdcf 	b.w	8004570 <chIQReadTimeout>
 80059d2:	f7fb fc9d 	bl	8001310 <__stack_chk_fail>
 80059d6:	bf00      	nop
 80059d8:	2000081c 	.word	0x2000081c
 80059dc:	00000000 	.word	0x00000000

080059e0 <writet>:
 80059e0:	b530      	push	{r4, r5, lr}
 80059e2:	4c08      	ldr	r4, [pc, #32]	; (8005a04 <writet+0x24>)
 80059e4:	b083      	sub	sp, #12
 80059e6:	6825      	ldr	r5, [r4, #0]
 80059e8:	9501      	str	r5, [sp, #4]
 80059ea:	9d01      	ldr	r5, [sp, #4]
 80059ec:	6824      	ldr	r4, [r4, #0]
 80059ee:	42a5      	cmp	r5, r4
 80059f0:	d105      	bne.n	80059fe <writet+0x1e>
 80059f2:	3030      	adds	r0, #48	; 0x30
 80059f4:	b003      	add	sp, #12
 80059f6:	e8bd 4030 	ldmia.w	sp!, {r4, r5, lr}
 80059fa:	f7fe bef1 	b.w	80047e0 <chOQWriteTimeout>
 80059fe:	f7fb fc87 	bl	8001310 <__stack_chk_fail>
 8005a02:	bf00      	nop
 8005a04:	2000081c 	.word	0x2000081c
	...

08005a10 <write>:
 8005a10:	b510      	push	{r4, lr}
 8005a12:	4b09      	ldr	r3, [pc, #36]	; (8005a38 <write+0x28>)
 8005a14:	b082      	sub	sp, #8
 8005a16:	681c      	ldr	r4, [r3, #0]
 8005a18:	9401      	str	r4, [sp, #4]
 8005a1a:	9c01      	ldr	r4, [sp, #4]
 8005a1c:	681b      	ldr	r3, [r3, #0]
 8005a1e:	429c      	cmp	r4, r3
 8005a20:	d107      	bne.n	8005a32 <write+0x22>
 8005a22:	3030      	adds	r0, #48	; 0x30
 8005a24:	f04f 33ff 	mov.w	r3, #4294967295
 8005a28:	b002      	add	sp, #8
 8005a2a:	e8bd 4010 	ldmia.w	sp!, {r4, lr}
 8005a2e:	f7fe bed7 	b.w	80047e0 <chOQWriteTimeout>
 8005a32:	f7fb fc6d 	bl	8001310 <__stack_chk_fail>
 8005a36:	bf00      	nop
 8005a38:	2000081c 	.word	0x2000081c
 8005a3c:	00000000 	.word	0x00000000

08005a40 <gett>:
 8005a40:	b500      	push	{lr}
 8005a42:	4b08      	ldr	r3, [pc, #32]	; (8005a64 <gett+0x24>)
 8005a44:	b083      	sub	sp, #12
 8005a46:	681a      	ldr	r2, [r3, #0]
 8005a48:	9201      	str	r2, [sp, #4]
 8005a4a:	9a01      	ldr	r2, [sp, #4]
 8005a4c:	681b      	ldr	r3, [r3, #0]
 8005a4e:	429a      	cmp	r2, r3
 8005a50:	d105      	bne.n	8005a5e <gett+0x1e>
 8005a52:	300c      	adds	r0, #12
 8005a54:	b003      	add	sp, #12
 8005a56:	f85d eb04 	ldr.w	lr, [sp], #4
 8005a5a:	f7fe bd39 	b.w	80044d0 <chIQGetTimeout>
 8005a5e:	f7fb fc57 	bl	8001310 <__stack_chk_fail>
 8005a62:	bf00      	nop
 8005a64:	2000081c 	.word	0x2000081c
	...

08005a70 <get>:
 8005a70:	b500      	push	{lr}
 8005a72:	4b09      	ldr	r3, [pc, #36]	; (8005a98 <get+0x28>)
 8005a74:	b083      	sub	sp, #12
 8005a76:	681a      	ldr	r2, [r3, #0]
 8005a78:	9201      	str	r2, [sp, #4]
 8005a7a:	9a01      	ldr	r2, [sp, #4]
 8005a7c:	681b      	ldr	r3, [r3, #0]
 8005a7e:	429a      	cmp	r2, r3
 8005a80:	d107      	bne.n	8005a92 <get+0x22>
 8005a82:	300c      	adds	r0, #12
 8005a84:	f04f 31ff 	mov.w	r1, #4294967295
 8005a88:	b003      	add	sp, #12
 8005a8a:	f85d eb04 	ldr.w	lr, [sp], #4
 8005a8e:	f7fe bd1f 	b.w	80044d0 <chIQGetTimeout>
 8005a92:	f7fb fc3d 	bl	8001310 <__stack_chk_fail>
 8005a96:	bf00      	nop
 8005a98:	2000081c 	.word	0x2000081c
 8005a9c:	00000000 	.word	0x00000000

08005aa0 <putt>:
 8005aa0:	b510      	push	{r4, lr}
 8005aa2:	4b08      	ldr	r3, [pc, #32]	; (8005ac4 <putt+0x24>)
 8005aa4:	b082      	sub	sp, #8
 8005aa6:	681c      	ldr	r4, [r3, #0]
 8005aa8:	9401      	str	r4, [sp, #4]
 8005aaa:	9c01      	ldr	r4, [sp, #4]
 8005aac:	681b      	ldr	r3, [r3, #0]
 8005aae:	429c      	cmp	r4, r3
 8005ab0:	d105      	bne.n	8005abe <putt+0x1e>
 8005ab2:	3030      	adds	r0, #48	; 0x30
 8005ab4:	b002      	add	sp, #8
 8005ab6:	e8bd 4010 	ldmia.w	sp!, {r4, lr}
 8005aba:	f7fe bdf9 	b.w	80046b0 <chOQPutTimeout>
 8005abe:	f7fb fc27 	bl	8001310 <__stack_chk_fail>
 8005ac2:	bf00      	nop
 8005ac4:	2000081c 	.word	0x2000081c
	...

08005ad0 <put>:
 8005ad0:	b500      	push	{lr}
 8005ad2:	4b09      	ldr	r3, [pc, #36]	; (8005af8 <put+0x28>)
 8005ad4:	b083      	sub	sp, #12
 8005ad6:	681a      	ldr	r2, [r3, #0]
 8005ad8:	9201      	str	r2, [sp, #4]
 8005ada:	9a01      	ldr	r2, [sp, #4]
 8005adc:	681b      	ldr	r3, [r3, #0]
 8005ade:	429a      	cmp	r2, r3
 8005ae0:	d107      	bne.n	8005af2 <put+0x22>
 8005ae2:	3030      	adds	r0, #48	; 0x30
 8005ae4:	f04f 32ff 	mov.w	r2, #4294967295
 8005ae8:	b003      	add	sp, #12
 8005aea:	f85d eb04 	ldr.w	lr, [sp], #4
 8005aee:	f7fe bddf 	b.w	80046b0 <chOQPutTimeout>
 8005af2:	f7fb fc0d 	bl	8001310 <__stack_chk_fail>
 8005af6:	bf00      	nop
 8005af8:	2000081c 	.word	0x2000081c
 8005afc:	00000000 	.word	0x00000000

08005b00 <sdInit>:
 8005b00:	b500      	push	{lr}
 8005b02:	4b07      	ldr	r3, [pc, #28]	; (8005b20 <sdInit+0x20>)
 8005b04:	b083      	sub	sp, #12
 8005b06:	681a      	ldr	r2, [r3, #0]
 8005b08:	9201      	str	r2, [sp, #4]
 8005b0a:	9a01      	ldr	r2, [sp, #4]
 8005b0c:	681b      	ldr	r3, [r3, #0]
 8005b0e:	429a      	cmp	r2, r3
 8005b10:	d104      	bne.n	8005b1c <sdInit+0x1c>
 8005b12:	b003      	add	sp, #12
 8005b14:	f85d eb04 	ldr.w	lr, [sp], #4
 8005b18:	f003 bf42 	b.w	80099a0 <sd_lld_init>
 8005b1c:	f7fb fbf8 	bl	8001310 <__stack_chk_fail>
 8005b20:	2000081c 	.word	0x2000081c
	...

08005b30 <sdObjectInit>:
 8005b30:	b5f0      	push	{r4, r5, r6, r7, lr}
 8005b32:	4d14      	ldr	r5, [pc, #80]	; (8005b84 <sdObjectInit+0x54>)
 8005b34:	4b14      	ldr	r3, [pc, #80]	; (8005b88 <sdObjectInit+0x58>)
 8005b36:	682f      	ldr	r7, [r5, #0]
 8005b38:	4604      	mov	r4, r0
 8005b3a:	b085      	sub	sp, #20
 8005b3c:	f840 3b04 	str.w	r3, [r0], #4
 8005b40:	f04f 0c01 	mov.w	ip, #1
 8005b44:	9400      	str	r4, [sp, #0]
 8005b46:	460b      	mov	r3, r1
 8005b48:	4616      	mov	r6, r2
 8005b4a:	6060      	str	r0, [r4, #4]
 8005b4c:	f884 c008 	strb.w	ip, [r4, #8]
 8005b50:	f104 0154 	add.w	r1, r4, #84	; 0x54
 8005b54:	f104 000c 	add.w	r0, r4, #12
 8005b58:	2210      	movs	r2, #16
 8005b5a:	9703      	str	r7, [sp, #12]
 8005b5c:	f7fe fc68 	bl	8004430 <chIQObjectInit>
 8005b60:	4633      	mov	r3, r6
 8005b62:	2210      	movs	r2, #16
 8005b64:	9400      	str	r4, [sp, #0]
 8005b66:	f104 0164 	add.w	r1, r4, #100	; 0x64
 8005b6a:	f104 0030 	add.w	r0, r4, #48	; 0x30
 8005b6e:	f7fe fd7f 	bl	8004670 <chOQObjectInit>
 8005b72:	9a03      	ldr	r2, [sp, #12]
 8005b74:	682b      	ldr	r3, [r5, #0]
 8005b76:	429a      	cmp	r2, r3
 8005b78:	d101      	bne.n	8005b7e <sdObjectInit+0x4e>
 8005b7a:	b005      	add	sp, #20
 8005b7c:	bdf0      	pop	{r4, r5, r6, r7, pc}
 8005b7e:	f7fb fbc7 	bl	8001310 <__stack_chk_fail>
 8005b82:	bf00      	nop
 8005b84:	2000081c 	.word	0x2000081c
 8005b88:	0800dab0 	.word	0x0800dab0
 8005b8c:	00000000 	.word	0x00000000

08005b90 <sdStart>:
 8005b90:	b570      	push	{r4, r5, r6, lr}
 8005b92:	4d1d      	ldr	r5, [pc, #116]	; (8005c08 <sdStart+0x78>)
 8005b94:	b082      	sub	sp, #8
 8005b96:	682b      	ldr	r3, [r5, #0]
 8005b98:	9301      	str	r3, [sp, #4]
 8005b9a:	460e      	mov	r6, r1
 8005b9c:	4604      	mov	r4, r0
 8005b9e:	b368      	cbz	r0, 8005bfc <sdStart+0x6c>
 8005ba0:	2320      	movs	r3, #32
 8005ba2:	f383 8811 	msr	BASEPRI, r3
 8005ba6:	f7fe f933 	bl	8003e10 <_stats_start_measure_crit_thd>
 8005baa:	f7fd f8c1 	bl	8002d30 <_dbg_check_lock>
 8005bae:	7a23      	ldrb	r3, [r4, #8]
 8005bb0:	3b01      	subs	r3, #1
 8005bb2:	2b01      	cmp	r3, #1
 8005bb4:	d902      	bls.n	8005bbc <sdStart+0x2c>
 8005bb6:	4815      	ldr	r0, [pc, #84]	; (8005c0c <sdStart+0x7c>)
 8005bb8:	f7fd f81a 	bl	8002bf0 <chSysHalt>
 8005bbc:	4631      	mov	r1, r6
 8005bbe:	4620      	mov	r0, r4
 8005bc0:	f003 ff0e 	bl	80099e0 <sd_lld_start>
 8005bc4:	2302      	movs	r3, #2
 8005bc6:	7223      	strb	r3, [r4, #8]
 8005bc8:	f7fd f8d2 	bl	8002d70 <_dbg_check_unlock>
 8005bcc:	f7fe f938 	bl	8003e40 <_stats_stop_measure_crit_thd>
 8005bd0:	4b0f      	ldr	r3, [pc, #60]	; (8005c10 <sdStart+0x80>)
 8005bd2:	681a      	ldr	r2, [r3, #0]
 8005bd4:	429a      	cmp	r2, r3
 8005bd6:	d004      	beq.n	8005be2 <sdStart+0x52>
 8005bd8:	6999      	ldr	r1, [r3, #24]
 8005bda:	6893      	ldr	r3, [r2, #8]
 8005bdc:	688a      	ldr	r2, [r1, #8]
 8005bde:	429a      	cmp	r2, r3
 8005be0:	d308      	bcc.n	8005bf4 <sdStart+0x64>
 8005be2:	2300      	movs	r3, #0
 8005be4:	f383 8811 	msr	BASEPRI, r3
 8005be8:	9a01      	ldr	r2, [sp, #4]
 8005bea:	682b      	ldr	r3, [r5, #0]
 8005bec:	429a      	cmp	r2, r3
 8005bee:	d109      	bne.n	8005c04 <sdStart+0x74>
 8005bf0:	b002      	add	sp, #8
 8005bf2:	bd70      	pop	{r4, r5, r6, pc}
 8005bf4:	4807      	ldr	r0, [pc, #28]	; (8005c14 <sdStart+0x84>)
 8005bf6:	f7fc fffb 	bl	8002bf0 <chSysHalt>
 8005bfa:	e7f2      	b.n	8005be2 <sdStart+0x52>
 8005bfc:	4803      	ldr	r0, [pc, #12]	; (8005c0c <sdStart+0x7c>)
 8005bfe:	f7fc fff7 	bl	8002bf0 <chSysHalt>
 8005c02:	e7cd      	b.n	8005ba0 <sdStart+0x10>
 8005c04:	f7fb fb84 	bl	8001310 <__stack_chk_fail>
 8005c08:	2000081c 	.word	0x2000081c
 8005c0c:	0800da90 	.word	0x0800da90
 8005c10:	200018b0 	.word	0x200018b0
 8005c14:	0800da80 	.word	0x0800da80
	...

08005c20 <sdIncomingDataI>:
 8005c20:	b570      	push	{r4, r5, r6, lr}
 8005c22:	4d17      	ldr	r5, [pc, #92]	; (8005c80 <sdIncomingDataI+0x60>)
 8005c24:	b082      	sub	sp, #8
 8005c26:	4604      	mov	r4, r0
 8005c28:	682b      	ldr	r3, [r5, #0]
 8005c2a:	9301      	str	r3, [sp, #4]
 8005c2c:	460e      	mov	r6, r1
 8005c2e:	f7fd f94f 	bl	8002ed0 <chDbgCheckClassI>
 8005c32:	b1f4      	cbz	r4, 8005c72 <sdIncomingDataI+0x52>
 8005c34:	f7fd f94c 	bl	8002ed0 <chDbgCheckClassI>
 8005c38:	6963      	ldr	r3, [r4, #20]
 8005c3a:	b163      	cbz	r3, 8005c56 <sdIncomingDataI+0x36>
 8005c3c:	4631      	mov	r1, r6
 8005c3e:	f104 000c 	add.w	r0, r4, #12
 8005c42:	f7fe fc15 	bl	8004470 <chIQPutI>
 8005c46:	2800      	cmp	r0, #0
 8005c48:	9a01      	ldr	r2, [sp, #4]
 8005c4a:	682b      	ldr	r3, [r5, #0]
 8005c4c:	db08      	blt.n	8005c60 <sdIncomingDataI+0x40>
 8005c4e:	429a      	cmp	r2, r3
 8005c50:	d113      	bne.n	8005c7a <sdIncomingDataI+0x5a>
 8005c52:	b002      	add	sp, #8
 8005c54:	bd70      	pop	{r4, r5, r6, pc}
 8005c56:	2104      	movs	r1, #4
 8005c58:	1860      	adds	r0, r4, r1
 8005c5a:	f7fe fbb9 	bl	80043d0 <chEvtBroadcastFlagsI>
 8005c5e:	e7ed      	b.n	8005c3c <sdIncomingDataI+0x1c>
 8005c60:	429a      	cmp	r2, r3
 8005c62:	d10a      	bne.n	8005c7a <sdIncomingDataI+0x5a>
 8005c64:	1d20      	adds	r0, r4, #4
 8005c66:	2180      	movs	r1, #128	; 0x80
 8005c68:	b002      	add	sp, #8
 8005c6a:	e8bd 4070 	ldmia.w	sp!, {r4, r5, r6, lr}
 8005c6e:	f7fe bbaf 	b.w	80043d0 <chEvtBroadcastFlagsI>
 8005c72:	4804      	ldr	r0, [pc, #16]	; (8005c84 <sdIncomingDataI+0x64>)
 8005c74:	f7fc ffbc 	bl	8002bf0 <chSysHalt>
 8005c78:	e7dc      	b.n	8005c34 <sdIncomingDataI+0x14>
 8005c7a:	f7fb fb49 	bl	8001310 <__stack_chk_fail>
 8005c7e:	bf00      	nop
 8005c80:	2000081c 	.word	0x2000081c
 8005c84:	0800daa0 	.word	0x0800daa0
	...

08005c90 <sduInit>:
 8005c90:	b500      	push	{lr}
 8005c92:	4b06      	ldr	r3, [pc, #24]	; (8005cac <sduInit+0x1c>)
 8005c94:	b083      	sub	sp, #12
 8005c96:	681a      	ldr	r2, [r3, #0]
 8005c98:	9201      	str	r2, [sp, #4]
 8005c9a:	9a01      	ldr	r2, [sp, #4]
 8005c9c:	681b      	ldr	r3, [r3, #0]
 8005c9e:	429a      	cmp	r2, r3
 8005ca0:	d102      	bne.n	8005ca8 <sduInit+0x18>
 8005ca2:	b003      	add	sp, #12
 8005ca4:	f85d fb04 	ldr.w	pc, [sp], #4
 8005ca8:	f7fb fb32 	bl	8001310 <__stack_chk_fail>
 8005cac:	2000081c 	.word	0x2000081c

08005cb0 <spiInit>:
 8005cb0:	b500      	push	{lr}
 8005cb2:	4b07      	ldr	r3, [pc, #28]	; (8005cd0 <spiInit+0x20>)
 8005cb4:	b083      	sub	sp, #12
 8005cb6:	681a      	ldr	r2, [r3, #0]
 8005cb8:	9201      	str	r2, [sp, #4]
 8005cba:	9a01      	ldr	r2, [sp, #4]
 8005cbc:	681b      	ldr	r3, [r3, #0]
 8005cbe:	429a      	cmp	r2, r3
 8005cc0:	d104      	bne.n	8005ccc <spiInit+0x1c>
 8005cc2:	b003      	add	sp, #12
 8005cc4:	f85d eb04 	ldr.w	lr, [sp], #4
 8005cc8:	f003 bb82 	b.w	80093d0 <spi_lld_init>
 8005ccc:	f7fb fb20 	bl	8001310 <__stack_chk_fail>
 8005cd0:	2000081c 	.word	0x2000081c
	...

08005ce0 <spiObjectInit>:
 8005ce0:	b510      	push	{r4, lr}
 8005ce2:	4b0a      	ldr	r3, [pc, #40]	; (8005d0c <spiObjectInit+0x2c>)
 8005ce4:	b082      	sub	sp, #8
 8005ce6:	681a      	ldr	r2, [r3, #0]
 8005ce8:	9201      	str	r2, [sp, #4]
 8005cea:	9901      	ldr	r1, [sp, #4]
 8005cec:	681a      	ldr	r2, [r3, #0]
 8005cee:	2401      	movs	r4, #1
 8005cf0:	2300      	movs	r3, #0
 8005cf2:	4291      	cmp	r1, r2
 8005cf4:	7004      	strb	r4, [r0, #0]
 8005cf6:	e9c0 3301 	strd	r3, r3, [r0, #4]
 8005cfa:	d105      	bne.n	8005d08 <spiObjectInit+0x28>
 8005cfc:	300c      	adds	r0, #12
 8005cfe:	b002      	add	sp, #8
 8005d00:	e8bd 4010 	ldmia.w	sp!, {r4, lr}
 8005d04:	f7fe b8e4 	b.w	8003ed0 <chMtxObjectInit>
 8005d08:	f7fb fb02 	bl	8001310 <__stack_chk_fail>
 8005d0c:	2000081c 	.word	0x2000081c

08005d10 <stInit>:
 8005d10:	b500      	push	{lr}
 8005d12:	4b07      	ldr	r3, [pc, #28]	; (8005d30 <stInit+0x20>)
 8005d14:	b083      	sub	sp, #12
 8005d16:	681a      	ldr	r2, [r3, #0]
 8005d18:	9201      	str	r2, [sp, #4]
 8005d1a:	9a01      	ldr	r2, [sp, #4]
 8005d1c:	681b      	ldr	r3, [r3, #0]
 8005d1e:	429a      	cmp	r2, r3
 8005d20:	d104      	bne.n	8005d2c <stInit+0x1c>
 8005d22:	b003      	add	sp, #12
 8005d24:	f85d eb04 	ldr.w	lr, [sp], #4
 8005d28:	f003 bd32 	b.w	8009790 <st_lld_init>
 8005d2c:	f7fb faf0 	bl	8001310 <__stack_chk_fail>
 8005d30:	2000081c 	.word	0x2000081c
	...

08005d40 <usbInit>:
 8005d40:	b500      	push	{lr}
 8005d42:	4b07      	ldr	r3, [pc, #28]	; (8005d60 <usbInit+0x20>)
 8005d44:	b083      	sub	sp, #12
 8005d46:	681a      	ldr	r2, [r3, #0]
 8005d48:	9201      	str	r2, [sp, #4]
 8005d4a:	9a01      	ldr	r2, [sp, #4]
 8005d4c:	681b      	ldr	r3, [r3, #0]
 8005d4e:	429a      	cmp	r2, r3
 8005d50:	d104      	bne.n	8005d5c <usbInit+0x1c>
 8005d52:	b003      	add	sp, #12
 8005d54:	f85d eb04 	ldr.w	lr, [sp], #4
 8005d58:	f002 bf42 	b.w	8008be0 <usb_lld_init>
 8005d5c:	f7fb fad8 	bl	8001310 <__stack_chk_fail>
 8005d60:	2000081c 	.word	0x2000081c
	...

08005d70 <usbObjectInit>:
 8005d70:	b510      	push	{r4, lr}
 8005d72:	4b0b      	ldr	r3, [pc, #44]	; (8005da0 <usbObjectInit+0x30>)
 8005d74:	b082      	sub	sp, #8
 8005d76:	681a      	ldr	r2, [r3, #0]
 8005d78:	9201      	str	r2, [sp, #4]
 8005d7a:	9901      	ldr	r1, [sp, #4]
 8005d7c:	681a      	ldr	r2, [r3, #0]
 8005d7e:	2401      	movs	r4, #1
 8005d80:	2300      	movs	r3, #0
 8005d82:	4291      	cmp	r1, r2
 8005d84:	7004      	strb	r4, [r0, #0]
 8005d86:	61c3      	str	r3, [r0, #28]
 8005d88:	6283      	str	r3, [r0, #40]	; 0x28
 8005d8a:	6203      	str	r3, [r0, #32]
 8005d8c:	62c3      	str	r3, [r0, #44]	; 0x2c
 8005d8e:	6243      	str	r3, [r0, #36]	; 0x24
 8005d90:	6303      	str	r3, [r0, #48]	; 0x30
 8005d92:	e9c0 3301 	strd	r3, r3, [r0, #4]
 8005d96:	d101      	bne.n	8005d9c <usbObjectInit+0x2c>
 8005d98:	b002      	add	sp, #8
 8005d9a:	bd10      	pop	{r4, pc}
 8005d9c:	f7fb fab8 	bl	8001310 <__stack_chk_fail>
 8005da0:	2000081c 	.word	0x2000081c
	...

08005db0 <usbStartReceiveI>:
 8005db0:	b5f0      	push	{r4, r5, r6, r7, lr}
 8005db2:	4d12      	ldr	r5, [pc, #72]	; (8005dfc <usbStartReceiveI+0x4c>)
 8005db4:	b083      	sub	sp, #12
 8005db6:	4604      	mov	r4, r0
 8005db8:	682b      	ldr	r3, [r5, #0]
 8005dba:	9301      	str	r3, [sp, #4]
 8005dbc:	460e      	mov	r6, r1
 8005dbe:	f7fd f887 	bl	8002ed0 <chDbgCheckClassI>
 8005dc2:	b1a4      	cbz	r4, 8005dee <usbStartReceiveI+0x3e>
 8005dc4:	2001      	movs	r0, #1
 8005dc6:	fa00 f306 	lsl.w	r3, r0, r6
 8005dca:	8962      	ldrh	r2, [r4, #10]
 8005dcc:	b29b      	uxth	r3, r3
 8005dce:	ea12 0703 	ands.w	r7, r2, r3
 8005dd2:	d106      	bne.n	8005de2 <usbStartReceiveI+0x32>
 8005dd4:	4313      	orrs	r3, r2
 8005dd6:	4620      	mov	r0, r4
 8005dd8:	8163      	strh	r3, [r4, #10]
 8005dda:	4631      	mov	r1, r6
 8005ddc:	f003 fa10 	bl	8009200 <usb_lld_start_out>
 8005de0:	4638      	mov	r0, r7
 8005de2:	9a01      	ldr	r2, [sp, #4]
 8005de4:	682b      	ldr	r3, [r5, #0]
 8005de6:	429a      	cmp	r2, r3
 8005de8:	d105      	bne.n	8005df6 <usbStartReceiveI+0x46>
 8005dea:	b003      	add	sp, #12
 8005dec:	bdf0      	pop	{r4, r5, r6, r7, pc}
 8005dee:	4804      	ldr	r0, [pc, #16]	; (8005e00 <usbStartReceiveI+0x50>)
 8005df0:	f7fc fefe 	bl	8002bf0 <chSysHalt>
 8005df4:	e7e6      	b.n	8005dc4 <usbStartReceiveI+0x14>
 8005df6:	f7fb fa8b 	bl	8001310 <__stack_chk_fail>
 8005dfa:	bf00      	nop
 8005dfc:	2000081c 	.word	0x2000081c
 8005e00:	0800dad0 	.word	0x0800dad0
	...

08005e10 <usbStartTransmitI>:
 8005e10:	b5f0      	push	{r4, r5, r6, r7, lr}
 8005e12:	4d12      	ldr	r5, [pc, #72]	; (8005e5c <usbStartTransmitI+0x4c>)
 8005e14:	b083      	sub	sp, #12
 8005e16:	4604      	mov	r4, r0
 8005e18:	682b      	ldr	r3, [r5, #0]
 8005e1a:	9301      	str	r3, [sp, #4]
 8005e1c:	460e      	mov	r6, r1
 8005e1e:	f7fd f857 	bl	8002ed0 <chDbgCheckClassI>
 8005e22:	b1a4      	cbz	r4, 8005e4e <usbStartTransmitI+0x3e>
 8005e24:	2001      	movs	r0, #1
 8005e26:	fa00 f306 	lsl.w	r3, r0, r6
 8005e2a:	8922      	ldrh	r2, [r4, #8]
 8005e2c:	b29b      	uxth	r3, r3
 8005e2e:	ea12 0703 	ands.w	r7, r2, r3
 8005e32:	d106      	bne.n	8005e42 <usbStartTransmitI+0x32>
 8005e34:	4313      	orrs	r3, r2
 8005e36:	4620      	mov	r0, r4
 8005e38:	8123      	strh	r3, [r4, #8]
 8005e3a:	4631      	mov	r1, r6
 8005e3c:	f003 fa00 	bl	8009240 <usb_lld_start_in>
 8005e40:	4638      	mov	r0, r7
 8005e42:	9a01      	ldr	r2, [sp, #4]
 8005e44:	682b      	ldr	r3, [r5, #0]
 8005e46:	429a      	cmp	r2, r3
 8005e48:	d105      	bne.n	8005e56 <usbStartTransmitI+0x46>
 8005e4a:	b003      	add	sp, #12
 8005e4c:	bdf0      	pop	{r4, r5, r6, r7, pc}
 8005e4e:	4804      	ldr	r0, [pc, #16]	; (8005e60 <usbStartTransmitI+0x50>)
 8005e50:	f7fc fece 	bl	8002bf0 <chSysHalt>
 8005e54:	e7e6      	b.n	8005e24 <usbStartTransmitI+0x14>
 8005e56:	f7fb fa5b 	bl	8001310 <__stack_chk_fail>
 8005e5a:	bf00      	nop
 8005e5c:	2000081c 	.word	0x2000081c
 8005e60:	0800daf0 	.word	0x0800daf0
	...

08005e70 <_usb_reset>:
 8005e70:	b530      	push	{r4, r5, lr}
 8005e72:	4b0d      	ldr	r3, [pc, #52]	; (8005ea8 <_usb_reset+0x38>)
 8005e74:	b083      	sub	sp, #12
 8005e76:	681a      	ldr	r2, [r3, #0]
 8005e78:	9201      	str	r2, [sp, #4]
 8005e7a:	9c01      	ldr	r4, [sp, #4]
 8005e7c:	6819      	ldr	r1, [r3, #0]
 8005e7e:	2200      	movs	r2, #0
 8005e80:	2502      	movs	r5, #2
 8005e82:	428c      	cmp	r4, r1
 8005e84:	7005      	strb	r5, [r0, #0]
 8005e86:	64c2      	str	r2, [r0, #76]	; 0x4c
 8005e88:	e9c0 2202 	strd	r2, r2, [r0, #8]
 8005e8c:	e9c0 2204 	strd	r2, r2, [r0, #16]
 8005e90:	6182      	str	r2, [r0, #24]
 8005e92:	f880 2034 	strb.w	r2, [r0, #52]	; 0x34
 8005e96:	d104      	bne.n	8005ea2 <_usb_reset+0x32>
 8005e98:	b003      	add	sp, #12
 8005e9a:	e8bd 4030 	ldmia.w	sp!, {r4, r5, lr}
 8005e9e:	f002 becf 	b.w	8008c40 <usb_lld_reset>
 8005ea2:	f7fb fa35 	bl	8001310 <__stack_chk_fail>
 8005ea6:	bf00      	nop
 8005ea8:	2000081c 	.word	0x2000081c
 8005eac:	00000000 	.word	0x00000000

08005eb0 <_usb_ep0setup>:
 8005eb0:	b5f0      	push	{r4, r5, r6, r7, lr}
 8005eb2:	4dc5      	ldr	r5, [pc, #788]	; (80061c8 <_usb_ep0setup+0x318>)
 8005eb4:	b083      	sub	sp, #12
 8005eb6:	4604      	mov	r4, r0
 8005eb8:	2200      	movs	r2, #0
 8005eba:	682b      	ldr	r3, [r5, #0]
 8005ebc:	f880 2034 	strb.w	r2, [r0, #52]	; 0x34
 8005ec0:	f100 0244 	add.w	r2, r0, #68	; 0x44
 8005ec4:	9301      	str	r3, [sp, #4]
 8005ec6:	f002 ff93 	bl	8008df0 <usb_lld_read_setup>
 8005eca:	6863      	ldr	r3, [r4, #4]
 8005ecc:	689b      	ldr	r3, [r3, #8]
 8005ece:	2b00      	cmp	r3, #0
 8005ed0:	d036      	beq.n	8005f40 <_usb_ep0setup+0x90>
 8005ed2:	4620      	mov	r0, r4
 8005ed4:	4798      	blx	r3
 8005ed6:	b398      	cbz	r0, 8005f40 <_usb_ep0setup+0x90>
 8005ed8:	6be1      	ldr	r1, [r4, #60]	; 0x3c
 8005eda:	f894 3044 	ldrb.w	r3, [r4, #68]	; 0x44
 8005ede:	f894 004b 	ldrb.w	r0, [r4, #75]	; 0x4b
 8005ee2:	f894 204a 	ldrb.w	r2, [r4, #74]	; 0x4a
 8005ee6:	ea42 2200 	orr.w	r2, r2, r0, lsl #8
 8005eea:	428a      	cmp	r2, r1
 8005eec:	bf2c      	ite	cs
 8005eee:	460a      	movcs	r2, r1
 8005ef0:	63e2      	strcc	r2, [r4, #60]	; 0x3c
 8005ef2:	0618      	lsls	r0, r3, #24
 8005ef4:	68e1      	ldr	r1, [r4, #12]
 8005ef6:	f100 80a6 	bmi.w	8006046 <_usb_ep0setup+0x196>
 8005efa:	2a00      	cmp	r2, #0
 8005efc:	f000 8084 	beq.w	8006008 <_usb_ep0setup+0x158>
 8005f00:	698b      	ldr	r3, [r1, #24]
 8005f02:	6ba1      	ldr	r1, [r4, #56]	; 0x38
 8005f04:	2600      	movs	r6, #0
 8005f06:	2004      	movs	r0, #4
 8005f08:	f884 0034 	strb.w	r0, [r4, #52]	; 0x34
 8005f0c:	60d9      	str	r1, [r3, #12]
 8005f0e:	605a      	str	r2, [r3, #4]
 8005f10:	701e      	strb	r6, [r3, #0]
 8005f12:	609e      	str	r6, [r3, #8]
 8005f14:	4631      	mov	r1, r6
 8005f16:	4620      	mov	r0, r4
 8005f18:	f002 ff82 	bl	8008e20 <usb_lld_prepare_receive>
 8005f1c:	2320      	movs	r3, #32
 8005f1e:	f383 8811 	msr	BASEPRI, r3
 8005f22:	f7fd ffa5 	bl	8003e70 <_stats_start_measure_crit_isr>
 8005f26:	f7fc ff43 	bl	8002db0 <_dbg_check_lock_from_isr>
 8005f2a:	4631      	mov	r1, r6
 8005f2c:	4620      	mov	r0, r4
 8005f2e:	f7ff ff3f 	bl	8005db0 <usbStartReceiveI>
 8005f32:	f7fc ff5d 	bl	8002df0 <_dbg_check_unlock_from_isr>
 8005f36:	f7fd ffb3 	bl	8003ea0 <_stats_stop_measure_crit_isr>
 8005f3a:	f386 8811 	msr	BASEPRI, r6
 8005f3e:	e016      	b.n	8005f6e <_usb_ep0setup+0xbe>
 8005f40:	f894 3044 	ldrb.w	r3, [r4, #68]	; 0x44
 8005f44:	f013 0660 	ands.w	r6, r3, #96	; 0x60
 8005f48:	4618      	mov	r0, r3
 8005f4a:	d017      	beq.n	8005f7c <_usb_ep0setup+0xcc>
 8005f4c:	2100      	movs	r1, #0
 8005f4e:	4620      	mov	r0, r4
 8005f50:	f003 f9b6 	bl	80092c0 <usb_lld_stall_in>
 8005f54:	2100      	movs	r1, #0
 8005f56:	4620      	mov	r0, r4
 8005f58:	f003 f992 	bl	8009280 <usb_lld_stall_out>
 8005f5c:	6863      	ldr	r3, [r4, #4]
 8005f5e:	681b      	ldr	r3, [r3, #0]
 8005f60:	b113      	cbz	r3, 8005f68 <_usb_ep0setup+0xb8>
 8005f62:	2105      	movs	r1, #5
 8005f64:	4620      	mov	r0, r4
 8005f66:	4798      	blx	r3
 8005f68:	2306      	movs	r3, #6
 8005f6a:	f884 3034 	strb.w	r3, [r4, #52]	; 0x34
 8005f6e:	9a01      	ldr	r2, [sp, #4]
 8005f70:	682b      	ldr	r3, [r5, #0]
 8005f72:	429a      	cmp	r2, r3
 8005f74:	f040 813e 	bne.w	80061f4 <_usb_ep0setup+0x344>
 8005f78:	b003      	add	sp, #12
 8005f7a:	bdf0      	pop	{r4, r5, r6, r7, pc}
 8005f7c:	f894 1045 	ldrb.w	r1, [r4, #69]	; 0x45
 8005f80:	f003 027f 	and.w	r2, r3, #127	; 0x7f
 8005f84:	ea42 2201 	orr.w	r2, r2, r1, lsl #8
 8005f88:	f5b2 7f40 	cmp.w	r2, #768	; 0x300
 8005f8c:	f000 8109 	beq.w	80061a2 <_usb_ep0setup+0x2f2>
 8005f90:	d917      	bls.n	8005fc2 <_usb_ep0setup+0x112>
 8005f92:	f5b2 6fc0 	cmp.w	r2, #1536	; 0x600
 8005f96:	f000 80ca 	beq.w	800612e <_usb_ep0setup+0x27e>
 8005f9a:	f240 808e 	bls.w	80060ba <_usb_ep0setup+0x20a>
 8005f9e:	f5b2 6f10 	cmp.w	r2, #2304	; 0x900
 8005fa2:	d068      	beq.n	8006076 <_usb_ep0setup+0x1c6>
 8005fa4:	f640 4102 	movw	r1, #3074	; 0xc02
 8005fa8:	428a      	cmp	r2, r1
 8005faa:	f000 80dc 	beq.w	8006166 <_usb_ep0setup+0x2b6>
 8005fae:	f5b2 6f00 	cmp.w	r2, #2048	; 0x800
 8005fb2:	d1cb      	bne.n	8005f4c <_usb_ep0setup+0x9c>
 8005fb4:	f104 024f 	add.w	r2, r4, #79	; 0x4f
 8005fb8:	2101      	movs	r1, #1
 8005fba:	6426      	str	r6, [r4, #64]	; 0x40
 8005fbc:	e9c4 210e 	strd	r2, r1, [r4, #56]	; 0x38
 8005fc0:	e78d      	b.n	8005ede <_usb_ep0setup+0x2e>
 8005fc2:	2a02      	cmp	r2, #2
 8005fc4:	f000 80d6 	beq.w	8006174 <_usb_ep0setup+0x2c4>
 8005fc8:	f240 8096 	bls.w	80060f8 <_usb_ep0setup+0x248>
 8005fcc:	f5b2 7f80 	cmp.w	r2, #256	; 0x100
 8005fd0:	d064      	beq.n	800609c <_usb_ep0setup+0x1ec>
 8005fd2:	f5b2 7f81 	cmp.w	r2, #258	; 0x102
 8005fd6:	d1b9      	bne.n	8005f4c <_usb_ep0setup+0x9c>
 8005fd8:	f894 3046 	ldrb.w	r3, [r4, #70]	; 0x46
 8005fdc:	2b00      	cmp	r3, #0
 8005fde:	d1b5      	bne.n	8005f4c <_usb_ep0setup+0x9c>
 8005fe0:	f894 3048 	ldrb.w	r3, [r4, #72]	; 0x48
 8005fe4:	f013 010f 	ands.w	r1, r3, #15
 8005fe8:	d007      	beq.n	8005ffa <_usb_ep0setup+0x14a>
 8005fea:	061f      	lsls	r7, r3, #24
 8005fec:	4620      	mov	r0, r4
 8005fee:	f100 80f7 	bmi.w	80061e0 <_usb_ep0setup+0x330>
 8005ff2:	f003 f985 	bl	8009300 <usb_lld_clear_out>
 8005ff6:	f894 0044 	ldrb.w	r0, [r4, #68]	; 0x44
 8005ffa:	2300      	movs	r3, #0
 8005ffc:	e9c4 330e 	strd	r3, r3, [r4, #56]	; 0x38
 8006000:	6423      	str	r3, [r4, #64]	; 0x40
 8006002:	0603      	lsls	r3, r0, #24
 8006004:	68e1      	ldr	r1, [r4, #12]
 8006006:	d42b      	bmi.n	8006060 <_usb_ep0setup+0x1b0>
 8006008:	694b      	ldr	r3, [r1, #20]
 800600a:	2600      	movs	r6, #0
 800600c:	2205      	movs	r2, #5
 800600e:	f884 2034 	strb.w	r2, [r4, #52]	; 0x34
 8006012:	e9c3 6601 	strd	r6, r6, [r3, #4]
 8006016:	4631      	mov	r1, r6
 8006018:	701e      	strb	r6, [r3, #0]
 800601a:	60de      	str	r6, [r3, #12]
 800601c:	4620      	mov	r0, r4
 800601e:	f002 ff9f 	bl	8008f60 <usb_lld_prepare_transmit>
 8006022:	2320      	movs	r3, #32
 8006024:	f383 8811 	msr	BASEPRI, r3
 8006028:	f7fd ff22 	bl	8003e70 <_stats_start_measure_crit_isr>
 800602c:	f7fc fec0 	bl	8002db0 <_dbg_check_lock_from_isr>
 8006030:	4631      	mov	r1, r6
 8006032:	4620      	mov	r0, r4
 8006034:	f7ff feec 	bl	8005e10 <usbStartTransmitI>
 8006038:	f7fc feda 	bl	8002df0 <_dbg_check_unlock_from_isr>
 800603c:	f7fd ff30 	bl	8003ea0 <_stats_stop_measure_crit_isr>
 8006040:	f386 8811 	msr	BASEPRI, r6
 8006044:	e793      	b.n	8005f6e <_usb_ep0setup+0xbe>
 8006046:	b15a      	cbz	r2, 8006060 <_usb_ep0setup+0x1b0>
 8006048:	694b      	ldr	r3, [r1, #20]
 800604a:	6ba1      	ldr	r1, [r4, #56]	; 0x38
 800604c:	2600      	movs	r6, #0
 800604e:	2001      	movs	r0, #1
 8006050:	f884 0034 	strb.w	r0, [r4, #52]	; 0x34
 8006054:	60d9      	str	r1, [r3, #12]
 8006056:	605a      	str	r2, [r3, #4]
 8006058:	701e      	strb	r6, [r3, #0]
 800605a:	609e      	str	r6, [r3, #8]
 800605c:	4631      	mov	r1, r6
 800605e:	e7dd      	b.n	800601c <_usb_ep0setup+0x16c>
 8006060:	698b      	ldr	r3, [r1, #24]
 8006062:	2600      	movs	r6, #0
 8006064:	2203      	movs	r2, #3
 8006066:	f884 2034 	strb.w	r2, [r4, #52]	; 0x34
 800606a:	4631      	mov	r1, r6
 800606c:	701e      	strb	r6, [r3, #0]
 800606e:	60de      	str	r6, [r3, #12]
 8006070:	e9c3 6601 	strd	r6, r6, [r3, #4]
 8006074:	e74f      	b.n	8005f16 <_usb_ep0setup+0x66>
 8006076:	f894 3046 	ldrb.w	r3, [r4, #70]	; 0x46
 800607a:	f884 304f 	strb.w	r3, [r4, #79]	; 0x4f
 800607e:	2b00      	cmp	r3, #0
 8006080:	f040 809e 	bne.w	80061c0 <_usb_ep0setup+0x310>
 8006084:	2303      	movs	r3, #3
 8006086:	7023      	strb	r3, [r4, #0]
 8006088:	6863      	ldr	r3, [r4, #4]
 800608a:	681b      	ldr	r3, [r3, #0]
 800608c:	2b00      	cmp	r3, #0
 800608e:	d0b4      	beq.n	8005ffa <_usb_ep0setup+0x14a>
 8006090:	4620      	mov	r0, r4
 8006092:	2102      	movs	r1, #2
 8006094:	4798      	blx	r3
 8006096:	f894 0044 	ldrb.w	r0, [r4, #68]	; 0x44
 800609a:	e7ae      	b.n	8005ffa <_usb_ep0setup+0x14a>
 800609c:	f894 3046 	ldrb.w	r3, [r4, #70]	; 0x46
 80060a0:	2b01      	cmp	r3, #1
 80060a2:	f47f af53 	bne.w	8005f4c <_usb_ep0setup+0x9c>
 80060a6:	f8b4 304c 	ldrh.w	r3, [r4, #76]	; 0x4c
 80060aa:	63a6      	str	r6, [r4, #56]	; 0x38
 80060ac:	f023 0302 	bic.w	r3, r3, #2
 80060b0:	e9c4 660f 	strd	r6, r6, [r4, #60]	; 0x3c
 80060b4:	f8a4 304c 	strh.w	r3, [r4, #76]	; 0x4c
 80060b8:	e7a3      	b.n	8006002 <_usb_ep0setup+0x152>
 80060ba:	f240 3302 	movw	r3, #770	; 0x302
 80060be:	429a      	cmp	r2, r3
 80060c0:	d022      	beq.n	8006108 <_usb_ep0setup+0x258>
 80060c2:	f5b2 6fa0 	cmp.w	r2, #1280	; 0x500
 80060c6:	f47f af41 	bne.w	8005f4c <_usb_ep0setup+0x9c>
 80060ca:	f8b4 3044 	ldrh.w	r3, [r4, #68]	; 0x44
 80060ce:	f5b3 6fa0 	cmp.w	r3, #1280	; 0x500
 80060d2:	d192      	bne.n	8005ffa <_usb_ep0setup+0x14a>
 80060d4:	f894 3046 	ldrb.w	r3, [r4, #70]	; 0x46
 80060d8:	f884 304e 	strb.w	r3, [r4, #78]	; 0x4e
 80060dc:	4620      	mov	r0, r4
 80060de:	f002 fe27 	bl	8008d30 <usb_lld_set_address>
 80060e2:	6863      	ldr	r3, [r4, #4]
 80060e4:	681b      	ldr	r3, [r3, #0]
 80060e6:	b113      	cbz	r3, 80060ee <_usb_ep0setup+0x23e>
 80060e8:	2101      	movs	r1, #1
 80060ea:	4620      	mov	r0, r4
 80060ec:	4798      	blx	r3
 80060ee:	2303      	movs	r3, #3
 80060f0:	f894 0044 	ldrb.w	r0, [r4, #68]	; 0x44
 80060f4:	7023      	strb	r3, [r4, #0]
 80060f6:	e780      	b.n	8005ffa <_usb_ep0setup+0x14a>
 80060f8:	bb92      	cbnz	r2, 8006160 <_usb_ep0setup+0x2b0>
 80060fa:	f104 004c 	add.w	r0, r4, #76	; 0x4c
 80060fe:	2102      	movs	r1, #2
 8006100:	6422      	str	r2, [r4, #64]	; 0x40
 8006102:	e9c4 010e 	strd	r0, r1, [r4, #56]	; 0x38
 8006106:	e6ea      	b.n	8005ede <_usb_ep0setup+0x2e>
 8006108:	f894 3046 	ldrb.w	r3, [r4, #70]	; 0x46
 800610c:	2b00      	cmp	r3, #0
 800610e:	f47f af1d 	bne.w	8005f4c <_usb_ep0setup+0x9c>
 8006112:	f894 3048 	ldrb.w	r3, [r4, #72]	; 0x48
 8006116:	f013 010f 	ands.w	r1, r3, #15
 800611a:	f43f af6e 	beq.w	8005ffa <_usb_ep0setup+0x14a>
 800611e:	061e      	lsls	r6, r3, #24
 8006120:	4620      	mov	r0, r4
 8006122:	d462      	bmi.n	80061ea <_usb_ep0setup+0x33a>
 8006124:	f003 f8ac 	bl	8009280 <usb_lld_stall_out>
 8006128:	f894 0044 	ldrb.w	r0, [r4, #68]	; 0x44
 800612c:	e765      	b.n	8005ffa <_usb_ep0setup+0x14a>
 800612e:	f894 0049 	ldrb.w	r0, [r4, #73]	; 0x49
 8006132:	6861      	ldr	r1, [r4, #4]
 8006134:	f894 3048 	ldrb.w	r3, [r4, #72]	; 0x48
 8006138:	684f      	ldr	r7, [r1, #4]
 800613a:	f894 2046 	ldrb.w	r2, [r4, #70]	; 0x46
 800613e:	f894 1047 	ldrb.w	r1, [r4, #71]	; 0x47
 8006142:	ea43 2300 	orr.w	r3, r3, r0, lsl #8
 8006146:	4620      	mov	r0, r4
 8006148:	47b8      	blx	r7
 800614a:	2800      	cmp	r0, #0
 800614c:	f43f aefe 	beq.w	8005f4c <_usb_ep0setup+0x9c>
 8006150:	e9d0 1300 	ldrd	r1, r3, [r0]
 8006154:	6426      	str	r6, [r4, #64]	; 0x40
 8006156:	e9c4 310e 	strd	r3, r1, [r4, #56]	; 0x38
 800615a:	f894 3044 	ldrb.w	r3, [r4, #68]	; 0x44
 800615e:	e6be      	b.n	8005ede <_usb_ep0setup+0x2e>
 8006160:	2a01      	cmp	r2, #1
 8006162:	f47f aef3 	bne.w	8005f4c <_usb_ep0setup+0x9c>
 8006166:	4a19      	ldr	r2, [pc, #100]	; (80061cc <_usb_ep0setup+0x31c>)
 8006168:	63a2      	str	r2, [r4, #56]	; 0x38
 800616a:	2102      	movs	r1, #2
 800616c:	2200      	movs	r2, #0
 800616e:	e9c4 120f 	strd	r1, r2, [r4, #60]	; 0x3c
 8006172:	e6b4      	b.n	8005ede <_usb_ep0setup+0x2e>
 8006174:	f894 3048 	ldrb.w	r3, [r4, #72]	; 0x48
 8006178:	f003 010f 	and.w	r1, r3, #15
 800617c:	061b      	lsls	r3, r3, #24
 800617e:	4620      	mov	r0, r4
 8006180:	d428      	bmi.n	80061d4 <_usb_ep0setup+0x324>
 8006182:	f002 fdf5 	bl	8008d70 <usb_lld_get_status_out>
 8006186:	2801      	cmp	r0, #1
 8006188:	d028      	beq.n	80061dc <_usb_ep0setup+0x32c>
 800618a:	2802      	cmp	r0, #2
 800618c:	f47f aede 	bne.w	8005f4c <_usb_ep0setup+0x9c>
 8006190:	4b0f      	ldr	r3, [pc, #60]	; (80061d0 <_usb_ep0setup+0x320>)
 8006192:	63a3      	str	r3, [r4, #56]	; 0x38
 8006194:	2102      	movs	r1, #2
 8006196:	2300      	movs	r3, #0
 8006198:	e9c4 130f 	strd	r1, r3, [r4, #60]	; 0x3c
 800619c:	f894 3044 	ldrb.w	r3, [r4, #68]	; 0x44
 80061a0:	e69d      	b.n	8005ede <_usb_ep0setup+0x2e>
 80061a2:	f894 3046 	ldrb.w	r3, [r4, #70]	; 0x46
 80061a6:	2b01      	cmp	r3, #1
 80061a8:	f47f aed0 	bne.w	8005f4c <_usb_ep0setup+0x9c>
 80061ac:	f8b4 304c 	ldrh.w	r3, [r4, #76]	; 0x4c
 80061b0:	63a6      	str	r6, [r4, #56]	; 0x38
 80061b2:	f043 0302 	orr.w	r3, r3, #2
 80061b6:	e9c4 660f 	strd	r6, r6, [r4, #60]	; 0x3c
 80061ba:	f8a4 304c 	strh.w	r3, [r4, #76]	; 0x4c
 80061be:	e720      	b.n	8006002 <_usb_ep0setup+0x152>
 80061c0:	2304      	movs	r3, #4
 80061c2:	7023      	strb	r3, [r4, #0]
 80061c4:	e760      	b.n	8006088 <_usb_ep0setup+0x1d8>
 80061c6:	bf00      	nop
 80061c8:	2000081c 	.word	0x2000081c
 80061cc:	0800db50 	.word	0x0800db50
 80061d0:	0800db30 	.word	0x0800db30
 80061d4:	f002 fdec 	bl	8008db0 <usb_lld_get_status_in>
 80061d8:	2801      	cmp	r0, #1
 80061da:	d1d6      	bne.n	800618a <_usb_ep0setup+0x2da>
 80061dc:	4b06      	ldr	r3, [pc, #24]	; (80061f8 <_usb_ep0setup+0x348>)
 80061de:	e7d8      	b.n	8006192 <_usb_ep0setup+0x2e2>
 80061e0:	f003 f8ae 	bl	8009340 <usb_lld_clear_in>
 80061e4:	f894 0044 	ldrb.w	r0, [r4, #68]	; 0x44
 80061e8:	e707      	b.n	8005ffa <_usb_ep0setup+0x14a>
 80061ea:	f003 f869 	bl	80092c0 <usb_lld_stall_in>
 80061ee:	f894 0044 	ldrb.w	r0, [r4, #68]	; 0x44
 80061f2:	e702      	b.n	8005ffa <_usb_ep0setup+0x14a>
 80061f4:	f7fb f88c 	bl	8001310 <__stack_chk_fail>
 80061f8:	0800db40 	.word	0x0800db40
 80061fc:	00000000 	.word	0x00000000

08006200 <_usb_ep0in>:
 8006200:	b570      	push	{r4, r5, r6, lr}
 8006202:	4d45      	ldr	r5, [pc, #276]	; (8006318 <_usb_ep0in+0x118>)
 8006204:	f890 3034 	ldrb.w	r3, [r0, #52]	; 0x34
 8006208:	682a      	ldr	r2, [r5, #0]
 800620a:	b082      	sub	sp, #8
 800620c:	4604      	mov	r4, r0
 800620e:	9201      	str	r2, [sp, #4]
 8006210:	2b06      	cmp	r3, #6
 8006212:	d857      	bhi.n	80062c4 <_usb_ep0in+0xc4>
 8006214:	e8df f003 	tbb	[pc, r3]
 8006218:	04542504 	.word	0x04542504
 800621c:	1e04      	.short	0x1e04
 800621e:	07          	.byte	0x07
 800621f:	00          	.byte	0x00
 8006220:	483e      	ldr	r0, [pc, #248]	; (800631c <_usb_ep0in+0x11c>)
 8006222:	f7fc fce5 	bl	8002bf0 <chSysHalt>
 8006226:	2100      	movs	r1, #0
 8006228:	4620      	mov	r0, r4
 800622a:	f003 f849 	bl	80092c0 <usb_lld_stall_in>
 800622e:	2100      	movs	r1, #0
 8006230:	4620      	mov	r0, r4
 8006232:	f003 f825 	bl	8009280 <usb_lld_stall_out>
 8006236:	6863      	ldr	r3, [r4, #4]
 8006238:	681b      	ldr	r3, [r3, #0]
 800623a:	b113      	cbz	r3, 8006242 <_usb_ep0in+0x42>
 800623c:	2105      	movs	r1, #5
 800623e:	4620      	mov	r0, r4
 8006240:	4798      	blx	r3
 8006242:	2306      	movs	r3, #6
 8006244:	f884 3034 	strb.w	r3, [r4, #52]	; 0x34
 8006248:	9a01      	ldr	r2, [sp, #4]
 800624a:	682b      	ldr	r3, [r5, #0]
 800624c:	429a      	cmp	r2, r3
 800624e:	d161      	bne.n	8006314 <_usb_ep0in+0x114>
 8006250:	b002      	add	sp, #8
 8006252:	bd70      	pop	{r4, r5, r6, pc}
 8006254:	6c03      	ldr	r3, [r0, #64]	; 0x40
 8006256:	b103      	cbz	r3, 800625a <_usb_ep0in+0x5a>
 8006258:	4798      	blx	r3
 800625a:	2300      	movs	r3, #0
 800625c:	f884 3034 	strb.w	r3, [r4, #52]	; 0x34
 8006260:	e7f2      	b.n	8006248 <_usb_ep0in+0x48>
 8006262:	f890 004b 	ldrb.w	r0, [r0, #75]	; 0x4b
 8006266:	f894 204a 	ldrb.w	r2, [r4, #74]	; 0x4a
 800626a:	6be1      	ldr	r1, [r4, #60]	; 0x3c
 800626c:	68e3      	ldr	r3, [r4, #12]
 800626e:	ea42 2200 	orr.w	r2, r2, r0, lsl #8
 8006272:	4291      	cmp	r1, r2
 8006274:	d205      	bcs.n	8006282 <_usb_ep0in+0x82>
 8006276:	8a1a      	ldrh	r2, [r3, #16]
 8006278:	fbb1 f6f2 	udiv	r6, r1, r2
 800627c:	fb02 1616 	mls	r6, r2, r6, r1
 8006280:	b356      	cbz	r6, 80062d8 <_usb_ep0in+0xd8>
 8006282:	699b      	ldr	r3, [r3, #24]
 8006284:	2600      	movs	r6, #0
 8006286:	2203      	movs	r2, #3
 8006288:	f884 2034 	strb.w	r2, [r4, #52]	; 0x34
 800628c:	4631      	mov	r1, r6
 800628e:	701e      	strb	r6, [r3, #0]
 8006290:	60de      	str	r6, [r3, #12]
 8006292:	e9c3 6601 	strd	r6, r6, [r3, #4]
 8006296:	4620      	mov	r0, r4
 8006298:	f002 fdc2 	bl	8008e20 <usb_lld_prepare_receive>
 800629c:	2320      	movs	r3, #32
 800629e:	f383 8811 	msr	BASEPRI, r3
 80062a2:	f7fd fde5 	bl	8003e70 <_stats_start_measure_crit_isr>
 80062a6:	f7fc fd83 	bl	8002db0 <_dbg_check_lock_from_isr>
 80062aa:	4631      	mov	r1, r6
 80062ac:	4620      	mov	r0, r4
 80062ae:	f7ff fd7f 	bl	8005db0 <usbStartReceiveI>
 80062b2:	f7fc fd9d 	bl	8002df0 <_dbg_check_unlock_from_isr>
 80062b6:	f7fd fdf3 	bl	8003ea0 <_stats_stop_measure_crit_isr>
 80062ba:	f386 8811 	msr	BASEPRI, r6
 80062be:	e7c3      	b.n	8006248 <_usb_ep0in+0x48>
 80062c0:	68c3      	ldr	r3, [r0, #12]
 80062c2:	e7de      	b.n	8006282 <_usb_ep0in+0x82>
 80062c4:	9a01      	ldr	r2, [sp, #4]
 80062c6:	682b      	ldr	r3, [r5, #0]
 80062c8:	429a      	cmp	r2, r3
 80062ca:	d123      	bne.n	8006314 <_usb_ep0in+0x114>
 80062cc:	4813      	ldr	r0, [pc, #76]	; (800631c <_usb_ep0in+0x11c>)
 80062ce:	b002      	add	sp, #8
 80062d0:	e8bd 4070 	ldmia.w	sp!, {r4, r5, r6, lr}
 80062d4:	f7fc bc8c 	b.w	8002bf0 <chSysHalt>
 80062d8:	695b      	ldr	r3, [r3, #20]
 80062da:	4631      	mov	r1, r6
 80062dc:	701e      	strb	r6, [r3, #0]
 80062de:	60de      	str	r6, [r3, #12]
 80062e0:	e9c3 6601 	strd	r6, r6, [r3, #4]
 80062e4:	4620      	mov	r0, r4
 80062e6:	f002 fe3b 	bl	8008f60 <usb_lld_prepare_transmit>
 80062ea:	2320      	movs	r3, #32
 80062ec:	f383 8811 	msr	BASEPRI, r3
 80062f0:	f7fd fdbe 	bl	8003e70 <_stats_start_measure_crit_isr>
 80062f4:	f7fc fd5c 	bl	8002db0 <_dbg_check_lock_from_isr>
 80062f8:	4631      	mov	r1, r6
 80062fa:	4620      	mov	r0, r4
 80062fc:	f7ff fd88 	bl	8005e10 <usbStartTransmitI>
 8006300:	f7fc fd76 	bl	8002df0 <_dbg_check_unlock_from_isr>
 8006304:	f7fd fdcc 	bl	8003ea0 <_stats_stop_measure_crit_isr>
 8006308:	f386 8811 	msr	BASEPRI, r6
 800630c:	2302      	movs	r3, #2
 800630e:	f884 3034 	strb.w	r3, [r4, #52]	; 0x34
 8006312:	e799      	b.n	8006248 <_usb_ep0in+0x48>
 8006314:	f7fa fffc 	bl	8001310 <__stack_chk_fail>
 8006318:	2000081c 	.word	0x2000081c
 800631c:	0800db10 	.word	0x0800db10

08006320 <_usb_ep0out>:
 8006320:	b570      	push	{r4, r5, r6, lr}
 8006322:	4d30      	ldr	r5, [pc, #192]	; (80063e4 <_usb_ep0out+0xc4>)
 8006324:	f890 3034 	ldrb.w	r3, [r0, #52]	; 0x34
 8006328:	682a      	ldr	r2, [r5, #0]
 800632a:	b082      	sub	sp, #8
 800632c:	4604      	mov	r4, r0
 800632e:	9201      	str	r2, [sp, #4]
 8006330:	2b06      	cmp	r3, #6
 8006332:	d84a      	bhi.n	80063ca <_usb_ep0out+0xaa>
 8006334:	e8df f003 	tbb	[pc, r3]
 8006338:	3d040404 	.word	0x3d040404
 800633c:	041e      	.short	0x041e
 800633e:	07          	.byte	0x07
 800633f:	00          	.byte	0x00
 8006340:	4829      	ldr	r0, [pc, #164]	; (80063e8 <_usb_ep0out+0xc8>)
 8006342:	f7fc fc55 	bl	8002bf0 <chSysHalt>
 8006346:	2100      	movs	r1, #0
 8006348:	4620      	mov	r0, r4
 800634a:	f002 ffb9 	bl	80092c0 <usb_lld_stall_in>
 800634e:	2100      	movs	r1, #0
 8006350:	4620      	mov	r0, r4
 8006352:	f002 ff95 	bl	8009280 <usb_lld_stall_out>
 8006356:	6863      	ldr	r3, [r4, #4]
 8006358:	681b      	ldr	r3, [r3, #0]
 800635a:	b113      	cbz	r3, 8006362 <_usb_ep0out+0x42>
 800635c:	2105      	movs	r1, #5
 800635e:	4620      	mov	r0, r4
 8006360:	4798      	blx	r3
 8006362:	2306      	movs	r3, #6
 8006364:	f884 3034 	strb.w	r3, [r4, #52]	; 0x34
 8006368:	9a01      	ldr	r2, [sp, #4]
 800636a:	682b      	ldr	r3, [r5, #0]
 800636c:	429a      	cmp	r2, r3
 800636e:	d136      	bne.n	80063de <_usb_ep0out+0xbe>
 8006370:	b002      	add	sp, #8
 8006372:	bd70      	pop	{r4, r5, r6, pc}
 8006374:	68c3      	ldr	r3, [r0, #12]
 8006376:	695b      	ldr	r3, [r3, #20]
 8006378:	2600      	movs	r6, #0
 800637a:	2205      	movs	r2, #5
 800637c:	f880 2034 	strb.w	r2, [r0, #52]	; 0x34
 8006380:	4631      	mov	r1, r6
 8006382:	701e      	strb	r6, [r3, #0]
 8006384:	60de      	str	r6, [r3, #12]
 8006386:	e9c3 6601 	strd	r6, r6, [r3, #4]
 800638a:	f002 fde9 	bl	8008f60 <usb_lld_prepare_transmit>
 800638e:	2320      	movs	r3, #32
 8006390:	f383 8811 	msr	BASEPRI, r3
 8006394:	f7fd fd6c 	bl	8003e70 <_stats_start_measure_crit_isr>
 8006398:	f7fc fd0a 	bl	8002db0 <_dbg_check_lock_from_isr>
 800639c:	4631      	mov	r1, r6
 800639e:	4620      	mov	r0, r4
 80063a0:	f7ff fd36 	bl	8005e10 <usbStartTransmitI>
 80063a4:	f7fc fd24 	bl	8002df0 <_dbg_check_unlock_from_isr>
 80063a8:	f7fd fd7a 	bl	8003ea0 <_stats_stop_measure_crit_isr>
 80063ac:	f386 8811 	msr	BASEPRI, r6
 80063b0:	e7da      	b.n	8006368 <_usb_ep0out+0x48>
 80063b2:	68c3      	ldr	r3, [r0, #12]
 80063b4:	699b      	ldr	r3, [r3, #24]
 80063b6:	689b      	ldr	r3, [r3, #8]
 80063b8:	2b00      	cmp	r3, #0
 80063ba:	d1d5      	bne.n	8006368 <_usb_ep0out+0x48>
 80063bc:	6c03      	ldr	r3, [r0, #64]	; 0x40
 80063be:	b103      	cbz	r3, 80063c2 <_usb_ep0out+0xa2>
 80063c0:	4798      	blx	r3
 80063c2:	2300      	movs	r3, #0
 80063c4:	f884 3034 	strb.w	r3, [r4, #52]	; 0x34
 80063c8:	e7ce      	b.n	8006368 <_usb_ep0out+0x48>
 80063ca:	9a01      	ldr	r2, [sp, #4]
 80063cc:	682b      	ldr	r3, [r5, #0]
 80063ce:	429a      	cmp	r2, r3
 80063d0:	d105      	bne.n	80063de <_usb_ep0out+0xbe>
 80063d2:	4805      	ldr	r0, [pc, #20]	; (80063e8 <_usb_ep0out+0xc8>)
 80063d4:	b002      	add	sp, #8
 80063d6:	e8bd 4070 	ldmia.w	sp!, {r4, r5, r6, lr}
 80063da:	f7fc bc09 	b.w	8002bf0 <chSysHalt>
 80063de:	f7fa ff97 	bl	8001310 <__stack_chk_fail>
 80063e2:	bf00      	nop
 80063e4:	2000081c 	.word	0x2000081c
 80063e8:	0800db20 	.word	0x0800db20
 80063ec:	00000000 	.word	0x00000000

080063f0 <nvicEnableVector>:
 80063f0:	b530      	push	{r4, r5, lr}
 80063f2:	0943      	lsrs	r3, r0, #5
 80063f4:	4d10      	ldr	r5, [pc, #64]	; (8006438 <nvicEnableVector+0x48>)
 80063f6:	b083      	sub	sp, #12
 80063f8:	009b      	lsls	r3, r3, #2
 80063fa:	682a      	ldr	r2, [r5, #0]
 80063fc:	9201      	str	r2, [sp, #4]
 80063fe:	f100 4460 	add.w	r4, r0, #3758096384	; 0xe0000000
 8006402:	f103 4360 	add.w	r3, r3, #3758096384	; 0xe0000000
 8006406:	f503 4361 	add.w	r3, r3, #57600	; 0xe100
 800640a:	2201      	movs	r2, #1
 800640c:	0109      	lsls	r1, r1, #4
 800640e:	f504 4461 	add.w	r4, r4, #57600	; 0xe100
 8006412:	f000 001f 	and.w	r0, r0, #31
 8006416:	fa02 f000 	lsl.w	r0, r2, r0
 800641a:	b2c9      	uxtb	r1, r1
 800641c:	f884 1300 	strb.w	r1, [r4, #768]	; 0x300
 8006420:	f8c3 0180 	str.w	r0, [r3, #384]	; 0x180
 8006424:	6018      	str	r0, [r3, #0]
 8006426:	9a01      	ldr	r2, [sp, #4]
 8006428:	682b      	ldr	r3, [r5, #0]
 800642a:	429a      	cmp	r2, r3
 800642c:	d101      	bne.n	8006432 <nvicEnableVector+0x42>
 800642e:	b003      	add	sp, #12
 8006430:	bd30      	pop	{r4, r5, pc}
 8006432:	f7fa ff6d 	bl	8001310 <__stack_chk_fail>
 8006436:	bf00      	nop
 8006438:	2000081c 	.word	0x2000081c
 800643c:	00000000 	.word	0x00000000

08006440 <nvicDisableVector>:
 8006440:	b530      	push	{r4, r5, lr}
 8006442:	0943      	lsrs	r3, r0, #5
 8006444:	490b      	ldr	r1, [pc, #44]	; (8006474 <nvicDisableVector+0x34>)
 8006446:	4c0c      	ldr	r4, [pc, #48]	; (8006478 <nvicDisableVector+0x38>)
 8006448:	f000 051f 	and.w	r5, r0, #31
 800644c:	b083      	sub	sp, #12
 800644e:	3320      	adds	r3, #32
 8006450:	2201      	movs	r2, #1
 8006452:	40aa      	lsls	r2, r5
 8006454:	4420      	add	r0, r4
 8006456:	680d      	ldr	r5, [r1, #0]
 8006458:	9501      	str	r5, [sp, #4]
 800645a:	f844 2023 	str.w	r2, [r4, r3, lsl #2]
 800645e:	2300      	movs	r3, #0
 8006460:	f880 3300 	strb.w	r3, [r0, #768]	; 0x300
 8006464:	9a01      	ldr	r2, [sp, #4]
 8006466:	680b      	ldr	r3, [r1, #0]
 8006468:	429a      	cmp	r2, r3
 800646a:	d101      	bne.n	8006470 <nvicDisableVector+0x30>
 800646c:	b003      	add	sp, #12
 800646e:	bd30      	pop	{r4, r5, pc}
 8006470:	f7fa ff4e 	bl	8001310 <__stack_chk_fail>
 8006474:	2000081c 	.word	0x2000081c
 8006478:	e000e100 	.word	0xe000e100
 800647c:	00000000 	.word	0x00000000

08006480 <nvicSetSystemHandlerPriority>:
 8006480:	b570      	push	{r4, r5, r6, lr}
 8006482:	4e0d      	ldr	r6, [pc, #52]	; (80064b8 <nvicSetSystemHandlerPriority+0x38>)
 8006484:	b082      	sub	sp, #8
 8006486:	6833      	ldr	r3, [r6, #0]
 8006488:	9301      	str	r3, [sp, #4]
 800648a:	280c      	cmp	r0, #12
 800648c:	4604      	mov	r4, r0
 800648e:	460d      	mov	r5, r1
 8006490:	d902      	bls.n	8006498 <nvicSetSystemHandlerPriority+0x18>
 8006492:	480a      	ldr	r0, [pc, #40]	; (80064bc <nvicSetSystemHandlerPriority+0x3c>)
 8006494:	f7fc fbac 	bl	8002bf0 <chSysHalt>
 8006498:	f104 4060 	add.w	r0, r4, #3758096384	; 0xe0000000
 800649c:	f500 406d 	add.w	r0, r0, #60672	; 0xed00
 80064a0:	012d      	lsls	r5, r5, #4
 80064a2:	b2ed      	uxtb	r5, r5
 80064a4:	7605      	strb	r5, [r0, #24]
 80064a6:	9a01      	ldr	r2, [sp, #4]
 80064a8:	6833      	ldr	r3, [r6, #0]
 80064aa:	429a      	cmp	r2, r3
 80064ac:	d101      	bne.n	80064b2 <nvicSetSystemHandlerPriority+0x32>
 80064ae:	b002      	add	sp, #8
 80064b0:	bd70      	pop	{r4, r5, r6, pc}
 80064b2:	f7fa ff2d 	bl	8001310 <__stack_chk_fail>
 80064b6:	bf00      	nop
 80064b8:	2000081c 	.word	0x2000081c
 80064bc:	0800db60 	.word	0x0800db60

080064c0 <Vector6C>:
 80064c0:	b510      	push	{r4, lr}
 80064c2:	4c0f      	ldr	r4, [pc, #60]	; (8006500 <Vector6C+0x40>)
 80064c4:	b082      	sub	sp, #8
 80064c6:	6823      	ldr	r3, [r4, #0]
 80064c8:	9301      	str	r3, [sp, #4]
 80064ca:	f7fd fc69 	bl	8003da0 <_stats_increase_irq>
 80064ce:	f7fc fcaf 	bl	8002e30 <_dbg_check_enter_isr>
 80064d2:	4b0c      	ldr	r3, [pc, #48]	; (8006504 <Vector6C+0x44>)
 80064d4:	4a0c      	ldr	r2, [pc, #48]	; (8006508 <Vector6C+0x48>)
 80064d6:	6819      	ldr	r1, [r3, #0]
 80064d8:	f001 013d 	and.w	r1, r1, #61	; 0x3d
 80064dc:	6099      	str	r1, [r3, #8]
 80064de:	6813      	ldr	r3, [r2, #0]
 80064e0:	b10b      	cbz	r3, 80064e6 <Vector6C+0x26>
 80064e2:	6850      	ldr	r0, [r2, #4]
 80064e4:	4798      	blx	r3
 80064e6:	f7fc fccb 	bl	8002e80 <_dbg_check_leave_isr>
 80064ea:	9a01      	ldr	r2, [sp, #4]
 80064ec:	6823      	ldr	r3, [r4, #0]
 80064ee:	429a      	cmp	r2, r3
 80064f0:	d104      	bne.n	80064fc <Vector6C+0x3c>
 80064f2:	b002      	add	sp, #8
 80064f4:	e8bd 4010 	ldmia.w	sp!, {r4, lr}
 80064f8:	f7fe baaa 	b.w	8004a50 <_port_irq_epilogue>
 80064fc:	f7fa ff08 	bl	8001310 <__stack_chk_fail>
 8006500:	2000081c 	.word	0x2000081c
 8006504:	40026000 	.word	0x40026000
 8006508:	20001f50 	.word	0x20001f50
 800650c:	00000000 	.word	0x00000000

08006510 <Vector70>:
 8006510:	b530      	push	{r4, r5, lr}
 8006512:	4c10      	ldr	r4, [pc, #64]	; (8006554 <Vector70+0x44>)
 8006514:	b083      	sub	sp, #12
 8006516:	6823      	ldr	r3, [r4, #0]
 8006518:	9301      	str	r3, [sp, #4]
 800651a:	f7fd fc41 	bl	8003da0 <_stats_increase_irq>
 800651e:	f7fc fc87 	bl	8002e30 <_dbg_check_enter_isr>
 8006522:	4b0d      	ldr	r3, [pc, #52]	; (8006558 <Vector70+0x48>)
 8006524:	480d      	ldr	r0, [pc, #52]	; (800655c <Vector70+0x4c>)
 8006526:	6819      	ldr	r1, [r3, #0]
 8006528:	6882      	ldr	r2, [r0, #8]
 800652a:	0989      	lsrs	r1, r1, #6
 800652c:	f001 013d 	and.w	r1, r1, #61	; 0x3d
 8006530:	018d      	lsls	r5, r1, #6
 8006532:	609d      	str	r5, [r3, #8]
 8006534:	b10a      	cbz	r2, 800653a <Vector70+0x2a>
 8006536:	68c0      	ldr	r0, [r0, #12]
 8006538:	4790      	blx	r2
 800653a:	f7fc fca1 	bl	8002e80 <_dbg_check_leave_isr>
 800653e:	9a01      	ldr	r2, [sp, #4]
 8006540:	6823      	ldr	r3, [r4, #0]
 8006542:	429a      	cmp	r2, r3
 8006544:	d104      	bne.n	8006550 <Vector70+0x40>
 8006546:	b003      	add	sp, #12
 8006548:	e8bd 4030 	ldmia.w	sp!, {r4, r5, lr}
 800654c:	f7fe ba80 	b.w	8004a50 <_port_irq_epilogue>
 8006550:	f7fa fede 	bl	8001310 <__stack_chk_fail>
 8006554:	2000081c 	.word	0x2000081c
 8006558:	40026000 	.word	0x40026000
 800655c:	20001f50 	.word	0x20001f50

08006560 <Vector74>:
 8006560:	b530      	push	{r4, r5, lr}
 8006562:	4c10      	ldr	r4, [pc, #64]	; (80065a4 <Vector74+0x44>)
 8006564:	b083      	sub	sp, #12
 8006566:	6823      	ldr	r3, [r4, #0]
 8006568:	9301      	str	r3, [sp, #4]
 800656a:	f7fd fc19 	bl	8003da0 <_stats_increase_irq>
 800656e:	f7fc fc5f 	bl	8002e30 <_dbg_check_enter_isr>
 8006572:	4b0d      	ldr	r3, [pc, #52]	; (80065a8 <Vector74+0x48>)
 8006574:	480d      	ldr	r0, [pc, #52]	; (80065ac <Vector74+0x4c>)
 8006576:	6819      	ldr	r1, [r3, #0]
 8006578:	6902      	ldr	r2, [r0, #16]
 800657a:	0c09      	lsrs	r1, r1, #16
 800657c:	f001 013d 	and.w	r1, r1, #61	; 0x3d
 8006580:	040d      	lsls	r5, r1, #16
 8006582:	609d      	str	r5, [r3, #8]
 8006584:	b10a      	cbz	r2, 800658a <Vector74+0x2a>
 8006586:	6940      	ldr	r0, [r0, #20]
 8006588:	4790      	blx	r2
 800658a:	f7fc fc79 	bl	8002e80 <_dbg_check_leave_isr>
 800658e:	9a01      	ldr	r2, [sp, #4]
 8006590:	6823      	ldr	r3, [r4, #0]
 8006592:	429a      	cmp	r2, r3
 8006594:	d104      	bne.n	80065a0 <Vector74+0x40>
 8006596:	b003      	add	sp, #12
 8006598:	e8bd 4030 	ldmia.w	sp!, {r4, r5, lr}
 800659c:	f7fe ba58 	b.w	8004a50 <_port_irq_epilogue>
 80065a0:	f7fa feb6 	bl	8001310 <__stack_chk_fail>
 80065a4:	2000081c 	.word	0x2000081c
 80065a8:	40026000 	.word	0x40026000
 80065ac:	20001f50 	.word	0x20001f50

080065b0 <Vector78>:
 80065b0:	b530      	push	{r4, r5, lr}
 80065b2:	4c10      	ldr	r4, [pc, #64]	; (80065f4 <Vector78+0x44>)
 80065b4:	b083      	sub	sp, #12
 80065b6:	6823      	ldr	r3, [r4, #0]
 80065b8:	9301      	str	r3, [sp, #4]
 80065ba:	f7fd fbf1 	bl	8003da0 <_stats_increase_irq>
 80065be:	f7fc fc37 	bl	8002e30 <_dbg_check_enter_isr>
 80065c2:	4b0d      	ldr	r3, [pc, #52]	; (80065f8 <Vector78+0x48>)
 80065c4:	480d      	ldr	r0, [pc, #52]	; (80065fc <Vector78+0x4c>)
 80065c6:	6819      	ldr	r1, [r3, #0]
 80065c8:	6982      	ldr	r2, [r0, #24]
 80065ca:	0d89      	lsrs	r1, r1, #22
 80065cc:	f001 013d 	and.w	r1, r1, #61	; 0x3d
 80065d0:	058d      	lsls	r5, r1, #22
 80065d2:	609d      	str	r5, [r3, #8]
 80065d4:	b10a      	cbz	r2, 80065da <Vector78+0x2a>
 80065d6:	69c0      	ldr	r0, [r0, #28]
 80065d8:	4790      	blx	r2
 80065da:	f7fc fc51 	bl	8002e80 <_dbg_check_leave_isr>
 80065de:	9a01      	ldr	r2, [sp, #4]
 80065e0:	6823      	ldr	r3, [r4, #0]
 80065e2:	429a      	cmp	r2, r3
 80065e4:	d104      	bne.n	80065f0 <Vector78+0x40>
 80065e6:	b003      	add	sp, #12
 80065e8:	e8bd 4030 	ldmia.w	sp!, {r4, r5, lr}
 80065ec:	f7fe ba30 	b.w	8004a50 <_port_irq_epilogue>
 80065f0:	f7fa fe8e 	bl	8001310 <__stack_chk_fail>
 80065f4:	2000081c 	.word	0x2000081c
 80065f8:	40026000 	.word	0x40026000
 80065fc:	20001f50 	.word	0x20001f50

08006600 <Vector7C>:
 8006600:	b510      	push	{r4, lr}
 8006602:	4c0f      	ldr	r4, [pc, #60]	; (8006640 <Vector7C+0x40>)
 8006604:	b082      	sub	sp, #8
 8006606:	6823      	ldr	r3, [r4, #0]
 8006608:	9301      	str	r3, [sp, #4]
 800660a:	f7fd fbc9 	bl	8003da0 <_stats_increase_irq>
 800660e:	f7fc fc0f 	bl	8002e30 <_dbg_check_enter_isr>
 8006612:	4b0c      	ldr	r3, [pc, #48]	; (8006644 <Vector7C+0x44>)
 8006614:	480c      	ldr	r0, [pc, #48]	; (8006648 <Vector7C+0x48>)
 8006616:	6859      	ldr	r1, [r3, #4]
 8006618:	6a02      	ldr	r2, [r0, #32]
 800661a:	f001 013d 	and.w	r1, r1, #61	; 0x3d
 800661e:	60d9      	str	r1, [r3, #12]
 8006620:	b10a      	cbz	r2, 8006626 <Vector7C+0x26>
 8006622:	6a40      	ldr	r0, [r0, #36]	; 0x24
 8006624:	4790      	blx	r2
 8006626:	f7fc fc2b 	bl	8002e80 <_dbg_check_leave_isr>
 800662a:	9a01      	ldr	r2, [sp, #4]
 800662c:	6823      	ldr	r3, [r4, #0]
 800662e:	429a      	cmp	r2, r3
 8006630:	d104      	bne.n	800663c <Vector7C+0x3c>
 8006632:	b002      	add	sp, #8
 8006634:	e8bd 4010 	ldmia.w	sp!, {r4, lr}
 8006638:	f7fe ba0a 	b.w	8004a50 <_port_irq_epilogue>
 800663c:	f7fa fe68 	bl	8001310 <__stack_chk_fail>
 8006640:	2000081c 	.word	0x2000081c
 8006644:	40026000 	.word	0x40026000
 8006648:	20001f50 	.word	0x20001f50
 800664c:	00000000 	.word	0x00000000

08006650 <Vector80>:
 8006650:	b530      	push	{r4, r5, lr}
 8006652:	4c10      	ldr	r4, [pc, #64]	; (8006694 <Vector80+0x44>)
 8006654:	b083      	sub	sp, #12
 8006656:	6823      	ldr	r3, [r4, #0]
 8006658:	9301      	str	r3, [sp, #4]
 800665a:	f7fd fba1 	bl	8003da0 <_stats_increase_irq>
 800665e:	f7fc fbe7 	bl	8002e30 <_dbg_check_enter_isr>
 8006662:	4b0d      	ldr	r3, [pc, #52]	; (8006698 <Vector80+0x48>)
 8006664:	480d      	ldr	r0, [pc, #52]	; (800669c <Vector80+0x4c>)
 8006666:	6859      	ldr	r1, [r3, #4]
 8006668:	6a82      	ldr	r2, [r0, #40]	; 0x28
 800666a:	0989      	lsrs	r1, r1, #6
 800666c:	f001 013d 	and.w	r1, r1, #61	; 0x3d
 8006670:	018d      	lsls	r5, r1, #6
 8006672:	60dd      	str	r5, [r3, #12]
 8006674:	b10a      	cbz	r2, 800667a <Vector80+0x2a>
 8006676:	6ac0      	ldr	r0, [r0, #44]	; 0x2c
 8006678:	4790      	blx	r2
 800667a:	f7fc fc01 	bl	8002e80 <_dbg_check_leave_isr>
 800667e:	9a01      	ldr	r2, [sp, #4]
 8006680:	6823      	ldr	r3, [r4, #0]
 8006682:	429a      	cmp	r2, r3
 8006684:	d104      	bne.n	8006690 <Vector80+0x40>
 8006686:	b003      	add	sp, #12
 8006688:	e8bd 4030 	ldmia.w	sp!, {r4, r5, lr}
 800668c:	f7fe b9e0 	b.w	8004a50 <_port_irq_epilogue>
 8006690:	f7fa fe3e 	bl	8001310 <__stack_chk_fail>
 8006694:	2000081c 	.word	0x2000081c
 8006698:	40026000 	.word	0x40026000
 800669c:	20001f50 	.word	0x20001f50

080066a0 <Vector84>:
 80066a0:	b530      	push	{r4, r5, lr}
 80066a2:	4c10      	ldr	r4, [pc, #64]	; (80066e4 <Vector84+0x44>)
 80066a4:	b083      	sub	sp, #12
 80066a6:	6823      	ldr	r3, [r4, #0]
 80066a8:	9301      	str	r3, [sp, #4]
 80066aa:	f7fd fb79 	bl	8003da0 <_stats_increase_irq>
 80066ae:	f7fc fbbf 	bl	8002e30 <_dbg_check_enter_isr>
 80066b2:	4b0d      	ldr	r3, [pc, #52]	; (80066e8 <Vector84+0x48>)
 80066b4:	480d      	ldr	r0, [pc, #52]	; (80066ec <Vector84+0x4c>)
 80066b6:	6859      	ldr	r1, [r3, #4]
 80066b8:	6b02      	ldr	r2, [r0, #48]	; 0x30
 80066ba:	0c09      	lsrs	r1, r1, #16
 80066bc:	f001 013d 	and.w	r1, r1, #61	; 0x3d
 80066c0:	040d      	lsls	r5, r1, #16
 80066c2:	60dd      	str	r5, [r3, #12]
 80066c4:	b10a      	cbz	r2, 80066ca <Vector84+0x2a>
 80066c6:	6b40      	ldr	r0, [r0, #52]	; 0x34
 80066c8:	4790      	blx	r2
 80066ca:	f7fc fbd9 	bl	8002e80 <_dbg_check_leave_isr>
 80066ce:	9a01      	ldr	r2, [sp, #4]
 80066d0:	6823      	ldr	r3, [r4, #0]
 80066d2:	429a      	cmp	r2, r3
 80066d4:	d104      	bne.n	80066e0 <Vector84+0x40>
 80066d6:	b003      	add	sp, #12
 80066d8:	e8bd 4030 	ldmia.w	sp!, {r4, r5, lr}
 80066dc:	f7fe b9b8 	b.w	8004a50 <_port_irq_epilogue>
 80066e0:	f7fa fe16 	bl	8001310 <__stack_chk_fail>
 80066e4:	2000081c 	.word	0x2000081c
 80066e8:	40026000 	.word	0x40026000
 80066ec:	20001f50 	.word	0x20001f50

080066f0 <VectorFC>:
 80066f0:	b530      	push	{r4, r5, lr}
 80066f2:	4c10      	ldr	r4, [pc, #64]	; (8006734 <VectorFC+0x44>)
 80066f4:	b083      	sub	sp, #12
 80066f6:	6823      	ldr	r3, [r4, #0]
 80066f8:	9301      	str	r3, [sp, #4]
 80066fa:	f7fd fb51 	bl	8003da0 <_stats_increase_irq>
 80066fe:	f7fc fb97 	bl	8002e30 <_dbg_check_enter_isr>
 8006702:	4b0d      	ldr	r3, [pc, #52]	; (8006738 <VectorFC+0x48>)
 8006704:	480d      	ldr	r0, [pc, #52]	; (800673c <VectorFC+0x4c>)
 8006706:	6859      	ldr	r1, [r3, #4]
 8006708:	6b82      	ldr	r2, [r0, #56]	; 0x38
 800670a:	0d89      	lsrs	r1, r1, #22
 800670c:	f001 013d 	and.w	r1, r1, #61	; 0x3d
 8006710:	058d      	lsls	r5, r1, #22
 8006712:	60dd      	str	r5, [r3, #12]
 8006714:	b10a      	cbz	r2, 800671a <VectorFC+0x2a>
 8006716:	6bc0      	ldr	r0, [r0, #60]	; 0x3c
 8006718:	4790      	blx	r2
 800671a:	f7fc fbb1 	bl	8002e80 <_dbg_check_leave_isr>
 800671e:	9a01      	ldr	r2, [sp, #4]
 8006720:	6823      	ldr	r3, [r4, #0]
 8006722:	429a      	cmp	r2, r3
 8006724:	d104      	bne.n	8006730 <VectorFC+0x40>
 8006726:	b003      	add	sp, #12
 8006728:	e8bd 4030 	ldmia.w	sp!, {r4, r5, lr}
 800672c:	f7fe b990 	b.w	8004a50 <_port_irq_epilogue>
 8006730:	f7fa fdee 	bl	8001310 <__stack_chk_fail>
 8006734:	2000081c 	.word	0x2000081c
 8006738:	40026000 	.word	0x40026000
 800673c:	20001f50 	.word	0x20001f50

08006740 <Vector120>:
 8006740:	b510      	push	{r4, lr}
 8006742:	4c0f      	ldr	r4, [pc, #60]	; (8006780 <Vector120+0x40>)
 8006744:	b082      	sub	sp, #8
 8006746:	6823      	ldr	r3, [r4, #0]
 8006748:	9301      	str	r3, [sp, #4]
 800674a:	f7fd fb29 	bl	8003da0 <_stats_increase_irq>
 800674e:	f7fc fb6f 	bl	8002e30 <_dbg_check_enter_isr>
 8006752:	4b0c      	ldr	r3, [pc, #48]	; (8006784 <Vector120+0x44>)
 8006754:	480c      	ldr	r0, [pc, #48]	; (8006788 <Vector120+0x48>)
 8006756:	6819      	ldr	r1, [r3, #0]
 8006758:	6c02      	ldr	r2, [r0, #64]	; 0x40
 800675a:	f001 013d 	and.w	r1, r1, #61	; 0x3d
 800675e:	6099      	str	r1, [r3, #8]
 8006760:	b10a      	cbz	r2, 8006766 <Vector120+0x26>
 8006762:	6c40      	ldr	r0, [r0, #68]	; 0x44
 8006764:	4790      	blx	r2
 8006766:	f7fc fb8b 	bl	8002e80 <_dbg_check_leave_isr>
 800676a:	9a01      	ldr	r2, [sp, #4]
 800676c:	6823      	ldr	r3, [r4, #0]
 800676e:	429a      	cmp	r2, r3
 8006770:	d104      	bne.n	800677c <Vector120+0x3c>
 8006772:	b002      	add	sp, #8
 8006774:	e8bd 4010 	ldmia.w	sp!, {r4, lr}
 8006778:	f7fe b96a 	b.w	8004a50 <_port_irq_epilogue>
 800677c:	f7fa fdc8 	bl	8001310 <__stack_chk_fail>
 8006780:	2000081c 	.word	0x2000081c
 8006784:	40026400 	.word	0x40026400
 8006788:	20001f50 	.word	0x20001f50
 800678c:	00000000 	.word	0x00000000

08006790 <Vector124>:
 8006790:	b530      	push	{r4, r5, lr}
 8006792:	4c10      	ldr	r4, [pc, #64]	; (80067d4 <Vector124+0x44>)
 8006794:	b083      	sub	sp, #12
 8006796:	6823      	ldr	r3, [r4, #0]
 8006798:	9301      	str	r3, [sp, #4]
 800679a:	f7fd fb01 	bl	8003da0 <_stats_increase_irq>
 800679e:	f7fc fb47 	bl	8002e30 <_dbg_check_enter_isr>
 80067a2:	4b0d      	ldr	r3, [pc, #52]	; (80067d8 <Vector124+0x48>)
 80067a4:	480d      	ldr	r0, [pc, #52]	; (80067dc <Vector124+0x4c>)
 80067a6:	6819      	ldr	r1, [r3, #0]
 80067a8:	6c82      	ldr	r2, [r0, #72]	; 0x48
 80067aa:	0989      	lsrs	r1, r1, #6
 80067ac:	f001 013d 	and.w	r1, r1, #61	; 0x3d
 80067b0:	018d      	lsls	r5, r1, #6
 80067b2:	609d      	str	r5, [r3, #8]
 80067b4:	b10a      	cbz	r2, 80067ba <Vector124+0x2a>
 80067b6:	6cc0      	ldr	r0, [r0, #76]	; 0x4c
 80067b8:	4790      	blx	r2
 80067ba:	f7fc fb61 	bl	8002e80 <_dbg_check_leave_isr>
 80067be:	9a01      	ldr	r2, [sp, #4]
 80067c0:	6823      	ldr	r3, [r4, #0]
 80067c2:	429a      	cmp	r2, r3
 80067c4:	d104      	bne.n	80067d0 <Vector124+0x40>
 80067c6:	b003      	add	sp, #12
 80067c8:	e8bd 4030 	ldmia.w	sp!, {r4, r5, lr}
 80067cc:	f7fe b940 	b.w	8004a50 <_port_irq_epilogue>
 80067d0:	f7fa fd9e 	bl	8001310 <__stack_chk_fail>
 80067d4:	2000081c 	.word	0x2000081c
 80067d8:	40026400 	.word	0x40026400
 80067dc:	20001f50 	.word	0x20001f50

080067e0 <Vector128>:
 80067e0:	b530      	push	{r4, r5, lr}
 80067e2:	4c10      	ldr	r4, [pc, #64]	; (8006824 <Vector128+0x44>)
 80067e4:	b083      	sub	sp, #12
 80067e6:	6823      	ldr	r3, [r4, #0]
 80067e8:	9301      	str	r3, [sp, #4]
 80067ea:	f7fd fad9 	bl	8003da0 <_stats_increase_irq>
 80067ee:	f7fc fb1f 	bl	8002e30 <_dbg_check_enter_isr>
 80067f2:	4b0d      	ldr	r3, [pc, #52]	; (8006828 <Vector128+0x48>)
 80067f4:	480d      	ldr	r0, [pc, #52]	; (800682c <Vector128+0x4c>)
 80067f6:	6819      	ldr	r1, [r3, #0]
 80067f8:	6d02      	ldr	r2, [r0, #80]	; 0x50
 80067fa:	0c09      	lsrs	r1, r1, #16
 80067fc:	f001 013d 	and.w	r1, r1, #61	; 0x3d
 8006800:	040d      	lsls	r5, r1, #16
 8006802:	609d      	str	r5, [r3, #8]
 8006804:	b10a      	cbz	r2, 800680a <Vector128+0x2a>
 8006806:	6d40      	ldr	r0, [r0, #84]	; 0x54
 8006808:	4790      	blx	r2
 800680a:	f7fc fb39 	bl	8002e80 <_dbg_check_leave_isr>
 800680e:	9a01      	ldr	r2, [sp, #4]
 8006810:	6823      	ldr	r3, [r4, #0]
 8006812:	429a      	cmp	r2, r3
 8006814:	d104      	bne.n	8006820 <Vector128+0x40>
 8006816:	b003      	add	sp, #12
 8006818:	e8bd 4030 	ldmia.w	sp!, {r4, r5, lr}
 800681c:	f7fe b918 	b.w	8004a50 <_port_irq_epilogue>
 8006820:	f7fa fd76 	bl	8001310 <__stack_chk_fail>
 8006824:	2000081c 	.word	0x2000081c
 8006828:	40026400 	.word	0x40026400
 800682c:	20001f50 	.word	0x20001f50

08006830 <Vector12C>:
 8006830:	b530      	push	{r4, r5, lr}
 8006832:	4c10      	ldr	r4, [pc, #64]	; (8006874 <Vector12C+0x44>)
 8006834:	b083      	sub	sp, #12
 8006836:	6823      	ldr	r3, [r4, #0]
 8006838:	9301      	str	r3, [sp, #4]
 800683a:	f7fd fab1 	bl	8003da0 <_stats_increase_irq>
 800683e:	f7fc faf7 	bl	8002e30 <_dbg_check_enter_isr>
 8006842:	4b0d      	ldr	r3, [pc, #52]	; (8006878 <Vector12C+0x48>)
 8006844:	480d      	ldr	r0, [pc, #52]	; (800687c <Vector12C+0x4c>)
 8006846:	6819      	ldr	r1, [r3, #0]
 8006848:	6d82      	ldr	r2, [r0, #88]	; 0x58
 800684a:	0d89      	lsrs	r1, r1, #22
 800684c:	f001 013d 	and.w	r1, r1, #61	; 0x3d
 8006850:	058d      	lsls	r5, r1, #22
 8006852:	609d      	str	r5, [r3, #8]
 8006854:	b10a      	cbz	r2, 800685a <Vector12C+0x2a>
 8006856:	6dc0      	ldr	r0, [r0, #92]	; 0x5c
 8006858:	4790      	blx	r2
 800685a:	f7fc fb11 	bl	8002e80 <_dbg_check_leave_isr>
 800685e:	9a01      	ldr	r2, [sp, #4]
 8006860:	6823      	ldr	r3, [r4, #0]
 8006862:	429a      	cmp	r2, r3
 8006864:	d104      	bne.n	8006870 <Vector12C+0x40>
 8006866:	b003      	add	sp, #12
 8006868:	e8bd 4030 	ldmia.w	sp!, {r4, r5, lr}
 800686c:	f7fe b8f0 	b.w	8004a50 <_port_irq_epilogue>
 8006870:	f7fa fd4e 	bl	8001310 <__stack_chk_fail>
 8006874:	2000081c 	.word	0x2000081c
 8006878:	40026400 	.word	0x40026400
 800687c:	20001f50 	.word	0x20001f50

08006880 <Vector130>:
 8006880:	b510      	push	{r4, lr}
 8006882:	4c0f      	ldr	r4, [pc, #60]	; (80068c0 <Vector130+0x40>)
 8006884:	b082      	sub	sp, #8
 8006886:	6823      	ldr	r3, [r4, #0]
 8006888:	9301      	str	r3, [sp, #4]
 800688a:	f7fd fa89 	bl	8003da0 <_stats_increase_irq>
 800688e:	f7fc facf 	bl	8002e30 <_dbg_check_enter_isr>
 8006892:	4b0c      	ldr	r3, [pc, #48]	; (80068c4 <Vector130+0x44>)
 8006894:	480c      	ldr	r0, [pc, #48]	; (80068c8 <Vector130+0x48>)
 8006896:	6859      	ldr	r1, [r3, #4]
 8006898:	6e02      	ldr	r2, [r0, #96]	; 0x60
 800689a:	f001 013d 	and.w	r1, r1, #61	; 0x3d
 800689e:	60d9      	str	r1, [r3, #12]
 80068a0:	b10a      	cbz	r2, 80068a6 <Vector130+0x26>
 80068a2:	6e40      	ldr	r0, [r0, #100]	; 0x64
 80068a4:	4790      	blx	r2
 80068a6:	f7fc faeb 	bl	8002e80 <_dbg_check_leave_isr>
 80068aa:	9a01      	ldr	r2, [sp, #4]
 80068ac:	6823      	ldr	r3, [r4, #0]
 80068ae:	429a      	cmp	r2, r3
 80068b0:	d104      	bne.n	80068bc <Vector130+0x3c>
 80068b2:	b002      	add	sp, #8
 80068b4:	e8bd 4010 	ldmia.w	sp!, {r4, lr}
 80068b8:	f7fe b8ca 	b.w	8004a50 <_port_irq_epilogue>
 80068bc:	f7fa fd28 	bl	8001310 <__stack_chk_fail>
 80068c0:	2000081c 	.word	0x2000081c
 80068c4:	40026400 	.word	0x40026400
 80068c8:	20001f50 	.word	0x20001f50
 80068cc:	00000000 	.word	0x00000000

080068d0 <Vector150>:
 80068d0:	b530      	push	{r4, r5, lr}
 80068d2:	4c10      	ldr	r4, [pc, #64]	; (8006914 <Vector150+0x44>)
 80068d4:	b083      	sub	sp, #12
 80068d6:	6823      	ldr	r3, [r4, #0]
 80068d8:	9301      	str	r3, [sp, #4]
 80068da:	f7fd fa61 	bl	8003da0 <_stats_increase_irq>
 80068de:	f7fc faa7 	bl	8002e30 <_dbg_check_enter_isr>
 80068e2:	4b0d      	ldr	r3, [pc, #52]	; (8006918 <Vector150+0x48>)
 80068e4:	480d      	ldr	r0, [pc, #52]	; (800691c <Vector150+0x4c>)
 80068e6:	6859      	ldr	r1, [r3, #4]
 80068e8:	6e82      	ldr	r2, [r0, #104]	; 0x68
 80068ea:	0989      	lsrs	r1, r1, #6
 80068ec:	f001 013d 	and.w	r1, r1, #61	; 0x3d
 80068f0:	018d      	lsls	r5, r1, #6
 80068f2:	60dd      	str	r5, [r3, #12]
 80068f4:	b10a      	cbz	r2, 80068fa <Vector150+0x2a>
 80068f6:	6ec0      	ldr	r0, [r0, #108]	; 0x6c
 80068f8:	4790      	blx	r2
 80068fa:	f7fc fac1 	bl	8002e80 <_dbg_check_leave_isr>
 80068fe:	9a01      	ldr	r2, [sp, #4]
 8006900:	6823      	ldr	r3, [r4, #0]
 8006902:	429a      	cmp	r2, r3
 8006904:	d104      	bne.n	8006910 <Vector150+0x40>
 8006906:	b003      	add	sp, #12
 8006908:	e8bd 4030 	ldmia.w	sp!, {r4, r5, lr}
 800690c:	f7fe b8a0 	b.w	8004a50 <_port_irq_epilogue>
 8006910:	f7fa fcfe 	bl	8001310 <__stack_chk_fail>
 8006914:	2000081c 	.word	0x2000081c
 8006918:	40026400 	.word	0x40026400
 800691c:	20001f50 	.word	0x20001f50

08006920 <Vector154>:
 8006920:	b530      	push	{r4, r5, lr}
 8006922:	4c10      	ldr	r4, [pc, #64]	; (8006964 <Vector154+0x44>)
 8006924:	b083      	sub	sp, #12
 8006926:	6823      	ldr	r3, [r4, #0]
 8006928:	9301      	str	r3, [sp, #4]
 800692a:	f7fd fa39 	bl	8003da0 <_stats_increase_irq>
 800692e:	f7fc fa7f 	bl	8002e30 <_dbg_check_enter_isr>
 8006932:	4b0d      	ldr	r3, [pc, #52]	; (8006968 <Vector154+0x48>)
 8006934:	480d      	ldr	r0, [pc, #52]	; (800696c <Vector154+0x4c>)
 8006936:	6859      	ldr	r1, [r3, #4]
 8006938:	6f02      	ldr	r2, [r0, #112]	; 0x70
 800693a:	0c09      	lsrs	r1, r1, #16
 800693c:	f001 013d 	and.w	r1, r1, #61	; 0x3d
 8006940:	040d      	lsls	r5, r1, #16
 8006942:	60dd      	str	r5, [r3, #12]
 8006944:	b10a      	cbz	r2, 800694a <Vector154+0x2a>
 8006946:	6f40      	ldr	r0, [r0, #116]	; 0x74
 8006948:	4790      	blx	r2
 800694a:	f7fc fa99 	bl	8002e80 <_dbg_check_leave_isr>
 800694e:	9a01      	ldr	r2, [sp, #4]
 8006950:	6823      	ldr	r3, [r4, #0]
 8006952:	429a      	cmp	r2, r3
 8006954:	d104      	bne.n	8006960 <Vector154+0x40>
 8006956:	b003      	add	sp, #12
 8006958:	e8bd 4030 	ldmia.w	sp!, {r4, r5, lr}
 800695c:	f7fe b878 	b.w	8004a50 <_port_irq_epilogue>
 8006960:	f7fa fcd6 	bl	8001310 <__stack_chk_fail>
 8006964:	2000081c 	.word	0x2000081c
 8006968:	40026400 	.word	0x40026400
 800696c:	20001f50 	.word	0x20001f50

08006970 <Vector158>:
 8006970:	b530      	push	{r4, r5, lr}
 8006972:	4c10      	ldr	r4, [pc, #64]	; (80069b4 <Vector158+0x44>)
 8006974:	b083      	sub	sp, #12
 8006976:	6823      	ldr	r3, [r4, #0]
 8006978:	9301      	str	r3, [sp, #4]
 800697a:	f7fd fa11 	bl	8003da0 <_stats_increase_irq>
 800697e:	f7fc fa57 	bl	8002e30 <_dbg_check_enter_isr>
 8006982:	4b0d      	ldr	r3, [pc, #52]	; (80069b8 <Vector158+0x48>)
 8006984:	480d      	ldr	r0, [pc, #52]	; (80069bc <Vector158+0x4c>)
 8006986:	6859      	ldr	r1, [r3, #4]
 8006988:	6f82      	ldr	r2, [r0, #120]	; 0x78
 800698a:	0d89      	lsrs	r1, r1, #22
 800698c:	f001 013d 	and.w	r1, r1, #61	; 0x3d
 8006990:	058d      	lsls	r5, r1, #22
 8006992:	60dd      	str	r5, [r3, #12]
 8006994:	b10a      	cbz	r2, 800699a <Vector158+0x2a>
 8006996:	6fc0      	ldr	r0, [r0, #124]	; 0x7c
 8006998:	4790      	blx	r2
 800699a:	f7fc fa71 	bl	8002e80 <_dbg_check_leave_isr>
 800699e:	9a01      	ldr	r2, [sp, #4]
 80069a0:	6823      	ldr	r3, [r4, #0]
 80069a2:	429a      	cmp	r2, r3
 80069a4:	d104      	bne.n	80069b0 <Vector158+0x40>
 80069a6:	b003      	add	sp, #12
 80069a8:	e8bd 4030 	ldmia.w	sp!, {r4, r5, lr}
 80069ac:	f7fe b850 	b.w	8004a50 <_port_irq_epilogue>
 80069b0:	f7fa fcae 	bl	8001310 <__stack_chk_fail>
 80069b4:	2000081c 	.word	0x2000081c
 80069b8:	40026400 	.word	0x40026400
 80069bc:	20001f50 	.word	0x20001f50

080069c0 <dmaInit>:
 80069c0:	b570      	push	{r4, r5, r6, lr}
 80069c2:	4d13      	ldr	r5, [pc, #76]	; (8006a10 <dmaInit+0x50>)
 80069c4:	4e13      	ldr	r6, [pc, #76]	; (8006a14 <dmaInit+0x54>)
 80069c6:	682b      	ldr	r3, [r5, #0]
 80069c8:	4a13      	ldr	r2, [pc, #76]	; (8006a18 <dmaInit+0x58>)
 80069ca:	4814      	ldr	r0, [pc, #80]	; (8006a1c <dmaInit+0x5c>)
 80069cc:	4c14      	ldr	r4, [pc, #80]	; (8006a20 <dmaInit+0x60>)
 80069ce:	b082      	sub	sp, #8
 80069d0:	2100      	movs	r1, #0
 80069d2:	9301      	str	r3, [sp, #4]
 80069d4:	6031      	str	r1, [r6, #0]
 80069d6:	460b      	mov	r3, r1
 80069d8:	e001      	b.n	80069de <dmaInit+0x1e>
 80069da:	f852 0c0c 	ldr.w	r0, [r2, #-12]
 80069de:	6001      	str	r1, [r0, #0]
 80069e0:	f844 1033 	str.w	r1, [r4, r3, lsl #3]
 80069e4:	3301      	adds	r3, #1
 80069e6:	2b10      	cmp	r3, #16
 80069e8:	f102 020c 	add.w	r2, r2, #12
 80069ec:	d1f5      	bne.n	80069da <dmaInit+0x1a>
 80069ee:	4a0d      	ldr	r2, [pc, #52]	; (8006a24 <dmaInit+0x64>)
 80069f0:	490d      	ldr	r1, [pc, #52]	; (8006a28 <dmaInit+0x68>)
 80069f2:	f04f 33ff 	mov.w	r3, #4294967295
 80069f6:	608b      	str	r3, [r1, #8]
 80069f8:	60cb      	str	r3, [r1, #12]
 80069fa:	6093      	str	r3, [r2, #8]
 80069fc:	60d3      	str	r3, [r2, #12]
 80069fe:	9a01      	ldr	r2, [sp, #4]
 8006a00:	682b      	ldr	r3, [r5, #0]
 8006a02:	429a      	cmp	r2, r3
 8006a04:	d101      	bne.n	8006a0a <dmaInit+0x4a>
 8006a06:	b002      	add	sp, #8
 8006a08:	bd70      	pop	{r4, r5, r6, pc}
 8006a0a:	f7fa fc81 	bl	8001310 <__stack_chk_fail>
 8006a0e:	bf00      	nop
 8006a10:	2000081c 	.word	0x2000081c
 8006a14:	20001fd0 	.word	0x20001fd0
 8006a18:	0800dbcc 	.word	0x0800dbcc
 8006a1c:	40026010 	.word	0x40026010
 8006a20:	20001f50 	.word	0x20001f50
 8006a24:	40026400 	.word	0x40026400
 8006a28:	40026000 	.word	0x40026000
 8006a2c:	00000000 	.word	0x00000000

08006a30 <dmaStreamAllocate>:
 8006a30:	b5f0      	push	{r4, r5, r6, r7, lr}
 8006a32:	4f2e      	ldr	r7, [pc, #184]	; (8006aec <dmaStreamAllocate+0xbc>)
 8006a34:	b087      	sub	sp, #28
 8006a36:	683c      	ldr	r4, [r7, #0]
 8006a38:	9405      	str	r4, [sp, #20]
 8006a3a:	4605      	mov	r5, r0
 8006a3c:	2800      	cmp	r0, #0
 8006a3e:	d048      	beq.n	8006ad2 <dmaStreamAllocate+0xa2>
 8006a40:	f8df c0b8 	ldr.w	ip, [pc, #184]	; 8006afc <dmaStreamAllocate+0xcc>
 8006a44:	7a6c      	ldrb	r4, [r5, #9]
 8006a46:	f8dc e000 	ldr.w	lr, [ip]
 8006a4a:	2001      	movs	r0, #1
 8006a4c:	fa00 f604 	lsl.w	r6, r0, r4
 8006a50:	ea16 0f0e 	tst.w	r6, lr
 8006a54:	d12f      	bne.n	8006ab6 <dmaStreamAllocate+0x86>
 8006a56:	4826      	ldr	r0, [pc, #152]	; (8006af0 <dmaStreamAllocate+0xc0>)
 8006a58:	ea46 060e 	orr.w	r6, r6, lr
 8006a5c:	eb00 0ec4 	add.w	lr, r0, r4, lsl #3
 8006a60:	f016 0fff 	tst.w	r6, #255	; 0xff
 8006a64:	f8cc 6000 	str.w	r6, [ip]
 8006a68:	f840 2034 	str.w	r2, [r0, r4, lsl #3]
 8006a6c:	f8ce 3004 	str.w	r3, [lr, #4]
 8006a70:	d004      	beq.n	8006a7c <dmaStreamAllocate+0x4c>
 8006a72:	4820      	ldr	r0, [pc, #128]	; (8006af4 <dmaStreamAllocate+0xc4>)
 8006a74:	6b03      	ldr	r3, [r0, #48]	; 0x30
 8006a76:	f443 1300 	orr.w	r3, r3, #2097152	; 0x200000
 8006a7a:	6303      	str	r3, [r0, #48]	; 0x30
 8006a7c:	f416 4f7f 	tst.w	r6, #65280	; 0xff00
 8006a80:	d11f      	bne.n	8006ac2 <dmaStreamAllocate+0x92>
 8006a82:	6828      	ldr	r0, [r5, #0]
 8006a84:	6803      	ldr	r3, [r0, #0]
 8006a86:	f023 031f 	bic.w	r3, r3, #31
 8006a8a:	6003      	str	r3, [r0, #0]
 8006a8c:	6804      	ldr	r4, [r0, #0]
 8006a8e:	f014 0401 	ands.w	r4, r4, #1
 8006a92:	d1fb      	bne.n	8006a8c <dmaStreamAllocate+0x5c>
 8006a94:	f895 c008 	ldrb.w	ip, [r5, #8]
 8006a98:	686e      	ldr	r6, [r5, #4]
 8006a9a:	233d      	movs	r3, #61	; 0x3d
 8006a9c:	fa03 f30c 	lsl.w	r3, r3, ip
 8006aa0:	f04f 0c21 	mov.w	ip, #33	; 0x21
 8006aa4:	6033      	str	r3, [r6, #0]
 8006aa6:	6004      	str	r4, [r0, #0]
 8006aa8:	f8c0 c014 	str.w	ip, [r0, #20]
 8006aac:	b17a      	cbz	r2, 8006ace <dmaStreamAllocate+0x9e>
 8006aae:	7aa8      	ldrb	r0, [r5, #10]
 8006ab0:	f7ff fc9e 	bl	80063f0 <nvicEnableVector>
 8006ab4:	4620      	mov	r0, r4
 8006ab6:	9a05      	ldr	r2, [sp, #20]
 8006ab8:	683b      	ldr	r3, [r7, #0]
 8006aba:	429a      	cmp	r2, r3
 8006abc:	d113      	bne.n	8006ae6 <dmaStreamAllocate+0xb6>
 8006abe:	b007      	add	sp, #28
 8006ac0:	bdf0      	pop	{r4, r5, r6, r7, pc}
 8006ac2:	480c      	ldr	r0, [pc, #48]	; (8006af4 <dmaStreamAllocate+0xc4>)
 8006ac4:	6b03      	ldr	r3, [r0, #48]	; 0x30
 8006ac6:	f443 0380 	orr.w	r3, r3, #4194304	; 0x400000
 8006aca:	6303      	str	r3, [r0, #48]	; 0x30
 8006acc:	e7d9      	b.n	8006a82 <dmaStreamAllocate+0x52>
 8006ace:	4610      	mov	r0, r2
 8006ad0:	e7f1      	b.n	8006ab6 <dmaStreamAllocate+0x86>
 8006ad2:	4809      	ldr	r0, [pc, #36]	; (8006af8 <dmaStreamAllocate+0xc8>)
 8006ad4:	9101      	str	r1, [sp, #4]
 8006ad6:	e9cd 2302 	strd	r2, r3, [sp, #8]
 8006ada:	f7fc f889 	bl	8002bf0 <chSysHalt>
 8006ade:	e9dd 2302 	ldrd	r2, r3, [sp, #8]
 8006ae2:	9901      	ldr	r1, [sp, #4]
 8006ae4:	e7ac      	b.n	8006a40 <dmaStreamAllocate+0x10>
 8006ae6:	f7fa fc13 	bl	8001310 <__stack_chk_fail>
 8006aea:	bf00      	nop
 8006aec:	2000081c 	.word	0x2000081c
 8006af0:	20001f50 	.word	0x20001f50
 8006af4:	40023800 	.word	0x40023800
 8006af8:	0800db80 	.word	0x0800db80
 8006afc:	20001fd0 	.word	0x20001fd0

08006b00 <dmaStreamRelease>:
 8006b00:	b570      	push	{r4, r5, r6, lr}
 8006b02:	4e1b      	ldr	r6, [pc, #108]	; (8006b70 <dmaStreamRelease+0x70>)
 8006b04:	b082      	sub	sp, #8
 8006b06:	6833      	ldr	r3, [r6, #0]
 8006b08:	9301      	str	r3, [sp, #4]
 8006b0a:	4604      	mov	r4, r0
 8006b0c:	b350      	cbz	r0, 8006b64 <dmaStreamRelease+0x64>
 8006b0e:	4d19      	ldr	r5, [pc, #100]	; (8006b74 <dmaStreamRelease+0x74>)
 8006b10:	7a61      	ldrb	r1, [r4, #9]
 8006b12:	682a      	ldr	r2, [r5, #0]
 8006b14:	2301      	movs	r3, #1
 8006b16:	408b      	lsls	r3, r1
 8006b18:	4213      	tst	r3, r2
 8006b1a:	d01f      	beq.n	8006b5c <dmaStreamRelease+0x5c>
 8006b1c:	7aa0      	ldrb	r0, [r4, #10]
 8006b1e:	f7ff fc8f 	bl	8006440 <nvicDisableVector>
 8006b22:	7a61      	ldrb	r1, [r4, #9]
 8006b24:	682b      	ldr	r3, [r5, #0]
 8006b26:	2201      	movs	r2, #1
 8006b28:	408a      	lsls	r2, r1
 8006b2a:	ea23 0302 	bic.w	r3, r3, r2
 8006b2e:	f013 0fff 	tst.w	r3, #255	; 0xff
 8006b32:	602b      	str	r3, [r5, #0]
 8006b34:	d104      	bne.n	8006b40 <dmaStreamRelease+0x40>
 8006b36:	4910      	ldr	r1, [pc, #64]	; (8006b78 <dmaStreamRelease+0x78>)
 8006b38:	6b0a      	ldr	r2, [r1, #48]	; 0x30
 8006b3a:	f422 1200 	bic.w	r2, r2, #2097152	; 0x200000
 8006b3e:	630a      	str	r2, [r1, #48]	; 0x30
 8006b40:	f413 4f7f 	tst.w	r3, #65280	; 0xff00
 8006b44:	d104      	bne.n	8006b50 <dmaStreamRelease+0x50>
 8006b46:	4a0c      	ldr	r2, [pc, #48]	; (8006b78 <dmaStreamRelease+0x78>)
 8006b48:	6b13      	ldr	r3, [r2, #48]	; 0x30
 8006b4a:	f423 0380 	bic.w	r3, r3, #4194304	; 0x400000
 8006b4e:	6313      	str	r3, [r2, #48]	; 0x30
 8006b50:	9a01      	ldr	r2, [sp, #4]
 8006b52:	6833      	ldr	r3, [r6, #0]
 8006b54:	429a      	cmp	r2, r3
 8006b56:	d109      	bne.n	8006b6c <dmaStreamRelease+0x6c>
 8006b58:	b002      	add	sp, #8
 8006b5a:	bd70      	pop	{r4, r5, r6, pc}
 8006b5c:	4807      	ldr	r0, [pc, #28]	; (8006b7c <dmaStreamRelease+0x7c>)
 8006b5e:	f7fc f847 	bl	8002bf0 <chSysHalt>
 8006b62:	e7db      	b.n	8006b1c <dmaStreamRelease+0x1c>
 8006b64:	4805      	ldr	r0, [pc, #20]	; (8006b7c <dmaStreamRelease+0x7c>)
 8006b66:	f7fc f843 	bl	8002bf0 <chSysHalt>
 8006b6a:	e7d0      	b.n	8006b0e <dmaStreamRelease+0xe>
 8006b6c:	f7fa fbd0 	bl	8001310 <__stack_chk_fail>
 8006b70:	2000081c 	.word	0x2000081c
 8006b74:	20001fd0 	.word	0x20001fd0
 8006b78:	40023800 	.word	0x40023800
 8006b7c:	0800dba0 	.word	0x0800dba0

08006b80 <hal_lld_init>:
 8006b80:	b530      	push	{r4, r5, lr}
 8006b82:	4c1c      	ldr	r4, [pc, #112]	; (8006bf4 <hal_lld_init+0x74>)
 8006b84:	4b1c      	ldr	r3, [pc, #112]	; (8006bf8 <hal_lld_init+0x78>)
 8006b86:	6822      	ldr	r2, [r4, #0]
 8006b88:	4d1c      	ldr	r5, [pc, #112]	; (8006bfc <hal_lld_init+0x7c>)
 8006b8a:	b083      	sub	sp, #12
 8006b8c:	f04f 31ff 	mov.w	r1, #4294967295
 8006b90:	9201      	str	r2, [sp, #4]
 8006b92:	2200      	movs	r2, #0
 8006b94:	6918      	ldr	r0, [r3, #16]
 8006b96:	6119      	str	r1, [r3, #16]
 8006b98:	611a      	str	r2, [r3, #16]
 8006b9a:	6958      	ldr	r0, [r3, #20]
 8006b9c:	6159      	str	r1, [r3, #20]
 8006b9e:	615a      	str	r2, [r3, #20]
 8006ba0:	6a18      	ldr	r0, [r3, #32]
 8006ba2:	f060 5080 	orn	r0, r0, #268435456	; 0x10000000
 8006ba6:	6218      	str	r0, [r3, #32]
 8006ba8:	621a      	str	r2, [r3, #32]
 8006baa:	6a58      	ldr	r0, [r3, #36]	; 0x24
 8006bac:	6259      	str	r1, [r3, #36]	; 0x24
 8006bae:	625a      	str	r2, [r3, #36]	; 0x24
 8006bb0:	6c19      	ldr	r1, [r3, #64]	; 0x40
 8006bb2:	f041 5180 	orr.w	r1, r1, #268435456	; 0x10000000
 8006bb6:	6419      	str	r1, [r3, #64]	; 0x40
 8006bb8:	6829      	ldr	r1, [r5, #0]
 8006bba:	f441 7180 	orr.w	r1, r1, #256	; 0x100
 8006bbe:	6029      	str	r1, [r5, #0]
 8006bc0:	6f19      	ldr	r1, [r3, #112]	; 0x70
 8006bc2:	f401 7140 	and.w	r1, r1, #768	; 0x300
 8006bc6:	f5b1 7f00 	cmp.w	r1, #512	; 0x200
 8006bca:	d003      	beq.n	8006bd4 <hal_lld_init+0x54>
 8006bcc:	f44f 3180 	mov.w	r1, #65536	; 0x10000
 8006bd0:	6719      	str	r1, [r3, #112]	; 0x70
 8006bd2:	671a      	str	r2, [r3, #112]	; 0x70
 8006bd4:	4a09      	ldr	r2, [pc, #36]	; (8006bfc <hal_lld_init+0x7c>)
 8006bd6:	6853      	ldr	r3, [r2, #4]
 8006bd8:	f423 7300 	bic.w	r3, r3, #512	; 0x200
 8006bdc:	6053      	str	r3, [r2, #4]
 8006bde:	9a01      	ldr	r2, [sp, #4]
 8006be0:	6823      	ldr	r3, [r4, #0]
 8006be2:	429a      	cmp	r2, r3
 8006be4:	d104      	bne.n	8006bf0 <hal_lld_init+0x70>
 8006be6:	b003      	add	sp, #12
 8006be8:	e8bd 4030 	ldmia.w	sp!, {r4, r5, lr}
 8006bec:	f7ff bee8 	b.w	80069c0 <dmaInit>
 8006bf0:	f7fa fb8e 	bl	8001310 <__stack_chk_fail>
 8006bf4:	2000081c 	.word	0x2000081c
 8006bf8:	40023800 	.word	0x40023800
 8006bfc:	40007000 	.word	0x40007000

08006c00 <stm32_clock_init>:
 8006c00:	b510      	push	{r4, lr}
 8006c02:	4936      	ldr	r1, [pc, #216]	; (8006cdc <stm32_clock_init+0xdc>)
 8006c04:	4b36      	ldr	r3, [pc, #216]	; (8006ce0 <stm32_clock_init+0xe0>)
 8006c06:	6808      	ldr	r0, [r1, #0]
 8006c08:	4a36      	ldr	r2, [pc, #216]	; (8006ce4 <stm32_clock_init+0xe4>)
 8006c0a:	b082      	sub	sp, #8
 8006c0c:	f04f 5480 	mov.w	r4, #268435456	; 0x10000000
 8006c10:	9001      	str	r0, [sp, #4]
 8006c12:	f44f 4040 	mov.w	r0, #49152	; 0xc000
 8006c16:	641c      	str	r4, [r3, #64]	; 0x40
 8006c18:	6010      	str	r0, [r2, #0]
 8006c1a:	681a      	ldr	r2, [r3, #0]
 8006c1c:	f042 0201 	orr.w	r2, r2, #1
 8006c20:	601a      	str	r2, [r3, #0]
 8006c22:	681a      	ldr	r2, [r3, #0]
 8006c24:	0790      	lsls	r0, r2, #30
 8006c26:	d5fc      	bpl.n	8006c22 <stm32_clock_init+0x22>
 8006c28:	6898      	ldr	r0, [r3, #8]
 8006c2a:	4a2d      	ldr	r2, [pc, #180]	; (8006ce0 <stm32_clock_init+0xe0>)
 8006c2c:	f020 0003 	bic.w	r0, r0, #3
 8006c30:	6098      	str	r0, [r3, #8]
 8006c32:	6898      	ldr	r0, [r3, #8]
 8006c34:	6098      	str	r0, [r3, #8]
 8006c36:	6893      	ldr	r3, [r2, #8]
 8006c38:	f013 030c 	ands.w	r3, r3, #12
 8006c3c:	d1fb      	bne.n	8006c36 <stm32_clock_init+0x36>
 8006c3e:	6814      	ldr	r4, [r2, #0]
 8006c40:	4827      	ldr	r0, [pc, #156]	; (8006ce0 <stm32_clock_init+0xe0>)
 8006c42:	f004 04f9 	and.w	r4, r4, #249	; 0xf9
 8006c46:	6014      	str	r4, [r2, #0]
 8006c48:	6093      	str	r3, [r2, #8]
 8006c4a:	6813      	ldr	r3, [r2, #0]
 8006c4c:	f443 23a0 	orr.w	r3, r3, #327680	; 0x50000
 8006c50:	6013      	str	r3, [r2, #0]
 8006c52:	6803      	ldr	r3, [r0, #0]
 8006c54:	039a      	lsls	r2, r3, #14
 8006c56:	d5fc      	bpl.n	8006c52 <stm32_clock_init+0x52>
 8006c58:	6f43      	ldr	r3, [r0, #116]	; 0x74
 8006c5a:	4a21      	ldr	r2, [pc, #132]	; (8006ce0 <stm32_clock_init+0xe0>)
 8006c5c:	f043 0301 	orr.w	r3, r3, #1
 8006c60:	6743      	str	r3, [r0, #116]	; 0x74
 8006c62:	6f53      	ldr	r3, [r2, #116]	; 0x74
 8006c64:	079b      	lsls	r3, r3, #30
 8006c66:	d5fc      	bpl.n	8006c62 <stm32_clock_init+0x62>
 8006c68:	4b1f      	ldr	r3, [pc, #124]	; (8006ce8 <stm32_clock_init+0xe8>)
 8006c6a:	6053      	str	r3, [r2, #4]
 8006c6c:	6813      	ldr	r3, [r2, #0]
 8006c6e:	481d      	ldr	r0, [pc, #116]	; (8006ce4 <stm32_clock_init+0xe4>)
 8006c70:	f043 7380 	orr.w	r3, r3, #16777216	; 0x1000000
 8006c74:	6013      	str	r3, [r2, #0]
 8006c76:	6843      	ldr	r3, [r0, #4]
 8006c78:	045c      	lsls	r4, r3, #17
 8006c7a:	d5fc      	bpl.n	8006c76 <stm32_clock_init+0x76>
 8006c7c:	4a18      	ldr	r2, [pc, #96]	; (8006ce0 <stm32_clock_init+0xe0>)
 8006c7e:	6813      	ldr	r3, [r2, #0]
 8006c80:	0198      	lsls	r0, r3, #6
 8006c82:	d5fc      	bpl.n	8006c7e <stm32_clock_init+0x7e>
 8006c84:	4b19      	ldr	r3, [pc, #100]	; (8006cec <stm32_clock_init+0xec>)
 8006c86:	f8c2 3084 	str.w	r3, [r2, #132]	; 0x84
 8006c8a:	6813      	ldr	r3, [r2, #0]
 8006c8c:	4814      	ldr	r0, [pc, #80]	; (8006ce0 <stm32_clock_init+0xe0>)
 8006c8e:	f043 6380 	orr.w	r3, r3, #67108864	; 0x4000000
 8006c92:	6013      	str	r3, [r2, #0]
 8006c94:	6803      	ldr	r3, [r0, #0]
 8006c96:	011b      	lsls	r3, r3, #4
 8006c98:	d5fc      	bpl.n	8006c94 <stm32_clock_init+0x94>
 8006c9a:	4b15      	ldr	r3, [pc, #84]	; (8006cf0 <stm32_clock_init+0xf0>)
 8006c9c:	4a15      	ldr	r2, [pc, #84]	; (8006cf4 <stm32_clock_init+0xf4>)
 8006c9e:	6082      	str	r2, [r0, #8]
 8006ca0:	f240 7205 	movw	r2, #1797	; 0x705
 8006ca4:	601a      	str	r2, [r3, #0]
 8006ca6:	6883      	ldr	r3, [r0, #8]
 8006ca8:	4a0d      	ldr	r2, [pc, #52]	; (8006ce0 <stm32_clock_init+0xe0>)
 8006caa:	f043 0302 	orr.w	r3, r3, #2
 8006cae:	6083      	str	r3, [r0, #8]
 8006cb0:	6893      	ldr	r3, [r2, #8]
 8006cb2:	f003 030c 	and.w	r3, r3, #12
 8006cb6:	2b08      	cmp	r3, #8
 8006cb8:	d1fa      	bne.n	8006cb0 <stm32_clock_init+0xb0>
 8006cba:	6c53      	ldr	r3, [r2, #68]	; 0x44
 8006cbc:	f443 4380 	orr.w	r3, r3, #16384	; 0x4000
 8006cc0:	6453      	str	r3, [r2, #68]	; 0x44
 8006cc2:	6e53      	ldr	r3, [r2, #100]	; 0x64
 8006cc4:	f443 4380 	orr.w	r3, r3, #16384	; 0x4000
 8006cc8:	6653      	str	r3, [r2, #100]	; 0x64
 8006cca:	9a01      	ldr	r2, [sp, #4]
 8006ccc:	680b      	ldr	r3, [r1, #0]
 8006cce:	429a      	cmp	r2, r3
 8006cd0:	d101      	bne.n	8006cd6 <stm32_clock_init+0xd6>
 8006cd2:	b002      	add	sp, #8
 8006cd4:	bd10      	pop	{r4, pc}
 8006cd6:	f7fa fb1b 	bl	8001310 <__stack_chk_fail>
 8006cda:	bf00      	nop
 8006cdc:	2000081c 	.word	0x2000081c
 8006ce0:	40023800 	.word	0x40023800
 8006ce4:	40007000 	.word	0x40007000
 8006ce8:	07405418 	.word	0x07405418
 8006cec:	60003000 	.word	0x60003000
 8006cf0:	40023c00 	.word	0x40023c00
 8006cf4:	38089400 	.word	0x38089400
	...

08006d00 <Vector88>:
 8006d00:	b5f0      	push	{r4, r5, r6, r7, lr}
 8006d02:	4c6f      	ldr	r4, [pc, #444]	; (8006ec0 <Vector88+0x1c0>)
 8006d04:	b083      	sub	sp, #12
 8006d06:	6823      	ldr	r3, [r4, #0]
 8006d08:	9301      	str	r3, [sp, #4]
 8006d0a:	f7fd f849 	bl	8003da0 <_stats_increase_irq>
 8006d0e:	f7fc f88f 	bl	8002e30 <_dbg_check_enter_isr>
 8006d12:	4b6c      	ldr	r3, [pc, #432]	; (8006ec4 <Vector88+0x1c4>)
 8006d14:	681a      	ldr	r2, [r3, #0]
 8006d16:	2100      	movs	r1, #0
 8006d18:	6019      	str	r1, [r3, #0]
 8006d1a:	0691      	lsls	r1, r2, #26
 8006d1c:	d506      	bpl.n	8006d2c <Vector88+0x2c>
 8006d1e:	4d6a      	ldr	r5, [pc, #424]	; (8006ec8 <Vector88+0x1c8>)
 8006d20:	6b29      	ldr	r1, [r5, #48]	; 0x30
 8006d22:	680a      	ldr	r2, [r1, #0]
 8006d24:	6853      	ldr	r3, [r2, #4]
 8006d26:	2b00      	cmp	r3, #0
 8006d28:	f040 8090 	bne.w	8006e4c <Vector88+0x14c>
 8006d2c:	4b67      	ldr	r3, [pc, #412]	; (8006ecc <Vector88+0x1cc>)
 8006d2e:	681a      	ldr	r2, [r3, #0]
 8006d30:	2100      	movs	r1, #0
 8006d32:	0692      	lsls	r2, r2, #26
 8006d34:	6019      	str	r1, [r3, #0]
 8006d36:	d505      	bpl.n	8006d44 <Vector88+0x44>
 8006d38:	4d65      	ldr	r5, [pc, #404]	; (8006ed0 <Vector88+0x1d0>)
 8006d3a:	6b29      	ldr	r1, [r5, #48]	; 0x30
 8006d3c:	680a      	ldr	r2, [r1, #0]
 8006d3e:	6853      	ldr	r3, [r2, #4]
 8006d40:	2b00      	cmp	r3, #0
 8006d42:	d14c      	bne.n	8006dde <Vector88+0xde>
 8006d44:	4b63      	ldr	r3, [pc, #396]	; (8006ed4 <Vector88+0x1d4>)
 8006d46:	681a      	ldr	r2, [r3, #0]
 8006d48:	2100      	movs	r1, #0
 8006d4a:	6019      	str	r1, [r3, #0]
 8006d4c:	0693      	lsls	r3, r2, #26
 8006d4e:	d53b      	bpl.n	8006dc8 <Vector88+0xc8>
 8006d50:	4d61      	ldr	r5, [pc, #388]	; (8006ed8 <Vector88+0x1d8>)
 8006d52:	6b29      	ldr	r1, [r5, #48]	; 0x30
 8006d54:	680a      	ldr	r2, [r1, #0]
 8006d56:	6853      	ldr	r3, [r2, #4]
 8006d58:	2b00      	cmp	r3, #0
 8006d5a:	d035      	beq.n	8006dc8 <Vector88+0xc8>
 8006d5c:	692e      	ldr	r6, [r5, #16]
 8006d5e:	2e00      	cmp	r6, #0
 8006d60:	d032      	beq.n	8006dc8 <Vector88+0xc8>
 8006d62:	6813      	ldr	r3, [r2, #0]
 8006d64:	f023 031f 	bic.w	r3, r3, #31
 8006d68:	6013      	str	r3, [r2, #0]
 8006d6a:	6813      	ldr	r3, [r2, #0]
 8006d6c:	f013 0301 	ands.w	r3, r3, #1
 8006d70:	d1fb      	bne.n	8006d6a <Vector88+0x6a>
 8006d72:	f891 c008 	ldrb.w	ip, [r1, #8]
 8006d76:	684f      	ldr	r7, [r1, #4]
 8006d78:	68b6      	ldr	r6, [r6, #8]
 8006d7a:	6aea      	ldr	r2, [r5, #44]	; 0x2c
 8006d7c:	203d      	movs	r0, #61	; 0x3d
 8006d7e:	fa00 f00c 	lsl.w	r0, r0, ip
 8006d82:	2101      	movs	r1, #1
 8006d84:	6038      	str	r0, [r7, #0]
 8006d86:	6053      	str	r3, [r2, #4]
 8006d88:	6093      	str	r3, [r2, #8]
 8006d8a:	6091      	str	r1, [r2, #8]
 8006d8c:	b146      	cbz	r6, 8006da0 <Vector88+0xa0>
 8006d8e:	2305      	movs	r3, #5
 8006d90:	702b      	strb	r3, [r5, #0]
 8006d92:	4851      	ldr	r0, [pc, #324]	; (8006ed8 <Vector88+0x1d8>)
 8006d94:	47b0      	blx	r6
 8006d96:	782b      	ldrb	r3, [r5, #0]
 8006d98:	2b05      	cmp	r3, #5
 8006d9a:	bf04      	itt	eq
 8006d9c:	2302      	moveq	r3, #2
 8006d9e:	702b      	strbeq	r3, [r5, #0]
 8006da0:	2600      	movs	r6, #0
 8006da2:	612e      	str	r6, [r5, #16]
 8006da4:	2320      	movs	r3, #32
 8006da6:	f383 8811 	msr	BASEPRI, r3
 8006daa:	f7fd f861 	bl	8003e70 <_stats_start_measure_crit_isr>
 8006dae:	f7fb ffff 	bl	8002db0 <_dbg_check_lock_from_isr>
 8006db2:	f04f 31ff 	mov.w	r1, #4294967295
 8006db6:	4849      	ldr	r0, [pc, #292]	; (8006edc <Vector88+0x1dc>)
 8006db8:	f7fc fe5a 	bl	8003a70 <chThdResumeI>
 8006dbc:	f7fc f818 	bl	8002df0 <_dbg_check_unlock_from_isr>
 8006dc0:	f7fd f86e 	bl	8003ea0 <_stats_stop_measure_crit_isr>
 8006dc4:	f386 8811 	msr	BASEPRI, r6
 8006dc8:	f7fc f85a 	bl	8002e80 <_dbg_check_leave_isr>
 8006dcc:	9a01      	ldr	r2, [sp, #4]
 8006dce:	6823      	ldr	r3, [r4, #0]
 8006dd0:	429a      	cmp	r2, r3
 8006dd2:	d173      	bne.n	8006ebc <Vector88+0x1bc>
 8006dd4:	b003      	add	sp, #12
 8006dd6:	e8bd 40f0 	ldmia.w	sp!, {r4, r5, r6, r7, lr}
 8006dda:	f7fd be39 	b.w	8004a50 <_port_irq_epilogue>
 8006dde:	692e      	ldr	r6, [r5, #16]
 8006de0:	2e00      	cmp	r6, #0
 8006de2:	d0af      	beq.n	8006d44 <Vector88+0x44>
 8006de4:	6813      	ldr	r3, [r2, #0]
 8006de6:	f023 031f 	bic.w	r3, r3, #31
 8006dea:	6013      	str	r3, [r2, #0]
 8006dec:	6813      	ldr	r3, [r2, #0]
 8006dee:	f013 0301 	ands.w	r3, r3, #1
 8006df2:	d1fb      	bne.n	8006dec <Vector88+0xec>
 8006df4:	f891 c008 	ldrb.w	ip, [r1, #8]
 8006df8:	684f      	ldr	r7, [r1, #4]
 8006dfa:	68b6      	ldr	r6, [r6, #8]
 8006dfc:	6aea      	ldr	r2, [r5, #44]	; 0x2c
 8006dfe:	203d      	movs	r0, #61	; 0x3d
 8006e00:	fa00 f00c 	lsl.w	r0, r0, ip
 8006e04:	2101      	movs	r1, #1
 8006e06:	6038      	str	r0, [r7, #0]
 8006e08:	6053      	str	r3, [r2, #4]
 8006e0a:	6093      	str	r3, [r2, #8]
 8006e0c:	6091      	str	r1, [r2, #8]
 8006e0e:	b146      	cbz	r6, 8006e22 <Vector88+0x122>
 8006e10:	2305      	movs	r3, #5
 8006e12:	702b      	strb	r3, [r5, #0]
 8006e14:	482e      	ldr	r0, [pc, #184]	; (8006ed0 <Vector88+0x1d0>)
 8006e16:	47b0      	blx	r6
 8006e18:	782b      	ldrb	r3, [r5, #0]
 8006e1a:	2b05      	cmp	r3, #5
 8006e1c:	bf04      	itt	eq
 8006e1e:	2302      	moveq	r3, #2
 8006e20:	702b      	strbeq	r3, [r5, #0]
 8006e22:	2600      	movs	r6, #0
 8006e24:	612e      	str	r6, [r5, #16]
 8006e26:	2320      	movs	r3, #32
 8006e28:	f383 8811 	msr	BASEPRI, r3
 8006e2c:	f7fd f820 	bl	8003e70 <_stats_start_measure_crit_isr>
 8006e30:	f7fb ffbe 	bl	8002db0 <_dbg_check_lock_from_isr>
 8006e34:	f04f 31ff 	mov.w	r1, #4294967295
 8006e38:	4829      	ldr	r0, [pc, #164]	; (8006ee0 <Vector88+0x1e0>)
 8006e3a:	f7fc fe19 	bl	8003a70 <chThdResumeI>
 8006e3e:	f7fb ffd7 	bl	8002df0 <_dbg_check_unlock_from_isr>
 8006e42:	f7fd f82d 	bl	8003ea0 <_stats_stop_measure_crit_isr>
 8006e46:	f386 8811 	msr	BASEPRI, r6
 8006e4a:	e77b      	b.n	8006d44 <Vector88+0x44>
 8006e4c:	692e      	ldr	r6, [r5, #16]
 8006e4e:	2e00      	cmp	r6, #0
 8006e50:	f43f af6c 	beq.w	8006d2c <Vector88+0x2c>
 8006e54:	6813      	ldr	r3, [r2, #0]
 8006e56:	f023 031f 	bic.w	r3, r3, #31
 8006e5a:	6013      	str	r3, [r2, #0]
 8006e5c:	6813      	ldr	r3, [r2, #0]
 8006e5e:	f013 0301 	ands.w	r3, r3, #1
 8006e62:	d1fb      	bne.n	8006e5c <Vector88+0x15c>
 8006e64:	f891 c008 	ldrb.w	ip, [r1, #8]
 8006e68:	684f      	ldr	r7, [r1, #4]
 8006e6a:	68b6      	ldr	r6, [r6, #8]
 8006e6c:	6aea      	ldr	r2, [r5, #44]	; 0x2c
 8006e6e:	203d      	movs	r0, #61	; 0x3d
 8006e70:	fa00 f00c 	lsl.w	r0, r0, ip
 8006e74:	2101      	movs	r1, #1
 8006e76:	6038      	str	r0, [r7, #0]
 8006e78:	6053      	str	r3, [r2, #4]
 8006e7a:	6093      	str	r3, [r2, #8]
 8006e7c:	6091      	str	r1, [r2, #8]
 8006e7e:	b146      	cbz	r6, 8006e92 <Vector88+0x192>
 8006e80:	2305      	movs	r3, #5
 8006e82:	702b      	strb	r3, [r5, #0]
 8006e84:	4810      	ldr	r0, [pc, #64]	; (8006ec8 <Vector88+0x1c8>)
 8006e86:	47b0      	blx	r6
 8006e88:	782b      	ldrb	r3, [r5, #0]
 8006e8a:	2b05      	cmp	r3, #5
 8006e8c:	bf04      	itt	eq
 8006e8e:	2302      	moveq	r3, #2
 8006e90:	702b      	strbeq	r3, [r5, #0]
 8006e92:	2600      	movs	r6, #0
 8006e94:	612e      	str	r6, [r5, #16]
 8006e96:	2320      	movs	r3, #32
 8006e98:	f383 8811 	msr	BASEPRI, r3
 8006e9c:	f7fc ffe8 	bl	8003e70 <_stats_start_measure_crit_isr>
 8006ea0:	f7fb ff86 	bl	8002db0 <_dbg_check_lock_from_isr>
 8006ea4:	f04f 31ff 	mov.w	r1, #4294967295
 8006ea8:	480e      	ldr	r0, [pc, #56]	; (8006ee4 <Vector88+0x1e4>)
 8006eaa:	f7fc fde1 	bl	8003a70 <chThdResumeI>
 8006eae:	f7fb ff9f 	bl	8002df0 <_dbg_check_unlock_from_isr>
 8006eb2:	f7fc fff5 	bl	8003ea0 <_stats_stop_measure_crit_isr>
 8006eb6:	f386 8811 	msr	BASEPRI, r6
 8006eba:	e737      	b.n	8006d2c <Vector88+0x2c>
 8006ebc:	f7fa fa28 	bl	8001310 <__stack_chk_fail>
 8006ec0:	2000081c 	.word	0x2000081c
 8006ec4:	40012000 	.word	0x40012000
 8006ec8:	20001fd4 	.word	0x20001fd4
 8006ecc:	40012100 	.word	0x40012100
 8006ed0:	2000200c 	.word	0x2000200c
 8006ed4:	40012200 	.word	0x40012200
 8006ed8:	20002044 	.word	0x20002044
 8006edc:	20002058 	.word	0x20002058
 8006ee0:	20002020 	.word	0x20002020
 8006ee4:	20001fe8 	.word	0x20001fe8
	...

08006ef0 <adc_lld_init>:
 8006ef0:	e92d 41f0 	stmdb	sp!, {r4, r5, r6, r7, r8, lr}
 8006ef4:	4f19      	ldr	r7, [pc, #100]	; (8006f5c <adc_lld_init+0x6c>)
 8006ef6:	f8df 808c 	ldr.w	r8, [pc, #140]	; 8006f84 <adc_lld_init+0x94>
 8006efa:	4e19      	ldr	r6, [pc, #100]	; (8006f60 <adc_lld_init+0x70>)
 8006efc:	f8d8 3000 	ldr.w	r3, [r8]
 8006f00:	4c18      	ldr	r4, [pc, #96]	; (8006f64 <adc_lld_init+0x74>)
 8006f02:	4d19      	ldr	r5, [pc, #100]	; (8006f68 <adc_lld_init+0x78>)
 8006f04:	b082      	sub	sp, #8
 8006f06:	4638      	mov	r0, r7
 8006f08:	9301      	str	r3, [sp, #4]
 8006f0a:	f7fd fed9 	bl	8004cc0 <adcObjectInit>
 8006f0e:	4b17      	ldr	r3, [pc, #92]	; (8006f6c <adc_lld_init+0x7c>)
 8006f10:	62fb      	str	r3, [r7, #44]	; 0x2c
 8006f12:	4630      	mov	r0, r6
 8006f14:	4b16      	ldr	r3, [pc, #88]	; (8006f70 <adc_lld_init+0x80>)
 8006f16:	637b      	str	r3, [r7, #52]	; 0x34
 8006f18:	633c      	str	r4, [r7, #48]	; 0x30
 8006f1a:	f7fd fed1 	bl	8004cc0 <adcObjectInit>
 8006f1e:	4a15      	ldr	r2, [pc, #84]	; (8006f74 <adc_lld_init+0x84>)
 8006f20:	4b15      	ldr	r3, [pc, #84]	; (8006f78 <adc_lld_init+0x88>)
 8006f22:	62f2      	str	r2, [r6, #44]	; 0x2c
 8006f24:	4628      	mov	r0, r5
 8006f26:	f1a4 0218 	sub.w	r2, r4, #24
 8006f2a:	6332      	str	r2, [r6, #48]	; 0x30
 8006f2c:	6373      	str	r3, [r6, #52]	; 0x34
 8006f2e:	f7fd fec7 	bl	8004cc0 <adcObjectInit>
 8006f32:	9a01      	ldr	r2, [sp, #4]
 8006f34:	f8d8 3000 	ldr.w	r3, [r8]
 8006f38:	4910      	ldr	r1, [pc, #64]	; (8006f7c <adc_lld_init+0x8c>)
 8006f3a:	4811      	ldr	r0, [pc, #68]	; (8006f80 <adc_lld_init+0x90>)
 8006f3c:	62e8      	str	r0, [r5, #44]	; 0x2c
 8006f3e:	3c24      	subs	r4, #36	; 0x24
 8006f40:	429a      	cmp	r2, r3
 8006f42:	e9c5 410c 	strd	r4, r1, [r5, #48]	; 0x30
 8006f46:	d106      	bne.n	8006f56 <adc_lld_init+0x66>
 8006f48:	2106      	movs	r1, #6
 8006f4a:	2012      	movs	r0, #18
 8006f4c:	b002      	add	sp, #8
 8006f4e:	e8bd 41f0 	ldmia.w	sp!, {r4, r5, r6, r7, r8, lr}
 8006f52:	f7ff ba4d 	b.w	80063f0 <nvicEnableVector>
 8006f56:	f7fa f9db 	bl	8001310 <__stack_chk_fail>
 8006f5a:	bf00      	nop
 8006f5c:	20001fd4 	.word	0x20001fd4
 8006f60:	2000200c 	.word	0x2000200c
 8006f64:	0800dc50 	.word	0x0800dc50
 8006f68:	20002044 	.word	0x20002044
 8006f6c:	40012000 	.word	0x40012000
 8006f70:	00022c16 	.word	0x00022c16
 8006f74:	40012100 	.word	0x40012100
 8006f78:	02022c16 	.word	0x02022c16
 8006f7c:	04022c16 	.word	0x04022c16
 8006f80:	40012200 	.word	0x40012200
 8006f84:	2000081c 	.word	0x2000081c
	...

08006f90 <Vector58>:
 8006f90:	b510      	push	{r4, lr}
 8006f92:	4c0e      	ldr	r4, [pc, #56]	; (8006fcc <Vector58+0x3c>)
 8006f94:	b082      	sub	sp, #8
 8006f96:	6823      	ldr	r3, [r4, #0]
 8006f98:	9301      	str	r3, [sp, #4]
 8006f9a:	f7fc ff01 	bl	8003da0 <_stats_increase_irq>
 8006f9e:	f7fb ff47 	bl	8002e30 <_dbg_check_enter_isr>
 8006fa2:	480b      	ldr	r0, [pc, #44]	; (8006fd0 <Vector58+0x40>)
 8006fa4:	4a0b      	ldr	r2, [pc, #44]	; (8006fd4 <Vector58+0x44>)
 8006fa6:	6843      	ldr	r3, [r0, #4]
 8006fa8:	2101      	movs	r1, #1
 8006faa:	685b      	ldr	r3, [r3, #4]
 8006fac:	6151      	str	r1, [r2, #20]
 8006fae:	2100      	movs	r1, #0
 8006fb0:	4798      	blx	r3
 8006fb2:	f7fb ff65 	bl	8002e80 <_dbg_check_leave_isr>
 8006fb6:	9a01      	ldr	r2, [sp, #4]
 8006fb8:	6823      	ldr	r3, [r4, #0]
 8006fba:	429a      	cmp	r2, r3
 8006fbc:	d104      	bne.n	8006fc8 <Vector58+0x38>
 8006fbe:	b002      	add	sp, #8
 8006fc0:	e8bd 4010 	ldmia.w	sp!, {r4, lr}
 8006fc4:	f7fd bd44 	b.w	8004a50 <_port_irq_epilogue>
 8006fc8:	f7fa f9a2 	bl	8001310 <__stack_chk_fail>
 8006fcc:	2000081c 	.word	0x2000081c
 8006fd0:	200020ac 	.word	0x200020ac
 8006fd4:	40013c00 	.word	0x40013c00
	...

08006fe0 <Vector5C>:
 8006fe0:	b510      	push	{r4, lr}
 8006fe2:	4c0e      	ldr	r4, [pc, #56]	; (800701c <Vector5C+0x3c>)
 8006fe4:	b082      	sub	sp, #8
 8006fe6:	6823      	ldr	r3, [r4, #0]
 8006fe8:	9301      	str	r3, [sp, #4]
 8006fea:	f7fc fed9 	bl	8003da0 <_stats_increase_irq>
 8006fee:	f7fb ff1f 	bl	8002e30 <_dbg_check_enter_isr>
 8006ff2:	480b      	ldr	r0, [pc, #44]	; (8007020 <Vector5C+0x40>)
 8006ff4:	4a0b      	ldr	r2, [pc, #44]	; (8007024 <Vector5C+0x44>)
 8006ff6:	6843      	ldr	r3, [r0, #4]
 8006ff8:	2102      	movs	r1, #2
 8006ffa:	68db      	ldr	r3, [r3, #12]
 8006ffc:	6151      	str	r1, [r2, #20]
 8006ffe:	2101      	movs	r1, #1
 8007000:	4798      	blx	r3
 8007002:	f7fb ff3d 	bl	8002e80 <_dbg_check_leave_isr>
 8007006:	9a01      	ldr	r2, [sp, #4]
 8007008:	6823      	ldr	r3, [r4, #0]
 800700a:	429a      	cmp	r2, r3
 800700c:	d104      	bne.n	8007018 <Vector5C+0x38>
 800700e:	b002      	add	sp, #8
 8007010:	e8bd 4010 	ldmia.w	sp!, {r4, lr}
 8007014:	f7fd bd1c 	b.w	8004a50 <_port_irq_epilogue>
 8007018:	f7fa f97a 	bl	8001310 <__stack_chk_fail>
 800701c:	2000081c 	.word	0x2000081c
 8007020:	200020ac 	.word	0x200020ac
 8007024:	40013c00 	.word	0x40013c00
	...

08007030 <Vector60>:
 8007030:	b510      	push	{r4, lr}
 8007032:	4c0e      	ldr	r4, [pc, #56]	; (800706c <Vector60+0x3c>)
 8007034:	b082      	sub	sp, #8
 8007036:	6823      	ldr	r3, [r4, #0]
 8007038:	9301      	str	r3, [sp, #4]
 800703a:	f7fc feb1 	bl	8003da0 <_stats_increase_irq>
 800703e:	f7fb fef7 	bl	8002e30 <_dbg_check_enter_isr>
 8007042:	480b      	ldr	r0, [pc, #44]	; (8007070 <Vector60+0x40>)
 8007044:	4a0b      	ldr	r2, [pc, #44]	; (8007074 <Vector60+0x44>)
 8007046:	6843      	ldr	r3, [r0, #4]
 8007048:	2104      	movs	r1, #4
 800704a:	695b      	ldr	r3, [r3, #20]
 800704c:	6151      	str	r1, [r2, #20]
 800704e:	2102      	movs	r1, #2
 8007050:	4798      	blx	r3
 8007052:	f7fb ff15 	bl	8002e80 <_dbg_check_leave_isr>
 8007056:	9a01      	ldr	r2, [sp, #4]
 8007058:	6823      	ldr	r3, [r4, #0]
 800705a:	429a      	cmp	r2, r3
 800705c:	d104      	bne.n	8007068 <Vector60+0x38>
 800705e:	b002      	add	sp, #8
 8007060:	e8bd 4010 	ldmia.w	sp!, {r4, lr}
 8007064:	f7fd bcf4 	b.w	8004a50 <_port_irq_epilogue>
 8007068:	f7fa f952 	bl	8001310 <__stack_chk_fail>
 800706c:	2000081c 	.word	0x2000081c
 8007070:	200020ac 	.word	0x200020ac
 8007074:	40013c00 	.word	0x40013c00
	...

08007080 <Vector64>:
 8007080:	b510      	push	{r4, lr}
 8007082:	4c0e      	ldr	r4, [pc, #56]	; (80070bc <Vector64+0x3c>)
 8007084:	b082      	sub	sp, #8
 8007086:	6823      	ldr	r3, [r4, #0]
 8007088:	9301      	str	r3, [sp, #4]
 800708a:	f7fc fe89 	bl	8003da0 <_stats_increase_irq>
 800708e:	f7fb fecf 	bl	8002e30 <_dbg_check_enter_isr>
 8007092:	480b      	ldr	r0, [pc, #44]	; (80070c0 <Vector64+0x40>)
 8007094:	4a0b      	ldr	r2, [pc, #44]	; (80070c4 <Vector64+0x44>)
 8007096:	6843      	ldr	r3, [r0, #4]
 8007098:	2108      	movs	r1, #8
 800709a:	69db      	ldr	r3, [r3, #28]
 800709c:	6151      	str	r1, [r2, #20]
 800709e:	2103      	movs	r1, #3
 80070a0:	4798      	blx	r3
 80070a2:	f7fb feed 	bl	8002e80 <_dbg_check_leave_isr>
 80070a6:	9a01      	ldr	r2, [sp, #4]
 80070a8:	6823      	ldr	r3, [r4, #0]
 80070aa:	429a      	cmp	r2, r3
 80070ac:	d104      	bne.n	80070b8 <Vector64+0x38>
 80070ae:	b002      	add	sp, #8
 80070b0:	e8bd 4010 	ldmia.w	sp!, {r4, lr}
 80070b4:	f7fd bccc 	b.w	8004a50 <_port_irq_epilogue>
 80070b8:	f7fa f92a 	bl	8001310 <__stack_chk_fail>
 80070bc:	2000081c 	.word	0x2000081c
 80070c0:	200020ac 	.word	0x200020ac
 80070c4:	40013c00 	.word	0x40013c00
	...

080070d0 <Vector68>:
 80070d0:	b510      	push	{r4, lr}
 80070d2:	4c0e      	ldr	r4, [pc, #56]	; (800710c <Vector68+0x3c>)
 80070d4:	b082      	sub	sp, #8
 80070d6:	6823      	ldr	r3, [r4, #0]
 80070d8:	9301      	str	r3, [sp, #4]
 80070da:	f7fc fe61 	bl	8003da0 <_stats_increase_irq>
 80070de:	f7fb fea7 	bl	8002e30 <_dbg_check_enter_isr>
 80070e2:	480b      	ldr	r0, [pc, #44]	; (8007110 <Vector68+0x40>)
 80070e4:	4a0b      	ldr	r2, [pc, #44]	; (8007114 <Vector68+0x44>)
 80070e6:	6843      	ldr	r3, [r0, #4]
 80070e8:	2110      	movs	r1, #16
 80070ea:	6a5b      	ldr	r3, [r3, #36]	; 0x24
 80070ec:	6151      	str	r1, [r2, #20]
 80070ee:	2104      	movs	r1, #4
 80070f0:	4798      	blx	r3
 80070f2:	f7fb fec5 	bl	8002e80 <_dbg_check_leave_isr>
 80070f6:	9a01      	ldr	r2, [sp, #4]
 80070f8:	6823      	ldr	r3, [r4, #0]
 80070fa:	429a      	cmp	r2, r3
 80070fc:	d104      	bne.n	8007108 <Vector68+0x38>
 80070fe:	b002      	add	sp, #8
 8007100:	e8bd 4010 	ldmia.w	sp!, {r4, lr}
 8007104:	f7fd bca4 	b.w	8004a50 <_port_irq_epilogue>
 8007108:	f7fa f902 	bl	8001310 <__stack_chk_fail>
 800710c:	2000081c 	.word	0x2000081c
 8007110:	200020ac 	.word	0x200020ac
 8007114:	40013c00 	.word	0x40013c00
	...

08007120 <Vector9C>:
 8007120:	b530      	push	{r4, r5, lr}
 8007122:	4d1e      	ldr	r5, [pc, #120]	; (800719c <Vector9C+0x7c>)
 8007124:	b083      	sub	sp, #12
 8007126:	682b      	ldr	r3, [r5, #0]
 8007128:	9301      	str	r3, [sp, #4]
 800712a:	f7fc fe39 	bl	8003da0 <_stats_increase_irq>
 800712e:	f7fb fe7f 	bl	8002e30 <_dbg_check_enter_isr>
 8007132:	4b1b      	ldr	r3, [pc, #108]	; (80071a0 <Vector9C+0x80>)
 8007134:	695c      	ldr	r4, [r3, #20]
 8007136:	f404 7278 	and.w	r2, r4, #992	; 0x3e0
 800713a:	615a      	str	r2, [r3, #20]
 800713c:	06a3      	lsls	r3, r4, #26
 800713e:	d504      	bpl.n	800714a <Vector9C+0x2a>
 8007140:	4818      	ldr	r0, [pc, #96]	; (80071a4 <Vector9C+0x84>)
 8007142:	6843      	ldr	r3, [r0, #4]
 8007144:	2105      	movs	r1, #5
 8007146:	6adb      	ldr	r3, [r3, #44]	; 0x2c
 8007148:	4798      	blx	r3
 800714a:	0660      	lsls	r0, r4, #25
 800714c:	d504      	bpl.n	8007158 <Vector9C+0x38>
 800714e:	4815      	ldr	r0, [pc, #84]	; (80071a4 <Vector9C+0x84>)
 8007150:	6843      	ldr	r3, [r0, #4]
 8007152:	2106      	movs	r1, #6
 8007154:	6b5b      	ldr	r3, [r3, #52]	; 0x34
 8007156:	4798      	blx	r3
 8007158:	0621      	lsls	r1, r4, #24
 800715a:	d504      	bpl.n	8007166 <Vector9C+0x46>
 800715c:	4811      	ldr	r0, [pc, #68]	; (80071a4 <Vector9C+0x84>)
 800715e:	6843      	ldr	r3, [r0, #4]
 8007160:	2107      	movs	r1, #7
 8007162:	6bdb      	ldr	r3, [r3, #60]	; 0x3c
 8007164:	4798      	blx	r3
 8007166:	05e2      	lsls	r2, r4, #23
 8007168:	d504      	bpl.n	8007174 <Vector9C+0x54>
 800716a:	480e      	ldr	r0, [pc, #56]	; (80071a4 <Vector9C+0x84>)
 800716c:	6843      	ldr	r3, [r0, #4]
 800716e:	2108      	movs	r1, #8
 8007170:	6c5b      	ldr	r3, [r3, #68]	; 0x44
 8007172:	4798      	blx	r3
 8007174:	05a3      	lsls	r3, r4, #22
 8007176:	d504      	bpl.n	8007182 <Vector9C+0x62>
 8007178:	480a      	ldr	r0, [pc, #40]	; (80071a4 <Vector9C+0x84>)
 800717a:	6843      	ldr	r3, [r0, #4]
 800717c:	2109      	movs	r1, #9
 800717e:	6cdb      	ldr	r3, [r3, #76]	; 0x4c
 8007180:	4798      	blx	r3
 8007182:	f7fb fe7d 	bl	8002e80 <_dbg_check_leave_isr>
 8007186:	9a01      	ldr	r2, [sp, #4]
 8007188:	682b      	ldr	r3, [r5, #0]
 800718a:	429a      	cmp	r2, r3
 800718c:	d104      	bne.n	8007198 <Vector9C+0x78>
 800718e:	b003      	add	sp, #12
 8007190:	e8bd 4030 	ldmia.w	sp!, {r4, r5, lr}
 8007194:	f7fd bc5c 	b.w	8004a50 <_port_irq_epilogue>
 8007198:	f7fa f8ba 	bl	8001310 <__stack_chk_fail>
 800719c:	2000081c 	.word	0x2000081c
 80071a0:	40013c00 	.word	0x40013c00
 80071a4:	200020ac 	.word	0x200020ac
	...

080071b0 <VectorE0>:
 80071b0:	b530      	push	{r4, r5, lr}
 80071b2:	4d22      	ldr	r5, [pc, #136]	; (800723c <VectorE0+0x8c>)
 80071b4:	b083      	sub	sp, #12
 80071b6:	682b      	ldr	r3, [r5, #0]
 80071b8:	9301      	str	r3, [sp, #4]
 80071ba:	f7fc fdf1 	bl	8003da0 <_stats_increase_irq>
 80071be:	f7fb fe37 	bl	8002e30 <_dbg_check_enter_isr>
 80071c2:	4b1f      	ldr	r3, [pc, #124]	; (8007240 <VectorE0+0x90>)
 80071c4:	695c      	ldr	r4, [r3, #20]
 80071c6:	f404 427c 	and.w	r2, r4, #64512	; 0xfc00
 80071ca:	615a      	str	r2, [r3, #20]
 80071cc:	0562      	lsls	r2, r4, #21
 80071ce:	d504      	bpl.n	80071da <VectorE0+0x2a>
 80071d0:	481c      	ldr	r0, [pc, #112]	; (8007244 <VectorE0+0x94>)
 80071d2:	6843      	ldr	r3, [r0, #4]
 80071d4:	210a      	movs	r1, #10
 80071d6:	6d5b      	ldr	r3, [r3, #84]	; 0x54
 80071d8:	4798      	blx	r3
 80071da:	0523      	lsls	r3, r4, #20
 80071dc:	d504      	bpl.n	80071e8 <VectorE0+0x38>
 80071de:	4819      	ldr	r0, [pc, #100]	; (8007244 <VectorE0+0x94>)
 80071e0:	6843      	ldr	r3, [r0, #4]
 80071e2:	210b      	movs	r1, #11
 80071e4:	6ddb      	ldr	r3, [r3, #92]	; 0x5c
 80071e6:	4798      	blx	r3
 80071e8:	04e0      	lsls	r0, r4, #19
 80071ea:	d504      	bpl.n	80071f6 <VectorE0+0x46>
 80071ec:	4815      	ldr	r0, [pc, #84]	; (8007244 <VectorE0+0x94>)
 80071ee:	6843      	ldr	r3, [r0, #4]
 80071f0:	210c      	movs	r1, #12
 80071f2:	6e5b      	ldr	r3, [r3, #100]	; 0x64
 80071f4:	4798      	blx	r3
 80071f6:	04a1      	lsls	r1, r4, #18
 80071f8:	d504      	bpl.n	8007204 <VectorE0+0x54>
 80071fa:	4812      	ldr	r0, [pc, #72]	; (8007244 <VectorE0+0x94>)
 80071fc:	6843      	ldr	r3, [r0, #4]
 80071fe:	210d      	movs	r1, #13
 8007200:	6edb      	ldr	r3, [r3, #108]	; 0x6c
 8007202:	4798      	blx	r3
 8007204:	0462      	lsls	r2, r4, #17
 8007206:	d504      	bpl.n	8007212 <VectorE0+0x62>
 8007208:	480e      	ldr	r0, [pc, #56]	; (8007244 <VectorE0+0x94>)
 800720a:	6843      	ldr	r3, [r0, #4]
 800720c:	210e      	movs	r1, #14
 800720e:	6f5b      	ldr	r3, [r3, #116]	; 0x74
 8007210:	4798      	blx	r3
 8007212:	0423      	lsls	r3, r4, #16
 8007214:	d504      	bpl.n	8007220 <VectorE0+0x70>
 8007216:	480b      	ldr	r0, [pc, #44]	; (8007244 <VectorE0+0x94>)
 8007218:	6843      	ldr	r3, [r0, #4]
 800721a:	210f      	movs	r1, #15
 800721c:	6fdb      	ldr	r3, [r3, #124]	; 0x7c
 800721e:	4798      	blx	r3
 8007220:	f7fb fe2e 	bl	8002e80 <_dbg_check_leave_isr>
 8007224:	9a01      	ldr	r2, [sp, #4]
 8007226:	682b      	ldr	r3, [r5, #0]
 8007228:	429a      	cmp	r2, r3
 800722a:	d104      	bne.n	8007236 <VectorE0+0x86>
 800722c:	b003      	add	sp, #12
 800722e:	e8bd 4030 	ldmia.w	sp!, {r4, r5, lr}
 8007232:	f7fd bc0d 	b.w	8004a50 <_port_irq_epilogue>
 8007236:	f7fa f86b 	bl	8001310 <__stack_chk_fail>
 800723a:	bf00      	nop
 800723c:	2000081c 	.word	0x2000081c
 8007240:	40013c00 	.word	0x40013c00
 8007244:	200020ac 	.word	0x200020ac
	...

08007250 <Vector44>:
 8007250:	b510      	push	{r4, lr}
 8007252:	4c0f      	ldr	r4, [pc, #60]	; (8007290 <Vector44+0x40>)
 8007254:	b082      	sub	sp, #8
 8007256:	6823      	ldr	r3, [r4, #0]
 8007258:	9301      	str	r3, [sp, #4]
 800725a:	f7fc fda1 	bl	8003da0 <_stats_increase_irq>
 800725e:	f7fb fde7 	bl	8002e30 <_dbg_check_enter_isr>
 8007262:	480c      	ldr	r0, [pc, #48]	; (8007294 <Vector44+0x44>)
 8007264:	4a0c      	ldr	r2, [pc, #48]	; (8007298 <Vector44+0x48>)
 8007266:	6843      	ldr	r3, [r0, #4]
 8007268:	f44f 3180 	mov.w	r1, #65536	; 0x10000
 800726c:	f8d3 3084 	ldr.w	r3, [r3, #132]	; 0x84
 8007270:	6151      	str	r1, [r2, #20]
 8007272:	2110      	movs	r1, #16
 8007274:	4798      	blx	r3
 8007276:	f7fb fe03 	bl	8002e80 <_dbg_check_leave_isr>
 800727a:	9a01      	ldr	r2, [sp, #4]
 800727c:	6823      	ldr	r3, [r4, #0]
 800727e:	429a      	cmp	r2, r3
 8007280:	d104      	bne.n	800728c <Vector44+0x3c>
 8007282:	b002      	add	sp, #8
 8007284:	e8bd 4010 	ldmia.w	sp!, {r4, lr}
 8007288:	f7fd bbe2 	b.w	8004a50 <_port_irq_epilogue>
 800728c:	f7fa f840 	bl	8001310 <__stack_chk_fail>
 8007290:	2000081c 	.word	0x2000081c
 8007294:	200020ac 	.word	0x200020ac
 8007298:	40013c00 	.word	0x40013c00
 800729c:	00000000 	.word	0x00000000

080072a0 <VectorE4>:
 80072a0:	b510      	push	{r4, lr}
 80072a2:	4c0f      	ldr	r4, [pc, #60]	; (80072e0 <VectorE4+0x40>)
 80072a4:	b082      	sub	sp, #8
 80072a6:	6823      	ldr	r3, [r4, #0]
 80072a8:	9301      	str	r3, [sp, #4]
 80072aa:	f7fc fd79 	bl	8003da0 <_stats_increase_irq>
 80072ae:	f7fb fdbf 	bl	8002e30 <_dbg_check_enter_isr>
 80072b2:	480c      	ldr	r0, [pc, #48]	; (80072e4 <VectorE4+0x44>)
 80072b4:	4a0c      	ldr	r2, [pc, #48]	; (80072e8 <VectorE4+0x48>)
 80072b6:	6843      	ldr	r3, [r0, #4]
 80072b8:	f44f 3100 	mov.w	r1, #131072	; 0x20000
 80072bc:	f8d3 308c 	ldr.w	r3, [r3, #140]	; 0x8c
 80072c0:	6151      	str	r1, [r2, #20]
 80072c2:	2111      	movs	r1, #17
 80072c4:	4798      	blx	r3
 80072c6:	f7fb fddb 	bl	8002e80 <_dbg_check_leave_isr>
 80072ca:	9a01      	ldr	r2, [sp, #4]
 80072cc:	6823      	ldr	r3, [r4, #0]
 80072ce:	429a      	cmp	r2, r3
 80072d0:	d104      	bne.n	80072dc <VectorE4+0x3c>
 80072d2:	b002      	add	sp, #8
 80072d4:	e8bd 4010 	ldmia.w	sp!, {r4, lr}
 80072d8:	f7fd bbba 	b.w	8004a50 <_port_irq_epilogue>
 80072dc:	f7fa f818 	bl	8001310 <__stack_chk_fail>
 80072e0:	2000081c 	.word	0x2000081c
 80072e4:	200020ac 	.word	0x200020ac
 80072e8:	40013c00 	.word	0x40013c00
 80072ec:	00000000 	.word	0x00000000

080072f0 <VectorE8>:
 80072f0:	b510      	push	{r4, lr}
 80072f2:	4c0f      	ldr	r4, [pc, #60]	; (8007330 <VectorE8+0x40>)
 80072f4:	b082      	sub	sp, #8
 80072f6:	6823      	ldr	r3, [r4, #0]
 80072f8:	9301      	str	r3, [sp, #4]
 80072fa:	f7fc fd51 	bl	8003da0 <_stats_increase_irq>
 80072fe:	f7fb fd97 	bl	8002e30 <_dbg_check_enter_isr>
 8007302:	480c      	ldr	r0, [pc, #48]	; (8007334 <VectorE8+0x44>)
 8007304:	4a0c      	ldr	r2, [pc, #48]	; (8007338 <VectorE8+0x48>)
 8007306:	6843      	ldr	r3, [r0, #4]
 8007308:	f44f 2180 	mov.w	r1, #262144	; 0x40000
 800730c:	f8d3 3094 	ldr.w	r3, [r3, #148]	; 0x94
 8007310:	6151      	str	r1, [r2, #20]
 8007312:	2112      	movs	r1, #18
 8007314:	4798      	blx	r3
 8007316:	f7fb fdb3 	bl	8002e80 <_dbg_check_leave_isr>
 800731a:	9a01      	ldr	r2, [sp, #4]
 800731c:	6823      	ldr	r3, [r4, #0]
 800731e:	429a      	cmp	r2, r3
 8007320:	d104      	bne.n	800732c <VectorE8+0x3c>
 8007322:	b002      	add	sp, #8
 8007324:	e8bd 4010 	ldmia.w	sp!, {r4, lr}
 8007328:	f7fd bb92 	b.w	8004a50 <_port_irq_epilogue>
 800732c:	f7f9 fff0 	bl	8001310 <__stack_chk_fail>
 8007330:	2000081c 	.word	0x2000081c
 8007334:	200020ac 	.word	0x200020ac
 8007338:	40013c00 	.word	0x40013c00
 800733c:	00000000 	.word	0x00000000

08007340 <Vector138>:
 8007340:	b510      	push	{r4, lr}
 8007342:	4c0f      	ldr	r4, [pc, #60]	; (8007380 <Vector138+0x40>)
 8007344:	b082      	sub	sp, #8
 8007346:	6823      	ldr	r3, [r4, #0]
 8007348:	9301      	str	r3, [sp, #4]
 800734a:	f7fc fd29 	bl	8003da0 <_stats_increase_irq>
 800734e:	f7fb fd6f 	bl	8002e30 <_dbg_check_enter_isr>
 8007352:	480c      	ldr	r0, [pc, #48]	; (8007384 <Vector138+0x44>)
 8007354:	4a0c      	ldr	r2, [pc, #48]	; (8007388 <Vector138+0x48>)
 8007356:	6843      	ldr	r3, [r0, #4]
 8007358:	f44f 2100 	mov.w	r1, #524288	; 0x80000
 800735c:	f8d3 309c 	ldr.w	r3, [r3, #156]	; 0x9c
 8007360:	6151      	str	r1, [r2, #20]
 8007362:	2113      	movs	r1, #19
 8007364:	4798      	blx	r3
 8007366:	f7fb fd8b 	bl	8002e80 <_dbg_check_leave_isr>
 800736a:	9a01      	ldr	r2, [sp, #4]
 800736c:	6823      	ldr	r3, [r4, #0]
 800736e:	429a      	cmp	r2, r3
 8007370:	d104      	bne.n	800737c <Vector138+0x3c>
 8007372:	b002      	add	sp, #8
 8007374:	e8bd 4010 	ldmia.w	sp!, {r4, lr}
 8007378:	f7fd bb6a 	b.w	8004a50 <_port_irq_epilogue>
 800737c:	f7f9 ffc8 	bl	8001310 <__stack_chk_fail>
 8007380:	2000081c 	.word	0x2000081c
 8007384:	200020ac 	.word	0x200020ac
 8007388:	40013c00 	.word	0x40013c00
 800738c:	00000000 	.word	0x00000000

08007390 <Vector170>:
 8007390:	b510      	push	{r4, lr}
 8007392:	4c0f      	ldr	r4, [pc, #60]	; (80073d0 <Vector170+0x40>)
 8007394:	b082      	sub	sp, #8
 8007396:	6823      	ldr	r3, [r4, #0]
 8007398:	9301      	str	r3, [sp, #4]
 800739a:	f7fc fd01 	bl	8003da0 <_stats_increase_irq>
 800739e:	f7fb fd47 	bl	8002e30 <_dbg_check_enter_isr>
 80073a2:	480c      	ldr	r0, [pc, #48]	; (80073d4 <Vector170+0x44>)
 80073a4:	4a0c      	ldr	r2, [pc, #48]	; (80073d8 <Vector170+0x48>)
 80073a6:	6843      	ldr	r3, [r0, #4]
 80073a8:	f44f 1180 	mov.w	r1, #1048576	; 0x100000
 80073ac:	f8d3 30a4 	ldr.w	r3, [r3, #164]	; 0xa4
 80073b0:	6151      	str	r1, [r2, #20]
 80073b2:	2114      	movs	r1, #20
 80073b4:	4798      	blx	r3
 80073b6:	f7fb fd63 	bl	8002e80 <_dbg_check_leave_isr>
 80073ba:	9a01      	ldr	r2, [sp, #4]
 80073bc:	6823      	ldr	r3, [r4, #0]
 80073be:	429a      	cmp	r2, r3
 80073c0:	d104      	bne.n	80073cc <Vector170+0x3c>
 80073c2:	b002      	add	sp, #8
 80073c4:	e8bd 4010 	ldmia.w	sp!, {r4, lr}
 80073c8:	f7fd bb42 	b.w	8004a50 <_port_irq_epilogue>
 80073cc:	f7f9 ffa0 	bl	8001310 <__stack_chk_fail>
 80073d0:	2000081c 	.word	0x2000081c
 80073d4:	200020ac 	.word	0x200020ac
 80073d8:	40013c00 	.word	0x40013c00
 80073dc:	00000000 	.word	0x00000000

080073e0 <Vector48>:
 80073e0:	b510      	push	{r4, lr}
 80073e2:	4c0f      	ldr	r4, [pc, #60]	; (8007420 <Vector48+0x40>)
 80073e4:	b082      	sub	sp, #8
 80073e6:	6823      	ldr	r3, [r4, #0]
 80073e8:	9301      	str	r3, [sp, #4]
 80073ea:	f7fc fcd9 	bl	8003da0 <_stats_increase_irq>
 80073ee:	f7fb fd1f 	bl	8002e30 <_dbg_check_enter_isr>
 80073f2:	480c      	ldr	r0, [pc, #48]	; (8007424 <Vector48+0x44>)
 80073f4:	4a0c      	ldr	r2, [pc, #48]	; (8007428 <Vector48+0x48>)
 80073f6:	6843      	ldr	r3, [r0, #4]
 80073f8:	f44f 1100 	mov.w	r1, #2097152	; 0x200000
 80073fc:	f8d3 30ac 	ldr.w	r3, [r3, #172]	; 0xac
 8007400:	6151      	str	r1, [r2, #20]
 8007402:	2115      	movs	r1, #21
 8007404:	4798      	blx	r3
 8007406:	f7fb fd3b 	bl	8002e80 <_dbg_check_leave_isr>
 800740a:	9a01      	ldr	r2, [sp, #4]
 800740c:	6823      	ldr	r3, [r4, #0]
 800740e:	429a      	cmp	r2, r3
 8007410:	d104      	bne.n	800741c <Vector48+0x3c>
 8007412:	b002      	add	sp, #8
 8007414:	e8bd 4010 	ldmia.w	sp!, {r4, lr}
 8007418:	f7fd bb1a 	b.w	8004a50 <_port_irq_epilogue>
 800741c:	f7f9 ff78 	bl	8001310 <__stack_chk_fail>
 8007420:	2000081c 	.word	0x2000081c
 8007424:	200020ac 	.word	0x200020ac
 8007428:	40013c00 	.word	0x40013c00
 800742c:	00000000 	.word	0x00000000

08007430 <Vector4C>:
 8007430:	b510      	push	{r4, lr}
 8007432:	4c0f      	ldr	r4, [pc, #60]	; (8007470 <Vector4C+0x40>)
 8007434:	b082      	sub	sp, #8
 8007436:	6823      	ldr	r3, [r4, #0]
 8007438:	9301      	str	r3, [sp, #4]
 800743a:	f7fc fcb1 	bl	8003da0 <_stats_increase_irq>
 800743e:	f7fb fcf7 	bl	8002e30 <_dbg_check_enter_isr>
 8007442:	480c      	ldr	r0, [pc, #48]	; (8007474 <Vector4C+0x44>)
 8007444:	4a0c      	ldr	r2, [pc, #48]	; (8007478 <Vector4C+0x48>)
 8007446:	6843      	ldr	r3, [r0, #4]
 8007448:	f44f 0180 	mov.w	r1, #4194304	; 0x400000
 800744c:	f8d3 30b4 	ldr.w	r3, [r3, #180]	; 0xb4
 8007450:	6151      	str	r1, [r2, #20]
 8007452:	2116      	movs	r1, #22
 8007454:	4798      	blx	r3
 8007456:	f7fb fd13 	bl	8002e80 <_dbg_check_leave_isr>
 800745a:	9a01      	ldr	r2, [sp, #4]
 800745c:	6823      	ldr	r3, [r4, #0]
 800745e:	429a      	cmp	r2, r3
 8007460:	d104      	bne.n	800746c <Vector4C+0x3c>
 8007462:	b002      	add	sp, #8
 8007464:	e8bd 4010 	ldmia.w	sp!, {r4, lr}
 8007468:	f7fd baf2 	b.w	8004a50 <_port_irq_epilogue>
 800746c:	f7f9 ff50 	bl	8001310 <__stack_chk_fail>
 8007470:	2000081c 	.word	0x2000081c
 8007474:	200020ac 	.word	0x200020ac
 8007478:	40013c00 	.word	0x40013c00
 800747c:	00000000 	.word	0x00000000

08007480 <can_lld_set_filters>:
 8007480:	b5f0      	push	{r4, r5, r6, r7, lr}
 8007482:	4d49      	ldr	r5, [pc, #292]	; (80075a8 <can_lld_set_filters+0x128>)
 8007484:	4e49      	ldr	r6, [pc, #292]	; (80075ac <can_lld_set_filters+0x12c>)
 8007486:	682b      	ldr	r3, [r5, #0]
 8007488:	4c49      	ldr	r4, [pc, #292]	; (80075b0 <can_lld_set_filters+0x130>)
 800748a:	b083      	sub	sp, #12
 800748c:	9301      	str	r3, [sp, #4]
 800748e:	6c33      	ldr	r3, [r6, #64]	; 0x40
 8007490:	f043 7300 	orr.w	r3, r3, #33554432	; 0x2000000
 8007494:	6433      	str	r3, [r6, #64]	; 0x40
 8007496:	f8d4 3200 	ldr.w	r3, [r4, #512]	; 0x200
 800749a:	0c1b      	lsrs	r3, r3, #16
 800749c:	041b      	lsls	r3, r3, #16
 800749e:	f043 0301 	orr.w	r3, r3, #1
 80074a2:	ea43 2300 	orr.w	r3, r3, r0, lsl #8
 80074a6:	f8c4 3200 	str.w	r3, [r4, #512]	; 0x200
 80074aa:	2900      	cmp	r1, #0
 80074ac:	d05f      	beq.n	800756e <can_lld_set_filters+0xee>
 80074ae:	2300      	movs	r3, #0
 80074b0:	f8c4 321c 	str.w	r3, [r4, #540]	; 0x21c
 80074b4:	4618      	mov	r0, r3
 80074b6:	f8c4 3204 	str.w	r3, [r4, #516]	; 0x204
 80074ba:	f8c4 320c 	str.w	r3, [r4, #524]	; 0x20c
 80074be:	f8c4 3214 	str.w	r3, [r4, #532]	; 0x214
 80074c2:	461c      	mov	r4, r3
 80074c4:	00c3      	lsls	r3, r0, #3
 80074c6:	f103 4380 	add.w	r3, r3, #1073741824	; 0x40000000
 80074ca:	f503 43c8 	add.w	r3, r3, #25600	; 0x6400
 80074ce:	3001      	adds	r0, #1
 80074d0:	281c      	cmp	r0, #28
 80074d2:	f8c3 4240 	str.w	r4, [r3, #576]	; 0x240
 80074d6:	f8c3 4244 	str.w	r4, [r3, #580]	; 0x244
 80074da:	d1f3      	bne.n	80074c4 <can_lld_set_filters+0x44>
 80074dc:	4834      	ldr	r0, [pc, #208]	; (80075b0 <can_lld_set_filters+0x130>)
 80074de:	2600      	movs	r6, #0
 80074e0:	2701      	movs	r7, #1
 80074e2:	7914      	ldrb	r4, [r2, #4]
 80074e4:	6813      	ldr	r3, [r2, #0]
 80074e6:	f014 0f01 	tst.w	r4, #1
 80074ea:	fa07 fc03 	lsl.w	ip, r7, r3
 80074ee:	d005      	beq.n	80074fc <can_lld_set_filters+0x7c>
 80074f0:	f8d0 e204 	ldr.w	lr, [r0, #516]	; 0x204
 80074f4:	ea4e 0e0c 	orr.w	lr, lr, ip
 80074f8:	f8c0 e204 	str.w	lr, [r0, #516]	; 0x204
 80074fc:	f014 0f02 	tst.w	r4, #2
 8007500:	d005      	beq.n	800750e <can_lld_set_filters+0x8e>
 8007502:	f8d0 e20c 	ldr.w	lr, [r0, #524]	; 0x20c
 8007506:	ea4e 0e0c 	orr.w	lr, lr, ip
 800750a:	f8c0 e20c 	str.w	lr, [r0, #524]	; 0x20c
 800750e:	0764      	lsls	r4, r4, #29
 8007510:	d505      	bpl.n	800751e <can_lld_set_filters+0x9e>
 8007512:	f8d0 4214 	ldr.w	r4, [r0, #532]	; 0x214
 8007516:	ea44 040c 	orr.w	r4, r4, ip
 800751a:	f8c0 4214 	str.w	r4, [r0, #532]	; 0x214
 800751e:	00db      	lsls	r3, r3, #3
 8007520:	f103 4380 	add.w	r3, r3, #1073741824	; 0x40000000
 8007524:	f503 43c8 	add.w	r3, r3, #25600	; 0x6400
 8007528:	6894      	ldr	r4, [r2, #8]
 800752a:	f8c3 4240 	str.w	r4, [r3, #576]	; 0x240
 800752e:	68d4      	ldr	r4, [r2, #12]
 8007530:	f8c3 4244 	str.w	r4, [r3, #580]	; 0x244
 8007534:	f8d0 321c 	ldr.w	r3, [r0, #540]	; 0x21c
 8007538:	3601      	adds	r6, #1
 800753a:	ea43 030c 	orr.w	r3, r3, ip
 800753e:	42b1      	cmp	r1, r6
 8007540:	f102 0210 	add.w	r2, r2, #16
 8007544:	f8c0 321c 	str.w	r3, [r0, #540]	; 0x21c
 8007548:	d1cb      	bne.n	80074e2 <can_lld_set_filters+0x62>
 800754a:	4919      	ldr	r1, [pc, #100]	; (80075b0 <can_lld_set_filters+0x130>)
 800754c:	4a17      	ldr	r2, [pc, #92]	; (80075ac <can_lld_set_filters+0x12c>)
 800754e:	f8d1 3200 	ldr.w	r3, [r1, #512]	; 0x200
 8007552:	f023 0301 	bic.w	r3, r3, #1
 8007556:	f8c1 3200 	str.w	r3, [r1, #512]	; 0x200
 800755a:	6c13      	ldr	r3, [r2, #64]	; 0x40
 800755c:	f023 7300 	bic.w	r3, r3, #33554432	; 0x2000000
 8007560:	6413      	str	r3, [r2, #64]	; 0x40
 8007562:	9a01      	ldr	r2, [sp, #4]
 8007564:	682b      	ldr	r3, [r5, #0]
 8007566:	429a      	cmp	r2, r3
 8007568:	d11b      	bne.n	80075a2 <can_lld_set_filters+0x122>
 800756a:	b003      	add	sp, #12
 800756c:	bdf0      	pop	{r4, r5, r6, r7, pc}
 800756e:	00c2      	lsls	r2, r0, #3
 8007570:	f102 4280 	add.w	r2, r2, #1073741824	; 0x40000000
 8007574:	2301      	movs	r3, #1
 8007576:	f502 42c8 	add.w	r2, r2, #25600	; 0x6400
 800757a:	4083      	lsls	r3, r0
 800757c:	f043 0301 	orr.w	r3, r3, #1
 8007580:	f8c4 1240 	str.w	r1, [r4, #576]	; 0x240
 8007584:	f8c4 1244 	str.w	r1, [r4, #580]	; 0x244
 8007588:	f8c2 1240 	str.w	r1, [r2, #576]	; 0x240
 800758c:	f8c2 1244 	str.w	r1, [r2, #580]	; 0x244
 8007590:	f8c4 1204 	str.w	r1, [r4, #516]	; 0x204
 8007594:	f8c4 1214 	str.w	r1, [r4, #532]	; 0x214
 8007598:	f8c4 320c 	str.w	r3, [r4, #524]	; 0x20c
 800759c:	f8c4 321c 	str.w	r3, [r4, #540]	; 0x21c
 80075a0:	e7d3      	b.n	800754a <can_lld_set_filters+0xca>
 80075a2:	f7f9 feb5 	bl	8001310 <__stack_chk_fail>
 80075a6:	bf00      	nop
 80075a8:	2000081c 	.word	0x2000081c
 80075ac:	40023800 	.word	0x40023800
 80075b0:	40006400 	.word	0x40006400
	...

080075c0 <Vector8C>:
 80075c0:	b530      	push	{r4, r5, lr}
 80075c2:	4d18      	ldr	r5, [pc, #96]	; (8007624 <Vector8C+0x64>)
 80075c4:	4c18      	ldr	r4, [pc, #96]	; (8007628 <Vector8C+0x68>)
 80075c6:	682b      	ldr	r3, [r5, #0]
 80075c8:	b083      	sub	sp, #12
 80075ca:	9301      	str	r3, [sp, #4]
 80075cc:	f7fc fbe8 	bl	8003da0 <_stats_increase_irq>
 80075d0:	f7fb fc2e 	bl	8002e30 <_dbg_check_enter_isr>
 80075d4:	6ae3      	ldr	r3, [r4, #44]	; 0x2c
 80075d6:	4a15      	ldr	r2, [pc, #84]	; (800762c <Vector8C+0x6c>)
 80075d8:	609a      	str	r2, [r3, #8]
 80075da:	2320      	movs	r3, #32
 80075dc:	f383 8811 	msr	BASEPRI, r3
 80075e0:	f7fc fc46 	bl	8003e70 <_stats_start_measure_crit_isr>
 80075e4:	f7fb fbe4 	bl	8002db0 <_dbg_check_lock_from_isr>
 80075e8:	f104 0008 	add.w	r0, r4, #8
 80075ec:	2100      	movs	r1, #0
 80075ee:	f7fc fac7 	bl	8003b80 <chThdDequeueAllI>
 80075f2:	f104 001c 	add.w	r0, r4, #28
 80075f6:	2101      	movs	r1, #1
 80075f8:	f7fc feea 	bl	80043d0 <chEvtBroadcastFlagsI>
 80075fc:	f7fb fbf8 	bl	8002df0 <_dbg_check_unlock_from_isr>
 8007600:	f7fc fc4e 	bl	8003ea0 <_stats_stop_measure_crit_isr>
 8007604:	2300      	movs	r3, #0
 8007606:	f383 8811 	msr	BASEPRI, r3
 800760a:	f7fb fc39 	bl	8002e80 <_dbg_check_leave_isr>
 800760e:	9a01      	ldr	r2, [sp, #4]
 8007610:	682b      	ldr	r3, [r5, #0]
 8007612:	429a      	cmp	r2, r3
 8007614:	d104      	bne.n	8007620 <Vector8C+0x60>
 8007616:	b003      	add	sp, #12
 8007618:	e8bd 4030 	ldmia.w	sp!, {r4, r5, lr}
 800761c:	f7fd ba18 	b.w	8004a50 <_port_irq_epilogue>
 8007620:	f7f9 fe76 	bl	8001310 <__stack_chk_fail>
 8007624:	2000081c 	.word	0x2000081c
 8007628:	2000207c 	.word	0x2000207c
 800762c:	00010101 	.word	0x00010101

08007630 <Vector90>:
 8007630:	b570      	push	{r4, r5, r6, lr}
 8007632:	4d27      	ldr	r5, [pc, #156]	; (80076d0 <Vector90+0xa0>)
 8007634:	4c27      	ldr	r4, [pc, #156]	; (80076d4 <Vector90+0xa4>)
 8007636:	682b      	ldr	r3, [r5, #0]
 8007638:	b082      	sub	sp, #8
 800763a:	9301      	str	r3, [sp, #4]
 800763c:	f7fc fbb0 	bl	8003da0 <_stats_increase_irq>
 8007640:	f7fb fbf6 	bl	8002e30 <_dbg_check_enter_isr>
 8007644:	6ae3      	ldr	r3, [r4, #44]	; 0x2c
 8007646:	68de      	ldr	r6, [r3, #12]
 8007648:	07b2      	lsls	r2, r6, #30
 800764a:	d121      	bne.n	8007690 <Vector90+0x60>
 800764c:	06f3      	lsls	r3, r6, #27
 800764e:	d514      	bpl.n	800767a <Vector90+0x4a>
 8007650:	6ae3      	ldr	r3, [r4, #44]	; 0x2c
 8007652:	2410      	movs	r4, #16
 8007654:	60dc      	str	r4, [r3, #12]
 8007656:	2320      	movs	r3, #32
 8007658:	f383 8811 	msr	BASEPRI, r3
 800765c:	f7fc fc08 	bl	8003e70 <_stats_start_measure_crit_isr>
 8007660:	f7fb fba6 	bl	8002db0 <_dbg_check_lock_from_isr>
 8007664:	4621      	mov	r1, r4
 8007666:	481c      	ldr	r0, [pc, #112]	; (80076d8 <Vector90+0xa8>)
 8007668:	f7fc feb2 	bl	80043d0 <chEvtBroadcastFlagsI>
 800766c:	f7fb fbc0 	bl	8002df0 <_dbg_check_unlock_from_isr>
 8007670:	f7fc fc16 	bl	8003ea0 <_stats_stop_measure_crit_isr>
 8007674:	2300      	movs	r3, #0
 8007676:	f383 8811 	msr	BASEPRI, r3
 800767a:	f7fb fc01 	bl	8002e80 <_dbg_check_leave_isr>
 800767e:	9a01      	ldr	r2, [sp, #4]
 8007680:	682b      	ldr	r3, [r5, #0]
 8007682:	429a      	cmp	r2, r3
 8007684:	d121      	bne.n	80076ca <Vector90+0x9a>
 8007686:	b002      	add	sp, #8
 8007688:	e8bd 4070 	ldmia.w	sp!, {r4, r5, r6, lr}
 800768c:	f7fd b9e0 	b.w	8004a50 <_port_irq_epilogue>
 8007690:	695a      	ldr	r2, [r3, #20]
 8007692:	f022 0202 	bic.w	r2, r2, #2
 8007696:	615a      	str	r2, [r3, #20]
 8007698:	2320      	movs	r3, #32
 800769a:	f383 8811 	msr	BASEPRI, r3
 800769e:	f7fc fbe7 	bl	8003e70 <_stats_start_measure_crit_isr>
 80076a2:	f7fb fb85 	bl	8002db0 <_dbg_check_lock_from_isr>
 80076a6:	f104 0010 	add.w	r0, r4, #16
 80076aa:	2100      	movs	r1, #0
 80076ac:	f7fc fa68 	bl	8003b80 <chThdDequeueAllI>
 80076b0:	f104 0018 	add.w	r0, r4, #24
 80076b4:	2101      	movs	r1, #1
 80076b6:	f7fc fe8b 	bl	80043d0 <chEvtBroadcastFlagsI>
 80076ba:	f7fb fb99 	bl	8002df0 <_dbg_check_unlock_from_isr>
 80076be:	f7fc fbef 	bl	8003ea0 <_stats_stop_measure_crit_isr>
 80076c2:	2300      	movs	r3, #0
 80076c4:	f383 8811 	msr	BASEPRI, r3
 80076c8:	e7c0      	b.n	800764c <Vector90+0x1c>
 80076ca:	f7f9 fe21 	bl	8001310 <__stack_chk_fail>
 80076ce:	bf00      	nop
 80076d0:	2000081c 	.word	0x2000081c
 80076d4:	2000207c 	.word	0x2000207c
 80076d8:	2000209c 	.word	0x2000209c
 80076dc:	00000000 	.word	0x00000000

080076e0 <Vector94>:
 80076e0:	b570      	push	{r4, r5, r6, lr}
 80076e2:	4d27      	ldr	r5, [pc, #156]	; (8007780 <Vector94+0xa0>)
 80076e4:	4c27      	ldr	r4, [pc, #156]	; (8007784 <Vector94+0xa4>)
 80076e6:	682b      	ldr	r3, [r5, #0]
 80076e8:	b082      	sub	sp, #8
 80076ea:	9301      	str	r3, [sp, #4]
 80076ec:	f7fc fb58 	bl	8003da0 <_stats_increase_irq>
 80076f0:	f7fb fb9e 	bl	8002e30 <_dbg_check_enter_isr>
 80076f4:	6ae3      	ldr	r3, [r4, #44]	; 0x2c
 80076f6:	691e      	ldr	r6, [r3, #16]
 80076f8:	07b2      	lsls	r2, r6, #30
 80076fa:	d121      	bne.n	8007740 <Vector94+0x60>
 80076fc:	06f3      	lsls	r3, r6, #27
 80076fe:	d514      	bpl.n	800772a <Vector94+0x4a>
 8007700:	6ae3      	ldr	r3, [r4, #44]	; 0x2c
 8007702:	2410      	movs	r4, #16
 8007704:	611c      	str	r4, [r3, #16]
 8007706:	2320      	movs	r3, #32
 8007708:	f383 8811 	msr	BASEPRI, r3
 800770c:	f7fc fbb0 	bl	8003e70 <_stats_start_measure_crit_isr>
 8007710:	f7fb fb4e 	bl	8002db0 <_dbg_check_lock_from_isr>
 8007714:	4621      	mov	r1, r4
 8007716:	481c      	ldr	r0, [pc, #112]	; (8007788 <Vector94+0xa8>)
 8007718:	f7fc fe5a 	bl	80043d0 <chEvtBroadcastFlagsI>
 800771c:	f7fb fb68 	bl	8002df0 <_dbg_check_unlock_from_isr>
 8007720:	f7fc fbbe 	bl	8003ea0 <_stats_stop_measure_crit_isr>
 8007724:	2300      	movs	r3, #0
 8007726:	f383 8811 	msr	BASEPRI, r3
 800772a:	f7fb fba9 	bl	8002e80 <_dbg_check_leave_isr>
 800772e:	9a01      	ldr	r2, [sp, #4]
 8007730:	682b      	ldr	r3, [r5, #0]
 8007732:	429a      	cmp	r2, r3
 8007734:	d121      	bne.n	800777a <Vector94+0x9a>
 8007736:	b002      	add	sp, #8
 8007738:	e8bd 4070 	ldmia.w	sp!, {r4, r5, r6, lr}
 800773c:	f7fd b988 	b.w	8004a50 <_port_irq_epilogue>
 8007740:	695a      	ldr	r2, [r3, #20]
 8007742:	f022 0210 	bic.w	r2, r2, #16
 8007746:	615a      	str	r2, [r3, #20]
 8007748:	2320      	movs	r3, #32
 800774a:	f383 8811 	msr	BASEPRI, r3
 800774e:	f7fc fb8f 	bl	8003e70 <_stats_start_measure_crit_isr>
 8007752:	f7fb fb2d 	bl	8002db0 <_dbg_check_lock_from_isr>
 8007756:	f104 0010 	add.w	r0, r4, #16
 800775a:	2100      	movs	r1, #0
 800775c:	f7fc fa10 	bl	8003b80 <chThdDequeueAllI>
 8007760:	f104 0018 	add.w	r0, r4, #24
 8007764:	2102      	movs	r1, #2
 8007766:	f7fc fe33 	bl	80043d0 <chEvtBroadcastFlagsI>
 800776a:	f7fb fb41 	bl	8002df0 <_dbg_check_unlock_from_isr>
 800776e:	f7fc fb97 	bl	8003ea0 <_stats_stop_measure_crit_isr>
 8007772:	2300      	movs	r3, #0
 8007774:	f383 8811 	msr	BASEPRI, r3
 8007778:	e7c0      	b.n	80076fc <Vector94+0x1c>
 800777a:	f7f9 fdc9 	bl	8001310 <__stack_chk_fail>
 800777e:	bf00      	nop
 8007780:	2000081c 	.word	0x2000081c
 8007784:	2000207c 	.word	0x2000207c
 8007788:	2000209c 	.word	0x2000209c
 800778c:	00000000 	.word	0x00000000

08007790 <Vector98>:
 8007790:	b570      	push	{r4, r5, r6, lr}
 8007792:	4d2c      	ldr	r5, [pc, #176]	; (8007844 <Vector98+0xb4>)
 8007794:	4c2c      	ldr	r4, [pc, #176]	; (8007848 <Vector98+0xb8>)
 8007796:	682b      	ldr	r3, [r5, #0]
 8007798:	b082      	sub	sp, #8
 800779a:	9301      	str	r3, [sp, #4]
 800779c:	f7fc fb00 	bl	8003da0 <_stats_increase_irq>
 80077a0:	f7fb fb46 	bl	8002e30 <_dbg_check_enter_isr>
 80077a4:	6ae3      	ldr	r3, [r4, #44]	; 0x2c
 80077a6:	685e      	ldr	r6, [r3, #4]
 80077a8:	221c      	movs	r2, #28
 80077aa:	605a      	str	r2, [r3, #4]
 80077ac:	0732      	lsls	r2, r6, #28
 80077ae:	d42c      	bmi.n	800780a <Vector98+0x7a>
 80077b0:	0773      	lsls	r3, r6, #29
 80077b2:	d51f      	bpl.n	80077f4 <Vector98+0x64>
 80077b4:	6ae3      	ldr	r3, [r4, #44]	; 0x2c
 80077b6:	699c      	ldr	r4, [r3, #24]
 80077b8:	699a      	ldr	r2, [r3, #24]
 80077ba:	f004 0607 	and.w	r6, r4, #7
 80077be:	f022 0270 	bic.w	r2, r2, #112	; 0x70
 80077c2:	f014 0f70 	tst.w	r4, #112	; 0x70
 80077c6:	619a      	str	r2, [r3, #24]
 80077c8:	bf18      	it	ne
 80077ca:	f046 0608 	orrne.w	r6, r6, #8
 80077ce:	2320      	movs	r3, #32
 80077d0:	f383 8811 	msr	BASEPRI, r3
 80077d4:	f7fc fb4c 	bl	8003e70 <_stats_start_measure_crit_isr>
 80077d8:	f7fb faea 	bl	8002db0 <_dbg_check_lock_from_isr>
 80077dc:	ea46 4104 	orr.w	r1, r6, r4, lsl #16
 80077e0:	481a      	ldr	r0, [pc, #104]	; (800784c <Vector98+0xbc>)
 80077e2:	f7fc fdf5 	bl	80043d0 <chEvtBroadcastFlagsI>
 80077e6:	f7fb fb03 	bl	8002df0 <_dbg_check_unlock_from_isr>
 80077ea:	f7fc fb59 	bl	8003ea0 <_stats_stop_measure_crit_isr>
 80077ee:	2300      	movs	r3, #0
 80077f0:	f383 8811 	msr	BASEPRI, r3
 80077f4:	f7fb fb44 	bl	8002e80 <_dbg_check_leave_isr>
 80077f8:	9a01      	ldr	r2, [sp, #4]
 80077fa:	682b      	ldr	r3, [r5, #0]
 80077fc:	429a      	cmp	r2, r3
 80077fe:	d11e      	bne.n	800783e <Vector98+0xae>
 8007800:	b002      	add	sp, #8
 8007802:	e8bd 4070 	ldmia.w	sp!, {r4, r5, r6, lr}
 8007806:	f7fd b923 	b.w	8004a50 <_port_irq_epilogue>
 800780a:	681a      	ldr	r2, [r3, #0]
 800780c:	2103      	movs	r1, #3
 800780e:	f022 0202 	bic.w	r2, r2, #2
 8007812:	7021      	strb	r1, [r4, #0]
 8007814:	2120      	movs	r1, #32
 8007816:	601a      	str	r2, [r3, #0]
 8007818:	f381 8811 	msr	BASEPRI, r1
 800781c:	f7fc fb28 	bl	8003e70 <_stats_start_measure_crit_isr>
 8007820:	f7fb fac6 	bl	8002db0 <_dbg_check_lock_from_isr>
 8007824:	f104 0028 	add.w	r0, r4, #40	; 0x28
 8007828:	2100      	movs	r1, #0
 800782a:	f7fc fdd1 	bl	80043d0 <chEvtBroadcastFlagsI>
 800782e:	f7fb fadf 	bl	8002df0 <_dbg_check_unlock_from_isr>
 8007832:	f7fc fb35 	bl	8003ea0 <_stats_stop_measure_crit_isr>
 8007836:	2300      	movs	r3, #0
 8007838:	f383 8811 	msr	BASEPRI, r3
 800783c:	e7b8      	b.n	80077b0 <Vector98+0x20>
 800783e:	f7f9 fd67 	bl	8001310 <__stack_chk_fail>
 8007842:	bf00      	nop
 8007844:	2000081c 	.word	0x2000081c
 8007848:	2000207c 	.word	0x2000207c
 800784c:	2000209c 	.word	0x2000209c

08007850 <can_lld_init>:
 8007850:	b530      	push	{r4, r5, lr}
 8007852:	4d0c      	ldr	r5, [pc, #48]	; (8007884 <can_lld_init+0x34>)
 8007854:	4c0c      	ldr	r4, [pc, #48]	; (8007888 <can_lld_init+0x38>)
 8007856:	682b      	ldr	r3, [r5, #0]
 8007858:	b083      	sub	sp, #12
 800785a:	4620      	mov	r0, r4
 800785c:	9301      	str	r3, [sp, #4]
 800785e:	f7fd fa67 	bl	8004d30 <canObjectInit>
 8007862:	9a01      	ldr	r2, [sp, #4]
 8007864:	682b      	ldr	r3, [r5, #0]
 8007866:	4909      	ldr	r1, [pc, #36]	; (800788c <can_lld_init+0x3c>)
 8007868:	62e1      	str	r1, [r4, #44]	; 0x2c
 800786a:	429a      	cmp	r2, r3
 800786c:	d107      	bne.n	800787e <can_lld_init+0x2e>
 800786e:	2200      	movs	r2, #0
 8007870:	4611      	mov	r1, r2
 8007872:	200e      	movs	r0, #14
 8007874:	b003      	add	sp, #12
 8007876:	e8bd 4030 	ldmia.w	sp!, {r4, r5, lr}
 800787a:	f7ff be01 	b.w	8007480 <can_lld_set_filters>
 800787e:	f7f9 fd47 	bl	8001310 <__stack_chk_fail>
 8007882:	bf00      	nop
 8007884:	2000081c 	.word	0x2000081c
 8007888:	2000207c 	.word	0x2000207c
 800788c:	40006400 	.word	0x40006400

08007890 <ext_lld_init>:
 8007890:	b500      	push	{lr}
 8007892:	4b08      	ldr	r3, [pc, #32]	; (80078b4 <ext_lld_init+0x24>)
 8007894:	b083      	sub	sp, #12
 8007896:	681a      	ldr	r2, [r3, #0]
 8007898:	9201      	str	r2, [sp, #4]
 800789a:	9a01      	ldr	r2, [sp, #4]
 800789c:	681b      	ldr	r3, [r3, #0]
 800789e:	429a      	cmp	r2, r3
 80078a0:	d105      	bne.n	80078ae <ext_lld_init+0x1e>
 80078a2:	4805      	ldr	r0, [pc, #20]	; (80078b8 <ext_lld_init+0x28>)
 80078a4:	b003      	add	sp, #12
 80078a6:	f85d eb04 	ldr.w	lr, [sp], #4
 80078aa:	f7fd bab9 	b.w	8004e20 <extObjectInit>
 80078ae:	f7f9 fd2f 	bl	8001310 <__stack_chk_fail>
 80078b2:	bf00      	nop
 80078b4:	2000081c 	.word	0x2000081c
 80078b8:	200020ac 	.word	0x200020ac
 80078bc:	00000000 	.word	0x00000000

080078c0 <sdc_lld_collect_errors.isra.0>:
 80078c0:	b530      	push	{r4, r5, lr}
 80078c2:	4c14      	ldr	r4, [pc, #80]	; (8007914 <sdc_lld_collect_errors.isra.0+0x54>)
 80078c4:	b083      	sub	sp, #12
 80078c6:	6823      	ldr	r3, [r4, #0]
 80078c8:	9301      	str	r3, [sp, #4]
 80078ca:	078d      	lsls	r5, r1, #30
 80078cc:	f001 0301 	and.w	r3, r1, #1
 80078d0:	bf48      	it	mi
 80078d2:	f043 0302 	orrmi.w	r3, r3, #2
 80078d6:	074a      	lsls	r2, r1, #29
 80078d8:	bf48      	it	mi
 80078da:	f043 0308 	orrmi.w	r3, r3, #8
 80078de:	070d      	lsls	r5, r1, #28
 80078e0:	bf48      	it	mi
 80078e2:	f043 0304 	orrmi.w	r3, r3, #4
 80078e6:	06ca      	lsls	r2, r1, #27
 80078e8:	bf48      	it	mi
 80078ea:	f043 0310 	orrmi.w	r3, r3, #16
 80078ee:	068d      	lsls	r5, r1, #26
 80078f0:	bf48      	it	mi
 80078f2:	f043 0320 	orrmi.w	r3, r3, #32
 80078f6:	9d01      	ldr	r5, [sp, #4]
 80078f8:	058a      	lsls	r2, r1, #22
 80078fa:	6802      	ldr	r2, [r0, #0]
 80078fc:	6821      	ldr	r1, [r4, #0]
 80078fe:	bf48      	it	mi
 8007900:	f043 0340 	orrmi.w	r3, r3, #64	; 0x40
 8007904:	4313      	orrs	r3, r2
 8007906:	428d      	cmp	r5, r1
 8007908:	6003      	str	r3, [r0, #0]
 800790a:	d101      	bne.n	8007910 <sdc_lld_collect_errors.isra.0+0x50>
 800790c:	b003      	add	sp, #12
 800790e:	bd30      	pop	{r4, r5, pc}
 8007910:	f7f9 fcfe 	bl	8001310 <__stack_chk_fail>
 8007914:	2000081c 	.word	0x2000081c
	...

08007920 <Vector104>:
 8007920:	b530      	push	{r4, r5, lr}
 8007922:	4d14      	ldr	r5, [pc, #80]	; (8007974 <Vector104+0x54>)
 8007924:	b083      	sub	sp, #12
 8007926:	682b      	ldr	r3, [r5, #0]
 8007928:	9301      	str	r3, [sp, #4]
 800792a:	f7fc fa39 	bl	8003da0 <_stats_increase_irq>
 800792e:	f7fb fa7f 	bl	8002e30 <_dbg_check_enter_isr>
 8007932:	2320      	movs	r3, #32
 8007934:	f383 8811 	msr	BASEPRI, r3
 8007938:	f7fc fa9a 	bl	8003e70 <_stats_start_measure_crit_isr>
 800793c:	f7fb fa38 	bl	8002db0 <_dbg_check_lock_from_isr>
 8007940:	4b0d      	ldr	r3, [pc, #52]	; (8007978 <Vector104+0x58>)
 8007942:	480e      	ldr	r0, [pc, #56]	; (800797c <Vector104+0x5c>)
 8007944:	2400      	movs	r4, #0
 8007946:	63dc      	str	r4, [r3, #60]	; 0x3c
 8007948:	4621      	mov	r1, r4
 800794a:	f7fc f891 	bl	8003a70 <chThdResumeI>
 800794e:	f7fb fa4f 	bl	8002df0 <_dbg_check_unlock_from_isr>
 8007952:	f7fc faa5 	bl	8003ea0 <_stats_stop_measure_crit_isr>
 8007956:	f384 8811 	msr	BASEPRI, r4
 800795a:	f7fb fa91 	bl	8002e80 <_dbg_check_leave_isr>
 800795e:	9a01      	ldr	r2, [sp, #4]
 8007960:	682b      	ldr	r3, [r5, #0]
 8007962:	429a      	cmp	r2, r3
 8007964:	d104      	bne.n	8007970 <Vector104+0x50>
 8007966:	b003      	add	sp, #12
 8007968:	e8bd 4030 	ldmia.w	sp!, {r4, r5, lr}
 800796c:	f7fd b870 	b.w	8004a50 <_port_irq_epilogue>
 8007970:	f7f9 fcce 	bl	8001310 <__stack_chk_fail>
 8007974:	2000081c 	.word	0x2000081c
 8007978:	40012c00 	.word	0x40012c00
 800797c:	200020f0 	.word	0x200020f0

08007980 <sdc_lld_init>:
 8007980:	b530      	push	{r4, r5, lr}
 8007982:	4c0b      	ldr	r4, [pc, #44]	; (80079b0 <sdc_lld_init+0x30>)
 8007984:	4d0b      	ldr	r5, [pc, #44]	; (80079b4 <sdc_lld_init+0x34>)
 8007986:	b083      	sub	sp, #12
 8007988:	682b      	ldr	r3, [r5, #0]
 800798a:	9301      	str	r3, [sp, #4]
 800798c:	4620      	mov	r0, r4
 800798e:	f7fd ffd7 	bl	8005940 <sdcObjectInit>
 8007992:	9a01      	ldr	r2, [sp, #4]
 8007994:	682b      	ldr	r3, [r5, #0]
 8007996:	4808      	ldr	r0, [pc, #32]	; (80079b8 <sdc_lld_init+0x38>)
 8007998:	4908      	ldr	r1, [pc, #32]	; (80079bc <sdc_lld_init+0x3c>)
 800799a:	6460      	str	r0, [r4, #68]	; 0x44
 800799c:	429a      	cmp	r2, r3
 800799e:	f04f 0000 	mov.w	r0, #0
 80079a2:	63e0      	str	r0, [r4, #60]	; 0x3c
 80079a4:	64a1      	str	r1, [r4, #72]	; 0x48
 80079a6:	d101      	bne.n	80079ac <sdc_lld_init+0x2c>
 80079a8:	b003      	add	sp, #12
 80079aa:	bd30      	pop	{r4, r5, pc}
 80079ac:	f7f9 fcb0 	bl	8001310 <__stack_chk_fail>
 80079b0:	200020b4 	.word	0x200020b4
 80079b4:	2000081c 	.word	0x2000081c
 80079b8:	0800dc44 	.word	0x0800dc44
 80079bc:	40012c00 	.word	0x40012c00

080079c0 <sdc_lld_start_clk>:
 80079c0:	b500      	push	{lr}
 80079c2:	490d      	ldr	r1, [pc, #52]	; (80079f8 <sdc_lld_start_clk+0x38>)
 80079c4:	6c83      	ldr	r3, [r0, #72]	; 0x48
 80079c6:	680a      	ldr	r2, [r1, #0]
 80079c8:	b083      	sub	sp, #12
 80079ca:	9201      	str	r2, [sp, #4]
 80079cc:	2278      	movs	r2, #120	; 0x78
 80079ce:	605a      	str	r2, [r3, #4]
 80079d0:	681a      	ldr	r2, [r3, #0]
 80079d2:	f042 0203 	orr.w	r2, r2, #3
 80079d6:	601a      	str	r2, [r3, #0]
 80079d8:	685a      	ldr	r2, [r3, #4]
 80079da:	f442 7280 	orr.w	r2, r2, #256	; 0x100
 80079de:	605a      	str	r2, [r3, #4]
 80079e0:	9a01      	ldr	r2, [sp, #4]
 80079e2:	680b      	ldr	r3, [r1, #0]
 80079e4:	429a      	cmp	r2, r3
 80079e6:	d105      	bne.n	80079f4 <sdc_lld_start_clk+0x34>
 80079e8:	200a      	movs	r0, #10
 80079ea:	b003      	add	sp, #12
 80079ec:	f85d eb04 	ldr.w	lr, [sp], #4
 80079f0:	f7fb bf06 	b.w	8003800 <chThdSleep>
 80079f4:	f7f9 fc8c 	bl	8001310 <__stack_chk_fail>
 80079f8:	2000081c 	.word	0x2000081c
 80079fc:	00000000 	.word	0x00000000

08007a00 <sdc_lld_set_data_clk>:
 8007a00:	b500      	push	{lr}
 8007a02:	4a09      	ldr	r2, [pc, #36]	; (8007a28 <sdc_lld_set_data_clk+0x28>)
 8007a04:	6c81      	ldr	r1, [r0, #72]	; 0x48
 8007a06:	6813      	ldr	r3, [r2, #0]
 8007a08:	b083      	sub	sp, #12
 8007a0a:	9301      	str	r3, [sp, #4]
 8007a0c:	684b      	ldr	r3, [r1, #4]
 8007a0e:	f023 03ff 	bic.w	r3, r3, #255	; 0xff
 8007a12:	604b      	str	r3, [r1, #4]
 8007a14:	9901      	ldr	r1, [sp, #4]
 8007a16:	6813      	ldr	r3, [r2, #0]
 8007a18:	4299      	cmp	r1, r3
 8007a1a:	d102      	bne.n	8007a22 <sdc_lld_set_data_clk+0x22>
 8007a1c:	b003      	add	sp, #12
 8007a1e:	f85d fb04 	ldr.w	pc, [sp], #4
 8007a22:	f7f9 fc75 	bl	8001310 <__stack_chk_fail>
 8007a26:	bf00      	nop
 8007a28:	2000081c 	.word	0x2000081c
 8007a2c:	00000000 	.word	0x00000000

08007a30 <sdc_lld_stop_clk>:
 8007a30:	b500      	push	{lr}
 8007a32:	4b08      	ldr	r3, [pc, #32]	; (8007a54 <sdc_lld_stop_clk+0x24>)
 8007a34:	6c82      	ldr	r2, [r0, #72]	; 0x48
 8007a36:	6819      	ldr	r1, [r3, #0]
 8007a38:	b083      	sub	sp, #12
 8007a3a:	9101      	str	r1, [sp, #4]
 8007a3c:	2100      	movs	r1, #0
 8007a3e:	6051      	str	r1, [r2, #4]
 8007a40:	6011      	str	r1, [r2, #0]
 8007a42:	9a01      	ldr	r2, [sp, #4]
 8007a44:	681b      	ldr	r3, [r3, #0]
 8007a46:	429a      	cmp	r2, r3
 8007a48:	d102      	bne.n	8007a50 <sdc_lld_stop_clk+0x20>
 8007a4a:	b003      	add	sp, #12
 8007a4c:	f85d fb04 	ldr.w	pc, [sp], #4
 8007a50:	f7f9 fc5e 	bl	8001310 <__stack_chk_fail>
 8007a54:	2000081c 	.word	0x2000081c
	...

08007a60 <sdc_lld_set_bus_mode>:
 8007a60:	b500      	push	{lr}
 8007a62:	4a0f      	ldr	r2, [pc, #60]	; (8007aa0 <sdc_lld_set_bus_mode+0x40>)
 8007a64:	6c80      	ldr	r0, [r0, #72]	; 0x48
 8007a66:	6813      	ldr	r3, [r2, #0]
 8007a68:	b083      	sub	sp, #12
 8007a6a:	2901      	cmp	r1, #1
 8007a6c:	9301      	str	r3, [sp, #4]
 8007a6e:	6843      	ldr	r3, [r0, #4]
 8007a70:	f423 53c0 	bic.w	r3, r3, #6144	; 0x1800
 8007a74:	d00d      	beq.n	8007a92 <sdc_lld_set_bus_mode+0x32>
 8007a76:	d30a      	bcc.n	8007a8e <sdc_lld_set_bus_mode+0x2e>
 8007a78:	2902      	cmp	r1, #2
 8007a7a:	d006      	beq.n	8007a8a <sdc_lld_set_bus_mode+0x2a>
 8007a7c:	9901      	ldr	r1, [sp, #4]
 8007a7e:	6813      	ldr	r3, [r2, #0]
 8007a80:	4299      	cmp	r1, r3
 8007a82:	d10a      	bne.n	8007a9a <sdc_lld_set_bus_mode+0x3a>
 8007a84:	b003      	add	sp, #12
 8007a86:	f85d fb04 	ldr.w	pc, [sp], #4
 8007a8a:	f443 5380 	orr.w	r3, r3, #4096	; 0x1000
 8007a8e:	6043      	str	r3, [r0, #4]
 8007a90:	e7f4      	b.n	8007a7c <sdc_lld_set_bus_mode+0x1c>
 8007a92:	f443 6300 	orr.w	r3, r3, #2048	; 0x800
 8007a96:	6043      	str	r3, [r0, #4]
 8007a98:	e7f0      	b.n	8007a7c <sdc_lld_set_bus_mode+0x1c>
 8007a9a:	f7f9 fc39 	bl	8001310 <__stack_chk_fail>
 8007a9e:	bf00      	nop
 8007aa0:	2000081c 	.word	0x2000081c
	...

08007ab0 <sdc_lld_send_cmd_none>:
 8007ab0:	b510      	push	{r4, lr}
 8007ab2:	4c0b      	ldr	r4, [pc, #44]	; (8007ae0 <sdc_lld_send_cmd_none+0x30>)
 8007ab4:	6c80      	ldr	r0, [r0, #72]	; 0x48
 8007ab6:	6823      	ldr	r3, [r4, #0]
 8007ab8:	b082      	sub	sp, #8
 8007aba:	f441 6180 	orr.w	r1, r1, #1024	; 0x400
 8007abe:	9301      	str	r3, [sp, #4]
 8007ac0:	6082      	str	r2, [r0, #8]
 8007ac2:	60c1      	str	r1, [r0, #12]
 8007ac4:	6b43      	ldr	r3, [r0, #52]	; 0x34
 8007ac6:	061b      	lsls	r3, r3, #24
 8007ac8:	d5fc      	bpl.n	8007ac4 <sdc_lld_send_cmd_none+0x14>
 8007aca:	2380      	movs	r3, #128	; 0x80
 8007acc:	6383      	str	r3, [r0, #56]	; 0x38
 8007ace:	9a01      	ldr	r2, [sp, #4]
 8007ad0:	6823      	ldr	r3, [r4, #0]
 8007ad2:	429a      	cmp	r2, r3
 8007ad4:	d101      	bne.n	8007ada <sdc_lld_send_cmd_none+0x2a>
 8007ad6:	b002      	add	sp, #8
 8007ad8:	bd10      	pop	{r4, pc}
 8007ada:	f7f9 fc19 	bl	8001310 <__stack_chk_fail>
 8007ade:	bf00      	nop
 8007ae0:	2000081c 	.word	0x2000081c
	...

08007af0 <sdc_lld_send_cmd_short>:
 8007af0:	b570      	push	{r4, r5, r6, lr}
 8007af2:	4d10      	ldr	r5, [pc, #64]	; (8007b34 <sdc_lld_send_cmd_short+0x44>)
 8007af4:	6c84      	ldr	r4, [r0, #72]	; 0x48
 8007af6:	682e      	ldr	r6, [r5, #0]
 8007af8:	b082      	sub	sp, #8
 8007afa:	f441 6188 	orr.w	r1, r1, #1088	; 0x440
 8007afe:	9601      	str	r6, [sp, #4]
 8007b00:	60a2      	str	r2, [r4, #8]
 8007b02:	60e1      	str	r1, [r4, #12]
 8007b04:	6b61      	ldr	r1, [r4, #52]	; 0x34
 8007b06:	f011 0245 	ands.w	r2, r1, #69	; 0x45
 8007b0a:	d0fb      	beq.n	8007b04 <sdc_lld_send_cmd_short+0x14>
 8007b0c:	63a2      	str	r2, [r4, #56]	; 0x38
 8007b0e:	f011 0204 	ands.w	r2, r1, #4
 8007b12:	d108      	bne.n	8007b26 <sdc_lld_send_cmd_short+0x36>
 8007b14:	6961      	ldr	r1, [r4, #20]
 8007b16:	6019      	str	r1, [r3, #0]
 8007b18:	4610      	mov	r0, r2
 8007b1a:	9a01      	ldr	r2, [sp, #4]
 8007b1c:	682b      	ldr	r3, [r5, #0]
 8007b1e:	429a      	cmp	r2, r3
 8007b20:	d106      	bne.n	8007b30 <sdc_lld_send_cmd_short+0x40>
 8007b22:	b002      	add	sp, #8
 8007b24:	bd70      	pop	{r4, r5, r6, pc}
 8007b26:	3034      	adds	r0, #52	; 0x34
 8007b28:	f7ff feca 	bl	80078c0 <sdc_lld_collect_errors.isra.0>
 8007b2c:	2001      	movs	r0, #1
 8007b2e:	e7f4      	b.n	8007b1a <sdc_lld_send_cmd_short+0x2a>
 8007b30:	f7f9 fbee 	bl	8001310 <__stack_chk_fail>
 8007b34:	2000081c 	.word	0x2000081c
	...

08007b40 <sdc_lld_send_cmd_short_crc>:
 8007b40:	b570      	push	{r4, r5, r6, lr}
 8007b42:	4d10      	ldr	r5, [pc, #64]	; (8007b84 <sdc_lld_send_cmd_short_crc+0x44>)
 8007b44:	6c84      	ldr	r4, [r0, #72]	; 0x48
 8007b46:	682e      	ldr	r6, [r5, #0]
 8007b48:	b082      	sub	sp, #8
 8007b4a:	f441 6188 	orr.w	r1, r1, #1088	; 0x440
 8007b4e:	9601      	str	r6, [sp, #4]
 8007b50:	60a2      	str	r2, [r4, #8]
 8007b52:	60e1      	str	r1, [r4, #12]
 8007b54:	6b61      	ldr	r1, [r4, #52]	; 0x34
 8007b56:	f011 0245 	ands.w	r2, r1, #69	; 0x45
 8007b5a:	d0fb      	beq.n	8007b54 <sdc_lld_send_cmd_short_crc+0x14>
 8007b5c:	63a2      	str	r2, [r4, #56]	; 0x38
 8007b5e:	f011 0205 	ands.w	r2, r1, #5
 8007b62:	d108      	bne.n	8007b76 <sdc_lld_send_cmd_short_crc+0x36>
 8007b64:	6961      	ldr	r1, [r4, #20]
 8007b66:	6019      	str	r1, [r3, #0]
 8007b68:	4610      	mov	r0, r2
 8007b6a:	9a01      	ldr	r2, [sp, #4]
 8007b6c:	682b      	ldr	r3, [r5, #0]
 8007b6e:	429a      	cmp	r2, r3
 8007b70:	d106      	bne.n	8007b80 <sdc_lld_send_cmd_short_crc+0x40>
 8007b72:	b002      	add	sp, #8
 8007b74:	bd70      	pop	{r4, r5, r6, pc}
 8007b76:	3034      	adds	r0, #52	; 0x34
 8007b78:	f7ff fea2 	bl	80078c0 <sdc_lld_collect_errors.isra.0>
 8007b7c:	2001      	movs	r0, #1
 8007b7e:	e7f4      	b.n	8007b6a <sdc_lld_send_cmd_short_crc+0x2a>
 8007b80:	f7f9 fbc6 	bl	8001310 <__stack_chk_fail>
 8007b84:	2000081c 	.word	0x2000081c
	...

08007b90 <sdc_lld_wait_transaction_end>:
 8007b90:	b5f0      	push	{r4, r5, r6, r7, lr}
 8007b92:	4d3a      	ldr	r5, [pc, #232]	; (8007c7c <sdc_lld_wait_transaction_end+0xec>)
 8007b94:	b083      	sub	sp, #12
 8007b96:	682b      	ldr	r3, [r5, #0]
 8007b98:	9301      	str	r3, [sp, #4]
 8007b9a:	4604      	mov	r4, r0
 8007b9c:	460e      	mov	r6, r1
 8007b9e:	4617      	mov	r7, r2
 8007ba0:	2320      	movs	r3, #32
 8007ba2:	f383 8811 	msr	BASEPRI, r3
 8007ba6:	f7fc f933 	bl	8003e10 <_stats_start_measure_crit_thd>
 8007baa:	f7fb f8c1 	bl	8002d30 <_dbg_check_lock>
 8007bae:	6ca1      	ldr	r1, [r4, #72]	; 0x48
 8007bb0:	6bcb      	ldr	r3, [r1, #60]	; 0x3c
 8007bb2:	2b00      	cmp	r3, #0
 8007bb4:	d139      	bne.n	8007c2a <sdc_lld_wait_transaction_end+0x9a>
 8007bb6:	6b4b      	ldr	r3, [r1, #52]	; 0x34
 8007bb8:	05db      	lsls	r3, r3, #23
 8007bba:	d53e      	bpl.n	8007c3a <sdc_lld_wait_transaction_end+0xaa>
 8007bbc:	6c60      	ldr	r0, [r4, #68]	; 0x44
 8007bbe:	6802      	ldr	r2, [r0, #0]
 8007bc0:	6813      	ldr	r3, [r2, #0]
 8007bc2:	f013 0301 	ands.w	r3, r3, #1
 8007bc6:	d1fb      	bne.n	8007bc0 <sdc_lld_wait_transaction_end+0x30>
 8007bc8:	f890 e008 	ldrb.w	lr, [r0, #8]
 8007bcc:	f8d0 c004 	ldr.w	ip, [r0, #4]
 8007bd0:	482b      	ldr	r0, [pc, #172]	; (8007c80 <sdc_lld_wait_transaction_end+0xf0>)
 8007bd2:	223d      	movs	r2, #61	; 0x3d
 8007bd4:	fa02 f20e 	lsl.w	r2, r2, lr
 8007bd8:	f8cc 2000 	str.w	r2, [ip]
 8007bdc:	6388      	str	r0, [r1, #56]	; 0x38
 8007bde:	62cb      	str	r3, [r1, #44]	; 0x2c
 8007be0:	f7fb f8c6 	bl	8002d70 <_dbg_check_unlock>
 8007be4:	f7fc f92c 	bl	8003e40 <_stats_stop_measure_crit_thd>
 8007be8:	4b26      	ldr	r3, [pc, #152]	; (8007c84 <sdc_lld_wait_transaction_end+0xf4>)
 8007bea:	681a      	ldr	r2, [r3, #0]
 8007bec:	429a      	cmp	r2, r3
 8007bee:	d004      	beq.n	8007bfa <sdc_lld_wait_transaction_end+0x6a>
 8007bf0:	6999      	ldr	r1, [r3, #24]
 8007bf2:	6893      	ldr	r3, [r2, #8]
 8007bf4:	688a      	ldr	r2, [r1, #8]
 8007bf6:	429a      	cmp	r2, r3
 8007bf8:	d331      	bcc.n	8007c5e <sdc_lld_wait_transaction_end+0xce>
 8007bfa:	2200      	movs	r2, #0
 8007bfc:	f382 8811 	msr	BASEPRI, r2
 8007c00:	2e01      	cmp	r6, #1
 8007c02:	d90b      	bls.n	8007c1c <sdc_lld_wait_transaction_end+0x8c>
 8007c04:	9901      	ldr	r1, [sp, #4]
 8007c06:	682b      	ldr	r3, [r5, #0]
 8007c08:	4299      	cmp	r1, r3
 8007c0a:	d135      	bne.n	8007c78 <sdc_lld_wait_transaction_end+0xe8>
 8007c0c:	463b      	mov	r3, r7
 8007c0e:	4620      	mov	r0, r4
 8007c10:	210c      	movs	r1, #12
 8007c12:	b003      	add	sp, #12
 8007c14:	e8bd 40f0 	ldmia.w	sp!, {r4, r5, r6, r7, lr}
 8007c18:	f7ff bf92 	b.w	8007b40 <sdc_lld_send_cmd_short_crc>
 8007c1c:	4610      	mov	r0, r2
 8007c1e:	9a01      	ldr	r2, [sp, #4]
 8007c20:	682b      	ldr	r3, [r5, #0]
 8007c22:	429a      	cmp	r2, r3
 8007c24:	d128      	bne.n	8007c78 <sdc_lld_wait_transaction_end+0xe8>
 8007c26:	b003      	add	sp, #12
 8007c28:	bdf0      	pop	{r4, r5, r6, r7, pc}
 8007c2a:	f104 003c 	add.w	r0, r4, #60	; 0x3c
 8007c2e:	f7fb fec7 	bl	80039c0 <chThdSuspendS>
 8007c32:	6ca1      	ldr	r1, [r4, #72]	; 0x48
 8007c34:	6b4b      	ldr	r3, [r1, #52]	; 0x34
 8007c36:	05db      	lsls	r3, r3, #23
 8007c38:	d4c0      	bmi.n	8007bbc <sdc_lld_wait_transaction_end+0x2c>
 8007c3a:	f7fb f899 	bl	8002d70 <_dbg_check_unlock>
 8007c3e:	f7fc f8ff 	bl	8003e40 <_stats_stop_measure_crit_thd>
 8007c42:	4b10      	ldr	r3, [pc, #64]	; (8007c84 <sdc_lld_wait_transaction_end+0xf4>)
 8007c44:	681a      	ldr	r2, [r3, #0]
 8007c46:	429a      	cmp	r2, r3
 8007c48:	d004      	beq.n	8007c54 <sdc_lld_wait_transaction_end+0xc4>
 8007c4a:	6999      	ldr	r1, [r3, #24]
 8007c4c:	6893      	ldr	r3, [r2, #8]
 8007c4e:	688a      	ldr	r2, [r1, #8]
 8007c50:	429a      	cmp	r2, r3
 8007c52:	d30d      	bcc.n	8007c70 <sdc_lld_wait_transaction_end+0xe0>
 8007c54:	2300      	movs	r3, #0
 8007c56:	f383 8811 	msr	BASEPRI, r3
 8007c5a:	2001      	movs	r0, #1
 8007c5c:	e7df      	b.n	8007c1e <sdc_lld_wait_transaction_end+0x8e>
 8007c5e:	480a      	ldr	r0, [pc, #40]	; (8007c88 <sdc_lld_wait_transaction_end+0xf8>)
 8007c60:	f7fa ffc6 	bl	8002bf0 <chSysHalt>
 8007c64:	2200      	movs	r2, #0
 8007c66:	f382 8811 	msr	BASEPRI, r2
 8007c6a:	2e01      	cmp	r6, #1
 8007c6c:	d8ca      	bhi.n	8007c04 <sdc_lld_wait_transaction_end+0x74>
 8007c6e:	e7d5      	b.n	8007c1c <sdc_lld_wait_transaction_end+0x8c>
 8007c70:	4805      	ldr	r0, [pc, #20]	; (8007c88 <sdc_lld_wait_transaction_end+0xf8>)
 8007c72:	f7fa ffbd 	bl	8002bf0 <chSysHalt>
 8007c76:	e7ed      	b.n	8007c54 <sdc_lld_wait_transaction_end+0xc4>
 8007c78:	f7f9 fb4a 	bl	8001310 <__stack_chk_fail>
 8007c7c:	2000081c 	.word	0x2000081c
 8007c80:	00c007ff 	.word	0x00c007ff
 8007c84:	200018b0 	.word	0x200018b0
 8007c88:	0800dce0 	.word	0x0800dce0
 8007c8c:	00000000 	.word	0x00000000

08007c90 <sdc_lld_error_cleanup>:
 8007c90:	e92d 43f0 	stmdb	sp!, {r4, r5, r6, r7, r8, r9, lr}
 8007c94:	6c43      	ldr	r3, [r0, #68]	; 0x44
 8007c96:	4f1e      	ldr	r7, [pc, #120]	; (8007d10 <sdc_lld_error_cleanup+0x80>)
 8007c98:	f8d3 c004 	ldr.w	ip, [r3, #4]
 8007c9c:	683c      	ldr	r4, [r7, #0]
 8007c9e:	4606      	mov	r6, r0
 8007ca0:	b083      	sub	sp, #12
 8007ca2:	7a18      	ldrb	r0, [r3, #8]
 8007ca4:	9401      	str	r4, [sp, #4]
 8007ca6:	6cb5      	ldr	r5, [r6, #72]	; 0x48
 8007ca8:	681b      	ldr	r3, [r3, #0]
 8007caa:	f8d5 e034 	ldr.w	lr, [r5, #52]	; 0x34
 8007cae:	243d      	movs	r4, #61	; 0x3d
 8007cb0:	fa04 f000 	lsl.w	r0, r4, r0
 8007cb4:	f8cc 0000 	str.w	r0, [ip]
 8007cb8:	681c      	ldr	r4, [r3, #0]
 8007cba:	f024 041f 	bic.w	r4, r4, #31
 8007cbe:	4689      	mov	r9, r1
 8007cc0:	4690      	mov	r8, r2
 8007cc2:	601c      	str	r4, [r3, #0]
 8007cc4:	681c      	ldr	r4, [r3, #0]
 8007cc6:	f014 0401 	ands.w	r4, r4, #1
 8007cca:	d1fb      	bne.n	8007cc4 <sdc_lld_error_cleanup+0x34>
 8007ccc:	4b11      	ldr	r3, [pc, #68]	; (8007d14 <sdc_lld_error_cleanup+0x84>)
 8007cce:	f8cc 0000 	str.w	r0, [ip]
 8007cd2:	4671      	mov	r1, lr
 8007cd4:	63ab      	str	r3, [r5, #56]	; 0x38
 8007cd6:	f106 0034 	add.w	r0, r6, #52	; 0x34
 8007cda:	63ec      	str	r4, [r5, #60]	; 0x3c
 8007cdc:	62ec      	str	r4, [r5, #44]	; 0x2c
 8007cde:	f7ff fdef 	bl	80078c0 <sdc_lld_collect_errors.isra.0>
 8007ce2:	f1b9 0f01 	cmp.w	r9, #1
 8007ce6:	9a01      	ldr	r2, [sp, #4]
 8007ce8:	683b      	ldr	r3, [r7, #0]
 8007cea:	d90a      	bls.n	8007d02 <sdc_lld_error_cleanup+0x72>
 8007cec:	429a      	cmp	r2, r3
 8007cee:	d10d      	bne.n	8007d0c <sdc_lld_error_cleanup+0x7c>
 8007cf0:	4643      	mov	r3, r8
 8007cf2:	4622      	mov	r2, r4
 8007cf4:	4630      	mov	r0, r6
 8007cf6:	210c      	movs	r1, #12
 8007cf8:	b003      	add	sp, #12
 8007cfa:	e8bd 43f0 	ldmia.w	sp!, {r4, r5, r6, r7, r8, r9, lr}
 8007cfe:	f7ff bf1f 	b.w	8007b40 <sdc_lld_send_cmd_short_crc>
 8007d02:	429a      	cmp	r2, r3
 8007d04:	d102      	bne.n	8007d0c <sdc_lld_error_cleanup+0x7c>
 8007d06:	b003      	add	sp, #12
 8007d08:	e8bd 83f0 	ldmia.w	sp!, {r4, r5, r6, r7, r8, r9, pc}
 8007d0c:	f7f9 fb00 	bl	8001310 <__stack_chk_fail>
 8007d10:	2000081c 	.word	0x2000081c
 8007d14:	00c007ff 	.word	0x00c007ff
	...

08007d20 <sdc_lld_send_cmd_long_crc>:
 8007d20:	b570      	push	{r4, r5, r6, lr}
 8007d22:	4d13      	ldr	r5, [pc, #76]	; (8007d70 <sdc_lld_send_cmd_long_crc+0x50>)
 8007d24:	6c84      	ldr	r4, [r0, #72]	; 0x48
 8007d26:	682e      	ldr	r6, [r5, #0]
 8007d28:	b082      	sub	sp, #8
 8007d2a:	f441 6198 	orr.w	r1, r1, #1216	; 0x4c0
 8007d2e:	9601      	str	r6, [sp, #4]
 8007d30:	60a2      	str	r2, [r4, #8]
 8007d32:	60e1      	str	r1, [r4, #12]
 8007d34:	6b61      	ldr	r1, [r4, #52]	; 0x34
 8007d36:	f011 0245 	ands.w	r2, r1, #69	; 0x45
 8007d3a:	d0fb      	beq.n	8007d34 <sdc_lld_send_cmd_long_crc+0x14>
 8007d3c:	63a2      	str	r2, [r4, #56]	; 0x38
 8007d3e:	f011 023f 	ands.w	r2, r1, #63	; 0x3f
 8007d42:	d10e      	bne.n	8007d62 <sdc_lld_send_cmd_long_crc+0x42>
 8007d44:	6a21      	ldr	r1, [r4, #32]
 8007d46:	6019      	str	r1, [r3, #0]
 8007d48:	69e1      	ldr	r1, [r4, #28]
 8007d4a:	6059      	str	r1, [r3, #4]
 8007d4c:	69a1      	ldr	r1, [r4, #24]
 8007d4e:	6099      	str	r1, [r3, #8]
 8007d50:	6961      	ldr	r1, [r4, #20]
 8007d52:	60d9      	str	r1, [r3, #12]
 8007d54:	4610      	mov	r0, r2
 8007d56:	9a01      	ldr	r2, [sp, #4]
 8007d58:	682b      	ldr	r3, [r5, #0]
 8007d5a:	429a      	cmp	r2, r3
 8007d5c:	d106      	bne.n	8007d6c <sdc_lld_send_cmd_long_crc+0x4c>
 8007d5e:	b002      	add	sp, #8
 8007d60:	bd70      	pop	{r4, r5, r6, pc}
 8007d62:	3034      	adds	r0, #52	; 0x34
 8007d64:	f7ff fdac 	bl	80078c0 <sdc_lld_collect_errors.isra.0>
 8007d68:	2001      	movs	r0, #1
 8007d6a:	e7f4      	b.n	8007d56 <sdc_lld_send_cmd_long_crc+0x36>
 8007d6c:	f7f9 fad0 	bl	8001310 <__stack_chk_fail>
 8007d70:	2000081c 	.word	0x2000081c
	...

08007d80 <sdc_lld_read_special>:
 8007d80:	e92d 43f0 	stmdb	sp!, {r4, r5, r6, r7, r8, r9, lr}
 8007d84:	4e2a      	ldr	r6, [pc, #168]	; (8007e30 <sdc_lld_read_special+0xb0>)
 8007d86:	b083      	sub	sp, #12
 8007d88:	6834      	ldr	r4, [r6, #0]
 8007d8a:	9401      	str	r4, [sp, #4]
 8007d8c:	f1b2 7f80 	cmp.w	r2, #16777216	; 0x1000000
 8007d90:	f8dd 9028 	ldr.w	r9, [sp, #40]	; 0x28
 8007d94:	4615      	mov	r5, r2
 8007d96:	4604      	mov	r4, r0
 8007d98:	460f      	mov	r7, r1
 8007d9a:	4698      	mov	r8, r3
 8007d9c:	d241      	bcs.n	8007e22 <sdc_lld_read_special+0xa2>
 8007d9e:	6ca3      	ldr	r3, [r4, #72]	; 0x48
 8007da0:	4a24      	ldr	r2, [pc, #144]	; (8007e34 <sdc_lld_read_special+0xb4>)
 8007da2:	625a      	str	r2, [r3, #36]	; 0x24
 8007da4:	4620      	mov	r0, r4
 8007da6:	f7fd fd1b 	bl	80057e0 <_sdc_wait_for_transfer_state>
 8007daa:	2800      	cmp	r0, #0
 8007dac:	d137      	bne.n	8007e1e <sdc_lld_read_special+0x9e>
 8007dae:	e9d4 2310 	ldrd	r2, r3, [r4, #64]	; 0x40
 8007db2:	681b      	ldr	r3, [r3, #0]
 8007db4:	6ca0      	ldr	r0, [r4, #72]	; 0x48
 8007db6:	60df      	str	r7, [r3, #12]
 8007db8:	08a9      	lsrs	r1, r5, #2
 8007dba:	6059      	str	r1, [r3, #4]
 8007dbc:	601a      	str	r2, [r3, #0]
 8007dbe:	681f      	ldr	r7, [r3, #0]
 8007dc0:	f8df c07c 	ldr.w	ip, [pc, #124]	; 8007e40 <sdc_lld_read_special+0xc0>
 8007dc4:	f047 0701 	orr.w	r7, r7, #1
 8007dc8:	601f      	str	r7, [r3, #0]
 8007dca:	f240 372a 	movw	r7, #810	; 0x32a
 8007dce:	f8c0 c038 	str.w	ip, [r0, #56]	; 0x38
 8007dd2:	230f      	movs	r3, #15
 8007dd4:	63c7      	str	r7, [r0, #60]	; 0x3c
 8007dd6:	466f      	mov	r7, sp
 8007dd8:	6285      	str	r5, [r0, #40]	; 0x28
 8007dda:	464a      	mov	r2, r9
 8007ddc:	62c3      	str	r3, [r0, #44]	; 0x2c
 8007dde:	4641      	mov	r1, r8
 8007de0:	463b      	mov	r3, r7
 8007de2:	4620      	mov	r0, r4
 8007de4:	f7ff feac 	bl	8007b40 <sdc_lld_send_cmd_short_crc>
 8007de8:	b160      	cbz	r0, 8007e04 <sdc_lld_read_special+0x84>
 8007dea:	4620      	mov	r0, r4
 8007dec:	463a      	mov	r2, r7
 8007dee:	2101      	movs	r1, #1
 8007df0:	f7ff ff4e 	bl	8007c90 <sdc_lld_error_cleanup>
 8007df4:	2001      	movs	r0, #1
 8007df6:	9a01      	ldr	r2, [sp, #4]
 8007df8:	6833      	ldr	r3, [r6, #0]
 8007dfa:	429a      	cmp	r2, r3
 8007dfc:	d115      	bne.n	8007e2a <sdc_lld_read_special+0xaa>
 8007dfe:	b003      	add	sp, #12
 8007e00:	e8bd 83f0 	ldmia.w	sp!, {r4, r5, r6, r7, r8, r9, pc}
 8007e04:	9a00      	ldr	r2, [sp, #0]
 8007e06:	4b0c      	ldr	r3, [pc, #48]	; (8007e38 <sdc_lld_read_special+0xb8>)
 8007e08:	4013      	ands	r3, r2
 8007e0a:	2b00      	cmp	r3, #0
 8007e0c:	d1ed      	bne.n	8007dea <sdc_lld_read_special+0x6a>
 8007e0e:	463a      	mov	r2, r7
 8007e10:	2101      	movs	r1, #1
 8007e12:	4620      	mov	r0, r4
 8007e14:	f7ff febc 	bl	8007b90 <sdc_lld_wait_transaction_end>
 8007e18:	2800      	cmp	r0, #0
 8007e1a:	d1e6      	bne.n	8007dea <sdc_lld_read_special+0x6a>
 8007e1c:	e7eb      	b.n	8007df6 <sdc_lld_read_special+0x76>
 8007e1e:	466f      	mov	r7, sp
 8007e20:	e7e3      	b.n	8007dea <sdc_lld_read_special+0x6a>
 8007e22:	4806      	ldr	r0, [pc, #24]	; (8007e3c <sdc_lld_read_special+0xbc>)
 8007e24:	f7fa fee4 	bl	8002bf0 <chSysHalt>
 8007e28:	e7b9      	b.n	8007d9e <sdc_lld_read_special+0x1e>
 8007e2a:	f7f9 fa71 	bl	8001310 <__stack_chk_fail>
 8007e2e:	bf00      	nop
 8007e30:	2000081c 	.word	0x2000081c
 8007e34:	000927c0 	.word	0x000927c0
 8007e38:	fdffe008 	.word	0xfdffe008
 8007e3c:	0800dc80 	.word	0x0800dc80
 8007e40:	00c007ff 	.word	0x00c007ff
	...

08007e50 <sdc_lld_read_aligned>:
 8007e50:	e92d 41f0 	stmdb	sp!, {r4, r5, r6, r7, r8, lr}
 8007e54:	4e2e      	ldr	r6, [pc, #184]	; (8007f10 <sdc_lld_read_aligned+0xc0>)
 8007e56:	461d      	mov	r5, r3
 8007e58:	b082      	sub	sp, #8
 8007e5a:	6833      	ldr	r3, [r6, #0]
 8007e5c:	9301      	str	r3, [sp, #4]
 8007e5e:	f5b5 4f00 	cmp.w	r5, #32768	; 0x8000
 8007e62:	4604      	mov	r4, r0
 8007e64:	460f      	mov	r7, r1
 8007e66:	4690      	mov	r8, r2
 8007e68:	d245      	bcs.n	8007ef6 <sdc_lld_read_aligned+0xa6>
 8007e6a:	6ca3      	ldr	r3, [r4, #72]	; 0x48
 8007e6c:	4a29      	ldr	r2, [pc, #164]	; (8007f14 <sdc_lld_read_aligned+0xc4>)
 8007e6e:	625a      	str	r2, [r3, #36]	; 0x24
 8007e70:	4620      	mov	r0, r4
 8007e72:	f7fd fcb5 	bl	80057e0 <_sdc_wait_for_transfer_state>
 8007e76:	b130      	cbz	r0, 8007e86 <sdc_lld_read_aligned+0x36>
 8007e78:	9a01      	ldr	r2, [sp, #4]
 8007e7a:	6833      	ldr	r3, [r6, #0]
 8007e7c:	429a      	cmp	r2, r3
 8007e7e:	d145      	bne.n	8007f0c <sdc_lld_read_aligned+0xbc>
 8007e80:	b002      	add	sp, #8
 8007e82:	e8bd 81f0 	ldmia.w	sp!, {r4, r5, r6, r7, r8, pc}
 8007e86:	e9d4 2310 	ldrd	r2, r3, [r4, #64]	; 0x40
 8007e8a:	0269      	lsls	r1, r5, #9
 8007e8c:	681b      	ldr	r3, [r3, #0]
 8007e8e:	f8d4 c030 	ldr.w	ip, [r4, #48]	; 0x30
 8007e92:	f8c3 800c 	str.w	r8, [r3, #12]
 8007e96:	0888      	lsrs	r0, r1, #2
 8007e98:	6058      	str	r0, [r3, #4]
 8007e9a:	601a      	str	r2, [r3, #0]
 8007e9c:	6818      	ldr	r0, [r3, #0]
 8007e9e:	6ca2      	ldr	r2, [r4, #72]	; 0x48
 8007ea0:	f040 0001 	orr.w	r0, r0, #1
 8007ea4:	6018      	str	r0, [r3, #0]
 8007ea6:	4b1c      	ldr	r3, [pc, #112]	; (8007f18 <sdc_lld_read_aligned+0xc8>)
 8007ea8:	6393      	str	r3, [r2, #56]	; 0x38
 8007eaa:	f01c 0f10 	tst.w	ip, #16
 8007eae:	f240 332a 	movw	r3, #810	; 0x32a
 8007eb2:	63d3      	str	r3, [r2, #60]	; 0x3c
 8007eb4:	bf08      	it	eq
 8007eb6:	027f      	lsleq	r7, r7, #9
 8007eb8:	239b      	movs	r3, #155	; 0x9b
 8007eba:	46e8      	mov	r8, sp
 8007ebc:	2d01      	cmp	r5, #1
 8007ebe:	6291      	str	r1, [r2, #40]	; 0x28
 8007ec0:	62d3      	str	r3, [r2, #44]	; 0x2c
 8007ec2:	463a      	mov	r2, r7
 8007ec4:	4643      	mov	r3, r8
 8007ec6:	d91a      	bls.n	8007efe <sdc_lld_read_aligned+0xae>
 8007ec8:	2112      	movs	r1, #18
 8007eca:	4620      	mov	r0, r4
 8007ecc:	f7ff fe38 	bl	8007b40 <sdc_lld_send_cmd_short_crc>
 8007ed0:	b950      	cbnz	r0, 8007ee8 <sdc_lld_read_aligned+0x98>
 8007ed2:	9a00      	ldr	r2, [sp, #0]
 8007ed4:	4b11      	ldr	r3, [pc, #68]	; (8007f1c <sdc_lld_read_aligned+0xcc>)
 8007ed6:	4013      	ands	r3, r2
 8007ed8:	b933      	cbnz	r3, 8007ee8 <sdc_lld_read_aligned+0x98>
 8007eda:	4642      	mov	r2, r8
 8007edc:	4629      	mov	r1, r5
 8007ede:	4620      	mov	r0, r4
 8007ee0:	f7ff fe56 	bl	8007b90 <sdc_lld_wait_transaction_end>
 8007ee4:	2800      	cmp	r0, #0
 8007ee6:	d0c7      	beq.n	8007e78 <sdc_lld_read_aligned+0x28>
 8007ee8:	4620      	mov	r0, r4
 8007eea:	4642      	mov	r2, r8
 8007eec:	4629      	mov	r1, r5
 8007eee:	f7ff fecf 	bl	8007c90 <sdc_lld_error_cleanup>
 8007ef2:	2001      	movs	r0, #1
 8007ef4:	e7c0      	b.n	8007e78 <sdc_lld_read_aligned+0x28>
 8007ef6:	480a      	ldr	r0, [pc, #40]	; (8007f20 <sdc_lld_read_aligned+0xd0>)
 8007ef8:	f7fa fe7a 	bl	8002bf0 <chSysHalt>
 8007efc:	e7b5      	b.n	8007e6a <sdc_lld_read_aligned+0x1a>
 8007efe:	2111      	movs	r1, #17
 8007f00:	4620      	mov	r0, r4
 8007f02:	f7ff fe1d 	bl	8007b40 <sdc_lld_send_cmd_short_crc>
 8007f06:	2800      	cmp	r0, #0
 8007f08:	d0e3      	beq.n	8007ed2 <sdc_lld_read_aligned+0x82>
 8007f0a:	e7ed      	b.n	8007ee8 <sdc_lld_read_aligned+0x98>
 8007f0c:	f7f9 fa00 	bl	8001310 <__stack_chk_fail>
 8007f10:	2000081c 	.word	0x2000081c
 8007f14:	000927c0 	.word	0x000927c0
 8007f18:	00c007ff 	.word	0x00c007ff
 8007f1c:	fdffe008 	.word	0xfdffe008
 8007f20:	0800dca0 	.word	0x0800dca0
	...

08007f30 <sdc_lld_write_aligned>:
 8007f30:	e92d 41f0 	stmdb	sp!, {r4, r5, r6, r7, r8, lr}
 8007f34:	4e30      	ldr	r6, [pc, #192]	; (8007ff8 <sdc_lld_write_aligned+0xc8>)
 8007f36:	461d      	mov	r5, r3
 8007f38:	b082      	sub	sp, #8
 8007f3a:	6833      	ldr	r3, [r6, #0]
 8007f3c:	9301      	str	r3, [sp, #4]
 8007f3e:	f5b5 4f00 	cmp.w	r5, #32768	; 0x8000
 8007f42:	4604      	mov	r4, r0
 8007f44:	460f      	mov	r7, r1
 8007f46:	4690      	mov	r8, r2
 8007f48:	d248      	bcs.n	8007fdc <sdc_lld_write_aligned+0xac>
 8007f4a:	6ca3      	ldr	r3, [r4, #72]	; 0x48
 8007f4c:	4a2b      	ldr	r2, [pc, #172]	; (8007ffc <sdc_lld_write_aligned+0xcc>)
 8007f4e:	625a      	str	r2, [r3, #36]	; 0x24
 8007f50:	4620      	mov	r0, r4
 8007f52:	f7fd fc45 	bl	80057e0 <_sdc_wait_for_transfer_state>
 8007f56:	b130      	cbz	r0, 8007f66 <sdc_lld_write_aligned+0x36>
 8007f58:	9a01      	ldr	r2, [sp, #4]
 8007f5a:	6833      	ldr	r3, [r6, #0]
 8007f5c:	429a      	cmp	r2, r3
 8007f5e:	d148      	bne.n	8007ff2 <sdc_lld_write_aligned+0xc2>
 8007f60:	b002      	add	sp, #8
 8007f62:	e8bd 81f0 	ldmia.w	sp!, {r4, r5, r6, r7, r8, pc}
 8007f66:	e9d4 1310 	ldrd	r1, r3, [r4, #64]	; 0x40
 8007f6a:	026a      	lsls	r2, r5, #9
 8007f6c:	681b      	ldr	r3, [r3, #0]
 8007f6e:	f8d4 c030 	ldr.w	ip, [r4, #48]	; 0x30
 8007f72:	f8c3 800c 	str.w	r8, [r3, #12]
 8007f76:	0890      	lsrs	r0, r2, #2
 8007f78:	f041 0140 	orr.w	r1, r1, #64	; 0x40
 8007f7c:	6058      	str	r0, [r3, #4]
 8007f7e:	6019      	str	r1, [r3, #0]
 8007f80:	6818      	ldr	r0, [r3, #0]
 8007f82:	6ca1      	ldr	r1, [r4, #72]	; 0x48
 8007f84:	f040 0001 	orr.w	r0, r0, #1
 8007f88:	6018      	str	r0, [r3, #0]
 8007f8a:	f01c 0f10 	tst.w	ip, #16
 8007f8e:	4b1c      	ldr	r3, [pc, #112]	; (8008000 <sdc_lld_write_aligned+0xd0>)
 8007f90:	638b      	str	r3, [r1, #56]	; 0x38
 8007f92:	bf08      	it	eq
 8007f94:	027f      	lsleq	r7, r7, #9
 8007f96:	f240 331a 	movw	r3, #794	; 0x31a
 8007f9a:	46e8      	mov	r8, sp
 8007f9c:	2d01      	cmp	r5, #1
 8007f9e:	63cb      	str	r3, [r1, #60]	; 0x3c
 8007fa0:	628a      	str	r2, [r1, #40]	; 0x28
 8007fa2:	4643      	mov	r3, r8
 8007fa4:	463a      	mov	r2, r7
 8007fa6:	d91d      	bls.n	8007fe4 <sdc_lld_write_aligned+0xb4>
 8007fa8:	2119      	movs	r1, #25
 8007faa:	4620      	mov	r0, r4
 8007fac:	f7ff fdc8 	bl	8007b40 <sdc_lld_send_cmd_short_crc>
 8007fb0:	b968      	cbnz	r0, 8007fce <sdc_lld_write_aligned+0x9e>
 8007fb2:	9a00      	ldr	r2, [sp, #0]
 8007fb4:	4b13      	ldr	r3, [pc, #76]	; (8008004 <sdc_lld_write_aligned+0xd4>)
 8007fb6:	4013      	ands	r3, r2
 8007fb8:	b94b      	cbnz	r3, 8007fce <sdc_lld_write_aligned+0x9e>
 8007fba:	6ca3      	ldr	r3, [r4, #72]	; 0x48
 8007fbc:	2299      	movs	r2, #153	; 0x99
 8007fbe:	62da      	str	r2, [r3, #44]	; 0x2c
 8007fc0:	4629      	mov	r1, r5
 8007fc2:	4642      	mov	r2, r8
 8007fc4:	4620      	mov	r0, r4
 8007fc6:	f7ff fde3 	bl	8007b90 <sdc_lld_wait_transaction_end>
 8007fca:	2800      	cmp	r0, #0
 8007fcc:	d0c4      	beq.n	8007f58 <sdc_lld_write_aligned+0x28>
 8007fce:	4620      	mov	r0, r4
 8007fd0:	4642      	mov	r2, r8
 8007fd2:	4629      	mov	r1, r5
 8007fd4:	f7ff fe5c 	bl	8007c90 <sdc_lld_error_cleanup>
 8007fd8:	2001      	movs	r0, #1
 8007fda:	e7bd      	b.n	8007f58 <sdc_lld_write_aligned+0x28>
 8007fdc:	480a      	ldr	r0, [pc, #40]	; (8008008 <sdc_lld_write_aligned+0xd8>)
 8007fde:	f7fa fe07 	bl	8002bf0 <chSysHalt>
 8007fe2:	e7b2      	b.n	8007f4a <sdc_lld_write_aligned+0x1a>
 8007fe4:	2118      	movs	r1, #24
 8007fe6:	4620      	mov	r0, r4
 8007fe8:	f7ff fdaa 	bl	8007b40 <sdc_lld_send_cmd_short_crc>
 8007fec:	2800      	cmp	r0, #0
 8007fee:	d0e0      	beq.n	8007fb2 <sdc_lld_write_aligned+0x82>
 8007ff0:	e7ed      	b.n	8007fce <sdc_lld_write_aligned+0x9e>
 8007ff2:	f7f9 f98d 	bl	8001310 <__stack_chk_fail>
 8007ff6:	bf00      	nop
 8007ff8:	2000081c 	.word	0x2000081c
 8007ffc:	005b8d80 	.word	0x005b8d80
 8008000:	00c007ff 	.word	0x00c007ff
 8008004:	fdffe008 	.word	0xfdffe008
 8008008:	0800dcc0 	.word	0x0800dcc0
 800800c:	00000000 	.word	0x00000000

08008010 <sdc_lld_read>:
 8008010:	e92d 43f0 	stmdb	sp!, {r4, r5, r6, r7, r8, r9, lr}
 8008014:	f8df 9074 	ldr.w	r9, [pc, #116]	; 800808c <sdc_lld_read+0x7c>
 8008018:	b083      	sub	sp, #12
 800801a:	f8d9 4000 	ldr.w	r4, [r9]
 800801e:	9401      	str	r4, [sp, #4]
 8008020:	0794      	lsls	r4, r2, #30
 8008022:	d024      	beq.n	800806e <sdc_lld_read+0x5e>
 8008024:	461f      	mov	r7, r3
 8008026:	b303      	cbz	r3, 800806a <sdc_lld_read+0x5a>
 8008028:	4615      	mov	r5, r2
 800802a:	4680      	mov	r8, r0
 800802c:	460c      	mov	r4, r1
 800802e:	4e16      	ldr	r6, [pc, #88]	; (8008088 <sdc_lld_read+0x78>)
 8008030:	440f      	add	r7, r1
 8008032:	e00a      	b.n	800804a <sdc_lld_read+0x3a>
 8008034:	4628      	mov	r0, r5
 8008036:	3401      	adds	r4, #1
 8008038:	f44f 7200 	mov.w	r2, #512	; 0x200
 800803c:	4631      	mov	r1, r6
 800803e:	f7f8 ff6f 	bl	8000f20 <memcpy>
 8008042:	42bc      	cmp	r4, r7
 8008044:	f505 7500 	add.w	r5, r5, #512	; 0x200
 8008048:	d00f      	beq.n	800806a <sdc_lld_read+0x5a>
 800804a:	2301      	movs	r3, #1
 800804c:	4632      	mov	r2, r6
 800804e:	4621      	mov	r1, r4
 8008050:	4640      	mov	r0, r8
 8008052:	f7ff fefd 	bl	8007e50 <sdc_lld_read_aligned>
 8008056:	2800      	cmp	r0, #0
 8008058:	d0ec      	beq.n	8008034 <sdc_lld_read+0x24>
 800805a:	9a01      	ldr	r2, [sp, #4]
 800805c:	f8d9 3000 	ldr.w	r3, [r9]
 8008060:	429a      	cmp	r2, r3
 8008062:	d10e      	bne.n	8008082 <sdc_lld_read+0x72>
 8008064:	b003      	add	sp, #12
 8008066:	e8bd 83f0 	ldmia.w	sp!, {r4, r5, r6, r7, r8, r9, pc}
 800806a:	2000      	movs	r0, #0
 800806c:	e7f5      	b.n	800805a <sdc_lld_read+0x4a>
 800806e:	9d01      	ldr	r5, [sp, #4]
 8008070:	f8d9 4000 	ldr.w	r4, [r9]
 8008074:	42a5      	cmp	r5, r4
 8008076:	d104      	bne.n	8008082 <sdc_lld_read+0x72>
 8008078:	b003      	add	sp, #12
 800807a:	e8bd 43f0 	ldmia.w	sp!, {r4, r5, r6, r7, r8, r9, lr}
 800807e:	f7ff bee7 	b.w	8007e50 <sdc_lld_read_aligned>
 8008082:	f7f9 f945 	bl	8001310 <__stack_chk_fail>
 8008086:	bf00      	nop
 8008088:	20002100 	.word	0x20002100
 800808c:	2000081c 	.word	0x2000081c

08008090 <sdc_lld_write>:
 8008090:	e92d 43f0 	stmdb	sp!, {r4, r5, r6, r7, r8, r9, lr}
 8008094:	f8df 9074 	ldr.w	r9, [pc, #116]	; 800810c <sdc_lld_write+0x7c>
 8008098:	b083      	sub	sp, #12
 800809a:	f8d9 4000 	ldr.w	r4, [r9]
 800809e:	9401      	str	r4, [sp, #4]
 80080a0:	0794      	lsls	r4, r2, #30
 80080a2:	d024      	beq.n	80080ee <sdc_lld_write+0x5e>
 80080a4:	461f      	mov	r7, r3
 80080a6:	b303      	cbz	r3, 80080ea <sdc_lld_write+0x5a>
 80080a8:	4615      	mov	r5, r2
 80080aa:	4680      	mov	r8, r0
 80080ac:	460c      	mov	r4, r1
 80080ae:	4e16      	ldr	r6, [pc, #88]	; (8008108 <sdc_lld_write+0x78>)
 80080b0:	440f      	add	r7, r1
 80080b2:	e002      	b.n	80080ba <sdc_lld_write+0x2a>
 80080b4:	3401      	adds	r4, #1
 80080b6:	42bc      	cmp	r4, r7
 80080b8:	d017      	beq.n	80080ea <sdc_lld_write+0x5a>
 80080ba:	4629      	mov	r1, r5
 80080bc:	f44f 7200 	mov.w	r2, #512	; 0x200
 80080c0:	4630      	mov	r0, r6
 80080c2:	f7f8 ff2d 	bl	8000f20 <memcpy>
 80080c6:	2301      	movs	r3, #1
 80080c8:	4632      	mov	r2, r6
 80080ca:	4621      	mov	r1, r4
 80080cc:	4640      	mov	r0, r8
 80080ce:	f7ff ff2f 	bl	8007f30 <sdc_lld_write_aligned>
 80080d2:	f505 7500 	add.w	r5, r5, #512	; 0x200
 80080d6:	2800      	cmp	r0, #0
 80080d8:	d0ec      	beq.n	80080b4 <sdc_lld_write+0x24>
 80080da:	9a01      	ldr	r2, [sp, #4]
 80080dc:	f8d9 3000 	ldr.w	r3, [r9]
 80080e0:	429a      	cmp	r2, r3
 80080e2:	d10e      	bne.n	8008102 <sdc_lld_write+0x72>
 80080e4:	b003      	add	sp, #12
 80080e6:	e8bd 83f0 	ldmia.w	sp!, {r4, r5, r6, r7, r8, r9, pc}
 80080ea:	2000      	movs	r0, #0
 80080ec:	e7f5      	b.n	80080da <sdc_lld_write+0x4a>
 80080ee:	9d01      	ldr	r5, [sp, #4]
 80080f0:	f8d9 4000 	ldr.w	r4, [r9]
 80080f4:	42a5      	cmp	r5, r4
 80080f6:	d104      	bne.n	8008102 <sdc_lld_write+0x72>
 80080f8:	b003      	add	sp, #12
 80080fa:	e8bd 43f0 	ldmia.w	sp!, {r4, r5, r6, r7, r8, r9, lr}
 80080fe:	f7ff bf17 	b.w	8007f30 <sdc_lld_write_aligned>
 8008102:	f7f9 f905 	bl	8001310 <__stack_chk_fail>
 8008106:	bf00      	nop
 8008108:	20002100 	.word	0x20002100
 800810c:	2000081c 	.word	0x2000081c

08008110 <sdc_lld_sync>:
 8008110:	b500      	push	{lr}
 8008112:	4b07      	ldr	r3, [pc, #28]	; (8008130 <sdc_lld_sync+0x20>)
 8008114:	b083      	sub	sp, #12
 8008116:	681a      	ldr	r2, [r3, #0]
 8008118:	9201      	str	r2, [sp, #4]
 800811a:	9a01      	ldr	r2, [sp, #4]
 800811c:	681b      	ldr	r3, [r3, #0]
 800811e:	429a      	cmp	r2, r3
 8008120:	d103      	bne.n	800812a <sdc_lld_sync+0x1a>
 8008122:	2000      	movs	r0, #0
 8008124:	b003      	add	sp, #12
 8008126:	f85d fb04 	ldr.w	pc, [sp], #4
 800812a:	f7f9 f8f1 	bl	8001310 <__stack_chk_fail>
 800812e:	bf00      	nop
 8008130:	2000081c 	.word	0x2000081c
	...

08008140 <dac_lld_init>:
 8008140:	b530      	push	{r4, r5, lr}
 8008142:	4d09      	ldr	r5, [pc, #36]	; (8008168 <dac_lld_init+0x28>)
 8008144:	4c09      	ldr	r4, [pc, #36]	; (800816c <dac_lld_init+0x2c>)
 8008146:	682b      	ldr	r3, [r5, #0]
 8008148:	b083      	sub	sp, #12
 800814a:	4620      	mov	r0, r4
 800814c:	9301      	str	r3, [sp, #4]
 800814e:	f7fc fe37 	bl	8004dc0 <dacObjectInit>
 8008152:	9a01      	ldr	r2, [sp, #4]
 8008154:	682b      	ldr	r3, [r5, #0]
 8008156:	4906      	ldr	r1, [pc, #24]	; (8008170 <dac_lld_init+0x30>)
 8008158:	62e1      	str	r1, [r4, #44]	; 0x2c
 800815a:	429a      	cmp	r2, r3
 800815c:	d101      	bne.n	8008162 <dac_lld_init+0x22>
 800815e:	b003      	add	sp, #12
 8008160:	bd30      	pop	{r4, r5, pc}
 8008162:	f7f9 f8d5 	bl	8001310 <__stack_chk_fail>
 8008166:	bf00      	nop
 8008168:	2000081c 	.word	0x2000081c
 800816c:	20002300 	.word	0x20002300
 8008170:	0800dcf0 	.word	0x0800dcf0
	...

08008180 <_pal_lld_init>:
 8008180:	b570      	push	{r4, r5, r6, lr}
 8008182:	4c70      	ldr	r4, [pc, #448]	; (8008344 <_pal_lld_init+0x1c4>)
 8008184:	4a70      	ldr	r2, [pc, #448]	; (8008348 <_pal_lld_init+0x1c8>)
 8008186:	6823      	ldr	r3, [r4, #0]
 8008188:	b082      	sub	sp, #8
 800818a:	f240 16ff 	movw	r6, #511	; 0x1ff
 800818e:	9301      	str	r3, [sp, #4]
 8008190:	6b15      	ldr	r5, [r2, #48]	; 0x30
 8008192:	4b6e      	ldr	r3, [pc, #440]	; (800834c <_pal_lld_init+0x1cc>)
 8008194:	4335      	orrs	r5, r6
 8008196:	6315      	str	r5, [r2, #48]	; 0x30
 8008198:	6d11      	ldr	r1, [r2, #80]	; 0x50
 800819a:	4331      	orrs	r1, r6
 800819c:	6511      	str	r1, [r2, #80]	; 0x50
 800819e:	6842      	ldr	r2, [r0, #4]
 80081a0:	605a      	str	r2, [r3, #4]
 80081a2:	6882      	ldr	r2, [r0, #8]
 80081a4:	609a      	str	r2, [r3, #8]
 80081a6:	68c2      	ldr	r2, [r0, #12]
 80081a8:	60da      	str	r2, [r3, #12]
 80081aa:	6902      	ldr	r2, [r0, #16]
 80081ac:	615a      	str	r2, [r3, #20]
 80081ae:	6942      	ldr	r2, [r0, #20]
 80081b0:	621a      	str	r2, [r3, #32]
 80081b2:	6982      	ldr	r2, [r0, #24]
 80081b4:	625a      	str	r2, [r3, #36]	; 0x24
 80081b6:	6802      	ldr	r2, [r0, #0]
 80081b8:	601a      	str	r2, [r3, #0]
 80081ba:	6a02      	ldr	r2, [r0, #32]
 80081bc:	f8c3 2404 	str.w	r2, [r3, #1028]	; 0x404
 80081c0:	6a42      	ldr	r2, [r0, #36]	; 0x24
 80081c2:	f8c3 2408 	str.w	r2, [r3, #1032]	; 0x408
 80081c6:	6a82      	ldr	r2, [r0, #40]	; 0x28
 80081c8:	f8c3 240c 	str.w	r2, [r3, #1036]	; 0x40c
 80081cc:	6ac2      	ldr	r2, [r0, #44]	; 0x2c
 80081ce:	f8c3 2414 	str.w	r2, [r3, #1044]	; 0x414
 80081d2:	6b02      	ldr	r2, [r0, #48]	; 0x30
 80081d4:	f8c3 2420 	str.w	r2, [r3, #1056]	; 0x420
 80081d8:	6b42      	ldr	r2, [r0, #52]	; 0x34
 80081da:	f8c3 2424 	str.w	r2, [r3, #1060]	; 0x424
 80081de:	69c2      	ldr	r2, [r0, #28]
 80081e0:	f8c3 2400 	str.w	r2, [r3, #1024]	; 0x400
 80081e4:	6bc2      	ldr	r2, [r0, #60]	; 0x3c
 80081e6:	f8c3 2804 	str.w	r2, [r3, #2052]	; 0x804
 80081ea:	6c02      	ldr	r2, [r0, #64]	; 0x40
 80081ec:	f8c3 2808 	str.w	r2, [r3, #2056]	; 0x808
 80081f0:	6c42      	ldr	r2, [r0, #68]	; 0x44
 80081f2:	f8c3 280c 	str.w	r2, [r3, #2060]	; 0x80c
 80081f6:	6c82      	ldr	r2, [r0, #72]	; 0x48
 80081f8:	f8c3 2814 	str.w	r2, [r3, #2068]	; 0x814
 80081fc:	6cc2      	ldr	r2, [r0, #76]	; 0x4c
 80081fe:	f8c3 2820 	str.w	r2, [r3, #2080]	; 0x820
 8008202:	6d02      	ldr	r2, [r0, #80]	; 0x50
 8008204:	f8c3 2824 	str.w	r2, [r3, #2084]	; 0x824
 8008208:	6b82      	ldr	r2, [r0, #56]	; 0x38
 800820a:	f8c3 2800 	str.w	r2, [r3, #2048]	; 0x800
 800820e:	f503 6340 	add.w	r3, r3, #3072	; 0xc00
 8008212:	6d82      	ldr	r2, [r0, #88]	; 0x58
 8008214:	605a      	str	r2, [r3, #4]
 8008216:	6dc2      	ldr	r2, [r0, #92]	; 0x5c
 8008218:	609a      	str	r2, [r3, #8]
 800821a:	6e02      	ldr	r2, [r0, #96]	; 0x60
 800821c:	60da      	str	r2, [r3, #12]
 800821e:	6e42      	ldr	r2, [r0, #100]	; 0x64
 8008220:	615a      	str	r2, [r3, #20]
 8008222:	6e82      	ldr	r2, [r0, #104]	; 0x68
 8008224:	621a      	str	r2, [r3, #32]
 8008226:	6ec2      	ldr	r2, [r0, #108]	; 0x6c
 8008228:	625a      	str	r2, [r3, #36]	; 0x24
 800822a:	6d42      	ldr	r2, [r0, #84]	; 0x54
 800822c:	601a      	str	r2, [r3, #0]
 800822e:	6f42      	ldr	r2, [r0, #116]	; 0x74
 8008230:	f8c3 2404 	str.w	r2, [r3, #1028]	; 0x404
 8008234:	6f82      	ldr	r2, [r0, #120]	; 0x78
 8008236:	f8c3 2408 	str.w	r2, [r3, #1032]	; 0x408
 800823a:	6fc2      	ldr	r2, [r0, #124]	; 0x7c
 800823c:	f8c3 240c 	str.w	r2, [r3, #1036]	; 0x40c
 8008240:	f8d0 2080 	ldr.w	r2, [r0, #128]	; 0x80
 8008244:	f8c3 2414 	str.w	r2, [r3, #1044]	; 0x414
 8008248:	f8d0 2084 	ldr.w	r2, [r0, #132]	; 0x84
 800824c:	f8c3 2420 	str.w	r2, [r3, #1056]	; 0x420
 8008250:	f8d0 2088 	ldr.w	r2, [r0, #136]	; 0x88
 8008254:	f8c3 2424 	str.w	r2, [r3, #1060]	; 0x424
 8008258:	6f02      	ldr	r2, [r0, #112]	; 0x70
 800825a:	f8c3 2400 	str.w	r2, [r3, #1024]	; 0x400
 800825e:	f8d0 2090 	ldr.w	r2, [r0, #144]	; 0x90
 8008262:	f8c3 2804 	str.w	r2, [r3, #2052]	; 0x804
 8008266:	f8d0 2094 	ldr.w	r2, [r0, #148]	; 0x94
 800826a:	f8c3 2808 	str.w	r2, [r3, #2056]	; 0x808
 800826e:	f8d0 2098 	ldr.w	r2, [r0, #152]	; 0x98
 8008272:	f8c3 280c 	str.w	r2, [r3, #2060]	; 0x80c
 8008276:	f8d0 209c 	ldr.w	r2, [r0, #156]	; 0x9c
 800827a:	f8c3 2814 	str.w	r2, [r3, #2068]	; 0x814
 800827e:	f8d0 20a0 	ldr.w	r2, [r0, #160]	; 0xa0
 8008282:	f8c3 2820 	str.w	r2, [r3, #2080]	; 0x820
 8008286:	f8d0 20a4 	ldr.w	r2, [r0, #164]	; 0xa4
 800828a:	f8c3 2824 	str.w	r2, [r3, #2084]	; 0x824
 800828e:	f8d0 208c 	ldr.w	r2, [r0, #140]	; 0x8c
 8008292:	f8c3 2800 	str.w	r2, [r3, #2048]	; 0x800
 8008296:	f503 6340 	add.w	r3, r3, #3072	; 0xc00
 800829a:	f8d0 20ac 	ldr.w	r2, [r0, #172]	; 0xac
 800829e:	605a      	str	r2, [r3, #4]
 80082a0:	f8d0 20b0 	ldr.w	r2, [r0, #176]	; 0xb0
 80082a4:	609a      	str	r2, [r3, #8]
 80082a6:	f8d0 20b4 	ldr.w	r2, [r0, #180]	; 0xb4
 80082aa:	60da      	str	r2, [r3, #12]
 80082ac:	f8d0 20b8 	ldr.w	r2, [r0, #184]	; 0xb8
 80082b0:	615a      	str	r2, [r3, #20]
 80082b2:	f8d0 20bc 	ldr.w	r2, [r0, #188]	; 0xbc
 80082b6:	621a      	str	r2, [r3, #32]
 80082b8:	f8d0 20c0 	ldr.w	r2, [r0, #192]	; 0xc0
 80082bc:	625a      	str	r2, [r3, #36]	; 0x24
 80082be:	f8d0 20a8 	ldr.w	r2, [r0, #168]	; 0xa8
 80082c2:	601a      	str	r2, [r3, #0]
 80082c4:	f8d0 20c8 	ldr.w	r2, [r0, #200]	; 0xc8
 80082c8:	f8c3 2404 	str.w	r2, [r3, #1028]	; 0x404
 80082cc:	f8d0 20cc 	ldr.w	r2, [r0, #204]	; 0xcc
 80082d0:	f8c3 2408 	str.w	r2, [r3, #1032]	; 0x408
 80082d4:	f8d0 20d0 	ldr.w	r2, [r0, #208]	; 0xd0
 80082d8:	f8c3 240c 	str.w	r2, [r3, #1036]	; 0x40c
 80082dc:	f8d0 20d4 	ldr.w	r2, [r0, #212]	; 0xd4
 80082e0:	f8c3 2414 	str.w	r2, [r3, #1044]	; 0x414
 80082e4:	f8d0 20d8 	ldr.w	r2, [r0, #216]	; 0xd8
 80082e8:	f8c3 2420 	str.w	r2, [r3, #1056]	; 0x420
 80082ec:	f8d0 20dc 	ldr.w	r2, [r0, #220]	; 0xdc
 80082f0:	f8c3 2424 	str.w	r2, [r3, #1060]	; 0x424
 80082f4:	f8d0 20c4 	ldr.w	r2, [r0, #196]	; 0xc4
 80082f8:	f8c3 2400 	str.w	r2, [r3, #1024]	; 0x400
 80082fc:	f8d0 20e4 	ldr.w	r2, [r0, #228]	; 0xe4
 8008300:	f8c3 2804 	str.w	r2, [r3, #2052]	; 0x804
 8008304:	f8d0 20e8 	ldr.w	r2, [r0, #232]	; 0xe8
 8008308:	f8c3 2808 	str.w	r2, [r3, #2056]	; 0x808
 800830c:	f8d0 20ec 	ldr.w	r2, [r0, #236]	; 0xec
 8008310:	f8c3 280c 	str.w	r2, [r3, #2060]	; 0x80c
 8008314:	f8d0 20f0 	ldr.w	r2, [r0, #240]	; 0xf0
 8008318:	f8c3 2814 	str.w	r2, [r3, #2068]	; 0x814
 800831c:	f8d0 20f4 	ldr.w	r2, [r0, #244]	; 0xf4
 8008320:	f8c3 2820 	str.w	r2, [r3, #2080]	; 0x820
 8008324:	f8d0 20f8 	ldr.w	r2, [r0, #248]	; 0xf8
 8008328:	f8c3 2824 	str.w	r2, [r3, #2084]	; 0x824
 800832c:	f8d0 20e0 	ldr.w	r2, [r0, #224]	; 0xe0
 8008330:	f8c3 2800 	str.w	r2, [r3, #2048]	; 0x800
 8008334:	9a01      	ldr	r2, [sp, #4]
 8008336:	6823      	ldr	r3, [r4, #0]
 8008338:	429a      	cmp	r2, r3
 800833a:	d101      	bne.n	8008340 <_pal_lld_init+0x1c0>
 800833c:	b002      	add	sp, #8
 800833e:	bd70      	pop	{r4, r5, r6, pc}
 8008340:	f7f8 ffe6 	bl	8001310 <__stack_chk_fail>
 8008344:	2000081c 	.word	0x2000081c
 8008348:	40023800 	.word	0x40023800
 800834c:	40020000 	.word	0x40020000

08008350 <_pal_lld_setgroupmode>:
 8008350:	e92d 4ff0 	stmdb	sp!, {r4, r5, r6, r7, r8, r9, sl, fp, lr}
 8008354:	4b2c      	ldr	r3, [pc, #176]	; (8008408 <_pal_lld_setgroupmode+0xb8>)
 8008356:	b083      	sub	sp, #12
 8008358:	681b      	ldr	r3, [r3, #0]
 800835a:	9301      	str	r3, [sp, #4]
 800835c:	f002 0803 	and.w	r8, r2, #3
 8008360:	f3c2 0e80 	ubfx	lr, r2, #2, #1
 8008364:	f3c2 0cc1 	ubfx	ip, r2, #3, #2
 8008368:	f3c2 1741 	ubfx	r7, r2, #5, #2
 800836c:	2500      	movs	r5, #0
 800836e:	f3c2 12c3 	ubfx	r2, r2, #7, #4
 8008372:	f04f 0b0f 	mov.w	fp, #15
 8008376:	f04f 0a01 	mov.w	sl, #1
 800837a:	f04f 0903 	mov.w	r9, #3
 800837e:	e027      	b.n	80083d0 <_pal_lld_setgroupmode+0x80>
 8008380:	6a06      	ldr	r6, [r0, #32]
 8008382:	4034      	ands	r4, r6
 8008384:	4323      	orrs	r3, r4
 8008386:	6203      	str	r3, [r0, #32]
 8008388:	6843      	ldr	r3, [r0, #4]
 800838a:	fa0a f405 	lsl.w	r4, sl, r5
 800838e:	ea23 0304 	bic.w	r3, r3, r4
 8008392:	ea43 030e 	orr.w	r3, r3, lr
 8008396:	6043      	str	r3, [r0, #4]
 8008398:	006b      	lsls	r3, r5, #1
 800839a:	6884      	ldr	r4, [r0, #8]
 800839c:	fa09 f303 	lsl.w	r3, r9, r3
 80083a0:	43db      	mvns	r3, r3
 80083a2:	401c      	ands	r4, r3
 80083a4:	ea44 040c 	orr.w	r4, r4, ip
 80083a8:	6084      	str	r4, [r0, #8]
 80083aa:	68c4      	ldr	r4, [r0, #12]
 80083ac:	401c      	ands	r4, r3
 80083ae:	433c      	orrs	r4, r7
 80083b0:	60c4      	str	r4, [r0, #12]
 80083b2:	6804      	ldr	r4, [r0, #0]
 80083b4:	4023      	ands	r3, r4
 80083b6:	ea43 0308 	orr.w	r3, r3, r8
 80083ba:	6003      	str	r3, [r0, #0]
 80083bc:	0849      	lsrs	r1, r1, #1
 80083be:	d019      	beq.n	80083f4 <_pal_lld_setgroupmode+0xa4>
 80083c0:	ea4f 0e4e 	mov.w	lr, lr, lsl #1
 80083c4:	ea4f 0c8c 	mov.w	ip, ip, lsl #2
 80083c8:	00bf      	lsls	r7, r7, #2
 80083ca:	ea4f 0888 	mov.w	r8, r8, lsl #2
 80083ce:	3501      	adds	r5, #1
 80083d0:	07cb      	lsls	r3, r1, #31
 80083d2:	d5f3      	bpl.n	80083bc <_pal_lld_setgroupmode+0x6c>
 80083d4:	f005 0307 	and.w	r3, r5, #7
 80083d8:	009b      	lsls	r3, r3, #2
 80083da:	fa0b f403 	lsl.w	r4, fp, r3
 80083de:	2d07      	cmp	r5, #7
 80083e0:	ea6f 0404 	mvn.w	r4, r4
 80083e4:	fa02 f303 	lsl.w	r3, r2, r3
 80083e8:	d9ca      	bls.n	8008380 <_pal_lld_setgroupmode+0x30>
 80083ea:	6a46      	ldr	r6, [r0, #36]	; 0x24
 80083ec:	4034      	ands	r4, r6
 80083ee:	4323      	orrs	r3, r4
 80083f0:	6243      	str	r3, [r0, #36]	; 0x24
 80083f2:	e7c9      	b.n	8008388 <_pal_lld_setgroupmode+0x38>
 80083f4:	4b04      	ldr	r3, [pc, #16]	; (8008408 <_pal_lld_setgroupmode+0xb8>)
 80083f6:	9a01      	ldr	r2, [sp, #4]
 80083f8:	681b      	ldr	r3, [r3, #0]
 80083fa:	429a      	cmp	r2, r3
 80083fc:	d102      	bne.n	8008404 <_pal_lld_setgroupmode+0xb4>
 80083fe:	b003      	add	sp, #12
 8008400:	e8bd 8ff0 	ldmia.w	sp!, {r4, r5, r6, r7, r8, r9, sl, fp, pc}
 8008404:	f7f8 ff84 	bl	8001310 <__stack_chk_fail>
 8008408:	2000081c 	.word	0x2000081c
 800840c:	00000000 	.word	0x00000000

08008410 <i2c_lld_serve_tx_end_irq>:
 8008410:	b570      	push	{r4, r5, r6, lr}
 8008412:	4c13      	ldr	r4, [pc, #76]	; (8008460 <i2c_lld_serve_tx_end_irq+0x50>)
 8008414:	6b85      	ldr	r5, [r0, #56]	; 0x38
 8008416:	6823      	ldr	r3, [r4, #0]
 8008418:	b082      	sub	sp, #8
 800841a:	f011 0f0c 	tst.w	r1, #12
 800841e:	4606      	mov	r6, r0
 8008420:	9301      	str	r3, [sp, #4]
 8008422:	d117      	bne.n	8008454 <i2c_lld_serve_tx_end_irq+0x44>
 8008424:	6b71      	ldr	r1, [r6, #52]	; 0x34
 8008426:	680a      	ldr	r2, [r1, #0]
 8008428:	6813      	ldr	r3, [r2, #0]
 800842a:	f023 031f 	bic.w	r3, r3, #31
 800842e:	6013      	str	r3, [r2, #0]
 8008430:	6813      	ldr	r3, [r2, #0]
 8008432:	07db      	lsls	r3, r3, #31
 8008434:	d4fc      	bmi.n	8008430 <i2c_lld_serve_tx_end_irq+0x20>
 8008436:	7a08      	ldrb	r0, [r1, #8]
 8008438:	684a      	ldr	r2, [r1, #4]
 800843a:	233d      	movs	r3, #61	; 0x3d
 800843c:	4083      	lsls	r3, r0
 800843e:	6013      	str	r3, [r2, #0]
 8008440:	686b      	ldr	r3, [r5, #4]
 8008442:	f443 7300 	orr.w	r3, r3, #512	; 0x200
 8008446:	606b      	str	r3, [r5, #4]
 8008448:	9a01      	ldr	r2, [sp, #4]
 800844a:	6823      	ldr	r3, [r4, #0]
 800844c:	429a      	cmp	r2, r3
 800844e:	d105      	bne.n	800845c <i2c_lld_serve_tx_end_irq+0x4c>
 8008450:	b002      	add	sp, #8
 8008452:	bd70      	pop	{r4, r5, r6, pc}
 8008454:	4803      	ldr	r0, [pc, #12]	; (8008464 <i2c_lld_serve_tx_end_irq+0x54>)
 8008456:	f7fa fbcb 	bl	8002bf0 <chSysHalt>
 800845a:	e7e3      	b.n	8008424 <i2c_lld_serve_tx_end_irq+0x14>
 800845c:	f7f8 ff58 	bl	8001310 <__stack_chk_fail>
 8008460:	2000081c 	.word	0x2000081c
 8008464:	0800dd50 	.word	0x0800dd50
	...

08008470 <i2c_lld_serve_rx_end_irq>:
 8008470:	b5f0      	push	{r4, r5, r6, r7, lr}
 8008472:	4f21      	ldr	r7, [pc, #132]	; (80084f8 <i2c_lld_serve_rx_end_irq+0x88>)
 8008474:	6b85      	ldr	r5, [r0, #56]	; 0x38
 8008476:	683b      	ldr	r3, [r7, #0]
 8008478:	b083      	sub	sp, #12
 800847a:	f011 0f0c 	tst.w	r1, #12
 800847e:	4606      	mov	r6, r0
 8008480:	9301      	str	r3, [sp, #4]
 8008482:	d132      	bne.n	80084ea <i2c_lld_serve_rx_end_irq+0x7a>
 8008484:	6b32      	ldr	r2, [r6, #48]	; 0x30
 8008486:	6813      	ldr	r3, [r2, #0]
 8008488:	6819      	ldr	r1, [r3, #0]
 800848a:	f021 011f 	bic.w	r1, r1, #31
 800848e:	6019      	str	r1, [r3, #0]
 8008490:	681c      	ldr	r4, [r3, #0]
 8008492:	f014 0401 	ands.w	r4, r4, #1
 8008496:	d1fb      	bne.n	8008490 <i2c_lld_serve_rx_end_irq+0x20>
 8008498:	7a11      	ldrb	r1, [r2, #8]
 800849a:	6852      	ldr	r2, [r2, #4]
 800849c:	233d      	movs	r3, #61	; 0x3d
 800849e:	408b      	lsls	r3, r1
 80084a0:	6013      	str	r3, [r2, #0]
 80084a2:	686b      	ldr	r3, [r5, #4]
 80084a4:	f423 5380 	bic.w	r3, r3, #4096	; 0x1000
 80084a8:	606b      	str	r3, [r5, #4]
 80084aa:	682b      	ldr	r3, [r5, #0]
 80084ac:	f423 6380 	bic.w	r3, r3, #1024	; 0x400
 80084b0:	602b      	str	r3, [r5, #0]
 80084b2:	682b      	ldr	r3, [r5, #0]
 80084b4:	f443 7300 	orr.w	r3, r3, #512	; 0x200
 80084b8:	602b      	str	r3, [r5, #0]
 80084ba:	2320      	movs	r3, #32
 80084bc:	f383 8811 	msr	BASEPRI, r3
 80084c0:	f7fb fcd6 	bl	8003e70 <_stats_start_measure_crit_isr>
 80084c4:	f7fa fc74 	bl	8002db0 <_dbg_check_lock_from_isr>
 80084c8:	4621      	mov	r1, r4
 80084ca:	f106 0020 	add.w	r0, r6, #32
 80084ce:	f7fb facf 	bl	8003a70 <chThdResumeI>
 80084d2:	f7fa fc8d 	bl	8002df0 <_dbg_check_unlock_from_isr>
 80084d6:	f7fb fce3 	bl	8003ea0 <_stats_stop_measure_crit_isr>
 80084da:	f384 8811 	msr	BASEPRI, r4
 80084de:	9a01      	ldr	r2, [sp, #4]
 80084e0:	683b      	ldr	r3, [r7, #0]
 80084e2:	429a      	cmp	r2, r3
 80084e4:	d105      	bne.n	80084f2 <i2c_lld_serve_rx_end_irq+0x82>
 80084e6:	b003      	add	sp, #12
 80084e8:	bdf0      	pop	{r4, r5, r6, r7, pc}
 80084ea:	4804      	ldr	r0, [pc, #16]	; (80084fc <i2c_lld_serve_rx_end_irq+0x8c>)
 80084ec:	f7fa fb80 	bl	8002bf0 <chSysHalt>
 80084f0:	e7c8      	b.n	8008484 <i2c_lld_serve_rx_end_irq+0x14>
 80084f2:	f7f8 ff0d 	bl	8001310 <__stack_chk_fail>
 80084f6:	bf00      	nop
 80084f8:	2000081c 	.word	0x2000081c
 80084fc:	0800dd50 	.word	0x0800dd50

08008500 <VectorBC>:
 8008500:	e92d 41f0 	stmdb	sp!, {r4, r5, r6, r7, r8, lr}
 8008504:	4e46      	ldr	r6, [pc, #280]	; (8008620 <VectorBC+0x120>)
 8008506:	4d47      	ldr	r5, [pc, #284]	; (8008624 <VectorBC+0x124>)
 8008508:	6833      	ldr	r3, [r6, #0]
 800850a:	b082      	sub	sp, #8
 800850c:	9301      	str	r3, [sp, #4]
 800850e:	f7fb fc47 	bl	8003da0 <_stats_increase_irq>
 8008512:	f7fa fc8d 	bl	8002e30 <_dbg_check_enter_isr>
 8008516:	6bac      	ldr	r4, [r5, #56]	; 0x38
 8008518:	4a43      	ldr	r2, [pc, #268]	; (8008628 <VectorBC+0x128>)
 800851a:	69a3      	ldr	r3, [r4, #24]
 800851c:	6967      	ldr	r7, [r4, #20]
 800851e:	ea47 4303 	orr.w	r3, r7, r3, lsl #16
 8008522:	f023 437f 	bic.w	r3, r3, #4278190080	; 0xff000000
 8008526:	4293      	cmp	r3, r2
 8008528:	d04c      	beq.n	80085c4 <VectorBC+0xc4>
 800852a:	d829      	bhi.n	8008580 <VectorBC+0x80>
 800852c:	3a07      	subs	r2, #7
 800852e:	4293      	cmp	r3, r2
 8008530:	d03c      	beq.n	80085ac <VectorBC+0xac>
 8008532:	3201      	adds	r2, #1
 8008534:	4293      	cmp	r3, r2
 8008536:	d114      	bne.n	8008562 <VectorBC+0x62>
 8008538:	6862      	ldr	r2, [r4, #4]
 800853a:	6b2b      	ldr	r3, [r5, #48]	; 0x30
 800853c:	f422 7200 	bic.w	r2, r2, #512	; 0x200
 8008540:	681b      	ldr	r3, [r3, #0]
 8008542:	6062      	str	r2, [r4, #4]
 8008544:	681a      	ldr	r2, [r3, #0]
 8008546:	f042 0201 	orr.w	r2, r2, #1
 800854a:	601a      	str	r2, [r3, #0]
 800854c:	6862      	ldr	r2, [r4, #4]
 800854e:	f442 5280 	orr.w	r2, r2, #4096	; 0x1000
 8008552:	6062      	str	r2, [r4, #4]
 8008554:	685b      	ldr	r3, [r3, #4]
 8008556:	2b01      	cmp	r3, #1
 8008558:	d803      	bhi.n	8008562 <VectorBC+0x62>
 800855a:	6823      	ldr	r3, [r4, #0]
 800855c:	f423 6380 	bic.w	r3, r3, #1024	; 0x400
 8008560:	6023      	str	r3, [r4, #0]
 8008562:	f017 0f0a 	tst.w	r7, #10
 8008566:	bf18      	it	ne
 8008568:	69a3      	ldrne	r3, [r4, #24]
 800856a:	f7fa fc89 	bl	8002e80 <_dbg_check_leave_isr>
 800856e:	9a01      	ldr	r2, [sp, #4]
 8008570:	6833      	ldr	r3, [r6, #0]
 8008572:	429a      	cmp	r2, r3
 8008574:	d151      	bne.n	800861a <VectorBC+0x11a>
 8008576:	b002      	add	sp, #8
 8008578:	e8bd 41f0 	ldmia.w	sp!, {r4, r5, r6, r7, r8, lr}
 800857c:	f7fc ba68 	b.w	8004a50 <_port_irq_epilogue>
 8008580:	4a2a      	ldr	r2, [pc, #168]	; (800862c <VectorBC+0x12c>)
 8008582:	4293      	cmp	r3, r2
 8008584:	d023      	beq.n	80085ce <VectorBC+0xce>
 8008586:	3202      	adds	r2, #2
 8008588:	4293      	cmp	r3, r2
 800858a:	d1ea      	bne.n	8008562 <VectorBC+0x62>
 800858c:	6b2b      	ldr	r3, [r5, #48]	; 0x30
 800858e:	681b      	ldr	r3, [r3, #0]
 8008590:	f8d3 8004 	ldr.w	r8, [r3, #4]
 8008594:	f1b8 0f00 	cmp.w	r8, #0
 8008598:	d024      	beq.n	80085e4 <VectorBC+0xe4>
 800859a:	8caa      	ldrh	r2, [r5, #36]	; 0x24
 800859c:	6823      	ldr	r3, [r4, #0]
 800859e:	f042 0201 	orr.w	r2, r2, #1
 80085a2:	f443 63a0 	orr.w	r3, r3, #1280	; 0x500
 80085a6:	84aa      	strh	r2, [r5, #36]	; 0x24
 80085a8:	6023      	str	r3, [r4, #0]
 80085aa:	e7de      	b.n	800856a <VectorBC+0x6a>
 80085ac:	8cab      	ldrh	r3, [r5, #36]	; 0x24
 80085ae:	0a1a      	lsrs	r2, r3, #8
 80085b0:	d00b      	beq.n	80085ca <VectorBC+0xca>
 80085b2:	f003 0301 	and.w	r3, r3, #1
 80085b6:	f043 03f0 	orr.w	r3, r3, #240	; 0xf0
 80085ba:	f002 0206 	and.w	r2, r2, #6
 80085be:	4313      	orrs	r3, r2
 80085c0:	6123      	str	r3, [r4, #16]
 80085c2:	e7ce      	b.n	8008562 <VectorBC+0x62>
 80085c4:	8cab      	ldrh	r3, [r5, #36]	; 0x24
 80085c6:	f3c3 0347 	ubfx	r3, r3, #1, #8
 80085ca:	6123      	str	r3, [r4, #16]
 80085cc:	e7c9      	b.n	8008562 <VectorBC+0x62>
 80085ce:	6863      	ldr	r3, [r4, #4]
 80085d0:	6b6a      	ldr	r2, [r5, #52]	; 0x34
 80085d2:	f423 7300 	bic.w	r3, r3, #512	; 0x200
 80085d6:	6812      	ldr	r2, [r2, #0]
 80085d8:	6063      	str	r3, [r4, #4]
 80085da:	6813      	ldr	r3, [r2, #0]
 80085dc:	f043 0301 	orr.w	r3, r3, #1
 80085e0:	6013      	str	r3, [r2, #0]
 80085e2:	e7be      	b.n	8008562 <VectorBC+0x62>
 80085e4:	6863      	ldr	r3, [r4, #4]
 80085e6:	f423 7300 	bic.w	r3, r3, #512	; 0x200
 80085ea:	6063      	str	r3, [r4, #4]
 80085ec:	6823      	ldr	r3, [r4, #0]
 80085ee:	f443 7300 	orr.w	r3, r3, #512	; 0x200
 80085f2:	6023      	str	r3, [r4, #0]
 80085f4:	2320      	movs	r3, #32
 80085f6:	f383 8811 	msr	BASEPRI, r3
 80085fa:	f7fb fc39 	bl	8003e70 <_stats_start_measure_crit_isr>
 80085fe:	f7fa fbd7 	bl	8002db0 <_dbg_check_lock_from_isr>
 8008602:	4641      	mov	r1, r8
 8008604:	f105 0020 	add.w	r0, r5, #32
 8008608:	f7fb fa32 	bl	8003a70 <chThdResumeI>
 800860c:	f7fa fbf0 	bl	8002df0 <_dbg_check_unlock_from_isr>
 8008610:	f7fb fc46 	bl	8003ea0 <_stats_stop_measure_crit_isr>
 8008614:	f388 8811 	msr	BASEPRI, r8
 8008618:	e7a3      	b.n	8008562 <VectorBC+0x62>
 800861a:	f7f8 fe79 	bl	8001310 <__stack_chk_fail>
 800861e:	bf00      	nop
 8008620:	2000081c 	.word	0x2000081c
 8008624:	20002330 	.word	0x20002330
 8008628:	00030008 	.word	0x00030008
 800862c:	00070082 	.word	0x00070082

08008630 <VectorC0>:
 8008630:	b5f0      	push	{r4, r5, r6, r7, lr}
 8008632:	4d42      	ldr	r5, [pc, #264]	; (800873c <VectorC0+0x10c>)
 8008634:	4c42      	ldr	r4, [pc, #264]	; (8008740 <VectorC0+0x110>)
 8008636:	6bab      	ldr	r3, [r5, #56]	; 0x38
 8008638:	6822      	ldr	r2, [r4, #0]
 800863a:	b083      	sub	sp, #12
 800863c:	9201      	str	r2, [sp, #4]
 800863e:	695e      	ldr	r6, [r3, #20]
 8008640:	f7fb fbae 	bl	8003da0 <_stats_increase_irq>
 8008644:	f7fa fbf4 	bl	8002e30 <_dbg_check_enter_isr>
 8008648:	e9d5 c00d 	ldrd	ip, r0, [r5, #52]	; 0x34
 800864c:	f406 435f 	and.w	r3, r6, #57088	; 0xdf00
 8008650:	f8dc 2000 	ldr.w	r2, [ip]
 8008654:	43db      	mvns	r3, r3
 8008656:	6143      	str	r3, [r0, #20]
 8008658:	6813      	ldr	r3, [r2, #0]
 800865a:	f023 031f 	bic.w	r3, r3, #31
 800865e:	6013      	str	r3, [r2, #0]
 8008660:	b2b1      	uxth	r1, r6
 8008662:	6813      	ldr	r3, [r2, #0]
 8008664:	07df      	lsls	r7, r3, #31
 8008666:	d4fc      	bmi.n	8008662 <VectorC0+0x32>
 8008668:	f89c 2008 	ldrb.w	r2, [ip, #8]
 800866c:	6b2f      	ldr	r7, [r5, #48]	; 0x30
 800866e:	f8dc c004 	ldr.w	ip, [ip, #4]
 8008672:	233d      	movs	r3, #61	; 0x3d
 8008674:	4093      	lsls	r3, r2
 8008676:	683a      	ldr	r2, [r7, #0]
 8008678:	f8cc 3000 	str.w	r3, [ip]
 800867c:	6813      	ldr	r3, [r2, #0]
 800867e:	f023 031f 	bic.w	r3, r3, #31
 8008682:	6013      	str	r3, [r2, #0]
 8008684:	6813      	ldr	r3, [r2, #0]
 8008686:	07db      	lsls	r3, r3, #31
 8008688:	d4fc      	bmi.n	8008684 <VectorC0+0x54>
 800868a:	f897 c008 	ldrb.w	ip, [r7, #8]
 800868e:	687a      	ldr	r2, [r7, #4]
 8008690:	233d      	movs	r3, #61	; 0x3d
 8008692:	fa03 f30c 	lsl.w	r3, r3, ip
 8008696:	6013      	str	r3, [r2, #0]
 8008698:	f411 7380 	ands.w	r3, r1, #256	; 0x100
 800869c:	bf18      	it	ne
 800869e:	2301      	movne	r3, #1
 80086a0:	058f      	lsls	r7, r1, #22
 80086a2:	60ab      	str	r3, [r5, #8]
 80086a4:	bf44      	itt	mi
 80086a6:	f043 0302 	orrmi.w	r3, r3, #2
 80086aa:	60ab      	strmi	r3, [r5, #8]
 80086ac:	054a      	lsls	r2, r1, #21
 80086ae:	d50a      	bpl.n	80086c6 <VectorC0+0x96>
 80086b0:	6842      	ldr	r2, [r0, #4]
 80086b2:	f422 7200 	bic.w	r2, r2, #512	; 0x200
 80086b6:	6042      	str	r2, [r0, #4]
 80086b8:	6802      	ldr	r2, [r0, #0]
 80086ba:	f043 0304 	orr.w	r3, r3, #4
 80086be:	f442 7200 	orr.w	r2, r2, #512	; 0x200
 80086c2:	6002      	str	r2, [r0, #0]
 80086c4:	60ab      	str	r3, [r5, #8]
 80086c6:	050f      	lsls	r7, r1, #20
 80086c8:	bf44      	itt	mi
 80086ca:	f043 0308 	orrmi.w	r3, r3, #8
 80086ce:	60ab      	strmi	r3, [r5, #8]
 80086d0:	0448      	lsls	r0, r1, #17
 80086d2:	bf44      	itt	mi
 80086d4:	f043 0320 	orrmi.w	r3, r3, #32
 80086d8:	60ab      	strmi	r3, [r5, #8]
 80086da:	04ca      	lsls	r2, r1, #19
 80086dc:	b236      	sxth	r6, r6
 80086de:	d522      	bpl.n	8008726 <VectorC0+0xf6>
 80086e0:	f043 0310 	orr.w	r3, r3, #16
 80086e4:	2e00      	cmp	r6, #0
 80086e6:	60ab      	str	r3, [r5, #8]
 80086e8:	db22      	blt.n	8008730 <VectorC0+0x100>
 80086ea:	2320      	movs	r3, #32
 80086ec:	f383 8811 	msr	BASEPRI, r3
 80086f0:	f7fb fbbe 	bl	8003e70 <_stats_start_measure_crit_isr>
 80086f4:	f7fa fb5c 	bl	8002db0 <_dbg_check_lock_from_isr>
 80086f8:	f06f 0101 	mvn.w	r1, #1
 80086fc:	4811      	ldr	r0, [pc, #68]	; (8008744 <VectorC0+0x114>)
 80086fe:	f7fb f9b7 	bl	8003a70 <chThdResumeI>
 8008702:	f7fa fb75 	bl	8002df0 <_dbg_check_unlock_from_isr>
 8008706:	f7fb fbcb 	bl	8003ea0 <_stats_stop_measure_crit_isr>
 800870a:	2300      	movs	r3, #0
 800870c:	f383 8811 	msr	BASEPRI, r3
 8008710:	f7fa fbb6 	bl	8002e80 <_dbg_check_leave_isr>
 8008714:	9a01      	ldr	r2, [sp, #4]
 8008716:	6823      	ldr	r3, [r4, #0]
 8008718:	429a      	cmp	r2, r3
 800871a:	d10d      	bne.n	8008738 <VectorC0+0x108>
 800871c:	b003      	add	sp, #12
 800871e:	e8bd 40f0 	ldmia.w	sp!, {r4, r5, r6, r7, lr}
 8008722:	f7fc b995 	b.w	8004a50 <_port_irq_epilogue>
 8008726:	2e00      	cmp	r6, #0
 8008728:	db02      	blt.n	8008730 <VectorC0+0x100>
 800872a:	2b00      	cmp	r3, #0
 800872c:	d0f0      	beq.n	8008710 <VectorC0+0xe0>
 800872e:	e7dc      	b.n	80086ea <VectorC0+0xba>
 8008730:	f043 0340 	orr.w	r3, r3, #64	; 0x40
 8008734:	60ab      	str	r3, [r5, #8]
 8008736:	e7d8      	b.n	80086ea <VectorC0+0xba>
 8008738:	f7f8 fdea 	bl	8001310 <__stack_chk_fail>
 800873c:	20002330 	.word	0x20002330
 8008740:	2000081c 	.word	0x2000081c
 8008744:	20002350 	.word	0x20002350
	...

08008750 <i2c_lld_init>:
 8008750:	b530      	push	{r4, r5, lr}
 8008752:	4c0c      	ldr	r4, [pc, #48]	; (8008784 <i2c_lld_init+0x34>)
 8008754:	4d0c      	ldr	r5, [pc, #48]	; (8008788 <i2c_lld_init+0x38>)
 8008756:	b083      	sub	sp, #12
 8008758:	682b      	ldr	r3, [r5, #0]
 800875a:	9301      	str	r3, [sp, #4]
 800875c:	4620      	mov	r0, r4
 800875e:	f7fc fbbf 	bl	8004ee0 <i2cObjectInit>
 8008762:	4b0a      	ldr	r3, [pc, #40]	; (800878c <i2c_lld_init+0x3c>)
 8008764:	9901      	ldr	r1, [sp, #4]
 8008766:	682a      	ldr	r2, [r5, #0]
 8008768:	4809      	ldr	r0, [pc, #36]	; (8008790 <i2c_lld_init+0x40>)
 800876a:	63a0      	str	r0, [r4, #56]	; 0x38
 800876c:	2500      	movs	r5, #0
 800876e:	f103 0054 	add.w	r0, r3, #84	; 0x54
 8008772:	4291      	cmp	r1, r2
 8008774:	6225      	str	r5, [r4, #32]
 8008776:	e9c4 300c 	strd	r3, r0, [r4, #48]	; 0x30
 800877a:	d101      	bne.n	8008780 <i2c_lld_init+0x30>
 800877c:	b003      	add	sp, #12
 800877e:	bd30      	pop	{r4, r5, pc}
 8008780:	f7f8 fdc6 	bl	8001310 <__stack_chk_fail>
 8008784:	20002330 	.word	0x20002330
 8008788:	2000081c 	.word	0x2000081c
 800878c:	0800dbc0 	.word	0x0800dbc0
 8008790:	40005400 	.word	0x40005400
	...

080087a0 <i2c_lld_start>:
 80087a0:	e92d 43f0 	stmdb	sp!, {r4, r5, r6, r7, r8, r9, lr}
 80087a4:	4f90      	ldr	r7, [pc, #576]	; (80089e8 <i2c_lld_start+0x248>)
 80087a6:	7803      	ldrb	r3, [r0, #0]
 80087a8:	683a      	ldr	r2, [r7, #0]
 80087aa:	6b85      	ldr	r5, [r0, #56]	; 0x38
 80087ac:	b083      	sub	sp, #12
 80087ae:	f240 4156 	movw	r1, #1110	; 0x456
 80087b2:	9201      	str	r2, [sp, #4]
 80087b4:	2b01      	cmp	r3, #1
 80087b6:	f240 4216 	movw	r2, #1046	; 0x416
 80087ba:	4604      	mov	r4, r0
 80087bc:	e9c0 210a 	strd	r2, r1, [r0, #40]	; 0x28
 80087c0:	f000 808b 	beq.w	80088da <i2c_lld_start+0x13a>
 80087c4:	46a8      	mov	r8, r5
 80087c6:	e9d4 120c 	ldrd	r1, r2, [r4, #48]	; 0x30
 80087ca:	6863      	ldr	r3, [r4, #4]
 80087cc:	6808      	ldr	r0, [r1, #0]
 80087ce:	6811      	ldr	r1, [r2, #0]
 80087d0:	685e      	ldr	r6, [r3, #4]
 80087d2:	f893 9008 	ldrb.w	r9, [r3, #8]
 80087d6:	4a85      	ldr	r2, [pc, #532]	; (80089ec <i2c_lld_start+0x24c>)
 80087d8:	f105 0310 	add.w	r3, r5, #16
 80087dc:	6083      	str	r3, [r0, #8]
 80087de:	608b      	str	r3, [r1, #8]
 80087e0:	f44f 4100 	mov.w	r1, #32768	; 0x8000
 80087e4:	6029      	str	r1, [r5, #0]
 80087e6:	1e73      	subs	r3, r6, #1
 80087e8:	2100      	movs	r1, #0
 80087ea:	6029      	str	r1, [r5, #0]
 80087ec:	4293      	cmp	r3, r2
 80087ee:	f44f 6110 	mov.w	r1, #2304	; 0x900
 80087f2:	6069      	str	r1, [r5, #4]
 80087f4:	d902      	bls.n	80087fc <i2c_lld_start+0x5c>
 80087f6:	487e      	ldr	r0, [pc, #504]	; (80089f0 <i2c_lld_start+0x250>)
 80087f8:	f7fa f9fa 	bl	8002bf0 <chSysHalt>
 80087fc:	f8d8 3004 	ldr.w	r3, [r8, #4]
 8008800:	4a7c      	ldr	r2, [pc, #496]	; (80089f4 <i2c_lld_start+0x254>)
 8008802:	f64f 71c0 	movw	r1, #65472	; 0xffc0
 8008806:	400b      	ands	r3, r1
 8008808:	f8c8 3004 	str.w	r3, [r8, #4]
 800880c:	f8d8 3004 	ldr.w	r3, [r8, #4]
 8008810:	4296      	cmp	r6, r2
 8008812:	f043 032a 	orr.w	r3, r3, #42	; 0x2a
 8008816:	f8c8 3004 	str.w	r3, [r8, #4]
 800881a:	dc3c      	bgt.n	8008896 <i2c_lld_start+0xf6>
 800881c:	f1b9 0f01 	cmp.w	r9, #1
 8008820:	f040 808f 	bne.w	8008942 <i2c_lld_start+0x1a2>
 8008824:	4a74      	ldr	r2, [pc, #464]	; (80089f8 <i2c_lld_start+0x258>)
 8008826:	ea4f 0946 	mov.w	r9, r6, lsl #1
 800882a:	fbb2 f3f9 	udiv	r3, r2, r9
 800882e:	fb09 2313 	mls	r3, r9, r3, r2
 8008832:	2b00      	cmp	r3, #0
 8008834:	f040 8095 	bne.w	8008962 <i2c_lld_start+0x1c2>
 8008838:	4e6f      	ldr	r6, [pc, #444]	; (80089f8 <i2c_lld_start+0x258>)
 800883a:	fbb6 f6f9 	udiv	r6, r6, r9
 800883e:	b2b6      	uxth	r6, r6
 8008840:	2e03      	cmp	r6, #3
 8008842:	f240 8098 	bls.w	8008976 <i2c_lld_start+0x1d6>
 8008846:	232b      	movs	r3, #43	; 0x2b
 8008848:	f5b6 5f80 	cmp.w	r6, #4096	; 0x1000
 800884c:	f8c8 3020 	str.w	r3, [r8, #32]
 8008850:	f3c6 090b 	ubfx	r9, r6, #0, #12
 8008854:	d302      	bcc.n	800885c <i2c_lld_start+0xbc>
 8008856:	4866      	ldr	r0, [pc, #408]	; (80089f0 <i2c_lld_start+0x250>)
 8008858:	f7fa f9ca 	bl	8002bf0 <chSysHalt>
 800885c:	6863      	ldr	r3, [r4, #4]
 800885e:	6ba1      	ldr	r1, [r4, #56]	; 0x38
 8008860:	781a      	ldrb	r2, [r3, #0]
 8008862:	f8c8 901c 	str.w	r9, [r8, #28]
 8008866:	680b      	ldr	r3, [r1, #0]
 8008868:	2a02      	cmp	r2, #2
 800886a:	b29b      	uxth	r3, r3
 800886c:	d073      	beq.n	8008956 <i2c_lld_start+0x1b6>
 800886e:	2a03      	cmp	r2, #3
 8008870:	d06e      	beq.n	8008950 <i2c_lld_start+0x1b0>
 8008872:	2a01      	cmp	r2, #1
 8008874:	d102      	bne.n	800887c <i2c_lld_start+0xdc>
 8008876:	f023 030a 	bic.w	r3, r3, #10
 800887a:	b29b      	uxth	r3, r3
 800887c:	600b      	str	r3, [r1, #0]
 800887e:	682b      	ldr	r3, [r5, #0]
 8008880:	f043 0301 	orr.w	r3, r3, #1
 8008884:	602b      	str	r3, [r5, #0]
 8008886:	9a01      	ldr	r2, [sp, #4]
 8008888:	683b      	ldr	r3, [r7, #0]
 800888a:	429a      	cmp	r2, r3
 800888c:	f040 80aa 	bne.w	80089e4 <i2c_lld_start+0x244>
 8008890:	b003      	add	sp, #12
 8008892:	e8bd 83f0 	ldmia.w	sp!, {r4, r5, r6, r7, r8, r9, pc}
 8008896:	4b59      	ldr	r3, [pc, #356]	; (80089fc <i2c_lld_start+0x25c>)
 8008898:	429e      	cmp	r6, r3
 800889a:	dc56      	bgt.n	800894a <i2c_lld_start+0x1aa>
 800889c:	f1a9 0302 	sub.w	r3, r9, #2
 80088a0:	2b01      	cmp	r3, #1
 80088a2:	d871      	bhi.n	8008988 <i2c_lld_start+0x1e8>
 80088a4:	f1b9 0f02 	cmp.w	r9, #2
 80088a8:	d177      	bne.n	800899a <i2c_lld_start+0x1fa>
 80088aa:	4a53      	ldr	r2, [pc, #332]	; (80089f8 <i2c_lld_start+0x258>)
 80088ac:	eb06 0646 	add.w	r6, r6, r6, lsl #1
 80088b0:	fbb2 f3f6 	udiv	r3, r2, r6
 80088b4:	fb06 2313 	mls	r3, r6, r3, r2
 80088b8:	2b00      	cmp	r3, #0
 80088ba:	f040 808f 	bne.w	80089dc <i2c_lld_start+0x23c>
 80088be:	4b4e      	ldr	r3, [pc, #312]	; (80089f8 <i2c_lld_start+0x258>)
 80088c0:	fbb3 f9f6 	udiv	r9, r3, r6
 80088c4:	2300      	movs	r3, #0
 80088c6:	fa1f f989 	uxth.w	r9, r9
 80088ca:	ea49 0903 	orr.w	r9, r9, r3
 80088ce:	230d      	movs	r3, #13
 80088d0:	f449 4900 	orr.w	r9, r9, #32768	; 0x8000
 80088d4:	f8c8 3020 	str.w	r3, [r8, #32]
 80088d8:	e7c0      	b.n	800885c <i2c_lld_start+0xbc>
 80088da:	4e49      	ldr	r6, [pc, #292]	; (8008a00 <i2c_lld_start+0x260>)
 80088dc:	42b0      	cmp	r0, r6
 80088de:	f47f af71 	bne.w	80087c4 <i2c_lld_start+0x24>
 80088e2:	4b48      	ldr	r3, [pc, #288]	; (8008a04 <i2c_lld_start+0x264>)
 80088e4:	6b00      	ldr	r0, [r0, #48]	; 0x30
 80088e6:	6a19      	ldr	r1, [r3, #32]
 80088e8:	4a47      	ldr	r2, [pc, #284]	; (8008a08 <i2c_lld_start+0x268>)
 80088ea:	f441 1100 	orr.w	r1, r1, #2097152	; 0x200000
 80088ee:	f04f 0c00 	mov.w	ip, #0
 80088f2:	6219      	str	r1, [r3, #32]
 80088f4:	f8c3 c020 	str.w	ip, [r3, #32]
 80088f8:	2105      	movs	r1, #5
 80088fa:	4623      	mov	r3, r4
 80088fc:	f7fe f898 	bl	8006a30 <dmaStreamAllocate>
 8008900:	2800      	cmp	r0, #0
 8008902:	d167      	bne.n	80089d4 <i2c_lld_start+0x234>
 8008904:	4b3e      	ldr	r3, [pc, #248]	; (8008a00 <i2c_lld_start+0x260>)
 8008906:	4a41      	ldr	r2, [pc, #260]	; (8008a0c <i2c_lld_start+0x26c>)
 8008908:	6b70      	ldr	r0, [r6, #52]	; 0x34
 800890a:	2105      	movs	r1, #5
 800890c:	f7fe f890 	bl	8006a30 <dmaStreamAllocate>
 8008910:	2800      	cmp	r0, #0
 8008912:	d15b      	bne.n	80089cc <i2c_lld_start+0x22c>
 8008914:	4a3b      	ldr	r2, [pc, #236]	; (8008a04 <i2c_lld_start+0x264>)
 8008916:	6c13      	ldr	r3, [r2, #64]	; 0x40
 8008918:	f443 1300 	orr.w	r3, r3, #2097152	; 0x200000
 800891c:	6413      	str	r3, [r2, #64]	; 0x40
 800891e:	2105      	movs	r1, #5
 8008920:	201f      	movs	r0, #31
 8008922:	f7fd fd65 	bl	80063f0 <nvicEnableVector>
 8008926:	2105      	movs	r1, #5
 8008928:	2020      	movs	r0, #32
 800892a:	f7fd fd61 	bl	80063f0 <nvicEnableVector>
 800892e:	6ab2      	ldr	r2, [r6, #40]	; 0x28
 8008930:	4937      	ldr	r1, [pc, #220]	; (8008a10 <i2c_lld_start+0x270>)
 8008932:	6af3      	ldr	r3, [r6, #44]	; 0x2c
 8008934:	f8d6 8038 	ldr.w	r8, [r6, #56]	; 0x38
 8008938:	430a      	orrs	r2, r1
 800893a:	430b      	orrs	r3, r1
 800893c:	e9c6 230a 	strd	r2, r3, [r6, #40]	; 0x28
 8008940:	e741      	b.n	80087c6 <i2c_lld_start+0x26>
 8008942:	482b      	ldr	r0, [pc, #172]	; (80089f0 <i2c_lld_start+0x250>)
 8008944:	f7fa f954 	bl	8002bf0 <chSysHalt>
 8008948:	e76c      	b.n	8008824 <i2c_lld_start+0x84>
 800894a:	f04f 0900 	mov.w	r9, #0
 800894e:	e785      	b.n	800885c <i2c_lld_start+0xbc>
 8008950:	f043 030a 	orr.w	r3, r3, #10
 8008954:	e792      	b.n	800887c <i2c_lld_start+0xdc>
 8008956:	f023 0308 	bic.w	r3, r3, #8
 800895a:	b29b      	uxth	r3, r3
 800895c:	f043 0302 	orr.w	r3, r3, #2
 8008960:	e78c      	b.n	800887c <i2c_lld_start+0xdc>
 8008962:	4823      	ldr	r0, [pc, #140]	; (80089f0 <i2c_lld_start+0x250>)
 8008964:	4e24      	ldr	r6, [pc, #144]	; (80089f8 <i2c_lld_start+0x258>)
 8008966:	f7fa f943 	bl	8002bf0 <chSysHalt>
 800896a:	fbb6 f6f9 	udiv	r6, r6, r9
 800896e:	b2b6      	uxth	r6, r6
 8008970:	2e03      	cmp	r6, #3
 8008972:	f63f af68 	bhi.w	8008846 <i2c_lld_start+0xa6>
 8008976:	481e      	ldr	r0, [pc, #120]	; (80089f0 <i2c_lld_start+0x250>)
 8008978:	f7fa f93a 	bl	8002bf0 <chSysHalt>
 800897c:	232b      	movs	r3, #43	; 0x2b
 800897e:	f3c6 090b 	ubfx	r9, r6, #0, #12
 8008982:	f8c8 3020 	str.w	r3, [r8, #32]
 8008986:	e769      	b.n	800885c <i2c_lld_start+0xbc>
 8008988:	4819      	ldr	r0, [pc, #100]	; (80089f0 <i2c_lld_start+0x250>)
 800898a:	f7fa f931 	bl	8002bf0 <chSysHalt>
 800898e:	230d      	movs	r3, #13
 8008990:	f8c8 3020 	str.w	r3, [r8, #32]
 8008994:	f648 79ff 	movw	r9, #36863	; 0x8fff
 8008998:	e760      	b.n	800885c <i2c_lld_start+0xbc>
 800899a:	f1b9 0f03 	cmp.w	r9, #3
 800899e:	d1f6      	bne.n	800898e <i2c_lld_start+0x1ee>
 80089a0:	4a15      	ldr	r2, [pc, #84]	; (80089f8 <i2c_lld_start+0x258>)
 80089a2:	eb06 0686 	add.w	r6, r6, r6, lsl #2
 80089a6:	eb06 0686 	add.w	r6, r6, r6, lsl #2
 80089aa:	fbb2 f3f6 	udiv	r3, r2, r6
 80089ae:	fb06 2313 	mls	r3, r6, r3, r2
 80089b2:	b93b      	cbnz	r3, 80089c4 <i2c_lld_start+0x224>
 80089b4:	4b10      	ldr	r3, [pc, #64]	; (80089f8 <i2c_lld_start+0x258>)
 80089b6:	fbb3 f6f6 	udiv	r6, r3, r6
 80089ba:	f44f 4380 	mov.w	r3, #16384	; 0x4000
 80089be:	fa1f f986 	uxth.w	r9, r6
 80089c2:	e782      	b.n	80088ca <i2c_lld_start+0x12a>
 80089c4:	480a      	ldr	r0, [pc, #40]	; (80089f0 <i2c_lld_start+0x250>)
 80089c6:	f7fa f913 	bl	8002bf0 <chSysHalt>
 80089ca:	e7f3      	b.n	80089b4 <i2c_lld_start+0x214>
 80089cc:	4811      	ldr	r0, [pc, #68]	; (8008a14 <i2c_lld_start+0x274>)
 80089ce:	f7fa f90f 	bl	8002bf0 <chSysHalt>
 80089d2:	e79f      	b.n	8008914 <i2c_lld_start+0x174>
 80089d4:	480f      	ldr	r0, [pc, #60]	; (8008a14 <i2c_lld_start+0x274>)
 80089d6:	f7fa f90b 	bl	8002bf0 <chSysHalt>
 80089da:	e793      	b.n	8008904 <i2c_lld_start+0x164>
 80089dc:	4804      	ldr	r0, [pc, #16]	; (80089f0 <i2c_lld_start+0x250>)
 80089de:	f7fa f907 	bl	8002bf0 <chSysHalt>
 80089e2:	e76c      	b.n	80088be <i2c_lld_start+0x11e>
 80089e4:	f7f8 fc94 	bl	8001310 <__stack_chk_fail>
 80089e8:	2000081c 	.word	0x2000081c
 80089ec:	003d08ff 	.word	0x003d08ff
 80089f0:	0800dd20 	.word	0x0800dd20
 80089f4:	000186a0 	.word	0x000186a0
 80089f8:	0280de80 	.word	0x0280de80
 80089fc:	00061a80 	.word	0x00061a80
 8008a00:	20002330 	.word	0x20002330
 8008a04:	40023800 	.word	0x40023800
 8008a08:	08008471 	.word	0x08008471
 8008a0c:	08008411 	.word	0x08008411
 8008a10:	02030000 	.word	0x02030000
 8008a14:	0800dd40 	.word	0x0800dd40
	...

08008a20 <i2c_lld_stop>:
 8008a20:	b570      	push	{r4, r5, r6, lr}
 8008a22:	7803      	ldrb	r3, [r0, #0]
 8008a24:	4d23      	ldr	r5, [pc, #140]	; (8008ab4 <i2c_lld_stop+0x94>)
 8008a26:	b082      	sub	sp, #8
 8008a28:	682a      	ldr	r2, [r5, #0]
 8008a2a:	9201      	str	r2, [sp, #4]
 8008a2c:	2b01      	cmp	r3, #1
 8008a2e:	d02c      	beq.n	8008a8a <i2c_lld_stop+0x6a>
 8008a30:	4604      	mov	r4, r0
 8008a32:	e9d0 030d 	ldrd	r0, r3, [r0, #52]	; 0x34
 8008a36:	f44f 4100 	mov.w	r1, #32768	; 0x8000
 8008a3a:	6802      	ldr	r2, [r0, #0]
 8008a3c:	6019      	str	r1, [r3, #0]
 8008a3e:	2100      	movs	r1, #0
 8008a40:	6019      	str	r1, [r3, #0]
 8008a42:	6059      	str	r1, [r3, #4]
 8008a44:	6159      	str	r1, [r3, #20]
 8008a46:	6813      	ldr	r3, [r2, #0]
 8008a48:	f023 031f 	bic.w	r3, r3, #31
 8008a4c:	6013      	str	r3, [r2, #0]
 8008a4e:	6813      	ldr	r3, [r2, #0]
 8008a50:	07d9      	lsls	r1, r3, #31
 8008a52:	d4fc      	bmi.n	8008a4e <i2c_lld_stop+0x2e>
 8008a54:	7a02      	ldrb	r2, [r0, #8]
 8008a56:	6b21      	ldr	r1, [r4, #48]	; 0x30
 8008a58:	6846      	ldr	r6, [r0, #4]
 8008a5a:	233d      	movs	r3, #61	; 0x3d
 8008a5c:	4093      	lsls	r3, r2
 8008a5e:	680a      	ldr	r2, [r1, #0]
 8008a60:	6033      	str	r3, [r6, #0]
 8008a62:	6813      	ldr	r3, [r2, #0]
 8008a64:	f023 031f 	bic.w	r3, r3, #31
 8008a68:	6013      	str	r3, [r2, #0]
 8008a6a:	6813      	ldr	r3, [r2, #0]
 8008a6c:	07db      	lsls	r3, r3, #31
 8008a6e:	d4fc      	bmi.n	8008a6a <i2c_lld_stop+0x4a>
 8008a70:	7a0e      	ldrb	r6, [r1, #8]
 8008a72:	684a      	ldr	r2, [r1, #4]
 8008a74:	233d      	movs	r3, #61	; 0x3d
 8008a76:	40b3      	lsls	r3, r6
 8008a78:	6013      	str	r3, [r2, #0]
 8008a7a:	f7fe f841 	bl	8006b00 <dmaStreamRelease>
 8008a7e:	6b20      	ldr	r0, [r4, #48]	; 0x30
 8008a80:	f7fe f83e 	bl	8006b00 <dmaStreamRelease>
 8008a84:	4b0c      	ldr	r3, [pc, #48]	; (8008ab8 <i2c_lld_stop+0x98>)
 8008a86:	429c      	cmp	r4, r3
 8008a88:	d005      	beq.n	8008a96 <i2c_lld_stop+0x76>
 8008a8a:	9a01      	ldr	r2, [sp, #4]
 8008a8c:	682b      	ldr	r3, [r5, #0]
 8008a8e:	429a      	cmp	r2, r3
 8008a90:	d10d      	bne.n	8008aae <i2c_lld_stop+0x8e>
 8008a92:	b002      	add	sp, #8
 8008a94:	bd70      	pop	{r4, r5, r6, pc}
 8008a96:	201f      	movs	r0, #31
 8008a98:	f7fd fcd2 	bl	8006440 <nvicDisableVector>
 8008a9c:	2020      	movs	r0, #32
 8008a9e:	f7fd fccf 	bl	8006440 <nvicDisableVector>
 8008aa2:	4a06      	ldr	r2, [pc, #24]	; (8008abc <i2c_lld_stop+0x9c>)
 8008aa4:	6c13      	ldr	r3, [r2, #64]	; 0x40
 8008aa6:	f423 1300 	bic.w	r3, r3, #2097152	; 0x200000
 8008aaa:	6413      	str	r3, [r2, #64]	; 0x40
 8008aac:	e7ed      	b.n	8008a8a <i2c_lld_stop+0x6a>
 8008aae:	f7f8 fc2f 	bl	8001310 <__stack_chk_fail>
 8008ab2:	bf00      	nop
 8008ab4:	2000081c 	.word	0x2000081c
 8008ab8:	20002330 	.word	0x20002330
 8008abc:	40023800 	.word	0x40023800

08008ac0 <i2c_lld_master_transmit_timeout>:
 8008ac0:	e92d 4ff0 	stmdb	sp!, {r4, r5, r6, r7, r8, r9, sl, fp, lr}
 8008ac4:	f8df b10c 	ldr.w	fp, [pc, #268]	; 8008bd4 <i2c_lld_master_transmit_timeout+0x114>
 8008ac8:	4c40      	ldr	r4, [pc, #256]	; (8008bcc <i2c_lld_master_transmit_timeout+0x10c>)
 8008aca:	b085      	sub	sp, #20
 8008acc:	4681      	mov	r9, r0
 8008ace:	f8db 0000 	ldr.w	r0, [fp]
 8008ad2:	9003      	str	r0, [sp, #12]
 8008ad4:	0049      	lsls	r1, r1, #1
 8008ad6:	2000      	movs	r0, #0
 8008ad8:	f8a9 1024 	strh.w	r1, [r9, #36]	; 0x24
 8008adc:	f8c9 0008 	str.w	r0, [r9, #8]
 8008ae0:	4698      	mov	r8, r3
 8008ae2:	9b10      	ldr	r3, [sp, #64]	; 0x40
 8008ae4:	9301      	str	r3, [sp, #4]
 8008ae6:	4692      	mov	sl, r2
 8008ae8:	f8d9 5038 	ldr.w	r5, [r9, #56]	; 0x38
 8008aec:	e9dd 670e 	ldrd	r6, r7, [sp, #56]	; 0x38
 8008af0:	f7fa f93e 	bl	8002d70 <_dbg_check_unlock>
 8008af4:	f7fb f9a4 	bl	8003e40 <_stats_stop_measure_crit_thd>
 8008af8:	6823      	ldr	r3, [r4, #0]
 8008afa:	42a3      	cmp	r3, r4
 8008afc:	d004      	beq.n	8008b08 <i2c_lld_master_transmit_timeout+0x48>
 8008afe:	69a2      	ldr	r2, [r4, #24]
 8008b00:	689b      	ldr	r3, [r3, #8]
 8008b02:	6892      	ldr	r2, [r2, #8]
 8008b04:	429a      	cmp	r2, r3
 8008b06:	d345      	bcc.n	8008b94 <i2c_lld_master_transmit_timeout+0xd4>
 8008b08:	2100      	movs	r1, #0
 8008b0a:	f381 8811 	msr	BASEPRI, r1
 8008b0e:	e9d9 320c 	ldrd	r3, r2, [r9, #48]	; 0x30
 8008b12:	6812      	ldr	r2, [r2, #0]
 8008b14:	f8d9 002c 	ldr.w	r0, [r9, #44]	; 0x2c
 8008b18:	681b      	ldr	r3, [r3, #0]
 8008b1a:	6010      	str	r0, [r2, #0]
 8008b1c:	f8d9 0028 	ldr.w	r0, [r9, #40]	; 0x28
 8008b20:	f8c2 a00c 	str.w	sl, [r2, #12]
 8008b24:	f8c2 8004 	str.w	r8, [r2, #4]
 8008b28:	6018      	str	r0, [r3, #0]
 8008b2a:	60de      	str	r6, [r3, #12]
 8008b2c:	605f      	str	r7, [r3, #4]
 8008b2e:	f8d4 8028 	ldr.w	r8, [r4, #40]	; 0x28
 8008b32:	f8df a09c 	ldr.w	sl, [pc, #156]	; 8008bd0 <i2c_lld_master_transmit_timeout+0x110>
 8008b36:	460e      	mov	r6, r1
 8008b38:	2720      	movs	r7, #32
 8008b3a:	e010      	b.n	8008b5e <i2c_lld_master_transmit_timeout+0x9e>
 8008b3c:	f7fa f918 	bl	8002d70 <_dbg_check_unlock>
 8008b40:	f7fb f97e 	bl	8003e40 <_stats_stop_measure_crit_thd>
 8008b44:	6823      	ldr	r3, [r4, #0]
 8008b46:	42a3      	cmp	r3, r4
 8008b48:	d007      	beq.n	8008b5a <i2c_lld_master_transmit_timeout+0x9a>
 8008b4a:	69a2      	ldr	r2, [r4, #24]
 8008b4c:	689b      	ldr	r3, [r3, #8]
 8008b4e:	6892      	ldr	r2, [r2, #8]
 8008b50:	429a      	cmp	r2, r3
 8008b52:	d202      	bcs.n	8008b5a <i2c_lld_master_transmit_timeout+0x9a>
 8008b54:	4650      	mov	r0, sl
 8008b56:	f7fa f84b 	bl	8002bf0 <chSysHalt>
 8008b5a:	f386 8811 	msr	BASEPRI, r6
 8008b5e:	f387 8811 	msr	BASEPRI, r7
 8008b62:	f7fb f955 	bl	8003e10 <_stats_start_measure_crit_thd>
 8008b66:	f7fa f8e3 	bl	8002d30 <_dbg_check_lock>
 8008b6a:	69ab      	ldr	r3, [r5, #24]
 8008b6c:	079a      	lsls	r2, r3, #30
 8008b6e:	d402      	bmi.n	8008b76 <i2c_lld_master_transmit_timeout+0xb6>
 8008b70:	682b      	ldr	r3, [r5, #0]
 8008b72:	059b      	lsls	r3, r3, #22
 8008b74:	d512      	bpl.n	8008b9c <i2c_lld_master_transmit_timeout+0xdc>
 8008b76:	6aa3      	ldr	r3, [r4, #40]	; 0x28
 8008b78:	eba3 0308 	sub.w	r3, r3, r8
 8008b7c:	2b31      	cmp	r3, #49	; 0x31
 8008b7e:	d9dd      	bls.n	8008b3c <i2c_lld_master_transmit_timeout+0x7c>
 8008b80:	9a03      	ldr	r2, [sp, #12]
 8008b82:	f8db 3000 	ldr.w	r3, [fp]
 8008b86:	429a      	cmp	r2, r3
 8008b88:	f04f 30ff 	mov.w	r0, #4294967295
 8008b8c:	d11b      	bne.n	8008bc6 <i2c_lld_master_transmit_timeout+0x106>
 8008b8e:	b005      	add	sp, #20
 8008b90:	e8bd 8ff0 	ldmia.w	sp!, {r4, r5, r6, r7, r8, r9, sl, fp, pc}
 8008b94:	480e      	ldr	r0, [pc, #56]	; (8008bd0 <i2c_lld_master_transmit_timeout+0x110>)
 8008b96:	f7fa f82b 	bl	8002bf0 <chSysHalt>
 8008b9a:	e7b5      	b.n	8008b08 <i2c_lld_master_transmit_timeout+0x48>
 8008b9c:	686b      	ldr	r3, [r5, #4]
 8008b9e:	f443 7300 	orr.w	r3, r3, #512	; 0x200
 8008ba2:	606b      	str	r3, [r5, #4]
 8008ba4:	682b      	ldr	r3, [r5, #0]
 8008ba6:	f443 7380 	orr.w	r3, r3, #256	; 0x100
 8008baa:	602b      	str	r3, [r5, #0]
 8008bac:	9a03      	ldr	r2, [sp, #12]
 8008bae:	f8db 3000 	ldr.w	r3, [fp]
 8008bb2:	429a      	cmp	r2, r3
 8008bb4:	d107      	bne.n	8008bc6 <i2c_lld_master_transmit_timeout+0x106>
 8008bb6:	9901      	ldr	r1, [sp, #4]
 8008bb8:	f109 0020 	add.w	r0, r9, #32
 8008bbc:	b005      	add	sp, #20
 8008bbe:	e8bd 4ff0 	ldmia.w	sp!, {r4, r5, r6, r7, r8, r9, sl, fp, lr}
 8008bc2:	f7fa bf25 	b.w	8003a10 <chThdSuspendTimeoutS>
 8008bc6:	f7f8 fba3 	bl	8001310 <__stack_chk_fail>
 8008bca:	bf00      	nop
 8008bcc:	200018b0 	.word	0x200018b0
 8008bd0:	0800dd10 	.word	0x0800dd10
 8008bd4:	2000081c 	.word	0x2000081c
	...

08008be0 <usb_lld_init>:
 8008be0:	b530      	push	{r4, r5, lr}
 8008be2:	4c13      	ldr	r4, [pc, #76]	; (8008c30 <usb_lld_init+0x50>)
 8008be4:	4d13      	ldr	r5, [pc, #76]	; (8008c34 <usb_lld_init+0x54>)
 8008be6:	b083      	sub	sp, #12
 8008be8:	682b      	ldr	r3, [r5, #0]
 8008bea:	9301      	str	r3, [sp, #4]
 8008bec:	4620      	mov	r0, r4
 8008bee:	f7fd f8bf 	bl	8005d70 <usbObjectInit>
 8008bf2:	f04f 43a0 	mov.w	r3, #1342177280	; 0x50000000
 8008bf6:	4a10      	ldr	r2, [pc, #64]	; (8008c38 <usb_lld_init+0x58>)
 8008bf8:	6523      	str	r3, [r4, #80]	; 0x50
 8008bfa:	6562      	str	r2, [r4, #84]	; 0x54
 8008bfc:	2300      	movs	r3, #0
 8008bfe:	22ff      	movs	r2, #255	; 0xff
 8008c00:	f104 01d0 	add.w	r1, r4, #208	; 0xd0
 8008c04:	f104 0068 	add.w	r0, r4, #104	; 0x68
 8008c08:	e9c4 3318 	strd	r3, r3, [r4, #96]	; 0x60
 8008c0c:	f7fa fd18 	bl	8003640 <_thread_memfill>
 8008c10:	9a01      	ldr	r2, [sp, #4]
 8008c12:	682b      	ldr	r3, [r5, #0]
 8008c14:	429a      	cmp	r2, r3
 8008c16:	d109      	bne.n	8008c2c <usb_lld_init+0x4c>
 8008c18:	2255      	movs	r2, #85	; 0x55
 8008c1a:	f504 7118 	add.w	r1, r4, #608	; 0x260
 8008c1e:	f104 00d0 	add.w	r0, r4, #208	; 0xd0
 8008c22:	b003      	add	sp, #12
 8008c24:	e8bd 4030 	ldmia.w	sp!, {r4, r5, lr}
 8008c28:	f7fa bd0a 	b.w	8003640 <_thread_memfill>
 8008c2c:	f7f8 fb70 	bl	8001310 <__stack_chk_fail>
 8008c30:	20002370 	.word	0x20002370
 8008c34:	2000081c 	.word	0x2000081c
 8008c38:	0800dda0 	.word	0x0800dda0
 8008c3c:	00000000 	.word	0x00000000

08008c40 <usb_lld_reset>:
 8008c40:	b5f0      	push	{r4, r5, r6, r7, lr}
 8008c42:	4e37      	ldr	r6, [pc, #220]	; (8008d20 <usb_lld_reset+0xe0>)
 8008c44:	6d05      	ldr	r5, [r0, #80]	; 0x50
 8008c46:	6833      	ldr	r3, [r6, #0]
 8008c48:	b083      	sub	sp, #12
 8008c4a:	4607      	mov	r7, r0
 8008c4c:	9301      	str	r3, [sp, #4]
 8008c4e:	2320      	movs	r3, #32
 8008c50:	612b      	str	r3, [r5, #16]
 8008c52:	692c      	ldr	r4, [r5, #16]
 8008c54:	f014 0420 	ands.w	r4, r4, #32
 8008c58:	d1fb      	bne.n	8008c52 <usb_lld_reset+0x12>
 8008c5a:	200c      	movs	r0, #12
 8008c5c:	f7fa f828 	bl	8002cb0 <chSysPolledDelayX>
 8008c60:	f8d7 c054 	ldr.w	ip, [r7, #84]	; 0x54
 8008c64:	f8dc 2008 	ldr.w	r2, [ip, #8]
 8008c68:	4623      	mov	r3, r4
 8008c6a:	f04f 6000 	mov.w	r0, #134217728	; 0x8000000
 8008c6e:	1c54      	adds	r4, r2, #1
 8008c70:	21ff      	movs	r1, #255	; 0xff
 8008c72:	eb05 1243 	add.w	r2, r5, r3, lsl #5
 8008c76:	3301      	adds	r3, #1
 8008c78:	429c      	cmp	r4, r3
 8008c7a:	f8c2 0900 	str.w	r0, [r2, #2304]	; 0x900
 8008c7e:	f8c2 0b00 	str.w	r0, [r2, #2816]	; 0xb00
 8008c82:	f8c2 1908 	str.w	r1, [r2, #2312]	; 0x908
 8008c86:	f8c2 1b08 	str.w	r1, [r2, #2824]	; 0xb08
 8008c8a:	d1f2      	bne.n	8008c72 <usb_lld_reset+0x32>
 8008c8c:	f04f 33ff 	mov.w	r3, #4294967295
 8008c90:	f8c5 3818 	str.w	r3, [r5, #2072]	; 0x818
 8008c94:	f04f 1201 	mov.w	r2, #65537	; 0x10001
 8008c98:	f8dc 3000 	ldr.w	r3, [ip]
 8008c9c:	f8c5 281c 	str.w	r2, [r5, #2076]	; 0x81c
 8008ca0:	65bb      	str	r3, [r7, #88]	; 0x58
 8008ca2:	f8dc 3000 	ldr.w	r3, [ip]
 8008ca6:	6d3a      	ldr	r2, [r7, #80]	; 0x50
 8008ca8:	626b      	str	r3, [r5, #36]	; 0x24
 8008caa:	2310      	movs	r3, #16
 8008cac:	6113      	str	r3, [r2, #16]
 8008cae:	6914      	ldr	r4, [r2, #16]
 8008cb0:	f014 0410 	ands.w	r4, r4, #16
 8008cb4:	d1fb      	bne.n	8008cae <usb_lld_reset+0x6e>
 8008cb6:	200c      	movs	r0, #12
 8008cb8:	f7f9 fffa 	bl	8002cb0 <chSysPolledDelayX>
 8008cbc:	f8d5 3800 	ldr.w	r3, [r5, #2048]	; 0x800
 8008cc0:	4a18      	ldr	r2, [pc, #96]	; (8008d24 <usb_lld_reset+0xe4>)
 8008cc2:	f423 63fe 	bic.w	r3, r3, #2032	; 0x7f0
 8008cc6:	f8c5 3800 	str.w	r3, [r5, #2048]	; 0x800
 8008cca:	69ab      	ldr	r3, [r5, #24]
 8008ccc:	f443 2340 	orr.w	r3, r3, #786432	; 0xc0000
 8008cd0:	f043 0310 	orr.w	r3, r3, #16
 8008cd4:	61ab      	str	r3, [r5, #24]
 8008cd6:	2309      	movs	r3, #9
 8008cd8:	f8c5 3810 	str.w	r3, [r5, #2064]	; 0x810
 8008cdc:	f8c5 3814 	str.w	r3, [r5, #2068]	; 0x814
 8008ce0:	4b11      	ldr	r3, [pc, #68]	; (8008d28 <usb_lld_reset+0xe8>)
 8008ce2:	60fa      	str	r2, [r7, #12]
 8008ce4:	f8c5 4b10 	str.w	r4, [r5, #2832]	; 0xb10
 8008ce8:	f8c5 3b00 	str.w	r3, [r5, #2816]	; 0xb00
 8008cec:	f8c5 4910 	str.w	r4, [r5, #2320]	; 0x910
 8008cf0:	f8c5 3900 	str.w	r3, [r5, #2304]	; 0x900
 8008cf4:	e9d7 2415 	ldrd	r2, r4, [r7, #84]	; 0x54
 8008cf8:	f104 0310 	add.w	r3, r4, #16
 8008cfc:	65bb      	str	r3, [r7, #88]	; 0x58
 8008cfe:	6852      	ldr	r2, [r2, #4]
 8008d00:	4293      	cmp	r3, r2
 8008d02:	d902      	bls.n	8008d0a <usb_lld_reset+0xca>
 8008d04:	4809      	ldr	r0, [pc, #36]	; (8008d2c <usb_lld_reset+0xec>)
 8008d06:	f7f9 ff73 	bl	8002bf0 <chSysHalt>
 8008d0a:	f444 1480 	orr.w	r4, r4, #1048576	; 0x100000
 8008d0e:	62ac      	str	r4, [r5, #40]	; 0x28
 8008d10:	9a01      	ldr	r2, [sp, #4]
 8008d12:	6833      	ldr	r3, [r6, #0]
 8008d14:	429a      	cmp	r2, r3
 8008d16:	d101      	bne.n	8008d1c <usb_lld_reset+0xdc>
 8008d18:	b003      	add	sp, #12
 8008d1a:	bdf0      	pop	{r4, r5, r6, r7, pc}
 8008d1c:	f7f8 faf8 	bl	8001310 <__stack_chk_fail>
 8008d20:	2000081c 	.word	0x2000081c
 8008d24:	0800dd70 	.word	0x0800dd70
 8008d28:	10008040 	.word	0x10008040
 8008d2c:	0800dd60 	.word	0x0800dd60

08008d30 <usb_lld_set_address>:
 8008d30:	b500      	push	{lr}
 8008d32:	4a0c      	ldr	r2, [pc, #48]	; (8008d64 <usb_lld_set_address+0x34>)
 8008d34:	6d01      	ldr	r1, [r0, #80]	; 0x50
 8008d36:	6813      	ldr	r3, [r2, #0]
 8008d38:	f890 004e 	ldrb.w	r0, [r0, #78]	; 0x4e
 8008d3c:	b083      	sub	sp, #12
 8008d3e:	9301      	str	r3, [sp, #4]
 8008d40:	f8d1 3800 	ldr.w	r3, [r1, #2048]	; 0x800
 8008d44:	f423 63fe 	bic.w	r3, r3, #2032	; 0x7f0
 8008d48:	ea43 1300 	orr.w	r3, r3, r0, lsl #4
 8008d4c:	f8c1 3800 	str.w	r3, [r1, #2048]	; 0x800
 8008d50:	9901      	ldr	r1, [sp, #4]
 8008d52:	6813      	ldr	r3, [r2, #0]
 8008d54:	4299      	cmp	r1, r3
 8008d56:	d102      	bne.n	8008d5e <usb_lld_set_address+0x2e>
 8008d58:	b003      	add	sp, #12
 8008d5a:	f85d fb04 	ldr.w	pc, [sp], #4
 8008d5e:	f7f8 fad7 	bl	8001310 <__stack_chk_fail>
 8008d62:	bf00      	nop
 8008d64:	2000081c 	.word	0x2000081c
	...

08008d70 <usb_lld_get_status_out>:
 8008d70:	b500      	push	{lr}
 8008d72:	4a0c      	ldr	r2, [pc, #48]	; (8008da4 <usb_lld_get_status_out+0x34>)
 8008d74:	6d03      	ldr	r3, [r0, #80]	; 0x50
 8008d76:	6810      	ldr	r0, [r2, #0]
 8008d78:	b083      	sub	sp, #12
 8008d7a:	3158      	adds	r1, #88	; 0x58
 8008d7c:	0149      	lsls	r1, r1, #5
 8008d7e:	9001      	str	r0, [sp, #4]
 8008d80:	585b      	ldr	r3, [r3, r1]
 8008d82:	f413 4000 	ands.w	r0, r3, #32768	; 0x8000
 8008d86:	d004      	beq.n	8008d92 <usb_lld_get_status_out+0x22>
 8008d88:	f413 1f00 	tst.w	r3, #2097152	; 0x200000
 8008d8c:	bf14      	ite	ne
 8008d8e:	2001      	movne	r0, #1
 8008d90:	2002      	moveq	r0, #2
 8008d92:	9901      	ldr	r1, [sp, #4]
 8008d94:	6813      	ldr	r3, [r2, #0]
 8008d96:	4299      	cmp	r1, r3
 8008d98:	d102      	bne.n	8008da0 <usb_lld_get_status_out+0x30>
 8008d9a:	b003      	add	sp, #12
 8008d9c:	f85d fb04 	ldr.w	pc, [sp], #4
 8008da0:	f7f8 fab6 	bl	8001310 <__stack_chk_fail>
 8008da4:	2000081c 	.word	0x2000081c
	...

08008db0 <usb_lld_get_status_in>:
 8008db0:	b500      	push	{lr}
 8008db2:	4a0c      	ldr	r2, [pc, #48]	; (8008de4 <usb_lld_get_status_in+0x34>)
 8008db4:	6d03      	ldr	r3, [r0, #80]	; 0x50
 8008db6:	6810      	ldr	r0, [r2, #0]
 8008db8:	b083      	sub	sp, #12
 8008dba:	3148      	adds	r1, #72	; 0x48
 8008dbc:	0149      	lsls	r1, r1, #5
 8008dbe:	9001      	str	r0, [sp, #4]
 8008dc0:	585b      	ldr	r3, [r3, r1]
 8008dc2:	f413 4000 	ands.w	r0, r3, #32768	; 0x8000
 8008dc6:	d004      	beq.n	8008dd2 <usb_lld_get_status_in+0x22>
 8008dc8:	f413 1f00 	tst.w	r3, #2097152	; 0x200000
 8008dcc:	bf14      	ite	ne
 8008dce:	2001      	movne	r0, #1
 8008dd0:	2002      	moveq	r0, #2
 8008dd2:	9901      	ldr	r1, [sp, #4]
 8008dd4:	6813      	ldr	r3, [r2, #0]
 8008dd6:	4299      	cmp	r1, r3
 8008dd8:	d102      	bne.n	8008de0 <usb_lld_get_status_in+0x30>
 8008dda:	b003      	add	sp, #12
 8008ddc:	f85d fb04 	ldr.w	pc, [sp], #4
 8008de0:	f7f8 fa96 	bl	8001310 <__stack_chk_fail>
 8008de4:	2000081c 	.word	0x2000081c
	...

08008df0 <usb_lld_read_setup>:
 8008df0:	b510      	push	{r4, lr}
 8008df2:	eb00 0181 	add.w	r1, r0, r1, lsl #2
 8008df6:	4b09      	ldr	r3, [pc, #36]	; (8008e1c <usb_lld_read_setup+0x2c>)
 8008df8:	68c9      	ldr	r1, [r1, #12]
 8008dfa:	6818      	ldr	r0, [r3, #0]
 8008dfc:	6a09      	ldr	r1, [r1, #32]
 8008dfe:	b082      	sub	sp, #8
 8008e00:	680c      	ldr	r4, [r1, #0]
 8008e02:	9001      	str	r0, [sp, #4]
 8008e04:	6848      	ldr	r0, [r1, #4]
 8008e06:	6014      	str	r4, [r2, #0]
 8008e08:	9901      	ldr	r1, [sp, #4]
 8008e0a:	681b      	ldr	r3, [r3, #0]
 8008e0c:	6050      	str	r0, [r2, #4]
 8008e0e:	4299      	cmp	r1, r3
 8008e10:	d101      	bne.n	8008e16 <usb_lld_read_setup+0x26>
 8008e12:	b002      	add	sp, #8
 8008e14:	bd10      	pop	{r4, pc}
 8008e16:	f7f8 fa7b 	bl	8001310 <__stack_chk_fail>
 8008e1a:	bf00      	nop
 8008e1c:	2000081c 	.word	0x2000081c

08008e20 <usb_lld_prepare_receive>:
 8008e20:	b5f0      	push	{r4, r5, r6, r7, lr}
 8008e22:	eb00 0381 	add.w	r3, r0, r1, lsl #2
 8008e26:	4e12      	ldr	r6, [pc, #72]	; (8008e70 <usb_lld_prepare_receive+0x50>)
 8008e28:	68df      	ldr	r7, [r3, #12]
 8008e2a:	6833      	ldr	r3, [r6, #0]
 8008e2c:	69bd      	ldr	r5, [r7, #24]
 8008e2e:	b083      	sub	sp, #12
 8008e30:	686a      	ldr	r2, [r5, #4]
 8008e32:	9301      	str	r3, [sp, #4]
 8008e34:	612a      	str	r2, [r5, #16]
 8008e36:	b929      	cbnz	r1, 8008e44 <usb_lld_prepare_receive+0x24>
 8008e38:	2a40      	cmp	r2, #64	; 0x40
 8008e3a:	d903      	bls.n	8008e44 <usb_lld_prepare_receive+0x24>
 8008e3c:	2240      	movs	r2, #64	; 0x40
 8008e3e:	4c0d      	ldr	r4, [pc, #52]	; (8008e74 <usb_lld_prepare_receive+0x54>)
 8008e40:	606a      	str	r2, [r5, #4]
 8008e42:	e001      	b.n	8008e48 <usb_lld_prepare_receive+0x28>
 8008e44:	f042 44c0 	orr.w	r4, r2, #1610612736	; 0x60000000
 8008e48:	8a7d      	ldrh	r5, [r7, #18]
 8008e4a:	6d00      	ldr	r0, [r0, #80]	; 0x50
 8008e4c:	1e6b      	subs	r3, r5, #1
 8008e4e:	eb00 1141 	add.w	r1, r0, r1, lsl #5
 8008e52:	4413      	add	r3, r2
 8008e54:	fbb3 f3f5 	udiv	r3, r3, r5
 8008e58:	ea44 43c3 	orr.w	r3, r4, r3, lsl #19
 8008e5c:	f8c1 3b10 	str.w	r3, [r1, #2832]	; 0xb10
 8008e60:	9a01      	ldr	r2, [sp, #4]
 8008e62:	6833      	ldr	r3, [r6, #0]
 8008e64:	429a      	cmp	r2, r3
 8008e66:	d101      	bne.n	8008e6c <usb_lld_prepare_receive+0x4c>
 8008e68:	b003      	add	sp, #12
 8008e6a:	bdf0      	pop	{r4, r5, r6, r7, pc}
 8008e6c:	f7f8 fa50 	bl	8001310 <__stack_chk_fail>
 8008e70:	2000081c 	.word	0x2000081c
 8008e74:	60000040 	.word	0x60000040
	...

08008e80 <otg_epout_handler.constprop.7>:
 8008e80:	e92d 41f0 	stmdb	sp!, {r4, r5, r6, r7, r8, lr}
 8008e84:	4e31      	ldr	r6, [pc, #196]	; (8008f4c <otg_epout_handler.constprop.7+0xcc>)
 8008e86:	f8df 80c8 	ldr.w	r8, [pc, #200]	; 8008f50 <otg_epout_handler.constprop.7+0xd0>
 8008e8a:	6d37      	ldr	r7, [r6, #80]	; 0x50
 8008e8c:	f8d8 3000 	ldr.w	r3, [r8]
 8008e90:	b082      	sub	sp, #8
 8008e92:	4605      	mov	r5, r0
 8008e94:	9301      	str	r3, [sp, #4]
 8008e96:	eb07 1340 	add.w	r3, r7, r0, lsl #5
 8008e9a:	f8d3 4b08 	ldr.w	r4, [r3, #2824]	; 0xb08
 8008e9e:	f8c3 4b08 	str.w	r4, [r3, #2824]	; 0xb08
 8008ea2:	0720      	lsls	r0, r4, #28
 8008ea4:	d50a      	bpl.n	8008ebc <otg_epout_handler.constprop.7+0x3c>
 8008ea6:	f8d7 3814 	ldr.w	r3, [r7, #2068]	; 0x814
 8008eaa:	0719      	lsls	r1, r3, #28
 8008eac:	d506      	bpl.n	8008ebc <otg_epout_handler.constprop.7+0x3c>
 8008eae:	eb06 0385 	add.w	r3, r6, r5, lsl #2
 8008eb2:	4629      	mov	r1, r5
 8008eb4:	68db      	ldr	r3, [r3, #12]
 8008eb6:	4630      	mov	r0, r6
 8008eb8:	685b      	ldr	r3, [r3, #4]
 8008eba:	4798      	blx	r3
 8008ebc:	07e2      	lsls	r2, r4, #31
 8008ebe:	d53b      	bpl.n	8008f38 <otg_epout_handler.constprop.7+0xb8>
 8008ec0:	f8d7 3814 	ldr.w	r3, [r7, #2068]	; 0x814
 8008ec4:	07db      	lsls	r3, r3, #31
 8008ec6:	d537      	bpl.n	8008f38 <otg_epout_handler.constprop.7+0xb8>
 8008ec8:	eb06 0385 	add.w	r3, r6, r5, lsl #2
 8008ecc:	68d9      	ldr	r1, [r3, #12]
 8008ece:	698b      	ldr	r3, [r1, #24]
 8008ed0:	6858      	ldr	r0, [r3, #4]
 8008ed2:	691a      	ldr	r2, [r3, #16]
 8008ed4:	4290      	cmp	r0, r2
 8008ed6:	d311      	bcc.n	8008efc <otg_epout_handler.constprop.7+0x7c>
 8008ed8:	8973      	ldrh	r3, [r6, #10]
 8008eda:	9c01      	ldr	r4, [sp, #4]
 8008edc:	f8d8 0000 	ldr.w	r0, [r8]
 8008ee0:	2201      	movs	r2, #1
 8008ee2:	40aa      	lsls	r2, r5
 8008ee4:	ea23 0302 	bic.w	r3, r3, r2
 8008ee8:	4284      	cmp	r4, r0
 8008eea:	8173      	strh	r3, [r6, #10]
 8008eec:	d12c      	bne.n	8008f48 <otg_epout_handler.constprop.7+0xc8>
 8008eee:	68cb      	ldr	r3, [r1, #12]
 8008ef0:	4816      	ldr	r0, [pc, #88]	; (8008f4c <otg_epout_handler.constprop.7+0xcc>)
 8008ef2:	4629      	mov	r1, r5
 8008ef4:	b002      	add	sp, #8
 8008ef6:	e8bd 41f0 	ldmia.w	sp!, {r4, r5, r6, r7, r8, lr}
 8008efa:	4718      	bx	r3
 8008efc:	1a12      	subs	r2, r2, r0
 8008efe:	2400      	movs	r4, #0
 8008f00:	e9c3 2401 	strd	r2, r4, [r3, #4]
 8008f04:	4629      	mov	r1, r5
 8008f06:	4811      	ldr	r0, [pc, #68]	; (8008f4c <otg_epout_handler.constprop.7+0xcc>)
 8008f08:	f7ff ff8a 	bl	8008e20 <usb_lld_prepare_receive>
 8008f0c:	2320      	movs	r3, #32
 8008f0e:	f383 8811 	msr	BASEPRI, r3
 8008f12:	f7fa ffad 	bl	8003e70 <_stats_start_measure_crit_isr>
 8008f16:	f7f9 ff4b 	bl	8002db0 <_dbg_check_lock_from_isr>
 8008f1a:	6d33      	ldr	r3, [r6, #80]	; 0x50
 8008f1c:	eb03 1545 	add.w	r5, r3, r5, lsl #5
 8008f20:	f8d5 3b00 	ldr.w	r3, [r5, #2816]	; 0xb00
 8008f24:	f043 6380 	orr.w	r3, r3, #67108864	; 0x4000000
 8008f28:	f8c5 3b00 	str.w	r3, [r5, #2816]	; 0xb00
 8008f2c:	f7f9 ff60 	bl	8002df0 <_dbg_check_unlock_from_isr>
 8008f30:	f7fa ffb6 	bl	8003ea0 <_stats_stop_measure_crit_isr>
 8008f34:	f384 8811 	msr	BASEPRI, r4
 8008f38:	9a01      	ldr	r2, [sp, #4]
 8008f3a:	f8d8 3000 	ldr.w	r3, [r8]
 8008f3e:	429a      	cmp	r2, r3
 8008f40:	d102      	bne.n	8008f48 <otg_epout_handler.constprop.7+0xc8>
 8008f42:	b002      	add	sp, #8
 8008f44:	e8bd 81f0 	ldmia.w	sp!, {r4, r5, r6, r7, r8, pc}
 8008f48:	f7f8 f9e2 	bl	8001310 <__stack_chk_fail>
 8008f4c:	20002370 	.word	0x20002370
 8008f50:	2000081c 	.word	0x2000081c
	...

08008f60 <usb_lld_prepare_transmit>:
 8008f60:	eb00 0381 	add.w	r3, r0, r1, lsl #2
 8008f64:	b5f0      	push	{r4, r5, r6, r7, lr}
 8008f66:	68de      	ldr	r6, [r3, #12]
 8008f68:	4d14      	ldr	r5, [pc, #80]	; (8008fbc <usb_lld_prepare_transmit+0x5c>)
 8008f6a:	6974      	ldr	r4, [r6, #20]
 8008f6c:	682f      	ldr	r7, [r5, #0]
 8008f6e:	6863      	ldr	r3, [r4, #4]
 8008f70:	6d02      	ldr	r2, [r0, #80]	; 0x50
 8008f72:	6123      	str	r3, [r4, #16]
 8008f74:	b083      	sub	sp, #12
 8008f76:	9701      	str	r7, [sp, #4]
 8008f78:	b1b3      	cbz	r3, 8008fa8 <usb_lld_prepare_transmit+0x48>
 8008f7a:	b181      	cbz	r1, 8008f9e <usb_lld_prepare_transmit+0x3e>
 8008f7c:	8a30      	ldrh	r0, [r6, #16]
 8008f7e:	eb02 1241 	add.w	r2, r2, r1, lsl #5
 8008f82:	1e41      	subs	r1, r0, #1
 8008f84:	4419      	add	r1, r3
 8008f86:	fbb1 f1f0 	udiv	r1, r1, r0
 8008f8a:	ea43 43c1 	orr.w	r3, r3, r1, lsl #19
 8008f8e:	f8c2 3910 	str.w	r3, [r2, #2320]	; 0x910
 8008f92:	9a01      	ldr	r2, [sp, #4]
 8008f94:	682b      	ldr	r3, [r5, #0]
 8008f96:	429a      	cmp	r2, r3
 8008f98:	d10d      	bne.n	8008fb6 <usb_lld_prepare_transmit+0x56>
 8008f9a:	b003      	add	sp, #12
 8008f9c:	bdf0      	pop	{r4, r5, r6, r7, pc}
 8008f9e:	2b40      	cmp	r3, #64	; 0x40
 8008fa0:	bf84      	itt	hi
 8008fa2:	2340      	movhi	r3, #64	; 0x40
 8008fa4:	6063      	strhi	r3, [r4, #4]
 8008fa6:	e7e9      	b.n	8008f7c <usb_lld_prepare_transmit+0x1c>
 8008fa8:	eb02 1241 	add.w	r2, r2, r1, lsl #5
 8008fac:	f44f 2300 	mov.w	r3, #524288	; 0x80000
 8008fb0:	f8c2 3910 	str.w	r3, [r2, #2320]	; 0x910
 8008fb4:	e7ed      	b.n	8008f92 <usb_lld_prepare_transmit+0x32>
 8008fb6:	f7f8 f9ab 	bl	8001310 <__stack_chk_fail>
 8008fba:	bf00      	nop
 8008fbc:	2000081c 	.word	0x2000081c

08008fc0 <otg_epin_handler.constprop.8>:
 8008fc0:	e92d 43f0 	stmdb	sp!, {r4, r5, r6, r7, r8, r9, lr}
 8008fc4:	4e3e      	ldr	r6, [pc, #248]	; (80090c0 <otg_epin_handler.constprop.8+0x100>)
 8008fc6:	f8df 8100 	ldr.w	r8, [pc, #256]	; 80090c8 <otg_epin_handler.constprop.8+0x108>
 8008fca:	6d35      	ldr	r5, [r6, #80]	; 0x50
 8008fcc:	f8d8 3000 	ldr.w	r3, [r8]
 8008fd0:	b083      	sub	sp, #12
 8008fd2:	4607      	mov	r7, r0
 8008fd4:	9301      	str	r3, [sp, #4]
 8008fd6:	eb05 1340 	add.w	r3, r5, r0, lsl #5
 8008fda:	f8d3 4908 	ldr.w	r4, [r3, #2312]	; 0x908
 8008fde:	f8c3 4908 	str.w	r4, [r3, #2312]	; 0x908
 8008fe2:	07e1      	lsls	r1, r4, #31
 8008fe4:	d516      	bpl.n	8009014 <otg_epin_handler.constprop.8+0x54>
 8008fe6:	f8d5 3810 	ldr.w	r3, [r5, #2064]	; 0x810
 8008fea:	07da      	lsls	r2, r3, #31
 8008fec:	d512      	bpl.n	8009014 <otg_epin_handler.constprop.8+0x54>
 8008fee:	eb06 0380 	add.w	r3, r6, r0, lsl #2
 8008ff2:	68d9      	ldr	r1, [r3, #12]
 8008ff4:	694b      	ldr	r3, [r1, #20]
 8008ff6:	6858      	ldr	r0, [r3, #4]
 8008ff8:	691a      	ldr	r2, [r3, #16]
 8008ffa:	4290      	cmp	r0, r2
 8008ffc:	d337      	bcc.n	800906e <otg_epin_handler.constprop.8+0xae>
 8008ffe:	8933      	ldrh	r3, [r6, #8]
 8009000:	f8d1 9008 	ldr.w	r9, [r1, #8]
 8009004:	2201      	movs	r2, #1
 8009006:	40ba      	lsls	r2, r7
 8009008:	ea23 0302 	bic.w	r3, r3, r2
 800900c:	8133      	strh	r3, [r6, #8]
 800900e:	4639      	mov	r1, r7
 8009010:	4630      	mov	r0, r6
 8009012:	47c8      	blx	r9
 8009014:	0623      	lsls	r3, r4, #24
 8009016:	d506      	bpl.n	8009026 <otg_epin_handler.constprop.8+0x66>
 8009018:	2301      	movs	r3, #1
 800901a:	f8d5 2834 	ldr.w	r2, [r5, #2100]	; 0x834
 800901e:	fa03 f707 	lsl.w	r7, r3, r7
 8009022:	4217      	tst	r7, r2
 8009024:	d107      	bne.n	8009036 <otg_epin_handler.constprop.8+0x76>
 8009026:	9a01      	ldr	r2, [sp, #4]
 8009028:	f8d8 3000 	ldr.w	r3, [r8]
 800902c:	429a      	cmp	r2, r3
 800902e:	d145      	bne.n	80090bc <otg_epin_handler.constprop.8+0xfc>
 8009030:	b003      	add	sp, #12
 8009032:	e8bd 83f0 	ldmia.w	sp!, {r4, r5, r6, r7, r8, r9, pc}
 8009036:	2320      	movs	r3, #32
 8009038:	f383 8811 	msr	BASEPRI, r3
 800903c:	f7fa ff18 	bl	8003e70 <_stats_start_measure_crit_isr>
 8009040:	f7f9 feb6 	bl	8002db0 <_dbg_check_lock_from_isr>
 8009044:	f8d5 2834 	ldr.w	r2, [r5, #2100]	; 0x834
 8009048:	6df3      	ldr	r3, [r6, #92]	; 0x5c
 800904a:	481e      	ldr	r0, [pc, #120]	; (80090c4 <otg_epin_handler.constprop.8+0x104>)
 800904c:	ea22 0207 	bic.w	r2, r2, r7
 8009050:	f8c5 2834 	str.w	r2, [r5, #2100]	; 0x834
 8009054:	431f      	orrs	r7, r3
 8009056:	2100      	movs	r1, #0
 8009058:	65f7      	str	r7, [r6, #92]	; 0x5c
 800905a:	f7fa fd09 	bl	8003a70 <chThdResumeI>
 800905e:	f7f9 fec7 	bl	8002df0 <_dbg_check_unlock_from_isr>
 8009062:	f7fa ff1d 	bl	8003ea0 <_stats_stop_measure_crit_isr>
 8009066:	2300      	movs	r3, #0
 8009068:	f383 8811 	msr	BASEPRI, r3
 800906c:	e7db      	b.n	8009026 <otg_epin_handler.constprop.8+0x66>
 800906e:	1a12      	subs	r2, r2, r0
 8009070:	f04f 0900 	mov.w	r9, #0
 8009074:	e9c3 2901 	strd	r2, r9, [r3, #4]
 8009078:	4639      	mov	r1, r7
 800907a:	4630      	mov	r0, r6
 800907c:	f7ff ff70 	bl	8008f60 <usb_lld_prepare_transmit>
 8009080:	2320      	movs	r3, #32
 8009082:	f383 8811 	msr	BASEPRI, r3
 8009086:	f7fa fef3 	bl	8003e70 <_stats_start_measure_crit_isr>
 800908a:	f7f9 fe91 	bl	8002db0 <_dbg_check_lock_from_isr>
 800908e:	6d32      	ldr	r2, [r6, #80]	; 0x50
 8009090:	eb02 1047 	add.w	r0, r2, r7, lsl #5
 8009094:	2301      	movs	r3, #1
 8009096:	f8d0 1900 	ldr.w	r1, [r0, #2304]	; 0x900
 800909a:	f041 4104 	orr.w	r1, r1, #2214592512	; 0x84000000
 800909e:	f8c0 1900 	str.w	r1, [r0, #2304]	; 0x900
 80090a2:	f8d2 1834 	ldr.w	r1, [r2, #2100]	; 0x834
 80090a6:	40bb      	lsls	r3, r7
 80090a8:	430b      	orrs	r3, r1
 80090aa:	f8c2 3834 	str.w	r3, [r2, #2100]	; 0x834
 80090ae:	f7f9 fe9f 	bl	8002df0 <_dbg_check_unlock_from_isr>
 80090b2:	f7fa fef5 	bl	8003ea0 <_stats_stop_measure_crit_isr>
 80090b6:	f389 8811 	msr	BASEPRI, r9
 80090ba:	e7ab      	b.n	8009014 <otg_epin_handler.constprop.8+0x54>
 80090bc:	f7f8 f928 	bl	8001310 <__stack_chk_fail>
 80090c0:	20002370 	.word	0x20002370
 80090c4:	200023d0 	.word	0x200023d0
 80090c8:	2000081c 	.word	0x2000081c
 80090cc:	00000000 	.word	0x00000000

080090d0 <Vector14C>:
 80090d0:	b5f0      	push	{r4, r5, r6, r7, lr}
 80090d2:	4f45      	ldr	r7, [pc, #276]	; (80091e8 <Vector14C+0x118>)
 80090d4:	4d45      	ldr	r5, [pc, #276]	; (80091ec <Vector14C+0x11c>)
 80090d6:	683b      	ldr	r3, [r7, #0]
 80090d8:	b083      	sub	sp, #12
 80090da:	9301      	str	r3, [sp, #4]
 80090dc:	f7fa fe60 	bl	8003da0 <_stats_increase_irq>
 80090e0:	f7f9 fea6 	bl	8002e30 <_dbg_check_enter_isr>
 80090e4:	6d2e      	ldr	r6, [r5, #80]	; 0x50
 80090e6:	6974      	ldr	r4, [r6, #20]
 80090e8:	69b3      	ldr	r3, [r6, #24]
 80090ea:	401c      	ands	r4, r3
 80090ec:	04e1      	lsls	r1, r4, #19
 80090ee:	6174      	str	r4, [r6, #20]
 80090f0:	d444      	bmi.n	800917c <Vector14C+0xac>
 80090f2:	04a2      	lsls	r2, r4, #18
 80090f4:	bf48      	it	mi
 80090f6:	f8d6 3808 	ldrmi.w	r3, [r6, #2056]	; 0x808
 80090fa:	0723      	lsls	r3, r4, #28
 80090fc:	d504      	bpl.n	8009108 <Vector14C+0x38>
 80090fe:	686b      	ldr	r3, [r5, #4]
 8009100:	68db      	ldr	r3, [r3, #12]
 8009102:	b10b      	cbz	r3, 8009108 <Vector14C+0x38>
 8009104:	4839      	ldr	r0, [pc, #228]	; (80091ec <Vector14C+0x11c>)
 8009106:	4798      	blx	r3
 8009108:	06e5      	lsls	r5, r4, #27
 800910a:	d420      	bmi.n	800914e <Vector14C+0x7e>
 800910c:	0360      	lsls	r0, r4, #13
 800910e:	f8d6 5818 	ldr.w	r5, [r6, #2072]	; 0x818
 8009112:	d507      	bpl.n	8009124 <Vector14C+0x54>
 8009114:	07e9      	lsls	r1, r5, #31
 8009116:	d454      	bmi.n	80091c2 <Vector14C+0xf2>
 8009118:	07aa      	lsls	r2, r5, #30
 800911a:	d457      	bmi.n	80091cc <Vector14C+0xfc>
 800911c:	076b      	lsls	r3, r5, #29
 800911e:	d45a      	bmi.n	80091d6 <Vector14C+0x106>
 8009120:	072e      	lsls	r6, r5, #28
 8009122:	d44a      	bmi.n	80091ba <Vector14C+0xea>
 8009124:	0324      	lsls	r4, r4, #12
 8009126:	d507      	bpl.n	8009138 <Vector14C+0x68>
 8009128:	03e8      	lsls	r0, r5, #15
 800912a:	d436      	bmi.n	800919a <Vector14C+0xca>
 800912c:	03a9      	lsls	r1, r5, #14
 800912e:	d439      	bmi.n	80091a4 <Vector14C+0xd4>
 8009130:	036a      	lsls	r2, r5, #13
 8009132:	d43c      	bmi.n	80091ae <Vector14C+0xde>
 8009134:	032b      	lsls	r3, r5, #12
 8009136:	d42c      	bmi.n	8009192 <Vector14C+0xc2>
 8009138:	f7f9 fea2 	bl	8002e80 <_dbg_check_leave_isr>
 800913c:	9a01      	ldr	r2, [sp, #4]
 800913e:	683b      	ldr	r3, [r7, #0]
 8009140:	429a      	cmp	r2, r3
 8009142:	d14e      	bne.n	80091e2 <Vector14C+0x112>
 8009144:	b003      	add	sp, #12
 8009146:	e8bd 40f0 	ldmia.w	sp!, {r4, r5, r6, r7, lr}
 800914a:	f7fb bc81 	b.w	8004a50 <_port_irq_epilogue>
 800914e:	2320      	movs	r3, #32
 8009150:	f383 8811 	msr	BASEPRI, r3
 8009154:	f7fa fe8c 	bl	8003e70 <_stats_start_measure_crit_isr>
 8009158:	f7f9 fe2a 	bl	8002db0 <_dbg_check_lock_from_isr>
 800915c:	69b3      	ldr	r3, [r6, #24]
 800915e:	4824      	ldr	r0, [pc, #144]	; (80091f0 <Vector14C+0x120>)
 8009160:	f023 0310 	bic.w	r3, r3, #16
 8009164:	61b3      	str	r3, [r6, #24]
 8009166:	2100      	movs	r1, #0
 8009168:	f7fa fc82 	bl	8003a70 <chThdResumeI>
 800916c:	f7f9 fe40 	bl	8002df0 <_dbg_check_unlock_from_isr>
 8009170:	f7fa fe96 	bl	8003ea0 <_stats_stop_measure_crit_isr>
 8009174:	2300      	movs	r3, #0
 8009176:	f383 8811 	msr	BASEPRI, r3
 800917a:	e7c7      	b.n	800910c <Vector14C+0x3c>
 800917c:	4628      	mov	r0, r5
 800917e:	f7fc fe77 	bl	8005e70 <_usb_reset>
 8009182:	686b      	ldr	r3, [r5, #4]
 8009184:	681b      	ldr	r3, [r3, #0]
 8009186:	2b00      	cmp	r3, #0
 8009188:	d0b3      	beq.n	80090f2 <Vector14C+0x22>
 800918a:	2100      	movs	r1, #0
 800918c:	4628      	mov	r0, r5
 800918e:	4798      	blx	r3
 8009190:	e7af      	b.n	80090f2 <Vector14C+0x22>
 8009192:	2003      	movs	r0, #3
 8009194:	f7ff fe74 	bl	8008e80 <otg_epout_handler.constprop.7>
 8009198:	e7ce      	b.n	8009138 <Vector14C+0x68>
 800919a:	2000      	movs	r0, #0
 800919c:	f7ff fe70 	bl	8008e80 <otg_epout_handler.constprop.7>
 80091a0:	03a9      	lsls	r1, r5, #14
 80091a2:	d5c5      	bpl.n	8009130 <Vector14C+0x60>
 80091a4:	2001      	movs	r0, #1
 80091a6:	f7ff fe6b 	bl	8008e80 <otg_epout_handler.constprop.7>
 80091aa:	036a      	lsls	r2, r5, #13
 80091ac:	d5c2      	bpl.n	8009134 <Vector14C+0x64>
 80091ae:	2002      	movs	r0, #2
 80091b0:	f7ff fe66 	bl	8008e80 <otg_epout_handler.constprop.7>
 80091b4:	032b      	lsls	r3, r5, #12
 80091b6:	d5bf      	bpl.n	8009138 <Vector14C+0x68>
 80091b8:	e7eb      	b.n	8009192 <Vector14C+0xc2>
 80091ba:	2003      	movs	r0, #3
 80091bc:	f7ff ff00 	bl	8008fc0 <otg_epin_handler.constprop.8>
 80091c0:	e7b0      	b.n	8009124 <Vector14C+0x54>
 80091c2:	2000      	movs	r0, #0
 80091c4:	f7ff fefc 	bl	8008fc0 <otg_epin_handler.constprop.8>
 80091c8:	07aa      	lsls	r2, r5, #30
 80091ca:	d5a7      	bpl.n	800911c <Vector14C+0x4c>
 80091cc:	2001      	movs	r0, #1
 80091ce:	f7ff fef7 	bl	8008fc0 <otg_epin_handler.constprop.8>
 80091d2:	076b      	lsls	r3, r5, #29
 80091d4:	d5a4      	bpl.n	8009120 <Vector14C+0x50>
 80091d6:	2002      	movs	r0, #2
 80091d8:	f7ff fef2 	bl	8008fc0 <otg_epin_handler.constprop.8>
 80091dc:	072e      	lsls	r6, r5, #28
 80091de:	d5a1      	bpl.n	8009124 <Vector14C+0x54>
 80091e0:	e7eb      	b.n	80091ba <Vector14C+0xea>
 80091e2:	f7f8 f895 	bl	8001310 <__stack_chk_fail>
 80091e6:	bf00      	nop
 80091e8:	2000081c 	.word	0x2000081c
 80091ec:	20002370 	.word	0x20002370
 80091f0:	200023d0 	.word	0x200023d0
	...

08009200 <usb_lld_start_out>:
 8009200:	b500      	push	{lr}
 8009202:	6d03      	ldr	r3, [r0, #80]	; 0x50
 8009204:	4a0a      	ldr	r2, [pc, #40]	; (8009230 <usb_lld_start_out+0x30>)
 8009206:	b083      	sub	sp, #12
 8009208:	eb03 1141 	add.w	r1, r3, r1, lsl #5
 800920c:	6813      	ldr	r3, [r2, #0]
 800920e:	9301      	str	r3, [sp, #4]
 8009210:	f8d1 3b00 	ldr.w	r3, [r1, #2816]	; 0xb00
 8009214:	f043 6380 	orr.w	r3, r3, #67108864	; 0x4000000
 8009218:	f8c1 3b00 	str.w	r3, [r1, #2816]	; 0xb00
 800921c:	9901      	ldr	r1, [sp, #4]
 800921e:	6813      	ldr	r3, [r2, #0]
 8009220:	4299      	cmp	r1, r3
 8009222:	d102      	bne.n	800922a <usb_lld_start_out+0x2a>
 8009224:	b003      	add	sp, #12
 8009226:	f85d fb04 	ldr.w	pc, [sp], #4
 800922a:	f7f8 f871 	bl	8001310 <__stack_chk_fail>
 800922e:	bf00      	nop
 8009230:	2000081c 	.word	0x2000081c
	...

08009240 <usb_lld_start_in>:
 8009240:	b530      	push	{r4, r5, lr}
 8009242:	6d02      	ldr	r2, [r0, #80]	; 0x50
 8009244:	4c0d      	ldr	r4, [pc, #52]	; (800927c <usb_lld_start_in+0x3c>)
 8009246:	b083      	sub	sp, #12
 8009248:	6823      	ldr	r3, [r4, #0]
 800924a:	9301      	str	r3, [sp, #4]
 800924c:	eb02 1541 	add.w	r5, r2, r1, lsl #5
 8009250:	2301      	movs	r3, #1
 8009252:	f8d5 0900 	ldr.w	r0, [r5, #2304]	; 0x900
 8009256:	f040 4004 	orr.w	r0, r0, #2214592512	; 0x84000000
 800925a:	f8c5 0900 	str.w	r0, [r5, #2304]	; 0x900
 800925e:	f8d2 0834 	ldr.w	r0, [r2, #2100]	; 0x834
 8009262:	fa03 f101 	lsl.w	r1, r3, r1
 8009266:	4301      	orrs	r1, r0
 8009268:	f8c2 1834 	str.w	r1, [r2, #2100]	; 0x834
 800926c:	9a01      	ldr	r2, [sp, #4]
 800926e:	6823      	ldr	r3, [r4, #0]
 8009270:	429a      	cmp	r2, r3
 8009272:	d101      	bne.n	8009278 <usb_lld_start_in+0x38>
 8009274:	b003      	add	sp, #12
 8009276:	bd30      	pop	{r4, r5, pc}
 8009278:	f7f8 f84a 	bl	8001310 <__stack_chk_fail>
 800927c:	2000081c 	.word	0x2000081c

08009280 <usb_lld_stall_out>:
 8009280:	b500      	push	{lr}
 8009282:	6d03      	ldr	r3, [r0, #80]	; 0x50
 8009284:	4a0a      	ldr	r2, [pc, #40]	; (80092b0 <usb_lld_stall_out+0x30>)
 8009286:	b083      	sub	sp, #12
 8009288:	eb03 1141 	add.w	r1, r3, r1, lsl #5
 800928c:	6813      	ldr	r3, [r2, #0]
 800928e:	9301      	str	r3, [sp, #4]
 8009290:	f8d1 3b00 	ldr.w	r3, [r1, #2816]	; 0xb00
 8009294:	f443 1300 	orr.w	r3, r3, #2097152	; 0x200000
 8009298:	f8c1 3b00 	str.w	r3, [r1, #2816]	; 0xb00
 800929c:	9901      	ldr	r1, [sp, #4]
 800929e:	6813      	ldr	r3, [r2, #0]
 80092a0:	4299      	cmp	r1, r3
 80092a2:	d102      	bne.n	80092aa <usb_lld_stall_out+0x2a>
 80092a4:	b003      	add	sp, #12
 80092a6:	f85d fb04 	ldr.w	pc, [sp], #4
 80092aa:	f7f8 f831 	bl	8001310 <__stack_chk_fail>
 80092ae:	bf00      	nop
 80092b0:	2000081c 	.word	0x2000081c
	...

080092c0 <usb_lld_stall_in>:
 80092c0:	b500      	push	{lr}
 80092c2:	6d03      	ldr	r3, [r0, #80]	; 0x50
 80092c4:	4a0a      	ldr	r2, [pc, #40]	; (80092f0 <usb_lld_stall_in+0x30>)
 80092c6:	b083      	sub	sp, #12
 80092c8:	eb03 1141 	add.w	r1, r3, r1, lsl #5
 80092cc:	6813      	ldr	r3, [r2, #0]
 80092ce:	9301      	str	r3, [sp, #4]
 80092d0:	f8d1 3900 	ldr.w	r3, [r1, #2304]	; 0x900
 80092d4:	f443 1300 	orr.w	r3, r3, #2097152	; 0x200000
 80092d8:	f8c1 3900 	str.w	r3, [r1, #2304]	; 0x900
 80092dc:	9901      	ldr	r1, [sp, #4]
 80092de:	6813      	ldr	r3, [r2, #0]
 80092e0:	4299      	cmp	r1, r3
 80092e2:	d102      	bne.n	80092ea <usb_lld_stall_in+0x2a>
 80092e4:	b003      	add	sp, #12
 80092e6:	f85d fb04 	ldr.w	pc, [sp], #4
 80092ea:	f7f8 f811 	bl	8001310 <__stack_chk_fail>
 80092ee:	bf00      	nop
 80092f0:	2000081c 	.word	0x2000081c
	...

08009300 <usb_lld_clear_out>:
 8009300:	b500      	push	{lr}
 8009302:	6d03      	ldr	r3, [r0, #80]	; 0x50
 8009304:	4a0a      	ldr	r2, [pc, #40]	; (8009330 <usb_lld_clear_out+0x30>)
 8009306:	b083      	sub	sp, #12
 8009308:	eb03 1141 	add.w	r1, r3, r1, lsl #5
 800930c:	6813      	ldr	r3, [r2, #0]
 800930e:	9301      	str	r3, [sp, #4]
 8009310:	f8d1 3b00 	ldr.w	r3, [r1, #2816]	; 0xb00
 8009314:	f423 1300 	bic.w	r3, r3, #2097152	; 0x200000
 8009318:	f8c1 3b00 	str.w	r3, [r1, #2816]	; 0xb00
 800931c:	9901      	ldr	r1, [sp, #4]
 800931e:	6813      	ldr	r3, [r2, #0]
 8009320:	4299      	cmp	r1, r3
 8009322:	d102      	bne.n	800932a <usb_lld_clear_out+0x2a>
 8009324:	b003      	add	sp, #12
 8009326:	f85d fb04 	ldr.w	pc, [sp], #4
 800932a:	f7f7 fff1 	bl	8001310 <__stack_chk_fail>
 800932e:	bf00      	nop
 8009330:	2000081c 	.word	0x2000081c
	...

08009340 <usb_lld_clear_in>:
 8009340:	b500      	push	{lr}
 8009342:	6d03      	ldr	r3, [r0, #80]	; 0x50
 8009344:	4a0a      	ldr	r2, [pc, #40]	; (8009370 <usb_lld_clear_in+0x30>)
 8009346:	b083      	sub	sp, #12
 8009348:	eb03 1141 	add.w	r1, r3, r1, lsl #5
 800934c:	6813      	ldr	r3, [r2, #0]
 800934e:	9301      	str	r3, [sp, #4]
 8009350:	f8d1 3900 	ldr.w	r3, [r1, #2304]	; 0x900
 8009354:	f423 1300 	bic.w	r3, r3, #2097152	; 0x200000
 8009358:	f8c1 3900 	str.w	r3, [r1, #2304]	; 0x900
 800935c:	9901      	ldr	r1, [sp, #4]
 800935e:	6813      	ldr	r3, [r2, #0]
 8009360:	4299      	cmp	r1, r3
 8009362:	d102      	bne.n	800936a <usb_lld_clear_in+0x2a>
 8009364:	b003      	add	sp, #12
 8009366:	f85d fb04 	ldr.w	pc, [sp], #4
 800936a:	f7f7 ffd1 	bl	8001310 <__stack_chk_fail>
 800936e:	bf00      	nop
 8009370:	2000081c 	.word	0x2000081c
	...

08009380 <i2s_lld_init>:
 8009380:	b530      	push	{r4, r5, lr}
 8009382:	4c0e      	ldr	r4, [pc, #56]	; (80093bc <i2s_lld_init+0x3c>)
 8009384:	4d0e      	ldr	r5, [pc, #56]	; (80093c0 <i2s_lld_init+0x40>)
 8009386:	b083      	sub	sp, #12
 8009388:	682b      	ldr	r3, [r5, #0]
 800938a:	9301      	str	r3, [sp, #4]
 800938c:	4620      	mov	r0, r4
 800938e:	f7fb ff2f 	bl	80051f0 <i2sObjectInit>
 8009392:	9901      	ldr	r1, [sp, #4]
 8009394:	4b0b      	ldr	r3, [pc, #44]	; (80093c4 <i2s_lld_init+0x44>)
 8009396:	682a      	ldr	r2, [r5, #0]
 8009398:	480b      	ldr	r0, [pc, #44]	; (80093c8 <i2s_lld_init+0x48>)
 800939a:	60a3      	str	r3, [r4, #8]
 800939c:	f44f 7340 	mov.w	r3, #768	; 0x300
 80093a0:	4d0a      	ldr	r5, [pc, #40]	; (80093cc <i2s_lld_init+0x4c>)
 80093a2:	81a3      	strh	r3, [r4, #12]
 80093a4:	4291      	cmp	r1, r2
 80093a6:	f04f 0300 	mov.w	r3, #0
 80093aa:	6125      	str	r5, [r4, #16]
 80093ac:	e9c4 3005 	strd	r3, r0, [r4, #20]
 80093b0:	61e3      	str	r3, [r4, #28]
 80093b2:	d101      	bne.n	80093b8 <i2s_lld_init+0x38>
 80093b4:	b003      	add	sp, #12
 80093b6:	bd30      	pop	{r4, r5, pc}
 80093b8:	f7f7 ffaa 	bl	8001310 <__stack_chk_fail>
 80093bc:	200025ec 	.word	0x200025ec
 80093c0:	2000081c 	.word	0x2000081c
 80093c4:	40003800 	.word	0x40003800
 80093c8:	00012d1e 	.word	0x00012d1e
 80093cc:	0800dbe4 	.word	0x0800dbe4

080093d0 <spi_lld_init>:
 80093d0:	b530      	push	{r4, r5, lr}
 80093d2:	4d0f      	ldr	r5, [pc, #60]	; (8009410 <spi_lld_init+0x40>)
 80093d4:	4c0f      	ldr	r4, [pc, #60]	; (8009414 <spi_lld_init+0x44>)
 80093d6:	682a      	ldr	r2, [r5, #0]
 80093d8:	4b0f      	ldr	r3, [pc, #60]	; (8009418 <spi_lld_init+0x48>)
 80093da:	b083      	sub	sp, #12
 80093dc:	4620      	mov	r0, r4
 80093de:	9201      	str	r2, [sp, #4]
 80093e0:	f64f 72ff 	movw	r2, #65535	; 0xffff
 80093e4:	801a      	strh	r2, [r3, #0]
 80093e6:	f7fc fc7b 	bl	8005ce0 <spiObjectInit>
 80093ea:	4b0c      	ldr	r3, [pc, #48]	; (800941c <spi_lld_init+0x4c>)
 80093ec:	9901      	ldr	r1, [sp, #4]
 80093ee:	682a      	ldr	r2, [r5, #0]
 80093f0:	480b      	ldr	r0, [pc, #44]	; (8009420 <spi_lld_init+0x50>)
 80093f2:	4d0c      	ldr	r5, [pc, #48]	; (8009424 <spi_lld_init+0x54>)
 80093f4:	6225      	str	r5, [r4, #32]
 80093f6:	6263      	str	r3, [r4, #36]	; 0x24
 80093f8:	f103 053c 	add.w	r5, r3, #60	; 0x3c
 80093fc:	4291      	cmp	r1, r2
 80093fe:	4b0a      	ldr	r3, [pc, #40]	; (8009428 <spi_lld_init+0x58>)
 8009400:	6323      	str	r3, [r4, #48]	; 0x30
 8009402:	e9c4 500a 	strd	r5, r0, [r4, #40]	; 0x28
 8009406:	d101      	bne.n	800940c <spi_lld_init+0x3c>
 8009408:	b003      	add	sp, #12
 800940a:	bd30      	pop	{r4, r5, pc}
 800940c:	f7f7 ff80 	bl	8001310 <__stack_chk_fail>
 8009410:	2000081c 	.word	0x2000081c
 8009414:	2000260c 	.word	0x2000260c
 8009418:	20002640 	.word	0x20002640
 800941c:	0800dc20 	.word	0x0800dc20
 8009420:	06010016 	.word	0x06010016
 8009424:	40013000 	.word	0x40013000
 8009428:	06010046 	.word	0x06010046
 800942c:	00000000 	.word	0x00000000

08009430 <Vector118>:
 8009430:	b510      	push	{r4, lr}
 8009432:	4c14      	ldr	r4, [pc, #80]	; (8009484 <Vector118+0x54>)
 8009434:	b082      	sub	sp, #8
 8009436:	6823      	ldr	r3, [r4, #0]
 8009438:	9301      	str	r3, [sp, #4]
 800943a:	f7fa fcb1 	bl	8003da0 <_stats_increase_irq>
 800943e:	f7f9 fcf7 	bl	8002e30 <_dbg_check_enter_isr>
 8009442:	4b11      	ldr	r3, [pc, #68]	; (8009488 <Vector118+0x58>)
 8009444:	7818      	ldrb	r0, [r3, #0]
 8009446:	68da      	ldr	r2, [r3, #12]
 8009448:	2100      	movs	r1, #0
 800944a:	2804      	cmp	r0, #4
 800944c:	6111      	str	r1, [r2, #16]
 800944e:	d107      	bne.n	8009460 <Vector118+0x30>
 8009450:	2002      	movs	r0, #2
 8009452:	7018      	strb	r0, [r3, #0]
 8009454:	6011      	str	r1, [r2, #0]
 8009456:	6111      	str	r1, [r2, #16]
 8009458:	68d1      	ldr	r1, [r2, #12]
 800945a:	f021 01ff 	bic.w	r1, r1, #255	; 0xff
 800945e:	60d1      	str	r1, [r2, #12]
 8009460:	685b      	ldr	r3, [r3, #4]
 8009462:	4809      	ldr	r0, [pc, #36]	; (8009488 <Vector118+0x58>)
 8009464:	685b      	ldr	r3, [r3, #4]
 8009466:	4798      	blx	r3
 8009468:	f7f9 fd0a 	bl	8002e80 <_dbg_check_leave_isr>
 800946c:	9a01      	ldr	r2, [sp, #4]
 800946e:	6823      	ldr	r3, [r4, #0]
 8009470:	429a      	cmp	r2, r3
 8009472:	d104      	bne.n	800947e <Vector118+0x4e>
 8009474:	b002      	add	sp, #8
 8009476:	e8bd 4010 	ldmia.w	sp!, {r4, lr}
 800947a:	f7fb bae9 	b.w	8004a50 <_port_irq_epilogue>
 800947e:	f7f7 ff47 	bl	8001310 <__stack_chk_fail>
 8009482:	bf00      	nop
 8009484:	2000081c 	.word	0x2000081c
 8009488:	20002654 	.word	0x20002654
 800948c:	00000000 	.word	0x00000000

08009490 <VectorA8>:
 8009490:	b510      	push	{r4, lr}
 8009492:	4c14      	ldr	r4, [pc, #80]	; (80094e4 <VectorA8+0x54>)
 8009494:	b082      	sub	sp, #8
 8009496:	6823      	ldr	r3, [r4, #0]
 8009498:	9301      	str	r3, [sp, #4]
 800949a:	f7fa fc81 	bl	8003da0 <_stats_increase_irq>
 800949e:	f7f9 fcc7 	bl	8002e30 <_dbg_check_enter_isr>
 80094a2:	4b11      	ldr	r3, [pc, #68]	; (80094e8 <VectorA8+0x58>)
 80094a4:	7818      	ldrb	r0, [r3, #0]
 80094a6:	68da      	ldr	r2, [r3, #12]
 80094a8:	2100      	movs	r1, #0
 80094aa:	2804      	cmp	r0, #4
 80094ac:	6111      	str	r1, [r2, #16]
 80094ae:	d107      	bne.n	80094c0 <VectorA8+0x30>
 80094b0:	2002      	movs	r0, #2
 80094b2:	7018      	strb	r0, [r3, #0]
 80094b4:	6011      	str	r1, [r2, #0]
 80094b6:	6111      	str	r1, [r2, #16]
 80094b8:	68d1      	ldr	r1, [r2, #12]
 80094ba:	f021 01ff 	bic.w	r1, r1, #255	; 0xff
 80094be:	60d1      	str	r1, [r2, #12]
 80094c0:	685b      	ldr	r3, [r3, #4]
 80094c2:	4809      	ldr	r0, [pc, #36]	; (80094e8 <VectorA8+0x58>)
 80094c4:	685b      	ldr	r3, [r3, #4]
 80094c6:	4798      	blx	r3
 80094c8:	f7f9 fcda 	bl	8002e80 <_dbg_check_leave_isr>
 80094cc:	9a01      	ldr	r2, [sp, #4]
 80094ce:	6823      	ldr	r3, [r4, #0]
 80094d0:	429a      	cmp	r2, r3
 80094d2:	d104      	bne.n	80094de <VectorA8+0x4e>
 80094d4:	b002      	add	sp, #8
 80094d6:	e8bd 4010 	ldmia.w	sp!, {r4, lr}
 80094da:	f7fb bab9 	b.w	8004a50 <_port_irq_epilogue>
 80094de:	f7f7 ff17 	bl	8001310 <__stack_chk_fail>
 80094e2:	bf00      	nop
 80094e4:	2000081c 	.word	0x2000081c
 80094e8:	20002644 	.word	0x20002644
 80094ec:	00000000 	.word	0x00000000

080094f0 <gpt_lld_init>:
 80094f0:	b510      	push	{r4, lr}
 80094f2:	4b0c      	ldr	r3, [pc, #48]	; (8009524 <gpt_lld_init+0x34>)
 80094f4:	4c0c      	ldr	r4, [pc, #48]	; (8009528 <gpt_lld_init+0x38>)
 80094f6:	4a0d      	ldr	r2, [pc, #52]	; (800952c <gpt_lld_init+0x3c>)
 80094f8:	6821      	ldr	r1, [r4, #0]
 80094fa:	60da      	str	r2, [r3, #12]
 80094fc:	b082      	sub	sp, #8
 80094fe:	4618      	mov	r0, r3
 8009500:	9101      	str	r1, [sp, #4]
 8009502:	f7fb fcbd 	bl	8004e80 <gptObjectInit>
 8009506:	9a01      	ldr	r2, [sp, #4]
 8009508:	6823      	ldr	r3, [r4, #0]
 800950a:	4809      	ldr	r0, [pc, #36]	; (8009530 <gpt_lld_init+0x40>)
 800950c:	4909      	ldr	r1, [pc, #36]	; (8009534 <gpt_lld_init+0x44>)
 800950e:	60c1      	str	r1, [r0, #12]
 8009510:	429a      	cmp	r2, r3
 8009512:	d104      	bne.n	800951e <gpt_lld_init+0x2e>
 8009514:	b002      	add	sp, #8
 8009516:	e8bd 4010 	ldmia.w	sp!, {r4, lr}
 800951a:	f7fb bcb1 	b.w	8004e80 <gptObjectInit>
 800951e:	f7f7 fef7 	bl	8001310 <__stack_chk_fail>
 8009522:	bf00      	nop
 8009524:	20002654 	.word	0x20002654
 8009528:	2000081c 	.word	0x2000081c
 800952c:	40001000 	.word	0x40001000
 8009530:	20002644 	.word	0x20002644
 8009534:	40014800 	.word	0x40014800
	...

08009540 <pwm_lld_serve_interrupt>:
 8009540:	b570      	push	{r4, r5, r6, lr}
 8009542:	4e1e      	ldr	r6, [pc, #120]	; (80095bc <pwm_lld_serve_interrupt+0x7c>)
 8009544:	6983      	ldr	r3, [r0, #24]
 8009546:	6832      	ldr	r2, [r6, #0]
 8009548:	b082      	sub	sp, #8
 800954a:	4605      	mov	r5, r0
 800954c:	9201      	str	r2, [sp, #4]
 800954e:	691a      	ldr	r2, [r3, #16]
 8009550:	68dc      	ldr	r4, [r3, #12]
 8009552:	4014      	ands	r4, r2
 8009554:	b2e2      	uxtb	r2, r4
 8009556:	43d2      	mvns	r2, r2
 8009558:	611a      	str	r2, [r3, #16]
 800955a:	07a3      	lsls	r3, r4, #30
 800955c:	d503      	bpl.n	8009566 <pwm_lld_serve_interrupt+0x26>
 800955e:	6843      	ldr	r3, [r0, #4]
 8009560:	691b      	ldr	r3, [r3, #16]
 8009562:	b103      	cbz	r3, 8009566 <pwm_lld_serve_interrupt+0x26>
 8009564:	4798      	blx	r3
 8009566:	0760      	lsls	r0, r4, #29
 8009568:	d504      	bpl.n	8009574 <pwm_lld_serve_interrupt+0x34>
 800956a:	686b      	ldr	r3, [r5, #4]
 800956c:	699b      	ldr	r3, [r3, #24]
 800956e:	b10b      	cbz	r3, 8009574 <pwm_lld_serve_interrupt+0x34>
 8009570:	4628      	mov	r0, r5
 8009572:	4798      	blx	r3
 8009574:	0721      	lsls	r1, r4, #28
 8009576:	d504      	bpl.n	8009582 <pwm_lld_serve_interrupt+0x42>
 8009578:	686b      	ldr	r3, [r5, #4]
 800957a:	6a1b      	ldr	r3, [r3, #32]
 800957c:	b10b      	cbz	r3, 8009582 <pwm_lld_serve_interrupt+0x42>
 800957e:	4628      	mov	r0, r5
 8009580:	4798      	blx	r3
 8009582:	06e2      	lsls	r2, r4, #27
 8009584:	d504      	bpl.n	8009590 <pwm_lld_serve_interrupt+0x50>
 8009586:	686b      	ldr	r3, [r5, #4]
 8009588:	6a9b      	ldr	r3, [r3, #40]	; 0x28
 800958a:	b10b      	cbz	r3, 8009590 <pwm_lld_serve_interrupt+0x50>
 800958c:	4628      	mov	r0, r5
 800958e:	4798      	blx	r3
 8009590:	07e3      	lsls	r3, r4, #31
 8009592:	d50b      	bpl.n	80095ac <pwm_lld_serve_interrupt+0x6c>
 8009594:	686b      	ldr	r3, [r5, #4]
 8009596:	689b      	ldr	r3, [r3, #8]
 8009598:	b143      	cbz	r3, 80095ac <pwm_lld_serve_interrupt+0x6c>
 800959a:	9901      	ldr	r1, [sp, #4]
 800959c:	6832      	ldr	r2, [r6, #0]
 800959e:	4291      	cmp	r1, r2
 80095a0:	d10a      	bne.n	80095b8 <pwm_lld_serve_interrupt+0x78>
 80095a2:	4628      	mov	r0, r5
 80095a4:	b002      	add	sp, #8
 80095a6:	e8bd 4070 	ldmia.w	sp!, {r4, r5, r6, lr}
 80095aa:	4718      	bx	r3
 80095ac:	9a01      	ldr	r2, [sp, #4]
 80095ae:	6833      	ldr	r3, [r6, #0]
 80095b0:	429a      	cmp	r2, r3
 80095b2:	d101      	bne.n	80095b8 <pwm_lld_serve_interrupt+0x78>
 80095b4:	b002      	add	sp, #8
 80095b6:	bd70      	pop	{r4, r5, r6, pc}
 80095b8:	f7f7 feaa 	bl	8001310 <__stack_chk_fail>
 80095bc:	2000081c 	.word	0x2000081c

080095c0 <VectorB0>:
 80095c0:	b510      	push	{r4, lr}
 80095c2:	4c0c      	ldr	r4, [pc, #48]	; (80095f4 <VectorB0+0x34>)
 80095c4:	b082      	sub	sp, #8
 80095c6:	6823      	ldr	r3, [r4, #0]
 80095c8:	9301      	str	r3, [sp, #4]
 80095ca:	f7fa fbe9 	bl	8003da0 <_stats_increase_irq>
 80095ce:	f7f9 fc2f 	bl	8002e30 <_dbg_check_enter_isr>
 80095d2:	4809      	ldr	r0, [pc, #36]	; (80095f8 <VectorB0+0x38>)
 80095d4:	f7ff ffb4 	bl	8009540 <pwm_lld_serve_interrupt>
 80095d8:	f7f9 fc52 	bl	8002e80 <_dbg_check_leave_isr>
 80095dc:	9a01      	ldr	r2, [sp, #4]
 80095de:	6823      	ldr	r3, [r4, #0]
 80095e0:	429a      	cmp	r2, r3
 80095e2:	d104      	bne.n	80095ee <VectorB0+0x2e>
 80095e4:	b002      	add	sp, #8
 80095e6:	e8bd 4010 	ldmia.w	sp!, {r4, lr}
 80095ea:	f7fb ba31 	b.w	8004a50 <_port_irq_epilogue>
 80095ee:	f7f7 fe8f 	bl	8001310 <__stack_chk_fail>
 80095f2:	bf00      	nop
 80095f4:	2000081c 	.word	0x2000081c
 80095f8:	20002664 	.word	0x20002664
 80095fc:	00000000 	.word	0x00000000

08009600 <VectorB4>:
 8009600:	b510      	push	{r4, lr}
 8009602:	4c0c      	ldr	r4, [pc, #48]	; (8009634 <VectorB4+0x34>)
 8009604:	b082      	sub	sp, #8
 8009606:	6823      	ldr	r3, [r4, #0]
 8009608:	9301      	str	r3, [sp, #4]
 800960a:	f7fa fbc9 	bl	8003da0 <_stats_increase_irq>
 800960e:	f7f9 fc0f 	bl	8002e30 <_dbg_check_enter_isr>
 8009612:	4809      	ldr	r0, [pc, #36]	; (8009638 <VectorB4+0x38>)
 8009614:	f7ff ff94 	bl	8009540 <pwm_lld_serve_interrupt>
 8009618:	f7f9 fc32 	bl	8002e80 <_dbg_check_leave_isr>
 800961c:	9a01      	ldr	r2, [sp, #4]
 800961e:	6823      	ldr	r3, [r4, #0]
 8009620:	429a      	cmp	r2, r3
 8009622:	d104      	bne.n	800962e <VectorB4+0x2e>
 8009624:	b002      	add	sp, #8
 8009626:	e8bd 4010 	ldmia.w	sp!, {r4, lr}
 800962a:	f7fb ba11 	b.w	8004a50 <_port_irq_epilogue>
 800962e:	f7f7 fe6f 	bl	8001310 <__stack_chk_fail>
 8009632:	bf00      	nop
 8009634:	2000081c 	.word	0x2000081c
 8009638:	20002680 	.word	0x20002680
 800963c:	00000000 	.word	0x00000000

08009640 <VectorB8>:
 8009640:	b510      	push	{r4, lr}
 8009642:	4c0c      	ldr	r4, [pc, #48]	; (8009674 <VectorB8+0x34>)
 8009644:	b082      	sub	sp, #8
 8009646:	6823      	ldr	r3, [r4, #0]
 8009648:	9301      	str	r3, [sp, #4]
 800964a:	f7fa fba9 	bl	8003da0 <_stats_increase_irq>
 800964e:	f7f9 fbef 	bl	8002e30 <_dbg_check_enter_isr>
 8009652:	4809      	ldr	r0, [pc, #36]	; (8009678 <VectorB8+0x38>)
 8009654:	f7ff ff74 	bl	8009540 <pwm_lld_serve_interrupt>
 8009658:	f7f9 fc12 	bl	8002e80 <_dbg_check_leave_isr>
 800965c:	9a01      	ldr	r2, [sp, #4]
 800965e:	6823      	ldr	r3, [r4, #0]
 8009660:	429a      	cmp	r2, r3
 8009662:	d104      	bne.n	800966e <VectorB8+0x2e>
 8009664:	b002      	add	sp, #8
 8009666:	e8bd 4010 	ldmia.w	sp!, {r4, lr}
 800966a:	f7fb b9f1 	b.w	8004a50 <_port_irq_epilogue>
 800966e:	f7f7 fe4f 	bl	8001310 <__stack_chk_fail>
 8009672:	bf00      	nop
 8009674:	2000081c 	.word	0x2000081c
 8009678:	2000269c 	.word	0x2000269c
 800967c:	00000000 	.word	0x00000000

08009680 <Vector108>:
 8009680:	b510      	push	{r4, lr}
 8009682:	4c0c      	ldr	r4, [pc, #48]	; (80096b4 <Vector108+0x34>)
 8009684:	b082      	sub	sp, #8
 8009686:	6823      	ldr	r3, [r4, #0]
 8009688:	9301      	str	r3, [sp, #4]
 800968a:	f7fa fb89 	bl	8003da0 <_stats_increase_irq>
 800968e:	f7f9 fbcf 	bl	8002e30 <_dbg_check_enter_isr>
 8009692:	4809      	ldr	r0, [pc, #36]	; (80096b8 <Vector108+0x38>)
 8009694:	f7ff ff54 	bl	8009540 <pwm_lld_serve_interrupt>
 8009698:	f7f9 fbf2 	bl	8002e80 <_dbg_check_leave_isr>
 800969c:	9a01      	ldr	r2, [sp, #4]
 800969e:	6823      	ldr	r3, [r4, #0]
 80096a0:	429a      	cmp	r2, r3
 80096a2:	d104      	bne.n	80096ae <Vector108+0x2e>
 80096a4:	b002      	add	sp, #8
 80096a6:	e8bd 4010 	ldmia.w	sp!, {r4, lr}
 80096aa:	f7fb b9d1 	b.w	8004a50 <_port_irq_epilogue>
 80096ae:	f7f7 fe2f 	bl	8001310 <__stack_chk_fail>
 80096b2:	bf00      	nop
 80096b4:	2000081c 	.word	0x2000081c
 80096b8:	200026b8 	.word	0x200026b8
 80096bc:	00000000 	.word	0x00000000

080096c0 <pwm_lld_init>:
 80096c0:	e92d 41f0 	stmdb	sp!, {r4, r5, r6, r7, r8, lr}
 80096c4:	4d16      	ldr	r5, [pc, #88]	; (8009720 <pwm_lld_init+0x60>)
 80096c6:	f8df 8074 	ldr.w	r8, [pc, #116]	; 800973c <pwm_lld_init+0x7c>
 80096ca:	4f16      	ldr	r7, [pc, #88]	; (8009724 <pwm_lld_init+0x64>)
 80096cc:	f8d8 3000 	ldr.w	r3, [r8]
 80096d0:	4e15      	ldr	r6, [pc, #84]	; (8009728 <pwm_lld_init+0x68>)
 80096d2:	b082      	sub	sp, #8
 80096d4:	4628      	mov	r0, r5
 80096d6:	2404      	movs	r4, #4
 80096d8:	9301      	str	r3, [sp, #4]
 80096da:	f7fb fdb9 	bl	8005250 <pwmObjectInit>
 80096de:	f04f 4380 	mov.w	r3, #1073741824	; 0x40000000
 80096e2:	61ab      	str	r3, [r5, #24]
 80096e4:	4638      	mov	r0, r7
 80096e6:	742c      	strb	r4, [r5, #16]
 80096e8:	4d10      	ldr	r5, [pc, #64]	; (800972c <pwm_lld_init+0x6c>)
 80096ea:	f7fb fdb1 	bl	8005250 <pwmObjectInit>
 80096ee:	4b10      	ldr	r3, [pc, #64]	; (8009730 <pwm_lld_init+0x70>)
 80096f0:	61bb      	str	r3, [r7, #24]
 80096f2:	4630      	mov	r0, r6
 80096f4:	743c      	strb	r4, [r7, #16]
 80096f6:	f7fb fdab 	bl	8005250 <pwmObjectInit>
 80096fa:	4b0e      	ldr	r3, [pc, #56]	; (8009734 <pwm_lld_init+0x74>)
 80096fc:	61b3      	str	r3, [r6, #24]
 80096fe:	4628      	mov	r0, r5
 8009700:	7434      	strb	r4, [r6, #16]
 8009702:	f7fb fda5 	bl	8005250 <pwmObjectInit>
 8009706:	9a01      	ldr	r2, [sp, #4]
 8009708:	f8d8 3000 	ldr.w	r3, [r8]
 800970c:	490a      	ldr	r1, [pc, #40]	; (8009738 <pwm_lld_init+0x78>)
 800970e:	742c      	strb	r4, [r5, #16]
 8009710:	429a      	cmp	r2, r3
 8009712:	61a9      	str	r1, [r5, #24]
 8009714:	d102      	bne.n	800971c <pwm_lld_init+0x5c>
 8009716:	b002      	add	sp, #8
 8009718:	e8bd 81f0 	ldmia.w	sp!, {r4, r5, r6, r7, r8, pc}
 800971c:	f7f7 fdf8 	bl	8001310 <__stack_chk_fail>
 8009720:	20002664 	.word	0x20002664
 8009724:	20002680 	.word	0x20002680
 8009728:	2000269c 	.word	0x2000269c
 800972c:	200026b8 	.word	0x200026b8
 8009730:	40000400 	.word	0x40000400
 8009734:	40000800 	.word	0x40000800
 8009738:	40000c00 	.word	0x40000c00
 800973c:	2000081c 	.word	0x2000081c

08009740 <SysTick_Handler>:
 8009740:	b510      	push	{r4, lr}
 8009742:	4c12      	ldr	r4, [pc, #72]	; (800978c <SysTick_Handler+0x4c>)
 8009744:	b082      	sub	sp, #8
 8009746:	6823      	ldr	r3, [r4, #0]
 8009748:	9301      	str	r3, [sp, #4]
 800974a:	f7fa fb29 	bl	8003da0 <_stats_increase_irq>
 800974e:	f7f9 fb6f 	bl	8002e30 <_dbg_check_enter_isr>
 8009752:	2320      	movs	r3, #32
 8009754:	f383 8811 	msr	BASEPRI, r3
 8009758:	f7fa fb8a 	bl	8003e70 <_stats_start_measure_crit_isr>
 800975c:	f7f9 fb28 	bl	8002db0 <_dbg_check_lock_from_isr>
 8009760:	f7f9 fa56 	bl	8002c10 <chSysTimerHandlerI>
 8009764:	f7f9 fb44 	bl	8002df0 <_dbg_check_unlock_from_isr>
 8009768:	f7fa fb9a 	bl	8003ea0 <_stats_stop_measure_crit_isr>
 800976c:	2300      	movs	r3, #0
 800976e:	f383 8811 	msr	BASEPRI, r3
 8009772:	f7f9 fb85 	bl	8002e80 <_dbg_check_leave_isr>
 8009776:	9a01      	ldr	r2, [sp, #4]
 8009778:	6823      	ldr	r3, [r4, #0]
 800977a:	429a      	cmp	r2, r3
 800977c:	d104      	bne.n	8009788 <SysTick_Handler+0x48>
 800977e:	b002      	add	sp, #8
 8009780:	e8bd 4010 	ldmia.w	sp!, {r4, lr}
 8009784:	f7fb b964 	b.w	8004a50 <_port_irq_epilogue>
 8009788:	f7f7 fdc2 	bl	8001310 <__stack_chk_fail>
 800978c:	2000081c 	.word	0x2000081c

08009790 <st_lld_init>:
 8009790:	b510      	push	{r4, lr}
 8009792:	4a0c      	ldr	r2, [pc, #48]	; (80097c4 <st_lld_init+0x34>)
 8009794:	4b0c      	ldr	r3, [pc, #48]	; (80097c8 <st_lld_init+0x38>)
 8009796:	6811      	ldr	r1, [r2, #0]
 8009798:	4c0c      	ldr	r4, [pc, #48]	; (80097cc <st_lld_init+0x3c>)
 800979a:	b082      	sub	sp, #8
 800979c:	2000      	movs	r0, #0
 800979e:	9101      	str	r1, [sp, #4]
 80097a0:	2107      	movs	r1, #7
 80097a2:	605c      	str	r4, [r3, #4]
 80097a4:	6098      	str	r0, [r3, #8]
 80097a6:	6019      	str	r1, [r3, #0]
 80097a8:	9901      	ldr	r1, [sp, #4]
 80097aa:	6813      	ldr	r3, [r2, #0]
 80097ac:	4299      	cmp	r1, r3
 80097ae:	d106      	bne.n	80097be <st_lld_init+0x2e>
 80097b0:	2108      	movs	r1, #8
 80097b2:	200b      	movs	r0, #11
 80097b4:	b002      	add	sp, #8
 80097b6:	e8bd 4010 	ldmia.w	sp!, {r4, lr}
 80097ba:	f7fc be61 	b.w	8006480 <nvicSetSystemHandlerPriority>
 80097be:	f7f7 fda7 	bl	8001310 <__stack_chk_fail>
 80097c2:	bf00      	nop
 80097c4:	2000081c 	.word	0x2000081c
 80097c8:	e000e010 	.word	0xe000e010
 80097cc:	0002903f 	.word	0x0002903f

080097d0 <notify3>:
 80097d0:	b500      	push	{lr}
 80097d2:	4a09      	ldr	r2, [pc, #36]	; (80097f8 <notify3+0x28>)
 80097d4:	4909      	ldr	r1, [pc, #36]	; (80097fc <notify3+0x2c>)
 80097d6:	6813      	ldr	r3, [r2, #0]
 80097d8:	b083      	sub	sp, #12
 80097da:	9301      	str	r3, [sp, #4]
 80097dc:	68cb      	ldr	r3, [r1, #12]
 80097de:	f043 0380 	orr.w	r3, r3, #128	; 0x80
 80097e2:	60cb      	str	r3, [r1, #12]
 80097e4:	9901      	ldr	r1, [sp, #4]
 80097e6:	6813      	ldr	r3, [r2, #0]
 80097e8:	4299      	cmp	r1, r3
 80097ea:	d102      	bne.n	80097f2 <notify3+0x22>
 80097ec:	b003      	add	sp, #12
 80097ee:	f85d fb04 	ldr.w	pc, [sp], #4
 80097f2:	f7f7 fd8d 	bl	8001310 <__stack_chk_fail>
 80097f6:	bf00      	nop
 80097f8:	2000081c 	.word	0x2000081c
 80097fc:	40004800 	.word	0x40004800

08009800 <VectorDC>:
 8009800:	e92d 47f0 	stmdb	sp!, {r4, r5, r6, r7, r8, r9, sl, lr}
 8009804:	f8df 8190 	ldr.w	r8, [pc, #400]	; 8009998 <VectorDC+0x198>
 8009808:	4f60      	ldr	r7, [pc, #384]	; (800998c <VectorDC+0x18c>)
 800980a:	f8d8 3000 	ldr.w	r3, [r8]
 800980e:	b082      	sub	sp, #8
 8009810:	9301      	str	r3, [sp, #4]
 8009812:	f7fa fac5 	bl	8003da0 <_stats_increase_irq>
 8009816:	f7f9 fb0b 	bl	8002e30 <_dbg_check_enter_isr>
 800981a:	6f7d      	ldr	r5, [r7, #116]	; 0x74
 800981c:	f8d5 a00c 	ldr.w	sl, [r5, #12]
 8009820:	682b      	ldr	r3, [r5, #0]
 8009822:	05da      	lsls	r2, r3, #23
 8009824:	b29c      	uxth	r4, r3
 8009826:	d46e      	bmi.n	8009906 <VectorDC+0x106>
 8009828:	2320      	movs	r3, #32
 800982a:	f383 8811 	msr	BASEPRI, r3
 800982e:	f7fa fb1f 	bl	8003e70 <_stats_start_measure_crit_isr>
 8009832:	f7f9 fabd 	bl	8002db0 <_dbg_check_lock_from_isr>
 8009836:	f014 0f2f 	tst.w	r4, #47	; 0x2f
 800983a:	d02d      	beq.n	8009898 <VectorDC+0x98>
 800983c:	4e54      	ldr	r6, [pc, #336]	; (8009990 <VectorDC+0x190>)
 800983e:	f1a6 0904 	sub.w	r9, r6, #4
 8009842:	e007      	b.n	8009854 <VectorDC+0x54>
 8009844:	06a0      	lsls	r0, r4, #26
 8009846:	6869      	ldr	r1, [r5, #4]
 8009848:	d41d      	bmi.n	8009886 <VectorDC+0x86>
 800984a:	682c      	ldr	r4, [r5, #0]
 800984c:	b2a4      	uxth	r4, r4
 800984e:	f014 0f2f 	tst.w	r4, #47	; 0x2f
 8009852:	d021      	beq.n	8009898 <VectorDC+0x98>
 8009854:	0723      	lsls	r3, r4, #28
 8009856:	d0f5      	beq.n	8009844 <VectorDC+0x44>
 8009858:	f014 0f08 	tst.w	r4, #8
 800985c:	bf0c      	ite	eq
 800985e:	2100      	moveq	r1, #0
 8009860:	2180      	movne	r1, #128	; 0x80
 8009862:	07e0      	lsls	r0, r4, #31
 8009864:	bf48      	it	mi
 8009866:	f041 0120 	orrmi.w	r1, r1, #32
 800986a:	07a2      	lsls	r2, r4, #30
 800986c:	bf48      	it	mi
 800986e:	f041 0140 	orrmi.w	r1, r1, #64	; 0x40
 8009872:	0763      	lsls	r3, r4, #29
 8009874:	bf48      	it	mi
 8009876:	f441 7180 	orrmi.w	r1, r1, #256	; 0x100
 800987a:	4630      	mov	r0, r6
 800987c:	f7fa fda8 	bl	80043d0 <chEvtBroadcastFlagsI>
 8009880:	06a0      	lsls	r0, r4, #26
 8009882:	6869      	ldr	r1, [r5, #4]
 8009884:	d5e1      	bpl.n	800984a <VectorDC+0x4a>
 8009886:	b2c9      	uxtb	r1, r1
 8009888:	4648      	mov	r0, r9
 800988a:	f7fc f9c9 	bl	8005c20 <sdIncomingDataI>
 800988e:	682c      	ldr	r4, [r5, #0]
 8009890:	b2a4      	uxth	r4, r4
 8009892:	f014 0f2f 	tst.w	r4, #47	; 0x2f
 8009896:	d1dd      	bne.n	8009854 <VectorDC+0x54>
 8009898:	f7f9 faaa 	bl	8002df0 <_dbg_check_unlock_from_isr>
 800989c:	f7fa fb00 	bl	8003ea0 <_stats_stop_measure_crit_isr>
 80098a0:	2300      	movs	r3, #0
 80098a2:	f383 8811 	msr	BASEPRI, r3
 80098a6:	f01a 0f80 	tst.w	sl, #128	; 0x80
 80098aa:	d001      	beq.n	80098b0 <VectorDC+0xb0>
 80098ac:	0622      	lsls	r2, r4, #24
 80098ae:	d441      	bmi.n	8009934 <VectorDC+0x134>
 80098b0:	0663      	lsls	r3, r4, #25
 80098b2:	d40b      	bmi.n	80098cc <VectorDC+0xcc>
 80098b4:	f7f9 fae4 	bl	8002e80 <_dbg_check_leave_isr>
 80098b8:	9a01      	ldr	r2, [sp, #4]
 80098ba:	f8d8 3000 	ldr.w	r3, [r8]
 80098be:	429a      	cmp	r2, r3
 80098c0:	d161      	bne.n	8009986 <VectorDC+0x186>
 80098c2:	b002      	add	sp, #8
 80098c4:	e8bd 47f0 	ldmia.w	sp!, {r4, r5, r6, r7, r8, r9, sl, lr}
 80098c8:	f7fb b8c2 	b.w	8004a50 <_port_irq_epilogue>
 80098cc:	2320      	movs	r3, #32
 80098ce:	f383 8811 	msr	BASEPRI, r3
 80098d2:	f7fa facd 	bl	8003e70 <_stats_start_measure_crit_isr>
 80098d6:	f7f9 fa6b 	bl	8002db0 <_dbg_check_lock_from_isr>
 80098da:	f7f9 faf9 	bl	8002ed0 <chDbgCheckClassI>
 80098de:	e9d7 2311 	ldrd	r2, r3, [r7, #68]	; 0x44
 80098e2:	429a      	cmp	r2, r3
 80098e4:	d03b      	beq.n	800995e <VectorDC+0x15e>
 80098e6:	f64f 73bf 	movw	r3, #65471	; 0xffbf
 80098ea:	ea0a 0303 	and.w	r3, sl, r3
 80098ee:	f06f 0240 	mvn.w	r2, #64	; 0x40
 80098f2:	60eb      	str	r3, [r5, #12]
 80098f4:	602a      	str	r2, [r5, #0]
 80098f6:	f7f9 fa7b 	bl	8002df0 <_dbg_check_unlock_from_isr>
 80098fa:	f7fa fad1 	bl	8003ea0 <_stats_stop_measure_crit_isr>
 80098fe:	2300      	movs	r3, #0
 8009900:	f383 8811 	msr	BASEPRI, r3
 8009904:	e7d6      	b.n	80098b4 <VectorDC+0xb4>
 8009906:	2320      	movs	r3, #32
 8009908:	f383 8811 	msr	BASEPRI, r3
 800990c:	f7fa fab0 	bl	8003e70 <_stats_start_measure_crit_isr>
 8009910:	f7f9 fa4e 	bl	8002db0 <_dbg_check_lock_from_isr>
 8009914:	1d38      	adds	r0, r7, #4
 8009916:	f44f 7100 	mov.w	r1, #512	; 0x200
 800991a:	f7fa fd59 	bl	80043d0 <chEvtBroadcastFlagsI>
 800991e:	f46f 7380 	mvn.w	r3, #256	; 0x100
 8009922:	602b      	str	r3, [r5, #0]
 8009924:	f7f9 fa64 	bl	8002df0 <_dbg_check_unlock_from_isr>
 8009928:	f7fa faba 	bl	8003ea0 <_stats_stop_measure_crit_isr>
 800992c:	2300      	movs	r3, #0
 800992e:	f383 8811 	msr	BASEPRI, r3
 8009932:	e779      	b.n	8009828 <VectorDC+0x28>
 8009934:	2320      	movs	r3, #32
 8009936:	f383 8811 	msr	BASEPRI, r3
 800993a:	f7fa fa99 	bl	8003e70 <_stats_start_measure_crit_isr>
 800993e:	f7f9 fa37 	bl	8002db0 <_dbg_check_lock_from_isr>
 8009942:	4814      	ldr	r0, [pc, #80]	; (8009994 <VectorDC+0x194>)
 8009944:	f7fa ff1c 	bl	8004780 <chOQGetI>
 8009948:	2800      	cmp	r0, #0
 800994a:	db10      	blt.n	800996e <VectorDC+0x16e>
 800994c:	6068      	str	r0, [r5, #4]
 800994e:	f7f9 fa4f 	bl	8002df0 <_dbg_check_unlock_from_isr>
 8009952:	f7fa faa5 	bl	8003ea0 <_stats_stop_measure_crit_isr>
 8009956:	2300      	movs	r3, #0
 8009958:	f383 8811 	msr	BASEPRI, r3
 800995c:	e7a8      	b.n	80098b0 <VectorDC+0xb0>
 800995e:	6bbb      	ldr	r3, [r7, #56]	; 0x38
 8009960:	2b00      	cmp	r3, #0
 8009962:	d0c0      	beq.n	80098e6 <VectorDC+0xe6>
 8009964:	2110      	movs	r1, #16
 8009966:	480a      	ldr	r0, [pc, #40]	; (8009990 <VectorDC+0x190>)
 8009968:	f7fa fd32 	bl	80043d0 <chEvtBroadcastFlagsI>
 800996c:	e7bb      	b.n	80098e6 <VectorDC+0xe6>
 800996e:	2108      	movs	r1, #8
 8009970:	4807      	ldr	r0, [pc, #28]	; (8009990 <VectorDC+0x190>)
 8009972:	f7fa fd2d 	bl	80043d0 <chEvtBroadcastFlagsI>
 8009976:	f64f 733f 	movw	r3, #65343	; 0xff3f
 800997a:	ea0a 0303 	and.w	r3, sl, r3
 800997e:	f043 0340 	orr.w	r3, r3, #64	; 0x40
 8009982:	60eb      	str	r3, [r5, #12]
 8009984:	e7e3      	b.n	800994e <VectorDC+0x14e>
 8009986:	f7f7 fcc3 	bl	8001310 <__stack_chk_fail>
 800998a:	bf00      	nop
 800998c:	200026d4 	.word	0x200026d4
 8009990:	200026d8 	.word	0x200026d8
 8009994:	20002704 	.word	0x20002704
 8009998:	2000081c 	.word	0x2000081c
 800999c:	00000000 	.word	0x00000000

080099a0 <sd_lld_init>:
 80099a0:	b530      	push	{r4, r5, lr}
 80099a2:	4d0a      	ldr	r5, [pc, #40]	; (80099cc <sd_lld_init+0x2c>)
 80099a4:	4c0a      	ldr	r4, [pc, #40]	; (80099d0 <sd_lld_init+0x30>)
 80099a6:	682b      	ldr	r3, [r5, #0]
 80099a8:	4a0a      	ldr	r2, [pc, #40]	; (80099d4 <sd_lld_init+0x34>)
 80099aa:	b083      	sub	sp, #12
 80099ac:	2100      	movs	r1, #0
 80099ae:	4620      	mov	r0, r4
 80099b0:	9301      	str	r3, [sp, #4]
 80099b2:	f7fc f8bd 	bl	8005b30 <sdObjectInit>
 80099b6:	9a01      	ldr	r2, [sp, #4]
 80099b8:	682b      	ldr	r3, [r5, #0]
 80099ba:	4907      	ldr	r1, [pc, #28]	; (80099d8 <sd_lld_init+0x38>)
 80099bc:	6761      	str	r1, [r4, #116]	; 0x74
 80099be:	429a      	cmp	r2, r3
 80099c0:	d101      	bne.n	80099c6 <sd_lld_init+0x26>
 80099c2:	b003      	add	sp, #12
 80099c4:	bd30      	pop	{r4, r5, pc}
 80099c6:	f7f7 fca3 	bl	8001310 <__stack_chk_fail>
 80099ca:	bf00      	nop
 80099cc:	2000081c 	.word	0x2000081c
 80099d0:	200026d4 	.word	0x200026d4
 80099d4:	080097d1 	.word	0x080097d1
 80099d8:	40004800 	.word	0x40004800
 80099dc:	00000000 	.word	0x00000000

080099e0 <sd_lld_start>:
 80099e0:	b570      	push	{r4, r5, r6, lr}
 80099e2:	7a03      	ldrb	r3, [r0, #8]
 80099e4:	4e21      	ldr	r6, [pc, #132]	; (8009a6c <sd_lld_start+0x8c>)
 80099e6:	4c22      	ldr	r4, [pc, #136]	; (8009a70 <sd_lld_start+0x90>)
 80099e8:	6832      	ldr	r2, [r6, #0]
 80099ea:	b082      	sub	sp, #8
 80099ec:	2900      	cmp	r1, #0
 80099ee:	bf18      	it	ne
 80099f0:	460c      	movne	r4, r1
 80099f2:	2b01      	cmp	r3, #1
 80099f4:	4605      	mov	r5, r0
 80099f6:	9201      	str	r2, [sp, #4]
 80099f8:	d028      	beq.n	8009a4c <sd_lld_start+0x6c>
 80099fa:	6f6b      	ldr	r3, [r5, #116]	; 0x74
 80099fc:	491d      	ldr	r1, [pc, #116]	; (8009a74 <sd_lld_start+0x94>)
 80099fe:	6820      	ldr	r0, [r4, #0]
 8009a00:	428b      	cmp	r3, r1
 8009a02:	d01e      	beq.n	8009a42 <sd_lld_start+0x62>
 8009a04:	4a1c      	ldr	r2, [pc, #112]	; (8009a78 <sd_lld_start+0x98>)
 8009a06:	4293      	cmp	r3, r2
 8009a08:	d01b      	beq.n	8009a42 <sd_lld_start+0x62>
 8009a0a:	4a1c      	ldr	r2, [pc, #112]	; (8009a7c <sd_lld_start+0x9c>)
 8009a0c:	fbb2 f2f0 	udiv	r2, r2, r0
 8009a10:	609a      	str	r2, [r3, #8]
 8009a12:	88a2      	ldrh	r2, [r4, #4]
 8009a14:	88e0      	ldrh	r0, [r4, #6]
 8009a16:	8921      	ldrh	r1, [r4, #8]
 8009a18:	f442 5204 	orr.w	r2, r2, #8448	; 0x2100
 8009a1c:	f042 022c 	orr.w	r2, r2, #44	; 0x2c
 8009a20:	f040 0040 	orr.w	r0, r0, #64	; 0x40
 8009a24:	f041 0101 	orr.w	r1, r1, #1
 8009a28:	2400      	movs	r4, #0
 8009a2a:	6118      	str	r0, [r3, #16]
 8009a2c:	6159      	str	r1, [r3, #20]
 8009a2e:	60da      	str	r2, [r3, #12]
 8009a30:	601c      	str	r4, [r3, #0]
 8009a32:	681a      	ldr	r2, [r3, #0]
 8009a34:	685b      	ldr	r3, [r3, #4]
 8009a36:	9a01      	ldr	r2, [sp, #4]
 8009a38:	6833      	ldr	r3, [r6, #0]
 8009a3a:	429a      	cmp	r2, r3
 8009a3c:	d113      	bne.n	8009a66 <sd_lld_start+0x86>
 8009a3e:	b002      	add	sp, #8
 8009a40:	bd70      	pop	{r4, r5, r6, pc}
 8009a42:	4a0f      	ldr	r2, [pc, #60]	; (8009a80 <sd_lld_start+0xa0>)
 8009a44:	fbb2 f2f0 	udiv	r2, r2, r0
 8009a48:	609a      	str	r2, [r3, #8]
 8009a4a:	e7e2      	b.n	8009a12 <sd_lld_start+0x32>
 8009a4c:	4b0d      	ldr	r3, [pc, #52]	; (8009a84 <sd_lld_start+0xa4>)
 8009a4e:	4298      	cmp	r0, r3
 8009a50:	d1d3      	bne.n	80099fa <sd_lld_start+0x1a>
 8009a52:	4a0d      	ldr	r2, [pc, #52]	; (8009a88 <sd_lld_start+0xa8>)
 8009a54:	6c13      	ldr	r3, [r2, #64]	; 0x40
 8009a56:	f443 2380 	orr.w	r3, r3, #262144	; 0x40000
 8009a5a:	6413      	str	r3, [r2, #64]	; 0x40
 8009a5c:	210c      	movs	r1, #12
 8009a5e:	2027      	movs	r0, #39	; 0x27
 8009a60:	f7fc fcc6 	bl	80063f0 <nvicEnableVector>
 8009a64:	e7c9      	b.n	80099fa <sd_lld_start+0x1a>
 8009a66:	f7f7 fc53 	bl	8001310 <__stack_chk_fail>
 8009a6a:	bf00      	nop
 8009a6c:	2000081c 	.word	0x2000081c
 8009a70:	0800ddb0 	.word	0x0800ddb0
 8009a74:	40011000 	.word	0x40011000
 8009a78:	40011400 	.word	0x40011400
 8009a7c:	0280de80 	.word	0x0280de80
 8009a80:	0501bd00 	.word	0x0501bd00
 8009a84:	200026d4 	.word	0x200026d4
 8009a88:	40023800 	.word	0x40023800
 8009a8c:	00000000 	.word	0x00000000

08009a90 <__early_init>:
 8009a90:	b500      	push	{lr}
 8009a92:	4b07      	ldr	r3, [pc, #28]	; (8009ab0 <__early_init+0x20>)
 8009a94:	b083      	sub	sp, #12
 8009a96:	681a      	ldr	r2, [r3, #0]
 8009a98:	9201      	str	r2, [sp, #4]
 8009a9a:	9a01      	ldr	r2, [sp, #4]
 8009a9c:	681b      	ldr	r3, [r3, #0]
 8009a9e:	429a      	cmp	r2, r3
 8009aa0:	d104      	bne.n	8009aac <__early_init+0x1c>
 8009aa2:	b003      	add	sp, #12
 8009aa4:	f85d eb04 	ldr.w	lr, [sp], #4
 8009aa8:	f7fd b8aa 	b.w	8006c00 <stm32_clock_init>
 8009aac:	f7f7 fc30 	bl	8001310 <__stack_chk_fail>
 8009ab0:	2000081c 	.word	0x2000081c
	...

08009ac0 <sdc_lld_is_card_inserted>:
 8009ac0:	b500      	push	{lr}
 8009ac2:	4b09      	ldr	r3, [pc, #36]	; (8009ae8 <sdc_lld_is_card_inserted+0x28>)
 8009ac4:	4a09      	ldr	r2, [pc, #36]	; (8009aec <sdc_lld_is_card_inserted+0x2c>)
 8009ac6:	6819      	ldr	r1, [r3, #0]
 8009ac8:	b083      	sub	sp, #12
 8009aca:	9101      	str	r1, [sp, #4]
 8009acc:	6910      	ldr	r0, [r2, #16]
 8009ace:	9a01      	ldr	r2, [sp, #4]
 8009ad0:	681b      	ldr	r3, [r3, #0]
 8009ad2:	429a      	cmp	r2, r3
 8009ad4:	d106      	bne.n	8009ae4 <sdc_lld_is_card_inserted+0x24>
 8009ad6:	ea6f 10d0 	mvn.w	r0, r0, lsr #7
 8009ada:	f000 0001 	and.w	r0, r0, #1
 8009ade:	b003      	add	sp, #12
 8009ae0:	f85d fb04 	ldr.w	pc, [sp], #4
 8009ae4:	f7f7 fc14 	bl	8001310 <__stack_chk_fail>
 8009ae8:	2000081c 	.word	0x2000081c
 8009aec:	40021000 	.word	0x40021000

08009af0 <sdc_lld_is_write_protected>:
 8009af0:	b500      	push	{lr}
 8009af2:	4b07      	ldr	r3, [pc, #28]	; (8009b10 <sdc_lld_is_write_protected+0x20>)
 8009af4:	b083      	sub	sp, #12
 8009af6:	681a      	ldr	r2, [r3, #0]
 8009af8:	9201      	str	r2, [sp, #4]
 8009afa:	9a01      	ldr	r2, [sp, #4]
 8009afc:	681b      	ldr	r3, [r3, #0]
 8009afe:	429a      	cmp	r2, r3
 8009b00:	d103      	bne.n	8009b0a <sdc_lld_is_write_protected+0x1a>
 8009b02:	2000      	movs	r0, #0
 8009b04:	b003      	add	sp, #12
 8009b06:	f85d fb04 	ldr.w	pc, [sp], #4
 8009b0a:	f7f7 fc01 	bl	8001310 <__stack_chk_fail>
 8009b0e:	bf00      	nop
 8009b10:	2000081c 	.word	0x2000081c
	...

08009b20 <boardInit>:
 8009b20:	b500      	push	{lr}
 8009b22:	4b06      	ldr	r3, [pc, #24]	; (8009b3c <boardInit+0x1c>)
 8009b24:	b083      	sub	sp, #12
 8009b26:	681a      	ldr	r2, [r3, #0]
 8009b28:	9201      	str	r2, [sp, #4]
 8009b2a:	9a01      	ldr	r2, [sp, #4]
 8009b2c:	681b      	ldr	r3, [r3, #0]
 8009b2e:	429a      	cmp	r2, r3
 8009b30:	d102      	bne.n	8009b38 <boardInit+0x18>
 8009b32:	b003      	add	sp, #12
 8009b34:	f85d fb04 	ldr.w	pc, [sp], #4
 8009b38:	f7f7 fbea 	bl	8001310 <__stack_chk_fail>
 8009b3c:	2000081c 	.word	0x2000081c

08009b40 <_malloc_r>:
 8009b40:	e92d 4ff0 	stmdb	sp!, {r4, r5, r6, r7, r8, r9, sl, fp, lr}
 8009b44:	f101 050b 	add.w	r5, r1, #11
 8009b48:	2d16      	cmp	r5, #22
 8009b4a:	b083      	sub	sp, #12
 8009b4c:	4606      	mov	r6, r0
 8009b4e:	d823      	bhi.n	8009b98 <_malloc_r+0x58>
 8009b50:	2910      	cmp	r1, #16
 8009b52:	f200 80b9 	bhi.w	8009cc8 <_malloc_r+0x188>
 8009b56:	f7f8 fe23 	bl	80027a0 <__malloc_lock>
 8009b5a:	2510      	movs	r5, #16
 8009b5c:	2318      	movs	r3, #24
 8009b5e:	2002      	movs	r0, #2
 8009b60:	4fc5      	ldr	r7, [pc, #788]	; (8009e78 <_malloc_r+0x338>)
 8009b62:	443b      	add	r3, r7
 8009b64:	f1a3 0208 	sub.w	r2, r3, #8
 8009b68:	685c      	ldr	r4, [r3, #4]
 8009b6a:	4294      	cmp	r4, r2
 8009b6c:	f000 8166 	beq.w	8009e3c <_malloc_r+0x2fc>
 8009b70:	6863      	ldr	r3, [r4, #4]
 8009b72:	f023 0303 	bic.w	r3, r3, #3
 8009b76:	4423      	add	r3, r4
 8009b78:	e9d4 5102 	ldrd	r5, r1, [r4, #8]
 8009b7c:	685a      	ldr	r2, [r3, #4]
 8009b7e:	60e9      	str	r1, [r5, #12]
 8009b80:	f042 0201 	orr.w	r2, r2, #1
 8009b84:	608d      	str	r5, [r1, #8]
 8009b86:	4630      	mov	r0, r6
 8009b88:	605a      	str	r2, [r3, #4]
 8009b8a:	f7f8 fe21 	bl	80027d0 <__malloc_unlock>
 8009b8e:	3408      	adds	r4, #8
 8009b90:	4620      	mov	r0, r4
 8009b92:	b003      	add	sp, #12
 8009b94:	e8bd 8ff0 	ldmia.w	sp!, {r4, r5, r6, r7, r8, r9, sl, fp, pc}
 8009b98:	f035 0507 	bics.w	r5, r5, #7
 8009b9c:	f100 8094 	bmi.w	8009cc8 <_malloc_r+0x188>
 8009ba0:	42a9      	cmp	r1, r5
 8009ba2:	f200 8091 	bhi.w	8009cc8 <_malloc_r+0x188>
 8009ba6:	f7f8 fdfb 	bl	80027a0 <__malloc_lock>
 8009baa:	f5b5 7ffc 	cmp.w	r5, #504	; 0x1f8
 8009bae:	f0c0 8183 	bcc.w	8009eb8 <_malloc_r+0x378>
 8009bb2:	0a6b      	lsrs	r3, r5, #9
 8009bb4:	f000 808f 	beq.w	8009cd6 <_malloc_r+0x196>
 8009bb8:	2b04      	cmp	r3, #4
 8009bba:	f200 8146 	bhi.w	8009e4a <_malloc_r+0x30a>
 8009bbe:	09ab      	lsrs	r3, r5, #6
 8009bc0:	f103 0039 	add.w	r0, r3, #57	; 0x39
 8009bc4:	f103 0c38 	add.w	ip, r3, #56	; 0x38
 8009bc8:	00c3      	lsls	r3, r0, #3
 8009bca:	4fab      	ldr	r7, [pc, #684]	; (8009e78 <_malloc_r+0x338>)
 8009bcc:	443b      	add	r3, r7
 8009bce:	f1a3 0108 	sub.w	r1, r3, #8
 8009bd2:	685c      	ldr	r4, [r3, #4]
 8009bd4:	42a1      	cmp	r1, r4
 8009bd6:	d106      	bne.n	8009be6 <_malloc_r+0xa6>
 8009bd8:	e00c      	b.n	8009bf4 <_malloc_r+0xb4>
 8009bda:	2a00      	cmp	r2, #0
 8009bdc:	f280 811d 	bge.w	8009e1a <_malloc_r+0x2da>
 8009be0:	68e4      	ldr	r4, [r4, #12]
 8009be2:	42a1      	cmp	r1, r4
 8009be4:	d006      	beq.n	8009bf4 <_malloc_r+0xb4>
 8009be6:	6863      	ldr	r3, [r4, #4]
 8009be8:	f023 0303 	bic.w	r3, r3, #3
 8009bec:	1b5a      	subs	r2, r3, r5
 8009bee:	2a0f      	cmp	r2, #15
 8009bf0:	ddf3      	ble.n	8009bda <_malloc_r+0x9a>
 8009bf2:	4660      	mov	r0, ip
 8009bf4:	693c      	ldr	r4, [r7, #16]
 8009bf6:	f8df c294 	ldr.w	ip, [pc, #660]	; 8009e8c <_malloc_r+0x34c>
 8009bfa:	4564      	cmp	r4, ip
 8009bfc:	d071      	beq.n	8009ce2 <_malloc_r+0x1a2>
 8009bfe:	6863      	ldr	r3, [r4, #4]
 8009c00:	f023 0303 	bic.w	r3, r3, #3
 8009c04:	1b5a      	subs	r2, r3, r5
 8009c06:	2a0f      	cmp	r2, #15
 8009c08:	f300 8144 	bgt.w	8009e94 <_malloc_r+0x354>
 8009c0c:	2a00      	cmp	r2, #0
 8009c0e:	e9c7 cc04 	strd	ip, ip, [r7, #16]
 8009c12:	f280 8126 	bge.w	8009e62 <_malloc_r+0x322>
 8009c16:	f5b3 7f00 	cmp.w	r3, #512	; 0x200
 8009c1a:	f080 8169 	bcs.w	8009ef0 <_malloc_r+0x3b0>
 8009c1e:	08db      	lsrs	r3, r3, #3
 8009c20:	1c59      	adds	r1, r3, #1
 8009c22:	687a      	ldr	r2, [r7, #4]
 8009c24:	f857 8031 	ldr.w	r8, [r7, r1, lsl #3]
 8009c28:	f8c4 8008 	str.w	r8, [r4, #8]
 8009c2c:	f04f 0e01 	mov.w	lr, #1
 8009c30:	109b      	asrs	r3, r3, #2
 8009c32:	fa0e f303 	lsl.w	r3, lr, r3
 8009c36:	eb07 0ec1 	add.w	lr, r7, r1, lsl #3
 8009c3a:	4313      	orrs	r3, r2
 8009c3c:	f1ae 0208 	sub.w	r2, lr, #8
 8009c40:	60e2      	str	r2, [r4, #12]
 8009c42:	607b      	str	r3, [r7, #4]
 8009c44:	f847 4031 	str.w	r4, [r7, r1, lsl #3]
 8009c48:	f8c8 400c 	str.w	r4, [r8, #12]
 8009c4c:	1082      	asrs	r2, r0, #2
 8009c4e:	2401      	movs	r4, #1
 8009c50:	4094      	lsls	r4, r2
 8009c52:	429c      	cmp	r4, r3
 8009c54:	d84b      	bhi.n	8009cee <_malloc_r+0x1ae>
 8009c56:	421c      	tst	r4, r3
 8009c58:	d106      	bne.n	8009c68 <_malloc_r+0x128>
 8009c5a:	f020 0003 	bic.w	r0, r0, #3
 8009c5e:	0064      	lsls	r4, r4, #1
 8009c60:	421c      	tst	r4, r3
 8009c62:	f100 0004 	add.w	r0, r0, #4
 8009c66:	d0fa      	beq.n	8009c5e <_malloc_r+0x11e>
 8009c68:	eb07 09c0 	add.w	r9, r7, r0, lsl #3
 8009c6c:	46ce      	mov	lr, r9
 8009c6e:	4680      	mov	r8, r0
 8009c70:	f8de 300c 	ldr.w	r3, [lr, #12]
 8009c74:	459e      	cmp	lr, r3
 8009c76:	d107      	bne.n	8009c88 <_malloc_r+0x148>
 8009c78:	e122      	b.n	8009ec0 <_malloc_r+0x380>
 8009c7a:	2a00      	cmp	r2, #0
 8009c7c:	f280 8129 	bge.w	8009ed2 <_malloc_r+0x392>
 8009c80:	68db      	ldr	r3, [r3, #12]
 8009c82:	459e      	cmp	lr, r3
 8009c84:	f000 811c 	beq.w	8009ec0 <_malloc_r+0x380>
 8009c88:	6859      	ldr	r1, [r3, #4]
 8009c8a:	f021 0103 	bic.w	r1, r1, #3
 8009c8e:	1b4a      	subs	r2, r1, r5
 8009c90:	2a0f      	cmp	r2, #15
 8009c92:	ddf2      	ble.n	8009c7a <_malloc_r+0x13a>
 8009c94:	e9d3 8e02 	ldrd	r8, lr, [r3, #8]
 8009c98:	195c      	adds	r4, r3, r5
 8009c9a:	f045 0501 	orr.w	r5, r5, #1
 8009c9e:	605d      	str	r5, [r3, #4]
 8009ca0:	f042 0501 	orr.w	r5, r2, #1
 8009ca4:	f8c8 e00c 	str.w	lr, [r8, #12]
 8009ca8:	4630      	mov	r0, r6
 8009caa:	f8ce 8008 	str.w	r8, [lr, #8]
 8009cae:	e9c7 4404 	strd	r4, r4, [r7, #16]
 8009cb2:	e9c4 cc02 	strd	ip, ip, [r4, #8]
 8009cb6:	6065      	str	r5, [r4, #4]
 8009cb8:	505a      	str	r2, [r3, r1]
 8009cba:	9301      	str	r3, [sp, #4]
 8009cbc:	f7f8 fd88 	bl	80027d0 <__malloc_unlock>
 8009cc0:	9b01      	ldr	r3, [sp, #4]
 8009cc2:	f103 0408 	add.w	r4, r3, #8
 8009cc6:	e763      	b.n	8009b90 <_malloc_r+0x50>
 8009cc8:	2400      	movs	r4, #0
 8009cca:	230c      	movs	r3, #12
 8009ccc:	4620      	mov	r0, r4
 8009cce:	6033      	str	r3, [r6, #0]
 8009cd0:	b003      	add	sp, #12
 8009cd2:	e8bd 8ff0 	ldmia.w	sp!, {r4, r5, r6, r7, r8, r9, sl, fp, pc}
 8009cd6:	f44f 7300 	mov.w	r3, #512	; 0x200
 8009cda:	2040      	movs	r0, #64	; 0x40
 8009cdc:	f04f 0c3f 	mov.w	ip, #63	; 0x3f
 8009ce0:	e773      	b.n	8009bca <_malloc_r+0x8a>
 8009ce2:	687b      	ldr	r3, [r7, #4]
 8009ce4:	1082      	asrs	r2, r0, #2
 8009ce6:	2401      	movs	r4, #1
 8009ce8:	4094      	lsls	r4, r2
 8009cea:	429c      	cmp	r4, r3
 8009cec:	d9b3      	bls.n	8009c56 <_malloc_r+0x116>
 8009cee:	68bc      	ldr	r4, [r7, #8]
 8009cf0:	6863      	ldr	r3, [r4, #4]
 8009cf2:	f023 0903 	bic.w	r9, r3, #3
 8009cf6:	45a9      	cmp	r9, r5
 8009cf8:	d303      	bcc.n	8009d02 <_malloc_r+0x1c2>
 8009cfa:	eba9 0305 	sub.w	r3, r9, r5
 8009cfe:	2b0f      	cmp	r3, #15
 8009d00:	dc7b      	bgt.n	8009dfa <_malloc_r+0x2ba>
 8009d02:	4b5e      	ldr	r3, [pc, #376]	; (8009e7c <_malloc_r+0x33c>)
 8009d04:	f8df a188 	ldr.w	sl, [pc, #392]	; 8009e90 <_malloc_r+0x350>
 8009d08:	681a      	ldr	r2, [r3, #0]
 8009d0a:	f8da 3000 	ldr.w	r3, [sl]
 8009d0e:	3301      	adds	r3, #1
 8009d10:	eb05 0802 	add.w	r8, r5, r2
 8009d14:	f000 8148 	beq.w	8009fa8 <_malloc_r+0x468>
 8009d18:	f508 5880 	add.w	r8, r8, #4096	; 0x1000
 8009d1c:	f108 080f 	add.w	r8, r8, #15
 8009d20:	f428 687f 	bic.w	r8, r8, #4080	; 0xff0
 8009d24:	f028 080f 	bic.w	r8, r8, #15
 8009d28:	4641      	mov	r1, r8
 8009d2a:	4630      	mov	r0, r6
 8009d2c:	f7f8 fd68 	bl	8002800 <_sbrk_r>
 8009d30:	f1b0 3fff 	cmp.w	r0, #4294967295
 8009d34:	4683      	mov	fp, r0
 8009d36:	f000 8104 	beq.w	8009f42 <_malloc_r+0x402>
 8009d3a:	eb04 0009 	add.w	r0, r4, r9
 8009d3e:	4558      	cmp	r0, fp
 8009d40:	f200 80fd 	bhi.w	8009f3e <_malloc_r+0x3fe>
 8009d44:	4a4e      	ldr	r2, [pc, #312]	; (8009e80 <_malloc_r+0x340>)
 8009d46:	6813      	ldr	r3, [r2, #0]
 8009d48:	4443      	add	r3, r8
 8009d4a:	6013      	str	r3, [r2, #0]
 8009d4c:	f000 814d 	beq.w	8009fea <_malloc_r+0x4aa>
 8009d50:	f8da 1000 	ldr.w	r1, [sl]
 8009d54:	3101      	adds	r1, #1
 8009d56:	bf1b      	ittet	ne
 8009d58:	ebab 0000 	subne.w	r0, fp, r0
 8009d5c:	181b      	addne	r3, r3, r0
 8009d5e:	f8ca b000 	streq.w	fp, [sl]
 8009d62:	6013      	strne	r3, [r2, #0]
 8009d64:	f01b 0307 	ands.w	r3, fp, #7
 8009d68:	f000 8134 	beq.w	8009fd4 <_malloc_r+0x494>
 8009d6c:	f1c3 0108 	rsb	r1, r3, #8
 8009d70:	f5c3 5380 	rsb	r3, r3, #4096	; 0x1000
 8009d74:	448b      	add	fp, r1
 8009d76:	3308      	adds	r3, #8
 8009d78:	44d8      	add	r8, fp
 8009d7a:	f3c8 080b 	ubfx	r8, r8, #0, #12
 8009d7e:	eba3 0808 	sub.w	r8, r3, r8
 8009d82:	4641      	mov	r1, r8
 8009d84:	4630      	mov	r0, r6
 8009d86:	9201      	str	r2, [sp, #4]
 8009d88:	f7f8 fd3a 	bl	8002800 <_sbrk_r>
 8009d8c:	1c43      	adds	r3, r0, #1
 8009d8e:	9a01      	ldr	r2, [sp, #4]
 8009d90:	f000 8146 	beq.w	800a020 <_malloc_r+0x4e0>
 8009d94:	eba0 010b 	sub.w	r1, r0, fp
 8009d98:	4441      	add	r1, r8
 8009d9a:	f041 0101 	orr.w	r1, r1, #1
 8009d9e:	6813      	ldr	r3, [r2, #0]
 8009da0:	f8c7 b008 	str.w	fp, [r7, #8]
 8009da4:	4443      	add	r3, r8
 8009da6:	42bc      	cmp	r4, r7
 8009da8:	f8cb 1004 	str.w	r1, [fp, #4]
 8009dac:	6013      	str	r3, [r2, #0]
 8009dae:	d015      	beq.n	8009ddc <_malloc_r+0x29c>
 8009db0:	f1b9 0f0f 	cmp.w	r9, #15
 8009db4:	f240 8130 	bls.w	800a018 <_malloc_r+0x4d8>
 8009db8:	6860      	ldr	r0, [r4, #4]
 8009dba:	f1a9 010c 	sub.w	r1, r9, #12
 8009dbe:	f021 0107 	bic.w	r1, r1, #7
 8009dc2:	f000 0001 	and.w	r0, r0, #1
 8009dc6:	eb04 0c01 	add.w	ip, r4, r1
 8009dca:	4308      	orrs	r0, r1
 8009dcc:	f04f 0e05 	mov.w	lr, #5
 8009dd0:	290f      	cmp	r1, #15
 8009dd2:	6060      	str	r0, [r4, #4]
 8009dd4:	e9cc ee01 	strd	lr, lr, [ip, #4]
 8009dd8:	f200 813a 	bhi.w	800a050 <_malloc_r+0x510>
 8009ddc:	4a29      	ldr	r2, [pc, #164]	; (8009e84 <_malloc_r+0x344>)
 8009dde:	482a      	ldr	r0, [pc, #168]	; (8009e88 <_malloc_r+0x348>)
 8009de0:	6811      	ldr	r1, [r2, #0]
 8009de2:	68bc      	ldr	r4, [r7, #8]
 8009de4:	428b      	cmp	r3, r1
 8009de6:	6801      	ldr	r1, [r0, #0]
 8009de8:	bf88      	it	hi
 8009dea:	6013      	strhi	r3, [r2, #0]
 8009dec:	6862      	ldr	r2, [r4, #4]
 8009dee:	428b      	cmp	r3, r1
 8009df0:	f022 0203 	bic.w	r2, r2, #3
 8009df4:	bf88      	it	hi
 8009df6:	6003      	strhi	r3, [r0, #0]
 8009df8:	e0a7      	b.n	8009f4a <_malloc_r+0x40a>
 8009dfa:	1962      	adds	r2, r4, r5
 8009dfc:	f043 0301 	orr.w	r3, r3, #1
 8009e00:	f045 0501 	orr.w	r5, r5, #1
 8009e04:	6065      	str	r5, [r4, #4]
 8009e06:	4630      	mov	r0, r6
 8009e08:	60ba      	str	r2, [r7, #8]
 8009e0a:	6053      	str	r3, [r2, #4]
 8009e0c:	f7f8 fce0 	bl	80027d0 <__malloc_unlock>
 8009e10:	3408      	adds	r4, #8
 8009e12:	4620      	mov	r0, r4
 8009e14:	b003      	add	sp, #12
 8009e16:	e8bd 8ff0 	ldmia.w	sp!, {r4, r5, r6, r7, r8, r9, sl, fp, pc}
 8009e1a:	4423      	add	r3, r4
 8009e1c:	68e1      	ldr	r1, [r4, #12]
 8009e1e:	685a      	ldr	r2, [r3, #4]
 8009e20:	68a5      	ldr	r5, [r4, #8]
 8009e22:	f042 0201 	orr.w	r2, r2, #1
 8009e26:	60e9      	str	r1, [r5, #12]
 8009e28:	4630      	mov	r0, r6
 8009e2a:	608d      	str	r5, [r1, #8]
 8009e2c:	605a      	str	r2, [r3, #4]
 8009e2e:	f7f8 fccf 	bl	80027d0 <__malloc_unlock>
 8009e32:	3408      	adds	r4, #8
 8009e34:	4620      	mov	r0, r4
 8009e36:	b003      	add	sp, #12
 8009e38:	e8bd 8ff0 	ldmia.w	sp!, {r4, r5, r6, r7, r8, r9, sl, fp, pc}
 8009e3c:	68dc      	ldr	r4, [r3, #12]
 8009e3e:	42a3      	cmp	r3, r4
 8009e40:	bf08      	it	eq
 8009e42:	3002      	addeq	r0, #2
 8009e44:	f43f aed6 	beq.w	8009bf4 <_malloc_r+0xb4>
 8009e48:	e692      	b.n	8009b70 <_malloc_r+0x30>
 8009e4a:	2b14      	cmp	r3, #20
 8009e4c:	d971      	bls.n	8009f32 <_malloc_r+0x3f2>
 8009e4e:	2b54      	cmp	r3, #84	; 0x54
 8009e50:	f200 80ad 	bhi.w	8009fae <_malloc_r+0x46e>
 8009e54:	0b2b      	lsrs	r3, r5, #12
 8009e56:	f103 006f 	add.w	r0, r3, #111	; 0x6f
 8009e5a:	f103 0c6e 	add.w	ip, r3, #110	; 0x6e
 8009e5e:	00c3      	lsls	r3, r0, #3
 8009e60:	e6b3      	b.n	8009bca <_malloc_r+0x8a>
 8009e62:	4423      	add	r3, r4
 8009e64:	4630      	mov	r0, r6
 8009e66:	685a      	ldr	r2, [r3, #4]
 8009e68:	f042 0201 	orr.w	r2, r2, #1
 8009e6c:	605a      	str	r2, [r3, #4]
 8009e6e:	3408      	adds	r4, #8
 8009e70:	f7f8 fcae 	bl	80027d0 <__malloc_unlock>
 8009e74:	e68c      	b.n	8009b90 <_malloc_r+0x50>
 8009e76:	bf00      	nop
 8009e78:	20000ddc 	.word	0x20000ddc
 8009e7c:	2000277c 	.word	0x2000277c
 8009e80:	2000274c 	.word	0x2000274c
 8009e84:	20002774 	.word	0x20002774
 8009e88:	20002778 	.word	0x20002778
 8009e8c:	20000de4 	.word	0x20000de4
 8009e90:	200011e4 	.word	0x200011e4
 8009e94:	1961      	adds	r1, r4, r5
 8009e96:	f045 0e01 	orr.w	lr, r5, #1
 8009e9a:	f042 0501 	orr.w	r5, r2, #1
 8009e9e:	f8c4 e004 	str.w	lr, [r4, #4]
 8009ea2:	4630      	mov	r0, r6
 8009ea4:	e9c7 1104 	strd	r1, r1, [r7, #16]
 8009ea8:	e9c1 cc02 	strd	ip, ip, [r1, #8]
 8009eac:	604d      	str	r5, [r1, #4]
 8009eae:	50e2      	str	r2, [r4, r3]
 8009eb0:	f7f8 fc8e 	bl	80027d0 <__malloc_unlock>
 8009eb4:	3408      	adds	r4, #8
 8009eb6:	e66b      	b.n	8009b90 <_malloc_r+0x50>
 8009eb8:	08e8      	lsrs	r0, r5, #3
 8009eba:	f105 0308 	add.w	r3, r5, #8
 8009ebe:	e64f      	b.n	8009b60 <_malloc_r+0x20>
 8009ec0:	f108 0801 	add.w	r8, r8, #1
 8009ec4:	f018 0f03 	tst.w	r8, #3
 8009ec8:	f10e 0e08 	add.w	lr, lr, #8
 8009ecc:	f47f aed0 	bne.w	8009c70 <_malloc_r+0x130>
 8009ed0:	e052      	b.n	8009f78 <_malloc_r+0x438>
 8009ed2:	4419      	add	r1, r3
 8009ed4:	461c      	mov	r4, r3
 8009ed6:	684a      	ldr	r2, [r1, #4]
 8009ed8:	68db      	ldr	r3, [r3, #12]
 8009eda:	f854 5f08 	ldr.w	r5, [r4, #8]!
 8009ede:	f042 0201 	orr.w	r2, r2, #1
 8009ee2:	604a      	str	r2, [r1, #4]
 8009ee4:	4630      	mov	r0, r6
 8009ee6:	60eb      	str	r3, [r5, #12]
 8009ee8:	609d      	str	r5, [r3, #8]
 8009eea:	f7f8 fc71 	bl	80027d0 <__malloc_unlock>
 8009eee:	e64f      	b.n	8009b90 <_malloc_r+0x50>
 8009ef0:	0a5a      	lsrs	r2, r3, #9
 8009ef2:	2a04      	cmp	r2, #4
 8009ef4:	d935      	bls.n	8009f62 <_malloc_r+0x422>
 8009ef6:	2a14      	cmp	r2, #20
 8009ef8:	d86f      	bhi.n	8009fda <_malloc_r+0x49a>
 8009efa:	f102 015c 	add.w	r1, r2, #92	; 0x5c
 8009efe:	00c9      	lsls	r1, r1, #3
 8009f00:	325b      	adds	r2, #91	; 0x5b
 8009f02:	eb07 0e01 	add.w	lr, r7, r1
 8009f06:	5879      	ldr	r1, [r7, r1]
 8009f08:	f1ae 0e08 	sub.w	lr, lr, #8
 8009f0c:	458e      	cmp	lr, r1
 8009f0e:	d058      	beq.n	8009fc2 <_malloc_r+0x482>
 8009f10:	684a      	ldr	r2, [r1, #4]
 8009f12:	f022 0203 	bic.w	r2, r2, #3
 8009f16:	429a      	cmp	r2, r3
 8009f18:	d902      	bls.n	8009f20 <_malloc_r+0x3e0>
 8009f1a:	6889      	ldr	r1, [r1, #8]
 8009f1c:	458e      	cmp	lr, r1
 8009f1e:	d1f7      	bne.n	8009f10 <_malloc_r+0x3d0>
 8009f20:	f8d1 e00c 	ldr.w	lr, [r1, #12]
 8009f24:	687b      	ldr	r3, [r7, #4]
 8009f26:	e9c4 1e02 	strd	r1, lr, [r4, #8]
 8009f2a:	f8ce 4008 	str.w	r4, [lr, #8]
 8009f2e:	60cc      	str	r4, [r1, #12]
 8009f30:	e68c      	b.n	8009c4c <_malloc_r+0x10c>
 8009f32:	f103 005c 	add.w	r0, r3, #92	; 0x5c
 8009f36:	f103 0c5b 	add.w	ip, r3, #91	; 0x5b
 8009f3a:	00c3      	lsls	r3, r0, #3
 8009f3c:	e645      	b.n	8009bca <_malloc_r+0x8a>
 8009f3e:	42bc      	cmp	r4, r7
 8009f40:	d072      	beq.n	800a028 <_malloc_r+0x4e8>
 8009f42:	68bc      	ldr	r4, [r7, #8]
 8009f44:	6862      	ldr	r2, [r4, #4]
 8009f46:	f022 0203 	bic.w	r2, r2, #3
 8009f4a:	4295      	cmp	r5, r2
 8009f4c:	eba2 0305 	sub.w	r3, r2, r5
 8009f50:	d802      	bhi.n	8009f58 <_malloc_r+0x418>
 8009f52:	2b0f      	cmp	r3, #15
 8009f54:	f73f af51 	bgt.w	8009dfa <_malloc_r+0x2ba>
 8009f58:	4630      	mov	r0, r6
 8009f5a:	f7f8 fc39 	bl	80027d0 <__malloc_unlock>
 8009f5e:	2400      	movs	r4, #0
 8009f60:	e616      	b.n	8009b90 <_malloc_r+0x50>
 8009f62:	099a      	lsrs	r2, r3, #6
 8009f64:	f102 0139 	add.w	r1, r2, #57	; 0x39
 8009f68:	00c9      	lsls	r1, r1, #3
 8009f6a:	3238      	adds	r2, #56	; 0x38
 8009f6c:	e7c9      	b.n	8009f02 <_malloc_r+0x3c2>
 8009f6e:	f8d9 9000 	ldr.w	r9, [r9]
 8009f72:	4599      	cmp	r9, r3
 8009f74:	f040 8083 	bne.w	800a07e <_malloc_r+0x53e>
 8009f78:	f010 0f03 	tst.w	r0, #3
 8009f7c:	f1a9 0308 	sub.w	r3, r9, #8
 8009f80:	f100 30ff 	add.w	r0, r0, #4294967295
 8009f84:	d1f3      	bne.n	8009f6e <_malloc_r+0x42e>
 8009f86:	687b      	ldr	r3, [r7, #4]
 8009f88:	ea23 0304 	bic.w	r3, r3, r4
 8009f8c:	607b      	str	r3, [r7, #4]
 8009f8e:	0064      	lsls	r4, r4, #1
 8009f90:	429c      	cmp	r4, r3
 8009f92:	f63f aeac 	bhi.w	8009cee <_malloc_r+0x1ae>
 8009f96:	b91c      	cbnz	r4, 8009fa0 <_malloc_r+0x460>
 8009f98:	e6a9      	b.n	8009cee <_malloc_r+0x1ae>
 8009f9a:	0064      	lsls	r4, r4, #1
 8009f9c:	f108 0804 	add.w	r8, r8, #4
 8009fa0:	421c      	tst	r4, r3
 8009fa2:	d0fa      	beq.n	8009f9a <_malloc_r+0x45a>
 8009fa4:	4640      	mov	r0, r8
 8009fa6:	e65f      	b.n	8009c68 <_malloc_r+0x128>
 8009fa8:	f108 0810 	add.w	r8, r8, #16
 8009fac:	e6bc      	b.n	8009d28 <_malloc_r+0x1e8>
 8009fae:	f5b3 7faa 	cmp.w	r3, #340	; 0x154
 8009fb2:	d826      	bhi.n	800a002 <_malloc_r+0x4c2>
 8009fb4:	0beb      	lsrs	r3, r5, #15
 8009fb6:	f103 0078 	add.w	r0, r3, #120	; 0x78
 8009fba:	f103 0c77 	add.w	ip, r3, #119	; 0x77
 8009fbe:	00c3      	lsls	r3, r0, #3
 8009fc0:	e603      	b.n	8009bca <_malloc_r+0x8a>
 8009fc2:	687b      	ldr	r3, [r7, #4]
 8009fc4:	1092      	asrs	r2, r2, #2
 8009fc6:	f04f 0801 	mov.w	r8, #1
 8009fca:	fa08 f202 	lsl.w	r2, r8, r2
 8009fce:	4313      	orrs	r3, r2
 8009fd0:	607b      	str	r3, [r7, #4]
 8009fd2:	e7a8      	b.n	8009f26 <_malloc_r+0x3e6>
 8009fd4:	f44f 5380 	mov.w	r3, #4096	; 0x1000
 8009fd8:	e6ce      	b.n	8009d78 <_malloc_r+0x238>
 8009fda:	2a54      	cmp	r2, #84	; 0x54
 8009fdc:	d829      	bhi.n	800a032 <_malloc_r+0x4f2>
 8009fde:	0b1a      	lsrs	r2, r3, #12
 8009fe0:	f102 016f 	add.w	r1, r2, #111	; 0x6f
 8009fe4:	00c9      	lsls	r1, r1, #3
 8009fe6:	326e      	adds	r2, #110	; 0x6e
 8009fe8:	e78b      	b.n	8009f02 <_malloc_r+0x3c2>
 8009fea:	f3c0 010b 	ubfx	r1, r0, #0, #12
 8009fee:	2900      	cmp	r1, #0
 8009ff0:	f47f aeae 	bne.w	8009d50 <_malloc_r+0x210>
 8009ff4:	eb09 0208 	add.w	r2, r9, r8
 8009ff8:	68b9      	ldr	r1, [r7, #8]
 8009ffa:	f042 0201 	orr.w	r2, r2, #1
 8009ffe:	604a      	str	r2, [r1, #4]
 800a000:	e6ec      	b.n	8009ddc <_malloc_r+0x29c>
 800a002:	f240 5254 	movw	r2, #1364	; 0x554
 800a006:	4293      	cmp	r3, r2
 800a008:	d81c      	bhi.n	800a044 <_malloc_r+0x504>
 800a00a:	0cab      	lsrs	r3, r5, #18
 800a00c:	f103 007d 	add.w	r0, r3, #125	; 0x7d
 800a010:	f103 0c7c 	add.w	ip, r3, #124	; 0x7c
 800a014:	00c3      	lsls	r3, r0, #3
 800a016:	e5d8      	b.n	8009bca <_malloc_r+0x8a>
 800a018:	2301      	movs	r3, #1
 800a01a:	f8cb 3004 	str.w	r3, [fp, #4]
 800a01e:	e79b      	b.n	8009f58 <_malloc_r+0x418>
 800a020:	2101      	movs	r1, #1
 800a022:	f04f 0800 	mov.w	r8, #0
 800a026:	e6ba      	b.n	8009d9e <_malloc_r+0x25e>
 800a028:	4a16      	ldr	r2, [pc, #88]	; (800a084 <_malloc_r+0x544>)
 800a02a:	6813      	ldr	r3, [r2, #0]
 800a02c:	4443      	add	r3, r8
 800a02e:	6013      	str	r3, [r2, #0]
 800a030:	e68e      	b.n	8009d50 <_malloc_r+0x210>
 800a032:	f5b2 7faa 	cmp.w	r2, #340	; 0x154
 800a036:	d814      	bhi.n	800a062 <_malloc_r+0x522>
 800a038:	0bda      	lsrs	r2, r3, #15
 800a03a:	f102 0178 	add.w	r1, r2, #120	; 0x78
 800a03e:	00c9      	lsls	r1, r1, #3
 800a040:	3277      	adds	r2, #119	; 0x77
 800a042:	e75e      	b.n	8009f02 <_malloc_r+0x3c2>
 800a044:	f44f 737e 	mov.w	r3, #1016	; 0x3f8
 800a048:	207f      	movs	r0, #127	; 0x7f
 800a04a:	f04f 0c7e 	mov.w	ip, #126	; 0x7e
 800a04e:	e5bc      	b.n	8009bca <_malloc_r+0x8a>
 800a050:	f104 0108 	add.w	r1, r4, #8
 800a054:	4630      	mov	r0, r6
 800a056:	9201      	str	r2, [sp, #4]
 800a058:	f002 fb3a 	bl	800c6d0 <_free_r>
 800a05c:	9a01      	ldr	r2, [sp, #4]
 800a05e:	6813      	ldr	r3, [r2, #0]
 800a060:	e6bc      	b.n	8009ddc <_malloc_r+0x29c>
 800a062:	f240 5154 	movw	r1, #1364	; 0x554
 800a066:	428a      	cmp	r2, r1
 800a068:	d805      	bhi.n	800a076 <_malloc_r+0x536>
 800a06a:	0c9a      	lsrs	r2, r3, #18
 800a06c:	f102 017d 	add.w	r1, r2, #125	; 0x7d
 800a070:	00c9      	lsls	r1, r1, #3
 800a072:	327c      	adds	r2, #124	; 0x7c
 800a074:	e745      	b.n	8009f02 <_malloc_r+0x3c2>
 800a076:	f44f 717e 	mov.w	r1, #1016	; 0x3f8
 800a07a:	227e      	movs	r2, #126	; 0x7e
 800a07c:	e741      	b.n	8009f02 <_malloc_r+0x3c2>
 800a07e:	687b      	ldr	r3, [r7, #4]
 800a080:	e785      	b.n	8009f8e <_malloc_r+0x44e>
 800a082:	bf00      	nop
 800a084:	2000274c 	.word	0x2000274c
	...

0800a090 <__ascii_mbtowc>:
 800a090:	b082      	sub	sp, #8
 800a092:	b149      	cbz	r1, 800a0a8 <__ascii_mbtowc+0x18>
 800a094:	b15a      	cbz	r2, 800a0ae <__ascii_mbtowc+0x1e>
 800a096:	b16b      	cbz	r3, 800a0b4 <__ascii_mbtowc+0x24>
 800a098:	7813      	ldrb	r3, [r2, #0]
 800a09a:	600b      	str	r3, [r1, #0]
 800a09c:	7812      	ldrb	r2, [r2, #0]
 800a09e:	1c10      	adds	r0, r2, #0
 800a0a0:	bf18      	it	ne
 800a0a2:	2001      	movne	r0, #1
 800a0a4:	b002      	add	sp, #8
 800a0a6:	4770      	bx	lr
 800a0a8:	a901      	add	r1, sp, #4
 800a0aa:	2a00      	cmp	r2, #0
 800a0ac:	d1f3      	bne.n	800a096 <__ascii_mbtowc+0x6>
 800a0ae:	4610      	mov	r0, r2
 800a0b0:	b002      	add	sp, #8
 800a0b2:	4770      	bx	lr
 800a0b4:	f06f 0001 	mvn.w	r0, #1
 800a0b8:	e7f4      	b.n	800a0a4 <__ascii_mbtowc+0x14>
 800a0ba:	bf00      	nop
 800a0bc:	0000      	movs	r0, r0
	...

0800a0c0 <memset>:
 800a0c0:	b4f0      	push	{r4, r5, r6, r7}
 800a0c2:	0786      	lsls	r6, r0, #30
 800a0c4:	d043      	beq.n	800a14e <memset+0x8e>
 800a0c6:	1e54      	subs	r4, r2, #1
 800a0c8:	2a00      	cmp	r2, #0
 800a0ca:	d03e      	beq.n	800a14a <memset+0x8a>
 800a0cc:	b2ca      	uxtb	r2, r1
 800a0ce:	4603      	mov	r3, r0
 800a0d0:	e002      	b.n	800a0d8 <memset+0x18>
 800a0d2:	f114 34ff 	adds.w	r4, r4, #4294967295
 800a0d6:	d338      	bcc.n	800a14a <memset+0x8a>
 800a0d8:	f803 2b01 	strb.w	r2, [r3], #1
 800a0dc:	079d      	lsls	r5, r3, #30
 800a0de:	d1f8      	bne.n	800a0d2 <memset+0x12>
 800a0e0:	2c03      	cmp	r4, #3
 800a0e2:	d92b      	bls.n	800a13c <memset+0x7c>
 800a0e4:	b2cd      	uxtb	r5, r1
 800a0e6:	ea45 2505 	orr.w	r5, r5, r5, lsl #8
 800a0ea:	2c0f      	cmp	r4, #15
 800a0ec:	ea45 4505 	orr.w	r5, r5, r5, lsl #16
 800a0f0:	d916      	bls.n	800a120 <memset+0x60>
 800a0f2:	f1a4 0710 	sub.w	r7, r4, #16
 800a0f6:	093f      	lsrs	r7, r7, #4
 800a0f8:	f103 0620 	add.w	r6, r3, #32
 800a0fc:	eb06 1607 	add.w	r6, r6, r7, lsl #4
 800a100:	f103 0210 	add.w	r2, r3, #16
 800a104:	e942 5504 	strd	r5, r5, [r2, #-16]
 800a108:	e942 5502 	strd	r5, r5, [r2, #-8]
 800a10c:	3210      	adds	r2, #16
 800a10e:	42b2      	cmp	r2, r6
 800a110:	d1f8      	bne.n	800a104 <memset+0x44>
 800a112:	f004 040f 	and.w	r4, r4, #15
 800a116:	3701      	adds	r7, #1
 800a118:	2c03      	cmp	r4, #3
 800a11a:	eb03 1307 	add.w	r3, r3, r7, lsl #4
 800a11e:	d90d      	bls.n	800a13c <memset+0x7c>
 800a120:	461e      	mov	r6, r3
 800a122:	4622      	mov	r2, r4
 800a124:	3a04      	subs	r2, #4
 800a126:	2a03      	cmp	r2, #3
 800a128:	f846 5b04 	str.w	r5, [r6], #4
 800a12c:	d8fa      	bhi.n	800a124 <memset+0x64>
 800a12e:	1f22      	subs	r2, r4, #4
 800a130:	f022 0203 	bic.w	r2, r2, #3
 800a134:	3204      	adds	r2, #4
 800a136:	4413      	add	r3, r2
 800a138:	f004 0403 	and.w	r4, r4, #3
 800a13c:	b12c      	cbz	r4, 800a14a <memset+0x8a>
 800a13e:	b2c9      	uxtb	r1, r1
 800a140:	441c      	add	r4, r3
 800a142:	f803 1b01 	strb.w	r1, [r3], #1
 800a146:	429c      	cmp	r4, r3
 800a148:	d1fb      	bne.n	800a142 <memset+0x82>
 800a14a:	bcf0      	pop	{r4, r5, r6, r7}
 800a14c:	4770      	bx	lr
 800a14e:	4614      	mov	r4, r2
 800a150:	4603      	mov	r3, r0
 800a152:	e7c5      	b.n	800a0e0 <memset+0x20>
	...

0800a160 <snprintf>:
 800a160:	b40c      	push	{r2, r3}
 800a162:	b530      	push	{r4, r5, lr}
 800a164:	4b21      	ldr	r3, [pc, #132]	; (800a1ec <snprintf+0x8c>)
 800a166:	2900      	cmp	r1, #0
 800a168:	b09d      	sub	sp, #116	; 0x74
 800a16a:	681c      	ldr	r4, [r3, #0]
 800a16c:	db38      	blt.n	800a1e0 <snprintf+0x80>
 800a16e:	f44f 7302 	mov.w	r3, #520	; 0x208
 800a172:	9002      	str	r0, [sp, #8]
 800a174:	9006      	str	r0, [sp, #24]
 800a176:	f8ad 3014 	strh.w	r3, [sp, #20]
 800a17a:	a821      	add	r0, sp, #132	; 0x84
 800a17c:	d019      	beq.n	800a1b2 <snprintf+0x52>
 800a17e:	3901      	subs	r1, #1
 800a180:	4603      	mov	r3, r0
 800a182:	9a20      	ldr	r2, [sp, #128]	; 0x80
 800a184:	9104      	str	r1, [sp, #16]
 800a186:	9107      	str	r1, [sp, #28]
 800a188:	9001      	str	r0, [sp, #4]
 800a18a:	f64f 75ff 	movw	r5, #65535	; 0xffff
 800a18e:	a902      	add	r1, sp, #8
 800a190:	4620      	mov	r0, r4
 800a192:	f8ad 5016 	strh.w	r5, [sp, #22]
 800a196:	f000 f863 	bl	800a260 <_svfprintf_r>
 800a19a:	1c42      	adds	r2, r0, #1
 800a19c:	da01      	bge.n	800a1a2 <snprintf+0x42>
 800a19e:	238b      	movs	r3, #139	; 0x8b
 800a1a0:	6023      	str	r3, [r4, #0]
 800a1a2:	9b02      	ldr	r3, [sp, #8]
 800a1a4:	2200      	movs	r2, #0
 800a1a6:	701a      	strb	r2, [r3, #0]
 800a1a8:	b01d      	add	sp, #116	; 0x74
 800a1aa:	e8bd 4030 	ldmia.w	sp!, {r4, r5, lr}
 800a1ae:	b002      	add	sp, #8
 800a1b0:	4770      	bx	lr
 800a1b2:	4603      	mov	r3, r0
 800a1b4:	9104      	str	r1, [sp, #16]
 800a1b6:	9107      	str	r1, [sp, #28]
 800a1b8:	9001      	str	r0, [sp, #4]
 800a1ba:	f64f 75ff 	movw	r5, #65535	; 0xffff
 800a1be:	9a20      	ldr	r2, [sp, #128]	; 0x80
 800a1c0:	f8ad 5016 	strh.w	r5, [sp, #22]
 800a1c4:	a902      	add	r1, sp, #8
 800a1c6:	4620      	mov	r0, r4
 800a1c8:	f000 f84a 	bl	800a260 <_svfprintf_r>
 800a1cc:	1c43      	adds	r3, r0, #1
 800a1ce:	db04      	blt.n	800a1da <snprintf+0x7a>
 800a1d0:	b01d      	add	sp, #116	; 0x74
 800a1d2:	e8bd 4030 	ldmia.w	sp!, {r4, r5, lr}
 800a1d6:	b002      	add	sp, #8
 800a1d8:	4770      	bx	lr
 800a1da:	238b      	movs	r3, #139	; 0x8b
 800a1dc:	6023      	str	r3, [r4, #0]
 800a1de:	e7f7      	b.n	800a1d0 <snprintf+0x70>
 800a1e0:	238b      	movs	r3, #139	; 0x8b
 800a1e2:	6023      	str	r3, [r4, #0]
 800a1e4:	f04f 30ff 	mov.w	r0, #4294967295
 800a1e8:	e7f2      	b.n	800a1d0 <snprintf+0x70>
 800a1ea:	bf00      	nop
 800a1ec:	20000844 	.word	0x20000844

0800a1f0 <strncpy>:
 800a1f0:	ea40 0301 	orr.w	r3, r0, r1
 800a1f4:	079b      	lsls	r3, r3, #30
 800a1f6:	b470      	push	{r4, r5, r6}
 800a1f8:	d12a      	bne.n	800a250 <strncpy+0x60>
 800a1fa:	2a03      	cmp	r2, #3
 800a1fc:	d928      	bls.n	800a250 <strncpy+0x60>
 800a1fe:	460c      	mov	r4, r1
 800a200:	4603      	mov	r3, r0
 800a202:	4621      	mov	r1, r4
 800a204:	f854 6b04 	ldr.w	r6, [r4], #4
 800a208:	f1a6 3501 	sub.w	r5, r6, #16843009	; 0x1010101
 800a20c:	ea25 0506 	bic.w	r5, r5, r6
 800a210:	f015 3f80 	tst.w	r5, #2155905152	; 0x80808080
 800a214:	d106      	bne.n	800a224 <strncpy+0x34>
 800a216:	3a04      	subs	r2, #4
 800a218:	2a03      	cmp	r2, #3
 800a21a:	f843 6b04 	str.w	r6, [r3], #4
 800a21e:	4621      	mov	r1, r4
 800a220:	d8ef      	bhi.n	800a202 <strncpy+0x12>
 800a222:	b19a      	cbz	r2, 800a24c <strncpy+0x5c>
 800a224:	780c      	ldrb	r4, [r1, #0]
 800a226:	701c      	strb	r4, [r3, #0]
 800a228:	3a01      	subs	r2, #1
 800a22a:	3301      	adds	r3, #1
 800a22c:	b13c      	cbz	r4, 800a23e <strncpy+0x4e>
 800a22e:	b16a      	cbz	r2, 800a24c <strncpy+0x5c>
 800a230:	f811 4f01 	ldrb.w	r4, [r1, #1]!
 800a234:	f803 4b01 	strb.w	r4, [r3], #1
 800a238:	3a01      	subs	r2, #1
 800a23a:	2c00      	cmp	r4, #0
 800a23c:	d1f7      	bne.n	800a22e <strncpy+0x3e>
 800a23e:	b12a      	cbz	r2, 800a24c <strncpy+0x5c>
 800a240:	441a      	add	r2, r3
 800a242:	2100      	movs	r1, #0
 800a244:	f803 1b01 	strb.w	r1, [r3], #1
 800a248:	4293      	cmp	r3, r2
 800a24a:	d1fb      	bne.n	800a244 <strncpy+0x54>
 800a24c:	bc70      	pop	{r4, r5, r6}
 800a24e:	4770      	bx	lr
 800a250:	4603      	mov	r3, r0
 800a252:	e7e6      	b.n	800a222 <strncpy+0x32>
	...

0800a260 <_svfprintf_r>:
 800a260:	e92d 4ff0 	stmdb	sp!, {r4, r5, r6, r7, r8, r9, sl, fp, lr}
 800a264:	b0c1      	sub	sp, #260	; 0x104
 800a266:	460c      	mov	r4, r1
 800a268:	9108      	str	r1, [sp, #32]
 800a26a:	4691      	mov	r9, r2
 800a26c:	930b      	str	r3, [sp, #44]	; 0x2c
 800a26e:	9009      	str	r0, [sp, #36]	; 0x24
 800a270:	f002 fb26 	bl	800c8c0 <_localeconv_r>
 800a274:	6803      	ldr	r3, [r0, #0]
 800a276:	9314      	str	r3, [sp, #80]	; 0x50
 800a278:	4618      	mov	r0, r3
 800a27a:	f7f6 fef1 	bl	8001060 <strlen>
 800a27e:	89a3      	ldrh	r3, [r4, #12]
 800a280:	9013      	str	r0, [sp, #76]	; 0x4c
 800a282:	061d      	lsls	r5, r3, #24
 800a284:	d503      	bpl.n	800a28e <_svfprintf_r+0x2e>
 800a286:	6923      	ldr	r3, [r4, #16]
 800a288:	2b00      	cmp	r3, #0
 800a28a:	f000 8718 	beq.w	800b0be <_svfprintf_r+0xe5e>
 800a28e:	ed9f 7b94 	vldr	d7, [pc, #592]	; 800a4e0 <_svfprintf_r+0x280>
 800a292:	2300      	movs	r3, #0
 800a294:	ed8d 7b10 	vstr	d7, [sp, #64]	; 0x40
 800a298:	e9cd 3324 	strd	r3, r3, [sp, #144]	; 0x90
 800a29c:	f10d 08c0 	add.w	r8, sp, #192	; 0xc0
 800a2a0:	930f      	str	r3, [sp, #60]	; 0x3c
 800a2a2:	9312      	str	r3, [sp, #72]	; 0x48
 800a2a4:	9315      	str	r3, [sp, #84]	; 0x54
 800a2a6:	9306      	str	r3, [sp, #24]
 800a2a8:	f8cd 808c 	str.w	r8, [sp, #140]	; 0x8c
 800a2ac:	46c2      	mov	sl, r8
 800a2ae:	46cb      	mov	fp, r9
 800a2b0:	f89b 3000 	ldrb.w	r3, [fp]
 800a2b4:	2b00      	cmp	r3, #0
 800a2b6:	f000 8099 	beq.w	800a3ec <_svfprintf_r+0x18c>
 800a2ba:	2b25      	cmp	r3, #37	; 0x25
 800a2bc:	465c      	mov	r4, fp
 800a2be:	d102      	bne.n	800a2c6 <_svfprintf_r+0x66>
 800a2c0:	e01c      	b.n	800a2fc <_svfprintf_r+0x9c>
 800a2c2:	2b25      	cmp	r3, #37	; 0x25
 800a2c4:	d003      	beq.n	800a2ce <_svfprintf_r+0x6e>
 800a2c6:	f814 3f01 	ldrb.w	r3, [r4, #1]!
 800a2ca:	2b00      	cmp	r3, #0
 800a2cc:	d1f9      	bne.n	800a2c2 <_svfprintf_r+0x62>
 800a2ce:	eba4 050b 	sub.w	r5, r4, fp
 800a2d2:	b185      	cbz	r5, 800a2f6 <_svfprintf_r+0x96>
 800a2d4:	e9dd 3224 	ldrd	r3, r2, [sp, #144]	; 0x90
 800a2d8:	3301      	adds	r3, #1
 800a2da:	442a      	add	r2, r5
 800a2dc:	2b07      	cmp	r3, #7
 800a2de:	f8ca b000 	str.w	fp, [sl]
 800a2e2:	f8ca 5004 	str.w	r5, [sl, #4]
 800a2e6:	e9cd 3224 	strd	r3, r2, [sp, #144]	; 0x90
 800a2ea:	dc77      	bgt.n	800a3dc <_svfprintf_r+0x17c>
 800a2ec:	f10a 0a08 	add.w	sl, sl, #8
 800a2f0:	9b06      	ldr	r3, [sp, #24]
 800a2f2:	442b      	add	r3, r5
 800a2f4:	9306      	str	r3, [sp, #24]
 800a2f6:	7823      	ldrb	r3, [r4, #0]
 800a2f8:	2b00      	cmp	r3, #0
 800a2fa:	d077      	beq.n	800a3ec <_svfprintf_r+0x18c>
 800a2fc:	2300      	movs	r3, #0
 800a2fe:	461a      	mov	r2, r3
 800a300:	f88d 306f 	strb.w	r3, [sp, #111]	; 0x6f
 800a304:	4619      	mov	r1, r3
 800a306:	9307      	str	r3, [sp, #28]
 800a308:	461f      	mov	r7, r3
 800a30a:	f04f 30ff 	mov.w	r0, #4294967295
 800a30e:	7863      	ldrb	r3, [r4, #1]
 800a310:	9005      	str	r0, [sp, #20]
 800a312:	f104 0b01 	add.w	fp, r4, #1
 800a316:	f10b 0b01 	add.w	fp, fp, #1
 800a31a:	4699      	mov	r9, r3
 800a31c:	f1a9 0320 	sub.w	r3, r9, #32
 800a320:	2b58      	cmp	r3, #88	; 0x58
 800a322:	f200 8375 	bhi.w	800aa10 <_svfprintf_r+0x7b0>
 800a326:	e8df f013 	tbh	[pc, r3, lsl #1]
 800a32a:	02c3      	.short	0x02c3
 800a32c:	03730373 	.word	0x03730373
 800a330:	037302be 	.word	0x037302be
 800a334:	03730373 	.word	0x03730373
 800a338:	03730373 	.word	0x03730373
 800a33c:	02b20373 	.word	0x02b20373
 800a340:	037302ad 	.word	0x037302ad
 800a344:	034c0367 	.word	0x034c0367
 800a348:	036c0373 	.word	0x036c0373
 800a34c:	00b600b6 	.word	0x00b600b6
 800a350:	00b600b6 	.word	0x00b600b6
 800a354:	00b600b6 	.word	0x00b600b6
 800a358:	00b600b6 	.word	0x00b600b6
 800a35c:	037300b6 	.word	0x037300b6
 800a360:	03730373 	.word	0x03730373
 800a364:	03730373 	.word	0x03730373
 800a368:	03730373 	.word	0x03730373
 800a36c:	03730373 	.word	0x03730373
 800a370:	03370373 	.word	0x03370373
 800a374:	037302e4 	.word	0x037302e4
 800a378:	037302e4 	.word	0x037302e4
 800a37c:	03730373 	.word	0x03730373
 800a380:	02df0373 	.word	0x02df0373
 800a384:	03730373 	.word	0x03730373
 800a388:	037300a5 	.word	0x037300a5
 800a38c:	03730373 	.word	0x03730373
 800a390:	03730373 	.word	0x03730373
 800a394:	03730075 	.word	0x03730075
 800a398:	028d0373 	.word	0x028d0373
 800a39c:	03730373 	.word	0x03730373
 800a3a0:	03730373 	.word	0x03730373
 800a3a4:	03730373 	.word	0x03730373
 800a3a8:	03730373 	.word	0x03730373
 800a3ac:	03730373 	.word	0x03730373
 800a3b0:	012f017c 	.word	0x012f017c
 800a3b4:	02e402e4 	.word	0x02e402e4
 800a3b8:	012a02e4 	.word	0x012a02e4
 800a3bc:	0373012f 	.word	0x0373012f
 800a3c0:	011d0373 	.word	0x011d0373
 800a3c4:	01090373 	.word	0x01090373
 800a3c8:	00ca00a7 	.word	0x00ca00a7
 800a3cc:	037300c5 	.word	0x037300c5
 800a3d0:	037300e1 	.word	0x037300e1
 800a3d4:	03730077 	.word	0x03730077
 800a3d8:	02cb0373 	.word	0x02cb0373
 800a3dc:	aa23      	add	r2, sp, #140	; 0x8c
 800a3de:	e9dd 1008 	ldrd	r1, r0, [sp, #32]
 800a3e2:	f002 fda5 	bl	800cf30 <__ssprint_r>
 800a3e6:	b940      	cbnz	r0, 800a3fa <_svfprintf_r+0x19a>
 800a3e8:	46c2      	mov	sl, r8
 800a3ea:	e781      	b.n	800a2f0 <_svfprintf_r+0x90>
 800a3ec:	9b25      	ldr	r3, [sp, #148]	; 0x94
 800a3ee:	b123      	cbz	r3, 800a3fa <_svfprintf_r+0x19a>
 800a3f0:	9809      	ldr	r0, [sp, #36]	; 0x24
 800a3f2:	9908      	ldr	r1, [sp, #32]
 800a3f4:	aa23      	add	r2, sp, #140	; 0x8c
 800a3f6:	f002 fd9b 	bl	800cf30 <__ssprint_r>
 800a3fa:	9b08      	ldr	r3, [sp, #32]
 800a3fc:	899b      	ldrh	r3, [r3, #12]
 800a3fe:	f013 0f40 	tst.w	r3, #64	; 0x40
 800a402:	9b06      	ldr	r3, [sp, #24]
 800a404:	bf18      	it	ne
 800a406:	f04f 33ff 	movne.w	r3, #4294967295
 800a40a:	9306      	str	r3, [sp, #24]
 800a40c:	9806      	ldr	r0, [sp, #24]
 800a40e:	b041      	add	sp, #260	; 0x104
 800a410:	e8bd 8ff0 	ldmia.w	sp!, {r4, r5, r6, r7, r8, r9, sl, fp, pc}
 800a414:	f047 0710 	orr.w	r7, r7, #16
 800a418:	06be      	lsls	r6, r7, #26
 800a41a:	f140 8527 	bpl.w	800ae6c <_svfprintf_r+0xc0c>
 800a41e:	9d0b      	ldr	r5, [sp, #44]	; 0x2c
 800a420:	3507      	adds	r5, #7
 800a422:	f025 0307 	bic.w	r3, r5, #7
 800a426:	f103 0208 	add.w	r2, r3, #8
 800a42a:	e9d3 4500 	ldrd	r4, r5, [r3]
 800a42e:	920b      	str	r2, [sp, #44]	; 0x2c
 800a430:	2301      	movs	r3, #1
 800a432:	9a05      	ldr	r2, [sp, #20]
 800a434:	2600      	movs	r6, #0
 800a436:	3201      	adds	r2, #1
 800a438:	f88d 606f 	strb.w	r6, [sp, #111]	; 0x6f
 800a43c:	f000 8428 	beq.w	800ac90 <_svfprintf_r+0xa30>
 800a440:	f027 0280 	bic.w	r2, r7, #128	; 0x80
 800a444:	9203      	str	r2, [sp, #12]
 800a446:	ea54 0205 	orrs.w	r2, r4, r5
 800a44a:	f040 80c0 	bne.w	800a5ce <_svfprintf_r+0x36e>
 800a44e:	9a05      	ldr	r2, [sp, #20]
 800a450:	2a00      	cmp	r2, #0
 800a452:	f040 86b0 	bne.w	800b1b6 <_svfprintf_r+0xf56>
 800a456:	2b00      	cmp	r3, #0
 800a458:	f040 84d6 	bne.w	800ae08 <_svfprintf_r+0xba8>
 800a45c:	f017 0301 	ands.w	r3, r7, #1
 800a460:	930a      	str	r3, [sp, #40]	; 0x28
 800a462:	f000 8548 	beq.w	800aef6 <_svfprintf_r+0xc96>
 800a466:	ab40      	add	r3, sp, #256	; 0x100
 800a468:	461a      	mov	r2, r3
 800a46a:	2330      	movs	r3, #48	; 0x30
 800a46c:	f802 3d41 	strb.w	r3, [r2, #-65]!
 800a470:	920d      	str	r2, [sp, #52]	; 0x34
 800a472:	e0cd      	b.n	800a610 <_svfprintf_r+0x3b0>
 800a474:	f047 0710 	orr.w	r7, r7, #16
 800a478:	f017 0320 	ands.w	r3, r7, #32
 800a47c:	f000 8500 	beq.w	800ae80 <_svfprintf_r+0xc20>
 800a480:	9d0b      	ldr	r5, [sp, #44]	; 0x2c
 800a482:	3507      	adds	r5, #7
 800a484:	f025 0307 	bic.w	r3, r5, #7
 800a488:	f103 0208 	add.w	r2, r3, #8
 800a48c:	e9d3 4500 	ldrd	r4, r5, [r3]
 800a490:	920b      	str	r2, [sp, #44]	; 0x2c
 800a492:	2300      	movs	r3, #0
 800a494:	e7cd      	b.n	800a432 <_svfprintf_r+0x1d2>
 800a496:	f1a9 0330 	sub.w	r3, r9, #48	; 0x30
 800a49a:	2000      	movs	r0, #0
 800a49c:	f81b 9b01 	ldrb.w	r9, [fp], #1
 800a4a0:	eb00 0080 	add.w	r0, r0, r0, lsl #2
 800a4a4:	eb03 0040 	add.w	r0, r3, r0, lsl #1
 800a4a8:	f1a9 0330 	sub.w	r3, r9, #48	; 0x30
 800a4ac:	2b09      	cmp	r3, #9
 800a4ae:	d9f5      	bls.n	800a49c <_svfprintf_r+0x23c>
 800a4b0:	9007      	str	r0, [sp, #28]
 800a4b2:	e733      	b.n	800a31c <_svfprintf_r+0xbc>
 800a4b4:	f047 0720 	orr.w	r7, r7, #32
 800a4b8:	f89b 3000 	ldrb.w	r3, [fp]
 800a4bc:	e72b      	b.n	800a316 <_svfprintf_r+0xb6>
 800a4be:	9a0b      	ldr	r2, [sp, #44]	; 0x2c
 800a4c0:	4b09      	ldr	r3, [pc, #36]	; (800a4e8 <_svfprintf_r+0x288>)
 800a4c2:	6814      	ldr	r4, [r2, #0]
 800a4c4:	9312      	str	r3, [sp, #72]	; 0x48
 800a4c6:	3204      	adds	r2, #4
 800a4c8:	f647 0330 	movw	r3, #30768	; 0x7830
 800a4cc:	f8ad 3070 	strh.w	r3, [sp, #112]	; 0x70
 800a4d0:	f047 0702 	orr.w	r7, r7, #2
 800a4d4:	920b      	str	r2, [sp, #44]	; 0x2c
 800a4d6:	2500      	movs	r5, #0
 800a4d8:	2302      	movs	r3, #2
 800a4da:	f04f 0978 	mov.w	r9, #120	; 0x78
 800a4de:	e7a8      	b.n	800a432 <_svfprintf_r+0x1d2>
	...
 800a4e8:	0800df04 	.word	0x0800df04
 800a4ec:	9a0b      	ldr	r2, [sp, #44]	; 0x2c
 800a4ee:	6813      	ldr	r3, [r2, #0]
 800a4f0:	930d      	str	r3, [sp, #52]	; 0x34
 800a4f2:	2400      	movs	r4, #0
 800a4f4:	f88d 406f 	strb.w	r4, [sp, #111]	; 0x6f
 800a4f8:	1d15      	adds	r5, r2, #4
 800a4fa:	2b00      	cmp	r3, #0
 800a4fc:	f000 860b 	beq.w	800b116 <_svfprintf_r+0xeb6>
 800a500:	9a05      	ldr	r2, [sp, #20]
 800a502:	1c53      	adds	r3, r2, #1
 800a504:	f000 86b3 	beq.w	800b26e <_svfprintf_r+0x100e>
 800a508:	4621      	mov	r1, r4
 800a50a:	980d      	ldr	r0, [sp, #52]	; 0x34
 800a50c:	f7f6 fe18 	bl	8001140 <memchr>
 800a510:	2800      	cmp	r0, #0
 800a512:	f000 8794 	beq.w	800b43e <_svfprintf_r+0x11de>
 800a516:	9b0d      	ldr	r3, [sp, #52]	; 0x34
 800a518:	9405      	str	r4, [sp, #20]
 800a51a:	1ac3      	subs	r3, r0, r3
 800a51c:	930a      	str	r3, [sp, #40]	; 0x28
 800a51e:	950b      	str	r5, [sp, #44]	; 0x2c
 800a520:	9703      	str	r7, [sp, #12]
 800a522:	ea23 73e3 	bic.w	r3, r3, r3, asr #31
 800a526:	f89d 606f 	ldrb.w	r6, [sp, #111]	; 0x6f
 800a52a:	9304      	str	r3, [sp, #16]
 800a52c:	940e      	str	r4, [sp, #56]	; 0x38
 800a52e:	2e00      	cmp	r6, #0
 800a530:	f000 8089 	beq.w	800a646 <_svfprintf_r+0x3e6>
 800a534:	9b04      	ldr	r3, [sp, #16]
 800a536:	3301      	adds	r3, #1
 800a538:	9304      	str	r3, [sp, #16]
 800a53a:	e084      	b.n	800a646 <_svfprintf_r+0x3e6>
 800a53c:	2a00      	cmp	r2, #0
 800a53e:	f041 80a4 	bne.w	800b68a <_svfprintf_r+0x142a>
 800a542:	9a0b      	ldr	r2, [sp, #44]	; 0x2c
 800a544:	06b9      	lsls	r1, r7, #26
 800a546:	f852 3b04 	ldr.w	r3, [r2], #4
 800a54a:	920b      	str	r2, [sp, #44]	; 0x2c
 800a54c:	f100 8512 	bmi.w	800af74 <_svfprintf_r+0xd14>
 800a550:	06fa      	lsls	r2, r7, #27
 800a552:	f100 8606 	bmi.w	800b162 <_svfprintf_r+0xf02>
 800a556:	067f      	lsls	r7, r7, #25
 800a558:	f140 8603 	bpl.w	800b162 <_svfprintf_r+0xf02>
 800a55c:	f8bd 2018 	ldrh.w	r2, [sp, #24]
 800a560:	801a      	strh	r2, [r3, #0]
 800a562:	e6a5      	b.n	800a2b0 <_svfprintf_r+0x50>
 800a564:	f89b 3000 	ldrb.w	r3, [fp]
 800a568:	2b6c      	cmp	r3, #108	; 0x6c
 800a56a:	bf03      	ittte	eq
 800a56c:	f89b 3001 	ldrbeq.w	r3, [fp, #1]
 800a570:	f047 0720 	orreq.w	r7, r7, #32
 800a574:	f10b 0b01 	addeq.w	fp, fp, #1
 800a578:	f047 0710 	orrne.w	r7, r7, #16
 800a57c:	e6cb      	b.n	800a316 <_svfprintf_r+0xb6>
 800a57e:	f047 0740 	orr.w	r7, r7, #64	; 0x40
 800a582:	f89b 3000 	ldrb.w	r3, [fp]
 800a586:	e6c6      	b.n	800a316 <_svfprintf_r+0xb6>
 800a588:	2a00      	cmp	r2, #0
 800a58a:	f041 8060 	bne.w	800b64e <_svfprintf_r+0x13ee>
 800a58e:	06bc      	lsls	r4, r7, #26
 800a590:	f140 820a 	bpl.w	800a9a8 <_svfprintf_r+0x748>
 800a594:	9d0b      	ldr	r5, [sp, #44]	; 0x2c
 800a596:	3507      	adds	r5, #7
 800a598:	f025 0307 	bic.w	r3, r5, #7
 800a59c:	e9d3 4500 	ldrd	r4, r5, [r3]
 800a5a0:	f103 0208 	add.w	r2, r3, #8
 800a5a4:	920b      	str	r2, [sp, #44]	; 0x2c
 800a5a6:	2c00      	cmp	r4, #0
 800a5a8:	f175 0300 	sbcs.w	r3, r5, #0
 800a5ac:	f2c0 84af 	blt.w	800af0e <_svfprintf_r+0xcae>
 800a5b0:	9b05      	ldr	r3, [sp, #20]
 800a5b2:	f89d 606f 	ldrb.w	r6, [sp, #111]	; 0x6f
 800a5b6:	3301      	adds	r3, #1
 800a5b8:	f000 84b4 	beq.w	800af24 <_svfprintf_r+0xcc4>
 800a5bc:	f027 0280 	bic.w	r2, r7, #128	; 0x80
 800a5c0:	9203      	str	r2, [sp, #12]
 800a5c2:	ea54 0205 	orrs.w	r2, r4, r5
 800a5c6:	f04f 0301 	mov.w	r3, #1
 800a5ca:	f43f af40 	beq.w	800a44e <_svfprintf_r+0x1ee>
 800a5ce:	2b01      	cmp	r3, #1
 800a5d0:	f000 8362 	beq.w	800ac98 <_svfprintf_r+0xa38>
 800a5d4:	2b02      	cmp	r3, #2
 800a5d6:	f000 8382 	beq.w	800acde <_svfprintf_r+0xa7e>
 800a5da:	4641      	mov	r1, r8
 800a5dc:	e000      	b.n	800a5e0 <_svfprintf_r+0x380>
 800a5de:	4611      	mov	r1, r2
 800a5e0:	08e2      	lsrs	r2, r4, #3
 800a5e2:	ea42 7245 	orr.w	r2, r2, r5, lsl #29
 800a5e6:	08e8      	lsrs	r0, r5, #3
 800a5e8:	f004 0307 	and.w	r3, r4, #7
 800a5ec:	4605      	mov	r5, r0
 800a5ee:	4614      	mov	r4, r2
 800a5f0:	3330      	adds	r3, #48	; 0x30
 800a5f2:	ea54 0005 	orrs.w	r0, r4, r5
 800a5f6:	f801 3c01 	strb.w	r3, [r1, #-1]
 800a5fa:	f101 32ff 	add.w	r2, r1, #4294967295
 800a5fe:	d1ee      	bne.n	800a5de <_svfprintf_r+0x37e>
 800a600:	9803      	ldr	r0, [sp, #12]
 800a602:	920d      	str	r2, [sp, #52]	; 0x34
 800a604:	07c0      	lsls	r0, r0, #31
 800a606:	f100 8459 	bmi.w	800aebc <_svfprintf_r+0xc5c>
 800a60a:	eba8 0302 	sub.w	r3, r8, r2
 800a60e:	930a      	str	r3, [sp, #40]	; 0x28
 800a610:	9b05      	ldr	r3, [sp, #20]
 800a612:	9a0a      	ldr	r2, [sp, #40]	; 0x28
 800a614:	4293      	cmp	r3, r2
 800a616:	bfb8      	it	lt
 800a618:	4613      	movlt	r3, r2
 800a61a:	9304      	str	r3, [sp, #16]
 800a61c:	2300      	movs	r3, #0
 800a61e:	930e      	str	r3, [sp, #56]	; 0x38
 800a620:	e785      	b.n	800a52e <_svfprintf_r+0x2ce>
 800a622:	990b      	ldr	r1, [sp, #44]	; 0x2c
 800a624:	2300      	movs	r3, #0
 800a626:	680a      	ldr	r2, [r1, #0]
 800a628:	f88d 306f 	strb.w	r3, [sp, #111]	; 0x6f
 800a62c:	461e      	mov	r6, r3
 800a62e:	f88d 2098 	strb.w	r2, [sp, #152]	; 0x98
 800a632:	2301      	movs	r3, #1
 800a634:	1d0a      	adds	r2, r1, #4
 800a636:	e9cd 7303 	strd	r7, r3, [sp, #12]
 800a63a:	e9cd 320a 	strd	r3, r2, [sp, #40]	; 0x28
 800a63e:	ab26      	add	r3, sp, #152	; 0x98
 800a640:	9605      	str	r6, [sp, #20]
 800a642:	960e      	str	r6, [sp, #56]	; 0x38
 800a644:	930d      	str	r3, [sp, #52]	; 0x34
 800a646:	9b03      	ldr	r3, [sp, #12]
 800a648:	f013 0702 	ands.w	r7, r3, #2
 800a64c:	d002      	beq.n	800a654 <_svfprintf_r+0x3f4>
 800a64e:	9b04      	ldr	r3, [sp, #16]
 800a650:	3302      	adds	r3, #2
 800a652:	9304      	str	r3, [sp, #16]
 800a654:	9b03      	ldr	r3, [sp, #12]
 800a656:	9c25      	ldr	r4, [sp, #148]	; 0x94
 800a658:	f013 0384 	ands.w	r3, r3, #132	; 0x84
 800a65c:	930c      	str	r3, [sp, #48]	; 0x30
 800a65e:	d13f      	bne.n	800a6e0 <_svfprintf_r+0x480>
 800a660:	9b07      	ldr	r3, [sp, #28]
 800a662:	9a04      	ldr	r2, [sp, #16]
 800a664:	1a9d      	subs	r5, r3, r2
 800a666:	2d00      	cmp	r5, #0
 800a668:	dd3a      	ble.n	800a6e0 <_svfprintf_r+0x480>
 800a66a:	2d10      	cmp	r5, #16
 800a66c:	9b24      	ldr	r3, [sp, #144]	; 0x90
 800a66e:	dd29      	ble.n	800a6c4 <_svfprintf_r+0x464>
 800a670:	4652      	mov	r2, sl
 800a672:	4621      	mov	r1, r4
 800a674:	46aa      	mov	sl, r5
 800a676:	2610      	movs	r6, #16
 800a678:	e9dd 5408 	ldrd	r5, r4, [sp, #32]
 800a67c:	e006      	b.n	800a68c <_svfprintf_r+0x42c>
 800a67e:	f1aa 0a10 	sub.w	sl, sl, #16
 800a682:	f1ba 0f10 	cmp.w	sl, #16
 800a686:	f102 0208 	add.w	r2, r2, #8
 800a68a:	dd18      	ble.n	800a6be <_svfprintf_r+0x45e>
 800a68c:	3301      	adds	r3, #1
 800a68e:	48bb      	ldr	r0, [pc, #748]	; (800a97c <_svfprintf_r+0x71c>)
 800a690:	3110      	adds	r1, #16
 800a692:	2b07      	cmp	r3, #7
 800a694:	e9cd 3124 	strd	r3, r1, [sp, #144]	; 0x90
 800a698:	e9c2 0600 	strd	r0, r6, [r2]
 800a69c:	ddef      	ble.n	800a67e <_svfprintf_r+0x41e>
 800a69e:	aa23      	add	r2, sp, #140	; 0x8c
 800a6a0:	4629      	mov	r1, r5
 800a6a2:	4620      	mov	r0, r4
 800a6a4:	f002 fc44 	bl	800cf30 <__ssprint_r>
 800a6a8:	2800      	cmp	r0, #0
 800a6aa:	f47f aea6 	bne.w	800a3fa <_svfprintf_r+0x19a>
 800a6ae:	f1aa 0a10 	sub.w	sl, sl, #16
 800a6b2:	f1ba 0f10 	cmp.w	sl, #16
 800a6b6:	e9dd 3124 	ldrd	r3, r1, [sp, #144]	; 0x90
 800a6ba:	4642      	mov	r2, r8
 800a6bc:	dce6      	bgt.n	800a68c <_svfprintf_r+0x42c>
 800a6be:	4655      	mov	r5, sl
 800a6c0:	460c      	mov	r4, r1
 800a6c2:	4692      	mov	sl, r2
 800a6c4:	3301      	adds	r3, #1
 800a6c6:	4aad      	ldr	r2, [pc, #692]	; (800a97c <_svfprintf_r+0x71c>)
 800a6c8:	442c      	add	r4, r5
 800a6ca:	2b07      	cmp	r3, #7
 800a6cc:	e9cd 3424 	strd	r3, r4, [sp, #144]	; 0x90
 800a6d0:	e9ca 2500 	strd	r2, r5, [sl]
 800a6d4:	f300 8549 	bgt.w	800b16a <_svfprintf_r+0xf0a>
 800a6d8:	f89d 606f 	ldrb.w	r6, [sp, #111]	; 0x6f
 800a6dc:	f10a 0a08 	add.w	sl, sl, #8
 800a6e0:	b176      	cbz	r6, 800a700 <_svfprintf_r+0x4a0>
 800a6e2:	9b24      	ldr	r3, [sp, #144]	; 0x90
 800a6e4:	3301      	adds	r3, #1
 800a6e6:	3401      	adds	r4, #1
 800a6e8:	f10d 016f 	add.w	r1, sp, #111	; 0x6f
 800a6ec:	2201      	movs	r2, #1
 800a6ee:	2b07      	cmp	r3, #7
 800a6f0:	e9cd 3424 	strd	r3, r4, [sp, #144]	; 0x90
 800a6f4:	e9ca 1200 	strd	r1, r2, [sl]
 800a6f8:	f300 82db 	bgt.w	800acb2 <_svfprintf_r+0xa52>
 800a6fc:	f10a 0a08 	add.w	sl, sl, #8
 800a700:	b16f      	cbz	r7, 800a71e <_svfprintf_r+0x4be>
 800a702:	9b24      	ldr	r3, [sp, #144]	; 0x90
 800a704:	3301      	adds	r3, #1
 800a706:	3402      	adds	r4, #2
 800a708:	a91c      	add	r1, sp, #112	; 0x70
 800a70a:	2202      	movs	r2, #2
 800a70c:	2b07      	cmp	r3, #7
 800a70e:	e9cd 3424 	strd	r3, r4, [sp, #144]	; 0x90
 800a712:	e9ca 1200 	strd	r1, r2, [sl]
 800a716:	f300 82d7 	bgt.w	800acc8 <_svfprintf_r+0xa68>
 800a71a:	f10a 0a08 	add.w	sl, sl, #8
 800a71e:	9b0c      	ldr	r3, [sp, #48]	; 0x30
 800a720:	2b80      	cmp	r3, #128	; 0x80
 800a722:	f000 81e7 	beq.w	800aaf4 <_svfprintf_r+0x894>
 800a726:	9b05      	ldr	r3, [sp, #20]
 800a728:	9a0a      	ldr	r2, [sp, #40]	; 0x28
 800a72a:	1a9d      	subs	r5, r3, r2
 800a72c:	2d00      	cmp	r5, #0
 800a72e:	dd31      	ble.n	800a794 <_svfprintf_r+0x534>
 800a730:	2d10      	cmp	r5, #16
 800a732:	9a24      	ldr	r2, [sp, #144]	; 0x90
 800a734:	4f92      	ldr	r7, [pc, #584]	; (800a980 <_svfprintf_r+0x720>)
 800a736:	dd22      	ble.n	800a77e <_svfprintf_r+0x51e>
 800a738:	4653      	mov	r3, sl
 800a73a:	4621      	mov	r1, r4
 800a73c:	2610      	movs	r6, #16
 800a73e:	e9dd a408 	ldrd	sl, r4, [sp, #32]
 800a742:	e004      	b.n	800a74e <_svfprintf_r+0x4ee>
 800a744:	3d10      	subs	r5, #16
 800a746:	2d10      	cmp	r5, #16
 800a748:	f103 0308 	add.w	r3, r3, #8
 800a74c:	dd15      	ble.n	800a77a <_svfprintf_r+0x51a>
 800a74e:	3201      	adds	r2, #1
 800a750:	3110      	adds	r1, #16
 800a752:	2a07      	cmp	r2, #7
 800a754:	e9cd 2124 	strd	r2, r1, [sp, #144]	; 0x90
 800a758:	e9c3 7600 	strd	r7, r6, [r3]
 800a75c:	ddf2      	ble.n	800a744 <_svfprintf_r+0x4e4>
 800a75e:	aa23      	add	r2, sp, #140	; 0x8c
 800a760:	4651      	mov	r1, sl
 800a762:	4620      	mov	r0, r4
 800a764:	f002 fbe4 	bl	800cf30 <__ssprint_r>
 800a768:	2800      	cmp	r0, #0
 800a76a:	f47f ae46 	bne.w	800a3fa <_svfprintf_r+0x19a>
 800a76e:	3d10      	subs	r5, #16
 800a770:	2d10      	cmp	r5, #16
 800a772:	e9dd 2124 	ldrd	r2, r1, [sp, #144]	; 0x90
 800a776:	4643      	mov	r3, r8
 800a778:	dce9      	bgt.n	800a74e <_svfprintf_r+0x4ee>
 800a77a:	469a      	mov	sl, r3
 800a77c:	460c      	mov	r4, r1
 800a77e:	3201      	adds	r2, #1
 800a780:	442c      	add	r4, r5
 800a782:	2a07      	cmp	r2, #7
 800a784:	e9cd 2424 	strd	r2, r4, [sp, #144]	; 0x90
 800a788:	e9ca 7500 	strd	r7, r5, [sl]
 800a78c:	f300 82bc 	bgt.w	800ad08 <_svfprintf_r+0xaa8>
 800a790:	f10a 0a08 	add.w	sl, sl, #8
 800a794:	9b03      	ldr	r3, [sp, #12]
 800a796:	05df      	lsls	r7, r3, #23
 800a798:	f100 8150 	bmi.w	800aa3c <_svfprintf_r+0x7dc>
 800a79c:	9b24      	ldr	r3, [sp, #144]	; 0x90
 800a79e:	9a0d      	ldr	r2, [sp, #52]	; 0x34
 800a7a0:	f8ca 2000 	str.w	r2, [sl]
 800a7a4:	9a0a      	ldr	r2, [sp, #40]	; 0x28
 800a7a6:	f8ca 2004 	str.w	r2, [sl, #4]
 800a7aa:	3301      	adds	r3, #1
 800a7ac:	4414      	add	r4, r2
 800a7ae:	2b07      	cmp	r3, #7
 800a7b0:	9425      	str	r4, [sp, #148]	; 0x94
 800a7b2:	9324      	str	r3, [sp, #144]	; 0x90
 800a7b4:	f300 820e 	bgt.w	800abd4 <_svfprintf_r+0x974>
 800a7b8:	f10a 0a08 	add.w	sl, sl, #8
 800a7bc:	9b03      	ldr	r3, [sp, #12]
 800a7be:	075a      	lsls	r2, r3, #29
 800a7c0:	d531      	bpl.n	800a826 <_svfprintf_r+0x5c6>
 800a7c2:	9b07      	ldr	r3, [sp, #28]
 800a7c4:	9a04      	ldr	r2, [sp, #16]
 800a7c6:	1a9d      	subs	r5, r3, r2
 800a7c8:	2d00      	cmp	r5, #0
 800a7ca:	dd2c      	ble.n	800a826 <_svfprintf_r+0x5c6>
 800a7cc:	2d10      	cmp	r5, #16
 800a7ce:	9b24      	ldr	r3, [sp, #144]	; 0x90
 800a7d0:	dd1f      	ble.n	800a812 <_svfprintf_r+0x5b2>
 800a7d2:	2610      	movs	r6, #16
 800a7d4:	e9dd 9708 	ldrd	r9, r7, [sp, #32]
 800a7d8:	e004      	b.n	800a7e4 <_svfprintf_r+0x584>
 800a7da:	3d10      	subs	r5, #16
 800a7dc:	2d10      	cmp	r5, #16
 800a7de:	f10a 0a08 	add.w	sl, sl, #8
 800a7e2:	dd16      	ble.n	800a812 <_svfprintf_r+0x5b2>
 800a7e4:	3301      	adds	r3, #1
 800a7e6:	4a65      	ldr	r2, [pc, #404]	; (800a97c <_svfprintf_r+0x71c>)
 800a7e8:	3410      	adds	r4, #16
 800a7ea:	2b07      	cmp	r3, #7
 800a7ec:	e9cd 3424 	strd	r3, r4, [sp, #144]	; 0x90
 800a7f0:	e9ca 2600 	strd	r2, r6, [sl]
 800a7f4:	ddf1      	ble.n	800a7da <_svfprintf_r+0x57a>
 800a7f6:	aa23      	add	r2, sp, #140	; 0x8c
 800a7f8:	4649      	mov	r1, r9
 800a7fa:	4638      	mov	r0, r7
 800a7fc:	f002 fb98 	bl	800cf30 <__ssprint_r>
 800a800:	2800      	cmp	r0, #0
 800a802:	f47f adfa 	bne.w	800a3fa <_svfprintf_r+0x19a>
 800a806:	3d10      	subs	r5, #16
 800a808:	2d10      	cmp	r5, #16
 800a80a:	e9dd 3424 	ldrd	r3, r4, [sp, #144]	; 0x90
 800a80e:	46c2      	mov	sl, r8
 800a810:	dce8      	bgt.n	800a7e4 <_svfprintf_r+0x584>
 800a812:	3301      	adds	r3, #1
 800a814:	4a59      	ldr	r2, [pc, #356]	; (800a97c <_svfprintf_r+0x71c>)
 800a816:	442c      	add	r4, r5
 800a818:	2b07      	cmp	r3, #7
 800a81a:	e9cd 3424 	strd	r3, r4, [sp, #144]	; 0x90
 800a81e:	e9ca 2500 	strd	r2, r5, [sl]
 800a822:	f300 835e 	bgt.w	800aee2 <_svfprintf_r+0xc82>
 800a826:	e9dd 3206 	ldrd	r3, r2, [sp, #24]
 800a82a:	9904      	ldr	r1, [sp, #16]
 800a82c:	428a      	cmp	r2, r1
 800a82e:	bfac      	ite	ge
 800a830:	189b      	addge	r3, r3, r2
 800a832:	185b      	addlt	r3, r3, r1
 800a834:	9306      	str	r3, [sp, #24]
 800a836:	2c00      	cmp	r4, #0
 800a838:	f040 8195 	bne.w	800ab66 <_svfprintf_r+0x906>
 800a83c:	2300      	movs	r3, #0
 800a83e:	9324      	str	r3, [sp, #144]	; 0x90
 800a840:	46c2      	mov	sl, r8
 800a842:	e535      	b.n	800a2b0 <_svfprintf_r+0x50>
 800a844:	2a00      	cmp	r2, #0
 800a846:	f040 8710 	bne.w	800b66a <_svfprintf_r+0x140a>
 800a84a:	4b4e      	ldr	r3, [pc, #312]	; (800a984 <_svfprintf_r+0x724>)
 800a84c:	9312      	str	r3, [sp, #72]	; 0x48
 800a84e:	06b9      	lsls	r1, r7, #26
 800a850:	d53d      	bpl.n	800a8ce <_svfprintf_r+0x66e>
 800a852:	9d0b      	ldr	r5, [sp, #44]	; 0x2c
 800a854:	3507      	adds	r5, #7
 800a856:	f025 0307 	bic.w	r3, r5, #7
 800a85a:	e9d3 4500 	ldrd	r4, r5, [r3]
 800a85e:	f103 0208 	add.w	r2, r3, #8
 800a862:	920b      	str	r2, [sp, #44]	; 0x2c
 800a864:	07fe      	lsls	r6, r7, #31
 800a866:	f140 80d1 	bpl.w	800aa0c <_svfprintf_r+0x7ac>
 800a86a:	ea54 0305 	orrs.w	r3, r4, r5
 800a86e:	f000 80cd 	beq.w	800aa0c <_svfprintf_r+0x7ac>
 800a872:	2330      	movs	r3, #48	; 0x30
 800a874:	f88d 3070 	strb.w	r3, [sp, #112]	; 0x70
 800a878:	f88d 9071 	strb.w	r9, [sp, #113]	; 0x71
 800a87c:	f047 0702 	orr.w	r7, r7, #2
 800a880:	2302      	movs	r3, #2
 800a882:	e5d6      	b.n	800a432 <_svfprintf_r+0x1d2>
 800a884:	f89b 3000 	ldrb.w	r3, [fp]
 800a888:	2201      	movs	r2, #1
 800a88a:	212b      	movs	r1, #43	; 0x2b
 800a88c:	e543      	b.n	800a316 <_svfprintf_r+0xb6>
 800a88e:	980b      	ldr	r0, [sp, #44]	; 0x2c
 800a890:	f89b 3000 	ldrb.w	r3, [fp]
 800a894:	6804      	ldr	r4, [r0, #0]
 800a896:	9407      	str	r4, [sp, #28]
 800a898:	2c00      	cmp	r4, #0
 800a89a:	f100 0004 	add.w	r0, r0, #4
 800a89e:	f2c0 840a 	blt.w	800b0b6 <_svfprintf_r+0xe56>
 800a8a2:	900b      	str	r0, [sp, #44]	; 0x2c
 800a8a4:	e537      	b.n	800a316 <_svfprintf_r+0xb6>
 800a8a6:	f047 0701 	orr.w	r7, r7, #1
 800a8aa:	f89b 3000 	ldrb.w	r3, [fp]
 800a8ae:	e532      	b.n	800a316 <_svfprintf_r+0xb6>
 800a8b0:	f89b 3000 	ldrb.w	r3, [fp]
 800a8b4:	2900      	cmp	r1, #0
 800a8b6:	f47f ad2e 	bne.w	800a316 <_svfprintf_r+0xb6>
 800a8ba:	2201      	movs	r2, #1
 800a8bc:	2120      	movs	r1, #32
 800a8be:	e52a      	b.n	800a316 <_svfprintf_r+0xb6>
 800a8c0:	2a00      	cmp	r2, #0
 800a8c2:	f040 86e6 	bne.w	800b692 <_svfprintf_r+0x1432>
 800a8c6:	4b30      	ldr	r3, [pc, #192]	; (800a988 <_svfprintf_r+0x728>)
 800a8c8:	9312      	str	r3, [sp, #72]	; 0x48
 800a8ca:	06b9      	lsls	r1, r7, #26
 800a8cc:	d4c1      	bmi.n	800a852 <_svfprintf_r+0x5f2>
 800a8ce:	9b0b      	ldr	r3, [sp, #44]	; 0x2c
 800a8d0:	06fa      	lsls	r2, r7, #27
 800a8d2:	f853 4b04 	ldr.w	r4, [r3], #4
 800a8d6:	930b      	str	r3, [sp, #44]	; 0x2c
 800a8d8:	f100 8311 	bmi.w	800aefe <_svfprintf_r+0xc9e>
 800a8dc:	067b      	lsls	r3, r7, #25
 800a8de:	f140 830e 	bpl.w	800aefe <_svfprintf_r+0xc9e>
 800a8e2:	b2a4      	uxth	r4, r4
 800a8e4:	2500      	movs	r5, #0
 800a8e6:	e7bd      	b.n	800a864 <_svfprintf_r+0x604>
 800a8e8:	f047 0708 	orr.w	r7, r7, #8
 800a8ec:	f89b 3000 	ldrb.w	r3, [fp]
 800a8f0:	e511      	b.n	800a316 <_svfprintf_r+0xb6>
 800a8f2:	2a00      	cmp	r2, #0
 800a8f4:	f040 86bd 	bne.w	800b672 <_svfprintf_r+0x1412>
 800a8f8:	9d0b      	ldr	r5, [sp, #44]	; 0x2c
 800a8fa:	3507      	adds	r5, #7
 800a8fc:	f025 0507 	bic.w	r5, r5, #7
 800a900:	ed95 7b00 	vldr	d7, [r5]
 800a904:	ec52 1b17 	vmov	r1, r2, d7
 800a908:	f022 4300 	bic.w	r3, r2, #2147483648	; 0x80000000
 800a90c:	9317      	str	r3, [sp, #92]	; 0x5c
 800a90e:	ed8d 7a16 	vstr	s14, [sp, #88]	; 0x58
 800a912:	f105 0408 	add.w	r4, r5, #8
 800a916:	e9dd 0116 	ldrd	r0, r1, [sp, #88]	; 0x58
 800a91a:	f04f 32ff 	mov.w	r2, #4294967295
 800a91e:	4b1b      	ldr	r3, [pc, #108]	; (800a98c <_svfprintf_r+0x72c>)
 800a920:	940b      	str	r4, [sp, #44]	; 0x2c
 800a922:	ed8d 7b10 	vstr	d7, [sp, #64]	; 0x40
 800a926:	f7f6 fc5b 	bl	80011e0 <__aeabi_dcmpun>
 800a92a:	2800      	cmp	r0, #0
 800a92c:	f040 8331 	bne.w	800af92 <_svfprintf_r+0xd32>
 800a930:	f04f 32ff 	mov.w	r2, #4294967295
 800a934:	4b15      	ldr	r3, [pc, #84]	; (800a98c <_svfprintf_r+0x72c>)
 800a936:	e9dd 0116 	ldrd	r0, r1, [sp, #88]	; 0x58
 800a93a:	f7f6 f923 	bl	8000b84 <__aeabi_dcmple>
 800a93e:	2800      	cmp	r0, #0
 800a940:	f040 8327 	bne.w	800af92 <_svfprintf_r+0xd32>
 800a944:	2200      	movs	r2, #0
 800a946:	2300      	movs	r3, #0
 800a948:	e9dd 0110 	ldrd	r0, r1, [sp, #64]	; 0x40
 800a94c:	f7f6 f910 	bl	8000b70 <__aeabi_dcmplt>
 800a950:	2800      	cmp	r0, #0
 800a952:	f040 8525 	bne.w	800b3a0 <_svfprintf_r+0x1140>
 800a956:	f89d 606f 	ldrb.w	r6, [sp, #111]	; 0x6f
 800a95a:	4a0d      	ldr	r2, [pc, #52]	; (800a990 <_svfprintf_r+0x730>)
 800a95c:	4b0d      	ldr	r3, [pc, #52]	; (800a994 <_svfprintf_r+0x734>)
 800a95e:	2103      	movs	r1, #3
 800a960:	2000      	movs	r0, #0
 800a962:	f027 0480 	bic.w	r4, r7, #128	; 0x80
 800a966:	f1b9 0f47 	cmp.w	r9, #71	; 0x47
 800a96a:	bfd8      	it	le
 800a96c:	461a      	movle	r2, r3
 800a96e:	e9cd 1004 	strd	r1, r0, [sp, #16]
 800a972:	9403      	str	r4, [sp, #12]
 800a974:	920d      	str	r2, [sp, #52]	; 0x34
 800a976:	910a      	str	r1, [sp, #40]	; 0x28
 800a978:	900e      	str	r0, [sp, #56]	; 0x38
 800a97a:	e5d8      	b.n	800a52e <_svfprintf_r+0x2ce>
 800a97c:	0800df20 	.word	0x0800df20
 800a980:	0800df30 	.word	0x0800df30
 800a984:	0800def0 	.word	0x0800def0
 800a988:	0800df04 	.word	0x0800df04
 800a98c:	7fefffff 	.word	0x7fefffff
 800a990:	0800dee4 	.word	0x0800dee4
 800a994:	0800dee0 	.word	0x0800dee0
 800a998:	2a00      	cmp	r2, #0
 800a99a:	f040 866e 	bne.w	800b67a <_svfprintf_r+0x141a>
 800a99e:	f047 0710 	orr.w	r7, r7, #16
 800a9a2:	06bc      	lsls	r4, r7, #26
 800a9a4:	f53f adf6 	bmi.w	800a594 <_svfprintf_r+0x334>
 800a9a8:	9b0b      	ldr	r3, [sp, #44]	; 0x2c
 800a9aa:	06f8      	lsls	r0, r7, #27
 800a9ac:	f853 4b04 	ldr.w	r4, [r3], #4
 800a9b0:	930b      	str	r3, [sp, #44]	; 0x2c
 800a9b2:	f100 82a6 	bmi.w	800af02 <_svfprintf_r+0xca2>
 800a9b6:	0679      	lsls	r1, r7, #25
 800a9b8:	f140 82a3 	bpl.w	800af02 <_svfprintf_r+0xca2>
 800a9bc:	b224      	sxth	r4, r4
 800a9be:	17e5      	asrs	r5, r4, #31
 800a9c0:	e5f1      	b.n	800a5a6 <_svfprintf_r+0x346>
 800a9c2:	f89b 9000 	ldrb.w	r9, [fp]
 800a9c6:	f1b9 0f2a 	cmp.w	r9, #42	; 0x2a
 800a9ca:	f10b 0001 	add.w	r0, fp, #1
 800a9ce:	f000 8618 	beq.w	800b602 <_svfprintf_r+0x13a2>
 800a9d2:	f1a9 0330 	sub.w	r3, r9, #48	; 0x30
 800a9d6:	2b09      	cmp	r3, #9
 800a9d8:	4683      	mov	fp, r0
 800a9da:	f200 8507 	bhi.w	800b3ec <_svfprintf_r+0x118c>
 800a9de:	2000      	movs	r0, #0
 800a9e0:	f81b 9b01 	ldrb.w	r9, [fp], #1
 800a9e4:	eb00 0080 	add.w	r0, r0, r0, lsl #2
 800a9e8:	eb03 0040 	add.w	r0, r3, r0, lsl #1
 800a9ec:	f1a9 0330 	sub.w	r3, r9, #48	; 0x30
 800a9f0:	2b09      	cmp	r3, #9
 800a9f2:	d9f5      	bls.n	800a9e0 <_svfprintf_r+0x780>
 800a9f4:	9005      	str	r0, [sp, #20]
 800a9f6:	e491      	b.n	800a31c <_svfprintf_r+0xbc>
 800a9f8:	f89b 3000 	ldrb.w	r3, [fp]
 800a9fc:	f047 0704 	orr.w	r7, r7, #4
 800aa00:	e489      	b.n	800a316 <_svfprintf_r+0xb6>
 800aa02:	f047 0780 	orr.w	r7, r7, #128	; 0x80
 800aa06:	f89b 3000 	ldrb.w	r3, [fp]
 800aa0a:	e484      	b.n	800a316 <_svfprintf_r+0xb6>
 800aa0c:	2302      	movs	r3, #2
 800aa0e:	e510      	b.n	800a432 <_svfprintf_r+0x1d2>
 800aa10:	2a00      	cmp	r2, #0
 800aa12:	f040 8636 	bne.w	800b682 <_svfprintf_r+0x1422>
 800aa16:	f1b9 0f00 	cmp.w	r9, #0
 800aa1a:	f43f ace7 	beq.w	800a3ec <_svfprintf_r+0x18c>
 800aa1e:	2300      	movs	r3, #0
 800aa20:	2201      	movs	r2, #1
 800aa22:	461e      	mov	r6, r3
 800aa24:	f88d 306f 	strb.w	r3, [sp, #111]	; 0x6f
 800aa28:	9305      	str	r3, [sp, #20]
 800aa2a:	930e      	str	r3, [sp, #56]	; 0x38
 800aa2c:	ab26      	add	r3, sp, #152	; 0x98
 800aa2e:	9204      	str	r2, [sp, #16]
 800aa30:	f88d 9098 	strb.w	r9, [sp, #152]	; 0x98
 800aa34:	9703      	str	r7, [sp, #12]
 800aa36:	920a      	str	r2, [sp, #40]	; 0x28
 800aa38:	930d      	str	r3, [sp, #52]	; 0x34
 800aa3a:	e604      	b.n	800a646 <_svfprintf_r+0x3e6>
 800aa3c:	f1b9 0f65 	cmp.w	r9, #101	; 0x65
 800aa40:	f340 80d3 	ble.w	800abea <_svfprintf_r+0x98a>
 800aa44:	2200      	movs	r2, #0
 800aa46:	2300      	movs	r3, #0
 800aa48:	e9dd 0110 	ldrd	r0, r1, [sp, #64]	; 0x40
 800aa4c:	f7f6 f886 	bl	8000b5c <__aeabi_dcmpeq>
 800aa50:	2800      	cmp	r0, #0
 800aa52:	f000 8169 	beq.w	800ad28 <_svfprintf_r+0xac8>
 800aa56:	9b24      	ldr	r3, [sp, #144]	; 0x90
 800aa58:	4ab1      	ldr	r2, [pc, #708]	; (800ad20 <_svfprintf_r+0xac0>)
 800aa5a:	f8ca 2000 	str.w	r2, [sl]
 800aa5e:	3301      	adds	r3, #1
 800aa60:	3401      	adds	r4, #1
 800aa62:	2201      	movs	r2, #1
 800aa64:	2b07      	cmp	r3, #7
 800aa66:	e9cd 3424 	strd	r3, r4, [sp, #144]	; 0x90
 800aa6a:	f8ca 2004 	str.w	r2, [sl, #4]
 800aa6e:	f300 83ce 	bgt.w	800b20e <_svfprintf_r+0xfae>
 800aa72:	f10a 0a08 	add.w	sl, sl, #8
 800aa76:	9b1d      	ldr	r3, [sp, #116]	; 0x74
 800aa78:	9a0f      	ldr	r2, [sp, #60]	; 0x3c
 800aa7a:	9c25      	ldr	r4, [sp, #148]	; 0x94
 800aa7c:	4293      	cmp	r3, r2
 800aa7e:	f280 822b 	bge.w	800aed8 <_svfprintf_r+0xc78>
 800aa82:	9b24      	ldr	r3, [sp, #144]	; 0x90
 800aa84:	9a14      	ldr	r2, [sp, #80]	; 0x50
 800aa86:	f8ca 2000 	str.w	r2, [sl]
 800aa8a:	9a13      	ldr	r2, [sp, #76]	; 0x4c
 800aa8c:	f8ca 2004 	str.w	r2, [sl, #4]
 800aa90:	3301      	adds	r3, #1
 800aa92:	4414      	add	r4, r2
 800aa94:	2b07      	cmp	r3, #7
 800aa96:	e9cd 3424 	strd	r3, r4, [sp, #144]	; 0x90
 800aa9a:	f300 8331 	bgt.w	800b100 <_svfprintf_r+0xea0>
 800aa9e:	f10a 0a08 	add.w	sl, sl, #8
 800aaa2:	9b0f      	ldr	r3, [sp, #60]	; 0x3c
 800aaa4:	1e5d      	subs	r5, r3, #1
 800aaa6:	2d00      	cmp	r5, #0
 800aaa8:	f77f ae88 	ble.w	800a7bc <_svfprintf_r+0x55c>
 800aaac:	2d10      	cmp	r5, #16
 800aaae:	9a24      	ldr	r2, [sp, #144]	; 0x90
 800aab0:	4f9c      	ldr	r7, [pc, #624]	; (800ad24 <_svfprintf_r+0xac4>)
 800aab2:	f340 8385 	ble.w	800b1c0 <_svfprintf_r+0xf60>
 800aab6:	4623      	mov	r3, r4
 800aab8:	2610      	movs	r6, #16
 800aaba:	e9dd 4908 	ldrd	r4, r9, [sp, #32]
 800aabe:	e005      	b.n	800aacc <_svfprintf_r+0x86c>
 800aac0:	f10a 0a08 	add.w	sl, sl, #8
 800aac4:	3d10      	subs	r5, #16
 800aac6:	2d10      	cmp	r5, #16
 800aac8:	f340 8379 	ble.w	800b1be <_svfprintf_r+0xf5e>
 800aacc:	3201      	adds	r2, #1
 800aace:	3310      	adds	r3, #16
 800aad0:	2a07      	cmp	r2, #7
 800aad2:	e9cd 2324 	strd	r2, r3, [sp, #144]	; 0x90
 800aad6:	e9ca 7600 	strd	r7, r6, [sl]
 800aada:	ddf1      	ble.n	800aac0 <_svfprintf_r+0x860>
 800aadc:	aa23      	add	r2, sp, #140	; 0x8c
 800aade:	4621      	mov	r1, r4
 800aae0:	4648      	mov	r0, r9
 800aae2:	f002 fa25 	bl	800cf30 <__ssprint_r>
 800aae6:	2800      	cmp	r0, #0
 800aae8:	f47f ac87 	bne.w	800a3fa <_svfprintf_r+0x19a>
 800aaec:	e9dd 2324 	ldrd	r2, r3, [sp, #144]	; 0x90
 800aaf0:	46c2      	mov	sl, r8
 800aaf2:	e7e7      	b.n	800aac4 <_svfprintf_r+0x864>
 800aaf4:	9b07      	ldr	r3, [sp, #28]
 800aaf6:	9a04      	ldr	r2, [sp, #16]
 800aaf8:	1a9d      	subs	r5, r3, r2
 800aafa:	2d00      	cmp	r5, #0
 800aafc:	f77f ae13 	ble.w	800a726 <_svfprintf_r+0x4c6>
 800ab00:	2d10      	cmp	r5, #16
 800ab02:	9a24      	ldr	r2, [sp, #144]	; 0x90
 800ab04:	4f87      	ldr	r7, [pc, #540]	; (800ad24 <_svfprintf_r+0xac4>)
 800ab06:	dd22      	ble.n	800ab4e <_svfprintf_r+0x8ee>
 800ab08:	4653      	mov	r3, sl
 800ab0a:	4621      	mov	r1, r4
 800ab0c:	2610      	movs	r6, #16
 800ab0e:	e9dd a408 	ldrd	sl, r4, [sp, #32]
 800ab12:	e004      	b.n	800ab1e <_svfprintf_r+0x8be>
 800ab14:	3d10      	subs	r5, #16
 800ab16:	2d10      	cmp	r5, #16
 800ab18:	f103 0308 	add.w	r3, r3, #8
 800ab1c:	dd15      	ble.n	800ab4a <_svfprintf_r+0x8ea>
 800ab1e:	3201      	adds	r2, #1
 800ab20:	3110      	adds	r1, #16
 800ab22:	2a07      	cmp	r2, #7
 800ab24:	e9cd 2124 	strd	r2, r1, [sp, #144]	; 0x90
 800ab28:	e9c3 7600 	strd	r7, r6, [r3]
 800ab2c:	ddf2      	ble.n	800ab14 <_svfprintf_r+0x8b4>
 800ab2e:	aa23      	add	r2, sp, #140	; 0x8c
 800ab30:	4651      	mov	r1, sl
 800ab32:	4620      	mov	r0, r4
 800ab34:	f002 f9fc 	bl	800cf30 <__ssprint_r>
 800ab38:	2800      	cmp	r0, #0
 800ab3a:	f47f ac5e 	bne.w	800a3fa <_svfprintf_r+0x19a>
 800ab3e:	3d10      	subs	r5, #16
 800ab40:	2d10      	cmp	r5, #16
 800ab42:	e9dd 2124 	ldrd	r2, r1, [sp, #144]	; 0x90
 800ab46:	4643      	mov	r3, r8
 800ab48:	dce9      	bgt.n	800ab1e <_svfprintf_r+0x8be>
 800ab4a:	469a      	mov	sl, r3
 800ab4c:	460c      	mov	r4, r1
 800ab4e:	3201      	adds	r2, #1
 800ab50:	442c      	add	r4, r5
 800ab52:	2a07      	cmp	r2, #7
 800ab54:	e9cd 2424 	strd	r2, r4, [sp, #144]	; 0x90
 800ab58:	e9ca 7500 	strd	r7, r5, [sl]
 800ab5c:	f300 833a 	bgt.w	800b1d4 <_svfprintf_r+0xf74>
 800ab60:	f10a 0a08 	add.w	sl, sl, #8
 800ab64:	e5df      	b.n	800a726 <_svfprintf_r+0x4c6>
 800ab66:	aa23      	add	r2, sp, #140	; 0x8c
 800ab68:	e9dd 1008 	ldrd	r1, r0, [sp, #32]
 800ab6c:	f002 f9e0 	bl	800cf30 <__ssprint_r>
 800ab70:	2800      	cmp	r0, #0
 800ab72:	f43f ae63 	beq.w	800a83c <_svfprintf_r+0x5dc>
 800ab76:	e440      	b.n	800a3fa <_svfprintf_r+0x19a>
 800ab78:	aa23      	add	r2, sp, #140	; 0x8c
 800ab7a:	e9dd 1008 	ldrd	r1, r0, [sp, #32]
 800ab7e:	f002 f9d7 	bl	800cf30 <__ssprint_r>
 800ab82:	2800      	cmp	r0, #0
 800ab84:	f47f ac39 	bne.w	800a3fa <_svfprintf_r+0x19a>
 800ab88:	9b1d      	ldr	r3, [sp, #116]	; 0x74
 800ab8a:	9c25      	ldr	r4, [sp, #148]	; 0x94
 800ab8c:	46c2      	mov	sl, r8
 800ab8e:	b91b      	cbnz	r3, 800ab98 <_svfprintf_r+0x938>
 800ab90:	9a0f      	ldr	r2, [sp, #60]	; 0x3c
 800ab92:	2a00      	cmp	r2, #0
 800ab94:	f000 8375 	beq.w	800b282 <_svfprintf_r+0x1022>
 800ab98:	9a24      	ldr	r2, [sp, #144]	; 0x90
 800ab9a:	9914      	ldr	r1, [sp, #80]	; 0x50
 800ab9c:	f8ca 1000 	str.w	r1, [sl]
 800aba0:	9913      	ldr	r1, [sp, #76]	; 0x4c
 800aba2:	f8ca 1004 	str.w	r1, [sl, #4]
 800aba6:	3201      	adds	r2, #1
 800aba8:	440c      	add	r4, r1
 800abaa:	2a07      	cmp	r2, #7
 800abac:	9425      	str	r4, [sp, #148]	; 0x94
 800abae:	9224      	str	r2, [sp, #144]	; 0x90
 800abb0:	f300 8450 	bgt.w	800b454 <_svfprintf_r+0x11f4>
 800abb4:	f10a 0a08 	add.w	sl, sl, #8
 800abb8:	2b00      	cmp	r3, #0
 800abba:	f2c0 8487 	blt.w	800b4cc <_svfprintf_r+0x126c>
 800abbe:	9b0f      	ldr	r3, [sp, #60]	; 0x3c
 800abc0:	990d      	ldr	r1, [sp, #52]	; 0x34
 800abc2:	3201      	adds	r2, #1
 800abc4:	441c      	add	r4, r3
 800abc6:	2a07      	cmp	r2, #7
 800abc8:	e9cd 2424 	strd	r2, r4, [sp, #144]	; 0x90
 800abcc:	e9ca 1300 	strd	r1, r3, [sl]
 800abd0:	f77f adf2 	ble.w	800a7b8 <_svfprintf_r+0x558>
 800abd4:	aa23      	add	r2, sp, #140	; 0x8c
 800abd6:	e9dd 1008 	ldrd	r1, r0, [sp, #32]
 800abda:	f002 f9a9 	bl	800cf30 <__ssprint_r>
 800abde:	2800      	cmp	r0, #0
 800abe0:	f47f ac0b 	bne.w	800a3fa <_svfprintf_r+0x19a>
 800abe4:	9c25      	ldr	r4, [sp, #148]	; 0x94
 800abe6:	46c2      	mov	sl, r8
 800abe8:	e5e8      	b.n	800a7bc <_svfprintf_r+0x55c>
 800abea:	9a0f      	ldr	r2, [sp, #60]	; 0x3c
 800abec:	9b24      	ldr	r3, [sp, #144]	; 0x90
 800abee:	2a01      	cmp	r2, #1
 800abf0:	f104 0401 	add.w	r4, r4, #1
 800abf4:	f103 0501 	add.w	r5, r3, #1
 800abf8:	f10a 0608 	add.w	r6, sl, #8
 800abfc:	f340 814a 	ble.w	800ae94 <_svfprintf_r+0xc34>
 800ac00:	2301      	movs	r3, #1
 800ac02:	9a0d      	ldr	r2, [sp, #52]	; 0x34
 800ac04:	f8ca 2000 	str.w	r2, [sl]
 800ac08:	2d07      	cmp	r5, #7
 800ac0a:	e9cd 5424 	strd	r5, r4, [sp, #144]	; 0x90
 800ac0e:	f8ca 3004 	str.w	r3, [sl, #4]
 800ac12:	f300 82b8 	bgt.w	800b186 <_svfprintf_r+0xf26>
 800ac16:	9b13      	ldr	r3, [sp, #76]	; 0x4c
 800ac18:	9a14      	ldr	r2, [sp, #80]	; 0x50
 800ac1a:	3501      	adds	r5, #1
 800ac1c:	441c      	add	r4, r3
 800ac1e:	2d07      	cmp	r5, #7
 800ac20:	e9cd 5424 	strd	r5, r4, [sp, #144]	; 0x90
 800ac24:	e9c6 2300 	strd	r2, r3, [r6]
 800ac28:	f300 82b9 	bgt.w	800b19e <_svfprintf_r+0xf3e>
 800ac2c:	3608      	adds	r6, #8
 800ac2e:	1c6b      	adds	r3, r5, #1
 800ac30:	461f      	mov	r7, r3
 800ac32:	46b9      	mov	r9, r7
 800ac34:	9f0f      	ldr	r7, [sp, #60]	; 0x3c
 800ac36:	930a      	str	r3, [sp, #40]	; 0x28
 800ac38:	3f01      	subs	r7, #1
 800ac3a:	2200      	movs	r2, #0
 800ac3c:	2300      	movs	r3, #0
 800ac3e:	e9dd 0110 	ldrd	r0, r1, [sp, #64]	; 0x40
 800ac42:	9705      	str	r7, [sp, #20]
 800ac44:	f106 0a08 	add.w	sl, r6, #8
 800ac48:	f7f5 ff88 	bl	8000b5c <__aeabi_dcmpeq>
 800ac4c:	2800      	cmp	r0, #0
 800ac4e:	f040 80e1 	bne.w	800ae14 <_svfprintf_r+0xbb4>
 800ac52:	9b0d      	ldr	r3, [sp, #52]	; 0x34
 800ac54:	6077      	str	r7, [r6, #4]
 800ac56:	3301      	adds	r3, #1
 800ac58:	443c      	add	r4, r7
 800ac5a:	f1b9 0f07 	cmp.w	r9, #7
 800ac5e:	6033      	str	r3, [r6, #0]
 800ac60:	9425      	str	r4, [sp, #148]	; 0x94
 800ac62:	f8cd 9090 	str.w	r9, [sp, #144]	; 0x90
 800ac66:	f300 823b 	bgt.w	800b0e0 <_svfprintf_r+0xe80>
 800ac6a:	f106 0310 	add.w	r3, r6, #16
 800ac6e:	f105 0902 	add.w	r9, r5, #2
 800ac72:	4656      	mov	r6, sl
 800ac74:	469a      	mov	sl, r3
 800ac76:	9a15      	ldr	r2, [sp, #84]	; 0x54
 800ac78:	6072      	str	r2, [r6, #4]
 800ac7a:	4414      	add	r4, r2
 800ac7c:	ab1f      	add	r3, sp, #124	; 0x7c
 800ac7e:	f1b9 0f07 	cmp.w	r9, #7
 800ac82:	9425      	str	r4, [sp, #148]	; 0x94
 800ac84:	f8cd 9090 	str.w	r9, [sp, #144]	; 0x90
 800ac88:	6033      	str	r3, [r6, #0]
 800ac8a:	f77f ad97 	ble.w	800a7bc <_svfprintf_r+0x55c>
 800ac8e:	e7a1      	b.n	800abd4 <_svfprintf_r+0x974>
 800ac90:	2b01      	cmp	r3, #1
 800ac92:	9703      	str	r7, [sp, #12]
 800ac94:	f47f ac9e 	bne.w	800a5d4 <_svfprintf_r+0x374>
 800ac98:	2d00      	cmp	r5, #0
 800ac9a:	bf08      	it	eq
 800ac9c:	2c0a      	cmpeq	r4, #10
 800ac9e:	f080 8147 	bcs.w	800af30 <_svfprintf_r+0xcd0>
 800aca2:	ab40      	add	r3, sp, #256	; 0x100
 800aca4:	3430      	adds	r4, #48	; 0x30
 800aca6:	f803 4d41 	strb.w	r4, [r3, #-65]!
 800acaa:	930d      	str	r3, [sp, #52]	; 0x34
 800acac:	2301      	movs	r3, #1
 800acae:	930a      	str	r3, [sp, #40]	; 0x28
 800acb0:	e4ae      	b.n	800a610 <_svfprintf_r+0x3b0>
 800acb2:	aa23      	add	r2, sp, #140	; 0x8c
 800acb4:	e9dd 1008 	ldrd	r1, r0, [sp, #32]
 800acb8:	f002 f93a 	bl	800cf30 <__ssprint_r>
 800acbc:	2800      	cmp	r0, #0
 800acbe:	f47f ab9c 	bne.w	800a3fa <_svfprintf_r+0x19a>
 800acc2:	9c25      	ldr	r4, [sp, #148]	; 0x94
 800acc4:	46c2      	mov	sl, r8
 800acc6:	e51b      	b.n	800a700 <_svfprintf_r+0x4a0>
 800acc8:	aa23      	add	r2, sp, #140	; 0x8c
 800acca:	e9dd 1008 	ldrd	r1, r0, [sp, #32]
 800acce:	f002 f92f 	bl	800cf30 <__ssprint_r>
 800acd2:	2800      	cmp	r0, #0
 800acd4:	f47f ab91 	bne.w	800a3fa <_svfprintf_r+0x19a>
 800acd8:	9c25      	ldr	r4, [sp, #148]	; 0x94
 800acda:	46c2      	mov	sl, r8
 800acdc:	e51f      	b.n	800a71e <_svfprintf_r+0x4be>
 800acde:	9f12      	ldr	r7, [sp, #72]	; 0x48
 800ace0:	4642      	mov	r2, r8
 800ace2:	0923      	lsrs	r3, r4, #4
 800ace4:	f004 000f 	and.w	r0, r4, #15
 800ace8:	ea43 7305 	orr.w	r3, r3, r5, lsl #28
 800acec:	0929      	lsrs	r1, r5, #4
 800acee:	461c      	mov	r4, r3
 800acf0:	460d      	mov	r5, r1
 800acf2:	5c3b      	ldrb	r3, [r7, r0]
 800acf4:	f802 3d01 	strb.w	r3, [r2, #-1]!
 800acf8:	ea54 0305 	orrs.w	r3, r4, r5
 800acfc:	d1f1      	bne.n	800ace2 <_svfprintf_r+0xa82>
 800acfe:	eba8 0302 	sub.w	r3, r8, r2
 800ad02:	920d      	str	r2, [sp, #52]	; 0x34
 800ad04:	930a      	str	r3, [sp, #40]	; 0x28
 800ad06:	e483      	b.n	800a610 <_svfprintf_r+0x3b0>
 800ad08:	aa23      	add	r2, sp, #140	; 0x8c
 800ad0a:	e9dd 1008 	ldrd	r1, r0, [sp, #32]
 800ad0e:	f002 f90f 	bl	800cf30 <__ssprint_r>
 800ad12:	2800      	cmp	r0, #0
 800ad14:	f47f ab71 	bne.w	800a3fa <_svfprintf_r+0x19a>
 800ad18:	9c25      	ldr	r4, [sp, #148]	; 0x94
 800ad1a:	46c2      	mov	sl, r8
 800ad1c:	e53a      	b.n	800a794 <_svfprintf_r+0x534>
 800ad1e:	bf00      	nop
 800ad20:	0800d6b4 	.word	0x0800d6b4
 800ad24:	0800df30 	.word	0x0800df30
 800ad28:	9b1d      	ldr	r3, [sp, #116]	; 0x74
 800ad2a:	2b00      	cmp	r3, #0
 800ad2c:	f340 825e 	ble.w	800b1ec <_svfprintf_r+0xf8c>
 800ad30:	e9dd 320e 	ldrd	r3, r2, [sp, #56]	; 0x38
 800ad34:	4293      	cmp	r3, r2
 800ad36:	bfa8      	it	ge
 800ad38:	4613      	movge	r3, r2
 800ad3a:	2b00      	cmp	r3, #0
 800ad3c:	461d      	mov	r5, r3
 800ad3e:	dd0e      	ble.n	800ad5e <_svfprintf_r+0xafe>
 800ad40:	9b24      	ldr	r3, [sp, #144]	; 0x90
 800ad42:	9a0d      	ldr	r2, [sp, #52]	; 0x34
 800ad44:	f8ca 2000 	str.w	r2, [sl]
 800ad48:	3301      	adds	r3, #1
 800ad4a:	442c      	add	r4, r5
 800ad4c:	2b07      	cmp	r3, #7
 800ad4e:	9425      	str	r4, [sp, #148]	; 0x94
 800ad50:	f8ca 5004 	str.w	r5, [sl, #4]
 800ad54:	9324      	str	r3, [sp, #144]	; 0x90
 800ad56:	f300 8318 	bgt.w	800b38a <_svfprintf_r+0x112a>
 800ad5a:	f10a 0a08 	add.w	sl, sl, #8
 800ad5e:	9b0e      	ldr	r3, [sp, #56]	; 0x38
 800ad60:	2d00      	cmp	r5, #0
 800ad62:	bfa8      	it	ge
 800ad64:	1b5b      	subge	r3, r3, r5
 800ad66:	2b00      	cmp	r3, #0
 800ad68:	461d      	mov	r5, r3
 800ad6a:	f300 8180 	bgt.w	800b06e <_svfprintf_r+0xe0e>
 800ad6e:	9b1d      	ldr	r3, [sp, #116]	; 0x74
 800ad70:	9a0f      	ldr	r2, [sp, #60]	; 0x3c
 800ad72:	4293      	cmp	r3, r2
 800ad74:	f2c0 81e4 	blt.w	800b140 <_svfprintf_r+0xee0>
 800ad78:	9a03      	ldr	r2, [sp, #12]
 800ad7a:	07d0      	lsls	r0, r2, #31
 800ad7c:	f100 81e0 	bmi.w	800b140 <_svfprintf_r+0xee0>
 800ad80:	9a0f      	ldr	r2, [sp, #60]	; 0x3c
 800ad82:	980e      	ldr	r0, [sp, #56]	; 0x38
 800ad84:	1ad3      	subs	r3, r2, r3
 800ad86:	1a15      	subs	r5, r2, r0
 800ad88:	429d      	cmp	r5, r3
 800ad8a:	bfa8      	it	ge
 800ad8c:	461d      	movge	r5, r3
 800ad8e:	2d00      	cmp	r5, #0
 800ad90:	dd0f      	ble.n	800adb2 <_svfprintf_r+0xb52>
 800ad92:	9a24      	ldr	r2, [sp, #144]	; 0x90
 800ad94:	990d      	ldr	r1, [sp, #52]	; 0x34
 800ad96:	f8ca 5004 	str.w	r5, [sl, #4]
 800ad9a:	3201      	adds	r2, #1
 800ad9c:	4401      	add	r1, r0
 800ad9e:	442c      	add	r4, r5
 800ada0:	2a07      	cmp	r2, #7
 800ada2:	f8ca 1000 	str.w	r1, [sl]
 800ada6:	e9cd 2424 	strd	r2, r4, [sp, #144]	; 0x90
 800adaa:	f300 8323 	bgt.w	800b3f4 <_svfprintf_r+0x1194>
 800adae:	f10a 0a08 	add.w	sl, sl, #8
 800adb2:	2d00      	cmp	r5, #0
 800adb4:	bfac      	ite	ge
 800adb6:	1b5d      	subge	r5, r3, r5
 800adb8:	461d      	movlt	r5, r3
 800adba:	2d00      	cmp	r5, #0
 800adbc:	f77f acfe 	ble.w	800a7bc <_svfprintf_r+0x55c>
 800adc0:	2d10      	cmp	r5, #16
 800adc2:	9a24      	ldr	r2, [sp, #144]	; 0x90
 800adc4:	4fc5      	ldr	r7, [pc, #788]	; (800b0dc <_svfprintf_r+0xe7c>)
 800adc6:	f340 81fb 	ble.w	800b1c0 <_svfprintf_r+0xf60>
 800adca:	4623      	mov	r3, r4
 800adcc:	2610      	movs	r6, #16
 800adce:	e9dd 4908 	ldrd	r4, r9, [sp, #32]
 800add2:	e005      	b.n	800ade0 <_svfprintf_r+0xb80>
 800add4:	f10a 0a08 	add.w	sl, sl, #8
 800add8:	3d10      	subs	r5, #16
 800adda:	2d10      	cmp	r5, #16
 800addc:	f340 81ef 	ble.w	800b1be <_svfprintf_r+0xf5e>
 800ade0:	3201      	adds	r2, #1
 800ade2:	3310      	adds	r3, #16
 800ade4:	2a07      	cmp	r2, #7
 800ade6:	e9cd 2324 	strd	r2, r3, [sp, #144]	; 0x90
 800adea:	e9ca 7600 	strd	r7, r6, [sl]
 800adee:	ddf1      	ble.n	800add4 <_svfprintf_r+0xb74>
 800adf0:	aa23      	add	r2, sp, #140	; 0x8c
 800adf2:	4621      	mov	r1, r4
 800adf4:	4648      	mov	r0, r9
 800adf6:	f002 f89b 	bl	800cf30 <__ssprint_r>
 800adfa:	2800      	cmp	r0, #0
 800adfc:	f47f aafd 	bne.w	800a3fa <_svfprintf_r+0x19a>
 800ae00:	e9dd 2324 	ldrd	r2, r3, [sp, #144]	; 0x90
 800ae04:	46c2      	mov	sl, r8
 800ae06:	e7e7      	b.n	800add8 <_svfprintf_r+0xb78>
 800ae08:	9b05      	ldr	r3, [sp, #20]
 800ae0a:	930a      	str	r3, [sp, #40]	; 0x28
 800ae0c:	f8cd 8034 	str.w	r8, [sp, #52]	; 0x34
 800ae10:	f7ff bbfe 	b.w	800a610 <_svfprintf_r+0x3b0>
 800ae14:	9a05      	ldr	r2, [sp, #20]
 800ae16:	2a00      	cmp	r2, #0
 800ae18:	f77f af2d 	ble.w	800ac76 <_svfprintf_r+0xa16>
 800ae1c:	2a10      	cmp	r2, #16
 800ae1e:	4faf      	ldr	r7, [pc, #700]	; (800b0dc <_svfprintf_r+0xe7c>)
 800ae20:	f340 83ea 	ble.w	800b5f8 <_svfprintf_r+0x1398>
 800ae24:	4633      	mov	r3, r6
 800ae26:	4692      	mov	sl, r2
 800ae28:	f04f 0910 	mov.w	r9, #16
 800ae2c:	4622      	mov	r2, r4
 800ae2e:	9d0a      	ldr	r5, [sp, #40]	; 0x28
 800ae30:	e9dd 6408 	ldrd	r6, r4, [sp, #32]
 800ae34:	e007      	b.n	800ae46 <_svfprintf_r+0xbe6>
 800ae36:	3308      	adds	r3, #8
 800ae38:	f1aa 0a10 	sub.w	sl, sl, #16
 800ae3c:	f1ba 0f10 	cmp.w	sl, #16
 800ae40:	f340 81ef 	ble.w	800b222 <_svfprintf_r+0xfc2>
 800ae44:	3501      	adds	r5, #1
 800ae46:	3210      	adds	r2, #16
 800ae48:	2d07      	cmp	r5, #7
 800ae4a:	e9cd 5224 	strd	r5, r2, [sp, #144]	; 0x90
 800ae4e:	e9c3 7900 	strd	r7, r9, [r3]
 800ae52:	ddf0      	ble.n	800ae36 <_svfprintf_r+0xbd6>
 800ae54:	aa23      	add	r2, sp, #140	; 0x8c
 800ae56:	4631      	mov	r1, r6
 800ae58:	4620      	mov	r0, r4
 800ae5a:	f002 f869 	bl	800cf30 <__ssprint_r>
 800ae5e:	2800      	cmp	r0, #0
 800ae60:	f47f aacb 	bne.w	800a3fa <_svfprintf_r+0x19a>
 800ae64:	e9dd 5224 	ldrd	r5, r2, [sp, #144]	; 0x90
 800ae68:	4643      	mov	r3, r8
 800ae6a:	e7e5      	b.n	800ae38 <_svfprintf_r+0xbd8>
 800ae6c:	9b0b      	ldr	r3, [sp, #44]	; 0x2c
 800ae6e:	06fd      	lsls	r5, r7, #27
 800ae70:	f853 4b04 	ldr.w	r4, [r3], #4
 800ae74:	930b      	str	r3, [sp, #44]	; 0x2c
 800ae76:	d576      	bpl.n	800af66 <_svfprintf_r+0xd06>
 800ae78:	2500      	movs	r5, #0
 800ae7a:	2301      	movs	r3, #1
 800ae7c:	f7ff bad9 	b.w	800a432 <_svfprintf_r+0x1d2>
 800ae80:	9a0b      	ldr	r2, [sp, #44]	; 0x2c
 800ae82:	f852 4b04 	ldr.w	r4, [r2], #4
 800ae86:	920b      	str	r2, [sp, #44]	; 0x2c
 800ae88:	f017 0210 	ands.w	r2, r7, #16
 800ae8c:	d079      	beq.n	800af82 <_svfprintf_r+0xd22>
 800ae8e:	2500      	movs	r5, #0
 800ae90:	f7ff bacf 	b.w	800a432 <_svfprintf_r+0x1d2>
 800ae94:	9a03      	ldr	r2, [sp, #12]
 800ae96:	07d1      	lsls	r1, r2, #31
 800ae98:	f53f aeb2 	bmi.w	800ac00 <_svfprintf_r+0x9a0>
 800ae9c:	2201      	movs	r2, #1
 800ae9e:	990d      	ldr	r1, [sp, #52]	; 0x34
 800aea0:	f8ca 1000 	str.w	r1, [sl]
 800aea4:	2d07      	cmp	r5, #7
 800aea6:	e9cd 5424 	strd	r5, r4, [sp, #144]	; 0x90
 800aeaa:	f8ca 2004 	str.w	r2, [sl, #4]
 800aeae:	f300 8117 	bgt.w	800b0e0 <_svfprintf_r+0xe80>
 800aeb2:	f103 0902 	add.w	r9, r3, #2
 800aeb6:	f10a 0a10 	add.w	sl, sl, #16
 800aeba:	e6dc      	b.n	800ac76 <_svfprintf_r+0xa16>
 800aebc:	2b30      	cmp	r3, #48	; 0x30
 800aebe:	f000 8139 	beq.w	800b134 <_svfprintf_r+0xed4>
 800aec2:	9a0d      	ldr	r2, [sp, #52]	; 0x34
 800aec4:	3902      	subs	r1, #2
 800aec6:	2330      	movs	r3, #48	; 0x30
 800aec8:	f802 3c01 	strb.w	r3, [r2, #-1]
 800aecc:	eba8 0301 	sub.w	r3, r8, r1
 800aed0:	930a      	str	r3, [sp, #40]	; 0x28
 800aed2:	910d      	str	r1, [sp, #52]	; 0x34
 800aed4:	f7ff bb9c 	b.w	800a610 <_svfprintf_r+0x3b0>
 800aed8:	9b03      	ldr	r3, [sp, #12]
 800aeda:	07de      	lsls	r6, r3, #31
 800aedc:	f53f add1 	bmi.w	800aa82 <_svfprintf_r+0x822>
 800aee0:	e46c      	b.n	800a7bc <_svfprintf_r+0x55c>
 800aee2:	aa23      	add	r2, sp, #140	; 0x8c
 800aee4:	e9dd 1008 	ldrd	r1, r0, [sp, #32]
 800aee8:	f002 f822 	bl	800cf30 <__ssprint_r>
 800aeec:	2800      	cmp	r0, #0
 800aeee:	f47f aa84 	bne.w	800a3fa <_svfprintf_r+0x19a>
 800aef2:	9c25      	ldr	r4, [sp, #148]	; 0x94
 800aef4:	e497      	b.n	800a826 <_svfprintf_r+0x5c6>
 800aef6:	f8cd 8034 	str.w	r8, [sp, #52]	; 0x34
 800aefa:	f7ff bb89 	b.w	800a610 <_svfprintf_r+0x3b0>
 800aefe:	2500      	movs	r5, #0
 800af00:	e4b0      	b.n	800a864 <_svfprintf_r+0x604>
 800af02:	17e5      	asrs	r5, r4, #31
 800af04:	2c00      	cmp	r4, #0
 800af06:	f175 0300 	sbcs.w	r3, r5, #0
 800af0a:	f6bf ab51 	bge.w	800a5b0 <_svfprintf_r+0x350>
 800af0e:	9b05      	ldr	r3, [sp, #20]
 800af10:	4264      	negs	r4, r4
 800af12:	f04f 062d 	mov.w	r6, #45	; 0x2d
 800af16:	eb65 0545 	sbc.w	r5, r5, r5, lsl #1
 800af1a:	3301      	adds	r3, #1
 800af1c:	f88d 606f 	strb.w	r6, [sp, #111]	; 0x6f
 800af20:	f47f ab4c 	bne.w	800a5bc <_svfprintf_r+0x35c>
 800af24:	2d00      	cmp	r5, #0
 800af26:	bf08      	it	eq
 800af28:	2c0a      	cmpeq	r4, #10
 800af2a:	9703      	str	r7, [sp, #12]
 800af2c:	f4ff aeb9 	bcc.w	800aca2 <_svfprintf_r+0xa42>
 800af30:	4647      	mov	r7, r8
 800af32:	4620      	mov	r0, r4
 800af34:	4629      	mov	r1, r5
 800af36:	220a      	movs	r2, #10
 800af38:	2300      	movs	r3, #0
 800af3a:	f7f5 fe69 	bl	8000c10 <__aeabi_uldivmod>
 800af3e:	3230      	adds	r2, #48	; 0x30
 800af40:	f807 2d01 	strb.w	r2, [r7, #-1]!
 800af44:	4620      	mov	r0, r4
 800af46:	4629      	mov	r1, r5
 800af48:	2300      	movs	r3, #0
 800af4a:	220a      	movs	r2, #10
 800af4c:	f7f5 fe60 	bl	8000c10 <__aeabi_uldivmod>
 800af50:	4604      	mov	r4, r0
 800af52:	460d      	mov	r5, r1
 800af54:	ea54 0305 	orrs.w	r3, r4, r5
 800af58:	d1eb      	bne.n	800af32 <_svfprintf_r+0xcd2>
 800af5a:	eba8 0307 	sub.w	r3, r8, r7
 800af5e:	970d      	str	r7, [sp, #52]	; 0x34
 800af60:	930a      	str	r3, [sp, #40]	; 0x28
 800af62:	f7ff bb55 	b.w	800a610 <_svfprintf_r+0x3b0>
 800af66:	0678      	lsls	r0, r7, #25
 800af68:	bf48      	it	mi
 800af6a:	b2a4      	uxthmi	r4, r4
 800af6c:	2500      	movs	r5, #0
 800af6e:	2301      	movs	r3, #1
 800af70:	f7ff ba5f 	b.w	800a432 <_svfprintf_r+0x1d2>
 800af74:	9a06      	ldr	r2, [sp, #24]
 800af76:	4610      	mov	r0, r2
 800af78:	17d1      	asrs	r1, r2, #31
 800af7a:	e9c3 0100 	strd	r0, r1, [r3]
 800af7e:	f7ff b997 	b.w	800a2b0 <_svfprintf_r+0x50>
 800af82:	f017 0340 	ands.w	r3, r7, #64	; 0x40
 800af86:	bf1c      	itt	ne
 800af88:	4613      	movne	r3, r2
 800af8a:	b2a4      	uxthne	r4, r4
 800af8c:	2500      	movs	r5, #0
 800af8e:	f7ff ba50 	b.w	800a432 <_svfprintf_r+0x1d2>
 800af92:	e9dd 0110 	ldrd	r0, r1, [sp, #64]	; 0x40
 800af96:	4602      	mov	r2, r0
 800af98:	460b      	mov	r3, r1
 800af9a:	f7f6 f921 	bl	80011e0 <__aeabi_dcmpun>
 800af9e:	2800      	cmp	r0, #0
 800afa0:	f040 8303 	bne.w	800b5aa <_svfprintf_r+0x134a>
 800afa4:	9b05      	ldr	r3, [sp, #20]
 800afa6:	1c5a      	adds	r2, r3, #1
 800afa8:	f029 0620 	bic.w	r6, r9, #32
 800afac:	f000 8244 	beq.w	800b438 <_svfprintf_r+0x11d8>
 800afb0:	2e47      	cmp	r6, #71	; 0x47
 800afb2:	f000 816b 	beq.w	800b28c <_svfprintf_r+0x102c>
 800afb6:	9b11      	ldr	r3, [sp, #68]	; 0x44
 800afb8:	f447 7280 	orr.w	r2, r7, #256	; 0x100
 800afbc:	2b00      	cmp	r3, #0
 800afbe:	9203      	str	r2, [sp, #12]
 800afc0:	f2c0 820b 	blt.w	800b3da <_svfprintf_r+0x117a>
 800afc4:	ed9d 7b10 	vldr	d7, [sp, #64]	; 0x40
 800afc8:	ed8d 7b18 	vstr	d7, [sp, #96]	; 0x60
 800afcc:	2300      	movs	r3, #0
 800afce:	930c      	str	r3, [sp, #48]	; 0x30
 800afd0:	f1b9 0f66 	cmp.w	r9, #102	; 0x66
 800afd4:	f000 8220 	beq.w	800b418 <_svfprintf_r+0x11b8>
 800afd8:	f1b9 0f46 	cmp.w	r9, #70	; 0x46
 800afdc:	f000 825c 	beq.w	800b498 <_svfprintf_r+0x1238>
 800afe0:	2e45      	cmp	r6, #69	; 0x45
 800afe2:	f000 8158 	beq.w	800b296 <_svfprintf_r+0x1036>
 800afe6:	aa21      	add	r2, sp, #132	; 0x84
 800afe8:	ab1e      	add	r3, sp, #120	; 0x78
 800afea:	e9cd 3200 	strd	r3, r2, [sp]
 800afee:	2102      	movs	r1, #2
 800aff0:	ab1d      	add	r3, sp, #116	; 0x74
 800aff2:	9a05      	ldr	r2, [sp, #20]
 800aff4:	9809      	ldr	r0, [sp, #36]	; 0x24
 800aff6:	ed9d 0b18 	vldr	d0, [sp, #96]	; 0x60
 800affa:	f000 fc01 	bl	800b800 <_dtoa_r>
 800affe:	f1b9 0f67 	cmp.w	r9, #103	; 0x67
 800b002:	900d      	str	r0, [sp, #52]	; 0x34
 800b004:	f040 832f 	bne.w	800b666 <_svfprintf_r+0x1406>
 800b008:	07fb      	lsls	r3, r7, #31
 800b00a:	f140 8169 	bpl.w	800b2e0 <_svfprintf_r+0x1080>
 800b00e:	9b0d      	ldr	r3, [sp, #52]	; 0x34
 800b010:	9a05      	ldr	r2, [sp, #20]
 800b012:	189c      	adds	r4, r3, r2
 800b014:	2200      	movs	r2, #0
 800b016:	2300      	movs	r3, #0
 800b018:	e9dd 0118 	ldrd	r0, r1, [sp, #96]	; 0x60
 800b01c:	f7f5 fd9e 	bl	8000b5c <__aeabi_dcmpeq>
 800b020:	2800      	cmp	r0, #0
 800b022:	f000 81ce 	beq.w	800b3c2 <_svfprintf_r+0x1162>
 800b026:	4623      	mov	r3, r4
 800b028:	9a0d      	ldr	r2, [sp, #52]	; 0x34
 800b02a:	1a9b      	subs	r3, r3, r2
 800b02c:	930f      	str	r3, [sp, #60]	; 0x3c
 800b02e:	2e47      	cmp	r6, #71	; 0x47
 800b030:	9b1d      	ldr	r3, [sp, #116]	; 0x74
 800b032:	930e      	str	r3, [sp, #56]	; 0x38
 800b034:	f000 815d 	beq.w	800b2f2 <_svfprintf_r+0x1092>
 800b038:	f1b9 0f66 	cmp.w	r9, #102	; 0x66
 800b03c:	f040 8161 	bne.w	800b302 <_svfprintf_r+0x10a2>
 800b040:	9b0e      	ldr	r3, [sp, #56]	; 0x38
 800b042:	2b00      	cmp	r3, #0
 800b044:	9b05      	ldr	r3, [sp, #20]
 800b046:	f340 82d0 	ble.w	800b5ea <_svfprintf_r+0x138a>
 800b04a:	2b00      	cmp	r3, #0
 800b04c:	f040 82b9 	bne.w	800b5c2 <_svfprintf_r+0x1362>
 800b050:	07fd      	lsls	r5, r7, #31
 800b052:	f100 82b6 	bmi.w	800b5c2 <_svfprintf_r+0x1362>
 800b056:	9b0e      	ldr	r3, [sp, #56]	; 0x38
 800b058:	9304      	str	r3, [sp, #16]
 800b05a:	930a      	str	r3, [sp, #40]	; 0x28
 800b05c:	9b0c      	ldr	r3, [sp, #48]	; 0x30
 800b05e:	2b00      	cmp	r3, #0
 800b060:	f040 817a 	bne.w	800b358 <_svfprintf_r+0x10f8>
 800b064:	9305      	str	r3, [sp, #20]
 800b066:	f89d 606f 	ldrb.w	r6, [sp, #111]	; 0x6f
 800b06a:	f7ff ba60 	b.w	800a52e <_svfprintf_r+0x2ce>
 800b06e:	2b10      	cmp	r3, #16
 800b070:	9a24      	ldr	r2, [sp, #144]	; 0x90
 800b072:	4f1a      	ldr	r7, [pc, #104]	; (800b0dc <_svfprintf_r+0xe7c>)
 800b074:	f340 80ef 	ble.w	800b256 <_svfprintf_r+0xff6>
 800b078:	4623      	mov	r3, r4
 800b07a:	2610      	movs	r6, #16
 800b07c:	e9dd 4908 	ldrd	r4, r9, [sp, #32]
 800b080:	e005      	b.n	800b08e <_svfprintf_r+0xe2e>
 800b082:	f10a 0a08 	add.w	sl, sl, #8
 800b086:	3d10      	subs	r5, #16
 800b088:	2d10      	cmp	r5, #16
 800b08a:	f340 80e3 	ble.w	800b254 <_svfprintf_r+0xff4>
 800b08e:	3201      	adds	r2, #1
 800b090:	3310      	adds	r3, #16
 800b092:	2a07      	cmp	r2, #7
 800b094:	e9cd 2324 	strd	r2, r3, [sp, #144]	; 0x90
 800b098:	e9ca 7600 	strd	r7, r6, [sl]
 800b09c:	ddf1      	ble.n	800b082 <_svfprintf_r+0xe22>
 800b09e:	aa23      	add	r2, sp, #140	; 0x8c
 800b0a0:	4621      	mov	r1, r4
 800b0a2:	4648      	mov	r0, r9
 800b0a4:	f001 ff44 	bl	800cf30 <__ssprint_r>
 800b0a8:	2800      	cmp	r0, #0
 800b0aa:	f47f a9a6 	bne.w	800a3fa <_svfprintf_r+0x19a>
 800b0ae:	e9dd 2324 	ldrd	r2, r3, [sp, #144]	; 0x90
 800b0b2:	46c2      	mov	sl, r8
 800b0b4:	e7e7      	b.n	800b086 <_svfprintf_r+0xe26>
 800b0b6:	4264      	negs	r4, r4
 800b0b8:	9407      	str	r4, [sp, #28]
 800b0ba:	900b      	str	r0, [sp, #44]	; 0x2c
 800b0bc:	e49e      	b.n	800a9fc <_svfprintf_r+0x79c>
 800b0be:	2140      	movs	r1, #64	; 0x40
 800b0c0:	9809      	ldr	r0, [sp, #36]	; 0x24
 800b0c2:	f7fe fd3d 	bl	8009b40 <_malloc_r>
 800b0c6:	9b08      	ldr	r3, [sp, #32]
 800b0c8:	6018      	str	r0, [r3, #0]
 800b0ca:	6118      	str	r0, [r3, #16]
 800b0cc:	2800      	cmp	r0, #0
 800b0ce:	f000 82c2 	beq.w	800b656 <_svfprintf_r+0x13f6>
 800b0d2:	9a08      	ldr	r2, [sp, #32]
 800b0d4:	2340      	movs	r3, #64	; 0x40
 800b0d6:	6153      	str	r3, [r2, #20]
 800b0d8:	f7ff b8d9 	b.w	800a28e <_svfprintf_r+0x2e>
 800b0dc:	0800df30 	.word	0x0800df30
 800b0e0:	aa23      	add	r2, sp, #140	; 0x8c
 800b0e2:	e9dd 1008 	ldrd	r1, r0, [sp, #32]
 800b0e6:	f001 ff23 	bl	800cf30 <__ssprint_r>
 800b0ea:	2800      	cmp	r0, #0
 800b0ec:	f47f a985 	bne.w	800a3fa <_svfprintf_r+0x19a>
 800b0f0:	e9dd 3424 	ldrd	r3, r4, [sp, #144]	; 0x90
 800b0f4:	f10d 0ac8 	add.w	sl, sp, #200	; 0xc8
 800b0f8:	f103 0901 	add.w	r9, r3, #1
 800b0fc:	4646      	mov	r6, r8
 800b0fe:	e5ba      	b.n	800ac76 <_svfprintf_r+0xa16>
 800b100:	aa23      	add	r2, sp, #140	; 0x8c
 800b102:	e9dd 1008 	ldrd	r1, r0, [sp, #32]
 800b106:	f001 ff13 	bl	800cf30 <__ssprint_r>
 800b10a:	2800      	cmp	r0, #0
 800b10c:	f47f a975 	bne.w	800a3fa <_svfprintf_r+0x19a>
 800b110:	9c25      	ldr	r4, [sp, #148]	; 0x94
 800b112:	46c2      	mov	sl, r8
 800b114:	e4c5      	b.n	800aaa2 <_svfprintf_r+0x842>
 800b116:	9b05      	ldr	r3, [sp, #20]
 800b118:	9e0d      	ldr	r6, [sp, #52]	; 0x34
 800b11a:	9605      	str	r6, [sp, #20]
 800b11c:	2b06      	cmp	r3, #6
 800b11e:	bf28      	it	cs
 800b120:	2306      	movcs	r3, #6
 800b122:	9304      	str	r3, [sp, #16]
 800b124:	930a      	str	r3, [sp, #40]	; 0x28
 800b126:	4bba      	ldr	r3, [pc, #744]	; (800b410 <_svfprintf_r+0x11b0>)
 800b128:	950b      	str	r5, [sp, #44]	; 0x2c
 800b12a:	9703      	str	r7, [sp, #12]
 800b12c:	960e      	str	r6, [sp, #56]	; 0x38
 800b12e:	930d      	str	r3, [sp, #52]	; 0x34
 800b130:	f7ff b9fd 	b.w	800a52e <_svfprintf_r+0x2ce>
 800b134:	9b0d      	ldr	r3, [sp, #52]	; 0x34
 800b136:	eba8 0303 	sub.w	r3, r8, r3
 800b13a:	930a      	str	r3, [sp, #40]	; 0x28
 800b13c:	f7ff ba68 	b.w	800a610 <_svfprintf_r+0x3b0>
 800b140:	9a24      	ldr	r2, [sp, #144]	; 0x90
 800b142:	9914      	ldr	r1, [sp, #80]	; 0x50
 800b144:	f8ca 1000 	str.w	r1, [sl]
 800b148:	9913      	ldr	r1, [sp, #76]	; 0x4c
 800b14a:	f8ca 1004 	str.w	r1, [sl, #4]
 800b14e:	3201      	adds	r2, #1
 800b150:	440c      	add	r4, r1
 800b152:	2a07      	cmp	r2, #7
 800b154:	9425      	str	r4, [sp, #148]	; 0x94
 800b156:	9224      	str	r2, [sp, #144]	; 0x90
 800b158:	f300 8127 	bgt.w	800b3aa <_svfprintf_r+0x114a>
 800b15c:	f10a 0a08 	add.w	sl, sl, #8
 800b160:	e60e      	b.n	800ad80 <_svfprintf_r+0xb20>
 800b162:	9a06      	ldr	r2, [sp, #24]
 800b164:	601a      	str	r2, [r3, #0]
 800b166:	f7ff b8a3 	b.w	800a2b0 <_svfprintf_r+0x50>
 800b16a:	aa23      	add	r2, sp, #140	; 0x8c
 800b16c:	e9dd 1008 	ldrd	r1, r0, [sp, #32]
 800b170:	f001 fede 	bl	800cf30 <__ssprint_r>
 800b174:	2800      	cmp	r0, #0
 800b176:	f47f a940 	bne.w	800a3fa <_svfprintf_r+0x19a>
 800b17a:	f89d 606f 	ldrb.w	r6, [sp, #111]	; 0x6f
 800b17e:	9c25      	ldr	r4, [sp, #148]	; 0x94
 800b180:	46c2      	mov	sl, r8
 800b182:	f7ff baad 	b.w	800a6e0 <_svfprintf_r+0x480>
 800b186:	aa23      	add	r2, sp, #140	; 0x8c
 800b188:	e9dd 1008 	ldrd	r1, r0, [sp, #32]
 800b18c:	f001 fed0 	bl	800cf30 <__ssprint_r>
 800b190:	2800      	cmp	r0, #0
 800b192:	f47f a932 	bne.w	800a3fa <_svfprintf_r+0x19a>
 800b196:	e9dd 5424 	ldrd	r5, r4, [sp, #144]	; 0x90
 800b19a:	4646      	mov	r6, r8
 800b19c:	e53b      	b.n	800ac16 <_svfprintf_r+0x9b6>
 800b19e:	aa23      	add	r2, sp, #140	; 0x8c
 800b1a0:	e9dd 1008 	ldrd	r1, r0, [sp, #32]
 800b1a4:	f001 fec4 	bl	800cf30 <__ssprint_r>
 800b1a8:	2800      	cmp	r0, #0
 800b1aa:	f47f a926 	bne.w	800a3fa <_svfprintf_r+0x19a>
 800b1ae:	e9dd 5424 	ldrd	r5, r4, [sp, #144]	; 0x90
 800b1b2:	4646      	mov	r6, r8
 800b1b4:	e53b      	b.n	800ac2e <_svfprintf_r+0x9ce>
 800b1b6:	2b01      	cmp	r3, #1
 800b1b8:	f47f aa0c 	bne.w	800a5d4 <_svfprintf_r+0x374>
 800b1bc:	e571      	b.n	800aca2 <_svfprintf_r+0xa42>
 800b1be:	461c      	mov	r4, r3
 800b1c0:	3201      	adds	r2, #1
 800b1c2:	442c      	add	r4, r5
 800b1c4:	2a07      	cmp	r2, #7
 800b1c6:	e9cd 2424 	strd	r2, r4, [sp, #144]	; 0x90
 800b1ca:	e9ca 7500 	strd	r7, r5, [sl]
 800b1ce:	f77f aaf3 	ble.w	800a7b8 <_svfprintf_r+0x558>
 800b1d2:	e4ff      	b.n	800abd4 <_svfprintf_r+0x974>
 800b1d4:	aa23      	add	r2, sp, #140	; 0x8c
 800b1d6:	e9dd 1008 	ldrd	r1, r0, [sp, #32]
 800b1da:	f001 fea9 	bl	800cf30 <__ssprint_r>
 800b1de:	2800      	cmp	r0, #0
 800b1e0:	f47f a90b 	bne.w	800a3fa <_svfprintf_r+0x19a>
 800b1e4:	9c25      	ldr	r4, [sp, #148]	; 0x94
 800b1e6:	46c2      	mov	sl, r8
 800b1e8:	f7ff ba9d 	b.w	800a726 <_svfprintf_r+0x4c6>
 800b1ec:	9a24      	ldr	r2, [sp, #144]	; 0x90
 800b1ee:	4989      	ldr	r1, [pc, #548]	; (800b414 <_svfprintf_r+0x11b4>)
 800b1f0:	f8ca 1000 	str.w	r1, [sl]
 800b1f4:	3201      	adds	r2, #1
 800b1f6:	3401      	adds	r4, #1
 800b1f8:	2101      	movs	r1, #1
 800b1fa:	2a07      	cmp	r2, #7
 800b1fc:	e9cd 2424 	strd	r2, r4, [sp, #144]	; 0x90
 800b200:	f8ca 1004 	str.w	r1, [sl, #4]
 800b204:	f73f acb8 	bgt.w	800ab78 <_svfprintf_r+0x918>
 800b208:	f10a 0a08 	add.w	sl, sl, #8
 800b20c:	e4bf      	b.n	800ab8e <_svfprintf_r+0x92e>
 800b20e:	aa23      	add	r2, sp, #140	; 0x8c
 800b210:	e9dd 1008 	ldrd	r1, r0, [sp, #32]
 800b214:	f001 fe8c 	bl	800cf30 <__ssprint_r>
 800b218:	2800      	cmp	r0, #0
 800b21a:	f47f a8ee 	bne.w	800a3fa <_svfprintf_r+0x19a>
 800b21e:	46c2      	mov	sl, r8
 800b220:	e429      	b.n	800aa76 <_svfprintf_r+0x816>
 800b222:	4614      	mov	r4, r2
 800b224:	461e      	mov	r6, r3
 800b226:	f8cd a014 	str.w	sl, [sp, #20]
 800b22a:	f105 0901 	add.w	r9, r5, #1
 800b22e:	f103 0208 	add.w	r2, r3, #8
 800b232:	9b05      	ldr	r3, [sp, #20]
 800b234:	f8cd 9090 	str.w	r9, [sp, #144]	; 0x90
 800b238:	441c      	add	r4, r3
 800b23a:	f1b9 0f07 	cmp.w	r9, #7
 800b23e:	9425      	str	r4, [sp, #148]	; 0x94
 800b240:	e9c6 7300 	strd	r7, r3, [r6]
 800b244:	f73f af4c 	bgt.w	800b0e0 <_svfprintf_r+0xe80>
 800b248:	f109 0901 	add.w	r9, r9, #1
 800b24c:	f102 0a08 	add.w	sl, r2, #8
 800b250:	4616      	mov	r6, r2
 800b252:	e510      	b.n	800ac76 <_svfprintf_r+0xa16>
 800b254:	461c      	mov	r4, r3
 800b256:	3201      	adds	r2, #1
 800b258:	442c      	add	r4, r5
 800b25a:	2a07      	cmp	r2, #7
 800b25c:	e9cd 2424 	strd	r2, r4, [sp, #144]	; 0x90
 800b260:	e9ca 7500 	strd	r7, r5, [sl]
 800b264:	f300 8127 	bgt.w	800b4b6 <_svfprintf_r+0x1256>
 800b268:	f10a 0a08 	add.w	sl, sl, #8
 800b26c:	e57f      	b.n	800ad6e <_svfprintf_r+0xb0e>
 800b26e:	980d      	ldr	r0, [sp, #52]	; 0x34
 800b270:	9405      	str	r4, [sp, #20]
 800b272:	f7f5 fef5 	bl	8001060 <strlen>
 800b276:	9703      	str	r7, [sp, #12]
 800b278:	e9cd 050a 	strd	r0, r5, [sp, #40]	; 0x28
 800b27c:	4603      	mov	r3, r0
 800b27e:	f7ff b950 	b.w	800a522 <_svfprintf_r+0x2c2>
 800b282:	9a03      	ldr	r2, [sp, #12]
 800b284:	07d5      	lsls	r5, r2, #31
 800b286:	f57f aa99 	bpl.w	800a7bc <_svfprintf_r+0x55c>
 800b28a:	e485      	b.n	800ab98 <_svfprintf_r+0x938>
 800b28c:	2b00      	cmp	r3, #0
 800b28e:	bf08      	it	eq
 800b290:	2301      	moveq	r3, #1
 800b292:	9305      	str	r3, [sp, #20]
 800b294:	e68f      	b.n	800afb6 <_svfprintf_r+0xd56>
 800b296:	9b05      	ldr	r3, [sp, #20]
 800b298:	9809      	ldr	r0, [sp, #36]	; 0x24
 800b29a:	1c5d      	adds	r5, r3, #1
 800b29c:	a921      	add	r1, sp, #132	; 0x84
 800b29e:	ab1e      	add	r3, sp, #120	; 0x78
 800b2a0:	e9cd 3100 	strd	r3, r1, [sp]
 800b2a4:	462a      	mov	r2, r5
 800b2a6:	ab1d      	add	r3, sp, #116	; 0x74
 800b2a8:	2102      	movs	r1, #2
 800b2aa:	ed9d 0b18 	vldr	d0, [sp, #96]	; 0x60
 800b2ae:	f000 faa7 	bl	800b800 <_dtoa_r>
 800b2b2:	900d      	str	r0, [sp, #52]	; 0x34
 800b2b4:	f1b9 0f47 	cmp.w	r9, #71	; 0x47
 800b2b8:	f040 81c3 	bne.w	800b642 <_svfprintf_r+0x13e2>
 800b2bc:	07fb      	lsls	r3, r7, #31
 800b2be:	f140 81b9 	bpl.w	800b634 <_svfprintf_r+0x13d4>
 800b2c2:	9b0d      	ldr	r3, [sp, #52]	; 0x34
 800b2c4:	f1b9 0f46 	cmp.w	r9, #70	; 0x46
 800b2c8:	eb03 0405 	add.w	r4, r3, r5
 800b2cc:	f47f aea2 	bne.w	800b014 <_svfprintf_r+0xdb4>
 800b2d0:	9b0d      	ldr	r3, [sp, #52]	; 0x34
 800b2d2:	781b      	ldrb	r3, [r3, #0]
 800b2d4:	2b30      	cmp	r3, #48	; 0x30
 800b2d6:	f000 815a 	beq.w	800b58e <_svfprintf_r+0x132e>
 800b2da:	9d1d      	ldr	r5, [sp, #116]	; 0x74
 800b2dc:	442c      	add	r4, r5
 800b2de:	e699      	b.n	800b014 <_svfprintf_r+0xdb4>
 800b2e0:	9a1d      	ldr	r2, [sp, #116]	; 0x74
 800b2e2:	9b21      	ldr	r3, [sp, #132]	; 0x84
 800b2e4:	920e      	str	r2, [sp, #56]	; 0x38
 800b2e6:	9a0d      	ldr	r2, [sp, #52]	; 0x34
 800b2e8:	2e47      	cmp	r6, #71	; 0x47
 800b2ea:	eba3 0302 	sub.w	r3, r3, r2
 800b2ee:	930f      	str	r3, [sp, #60]	; 0x3c
 800b2f0:	d107      	bne.n	800b302 <_svfprintf_r+0x10a2>
 800b2f2:	9b0e      	ldr	r3, [sp, #56]	; 0x38
 800b2f4:	1cda      	adds	r2, r3, #3
 800b2f6:	db02      	blt.n	800b2fe <_svfprintf_r+0x109e>
 800b2f8:	9a05      	ldr	r2, [sp, #20]
 800b2fa:	429a      	cmp	r2, r3
 800b2fc:	da33      	bge.n	800b366 <_svfprintf_r+0x1106>
 800b2fe:	f1a9 0902 	sub.w	r9, r9, #2
 800b302:	9b0e      	ldr	r3, [sp, #56]	; 0x38
 800b304:	f88d 907c 	strb.w	r9, [sp, #124]	; 0x7c
 800b308:	3b01      	subs	r3, #1
 800b30a:	2b00      	cmp	r3, #0
 800b30c:	931d      	str	r3, [sp, #116]	; 0x74
 800b30e:	bfbd      	ittte	lt
 800b310:	9b0e      	ldrlt	r3, [sp, #56]	; 0x38
 800b312:	f1c3 0301 	rsblt	r3, r3, #1
 800b316:	222d      	movlt	r2, #45	; 0x2d
 800b318:	222b      	movge	r2, #43	; 0x2b
 800b31a:	2b09      	cmp	r3, #9
 800b31c:	f88d 207d 	strb.w	r2, [sp, #125]	; 0x7d
 800b320:	f300 8101 	bgt.w	800b526 <_svfprintf_r+0x12c6>
 800b324:	3330      	adds	r3, #48	; 0x30
 800b326:	2230      	movs	r2, #48	; 0x30
 800b328:	f88d 307f 	strb.w	r3, [sp, #127]	; 0x7f
 800b32c:	f88d 207e 	strb.w	r2, [sp, #126]	; 0x7e
 800b330:	ab20      	add	r3, sp, #128	; 0x80
 800b332:	aa1f      	add	r2, sp, #124	; 0x7c
 800b334:	1a9b      	subs	r3, r3, r2
 800b336:	9a0f      	ldr	r2, [sp, #60]	; 0x3c
 800b338:	9315      	str	r3, [sp, #84]	; 0x54
 800b33a:	2a01      	cmp	r2, #1
 800b33c:	4413      	add	r3, r2
 800b33e:	930a      	str	r3, [sp, #40]	; 0x28
 800b340:	f340 8149 	ble.w	800b5d6 <_svfprintf_r+0x1376>
 800b344:	9b0a      	ldr	r3, [sp, #40]	; 0x28
 800b346:	9a13      	ldr	r2, [sp, #76]	; 0x4c
 800b348:	4413      	add	r3, r2
 800b34a:	930a      	str	r3, [sp, #40]	; 0x28
 800b34c:	ea23 73e3 	bic.w	r3, r3, r3, asr #31
 800b350:	9304      	str	r3, [sp, #16]
 800b352:	2300      	movs	r3, #0
 800b354:	930e      	str	r3, [sp, #56]	; 0x38
 800b356:	e681      	b.n	800b05c <_svfprintf_r+0xdfc>
 800b358:	262d      	movs	r6, #45	; 0x2d
 800b35a:	2300      	movs	r3, #0
 800b35c:	f88d 606f 	strb.w	r6, [sp, #111]	; 0x6f
 800b360:	9305      	str	r3, [sp, #20]
 800b362:	f7ff b8e7 	b.w	800a534 <_svfprintf_r+0x2d4>
 800b366:	e9dd 310e 	ldrd	r3, r1, [sp, #56]	; 0x38
 800b36a:	428b      	cmp	r3, r1
 800b36c:	f2c0 8080 	blt.w	800b470 <_svfprintf_r+0x1210>
 800b370:	07f8      	lsls	r0, r7, #31
 800b372:	f140 8105 	bpl.w	800b580 <_svfprintf_r+0x1320>
 800b376:	9b0e      	ldr	r3, [sp, #56]	; 0x38
 800b378:	9a13      	ldr	r2, [sp, #76]	; 0x4c
 800b37a:	4413      	add	r3, r2
 800b37c:	930a      	str	r3, [sp, #40]	; 0x28
 800b37e:	ea23 73e3 	bic.w	r3, r3, r3, asr #31
 800b382:	9304      	str	r3, [sp, #16]
 800b384:	f04f 0967 	mov.w	r9, #103	; 0x67
 800b388:	e668      	b.n	800b05c <_svfprintf_r+0xdfc>
 800b38a:	aa23      	add	r2, sp, #140	; 0x8c
 800b38c:	e9dd 1008 	ldrd	r1, r0, [sp, #32]
 800b390:	f001 fdce 	bl	800cf30 <__ssprint_r>
 800b394:	2800      	cmp	r0, #0
 800b396:	f47f a830 	bne.w	800a3fa <_svfprintf_r+0x19a>
 800b39a:	9c25      	ldr	r4, [sp, #148]	; 0x94
 800b39c:	46c2      	mov	sl, r8
 800b39e:	e4de      	b.n	800ad5e <_svfprintf_r+0xafe>
 800b3a0:	262d      	movs	r6, #45	; 0x2d
 800b3a2:	f88d 606f 	strb.w	r6, [sp, #111]	; 0x6f
 800b3a6:	f7ff bad8 	b.w	800a95a <_svfprintf_r+0x6fa>
 800b3aa:	aa23      	add	r2, sp, #140	; 0x8c
 800b3ac:	e9dd 1008 	ldrd	r1, r0, [sp, #32]
 800b3b0:	f001 fdbe 	bl	800cf30 <__ssprint_r>
 800b3b4:	2800      	cmp	r0, #0
 800b3b6:	f47f a820 	bne.w	800a3fa <_svfprintf_r+0x19a>
 800b3ba:	9b1d      	ldr	r3, [sp, #116]	; 0x74
 800b3bc:	9c25      	ldr	r4, [sp, #148]	; 0x94
 800b3be:	46c2      	mov	sl, r8
 800b3c0:	e4de      	b.n	800ad80 <_svfprintf_r+0xb20>
 800b3c2:	9b21      	ldr	r3, [sp, #132]	; 0x84
 800b3c4:	42a3      	cmp	r3, r4
 800b3c6:	f4bf ae2f 	bcs.w	800b028 <_svfprintf_r+0xdc8>
 800b3ca:	2130      	movs	r1, #48	; 0x30
 800b3cc:	1c5a      	adds	r2, r3, #1
 800b3ce:	9221      	str	r2, [sp, #132]	; 0x84
 800b3d0:	7019      	strb	r1, [r3, #0]
 800b3d2:	9b21      	ldr	r3, [sp, #132]	; 0x84
 800b3d4:	429c      	cmp	r4, r3
 800b3d6:	d8f9      	bhi.n	800b3cc <_svfprintf_r+0x116c>
 800b3d8:	e626      	b.n	800b028 <_svfprintf_r+0xdc8>
 800b3da:	e9dd 1210 	ldrd	r1, r2, [sp, #64]	; 0x40
 800b3de:	f102 4300 	add.w	r3, r2, #2147483648	; 0x80000000
 800b3e2:	9319      	str	r3, [sp, #100]	; 0x64
 800b3e4:	232d      	movs	r3, #45	; 0x2d
 800b3e6:	9118      	str	r1, [sp, #96]	; 0x60
 800b3e8:	930c      	str	r3, [sp, #48]	; 0x30
 800b3ea:	e5f1      	b.n	800afd0 <_svfprintf_r+0xd70>
 800b3ec:	2300      	movs	r3, #0
 800b3ee:	9305      	str	r3, [sp, #20]
 800b3f0:	f7fe bf94 	b.w	800a31c <_svfprintf_r+0xbc>
 800b3f4:	aa23      	add	r2, sp, #140	; 0x8c
 800b3f6:	e9dd 1008 	ldrd	r1, r0, [sp, #32]
 800b3fa:	f001 fd99 	bl	800cf30 <__ssprint_r>
 800b3fe:	2800      	cmp	r0, #0
 800b400:	f47e affb 	bne.w	800a3fa <_svfprintf_r+0x19a>
 800b404:	9b1d      	ldr	r3, [sp, #116]	; 0x74
 800b406:	9a0f      	ldr	r2, [sp, #60]	; 0x3c
 800b408:	9c25      	ldr	r4, [sp, #148]	; 0x94
 800b40a:	1ad3      	subs	r3, r2, r3
 800b40c:	46c2      	mov	sl, r8
 800b40e:	e4d0      	b.n	800adb2 <_svfprintf_r+0xb52>
 800b410:	0800df18 	.word	0x0800df18
 800b414:	0800d6b4 	.word	0x0800d6b4
 800b418:	9d05      	ldr	r5, [sp, #20]
 800b41a:	9809      	ldr	r0, [sp, #36]	; 0x24
 800b41c:	aa21      	add	r2, sp, #132	; 0x84
 800b41e:	ab1e      	add	r3, sp, #120	; 0x78
 800b420:	e9cd 3200 	strd	r3, r2, [sp]
 800b424:	2103      	movs	r1, #3
 800b426:	ab1d      	add	r3, sp, #116	; 0x74
 800b428:	462a      	mov	r2, r5
 800b42a:	ed9d 0b18 	vldr	d0, [sp, #96]	; 0x60
 800b42e:	f000 f9e7 	bl	800b800 <_dtoa_r>
 800b432:	900d      	str	r0, [sp, #52]	; 0x34
 800b434:	1944      	adds	r4, r0, r5
 800b436:	e74b      	b.n	800b2d0 <_svfprintf_r+0x1070>
 800b438:	2306      	movs	r3, #6
 800b43a:	9305      	str	r3, [sp, #20]
 800b43c:	e5bb      	b.n	800afb6 <_svfprintf_r+0xd56>
 800b43e:	9b05      	ldr	r3, [sp, #20]
 800b440:	9304      	str	r3, [sp, #16]
 800b442:	930a      	str	r3, [sp, #40]	; 0x28
 800b444:	9005      	str	r0, [sp, #20]
 800b446:	950b      	str	r5, [sp, #44]	; 0x2c
 800b448:	9703      	str	r7, [sp, #12]
 800b44a:	900e      	str	r0, [sp, #56]	; 0x38
 800b44c:	f89d 606f 	ldrb.w	r6, [sp, #111]	; 0x6f
 800b450:	f7ff b86d 	b.w	800a52e <_svfprintf_r+0x2ce>
 800b454:	aa23      	add	r2, sp, #140	; 0x8c
 800b456:	e9dd 1008 	ldrd	r1, r0, [sp, #32]
 800b45a:	f001 fd69 	bl	800cf30 <__ssprint_r>
 800b45e:	2800      	cmp	r0, #0
 800b460:	f47e afcb 	bne.w	800a3fa <_svfprintf_r+0x19a>
 800b464:	9b1d      	ldr	r3, [sp, #116]	; 0x74
 800b466:	e9dd 2424 	ldrd	r2, r4, [sp, #144]	; 0x90
 800b46a:	46c2      	mov	sl, r8
 800b46c:	f7ff bba4 	b.w	800abb8 <_svfprintf_r+0x958>
 800b470:	9a13      	ldr	r2, [sp, #76]	; 0x4c
 800b472:	9b0f      	ldr	r3, [sp, #60]	; 0x3c
 800b474:	4413      	add	r3, r2
 800b476:	9a0e      	ldr	r2, [sp, #56]	; 0x38
 800b478:	930a      	str	r3, [sp, #40]	; 0x28
 800b47a:	2a00      	cmp	r2, #0
 800b47c:	dc06      	bgt.n	800b48c <_svfprintf_r+0x122c>
 800b47e:	9b0e      	ldr	r3, [sp, #56]	; 0x38
 800b480:	9a0a      	ldr	r2, [sp, #40]	; 0x28
 800b482:	f1c3 0301 	rsb	r3, r3, #1
 800b486:	441a      	add	r2, r3
 800b488:	4613      	mov	r3, r2
 800b48a:	920a      	str	r2, [sp, #40]	; 0x28
 800b48c:	ea23 73e3 	bic.w	r3, r3, r3, asr #31
 800b490:	9304      	str	r3, [sp, #16]
 800b492:	f04f 0967 	mov.w	r9, #103	; 0x67
 800b496:	e5e1      	b.n	800b05c <_svfprintf_r+0xdfc>
 800b498:	9d05      	ldr	r5, [sp, #20]
 800b49a:	9809      	ldr	r0, [sp, #36]	; 0x24
 800b49c:	aa21      	add	r2, sp, #132	; 0x84
 800b49e:	ab1e      	add	r3, sp, #120	; 0x78
 800b4a0:	e9cd 3200 	strd	r3, r2, [sp]
 800b4a4:	2103      	movs	r1, #3
 800b4a6:	ab1d      	add	r3, sp, #116	; 0x74
 800b4a8:	462a      	mov	r2, r5
 800b4aa:	ed9d 0b18 	vldr	d0, [sp, #96]	; 0x60
 800b4ae:	f000 f9a7 	bl	800b800 <_dtoa_r>
 800b4b2:	900d      	str	r0, [sp, #52]	; 0x34
 800b4b4:	e705      	b.n	800b2c2 <_svfprintf_r+0x1062>
 800b4b6:	aa23      	add	r2, sp, #140	; 0x8c
 800b4b8:	e9dd 1008 	ldrd	r1, r0, [sp, #32]
 800b4bc:	f001 fd38 	bl	800cf30 <__ssprint_r>
 800b4c0:	2800      	cmp	r0, #0
 800b4c2:	f47e af9a 	bne.w	800a3fa <_svfprintf_r+0x19a>
 800b4c6:	9c25      	ldr	r4, [sp, #148]	; 0x94
 800b4c8:	46c2      	mov	sl, r8
 800b4ca:	e450      	b.n	800ad6e <_svfprintf_r+0xb0e>
 800b4cc:	425d      	negs	r5, r3
 800b4ce:	3310      	adds	r3, #16
 800b4d0:	4f72      	ldr	r7, [pc, #456]	; (800b69c <_svfprintf_r+0x143c>)
 800b4d2:	da1c      	bge.n	800b50e <_svfprintf_r+0x12ae>
 800b4d4:	2610      	movs	r6, #16
 800b4d6:	f8dd 9024 	ldr.w	r9, [sp, #36]	; 0x24
 800b4da:	e004      	b.n	800b4e6 <_svfprintf_r+0x1286>
 800b4dc:	f10a 0a08 	add.w	sl, sl, #8
 800b4e0:	3d10      	subs	r5, #16
 800b4e2:	2d10      	cmp	r5, #16
 800b4e4:	dd13      	ble.n	800b50e <_svfprintf_r+0x12ae>
 800b4e6:	3201      	adds	r2, #1
 800b4e8:	3410      	adds	r4, #16
 800b4ea:	2a07      	cmp	r2, #7
 800b4ec:	e9cd 2424 	strd	r2, r4, [sp, #144]	; 0x90
 800b4f0:	e9ca 7600 	strd	r7, r6, [sl]
 800b4f4:	ddf2      	ble.n	800b4dc <_svfprintf_r+0x127c>
 800b4f6:	aa23      	add	r2, sp, #140	; 0x8c
 800b4f8:	9908      	ldr	r1, [sp, #32]
 800b4fa:	4648      	mov	r0, r9
 800b4fc:	f001 fd18 	bl	800cf30 <__ssprint_r>
 800b500:	2800      	cmp	r0, #0
 800b502:	f47e af7a 	bne.w	800a3fa <_svfprintf_r+0x19a>
 800b506:	e9dd 2424 	ldrd	r2, r4, [sp, #144]	; 0x90
 800b50a:	46c2      	mov	sl, r8
 800b50c:	e7e8      	b.n	800b4e0 <_svfprintf_r+0x1280>
 800b50e:	3201      	adds	r2, #1
 800b510:	442c      	add	r4, r5
 800b512:	2a07      	cmp	r2, #7
 800b514:	e9cd 2424 	strd	r2, r4, [sp, #144]	; 0x90
 800b518:	e9ca 7500 	strd	r7, r5, [sl]
 800b51c:	dc7d      	bgt.n	800b61a <_svfprintf_r+0x13ba>
 800b51e:	f10a 0a08 	add.w	sl, sl, #8
 800b522:	f7ff bb4c 	b.w	800abbe <_svfprintf_r+0x95e>
 800b526:	f10d 048b 	add.w	r4, sp, #139	; 0x8b
 800b52a:	4620      	mov	r0, r4
 800b52c:	4d5c      	ldr	r5, [pc, #368]	; (800b6a0 <_svfprintf_r+0x1440>)
 800b52e:	e000      	b.n	800b532 <_svfprintf_r+0x12d2>
 800b530:	4610      	mov	r0, r2
 800b532:	fba5 1203 	umull	r1, r2, r5, r3
 800b536:	08d2      	lsrs	r2, r2, #3
 800b538:	eb02 0182 	add.w	r1, r2, r2, lsl #2
 800b53c:	eba3 0341 	sub.w	r3, r3, r1, lsl #1
 800b540:	f103 0130 	add.w	r1, r3, #48	; 0x30
 800b544:	4613      	mov	r3, r2
 800b546:	2b09      	cmp	r3, #9
 800b548:	f800 1c01 	strb.w	r1, [r0, #-1]
 800b54c:	f100 32ff 	add.w	r2, r0, #4294967295
 800b550:	dcee      	bgt.n	800b530 <_svfprintf_r+0x12d0>
 800b552:	3330      	adds	r3, #48	; 0x30
 800b554:	3802      	subs	r0, #2
 800b556:	b2d9      	uxtb	r1, r3
 800b558:	4284      	cmp	r4, r0
 800b55a:	f802 1c01 	strb.w	r1, [r2, #-1]
 800b55e:	d973      	bls.n	800b648 <_svfprintf_r+0x13e8>
 800b560:	f10d 007e 	add.w	r0, sp, #126	; 0x7e
 800b564:	4613      	mov	r3, r2
 800b566:	e001      	b.n	800b56c <_svfprintf_r+0x130c>
 800b568:	f813 1b01 	ldrb.w	r1, [r3], #1
 800b56c:	f800 1b01 	strb.w	r1, [r0], #1
 800b570:	429c      	cmp	r4, r3
 800b572:	d1f9      	bne.n	800b568 <_svfprintf_r+0x1308>
 800b574:	ab23      	add	r3, sp, #140	; 0x8c
 800b576:	1a9b      	subs	r3, r3, r2
 800b578:	f10d 027e 	add.w	r2, sp, #126	; 0x7e
 800b57c:	4413      	add	r3, r2
 800b57e:	e6d8      	b.n	800b332 <_svfprintf_r+0x10d2>
 800b580:	ea23 72e3 	bic.w	r2, r3, r3, asr #31
 800b584:	9204      	str	r2, [sp, #16]
 800b586:	930a      	str	r3, [sp, #40]	; 0x28
 800b588:	f04f 0967 	mov.w	r9, #103	; 0x67
 800b58c:	e566      	b.n	800b05c <_svfprintf_r+0xdfc>
 800b58e:	2200      	movs	r2, #0
 800b590:	2300      	movs	r3, #0
 800b592:	e9dd 0118 	ldrd	r0, r1, [sp, #96]	; 0x60
 800b596:	f7f5 fae1 	bl	8000b5c <__aeabi_dcmpeq>
 800b59a:	2800      	cmp	r0, #0
 800b59c:	f47f ae9d 	bne.w	800b2da <_svfprintf_r+0x107a>
 800b5a0:	f1c5 0501 	rsb	r5, r5, #1
 800b5a4:	951d      	str	r5, [sp, #116]	; 0x74
 800b5a6:	442c      	add	r4, r5
 800b5a8:	e534      	b.n	800b014 <_svfprintf_r+0xdb4>
 800b5aa:	9b11      	ldr	r3, [sp, #68]	; 0x44
 800b5ac:	4a3d      	ldr	r2, [pc, #244]	; (800b6a4 <_svfprintf_r+0x1444>)
 800b5ae:	2b00      	cmp	r3, #0
 800b5b0:	bfb6      	itet	lt
 800b5b2:	262d      	movlt	r6, #45	; 0x2d
 800b5b4:	f89d 606f 	ldrbge.w	r6, [sp, #111]	; 0x6f
 800b5b8:	f88d 606f 	strblt.w	r6, [sp, #111]	; 0x6f
 800b5bc:	4b3a      	ldr	r3, [pc, #232]	; (800b6a8 <_svfprintf_r+0x1448>)
 800b5be:	f7ff b9ce 	b.w	800a95e <_svfprintf_r+0x6fe>
 800b5c2:	9b0e      	ldr	r3, [sp, #56]	; 0x38
 800b5c4:	9a13      	ldr	r2, [sp, #76]	; 0x4c
 800b5c6:	4413      	add	r3, r2
 800b5c8:	9a05      	ldr	r2, [sp, #20]
 800b5ca:	441a      	add	r2, r3
 800b5cc:	ea22 73e2 	bic.w	r3, r2, r2, asr #31
 800b5d0:	920a      	str	r2, [sp, #40]	; 0x28
 800b5d2:	9304      	str	r3, [sp, #16]
 800b5d4:	e542      	b.n	800b05c <_svfprintf_r+0xdfc>
 800b5d6:	f017 0301 	ands.w	r3, r7, #1
 800b5da:	930e      	str	r3, [sp, #56]	; 0x38
 800b5dc:	f47f aeb2 	bne.w	800b344 <_svfprintf_r+0x10e4>
 800b5e0:	9b0a      	ldr	r3, [sp, #40]	; 0x28
 800b5e2:	ea23 73e3 	bic.w	r3, r3, r3, asr #31
 800b5e6:	9304      	str	r3, [sp, #16]
 800b5e8:	e538      	b.n	800b05c <_svfprintf_r+0xdfc>
 800b5ea:	b93b      	cbnz	r3, 800b5fc <_svfprintf_r+0x139c>
 800b5ec:	07fc      	lsls	r4, r7, #31
 800b5ee:	d405      	bmi.n	800b5fc <_svfprintf_r+0x139c>
 800b5f0:	2301      	movs	r3, #1
 800b5f2:	9304      	str	r3, [sp, #16]
 800b5f4:	930a      	str	r3, [sp, #40]	; 0x28
 800b5f6:	e531      	b.n	800b05c <_svfprintf_r+0xdfc>
 800b5f8:	4652      	mov	r2, sl
 800b5fa:	e61a      	b.n	800b232 <_svfprintf_r+0xfd2>
 800b5fc:	9b13      	ldr	r3, [sp, #76]	; 0x4c
 800b5fe:	3301      	adds	r3, #1
 800b600:	e7e2      	b.n	800b5c8 <_svfprintf_r+0x1368>
 800b602:	9d0b      	ldr	r5, [sp, #44]	; 0x2c
 800b604:	f89b 3001 	ldrb.w	r3, [fp, #1]
 800b608:	682c      	ldr	r4, [r5, #0]
 800b60a:	4683      	mov	fp, r0
 800b60c:	ea44 74e4 	orr.w	r4, r4, r4, asr #31
 800b610:	1d28      	adds	r0, r5, #4
 800b612:	9405      	str	r4, [sp, #20]
 800b614:	900b      	str	r0, [sp, #44]	; 0x2c
 800b616:	f7fe be7e 	b.w	800a316 <_svfprintf_r+0xb6>
 800b61a:	aa23      	add	r2, sp, #140	; 0x8c
 800b61c:	e9dd 1008 	ldrd	r1, r0, [sp, #32]
 800b620:	f001 fc86 	bl	800cf30 <__ssprint_r>
 800b624:	2800      	cmp	r0, #0
 800b626:	f47e aee8 	bne.w	800a3fa <_svfprintf_r+0x19a>
 800b62a:	e9dd 2424 	ldrd	r2, r4, [sp, #144]	; 0x90
 800b62e:	46c2      	mov	sl, r8
 800b630:	f7ff bac5 	b.w	800abbe <_svfprintf_r+0x95e>
 800b634:	9a1d      	ldr	r2, [sp, #116]	; 0x74
 800b636:	9b21      	ldr	r3, [sp, #132]	; 0x84
 800b638:	920e      	str	r2, [sp, #56]	; 0x38
 800b63a:	9a0d      	ldr	r2, [sp, #52]	; 0x34
 800b63c:	1a9b      	subs	r3, r3, r2
 800b63e:	930f      	str	r3, [sp, #60]	; 0x3c
 800b640:	e657      	b.n	800b2f2 <_svfprintf_r+0x1092>
 800b642:	9b0d      	ldr	r3, [sp, #52]	; 0x34
 800b644:	195c      	adds	r4, r3, r5
 800b646:	e4e5      	b.n	800b014 <_svfprintf_r+0xdb4>
 800b648:	f10d 037e 	add.w	r3, sp, #126	; 0x7e
 800b64c:	e671      	b.n	800b332 <_svfprintf_r+0x10d2>
 800b64e:	f88d 106f 	strb.w	r1, [sp, #111]	; 0x6f
 800b652:	f7fe bf9c 	b.w	800a58e <_svfprintf_r+0x32e>
 800b656:	9a09      	ldr	r2, [sp, #36]	; 0x24
 800b658:	230c      	movs	r3, #12
 800b65a:	6013      	str	r3, [r2, #0]
 800b65c:	f04f 33ff 	mov.w	r3, #4294967295
 800b660:	9306      	str	r3, [sp, #24]
 800b662:	f7fe bed3 	b.w	800a40c <_svfprintf_r+0x1ac>
 800b666:	9d05      	ldr	r5, [sp, #20]
 800b668:	e624      	b.n	800b2b4 <_svfprintf_r+0x1054>
 800b66a:	f88d 106f 	strb.w	r1, [sp, #111]	; 0x6f
 800b66e:	f7ff b8ec 	b.w	800a84a <_svfprintf_r+0x5ea>
 800b672:	f88d 106f 	strb.w	r1, [sp, #111]	; 0x6f
 800b676:	f7ff b93f 	b.w	800a8f8 <_svfprintf_r+0x698>
 800b67a:	f88d 106f 	strb.w	r1, [sp, #111]	; 0x6f
 800b67e:	f7ff b98e 	b.w	800a99e <_svfprintf_r+0x73e>
 800b682:	f88d 106f 	strb.w	r1, [sp, #111]	; 0x6f
 800b686:	f7ff b9c6 	b.w	800aa16 <_svfprintf_r+0x7b6>
 800b68a:	f88d 106f 	strb.w	r1, [sp, #111]	; 0x6f
 800b68e:	f7fe bf58 	b.w	800a542 <_svfprintf_r+0x2e2>
 800b692:	f88d 106f 	strb.w	r1, [sp, #111]	; 0x6f
 800b696:	f7ff b916 	b.w	800a8c6 <_svfprintf_r+0x666>
 800b69a:	bf00      	nop
 800b69c:	0800df30 	.word	0x0800df30
 800b6a0:	cccccccd 	.word	0xcccccccd
 800b6a4:	0800deec 	.word	0x0800deec
 800b6a8:	0800dee8 	.word	0x0800dee8
 800b6ac:	00000000 	.word	0x00000000

0800b6b0 <__ascii_wctomb>:
 800b6b0:	b121      	cbz	r1, 800b6bc <__ascii_wctomb+0xc>
 800b6b2:	2aff      	cmp	r2, #255	; 0xff
 800b6b4:	d804      	bhi.n	800b6c0 <__ascii_wctomb+0x10>
 800b6b6:	700a      	strb	r2, [r1, #0]
 800b6b8:	2001      	movs	r0, #1
 800b6ba:	4770      	bx	lr
 800b6bc:	4608      	mov	r0, r1
 800b6be:	4770      	bx	lr
 800b6c0:	238a      	movs	r3, #138	; 0x8a
 800b6c2:	6003      	str	r3, [r0, #0]
 800b6c4:	f04f 30ff 	mov.w	r0, #4294967295
 800b6c8:	4770      	bx	lr
 800b6ca:	bf00      	nop
 800b6cc:	0000      	movs	r0, r0
	...

0800b6d0 <quorem>:
 800b6d0:	e92d 4ff0 	stmdb	sp!, {r4, r5, r6, r7, r8, r9, sl, fp, lr}
 800b6d4:	6903      	ldr	r3, [r0, #16]
 800b6d6:	690f      	ldr	r7, [r1, #16]
 800b6d8:	42bb      	cmp	r3, r7
 800b6da:	b083      	sub	sp, #12
 800b6dc:	f2c0 8086 	blt.w	800b7ec <quorem+0x11c>
 800b6e0:	3f01      	subs	r7, #1
 800b6e2:	f101 0914 	add.w	r9, r1, #20
 800b6e6:	f100 0a14 	add.w	sl, r0, #20
 800b6ea:	f859 2027 	ldr.w	r2, [r9, r7, lsl #2]
 800b6ee:	f85a 3027 	ldr.w	r3, [sl, r7, lsl #2]
 800b6f2:	00bc      	lsls	r4, r7, #2
 800b6f4:	3201      	adds	r2, #1
 800b6f6:	fbb3 f8f2 	udiv	r8, r3, r2
 800b6fa:	eb0a 0304 	add.w	r3, sl, r4
 800b6fe:	9400      	str	r4, [sp, #0]
 800b700:	eb09 0b04 	add.w	fp, r9, r4
 800b704:	9301      	str	r3, [sp, #4]
 800b706:	f1b8 0f00 	cmp.w	r8, #0
 800b70a:	d038      	beq.n	800b77e <quorem+0xae>
 800b70c:	2500      	movs	r5, #0
 800b70e:	462e      	mov	r6, r5
 800b710:	46ce      	mov	lr, r9
 800b712:	46d4      	mov	ip, sl
 800b714:	f85e 4b04 	ldr.w	r4, [lr], #4
 800b718:	f8dc 3000 	ldr.w	r3, [ip]
 800b71c:	b2a2      	uxth	r2, r4
 800b71e:	fb08 5502 	mla	r5, r8, r2, r5
 800b722:	0c22      	lsrs	r2, r4, #16
 800b724:	0c2c      	lsrs	r4, r5, #16
 800b726:	fb08 4202 	mla	r2, r8, r2, r4
 800b72a:	b2ad      	uxth	r5, r5
 800b72c:	1b75      	subs	r5, r6, r5
 800b72e:	b296      	uxth	r6, r2
 800b730:	ebc6 4613 	rsb	r6, r6, r3, lsr #16
 800b734:	fa15 f383 	uxtah	r3, r5, r3
 800b738:	eb06 4623 	add.w	r6, r6, r3, asr #16
 800b73c:	b29b      	uxth	r3, r3
 800b73e:	ea43 4306 	orr.w	r3, r3, r6, lsl #16
 800b742:	45f3      	cmp	fp, lr
 800b744:	ea4f 4512 	mov.w	r5, r2, lsr #16
 800b748:	f84c 3b04 	str.w	r3, [ip], #4
 800b74c:	ea4f 4626 	mov.w	r6, r6, asr #16
 800b750:	d2e0      	bcs.n	800b714 <quorem+0x44>
 800b752:	9b00      	ldr	r3, [sp, #0]
 800b754:	f85a 3003 	ldr.w	r3, [sl, r3]
 800b758:	b98b      	cbnz	r3, 800b77e <quorem+0xae>
 800b75a:	9a01      	ldr	r2, [sp, #4]
 800b75c:	1f13      	subs	r3, r2, #4
 800b75e:	459a      	cmp	sl, r3
 800b760:	d20c      	bcs.n	800b77c <quorem+0xac>
 800b762:	f852 3c04 	ldr.w	r3, [r2, #-4]
 800b766:	b94b      	cbnz	r3, 800b77c <quorem+0xac>
 800b768:	f1a2 0308 	sub.w	r3, r2, #8
 800b76c:	e002      	b.n	800b774 <quorem+0xa4>
 800b76e:	681a      	ldr	r2, [r3, #0]
 800b770:	3b04      	subs	r3, #4
 800b772:	b91a      	cbnz	r2, 800b77c <quorem+0xac>
 800b774:	459a      	cmp	sl, r3
 800b776:	f107 37ff 	add.w	r7, r7, #4294967295
 800b77a:	d3f8      	bcc.n	800b76e <quorem+0x9e>
 800b77c:	6107      	str	r7, [r0, #16]
 800b77e:	4604      	mov	r4, r0
 800b780:	f001 fad6 	bl	800cd30 <__mcmp>
 800b784:	2800      	cmp	r0, #0
 800b786:	db2d      	blt.n	800b7e4 <quorem+0x114>
 800b788:	f108 0801 	add.w	r8, r8, #1
 800b78c:	4655      	mov	r5, sl
 800b78e:	2300      	movs	r3, #0
 800b790:	f859 1b04 	ldr.w	r1, [r9], #4
 800b794:	6828      	ldr	r0, [r5, #0]
 800b796:	b28a      	uxth	r2, r1
 800b798:	1a9a      	subs	r2, r3, r2
 800b79a:	0c0b      	lsrs	r3, r1, #16
 800b79c:	fa12 f280 	uxtah	r2, r2, r0
 800b7a0:	ebc3 4310 	rsb	r3, r3, r0, lsr #16
 800b7a4:	eb03 4322 	add.w	r3, r3, r2, asr #16
 800b7a8:	b292      	uxth	r2, r2
 800b7aa:	ea42 4203 	orr.w	r2, r2, r3, lsl #16
 800b7ae:	45cb      	cmp	fp, r9
 800b7b0:	f845 2b04 	str.w	r2, [r5], #4
 800b7b4:	ea4f 4323 	mov.w	r3, r3, asr #16
 800b7b8:	d2ea      	bcs.n	800b790 <quorem+0xc0>
 800b7ba:	f85a 2027 	ldr.w	r2, [sl, r7, lsl #2]
 800b7be:	eb0a 0387 	add.w	r3, sl, r7, lsl #2
 800b7c2:	b97a      	cbnz	r2, 800b7e4 <quorem+0x114>
 800b7c4:	1f1a      	subs	r2, r3, #4
 800b7c6:	4592      	cmp	sl, r2
 800b7c8:	d20b      	bcs.n	800b7e2 <quorem+0x112>
 800b7ca:	f853 2c04 	ldr.w	r2, [r3, #-4]
 800b7ce:	b942      	cbnz	r2, 800b7e2 <quorem+0x112>
 800b7d0:	3b08      	subs	r3, #8
 800b7d2:	e002      	b.n	800b7da <quorem+0x10a>
 800b7d4:	681a      	ldr	r2, [r3, #0]
 800b7d6:	3b04      	subs	r3, #4
 800b7d8:	b91a      	cbnz	r2, 800b7e2 <quorem+0x112>
 800b7da:	459a      	cmp	sl, r3
 800b7dc:	f107 37ff 	add.w	r7, r7, #4294967295
 800b7e0:	d3f8      	bcc.n	800b7d4 <quorem+0x104>
 800b7e2:	6127      	str	r7, [r4, #16]
 800b7e4:	4640      	mov	r0, r8
 800b7e6:	b003      	add	sp, #12
 800b7e8:	e8bd 8ff0 	ldmia.w	sp!, {r4, r5, r6, r7, r8, r9, sl, fp, pc}
 800b7ec:	2000      	movs	r0, #0
 800b7ee:	b003      	add	sp, #12
 800b7f0:	e8bd 8ff0 	ldmia.w	sp!, {r4, r5, r6, r7, r8, r9, sl, fp, pc}
	...

0800b800 <_dtoa_r>:
 800b800:	e92d 4ff0 	stmdb	sp!, {r4, r5, r6, r7, r8, r9, sl, fp, lr}
 800b804:	ec55 4b10 	vmov	r4, r5, d0
 800b808:	b09b      	sub	sp, #108	; 0x6c
 800b80a:	6c06      	ldr	r6, [r0, #64]	; 0x40
 800b80c:	9102      	str	r1, [sp, #8]
 800b80e:	4681      	mov	r9, r0
 800b810:	9207      	str	r2, [sp, #28]
 800b812:	9305      	str	r3, [sp, #20]
 800b814:	e9cd 4500 	strd	r4, r5, [sp]
 800b818:	b156      	cbz	r6, 800b830 <_dtoa_r+0x30>
 800b81a:	6c42      	ldr	r2, [r0, #68]	; 0x44
 800b81c:	6072      	str	r2, [r6, #4]
 800b81e:	2301      	movs	r3, #1
 800b820:	4093      	lsls	r3, r2
 800b822:	60b3      	str	r3, [r6, #8]
 800b824:	4631      	mov	r1, r6
 800b826:	f001 f883 	bl	800c930 <_Bfree>
 800b82a:	2300      	movs	r3, #0
 800b82c:	f8c9 3040 	str.w	r3, [r9, #64]	; 0x40
 800b830:	f1b5 0800 	subs.w	r8, r5, #0
 800b834:	9a24      	ldr	r2, [sp, #144]	; 0x90
 800b836:	bfb4      	ite	lt
 800b838:	2301      	movlt	r3, #1
 800b83a:	2300      	movge	r3, #0
 800b83c:	6013      	str	r3, [r2, #0]
 800b83e:	4b76      	ldr	r3, [pc, #472]	; (800ba18 <_dtoa_r+0x218>)
 800b840:	bfbc      	itt	lt
 800b842:	f028 4800 	biclt.w	r8, r8, #2147483648	; 0x80000000
 800b846:	f8cd 8004 	strlt.w	r8, [sp, #4]
 800b84a:	ea33 0308 	bics.w	r3, r3, r8
 800b84e:	f000 80a6 	beq.w	800b99e <_dtoa_r+0x19e>
 800b852:	e9dd 6700 	ldrd	r6, r7, [sp]
 800b856:	2200      	movs	r2, #0
 800b858:	2300      	movs	r3, #0
 800b85a:	4630      	mov	r0, r6
 800b85c:	4639      	mov	r1, r7
 800b85e:	f7f5 f97d 	bl	8000b5c <__aeabi_dcmpeq>
 800b862:	4605      	mov	r5, r0
 800b864:	b178      	cbz	r0, 800b886 <_dtoa_r+0x86>
 800b866:	9a05      	ldr	r2, [sp, #20]
 800b868:	2301      	movs	r3, #1
 800b86a:	6013      	str	r3, [r2, #0]
 800b86c:	9b25      	ldr	r3, [sp, #148]	; 0x94
 800b86e:	2b00      	cmp	r3, #0
 800b870:	f000 80c0 	beq.w	800b9f4 <_dtoa_r+0x1f4>
 800b874:	4b69      	ldr	r3, [pc, #420]	; (800ba1c <_dtoa_r+0x21c>)
 800b876:	9a25      	ldr	r2, [sp, #148]	; 0x94
 800b878:	f103 3bff 	add.w	fp, r3, #4294967295
 800b87c:	6013      	str	r3, [r2, #0]
 800b87e:	4658      	mov	r0, fp
 800b880:	b01b      	add	sp, #108	; 0x6c
 800b882:	e8bd 8ff0 	ldmia.w	sp!, {r4, r5, r6, r7, r8, r9, sl, fp, pc}
 800b886:	aa18      	add	r2, sp, #96	; 0x60
 800b888:	a919      	add	r1, sp, #100	; 0x64
 800b88a:	ec47 6b10 	vmov	d0, r6, r7
 800b88e:	4648      	mov	r0, r9
 800b890:	f001 fae6 	bl	800ce60 <__d2b>
 800b894:	ea5f 5418 	movs.w	r4, r8, lsr #20
 800b898:	4682      	mov	sl, r0
 800b89a:	f040 80a0 	bne.w	800b9de <_dtoa_r+0x1de>
 800b89e:	e9dd 5418 	ldrd	r5, r4, [sp, #96]	; 0x60
 800b8a2:	442c      	add	r4, r5
 800b8a4:	f204 4332 	addw	r3, r4, #1074	; 0x432
 800b8a8:	2b20      	cmp	r3, #32
 800b8aa:	f340 842e 	ble.w	800c10a <_dtoa_r+0x90a>
 800b8ae:	f1c3 0340 	rsb	r3, r3, #64	; 0x40
 800b8b2:	fa08 f803 	lsl.w	r8, r8, r3
 800b8b6:	9b00      	ldr	r3, [sp, #0]
 800b8b8:	f204 4012 	addw	r0, r4, #1042	; 0x412
 800b8bc:	fa23 f000 	lsr.w	r0, r3, r0
 800b8c0:	ea48 0000 	orr.w	r0, r8, r0
 800b8c4:	f7f4 fe5e 	bl	8000584 <__aeabi_ui2d>
 800b8c8:	2301      	movs	r3, #1
 800b8ca:	4606      	mov	r6, r0
 800b8cc:	3c01      	subs	r4, #1
 800b8ce:	f1a1 77f8 	sub.w	r7, r1, #32505856	; 0x1f00000
 800b8d2:	930f      	str	r3, [sp, #60]	; 0x3c
 800b8d4:	4630      	mov	r0, r6
 800b8d6:	4639      	mov	r1, r7
 800b8d8:	2200      	movs	r2, #0
 800b8da:	4b51      	ldr	r3, [pc, #324]	; (800ba20 <_dtoa_r+0x220>)
 800b8dc:	f7f4 fd14 	bl	8000308 <__aeabi_dsub>
 800b8e0:	a347      	add	r3, pc, #284	; (adr r3, 800ba00 <_dtoa_r+0x200>)
 800b8e2:	e9d3 2300 	ldrd	r2, r3, [r3]
 800b8e6:	f7f4 fecb 	bl	8000680 <__aeabi_dmul>
 800b8ea:	a347      	add	r3, pc, #284	; (adr r3, 800ba08 <_dtoa_r+0x208>)
 800b8ec:	e9d3 2300 	ldrd	r2, r3, [r3]
 800b8f0:	f7f4 fd0c 	bl	800030c <__adddf3>
 800b8f4:	4606      	mov	r6, r0
 800b8f6:	4620      	mov	r0, r4
 800b8f8:	460f      	mov	r7, r1
 800b8fa:	f7f4 fe53 	bl	80005a4 <__aeabi_i2d>
 800b8fe:	a344      	add	r3, pc, #272	; (adr r3, 800ba10 <_dtoa_r+0x210>)
 800b900:	e9d3 2300 	ldrd	r2, r3, [r3]
 800b904:	f7f4 febc 	bl	8000680 <__aeabi_dmul>
 800b908:	4602      	mov	r2, r0
 800b90a:	460b      	mov	r3, r1
 800b90c:	4630      	mov	r0, r6
 800b90e:	4639      	mov	r1, r7
 800b910:	f7f4 fcfc 	bl	800030c <__adddf3>
 800b914:	4606      	mov	r6, r0
 800b916:	460f      	mov	r7, r1
 800b918:	f7f5 f952 	bl	8000bc0 <__aeabi_d2iz>
 800b91c:	2200      	movs	r2, #0
 800b91e:	9006      	str	r0, [sp, #24]
 800b920:	2300      	movs	r3, #0
 800b922:	4630      	mov	r0, r6
 800b924:	4639      	mov	r1, r7
 800b926:	f7f5 f923 	bl	8000b70 <__aeabi_dcmplt>
 800b92a:	2800      	cmp	r0, #0
 800b92c:	f040 8273 	bne.w	800be16 <_dtoa_r+0x616>
 800b930:	9e06      	ldr	r6, [sp, #24]
 800b932:	2e16      	cmp	r6, #22
 800b934:	f200 825d 	bhi.w	800bdf2 <_dtoa_r+0x5f2>
 800b938:	4b3a      	ldr	r3, [pc, #232]	; (800ba24 <_dtoa_r+0x224>)
 800b93a:	eb03 03c6 	add.w	r3, r3, r6, lsl #3
 800b93e:	e9d3 0100 	ldrd	r0, r1, [r3]
 800b942:	e9dd 2300 	ldrd	r2, r3, [sp]
 800b946:	f7f5 f931 	bl	8000bac <__aeabi_dcmpgt>
 800b94a:	2800      	cmp	r0, #0
 800b94c:	f000 83d9 	beq.w	800c102 <_dtoa_r+0x902>
 800b950:	1e73      	subs	r3, r6, #1
 800b952:	9306      	str	r3, [sp, #24]
 800b954:	2300      	movs	r3, #0
 800b956:	930d      	str	r3, [sp, #52]	; 0x34
 800b958:	1b2c      	subs	r4, r5, r4
 800b95a:	f1b4 0801 	subs.w	r8, r4, #1
 800b95e:	f100 8254 	bmi.w	800be0a <_dtoa_r+0x60a>
 800b962:	2300      	movs	r3, #0
 800b964:	9308      	str	r3, [sp, #32]
 800b966:	9b06      	ldr	r3, [sp, #24]
 800b968:	2b00      	cmp	r3, #0
 800b96a:	f2c0 8245 	blt.w	800bdf8 <_dtoa_r+0x5f8>
 800b96e:	4498      	add	r8, r3
 800b970:	930c      	str	r3, [sp, #48]	; 0x30
 800b972:	2300      	movs	r3, #0
 800b974:	930b      	str	r3, [sp, #44]	; 0x2c
 800b976:	9b02      	ldr	r3, [sp, #8]
 800b978:	2b09      	cmp	r3, #9
 800b97a:	d85b      	bhi.n	800ba34 <_dtoa_r+0x234>
 800b97c:	2b05      	cmp	r3, #5
 800b97e:	f340 83c2 	ble.w	800c106 <_dtoa_r+0x906>
 800b982:	3b04      	subs	r3, #4
 800b984:	9302      	str	r3, [sp, #8]
 800b986:	2500      	movs	r5, #0
 800b988:	9b02      	ldr	r3, [sp, #8]
 800b98a:	3b02      	subs	r3, #2
 800b98c:	2b03      	cmp	r3, #3
 800b98e:	f200 849a 	bhi.w	800c2c6 <_dtoa_r+0xac6>
 800b992:	e8df f013 	tbh	[pc, r3, lsl #1]
 800b996:	03e1      	.short	0x03e1
 800b998:	03ea03c1 	.word	0x03ea03c1
 800b99c:	04f7      	.short	0x04f7
 800b99e:	9a05      	ldr	r2, [sp, #20]
 800b9a0:	f242 730f 	movw	r3, #9999	; 0x270f
 800b9a4:	6013      	str	r3, [r2, #0]
 800b9a6:	9b00      	ldr	r3, [sp, #0]
 800b9a8:	b983      	cbnz	r3, 800b9cc <_dtoa_r+0x1cc>
 800b9aa:	f3c8 0313 	ubfx	r3, r8, #0, #20
 800b9ae:	b96b      	cbnz	r3, 800b9cc <_dtoa_r+0x1cc>
 800b9b0:	9b25      	ldr	r3, [sp, #148]	; 0x94
 800b9b2:	f8df b074 	ldr.w	fp, [pc, #116]	; 800ba28 <_dtoa_r+0x228>
 800b9b6:	2b00      	cmp	r3, #0
 800b9b8:	f43f af61 	beq.w	800b87e <_dtoa_r+0x7e>
 800b9bc:	f10b 0308 	add.w	r3, fp, #8
 800b9c0:	9a25      	ldr	r2, [sp, #148]	; 0x94
 800b9c2:	4658      	mov	r0, fp
 800b9c4:	6013      	str	r3, [r2, #0]
 800b9c6:	b01b      	add	sp, #108	; 0x6c
 800b9c8:	e8bd 8ff0 	ldmia.w	sp!, {r4, r5, r6, r7, r8, r9, sl, fp, pc}
 800b9cc:	9b25      	ldr	r3, [sp, #148]	; 0x94
 800b9ce:	f8df b05c 	ldr.w	fp, [pc, #92]	; 800ba2c <_dtoa_r+0x22c>
 800b9d2:	2b00      	cmp	r3, #0
 800b9d4:	f43f af53 	beq.w	800b87e <_dtoa_r+0x7e>
 800b9d8:	f10b 0303 	add.w	r3, fp, #3
 800b9dc:	e7f0      	b.n	800b9c0 <_dtoa_r+0x1c0>
 800b9de:	f3c7 0313 	ubfx	r3, r7, #0, #20
 800b9e2:	f043 577f 	orr.w	r7, r3, #1069547520	; 0x3fc00000
 800b9e6:	950f      	str	r5, [sp, #60]	; 0x3c
 800b9e8:	f2a4 34ff 	subw	r4, r4, #1023	; 0x3ff
 800b9ec:	f447 1740 	orr.w	r7, r7, #3145728	; 0x300000
 800b9f0:	9d18      	ldr	r5, [sp, #96]	; 0x60
 800b9f2:	e76f      	b.n	800b8d4 <_dtoa_r+0xd4>
 800b9f4:	f8df b038 	ldr.w	fp, [pc, #56]	; 800ba30 <_dtoa_r+0x230>
 800b9f8:	4658      	mov	r0, fp
 800b9fa:	b01b      	add	sp, #108	; 0x6c
 800b9fc:	e8bd 8ff0 	ldmia.w	sp!, {r4, r5, r6, r7, r8, r9, sl, fp, pc}
 800ba00:	636f4361 	.word	0x636f4361
 800ba04:	3fd287a7 	.word	0x3fd287a7
 800ba08:	8b60c8b3 	.word	0x8b60c8b3
 800ba0c:	3fc68a28 	.word	0x3fc68a28
 800ba10:	509f79fb 	.word	0x509f79fb
 800ba14:	3fd34413 	.word	0x3fd34413
 800ba18:	7ff00000 	.word	0x7ff00000
 800ba1c:	0800d6b5 	.word	0x0800d6b5
 800ba20:	3ff80000 	.word	0x3ff80000
 800ba24:	0800e090 	.word	0x0800e090
 800ba28:	0800e050 	.word	0x0800e050
 800ba2c:	0800e05c 	.word	0x0800e05c
 800ba30:	0800d6b4 	.word	0x0800d6b4
 800ba34:	f04f 34ff 	mov.w	r4, #4294967295
 800ba38:	2501      	movs	r5, #1
 800ba3a:	e9cd 4509 	strd	r4, r5, [sp, #36]	; 0x24
 800ba3e:	2300      	movs	r3, #0
 800ba40:	9302      	str	r3, [sp, #8]
 800ba42:	9307      	str	r3, [sp, #28]
 800ba44:	2100      	movs	r1, #0
 800ba46:	f8c9 1044 	str.w	r1, [r9, #68]	; 0x44
 800ba4a:	940e      	str	r4, [sp, #56]	; 0x38
 800ba4c:	4648      	mov	r0, r9
 800ba4e:	f000 ff47 	bl	800c8e0 <_Balloc>
 800ba52:	2c0e      	cmp	r4, #14
 800ba54:	4683      	mov	fp, r0
 800ba56:	f8c9 0040 	str.w	r0, [r9, #64]	; 0x40
 800ba5a:	f200 80fb 	bhi.w	800bc54 <_dtoa_r+0x454>
 800ba5e:	2d00      	cmp	r5, #0
 800ba60:	f000 80f8 	beq.w	800bc54 <_dtoa_r+0x454>
 800ba64:	ed9d 7b00 	vldr	d7, [sp]
 800ba68:	9906      	ldr	r1, [sp, #24]
 800ba6a:	2900      	cmp	r1, #0
 800ba6c:	ed8d 7b10 	vstr	d7, [sp, #64]	; 0x40
 800ba70:	f340 83e7 	ble.w	800c242 <_dtoa_r+0xa42>
 800ba74:	4b9d      	ldr	r3, [pc, #628]	; (800bcec <_dtoa_r+0x4ec>)
 800ba76:	f001 020f 	and.w	r2, r1, #15
 800ba7a:	eb03 03c2 	add.w	r3, r3, r2, lsl #3
 800ba7e:	ed93 7b00 	vldr	d7, [r3]
 800ba82:	110c      	asrs	r4, r1, #4
 800ba84:	06e2      	lsls	r2, r4, #27
 800ba86:	ed8d 7b00 	vstr	d7, [sp]
 800ba8a:	f140 84a1 	bpl.w	800c3d0 <_dtoa_r+0xbd0>
 800ba8e:	4b98      	ldr	r3, [pc, #608]	; (800bcf0 <_dtoa_r+0x4f0>)
 800ba90:	e9dd 0110 	ldrd	r0, r1, [sp, #64]	; 0x40
 800ba94:	e9d3 2308 	ldrd	r2, r3, [r3, #32]
 800ba98:	f7f4 ff1c 	bl	80008d4 <__aeabi_ddiv>
 800ba9c:	e9cd 0112 	strd	r0, r1, [sp, #72]	; 0x48
 800baa0:	f004 040f 	and.w	r4, r4, #15
 800baa4:	2603      	movs	r6, #3
 800baa6:	b17c      	cbz	r4, 800bac8 <_dtoa_r+0x2c8>
 800baa8:	e9dd 0100 	ldrd	r0, r1, [sp]
 800baac:	4d90      	ldr	r5, [pc, #576]	; (800bcf0 <_dtoa_r+0x4f0>)
 800baae:	07e3      	lsls	r3, r4, #31
 800bab0:	d504      	bpl.n	800babc <_dtoa_r+0x2bc>
 800bab2:	e9d5 2300 	ldrd	r2, r3, [r5]
 800bab6:	f7f4 fde3 	bl	8000680 <__aeabi_dmul>
 800baba:	3601      	adds	r6, #1
 800babc:	1064      	asrs	r4, r4, #1
 800babe:	f105 0508 	add.w	r5, r5, #8
 800bac2:	d1f4      	bne.n	800baae <_dtoa_r+0x2ae>
 800bac4:	e9cd 0100 	strd	r0, r1, [sp]
 800bac8:	e9dd 2300 	ldrd	r2, r3, [sp]
 800bacc:	e9dd 0112 	ldrd	r0, r1, [sp, #72]	; 0x48
 800bad0:	f7f4 ff00 	bl	80008d4 <__aeabi_ddiv>
 800bad4:	e9cd 0100 	strd	r0, r1, [sp]
 800bad8:	9b0d      	ldr	r3, [sp, #52]	; 0x34
 800bada:	b143      	cbz	r3, 800baee <_dtoa_r+0x2ee>
 800badc:	2200      	movs	r2, #0
 800bade:	4b85      	ldr	r3, [pc, #532]	; (800bcf4 <_dtoa_r+0x4f4>)
 800bae0:	e9dd 0100 	ldrd	r0, r1, [sp]
 800bae4:	f7f5 f844 	bl	8000b70 <__aeabi_dcmplt>
 800bae8:	2800      	cmp	r0, #0
 800baea:	f040 8503 	bne.w	800c4f4 <_dtoa_r+0xcf4>
 800baee:	4630      	mov	r0, r6
 800baf0:	f7f4 fd58 	bl	80005a4 <__aeabi_i2d>
 800baf4:	e9dd 2300 	ldrd	r2, r3, [sp]
 800baf8:	f7f4 fdc2 	bl	8000680 <__aeabi_dmul>
 800bafc:	4b7e      	ldr	r3, [pc, #504]	; (800bcf8 <_dtoa_r+0x4f8>)
 800bafe:	2200      	movs	r2, #0
 800bb00:	f7f4 fc04 	bl	800030c <__adddf3>
 800bb04:	9b09      	ldr	r3, [sp, #36]	; 0x24
 800bb06:	4606      	mov	r6, r0
 800bb08:	f1a1 7750 	sub.w	r7, r1, #54525952	; 0x3400000
 800bb0c:	2b00      	cmp	r3, #0
 800bb0e:	f000 841e 	beq.w	800c34e <_dtoa_r+0xb4e>
 800bb12:	9b06      	ldr	r3, [sp, #24]
 800bb14:	9316      	str	r3, [sp, #88]	; 0x58
 800bb16:	9b09      	ldr	r3, [sp, #36]	; 0x24
 800bb18:	9312      	str	r3, [sp, #72]	; 0x48
 800bb1a:	e9dd 0100 	ldrd	r0, r1, [sp]
 800bb1e:	f7f5 f84f 	bl	8000bc0 <__aeabi_d2iz>
 800bb22:	9a12      	ldr	r2, [sp, #72]	; 0x48
 800bb24:	4b71      	ldr	r3, [pc, #452]	; (800bcec <_dtoa_r+0x4ec>)
 800bb26:	eb03 03c2 	add.w	r3, r3, r2, lsl #3
 800bb2a:	ed13 7b02 	vldr	d7, [r3, #-8]
 800bb2e:	f100 0530 	add.w	r5, r0, #48	; 0x30
 800bb32:	ed8d 7b14 	vstr	d7, [sp, #80]	; 0x50
 800bb36:	f7f4 fd35 	bl	80005a4 <__aeabi_i2d>
 800bb3a:	460b      	mov	r3, r1
 800bb3c:	4602      	mov	r2, r0
 800bb3e:	e9dd 0100 	ldrd	r0, r1, [sp]
 800bb42:	e9cd 6700 	strd	r6, r7, [sp]
 800bb46:	f7f4 fbdf 	bl	8000308 <__aeabi_dsub>
 800bb4a:	9b0a      	ldr	r3, [sp, #40]	; 0x28
 800bb4c:	b2ed      	uxtb	r5, r5
 800bb4e:	4606      	mov	r6, r0
 800bb50:	460f      	mov	r7, r1
 800bb52:	f10b 0401 	add.w	r4, fp, #1
 800bb56:	2b00      	cmp	r3, #0
 800bb58:	f000 845b 	beq.w	800c412 <_dtoa_r+0xc12>
 800bb5c:	e9dd 2314 	ldrd	r2, r3, [sp, #80]	; 0x50
 800bb60:	2000      	movs	r0, #0
 800bb62:	4966      	ldr	r1, [pc, #408]	; (800bcfc <_dtoa_r+0x4fc>)
 800bb64:	f7f4 feb6 	bl	80008d4 <__aeabi_ddiv>
 800bb68:	e9dd 2300 	ldrd	r2, r3, [sp]
 800bb6c:	f7f4 fbcc 	bl	8000308 <__aeabi_dsub>
 800bb70:	f88b 5000 	strb.w	r5, [fp]
 800bb74:	4632      	mov	r2, r6
 800bb76:	463b      	mov	r3, r7
 800bb78:	e9cd 0100 	strd	r0, r1, [sp]
 800bb7c:	f7f5 f816 	bl	8000bac <__aeabi_dcmpgt>
 800bb80:	2800      	cmp	r0, #0
 800bb82:	f040 8506 	bne.w	800c592 <_dtoa_r+0xd92>
 800bb86:	4632      	mov	r2, r6
 800bb88:	463b      	mov	r3, r7
 800bb8a:	2000      	movs	r0, #0
 800bb8c:	4959      	ldr	r1, [pc, #356]	; (800bcf4 <_dtoa_r+0x4f4>)
 800bb8e:	f7f4 fbbb 	bl	8000308 <__aeabi_dsub>
 800bb92:	4602      	mov	r2, r0
 800bb94:	460b      	mov	r3, r1
 800bb96:	e9dd 0100 	ldrd	r0, r1, [sp]
 800bb9a:	f7f5 f807 	bl	8000bac <__aeabi_dcmpgt>
 800bb9e:	2800      	cmp	r0, #0
 800bba0:	f040 84ff 	bne.w	800c5a2 <_dtoa_r+0xda2>
 800bba4:	9a12      	ldr	r2, [sp, #72]	; 0x48
 800bba6:	2a01      	cmp	r2, #1
 800bba8:	d050      	beq.n	800bc4c <_dtoa_r+0x44c>
 800bbaa:	445a      	add	r2, fp
 800bbac:	f8cd 805c 	str.w	r8, [sp, #92]	; 0x5c
 800bbb0:	f8cd a048 	str.w	sl, [sp, #72]	; 0x48
 800bbb4:	f8cd b050 	str.w	fp, [sp, #80]	; 0x50
 800bbb8:	4692      	mov	sl, r2
 800bbba:	46cb      	mov	fp, r9
 800bbbc:	e9dd 8900 	ldrd	r8, r9, [sp]
 800bbc0:	e00c      	b.n	800bbdc <_dtoa_r+0x3dc>
 800bbc2:	2000      	movs	r0, #0
 800bbc4:	494b      	ldr	r1, [pc, #300]	; (800bcf4 <_dtoa_r+0x4f4>)
 800bbc6:	f7f4 fb9f 	bl	8000308 <__aeabi_dsub>
 800bbca:	4642      	mov	r2, r8
 800bbcc:	464b      	mov	r3, r9
 800bbce:	f7f4 ffcf 	bl	8000b70 <__aeabi_dcmplt>
 800bbd2:	2800      	cmp	r0, #0
 800bbd4:	f040 84e0 	bne.w	800c598 <_dtoa_r+0xd98>
 800bbd8:	4554      	cmp	r4, sl
 800bbda:	d030      	beq.n	800bc3e <_dtoa_r+0x43e>
 800bbdc:	4640      	mov	r0, r8
 800bbde:	4649      	mov	r1, r9
 800bbe0:	2200      	movs	r2, #0
 800bbe2:	4b47      	ldr	r3, [pc, #284]	; (800bd00 <_dtoa_r+0x500>)
 800bbe4:	f7f4 fd4c 	bl	8000680 <__aeabi_dmul>
 800bbe8:	2200      	movs	r2, #0
 800bbea:	4b45      	ldr	r3, [pc, #276]	; (800bd00 <_dtoa_r+0x500>)
 800bbec:	4680      	mov	r8, r0
 800bbee:	4689      	mov	r9, r1
 800bbf0:	4630      	mov	r0, r6
 800bbf2:	4639      	mov	r1, r7
 800bbf4:	f7f4 fd44 	bl	8000680 <__aeabi_dmul>
 800bbf8:	460f      	mov	r7, r1
 800bbfa:	4606      	mov	r6, r0
 800bbfc:	f7f4 ffe0 	bl	8000bc0 <__aeabi_d2iz>
 800bc00:	4605      	mov	r5, r0
 800bc02:	f7f4 fccf 	bl	80005a4 <__aeabi_i2d>
 800bc06:	4602      	mov	r2, r0
 800bc08:	460b      	mov	r3, r1
 800bc0a:	4630      	mov	r0, r6
 800bc0c:	4639      	mov	r1, r7
 800bc0e:	f7f4 fb7b 	bl	8000308 <__aeabi_dsub>
 800bc12:	3530      	adds	r5, #48	; 0x30
 800bc14:	b2ed      	uxtb	r5, r5
 800bc16:	4642      	mov	r2, r8
 800bc18:	464b      	mov	r3, r9
 800bc1a:	f804 5b01 	strb.w	r5, [r4], #1
 800bc1e:	4606      	mov	r6, r0
 800bc20:	460f      	mov	r7, r1
 800bc22:	f7f4 ffa5 	bl	8000b70 <__aeabi_dcmplt>
 800bc26:	4632      	mov	r2, r6
 800bc28:	463b      	mov	r3, r7
 800bc2a:	2800      	cmp	r0, #0
 800bc2c:	d0c9      	beq.n	800bbc2 <_dtoa_r+0x3c2>
 800bc2e:	9b16      	ldr	r3, [sp, #88]	; 0x58
 800bc30:	f8dd a048 	ldr.w	sl, [sp, #72]	; 0x48
 800bc34:	9306      	str	r3, [sp, #24]
 800bc36:	46d9      	mov	r9, fp
 800bc38:	f8dd b050 	ldr.w	fp, [sp, #80]	; 0x50
 800bc3c:	e238      	b.n	800c0b0 <_dtoa_r+0x8b0>
 800bc3e:	46d9      	mov	r9, fp
 800bc40:	f8dd 805c 	ldr.w	r8, [sp, #92]	; 0x5c
 800bc44:	f8dd a048 	ldr.w	sl, [sp, #72]	; 0x48
 800bc48:	f8dd b050 	ldr.w	fp, [sp, #80]	; 0x50
 800bc4c:	e9dd 3410 	ldrd	r3, r4, [sp, #64]	; 0x40
 800bc50:	e9cd 3400 	strd	r3, r4, [sp]
 800bc54:	9b19      	ldr	r3, [sp, #100]	; 0x64
 800bc56:	2b00      	cmp	r3, #0
 800bc58:	f2c0 80ae 	blt.w	800bdb8 <_dtoa_r+0x5b8>
 800bc5c:	9a06      	ldr	r2, [sp, #24]
 800bc5e:	2a0e      	cmp	r2, #14
 800bc60:	f300 80aa 	bgt.w	800bdb8 <_dtoa_r+0x5b8>
 800bc64:	4b21      	ldr	r3, [pc, #132]	; (800bcec <_dtoa_r+0x4ec>)
 800bc66:	eb03 03c2 	add.w	r3, r3, r2, lsl #3
 800bc6a:	ed93 7b00 	vldr	d7, [r3]
 800bc6e:	9b07      	ldr	r3, [sp, #28]
 800bc70:	2b00      	cmp	r3, #0
 800bc72:	ed8d 7b02 	vstr	d7, [sp, #8]
 800bc76:	f2c0 82c0 	blt.w	800c1fa <_dtoa_r+0x9fa>
 800bc7a:	e9dd 6700 	ldrd	r6, r7, [sp]
 800bc7e:	e9dd 2302 	ldrd	r2, r3, [sp, #8]
 800bc82:	4630      	mov	r0, r6
 800bc84:	4639      	mov	r1, r7
 800bc86:	f7f4 fe25 	bl	80008d4 <__aeabi_ddiv>
 800bc8a:	f7f4 ff99 	bl	8000bc0 <__aeabi_d2iz>
 800bc8e:	4605      	mov	r5, r0
 800bc90:	f7f4 fc88 	bl	80005a4 <__aeabi_i2d>
 800bc94:	e9dd 2302 	ldrd	r2, r3, [sp, #8]
 800bc98:	f7f4 fcf2 	bl	8000680 <__aeabi_dmul>
 800bc9c:	460b      	mov	r3, r1
 800bc9e:	4602      	mov	r2, r0
 800bca0:	4639      	mov	r1, r7
 800bca2:	4630      	mov	r0, r6
 800bca4:	f7f4 fb30 	bl	8000308 <__aeabi_dsub>
 800bca8:	f105 0330 	add.w	r3, r5, #48	; 0x30
 800bcac:	f88b 3000 	strb.w	r3, [fp]
 800bcb0:	9b09      	ldr	r3, [sp, #36]	; 0x24
 800bcb2:	2b01      	cmp	r3, #1
 800bcb4:	4606      	mov	r6, r0
 800bcb6:	460f      	mov	r7, r1
 800bcb8:	f10b 0401 	add.w	r4, fp, #1
 800bcbc:	d053      	beq.n	800bd66 <_dtoa_r+0x566>
 800bcbe:	2200      	movs	r2, #0
 800bcc0:	4b0f      	ldr	r3, [pc, #60]	; (800bd00 <_dtoa_r+0x500>)
 800bcc2:	f7f4 fcdd 	bl	8000680 <__aeabi_dmul>
 800bcc6:	2200      	movs	r2, #0
 800bcc8:	2300      	movs	r3, #0
 800bcca:	4606      	mov	r6, r0
 800bccc:	460f      	mov	r7, r1
 800bcce:	f7f4 ff45 	bl	8000b5c <__aeabi_dcmpeq>
 800bcd2:	2800      	cmp	r0, #0
 800bcd4:	f040 81ec 	bne.w	800c0b0 <_dtoa_r+0x8b0>
 800bcd8:	f8cd a000 	str.w	sl, [sp]
 800bcdc:	f8cd 901c 	str.w	r9, [sp, #28]
 800bce0:	f8dd 8024 	ldr.w	r8, [sp, #36]	; 0x24
 800bce4:	e9dd 9a02 	ldrd	r9, sl, [sp, #8]
 800bce8:	e017      	b.n	800bd1a <_dtoa_r+0x51a>
 800bcea:	bf00      	nop
 800bcec:	0800e090 	.word	0x0800e090
 800bcf0:	0800e060 	.word	0x0800e060
 800bcf4:	3ff00000 	.word	0x3ff00000
 800bcf8:	401c0000 	.word	0x401c0000
 800bcfc:	3fe00000 	.word	0x3fe00000
 800bd00:	40240000 	.word	0x40240000
 800bd04:	f7f4 fcbc 	bl	8000680 <__aeabi_dmul>
 800bd08:	2200      	movs	r2, #0
 800bd0a:	2300      	movs	r3, #0
 800bd0c:	4606      	mov	r6, r0
 800bd0e:	460f      	mov	r7, r1
 800bd10:	f7f4 ff24 	bl	8000b5c <__aeabi_dcmpeq>
 800bd14:	2800      	cmp	r0, #0
 800bd16:	f040 833f 	bne.w	800c398 <_dtoa_r+0xb98>
 800bd1a:	464a      	mov	r2, r9
 800bd1c:	4653      	mov	r3, sl
 800bd1e:	4630      	mov	r0, r6
 800bd20:	4639      	mov	r1, r7
 800bd22:	f7f4 fdd7 	bl	80008d4 <__aeabi_ddiv>
 800bd26:	f7f4 ff4b 	bl	8000bc0 <__aeabi_d2iz>
 800bd2a:	4605      	mov	r5, r0
 800bd2c:	f7f4 fc3a 	bl	80005a4 <__aeabi_i2d>
 800bd30:	464a      	mov	r2, r9
 800bd32:	4653      	mov	r3, sl
 800bd34:	f7f4 fca4 	bl	8000680 <__aeabi_dmul>
 800bd38:	4602      	mov	r2, r0
 800bd3a:	460b      	mov	r3, r1
 800bd3c:	4630      	mov	r0, r6
 800bd3e:	4639      	mov	r1, r7
 800bd40:	f7f4 fae2 	bl	8000308 <__aeabi_dsub>
 800bd44:	f105 0c30 	add.w	ip, r5, #48	; 0x30
 800bd48:	f804 cb01 	strb.w	ip, [r4], #1
 800bd4c:	eba4 0c0b 	sub.w	ip, r4, fp
 800bd50:	45e0      	cmp	r8, ip
 800bd52:	4606      	mov	r6, r0
 800bd54:	460f      	mov	r7, r1
 800bd56:	f04f 0200 	mov.w	r2, #0
 800bd5a:	4bc2      	ldr	r3, [pc, #776]	; (800c064 <_dtoa_r+0x864>)
 800bd5c:	d1d2      	bne.n	800bd04 <_dtoa_r+0x504>
 800bd5e:	f8dd a000 	ldr.w	sl, [sp]
 800bd62:	f8dd 901c 	ldr.w	r9, [sp, #28]
 800bd66:	4632      	mov	r2, r6
 800bd68:	463b      	mov	r3, r7
 800bd6a:	4630      	mov	r0, r6
 800bd6c:	4639      	mov	r1, r7
 800bd6e:	f7f4 facd 	bl	800030c <__adddf3>
 800bd72:	e9dd 2302 	ldrd	r2, r3, [sp, #8]
 800bd76:	4606      	mov	r6, r0
 800bd78:	460f      	mov	r7, r1
 800bd7a:	f7f4 ff17 	bl	8000bac <__aeabi_dcmpgt>
 800bd7e:	b958      	cbnz	r0, 800bd98 <_dtoa_r+0x598>
 800bd80:	e9dd 2302 	ldrd	r2, r3, [sp, #8]
 800bd84:	4630      	mov	r0, r6
 800bd86:	4639      	mov	r1, r7
 800bd88:	f7f4 fee8 	bl	8000b5c <__aeabi_dcmpeq>
 800bd8c:	2800      	cmp	r0, #0
 800bd8e:	f000 818f 	beq.w	800c0b0 <_dtoa_r+0x8b0>
 800bd92:	07e9      	lsls	r1, r5, #31
 800bd94:	f140 818c 	bpl.w	800c0b0 <_dtoa_r+0x8b0>
 800bd98:	f814 5c01 	ldrb.w	r5, [r4, #-1]
 800bd9c:	e005      	b.n	800bdaa <_dtoa_r+0x5aa>
 800bd9e:	459b      	cmp	fp, r3
 800bda0:	f000 8376 	beq.w	800c490 <_dtoa_r+0xc90>
 800bda4:	f813 5c01 	ldrb.w	r5, [r3, #-1]
 800bda8:	461c      	mov	r4, r3
 800bdaa:	2d39      	cmp	r5, #57	; 0x39
 800bdac:	f104 33ff 	add.w	r3, r4, #4294967295
 800bdb0:	d0f5      	beq.n	800bd9e <_dtoa_r+0x59e>
 800bdb2:	3501      	adds	r5, #1
 800bdb4:	701d      	strb	r5, [r3, #0]
 800bdb6:	e17b      	b.n	800c0b0 <_dtoa_r+0x8b0>
 800bdb8:	9a0a      	ldr	r2, [sp, #40]	; 0x28
 800bdba:	2a00      	cmp	r2, #0
 800bdbc:	d03b      	beq.n	800be36 <_dtoa_r+0x636>
 800bdbe:	9a02      	ldr	r2, [sp, #8]
 800bdc0:	2a01      	cmp	r2, #1
 800bdc2:	f340 820d 	ble.w	800c1e0 <_dtoa_r+0x9e0>
 800bdc6:	9b09      	ldr	r3, [sp, #36]	; 0x24
 800bdc8:	1e5f      	subs	r7, r3, #1
 800bdca:	9b0b      	ldr	r3, [sp, #44]	; 0x2c
 800bdcc:	42bb      	cmp	r3, r7
 800bdce:	f2c0 82e8 	blt.w	800c3a2 <_dtoa_r+0xba2>
 800bdd2:	1bdf      	subs	r7, r3, r7
 800bdd4:	9b09      	ldr	r3, [sp, #36]	; 0x24
 800bdd6:	2b00      	cmp	r3, #0
 800bdd8:	f2c0 830e 	blt.w	800c3f8 <_dtoa_r+0xbf8>
 800bddc:	9a08      	ldr	r2, [sp, #32]
 800bdde:	4614      	mov	r4, r2
 800bde0:	441a      	add	r2, r3
 800bde2:	4498      	add	r8, r3
 800bde4:	9208      	str	r2, [sp, #32]
 800bde6:	2101      	movs	r1, #1
 800bde8:	4648      	mov	r0, r9
 800bdea:	f000 fe41 	bl	800ca70 <__i2b>
 800bdee:	4605      	mov	r5, r0
 800bdf0:	e024      	b.n	800be3c <_dtoa_r+0x63c>
 800bdf2:	2301      	movs	r3, #1
 800bdf4:	930d      	str	r3, [sp, #52]	; 0x34
 800bdf6:	e5af      	b.n	800b958 <_dtoa_r+0x158>
 800bdf8:	9a08      	ldr	r2, [sp, #32]
 800bdfa:	9b06      	ldr	r3, [sp, #24]
 800bdfc:	1ad2      	subs	r2, r2, r3
 800bdfe:	425b      	negs	r3, r3
 800be00:	930b      	str	r3, [sp, #44]	; 0x2c
 800be02:	2300      	movs	r3, #0
 800be04:	9208      	str	r2, [sp, #32]
 800be06:	930c      	str	r3, [sp, #48]	; 0x30
 800be08:	e5b5      	b.n	800b976 <_dtoa_r+0x176>
 800be0a:	f1c4 0301 	rsb	r3, r4, #1
 800be0e:	9308      	str	r3, [sp, #32]
 800be10:	f04f 0800 	mov.w	r8, #0
 800be14:	e5a7      	b.n	800b966 <_dtoa_r+0x166>
 800be16:	f8dd 8018 	ldr.w	r8, [sp, #24]
 800be1a:	4640      	mov	r0, r8
 800be1c:	f7f4 fbc2 	bl	80005a4 <__aeabi_i2d>
 800be20:	4632      	mov	r2, r6
 800be22:	463b      	mov	r3, r7
 800be24:	f7f4 fe9a 	bl	8000b5c <__aeabi_dcmpeq>
 800be28:	2800      	cmp	r0, #0
 800be2a:	f47f ad81 	bne.w	800b930 <_dtoa_r+0x130>
 800be2e:	f108 33ff 	add.w	r3, r8, #4294967295
 800be32:	9306      	str	r3, [sp, #24]
 800be34:	e57c      	b.n	800b930 <_dtoa_r+0x130>
 800be36:	9f0b      	ldr	r7, [sp, #44]	; 0x2c
 800be38:	9c08      	ldr	r4, [sp, #32]
 800be3a:	9d0a      	ldr	r5, [sp, #40]	; 0x28
 800be3c:	2c00      	cmp	r4, #0
 800be3e:	dd0c      	ble.n	800be5a <_dtoa_r+0x65a>
 800be40:	f1b8 0f00 	cmp.w	r8, #0
 800be44:	dd09      	ble.n	800be5a <_dtoa_r+0x65a>
 800be46:	4544      	cmp	r4, r8
 800be48:	9a08      	ldr	r2, [sp, #32]
 800be4a:	4623      	mov	r3, r4
 800be4c:	bfa8      	it	ge
 800be4e:	4643      	movge	r3, r8
 800be50:	1ad2      	subs	r2, r2, r3
 800be52:	9208      	str	r2, [sp, #32]
 800be54:	1ae4      	subs	r4, r4, r3
 800be56:	eba8 0803 	sub.w	r8, r8, r3
 800be5a:	9b0b      	ldr	r3, [sp, #44]	; 0x2c
 800be5c:	b16b      	cbz	r3, 800be7a <_dtoa_r+0x67a>
 800be5e:	9a0a      	ldr	r2, [sp, #40]	; 0x28
 800be60:	2a00      	cmp	r2, #0
 800be62:	f000 8292 	beq.w	800c38a <_dtoa_r+0xb8a>
 800be66:	1bde      	subs	r6, r3, r7
 800be68:	2f00      	cmp	r7, #0
 800be6a:	f040 819d 	bne.w	800c1a8 <_dtoa_r+0x9a8>
 800be6e:	4651      	mov	r1, sl
 800be70:	4632      	mov	r2, r6
 800be72:	4648      	mov	r0, r9
 800be74:	f000 feb4 	bl	800cbe0 <__pow5mult>
 800be78:	4682      	mov	sl, r0
 800be7a:	2101      	movs	r1, #1
 800be7c:	4648      	mov	r0, r9
 800be7e:	f000 fdf7 	bl	800ca70 <__i2b>
 800be82:	9a0c      	ldr	r2, [sp, #48]	; 0x30
 800be84:	4606      	mov	r6, r0
 800be86:	2a00      	cmp	r2, #0
 800be88:	f040 8127 	bne.w	800c0da <_dtoa_r+0x8da>
 800be8c:	9b02      	ldr	r3, [sp, #8]
 800be8e:	2b01      	cmp	r3, #1
 800be90:	f340 816e 	ble.w	800c170 <_dtoa_r+0x970>
 800be94:	2001      	movs	r0, #1
 800be96:	4440      	add	r0, r8
 800be98:	f010 001f 	ands.w	r0, r0, #31
 800be9c:	f000 811b 	beq.w	800c0d6 <_dtoa_r+0x8d6>
 800bea0:	f1c0 0320 	rsb	r3, r0, #32
 800bea4:	2b04      	cmp	r3, #4
 800bea6:	f340 83b0 	ble.w	800c60a <_dtoa_r+0xe0a>
 800beaa:	f1c0 001c 	rsb	r0, r0, #28
 800beae:	9b08      	ldr	r3, [sp, #32]
 800beb0:	4403      	add	r3, r0
 800beb2:	9308      	str	r3, [sp, #32]
 800beb4:	4404      	add	r4, r0
 800beb6:	4480      	add	r8, r0
 800beb8:	9b08      	ldr	r3, [sp, #32]
 800beba:	2b00      	cmp	r3, #0
 800bebc:	dd05      	ble.n	800beca <_dtoa_r+0x6ca>
 800bebe:	4651      	mov	r1, sl
 800bec0:	461a      	mov	r2, r3
 800bec2:	4648      	mov	r0, r9
 800bec4:	f000 fedc 	bl	800cc80 <__lshift>
 800bec8:	4682      	mov	sl, r0
 800beca:	f1b8 0f00 	cmp.w	r8, #0
 800bece:	dd05      	ble.n	800bedc <_dtoa_r+0x6dc>
 800bed0:	4631      	mov	r1, r6
 800bed2:	4642      	mov	r2, r8
 800bed4:	4648      	mov	r0, r9
 800bed6:	f000 fed3 	bl	800cc80 <__lshift>
 800beda:	4606      	mov	r6, r0
 800bedc:	9b0d      	ldr	r3, [sp, #52]	; 0x34
 800bede:	2b00      	cmp	r3, #0
 800bee0:	d178      	bne.n	800bfd4 <_dtoa_r+0x7d4>
 800bee2:	9b09      	ldr	r3, [sp, #36]	; 0x24
 800bee4:	2b00      	cmp	r3, #0
 800bee6:	f340 820b 	ble.w	800c300 <_dtoa_r+0xb00>
 800beea:	9b0a      	ldr	r3, [sp, #40]	; 0x28
 800beec:	2b00      	cmp	r3, #0
 800beee:	f000 808a 	beq.w	800c006 <_dtoa_r+0x806>
 800bef2:	2c00      	cmp	r4, #0
 800bef4:	f300 816d 	bgt.w	800c1d2 <_dtoa_r+0x9d2>
 800bef8:	9b0c      	ldr	r3, [sp, #48]	; 0x30
 800befa:	2b00      	cmp	r3, #0
 800befc:	f040 81cf 	bne.w	800c29e <_dtoa_r+0xa9e>
 800bf00:	46a8      	mov	r8, r5
 800bf02:	9a00      	ldr	r2, [sp, #0]
 800bf04:	f8cd b02c 	str.w	fp, [sp, #44]	; 0x2c
 800bf08:	f002 0201 	and.w	r2, r2, #1
 800bf0c:	920a      	str	r2, [sp, #40]	; 0x28
 800bf0e:	9a09      	ldr	r2, [sp, #36]	; 0x24
 800bf10:	f10b 33ff 	add.w	r3, fp, #4294967295
 800bf14:	441a      	add	r2, r3
 800bf16:	465f      	mov	r7, fp
 800bf18:	9209      	str	r2, [sp, #36]	; 0x24
 800bf1a:	46b3      	mov	fp, r6
 800bf1c:	4659      	mov	r1, fp
 800bf1e:	4650      	mov	r0, sl
 800bf20:	f7ff fbd6 	bl	800b6d0 <quorem>
 800bf24:	4629      	mov	r1, r5
 800bf26:	4604      	mov	r4, r0
 800bf28:	4650      	mov	r0, sl
 800bf2a:	f000 ff01 	bl	800cd30 <__mcmp>
 800bf2e:	4659      	mov	r1, fp
 800bf30:	4606      	mov	r6, r0
 800bf32:	4642      	mov	r2, r8
 800bf34:	4648      	mov	r0, r9
 800bf36:	f000 ff1b 	bl	800cd70 <__mdiff>
 800bf3a:	f104 0330 	add.w	r3, r4, #48	; 0x30
 800bf3e:	9300      	str	r3, [sp, #0]
 800bf40:	68c3      	ldr	r3, [r0, #12]
 800bf42:	4601      	mov	r1, r0
 800bf44:	2b00      	cmp	r3, #0
 800bf46:	f040 81d6 	bne.w	800c2f6 <_dtoa_r+0xaf6>
 800bf4a:	9008      	str	r0, [sp, #32]
 800bf4c:	4650      	mov	r0, sl
 800bf4e:	f000 feef 	bl	800cd30 <__mcmp>
 800bf52:	9a08      	ldr	r2, [sp, #32]
 800bf54:	9007      	str	r0, [sp, #28]
 800bf56:	4611      	mov	r1, r2
 800bf58:	4648      	mov	r0, r9
 800bf5a:	f000 fce9 	bl	800c930 <_Bfree>
 800bf5e:	9b07      	ldr	r3, [sp, #28]
 800bf60:	b933      	cbnz	r3, 800bf70 <_dtoa_r+0x770>
 800bf62:	9a02      	ldr	r2, [sp, #8]
 800bf64:	b922      	cbnz	r2, 800bf70 <_dtoa_r+0x770>
 800bf66:	9b0a      	ldr	r3, [sp, #40]	; 0x28
 800bf68:	2b00      	cmp	r3, #0
 800bf6a:	f000 831d 	beq.w	800c5a8 <_dtoa_r+0xda8>
 800bf6e:	9b02      	ldr	r3, [sp, #8]
 800bf70:	2e00      	cmp	r6, #0
 800bf72:	f2c0 821e 	blt.w	800c3b2 <_dtoa_r+0xbb2>
 800bf76:	d105      	bne.n	800bf84 <_dtoa_r+0x784>
 800bf78:	9a02      	ldr	r2, [sp, #8]
 800bf7a:	b91a      	cbnz	r2, 800bf84 <_dtoa_r+0x784>
 800bf7c:	9a0a      	ldr	r2, [sp, #40]	; 0x28
 800bf7e:	2a00      	cmp	r2, #0
 800bf80:	f000 8217 	beq.w	800c3b2 <_dtoa_r+0xbb2>
 800bf84:	2b00      	cmp	r3, #0
 800bf86:	f107 0401 	add.w	r4, r7, #1
 800bf8a:	f300 8228 	bgt.w	800c3de <_dtoa_r+0xbde>
 800bf8e:	f89d 3000 	ldrb.w	r3, [sp]
 800bf92:	703b      	strb	r3, [r7, #0]
 800bf94:	9b09      	ldr	r3, [sp, #36]	; 0x24
 800bf96:	42bb      	cmp	r3, r7
 800bf98:	f000 8232 	beq.w	800c400 <_dtoa_r+0xc00>
 800bf9c:	4651      	mov	r1, sl
 800bf9e:	2300      	movs	r3, #0
 800bfa0:	220a      	movs	r2, #10
 800bfa2:	4648      	mov	r0, r9
 800bfa4:	f000 fcd4 	bl	800c950 <__multadd>
 800bfa8:	4545      	cmp	r5, r8
 800bfaa:	4682      	mov	sl, r0
 800bfac:	4629      	mov	r1, r5
 800bfae:	f04f 0300 	mov.w	r3, #0
 800bfb2:	f04f 020a 	mov.w	r2, #10
 800bfb6:	4648      	mov	r0, r9
 800bfb8:	f000 8197 	beq.w	800c2ea <_dtoa_r+0xaea>
 800bfbc:	f000 fcc8 	bl	800c950 <__multadd>
 800bfc0:	4641      	mov	r1, r8
 800bfc2:	4605      	mov	r5, r0
 800bfc4:	2300      	movs	r3, #0
 800bfc6:	220a      	movs	r2, #10
 800bfc8:	4648      	mov	r0, r9
 800bfca:	f000 fcc1 	bl	800c950 <__multadd>
 800bfce:	4627      	mov	r7, r4
 800bfd0:	4680      	mov	r8, r0
 800bfd2:	e7a3      	b.n	800bf1c <_dtoa_r+0x71c>
 800bfd4:	4631      	mov	r1, r6
 800bfd6:	4650      	mov	r0, sl
 800bfd8:	f000 feaa 	bl	800cd30 <__mcmp>
 800bfdc:	2800      	cmp	r0, #0
 800bfde:	da80      	bge.n	800bee2 <_dtoa_r+0x6e2>
 800bfe0:	9f06      	ldr	r7, [sp, #24]
 800bfe2:	4651      	mov	r1, sl
 800bfe4:	2300      	movs	r3, #0
 800bfe6:	220a      	movs	r2, #10
 800bfe8:	4648      	mov	r0, r9
 800bfea:	3f01      	subs	r7, #1
 800bfec:	9706      	str	r7, [sp, #24]
 800bfee:	f000 fcaf 	bl	800c950 <__multadd>
 800bff2:	9b0a      	ldr	r3, [sp, #40]	; 0x28
 800bff4:	4682      	mov	sl, r0
 800bff6:	2b00      	cmp	r3, #0
 800bff8:	f040 82ee 	bne.w	800c5d8 <_dtoa_r+0xdd8>
 800bffc:	9b0e      	ldr	r3, [sp, #56]	; 0x38
 800bffe:	2b00      	cmp	r3, #0
 800c000:	f340 82f6 	ble.w	800c5f0 <_dtoa_r+0xdf0>
 800c004:	9309      	str	r3, [sp, #36]	; 0x24
 800c006:	465c      	mov	r4, fp
 800c008:	f8dd 8024 	ldr.w	r8, [sp, #36]	; 0x24
 800c00c:	e002      	b.n	800c014 <_dtoa_r+0x814>
 800c00e:	f000 fc9f 	bl	800c950 <__multadd>
 800c012:	4682      	mov	sl, r0
 800c014:	4631      	mov	r1, r6
 800c016:	4650      	mov	r0, sl
 800c018:	f7ff fb5a 	bl	800b6d0 <quorem>
 800c01c:	f100 0730 	add.w	r7, r0, #48	; 0x30
 800c020:	f804 7b01 	strb.w	r7, [r4], #1
 800c024:	eba4 030b 	sub.w	r3, r4, fp
 800c028:	4598      	cmp	r8, r3
 800c02a:	f04f 020a 	mov.w	r2, #10
 800c02e:	f04f 0300 	mov.w	r3, #0
 800c032:	4651      	mov	r1, sl
 800c034:	4648      	mov	r0, r9
 800c036:	dcea      	bgt.n	800c00e <_dtoa_r+0x80e>
 800c038:	2300      	movs	r3, #0
 800c03a:	9700      	str	r7, [sp, #0]
 800c03c:	9302      	str	r3, [sp, #8]
 800c03e:	4651      	mov	r1, sl
 800c040:	2201      	movs	r2, #1
 800c042:	4648      	mov	r0, r9
 800c044:	f000 fe1c 	bl	800cc80 <__lshift>
 800c048:	4631      	mov	r1, r6
 800c04a:	4682      	mov	sl, r0
 800c04c:	f000 fe70 	bl	800cd30 <__mcmp>
 800c050:	2800      	cmp	r0, #0
 800c052:	f814 2c01 	ldrb.w	r2, [r4, #-1]
 800c056:	dc15      	bgt.n	800c084 <_dtoa_r+0x884>
 800c058:	d109      	bne.n	800c06e <_dtoa_r+0x86e>
 800c05a:	9b00      	ldr	r3, [sp, #0]
 800c05c:	07db      	lsls	r3, r3, #31
 800c05e:	d411      	bmi.n	800c084 <_dtoa_r+0x884>
 800c060:	e005      	b.n	800c06e <_dtoa_r+0x86e>
 800c062:	bf00      	nop
 800c064:	40240000 	.word	0x40240000
 800c068:	f814 2c02 	ldrb.w	r2, [r4, #-2]
 800c06c:	461c      	mov	r4, r3
 800c06e:	2a30      	cmp	r2, #48	; 0x30
 800c070:	f104 33ff 	add.w	r3, r4, #4294967295
 800c074:	d0f8      	beq.n	800c068 <_dtoa_r+0x868>
 800c076:	e00b      	b.n	800c090 <_dtoa_r+0x890>
 800c078:	459b      	cmp	fp, r3
 800c07a:	f000 814e 	beq.w	800c31a <_dtoa_r+0xb1a>
 800c07e:	f813 2c01 	ldrb.w	r2, [r3, #-1]
 800c082:	461c      	mov	r4, r3
 800c084:	2a39      	cmp	r2, #57	; 0x39
 800c086:	f104 33ff 	add.w	r3, r4, #4294967295
 800c08a:	d0f5      	beq.n	800c078 <_dtoa_r+0x878>
 800c08c:	3201      	adds	r2, #1
 800c08e:	701a      	strb	r2, [r3, #0]
 800c090:	4631      	mov	r1, r6
 800c092:	4648      	mov	r0, r9
 800c094:	f000 fc4c 	bl	800c930 <_Bfree>
 800c098:	b155      	cbz	r5, 800c0b0 <_dtoa_r+0x8b0>
 800c09a:	9902      	ldr	r1, [sp, #8]
 800c09c:	b121      	cbz	r1, 800c0a8 <_dtoa_r+0x8a8>
 800c09e:	42a9      	cmp	r1, r5
 800c0a0:	d002      	beq.n	800c0a8 <_dtoa_r+0x8a8>
 800c0a2:	4648      	mov	r0, r9
 800c0a4:	f000 fc44 	bl	800c930 <_Bfree>
 800c0a8:	4629      	mov	r1, r5
 800c0aa:	4648      	mov	r0, r9
 800c0ac:	f000 fc40 	bl	800c930 <_Bfree>
 800c0b0:	4651      	mov	r1, sl
 800c0b2:	4648      	mov	r0, r9
 800c0b4:	f000 fc3c 	bl	800c930 <_Bfree>
 800c0b8:	2200      	movs	r2, #0
 800c0ba:	9b06      	ldr	r3, [sp, #24]
 800c0bc:	7022      	strb	r2, [r4, #0]
 800c0be:	9a05      	ldr	r2, [sp, #20]
 800c0c0:	3301      	adds	r3, #1
 800c0c2:	6013      	str	r3, [r2, #0]
 800c0c4:	9b25      	ldr	r3, [sp, #148]	; 0x94
 800c0c6:	2b00      	cmp	r3, #0
 800c0c8:	f43f abd9 	beq.w	800b87e <_dtoa_r+0x7e>
 800c0cc:	4658      	mov	r0, fp
 800c0ce:	601c      	str	r4, [r3, #0]
 800c0d0:	b01b      	add	sp, #108	; 0x6c
 800c0d2:	e8bd 8ff0 	ldmia.w	sp!, {r4, r5, r6, r7, r8, r9, sl, fp, pc}
 800c0d6:	201c      	movs	r0, #28
 800c0d8:	e6e9      	b.n	800beae <_dtoa_r+0x6ae>
 800c0da:	4601      	mov	r1, r0
 800c0dc:	4648      	mov	r0, r9
 800c0de:	f000 fd7f 	bl	800cbe0 <__pow5mult>
 800c0e2:	9b02      	ldr	r3, [sp, #8]
 800c0e4:	2b01      	cmp	r3, #1
 800c0e6:	4606      	mov	r6, r0
 800c0e8:	f340 80d4 	ble.w	800c294 <_dtoa_r+0xa94>
 800c0ec:	2300      	movs	r3, #0
 800c0ee:	930c      	str	r3, [sp, #48]	; 0x30
 800c0f0:	6933      	ldr	r3, [r6, #16]
 800c0f2:	eb06 0383 	add.w	r3, r6, r3, lsl #2
 800c0f6:	6918      	ldr	r0, [r3, #16]
 800c0f8:	f000 fc6a 	bl	800c9d0 <__hi0bits>
 800c0fc:	f1c0 0020 	rsb	r0, r0, #32
 800c100:	e6c9      	b.n	800be96 <_dtoa_r+0x696>
 800c102:	900d      	str	r0, [sp, #52]	; 0x34
 800c104:	e428      	b.n	800b958 <_dtoa_r+0x158>
 800c106:	2501      	movs	r5, #1
 800c108:	e43e      	b.n	800b988 <_dtoa_r+0x188>
 800c10a:	f1c3 0820 	rsb	r8, r3, #32
 800c10e:	9b00      	ldr	r3, [sp, #0]
 800c110:	fa03 f008 	lsl.w	r0, r3, r8
 800c114:	f7ff bbd6 	b.w	800b8c4 <_dtoa_r+0xc4>
 800c118:	2300      	movs	r3, #0
 800c11a:	930a      	str	r3, [sp, #40]	; 0x28
 800c11c:	e9dd 3206 	ldrd	r3, r2, [sp, #24]
 800c120:	4413      	add	r3, r2
 800c122:	930e      	str	r3, [sp, #56]	; 0x38
 800c124:	3301      	adds	r3, #1
 800c126:	2b01      	cmp	r3, #1
 800c128:	461e      	mov	r6, r3
 800c12a:	9309      	str	r3, [sp, #36]	; 0x24
 800c12c:	bfb8      	it	lt
 800c12e:	2601      	movlt	r6, #1
 800c130:	2100      	movs	r1, #0
 800c132:	2e17      	cmp	r6, #23
 800c134:	f8c9 1044 	str.w	r1, [r9, #68]	; 0x44
 800c138:	9c09      	ldr	r4, [sp, #36]	; 0x24
 800c13a:	f77f ac87 	ble.w	800ba4c <_dtoa_r+0x24c>
 800c13e:	2201      	movs	r2, #1
 800c140:	2304      	movs	r3, #4
 800c142:	005b      	lsls	r3, r3, #1
 800c144:	f103 0014 	add.w	r0, r3, #20
 800c148:	42b0      	cmp	r0, r6
 800c14a:	4611      	mov	r1, r2
 800c14c:	f102 0201 	add.w	r2, r2, #1
 800c150:	d9f7      	bls.n	800c142 <_dtoa_r+0x942>
 800c152:	f8c9 1044 	str.w	r1, [r9, #68]	; 0x44
 800c156:	e479      	b.n	800ba4c <_dtoa_r+0x24c>
 800c158:	2300      	movs	r3, #0
 800c15a:	930a      	str	r3, [sp, #40]	; 0x28
 800c15c:	9e07      	ldr	r6, [sp, #28]
 800c15e:	2e00      	cmp	r6, #0
 800c160:	f340 80e2 	ble.w	800c328 <_dtoa_r+0xb28>
 800c164:	960e      	str	r6, [sp, #56]	; 0x38
 800c166:	9609      	str	r6, [sp, #36]	; 0x24
 800c168:	e7e2      	b.n	800c130 <_dtoa_r+0x930>
 800c16a:	2301      	movs	r3, #1
 800c16c:	930a      	str	r3, [sp, #40]	; 0x28
 800c16e:	e7f5      	b.n	800c15c <_dtoa_r+0x95c>
 800c170:	9b00      	ldr	r3, [sp, #0]
 800c172:	2b00      	cmp	r3, #0
 800c174:	f47f ae8e 	bne.w	800be94 <_dtoa_r+0x694>
 800c178:	e9dd 1200 	ldrd	r1, r2, [sp]
 800c17c:	f3c2 0313 	ubfx	r3, r2, #0, #20
 800c180:	2b00      	cmp	r3, #0
 800c182:	f040 8193 	bne.w	800c4ac <_dtoa_r+0xcac>
 800c186:	f022 4300 	bic.w	r3, r2, #2147483648	; 0x80000000
 800c18a:	0d1b      	lsrs	r3, r3, #20
 800c18c:	051b      	lsls	r3, r3, #20
 800c18e:	b12b      	cbz	r3, 800c19c <_dtoa_r+0x99c>
 800c190:	9b08      	ldr	r3, [sp, #32]
 800c192:	3301      	adds	r3, #1
 800c194:	9308      	str	r3, [sp, #32]
 800c196:	f108 0801 	add.w	r8, r8, #1
 800c19a:	2301      	movs	r3, #1
 800c19c:	9a0c      	ldr	r2, [sp, #48]	; 0x30
 800c19e:	930c      	str	r3, [sp, #48]	; 0x30
 800c1a0:	2a00      	cmp	r2, #0
 800c1a2:	f43f ae77 	beq.w	800be94 <_dtoa_r+0x694>
 800c1a6:	e7a3      	b.n	800c0f0 <_dtoa_r+0x8f0>
 800c1a8:	463a      	mov	r2, r7
 800c1aa:	4629      	mov	r1, r5
 800c1ac:	4648      	mov	r0, r9
 800c1ae:	f000 fd17 	bl	800cbe0 <__pow5mult>
 800c1b2:	4652      	mov	r2, sl
 800c1b4:	4601      	mov	r1, r0
 800c1b6:	4605      	mov	r5, r0
 800c1b8:	4648      	mov	r0, r9
 800c1ba:	f000 fc69 	bl	800ca90 <__multiply>
 800c1be:	4651      	mov	r1, sl
 800c1c0:	4607      	mov	r7, r0
 800c1c2:	4648      	mov	r0, r9
 800c1c4:	f000 fbb4 	bl	800c930 <_Bfree>
 800c1c8:	46ba      	mov	sl, r7
 800c1ca:	2e00      	cmp	r6, #0
 800c1cc:	f43f ae55 	beq.w	800be7a <_dtoa_r+0x67a>
 800c1d0:	e64d      	b.n	800be6e <_dtoa_r+0x66e>
 800c1d2:	4629      	mov	r1, r5
 800c1d4:	4622      	mov	r2, r4
 800c1d6:	4648      	mov	r0, r9
 800c1d8:	f000 fd52 	bl	800cc80 <__lshift>
 800c1dc:	4605      	mov	r5, r0
 800c1de:	e68b      	b.n	800bef8 <_dtoa_r+0x6f8>
 800c1e0:	9a0f      	ldr	r2, [sp, #60]	; 0x3c
 800c1e2:	2a00      	cmp	r2, #0
 800c1e4:	f000 815e 	beq.w	800c4a4 <_dtoa_r+0xca4>
 800c1e8:	f203 4333 	addw	r3, r3, #1075	; 0x433
 800c1ec:	9a08      	ldr	r2, [sp, #32]
 800c1ee:	9f0b      	ldr	r7, [sp, #44]	; 0x2c
 800c1f0:	4614      	mov	r4, r2
 800c1f2:	441a      	add	r2, r3
 800c1f4:	4498      	add	r8, r3
 800c1f6:	9208      	str	r2, [sp, #32]
 800c1f8:	e5f5      	b.n	800bde6 <_dtoa_r+0x5e6>
 800c1fa:	9b09      	ldr	r3, [sp, #36]	; 0x24
 800c1fc:	2b00      	cmp	r3, #0
 800c1fe:	f73f ad3c 	bgt.w	800bc7a <_dtoa_r+0x47a>
 800c202:	f040 80bc 	bne.w	800c37e <_dtoa_r+0xb7e>
 800c206:	ec51 0b17 	vmov	r0, r1, d7
 800c20a:	2200      	movs	r2, #0
 800c20c:	4bb3      	ldr	r3, [pc, #716]	; (800c4dc <_dtoa_r+0xcdc>)
 800c20e:	f7f4 fa37 	bl	8000680 <__aeabi_dmul>
 800c212:	e9dd 2300 	ldrd	r2, r3, [sp]
 800c216:	f7f4 fcbf 	bl	8000b98 <__aeabi_dcmpge>
 800c21a:	9e09      	ldr	r6, [sp, #36]	; 0x24
 800c21c:	4635      	mov	r5, r6
 800c21e:	2800      	cmp	r0, #0
 800c220:	d176      	bne.n	800c310 <_dtoa_r+0xb10>
 800c222:	9a06      	ldr	r2, [sp, #24]
 800c224:	2331      	movs	r3, #49	; 0x31
 800c226:	3201      	adds	r2, #1
 800c228:	9206      	str	r2, [sp, #24]
 800c22a:	f88b 3000 	strb.w	r3, [fp]
 800c22e:	f10b 0401 	add.w	r4, fp, #1
 800c232:	4631      	mov	r1, r6
 800c234:	4648      	mov	r0, r9
 800c236:	f000 fb7b 	bl	800c930 <_Bfree>
 800c23a:	2d00      	cmp	r5, #0
 800c23c:	f47f af34 	bne.w	800c0a8 <_dtoa_r+0x8a8>
 800c240:	e736      	b.n	800c0b0 <_dtoa_r+0x8b0>
 800c242:	f000 8143 	beq.w	800c4cc <_dtoa_r+0xccc>
 800c246:	9b06      	ldr	r3, [sp, #24]
 800c248:	425c      	negs	r4, r3
 800c24a:	4ba5      	ldr	r3, [pc, #660]	; (800c4e0 <_dtoa_r+0xce0>)
 800c24c:	f004 020f 	and.w	r2, r4, #15
 800c250:	eb03 03c2 	add.w	r3, r3, r2, lsl #3
 800c254:	e9d3 2300 	ldrd	r2, r3, [r3]
 800c258:	e9dd 0110 	ldrd	r0, r1, [sp, #64]	; 0x40
 800c25c:	f7f4 fa10 	bl	8000680 <__aeabi_dmul>
 800c260:	1124      	asrs	r4, r4, #4
 800c262:	e9cd 0100 	strd	r0, r1, [sp]
 800c266:	f000 81c8 	beq.w	800c5fa <_dtoa_r+0xdfa>
 800c26a:	4d9e      	ldr	r5, [pc, #632]	; (800c4e4 <_dtoa_r+0xce4>)
 800c26c:	2300      	movs	r3, #0
 800c26e:	2602      	movs	r6, #2
 800c270:	07e7      	lsls	r7, r4, #31
 800c272:	d505      	bpl.n	800c280 <_dtoa_r+0xa80>
 800c274:	e9d5 2300 	ldrd	r2, r3, [r5]
 800c278:	f7f4 fa02 	bl	8000680 <__aeabi_dmul>
 800c27c:	3601      	adds	r6, #1
 800c27e:	2301      	movs	r3, #1
 800c280:	1064      	asrs	r4, r4, #1
 800c282:	f105 0508 	add.w	r5, r5, #8
 800c286:	d1f3      	bne.n	800c270 <_dtoa_r+0xa70>
 800c288:	2b00      	cmp	r3, #0
 800c28a:	f43f ac25 	beq.w	800bad8 <_dtoa_r+0x2d8>
 800c28e:	e9cd 0100 	strd	r0, r1, [sp]
 800c292:	e421      	b.n	800bad8 <_dtoa_r+0x2d8>
 800c294:	9b00      	ldr	r3, [sp, #0]
 800c296:	2b00      	cmp	r3, #0
 800c298:	f43f af6e 	beq.w	800c178 <_dtoa_r+0x978>
 800c29c:	e726      	b.n	800c0ec <_dtoa_r+0x8ec>
 800c29e:	6869      	ldr	r1, [r5, #4]
 800c2a0:	4648      	mov	r0, r9
 800c2a2:	f000 fb1d 	bl	800c8e0 <_Balloc>
 800c2a6:	692b      	ldr	r3, [r5, #16]
 800c2a8:	3302      	adds	r3, #2
 800c2aa:	009a      	lsls	r2, r3, #2
 800c2ac:	4604      	mov	r4, r0
 800c2ae:	f105 010c 	add.w	r1, r5, #12
 800c2b2:	300c      	adds	r0, #12
 800c2b4:	f7f4 fe34 	bl	8000f20 <memcpy>
 800c2b8:	4621      	mov	r1, r4
 800c2ba:	2201      	movs	r2, #1
 800c2bc:	4648      	mov	r0, r9
 800c2be:	f000 fcdf 	bl	800cc80 <__lshift>
 800c2c2:	4680      	mov	r8, r0
 800c2c4:	e61d      	b.n	800bf02 <_dtoa_r+0x702>
 800c2c6:	2400      	movs	r4, #0
 800c2c8:	f8c9 4044 	str.w	r4, [r9, #68]	; 0x44
 800c2cc:	4621      	mov	r1, r4
 800c2ce:	4648      	mov	r0, r9
 800c2d0:	f000 fb06 	bl	800c8e0 <_Balloc>
 800c2d4:	f04f 33ff 	mov.w	r3, #4294967295
 800c2d8:	930e      	str	r3, [sp, #56]	; 0x38
 800c2da:	9309      	str	r3, [sp, #36]	; 0x24
 800c2dc:	2301      	movs	r3, #1
 800c2de:	4683      	mov	fp, r0
 800c2e0:	9407      	str	r4, [sp, #28]
 800c2e2:	f8c9 0040 	str.w	r0, [r9, #64]	; 0x40
 800c2e6:	930a      	str	r3, [sp, #40]	; 0x28
 800c2e8:	e4b4      	b.n	800bc54 <_dtoa_r+0x454>
 800c2ea:	f000 fb31 	bl	800c950 <__multadd>
 800c2ee:	4627      	mov	r7, r4
 800c2f0:	4605      	mov	r5, r0
 800c2f2:	4680      	mov	r8, r0
 800c2f4:	e612      	b.n	800bf1c <_dtoa_r+0x71c>
 800c2f6:	4648      	mov	r0, r9
 800c2f8:	f000 fb1a 	bl	800c930 <_Bfree>
 800c2fc:	2301      	movs	r3, #1
 800c2fe:	e637      	b.n	800bf70 <_dtoa_r+0x770>
 800c300:	9b02      	ldr	r3, [sp, #8]
 800c302:	2b02      	cmp	r3, #2
 800c304:	f77f adf1 	ble.w	800beea <_dtoa_r+0x6ea>
 800c308:	9b09      	ldr	r3, [sp, #36]	; 0x24
 800c30a:	2b00      	cmp	r3, #0
 800c30c:	f000 80d0 	beq.w	800c4b0 <_dtoa_r+0xcb0>
 800c310:	9b07      	ldr	r3, [sp, #28]
 800c312:	43db      	mvns	r3, r3
 800c314:	9306      	str	r3, [sp, #24]
 800c316:	465c      	mov	r4, fp
 800c318:	e78b      	b.n	800c232 <_dtoa_r+0xa32>
 800c31a:	9a06      	ldr	r2, [sp, #24]
 800c31c:	2331      	movs	r3, #49	; 0x31
 800c31e:	3201      	adds	r2, #1
 800c320:	9206      	str	r2, [sp, #24]
 800c322:	f88b 3000 	strb.w	r3, [fp]
 800c326:	e6b3      	b.n	800c090 <_dtoa_r+0x890>
 800c328:	2401      	movs	r4, #1
 800c32a:	9409      	str	r4, [sp, #36]	; 0x24
 800c32c:	9407      	str	r4, [sp, #28]
 800c32e:	f7ff bb89 	b.w	800ba44 <_dtoa_r+0x244>
 800c332:	4630      	mov	r0, r6
 800c334:	f7f4 f936 	bl	80005a4 <__aeabi_i2d>
 800c338:	e9dd 2300 	ldrd	r2, r3, [sp]
 800c33c:	f7f4 f9a0 	bl	8000680 <__aeabi_dmul>
 800c340:	2200      	movs	r2, #0
 800c342:	4b69      	ldr	r3, [pc, #420]	; (800c4e8 <_dtoa_r+0xce8>)
 800c344:	f7f3 ffe2 	bl	800030c <__adddf3>
 800c348:	4606      	mov	r6, r0
 800c34a:	f1a1 7750 	sub.w	r7, r1, #54525952	; 0x3400000
 800c34e:	2200      	movs	r2, #0
 800c350:	4b62      	ldr	r3, [pc, #392]	; (800c4dc <_dtoa_r+0xcdc>)
 800c352:	e9dd 0100 	ldrd	r0, r1, [sp]
 800c356:	f7f3 ffd7 	bl	8000308 <__aeabi_dsub>
 800c35a:	4632      	mov	r2, r6
 800c35c:	463b      	mov	r3, r7
 800c35e:	4604      	mov	r4, r0
 800c360:	460d      	mov	r5, r1
 800c362:	f7f4 fc23 	bl	8000bac <__aeabi_dcmpgt>
 800c366:	2800      	cmp	r0, #0
 800c368:	d150      	bne.n	800c40c <_dtoa_r+0xc0c>
 800c36a:	4632      	mov	r2, r6
 800c36c:	f107 4300 	add.w	r3, r7, #2147483648	; 0x80000000
 800c370:	4620      	mov	r0, r4
 800c372:	4629      	mov	r1, r5
 800c374:	f7f4 fbfc 	bl	8000b70 <__aeabi_dcmplt>
 800c378:	2800      	cmp	r0, #0
 800c37a:	f43f ac67 	beq.w	800bc4c <_dtoa_r+0x44c>
 800c37e:	2600      	movs	r6, #0
 800c380:	4635      	mov	r5, r6
 800c382:	e7c5      	b.n	800c310 <_dtoa_r+0xb10>
 800c384:	2301      	movs	r3, #1
 800c386:	930a      	str	r3, [sp, #40]	; 0x28
 800c388:	e6c8      	b.n	800c11c <_dtoa_r+0x91c>
 800c38a:	4651      	mov	r1, sl
 800c38c:	9a0b      	ldr	r2, [sp, #44]	; 0x2c
 800c38e:	4648      	mov	r0, r9
 800c390:	f000 fc26 	bl	800cbe0 <__pow5mult>
 800c394:	4682      	mov	sl, r0
 800c396:	e570      	b.n	800be7a <_dtoa_r+0x67a>
 800c398:	f8dd a000 	ldr.w	sl, [sp]
 800c39c:	f8dd 901c 	ldr.w	r9, [sp, #28]
 800c3a0:	e686      	b.n	800c0b0 <_dtoa_r+0x8b0>
 800c3a2:	9b0b      	ldr	r3, [sp, #44]	; 0x2c
 800c3a4:	9a0c      	ldr	r2, [sp, #48]	; 0x30
 800c3a6:	1afb      	subs	r3, r7, r3
 800c3a8:	441a      	add	r2, r3
 800c3aa:	e9cd 720b 	strd	r7, r2, [sp, #44]	; 0x2c
 800c3ae:	2700      	movs	r7, #0
 800c3b0:	e510      	b.n	800bdd4 <_dtoa_r+0x5d4>
 800c3b2:	2b00      	cmp	r3, #0
 800c3b4:	9402      	str	r4, [sp, #8]
 800c3b6:	465e      	mov	r6, fp
 800c3b8:	f107 0401 	add.w	r4, r7, #1
 800c3bc:	f8dd b02c 	ldr.w	fp, [sp, #44]	; 0x2c
 800c3c0:	f300 80bc 	bgt.w	800c53c <_dtoa_r+0xd3c>
 800c3c4:	f89d 3000 	ldrb.w	r3, [sp]
 800c3c8:	9502      	str	r5, [sp, #8]
 800c3ca:	703b      	strb	r3, [r7, #0]
 800c3cc:	4645      	mov	r5, r8
 800c3ce:	e65f      	b.n	800c090 <_dtoa_r+0x890>
 800c3d0:	ed9d 7b10 	vldr	d7, [sp, #64]	; 0x40
 800c3d4:	2602      	movs	r6, #2
 800c3d6:	ed8d 7b12 	vstr	d7, [sp, #72]	; 0x48
 800c3da:	f7ff bb64 	b.w	800baa6 <_dtoa_r+0x2a6>
 800c3de:	9b00      	ldr	r3, [sp, #0]
 800c3e0:	2b39      	cmp	r3, #57	; 0x39
 800c3e2:	465e      	mov	r6, fp
 800c3e4:	f8dd b02c 	ldr.w	fp, [sp, #44]	; 0x2c
 800c3e8:	f000 80ba 	beq.w	800c560 <_dtoa_r+0xd60>
 800c3ec:	9b00      	ldr	r3, [sp, #0]
 800c3ee:	9502      	str	r5, [sp, #8]
 800c3f0:	3301      	adds	r3, #1
 800c3f2:	703b      	strb	r3, [r7, #0]
 800c3f4:	4645      	mov	r5, r8
 800c3f6:	e64b      	b.n	800c090 <_dtoa_r+0x890>
 800c3f8:	e9dd 3208 	ldrd	r3, r2, [sp, #32]
 800c3fc:	1a9c      	subs	r4, r3, r2
 800c3fe:	e4f2      	b.n	800bde6 <_dtoa_r+0x5e6>
 800c400:	465e      	mov	r6, fp
 800c402:	9502      	str	r5, [sp, #8]
 800c404:	f8dd b02c 	ldr.w	fp, [sp, #44]	; 0x2c
 800c408:	4645      	mov	r5, r8
 800c40a:	e618      	b.n	800c03e <_dtoa_r+0x83e>
 800c40c:	2600      	movs	r6, #0
 800c40e:	4635      	mov	r5, r6
 800c410:	e707      	b.n	800c222 <_dtoa_r+0xa22>
 800c412:	e9dd 2314 	ldrd	r2, r3, [sp, #80]	; 0x50
 800c416:	e9dd 0100 	ldrd	r0, r1, [sp]
 800c41a:	f7f4 f931 	bl	8000680 <__aeabi_dmul>
 800c41e:	9b12      	ldr	r3, [sp, #72]	; 0x48
 800c420:	f88b 5000 	strb.w	r5, [fp]
 800c424:	2b01      	cmp	r3, #1
 800c426:	e9cd 0100 	strd	r0, r1, [sp]
 800c42a:	d020      	beq.n	800c46e <_dtoa_r+0xc6e>
 800c42c:	9b12      	ldr	r3, [sp, #72]	; 0x48
 800c42e:	f8cd 8048 	str.w	r8, [sp, #72]	; 0x48
 800c432:	445b      	add	r3, fp
 800c434:	4698      	mov	r8, r3
 800c436:	2200      	movs	r2, #0
 800c438:	4b2c      	ldr	r3, [pc, #176]	; (800c4ec <_dtoa_r+0xcec>)
 800c43a:	4630      	mov	r0, r6
 800c43c:	4639      	mov	r1, r7
 800c43e:	f7f4 f91f 	bl	8000680 <__aeabi_dmul>
 800c442:	460f      	mov	r7, r1
 800c444:	4606      	mov	r6, r0
 800c446:	f7f4 fbbb 	bl	8000bc0 <__aeabi_d2iz>
 800c44a:	4605      	mov	r5, r0
 800c44c:	f7f4 f8aa 	bl	80005a4 <__aeabi_i2d>
 800c450:	3530      	adds	r5, #48	; 0x30
 800c452:	4602      	mov	r2, r0
 800c454:	460b      	mov	r3, r1
 800c456:	4630      	mov	r0, r6
 800c458:	4639      	mov	r1, r7
 800c45a:	f7f3 ff55 	bl	8000308 <__aeabi_dsub>
 800c45e:	f804 5b01 	strb.w	r5, [r4], #1
 800c462:	4544      	cmp	r4, r8
 800c464:	4606      	mov	r6, r0
 800c466:	460f      	mov	r7, r1
 800c468:	d1e5      	bne.n	800c436 <_dtoa_r+0xc36>
 800c46a:	f8dd 8048 	ldr.w	r8, [sp, #72]	; 0x48
 800c46e:	4b20      	ldr	r3, [pc, #128]	; (800c4f0 <_dtoa_r+0xcf0>)
 800c470:	2200      	movs	r2, #0
 800c472:	e9dd 0100 	ldrd	r0, r1, [sp]
 800c476:	f7f3 ff49 	bl	800030c <__adddf3>
 800c47a:	4632      	mov	r2, r6
 800c47c:	463b      	mov	r3, r7
 800c47e:	f7f4 fb77 	bl	8000b70 <__aeabi_dcmplt>
 800c482:	2800      	cmp	r0, #0
 800c484:	d071      	beq.n	800c56a <_dtoa_r+0xd6a>
 800c486:	9b16      	ldr	r3, [sp, #88]	; 0x58
 800c488:	9306      	str	r3, [sp, #24]
 800c48a:	f814 5c01 	ldrb.w	r5, [r4, #-1]
 800c48e:	e48c      	b.n	800bdaa <_dtoa_r+0x5aa>
 800c490:	2330      	movs	r3, #48	; 0x30
 800c492:	f88b 3000 	strb.w	r3, [fp]
 800c496:	9b06      	ldr	r3, [sp, #24]
 800c498:	f814 5c01 	ldrb.w	r5, [r4, #-1]
 800c49c:	3301      	adds	r3, #1
 800c49e:	9306      	str	r3, [sp, #24]
 800c4a0:	465b      	mov	r3, fp
 800c4a2:	e486      	b.n	800bdb2 <_dtoa_r+0x5b2>
 800c4a4:	9b18      	ldr	r3, [sp, #96]	; 0x60
 800c4a6:	f1c3 0336 	rsb	r3, r3, #54	; 0x36
 800c4aa:	e69f      	b.n	800c1ec <_dtoa_r+0x9ec>
 800c4ac:	2300      	movs	r3, #0
 800c4ae:	e675      	b.n	800c19c <_dtoa_r+0x99c>
 800c4b0:	4631      	mov	r1, r6
 800c4b2:	2205      	movs	r2, #5
 800c4b4:	4648      	mov	r0, r9
 800c4b6:	f000 fa4b 	bl	800c950 <__multadd>
 800c4ba:	4601      	mov	r1, r0
 800c4bc:	4606      	mov	r6, r0
 800c4be:	4650      	mov	r0, sl
 800c4c0:	f000 fc36 	bl	800cd30 <__mcmp>
 800c4c4:	2800      	cmp	r0, #0
 800c4c6:	f73f aeac 	bgt.w	800c222 <_dtoa_r+0xa22>
 800c4ca:	e721      	b.n	800c310 <_dtoa_r+0xb10>
 800c4cc:	ed9d 7b10 	vldr	d7, [sp, #64]	; 0x40
 800c4d0:	2602      	movs	r6, #2
 800c4d2:	ed8d 7b00 	vstr	d7, [sp]
 800c4d6:	f7ff baff 	b.w	800bad8 <_dtoa_r+0x2d8>
 800c4da:	bf00      	nop
 800c4dc:	40140000 	.word	0x40140000
 800c4e0:	0800e090 	.word	0x0800e090
 800c4e4:	0800e060 	.word	0x0800e060
 800c4e8:	401c0000 	.word	0x401c0000
 800c4ec:	40240000 	.word	0x40240000
 800c4f0:	3fe00000 	.word	0x3fe00000
 800c4f4:	9b09      	ldr	r3, [sp, #36]	; 0x24
 800c4f6:	2b00      	cmp	r3, #0
 800c4f8:	f43f af1b 	beq.w	800c332 <_dtoa_r+0xb32>
 800c4fc:	9c0e      	ldr	r4, [sp, #56]	; 0x38
 800c4fe:	2c00      	cmp	r4, #0
 800c500:	f77f aba4 	ble.w	800bc4c <_dtoa_r+0x44c>
 800c504:	2200      	movs	r2, #0
 800c506:	4b45      	ldr	r3, [pc, #276]	; (800c61c <_dtoa_r+0xe1c>)
 800c508:	e9dd 0100 	ldrd	r0, r1, [sp]
 800c50c:	f7f4 f8b8 	bl	8000680 <__aeabi_dmul>
 800c510:	e9cd 0100 	strd	r0, r1, [sp]
 800c514:	1c70      	adds	r0, r6, #1
 800c516:	f7f4 f845 	bl	80005a4 <__aeabi_i2d>
 800c51a:	e9dd 2300 	ldrd	r2, r3, [sp]
 800c51e:	f7f4 f8af 	bl	8000680 <__aeabi_dmul>
 800c522:	4b3f      	ldr	r3, [pc, #252]	; (800c620 <_dtoa_r+0xe20>)
 800c524:	2200      	movs	r2, #0
 800c526:	f7f3 fef1 	bl	800030c <__adddf3>
 800c52a:	9b06      	ldr	r3, [sp, #24]
 800c52c:	9412      	str	r4, [sp, #72]	; 0x48
 800c52e:	3b01      	subs	r3, #1
 800c530:	4606      	mov	r6, r0
 800c532:	f1a1 7750 	sub.w	r7, r1, #54525952	; 0x3400000
 800c536:	9316      	str	r3, [sp, #88]	; 0x58
 800c538:	f7ff baef 	b.w	800bb1a <_dtoa_r+0x31a>
 800c53c:	4651      	mov	r1, sl
 800c53e:	2201      	movs	r2, #1
 800c540:	4648      	mov	r0, r9
 800c542:	f000 fb9d 	bl	800cc80 <__lshift>
 800c546:	4631      	mov	r1, r6
 800c548:	4682      	mov	sl, r0
 800c54a:	f000 fbf1 	bl	800cd30 <__mcmp>
 800c54e:	2800      	cmp	r0, #0
 800c550:	dd3b      	ble.n	800c5ca <_dtoa_r+0xdca>
 800c552:	9b00      	ldr	r3, [sp, #0]
 800c554:	2b39      	cmp	r3, #57	; 0x39
 800c556:	d003      	beq.n	800c560 <_dtoa_r+0xd60>
 800c558:	9b02      	ldr	r3, [sp, #8]
 800c55a:	3331      	adds	r3, #49	; 0x31
 800c55c:	9300      	str	r3, [sp, #0]
 800c55e:	e731      	b.n	800c3c4 <_dtoa_r+0xbc4>
 800c560:	2239      	movs	r2, #57	; 0x39
 800c562:	9502      	str	r5, [sp, #8]
 800c564:	703a      	strb	r2, [r7, #0]
 800c566:	4645      	mov	r5, r8
 800c568:	e58c      	b.n	800c084 <_dtoa_r+0x884>
 800c56a:	e9dd 2300 	ldrd	r2, r3, [sp]
 800c56e:	2000      	movs	r0, #0
 800c570:	492c      	ldr	r1, [pc, #176]	; (800c624 <_dtoa_r+0xe24>)
 800c572:	f7f3 fec9 	bl	8000308 <__aeabi_dsub>
 800c576:	4632      	mov	r2, r6
 800c578:	463b      	mov	r3, r7
 800c57a:	f7f4 fb17 	bl	8000bac <__aeabi_dcmpgt>
 800c57e:	b910      	cbnz	r0, 800c586 <_dtoa_r+0xd86>
 800c580:	f7ff bb64 	b.w	800bc4c <_dtoa_r+0x44c>
 800c584:	4614      	mov	r4, r2
 800c586:	f814 3c01 	ldrb.w	r3, [r4, #-1]
 800c58a:	2b30      	cmp	r3, #48	; 0x30
 800c58c:	f104 32ff 	add.w	r2, r4, #4294967295
 800c590:	d0f8      	beq.n	800c584 <_dtoa_r+0xd84>
 800c592:	9b16      	ldr	r3, [sp, #88]	; 0x58
 800c594:	9306      	str	r3, [sp, #24]
 800c596:	e58b      	b.n	800c0b0 <_dtoa_r+0x8b0>
 800c598:	46d9      	mov	r9, fp
 800c59a:	f8dd a048 	ldr.w	sl, [sp, #72]	; 0x48
 800c59e:	f8dd b050 	ldr.w	fp, [sp, #80]	; 0x50
 800c5a2:	9b16      	ldr	r3, [sp, #88]	; 0x58
 800c5a4:	9306      	str	r3, [sp, #24]
 800c5a6:	e400      	b.n	800bdaa <_dtoa_r+0x5aa>
 800c5a8:	9b00      	ldr	r3, [sp, #0]
 800c5aa:	2b39      	cmp	r3, #57	; 0x39
 800c5ac:	4621      	mov	r1, r4
 800c5ae:	4632      	mov	r2, r6
 800c5b0:	f107 0401 	add.w	r4, r7, #1
 800c5b4:	465e      	mov	r6, fp
 800c5b6:	f8dd b02c 	ldr.w	fp, [sp, #44]	; 0x2c
 800c5ba:	d0d1      	beq.n	800c560 <_dtoa_r+0xd60>
 800c5bc:	2a00      	cmp	r2, #0
 800c5be:	f77f af01 	ble.w	800c3c4 <_dtoa_r+0xbc4>
 800c5c2:	460b      	mov	r3, r1
 800c5c4:	3331      	adds	r3, #49	; 0x31
 800c5c6:	9300      	str	r3, [sp, #0]
 800c5c8:	e6fc      	b.n	800c3c4 <_dtoa_r+0xbc4>
 800c5ca:	f47f aefb 	bne.w	800c3c4 <_dtoa_r+0xbc4>
 800c5ce:	9b00      	ldr	r3, [sp, #0]
 800c5d0:	07da      	lsls	r2, r3, #31
 800c5d2:	f57f aef7 	bpl.w	800c3c4 <_dtoa_r+0xbc4>
 800c5d6:	e7bc      	b.n	800c552 <_dtoa_r+0xd52>
 800c5d8:	4629      	mov	r1, r5
 800c5da:	2300      	movs	r3, #0
 800c5dc:	220a      	movs	r2, #10
 800c5de:	4648      	mov	r0, r9
 800c5e0:	f000 f9b6 	bl	800c950 <__multadd>
 800c5e4:	9b0e      	ldr	r3, [sp, #56]	; 0x38
 800c5e6:	2b00      	cmp	r3, #0
 800c5e8:	4605      	mov	r5, r0
 800c5ea:	dd09      	ble.n	800c600 <_dtoa_r+0xe00>
 800c5ec:	9309      	str	r3, [sp, #36]	; 0x24
 800c5ee:	e480      	b.n	800bef2 <_dtoa_r+0x6f2>
 800c5f0:	9b02      	ldr	r3, [sp, #8]
 800c5f2:	2b02      	cmp	r3, #2
 800c5f4:	dc0e      	bgt.n	800c614 <_dtoa_r+0xe14>
 800c5f6:	9b0e      	ldr	r3, [sp, #56]	; 0x38
 800c5f8:	e504      	b.n	800c004 <_dtoa_r+0x804>
 800c5fa:	2602      	movs	r6, #2
 800c5fc:	f7ff ba6c 	b.w	800bad8 <_dtoa_r+0x2d8>
 800c600:	9b02      	ldr	r3, [sp, #8]
 800c602:	2b02      	cmp	r3, #2
 800c604:	dc06      	bgt.n	800c614 <_dtoa_r+0xe14>
 800c606:	9b0e      	ldr	r3, [sp, #56]	; 0x38
 800c608:	e7f0      	b.n	800c5ec <_dtoa_r+0xdec>
 800c60a:	f43f ac55 	beq.w	800beb8 <_dtoa_r+0x6b8>
 800c60e:	f1c0 003c 	rsb	r0, r0, #60	; 0x3c
 800c612:	e44c      	b.n	800beae <_dtoa_r+0x6ae>
 800c614:	9b0e      	ldr	r3, [sp, #56]	; 0x38
 800c616:	9309      	str	r3, [sp, #36]	; 0x24
 800c618:	e676      	b.n	800c308 <_dtoa_r+0xb08>
 800c61a:	bf00      	nop
 800c61c:	40240000 	.word	0x40240000
 800c620:	401c0000 	.word	0x401c0000
 800c624:	3fe00000 	.word	0x3fe00000
	...

0800c630 <_malloc_trim_r>:
 800c630:	b5f8      	push	{r3, r4, r5, r6, r7, lr}
 800c632:	4f24      	ldr	r7, [pc, #144]	; (800c6c4 <_malloc_trim_r+0x94>)
 800c634:	460c      	mov	r4, r1
 800c636:	4606      	mov	r6, r0
 800c638:	f7f6 f8b2 	bl	80027a0 <__malloc_lock>
 800c63c:	68bb      	ldr	r3, [r7, #8]
 800c63e:	685d      	ldr	r5, [r3, #4]
 800c640:	f5c4 617e 	rsb	r1, r4, #4064	; 0xfe0
 800c644:	310f      	adds	r1, #15
 800c646:	f025 0503 	bic.w	r5, r5, #3
 800c64a:	4429      	add	r1, r5
 800c64c:	f421 617f 	bic.w	r1, r1, #4080	; 0xff0
 800c650:	f021 010f 	bic.w	r1, r1, #15
 800c654:	f5a1 5480 	sub.w	r4, r1, #4096	; 0x1000
 800c658:	f5b4 5f80 	cmp.w	r4, #4096	; 0x1000
 800c65c:	db07      	blt.n	800c66e <_malloc_trim_r+0x3e>
 800c65e:	2100      	movs	r1, #0
 800c660:	4630      	mov	r0, r6
 800c662:	f7f6 f8cd 	bl	8002800 <_sbrk_r>
 800c666:	68bb      	ldr	r3, [r7, #8]
 800c668:	442b      	add	r3, r5
 800c66a:	4298      	cmp	r0, r3
 800c66c:	d004      	beq.n	800c678 <_malloc_trim_r+0x48>
 800c66e:	4630      	mov	r0, r6
 800c670:	f7f6 f8ae 	bl	80027d0 <__malloc_unlock>
 800c674:	2000      	movs	r0, #0
 800c676:	bdf8      	pop	{r3, r4, r5, r6, r7, pc}
 800c678:	4261      	negs	r1, r4
 800c67a:	4630      	mov	r0, r6
 800c67c:	f7f6 f8c0 	bl	8002800 <_sbrk_r>
 800c680:	3001      	adds	r0, #1
 800c682:	d00d      	beq.n	800c6a0 <_malloc_trim_r+0x70>
 800c684:	4b10      	ldr	r3, [pc, #64]	; (800c6c8 <_malloc_trim_r+0x98>)
 800c686:	68ba      	ldr	r2, [r7, #8]
 800c688:	6819      	ldr	r1, [r3, #0]
 800c68a:	1b2d      	subs	r5, r5, r4
 800c68c:	f045 0501 	orr.w	r5, r5, #1
 800c690:	4630      	mov	r0, r6
 800c692:	1b09      	subs	r1, r1, r4
 800c694:	6055      	str	r5, [r2, #4]
 800c696:	6019      	str	r1, [r3, #0]
 800c698:	f7f6 f89a 	bl	80027d0 <__malloc_unlock>
 800c69c:	2001      	movs	r0, #1
 800c69e:	bdf8      	pop	{r3, r4, r5, r6, r7, pc}
 800c6a0:	2100      	movs	r1, #0
 800c6a2:	4630      	mov	r0, r6
 800c6a4:	f7f6 f8ac 	bl	8002800 <_sbrk_r>
 800c6a8:	68ba      	ldr	r2, [r7, #8]
 800c6aa:	1a83      	subs	r3, r0, r2
 800c6ac:	2b0f      	cmp	r3, #15
 800c6ae:	ddde      	ble.n	800c66e <_malloc_trim_r+0x3e>
 800c6b0:	4c06      	ldr	r4, [pc, #24]	; (800c6cc <_malloc_trim_r+0x9c>)
 800c6b2:	4905      	ldr	r1, [pc, #20]	; (800c6c8 <_malloc_trim_r+0x98>)
 800c6b4:	6824      	ldr	r4, [r4, #0]
 800c6b6:	f043 0301 	orr.w	r3, r3, #1
 800c6ba:	1b00      	subs	r0, r0, r4
 800c6bc:	6053      	str	r3, [r2, #4]
 800c6be:	6008      	str	r0, [r1, #0]
 800c6c0:	e7d5      	b.n	800c66e <_malloc_trim_r+0x3e>
 800c6c2:	bf00      	nop
 800c6c4:	20000ddc 	.word	0x20000ddc
 800c6c8:	2000274c 	.word	0x2000274c
 800c6cc:	200011e4 	.word	0x200011e4

0800c6d0 <_free_r>:
 800c6d0:	2900      	cmp	r1, #0
 800c6d2:	d053      	beq.n	800c77c <_free_r+0xac>
 800c6d4:	b5f8      	push	{r3, r4, r5, r6, r7, lr}
 800c6d6:	460c      	mov	r4, r1
 800c6d8:	4606      	mov	r6, r0
 800c6da:	f7f6 f861 	bl	80027a0 <__malloc_lock>
 800c6de:	f854 cc04 	ldr.w	ip, [r4, #-4]
 800c6e2:	4f71      	ldr	r7, [pc, #452]	; (800c8a8 <_free_r+0x1d8>)
 800c6e4:	f02c 0101 	bic.w	r1, ip, #1
 800c6e8:	f1a4 0508 	sub.w	r5, r4, #8
 800c6ec:	186b      	adds	r3, r5, r1
 800c6ee:	68b8      	ldr	r0, [r7, #8]
 800c6f0:	685a      	ldr	r2, [r3, #4]
 800c6f2:	4298      	cmp	r0, r3
 800c6f4:	f022 0203 	bic.w	r2, r2, #3
 800c6f8:	d053      	beq.n	800c7a2 <_free_r+0xd2>
 800c6fa:	f01c 0f01 	tst.w	ip, #1
 800c6fe:	605a      	str	r2, [r3, #4]
 800c700:	eb03 0002 	add.w	r0, r3, r2
 800c704:	d13b      	bne.n	800c77e <_free_r+0xae>
 800c706:	f854 cc08 	ldr.w	ip, [r4, #-8]
 800c70a:	6840      	ldr	r0, [r0, #4]
 800c70c:	eba5 050c 	sub.w	r5, r5, ip
 800c710:	f107 0e08 	add.w	lr, r7, #8
 800c714:	68ac      	ldr	r4, [r5, #8]
 800c716:	4574      	cmp	r4, lr
 800c718:	4461      	add	r1, ip
 800c71a:	f000 0001 	and.w	r0, r0, #1
 800c71e:	d075      	beq.n	800c80c <_free_r+0x13c>
 800c720:	f8d5 c00c 	ldr.w	ip, [r5, #12]
 800c724:	f8c4 c00c 	str.w	ip, [r4, #12]
 800c728:	f8cc 4008 	str.w	r4, [ip, #8]
 800c72c:	b360      	cbz	r0, 800c788 <_free_r+0xb8>
 800c72e:	f041 0301 	orr.w	r3, r1, #1
 800c732:	606b      	str	r3, [r5, #4]
 800c734:	5069      	str	r1, [r5, r1]
 800c736:	f5b1 7f00 	cmp.w	r1, #512	; 0x200
 800c73a:	d350      	bcc.n	800c7de <_free_r+0x10e>
 800c73c:	0a4b      	lsrs	r3, r1, #9
 800c73e:	2b04      	cmp	r3, #4
 800c740:	d870      	bhi.n	800c824 <_free_r+0x154>
 800c742:	098b      	lsrs	r3, r1, #6
 800c744:	f103 0439 	add.w	r4, r3, #57	; 0x39
 800c748:	00e4      	lsls	r4, r4, #3
 800c74a:	f103 0238 	add.w	r2, r3, #56	; 0x38
 800c74e:	1938      	adds	r0, r7, r4
 800c750:	593b      	ldr	r3, [r7, r4]
 800c752:	3808      	subs	r0, #8
 800c754:	4298      	cmp	r0, r3
 800c756:	d078      	beq.n	800c84a <_free_r+0x17a>
 800c758:	685a      	ldr	r2, [r3, #4]
 800c75a:	f022 0203 	bic.w	r2, r2, #3
 800c75e:	428a      	cmp	r2, r1
 800c760:	d971      	bls.n	800c846 <_free_r+0x176>
 800c762:	689b      	ldr	r3, [r3, #8]
 800c764:	4298      	cmp	r0, r3
 800c766:	d1f7      	bne.n	800c758 <_free_r+0x88>
 800c768:	68c3      	ldr	r3, [r0, #12]
 800c76a:	e9c5 0302 	strd	r0, r3, [r5, #8]
 800c76e:	609d      	str	r5, [r3, #8]
 800c770:	60c5      	str	r5, [r0, #12]
 800c772:	4630      	mov	r0, r6
 800c774:	e8bd 40f8 	ldmia.w	sp!, {r3, r4, r5, r6, r7, lr}
 800c778:	f7f6 b82a 	b.w	80027d0 <__malloc_unlock>
 800c77c:	4770      	bx	lr
 800c77e:	6840      	ldr	r0, [r0, #4]
 800c780:	f000 0001 	and.w	r0, r0, #1
 800c784:	2800      	cmp	r0, #0
 800c786:	d1d2      	bne.n	800c72e <_free_r+0x5e>
 800c788:	6898      	ldr	r0, [r3, #8]
 800c78a:	4c48      	ldr	r4, [pc, #288]	; (800c8ac <_free_r+0x1dc>)
 800c78c:	4411      	add	r1, r2
 800c78e:	42a0      	cmp	r0, r4
 800c790:	f041 0201 	orr.w	r2, r1, #1
 800c794:	d062      	beq.n	800c85c <_free_r+0x18c>
 800c796:	68db      	ldr	r3, [r3, #12]
 800c798:	60c3      	str	r3, [r0, #12]
 800c79a:	6098      	str	r0, [r3, #8]
 800c79c:	606a      	str	r2, [r5, #4]
 800c79e:	5069      	str	r1, [r5, r1]
 800c7a0:	e7c9      	b.n	800c736 <_free_r+0x66>
 800c7a2:	f01c 0f01 	tst.w	ip, #1
 800c7a6:	440a      	add	r2, r1
 800c7a8:	d107      	bne.n	800c7ba <_free_r+0xea>
 800c7aa:	f854 3c08 	ldr.w	r3, [r4, #-8]
 800c7ae:	1aed      	subs	r5, r5, r3
 800c7b0:	441a      	add	r2, r3
 800c7b2:	e9d5 1302 	ldrd	r1, r3, [r5, #8]
 800c7b6:	60cb      	str	r3, [r1, #12]
 800c7b8:	6099      	str	r1, [r3, #8]
 800c7ba:	4b3d      	ldr	r3, [pc, #244]	; (800c8b0 <_free_r+0x1e0>)
 800c7bc:	681b      	ldr	r3, [r3, #0]
 800c7be:	f042 0101 	orr.w	r1, r2, #1
 800c7c2:	4293      	cmp	r3, r2
 800c7c4:	6069      	str	r1, [r5, #4]
 800c7c6:	60bd      	str	r5, [r7, #8]
 800c7c8:	d804      	bhi.n	800c7d4 <_free_r+0x104>
 800c7ca:	4b3a      	ldr	r3, [pc, #232]	; (800c8b4 <_free_r+0x1e4>)
 800c7cc:	4630      	mov	r0, r6
 800c7ce:	6819      	ldr	r1, [r3, #0]
 800c7d0:	f7ff ff2e 	bl	800c630 <_malloc_trim_r>
 800c7d4:	4630      	mov	r0, r6
 800c7d6:	e8bd 40f8 	ldmia.w	sp!, {r3, r4, r5, r6, r7, lr}
 800c7da:	f7f5 bff9 	b.w	80027d0 <__malloc_unlock>
 800c7de:	08c9      	lsrs	r1, r1, #3
 800c7e0:	6878      	ldr	r0, [r7, #4]
 800c7e2:	1c4a      	adds	r2, r1, #1
 800c7e4:	2301      	movs	r3, #1
 800c7e6:	1089      	asrs	r1, r1, #2
 800c7e8:	408b      	lsls	r3, r1
 800c7ea:	4303      	orrs	r3, r0
 800c7ec:	eb07 01c2 	add.w	r1, r7, r2, lsl #3
 800c7f0:	f857 0032 	ldr.w	r0, [r7, r2, lsl #3]
 800c7f4:	607b      	str	r3, [r7, #4]
 800c7f6:	3908      	subs	r1, #8
 800c7f8:	e9c5 0102 	strd	r0, r1, [r5, #8]
 800c7fc:	f847 5032 	str.w	r5, [r7, r2, lsl #3]
 800c800:	60c5      	str	r5, [r0, #12]
 800c802:	4630      	mov	r0, r6
 800c804:	e8bd 40f8 	ldmia.w	sp!, {r3, r4, r5, r6, r7, lr}
 800c808:	f7f5 bfe2 	b.w	80027d0 <__malloc_unlock>
 800c80c:	2800      	cmp	r0, #0
 800c80e:	d145      	bne.n	800c89c <_free_r+0x1cc>
 800c810:	440a      	add	r2, r1
 800c812:	e9d3 1302 	ldrd	r1, r3, [r3, #8]
 800c816:	f042 0001 	orr.w	r0, r2, #1
 800c81a:	60cb      	str	r3, [r1, #12]
 800c81c:	6099      	str	r1, [r3, #8]
 800c81e:	6068      	str	r0, [r5, #4]
 800c820:	50aa      	str	r2, [r5, r2]
 800c822:	e7d7      	b.n	800c7d4 <_free_r+0x104>
 800c824:	2b14      	cmp	r3, #20
 800c826:	d908      	bls.n	800c83a <_free_r+0x16a>
 800c828:	2b54      	cmp	r3, #84	; 0x54
 800c82a:	d81e      	bhi.n	800c86a <_free_r+0x19a>
 800c82c:	0b0b      	lsrs	r3, r1, #12
 800c82e:	f103 046f 	add.w	r4, r3, #111	; 0x6f
 800c832:	00e4      	lsls	r4, r4, #3
 800c834:	f103 026e 	add.w	r2, r3, #110	; 0x6e
 800c838:	e789      	b.n	800c74e <_free_r+0x7e>
 800c83a:	f103 045c 	add.w	r4, r3, #92	; 0x5c
 800c83e:	00e4      	lsls	r4, r4, #3
 800c840:	f103 025b 	add.w	r2, r3, #91	; 0x5b
 800c844:	e783      	b.n	800c74e <_free_r+0x7e>
 800c846:	4618      	mov	r0, r3
 800c848:	e78e      	b.n	800c768 <_free_r+0x98>
 800c84a:	1093      	asrs	r3, r2, #2
 800c84c:	6879      	ldr	r1, [r7, #4]
 800c84e:	2201      	movs	r2, #1
 800c850:	fa02 f303 	lsl.w	r3, r2, r3
 800c854:	430b      	orrs	r3, r1
 800c856:	607b      	str	r3, [r7, #4]
 800c858:	4603      	mov	r3, r0
 800c85a:	e786      	b.n	800c76a <_free_r+0x9a>
 800c85c:	e9c7 5504 	strd	r5, r5, [r7, #16]
 800c860:	e9c5 0002 	strd	r0, r0, [r5, #8]
 800c864:	606a      	str	r2, [r5, #4]
 800c866:	5069      	str	r1, [r5, r1]
 800c868:	e7b4      	b.n	800c7d4 <_free_r+0x104>
 800c86a:	f5b3 7faa 	cmp.w	r3, #340	; 0x154
 800c86e:	d806      	bhi.n	800c87e <_free_r+0x1ae>
 800c870:	0bcb      	lsrs	r3, r1, #15
 800c872:	f103 0478 	add.w	r4, r3, #120	; 0x78
 800c876:	00e4      	lsls	r4, r4, #3
 800c878:	f103 0277 	add.w	r2, r3, #119	; 0x77
 800c87c:	e767      	b.n	800c74e <_free_r+0x7e>
 800c87e:	f240 5254 	movw	r2, #1364	; 0x554
 800c882:	4293      	cmp	r3, r2
 800c884:	d806      	bhi.n	800c894 <_free_r+0x1c4>
 800c886:	0c8b      	lsrs	r3, r1, #18
 800c888:	f103 047d 	add.w	r4, r3, #125	; 0x7d
 800c88c:	00e4      	lsls	r4, r4, #3
 800c88e:	f103 027c 	add.w	r2, r3, #124	; 0x7c
 800c892:	e75c      	b.n	800c74e <_free_r+0x7e>
 800c894:	f44f 747e 	mov.w	r4, #1016	; 0x3f8
 800c898:	227e      	movs	r2, #126	; 0x7e
 800c89a:	e758      	b.n	800c74e <_free_r+0x7e>
 800c89c:	f041 0201 	orr.w	r2, r1, #1
 800c8a0:	606a      	str	r2, [r5, #4]
 800c8a2:	6019      	str	r1, [r3, #0]
 800c8a4:	e796      	b.n	800c7d4 <_free_r+0x104>
 800c8a6:	bf00      	nop
 800c8a8:	20000ddc 	.word	0x20000ddc
 800c8ac:	20000de4 	.word	0x20000de4
 800c8b0:	200011e8 	.word	0x200011e8
 800c8b4:	2000277c 	.word	0x2000277c
	...

0800c8c0 <_localeconv_r>:
 800c8c0:	4a04      	ldr	r2, [pc, #16]	; (800c8d4 <_localeconv_r+0x14>)
 800c8c2:	4b05      	ldr	r3, [pc, #20]	; (800c8d8 <_localeconv_r+0x18>)
 800c8c4:	6812      	ldr	r2, [r2, #0]
 800c8c6:	6b50      	ldr	r0, [r2, #52]	; 0x34
 800c8c8:	2800      	cmp	r0, #0
 800c8ca:	bf08      	it	eq
 800c8cc:	4618      	moveq	r0, r3
 800c8ce:	30f0      	adds	r0, #240	; 0xf0
 800c8d0:	4770      	bx	lr
 800c8d2:	bf00      	nop
 800c8d4:	20000844 	.word	0x20000844
 800c8d8:	20000c70 	.word	0x20000c70
 800c8dc:	00000000 	.word	0x00000000

0800c8e0 <_Balloc>:
 800c8e0:	6cc3      	ldr	r3, [r0, #76]	; 0x4c
 800c8e2:	b570      	push	{r4, r5, r6, lr}
 800c8e4:	4605      	mov	r5, r0
 800c8e6:	460c      	mov	r4, r1
 800c8e8:	b14b      	cbz	r3, 800c8fe <_Balloc+0x1e>
 800c8ea:	f853 0024 	ldr.w	r0, [r3, r4, lsl #2]
 800c8ee:	b180      	cbz	r0, 800c912 <_Balloc+0x32>
 800c8f0:	6802      	ldr	r2, [r0, #0]
 800c8f2:	f843 2024 	str.w	r2, [r3, r4, lsl #2]
 800c8f6:	2300      	movs	r3, #0
 800c8f8:	e9c0 3303 	strd	r3, r3, [r0, #12]
 800c8fc:	bd70      	pop	{r4, r5, r6, pc}
 800c8fe:	2221      	movs	r2, #33	; 0x21
 800c900:	2104      	movs	r1, #4
 800c902:	f000 fb95 	bl	800d030 <_calloc_r>
 800c906:	4603      	mov	r3, r0
 800c908:	64e8      	str	r0, [r5, #76]	; 0x4c
 800c90a:	2800      	cmp	r0, #0
 800c90c:	d1ed      	bne.n	800c8ea <_Balloc+0xa>
 800c90e:	2000      	movs	r0, #0
 800c910:	bd70      	pop	{r4, r5, r6, pc}
 800c912:	2101      	movs	r1, #1
 800c914:	fa01 f604 	lsl.w	r6, r1, r4
 800c918:	1d72      	adds	r2, r6, #5
 800c91a:	4628      	mov	r0, r5
 800c91c:	0092      	lsls	r2, r2, #2
 800c91e:	f000 fb87 	bl	800d030 <_calloc_r>
 800c922:	2800      	cmp	r0, #0
 800c924:	d0f3      	beq.n	800c90e <_Balloc+0x2e>
 800c926:	e9c0 4601 	strd	r4, r6, [r0, #4]
 800c92a:	e7e4      	b.n	800c8f6 <_Balloc+0x16>
 800c92c:	0000      	movs	r0, r0
	...

0800c930 <_Bfree>:
 800c930:	b131      	cbz	r1, 800c940 <_Bfree+0x10>
 800c932:	6cc3      	ldr	r3, [r0, #76]	; 0x4c
 800c934:	684a      	ldr	r2, [r1, #4]
 800c936:	f853 0022 	ldr.w	r0, [r3, r2, lsl #2]
 800c93a:	6008      	str	r0, [r1, #0]
 800c93c:	f843 1022 	str.w	r1, [r3, r2, lsl #2]
 800c940:	4770      	bx	lr
 800c942:	bf00      	nop
	...

0800c950 <__multadd>:
 800c950:	b5f0      	push	{r4, r5, r6, r7, lr}
 800c952:	690c      	ldr	r4, [r1, #16]
 800c954:	b083      	sub	sp, #12
 800c956:	460d      	mov	r5, r1
 800c958:	4606      	mov	r6, r0
 800c95a:	f101 0c14 	add.w	ip, r1, #20
 800c95e:	2700      	movs	r7, #0
 800c960:	f8dc 0000 	ldr.w	r0, [ip]
 800c964:	b281      	uxth	r1, r0
 800c966:	fb02 3301 	mla	r3, r2, r1, r3
 800c96a:	0c01      	lsrs	r1, r0, #16
 800c96c:	0c18      	lsrs	r0, r3, #16
 800c96e:	fb02 0101 	mla	r1, r2, r1, r0
 800c972:	b29b      	uxth	r3, r3
 800c974:	3701      	adds	r7, #1
 800c976:	eb03 4301 	add.w	r3, r3, r1, lsl #16
 800c97a:	42bc      	cmp	r4, r7
 800c97c:	f84c 3b04 	str.w	r3, [ip], #4
 800c980:	ea4f 4311 	mov.w	r3, r1, lsr #16
 800c984:	dcec      	bgt.n	800c960 <__multadd+0x10>
 800c986:	b13b      	cbz	r3, 800c998 <__multadd+0x48>
 800c988:	68aa      	ldr	r2, [r5, #8]
 800c98a:	42a2      	cmp	r2, r4
 800c98c:	dd07      	ble.n	800c99e <__multadd+0x4e>
 800c98e:	eb05 0284 	add.w	r2, r5, r4, lsl #2
 800c992:	3401      	adds	r4, #1
 800c994:	6153      	str	r3, [r2, #20]
 800c996:	612c      	str	r4, [r5, #16]
 800c998:	4628      	mov	r0, r5
 800c99a:	b003      	add	sp, #12
 800c99c:	bdf0      	pop	{r4, r5, r6, r7, pc}
 800c99e:	6869      	ldr	r1, [r5, #4]
 800c9a0:	9301      	str	r3, [sp, #4]
 800c9a2:	3101      	adds	r1, #1
 800c9a4:	4630      	mov	r0, r6
 800c9a6:	f7ff ff9b 	bl	800c8e0 <_Balloc>
 800c9aa:	692a      	ldr	r2, [r5, #16]
 800c9ac:	3202      	adds	r2, #2
 800c9ae:	f105 010c 	add.w	r1, r5, #12
 800c9b2:	4607      	mov	r7, r0
 800c9b4:	0092      	lsls	r2, r2, #2
 800c9b6:	300c      	adds	r0, #12
 800c9b8:	f7f4 fab2 	bl	8000f20 <memcpy>
 800c9bc:	6cf2      	ldr	r2, [r6, #76]	; 0x4c
 800c9be:	6869      	ldr	r1, [r5, #4]
 800c9c0:	9b01      	ldr	r3, [sp, #4]
 800c9c2:	f852 0021 	ldr.w	r0, [r2, r1, lsl #2]
 800c9c6:	6028      	str	r0, [r5, #0]
 800c9c8:	f842 5021 	str.w	r5, [r2, r1, lsl #2]
 800c9cc:	463d      	mov	r5, r7
 800c9ce:	e7de      	b.n	800c98e <__multadd+0x3e>

0800c9d0 <__hi0bits>:
 800c9d0:	0c02      	lsrs	r2, r0, #16
 800c9d2:	0412      	lsls	r2, r2, #16
 800c9d4:	4603      	mov	r3, r0
 800c9d6:	b9c2      	cbnz	r2, 800ca0a <__hi0bits+0x3a>
 800c9d8:	0403      	lsls	r3, r0, #16
 800c9da:	2010      	movs	r0, #16
 800c9dc:	f013 4f7f 	tst.w	r3, #4278190080	; 0xff000000
 800c9e0:	bf04      	itt	eq
 800c9e2:	021b      	lsleq	r3, r3, #8
 800c9e4:	3008      	addeq	r0, #8
 800c9e6:	f013 4f70 	tst.w	r3, #4026531840	; 0xf0000000
 800c9ea:	bf04      	itt	eq
 800c9ec:	011b      	lsleq	r3, r3, #4
 800c9ee:	3004      	addeq	r0, #4
 800c9f0:	f013 4f40 	tst.w	r3, #3221225472	; 0xc0000000
 800c9f4:	bf04      	itt	eq
 800c9f6:	009b      	lsleq	r3, r3, #2
 800c9f8:	3002      	addeq	r0, #2
 800c9fa:	2b00      	cmp	r3, #0
 800c9fc:	db04      	blt.n	800ca08 <__hi0bits+0x38>
 800c9fe:	005b      	lsls	r3, r3, #1
 800ca00:	d501      	bpl.n	800ca06 <__hi0bits+0x36>
 800ca02:	3001      	adds	r0, #1
 800ca04:	4770      	bx	lr
 800ca06:	2020      	movs	r0, #32
 800ca08:	4770      	bx	lr
 800ca0a:	2000      	movs	r0, #0
 800ca0c:	e7e6      	b.n	800c9dc <__hi0bits+0xc>
 800ca0e:	bf00      	nop

0800ca10 <__lo0bits>:
 800ca10:	6803      	ldr	r3, [r0, #0]
 800ca12:	f013 0207 	ands.w	r2, r3, #7
 800ca16:	4601      	mov	r1, r0
 800ca18:	d007      	beq.n	800ca2a <__lo0bits+0x1a>
 800ca1a:	07da      	lsls	r2, r3, #31
 800ca1c:	d41f      	bmi.n	800ca5e <__lo0bits+0x4e>
 800ca1e:	0798      	lsls	r0, r3, #30
 800ca20:	d51f      	bpl.n	800ca62 <__lo0bits+0x52>
 800ca22:	085b      	lsrs	r3, r3, #1
 800ca24:	600b      	str	r3, [r1, #0]
 800ca26:	2001      	movs	r0, #1
 800ca28:	4770      	bx	lr
 800ca2a:	b298      	uxth	r0, r3
 800ca2c:	b1a0      	cbz	r0, 800ca58 <__lo0bits+0x48>
 800ca2e:	4610      	mov	r0, r2
 800ca30:	f013 0fff 	tst.w	r3, #255	; 0xff
 800ca34:	bf04      	itt	eq
 800ca36:	0a1b      	lsreq	r3, r3, #8
 800ca38:	3008      	addeq	r0, #8
 800ca3a:	071a      	lsls	r2, r3, #28
 800ca3c:	bf04      	itt	eq
 800ca3e:	091b      	lsreq	r3, r3, #4
 800ca40:	3004      	addeq	r0, #4
 800ca42:	079a      	lsls	r2, r3, #30
 800ca44:	bf04      	itt	eq
 800ca46:	089b      	lsreq	r3, r3, #2
 800ca48:	3002      	addeq	r0, #2
 800ca4a:	07da      	lsls	r2, r3, #31
 800ca4c:	d402      	bmi.n	800ca54 <__lo0bits+0x44>
 800ca4e:	085b      	lsrs	r3, r3, #1
 800ca50:	d00b      	beq.n	800ca6a <__lo0bits+0x5a>
 800ca52:	3001      	adds	r0, #1
 800ca54:	600b      	str	r3, [r1, #0]
 800ca56:	4770      	bx	lr
 800ca58:	0c1b      	lsrs	r3, r3, #16
 800ca5a:	2010      	movs	r0, #16
 800ca5c:	e7e8      	b.n	800ca30 <__lo0bits+0x20>
 800ca5e:	2000      	movs	r0, #0
 800ca60:	4770      	bx	lr
 800ca62:	089b      	lsrs	r3, r3, #2
 800ca64:	600b      	str	r3, [r1, #0]
 800ca66:	2002      	movs	r0, #2
 800ca68:	4770      	bx	lr
 800ca6a:	2020      	movs	r0, #32
 800ca6c:	4770      	bx	lr
 800ca6e:	bf00      	nop

0800ca70 <__i2b>:
 800ca70:	b510      	push	{r4, lr}
 800ca72:	460c      	mov	r4, r1
 800ca74:	2101      	movs	r1, #1
 800ca76:	f7ff ff33 	bl	800c8e0 <_Balloc>
 800ca7a:	2201      	movs	r2, #1
 800ca7c:	e9c0 2404 	strd	r2, r4, [r0, #16]
 800ca80:	bd10      	pop	{r4, pc}
 800ca82:	bf00      	nop
	...

0800ca90 <__multiply>:
 800ca90:	e92d 4ff0 	stmdb	sp!, {r4, r5, r6, r7, r8, r9, sl, fp, lr}
 800ca94:	690e      	ldr	r6, [r1, #16]
 800ca96:	6914      	ldr	r4, [r2, #16]
 800ca98:	42a6      	cmp	r6, r4
 800ca9a:	b083      	sub	sp, #12
 800ca9c:	460f      	mov	r7, r1
 800ca9e:	4615      	mov	r5, r2
 800caa0:	da04      	bge.n	800caac <__multiply+0x1c>
 800caa2:	4632      	mov	r2, r6
 800caa4:	462f      	mov	r7, r5
 800caa6:	4626      	mov	r6, r4
 800caa8:	460d      	mov	r5, r1
 800caaa:	4614      	mov	r4, r2
 800caac:	e9d7 1301 	ldrd	r1, r3, [r7, #4]
 800cab0:	eb06 0804 	add.w	r8, r6, r4
 800cab4:	4543      	cmp	r3, r8
 800cab6:	bfb8      	it	lt
 800cab8:	3101      	addlt	r1, #1
 800caba:	f7ff ff11 	bl	800c8e0 <_Balloc>
 800cabe:	f100 0914 	add.w	r9, r0, #20
 800cac2:	eb09 0e88 	add.w	lr, r9, r8, lsl #2
 800cac6:	45f1      	cmp	r9, lr
 800cac8:	9000      	str	r0, [sp, #0]
 800caca:	d205      	bcs.n	800cad8 <__multiply+0x48>
 800cacc:	464b      	mov	r3, r9
 800cace:	2200      	movs	r2, #0
 800cad0:	f843 2b04 	str.w	r2, [r3], #4
 800cad4:	459e      	cmp	lr, r3
 800cad6:	d8fb      	bhi.n	800cad0 <__multiply+0x40>
 800cad8:	f105 0a14 	add.w	sl, r5, #20
 800cadc:	eb0a 0484 	add.w	r4, sl, r4, lsl #2
 800cae0:	f107 0314 	add.w	r3, r7, #20
 800cae4:	45a2      	cmp	sl, r4
 800cae6:	eb03 0c86 	add.w	ip, r3, r6, lsl #2
 800caea:	d261      	bcs.n	800cbb0 <__multiply+0x120>
 800caec:	1b64      	subs	r4, r4, r5
 800caee:	3c15      	subs	r4, #21
 800caf0:	f024 0403 	bic.w	r4, r4, #3
 800caf4:	f8cd e004 	str.w	lr, [sp, #4]
 800caf8:	44a2      	add	sl, r4
 800cafa:	f105 0210 	add.w	r2, r5, #16
 800cafe:	469e      	mov	lr, r3
 800cb00:	e005      	b.n	800cb0e <__multiply+0x7e>
 800cb02:	0c2d      	lsrs	r5, r5, #16
 800cb04:	d12b      	bne.n	800cb5e <__multiply+0xce>
 800cb06:	4592      	cmp	sl, r2
 800cb08:	f109 0904 	add.w	r9, r9, #4
 800cb0c:	d04e      	beq.n	800cbac <__multiply+0x11c>
 800cb0e:	f852 5f04 	ldr.w	r5, [r2, #4]!
 800cb12:	fa1f fb85 	uxth.w	fp, r5
 800cb16:	f1bb 0f00 	cmp.w	fp, #0
 800cb1a:	d0f2      	beq.n	800cb02 <__multiply+0x72>
 800cb1c:	4677      	mov	r7, lr
 800cb1e:	464e      	mov	r6, r9
 800cb20:	2000      	movs	r0, #0
 800cb22:	e000      	b.n	800cb26 <__multiply+0x96>
 800cb24:	4626      	mov	r6, r4
 800cb26:	f857 1b04 	ldr.w	r1, [r7], #4
 800cb2a:	6834      	ldr	r4, [r6, #0]
 800cb2c:	b28b      	uxth	r3, r1
 800cb2e:	b2a5      	uxth	r5, r4
 800cb30:	0c09      	lsrs	r1, r1, #16
 800cb32:	0c24      	lsrs	r4, r4, #16
 800cb34:	fb0b 5303 	mla	r3, fp, r3, r5
 800cb38:	4403      	add	r3, r0
 800cb3a:	fb0b 4001 	mla	r0, fp, r1, r4
 800cb3e:	eb00 4013 	add.w	r0, r0, r3, lsr #16
 800cb42:	4634      	mov	r4, r6
 800cb44:	b29b      	uxth	r3, r3
 800cb46:	ea43 4300 	orr.w	r3, r3, r0, lsl #16
 800cb4a:	45bc      	cmp	ip, r7
 800cb4c:	ea4f 4010 	mov.w	r0, r0, lsr #16
 800cb50:	f844 3b04 	str.w	r3, [r4], #4
 800cb54:	d8e6      	bhi.n	800cb24 <__multiply+0x94>
 800cb56:	6070      	str	r0, [r6, #4]
 800cb58:	6815      	ldr	r5, [r2, #0]
 800cb5a:	0c2d      	lsrs	r5, r5, #16
 800cb5c:	d0d3      	beq.n	800cb06 <__multiply+0x76>
 800cb5e:	f8d9 3000 	ldr.w	r3, [r9]
 800cb62:	4676      	mov	r6, lr
 800cb64:	4618      	mov	r0, r3
 800cb66:	46cb      	mov	fp, r9
 800cb68:	2100      	movs	r1, #0
 800cb6a:	e000      	b.n	800cb6e <__multiply+0xde>
 800cb6c:	46a3      	mov	fp, r4
 800cb6e:	8834      	ldrh	r4, [r6, #0]
 800cb70:	0c00      	lsrs	r0, r0, #16
 800cb72:	fb05 0004 	mla	r0, r5, r4, r0
 800cb76:	4401      	add	r1, r0
 800cb78:	b29b      	uxth	r3, r3
 800cb7a:	465c      	mov	r4, fp
 800cb7c:	ea43 4301 	orr.w	r3, r3, r1, lsl #16
 800cb80:	f844 3b04 	str.w	r3, [r4], #4
 800cb84:	f856 3b04 	ldr.w	r3, [r6], #4
 800cb88:	f8db 0004 	ldr.w	r0, [fp, #4]
 800cb8c:	0c1b      	lsrs	r3, r3, #16
 800cb8e:	b287      	uxth	r7, r0
 800cb90:	fb05 7303 	mla	r3, r5, r3, r7
 800cb94:	eb03 4311 	add.w	r3, r3, r1, lsr #16
 800cb98:	45b4      	cmp	ip, r6
 800cb9a:	ea4f 4113 	mov.w	r1, r3, lsr #16
 800cb9e:	d8e5      	bhi.n	800cb6c <__multiply+0xdc>
 800cba0:	4592      	cmp	sl, r2
 800cba2:	f8cb 3004 	str.w	r3, [fp, #4]
 800cba6:	f109 0904 	add.w	r9, r9, #4
 800cbaa:	d1b0      	bne.n	800cb0e <__multiply+0x7e>
 800cbac:	f8dd e004 	ldr.w	lr, [sp, #4]
 800cbb0:	f1b8 0f00 	cmp.w	r8, #0
 800cbb4:	dd0b      	ble.n	800cbce <__multiply+0x13e>
 800cbb6:	f85e 3c04 	ldr.w	r3, [lr, #-4]
 800cbba:	f1ae 0e04 	sub.w	lr, lr, #4
 800cbbe:	b11b      	cbz	r3, 800cbc8 <__multiply+0x138>
 800cbc0:	e005      	b.n	800cbce <__multiply+0x13e>
 800cbc2:	f85e 3d04 	ldr.w	r3, [lr, #-4]!
 800cbc6:	b913      	cbnz	r3, 800cbce <__multiply+0x13e>
 800cbc8:	f1b8 0801 	subs.w	r8, r8, #1
 800cbcc:	d1f9      	bne.n	800cbc2 <__multiply+0x132>
 800cbce:	9800      	ldr	r0, [sp, #0]
 800cbd0:	f8c0 8010 	str.w	r8, [r0, #16]
 800cbd4:	b003      	add	sp, #12
 800cbd6:	e8bd 8ff0 	ldmia.w	sp!, {r4, r5, r6, r7, r8, r9, sl, fp, pc}
 800cbda:	bf00      	nop
 800cbdc:	0000      	movs	r0, r0
	...

0800cbe0 <__pow5mult>:
 800cbe0:	f012 0303 	ands.w	r3, r2, #3
 800cbe4:	e92d 41f0 	stmdb	sp!, {r4, r5, r6, r7, r8, lr}
 800cbe8:	4614      	mov	r4, r2
 800cbea:	4607      	mov	r7, r0
 800cbec:	d12e      	bne.n	800cc4c <__pow5mult+0x6c>
 800cbee:	460d      	mov	r5, r1
 800cbf0:	10a4      	asrs	r4, r4, #2
 800cbf2:	d01c      	beq.n	800cc2e <__pow5mult+0x4e>
 800cbf4:	6cbe      	ldr	r6, [r7, #72]	; 0x48
 800cbf6:	b396      	cbz	r6, 800cc5e <__pow5mult+0x7e>
 800cbf8:	07e3      	lsls	r3, r4, #31
 800cbfa:	f04f 0800 	mov.w	r8, #0
 800cbfe:	d406      	bmi.n	800cc0e <__pow5mult+0x2e>
 800cc00:	1064      	asrs	r4, r4, #1
 800cc02:	d014      	beq.n	800cc2e <__pow5mult+0x4e>
 800cc04:	6830      	ldr	r0, [r6, #0]
 800cc06:	b1a8      	cbz	r0, 800cc34 <__pow5mult+0x54>
 800cc08:	4606      	mov	r6, r0
 800cc0a:	07e3      	lsls	r3, r4, #31
 800cc0c:	d5f8      	bpl.n	800cc00 <__pow5mult+0x20>
 800cc0e:	4632      	mov	r2, r6
 800cc10:	4629      	mov	r1, r5
 800cc12:	4638      	mov	r0, r7
 800cc14:	f7ff ff3c 	bl	800ca90 <__multiply>
 800cc18:	b1b5      	cbz	r5, 800cc48 <__pow5mult+0x68>
 800cc1a:	686a      	ldr	r2, [r5, #4]
 800cc1c:	6cfb      	ldr	r3, [r7, #76]	; 0x4c
 800cc1e:	1064      	asrs	r4, r4, #1
 800cc20:	f853 1022 	ldr.w	r1, [r3, r2, lsl #2]
 800cc24:	6029      	str	r1, [r5, #0]
 800cc26:	f843 5022 	str.w	r5, [r3, r2, lsl #2]
 800cc2a:	4605      	mov	r5, r0
 800cc2c:	d1ea      	bne.n	800cc04 <__pow5mult+0x24>
 800cc2e:	4628      	mov	r0, r5
 800cc30:	e8bd 81f0 	ldmia.w	sp!, {r4, r5, r6, r7, r8, pc}
 800cc34:	4632      	mov	r2, r6
 800cc36:	4631      	mov	r1, r6
 800cc38:	4638      	mov	r0, r7
 800cc3a:	f7ff ff29 	bl	800ca90 <__multiply>
 800cc3e:	6030      	str	r0, [r6, #0]
 800cc40:	f8c0 8000 	str.w	r8, [r0]
 800cc44:	4606      	mov	r6, r0
 800cc46:	e7e0      	b.n	800cc0a <__pow5mult+0x2a>
 800cc48:	4605      	mov	r5, r0
 800cc4a:	e7d9      	b.n	800cc00 <__pow5mult+0x20>
 800cc4c:	3b01      	subs	r3, #1
 800cc4e:	4a0b      	ldr	r2, [pc, #44]	; (800cc7c <__pow5mult+0x9c>)
 800cc50:	f852 2023 	ldr.w	r2, [r2, r3, lsl #2]
 800cc54:	2300      	movs	r3, #0
 800cc56:	f7ff fe7b 	bl	800c950 <__multadd>
 800cc5a:	4605      	mov	r5, r0
 800cc5c:	e7c8      	b.n	800cbf0 <__pow5mult+0x10>
 800cc5e:	2101      	movs	r1, #1
 800cc60:	4638      	mov	r0, r7
 800cc62:	f7ff fe3d 	bl	800c8e0 <_Balloc>
 800cc66:	f240 2371 	movw	r3, #625	; 0x271
 800cc6a:	6143      	str	r3, [r0, #20]
 800cc6c:	2201      	movs	r2, #1
 800cc6e:	2300      	movs	r3, #0
 800cc70:	6102      	str	r2, [r0, #16]
 800cc72:	4606      	mov	r6, r0
 800cc74:	64b8      	str	r0, [r7, #72]	; 0x48
 800cc76:	6003      	str	r3, [r0, #0]
 800cc78:	e7be      	b.n	800cbf8 <__pow5mult+0x18>
 800cc7a:	bf00      	nop
 800cc7c:	0800e160 	.word	0x0800e160

0800cc80 <__lshift>:
 800cc80:	e92d 47f0 	stmdb	sp!, {r4, r5, r6, r7, r8, r9, sl, lr}
 800cc84:	4691      	mov	r9, r2
 800cc86:	690a      	ldr	r2, [r1, #16]
 800cc88:	460e      	mov	r6, r1
 800cc8a:	ea4f 1469 	mov.w	r4, r9, asr #5
 800cc8e:	e9d1 1301 	ldrd	r1, r3, [r1, #4]
 800cc92:	eb04 0802 	add.w	r8, r4, r2
 800cc96:	f108 0501 	add.w	r5, r8, #1
 800cc9a:	429d      	cmp	r5, r3
 800cc9c:	4607      	mov	r7, r0
 800cc9e:	dd04      	ble.n	800ccaa <__lshift+0x2a>
 800cca0:	005b      	lsls	r3, r3, #1
 800cca2:	429d      	cmp	r5, r3
 800cca4:	f101 0101 	add.w	r1, r1, #1
 800cca8:	dcfa      	bgt.n	800cca0 <__lshift+0x20>
 800ccaa:	4638      	mov	r0, r7
 800ccac:	f7ff fe18 	bl	800c8e0 <_Balloc>
 800ccb0:	2c00      	cmp	r4, #0
 800ccb2:	f100 0314 	add.w	r3, r0, #20
 800ccb6:	dd37      	ble.n	800cd28 <__lshift+0xa8>
 800ccb8:	eb03 0184 	add.w	r1, r3, r4, lsl #2
 800ccbc:	2200      	movs	r2, #0
 800ccbe:	f843 2b04 	str.w	r2, [r3], #4
 800ccc2:	428b      	cmp	r3, r1
 800ccc4:	d1fb      	bne.n	800ccbe <__lshift+0x3e>
 800ccc6:	6934      	ldr	r4, [r6, #16]
 800ccc8:	f106 0314 	add.w	r3, r6, #20
 800cccc:	f019 091f 	ands.w	r9, r9, #31
 800ccd0:	eb03 0c84 	add.w	ip, r3, r4, lsl #2
 800ccd4:	d020      	beq.n	800cd18 <__lshift+0x98>
 800ccd6:	f1c9 0e20 	rsb	lr, r9, #32
 800ccda:	2200      	movs	r2, #0
 800ccdc:	e000      	b.n	800cce0 <__lshift+0x60>
 800ccde:	4651      	mov	r1, sl
 800cce0:	681c      	ldr	r4, [r3, #0]
 800cce2:	468a      	mov	sl, r1
 800cce4:	fa04 f409 	lsl.w	r4, r4, r9
 800cce8:	4314      	orrs	r4, r2
 800ccea:	f84a 4b04 	str.w	r4, [sl], #4
 800ccee:	f853 2b04 	ldr.w	r2, [r3], #4
 800ccf2:	4563      	cmp	r3, ip
 800ccf4:	fa22 f20e 	lsr.w	r2, r2, lr
 800ccf8:	d3f1      	bcc.n	800ccde <__lshift+0x5e>
 800ccfa:	604a      	str	r2, [r1, #4]
 800ccfc:	b10a      	cbz	r2, 800cd02 <__lshift+0x82>
 800ccfe:	f108 0502 	add.w	r5, r8, #2
 800cd02:	6cfb      	ldr	r3, [r7, #76]	; 0x4c
 800cd04:	6872      	ldr	r2, [r6, #4]
 800cd06:	3d01      	subs	r5, #1
 800cd08:	f853 1022 	ldr.w	r1, [r3, r2, lsl #2]
 800cd0c:	6105      	str	r5, [r0, #16]
 800cd0e:	6031      	str	r1, [r6, #0]
 800cd10:	f843 6022 	str.w	r6, [r3, r2, lsl #2]
 800cd14:	e8bd 87f0 	ldmia.w	sp!, {r4, r5, r6, r7, r8, r9, sl, pc}
 800cd18:	3904      	subs	r1, #4
 800cd1a:	f853 2b04 	ldr.w	r2, [r3], #4
 800cd1e:	f841 2f04 	str.w	r2, [r1, #4]!
 800cd22:	459c      	cmp	ip, r3
 800cd24:	d8f9      	bhi.n	800cd1a <__lshift+0x9a>
 800cd26:	e7ec      	b.n	800cd02 <__lshift+0x82>
 800cd28:	4619      	mov	r1, r3
 800cd2a:	e7cc      	b.n	800ccc6 <__lshift+0x46>
 800cd2c:	0000      	movs	r0, r0
	...

0800cd30 <__mcmp>:
 800cd30:	b430      	push	{r4, r5}
 800cd32:	690b      	ldr	r3, [r1, #16]
 800cd34:	4605      	mov	r5, r0
 800cd36:	6900      	ldr	r0, [r0, #16]
 800cd38:	1ac0      	subs	r0, r0, r3
 800cd3a:	d10f      	bne.n	800cd5c <__mcmp+0x2c>
 800cd3c:	009b      	lsls	r3, r3, #2
 800cd3e:	3514      	adds	r5, #20
 800cd40:	3114      	adds	r1, #20
 800cd42:	4419      	add	r1, r3
 800cd44:	442b      	add	r3, r5
 800cd46:	e001      	b.n	800cd4c <__mcmp+0x1c>
 800cd48:	429d      	cmp	r5, r3
 800cd4a:	d207      	bcs.n	800cd5c <__mcmp+0x2c>
 800cd4c:	f853 4d04 	ldr.w	r4, [r3, #-4]!
 800cd50:	f851 2d04 	ldr.w	r2, [r1, #-4]!
 800cd54:	4294      	cmp	r4, r2
 800cd56:	d0f7      	beq.n	800cd48 <__mcmp+0x18>
 800cd58:	d302      	bcc.n	800cd60 <__mcmp+0x30>
 800cd5a:	2001      	movs	r0, #1
 800cd5c:	bc30      	pop	{r4, r5}
 800cd5e:	4770      	bx	lr
 800cd60:	f04f 30ff 	mov.w	r0, #4294967295
 800cd64:	e7fa      	b.n	800cd5c <__mcmp+0x2c>
 800cd66:	bf00      	nop
	...

0800cd70 <__mdiff>:
 800cd70:	e92d 41f0 	stmdb	sp!, {r4, r5, r6, r7, r8, lr}
 800cd74:	6913      	ldr	r3, [r2, #16]
 800cd76:	690d      	ldr	r5, [r1, #16]
 800cd78:	1aed      	subs	r5, r5, r3
 800cd7a:	2d00      	cmp	r5, #0
 800cd7c:	460e      	mov	r6, r1
 800cd7e:	4690      	mov	r8, r2
 800cd80:	f101 0414 	add.w	r4, r1, #20
 800cd84:	f102 0714 	add.w	r7, r2, #20
 800cd88:	d114      	bne.n	800cdb4 <__mdiff+0x44>
 800cd8a:	009b      	lsls	r3, r3, #2
 800cd8c:	18e2      	adds	r2, r4, r3
 800cd8e:	443b      	add	r3, r7
 800cd90:	e001      	b.n	800cd96 <__mdiff+0x26>
 800cd92:	42a2      	cmp	r2, r4
 800cd94:	d959      	bls.n	800ce4a <__mdiff+0xda>
 800cd96:	f852 cd04 	ldr.w	ip, [r2, #-4]!
 800cd9a:	f853 1d04 	ldr.w	r1, [r3, #-4]!
 800cd9e:	458c      	cmp	ip, r1
 800cda0:	d0f7      	beq.n	800cd92 <__mdiff+0x22>
 800cda2:	d209      	bcs.n	800cdb8 <__mdiff+0x48>
 800cda4:	4622      	mov	r2, r4
 800cda6:	4633      	mov	r3, r6
 800cda8:	463c      	mov	r4, r7
 800cdaa:	4646      	mov	r6, r8
 800cdac:	4617      	mov	r7, r2
 800cdae:	4698      	mov	r8, r3
 800cdb0:	2501      	movs	r5, #1
 800cdb2:	e001      	b.n	800cdb8 <__mdiff+0x48>
 800cdb4:	dbf6      	blt.n	800cda4 <__mdiff+0x34>
 800cdb6:	2500      	movs	r5, #0
 800cdb8:	6871      	ldr	r1, [r6, #4]
 800cdba:	f7ff fd91 	bl	800c8e0 <_Balloc>
 800cdbe:	f8d8 3010 	ldr.w	r3, [r8, #16]
 800cdc2:	6936      	ldr	r6, [r6, #16]
 800cdc4:	60c5      	str	r5, [r0, #12]
 800cdc6:	eb07 0e83 	add.w	lr, r7, r3, lsl #2
 800cdca:	46bc      	mov	ip, r7
 800cdcc:	f100 0514 	add.w	r5, r0, #20
 800cdd0:	eb04 0786 	add.w	r7, r4, r6, lsl #2
 800cdd4:	2300      	movs	r3, #0
 800cdd6:	f85c 1b04 	ldr.w	r1, [ip], #4
 800cdda:	f854 8b04 	ldr.w	r8, [r4], #4
 800cdde:	b28a      	uxth	r2, r1
 800cde0:	fa13 f388 	uxtah	r3, r3, r8
 800cde4:	0c09      	lsrs	r1, r1, #16
 800cde6:	1a9a      	subs	r2, r3, r2
 800cde8:	ebc1 4318 	rsb	r3, r1, r8, lsr #16
 800cdec:	eb03 4322 	add.w	r3, r3, r2, asr #16
 800cdf0:	b292      	uxth	r2, r2
 800cdf2:	ea42 4203 	orr.w	r2, r2, r3, lsl #16
 800cdf6:	45e6      	cmp	lr, ip
 800cdf8:	f845 2b04 	str.w	r2, [r5], #4
 800cdfc:	ea4f 4323 	mov.w	r3, r3, asr #16
 800ce00:	d8e9      	bhi.n	800cdd6 <__mdiff+0x66>
 800ce02:	42a7      	cmp	r7, r4
 800ce04:	d917      	bls.n	800ce36 <__mdiff+0xc6>
 800ce06:	46ae      	mov	lr, r5
 800ce08:	46a4      	mov	ip, r4
 800ce0a:	f85c 2b04 	ldr.w	r2, [ip], #4
 800ce0e:	fa13 f382 	uxtah	r3, r3, r2
 800ce12:	1419      	asrs	r1, r3, #16
 800ce14:	eb01 4112 	add.w	r1, r1, r2, lsr #16
 800ce18:	b29b      	uxth	r3, r3
 800ce1a:	ea43 4201 	orr.w	r2, r3, r1, lsl #16
 800ce1e:	4567      	cmp	r7, ip
 800ce20:	f84e 2b04 	str.w	r2, [lr], #4
 800ce24:	ea4f 4321 	mov.w	r3, r1, asr #16
 800ce28:	d8ef      	bhi.n	800ce0a <__mdiff+0x9a>
 800ce2a:	43e4      	mvns	r4, r4
 800ce2c:	4427      	add	r7, r4
 800ce2e:	f027 0703 	bic.w	r7, r7, #3
 800ce32:	3704      	adds	r7, #4
 800ce34:	443d      	add	r5, r7
 800ce36:	3d04      	subs	r5, #4
 800ce38:	b922      	cbnz	r2, 800ce44 <__mdiff+0xd4>
 800ce3a:	f855 3d04 	ldr.w	r3, [r5, #-4]!
 800ce3e:	3e01      	subs	r6, #1
 800ce40:	2b00      	cmp	r3, #0
 800ce42:	d0fa      	beq.n	800ce3a <__mdiff+0xca>
 800ce44:	6106      	str	r6, [r0, #16]
 800ce46:	e8bd 81f0 	ldmia.w	sp!, {r4, r5, r6, r7, r8, pc}
 800ce4a:	2100      	movs	r1, #0
 800ce4c:	f7ff fd48 	bl	800c8e0 <_Balloc>
 800ce50:	2201      	movs	r2, #1
 800ce52:	2300      	movs	r3, #0
 800ce54:	e9c0 2304 	strd	r2, r3, [r0, #16]
 800ce58:	e8bd 81f0 	ldmia.w	sp!, {r4, r5, r6, r7, r8, pc}
 800ce5c:	0000      	movs	r0, r0
	...

0800ce60 <__d2b>:
 800ce60:	e92d 43f0 	stmdb	sp!, {r4, r5, r6, r7, r8, r9, lr}
 800ce64:	460f      	mov	r7, r1
 800ce66:	b083      	sub	sp, #12
 800ce68:	2101      	movs	r1, #1
 800ce6a:	ec55 4b10 	vmov	r4, r5, d0
 800ce6e:	4616      	mov	r6, r2
 800ce70:	f7ff fd36 	bl	800c8e0 <_Balloc>
 800ce74:	f3c5 580a 	ubfx	r8, r5, #20, #11
 800ce78:	4681      	mov	r9, r0
 800ce7a:	f3c5 0313 	ubfx	r3, r5, #0, #20
 800ce7e:	f1b8 0f00 	cmp.w	r8, #0
 800ce82:	d001      	beq.n	800ce88 <__d2b+0x28>
 800ce84:	f443 1380 	orr.w	r3, r3, #1048576	; 0x100000
 800ce88:	2c00      	cmp	r4, #0
 800ce8a:	9301      	str	r3, [sp, #4]
 800ce8c:	d024      	beq.n	800ced8 <__d2b+0x78>
 800ce8e:	a802      	add	r0, sp, #8
 800ce90:	f840 4d08 	str.w	r4, [r0, #-8]!
 800ce94:	f7ff fdbc 	bl	800ca10 <__lo0bits>
 800ce98:	2800      	cmp	r0, #0
 800ce9a:	d136      	bne.n	800cf0a <__d2b+0xaa>
 800ce9c:	e9dd 2300 	ldrd	r2, r3, [sp]
 800cea0:	f8c9 2014 	str.w	r2, [r9, #20]
 800cea4:	2b00      	cmp	r3, #0
 800cea6:	bf0c      	ite	eq
 800cea8:	2101      	moveq	r1, #1
 800ceaa:	2102      	movne	r1, #2
 800ceac:	f8c9 3018 	str.w	r3, [r9, #24]
 800ceb0:	f8c9 1010 	str.w	r1, [r9, #16]
 800ceb4:	f1b8 0f00 	cmp.w	r8, #0
 800ceb8:	d11b      	bne.n	800cef2 <__d2b+0x92>
 800ceba:	eb09 0381 	add.w	r3, r9, r1, lsl #2
 800cebe:	f2a0 4032 	subw	r0, r0, #1074	; 0x432
 800cec2:	6038      	str	r0, [r7, #0]
 800cec4:	6918      	ldr	r0, [r3, #16]
 800cec6:	f7ff fd83 	bl	800c9d0 <__hi0bits>
 800ceca:	ebc0 1041 	rsb	r0, r0, r1, lsl #5
 800cece:	6030      	str	r0, [r6, #0]
 800ced0:	4648      	mov	r0, r9
 800ced2:	b003      	add	sp, #12
 800ced4:	e8bd 83f0 	ldmia.w	sp!, {r4, r5, r6, r7, r8, r9, pc}
 800ced8:	a801      	add	r0, sp, #4
 800ceda:	f7ff fd99 	bl	800ca10 <__lo0bits>
 800cede:	9b01      	ldr	r3, [sp, #4]
 800cee0:	f8c9 3014 	str.w	r3, [r9, #20]
 800cee4:	2101      	movs	r1, #1
 800cee6:	3020      	adds	r0, #32
 800cee8:	f8c9 1010 	str.w	r1, [r9, #16]
 800ceec:	f1b8 0f00 	cmp.w	r8, #0
 800cef0:	d0e3      	beq.n	800ceba <__d2b+0x5a>
 800cef2:	f2a8 4833 	subw	r8, r8, #1075	; 0x433
 800cef6:	eb08 0300 	add.w	r3, r8, r0
 800cefa:	f1c0 0035 	rsb	r0, r0, #53	; 0x35
 800cefe:	603b      	str	r3, [r7, #0]
 800cf00:	6030      	str	r0, [r6, #0]
 800cf02:	4648      	mov	r0, r9
 800cf04:	b003      	add	sp, #12
 800cf06:	e8bd 83f0 	ldmia.w	sp!, {r4, r5, r6, r7, r8, r9, pc}
 800cf0a:	e9dd 1300 	ldrd	r1, r3, [sp]
 800cf0e:	f1c0 0220 	rsb	r2, r0, #32
 800cf12:	fa03 f202 	lsl.w	r2, r3, r2
 800cf16:	430a      	orrs	r2, r1
 800cf18:	40c3      	lsrs	r3, r0
 800cf1a:	9301      	str	r3, [sp, #4]
 800cf1c:	f8c9 2014 	str.w	r2, [r9, #20]
 800cf20:	e7c0      	b.n	800cea4 <__d2b+0x44>
 800cf22:	bf00      	nop
	...

0800cf30 <__ssprint_r>:
 800cf30:	e92d 4ff0 	stmdb	sp!, {r4, r5, r6, r7, r8, r9, sl, fp, lr}
 800cf34:	6893      	ldr	r3, [r2, #8]
 800cf36:	b083      	sub	sp, #12
 800cf38:	4690      	mov	r8, r2
 800cf3a:	2b00      	cmp	r3, #0
 800cf3c:	d06c      	beq.n	800d018 <__ssprint_r+0xe8>
 800cf3e:	6817      	ldr	r7, [r2, #0]
 800cf40:	688d      	ldr	r5, [r1, #8]
 800cf42:	4682      	mov	sl, r0
 800cf44:	460c      	mov	r4, r1
 800cf46:	6808      	ldr	r0, [r1, #0]
 800cf48:	3708      	adds	r7, #8
 800cf4a:	e042      	b.n	800cfd2 <__ssprint_r+0xa2>
 800cf4c:	89a3      	ldrh	r3, [r4, #12]
 800cf4e:	f413 6f90 	tst.w	r3, #1152	; 0x480
 800cf52:	d02d      	beq.n	800cfb0 <__ssprint_r+0x80>
 800cf54:	e9d4 1504 	ldrd	r1, r5, [r4, #16]
 800cf58:	eb05 0545 	add.w	r5, r5, r5, lsl #1
 800cf5c:	eba0 0b01 	sub.w	fp, r0, r1
 800cf60:	eb05 75d5 	add.w	r5, r5, r5, lsr #31
 800cf64:	1c70      	adds	r0, r6, #1
 800cf66:	106d      	asrs	r5, r5, #1
 800cf68:	4458      	add	r0, fp
 800cf6a:	42a8      	cmp	r0, r5
 800cf6c:	462a      	mov	r2, r5
 800cf6e:	bf84      	itt	hi
 800cf70:	4605      	movhi	r5, r0
 800cf72:	462a      	movhi	r2, r5
 800cf74:	055b      	lsls	r3, r3, #21
 800cf76:	d536      	bpl.n	800cfe6 <__ssprint_r+0xb6>
 800cf78:	4611      	mov	r1, r2
 800cf7a:	4650      	mov	r0, sl
 800cf7c:	f7fc fde0 	bl	8009b40 <_malloc_r>
 800cf80:	2800      	cmp	r0, #0
 800cf82:	d03a      	beq.n	800cffa <__ssprint_r+0xca>
 800cf84:	465a      	mov	r2, fp
 800cf86:	6921      	ldr	r1, [r4, #16]
 800cf88:	9001      	str	r0, [sp, #4]
 800cf8a:	f7f3 ffc9 	bl	8000f20 <memcpy>
 800cf8e:	89a2      	ldrh	r2, [r4, #12]
 800cf90:	9b01      	ldr	r3, [sp, #4]
 800cf92:	f422 6290 	bic.w	r2, r2, #1152	; 0x480
 800cf96:	f042 0280 	orr.w	r2, r2, #128	; 0x80
 800cf9a:	81a2      	strh	r2, [r4, #12]
 800cf9c:	eba5 020b 	sub.w	r2, r5, fp
 800cfa0:	eb03 000b 	add.w	r0, r3, fp
 800cfa4:	6165      	str	r5, [r4, #20]
 800cfa6:	6123      	str	r3, [r4, #16]
 800cfa8:	6020      	str	r0, [r4, #0]
 800cfaa:	60a2      	str	r2, [r4, #8]
 800cfac:	4635      	mov	r5, r6
 800cfae:	46b3      	mov	fp, r6
 800cfb0:	465a      	mov	r2, fp
 800cfb2:	4649      	mov	r1, r9
 800cfb4:	f000 f874 	bl	800d0a0 <memmove>
 800cfb8:	f8d8 3008 	ldr.w	r3, [r8, #8]
 800cfbc:	68a2      	ldr	r2, [r4, #8]
 800cfbe:	6820      	ldr	r0, [r4, #0]
 800cfc0:	1b55      	subs	r5, r2, r5
 800cfc2:	4458      	add	r0, fp
 800cfc4:	1b9e      	subs	r6, r3, r6
 800cfc6:	60a5      	str	r5, [r4, #8]
 800cfc8:	6020      	str	r0, [r4, #0]
 800cfca:	f8c8 6008 	str.w	r6, [r8, #8]
 800cfce:	b31e      	cbz	r6, 800d018 <__ssprint_r+0xe8>
 800cfd0:	3708      	adds	r7, #8
 800cfd2:	e957 9602 	ldrd	r9, r6, [r7, #-8]
 800cfd6:	46ab      	mov	fp, r5
 800cfd8:	2e00      	cmp	r6, #0
 800cfda:	d0f9      	beq.n	800cfd0 <__ssprint_r+0xa0>
 800cfdc:	42ae      	cmp	r6, r5
 800cfde:	d2b5      	bcs.n	800cf4c <__ssprint_r+0x1c>
 800cfe0:	4635      	mov	r5, r6
 800cfe2:	46b3      	mov	fp, r6
 800cfe4:	e7e4      	b.n	800cfb0 <__ssprint_r+0x80>
 800cfe6:	4650      	mov	r0, sl
 800cfe8:	f000 f8c2 	bl	800d170 <_realloc_r>
 800cfec:	4603      	mov	r3, r0
 800cfee:	2800      	cmp	r0, #0
 800cff0:	d1d4      	bne.n	800cf9c <__ssprint_r+0x6c>
 800cff2:	6921      	ldr	r1, [r4, #16]
 800cff4:	4650      	mov	r0, sl
 800cff6:	f7ff fb6b 	bl	800c6d0 <_free_r>
 800cffa:	230c      	movs	r3, #12
 800cffc:	f8ca 3000 	str.w	r3, [sl]
 800d000:	89a3      	ldrh	r3, [r4, #12]
 800d002:	2200      	movs	r2, #0
 800d004:	f043 0340 	orr.w	r3, r3, #64	; 0x40
 800d008:	f04f 30ff 	mov.w	r0, #4294967295
 800d00c:	81a3      	strh	r3, [r4, #12]
 800d00e:	e9c8 2201 	strd	r2, r2, [r8, #4]
 800d012:	b003      	add	sp, #12
 800d014:	e8bd 8ff0 	ldmia.w	sp!, {r4, r5, r6, r7, r8, r9, sl, fp, pc}
 800d018:	2000      	movs	r0, #0
 800d01a:	f8c8 0004 	str.w	r0, [r8, #4]
 800d01e:	b003      	add	sp, #12
 800d020:	e8bd 8ff0 	ldmia.w	sp!, {r4, r5, r6, r7, r8, r9, sl, fp, pc}
	...

0800d030 <_calloc_r>:
 800d030:	b510      	push	{r4, lr}
 800d032:	fb02 f101 	mul.w	r1, r2, r1
 800d036:	f7fc fd83 	bl	8009b40 <_malloc_r>
 800d03a:	4604      	mov	r4, r0
 800d03c:	b1d8      	cbz	r0, 800d076 <_calloc_r+0x46>
 800d03e:	f850 2c04 	ldr.w	r2, [r0, #-4]
 800d042:	f022 0203 	bic.w	r2, r2, #3
 800d046:	3a04      	subs	r2, #4
 800d048:	2a24      	cmp	r2, #36	; 0x24
 800d04a:	d81d      	bhi.n	800d088 <_calloc_r+0x58>
 800d04c:	2a13      	cmp	r2, #19
 800d04e:	d914      	bls.n	800d07a <_calloc_r+0x4a>
 800d050:	2300      	movs	r3, #0
 800d052:	2a1b      	cmp	r2, #27
 800d054:	e9c0 3300 	strd	r3, r3, [r0]
 800d058:	d91b      	bls.n	800d092 <_calloc_r+0x62>
 800d05a:	2a24      	cmp	r2, #36	; 0x24
 800d05c:	e9c0 3302 	strd	r3, r3, [r0, #8]
 800d060:	bf0a      	itet	eq
 800d062:	e9c0 3304 	strdeq	r3, r3, [r0, #16]
 800d066:	f100 0210 	addne.w	r2, r0, #16
 800d06a:	f100 0218 	addeq.w	r2, r0, #24
 800d06e:	2300      	movs	r3, #0
 800d070:	e9c2 3300 	strd	r3, r3, [r2]
 800d074:	6093      	str	r3, [r2, #8]
 800d076:	4620      	mov	r0, r4
 800d078:	bd10      	pop	{r4, pc}
 800d07a:	4602      	mov	r2, r0
 800d07c:	2300      	movs	r3, #0
 800d07e:	e9c2 3300 	strd	r3, r3, [r2]
 800d082:	6093      	str	r3, [r2, #8]
 800d084:	4620      	mov	r0, r4
 800d086:	bd10      	pop	{r4, pc}
 800d088:	2100      	movs	r1, #0
 800d08a:	f7fd f819 	bl	800a0c0 <memset>
 800d08e:	4620      	mov	r0, r4
 800d090:	bd10      	pop	{r4, pc}
 800d092:	f100 0208 	add.w	r2, r0, #8
 800d096:	e7f1      	b.n	800d07c <_calloc_r+0x4c>
	...

0800d0a0 <memmove>:
 800d0a0:	4288      	cmp	r0, r1
 800d0a2:	b4f0      	push	{r4, r5, r6, r7}
 800d0a4:	d90d      	bls.n	800d0c2 <memmove+0x22>
 800d0a6:	188b      	adds	r3, r1, r2
 800d0a8:	4283      	cmp	r3, r0
 800d0aa:	d90a      	bls.n	800d0c2 <memmove+0x22>
 800d0ac:	1884      	adds	r4, r0, r2
 800d0ae:	b132      	cbz	r2, 800d0be <memmove+0x1e>
 800d0b0:	4622      	mov	r2, r4
 800d0b2:	f813 4d01 	ldrb.w	r4, [r3, #-1]!
 800d0b6:	f802 4d01 	strb.w	r4, [r2, #-1]!
 800d0ba:	4299      	cmp	r1, r3
 800d0bc:	d1f9      	bne.n	800d0b2 <memmove+0x12>
 800d0be:	bcf0      	pop	{r4, r5, r6, r7}
 800d0c0:	4770      	bx	lr
 800d0c2:	2a0f      	cmp	r2, #15
 800d0c4:	d949      	bls.n	800d15a <memmove+0xba>
 800d0c6:	ea40 0301 	orr.w	r3, r0, r1
 800d0ca:	079b      	lsls	r3, r3, #30
 800d0cc:	d147      	bne.n	800d15e <memmove+0xbe>
 800d0ce:	f1a2 0310 	sub.w	r3, r2, #16
 800d0d2:	091b      	lsrs	r3, r3, #4
 800d0d4:	f101 0720 	add.w	r7, r1, #32
 800d0d8:	eb07 1703 	add.w	r7, r7, r3, lsl #4
 800d0dc:	f101 0410 	add.w	r4, r1, #16
 800d0e0:	f100 0510 	add.w	r5, r0, #16
 800d0e4:	f854 6c10 	ldr.w	r6, [r4, #-16]
 800d0e8:	f845 6c10 	str.w	r6, [r5, #-16]
 800d0ec:	f854 6c0c 	ldr.w	r6, [r4, #-12]
 800d0f0:	f845 6c0c 	str.w	r6, [r5, #-12]
 800d0f4:	f854 6c08 	ldr.w	r6, [r4, #-8]
 800d0f8:	f845 6c08 	str.w	r6, [r5, #-8]
 800d0fc:	f854 6c04 	ldr.w	r6, [r4, #-4]
 800d100:	f845 6c04 	str.w	r6, [r5, #-4]
 800d104:	3410      	adds	r4, #16
 800d106:	42bc      	cmp	r4, r7
 800d108:	f105 0510 	add.w	r5, r5, #16
 800d10c:	d1ea      	bne.n	800d0e4 <memmove+0x44>
 800d10e:	3301      	adds	r3, #1
 800d110:	f002 050f 	and.w	r5, r2, #15
 800d114:	011b      	lsls	r3, r3, #4
 800d116:	2d03      	cmp	r5, #3
 800d118:	4419      	add	r1, r3
 800d11a:	4403      	add	r3, r0
 800d11c:	d921      	bls.n	800d162 <memmove+0xc2>
 800d11e:	1f1f      	subs	r7, r3, #4
 800d120:	460e      	mov	r6, r1
 800d122:	462c      	mov	r4, r5
 800d124:	3c04      	subs	r4, #4
 800d126:	f856 cb04 	ldr.w	ip, [r6], #4
 800d12a:	f847 cf04 	str.w	ip, [r7, #4]!
 800d12e:	2c03      	cmp	r4, #3
 800d130:	d8f8      	bhi.n	800d124 <memmove+0x84>
 800d132:	1f2c      	subs	r4, r5, #4
 800d134:	f024 0403 	bic.w	r4, r4, #3
 800d138:	3404      	adds	r4, #4
 800d13a:	4423      	add	r3, r4
 800d13c:	4421      	add	r1, r4
 800d13e:	f002 0203 	and.w	r2, r2, #3
 800d142:	2a00      	cmp	r2, #0
 800d144:	d0bb      	beq.n	800d0be <memmove+0x1e>
 800d146:	3b01      	subs	r3, #1
 800d148:	440a      	add	r2, r1
 800d14a:	f811 4b01 	ldrb.w	r4, [r1], #1
 800d14e:	f803 4f01 	strb.w	r4, [r3, #1]!
 800d152:	4291      	cmp	r1, r2
 800d154:	d1f9      	bne.n	800d14a <memmove+0xaa>
 800d156:	bcf0      	pop	{r4, r5, r6, r7}
 800d158:	4770      	bx	lr
 800d15a:	4603      	mov	r3, r0
 800d15c:	e7f1      	b.n	800d142 <memmove+0xa2>
 800d15e:	4603      	mov	r3, r0
 800d160:	e7f1      	b.n	800d146 <memmove+0xa6>
 800d162:	462a      	mov	r2, r5
 800d164:	e7ed      	b.n	800d142 <memmove+0xa2>
 800d166:	bf00      	nop
	...

0800d170 <_realloc_r>:
 800d170:	e92d 4ff0 	stmdb	sp!, {r4, r5, r6, r7, r8, r9, sl, fp, lr}
 800d174:	4692      	mov	sl, r2
 800d176:	b083      	sub	sp, #12
 800d178:	2900      	cmp	r1, #0
 800d17a:	f000 80a1 	beq.w	800d2c0 <_realloc_r+0x150>
 800d17e:	460d      	mov	r5, r1
 800d180:	4680      	mov	r8, r0
 800d182:	f10a 040b 	add.w	r4, sl, #11
 800d186:	f7f5 fb0b 	bl	80027a0 <__malloc_lock>
 800d18a:	f855 2c04 	ldr.w	r2, [r5, #-4]
 800d18e:	2c16      	cmp	r4, #22
 800d190:	f022 0603 	bic.w	r6, r2, #3
 800d194:	f1a5 0708 	sub.w	r7, r5, #8
 800d198:	d83e      	bhi.n	800d218 <_realloc_r+0xa8>
 800d19a:	2410      	movs	r4, #16
 800d19c:	4621      	mov	r1, r4
 800d19e:	45a2      	cmp	sl, r4
 800d1a0:	d83f      	bhi.n	800d222 <_realloc_r+0xb2>
 800d1a2:	428e      	cmp	r6, r1
 800d1a4:	eb07 0906 	add.w	r9, r7, r6
 800d1a8:	da74      	bge.n	800d294 <_realloc_r+0x124>
 800d1aa:	4bc7      	ldr	r3, [pc, #796]	; (800d4c8 <_realloc_r+0x358>)
 800d1ac:	6898      	ldr	r0, [r3, #8]
 800d1ae:	4548      	cmp	r0, r9
 800d1b0:	f000 80aa 	beq.w	800d308 <_realloc_r+0x198>
 800d1b4:	f8d9 0004 	ldr.w	r0, [r9, #4]
 800d1b8:	f020 0301 	bic.w	r3, r0, #1
 800d1bc:	444b      	add	r3, r9
 800d1be:	685b      	ldr	r3, [r3, #4]
 800d1c0:	07db      	lsls	r3, r3, #31
 800d1c2:	f140 8083 	bpl.w	800d2cc <_realloc_r+0x15c>
 800d1c6:	07d2      	lsls	r2, r2, #31
 800d1c8:	d534      	bpl.n	800d234 <_realloc_r+0xc4>
 800d1ca:	4651      	mov	r1, sl
 800d1cc:	4640      	mov	r0, r8
 800d1ce:	f7fc fcb7 	bl	8009b40 <_malloc_r>
 800d1d2:	4682      	mov	sl, r0
 800d1d4:	b1e0      	cbz	r0, 800d210 <_realloc_r+0xa0>
 800d1d6:	f855 3c04 	ldr.w	r3, [r5, #-4]
 800d1da:	f023 0301 	bic.w	r3, r3, #1
 800d1de:	443b      	add	r3, r7
 800d1e0:	f1a0 0208 	sub.w	r2, r0, #8
 800d1e4:	4293      	cmp	r3, r2
 800d1e6:	f000 80f9 	beq.w	800d3dc <_realloc_r+0x26c>
 800d1ea:	1f32      	subs	r2, r6, #4
 800d1ec:	2a24      	cmp	r2, #36	; 0x24
 800d1ee:	f200 8107 	bhi.w	800d400 <_realloc_r+0x290>
 800d1f2:	2a13      	cmp	r2, #19
 800d1f4:	6829      	ldr	r1, [r5, #0]
 800d1f6:	f200 80e6 	bhi.w	800d3c6 <_realloc_r+0x256>
 800d1fa:	4603      	mov	r3, r0
 800d1fc:	462a      	mov	r2, r5
 800d1fe:	6019      	str	r1, [r3, #0]
 800d200:	6851      	ldr	r1, [r2, #4]
 800d202:	6059      	str	r1, [r3, #4]
 800d204:	6892      	ldr	r2, [r2, #8]
 800d206:	609a      	str	r2, [r3, #8]
 800d208:	4629      	mov	r1, r5
 800d20a:	4640      	mov	r0, r8
 800d20c:	f7ff fa60 	bl	800c6d0 <_free_r>
 800d210:	4640      	mov	r0, r8
 800d212:	f7f5 fadd 	bl	80027d0 <__malloc_unlock>
 800d216:	e04f      	b.n	800d2b8 <_realloc_r+0x148>
 800d218:	f024 0407 	bic.w	r4, r4, #7
 800d21c:	2c00      	cmp	r4, #0
 800d21e:	4621      	mov	r1, r4
 800d220:	dabd      	bge.n	800d19e <_realloc_r+0x2e>
 800d222:	f04f 0a00 	mov.w	sl, #0
 800d226:	230c      	movs	r3, #12
 800d228:	4650      	mov	r0, sl
 800d22a:	f8c8 3000 	str.w	r3, [r8]
 800d22e:	b003      	add	sp, #12
 800d230:	e8bd 8ff0 	ldmia.w	sp!, {r4, r5, r6, r7, r8, r9, sl, fp, pc}
 800d234:	f855 3c08 	ldr.w	r3, [r5, #-8]
 800d238:	eba7 0b03 	sub.w	fp, r7, r3
 800d23c:	f8db 2004 	ldr.w	r2, [fp, #4]
 800d240:	f022 0203 	bic.w	r2, r2, #3
 800d244:	18b3      	adds	r3, r6, r2
 800d246:	428b      	cmp	r3, r1
 800d248:	dbbf      	blt.n	800d1ca <_realloc_r+0x5a>
 800d24a:	46da      	mov	sl, fp
 800d24c:	f8db 100c 	ldr.w	r1, [fp, #12]
 800d250:	f85a 0f08 	ldr.w	r0, [sl, #8]!
 800d254:	1f32      	subs	r2, r6, #4
 800d256:	2a24      	cmp	r2, #36	; 0x24
 800d258:	60c1      	str	r1, [r0, #12]
 800d25a:	eb0b 0903 	add.w	r9, fp, r3
 800d25e:	6088      	str	r0, [r1, #8]
 800d260:	f200 80c6 	bhi.w	800d3f0 <_realloc_r+0x280>
 800d264:	2a13      	cmp	r2, #19
 800d266:	6829      	ldr	r1, [r5, #0]
 800d268:	f240 80c0 	bls.w	800d3ec <_realloc_r+0x27c>
 800d26c:	f8cb 1008 	str.w	r1, [fp, #8]
 800d270:	6869      	ldr	r1, [r5, #4]
 800d272:	f8cb 100c 	str.w	r1, [fp, #12]
 800d276:	2a1b      	cmp	r2, #27
 800d278:	68a9      	ldr	r1, [r5, #8]
 800d27a:	f200 80d8 	bhi.w	800d42e <_realloc_r+0x2be>
 800d27e:	f10b 0210 	add.w	r2, fp, #16
 800d282:	3508      	adds	r5, #8
 800d284:	6011      	str	r1, [r2, #0]
 800d286:	6869      	ldr	r1, [r5, #4]
 800d288:	6051      	str	r1, [r2, #4]
 800d28a:	68a9      	ldr	r1, [r5, #8]
 800d28c:	6091      	str	r1, [r2, #8]
 800d28e:	461e      	mov	r6, r3
 800d290:	465f      	mov	r7, fp
 800d292:	4655      	mov	r5, sl
 800d294:	687b      	ldr	r3, [r7, #4]
 800d296:	1b32      	subs	r2, r6, r4
 800d298:	2a0f      	cmp	r2, #15
 800d29a:	f003 0301 	and.w	r3, r3, #1
 800d29e:	d822      	bhi.n	800d2e6 <_realloc_r+0x176>
 800d2a0:	4333      	orrs	r3, r6
 800d2a2:	607b      	str	r3, [r7, #4]
 800d2a4:	f8d9 3004 	ldr.w	r3, [r9, #4]
 800d2a8:	f043 0301 	orr.w	r3, r3, #1
 800d2ac:	f8c9 3004 	str.w	r3, [r9, #4]
 800d2b0:	4640      	mov	r0, r8
 800d2b2:	f7f5 fa8d 	bl	80027d0 <__malloc_unlock>
 800d2b6:	46aa      	mov	sl, r5
 800d2b8:	4650      	mov	r0, sl
 800d2ba:	b003      	add	sp, #12
 800d2bc:	e8bd 8ff0 	ldmia.w	sp!, {r4, r5, r6, r7, r8, r9, sl, fp, pc}
 800d2c0:	4611      	mov	r1, r2
 800d2c2:	b003      	add	sp, #12
 800d2c4:	e8bd 4ff0 	ldmia.w	sp!, {r4, r5, r6, r7, r8, r9, sl, fp, lr}
 800d2c8:	f7fc bc3a 	b.w	8009b40 <_malloc_r>
 800d2cc:	f020 0003 	bic.w	r0, r0, #3
 800d2d0:	1833      	adds	r3, r6, r0
 800d2d2:	428b      	cmp	r3, r1
 800d2d4:	db61      	blt.n	800d39a <_realloc_r+0x22a>
 800d2d6:	e9d9 1202 	ldrd	r1, r2, [r9, #8]
 800d2da:	461e      	mov	r6, r3
 800d2dc:	60ca      	str	r2, [r1, #12]
 800d2de:	eb07 0903 	add.w	r9, r7, r3
 800d2e2:	6091      	str	r1, [r2, #8]
 800d2e4:	e7d6      	b.n	800d294 <_realloc_r+0x124>
 800d2e6:	1939      	adds	r1, r7, r4
 800d2e8:	4323      	orrs	r3, r4
 800d2ea:	f042 0201 	orr.w	r2, r2, #1
 800d2ee:	607b      	str	r3, [r7, #4]
 800d2f0:	604a      	str	r2, [r1, #4]
 800d2f2:	f8d9 3004 	ldr.w	r3, [r9, #4]
 800d2f6:	f043 0301 	orr.w	r3, r3, #1
 800d2fa:	3108      	adds	r1, #8
 800d2fc:	f8c9 3004 	str.w	r3, [r9, #4]
 800d300:	4640      	mov	r0, r8
 800d302:	f7ff f9e5 	bl	800c6d0 <_free_r>
 800d306:	e7d3      	b.n	800d2b0 <_realloc_r+0x140>
 800d308:	6840      	ldr	r0, [r0, #4]
 800d30a:	f020 0903 	bic.w	r9, r0, #3
 800d30e:	44b1      	add	r9, r6
 800d310:	f104 0010 	add.w	r0, r4, #16
 800d314:	4581      	cmp	r9, r0
 800d316:	da77      	bge.n	800d408 <_realloc_r+0x298>
 800d318:	07d2      	lsls	r2, r2, #31
 800d31a:	f53f af56 	bmi.w	800d1ca <_realloc_r+0x5a>
 800d31e:	f855 2c08 	ldr.w	r2, [r5, #-8]
 800d322:	eba7 0b02 	sub.w	fp, r7, r2
 800d326:	f8db 2004 	ldr.w	r2, [fp, #4]
 800d32a:	f022 0203 	bic.w	r2, r2, #3
 800d32e:	4491      	add	r9, r2
 800d330:	4548      	cmp	r0, r9
 800d332:	dc87      	bgt.n	800d244 <_realloc_r+0xd4>
 800d334:	46da      	mov	sl, fp
 800d336:	f8db 100c 	ldr.w	r1, [fp, #12]
 800d33a:	f85a 0f08 	ldr.w	r0, [sl, #8]!
 800d33e:	1f32      	subs	r2, r6, #4
 800d340:	2a24      	cmp	r2, #36	; 0x24
 800d342:	60c1      	str	r1, [r0, #12]
 800d344:	6088      	str	r0, [r1, #8]
 800d346:	f200 80a1 	bhi.w	800d48c <_realloc_r+0x31c>
 800d34a:	2a13      	cmp	r2, #19
 800d34c:	6829      	ldr	r1, [r5, #0]
 800d34e:	f240 809b 	bls.w	800d488 <_realloc_r+0x318>
 800d352:	f8cb 1008 	str.w	r1, [fp, #8]
 800d356:	6869      	ldr	r1, [r5, #4]
 800d358:	f8cb 100c 	str.w	r1, [fp, #12]
 800d35c:	2a1b      	cmp	r2, #27
 800d35e:	68a9      	ldr	r1, [r5, #8]
 800d360:	f200 809b 	bhi.w	800d49a <_realloc_r+0x32a>
 800d364:	f10b 0210 	add.w	r2, fp, #16
 800d368:	3508      	adds	r5, #8
 800d36a:	6011      	str	r1, [r2, #0]
 800d36c:	6869      	ldr	r1, [r5, #4]
 800d36e:	6051      	str	r1, [r2, #4]
 800d370:	68a9      	ldr	r1, [r5, #8]
 800d372:	6091      	str	r1, [r2, #8]
 800d374:	eb0b 0104 	add.w	r1, fp, r4
 800d378:	eba9 0204 	sub.w	r2, r9, r4
 800d37c:	f042 0201 	orr.w	r2, r2, #1
 800d380:	6099      	str	r1, [r3, #8]
 800d382:	604a      	str	r2, [r1, #4]
 800d384:	f8db 3004 	ldr.w	r3, [fp, #4]
 800d388:	f003 0301 	and.w	r3, r3, #1
 800d38c:	431c      	orrs	r4, r3
 800d38e:	4640      	mov	r0, r8
 800d390:	f8cb 4004 	str.w	r4, [fp, #4]
 800d394:	f7f5 fa1c 	bl	80027d0 <__malloc_unlock>
 800d398:	e78e      	b.n	800d2b8 <_realloc_r+0x148>
 800d39a:	07d3      	lsls	r3, r2, #31
 800d39c:	f53f af15 	bmi.w	800d1ca <_realloc_r+0x5a>
 800d3a0:	f855 3c08 	ldr.w	r3, [r5, #-8]
 800d3a4:	eba7 0b03 	sub.w	fp, r7, r3
 800d3a8:	f8db 2004 	ldr.w	r2, [fp, #4]
 800d3ac:	f022 0203 	bic.w	r2, r2, #3
 800d3b0:	4410      	add	r0, r2
 800d3b2:	1983      	adds	r3, r0, r6
 800d3b4:	428b      	cmp	r3, r1
 800d3b6:	f6ff af45 	blt.w	800d244 <_realloc_r+0xd4>
 800d3ba:	e9d9 1202 	ldrd	r1, r2, [r9, #8]
 800d3be:	46da      	mov	sl, fp
 800d3c0:	60ca      	str	r2, [r1, #12]
 800d3c2:	6091      	str	r1, [r2, #8]
 800d3c4:	e742      	b.n	800d24c <_realloc_r+0xdc>
 800d3c6:	6001      	str	r1, [r0, #0]
 800d3c8:	686b      	ldr	r3, [r5, #4]
 800d3ca:	6043      	str	r3, [r0, #4]
 800d3cc:	2a1b      	cmp	r2, #27
 800d3ce:	d83a      	bhi.n	800d446 <_realloc_r+0x2d6>
 800d3d0:	f105 0208 	add.w	r2, r5, #8
 800d3d4:	f100 0308 	add.w	r3, r0, #8
 800d3d8:	68a9      	ldr	r1, [r5, #8]
 800d3da:	e710      	b.n	800d1fe <_realloc_r+0x8e>
 800d3dc:	f850 3c04 	ldr.w	r3, [r0, #-4]
 800d3e0:	f023 0303 	bic.w	r3, r3, #3
 800d3e4:	441e      	add	r6, r3
 800d3e6:	eb07 0906 	add.w	r9, r7, r6
 800d3ea:	e753      	b.n	800d294 <_realloc_r+0x124>
 800d3ec:	4652      	mov	r2, sl
 800d3ee:	e749      	b.n	800d284 <_realloc_r+0x114>
 800d3f0:	4629      	mov	r1, r5
 800d3f2:	4650      	mov	r0, sl
 800d3f4:	461e      	mov	r6, r3
 800d3f6:	465f      	mov	r7, fp
 800d3f8:	f7ff fe52 	bl	800d0a0 <memmove>
 800d3fc:	4655      	mov	r5, sl
 800d3fe:	e749      	b.n	800d294 <_realloc_r+0x124>
 800d400:	4629      	mov	r1, r5
 800d402:	f7ff fe4d 	bl	800d0a0 <memmove>
 800d406:	e6ff      	b.n	800d208 <_realloc_r+0x98>
 800d408:	4427      	add	r7, r4
 800d40a:	eba9 0904 	sub.w	r9, r9, r4
 800d40e:	f049 0201 	orr.w	r2, r9, #1
 800d412:	609f      	str	r7, [r3, #8]
 800d414:	607a      	str	r2, [r7, #4]
 800d416:	f855 3c04 	ldr.w	r3, [r5, #-4]
 800d41a:	f003 0301 	and.w	r3, r3, #1
 800d41e:	431c      	orrs	r4, r3
 800d420:	4640      	mov	r0, r8
 800d422:	f845 4c04 	str.w	r4, [r5, #-4]
 800d426:	f7f5 f9d3 	bl	80027d0 <__malloc_unlock>
 800d42a:	46aa      	mov	sl, r5
 800d42c:	e744      	b.n	800d2b8 <_realloc_r+0x148>
 800d42e:	f8cb 1010 	str.w	r1, [fp, #16]
 800d432:	68e9      	ldr	r1, [r5, #12]
 800d434:	f8cb 1014 	str.w	r1, [fp, #20]
 800d438:	2a24      	cmp	r2, #36	; 0x24
 800d43a:	d010      	beq.n	800d45e <_realloc_r+0x2ee>
 800d43c:	6929      	ldr	r1, [r5, #16]
 800d43e:	f10b 0218 	add.w	r2, fp, #24
 800d442:	3510      	adds	r5, #16
 800d444:	e71e      	b.n	800d284 <_realloc_r+0x114>
 800d446:	68ab      	ldr	r3, [r5, #8]
 800d448:	6083      	str	r3, [r0, #8]
 800d44a:	68eb      	ldr	r3, [r5, #12]
 800d44c:	60c3      	str	r3, [r0, #12]
 800d44e:	2a24      	cmp	r2, #36	; 0x24
 800d450:	d010      	beq.n	800d474 <_realloc_r+0x304>
 800d452:	f105 0210 	add.w	r2, r5, #16
 800d456:	f100 0310 	add.w	r3, r0, #16
 800d45a:	6929      	ldr	r1, [r5, #16]
 800d45c:	e6cf      	b.n	800d1fe <_realloc_r+0x8e>
 800d45e:	692a      	ldr	r2, [r5, #16]
 800d460:	f8cb 2018 	str.w	r2, [fp, #24]
 800d464:	696a      	ldr	r2, [r5, #20]
 800d466:	f8cb 201c 	str.w	r2, [fp, #28]
 800d46a:	69a9      	ldr	r1, [r5, #24]
 800d46c:	f10b 0220 	add.w	r2, fp, #32
 800d470:	3518      	adds	r5, #24
 800d472:	e707      	b.n	800d284 <_realloc_r+0x114>
 800d474:	692b      	ldr	r3, [r5, #16]
 800d476:	6103      	str	r3, [r0, #16]
 800d478:	696b      	ldr	r3, [r5, #20]
 800d47a:	6143      	str	r3, [r0, #20]
 800d47c:	69a9      	ldr	r1, [r5, #24]
 800d47e:	f105 0218 	add.w	r2, r5, #24
 800d482:	f100 0318 	add.w	r3, r0, #24
 800d486:	e6ba      	b.n	800d1fe <_realloc_r+0x8e>
 800d488:	4652      	mov	r2, sl
 800d48a:	e76e      	b.n	800d36a <_realloc_r+0x1fa>
 800d48c:	4629      	mov	r1, r5
 800d48e:	4650      	mov	r0, sl
 800d490:	9301      	str	r3, [sp, #4]
 800d492:	f7ff fe05 	bl	800d0a0 <memmove>
 800d496:	9b01      	ldr	r3, [sp, #4]
 800d498:	e76c      	b.n	800d374 <_realloc_r+0x204>
 800d49a:	f8cb 1010 	str.w	r1, [fp, #16]
 800d49e:	68e9      	ldr	r1, [r5, #12]
 800d4a0:	f8cb 1014 	str.w	r1, [fp, #20]
 800d4a4:	2a24      	cmp	r2, #36	; 0x24
 800d4a6:	d004      	beq.n	800d4b2 <_realloc_r+0x342>
 800d4a8:	6929      	ldr	r1, [r5, #16]
 800d4aa:	f10b 0218 	add.w	r2, fp, #24
 800d4ae:	3510      	adds	r5, #16
 800d4b0:	e75b      	b.n	800d36a <_realloc_r+0x1fa>
 800d4b2:	692a      	ldr	r2, [r5, #16]
 800d4b4:	f8cb 2018 	str.w	r2, [fp, #24]
 800d4b8:	696a      	ldr	r2, [r5, #20]
 800d4ba:	f8cb 201c 	str.w	r2, [fp, #28]
 800d4be:	69a9      	ldr	r1, [r5, #24]
 800d4c0:	f10b 0220 	add.w	r2, fp, #32
 800d4c4:	3518      	adds	r5, #24
 800d4c6:	e750      	b.n	800d36a <_realloc_r+0x1fa>
 800d4c8:	20000ddc 	.word	0x20000ddc
 800d4cc:	00000000 	.word	0x00000000
 800d4d0:	63617453 	.word	0x63617453
 800d4d4:	6d73206b 	.word	0x6d73206b
 800d4d8:	69687361 	.word	0x69687361
 800d4dc:	6420676e 	.word	0x6420676e
 800d4e0:	63657465 	.word	0x63657465
 800d4e4:	00646574 	.word	0x00646574
	...

0800d500 <__FUNCTION__.11918>:
 800d500:	6e696c62 64654c6b 00000000 00000000     blinkLed........

0800d510 <__func__.7153>:
 800d510:	79536863 6c6e5573 006b636f 00000000     chSysUnlock.....

0800d520 <i2c_cfg1.9862>:
 800d520:	00000001 00030d40 00000002 00000000     ....@...........
 800d530:	61766e49 2064696c 65636361 74207373     Invalid access t
 800d540:	7025206f 63702820 2970253d 00000000     o %p (pc=%p)....
 800d550:	706d754a 74206465 4e58206f 67657220     Jumped to XN reg
 800d560:	206e6f69 28207025 745f726c 253d6468     ion %p (lr_thd=%
 800d570:	00002970 4d6d654d 67616e61 61485f65     p)..MemManage_Ha
 800d580:	656c646e 00000072 00000000 00000000     ndler...........

0800d590 <__func__.11595>:
 800d590:	5f75706d 666e6f63 72756769 65725f65     mpu_configure_re
 800d5a0:	6e6f6967 00000000 00000000 00000000     gion............

0800d5b0 <__func__.8875>:
 800d5b0:	79536863 6c6e5573 006b636f 00000000     chSysUnlock.....

0800d5c0 <__FUNCTION__.11428>:
 800d5c0:	5f756d69 64616572 745f7265 00006468     imu_reader_thd..

0800d5d0 <__func__.7153>:
 800d5d0:	79536863 6c6e5573 006b636f 00000000     chSysUnlock.....
 800d5e0:	756d692f 00000000 00000000 00000000     /imu............

0800d5f0 <__func__.10923>:
 800d5f0:	7262735f 00725f6b 00000000 00000000     _sbrk_r.........

0800d600 <__func__.8162>:
 800d600:	79536863 6c6e5573 006b636f 00000000     chSysUnlock.....
 800d610:	61686e75 656c646e 78652064 74706563     unhandled except
 800d620:	006e6f69 00000000 00000000 00000000     ion.............
 800d630:	656c6469 00000000 00000000 00000000     idle............
 800d640:	33235653 00000000 00000000 00000000     SV#3............
 800d650:	38235653 00000000 00000000 00000000     SV#8............
 800d660:	39235653 00000000 00000000 00000000     SV#9............
 800d670:	34235653 00000000 00000000 00000000     SV#4............
 800d680:	36235653 00000000 00000000 00000000     SV#6............
 800d690:	35235653 00000000 00000000 00000000     SV#5............
 800d6a0:	37235653 00000000 00000000 00000000     SV#7............
 800d6b0:	31235653 00000030 00000000 00000000     SV#10...........
 800d6c0:	31235653 00000031 00000000 00000000     SV#11...........

0800d6d0 <__func__.7857>:
 800d6d0:	54566863 65536f44 00004974 00000000     chVTDoSetI......

0800d6e0 <__func__.7864>:
 800d6e0:	54566863 65526f44 49746573 00000000     chVTDoResetI....

0800d6f0 <__func__.7854>:
 800d6f0:	63536863 61655268 00497964 00000000     chSchReadyI.....
 800d700:	63617473 766f206b 6c667265 0000776f     stack overflow..

0800d710 <__func__.7153>:
 800d710:	79536863 6c6e5573 006b636f 00000000     chSysUnlock.....

0800d720 <__func__.7324>:
 800d720:	68546863 656c5364 00537065 00000000     chThdSleepS.....

0800d730 <__func__.7336>:
 800d730:	68546863 446f4464 65757165 654e6575     chThdDoDequeueNe
 800d740:	00497478 00000000 00000000 00000000     xtI.............

0800d750 <__func__.7866>:
 800d750:	68546863 65724364 49657461 00000000     chThdCreateI....

0800d760 <__func__.7910>:
 800d760:	68546863 69784564 00005374 00000000     chThdExitS......

0800d770 <__func__.7920>:
 800d770:	68546863 73755364 646e6570 00000053     chThdSuspendS...

0800d780 <__func__.7926>:
 800d780:	68546863 73755364 646e6570 656d6954     chThdSuspendTime
 800d790:	5374756f 00000000 00000000 00000000     outS............

0800d7a0 <__func__.7932>:
 800d7a0:	68546863 73655264 49656d75 00000000     chThdResumeI....

0800d7b0 <ch_debug>:
 800d7b0:	6e69616d 18011600 08680404 1814100c     main......h.....
 800d7c0:	2221201c 00002423 00000000 00000000     . !"#$..........

0800d7d0 <__func__.7153>:
 800d7d0:	79536863 6c6e5573 006b636f 00000000     chSysUnlock.....

0800d7e0 <__func__.7849>:
 800d7e0:	744d6863 6a624f78 49746365 0074696e     chMtxObjectInit.

0800d7f0 <__func__.7857>:
 800d7f0:	744d6863 636f4c78 0000536b 00000000     chMtxLockS......

0800d800 <__func__.7880>:
 800d800:	744d6863 6c6e5578 006b636f 00000000     chMtxUnlock.....

0800d810 <__func__.7153>:
 800d810:	79536863 6c6e5573 006b636f 00000000     chSysUnlock.....

0800d820 <__func__.7865>:
 800d820:	6f436863 7242646e 6364616f 49747361     chCondBroadcastI
	...

0800d840 <__func__.7153>:
 800d840:	79536863 6c6e5573 006b636f 00000000     chSysUnlock.....

0800d850 <__func__.7852>:
 800d850:	76456863 67655274 65747369 73614d72     chEvtRegisterMas
 800d860:	7469576b 616c4668 00007367 00000000     kWithFlags......

0800d870 <__func__.7874>:
 800d870:	76456863 6f724274 61636461 6c467473     chEvtBroadcastFl
 800d880:	49736761 00000000 00000000 00000000     agsI............

0800d890 <__func__.7891>:
 800d890:	76456863 67695374 496c616e 00000000     chEvtSignalI....

0800d8a0 <__func__.7153>:
 800d8a0:	79536863 6c6e5573 006b636f 00000000     chSysUnlock.....

0800d8b0 <__func__.7877>:
 800d8b0:	51496863 64616552 656d6954 0074756f     chIQReadTimeout.

0800d8c0 <__func__.7913>:
 800d8c0:	514f6863 74697257 6d695465 74756f65     chOQWriteTimeout
	...

0800d8e0 <__func__.7153>:
 800d8e0:	79536863 6c6e5573 006b636f 00000000     chSysUnlock.....

0800d8f0 <__func__.9847>:
 800d8f0:	636d6d5f 675f6473 735f7465 6563696c     _mmcsd_get_slice
	...

0800d910 <__func__.9854>:
 800d910:	636d6d5f 675f6473 635f7465 63617061     _mmcsd_get_capac
 800d920:	00797469 00000000 00000000 00000000     ity.............

0800d930 <__func__.9862>:
 800d930:	636d6d5f 675f6473 635f7465 63617061     _mmcsd_get_capac
 800d940:	5f797469 00747865 00000000 00000000     ity_ext.........

0800d950 <__func__.7153>:
 800d950:	79536863 6c6e5573 006b636f 00000000     chSysUnlock.....

0800d960 <__func__.9848>:
 800d960:	53633269 74726174 00000000 00000000     i2cStart........

0800d970 <__func__.9852>:
 800d970:	53633269 00706f74 00000000 00000000     i2cStop.........

0800d980 <__func__.9856>:
 800d980:	47633269 72457465 73726f72 00000000     i2cGetErrors....

0800d990 <__func__.9867>:
 800d990:	4d633269 65747361 61725472 696d736e     i2cMasterTransmi
 800d9a0:	6d695474 74756f65 00000000 00000000     tTimeout........

0800d9b0 <__func__.9880>:
 800d9b0:	41633269 69757163 75426572 00000073     i2cAcquireBus...

0800d9c0 <__func__.9884>:
 800d9c0:	52633269 61656c65 75426573 00000073     i2cReleaseBus...

0800d9d0 <__func__.10348>:
 800d9d0:	5f636d6d 5f746573 5f737562 74646977     mmc_set_bus_widt
 800d9e0:	00000068 00000000 00000000 00000000     h...............

0800d9f0 <__func__.10380>:
 800d9f0:	43636473 656e6e6f 00007463 00000000     sdcConnect......

0800da00 <__func__.10391>:
 800da00:	44636473 6f637369 63656e6e 00000074     sdcDisconnect...

0800da10 <__func__.10399>:
 800da10:	52636473 00646165 00000000 00000000     sdcRead.........

0800da20 <__func__.10407>:
 800da20:	57636473 65746972 00000000 00000000     sdcWrite........

0800da30 <__func__.10417>:
 800da30:	53636473 00636e79 00000000 00000000     sdcSync.........

0800da40 <__func__.10422>:
 800da40:	47636473 6e497465 00006f66 00000000     sdcGetInfo......

0800da50 <__func__.7554>:
 800da50:	79536863 6c6e5573 006b636f 00000000     chSysUnlock.....

0800da60 <sdc_vmt>:
 800da60:	08009ac1 08009af1 080052d1 08005841     .........R..AX..
 800da70:	08005691 08005711 08005791 08005281     .V...W...W...R..

0800da80 <__func__.7153>:
 800da80:	79536863 6c6e5573 006b636f 00000000     chSysUnlock.....

0800da90 <__func__.9889>:
 800da90:	74536473 00747261 00000000 00000000     sdStart.........

0800daa0 <__func__.9898>:
 800daa0:	6e496473 696d6f63 6144676e 00496174     sdIncomingDataI.

0800dab0 <vmt>:
 800dab0:	08005a11 080059b1 08005ad1 08005a71     .Z...Y...Z..qZ..
 800dac0:	08005aa1 08005a41 080059e1 08005981     .Z..AZ...Y...Y..

0800dad0 <__func__.10348>:
 800dad0:	53627375 74726174 65636552 49657669     usbStartReceiveI
	...

0800daf0 <__func__.10353>:
 800daf0:	53627375 74726174 6e617254 74696d73     usbStartTransmit
 800db00:	00000049 00000000 00000000 00000000     I...............

0800db10 <__func__.10387>:
 800db10:	6273755f 3070655f 00006e69 00000000     _usb_ep0in......

0800db20 <__func__.10401>:
 800db20:	6273755f 3070655f 0074756f 00000000     _usb_ep0out.....

0800db30 <active_status>:
	...

0800db40 <halted_status>:
 800db40:	00000001 00000000 00000000 00000000     ................

0800db50 <zero_status>:
	...

0800db60 <__func__.9849>:
 800db60:	6369766e 53746553 65747379 6e61486d     nvicSetSystemHan
 800db70:	72656c64 6f697250 79746972 00000000     dlerPriority....

0800db80 <__func__.9922>:
 800db80:	53616d64 61657274 6c6c416d 7461636f     dmaStreamAllocat
 800db90:	00000065 00000000 00000000 00000000     e...............

0800dba0 <__func__.9929>:
 800dba0:	53616d64 61657274 6c65526d 65736165     dmaStreamRelease
	...

0800dbc0 <_stm32_dma_streams>:
 800dbc0:	40026010 40026008 000b0000 40026028     .`.@.`.@....(`.@
 800dbd0:	40026008 000c0106 40026040 40026008     .`.@....@`.@.`.@
 800dbe0:	000d0210 40026058 40026008 000e0316     ....X`.@.`.@....
 800dbf0:	40026070 4002600c 000f0400 40026088     p`.@.`.@.....`.@
 800dc00:	4002600c 00100506 400260a0 4002600c     .`.@.....`.@.`.@
 800dc10:	00110610 400260b8 4002600c 002f0716     .....`.@.`.@../.
 800dc20:	40026410 40026408 00380800 40026428     .d.@.d.@..8.(d.@
 800dc30:	40026408 00390906 40026440 40026408     .d.@..9.@d.@.d.@
 800dc40:	003a0a10 40026458 40026408 003b0b16     ..:.Xd.@.d.@..;.
 800dc50:	40026470 4002640c 003c0c00 40026488     pd.@.d.@..<..d.@
 800dc60:	4002640c 00440d06 400264a0 4002640c     .d.@..D..d.@.d.@
 800dc70:	00450e10 400264b8 4002640c 00460f16     ..E..d.@.d.@..F.

0800dc80 <__func__.10250>:
 800dc80:	5f636473 5f646c6c 70657270 5f657261     sdc_lld_prepare_
 800dc90:	64616572 7479625f 00007365 00000000     read_bytes......

0800dca0 <__func__.10372>:
 800dca0:	5f636473 5f646c6c 64616572 696c615f     sdc_lld_read_ali
 800dcb0:	64656e67 00000000 00000000 00000000     gned............

0800dcc0 <__func__.10381>:
 800dcc0:	5f636473 5f646c6c 74697277 6c615f65     sdc_lld_write_al
 800dcd0:	656e6769 00000064 00000000 00000000     igned...........

0800dce0 <__func__.7554>:
 800dce0:	79536863 6c6e5573 006b636f 00000000     chSysUnlock.....

0800dcf0 <dma1_ch2_params>:
 800dcf0:	40007400 00000003 00000010 0000ffff     .t.@............
 800dd00:	0800dc08 0e02055e 0000000a 00000000     ....^...........

0800dd10 <__func__.7153>:
 800dd10:	79536863 6c6e5573 006b636f 00000000     chSysUnlock.....

0800dd20 <__func__.9857>:
 800dd20:	5f633269 5f646c6c 5f746573 636f6c63     i2c_lld_set_cloc
 800dd30:	0000006b 00000000 00000000 00000000     k...............

0800dd40 <__func__.9922>:
 800dd40:	5f633269 5f646c6c 72617473 00000074     i2c_lld_start...
 800dd50:	20414d44 6c696166 00657275 00000000     DMA failure.....

0800dd60 <__func__.10294>:
 800dd60:	5f67746f 5f6d6172 6f6c6c61 00000063     otg_ram_alloc...

0800dd70 <ep0config>:
 800dd70:	00000000 08005eb1 08006201 08006321     .....^...b..!c..
 800dd80:	00400040 200025d0 200025d0 00000001     @.@..%. .%. ....
 800dd90:	200025e4 00000000 00000000 00000000     .%. ............

0800dda0 <fsparams>:
 800dda0:	00000080 00000140 00000003 00000000     ....@...........

0800ddb0 <default_config>:
 800ddb0:	0001c200 40000000 00000000 00000000     .......@........

0800ddc0 <pal_default_config>:
 800ddc0:	6a80aeae 00000000 ffffffff 00011101     ...j............
 800ddd0:	0000ffff 5d0d3302 000aa000 991aaa9f     .....3.]........
 800dde0:	00000303 ffffffff 40405540 0000aff8     ........@U@@....
 800ddf0:	dd655000 50500044 02aaafff 0000003f     .Pe.D.PP....?...
 800de00:	ffffffff a9555000 00001fc0 dd000000     .....PU.........
 800de10:	000cc6cc 115a542a 00000000 ffffffff     ....*TZ.........
 800de20:	04054255 0000bf6f 00000c99 00000077     UB..o.......w...
 800de30:	55552a5a 00000000 ffffffff 00001505     Z*UU............
 800de40:	000000f3 0ddd00dd 00000000 00000000     ................
 800de50:	00000000 ffffffff 00000000 0000ffff     ................
	...
 800de70:	ffffffff 00000000 0000ffff 00000000     ................
	...
 800de8c:	ffffffff 00000000 0000ffff 00000000     ................
	...
 800dea8:	ffffffff 00000000 0000ffff 00000000     ................
	...
 800dec0:	00000043 49534f50 00000058 00000000     C...POSIX.......
 800ded0:	0000002e 00000000 00000000 00000000     ................
 800dee0:	00464e49 00666e69 004e414e 006e616e     INF.inf.NAN.nan.
 800def0:	33323130 37363534 42413938 46454443     0123456789ABCDEF
 800df00:	00000000 33323130 37363534 62613938     ....0123456789ab
 800df10:	66656463 00000000 6c756e28 0000296c     cdef....(null)..

0800df20 <blanks.8551>:
 800df20:	20202020 20202020 20202020 20202020                     

0800df30 <zeroes.8552>:
 800df30:	30303030 30303030 30303030 30303030     0000000000000000

0800df40 <_ctype_>:
 800df40:	20202000 20202020 28282020 20282828     .         ((((( 
 800df50:	20202020 20202020 20202020 20202020                     
 800df60:	10108820 10101010 10101010 10101010      ...............
 800df70:	04040410 04040404 10040404 10101010     ................
 800df80:	41411010 41414141 01010101 01010101     ..AAAAAA........
 800df90:	01010101 01010101 01010101 10101010     ................
 800dfa0:	42421010 42424242 02020202 02020202     ..BBBBBB........
 800dfb0:	02020202 02020202 02020202 10101010     ................
 800dfc0:	00000020 00000000 00000000 00000000      ...............
	...
 800e050:	69666e49 7974696e 00000000 004e614e     Infinity....NaN.

0800e060 <__mprec_bigtens>:
 800e060:	37e08000 4341c379 b5056e17 4693b8b5     ...7y.AC.n.....F
 800e070:	e93ff9f5 4d384f03 f9301d32 5a827748     ..?..O8M2.0.Hw.Z
 800e080:	7f73bf3c 75154fdd 00000000 00000000     <.s..O.u........

0800e090 <__mprec_tens>:
 800e090:	00000000 3ff00000 00000000 40240000     .......?......$@
 800e0a0:	00000000 40590000 00000000 408f4000     ......Y@.....@.@
 800e0b0:	00000000 40c38800 00000000 40f86a00     .......@.....j.@
 800e0c0:	00000000 412e8480 00000000 416312d0     .......A......cA
 800e0d0:	00000000 4197d784 00000000 41cdcd65     .......A....e..A
 800e0e0:	20000000 4202a05f e8000000 42374876     ... _..B....vH7B
 800e0f0:	a2000000 426d1a94 e5400000 42a2309c     ......mB..@..0.B
 800e100:	1e900000 42d6bcc4 26340000 430c6bf5     .......B..4&.k.C
 800e110:	37e08000 4341c379 85d8a000 43763457     ...7y.AC....W4vC
 800e120:	674ec800 43abc16d 60913d00 43e158e4     ..Ngm..C.=.`.X.C
 800e130:	78b58c40 4415af1d d6e2ef50 444b1ae4     @..x...DP.....KD
 800e140:	064dd592 4480f0cf c7e14af6 44b52d02     ..M....D.J...-.D
 800e150:	79d99db4 44ea7843 00000000 00000000     ...yCx.D........

0800e160 <p05.7367>:
 800e160:	00000005 00000019 0000007d              ........}...
